   1              		.file	"gd32vw55x_hau_sha_md5.c"
   2              		.option nopic
   3              		.attribute arch, "rv32i2p0_m2p0_a2p0_c2p0"
   4              		.attribute unaligned_access, 0
   5              		.attribute stack_align, 16
   6              		.text
   7              	.Ltext0:
   8              		.cfi_sections	.debug_frame
   9              		.section	.text.hau_hash_sha_1,"ax",@progbits
  10              		.align	1
  11              		.globl	hau_hash_sha_1
  13              	hau_hash_sha_1:
  14              	.LFB347:
  15              		.file 1 "../Firmware/GD32VW55x_standard_peripheral/Source/gd32vw55x_hau_sha_md5.c"
   1:../Firmware/GD32VW55x_standard_peripheral/Source/gd32vw55x_hau_sha_md5.c **** /*!
   2:../Firmware/GD32VW55x_standard_peripheral/Source/gd32vw55x_hau_sha_md5.c ****     \file    gd32vw55x_hau_sha_md5.c
   3:../Firmware/GD32VW55x_standard_peripheral/Source/gd32vw55x_hau_sha_md5.c ****     \brief   HAU_SHA_MD5 driver
   4:../Firmware/GD32VW55x_standard_peripheral/Source/gd32vw55x_hau_sha_md5.c **** 
   5:../Firmware/GD32VW55x_standard_peripheral/Source/gd32vw55x_hau_sha_md5.c ****     \version 2025-01-16, V1.4.0, firmware for GD32VW55x
   6:../Firmware/GD32VW55x_standard_peripheral/Source/gd32vw55x_hau_sha_md5.c **** */
   7:../Firmware/GD32VW55x_standard_peripheral/Source/gd32vw55x_hau_sha_md5.c **** 
   8:../Firmware/GD32VW55x_standard_peripheral/Source/gd32vw55x_hau_sha_md5.c **** /*
   9:../Firmware/GD32VW55x_standard_peripheral/Source/gd32vw55x_hau_sha_md5.c ****     Copyright (c) 2025, GigaDevice Semiconductor Inc.
  10:../Firmware/GD32VW55x_standard_peripheral/Source/gd32vw55x_hau_sha_md5.c **** 
  11:../Firmware/GD32VW55x_standard_peripheral/Source/gd32vw55x_hau_sha_md5.c ****     Redistribution and use in source and binary forms, with or without modification,
  12:../Firmware/GD32VW55x_standard_peripheral/Source/gd32vw55x_hau_sha_md5.c **** are permitted provided that the following conditions are met:
  13:../Firmware/GD32VW55x_standard_peripheral/Source/gd32vw55x_hau_sha_md5.c **** 
  14:../Firmware/GD32VW55x_standard_peripheral/Source/gd32vw55x_hau_sha_md5.c ****     1. Redistributions of source code must retain the above copyright notice, this
  15:../Firmware/GD32VW55x_standard_peripheral/Source/gd32vw55x_hau_sha_md5.c ****        list of conditions and the following disclaimer.
  16:../Firmware/GD32VW55x_standard_peripheral/Source/gd32vw55x_hau_sha_md5.c ****     2. Redistributions in binary form must reproduce the above copyright notice,
  17:../Firmware/GD32VW55x_standard_peripheral/Source/gd32vw55x_hau_sha_md5.c ****        this list of conditions and the following disclaimer in the documentation
  18:../Firmware/GD32VW55x_standard_peripheral/Source/gd32vw55x_hau_sha_md5.c ****        and/or other materials provided with the distribution.
  19:../Firmware/GD32VW55x_standard_peripheral/Source/gd32vw55x_hau_sha_md5.c ****     3. Neither the name of the copyright holder nor the names of its contributors
  20:../Firmware/GD32VW55x_standard_peripheral/Source/gd32vw55x_hau_sha_md5.c ****        may be used to endorse or promote products derived from this software without
  21:../Firmware/GD32VW55x_standard_peripheral/Source/gd32vw55x_hau_sha_md5.c ****        specific prior written permission.
  22:../Firmware/GD32VW55x_standard_peripheral/Source/gd32vw55x_hau_sha_md5.c **** 
  23:../Firmware/GD32VW55x_standard_peripheral/Source/gd32vw55x_hau_sha_md5.c ****     THIS SOFTWARE IS PROVIDED BY THE COPYRIGHT HOLDERS AND CONTRIBUTORS "AS IS"
  24:../Firmware/GD32VW55x_standard_peripheral/Source/gd32vw55x_hau_sha_md5.c **** AND ANY EXPRESS OR IMPLIED WARRANTIES, INCLUDING, BUT NOT LIMITED TO, THE IMPLIED
  25:../Firmware/GD32VW55x_standard_peripheral/Source/gd32vw55x_hau_sha_md5.c **** WARRANTIES OF MERCHANTABILITY AND FITNESS FOR A PARTICULAR PURPOSE ARE DISCLAIMED.
  26:../Firmware/GD32VW55x_standard_peripheral/Source/gd32vw55x_hau_sha_md5.c **** IN NO EVENT SHALL THE COPYRIGHT HOLDER OR CONTRIBUTORS BE LIABLE FOR ANY DIRECT,
  27:../Firmware/GD32VW55x_standard_peripheral/Source/gd32vw55x_hau_sha_md5.c **** INDIRECT, INCIDENTAL, SPECIAL, EXEMPLARY, OR CONSEQUENTIAL DAMAGES (INCLUDING, BUT
  28:../Firmware/GD32VW55x_standard_peripheral/Source/gd32vw55x_hau_sha_md5.c **** NOT LIMITED TO, PROCUREMENT OF SUBSTITUTE GOODS OR SERVICES; LOSS OF USE, DATA, OR
  29:../Firmware/GD32VW55x_standard_peripheral/Source/gd32vw55x_hau_sha_md5.c **** PROFITS; OR BUSINESS INTERRUPTION) HOWEVER CAUSED AND ON ANY THEORY OF LIABILITY,
  30:../Firmware/GD32VW55x_standard_peripheral/Source/gd32vw55x_hau_sha_md5.c **** WHETHER IN CONTRACT, STRICT LIABILITY, OR TORT (INCLUDING NEGLIGENCE OR OTHERWISE)
  31:../Firmware/GD32VW55x_standard_peripheral/Source/gd32vw55x_hau_sha_md5.c **** ARISING IN ANY WAY OUT OF THE USE OF THIS SOFTWARE, EVEN IF ADVISED OF THE POSSIBILITY
  32:../Firmware/GD32VW55x_standard_peripheral/Source/gd32vw55x_hau_sha_md5.c **** OF SUCH DAMAGE.
  33:../Firmware/GD32VW55x_standard_peripheral/Source/gd32vw55x_hau_sha_md5.c **** */
  34:../Firmware/GD32VW55x_standard_peripheral/Source/gd32vw55x_hau_sha_md5.c **** 
  35:../Firmware/GD32VW55x_standard_peripheral/Source/gd32vw55x_hau_sha_md5.c **** #include "gd32vw55x_hau.h"
  36:../Firmware/GD32VW55x_standard_peripheral/Source/gd32vw55x_hau_sha_md5.c **** 
  37:../Firmware/GD32VW55x_standard_peripheral/Source/gd32vw55x_hau_sha_md5.c **** #define SHAMD5_BSY_TIMEOUT    ((uint32_t)0x00010000U)
  38:../Firmware/GD32VW55x_standard_peripheral/Source/gd32vw55x_hau_sha_md5.c **** 
  39:../Firmware/GD32VW55x_standard_peripheral/Source/gd32vw55x_hau_sha_md5.c **** /* HAU SHA/MD5 digest read in HASH mode */
  40:../Firmware/GD32VW55x_standard_peripheral/Source/gd32vw55x_hau_sha_md5.c **** static void hau_sha_md5_digest_read(uint32_t algo, uint8_t *output);
  41:../Firmware/GD32VW55x_standard_peripheral/Source/gd32vw55x_hau_sha_md5.c **** /* HAU digest calculate process in HASH mode */
  42:../Firmware/GD32VW55x_standard_peripheral/Source/gd32vw55x_hau_sha_md5.c **** static ErrStatus hau_hash_calculate(uint32_t algo, uint8_t *input, uint32_t in_length, uint8_t *out
  43:../Firmware/GD32VW55x_standard_peripheral/Source/gd32vw55x_hau_sha_md5.c **** /* HAU digest calculate process in HMAC mode */
  44:../Firmware/GD32VW55x_standard_peripheral/Source/gd32vw55x_hau_sha_md5.c **** static ErrStatus hau_hmac_calculate(uint32_t algo, uint8_t *key, uint32_t keysize, uint8_t *input, 
  45:../Firmware/GD32VW55x_standard_peripheral/Source/gd32vw55x_hau_sha_md5.c **** 
  46:../Firmware/GD32VW55x_standard_peripheral/Source/gd32vw55x_hau_sha_md5.c **** /*!
  47:../Firmware/GD32VW55x_standard_peripheral/Source/gd32vw55x_hau_sha_md5.c ****     \brief      calculate digest using SHA1 in HASH mode
  48:../Firmware/GD32VW55x_standard_peripheral/Source/gd32vw55x_hau_sha_md5.c ****     \param[in]  input: pointer to the input buffer
  49:../Firmware/GD32VW55x_standard_peripheral/Source/gd32vw55x_hau_sha_md5.c ****     \param[in]  in_length: length of the input buffer
  50:../Firmware/GD32VW55x_standard_peripheral/Source/gd32vw55x_hau_sha_md5.c ****     \param[in]  output: the result digest
  51:../Firmware/GD32VW55x_standard_peripheral/Source/gd32vw55x_hau_sha_md5.c ****     \param[out] none
  52:../Firmware/GD32VW55x_standard_peripheral/Source/gd32vw55x_hau_sha_md5.c ****     \retval     ErrStatus: SUCCESS or ERROR
  53:../Firmware/GD32VW55x_standard_peripheral/Source/gd32vw55x_hau_sha_md5.c **** */
  54:../Firmware/GD32VW55x_standard_peripheral/Source/gd32vw55x_hau_sha_md5.c **** ErrStatus hau_hash_sha_1(uint8_t *input, uint32_t in_length, uint8_t output[20])
  55:../Firmware/GD32VW55x_standard_peripheral/Source/gd32vw55x_hau_sha_md5.c **** {
  16              		.loc 1 55 1
  17              		.cfi_startproc
  18 0000 7971     		addi	sp,sp,-48
  19              		.cfi_def_cfa_offset 48
  20 0002 06D6     		sw	ra,44(sp)
  21 0004 22D4     		sw	s0,40(sp)
  22              		.cfi_offset 1, -4
  23              		.cfi_offset 8, -8
  24 0006 0018     		addi	s0,sp,48
  25              		.cfi_def_cfa 8, 0
  26 0008 232EA4FC 		sw	a0,-36(s0)
  27 000c 232CB4FC 		sw	a1,-40(s0)
  28 0010 232AC4FC 		sw	a2,-44(s0)
  56:../Firmware/GD32VW55x_standard_peripheral/Source/gd32vw55x_hau_sha_md5.c ****     ErrStatus ret = ERROR;
  29              		.loc 1 56 15
  30 0014 232604FE 		sw	zero,-20(s0)
  57:../Firmware/GD32VW55x_standard_peripheral/Source/gd32vw55x_hau_sha_md5.c ****     ret = hau_hash_calculate(HAU_ALGO_SHA1, input, in_length, output);
  31              		.loc 1 57 11
  32 0018 832644FD 		lw	a3,-44(s0)
  33 001c 032684FD 		lw	a2,-40(s0)
  34 0020 8325C4FD 		lw	a1,-36(s0)
  35 0024 0145     		li	a0,0
  36 0026 97000000 		call	hau_hash_calculate
  36      E7800000 
  37 002e 2326A4FE 		sw	a0,-20(s0)
  58:../Firmware/GD32VW55x_standard_peripheral/Source/gd32vw55x_hau_sha_md5.c ****     return ret;
  38              		.loc 1 58 12
  39 0032 8327C4FE 		lw	a5,-20(s0)
  59:../Firmware/GD32VW55x_standard_peripheral/Source/gd32vw55x_hau_sha_md5.c **** }
  40              		.loc 1 59 1
  41 0036 3E85     		mv	a0,a5
  42 0038 B250     		lw	ra,44(sp)
  43              		.cfi_restore 1
  44 003a 2254     		lw	s0,40(sp)
  45              		.cfi_restore 8
  46              		.cfi_def_cfa 2, 48
  47 003c 4561     		addi	sp,sp,48
  48              		.cfi_def_cfa_offset 0
  49 003e 8280     		jr	ra
  50              		.cfi_endproc
  51              	.LFE347:
  53              		.section	.text.hau_hmac_sha_1,"ax",@progbits
  54              		.align	1
  55              		.globl	hau_hmac_sha_1
  57              	hau_hmac_sha_1:
  58              	.LFB348:
  60:../Firmware/GD32VW55x_standard_peripheral/Source/gd32vw55x_hau_sha_md5.c **** 
  61:../Firmware/GD32VW55x_standard_peripheral/Source/gd32vw55x_hau_sha_md5.c **** /*!
  62:../Firmware/GD32VW55x_standard_peripheral/Source/gd32vw55x_hau_sha_md5.c ****     \brief      calculate digest using SHA1 in HMAC mode
  63:../Firmware/GD32VW55x_standard_peripheral/Source/gd32vw55x_hau_sha_md5.c ****     \param[in]  key: pointer to the key used for HMAC
  64:../Firmware/GD32VW55x_standard_peripheral/Source/gd32vw55x_hau_sha_md5.c ****     \param[in]  keysize: length of the key used for HMAC
  65:../Firmware/GD32VW55x_standard_peripheral/Source/gd32vw55x_hau_sha_md5.c ****     \param[in]  input: pointer to the input buffer
  66:../Firmware/GD32VW55x_standard_peripheral/Source/gd32vw55x_hau_sha_md5.c ****     \param[in]  in_length: length of the input buffer
  67:../Firmware/GD32VW55x_standard_peripheral/Source/gd32vw55x_hau_sha_md5.c ****     \param[in]  output: the result digest
  68:../Firmware/GD32VW55x_standard_peripheral/Source/gd32vw55x_hau_sha_md5.c ****     \param[out] none
  69:../Firmware/GD32VW55x_standard_peripheral/Source/gd32vw55x_hau_sha_md5.c ****     \retval     ErrStatus: SUCCESS or ERROR
  70:../Firmware/GD32VW55x_standard_peripheral/Source/gd32vw55x_hau_sha_md5.c **** */
  71:../Firmware/GD32VW55x_standard_peripheral/Source/gd32vw55x_hau_sha_md5.c **** ErrStatus hau_hmac_sha_1(uint8_t *key, uint32_t keysize, uint8_t *input, uint32_t in_length, uint8_
  72:../Firmware/GD32VW55x_standard_peripheral/Source/gd32vw55x_hau_sha_md5.c **** {
  59              		.loc 1 72 1
  60              		.cfi_startproc
  61 0000 3971     		addi	sp,sp,-64
  62              		.cfi_def_cfa_offset 64
  63 0002 06DE     		sw	ra,60(sp)
  64 0004 22DC     		sw	s0,56(sp)
  65              		.cfi_offset 1, -4
  66              		.cfi_offset 8, -8
  67 0006 8000     		addi	s0,sp,64
  68              		.cfi_def_cfa 8, 0
  69 0008 232EA4FC 		sw	a0,-36(s0)
  70 000c 232CB4FC 		sw	a1,-40(s0)
  71 0010 232AC4FC 		sw	a2,-44(s0)
  72 0014 2328D4FC 		sw	a3,-48(s0)
  73 0018 2326E4FC 		sw	a4,-52(s0)
  73:../Firmware/GD32VW55x_standard_peripheral/Source/gd32vw55x_hau_sha_md5.c ****     ErrStatus ret = ERROR;
  74              		.loc 1 73 15
  75 001c 232604FE 		sw	zero,-20(s0)
  74:../Firmware/GD32VW55x_standard_peripheral/Source/gd32vw55x_hau_sha_md5.c ****     ret = hau_hmac_calculate(HAU_ALGO_SHA1, key, keysize, input, in_length, output);
  76              		.loc 1 74 11
  77 0020 8327C4FC 		lw	a5,-52(s0)
  78 0024 032704FD 		lw	a4,-48(s0)
  79 0028 832644FD 		lw	a3,-44(s0)
  80 002c 032684FD 		lw	a2,-40(s0)
  81 0030 8325C4FD 		lw	a1,-36(s0)
  82 0034 0145     		li	a0,0
  83 0036 97000000 		call	hau_hmac_calculate
  83      E7800000 
  84 003e 2326A4FE 		sw	a0,-20(s0)
  75:../Firmware/GD32VW55x_standard_peripheral/Source/gd32vw55x_hau_sha_md5.c ****     return ret;
  85              		.loc 1 75 12
  86 0042 8327C4FE 		lw	a5,-20(s0)
  76:../Firmware/GD32VW55x_standard_peripheral/Source/gd32vw55x_hau_sha_md5.c **** }
  87              		.loc 1 76 1
  88 0046 3E85     		mv	a0,a5
  89 0048 F250     		lw	ra,60(sp)
  90              		.cfi_restore 1
  91 004a 6254     		lw	s0,56(sp)
  92              		.cfi_restore 8
  93              		.cfi_def_cfa 2, 64
  94 004c 2161     		addi	sp,sp,64
  95              		.cfi_def_cfa_offset 0
  96 004e 8280     		jr	ra
  97              		.cfi_endproc
  98              	.LFE348:
 100              		.section	.text.hau_hash_sha_224,"ax",@progbits
 101              		.align	1
 102              		.globl	hau_hash_sha_224
 104              	hau_hash_sha_224:
 105              	.LFB349:
  77:../Firmware/GD32VW55x_standard_peripheral/Source/gd32vw55x_hau_sha_md5.c **** 
  78:../Firmware/GD32VW55x_standard_peripheral/Source/gd32vw55x_hau_sha_md5.c **** /*!
  79:../Firmware/GD32VW55x_standard_peripheral/Source/gd32vw55x_hau_sha_md5.c ****     \brief      calculate digest using SHA224 in HASH mode
  80:../Firmware/GD32VW55x_standard_peripheral/Source/gd32vw55x_hau_sha_md5.c ****     \param[in]  input: pointer to the input buffer
  81:../Firmware/GD32VW55x_standard_peripheral/Source/gd32vw55x_hau_sha_md5.c ****     \param[in]  in_length: length of the input buffer
  82:../Firmware/GD32VW55x_standard_peripheral/Source/gd32vw55x_hau_sha_md5.c ****     \param[in]  output: the result digest
  83:../Firmware/GD32VW55x_standard_peripheral/Source/gd32vw55x_hau_sha_md5.c ****     \param[out] none
  84:../Firmware/GD32VW55x_standard_peripheral/Source/gd32vw55x_hau_sha_md5.c ****     \retval     ErrStatus: SUCCESS or ERROR
  85:../Firmware/GD32VW55x_standard_peripheral/Source/gd32vw55x_hau_sha_md5.c **** */
  86:../Firmware/GD32VW55x_standard_peripheral/Source/gd32vw55x_hau_sha_md5.c **** ErrStatus hau_hash_sha_224(uint8_t *input, uint32_t in_length, uint8_t output[28])
  87:../Firmware/GD32VW55x_standard_peripheral/Source/gd32vw55x_hau_sha_md5.c **** {
 106              		.loc 1 87 1
 107              		.cfi_startproc
 108 0000 7971     		addi	sp,sp,-48
 109              		.cfi_def_cfa_offset 48
 110 0002 06D6     		sw	ra,44(sp)
 111 0004 22D4     		sw	s0,40(sp)
 112              		.cfi_offset 1, -4
 113              		.cfi_offset 8, -8
 114 0006 0018     		addi	s0,sp,48
 115              		.cfi_def_cfa 8, 0
 116 0008 232EA4FC 		sw	a0,-36(s0)
 117 000c 232CB4FC 		sw	a1,-40(s0)
 118 0010 232AC4FC 		sw	a2,-44(s0)
  88:../Firmware/GD32VW55x_standard_peripheral/Source/gd32vw55x_hau_sha_md5.c ****     ErrStatus ret = ERROR;
 119              		.loc 1 88 15
 120 0014 232604FE 		sw	zero,-20(s0)
  89:../Firmware/GD32VW55x_standard_peripheral/Source/gd32vw55x_hau_sha_md5.c ****     ret = hau_hash_calculate(HAU_ALGO_SHA224, input, in_length, output);
 121              		.loc 1 89 11
 122 0018 832644FD 		lw	a3,-44(s0)
 123 001c 032684FD 		lw	a2,-40(s0)
 124 0020 8325C4FD 		lw	a1,-36(s0)
 125 0024 37050400 		li	a0,262144
 126 0028 97000000 		call	hau_hash_calculate
 126      E7800000 
 127 0030 2326A4FE 		sw	a0,-20(s0)
  90:../Firmware/GD32VW55x_standard_peripheral/Source/gd32vw55x_hau_sha_md5.c ****     return ret;
 128              		.loc 1 90 12
 129 0034 8327C4FE 		lw	a5,-20(s0)
  91:../Firmware/GD32VW55x_standard_peripheral/Source/gd32vw55x_hau_sha_md5.c **** }
 130              		.loc 1 91 1
 131 0038 3E85     		mv	a0,a5
 132 003a B250     		lw	ra,44(sp)
 133              		.cfi_restore 1
 134 003c 2254     		lw	s0,40(sp)
 135              		.cfi_restore 8
 136              		.cfi_def_cfa 2, 48
 137 003e 4561     		addi	sp,sp,48
 138              		.cfi_def_cfa_offset 0
 139 0040 8280     		jr	ra
 140              		.cfi_endproc
 141              	.LFE349:
 143              		.section	.text.hau_hmac_sha_224,"ax",@progbits
 144              		.align	1
 145              		.globl	hau_hmac_sha_224
 147              	hau_hmac_sha_224:
 148              	.LFB350:
  92:../Firmware/GD32VW55x_standard_peripheral/Source/gd32vw55x_hau_sha_md5.c **** 
  93:../Firmware/GD32VW55x_standard_peripheral/Source/gd32vw55x_hau_sha_md5.c **** /*!
  94:../Firmware/GD32VW55x_standard_peripheral/Source/gd32vw55x_hau_sha_md5.c ****     \brief      calculate digest using SHA224 in HMAC mode
  95:../Firmware/GD32VW55x_standard_peripheral/Source/gd32vw55x_hau_sha_md5.c ****     \param[in]  key: pointer to the key used for HMAC
  96:../Firmware/GD32VW55x_standard_peripheral/Source/gd32vw55x_hau_sha_md5.c ****     \param[in]  keysize: length of the key used for HMAC
  97:../Firmware/GD32VW55x_standard_peripheral/Source/gd32vw55x_hau_sha_md5.c ****     \param[in]  input: pointer to the input buffer
  98:../Firmware/GD32VW55x_standard_peripheral/Source/gd32vw55x_hau_sha_md5.c ****     \param[in]  in_length: length of the input buffer
  99:../Firmware/GD32VW55x_standard_peripheral/Source/gd32vw55x_hau_sha_md5.c ****     \param[in]  output: the result digest
 100:../Firmware/GD32VW55x_standard_peripheral/Source/gd32vw55x_hau_sha_md5.c ****     \param[out] none
 101:../Firmware/GD32VW55x_standard_peripheral/Source/gd32vw55x_hau_sha_md5.c ****     \retval     ErrStatus: SUCCESS or ERROR
 102:../Firmware/GD32VW55x_standard_peripheral/Source/gd32vw55x_hau_sha_md5.c **** */
 103:../Firmware/GD32VW55x_standard_peripheral/Source/gd32vw55x_hau_sha_md5.c **** ErrStatus hau_hmac_sha_224(uint8_t *key, uint32_t keysize, uint8_t *input, uint32_t in_length, uint
 104:../Firmware/GD32VW55x_standard_peripheral/Source/gd32vw55x_hau_sha_md5.c **** {
 149              		.loc 1 104 1
 150              		.cfi_startproc
 151 0000 3971     		addi	sp,sp,-64
 152              		.cfi_def_cfa_offset 64
 153 0002 06DE     		sw	ra,60(sp)
 154 0004 22DC     		sw	s0,56(sp)
 155              		.cfi_offset 1, -4
 156              		.cfi_offset 8, -8
 157 0006 8000     		addi	s0,sp,64
 158              		.cfi_def_cfa 8, 0
 159 0008 232EA4FC 		sw	a0,-36(s0)
 160 000c 232CB4FC 		sw	a1,-40(s0)
 161 0010 232AC4FC 		sw	a2,-44(s0)
 162 0014 2328D4FC 		sw	a3,-48(s0)
 163 0018 2326E4FC 		sw	a4,-52(s0)
 105:../Firmware/GD32VW55x_standard_peripheral/Source/gd32vw55x_hau_sha_md5.c ****     ErrStatus ret = ERROR;
 164              		.loc 1 105 15
 165 001c 232604FE 		sw	zero,-20(s0)
 106:../Firmware/GD32VW55x_standard_peripheral/Source/gd32vw55x_hau_sha_md5.c ****     ret = hau_hmac_calculate(HAU_ALGO_SHA224, key, keysize, input, in_length, output);
 166              		.loc 1 106 11
 167 0020 8327C4FC 		lw	a5,-52(s0)
 168 0024 032704FD 		lw	a4,-48(s0)
 169 0028 832644FD 		lw	a3,-44(s0)
 170 002c 032684FD 		lw	a2,-40(s0)
 171 0030 8325C4FD 		lw	a1,-36(s0)
 172 0034 37050400 		li	a0,262144
 173 0038 97000000 		call	hau_hmac_calculate
 173      E7800000 
 174 0040 2326A4FE 		sw	a0,-20(s0)
 107:../Firmware/GD32VW55x_standard_peripheral/Source/gd32vw55x_hau_sha_md5.c ****     return ret;
 175              		.loc 1 107 12
 176 0044 8327C4FE 		lw	a5,-20(s0)
 108:../Firmware/GD32VW55x_standard_peripheral/Source/gd32vw55x_hau_sha_md5.c **** }
 177              		.loc 1 108 1
 178 0048 3E85     		mv	a0,a5
 179 004a F250     		lw	ra,60(sp)
 180              		.cfi_restore 1
 181 004c 6254     		lw	s0,56(sp)
 182              		.cfi_restore 8
 183              		.cfi_def_cfa 2, 64
 184 004e 2161     		addi	sp,sp,64
 185              		.cfi_def_cfa_offset 0
 186 0050 8280     		jr	ra
 187              		.cfi_endproc
 188              	.LFE350:
 190              		.section	.text.hau_hash_sha_256,"ax",@progbits
 191              		.align	1
 192              		.globl	hau_hash_sha_256
 194              	hau_hash_sha_256:
 195              	.LFB351:
 109:../Firmware/GD32VW55x_standard_peripheral/Source/gd32vw55x_hau_sha_md5.c **** 
 110:../Firmware/GD32VW55x_standard_peripheral/Source/gd32vw55x_hau_sha_md5.c **** /*!
 111:../Firmware/GD32VW55x_standard_peripheral/Source/gd32vw55x_hau_sha_md5.c ****     \brief      calculate digest using SHA256 in HASH mode
 112:../Firmware/GD32VW55x_standard_peripheral/Source/gd32vw55x_hau_sha_md5.c ****     \param[in]  input: pointer to the input buffer
 113:../Firmware/GD32VW55x_standard_peripheral/Source/gd32vw55x_hau_sha_md5.c ****     \param[in]  in_length: length of the input buffer
 114:../Firmware/GD32VW55x_standard_peripheral/Source/gd32vw55x_hau_sha_md5.c ****     \param[in]  output: the result digest
 115:../Firmware/GD32VW55x_standard_peripheral/Source/gd32vw55x_hau_sha_md5.c ****     \param[out] none
 116:../Firmware/GD32VW55x_standard_peripheral/Source/gd32vw55x_hau_sha_md5.c ****     \retval     ErrStatus: SUCCESS or ERROR
 117:../Firmware/GD32VW55x_standard_peripheral/Source/gd32vw55x_hau_sha_md5.c **** */
 118:../Firmware/GD32VW55x_standard_peripheral/Source/gd32vw55x_hau_sha_md5.c **** ErrStatus hau_hash_sha_256(uint8_t *input, uint32_t in_length, uint8_t output[32])
 119:../Firmware/GD32VW55x_standard_peripheral/Source/gd32vw55x_hau_sha_md5.c **** {
 196              		.loc 1 119 1
 197              		.cfi_startproc
 198 0000 7971     		addi	sp,sp,-48
 199              		.cfi_def_cfa_offset 48
 200 0002 06D6     		sw	ra,44(sp)
 201 0004 22D4     		sw	s0,40(sp)
 202              		.cfi_offset 1, -4
 203              		.cfi_offset 8, -8
 204 0006 0018     		addi	s0,sp,48
 205              		.cfi_def_cfa 8, 0
 206 0008 232EA4FC 		sw	a0,-36(s0)
 207 000c 232CB4FC 		sw	a1,-40(s0)
 208 0010 232AC4FC 		sw	a2,-44(s0)
 120:../Firmware/GD32VW55x_standard_peripheral/Source/gd32vw55x_hau_sha_md5.c ****     ErrStatus ret = ERROR;
 209              		.loc 1 120 15
 210 0014 232604FE 		sw	zero,-20(s0)
 121:../Firmware/GD32VW55x_standard_peripheral/Source/gd32vw55x_hau_sha_md5.c ****     ret = hau_hash_calculate(HAU_ALGO_SHA256, input, in_length, output);
 211              		.loc 1 121 11
 212 0018 832644FD 		lw	a3,-44(s0)
 213 001c 032684FD 		lw	a2,-40(s0)
 214 0020 8325C4FD 		lw	a1,-36(s0)
 215 0024 B7070400 		li	a5,262144
 216 0028 13850708 		addi	a0,a5,128
 217 002c 97000000 		call	hau_hash_calculate
 217      E7800000 
 218 0034 2326A4FE 		sw	a0,-20(s0)
 122:../Firmware/GD32VW55x_standard_peripheral/Source/gd32vw55x_hau_sha_md5.c ****     return ret;
 219              		.loc 1 122 12
 220 0038 8327C4FE 		lw	a5,-20(s0)
 123:../Firmware/GD32VW55x_standard_peripheral/Source/gd32vw55x_hau_sha_md5.c **** }
 221              		.loc 1 123 1
 222 003c 3E85     		mv	a0,a5
 223 003e B250     		lw	ra,44(sp)
 224              		.cfi_restore 1
 225 0040 2254     		lw	s0,40(sp)
 226              		.cfi_restore 8
 227              		.cfi_def_cfa 2, 48
 228 0042 4561     		addi	sp,sp,48
 229              		.cfi_def_cfa_offset 0
 230 0044 8280     		jr	ra
 231              		.cfi_endproc
 232              	.LFE351:
 234              		.section	.text.hau_hmac_sha_256,"ax",@progbits
 235              		.align	1
 236              		.globl	hau_hmac_sha_256
 238              	hau_hmac_sha_256:
 239              	.LFB352:
 124:../Firmware/GD32VW55x_standard_peripheral/Source/gd32vw55x_hau_sha_md5.c **** 
 125:../Firmware/GD32VW55x_standard_peripheral/Source/gd32vw55x_hau_sha_md5.c **** /*!
 126:../Firmware/GD32VW55x_standard_peripheral/Source/gd32vw55x_hau_sha_md5.c ****     \brief      calculate digest using SHA256 in HMAC mode
 127:../Firmware/GD32VW55x_standard_peripheral/Source/gd32vw55x_hau_sha_md5.c ****     \param[in]  key: pointer to the key used for HMAC
 128:../Firmware/GD32VW55x_standard_peripheral/Source/gd32vw55x_hau_sha_md5.c ****     \param[in]  keysize: length of the key used for HMAC
 129:../Firmware/GD32VW55x_standard_peripheral/Source/gd32vw55x_hau_sha_md5.c ****     \param[in]  input: pointer to the input buffer
 130:../Firmware/GD32VW55x_standard_peripheral/Source/gd32vw55x_hau_sha_md5.c ****     \param[in]  in_length: length of the input buffer
 131:../Firmware/GD32VW55x_standard_peripheral/Source/gd32vw55x_hau_sha_md5.c ****     \param[in]  output: the result digest
 132:../Firmware/GD32VW55x_standard_peripheral/Source/gd32vw55x_hau_sha_md5.c ****     \param[out] none
 133:../Firmware/GD32VW55x_standard_peripheral/Source/gd32vw55x_hau_sha_md5.c ****     \retval     ErrStatus: SUCCESS or ERROR
 134:../Firmware/GD32VW55x_standard_peripheral/Source/gd32vw55x_hau_sha_md5.c **** */
 135:../Firmware/GD32VW55x_standard_peripheral/Source/gd32vw55x_hau_sha_md5.c **** ErrStatus hau_hmac_sha_256(uint8_t *key, uint32_t keysize, uint8_t *input, uint32_t in_length, uint
 136:../Firmware/GD32VW55x_standard_peripheral/Source/gd32vw55x_hau_sha_md5.c **** {
 240              		.loc 1 136 1
 241              		.cfi_startproc
 242 0000 3971     		addi	sp,sp,-64
 243              		.cfi_def_cfa_offset 64
 244 0002 06DE     		sw	ra,60(sp)
 245 0004 22DC     		sw	s0,56(sp)
 246              		.cfi_offset 1, -4
 247              		.cfi_offset 8, -8
 248 0006 8000     		addi	s0,sp,64
 249              		.cfi_def_cfa 8, 0
 250 0008 232EA4FC 		sw	a0,-36(s0)
 251 000c 232CB4FC 		sw	a1,-40(s0)
 252 0010 232AC4FC 		sw	a2,-44(s0)
 253 0014 2328D4FC 		sw	a3,-48(s0)
 254 0018 2326E4FC 		sw	a4,-52(s0)
 137:../Firmware/GD32VW55x_standard_peripheral/Source/gd32vw55x_hau_sha_md5.c ****     ErrStatus ret = ERROR;
 255              		.loc 1 137 15
 256 001c 232604FE 		sw	zero,-20(s0)
 138:../Firmware/GD32VW55x_standard_peripheral/Source/gd32vw55x_hau_sha_md5.c ****     ret = hau_hmac_calculate(HAU_ALGO_SHA256, key, keysize, input, in_length, output);
 257              		.loc 1 138 11
 258 0020 8327C4FC 		lw	a5,-52(s0)
 259 0024 032704FD 		lw	a4,-48(s0)
 260 0028 832644FD 		lw	a3,-44(s0)
 261 002c 032684FD 		lw	a2,-40(s0)
 262 0030 8325C4FD 		lw	a1,-36(s0)
 263 0034 37050400 		li	a0,262144
 264 0038 13050508 		addi	a0,a0,128
 265 003c 97000000 		call	hau_hmac_calculate
 265      E7800000 
 266 0044 2326A4FE 		sw	a0,-20(s0)
 139:../Firmware/GD32VW55x_standard_peripheral/Source/gd32vw55x_hau_sha_md5.c ****     return ret;
 267              		.loc 1 139 12
 268 0048 8327C4FE 		lw	a5,-20(s0)
 140:../Firmware/GD32VW55x_standard_peripheral/Source/gd32vw55x_hau_sha_md5.c **** }
 269              		.loc 1 140 1
 270 004c 3E85     		mv	a0,a5
 271 004e F250     		lw	ra,60(sp)
 272              		.cfi_restore 1
 273 0050 6254     		lw	s0,56(sp)
 274              		.cfi_restore 8
 275              		.cfi_def_cfa 2, 64
 276 0052 2161     		addi	sp,sp,64
 277              		.cfi_def_cfa_offset 0
 278 0054 8280     		jr	ra
 279              		.cfi_endproc
 280              	.LFE352:
 282              		.section	.text.hau_hash_md5,"ax",@progbits
 283              		.align	1
 284              		.globl	hau_hash_md5
 286              	hau_hash_md5:
 287              	.LFB353:
 141:../Firmware/GD32VW55x_standard_peripheral/Source/gd32vw55x_hau_sha_md5.c **** 
 142:../Firmware/GD32VW55x_standard_peripheral/Source/gd32vw55x_hau_sha_md5.c **** /*!
 143:../Firmware/GD32VW55x_standard_peripheral/Source/gd32vw55x_hau_sha_md5.c ****     \brief      calculate digest using MD5 in HASH mode
 144:../Firmware/GD32VW55x_standard_peripheral/Source/gd32vw55x_hau_sha_md5.c ****     \param[in]  input: pointer to the input buffer
 145:../Firmware/GD32VW55x_standard_peripheral/Source/gd32vw55x_hau_sha_md5.c ****     \param[in]  in_length: length of the input buffer
 146:../Firmware/GD32VW55x_standard_peripheral/Source/gd32vw55x_hau_sha_md5.c ****     \param[in]  output: the result digest
 147:../Firmware/GD32VW55x_standard_peripheral/Source/gd32vw55x_hau_sha_md5.c ****     \param[out] none
 148:../Firmware/GD32VW55x_standard_peripheral/Source/gd32vw55x_hau_sha_md5.c ****     \retval     ErrStatus: SUCCESS or ERROR
 149:../Firmware/GD32VW55x_standard_peripheral/Source/gd32vw55x_hau_sha_md5.c **** */
 150:../Firmware/GD32VW55x_standard_peripheral/Source/gd32vw55x_hau_sha_md5.c **** ErrStatus hau_hash_md5(uint8_t *input, uint32_t in_length, uint8_t output[16])
 151:../Firmware/GD32VW55x_standard_peripheral/Source/gd32vw55x_hau_sha_md5.c **** {
 288              		.loc 1 151 1
 289              		.cfi_startproc
 290 0000 7971     		addi	sp,sp,-48
 291              		.cfi_def_cfa_offset 48
 292 0002 06D6     		sw	ra,44(sp)
 293 0004 22D4     		sw	s0,40(sp)
 294              		.cfi_offset 1, -4
 295              		.cfi_offset 8, -8
 296 0006 0018     		addi	s0,sp,48
 297              		.cfi_def_cfa 8, 0
 298 0008 232EA4FC 		sw	a0,-36(s0)
 299 000c 232CB4FC 		sw	a1,-40(s0)
 300 0010 232AC4FC 		sw	a2,-44(s0)
 152:../Firmware/GD32VW55x_standard_peripheral/Source/gd32vw55x_hau_sha_md5.c ****     ErrStatus ret = ERROR;
 301              		.loc 1 152 15
 302 0014 232604FE 		sw	zero,-20(s0)
 153:../Firmware/GD32VW55x_standard_peripheral/Source/gd32vw55x_hau_sha_md5.c ****     ret = hau_hash_calculate(HAU_ALGO_MD5, input, in_length, output);
 303              		.loc 1 153 11
 304 0018 832644FD 		lw	a3,-44(s0)
 305 001c 032684FD 		lw	a2,-40(s0)
 306 0020 8325C4FD 		lw	a1,-36(s0)
 307 0024 13050008 		li	a0,128
 308 0028 97000000 		call	hau_hash_calculate
 308      E7800000 
 309 0030 2326A4FE 		sw	a0,-20(s0)
 154:../Firmware/GD32VW55x_standard_peripheral/Source/gd32vw55x_hau_sha_md5.c ****     return ret;
 310              		.loc 1 154 12
 311 0034 8327C4FE 		lw	a5,-20(s0)
 155:../Firmware/GD32VW55x_standard_peripheral/Source/gd32vw55x_hau_sha_md5.c **** }
 312              		.loc 1 155 1
 313 0038 3E85     		mv	a0,a5
 314 003a B250     		lw	ra,44(sp)
 315              		.cfi_restore 1
 316 003c 2254     		lw	s0,40(sp)
 317              		.cfi_restore 8
 318              		.cfi_def_cfa 2, 48
 319 003e 4561     		addi	sp,sp,48
 320              		.cfi_def_cfa_offset 0
 321 0040 8280     		jr	ra
 322              		.cfi_endproc
 323              	.LFE353:
 325              		.section	.text.hau_hmac_md5,"ax",@progbits
 326              		.align	1
 327              		.globl	hau_hmac_md5
 329              	hau_hmac_md5:
 330              	.LFB354:
 156:../Firmware/GD32VW55x_standard_peripheral/Source/gd32vw55x_hau_sha_md5.c **** 
 157:../Firmware/GD32VW55x_standard_peripheral/Source/gd32vw55x_hau_sha_md5.c **** /*!
 158:../Firmware/GD32VW55x_standard_peripheral/Source/gd32vw55x_hau_sha_md5.c ****     \brief      calculate digest using MD5 in HMAC mode
 159:../Firmware/GD32VW55x_standard_peripheral/Source/gd32vw55x_hau_sha_md5.c ****     \param[in]  key: pointer to the key used for HMAC
 160:../Firmware/GD32VW55x_standard_peripheral/Source/gd32vw55x_hau_sha_md5.c ****     \param[in]  keysize: length of the key used for HMAC
 161:../Firmware/GD32VW55x_standard_peripheral/Source/gd32vw55x_hau_sha_md5.c ****     \param[in]  input: pointer to the input buffer
 162:../Firmware/GD32VW55x_standard_peripheral/Source/gd32vw55x_hau_sha_md5.c ****     \param[in]  in_length: length of the input buffer
 163:../Firmware/GD32VW55x_standard_peripheral/Source/gd32vw55x_hau_sha_md5.c ****     \param[in]  output: the result digest
 164:../Firmware/GD32VW55x_standard_peripheral/Source/gd32vw55x_hau_sha_md5.c ****     \param[out] none
 165:../Firmware/GD32VW55x_standard_peripheral/Source/gd32vw55x_hau_sha_md5.c ****     \retval     ErrStatus: SUCCESS or ERROR
 166:../Firmware/GD32VW55x_standard_peripheral/Source/gd32vw55x_hau_sha_md5.c **** */
 167:../Firmware/GD32VW55x_standard_peripheral/Source/gd32vw55x_hau_sha_md5.c **** ErrStatus hau_hmac_md5(uint8_t *key, uint32_t keysize, uint8_t *input, uint32_t in_length, uint8_t 
 168:../Firmware/GD32VW55x_standard_peripheral/Source/gd32vw55x_hau_sha_md5.c **** {
 331              		.loc 1 168 1
 332              		.cfi_startproc
 333 0000 3971     		addi	sp,sp,-64
 334              		.cfi_def_cfa_offset 64
 335 0002 06DE     		sw	ra,60(sp)
 336 0004 22DC     		sw	s0,56(sp)
 337              		.cfi_offset 1, -4
 338              		.cfi_offset 8, -8
 339 0006 8000     		addi	s0,sp,64
 340              		.cfi_def_cfa 8, 0
 341 0008 232EA4FC 		sw	a0,-36(s0)
 342 000c 232CB4FC 		sw	a1,-40(s0)
 343 0010 232AC4FC 		sw	a2,-44(s0)
 344 0014 2328D4FC 		sw	a3,-48(s0)
 345 0018 2326E4FC 		sw	a4,-52(s0)
 169:../Firmware/GD32VW55x_standard_peripheral/Source/gd32vw55x_hau_sha_md5.c ****     ErrStatus ret = ERROR;
 346              		.loc 1 169 15
 347 001c 232604FE 		sw	zero,-20(s0)
 170:../Firmware/GD32VW55x_standard_peripheral/Source/gd32vw55x_hau_sha_md5.c ****     ret = hau_hmac_calculate(HAU_ALGO_MD5, key, keysize, input, in_length, output);
 348              		.loc 1 170 11
 349 0020 8327C4FC 		lw	a5,-52(s0)
 350 0024 032704FD 		lw	a4,-48(s0)
 351 0028 832644FD 		lw	a3,-44(s0)
 352 002c 032684FD 		lw	a2,-40(s0)
 353 0030 8325C4FD 		lw	a1,-36(s0)
 354 0034 13050008 		li	a0,128
 355 0038 97000000 		call	hau_hmac_calculate
 355      E7800000 
 356 0040 2326A4FE 		sw	a0,-20(s0)
 171:../Firmware/GD32VW55x_standard_peripheral/Source/gd32vw55x_hau_sha_md5.c ****     return ret;
 357              		.loc 1 171 12
 358 0044 8327C4FE 		lw	a5,-20(s0)
 172:../Firmware/GD32VW55x_standard_peripheral/Source/gd32vw55x_hau_sha_md5.c **** }
 359              		.loc 1 172 1
 360 0048 3E85     		mv	a0,a5
 361 004a F250     		lw	ra,60(sp)
 362              		.cfi_restore 1
 363 004c 6254     		lw	s0,56(sp)
 364              		.cfi_restore 8
 365              		.cfi_def_cfa 2, 64
 366 004e 2161     		addi	sp,sp,64
 367              		.cfi_def_cfa_offset 0
 368 0050 8280     		jr	ra
 369              		.cfi_endproc
 370              	.LFE354:
 372              		.section	.text.hau_sha_md5_digest_read,"ax",@progbits
 373              		.align	1
 375              	hau_sha_md5_digest_read:
 376              	.LFB355:
 173:../Firmware/GD32VW55x_standard_peripheral/Source/gd32vw55x_hau_sha_md5.c **** 
 174:../Firmware/GD32VW55x_standard_peripheral/Source/gd32vw55x_hau_sha_md5.c **** /*!
 175:../Firmware/GD32VW55x_standard_peripheral/Source/gd32vw55x_hau_sha_md5.c ****     \brief      HAU SHA/MD5 digest read
 176:../Firmware/GD32VW55x_standard_peripheral/Source/gd32vw55x_hau_sha_md5.c ****     \param[in]  algo: algorithm selection
 177:../Firmware/GD32VW55x_standard_peripheral/Source/gd32vw55x_hau_sha_md5.c ****     \param[out] output: the result digest
 178:../Firmware/GD32VW55x_standard_peripheral/Source/gd32vw55x_hau_sha_md5.c ****     \retval     none
 179:../Firmware/GD32VW55x_standard_peripheral/Source/gd32vw55x_hau_sha_md5.c **** */
 180:../Firmware/GD32VW55x_standard_peripheral/Source/gd32vw55x_hau_sha_md5.c **** static void hau_sha_md5_digest_read(uint32_t algo, uint8_t *output)
 181:../Firmware/GD32VW55x_standard_peripheral/Source/gd32vw55x_hau_sha_md5.c **** {
 377              		.loc 1 181 1
 378              		.cfi_startproc
 379 0000 6D71     		addi	sp,sp,-272
 380              		.cfi_def_cfa_offset 272
 381 0002 23261110 		sw	ra,268(sp)
 382 0006 23248110 		sw	s0,264(sp)
 383              		.cfi_offset 1, -4
 384              		.cfi_offset 8, -8
 385 000a 000A     		addi	s0,sp,272
 386              		.cfi_def_cfa 8, 0
 387 000c 232EA4EE 		sw	a0,-260(s0)
 388 0010 232CB4EE 		sw	a1,-264(s0)
 182:../Firmware/GD32VW55x_standard_peripheral/Source/gd32vw55x_hau_sha_md5.c ****     hau_digest_parameter_struct digest_para;
 183:../Firmware/GD32VW55x_standard_peripheral/Source/gd32vw55x_hau_sha_md5.c ****     uint32_t outputaddr = (uint32_t)output;
 389              		.loc 1 183 14
 390 0014 832784EF 		lw	a5,-264(s0)
 391 0018 2326F4FE 		sw	a5,-20(s0)
 184:../Firmware/GD32VW55x_standard_peripheral/Source/gd32vw55x_hau_sha_md5.c **** 
 185:../Firmware/GD32VW55x_standard_peripheral/Source/gd32vw55x_hau_sha_md5.c ****     switch(algo){
 392              		.loc 1 185 5
 393 001c 0327C4EF 		lw	a4,-260(s0)
 394 0020 B7070400 		li	a5,262144
 395 0024 93870708 		addi	a5,a5,128
 396 0028 6302F742 		beq	a4,a5,.L18
 397 002c 0327C4EF 		lw	a4,-260(s0)
 398 0030 B7070400 		li	a5,262144
 399 0034 93870708 		addi	a5,a5,128
 400 0038 63ECE77E 		bgtu	a4,a5,.L48
 401 003c 0327C4EF 		lw	a4,-260(s0)
 402 0040 B7070400 		li	a5,262144
 403 0044 6302F71C 		beq	a4,a5,.L20
 404 0048 0327C4EF 		lw	a4,-260(s0)
 405 004c B7070400 		li	a5,262144
 406 0050 63E0E77E 		bgtu	a4,a5,.L48
 407 0054 8327C4EF 		lw	a5,-260(s0)
 408 0058 81CB     		beq	a5,zero,.L21
 409 005a 0327C4EF 		lw	a4,-260(s0)
 410 005e 93070008 		li	a5,128
 411 0062 6300F768 		beq	a4,a5,.L22
 186:../Firmware/GD32VW55x_standard_peripheral/Source/gd32vw55x_hau_sha_md5.c ****     case HAU_ALGO_SHA1:
 187:../Firmware/GD32VW55x_standard_peripheral/Source/gd32vw55x_hau_sha_md5.c ****         hau_digest_read(&digest_para);
 188:../Firmware/GD32VW55x_standard_peripheral/Source/gd32vw55x_hau_sha_md5.c ****         *(uint32_t*)(outputaddr)  = __REV(digest_para.out[0]);
 189:../Firmware/GD32VW55x_standard_peripheral/Source/gd32vw55x_hau_sha_md5.c ****         outputaddr += 4U;
 190:../Firmware/GD32VW55x_standard_peripheral/Source/gd32vw55x_hau_sha_md5.c ****         *(uint32_t*)(outputaddr)  = __REV(digest_para.out[1]);
 191:../Firmware/GD32VW55x_standard_peripheral/Source/gd32vw55x_hau_sha_md5.c ****         outputaddr += 4U;
 192:../Firmware/GD32VW55x_standard_peripheral/Source/gd32vw55x_hau_sha_md5.c ****         *(uint32_t*)(outputaddr)  = __REV(digest_para.out[2]);
 193:../Firmware/GD32VW55x_standard_peripheral/Source/gd32vw55x_hau_sha_md5.c ****         outputaddr += 4U;
 194:../Firmware/GD32VW55x_standard_peripheral/Source/gd32vw55x_hau_sha_md5.c ****         *(uint32_t*)(outputaddr)  = __REV(digest_para.out[3]);
 195:../Firmware/GD32VW55x_standard_peripheral/Source/gd32vw55x_hau_sha_md5.c ****         outputaddr += 4U;
 196:../Firmware/GD32VW55x_standard_peripheral/Source/gd32vw55x_hau_sha_md5.c ****         *(uint32_t*)(outputaddr)  = __REV(digest_para.out[4]);
 197:../Firmware/GD32VW55x_standard_peripheral/Source/gd32vw55x_hau_sha_md5.c ****         break;
 198:../Firmware/GD32VW55x_standard_peripheral/Source/gd32vw55x_hau_sha_md5.c ****     case HAU_ALGO_SHA224:
 199:../Firmware/GD32VW55x_standard_peripheral/Source/gd32vw55x_hau_sha_md5.c ****         hau_digest_read(&digest_para);
 200:../Firmware/GD32VW55x_standard_peripheral/Source/gd32vw55x_hau_sha_md5.c ****         *(uint32_t*)(outputaddr)  = __REV(digest_para.out[0]);
 201:../Firmware/GD32VW55x_standard_peripheral/Source/gd32vw55x_hau_sha_md5.c ****         outputaddr += 4U;
 202:../Firmware/GD32VW55x_standard_peripheral/Source/gd32vw55x_hau_sha_md5.c ****         *(uint32_t*)(outputaddr)  = __REV(digest_para.out[1]);
 203:../Firmware/GD32VW55x_standard_peripheral/Source/gd32vw55x_hau_sha_md5.c ****         outputaddr += 4U;
 204:../Firmware/GD32VW55x_standard_peripheral/Source/gd32vw55x_hau_sha_md5.c ****         *(uint32_t*)(outputaddr)  = __REV(digest_para.out[2]);
 205:../Firmware/GD32VW55x_standard_peripheral/Source/gd32vw55x_hau_sha_md5.c ****         outputaddr += 4U;
 206:../Firmware/GD32VW55x_standard_peripheral/Source/gd32vw55x_hau_sha_md5.c ****         *(uint32_t*)(outputaddr)  = __REV(digest_para.out[3]);
 207:../Firmware/GD32VW55x_standard_peripheral/Source/gd32vw55x_hau_sha_md5.c ****         outputaddr += 4U;
 208:../Firmware/GD32VW55x_standard_peripheral/Source/gd32vw55x_hau_sha_md5.c ****         *(uint32_t*)(outputaddr)  = __REV(digest_para.out[4]);
 209:../Firmware/GD32VW55x_standard_peripheral/Source/gd32vw55x_hau_sha_md5.c ****         outputaddr += 4U;
 210:../Firmware/GD32VW55x_standard_peripheral/Source/gd32vw55x_hau_sha_md5.c ****         *(uint32_t*)(outputaddr)  = __REV(digest_para.out[5]);
 211:../Firmware/GD32VW55x_standard_peripheral/Source/gd32vw55x_hau_sha_md5.c ****         outputaddr += 4U;
 212:../Firmware/GD32VW55x_standard_peripheral/Source/gd32vw55x_hau_sha_md5.c ****         *(uint32_t*)(outputaddr)  = __REV(digest_para.out[6]);
 213:../Firmware/GD32VW55x_standard_peripheral/Source/gd32vw55x_hau_sha_md5.c ****         break;
 214:../Firmware/GD32VW55x_standard_peripheral/Source/gd32vw55x_hau_sha_md5.c ****     case HAU_ALGO_SHA256:
 215:../Firmware/GD32VW55x_standard_peripheral/Source/gd32vw55x_hau_sha_md5.c ****         hau_digest_read(&digest_para);
 216:../Firmware/GD32VW55x_standard_peripheral/Source/gd32vw55x_hau_sha_md5.c ****         *(uint32_t*)(outputaddr)  = __REV(digest_para.out[0]);
 217:../Firmware/GD32VW55x_standard_peripheral/Source/gd32vw55x_hau_sha_md5.c ****         outputaddr += 4U;
 218:../Firmware/GD32VW55x_standard_peripheral/Source/gd32vw55x_hau_sha_md5.c ****         *(uint32_t*)(outputaddr)  = __REV(digest_para.out[1]);
 219:../Firmware/GD32VW55x_standard_peripheral/Source/gd32vw55x_hau_sha_md5.c ****         outputaddr += 4U;
 220:../Firmware/GD32VW55x_standard_peripheral/Source/gd32vw55x_hau_sha_md5.c ****         *(uint32_t*)(outputaddr)  = __REV(digest_para.out[2]);
 221:../Firmware/GD32VW55x_standard_peripheral/Source/gd32vw55x_hau_sha_md5.c ****         outputaddr += 4U;
 222:../Firmware/GD32VW55x_standard_peripheral/Source/gd32vw55x_hau_sha_md5.c ****         *(uint32_t*)(outputaddr)  = __REV(digest_para.out[3]);
 223:../Firmware/GD32VW55x_standard_peripheral/Source/gd32vw55x_hau_sha_md5.c ****         outputaddr += 4U;
 224:../Firmware/GD32VW55x_standard_peripheral/Source/gd32vw55x_hau_sha_md5.c ****         *(uint32_t*)(outputaddr)  = __REV(digest_para.out[4]);
 225:../Firmware/GD32VW55x_standard_peripheral/Source/gd32vw55x_hau_sha_md5.c ****         outputaddr += 4U;
 226:../Firmware/GD32VW55x_standard_peripheral/Source/gd32vw55x_hau_sha_md5.c ****         *(uint32_t*)(outputaddr)  = __REV(digest_para.out[5]);
 227:../Firmware/GD32VW55x_standard_peripheral/Source/gd32vw55x_hau_sha_md5.c ****         outputaddr += 4U;
 228:../Firmware/GD32VW55x_standard_peripheral/Source/gd32vw55x_hau_sha_md5.c ****         *(uint32_t*)(outputaddr)  = __REV(digest_para.out[6]);
 229:../Firmware/GD32VW55x_standard_peripheral/Source/gd32vw55x_hau_sha_md5.c ****         outputaddr += 4U;
 230:../Firmware/GD32VW55x_standard_peripheral/Source/gd32vw55x_hau_sha_md5.c ****         *(uint32_t*)(outputaddr)  = __REV(digest_para.out[7]);
 231:../Firmware/GD32VW55x_standard_peripheral/Source/gd32vw55x_hau_sha_md5.c ****         break;
 232:../Firmware/GD32VW55x_standard_peripheral/Source/gd32vw55x_hau_sha_md5.c ****     case HAU_ALGO_MD5:
 233:../Firmware/GD32VW55x_standard_peripheral/Source/gd32vw55x_hau_sha_md5.c ****         hau_digest_read(&digest_para);
 234:../Firmware/GD32VW55x_standard_peripheral/Source/gd32vw55x_hau_sha_md5.c ****         *(uint32_t*)(outputaddr)  = __REV(digest_para.out[0]);
 235:../Firmware/GD32VW55x_standard_peripheral/Source/gd32vw55x_hau_sha_md5.c ****         outputaddr += 4U;
 236:../Firmware/GD32VW55x_standard_peripheral/Source/gd32vw55x_hau_sha_md5.c ****         *(uint32_t*)(outputaddr)  = __REV(digest_para.out[1]);
 237:../Firmware/GD32VW55x_standard_peripheral/Source/gd32vw55x_hau_sha_md5.c ****         outputaddr += 4U;
 238:../Firmware/GD32VW55x_standard_peripheral/Source/gd32vw55x_hau_sha_md5.c ****         *(uint32_t*)(outputaddr)  = __REV(digest_para.out[2]);
 239:../Firmware/GD32VW55x_standard_peripheral/Source/gd32vw55x_hau_sha_md5.c ****         outputaddr += 4U;
 240:../Firmware/GD32VW55x_standard_peripheral/Source/gd32vw55x_hau_sha_md5.c ****         *(uint32_t*)(outputaddr)  = __REV(digest_para.out[3]);
 241:../Firmware/GD32VW55x_standard_peripheral/Source/gd32vw55x_hau_sha_md5.c ****         break;
 242:../Firmware/GD32VW55x_standard_peripheral/Source/gd32vw55x_hau_sha_md5.c ****     default:
 243:../Firmware/GD32VW55x_standard_peripheral/Source/gd32vw55x_hau_sha_md5.c ****         break;
 412              		.loc 1 243 9
 413 0066 E9A7     		j	.L48
 414              	.L21:
 187:../Firmware/GD32VW55x_standard_peripheral/Source/gd32vw55x_hau_sha_md5.c ****         *(uint32_t*)(outputaddr)  = __REV(digest_para.out[0]);
 415              		.loc 1 187 9
 416 0068 9307C4F0 		addi	a5,s0,-244
 417 006c 3E85     		mv	a0,a5
 418 006e 97000000 		call	hau_digest_read
 418      E7800000 
 188:../Firmware/GD32VW55x_standard_peripheral/Source/gd32vw55x_hau_sha_md5.c ****         outputaddr += 4U;
 419              		.loc 1 188 37
 420 0076 0327C4F0 		lw	a4,-244(s0)
 188:../Firmware/GD32VW55x_standard_peripheral/Source/gd32vw55x_hau_sha_md5.c ****         outputaddr += 4U;
 421              		.loc 1 188 10
 422 007a 8327C4FE 		lw	a5,-20(s0)
 423 007e 2324E4FC 		sw	a4,-56(s0)
 424              	.LBB50:
 425              	.LBB51:
 426              		.file 2 "../Firmware/RISCV/drivers/core_compatiable.h"
   1:../Firmware/RISCV/drivers/core_compatiable.h **** /*
   2:../Firmware/RISCV/drivers/core_compatiable.h ****  * Copyright (c) 2019 Nuclei Limited. All rights reserved.
   3:../Firmware/RISCV/drivers/core_compatiable.h ****  *
   4:../Firmware/RISCV/drivers/core_compatiable.h ****  * SPDX-License-Identifier: Apache-2.0
   5:../Firmware/RISCV/drivers/core_compatiable.h ****  *
   6:../Firmware/RISCV/drivers/core_compatiable.h ****  * Licensed under the Apache License, Version 2.0 (the License); you may
   7:../Firmware/RISCV/drivers/core_compatiable.h ****  * not use this file except in compliance with the License.
   8:../Firmware/RISCV/drivers/core_compatiable.h ****  * You may obtain a copy of the License at
   9:../Firmware/RISCV/drivers/core_compatiable.h ****  *
  10:../Firmware/RISCV/drivers/core_compatiable.h ****  * www.apache.org/licenses/LICENSE-2.0
  11:../Firmware/RISCV/drivers/core_compatiable.h ****  *
  12:../Firmware/RISCV/drivers/core_compatiable.h ****  * Unless required by applicable law or agreed to in writing, software
  13:../Firmware/RISCV/drivers/core_compatiable.h ****  * distributed under the License is distributed on an AS IS BASIS, WITHOUT
  14:../Firmware/RISCV/drivers/core_compatiable.h ****  * WARRANTIES OR CONDITIONS OF ANY KIND, either express or implied.
  15:../Firmware/RISCV/drivers/core_compatiable.h ****  * See the License for the specific language governing permissions and
  16:../Firmware/RISCV/drivers/core_compatiable.h ****  * limitations under the License.
  17:../Firmware/RISCV/drivers/core_compatiable.h ****  */
  18:../Firmware/RISCV/drivers/core_compatiable.h **** #ifndef __CORE_COMPATIABLE_H__
  19:../Firmware/RISCV/drivers/core_compatiable.h **** #define __CORE_COMPATIABLE_H__
  20:../Firmware/RISCV/drivers/core_compatiable.h **** /*!
  21:../Firmware/RISCV/drivers/core_compatiable.h ****  * @file     core_compatiable.h
  22:../Firmware/RISCV/drivers/core_compatiable.h ****  * @brief    ARM compatiable function definitions header file
  23:../Firmware/RISCV/drivers/core_compatiable.h ****  */
  24:../Firmware/RISCV/drivers/core_compatiable.h **** #ifdef __cplusplus
  25:../Firmware/RISCV/drivers/core_compatiable.h ****  extern "C" {
  26:../Firmware/RISCV/drivers/core_compatiable.h **** #endif
  27:../Firmware/RISCV/drivers/core_compatiable.h **** 
  28:../Firmware/RISCV/drivers/core_compatiable.h **** /* ===== ARM Compatiable Functions ===== */
  29:../Firmware/RISCV/drivers/core_compatiable.h **** /**
  30:../Firmware/RISCV/drivers/core_compatiable.h ****  * \defgroup NMSIS_Core_ARMCompatiable_Functions   ARM Compatiable Functions
  31:../Firmware/RISCV/drivers/core_compatiable.h ****  * \ingroup  NMSIS_Core
  32:../Firmware/RISCV/drivers/core_compatiable.h ****  * \brief    A few functions that compatiable with ARM CMSIS-Core.
  33:../Firmware/RISCV/drivers/core_compatiable.h ****  * \details
  34:../Firmware/RISCV/drivers/core_compatiable.h ****  *
  35:../Firmware/RISCV/drivers/core_compatiable.h ****  * Here we provided a few functions that compatiable with ARM CMSIS-Core,
  36:../Firmware/RISCV/drivers/core_compatiable.h ****  * mostly used in the DSP and NN library.
  37:../Firmware/RISCV/drivers/core_compatiable.h ****  * @{
  38:../Firmware/RISCV/drivers/core_compatiable.h ****  */
  39:../Firmware/RISCV/drivers/core_compatiable.h **** /** \brief Instruction Synchronization Barrier, compatiable with ARM */
  40:../Firmware/RISCV/drivers/core_compatiable.h **** #define __ISB()                             __RWMB()
  41:../Firmware/RISCV/drivers/core_compatiable.h **** 
  42:../Firmware/RISCV/drivers/core_compatiable.h **** /** \brief Data Synchronization Barrier, compatiable with ARM */
  43:../Firmware/RISCV/drivers/core_compatiable.h **** #define __DSB()                             __RWMB()
  44:../Firmware/RISCV/drivers/core_compatiable.h **** 
  45:../Firmware/RISCV/drivers/core_compatiable.h **** /** \brief Data Memory Barrier, compatiable with ARM */
  46:../Firmware/RISCV/drivers/core_compatiable.h **** #define __DMB()                             __RWMB()
  47:../Firmware/RISCV/drivers/core_compatiable.h **** 
  48:../Firmware/RISCV/drivers/core_compatiable.h **** /** \brief LDRT Unprivileged (8 bit), ARM Compatiable */
  49:../Firmware/RISCV/drivers/core_compatiable.h **** #define __LDRBT(ptr)                        __LB((ptr))
  50:../Firmware/RISCV/drivers/core_compatiable.h **** /** \brief LDRT Unprivileged (16 bit), ARM Compatiable */
  51:../Firmware/RISCV/drivers/core_compatiable.h **** #define __LDRHT(ptr)                        __LH((ptr))
  52:../Firmware/RISCV/drivers/core_compatiable.h **** /** \brief LDRT Unprivileged (32 bit), ARM Compatiable */
  53:../Firmware/RISCV/drivers/core_compatiable.h **** #define __LDRT(ptr)                         __LW((ptr))
  54:../Firmware/RISCV/drivers/core_compatiable.h **** 
  55:../Firmware/RISCV/drivers/core_compatiable.h **** /** \brief STRT Unprivileged (8 bit), ARM Compatiable */
  56:../Firmware/RISCV/drivers/core_compatiable.h **** #define __STRBT(val, ptr)                   __SB((ptr), (val))
  57:../Firmware/RISCV/drivers/core_compatiable.h **** /** \brief STRT Unprivileged (16 bit), ARM Compatiable */
  58:../Firmware/RISCV/drivers/core_compatiable.h **** #define __STRHT(val, ptr)                   __SH((ptr), (val))
  59:../Firmware/RISCV/drivers/core_compatiable.h **** /** \brief STRT Unprivileged (32 bit), ARM Compatiable */
  60:../Firmware/RISCV/drivers/core_compatiable.h **** #define __STRT(val, ptr)                    __SW((ptr), (val))
  61:../Firmware/RISCV/drivers/core_compatiable.h **** 
  62:../Firmware/RISCV/drivers/core_compatiable.h **** /* ===== Saturation Operations ===== */
  63:../Firmware/RISCV/drivers/core_compatiable.h **** /**
  64:../Firmware/RISCV/drivers/core_compatiable.h ****  * \brief   Signed Saturate
  65:../Firmware/RISCV/drivers/core_compatiable.h ****  * \details Saturates a signed value.
  66:../Firmware/RISCV/drivers/core_compatiable.h ****  * \param [in]  value  Value to be saturated
  67:../Firmware/RISCV/drivers/core_compatiable.h ****  * \param [in]    sat  Bit position to saturate to (1..32)
  68:../Firmware/RISCV/drivers/core_compatiable.h ****  * \return             Saturated value
  69:../Firmware/RISCV/drivers/core_compatiable.h ****  */
  70:../Firmware/RISCV/drivers/core_compatiable.h **** #if defined(__DSP_PRESENT) && (__DSP_PRESENT == 1)
  71:../Firmware/RISCV/drivers/core_compatiable.h **** #define __SSAT(val, sat)          __RV_SCLIP32((val), (sat-1))
  72:../Firmware/RISCV/drivers/core_compatiable.h **** #else
  73:../Firmware/RISCV/drivers/core_compatiable.h **** __STATIC_FORCEINLINE int32_t __SSAT(int32_t val, uint32_t sat)
  74:../Firmware/RISCV/drivers/core_compatiable.h **** {
  75:../Firmware/RISCV/drivers/core_compatiable.h ****     if ((sat >= 1U) && (sat <= 32U)) {
  76:../Firmware/RISCV/drivers/core_compatiable.h ****         const int32_t max = (int32_t)((1U << (sat - 1U)) - 1U);
  77:../Firmware/RISCV/drivers/core_compatiable.h ****         const int32_t min = -1 - max ;
  78:../Firmware/RISCV/drivers/core_compatiable.h ****         if (val > max) {
  79:../Firmware/RISCV/drivers/core_compatiable.h ****             return max;
  80:../Firmware/RISCV/drivers/core_compatiable.h ****         } else if (val < min) {
  81:../Firmware/RISCV/drivers/core_compatiable.h ****             return min;
  82:../Firmware/RISCV/drivers/core_compatiable.h ****         }
  83:../Firmware/RISCV/drivers/core_compatiable.h ****     }
  84:../Firmware/RISCV/drivers/core_compatiable.h ****     return val;
  85:../Firmware/RISCV/drivers/core_compatiable.h **** }
  86:../Firmware/RISCV/drivers/core_compatiable.h **** #endif
  87:../Firmware/RISCV/drivers/core_compatiable.h **** 
  88:../Firmware/RISCV/drivers/core_compatiable.h **** /**
  89:../Firmware/RISCV/drivers/core_compatiable.h ****  * \brief   Unsigned Saturate
  90:../Firmware/RISCV/drivers/core_compatiable.h ****  * \details Saturates an unsigned value.
  91:../Firmware/RISCV/drivers/core_compatiable.h ****  * \param [in]  value  Value to be saturated
  92:../Firmware/RISCV/drivers/core_compatiable.h ****  * \param [in]    sat  Bit position to saturate to (0..31)
  93:../Firmware/RISCV/drivers/core_compatiable.h ****  * \return             Saturated value
  94:../Firmware/RISCV/drivers/core_compatiable.h ****  */
  95:../Firmware/RISCV/drivers/core_compatiable.h **** #if defined(__DSP_PRESENT) && (__DSP_PRESENT == 1)
  96:../Firmware/RISCV/drivers/core_compatiable.h **** #define __USAT(val, sat)        __RV_UCLIP32((val), (sat))
  97:../Firmware/RISCV/drivers/core_compatiable.h **** #else
  98:../Firmware/RISCV/drivers/core_compatiable.h **** __STATIC_FORCEINLINE uint32_t __USAT(int32_t val, uint32_t sat)
  99:../Firmware/RISCV/drivers/core_compatiable.h **** {
 100:../Firmware/RISCV/drivers/core_compatiable.h ****     if (sat <= 31U) {
 101:../Firmware/RISCV/drivers/core_compatiable.h ****         const uint32_t max = ((1U << sat) - 1U);
 102:../Firmware/RISCV/drivers/core_compatiable.h ****         if (val > (int32_t)max) {
 103:../Firmware/RISCV/drivers/core_compatiable.h ****             return max;
 104:../Firmware/RISCV/drivers/core_compatiable.h ****         } else if (val < 0) {
 105:../Firmware/RISCV/drivers/core_compatiable.h ****             return 0U;
 106:../Firmware/RISCV/drivers/core_compatiable.h ****         }
 107:../Firmware/RISCV/drivers/core_compatiable.h ****     }
 108:../Firmware/RISCV/drivers/core_compatiable.h ****     return (uint32_t)val;
 109:../Firmware/RISCV/drivers/core_compatiable.h **** }
 110:../Firmware/RISCV/drivers/core_compatiable.h **** #endif
 111:../Firmware/RISCV/drivers/core_compatiable.h **** 
 112:../Firmware/RISCV/drivers/core_compatiable.h **** /* ===== Data Processing Operations ===== */
 113:../Firmware/RISCV/drivers/core_compatiable.h **** /**
 114:../Firmware/RISCV/drivers/core_compatiable.h ****  * \brief   Reverse byte order (32 bit)
 115:../Firmware/RISCV/drivers/core_compatiable.h ****  * \details Reverses the byte order in unsigned integer value.
 116:../Firmware/RISCV/drivers/core_compatiable.h ****  * For example, 0x12345678 becomes 0x78563412.
 117:../Firmware/RISCV/drivers/core_compatiable.h ****  * \param [in]    value  Value to reverse
 118:../Firmware/RISCV/drivers/core_compatiable.h ****  * \return               Reversed value
 119:../Firmware/RISCV/drivers/core_compatiable.h ****  */
 120:../Firmware/RISCV/drivers/core_compatiable.h **** __STATIC_FORCEINLINE uint32_t __REV(uint32_t value)
 121:../Firmware/RISCV/drivers/core_compatiable.h **** {
 122:../Firmware/RISCV/drivers/core_compatiable.h ****     uint32_t result;
 123:../Firmware/RISCV/drivers/core_compatiable.h **** 
 124:../Firmware/RISCV/drivers/core_compatiable.h ****     result =  ((value & 0xff000000) >> 24)
 427              		.loc 2 124 37
 428 0082 032784FC 		lw	a4,-56(s0)
 429 0086 93568701 		srli	a3,a4,24
 125:../Firmware/RISCV/drivers/core_compatiable.h ****         | ((value & 0x00ff0000) >> 8 )
 430              		.loc 2 125 33
 431 008a 032784FC 		lw	a4,-56(s0)
 432 008e 13568700 		srli	a2,a4,8
 433 0092 4167     		li	a4,65536
 434 0094 130707F0 		addi	a4,a4,-256
 435 0098 718F     		and	a4,a2,a4
 436              		.loc 2 125 9
 437 009a D98E     		or	a3,a3,a4
 126:../Firmware/RISCV/drivers/core_compatiable.h ****         | ((value & 0x0000ff00) << 8 )
 438              		.loc 2 126 33
 439 009c 032784FC 		lw	a4,-56(s0)
 440 00a0 13168700 		slli	a2,a4,8
 441 00a4 3707FF00 		li	a4,16711680
 442 00a8 718F     		and	a4,a2,a4
 443              		.loc 2 126 9
 444 00aa D98E     		or	a3,a3,a4
 127:../Firmware/RISCV/drivers/core_compatiable.h ****         | ((value & 0x000000ff) << 24);
 445              		.loc 2 127 33
 446 00ac 032784FC 		lw	a4,-56(s0)
 447 00b0 6207     		slli	a4,a4,24
 124:../Firmware/RISCV/drivers/core_compatiable.h ****         | ((value & 0x00ff0000) >> 8 )
 448              		.loc 2 124 12
 449 00b2 558F     		or	a4,a3,a4
 450 00b4 2322E4FC 		sw	a4,-60(s0)
 128:../Firmware/RISCV/drivers/core_compatiable.h ****     return result;
 451              		.loc 2 128 12
 452 00b8 032744FC 		lw	a4,-60(s0)
 453              	.LBE51:
 454              	.LBE50:
 188:../Firmware/GD32VW55x_standard_peripheral/Source/gd32vw55x_hau_sha_md5.c ****         outputaddr += 4U;
 455              		.loc 1 188 35
 456 00bc 98C3     		sw	a4,0(a5)
 189:../Firmware/GD32VW55x_standard_peripheral/Source/gd32vw55x_hau_sha_md5.c ****         *(uint32_t*)(outputaddr)  = __REV(digest_para.out[1]);
 457              		.loc 1 189 20
 458 00be 8327C4FE 		lw	a5,-20(s0)
 459 00c2 9107     		addi	a5,a5,4
 460 00c4 2326F4FE 		sw	a5,-20(s0)
 190:../Firmware/GD32VW55x_standard_peripheral/Source/gd32vw55x_hau_sha_md5.c ****         outputaddr += 4U;
 461              		.loc 1 190 37
 462 00c8 032704F1 		lw	a4,-240(s0)
 190:../Firmware/GD32VW55x_standard_peripheral/Source/gd32vw55x_hau_sha_md5.c ****         outputaddr += 4U;
 463              		.loc 1 190 10
 464 00cc 8327C4FE 		lw	a5,-20(s0)
 465 00d0 2328E4FC 		sw	a4,-48(s0)
 466              	.LBB52:
 467              	.LBB53:
 124:../Firmware/RISCV/drivers/core_compatiable.h ****         | ((value & 0x00ff0000) >> 8 )
 468              		.loc 2 124 37
 469 00d4 032704FD 		lw	a4,-48(s0)
 470 00d8 93568701 		srli	a3,a4,24
 125:../Firmware/RISCV/drivers/core_compatiable.h ****         | ((value & 0x0000ff00) << 8 )
 471              		.loc 2 125 33
 472 00dc 032704FD 		lw	a4,-48(s0)
 473 00e0 13568700 		srli	a2,a4,8
 474 00e4 4167     		li	a4,65536
 475 00e6 130707F0 		addi	a4,a4,-256
 476 00ea 718F     		and	a4,a2,a4
 125:../Firmware/RISCV/drivers/core_compatiable.h ****         | ((value & 0x0000ff00) << 8 )
 477              		.loc 2 125 9
 478 00ec D98E     		or	a3,a3,a4
 126:../Firmware/RISCV/drivers/core_compatiable.h ****         | ((value & 0x000000ff) << 24);
 479              		.loc 2 126 33
 480 00ee 032704FD 		lw	a4,-48(s0)
 481 00f2 13168700 		slli	a2,a4,8
 482 00f6 3707FF00 		li	a4,16711680
 483 00fa 718F     		and	a4,a2,a4
 126:../Firmware/RISCV/drivers/core_compatiable.h ****         | ((value & 0x000000ff) << 24);
 484              		.loc 2 126 9
 485 00fc D98E     		or	a3,a3,a4
 127:../Firmware/RISCV/drivers/core_compatiable.h ****     return result;
 486              		.loc 2 127 33
 487 00fe 032704FD 		lw	a4,-48(s0)
 488 0102 6207     		slli	a4,a4,24
 124:../Firmware/RISCV/drivers/core_compatiable.h ****         | ((value & 0x00ff0000) >> 8 )
 489              		.loc 2 124 12
 490 0104 558F     		or	a4,a3,a4
 491 0106 2326E4FC 		sw	a4,-52(s0)
 492              		.loc 2 128 12
 493 010a 0327C4FC 		lw	a4,-52(s0)
 494              	.LBE53:
 495              	.LBE52:
 190:../Firmware/GD32VW55x_standard_peripheral/Source/gd32vw55x_hau_sha_md5.c ****         outputaddr += 4U;
 496              		.loc 1 190 35
 497 010e 98C3     		sw	a4,0(a5)
 191:../Firmware/GD32VW55x_standard_peripheral/Source/gd32vw55x_hau_sha_md5.c ****         *(uint32_t*)(outputaddr)  = __REV(digest_para.out[2]);
 498              		.loc 1 191 20
 499 0110 8327C4FE 		lw	a5,-20(s0)
 500 0114 9107     		addi	a5,a5,4
 501 0116 2326F4FE 		sw	a5,-20(s0)
 192:../Firmware/GD32VW55x_standard_peripheral/Source/gd32vw55x_hau_sha_md5.c ****         outputaddr += 4U;
 502              		.loc 1 192 37
 503 011a 032744F1 		lw	a4,-236(s0)
 192:../Firmware/GD32VW55x_standard_peripheral/Source/gd32vw55x_hau_sha_md5.c ****         outputaddr += 4U;
 504              		.loc 1 192 10
 505 011e 8327C4FE 		lw	a5,-20(s0)
 506 0122 232CE4FC 		sw	a4,-40(s0)
 507              	.LBB54:
 508              	.LBB55:
 124:../Firmware/RISCV/drivers/core_compatiable.h ****         | ((value & 0x00ff0000) >> 8 )
 509              		.loc 2 124 37
 510 0126 032784FD 		lw	a4,-40(s0)
 511 012a 93568701 		srli	a3,a4,24
 125:../Firmware/RISCV/drivers/core_compatiable.h ****         | ((value & 0x0000ff00) << 8 )
 512              		.loc 2 125 33
 513 012e 032784FD 		lw	a4,-40(s0)
 514 0132 13568700 		srli	a2,a4,8
 515 0136 4167     		li	a4,65536
 516 0138 130707F0 		addi	a4,a4,-256
 517 013c 718F     		and	a4,a2,a4
 125:../Firmware/RISCV/drivers/core_compatiable.h ****         | ((value & 0x0000ff00) << 8 )
 518              		.loc 2 125 9
 519 013e D98E     		or	a3,a3,a4
 126:../Firmware/RISCV/drivers/core_compatiable.h ****         | ((value & 0x000000ff) << 24);
 520              		.loc 2 126 33
 521 0140 032784FD 		lw	a4,-40(s0)
 522 0144 13168700 		slli	a2,a4,8
 523 0148 3707FF00 		li	a4,16711680
 524 014c 718F     		and	a4,a2,a4
 126:../Firmware/RISCV/drivers/core_compatiable.h ****         | ((value & 0x000000ff) << 24);
 525              		.loc 2 126 9
 526 014e D98E     		or	a3,a3,a4
 127:../Firmware/RISCV/drivers/core_compatiable.h ****     return result;
 527              		.loc 2 127 33
 528 0150 032784FD 		lw	a4,-40(s0)
 529 0154 6207     		slli	a4,a4,24
 124:../Firmware/RISCV/drivers/core_compatiable.h ****         | ((value & 0x00ff0000) >> 8 )
 530              		.loc 2 124 12
 531 0156 558F     		or	a4,a3,a4
 532 0158 232AE4FC 		sw	a4,-44(s0)
 533              		.loc 2 128 12
 534 015c 032744FD 		lw	a4,-44(s0)
 535              	.LBE55:
 536              	.LBE54:
 192:../Firmware/GD32VW55x_standard_peripheral/Source/gd32vw55x_hau_sha_md5.c ****         outputaddr += 4U;
 537              		.loc 1 192 35
 538 0160 98C3     		sw	a4,0(a5)
 193:../Firmware/GD32VW55x_standard_peripheral/Source/gd32vw55x_hau_sha_md5.c ****         *(uint32_t*)(outputaddr)  = __REV(digest_para.out[3]);
 539              		.loc 1 193 20
 540 0162 8327C4FE 		lw	a5,-20(s0)
 541 0166 9107     		addi	a5,a5,4
 542 0168 2326F4FE 		sw	a5,-20(s0)
 194:../Firmware/GD32VW55x_standard_peripheral/Source/gd32vw55x_hau_sha_md5.c ****         outputaddr += 4U;
 543              		.loc 1 194 37
 544 016c 032784F1 		lw	a4,-232(s0)
 194:../Firmware/GD32VW55x_standard_peripheral/Source/gd32vw55x_hau_sha_md5.c ****         outputaddr += 4U;
 545              		.loc 1 194 10
 546 0170 8327C4FE 		lw	a5,-20(s0)
 547 0174 2320E4FE 		sw	a4,-32(s0)
 548              	.LBB56:
 549              	.LBB57:
 124:../Firmware/RISCV/drivers/core_compatiable.h ****         | ((value & 0x00ff0000) >> 8 )
 550              		.loc 2 124 37
 551 0178 032704FE 		lw	a4,-32(s0)
 552 017c 93568701 		srli	a3,a4,24
 125:../Firmware/RISCV/drivers/core_compatiable.h ****         | ((value & 0x0000ff00) << 8 )
 553              		.loc 2 125 33
 554 0180 032704FE 		lw	a4,-32(s0)
 555 0184 13568700 		srli	a2,a4,8
 556 0188 4167     		li	a4,65536
 557 018a 130707F0 		addi	a4,a4,-256
 558 018e 718F     		and	a4,a2,a4
 125:../Firmware/RISCV/drivers/core_compatiable.h ****         | ((value & 0x0000ff00) << 8 )
 559              		.loc 2 125 9
 560 0190 D98E     		or	a3,a3,a4
 126:../Firmware/RISCV/drivers/core_compatiable.h ****         | ((value & 0x000000ff) << 24);
 561              		.loc 2 126 33
 562 0192 032704FE 		lw	a4,-32(s0)
 563 0196 13168700 		slli	a2,a4,8
 564 019a 3707FF00 		li	a4,16711680
 565 019e 718F     		and	a4,a2,a4
 126:../Firmware/RISCV/drivers/core_compatiable.h ****         | ((value & 0x000000ff) << 24);
 566              		.loc 2 126 9
 567 01a0 D98E     		or	a3,a3,a4
 127:../Firmware/RISCV/drivers/core_compatiable.h ****     return result;
 568              		.loc 2 127 33
 569 01a2 032704FE 		lw	a4,-32(s0)
 570 01a6 6207     		slli	a4,a4,24
 124:../Firmware/RISCV/drivers/core_compatiable.h ****         | ((value & 0x00ff0000) >> 8 )
 571              		.loc 2 124 12
 572 01a8 558F     		or	a4,a3,a4
 573 01aa 232EE4FC 		sw	a4,-36(s0)
 574              		.loc 2 128 12
 575 01ae 0327C4FD 		lw	a4,-36(s0)
 576              	.LBE57:
 577              	.LBE56:
 194:../Firmware/GD32VW55x_standard_peripheral/Source/gd32vw55x_hau_sha_md5.c ****         outputaddr += 4U;
 578              		.loc 1 194 35
 579 01b2 98C3     		sw	a4,0(a5)
 195:../Firmware/GD32VW55x_standard_peripheral/Source/gd32vw55x_hau_sha_md5.c ****         *(uint32_t*)(outputaddr)  = __REV(digest_para.out[4]);
 580              		.loc 1 195 20
 581 01b4 8327C4FE 		lw	a5,-20(s0)
 582 01b8 9107     		addi	a5,a5,4
 583 01ba 2326F4FE 		sw	a5,-20(s0)
 196:../Firmware/GD32VW55x_standard_peripheral/Source/gd32vw55x_hau_sha_md5.c ****         break;
 584              		.loc 1 196 37
 585 01be 0327C4F1 		lw	a4,-228(s0)
 196:../Firmware/GD32VW55x_standard_peripheral/Source/gd32vw55x_hau_sha_md5.c ****         break;
 586              		.loc 1 196 10
 587 01c2 8327C4FE 		lw	a5,-20(s0)
 588 01c6 2324E4FE 		sw	a4,-24(s0)
 589              	.LBB58:
 590              	.LBB59:
 124:../Firmware/RISCV/drivers/core_compatiable.h ****         | ((value & 0x00ff0000) >> 8 )
 591              		.loc 2 124 37
 592 01ca 032784FE 		lw	a4,-24(s0)
 593 01ce 93568701 		srli	a3,a4,24
 125:../Firmware/RISCV/drivers/core_compatiable.h ****         | ((value & 0x0000ff00) << 8 )
 594              		.loc 2 125 33
 595 01d2 032784FE 		lw	a4,-24(s0)
 596 01d6 13568700 		srli	a2,a4,8
 597 01da 4167     		li	a4,65536
 598 01dc 130707F0 		addi	a4,a4,-256
 599 01e0 718F     		and	a4,a2,a4
 125:../Firmware/RISCV/drivers/core_compatiable.h ****         | ((value & 0x0000ff00) << 8 )
 600              		.loc 2 125 9
 601 01e2 D98E     		or	a3,a3,a4
 126:../Firmware/RISCV/drivers/core_compatiable.h ****         | ((value & 0x000000ff) << 24);
 602              		.loc 2 126 33
 603 01e4 032784FE 		lw	a4,-24(s0)
 604 01e8 13168700 		slli	a2,a4,8
 605 01ec 3707FF00 		li	a4,16711680
 606 01f0 718F     		and	a4,a2,a4
 126:../Firmware/RISCV/drivers/core_compatiable.h ****         | ((value & 0x000000ff) << 24);
 607              		.loc 2 126 9
 608 01f2 D98E     		or	a3,a3,a4
 127:../Firmware/RISCV/drivers/core_compatiable.h ****     return result;
 609              		.loc 2 127 33
 610 01f4 032784FE 		lw	a4,-24(s0)
 611 01f8 6207     		slli	a4,a4,24
 124:../Firmware/RISCV/drivers/core_compatiable.h ****         | ((value & 0x00ff0000) >> 8 )
 612              		.loc 2 124 12
 613 01fa 558F     		or	a4,a3,a4
 614 01fc 2322E4FE 		sw	a4,-28(s0)
 615              		.loc 2 128 12
 616 0200 032744FE 		lw	a4,-28(s0)
 617              	.LBE59:
 618              	.LBE58:
 196:../Firmware/GD32VW55x_standard_peripheral/Source/gd32vw55x_hau_sha_md5.c ****         break;
 619              		.loc 1 196 35
 620 0204 98C3     		sw	a4,0(a5)
 197:../Firmware/GD32VW55x_standard_peripheral/Source/gd32vw55x_hau_sha_md5.c ****     case HAU_ALGO_SHA224:
 621              		.loc 1 197 9
 622 0206 35A5     		j	.L28
 623              	.L20:
 199:../Firmware/GD32VW55x_standard_peripheral/Source/gd32vw55x_hau_sha_md5.c ****         *(uint32_t*)(outputaddr)  = __REV(digest_para.out[0]);
 624              		.loc 1 199 9
 625 0208 9307C4F0 		addi	a5,s0,-244
 626 020c 3E85     		mv	a0,a5
 627 020e 97000000 		call	hau_digest_read
 627      E7800000 
 200:../Firmware/GD32VW55x_standard_peripheral/Source/gd32vw55x_hau_sha_md5.c ****         outputaddr += 4U;
 628              		.loc 1 200 37
 629 0216 0327C4F0 		lw	a4,-244(s0)
 200:../Firmware/GD32VW55x_standard_peripheral/Source/gd32vw55x_hau_sha_md5.c ****         outputaddr += 4U;
 630              		.loc 1 200 10
 631 021a 8327C4FE 		lw	a5,-20(s0)
 632 021e 2328E4F8 		sw	a4,-112(s0)
 633              	.LBB60:
 634              	.LBB61:
 124:../Firmware/RISCV/drivers/core_compatiable.h ****         | ((value & 0x00ff0000) >> 8 )
 635              		.loc 2 124 37
 636 0222 032704F9 		lw	a4,-112(s0)
 637 0226 93568701 		srli	a3,a4,24
 125:../Firmware/RISCV/drivers/core_compatiable.h ****         | ((value & 0x0000ff00) << 8 )
 638              		.loc 2 125 33
 639 022a 032704F9 		lw	a4,-112(s0)
 640 022e 13568700 		srli	a2,a4,8
 641 0232 4167     		li	a4,65536
 642 0234 130707F0 		addi	a4,a4,-256
 643 0238 718F     		and	a4,a2,a4
 125:../Firmware/RISCV/drivers/core_compatiable.h ****         | ((value & 0x0000ff00) << 8 )
 644              		.loc 2 125 9
 645 023a D98E     		or	a3,a3,a4
 126:../Firmware/RISCV/drivers/core_compatiable.h ****         | ((value & 0x000000ff) << 24);
 646              		.loc 2 126 33
 647 023c 032704F9 		lw	a4,-112(s0)
 648 0240 13168700 		slli	a2,a4,8
 649 0244 3707FF00 		li	a4,16711680
 650 0248 718F     		and	a4,a2,a4
 126:../Firmware/RISCV/drivers/core_compatiable.h ****         | ((value & 0x000000ff) << 24);
 651              		.loc 2 126 9
 652 024a D98E     		or	a3,a3,a4
 127:../Firmware/RISCV/drivers/core_compatiable.h ****     return result;
 653              		.loc 2 127 33
 654 024c 032704F9 		lw	a4,-112(s0)
 655 0250 6207     		slli	a4,a4,24
 124:../Firmware/RISCV/drivers/core_compatiable.h ****         | ((value & 0x00ff0000) >> 8 )
 656              		.loc 2 124 12
 657 0252 558F     		or	a4,a3,a4
 658 0254 2326E4F8 		sw	a4,-116(s0)
 659              		.loc 2 128 12
 660 0258 0327C4F8 		lw	a4,-116(s0)
 661              	.LBE61:
 662              	.LBE60:
 200:../Firmware/GD32VW55x_standard_peripheral/Source/gd32vw55x_hau_sha_md5.c ****         outputaddr += 4U;
 663              		.loc 1 200 35
 664 025c 98C3     		sw	a4,0(a5)
 201:../Firmware/GD32VW55x_standard_peripheral/Source/gd32vw55x_hau_sha_md5.c ****         *(uint32_t*)(outputaddr)  = __REV(digest_para.out[1]);
 665              		.loc 1 201 20
 666 025e 8327C4FE 		lw	a5,-20(s0)
 667 0262 9107     		addi	a5,a5,4
 668 0264 2326F4FE 		sw	a5,-20(s0)
 202:../Firmware/GD32VW55x_standard_peripheral/Source/gd32vw55x_hau_sha_md5.c ****         outputaddr += 4U;
 669              		.loc 1 202 37
 670 0268 032704F1 		lw	a4,-240(s0)
 202:../Firmware/GD32VW55x_standard_peripheral/Source/gd32vw55x_hau_sha_md5.c ****         outputaddr += 4U;
 671              		.loc 1 202 10
 672 026c 8327C4FE 		lw	a5,-20(s0)
 673 0270 232CE4F8 		sw	a4,-104(s0)
 674              	.LBB62:
 675              	.LBB63:
 124:../Firmware/RISCV/drivers/core_compatiable.h ****         | ((value & 0x00ff0000) >> 8 )
 676              		.loc 2 124 37
 677 0274 032784F9 		lw	a4,-104(s0)
 678 0278 93568701 		srli	a3,a4,24
 125:../Firmware/RISCV/drivers/core_compatiable.h ****         | ((value & 0x0000ff00) << 8 )
 679              		.loc 2 125 33
 680 027c 032784F9 		lw	a4,-104(s0)
 681 0280 13568700 		srli	a2,a4,8
 682 0284 4167     		li	a4,65536
 683 0286 130707F0 		addi	a4,a4,-256
 684 028a 718F     		and	a4,a2,a4
 125:../Firmware/RISCV/drivers/core_compatiable.h ****         | ((value & 0x0000ff00) << 8 )
 685              		.loc 2 125 9
 686 028c D98E     		or	a3,a3,a4
 126:../Firmware/RISCV/drivers/core_compatiable.h ****         | ((value & 0x000000ff) << 24);
 687              		.loc 2 126 33
 688 028e 032784F9 		lw	a4,-104(s0)
 689 0292 13168700 		slli	a2,a4,8
 690 0296 3707FF00 		li	a4,16711680
 691 029a 718F     		and	a4,a2,a4
 126:../Firmware/RISCV/drivers/core_compatiable.h ****         | ((value & 0x000000ff) << 24);
 692              		.loc 2 126 9
 693 029c D98E     		or	a3,a3,a4
 127:../Firmware/RISCV/drivers/core_compatiable.h ****     return result;
 694              		.loc 2 127 33
 695 029e 032784F9 		lw	a4,-104(s0)
 696 02a2 6207     		slli	a4,a4,24
 124:../Firmware/RISCV/drivers/core_compatiable.h ****         | ((value & 0x00ff0000) >> 8 )
 697              		.loc 2 124 12
 698 02a4 558F     		or	a4,a3,a4
 699 02a6 232AE4F8 		sw	a4,-108(s0)
 700              		.loc 2 128 12
 701 02aa 032744F9 		lw	a4,-108(s0)
 702              	.LBE63:
 703              	.LBE62:
 202:../Firmware/GD32VW55x_standard_peripheral/Source/gd32vw55x_hau_sha_md5.c ****         outputaddr += 4U;
 704              		.loc 1 202 35
 705 02ae 98C3     		sw	a4,0(a5)
 203:../Firmware/GD32VW55x_standard_peripheral/Source/gd32vw55x_hau_sha_md5.c ****         *(uint32_t*)(outputaddr)  = __REV(digest_para.out[2]);
 706              		.loc 1 203 20
 707 02b0 8327C4FE 		lw	a5,-20(s0)
 708 02b4 9107     		addi	a5,a5,4
 709 02b6 2326F4FE 		sw	a5,-20(s0)
 204:../Firmware/GD32VW55x_standard_peripheral/Source/gd32vw55x_hau_sha_md5.c ****         outputaddr += 4U;
 710              		.loc 1 204 37
 711 02ba 032744F1 		lw	a4,-236(s0)
 204:../Firmware/GD32VW55x_standard_peripheral/Source/gd32vw55x_hau_sha_md5.c ****         outputaddr += 4U;
 712              		.loc 1 204 10
 713 02be 8327C4FE 		lw	a5,-20(s0)
 714 02c2 2320E4FA 		sw	a4,-96(s0)
 715              	.LBB64:
 716              	.LBB65:
 124:../Firmware/RISCV/drivers/core_compatiable.h ****         | ((value & 0x00ff0000) >> 8 )
 717              		.loc 2 124 37
 718 02c6 032704FA 		lw	a4,-96(s0)
 719 02ca 93568701 		srli	a3,a4,24
 125:../Firmware/RISCV/drivers/core_compatiable.h ****         | ((value & 0x0000ff00) << 8 )
 720              		.loc 2 125 33
 721 02ce 032704FA 		lw	a4,-96(s0)
 722 02d2 13568700 		srli	a2,a4,8
 723 02d6 4167     		li	a4,65536
 724 02d8 130707F0 		addi	a4,a4,-256
 725 02dc 718F     		and	a4,a2,a4
 125:../Firmware/RISCV/drivers/core_compatiable.h ****         | ((value & 0x0000ff00) << 8 )
 726              		.loc 2 125 9
 727 02de D98E     		or	a3,a3,a4
 126:../Firmware/RISCV/drivers/core_compatiable.h ****         | ((value & 0x000000ff) << 24);
 728              		.loc 2 126 33
 729 02e0 032704FA 		lw	a4,-96(s0)
 730 02e4 13168700 		slli	a2,a4,8
 731 02e8 3707FF00 		li	a4,16711680
 732 02ec 718F     		and	a4,a2,a4
 126:../Firmware/RISCV/drivers/core_compatiable.h ****         | ((value & 0x000000ff) << 24);
 733              		.loc 2 126 9
 734 02ee D98E     		or	a3,a3,a4
 127:../Firmware/RISCV/drivers/core_compatiable.h ****     return result;
 735              		.loc 2 127 33
 736 02f0 032704FA 		lw	a4,-96(s0)
 737 02f4 6207     		slli	a4,a4,24
 124:../Firmware/RISCV/drivers/core_compatiable.h ****         | ((value & 0x00ff0000) >> 8 )
 738              		.loc 2 124 12
 739 02f6 558F     		or	a4,a3,a4
 740 02f8 232EE4F8 		sw	a4,-100(s0)
 741              		.loc 2 128 12
 742 02fc 0327C4F9 		lw	a4,-100(s0)
 743              	.LBE65:
 744              	.LBE64:
 204:../Firmware/GD32VW55x_standard_peripheral/Source/gd32vw55x_hau_sha_md5.c ****         outputaddr += 4U;
 745              		.loc 1 204 35
 746 0300 98C3     		sw	a4,0(a5)
 205:../Firmware/GD32VW55x_standard_peripheral/Source/gd32vw55x_hau_sha_md5.c ****         *(uint32_t*)(outputaddr)  = __REV(digest_para.out[3]);
 747              		.loc 1 205 20
 748 0302 8327C4FE 		lw	a5,-20(s0)
 749 0306 9107     		addi	a5,a5,4
 750 0308 2326F4FE 		sw	a5,-20(s0)
 206:../Firmware/GD32VW55x_standard_peripheral/Source/gd32vw55x_hau_sha_md5.c ****         outputaddr += 4U;
 751              		.loc 1 206 37
 752 030c 032784F1 		lw	a4,-232(s0)
 206:../Firmware/GD32VW55x_standard_peripheral/Source/gd32vw55x_hau_sha_md5.c ****         outputaddr += 4U;
 753              		.loc 1 206 10
 754 0310 8327C4FE 		lw	a5,-20(s0)
 755 0314 2324E4FA 		sw	a4,-88(s0)
 756              	.LBB66:
 757              	.LBB67:
 124:../Firmware/RISCV/drivers/core_compatiable.h ****         | ((value & 0x00ff0000) >> 8 )
 758              		.loc 2 124 37
 759 0318 032784FA 		lw	a4,-88(s0)
 760 031c 93568701 		srli	a3,a4,24
 125:../Firmware/RISCV/drivers/core_compatiable.h ****         | ((value & 0x0000ff00) << 8 )
 761              		.loc 2 125 33
 762 0320 032784FA 		lw	a4,-88(s0)
 763 0324 13568700 		srli	a2,a4,8
 764 0328 4167     		li	a4,65536
 765 032a 130707F0 		addi	a4,a4,-256
 766 032e 718F     		and	a4,a2,a4
 125:../Firmware/RISCV/drivers/core_compatiable.h ****         | ((value & 0x0000ff00) << 8 )
 767              		.loc 2 125 9
 768 0330 D98E     		or	a3,a3,a4
 126:../Firmware/RISCV/drivers/core_compatiable.h ****         | ((value & 0x000000ff) << 24);
 769              		.loc 2 126 33
 770 0332 032784FA 		lw	a4,-88(s0)
 771 0336 13168700 		slli	a2,a4,8
 772 033a 3707FF00 		li	a4,16711680
 773 033e 718F     		and	a4,a2,a4
 126:../Firmware/RISCV/drivers/core_compatiable.h ****         | ((value & 0x000000ff) << 24);
 774              		.loc 2 126 9
 775 0340 D98E     		or	a3,a3,a4
 127:../Firmware/RISCV/drivers/core_compatiable.h ****     return result;
 776              		.loc 2 127 33
 777 0342 032784FA 		lw	a4,-88(s0)
 778 0346 6207     		slli	a4,a4,24
 124:../Firmware/RISCV/drivers/core_compatiable.h ****         | ((value & 0x00ff0000) >> 8 )
 779              		.loc 2 124 12
 780 0348 558F     		or	a4,a3,a4
 781 034a 2322E4FA 		sw	a4,-92(s0)
 782              		.loc 2 128 12
 783 034e 032744FA 		lw	a4,-92(s0)
 784              	.LBE67:
 785              	.LBE66:
 206:../Firmware/GD32VW55x_standard_peripheral/Source/gd32vw55x_hau_sha_md5.c ****         outputaddr += 4U;
 786              		.loc 1 206 35
 787 0352 98C3     		sw	a4,0(a5)
 207:../Firmware/GD32VW55x_standard_peripheral/Source/gd32vw55x_hau_sha_md5.c ****         *(uint32_t*)(outputaddr)  = __REV(digest_para.out[4]);
 788              		.loc 1 207 20
 789 0354 8327C4FE 		lw	a5,-20(s0)
 790 0358 9107     		addi	a5,a5,4
 791 035a 2326F4FE 		sw	a5,-20(s0)
 208:../Firmware/GD32VW55x_standard_peripheral/Source/gd32vw55x_hau_sha_md5.c ****         outputaddr += 4U;
 792              		.loc 1 208 37
 793 035e 0327C4F1 		lw	a4,-228(s0)
 208:../Firmware/GD32VW55x_standard_peripheral/Source/gd32vw55x_hau_sha_md5.c ****         outputaddr += 4U;
 794              		.loc 1 208 10
 795 0362 8327C4FE 		lw	a5,-20(s0)
 796 0366 2328E4FA 		sw	a4,-80(s0)
 797              	.LBB68:
 798              	.LBB69:
 124:../Firmware/RISCV/drivers/core_compatiable.h ****         | ((value & 0x00ff0000) >> 8 )
 799              		.loc 2 124 37
 800 036a 032704FB 		lw	a4,-80(s0)
 801 036e 93568701 		srli	a3,a4,24
 125:../Firmware/RISCV/drivers/core_compatiable.h ****         | ((value & 0x0000ff00) << 8 )
 802              		.loc 2 125 33
 803 0372 032704FB 		lw	a4,-80(s0)
 804 0376 13568700 		srli	a2,a4,8
 805 037a 4167     		li	a4,65536
 806 037c 130707F0 		addi	a4,a4,-256
 807 0380 718F     		and	a4,a2,a4
 125:../Firmware/RISCV/drivers/core_compatiable.h ****         | ((value & 0x0000ff00) << 8 )
 808              		.loc 2 125 9
 809 0382 D98E     		or	a3,a3,a4
 126:../Firmware/RISCV/drivers/core_compatiable.h ****         | ((value & 0x000000ff) << 24);
 810              		.loc 2 126 33
 811 0384 032704FB 		lw	a4,-80(s0)
 812 0388 13168700 		slli	a2,a4,8
 813 038c 3707FF00 		li	a4,16711680
 814 0390 718F     		and	a4,a2,a4
 126:../Firmware/RISCV/drivers/core_compatiable.h ****         | ((value & 0x000000ff) << 24);
 815              		.loc 2 126 9
 816 0392 D98E     		or	a3,a3,a4
 127:../Firmware/RISCV/drivers/core_compatiable.h ****     return result;
 817              		.loc 2 127 33
 818 0394 032704FB 		lw	a4,-80(s0)
 819 0398 6207     		slli	a4,a4,24
 124:../Firmware/RISCV/drivers/core_compatiable.h ****         | ((value & 0x00ff0000) >> 8 )
 820              		.loc 2 124 12
 821 039a 558F     		or	a4,a3,a4
 822 039c 2326E4FA 		sw	a4,-84(s0)
 823              		.loc 2 128 12
 824 03a0 0327C4FA 		lw	a4,-84(s0)
 825              	.LBE69:
 826              	.LBE68:
 208:../Firmware/GD32VW55x_standard_peripheral/Source/gd32vw55x_hau_sha_md5.c ****         outputaddr += 4U;
 827              		.loc 1 208 35
 828 03a4 98C3     		sw	a4,0(a5)
 209:../Firmware/GD32VW55x_standard_peripheral/Source/gd32vw55x_hau_sha_md5.c ****         *(uint32_t*)(outputaddr)  = __REV(digest_para.out[5]);
 829              		.loc 1 209 20
 830 03a6 8327C4FE 		lw	a5,-20(s0)
 831 03aa 9107     		addi	a5,a5,4
 832 03ac 2326F4FE 		sw	a5,-20(s0)
 210:../Firmware/GD32VW55x_standard_peripheral/Source/gd32vw55x_hau_sha_md5.c ****         outputaddr += 4U;
 833              		.loc 1 210 37
 834 03b0 032704F2 		lw	a4,-224(s0)
 210:../Firmware/GD32VW55x_standard_peripheral/Source/gd32vw55x_hau_sha_md5.c ****         outputaddr += 4U;
 835              		.loc 1 210 10
 836 03b4 8327C4FE 		lw	a5,-20(s0)
 837 03b8 232CE4FA 		sw	a4,-72(s0)
 838              	.LBB70:
 839              	.LBB71:
 124:../Firmware/RISCV/drivers/core_compatiable.h ****         | ((value & 0x00ff0000) >> 8 )
 840              		.loc 2 124 37
 841 03bc 032784FB 		lw	a4,-72(s0)
 842 03c0 93568701 		srli	a3,a4,24
 125:../Firmware/RISCV/drivers/core_compatiable.h ****         | ((value & 0x0000ff00) << 8 )
 843              		.loc 2 125 33
 844 03c4 032784FB 		lw	a4,-72(s0)
 845 03c8 13568700 		srli	a2,a4,8
 846 03cc 4167     		li	a4,65536
 847 03ce 130707F0 		addi	a4,a4,-256
 848 03d2 718F     		and	a4,a2,a4
 125:../Firmware/RISCV/drivers/core_compatiable.h ****         | ((value & 0x0000ff00) << 8 )
 849              		.loc 2 125 9
 850 03d4 D98E     		or	a3,a3,a4
 126:../Firmware/RISCV/drivers/core_compatiable.h ****         | ((value & 0x000000ff) << 24);
 851              		.loc 2 126 33
 852 03d6 032784FB 		lw	a4,-72(s0)
 853 03da 13168700 		slli	a2,a4,8
 854 03de 3707FF00 		li	a4,16711680
 855 03e2 718F     		and	a4,a2,a4
 126:../Firmware/RISCV/drivers/core_compatiable.h ****         | ((value & 0x000000ff) << 24);
 856              		.loc 2 126 9
 857 03e4 D98E     		or	a3,a3,a4
 127:../Firmware/RISCV/drivers/core_compatiable.h ****     return result;
 858              		.loc 2 127 33
 859 03e6 032784FB 		lw	a4,-72(s0)
 860 03ea 6207     		slli	a4,a4,24
 124:../Firmware/RISCV/drivers/core_compatiable.h ****         | ((value & 0x00ff0000) >> 8 )
 861              		.loc 2 124 12
 862 03ec 558F     		or	a4,a3,a4
 863 03ee 232AE4FA 		sw	a4,-76(s0)
 864              		.loc 2 128 12
 865 03f2 032744FB 		lw	a4,-76(s0)
 866              	.LBE71:
 867              	.LBE70:
 210:../Firmware/GD32VW55x_standard_peripheral/Source/gd32vw55x_hau_sha_md5.c ****         outputaddr += 4U;
 868              		.loc 1 210 35
 869 03f6 98C3     		sw	a4,0(a5)
 211:../Firmware/GD32VW55x_standard_peripheral/Source/gd32vw55x_hau_sha_md5.c ****         *(uint32_t*)(outputaddr)  = __REV(digest_para.out[6]);
 870              		.loc 1 211 20
 871 03f8 8327C4FE 		lw	a5,-20(s0)
 872 03fc 9107     		addi	a5,a5,4
 873 03fe 2326F4FE 		sw	a5,-20(s0)
 212:../Firmware/GD32VW55x_standard_peripheral/Source/gd32vw55x_hau_sha_md5.c ****         break;
 874              		.loc 1 212 37
 875 0402 032744F2 		lw	a4,-220(s0)
 212:../Firmware/GD32VW55x_standard_peripheral/Source/gd32vw55x_hau_sha_md5.c ****         break;
 876              		.loc 1 212 10
 877 0406 8327C4FE 		lw	a5,-20(s0)
 878 040a 2320E4FC 		sw	a4,-64(s0)
 879              	.LBB72:
 880              	.LBB73:
 124:../Firmware/RISCV/drivers/core_compatiable.h ****         | ((value & 0x00ff0000) >> 8 )
 881              		.loc 2 124 37
 882 040e 032704FC 		lw	a4,-64(s0)
 883 0412 93568701 		srli	a3,a4,24
 125:../Firmware/RISCV/drivers/core_compatiable.h ****         | ((value & 0x0000ff00) << 8 )
 884              		.loc 2 125 33
 885 0416 032704FC 		lw	a4,-64(s0)
 886 041a 13568700 		srli	a2,a4,8
 887 041e 4167     		li	a4,65536
 888 0420 130707F0 		addi	a4,a4,-256
 889 0424 718F     		and	a4,a2,a4
 125:../Firmware/RISCV/drivers/core_compatiable.h ****         | ((value & 0x0000ff00) << 8 )
 890              		.loc 2 125 9
 891 0426 D98E     		or	a3,a3,a4
 126:../Firmware/RISCV/drivers/core_compatiable.h ****         | ((value & 0x000000ff) << 24);
 892              		.loc 2 126 33
 893 0428 032704FC 		lw	a4,-64(s0)
 894 042c 13168700 		slli	a2,a4,8
 895 0430 3707FF00 		li	a4,16711680
 896 0434 718F     		and	a4,a2,a4
 126:../Firmware/RISCV/drivers/core_compatiable.h ****         | ((value & 0x000000ff) << 24);
 897              		.loc 2 126 9
 898 0436 D98E     		or	a3,a3,a4
 127:../Firmware/RISCV/drivers/core_compatiable.h ****     return result;
 899              		.loc 2 127 33
 900 0438 032704FC 		lw	a4,-64(s0)
 901 043c 6207     		slli	a4,a4,24
 124:../Firmware/RISCV/drivers/core_compatiable.h ****         | ((value & 0x00ff0000) >> 8 )
 902              		.loc 2 124 12
 903 043e 558F     		or	a4,a3,a4
 904 0440 232EE4FA 		sw	a4,-68(s0)
 905              		.loc 2 128 12
 906 0444 0327C4FB 		lw	a4,-68(s0)
 907              	.LBE73:
 908              	.LBE72:
 212:../Firmware/GD32VW55x_standard_peripheral/Source/gd32vw55x_hau_sha_md5.c ****         break;
 909              		.loc 1 212 35
 910 0448 98C3     		sw	a4,0(a5)
 213:../Firmware/GD32VW55x_standard_peripheral/Source/gd32vw55x_hau_sha_md5.c ****     case HAU_ALGO_SHA256:
 911              		.loc 1 213 9
 912 044a E5A6     		j	.L28
 913              	.L18:
 215:../Firmware/GD32VW55x_standard_peripheral/Source/gd32vw55x_hau_sha_md5.c ****         *(uint32_t*)(outputaddr)  = __REV(digest_para.out[0]);
 914              		.loc 1 215 9
 915 044c 9307C4F0 		addi	a5,s0,-244
 916 0450 3E85     		mv	a0,a5
 917 0452 97000000 		call	hau_digest_read
 917      E7800000 
 216:../Firmware/GD32VW55x_standard_peripheral/Source/gd32vw55x_hau_sha_md5.c ****         outputaddr += 4U;
 918              		.loc 1 216 37
 919 045a 0327C4F0 		lw	a4,-244(s0)
 216:../Firmware/GD32VW55x_standard_peripheral/Source/gd32vw55x_hau_sha_md5.c ****         outputaddr += 4U;
 920              		.loc 1 216 10
 921 045e 8327C4FE 		lw	a5,-20(s0)
 922 0462 2328E4F4 		sw	a4,-176(s0)
 923              	.LBB74:
 924              	.LBB75:
 124:../Firmware/RISCV/drivers/core_compatiable.h ****         | ((value & 0x00ff0000) >> 8 )
 925              		.loc 2 124 37
 926 0466 032704F5 		lw	a4,-176(s0)
 927 046a 93568701 		srli	a3,a4,24
 125:../Firmware/RISCV/drivers/core_compatiable.h ****         | ((value & 0x0000ff00) << 8 )
 928              		.loc 2 125 33
 929 046e 032704F5 		lw	a4,-176(s0)
 930 0472 13568700 		srli	a2,a4,8
 931 0476 4167     		li	a4,65536
 932 0478 130707F0 		addi	a4,a4,-256
 933 047c 718F     		and	a4,a2,a4
 125:../Firmware/RISCV/drivers/core_compatiable.h ****         | ((value & 0x0000ff00) << 8 )
 934              		.loc 2 125 9
 935 047e D98E     		or	a3,a3,a4
 126:../Firmware/RISCV/drivers/core_compatiable.h ****         | ((value & 0x000000ff) << 24);
 936              		.loc 2 126 33
 937 0480 032704F5 		lw	a4,-176(s0)
 938 0484 13168700 		slli	a2,a4,8
 939 0488 3707FF00 		li	a4,16711680
 940 048c 718F     		and	a4,a2,a4
 126:../Firmware/RISCV/drivers/core_compatiable.h ****         | ((value & 0x000000ff) << 24);
 941              		.loc 2 126 9
 942 048e D98E     		or	a3,a3,a4
 127:../Firmware/RISCV/drivers/core_compatiable.h ****     return result;
 943              		.loc 2 127 33
 944 0490 032704F5 		lw	a4,-176(s0)
 945 0494 6207     		slli	a4,a4,24
 124:../Firmware/RISCV/drivers/core_compatiable.h ****         | ((value & 0x00ff0000) >> 8 )
 946              		.loc 2 124 12
 947 0496 558F     		or	a4,a3,a4
 948 0498 2326E4F4 		sw	a4,-180(s0)
 949              		.loc 2 128 12
 950 049c 0327C4F4 		lw	a4,-180(s0)
 951              	.LBE75:
 952              	.LBE74:
 216:../Firmware/GD32VW55x_standard_peripheral/Source/gd32vw55x_hau_sha_md5.c ****         outputaddr += 4U;
 953              		.loc 1 216 35
 954 04a0 98C3     		sw	a4,0(a5)
 217:../Firmware/GD32VW55x_standard_peripheral/Source/gd32vw55x_hau_sha_md5.c ****         *(uint32_t*)(outputaddr)  = __REV(digest_para.out[1]);
 955              		.loc 1 217 20
 956 04a2 8327C4FE 		lw	a5,-20(s0)
 957 04a6 9107     		addi	a5,a5,4
 958 04a8 2326F4FE 		sw	a5,-20(s0)
 218:../Firmware/GD32VW55x_standard_peripheral/Source/gd32vw55x_hau_sha_md5.c ****         outputaddr += 4U;
 959              		.loc 1 218 37
 960 04ac 032704F1 		lw	a4,-240(s0)
 218:../Firmware/GD32VW55x_standard_peripheral/Source/gd32vw55x_hau_sha_md5.c ****         outputaddr += 4U;
 961              		.loc 1 218 10
 962 04b0 8327C4FE 		lw	a5,-20(s0)
 963 04b4 232CE4F4 		sw	a4,-168(s0)
 964              	.LBB76:
 965              	.LBB77:
 124:../Firmware/RISCV/drivers/core_compatiable.h ****         | ((value & 0x00ff0000) >> 8 )
 966              		.loc 2 124 37
 967 04b8 032784F5 		lw	a4,-168(s0)
 968 04bc 93568701 		srli	a3,a4,24
 125:../Firmware/RISCV/drivers/core_compatiable.h ****         | ((value & 0x0000ff00) << 8 )
 969              		.loc 2 125 33
 970 04c0 032784F5 		lw	a4,-168(s0)
 971 04c4 13568700 		srli	a2,a4,8
 972 04c8 4167     		li	a4,65536
 973 04ca 130707F0 		addi	a4,a4,-256
 974 04ce 718F     		and	a4,a2,a4
 125:../Firmware/RISCV/drivers/core_compatiable.h ****         | ((value & 0x0000ff00) << 8 )
 975              		.loc 2 125 9
 976 04d0 D98E     		or	a3,a3,a4
 126:../Firmware/RISCV/drivers/core_compatiable.h ****         | ((value & 0x000000ff) << 24);
 977              		.loc 2 126 33
 978 04d2 032784F5 		lw	a4,-168(s0)
 979 04d6 13168700 		slli	a2,a4,8
 980 04da 3707FF00 		li	a4,16711680
 981 04de 718F     		and	a4,a2,a4
 126:../Firmware/RISCV/drivers/core_compatiable.h ****         | ((value & 0x000000ff) << 24);
 982              		.loc 2 126 9
 983 04e0 D98E     		or	a3,a3,a4
 127:../Firmware/RISCV/drivers/core_compatiable.h ****     return result;
 984              		.loc 2 127 33
 985 04e2 032784F5 		lw	a4,-168(s0)
 986 04e6 6207     		slli	a4,a4,24
 124:../Firmware/RISCV/drivers/core_compatiable.h ****         | ((value & 0x00ff0000) >> 8 )
 987              		.loc 2 124 12
 988 04e8 558F     		or	a4,a3,a4
 989 04ea 232AE4F4 		sw	a4,-172(s0)
 990              		.loc 2 128 12
 991 04ee 032744F5 		lw	a4,-172(s0)
 992              	.LBE77:
 993              	.LBE76:
 218:../Firmware/GD32VW55x_standard_peripheral/Source/gd32vw55x_hau_sha_md5.c ****         outputaddr += 4U;
 994              		.loc 1 218 35
 995 04f2 98C3     		sw	a4,0(a5)
 219:../Firmware/GD32VW55x_standard_peripheral/Source/gd32vw55x_hau_sha_md5.c ****         *(uint32_t*)(outputaddr)  = __REV(digest_para.out[2]);
 996              		.loc 1 219 20
 997 04f4 8327C4FE 		lw	a5,-20(s0)
 998 04f8 9107     		addi	a5,a5,4
 999 04fa 2326F4FE 		sw	a5,-20(s0)
 220:../Firmware/GD32VW55x_standard_peripheral/Source/gd32vw55x_hau_sha_md5.c ****         outputaddr += 4U;
 1000              		.loc 1 220 37
 1001 04fe 032744F1 		lw	a4,-236(s0)
 220:../Firmware/GD32VW55x_standard_peripheral/Source/gd32vw55x_hau_sha_md5.c ****         outputaddr += 4U;
 1002              		.loc 1 220 10
 1003 0502 8327C4FE 		lw	a5,-20(s0)
 1004 0506 2320E4F6 		sw	a4,-160(s0)
 1005              	.LBB78:
 1006              	.LBB79:
 124:../Firmware/RISCV/drivers/core_compatiable.h ****         | ((value & 0x00ff0000) >> 8 )
 1007              		.loc 2 124 37
 1008 050a 032704F6 		lw	a4,-160(s0)
 1009 050e 93568701 		srli	a3,a4,24
 125:../Firmware/RISCV/drivers/core_compatiable.h ****         | ((value & 0x0000ff00) << 8 )
 1010              		.loc 2 125 33
 1011 0512 032704F6 		lw	a4,-160(s0)
 1012 0516 13568700 		srli	a2,a4,8
 1013 051a 4167     		li	a4,65536
 1014 051c 130707F0 		addi	a4,a4,-256
 1015 0520 718F     		and	a4,a2,a4
 125:../Firmware/RISCV/drivers/core_compatiable.h ****         | ((value & 0x0000ff00) << 8 )
 1016              		.loc 2 125 9
 1017 0522 D98E     		or	a3,a3,a4
 126:../Firmware/RISCV/drivers/core_compatiable.h ****         | ((value & 0x000000ff) << 24);
 1018              		.loc 2 126 33
 1019 0524 032704F6 		lw	a4,-160(s0)
 1020 0528 13168700 		slli	a2,a4,8
 1021 052c 3707FF00 		li	a4,16711680
 1022 0530 718F     		and	a4,a2,a4
 126:../Firmware/RISCV/drivers/core_compatiable.h ****         | ((value & 0x000000ff) << 24);
 1023              		.loc 2 126 9
 1024 0532 D98E     		or	a3,a3,a4
 127:../Firmware/RISCV/drivers/core_compatiable.h ****     return result;
 1025              		.loc 2 127 33
 1026 0534 032704F6 		lw	a4,-160(s0)
 1027 0538 6207     		slli	a4,a4,24
 124:../Firmware/RISCV/drivers/core_compatiable.h ****         | ((value & 0x00ff0000) >> 8 )
 1028              		.loc 2 124 12
 1029 053a 558F     		or	a4,a3,a4
 1030 053c 232EE4F4 		sw	a4,-164(s0)
 1031              		.loc 2 128 12
 1032 0540 0327C4F5 		lw	a4,-164(s0)
 1033              	.LBE79:
 1034              	.LBE78:
 220:../Firmware/GD32VW55x_standard_peripheral/Source/gd32vw55x_hau_sha_md5.c ****         outputaddr += 4U;
 1035              		.loc 1 220 35
 1036 0544 98C3     		sw	a4,0(a5)
 221:../Firmware/GD32VW55x_standard_peripheral/Source/gd32vw55x_hau_sha_md5.c ****         *(uint32_t*)(outputaddr)  = __REV(digest_para.out[3]);
 1037              		.loc 1 221 20
 1038 0546 8327C4FE 		lw	a5,-20(s0)
 1039 054a 9107     		addi	a5,a5,4
 1040 054c 2326F4FE 		sw	a5,-20(s0)
 222:../Firmware/GD32VW55x_standard_peripheral/Source/gd32vw55x_hau_sha_md5.c ****         outputaddr += 4U;
 1041              		.loc 1 222 37
 1042 0550 032784F1 		lw	a4,-232(s0)
 222:../Firmware/GD32VW55x_standard_peripheral/Source/gd32vw55x_hau_sha_md5.c ****         outputaddr += 4U;
 1043              		.loc 1 222 10
 1044 0554 8327C4FE 		lw	a5,-20(s0)
 1045 0558 2324E4F6 		sw	a4,-152(s0)
 1046              	.LBB80:
 1047              	.LBB81:
 124:../Firmware/RISCV/drivers/core_compatiable.h ****         | ((value & 0x00ff0000) >> 8 )
 1048              		.loc 2 124 37
 1049 055c 032784F6 		lw	a4,-152(s0)
 1050 0560 93568701 		srli	a3,a4,24
 125:../Firmware/RISCV/drivers/core_compatiable.h ****         | ((value & 0x0000ff00) << 8 )
 1051              		.loc 2 125 33
 1052 0564 032784F6 		lw	a4,-152(s0)
 1053 0568 13568700 		srli	a2,a4,8
 1054 056c 4167     		li	a4,65536
 1055 056e 130707F0 		addi	a4,a4,-256
 1056 0572 718F     		and	a4,a2,a4
 125:../Firmware/RISCV/drivers/core_compatiable.h ****         | ((value & 0x0000ff00) << 8 )
 1057              		.loc 2 125 9
 1058 0574 D98E     		or	a3,a3,a4
 126:../Firmware/RISCV/drivers/core_compatiable.h ****         | ((value & 0x000000ff) << 24);
 1059              		.loc 2 126 33
 1060 0576 032784F6 		lw	a4,-152(s0)
 1061 057a 13168700 		slli	a2,a4,8
 1062 057e 3707FF00 		li	a4,16711680
 1063 0582 718F     		and	a4,a2,a4
 126:../Firmware/RISCV/drivers/core_compatiable.h ****         | ((value & 0x000000ff) << 24);
 1064              		.loc 2 126 9
 1065 0584 D98E     		or	a3,a3,a4
 127:../Firmware/RISCV/drivers/core_compatiable.h ****     return result;
 1066              		.loc 2 127 33
 1067 0586 032784F6 		lw	a4,-152(s0)
 1068 058a 6207     		slli	a4,a4,24
 124:../Firmware/RISCV/drivers/core_compatiable.h ****         | ((value & 0x00ff0000) >> 8 )
 1069              		.loc 2 124 12
 1070 058c 558F     		or	a4,a3,a4
 1071 058e 2322E4F6 		sw	a4,-156(s0)
 1072              		.loc 2 128 12
 1073 0592 032744F6 		lw	a4,-156(s0)
 1074              	.LBE81:
 1075              	.LBE80:
 222:../Firmware/GD32VW55x_standard_peripheral/Source/gd32vw55x_hau_sha_md5.c ****         outputaddr += 4U;
 1076              		.loc 1 222 35
 1077 0596 98C3     		sw	a4,0(a5)
 223:../Firmware/GD32VW55x_standard_peripheral/Source/gd32vw55x_hau_sha_md5.c ****         *(uint32_t*)(outputaddr)  = __REV(digest_para.out[4]);
 1078              		.loc 1 223 20
 1079 0598 8327C4FE 		lw	a5,-20(s0)
 1080 059c 9107     		addi	a5,a5,4
 1081 059e 2326F4FE 		sw	a5,-20(s0)
 224:../Firmware/GD32VW55x_standard_peripheral/Source/gd32vw55x_hau_sha_md5.c ****         outputaddr += 4U;
 1082              		.loc 1 224 37
 1083 05a2 0327C4F1 		lw	a4,-228(s0)
 224:../Firmware/GD32VW55x_standard_peripheral/Source/gd32vw55x_hau_sha_md5.c ****         outputaddr += 4U;
 1084              		.loc 1 224 10
 1085 05a6 8327C4FE 		lw	a5,-20(s0)
 1086 05aa 2328E4F6 		sw	a4,-144(s0)
 1087              	.LBB82:
 1088              	.LBB83:
 124:../Firmware/RISCV/drivers/core_compatiable.h ****         | ((value & 0x00ff0000) >> 8 )
 1089              		.loc 2 124 37
 1090 05ae 032704F7 		lw	a4,-144(s0)
 1091 05b2 93568701 		srli	a3,a4,24
 125:../Firmware/RISCV/drivers/core_compatiable.h ****         | ((value & 0x0000ff00) << 8 )
 1092              		.loc 2 125 33
 1093 05b6 032704F7 		lw	a4,-144(s0)
 1094 05ba 13568700 		srli	a2,a4,8
 1095 05be 4167     		li	a4,65536
 1096 05c0 130707F0 		addi	a4,a4,-256
 1097 05c4 718F     		and	a4,a2,a4
 125:../Firmware/RISCV/drivers/core_compatiable.h ****         | ((value & 0x0000ff00) << 8 )
 1098              		.loc 2 125 9
 1099 05c6 D98E     		or	a3,a3,a4
 126:../Firmware/RISCV/drivers/core_compatiable.h ****         | ((value & 0x000000ff) << 24);
 1100              		.loc 2 126 33
 1101 05c8 032704F7 		lw	a4,-144(s0)
 1102 05cc 13168700 		slli	a2,a4,8
 1103 05d0 3707FF00 		li	a4,16711680
 1104 05d4 718F     		and	a4,a2,a4
 126:../Firmware/RISCV/drivers/core_compatiable.h ****         | ((value & 0x000000ff) << 24);
 1105              		.loc 2 126 9
 1106 05d6 D98E     		or	a3,a3,a4
 127:../Firmware/RISCV/drivers/core_compatiable.h ****     return result;
 1107              		.loc 2 127 33
 1108 05d8 032704F7 		lw	a4,-144(s0)
 1109 05dc 6207     		slli	a4,a4,24
 124:../Firmware/RISCV/drivers/core_compatiable.h ****         | ((value & 0x00ff0000) >> 8 )
 1110              		.loc 2 124 12
 1111 05de 558F     		or	a4,a3,a4
 1112 05e0 2326E4F6 		sw	a4,-148(s0)
 1113              		.loc 2 128 12
 1114 05e4 0327C4F6 		lw	a4,-148(s0)
 1115              	.LBE83:
 1116              	.LBE82:
 224:../Firmware/GD32VW55x_standard_peripheral/Source/gd32vw55x_hau_sha_md5.c ****         outputaddr += 4U;
 1117              		.loc 1 224 35
 1118 05e8 98C3     		sw	a4,0(a5)
 225:../Firmware/GD32VW55x_standard_peripheral/Source/gd32vw55x_hau_sha_md5.c ****         *(uint32_t*)(outputaddr)  = __REV(digest_para.out[5]);
 1119              		.loc 1 225 20
 1120 05ea 8327C4FE 		lw	a5,-20(s0)
 1121 05ee 9107     		addi	a5,a5,4
 1122 05f0 2326F4FE 		sw	a5,-20(s0)
 226:../Firmware/GD32VW55x_standard_peripheral/Source/gd32vw55x_hau_sha_md5.c ****         outputaddr += 4U;
 1123              		.loc 1 226 37
 1124 05f4 032704F2 		lw	a4,-224(s0)
 226:../Firmware/GD32VW55x_standard_peripheral/Source/gd32vw55x_hau_sha_md5.c ****         outputaddr += 4U;
 1125              		.loc 1 226 10
 1126 05f8 8327C4FE 		lw	a5,-20(s0)
 1127 05fc 232CE4F6 		sw	a4,-136(s0)
 1128              	.LBB84:
 1129              	.LBB85:
 124:../Firmware/RISCV/drivers/core_compatiable.h ****         | ((value & 0x00ff0000) >> 8 )
 1130              		.loc 2 124 37
 1131 0600 032784F7 		lw	a4,-136(s0)
 1132 0604 93568701 		srli	a3,a4,24
 125:../Firmware/RISCV/drivers/core_compatiable.h ****         | ((value & 0x0000ff00) << 8 )
 1133              		.loc 2 125 33
 1134 0608 032784F7 		lw	a4,-136(s0)
 1135 060c 13568700 		srli	a2,a4,8
 1136 0610 4167     		li	a4,65536
 1137 0612 130707F0 		addi	a4,a4,-256
 1138 0616 718F     		and	a4,a2,a4
 125:../Firmware/RISCV/drivers/core_compatiable.h ****         | ((value & 0x0000ff00) << 8 )
 1139              		.loc 2 125 9
 1140 0618 D98E     		or	a3,a3,a4
 126:../Firmware/RISCV/drivers/core_compatiable.h ****         | ((value & 0x000000ff) << 24);
 1141              		.loc 2 126 33
 1142 061a 032784F7 		lw	a4,-136(s0)
 1143 061e 13168700 		slli	a2,a4,8
 1144 0622 3707FF00 		li	a4,16711680
 1145 0626 718F     		and	a4,a2,a4
 126:../Firmware/RISCV/drivers/core_compatiable.h ****         | ((value & 0x000000ff) << 24);
 1146              		.loc 2 126 9
 1147 0628 D98E     		or	a3,a3,a4
 127:../Firmware/RISCV/drivers/core_compatiable.h ****     return result;
 1148              		.loc 2 127 33
 1149 062a 032784F7 		lw	a4,-136(s0)
 1150 062e 6207     		slli	a4,a4,24
 124:../Firmware/RISCV/drivers/core_compatiable.h ****         | ((value & 0x00ff0000) >> 8 )
 1151              		.loc 2 124 12
 1152 0630 558F     		or	a4,a3,a4
 1153 0632 232AE4F6 		sw	a4,-140(s0)
 1154              		.loc 2 128 12
 1155 0636 032744F7 		lw	a4,-140(s0)
 1156              	.LBE85:
 1157              	.LBE84:
 226:../Firmware/GD32VW55x_standard_peripheral/Source/gd32vw55x_hau_sha_md5.c ****         outputaddr += 4U;
 1158              		.loc 1 226 35
 1159 063a 98C3     		sw	a4,0(a5)
 227:../Firmware/GD32VW55x_standard_peripheral/Source/gd32vw55x_hau_sha_md5.c ****         *(uint32_t*)(outputaddr)  = __REV(digest_para.out[6]);
 1160              		.loc 1 227 20
 1161 063c 8327C4FE 		lw	a5,-20(s0)
 1162 0640 9107     		addi	a5,a5,4
 1163 0642 2326F4FE 		sw	a5,-20(s0)
 228:../Firmware/GD32VW55x_standard_peripheral/Source/gd32vw55x_hau_sha_md5.c ****         outputaddr += 4U;
 1164              		.loc 1 228 37
 1165 0646 032744F2 		lw	a4,-220(s0)
 228:../Firmware/GD32VW55x_standard_peripheral/Source/gd32vw55x_hau_sha_md5.c ****         outputaddr += 4U;
 1166              		.loc 1 228 10
 1167 064a 8327C4FE 		lw	a5,-20(s0)
 1168 064e 2320E4F8 		sw	a4,-128(s0)
 1169              	.LBB86:
 1170              	.LBB87:
 124:../Firmware/RISCV/drivers/core_compatiable.h ****         | ((value & 0x00ff0000) >> 8 )
 1171              		.loc 2 124 37
 1172 0652 032704F8 		lw	a4,-128(s0)
 1173 0656 93568701 		srli	a3,a4,24
 125:../Firmware/RISCV/drivers/core_compatiable.h ****         | ((value & 0x0000ff00) << 8 )
 1174              		.loc 2 125 33
 1175 065a 032704F8 		lw	a4,-128(s0)
 1176 065e 13568700 		srli	a2,a4,8
 1177 0662 4167     		li	a4,65536
 1178 0664 130707F0 		addi	a4,a4,-256
 1179 0668 718F     		and	a4,a2,a4
 125:../Firmware/RISCV/drivers/core_compatiable.h ****         | ((value & 0x0000ff00) << 8 )
 1180              		.loc 2 125 9
 1181 066a D98E     		or	a3,a3,a4
 126:../Firmware/RISCV/drivers/core_compatiable.h ****         | ((value & 0x000000ff) << 24);
 1182              		.loc 2 126 33
 1183 066c 032704F8 		lw	a4,-128(s0)
 1184 0670 13168700 		slli	a2,a4,8
 1185 0674 3707FF00 		li	a4,16711680
 1186 0678 718F     		and	a4,a2,a4
 126:../Firmware/RISCV/drivers/core_compatiable.h ****         | ((value & 0x000000ff) << 24);
 1187              		.loc 2 126 9
 1188 067a D98E     		or	a3,a3,a4
 127:../Firmware/RISCV/drivers/core_compatiable.h ****     return result;
 1189              		.loc 2 127 33
 1190 067c 032704F8 		lw	a4,-128(s0)
 1191 0680 6207     		slli	a4,a4,24
 124:../Firmware/RISCV/drivers/core_compatiable.h ****         | ((value & 0x00ff0000) >> 8 )
 1192              		.loc 2 124 12
 1193 0682 558F     		or	a4,a3,a4
 1194 0684 232EE4F6 		sw	a4,-132(s0)
 1195              		.loc 2 128 12
 1196 0688 0327C4F7 		lw	a4,-132(s0)
 1197              	.LBE87:
 1198              	.LBE86:
 228:../Firmware/GD32VW55x_standard_peripheral/Source/gd32vw55x_hau_sha_md5.c ****         outputaddr += 4U;
 1199              		.loc 1 228 35
 1200 068c 98C3     		sw	a4,0(a5)
 229:../Firmware/GD32VW55x_standard_peripheral/Source/gd32vw55x_hau_sha_md5.c ****         *(uint32_t*)(outputaddr)  = __REV(digest_para.out[7]);
 1201              		.loc 1 229 20
 1202 068e 8327C4FE 		lw	a5,-20(s0)
 1203 0692 9107     		addi	a5,a5,4
 1204 0694 2326F4FE 		sw	a5,-20(s0)
 230:../Firmware/GD32VW55x_standard_peripheral/Source/gd32vw55x_hau_sha_md5.c ****         break;
 1205              		.loc 1 230 37
 1206 0698 032784F2 		lw	a4,-216(s0)
 230:../Firmware/GD32VW55x_standard_peripheral/Source/gd32vw55x_hau_sha_md5.c ****         break;
 1207              		.loc 1 230 10
 1208 069c 8327C4FE 		lw	a5,-20(s0)
 1209 06a0 2324E4F8 		sw	a4,-120(s0)
 1210              	.LBB88:
 1211              	.LBB89:
 124:../Firmware/RISCV/drivers/core_compatiable.h ****         | ((value & 0x00ff0000) >> 8 )
 1212              		.loc 2 124 37
 1213 06a4 032784F8 		lw	a4,-120(s0)
 1214 06a8 93568701 		srli	a3,a4,24
 125:../Firmware/RISCV/drivers/core_compatiable.h ****         | ((value & 0x0000ff00) << 8 )
 1215              		.loc 2 125 33
 1216 06ac 032784F8 		lw	a4,-120(s0)
 1217 06b0 13568700 		srli	a2,a4,8
 1218 06b4 4167     		li	a4,65536
 1219 06b6 130707F0 		addi	a4,a4,-256
 1220 06ba 718F     		and	a4,a2,a4
 125:../Firmware/RISCV/drivers/core_compatiable.h ****         | ((value & 0x0000ff00) << 8 )
 1221              		.loc 2 125 9
 1222 06bc D98E     		or	a3,a3,a4
 126:../Firmware/RISCV/drivers/core_compatiable.h ****         | ((value & 0x000000ff) << 24);
 1223              		.loc 2 126 33
 1224 06be 032784F8 		lw	a4,-120(s0)
 1225 06c2 13168700 		slli	a2,a4,8
 1226 06c6 3707FF00 		li	a4,16711680
 1227 06ca 718F     		and	a4,a2,a4
 126:../Firmware/RISCV/drivers/core_compatiable.h ****         | ((value & 0x000000ff) << 24);
 1228              		.loc 2 126 9
 1229 06cc D98E     		or	a3,a3,a4
 127:../Firmware/RISCV/drivers/core_compatiable.h ****     return result;
 1230              		.loc 2 127 33
 1231 06ce 032784F8 		lw	a4,-120(s0)
 1232 06d2 6207     		slli	a4,a4,24
 124:../Firmware/RISCV/drivers/core_compatiable.h ****         | ((value & 0x00ff0000) >> 8 )
 1233              		.loc 2 124 12
 1234 06d4 558F     		or	a4,a3,a4
 1235 06d6 2322E4F8 		sw	a4,-124(s0)
 1236              		.loc 2 128 12
 1237 06da 032744F8 		lw	a4,-124(s0)
 1238              	.LBE89:
 1239              	.LBE88:
 230:../Firmware/GD32VW55x_standard_peripheral/Source/gd32vw55x_hau_sha_md5.c ****         break;
 1240              		.loc 1 230 35
 1241 06de 98C3     		sw	a4,0(a5)
 231:../Firmware/GD32VW55x_standard_peripheral/Source/gd32vw55x_hau_sha_md5.c ****     case HAU_ALGO_MD5:
 1242              		.loc 1 231 9
 1243 06e0 89AA     		j	.L28
 1244              	.L22:
 233:../Firmware/GD32VW55x_standard_peripheral/Source/gd32vw55x_hau_sha_md5.c ****         *(uint32_t*)(outputaddr)  = __REV(digest_para.out[0]);
 1245              		.loc 1 233 9
 1246 06e2 9307C4F0 		addi	a5,s0,-244
 1247 06e6 3E85     		mv	a0,a5
 1248 06e8 97000000 		call	hau_digest_read
 1248      E7800000 
 234:../Firmware/GD32VW55x_standard_peripheral/Source/gd32vw55x_hau_sha_md5.c ****         outputaddr += 4U;
 1249              		.loc 1 234 37
 1250 06f0 0327C4F0 		lw	a4,-244(s0)
 234:../Firmware/GD32VW55x_standard_peripheral/Source/gd32vw55x_hau_sha_md5.c ****         outputaddr += 4U;
 1251              		.loc 1 234 10
 1252 06f4 8327C4FE 		lw	a5,-20(s0)
 1253 06f8 2328E4F2 		sw	a4,-208(s0)
 1254              	.LBB90:
 1255              	.LBB91:
 124:../Firmware/RISCV/drivers/core_compatiable.h ****         | ((value & 0x00ff0000) >> 8 )
 1256              		.loc 2 124 37
 1257 06fc 032704F3 		lw	a4,-208(s0)
 1258 0700 93568701 		srli	a3,a4,24
 125:../Firmware/RISCV/drivers/core_compatiable.h ****         | ((value & 0x0000ff00) << 8 )
 1259              		.loc 2 125 33
 1260 0704 032704F3 		lw	a4,-208(s0)
 1261 0708 13568700 		srli	a2,a4,8
 1262 070c 4167     		li	a4,65536
 1263 070e 130707F0 		addi	a4,a4,-256
 1264 0712 718F     		and	a4,a2,a4
 125:../Firmware/RISCV/drivers/core_compatiable.h ****         | ((value & 0x0000ff00) << 8 )
 1265              		.loc 2 125 9
 1266 0714 D98E     		or	a3,a3,a4
 126:../Firmware/RISCV/drivers/core_compatiable.h ****         | ((value & 0x000000ff) << 24);
 1267              		.loc 2 126 33
 1268 0716 032704F3 		lw	a4,-208(s0)
 1269 071a 13168700 		slli	a2,a4,8
 1270 071e 3707FF00 		li	a4,16711680
 1271 0722 718F     		and	a4,a2,a4
 126:../Firmware/RISCV/drivers/core_compatiable.h ****         | ((value & 0x000000ff) << 24);
 1272              		.loc 2 126 9
 1273 0724 D98E     		or	a3,a3,a4
 127:../Firmware/RISCV/drivers/core_compatiable.h ****     return result;
 1274              		.loc 2 127 33
 1275 0726 032704F3 		lw	a4,-208(s0)
 1276 072a 6207     		slli	a4,a4,24
 124:../Firmware/RISCV/drivers/core_compatiable.h ****         | ((value & 0x00ff0000) >> 8 )
 1277              		.loc 2 124 12
 1278 072c 558F     		or	a4,a3,a4
 1279 072e 2326E4F2 		sw	a4,-212(s0)
 1280              		.loc 2 128 12
 1281 0732 0327C4F2 		lw	a4,-212(s0)
 1282              	.LBE91:
 1283              	.LBE90:
 234:../Firmware/GD32VW55x_standard_peripheral/Source/gd32vw55x_hau_sha_md5.c ****         outputaddr += 4U;
 1284              		.loc 1 234 35
 1285 0736 98C3     		sw	a4,0(a5)
 235:../Firmware/GD32VW55x_standard_peripheral/Source/gd32vw55x_hau_sha_md5.c ****         *(uint32_t*)(outputaddr)  = __REV(digest_para.out[1]);
 1286              		.loc 1 235 20
 1287 0738 8327C4FE 		lw	a5,-20(s0)
 1288 073c 9107     		addi	a5,a5,4
 1289 073e 2326F4FE 		sw	a5,-20(s0)
 236:../Firmware/GD32VW55x_standard_peripheral/Source/gd32vw55x_hau_sha_md5.c ****         outputaddr += 4U;
 1290              		.loc 1 236 37
 1291 0742 032704F1 		lw	a4,-240(s0)
 236:../Firmware/GD32VW55x_standard_peripheral/Source/gd32vw55x_hau_sha_md5.c ****         outputaddr += 4U;
 1292              		.loc 1 236 10
 1293 0746 8327C4FE 		lw	a5,-20(s0)
 1294 074a 232CE4F2 		sw	a4,-200(s0)
 1295              	.LBB92:
 1296              	.LBB93:
 124:../Firmware/RISCV/drivers/core_compatiable.h ****         | ((value & 0x00ff0000) >> 8 )
 1297              		.loc 2 124 37
 1298 074e 032784F3 		lw	a4,-200(s0)
 1299 0752 93568701 		srli	a3,a4,24
 125:../Firmware/RISCV/drivers/core_compatiable.h ****         | ((value & 0x0000ff00) << 8 )
 1300              		.loc 2 125 33
 1301 0756 032784F3 		lw	a4,-200(s0)
 1302 075a 13568700 		srli	a2,a4,8
 1303 075e 4167     		li	a4,65536
 1304 0760 130707F0 		addi	a4,a4,-256
 1305 0764 718F     		and	a4,a2,a4
 125:../Firmware/RISCV/drivers/core_compatiable.h ****         | ((value & 0x0000ff00) << 8 )
 1306              		.loc 2 125 9
 1307 0766 D98E     		or	a3,a3,a4
 126:../Firmware/RISCV/drivers/core_compatiable.h ****         | ((value & 0x000000ff) << 24);
 1308              		.loc 2 126 33
 1309 0768 032784F3 		lw	a4,-200(s0)
 1310 076c 13168700 		slli	a2,a4,8
 1311 0770 3707FF00 		li	a4,16711680
 1312 0774 718F     		and	a4,a2,a4
 126:../Firmware/RISCV/drivers/core_compatiable.h ****         | ((value & 0x000000ff) << 24);
 1313              		.loc 2 126 9
 1314 0776 D98E     		or	a3,a3,a4
 127:../Firmware/RISCV/drivers/core_compatiable.h ****     return result;
 1315              		.loc 2 127 33
 1316 0778 032784F3 		lw	a4,-200(s0)
 1317 077c 6207     		slli	a4,a4,24
 124:../Firmware/RISCV/drivers/core_compatiable.h ****         | ((value & 0x00ff0000) >> 8 )
 1318              		.loc 2 124 12
 1319 077e 558F     		or	a4,a3,a4
 1320 0780 232AE4F2 		sw	a4,-204(s0)
 1321              		.loc 2 128 12
 1322 0784 032744F3 		lw	a4,-204(s0)
 1323              	.LBE93:
 1324              	.LBE92:
 236:../Firmware/GD32VW55x_standard_peripheral/Source/gd32vw55x_hau_sha_md5.c ****         outputaddr += 4U;
 1325              		.loc 1 236 35
 1326 0788 98C3     		sw	a4,0(a5)
 237:../Firmware/GD32VW55x_standard_peripheral/Source/gd32vw55x_hau_sha_md5.c ****         *(uint32_t*)(outputaddr)  = __REV(digest_para.out[2]);
 1327              		.loc 1 237 20
 1328 078a 8327C4FE 		lw	a5,-20(s0)
 1329 078e 9107     		addi	a5,a5,4
 1330 0790 2326F4FE 		sw	a5,-20(s0)
 238:../Firmware/GD32VW55x_standard_peripheral/Source/gd32vw55x_hau_sha_md5.c ****         outputaddr += 4U;
 1331              		.loc 1 238 37
 1332 0794 032744F1 		lw	a4,-236(s0)
 238:../Firmware/GD32VW55x_standard_peripheral/Source/gd32vw55x_hau_sha_md5.c ****         outputaddr += 4U;
 1333              		.loc 1 238 10
 1334 0798 8327C4FE 		lw	a5,-20(s0)
 1335 079c 2320E4F4 		sw	a4,-192(s0)
 1336              	.LBB94:
 1337              	.LBB95:
 124:../Firmware/RISCV/drivers/core_compatiable.h ****         | ((value & 0x00ff0000) >> 8 )
 1338              		.loc 2 124 37
 1339 07a0 032704F4 		lw	a4,-192(s0)
 1340 07a4 93568701 		srli	a3,a4,24
 125:../Firmware/RISCV/drivers/core_compatiable.h ****         | ((value & 0x0000ff00) << 8 )
 1341              		.loc 2 125 33
 1342 07a8 032704F4 		lw	a4,-192(s0)
 1343 07ac 13568700 		srli	a2,a4,8
 1344 07b0 4167     		li	a4,65536
 1345 07b2 130707F0 		addi	a4,a4,-256
 1346 07b6 718F     		and	a4,a2,a4
 125:../Firmware/RISCV/drivers/core_compatiable.h ****         | ((value & 0x0000ff00) << 8 )
 1347              		.loc 2 125 9
 1348 07b8 D98E     		or	a3,a3,a4
 126:../Firmware/RISCV/drivers/core_compatiable.h ****         | ((value & 0x000000ff) << 24);
 1349              		.loc 2 126 33
 1350 07ba 032704F4 		lw	a4,-192(s0)
 1351 07be 13168700 		slli	a2,a4,8
 1352 07c2 3707FF00 		li	a4,16711680
 1353 07c6 718F     		and	a4,a2,a4
 126:../Firmware/RISCV/drivers/core_compatiable.h ****         | ((value & 0x000000ff) << 24);
 1354              		.loc 2 126 9
 1355 07c8 D98E     		or	a3,a3,a4
 127:../Firmware/RISCV/drivers/core_compatiable.h ****     return result;
 1356              		.loc 2 127 33
 1357 07ca 032704F4 		lw	a4,-192(s0)
 1358 07ce 6207     		slli	a4,a4,24
 124:../Firmware/RISCV/drivers/core_compatiable.h ****         | ((value & 0x00ff0000) >> 8 )
 1359              		.loc 2 124 12
 1360 07d0 558F     		or	a4,a3,a4
 1361 07d2 232EE4F2 		sw	a4,-196(s0)
 1362              		.loc 2 128 12
 1363 07d6 0327C4F3 		lw	a4,-196(s0)
 1364              	.LBE95:
 1365              	.LBE94:
 238:../Firmware/GD32VW55x_standard_peripheral/Source/gd32vw55x_hau_sha_md5.c ****         outputaddr += 4U;
 1366              		.loc 1 238 35
 1367 07da 98C3     		sw	a4,0(a5)
 239:../Firmware/GD32VW55x_standard_peripheral/Source/gd32vw55x_hau_sha_md5.c ****         *(uint32_t*)(outputaddr)  = __REV(digest_para.out[3]);
 1368              		.loc 1 239 20
 1369 07dc 8327C4FE 		lw	a5,-20(s0)
 1370 07e0 9107     		addi	a5,a5,4
 1371 07e2 2326F4FE 		sw	a5,-20(s0)
 240:../Firmware/GD32VW55x_standard_peripheral/Source/gd32vw55x_hau_sha_md5.c ****         break;
 1372              		.loc 1 240 37
 1373 07e6 032784F1 		lw	a4,-232(s0)
 240:../Firmware/GD32VW55x_standard_peripheral/Source/gd32vw55x_hau_sha_md5.c ****         break;
 1374              		.loc 1 240 10
 1375 07ea 8327C4FE 		lw	a5,-20(s0)
 1376 07ee 2324E4F4 		sw	a4,-184(s0)
 1377              	.LBB96:
 1378              	.LBB97:
 124:../Firmware/RISCV/drivers/core_compatiable.h ****         | ((value & 0x00ff0000) >> 8 )
 1379              		.loc 2 124 37
 1380 07f2 032784F4 		lw	a4,-184(s0)
 1381 07f6 93568701 		srli	a3,a4,24
 125:../Firmware/RISCV/drivers/core_compatiable.h ****         | ((value & 0x0000ff00) << 8 )
 1382              		.loc 2 125 33
 1383 07fa 032784F4 		lw	a4,-184(s0)
 1384 07fe 13568700 		srli	a2,a4,8
 1385 0802 4167     		li	a4,65536
 1386 0804 130707F0 		addi	a4,a4,-256
 1387 0808 718F     		and	a4,a2,a4
 125:../Firmware/RISCV/drivers/core_compatiable.h ****         | ((value & 0x0000ff00) << 8 )
 1388              		.loc 2 125 9
 1389 080a D98E     		or	a3,a3,a4
 126:../Firmware/RISCV/drivers/core_compatiable.h ****         | ((value & 0x000000ff) << 24);
 1390              		.loc 2 126 33
 1391 080c 032784F4 		lw	a4,-184(s0)
 1392 0810 13168700 		slli	a2,a4,8
 1393 0814 3707FF00 		li	a4,16711680
 1394 0818 718F     		and	a4,a2,a4
 126:../Firmware/RISCV/drivers/core_compatiable.h ****         | ((value & 0x000000ff) << 24);
 1395              		.loc 2 126 9
 1396 081a D98E     		or	a3,a3,a4
 127:../Firmware/RISCV/drivers/core_compatiable.h ****     return result;
 1397              		.loc 2 127 33
 1398 081c 032784F4 		lw	a4,-184(s0)
 1399 0820 6207     		slli	a4,a4,24
 124:../Firmware/RISCV/drivers/core_compatiable.h ****         | ((value & 0x00ff0000) >> 8 )
 1400              		.loc 2 124 12
 1401 0822 558F     		or	a4,a3,a4
 1402 0824 2322E4F4 		sw	a4,-188(s0)
 1403              		.loc 2 128 12
 1404 0828 032744F4 		lw	a4,-188(s0)
 1405              	.LBE97:
 1406              	.LBE96:
 240:../Firmware/GD32VW55x_standard_peripheral/Source/gd32vw55x_hau_sha_md5.c ****         break;
 1407              		.loc 1 240 35
 1408 082c 98C3     		sw	a4,0(a5)
 241:../Firmware/GD32VW55x_standard_peripheral/Source/gd32vw55x_hau_sha_md5.c ****     default:
 1409              		.loc 1 241 9
 1410 082e 11A0     		j	.L28
 1411              	.L48:
 1412              		.loc 1 243 9
 1413 0830 0100     		nop
 1414              	.L28:
 244:../Firmware/GD32VW55x_standard_peripheral/Source/gd32vw55x_hau_sha_md5.c ****     }
 245:../Firmware/GD32VW55x_standard_peripheral/Source/gd32vw55x_hau_sha_md5.c **** }
 1415              		.loc 1 245 1
 1416 0832 0100     		nop
 1417 0834 8320C110 		lw	ra,268(sp)
 1418              		.cfi_restore 1
 1419 0838 03248110 		lw	s0,264(sp)
 1420              		.cfi_restore 8
 1421              		.cfi_def_cfa 2, 272
 1422 083c 5161     		addi	sp,sp,272
 1423              		.cfi_def_cfa_offset 0
 1424 083e 8280     		jr	ra
 1425              		.cfi_endproc
 1426              	.LFE355:
 1428              		.section	.text.hau_hash_calculate,"ax",@progbits
 1429              		.align	1
 1431              	hau_hash_calculate:
 1432              	.LFB356:
 246:../Firmware/GD32VW55x_standard_peripheral/Source/gd32vw55x_hau_sha_md5.c **** 
 247:../Firmware/GD32VW55x_standard_peripheral/Source/gd32vw55x_hau_sha_md5.c **** /*!
 248:../Firmware/GD32VW55x_standard_peripheral/Source/gd32vw55x_hau_sha_md5.c ****     \brief      HAU digest calculate process in HASH mode
 249:../Firmware/GD32VW55x_standard_peripheral/Source/gd32vw55x_hau_sha_md5.c ****     \param[in]  algo: algorithm selection
 250:../Firmware/GD32VW55x_standard_peripheral/Source/gd32vw55x_hau_sha_md5.c ****     \param[in]  input: pointer to the input buffer
 251:../Firmware/GD32VW55x_standard_peripheral/Source/gd32vw55x_hau_sha_md5.c ****     \param[in]  in_length: length of the input buffer
 252:../Firmware/GD32VW55x_standard_peripheral/Source/gd32vw55x_hau_sha_md5.c ****     \param[in]  output: the result digest
 253:../Firmware/GD32VW55x_standard_peripheral/Source/gd32vw55x_hau_sha_md5.c ****     \param[out] none
 254:../Firmware/GD32VW55x_standard_peripheral/Source/gd32vw55x_hau_sha_md5.c ****     \retval     ErrStatus: SUCCESS or ERROR
 255:../Firmware/GD32VW55x_standard_peripheral/Source/gd32vw55x_hau_sha_md5.c **** */
 256:../Firmware/GD32VW55x_standard_peripheral/Source/gd32vw55x_hau_sha_md5.c **** static ErrStatus hau_hash_calculate(uint32_t algo, uint8_t *input, uint32_t in_length, uint8_t *out
 257:../Firmware/GD32VW55x_standard_peripheral/Source/gd32vw55x_hau_sha_md5.c **** {
 1433              		.loc 1 257 1
 1434              		.cfi_startproc
 1435 0000 5D71     		addi	sp,sp,-80
 1436              		.cfi_def_cfa_offset 80
 1437 0002 86C6     		sw	ra,76(sp)
 1438 0004 A2C4     		sw	s0,72(sp)
 1439              		.cfi_offset 1, -4
 1440              		.cfi_offset 8, -8
 1441 0006 8008     		addi	s0,sp,80
 1442              		.cfi_def_cfa 8, 0
 1443 0008 232EA4FA 		sw	a0,-68(s0)
 1444 000c 232CB4FA 		sw	a1,-72(s0)
 1445 0010 232AC4FA 		sw	a2,-76(s0)
 1446 0014 2328D4FA 		sw	a3,-80(s0)
 258:../Firmware/GD32VW55x_standard_peripheral/Source/gd32vw55x_hau_sha_md5.c ****     hau_init_parameter_struct init_para;
 259:../Firmware/GD32VW55x_standard_peripheral/Source/gd32vw55x_hau_sha_md5.c **** 
 260:../Firmware/GD32VW55x_standard_peripheral/Source/gd32vw55x_hau_sha_md5.c ****     __IO uint32_t num_last_valid = 0U;
 1447              		.loc 1 260 19
 1448 0018 232804FC 		sw	zero,-48(s0)
 261:../Firmware/GD32VW55x_standard_peripheral/Source/gd32vw55x_hau_sha_md5.c ****     uint32_t i = 0U;
 1449              		.loc 1 261 14
 1450 001c 232604FE 		sw	zero,-20(s0)
 262:../Firmware/GD32VW55x_standard_peripheral/Source/gd32vw55x_hau_sha_md5.c ****     __IO uint32_t counter = 0U;
 1451              		.loc 1 262 19
 1452 0020 232604FC 		sw	zero,-52(s0)
 263:../Firmware/GD32VW55x_standard_peripheral/Source/gd32vw55x_hau_sha_md5.c ****     uint32_t busystatus = 0U;
 1453              		.loc 1 263 14
 1454 0024 232204FE 		sw	zero,-28(s0)
 264:../Firmware/GD32VW55x_standard_peripheral/Source/gd32vw55x_hau_sha_md5.c ****     uint32_t inputaddr  = (uint32_t)input;
 1455              		.loc 1 264 14
 1456 0028 832784FB 		lw	a5,-72(s0)
 1457 002c 2324F4FE 		sw	a5,-24(s0)
 265:../Firmware/GD32VW55x_standard_peripheral/Source/gd32vw55x_hau_sha_md5.c **** 
 266:../Firmware/GD32VW55x_standard_peripheral/Source/gd32vw55x_hau_sha_md5.c ****     /* number of valid bits in last word */
 267:../Firmware/GD32VW55x_standard_peripheral/Source/gd32vw55x_hau_sha_md5.c ****     num_last_valid = 8U * (in_length % 4U);
 1458              		.loc 1 267 38
 1459 0030 832744FB 		lw	a5,-76(s0)
 1460 0034 8D8B     		andi	a5,a5,3
 1461              		.loc 1 267 25
 1462 0036 8E07     		slli	a5,a5,3
 1463              		.loc 1 267 20
 1464 0038 2328F4FC 		sw	a5,-48(s0)
 268:../Firmware/GD32VW55x_standard_peripheral/Source/gd32vw55x_hau_sha_md5.c **** 
 269:../Firmware/GD32VW55x_standard_peripheral/Source/gd32vw55x_hau_sha_md5.c ****     /* HAU peripheral initialization */
 270:../Firmware/GD32VW55x_standard_peripheral/Source/gd32vw55x_hau_sha_md5.c ****     hau_deinit();
 1465              		.loc 1 270 5
 1466 003c 97000000 		call	hau_deinit
 1466      E7800000 
 271:../Firmware/GD32VW55x_standard_peripheral/Source/gd32vw55x_hau_sha_md5.c **** 
 272:../Firmware/GD32VW55x_standard_peripheral/Source/gd32vw55x_hau_sha_md5.c ****     /* HAU configuration */
 273:../Firmware/GD32VW55x_standard_peripheral/Source/gd32vw55x_hau_sha_md5.c ****     init_para.algo = algo;
 1467              		.loc 1 273 20
 1468 0044 8327C4FB 		lw	a5,-68(s0)
 1469 0048 232AF4FC 		sw	a5,-44(s0)
 274:../Firmware/GD32VW55x_standard_peripheral/Source/gd32vw55x_hau_sha_md5.c ****     init_para.mode = HAU_MODE_HASH;
 1470              		.loc 1 274 20
 1471 004c 232C04FC 		sw	zero,-40(s0)
 275:../Firmware/GD32VW55x_standard_peripheral/Source/gd32vw55x_hau_sha_md5.c ****     init_para.datatype = HAU_SWAPPING_8BIT;
 1472              		.loc 1 275 24
 1473 0050 93070002 		li	a5,32
 1474 0054 232EF4FC 		sw	a5,-36(s0)
 276:../Firmware/GD32VW55x_standard_peripheral/Source/gd32vw55x_hau_sha_md5.c ****     hau_init(&init_para);
 1475              		.loc 1 276 5
 1476 0058 930744FD 		addi	a5,s0,-44
 1477 005c 3E85     		mv	a0,a5
 1478 005e 97000000 		call	hau_init
 1478      E7800000 
 277:../Firmware/GD32VW55x_standard_peripheral/Source/gd32vw55x_hau_sha_md5.c **** 
 278:../Firmware/GD32VW55x_standard_peripheral/Source/gd32vw55x_hau_sha_md5.c ****     /* configure the number of valid bits in last word of the message */
 279:../Firmware/GD32VW55x_standard_peripheral/Source/gd32vw55x_hau_sha_md5.c ****     hau_last_word_validbits_num_config(num_last_valid);
 1479              		.loc 1 279 5
 1480 0066 832704FD 		lw	a5,-48(s0)
 1481 006a 3E85     		mv	a0,a5
 1482 006c 97000000 		call	hau_last_word_validbits_num_config
 1482      E7800000 
 280:../Firmware/GD32VW55x_standard_peripheral/Source/gd32vw55x_hau_sha_md5.c **** 
 281:../Firmware/GD32VW55x_standard_peripheral/Source/gd32vw55x_hau_sha_md5.c ****     /* write data to the IN FIFO */
 282:../Firmware/GD32VW55x_standard_peripheral/Source/gd32vw55x_hau_sha_md5.c ****     for(i = 0U; i < in_length; i += 4U){
 1483              		.loc 1 282 11
 1484 0074 232604FE 		sw	zero,-20(s0)
 1485              		.loc 1 282 5
 1486 0078 1DA0     		j	.L50
 1487              	.L51:
 283:../Firmware/GD32VW55x_standard_peripheral/Source/gd32vw55x_hau_sha_md5.c ****         hau_data_write(*(uint32_t*)inputaddr);
 1488              		.loc 1 283 25 discriminator 3
 1489 007a 832784FE 		lw	a5,-24(s0)
 1490              		.loc 1 283 9 discriminator 3
 1491 007e 9C43     		lw	a5,0(a5)
 1492 0080 3E85     		mv	a0,a5
 1493 0082 97000000 		call	hau_data_write
 1493      E7800000 
 284:../Firmware/GD32VW55x_standard_peripheral/Source/gd32vw55x_hau_sha_md5.c ****         inputaddr += 4U;
 1494              		.loc 1 284 19 discriminator 3
 1495 008a 832784FE 		lw	a5,-24(s0)
 1496 008e 9107     		addi	a5,a5,4
 1497 0090 2324F4FE 		sw	a5,-24(s0)
 282:../Firmware/GD32VW55x_standard_peripheral/Source/gd32vw55x_hau_sha_md5.c ****         hau_data_write(*(uint32_t*)inputaddr);
 1498              		.loc 1 282 34 discriminator 3
 1499 0094 8327C4FE 		lw	a5,-20(s0)
 1500 0098 9107     		addi	a5,a5,4
 1501 009a 2326F4FE 		sw	a5,-20(s0)
 1502              	.L50:
 282:../Firmware/GD32VW55x_standard_peripheral/Source/gd32vw55x_hau_sha_md5.c ****         hau_data_write(*(uint32_t*)inputaddr);
 1503              		.loc 1 282 5 discriminator 1
 1504 009e 0327C4FE 		lw	a4,-20(s0)
 1505 00a2 832744FB 		lw	a5,-76(s0)
 1506 00a6 E36AF7FC 		bltu	a4,a5,.L51
 285:../Firmware/GD32VW55x_standard_peripheral/Source/gd32vw55x_hau_sha_md5.c ****     }
 286:../Firmware/GD32VW55x_standard_peripheral/Source/gd32vw55x_hau_sha_md5.c **** 
 287:../Firmware/GD32VW55x_standard_peripheral/Source/gd32vw55x_hau_sha_md5.c ****     /* enable digest calculation */
 288:../Firmware/GD32VW55x_standard_peripheral/Source/gd32vw55x_hau_sha_md5.c ****     hau_digest_calculation_enable();
 1507              		.loc 1 288 5
 1508 00aa 97000000 		call	hau_digest_calculation_enable
 1508      E7800000 
 1509              	.L53:
 289:../Firmware/GD32VW55x_standard_peripheral/Source/gd32vw55x_hau_sha_md5.c **** 
 290:../Firmware/GD32VW55x_standard_peripheral/Source/gd32vw55x_hau_sha_md5.c ****     /* wait until the busy flag is reset */
 291:../Firmware/GD32VW55x_standard_peripheral/Source/gd32vw55x_hau_sha_md5.c ****     do{
 292:../Firmware/GD32VW55x_standard_peripheral/Source/gd32vw55x_hau_sha_md5.c ****         busystatus = hau_flag_get(HAU_FLAG_BUSY);
 1510              		.loc 1 292 22 discriminator 2
 1511 00b2 2145     		li	a0,8
 1512 00b4 97000000 		call	hau_flag_get
 1512      E7800000 
 1513 00bc 2322A4FE 		sw	a0,-28(s0)
 293:../Firmware/GD32VW55x_standard_peripheral/Source/gd32vw55x_hau_sha_md5.c ****         counter++;
 1514              		.loc 1 293 16 discriminator 2
 1515 00c0 8327C4FC 		lw	a5,-52(s0)
 1516 00c4 8507     		addi	a5,a5,1
 1517 00c6 2326F4FC 		sw	a5,-52(s0)
 294:../Firmware/GD32VW55x_standard_peripheral/Source/gd32vw55x_hau_sha_md5.c ****     }while((SHAMD5_BSY_TIMEOUT != counter) && (RESET != busystatus));
 1518              		.loc 1 294 32 discriminator 2
 1519 00ca 0327C4FC 		lw	a4,-52(s0)
 1520              		.loc 1 294 5 discriminator 2
 1521 00ce C167     		li	a5,65536
 1522 00d0 6305F700 		beq	a4,a5,.L52
 1523              		.loc 1 294 44 discriminator 1
 1524 00d4 832744FE 		lw	a5,-28(s0)
 1525 00d8 E9FF     		bne	a5,zero,.L53
 1526              	.L52:
 295:../Firmware/GD32VW55x_standard_peripheral/Source/gd32vw55x_hau_sha_md5.c **** 
 296:../Firmware/GD32VW55x_standard_peripheral/Source/gd32vw55x_hau_sha_md5.c ****     if(RESET != busystatus){
 1527              		.loc 1 296 7
 1528 00da 832744FE 		lw	a5,-28(s0)
 1529 00de 99C3     		beq	a5,zero,.L54
 297:../Firmware/GD32VW55x_standard_peripheral/Source/gd32vw55x_hau_sha_md5.c ****         return ERROR;
 1530              		.loc 1 297 16
 1531 00e0 8147     		li	a5,0
 1532 00e2 11A8     		j	.L56
 1533              	.L54:
 298:../Firmware/GD32VW55x_standard_peripheral/Source/gd32vw55x_hau_sha_md5.c ****     }else{
 299:../Firmware/GD32VW55x_standard_peripheral/Source/gd32vw55x_hau_sha_md5.c ****         /* read the message digest */
 300:../Firmware/GD32VW55x_standard_peripheral/Source/gd32vw55x_hau_sha_md5.c ****         hau_sha_md5_digest_read(algo, output);
 1534              		.loc 1 300 9
 1535 00e4 832504FB 		lw	a1,-80(s0)
 1536 00e8 0325C4FB 		lw	a0,-68(s0)
 1537 00ec 97000000 		call	hau_sha_md5_digest_read
 1537      E7800000 
 301:../Firmware/GD32VW55x_standard_peripheral/Source/gd32vw55x_hau_sha_md5.c ****     }
 302:../Firmware/GD32VW55x_standard_peripheral/Source/gd32vw55x_hau_sha_md5.c ****     return SUCCESS;
 1538              		.loc 1 302 12
 1539 00f4 8547     		li	a5,1
 1540              	.L56:
 303:../Firmware/GD32VW55x_standard_peripheral/Source/gd32vw55x_hau_sha_md5.c **** }
 1541              		.loc 1 303 1 discriminator 1
 1542 00f6 3E85     		mv	a0,a5
 1543 00f8 B640     		lw	ra,76(sp)
 1544              		.cfi_restore 1
 1545 00fa 2644     		lw	s0,72(sp)
 1546              		.cfi_restore 8
 1547              		.cfi_def_cfa 2, 80
 1548 00fc 6161     		addi	sp,sp,80
 1549              		.cfi_def_cfa_offset 0
 1550 00fe 8280     		jr	ra
 1551              		.cfi_endproc
 1552              	.LFE356:
 1554              		.section	.text.hau_hmac_calculate,"ax",@progbits
 1555              		.align	1
 1557              	hau_hmac_calculate:
 1558              	.LFB357:
 304:../Firmware/GD32VW55x_standard_peripheral/Source/gd32vw55x_hau_sha_md5.c **** 
 305:../Firmware/GD32VW55x_standard_peripheral/Source/gd32vw55x_hau_sha_md5.c **** /*!
 306:../Firmware/GD32VW55x_standard_peripheral/Source/gd32vw55x_hau_sha_md5.c ****     \brief      HAU digest calculate process in HMAC mode
 307:../Firmware/GD32VW55x_standard_peripheral/Source/gd32vw55x_hau_sha_md5.c ****     \param[in]  algo: algorithm selection
 308:../Firmware/GD32VW55x_standard_peripheral/Source/gd32vw55x_hau_sha_md5.c ****     \param[in]  key: pointer to the key used for HMAC
 309:../Firmware/GD32VW55x_standard_peripheral/Source/gd32vw55x_hau_sha_md5.c ****     \param[in]  keysize: length of the key used for HMAC
 310:../Firmware/GD32VW55x_standard_peripheral/Source/gd32vw55x_hau_sha_md5.c ****     \param[in]  input: pointer to the input buffer
 311:../Firmware/GD32VW55x_standard_peripheral/Source/gd32vw55x_hau_sha_md5.c ****     \param[in]  in_length: length of the input buffer
 312:../Firmware/GD32VW55x_standard_peripheral/Source/gd32vw55x_hau_sha_md5.c ****     \param[in]  output: the result digest
 313:../Firmware/GD32VW55x_standard_peripheral/Source/gd32vw55x_hau_sha_md5.c ****     \param[out] none
 314:../Firmware/GD32VW55x_standard_peripheral/Source/gd32vw55x_hau_sha_md5.c ****     \retval     ErrStatus: SUCCESS or ERROR
 315:../Firmware/GD32VW55x_standard_peripheral/Source/gd32vw55x_hau_sha_md5.c **** */
 316:../Firmware/GD32VW55x_standard_peripheral/Source/gd32vw55x_hau_sha_md5.c **** static ErrStatus hau_hmac_calculate(uint32_t algo, uint8_t *key, uint32_t keysize, uint8_t *input, 
 317:../Firmware/GD32VW55x_standard_peripheral/Source/gd32vw55x_hau_sha_md5.c **** {
 1559              		.loc 1 317 1
 1560              		.cfi_startproc
 1561 0000 1D71     		addi	sp,sp,-96
 1562              		.cfi_def_cfa_offset 96
 1563 0002 86CE     		sw	ra,92(sp)
 1564 0004 A2CC     		sw	s0,88(sp)
 1565              		.cfi_offset 1, -4
 1566              		.cfi_offset 8, -8
 1567 0006 8010     		addi	s0,sp,96
 1568              		.cfi_def_cfa 8, 0
 1569 0008 232EA4FA 		sw	a0,-68(s0)
 1570 000c 232CB4FA 		sw	a1,-72(s0)
 1571 0010 232AC4FA 		sw	a2,-76(s0)
 1572 0014 2328D4FA 		sw	a3,-80(s0)
 1573 0018 2326E4FA 		sw	a4,-84(s0)
 1574 001c 2324F4FA 		sw	a5,-88(s0)
 318:../Firmware/GD32VW55x_standard_peripheral/Source/gd32vw55x_hau_sha_md5.c ****     hau_init_parameter_struct init_para;
 319:../Firmware/GD32VW55x_standard_peripheral/Source/gd32vw55x_hau_sha_md5.c **** 
 320:../Firmware/GD32VW55x_standard_peripheral/Source/gd32vw55x_hau_sha_md5.c ****     __IO uint16_t num_last_valid = 0U;
 1575              		.loc 1 320 19
 1576 0020 231704FC 		sh	zero,-50(s0)
 321:../Firmware/GD32VW55x_standard_peripheral/Source/gd32vw55x_hau_sha_md5.c ****     __IO uint16_t num_key_valid = 0U;
 1577              		.loc 1 321 19
 1578 0024 231604FC 		sh	zero,-52(s0)
 322:../Firmware/GD32VW55x_standard_peripheral/Source/gd32vw55x_hau_sha_md5.c ****     uint32_t i = 0U;
 1579              		.loc 1 322 14
 1580 0028 232604FE 		sw	zero,-20(s0)
 323:../Firmware/GD32VW55x_standard_peripheral/Source/gd32vw55x_hau_sha_md5.c ****     __IO uint32_t counter = 0U;
 1581              		.loc 1 323 19
 1582 002c 232404FC 		sw	zero,-56(s0)
 324:../Firmware/GD32VW55x_standard_peripheral/Source/gd32vw55x_hau_sha_md5.c ****     uint32_t busystatus = 0U;
 1583              		.loc 1 324 14
 1584 0030 232004FE 		sw	zero,-32(s0)
 325:../Firmware/GD32VW55x_standard_peripheral/Source/gd32vw55x_hau_sha_md5.c ****     uint32_t keyaddr    = (uint32_t)key;
 1585              		.loc 1 325 14
 1586 0034 832784FB 		lw	a5,-72(s0)
 1587 0038 2324F4FE 		sw	a5,-24(s0)
 326:../Firmware/GD32VW55x_standard_peripheral/Source/gd32vw55x_hau_sha_md5.c ****     uint32_t inputaddr  = (uint32_t)input;
 1588              		.loc 1 326 14
 1589 003c 832704FB 		lw	a5,-80(s0)
 1590 0040 2322F4FE 		sw	a5,-28(s0)
 327:../Firmware/GD32VW55x_standard_peripheral/Source/gd32vw55x_hau_sha_md5.c **** 
 328:../Firmware/GD32VW55x_standard_peripheral/Source/gd32vw55x_hau_sha_md5.c ****     /* number of valid bits in last word of the message */
 329:../Firmware/GD32VW55x_standard_peripheral/Source/gd32vw55x_hau_sha_md5.c ****     num_last_valid = 8U * (uint16_t)(in_length % 4U);
 1591              		.loc 1 329 20
 1592 0044 8327C4FA 		lw	a5,-84(s0)
 1593 0048 C207     		slli	a5,a5,16
 1594 004a C183     		srli	a5,a5,16
 1595 004c 8D8B     		andi	a5,a5,3
 1596 004e C207     		slli	a5,a5,16
 1597 0050 C183     		srli	a5,a5,16
 1598 0052 8E07     		slli	a5,a5,3
 1599 0054 C207     		slli	a5,a5,16
 1600 0056 C183     		srli	a5,a5,16
 1601 0058 2317F4FC 		sh	a5,-50(s0)
 330:../Firmware/GD32VW55x_standard_peripheral/Source/gd32vw55x_hau_sha_md5.c ****     /* number of valid bits in last word of the key */
 331:../Firmware/GD32VW55x_standard_peripheral/Source/gd32vw55x_hau_sha_md5.c ****     num_key_valid = 8U * (uint16_t)(keysize % 4U);
 1602              		.loc 1 331 19
 1603 005c 832744FB 		lw	a5,-76(s0)
 1604 0060 C207     		slli	a5,a5,16
 1605 0062 C183     		srli	a5,a5,16
 1606 0064 8D8B     		andi	a5,a5,3
 1607 0066 C207     		slli	a5,a5,16
 1608 0068 C183     		srli	a5,a5,16
 1609 006a 8E07     		slli	a5,a5,3
 1610 006c C207     		slli	a5,a5,16
 1611 006e C183     		srli	a5,a5,16
 1612 0070 2316F4FC 		sh	a5,-52(s0)
 332:../Firmware/GD32VW55x_standard_peripheral/Source/gd32vw55x_hau_sha_md5.c **** 
 333:../Firmware/GD32VW55x_standard_peripheral/Source/gd32vw55x_hau_sha_md5.c ****     /* HAU peripheral initialization */
 334:../Firmware/GD32VW55x_standard_peripheral/Source/gd32vw55x_hau_sha_md5.c ****     hau_deinit();
 1613              		.loc 1 334 5
 1614 0074 97000000 		call	hau_deinit
 1614      E7800000 
 335:../Firmware/GD32VW55x_standard_peripheral/Source/gd32vw55x_hau_sha_md5.c **** 
 336:../Firmware/GD32VW55x_standard_peripheral/Source/gd32vw55x_hau_sha_md5.c ****     /* HAU configuration */
 337:../Firmware/GD32VW55x_standard_peripheral/Source/gd32vw55x_hau_sha_md5.c ****     init_para.algo = algo;
 1615              		.loc 1 337 20
 1616 007c 8327C4FB 		lw	a5,-68(s0)
 1617 0080 2328F4FC 		sw	a5,-48(s0)
 338:../Firmware/GD32VW55x_standard_peripheral/Source/gd32vw55x_hau_sha_md5.c ****     init_para.mode = HAU_MODE_HMAC;
 1618              		.loc 1 338 20
 1619 0084 93070004 		li	a5,64
 1620 0088 232AF4FC 		sw	a5,-44(s0)
 339:../Firmware/GD32VW55x_standard_peripheral/Source/gd32vw55x_hau_sha_md5.c ****     init_para.datatype = HAU_SWAPPING_8BIT;
 1621              		.loc 1 339 24
 1622 008c 93070002 		li	a5,32
 1623 0090 232CF4FC 		sw	a5,-40(s0)
 340:../Firmware/GD32VW55x_standard_peripheral/Source/gd32vw55x_hau_sha_md5.c ****     if(keysize > 64U){
 1624              		.loc 1 340 7
 1625 0094 032744FB 		lw	a4,-76(s0)
 1626 0098 93070004 		li	a5,64
 1627 009c 63F6E700 		bleu	a4,a5,.L58
 341:../Firmware/GD32VW55x_standard_peripheral/Source/gd32vw55x_hau_sha_md5.c ****         init_para.keytype = HAU_KEY_LONGGER_64;
 1628              		.loc 1 341 27
 1629 00a0 C167     		li	a5,65536
 1630 00a2 232EF4FC 		sw	a5,-36(s0)
 1631 00a6 19A0     		j	.L59
 1632              	.L58:
 342:../Firmware/GD32VW55x_standard_peripheral/Source/gd32vw55x_hau_sha_md5.c ****     }else{
 343:../Firmware/GD32VW55x_standard_peripheral/Source/gd32vw55x_hau_sha_md5.c ****         init_para.keytype = HAU_KEY_SHORTER_64;
 1633              		.loc 1 343 27
 1634 00a8 232E04FC 		sw	zero,-36(s0)
 1635              	.L59:
 344:../Firmware/GD32VW55x_standard_peripheral/Source/gd32vw55x_hau_sha_md5.c ****     }
 345:../Firmware/GD32VW55x_standard_peripheral/Source/gd32vw55x_hau_sha_md5.c ****     hau_init(&init_para);
 1636              		.loc 1 345 5
 1637 00ac 930704FD 		addi	a5,s0,-48
 1638 00b0 3E85     		mv	a0,a5
 1639 00b2 97000000 		call	hau_init
 1639      E7800000 
 346:../Firmware/GD32VW55x_standard_peripheral/Source/gd32vw55x_hau_sha_md5.c **** 
 347:../Firmware/GD32VW55x_standard_peripheral/Source/gd32vw55x_hau_sha_md5.c ****     /* configure the number of valid bits in last word of the key */
 348:../Firmware/GD32VW55x_standard_peripheral/Source/gd32vw55x_hau_sha_md5.c ****     hau_last_word_validbits_num_config((uint32_t)num_key_valid);
 1640              		.loc 1 348 5
 1641 00ba 8357C4FC 		lhu	a5,-52(s0)
 1642 00be C207     		slli	a5,a5,16
 1643 00c0 C183     		srli	a5,a5,16
 1644 00c2 3E85     		mv	a0,a5
 1645 00c4 97000000 		call	hau_last_word_validbits_num_config
 1645      E7800000 
 349:../Firmware/GD32VW55x_standard_peripheral/Source/gd32vw55x_hau_sha_md5.c **** 
 350:../Firmware/GD32VW55x_standard_peripheral/Source/gd32vw55x_hau_sha_md5.c ****     /* write the key */
 351:../Firmware/GD32VW55x_standard_peripheral/Source/gd32vw55x_hau_sha_md5.c ****     for(i = 0U; i < keysize; i += 4U){
 1646              		.loc 1 351 11
 1647 00cc 232604FE 		sw	zero,-20(s0)
 1648              		.loc 1 351 5
 1649 00d0 1DA0     		j	.L60
 1650              	.L61:
 352:../Firmware/GD32VW55x_standard_peripheral/Source/gd32vw55x_hau_sha_md5.c ****         hau_data_write(*(uint32_t*)keyaddr);
 1651              		.loc 1 352 25 discriminator 3
 1652 00d2 832784FE 		lw	a5,-24(s0)
 1653              		.loc 1 352 9 discriminator 3
 1654 00d6 9C43     		lw	a5,0(a5)
 1655 00d8 3E85     		mv	a0,a5
 1656 00da 97000000 		call	hau_data_write
 1656      E7800000 
 353:../Firmware/GD32VW55x_standard_peripheral/Source/gd32vw55x_hau_sha_md5.c ****         keyaddr += 4U;
 1657              		.loc 1 353 17 discriminator 3
 1658 00e2 832784FE 		lw	a5,-24(s0)
 1659 00e6 9107     		addi	a5,a5,4
 1660 00e8 2324F4FE 		sw	a5,-24(s0)
 351:../Firmware/GD32VW55x_standard_peripheral/Source/gd32vw55x_hau_sha_md5.c ****         hau_data_write(*(uint32_t*)keyaddr);
 1661              		.loc 1 351 32 discriminator 3
 1662 00ec 8327C4FE 		lw	a5,-20(s0)
 1663 00f0 9107     		addi	a5,a5,4
 1664 00f2 2326F4FE 		sw	a5,-20(s0)
 1665              	.L60:
 351:../Firmware/GD32VW55x_standard_peripheral/Source/gd32vw55x_hau_sha_md5.c ****         hau_data_write(*(uint32_t*)keyaddr);
 1666              		.loc 1 351 5 discriminator 1
 1667 00f6 0327C4FE 		lw	a4,-20(s0)
 1668 00fa 832744FB 		lw	a5,-76(s0)
 1669 00fe E36AF7FC 		bltu	a4,a5,.L61
 354:../Firmware/GD32VW55x_standard_peripheral/Source/gd32vw55x_hau_sha_md5.c ****     }
 355:../Firmware/GD32VW55x_standard_peripheral/Source/gd32vw55x_hau_sha_md5.c **** 
 356:../Firmware/GD32VW55x_standard_peripheral/Source/gd32vw55x_hau_sha_md5.c ****     /* enable digest calculation */
 357:../Firmware/GD32VW55x_standard_peripheral/Source/gd32vw55x_hau_sha_md5.c ****     hau_digest_calculation_enable();
 1670              		.loc 1 357 5
 1671 0102 97000000 		call	hau_digest_calculation_enable
 1671      E7800000 
 1672              	.L63:
 358:../Firmware/GD32VW55x_standard_peripheral/Source/gd32vw55x_hau_sha_md5.c **** 
 359:../Firmware/GD32VW55x_standard_peripheral/Source/gd32vw55x_hau_sha_md5.c ****     /* wait until the busy flag is reset */
 360:../Firmware/GD32VW55x_standard_peripheral/Source/gd32vw55x_hau_sha_md5.c ****     do{
 361:../Firmware/GD32VW55x_standard_peripheral/Source/gd32vw55x_hau_sha_md5.c ****         busystatus = hau_flag_get(HAU_FLAG_BUSY);
 1673              		.loc 1 361 22 discriminator 2
 1674 010a 2145     		li	a0,8
 1675 010c 97000000 		call	hau_flag_get
 1675      E7800000 
 1676 0114 2320A4FE 		sw	a0,-32(s0)
 362:../Firmware/GD32VW55x_standard_peripheral/Source/gd32vw55x_hau_sha_md5.c ****         counter++;
 1677              		.loc 1 362 16 discriminator 2
 1678 0118 832784FC 		lw	a5,-56(s0)
 1679 011c 8507     		addi	a5,a5,1
 1680 011e 2324F4FC 		sw	a5,-56(s0)
 363:../Firmware/GD32VW55x_standard_peripheral/Source/gd32vw55x_hau_sha_md5.c ****     }while((SHAMD5_BSY_TIMEOUT != counter) && (RESET != busystatus));
 1681              		.loc 1 363 32 discriminator 2
 1682 0122 032784FC 		lw	a4,-56(s0)
 1683              		.loc 1 363 5 discriminator 2
 1684 0126 C167     		li	a5,65536
 1685 0128 6305F700 		beq	a4,a5,.L62
 1686              		.loc 1 363 44 discriminator 1
 1687 012c 832704FE 		lw	a5,-32(s0)
 1688 0130 E9FF     		bne	a5,zero,.L63
 1689              	.L62:
 364:../Firmware/GD32VW55x_standard_peripheral/Source/gd32vw55x_hau_sha_md5.c **** 
 365:../Firmware/GD32VW55x_standard_peripheral/Source/gd32vw55x_hau_sha_md5.c ****     if(RESET != busystatus){
 1690              		.loc 1 365 7
 1691 0132 832704FE 		lw	a5,-32(s0)
 1692 0136 99C3     		beq	a5,zero,.L64
 366:../Firmware/GD32VW55x_standard_peripheral/Source/gd32vw55x_hau_sha_md5.c ****         return ERROR;
 1693              		.loc 1 366 16
 1694 0138 8147     		li	a5,0
 1695 013a 25A2     		j	.L76
 1696              	.L64:
 367:../Firmware/GD32VW55x_standard_peripheral/Source/gd32vw55x_hau_sha_md5.c ****     }else{
 368:../Firmware/GD32VW55x_standard_peripheral/Source/gd32vw55x_hau_sha_md5.c ****         /* configure the number of valid bits in last word of the message */
 369:../Firmware/GD32VW55x_standard_peripheral/Source/gd32vw55x_hau_sha_md5.c ****         hau_last_word_validbits_num_config((uint32_t)num_last_valid);
 1697              		.loc 1 369 9
 1698 013c 8357E4FC 		lhu	a5,-50(s0)
 1699 0140 C207     		slli	a5,a5,16
 1700 0142 C183     		srli	a5,a5,16
 1701 0144 3E85     		mv	a0,a5
 1702 0146 97000000 		call	hau_last_word_validbits_num_config
 1702      E7800000 
 370:../Firmware/GD32VW55x_standard_peripheral/Source/gd32vw55x_hau_sha_md5.c **** 
 371:../Firmware/GD32VW55x_standard_peripheral/Source/gd32vw55x_hau_sha_md5.c ****         /* write data to the IN FIFO */
 372:../Firmware/GD32VW55x_standard_peripheral/Source/gd32vw55x_hau_sha_md5.c ****         for(i = 0U; i < in_length; i += 4U){
 1703              		.loc 1 372 15
 1704 014e 232604FE 		sw	zero,-20(s0)
 1705              		.loc 1 372 9
 1706 0152 1DA0     		j	.L66
 1707              	.L67:
 373:../Firmware/GD32VW55x_standard_peripheral/Source/gd32vw55x_hau_sha_md5.c ****             hau_data_write(*(uint32_t*)inputaddr);
 1708              		.loc 1 373 29 discriminator 3
 1709 0154 832744FE 		lw	a5,-28(s0)
 1710              		.loc 1 373 13 discriminator 3
 1711 0158 9C43     		lw	a5,0(a5)
 1712 015a 3E85     		mv	a0,a5
 1713 015c 97000000 		call	hau_data_write
 1713      E7800000 
 374:../Firmware/GD32VW55x_standard_peripheral/Source/gd32vw55x_hau_sha_md5.c ****             inputaddr += 4U;
 1714              		.loc 1 374 23 discriminator 3
 1715 0164 832744FE 		lw	a5,-28(s0)
 1716 0168 9107     		addi	a5,a5,4
 1717 016a 2322F4FE 		sw	a5,-28(s0)
 372:../Firmware/GD32VW55x_standard_peripheral/Source/gd32vw55x_hau_sha_md5.c ****             hau_data_write(*(uint32_t*)inputaddr);
 1718              		.loc 1 372 38 discriminator 3
 1719 016e 8327C4FE 		lw	a5,-20(s0)
 1720 0172 9107     		addi	a5,a5,4
 1721 0174 2326F4FE 		sw	a5,-20(s0)
 1722              	.L66:
 372:../Firmware/GD32VW55x_standard_peripheral/Source/gd32vw55x_hau_sha_md5.c ****             hau_data_write(*(uint32_t*)inputaddr);
 1723              		.loc 1 372 9 discriminator 1
 1724 0178 0327C4FE 		lw	a4,-20(s0)
 1725 017c 8327C4FA 		lw	a5,-84(s0)
 1726 0180 E36AF7FC 		bltu	a4,a5,.L67
 375:../Firmware/GD32VW55x_standard_peripheral/Source/gd32vw55x_hau_sha_md5.c ****         }
 376:../Firmware/GD32VW55x_standard_peripheral/Source/gd32vw55x_hau_sha_md5.c **** 
 377:../Firmware/GD32VW55x_standard_peripheral/Source/gd32vw55x_hau_sha_md5.c ****         /* enable digest calculation */
 378:../Firmware/GD32VW55x_standard_peripheral/Source/gd32vw55x_hau_sha_md5.c ****         hau_digest_calculation_enable();
 1727              		.loc 1 378 9
 1728 0184 97000000 		call	hau_digest_calculation_enable
 1728      E7800000 
 379:../Firmware/GD32VW55x_standard_peripheral/Source/gd32vw55x_hau_sha_md5.c **** 
 380:../Firmware/GD32VW55x_standard_peripheral/Source/gd32vw55x_hau_sha_md5.c ****         /* wait until the busy flag is reset */
 381:../Firmware/GD32VW55x_standard_peripheral/Source/gd32vw55x_hau_sha_md5.c ****         counter = 0U;
 1729              		.loc 1 381 17
 1730 018c 232404FC 		sw	zero,-56(s0)
 1731              	.L69:
 382:../Firmware/GD32VW55x_standard_peripheral/Source/gd32vw55x_hau_sha_md5.c ****         do{
 383:../Firmware/GD32VW55x_standard_peripheral/Source/gd32vw55x_hau_sha_md5.c ****             busystatus = hau_flag_get(HAU_FLAG_BUSY);
 1732              		.loc 1 383 26 discriminator 2
 1733 0190 2145     		li	a0,8
 1734 0192 97000000 		call	hau_flag_get
 1734      E7800000 
 1735 019a 2320A4FE 		sw	a0,-32(s0)
 384:../Firmware/GD32VW55x_standard_peripheral/Source/gd32vw55x_hau_sha_md5.c ****             counter++;
 1736              		.loc 1 384 20 discriminator 2
 1737 019e 832784FC 		lw	a5,-56(s0)
 1738 01a2 8507     		addi	a5,a5,1
 1739 01a4 2324F4FC 		sw	a5,-56(s0)
 385:../Firmware/GD32VW55x_standard_peripheral/Source/gd32vw55x_hau_sha_md5.c ****         }while((SHAMD5_BSY_TIMEOUT != counter) && (RESET != busystatus));
 1740              		.loc 1 385 36 discriminator 2
 1741 01a8 032784FC 		lw	a4,-56(s0)
 1742              		.loc 1 385 9 discriminator 2
 1743 01ac C167     		li	a5,65536
 1744 01ae 6305F700 		beq	a4,a5,.L68
 1745              		.loc 1 385 48 discriminator 1
 1746 01b2 832704FE 		lw	a5,-32(s0)
 1747 01b6 E9FF     		bne	a5,zero,.L69
 1748              	.L68:
 386:../Firmware/GD32VW55x_standard_peripheral/Source/gd32vw55x_hau_sha_md5.c **** 
 387:../Firmware/GD32VW55x_standard_peripheral/Source/gd32vw55x_hau_sha_md5.c ****         if(RESET != busystatus){
 1749              		.loc 1 387 11
 1750 01b8 832704FE 		lw	a5,-32(s0)
 1751 01bc 99C3     		beq	a5,zero,.L70
 388:../Firmware/GD32VW55x_standard_peripheral/Source/gd32vw55x_hau_sha_md5.c ****             return ERROR;
 1752              		.loc 1 388 20
 1753 01be 8147     		li	a5,0
 1754 01c0 4DA0     		j	.L76
 1755              	.L70:
 389:../Firmware/GD32VW55x_standard_peripheral/Source/gd32vw55x_hau_sha_md5.c ****         }else{
 390:../Firmware/GD32VW55x_standard_peripheral/Source/gd32vw55x_hau_sha_md5.c ****             /* configure the number of valid bits in last word of the key */
 391:../Firmware/GD32VW55x_standard_peripheral/Source/gd32vw55x_hau_sha_md5.c ****             hau_last_word_validbits_num_config((uint32_t)num_key_valid);
 1756              		.loc 1 391 13
 1757 01c2 8357C4FC 		lhu	a5,-52(s0)
 1758 01c6 C207     		slli	a5,a5,16
 1759 01c8 C183     		srli	a5,a5,16
 1760 01ca 3E85     		mv	a0,a5
 1761 01cc 97000000 		call	hau_last_word_validbits_num_config
 1761      E7800000 
 392:../Firmware/GD32VW55x_standard_peripheral/Source/gd32vw55x_hau_sha_md5.c **** 
 393:../Firmware/GD32VW55x_standard_peripheral/Source/gd32vw55x_hau_sha_md5.c ****             /* write the key */
 394:../Firmware/GD32VW55x_standard_peripheral/Source/gd32vw55x_hau_sha_md5.c ****             keyaddr = (uint32_t)key;
 1762              		.loc 1 394 21
 1763 01d4 832784FB 		lw	a5,-72(s0)
 1764 01d8 2324F4FE 		sw	a5,-24(s0)
 395:../Firmware/GD32VW55x_standard_peripheral/Source/gd32vw55x_hau_sha_md5.c ****             for(i = 0U; i < keysize; i += 4U){
 1765              		.loc 1 395 19
 1766 01dc 232604FE 		sw	zero,-20(s0)
 1767              		.loc 1 395 13
 1768 01e0 1DA0     		j	.L71
 1769              	.L72:
 396:../Firmware/GD32VW55x_standard_peripheral/Source/gd32vw55x_hau_sha_md5.c ****                 hau_data_write(*(uint32_t*)keyaddr);
 1770              		.loc 1 396 33 discriminator 3
 1771 01e2 832784FE 		lw	a5,-24(s0)
 1772              		.loc 1 396 17 discriminator 3
 1773 01e6 9C43     		lw	a5,0(a5)
 1774 01e8 3E85     		mv	a0,a5
 1775 01ea 97000000 		call	hau_data_write
 1775      E7800000 
 397:../Firmware/GD32VW55x_standard_peripheral/Source/gd32vw55x_hau_sha_md5.c ****                 keyaddr += 4U;
 1776              		.loc 1 397 25 discriminator 3
 1777 01f2 832784FE 		lw	a5,-24(s0)
 1778 01f6 9107     		addi	a5,a5,4
 1779 01f8 2324F4FE 		sw	a5,-24(s0)
 395:../Firmware/GD32VW55x_standard_peripheral/Source/gd32vw55x_hau_sha_md5.c ****             for(i = 0U; i < keysize; i += 4U){
 1780              		.loc 1 395 40 discriminator 3
 1781 01fc 8327C4FE 		lw	a5,-20(s0)
 1782 0200 9107     		addi	a5,a5,4
 1783 0202 2326F4FE 		sw	a5,-20(s0)
 1784              	.L71:
 395:../Firmware/GD32VW55x_standard_peripheral/Source/gd32vw55x_hau_sha_md5.c ****             for(i = 0U; i < keysize; i += 4U){
 1785              		.loc 1 395 13 discriminator 1
 1786 0206 0327C4FE 		lw	a4,-20(s0)
 1787 020a 832744FB 		lw	a5,-76(s0)
 1788 020e E36AF7FC 		bltu	a4,a5,.L72
 398:../Firmware/GD32VW55x_standard_peripheral/Source/gd32vw55x_hau_sha_md5.c ****             }
 399:../Firmware/GD32VW55x_standard_peripheral/Source/gd32vw55x_hau_sha_md5.c **** 
 400:../Firmware/GD32VW55x_standard_peripheral/Source/gd32vw55x_hau_sha_md5.c ****             /* enable digest calculation */
 401:../Firmware/GD32VW55x_standard_peripheral/Source/gd32vw55x_hau_sha_md5.c ****             hau_digest_calculation_enable();
 1789              		.loc 1 401 13
 1790 0212 97000000 		call	hau_digest_calculation_enable
 1790      E7800000 
 402:../Firmware/GD32VW55x_standard_peripheral/Source/gd32vw55x_hau_sha_md5.c **** 
 403:../Firmware/GD32VW55x_standard_peripheral/Source/gd32vw55x_hau_sha_md5.c ****             /* wait until the busy flag is reset */
 404:../Firmware/GD32VW55x_standard_peripheral/Source/gd32vw55x_hau_sha_md5.c ****             counter = 0U;
 1791              		.loc 1 404 21
 1792 021a 232404FC 		sw	zero,-56(s0)
 1793              	.L74:
 405:../Firmware/GD32VW55x_standard_peripheral/Source/gd32vw55x_hau_sha_md5.c ****             do{
 406:../Firmware/GD32VW55x_standard_peripheral/Source/gd32vw55x_hau_sha_md5.c ****                 busystatus = hau_flag_get(HAU_FLAG_BUSY);
 1794              		.loc 1 406 30 discriminator 2
 1795 021e 2145     		li	a0,8
 1796 0220 97000000 		call	hau_flag_get
 1796      E7800000 
 1797 0228 2320A4FE 		sw	a0,-32(s0)
 407:../Firmware/GD32VW55x_standard_peripheral/Source/gd32vw55x_hau_sha_md5.c ****                 counter++;
 1798              		.loc 1 407 24 discriminator 2
 1799 022c 832784FC 		lw	a5,-56(s0)
 1800 0230 8507     		addi	a5,a5,1
 1801 0232 2324F4FC 		sw	a5,-56(s0)
 408:../Firmware/GD32VW55x_standard_peripheral/Source/gd32vw55x_hau_sha_md5.c ****             }while((SHAMD5_BSY_TIMEOUT != counter) && (RESET != busystatus));
 1802              		.loc 1 408 40 discriminator 2
 1803 0236 032784FC 		lw	a4,-56(s0)
 1804              		.loc 1 408 13 discriminator 2
 1805 023a C167     		li	a5,65536
 1806 023c 6305F700 		beq	a4,a5,.L73
 1807              		.loc 1 408 52 discriminator 1
 1808 0240 832704FE 		lw	a5,-32(s0)
 1809 0244 E9FF     		bne	a5,zero,.L74
 1810              	.L73:
 409:../Firmware/GD32VW55x_standard_peripheral/Source/gd32vw55x_hau_sha_md5.c **** 
 410:../Firmware/GD32VW55x_standard_peripheral/Source/gd32vw55x_hau_sha_md5.c ****             if(RESET != busystatus){
 1811              		.loc 1 410 15
 1812 0246 832704FE 		lw	a5,-32(s0)
 1813 024a 99C3     		beq	a5,zero,.L75
 411:../Firmware/GD32VW55x_standard_peripheral/Source/gd32vw55x_hau_sha_md5.c ****                 return ERROR;
 1814              		.loc 1 411 24
 1815 024c 8147     		li	a5,0
 1816 024e 11A8     		j	.L76
 1817              	.L75:
 412:../Firmware/GD32VW55x_standard_peripheral/Source/gd32vw55x_hau_sha_md5.c ****             }else{
 413:../Firmware/GD32VW55x_standard_peripheral/Source/gd32vw55x_hau_sha_md5.c ****                 /* read the message digest */
 414:../Firmware/GD32VW55x_standard_peripheral/Source/gd32vw55x_hau_sha_md5.c ****                 hau_sha_md5_digest_read(algo, output);
 1818              		.loc 1 414 17
 1819 0250 832584FA 		lw	a1,-88(s0)
 1820 0254 0325C4FB 		lw	a0,-68(s0)
 1821 0258 97000000 		call	hau_sha_md5_digest_read
 1821      E7800000 
 415:../Firmware/GD32VW55x_standard_peripheral/Source/gd32vw55x_hau_sha_md5.c ****             }
 416:../Firmware/GD32VW55x_standard_peripheral/Source/gd32vw55x_hau_sha_md5.c ****         }
 417:../Firmware/GD32VW55x_standard_peripheral/Source/gd32vw55x_hau_sha_md5.c ****     }
 418:../Firmware/GD32VW55x_standard_peripheral/Source/gd32vw55x_hau_sha_md5.c ****     return SUCCESS;
 1822              		.loc 1 418 12
 1823 0260 8547     		li	a5,1
 1824              	.L76:
 419:../Firmware/GD32VW55x_standard_peripheral/Source/gd32vw55x_hau_sha_md5.c **** }
 1825              		.loc 1 419 1 discriminator 1
 1826 0262 3E85     		mv	a0,a5
 1827 0264 F640     		lw	ra,92(sp)
 1828              		.cfi_restore 1
 1829 0266 6644     		lw	s0,88(sp)
 1830              		.cfi_restore 8
 1831              		.cfi_def_cfa 2, 96
 1832 0268 2561     		addi	sp,sp,96
 1833              		.cfi_def_cfa_offset 0
 1834 026a 8280     		jr	ra
 1835              		.cfi_endproc
 1836              	.LFE357:
 1838              		.text
 1839              	.Letext0:
 1840              		.file 3 "e:\\gd32\\gd32embeddedbuilder_v1.5.2.30854\\tools\\nuclei_riscv_newlibc_prebuilt_win32_20
 1841              		.file 4 "e:\\gd32\\gd32embeddedbuilder_v1.5.2.30854\\tools\\nuclei_riscv_newlibc_prebuilt_win32_20
 1842              		.file 5 "../Firmware/GD32VW55x_standard_peripheral/gd32vw55x.h"
 1843              		.file 6 "../Firmware/GD32VW55x_standard_peripheral/Include/gd32vw55x_hau.h"
DEFINED SYMBOLS
                            *ABS*:0000000000000000 gd32vw55x_hau_sha_md5.c
C:\Users\CYMR90~1\AppData\Local\Temp\cc5BNH7j.s:13     .text.hau_hash_sha_1:0000000000000000 hau_hash_sha_1
C:\Users\CYMR90~1\AppData\Local\Temp\cc5BNH7j.s:17     .text.hau_hash_sha_1:0000000000000000 .L0 
C:\Users\CYMR90~1\AppData\Local\Temp\cc5BNH7j.s:18     .text.hau_hash_sha_1:0000000000000000 .L0 
C:\Users\CYMR90~1\AppData\Local\Temp\cc5BNH7j.s:19     .text.hau_hash_sha_1:0000000000000002 .L0 
C:\Users\CYMR90~1\AppData\Local\Temp\cc5BNH7j.s:22     .text.hau_hash_sha_1:0000000000000006 .L0 
C:\Users\CYMR90~1\AppData\Local\Temp\cc5BNH7j.s:23     .text.hau_hash_sha_1:0000000000000006 .L0 
C:\Users\CYMR90~1\AppData\Local\Temp\cc5BNH7j.s:25     .text.hau_hash_sha_1:0000000000000008 .L0 
C:\Users\CYMR90~1\AppData\Local\Temp\cc5BNH7j.s:30     .text.hau_hash_sha_1:0000000000000014 .L0 
C:\Users\CYMR90~1\AppData\Local\Temp\cc5BNH7j.s:32     .text.hau_hash_sha_1:0000000000000018 .L0 
C:\Users\CYMR90~1\AppData\Local\Temp\cc5BNH7j.s:1431   .text.hau_hash_calculate:0000000000000000 hau_hash_calculate
C:\Users\CYMR90~1\AppData\Local\Temp\cc5BNH7j.s:39     .text.hau_hash_sha_1:0000000000000032 .L0 
C:\Users\CYMR90~1\AppData\Local\Temp\cc5BNH7j.s:41     .text.hau_hash_sha_1:0000000000000036 .L0 
C:\Users\CYMR90~1\AppData\Local\Temp\cc5BNH7j.s:43     .text.hau_hash_sha_1:000000000000003a .L0 
C:\Users\CYMR90~1\AppData\Local\Temp\cc5BNH7j.s:45     .text.hau_hash_sha_1:000000000000003c .L0 
C:\Users\CYMR90~1\AppData\Local\Temp\cc5BNH7j.s:46     .text.hau_hash_sha_1:000000000000003c .L0 
C:\Users\CYMR90~1\AppData\Local\Temp\cc5BNH7j.s:48     .text.hau_hash_sha_1:000000000000003e .L0 
C:\Users\CYMR90~1\AppData\Local\Temp\cc5BNH7j.s:50     .text.hau_hash_sha_1:0000000000000040 .L0 
C:\Users\CYMR90~1\AppData\Local\Temp\cc5BNH7j.s:57     .text.hau_hmac_sha_1:0000000000000000 hau_hmac_sha_1
C:\Users\CYMR90~1\AppData\Local\Temp\cc5BNH7j.s:60     .text.hau_hmac_sha_1:0000000000000000 .L0 
C:\Users\CYMR90~1\AppData\Local\Temp\cc5BNH7j.s:61     .text.hau_hmac_sha_1:0000000000000000 .L0 
C:\Users\CYMR90~1\AppData\Local\Temp\cc5BNH7j.s:62     .text.hau_hmac_sha_1:0000000000000002 .L0 
C:\Users\CYMR90~1\AppData\Local\Temp\cc5BNH7j.s:65     .text.hau_hmac_sha_1:0000000000000006 .L0 
C:\Users\CYMR90~1\AppData\Local\Temp\cc5BNH7j.s:66     .text.hau_hmac_sha_1:0000000000000006 .L0 
C:\Users\CYMR90~1\AppData\Local\Temp\cc5BNH7j.s:68     .text.hau_hmac_sha_1:0000000000000008 .L0 
C:\Users\CYMR90~1\AppData\Local\Temp\cc5BNH7j.s:75     .text.hau_hmac_sha_1:000000000000001c .L0 
C:\Users\CYMR90~1\AppData\Local\Temp\cc5BNH7j.s:77     .text.hau_hmac_sha_1:0000000000000020 .L0 
C:\Users\CYMR90~1\AppData\Local\Temp\cc5BNH7j.s:1557   .text.hau_hmac_calculate:0000000000000000 hau_hmac_calculate
C:\Users\CYMR90~1\AppData\Local\Temp\cc5BNH7j.s:86     .text.hau_hmac_sha_1:0000000000000042 .L0 
C:\Users\CYMR90~1\AppData\Local\Temp\cc5BNH7j.s:88     .text.hau_hmac_sha_1:0000000000000046 .L0 
C:\Users\CYMR90~1\AppData\Local\Temp\cc5BNH7j.s:90     .text.hau_hmac_sha_1:000000000000004a .L0 
C:\Users\CYMR90~1\AppData\Local\Temp\cc5BNH7j.s:92     .text.hau_hmac_sha_1:000000000000004c .L0 
C:\Users\CYMR90~1\AppData\Local\Temp\cc5BNH7j.s:93     .text.hau_hmac_sha_1:000000000000004c .L0 
C:\Users\CYMR90~1\AppData\Local\Temp\cc5BNH7j.s:95     .text.hau_hmac_sha_1:000000000000004e .L0 
C:\Users\CYMR90~1\AppData\Local\Temp\cc5BNH7j.s:97     .text.hau_hmac_sha_1:0000000000000050 .L0 
C:\Users\CYMR90~1\AppData\Local\Temp\cc5BNH7j.s:104    .text.hau_hash_sha_224:0000000000000000 hau_hash_sha_224
C:\Users\CYMR90~1\AppData\Local\Temp\cc5BNH7j.s:107    .text.hau_hash_sha_224:0000000000000000 .L0 
C:\Users\CYMR90~1\AppData\Local\Temp\cc5BNH7j.s:108    .text.hau_hash_sha_224:0000000000000000 .L0 
C:\Users\CYMR90~1\AppData\Local\Temp\cc5BNH7j.s:109    .text.hau_hash_sha_224:0000000000000002 .L0 
C:\Users\CYMR90~1\AppData\Local\Temp\cc5BNH7j.s:112    .text.hau_hash_sha_224:0000000000000006 .L0 
C:\Users\CYMR90~1\AppData\Local\Temp\cc5BNH7j.s:113    .text.hau_hash_sha_224:0000000000000006 .L0 
C:\Users\CYMR90~1\AppData\Local\Temp\cc5BNH7j.s:115    .text.hau_hash_sha_224:0000000000000008 .L0 
C:\Users\CYMR90~1\AppData\Local\Temp\cc5BNH7j.s:120    .text.hau_hash_sha_224:0000000000000014 .L0 
C:\Users\CYMR90~1\AppData\Local\Temp\cc5BNH7j.s:122    .text.hau_hash_sha_224:0000000000000018 .L0 
C:\Users\CYMR90~1\AppData\Local\Temp\cc5BNH7j.s:129    .text.hau_hash_sha_224:0000000000000034 .L0 
C:\Users\CYMR90~1\AppData\Local\Temp\cc5BNH7j.s:131    .text.hau_hash_sha_224:0000000000000038 .L0 
C:\Users\CYMR90~1\AppData\Local\Temp\cc5BNH7j.s:133    .text.hau_hash_sha_224:000000000000003c .L0 
C:\Users\CYMR90~1\AppData\Local\Temp\cc5BNH7j.s:135    .text.hau_hash_sha_224:000000000000003e .L0 
C:\Users\CYMR90~1\AppData\Local\Temp\cc5BNH7j.s:136    .text.hau_hash_sha_224:000000000000003e .L0 
C:\Users\CYMR90~1\AppData\Local\Temp\cc5BNH7j.s:138    .text.hau_hash_sha_224:0000000000000040 .L0 
C:\Users\CYMR90~1\AppData\Local\Temp\cc5BNH7j.s:140    .text.hau_hash_sha_224:0000000000000042 .L0 
C:\Users\CYMR90~1\AppData\Local\Temp\cc5BNH7j.s:147    .text.hau_hmac_sha_224:0000000000000000 hau_hmac_sha_224
C:\Users\CYMR90~1\AppData\Local\Temp\cc5BNH7j.s:150    .text.hau_hmac_sha_224:0000000000000000 .L0 
C:\Users\CYMR90~1\AppData\Local\Temp\cc5BNH7j.s:151    .text.hau_hmac_sha_224:0000000000000000 .L0 
C:\Users\CYMR90~1\AppData\Local\Temp\cc5BNH7j.s:152    .text.hau_hmac_sha_224:0000000000000002 .L0 
C:\Users\CYMR90~1\AppData\Local\Temp\cc5BNH7j.s:155    .text.hau_hmac_sha_224:0000000000000006 .L0 
C:\Users\CYMR90~1\AppData\Local\Temp\cc5BNH7j.s:156    .text.hau_hmac_sha_224:0000000000000006 .L0 
C:\Users\CYMR90~1\AppData\Local\Temp\cc5BNH7j.s:158    .text.hau_hmac_sha_224:0000000000000008 .L0 
C:\Users\CYMR90~1\AppData\Local\Temp\cc5BNH7j.s:165    .text.hau_hmac_sha_224:000000000000001c .L0 
C:\Users\CYMR90~1\AppData\Local\Temp\cc5BNH7j.s:167    .text.hau_hmac_sha_224:0000000000000020 .L0 
C:\Users\CYMR90~1\AppData\Local\Temp\cc5BNH7j.s:176    .text.hau_hmac_sha_224:0000000000000044 .L0 
C:\Users\CYMR90~1\AppData\Local\Temp\cc5BNH7j.s:178    .text.hau_hmac_sha_224:0000000000000048 .L0 
C:\Users\CYMR90~1\AppData\Local\Temp\cc5BNH7j.s:180    .text.hau_hmac_sha_224:000000000000004c .L0 
C:\Users\CYMR90~1\AppData\Local\Temp\cc5BNH7j.s:182    .text.hau_hmac_sha_224:000000000000004e .L0 
C:\Users\CYMR90~1\AppData\Local\Temp\cc5BNH7j.s:183    .text.hau_hmac_sha_224:000000000000004e .L0 
C:\Users\CYMR90~1\AppData\Local\Temp\cc5BNH7j.s:185    .text.hau_hmac_sha_224:0000000000000050 .L0 
C:\Users\CYMR90~1\AppData\Local\Temp\cc5BNH7j.s:187    .text.hau_hmac_sha_224:0000000000000052 .L0 
C:\Users\CYMR90~1\AppData\Local\Temp\cc5BNH7j.s:194    .text.hau_hash_sha_256:0000000000000000 hau_hash_sha_256
C:\Users\CYMR90~1\AppData\Local\Temp\cc5BNH7j.s:197    .text.hau_hash_sha_256:0000000000000000 .L0 
C:\Users\CYMR90~1\AppData\Local\Temp\cc5BNH7j.s:198    .text.hau_hash_sha_256:0000000000000000 .L0 
C:\Users\CYMR90~1\AppData\Local\Temp\cc5BNH7j.s:199    .text.hau_hash_sha_256:0000000000000002 .L0 
C:\Users\CYMR90~1\AppData\Local\Temp\cc5BNH7j.s:202    .text.hau_hash_sha_256:0000000000000006 .L0 
C:\Users\CYMR90~1\AppData\Local\Temp\cc5BNH7j.s:203    .text.hau_hash_sha_256:0000000000000006 .L0 
C:\Users\CYMR90~1\AppData\Local\Temp\cc5BNH7j.s:205    .text.hau_hash_sha_256:0000000000000008 .L0 
C:\Users\CYMR90~1\AppData\Local\Temp\cc5BNH7j.s:210    .text.hau_hash_sha_256:0000000000000014 .L0 
C:\Users\CYMR90~1\AppData\Local\Temp\cc5BNH7j.s:212    .text.hau_hash_sha_256:0000000000000018 .L0 
C:\Users\CYMR90~1\AppData\Local\Temp\cc5BNH7j.s:220    .text.hau_hash_sha_256:0000000000000038 .L0 
C:\Users\CYMR90~1\AppData\Local\Temp\cc5BNH7j.s:222    .text.hau_hash_sha_256:000000000000003c .L0 
C:\Users\CYMR90~1\AppData\Local\Temp\cc5BNH7j.s:224    .text.hau_hash_sha_256:0000000000000040 .L0 
C:\Users\CYMR90~1\AppData\Local\Temp\cc5BNH7j.s:226    .text.hau_hash_sha_256:0000000000000042 .L0 
C:\Users\CYMR90~1\AppData\Local\Temp\cc5BNH7j.s:227    .text.hau_hash_sha_256:0000000000000042 .L0 
C:\Users\CYMR90~1\AppData\Local\Temp\cc5BNH7j.s:229    .text.hau_hash_sha_256:0000000000000044 .L0 
C:\Users\CYMR90~1\AppData\Local\Temp\cc5BNH7j.s:231    .text.hau_hash_sha_256:0000000000000046 .L0 
C:\Users\CYMR90~1\AppData\Local\Temp\cc5BNH7j.s:238    .text.hau_hmac_sha_256:0000000000000000 hau_hmac_sha_256
C:\Users\CYMR90~1\AppData\Local\Temp\cc5BNH7j.s:241    .text.hau_hmac_sha_256:0000000000000000 .L0 
C:\Users\CYMR90~1\AppData\Local\Temp\cc5BNH7j.s:242    .text.hau_hmac_sha_256:0000000000000000 .L0 
C:\Users\CYMR90~1\AppData\Local\Temp\cc5BNH7j.s:243    .text.hau_hmac_sha_256:0000000000000002 .L0 
C:\Users\CYMR90~1\AppData\Local\Temp\cc5BNH7j.s:246    .text.hau_hmac_sha_256:0000000000000006 .L0 
C:\Users\CYMR90~1\AppData\Local\Temp\cc5BNH7j.s:247    .text.hau_hmac_sha_256:0000000000000006 .L0 
C:\Users\CYMR90~1\AppData\Local\Temp\cc5BNH7j.s:249    .text.hau_hmac_sha_256:0000000000000008 .L0 
C:\Users\CYMR90~1\AppData\Local\Temp\cc5BNH7j.s:256    .text.hau_hmac_sha_256:000000000000001c .L0 
C:\Users\CYMR90~1\AppData\Local\Temp\cc5BNH7j.s:258    .text.hau_hmac_sha_256:0000000000000020 .L0 
C:\Users\CYMR90~1\AppData\Local\Temp\cc5BNH7j.s:268    .text.hau_hmac_sha_256:0000000000000048 .L0 
C:\Users\CYMR90~1\AppData\Local\Temp\cc5BNH7j.s:270    .text.hau_hmac_sha_256:000000000000004c .L0 
C:\Users\CYMR90~1\AppData\Local\Temp\cc5BNH7j.s:272    .text.hau_hmac_sha_256:0000000000000050 .L0 
C:\Users\CYMR90~1\AppData\Local\Temp\cc5BNH7j.s:274    .text.hau_hmac_sha_256:0000000000000052 .L0 
C:\Users\CYMR90~1\AppData\Local\Temp\cc5BNH7j.s:275    .text.hau_hmac_sha_256:0000000000000052 .L0 
C:\Users\CYMR90~1\AppData\Local\Temp\cc5BNH7j.s:277    .text.hau_hmac_sha_256:0000000000000054 .L0 
C:\Users\CYMR90~1\AppData\Local\Temp\cc5BNH7j.s:279    .text.hau_hmac_sha_256:0000000000000056 .L0 
C:\Users\CYMR90~1\AppData\Local\Temp\cc5BNH7j.s:286    .text.hau_hash_md5:0000000000000000 hau_hash_md5
C:\Users\CYMR90~1\AppData\Local\Temp\cc5BNH7j.s:289    .text.hau_hash_md5:0000000000000000 .L0 
C:\Users\CYMR90~1\AppData\Local\Temp\cc5BNH7j.s:290    .text.hau_hash_md5:0000000000000000 .L0 
C:\Users\CYMR90~1\AppData\Local\Temp\cc5BNH7j.s:291    .text.hau_hash_md5:0000000000000002 .L0 
C:\Users\CYMR90~1\AppData\Local\Temp\cc5BNH7j.s:294    .text.hau_hash_md5:0000000000000006 .L0 
C:\Users\CYMR90~1\AppData\Local\Temp\cc5BNH7j.s:295    .text.hau_hash_md5:0000000000000006 .L0 
C:\Users\CYMR90~1\AppData\Local\Temp\cc5BNH7j.s:297    .text.hau_hash_md5:0000000000000008 .L0 
C:\Users\CYMR90~1\AppData\Local\Temp\cc5BNH7j.s:302    .text.hau_hash_md5:0000000000000014 .L0 
C:\Users\CYMR90~1\AppData\Local\Temp\cc5BNH7j.s:304    .text.hau_hash_md5:0000000000000018 .L0 
C:\Users\CYMR90~1\AppData\Local\Temp\cc5BNH7j.s:311    .text.hau_hash_md5:0000000000000034 .L0 
C:\Users\CYMR90~1\AppData\Local\Temp\cc5BNH7j.s:313    .text.hau_hash_md5:0000000000000038 .L0 
C:\Users\CYMR90~1\AppData\Local\Temp\cc5BNH7j.s:315    .text.hau_hash_md5:000000000000003c .L0 
C:\Users\CYMR90~1\AppData\Local\Temp\cc5BNH7j.s:317    .text.hau_hash_md5:000000000000003e .L0 
C:\Users\CYMR90~1\AppData\Local\Temp\cc5BNH7j.s:318    .text.hau_hash_md5:000000000000003e .L0 
C:\Users\CYMR90~1\AppData\Local\Temp\cc5BNH7j.s:320    .text.hau_hash_md5:0000000000000040 .L0 
C:\Users\CYMR90~1\AppData\Local\Temp\cc5BNH7j.s:322    .text.hau_hash_md5:0000000000000042 .L0 
C:\Users\CYMR90~1\AppData\Local\Temp\cc5BNH7j.s:329    .text.hau_hmac_md5:0000000000000000 hau_hmac_md5
C:\Users\CYMR90~1\AppData\Local\Temp\cc5BNH7j.s:332    .text.hau_hmac_md5:0000000000000000 .L0 
C:\Users\CYMR90~1\AppData\Local\Temp\cc5BNH7j.s:333    .text.hau_hmac_md5:0000000000000000 .L0 
C:\Users\CYMR90~1\AppData\Local\Temp\cc5BNH7j.s:334    .text.hau_hmac_md5:0000000000000002 .L0 
C:\Users\CYMR90~1\AppData\Local\Temp\cc5BNH7j.s:337    .text.hau_hmac_md5:0000000000000006 .L0 
C:\Users\CYMR90~1\AppData\Local\Temp\cc5BNH7j.s:338    .text.hau_hmac_md5:0000000000000006 .L0 
C:\Users\CYMR90~1\AppData\Local\Temp\cc5BNH7j.s:340    .text.hau_hmac_md5:0000000000000008 .L0 
C:\Users\CYMR90~1\AppData\Local\Temp\cc5BNH7j.s:347    .text.hau_hmac_md5:000000000000001c .L0 
C:\Users\CYMR90~1\AppData\Local\Temp\cc5BNH7j.s:349    .text.hau_hmac_md5:0000000000000020 .L0 
C:\Users\CYMR90~1\AppData\Local\Temp\cc5BNH7j.s:358    .text.hau_hmac_md5:0000000000000044 .L0 
C:\Users\CYMR90~1\AppData\Local\Temp\cc5BNH7j.s:360    .text.hau_hmac_md5:0000000000000048 .L0 
C:\Users\CYMR90~1\AppData\Local\Temp\cc5BNH7j.s:362    .text.hau_hmac_md5:000000000000004c .L0 
C:\Users\CYMR90~1\AppData\Local\Temp\cc5BNH7j.s:364    .text.hau_hmac_md5:000000000000004e .L0 
C:\Users\CYMR90~1\AppData\Local\Temp\cc5BNH7j.s:365    .text.hau_hmac_md5:000000000000004e .L0 
C:\Users\CYMR90~1\AppData\Local\Temp\cc5BNH7j.s:367    .text.hau_hmac_md5:0000000000000050 .L0 
C:\Users\CYMR90~1\AppData\Local\Temp\cc5BNH7j.s:369    .text.hau_hmac_md5:0000000000000052 .L0 
C:\Users\CYMR90~1\AppData\Local\Temp\cc5BNH7j.s:375    .text.hau_sha_md5_digest_read:0000000000000000 hau_sha_md5_digest_read
C:\Users\CYMR90~1\AppData\Local\Temp\cc5BNH7j.s:378    .text.hau_sha_md5_digest_read:0000000000000000 .L0 
C:\Users\CYMR90~1\AppData\Local\Temp\cc5BNH7j.s:379    .text.hau_sha_md5_digest_read:0000000000000000 .L0 
C:\Users\CYMR90~1\AppData\Local\Temp\cc5BNH7j.s:380    .text.hau_sha_md5_digest_read:0000000000000002 .L0 
C:\Users\CYMR90~1\AppData\Local\Temp\cc5BNH7j.s:383    .text.hau_sha_md5_digest_read:000000000000000a .L0 
C:\Users\CYMR90~1\AppData\Local\Temp\cc5BNH7j.s:384    .text.hau_sha_md5_digest_read:000000000000000a .L0 
C:\Users\CYMR90~1\AppData\Local\Temp\cc5BNH7j.s:386    .text.hau_sha_md5_digest_read:000000000000000c .L0 
C:\Users\CYMR90~1\AppData\Local\Temp\cc5BNH7j.s:390    .text.hau_sha_md5_digest_read:0000000000000014 .L0 
C:\Users\CYMR90~1\AppData\Local\Temp\cc5BNH7j.s:393    .text.hau_sha_md5_digest_read:000000000000001c .L0 
C:\Users\CYMR90~1\AppData\Local\Temp\cc5BNH7j.s:413    .text.hau_sha_md5_digest_read:0000000000000066 .L0 
C:\Users\CYMR90~1\AppData\Local\Temp\cc5BNH7j.s:416    .text.hau_sha_md5_digest_read:0000000000000068 .L0 
C:\Users\CYMR90~1\AppData\Local\Temp\cc5BNH7j.s:420    .text.hau_sha_md5_digest_read:0000000000000076 .L0 
C:\Users\CYMR90~1\AppData\Local\Temp\cc5BNH7j.s:422    .text.hau_sha_md5_digest_read:000000000000007a .L0 
C:\Users\CYMR90~1\AppData\Local\Temp\cc5BNH7j.s:428    .text.hau_sha_md5_digest_read:0000000000000082 .L0 
C:\Users\CYMR90~1\AppData\Local\Temp\cc5BNH7j.s:431    .text.hau_sha_md5_digest_read:000000000000008a .L0 
C:\Users\CYMR90~1\AppData\Local\Temp\cc5BNH7j.s:437    .text.hau_sha_md5_digest_read:000000000000009a .L0 
C:\Users\CYMR90~1\AppData\Local\Temp\cc5BNH7j.s:439    .text.hau_sha_md5_digest_read:000000000000009c .L0 
C:\Users\CYMR90~1\AppData\Local\Temp\cc5BNH7j.s:444    .text.hau_sha_md5_digest_read:00000000000000aa .L0 
C:\Users\CYMR90~1\AppData\Local\Temp\cc5BNH7j.s:446    .text.hau_sha_md5_digest_read:00000000000000ac .L0 
C:\Users\CYMR90~1\AppData\Local\Temp\cc5BNH7j.s:449    .text.hau_sha_md5_digest_read:00000000000000b2 .L0 
C:\Users\CYMR90~1\AppData\Local\Temp\cc5BNH7j.s:452    .text.hau_sha_md5_digest_read:00000000000000b8 .L0 
C:\Users\CYMR90~1\AppData\Local\Temp\cc5BNH7j.s:456    .text.hau_sha_md5_digest_read:00000000000000bc .L0 
C:\Users\CYMR90~1\AppData\Local\Temp\cc5BNH7j.s:458    .text.hau_sha_md5_digest_read:00000000000000be .L0 
C:\Users\CYMR90~1\AppData\Local\Temp\cc5BNH7j.s:462    .text.hau_sha_md5_digest_read:00000000000000c8 .L0 
C:\Users\CYMR90~1\AppData\Local\Temp\cc5BNH7j.s:464    .text.hau_sha_md5_digest_read:00000000000000cc .L0 
C:\Users\CYMR90~1\AppData\Local\Temp\cc5BNH7j.s:469    .text.hau_sha_md5_digest_read:00000000000000d4 .L0 
C:\Users\CYMR90~1\AppData\Local\Temp\cc5BNH7j.s:472    .text.hau_sha_md5_digest_read:00000000000000dc .L0 
C:\Users\CYMR90~1\AppData\Local\Temp\cc5BNH7j.s:478    .text.hau_sha_md5_digest_read:00000000000000ec .L0 
C:\Users\CYMR90~1\AppData\Local\Temp\cc5BNH7j.s:480    .text.hau_sha_md5_digest_read:00000000000000ee .L0 
C:\Users\CYMR90~1\AppData\Local\Temp\cc5BNH7j.s:485    .text.hau_sha_md5_digest_read:00000000000000fc .L0 
C:\Users\CYMR90~1\AppData\Local\Temp\cc5BNH7j.s:487    .text.hau_sha_md5_digest_read:00000000000000fe .L0 
C:\Users\CYMR90~1\AppData\Local\Temp\cc5BNH7j.s:490    .text.hau_sha_md5_digest_read:0000000000000104 .L0 
C:\Users\CYMR90~1\AppData\Local\Temp\cc5BNH7j.s:493    .text.hau_sha_md5_digest_read:000000000000010a .L0 
C:\Users\CYMR90~1\AppData\Local\Temp\cc5BNH7j.s:497    .text.hau_sha_md5_digest_read:000000000000010e .L0 
C:\Users\CYMR90~1\AppData\Local\Temp\cc5BNH7j.s:499    .text.hau_sha_md5_digest_read:0000000000000110 .L0 
C:\Users\CYMR90~1\AppData\Local\Temp\cc5BNH7j.s:503    .text.hau_sha_md5_digest_read:000000000000011a .L0 
C:\Users\CYMR90~1\AppData\Local\Temp\cc5BNH7j.s:505    .text.hau_sha_md5_digest_read:000000000000011e .L0 
C:\Users\CYMR90~1\AppData\Local\Temp\cc5BNH7j.s:510    .text.hau_sha_md5_digest_read:0000000000000126 .L0 
C:\Users\CYMR90~1\AppData\Local\Temp\cc5BNH7j.s:513    .text.hau_sha_md5_digest_read:000000000000012e .L0 
C:\Users\CYMR90~1\AppData\Local\Temp\cc5BNH7j.s:519    .text.hau_sha_md5_digest_read:000000000000013e .L0 
C:\Users\CYMR90~1\AppData\Local\Temp\cc5BNH7j.s:521    .text.hau_sha_md5_digest_read:0000000000000140 .L0 
C:\Users\CYMR90~1\AppData\Local\Temp\cc5BNH7j.s:526    .text.hau_sha_md5_digest_read:000000000000014e .L0 
C:\Users\CYMR90~1\AppData\Local\Temp\cc5BNH7j.s:528    .text.hau_sha_md5_digest_read:0000000000000150 .L0 
C:\Users\CYMR90~1\AppData\Local\Temp\cc5BNH7j.s:531    .text.hau_sha_md5_digest_read:0000000000000156 .L0 
C:\Users\CYMR90~1\AppData\Local\Temp\cc5BNH7j.s:534    .text.hau_sha_md5_digest_read:000000000000015c .L0 
C:\Users\CYMR90~1\AppData\Local\Temp\cc5BNH7j.s:538    .text.hau_sha_md5_digest_read:0000000000000160 .L0 
C:\Users\CYMR90~1\AppData\Local\Temp\cc5BNH7j.s:540    .text.hau_sha_md5_digest_read:0000000000000162 .L0 
C:\Users\CYMR90~1\AppData\Local\Temp\cc5BNH7j.s:544    .text.hau_sha_md5_digest_read:000000000000016c .L0 
C:\Users\CYMR90~1\AppData\Local\Temp\cc5BNH7j.s:546    .text.hau_sha_md5_digest_read:0000000000000170 .L0 
C:\Users\CYMR90~1\AppData\Local\Temp\cc5BNH7j.s:551    .text.hau_sha_md5_digest_read:0000000000000178 .L0 
C:\Users\CYMR90~1\AppData\Local\Temp\cc5BNH7j.s:554    .text.hau_sha_md5_digest_read:0000000000000180 .L0 
C:\Users\CYMR90~1\AppData\Local\Temp\cc5BNH7j.s:560    .text.hau_sha_md5_digest_read:0000000000000190 .L0 
C:\Users\CYMR90~1\AppData\Local\Temp\cc5BNH7j.s:562    .text.hau_sha_md5_digest_read:0000000000000192 .L0 
C:\Users\CYMR90~1\AppData\Local\Temp\cc5BNH7j.s:567    .text.hau_sha_md5_digest_read:00000000000001a0 .L0 
C:\Users\CYMR90~1\AppData\Local\Temp\cc5BNH7j.s:569    .text.hau_sha_md5_digest_read:00000000000001a2 .L0 
C:\Users\CYMR90~1\AppData\Local\Temp\cc5BNH7j.s:572    .text.hau_sha_md5_digest_read:00000000000001a8 .L0 
C:\Users\CYMR90~1\AppData\Local\Temp\cc5BNH7j.s:575    .text.hau_sha_md5_digest_read:00000000000001ae .L0 
C:\Users\CYMR90~1\AppData\Local\Temp\cc5BNH7j.s:579    .text.hau_sha_md5_digest_read:00000000000001b2 .L0 
C:\Users\CYMR90~1\AppData\Local\Temp\cc5BNH7j.s:581    .text.hau_sha_md5_digest_read:00000000000001b4 .L0 
C:\Users\CYMR90~1\AppData\Local\Temp\cc5BNH7j.s:585    .text.hau_sha_md5_digest_read:00000000000001be .L0 
C:\Users\CYMR90~1\AppData\Local\Temp\cc5BNH7j.s:587    .text.hau_sha_md5_digest_read:00000000000001c2 .L0 
C:\Users\CYMR90~1\AppData\Local\Temp\cc5BNH7j.s:592    .text.hau_sha_md5_digest_read:00000000000001ca .L0 
C:\Users\CYMR90~1\AppData\Local\Temp\cc5BNH7j.s:595    .text.hau_sha_md5_digest_read:00000000000001d2 .L0 
C:\Users\CYMR90~1\AppData\Local\Temp\cc5BNH7j.s:601    .text.hau_sha_md5_digest_read:00000000000001e2 .L0 
C:\Users\CYMR90~1\AppData\Local\Temp\cc5BNH7j.s:603    .text.hau_sha_md5_digest_read:00000000000001e4 .L0 
C:\Users\CYMR90~1\AppData\Local\Temp\cc5BNH7j.s:608    .text.hau_sha_md5_digest_read:00000000000001f2 .L0 
C:\Users\CYMR90~1\AppData\Local\Temp\cc5BNH7j.s:610    .text.hau_sha_md5_digest_read:00000000000001f4 .L0 
C:\Users\CYMR90~1\AppData\Local\Temp\cc5BNH7j.s:613    .text.hau_sha_md5_digest_read:00000000000001fa .L0 
C:\Users\CYMR90~1\AppData\Local\Temp\cc5BNH7j.s:616    .text.hau_sha_md5_digest_read:0000000000000200 .L0 
C:\Users\CYMR90~1\AppData\Local\Temp\cc5BNH7j.s:620    .text.hau_sha_md5_digest_read:0000000000000204 .L0 
C:\Users\CYMR90~1\AppData\Local\Temp\cc5BNH7j.s:622    .text.hau_sha_md5_digest_read:0000000000000206 .L0 
C:\Users\CYMR90~1\AppData\Local\Temp\cc5BNH7j.s:625    .text.hau_sha_md5_digest_read:0000000000000208 .L0 
C:\Users\CYMR90~1\AppData\Local\Temp\cc5BNH7j.s:629    .text.hau_sha_md5_digest_read:0000000000000216 .L0 
C:\Users\CYMR90~1\AppData\Local\Temp\cc5BNH7j.s:631    .text.hau_sha_md5_digest_read:000000000000021a .L0 
C:\Users\CYMR90~1\AppData\Local\Temp\cc5BNH7j.s:636    .text.hau_sha_md5_digest_read:0000000000000222 .L0 
C:\Users\CYMR90~1\AppData\Local\Temp\cc5BNH7j.s:639    .text.hau_sha_md5_digest_read:000000000000022a .L0 
C:\Users\CYMR90~1\AppData\Local\Temp\cc5BNH7j.s:645    .text.hau_sha_md5_digest_read:000000000000023a .L0 
C:\Users\CYMR90~1\AppData\Local\Temp\cc5BNH7j.s:647    .text.hau_sha_md5_digest_read:000000000000023c .L0 
C:\Users\CYMR90~1\AppData\Local\Temp\cc5BNH7j.s:652    .text.hau_sha_md5_digest_read:000000000000024a .L0 
C:\Users\CYMR90~1\AppData\Local\Temp\cc5BNH7j.s:654    .text.hau_sha_md5_digest_read:000000000000024c .L0 
C:\Users\CYMR90~1\AppData\Local\Temp\cc5BNH7j.s:657    .text.hau_sha_md5_digest_read:0000000000000252 .L0 
C:\Users\CYMR90~1\AppData\Local\Temp\cc5BNH7j.s:660    .text.hau_sha_md5_digest_read:0000000000000258 .L0 
C:\Users\CYMR90~1\AppData\Local\Temp\cc5BNH7j.s:664    .text.hau_sha_md5_digest_read:000000000000025c .L0 
C:\Users\CYMR90~1\AppData\Local\Temp\cc5BNH7j.s:666    .text.hau_sha_md5_digest_read:000000000000025e .L0 
C:\Users\CYMR90~1\AppData\Local\Temp\cc5BNH7j.s:670    .text.hau_sha_md5_digest_read:0000000000000268 .L0 
C:\Users\CYMR90~1\AppData\Local\Temp\cc5BNH7j.s:672    .text.hau_sha_md5_digest_read:000000000000026c .L0 
C:\Users\CYMR90~1\AppData\Local\Temp\cc5BNH7j.s:677    .text.hau_sha_md5_digest_read:0000000000000274 .L0 
C:\Users\CYMR90~1\AppData\Local\Temp\cc5BNH7j.s:680    .text.hau_sha_md5_digest_read:000000000000027c .L0 
C:\Users\CYMR90~1\AppData\Local\Temp\cc5BNH7j.s:686    .text.hau_sha_md5_digest_read:000000000000028c .L0 
C:\Users\CYMR90~1\AppData\Local\Temp\cc5BNH7j.s:688    .text.hau_sha_md5_digest_read:000000000000028e .L0 
C:\Users\CYMR90~1\AppData\Local\Temp\cc5BNH7j.s:693    .text.hau_sha_md5_digest_read:000000000000029c .L0 
C:\Users\CYMR90~1\AppData\Local\Temp\cc5BNH7j.s:695    .text.hau_sha_md5_digest_read:000000000000029e .L0 
C:\Users\CYMR90~1\AppData\Local\Temp\cc5BNH7j.s:698    .text.hau_sha_md5_digest_read:00000000000002a4 .L0 
C:\Users\CYMR90~1\AppData\Local\Temp\cc5BNH7j.s:701    .text.hau_sha_md5_digest_read:00000000000002aa .L0 
C:\Users\CYMR90~1\AppData\Local\Temp\cc5BNH7j.s:705    .text.hau_sha_md5_digest_read:00000000000002ae .L0 
C:\Users\CYMR90~1\AppData\Local\Temp\cc5BNH7j.s:707    .text.hau_sha_md5_digest_read:00000000000002b0 .L0 
C:\Users\CYMR90~1\AppData\Local\Temp\cc5BNH7j.s:711    .text.hau_sha_md5_digest_read:00000000000002ba .L0 
C:\Users\CYMR90~1\AppData\Local\Temp\cc5BNH7j.s:713    .text.hau_sha_md5_digest_read:00000000000002be .L0 
C:\Users\CYMR90~1\AppData\Local\Temp\cc5BNH7j.s:718    .text.hau_sha_md5_digest_read:00000000000002c6 .L0 
C:\Users\CYMR90~1\AppData\Local\Temp\cc5BNH7j.s:721    .text.hau_sha_md5_digest_read:00000000000002ce .L0 
C:\Users\CYMR90~1\AppData\Local\Temp\cc5BNH7j.s:727    .text.hau_sha_md5_digest_read:00000000000002de .L0 
C:\Users\CYMR90~1\AppData\Local\Temp\cc5BNH7j.s:729    .text.hau_sha_md5_digest_read:00000000000002e0 .L0 
C:\Users\CYMR90~1\AppData\Local\Temp\cc5BNH7j.s:734    .text.hau_sha_md5_digest_read:00000000000002ee .L0 
C:\Users\CYMR90~1\AppData\Local\Temp\cc5BNH7j.s:736    .text.hau_sha_md5_digest_read:00000000000002f0 .L0 
C:\Users\CYMR90~1\AppData\Local\Temp\cc5BNH7j.s:739    .text.hau_sha_md5_digest_read:00000000000002f6 .L0 
C:\Users\CYMR90~1\AppData\Local\Temp\cc5BNH7j.s:742    .text.hau_sha_md5_digest_read:00000000000002fc .L0 
C:\Users\CYMR90~1\AppData\Local\Temp\cc5BNH7j.s:746    .text.hau_sha_md5_digest_read:0000000000000300 .L0 
C:\Users\CYMR90~1\AppData\Local\Temp\cc5BNH7j.s:748    .text.hau_sha_md5_digest_read:0000000000000302 .L0 
C:\Users\CYMR90~1\AppData\Local\Temp\cc5BNH7j.s:752    .text.hau_sha_md5_digest_read:000000000000030c .L0 
C:\Users\CYMR90~1\AppData\Local\Temp\cc5BNH7j.s:754    .text.hau_sha_md5_digest_read:0000000000000310 .L0 
C:\Users\CYMR90~1\AppData\Local\Temp\cc5BNH7j.s:759    .text.hau_sha_md5_digest_read:0000000000000318 .L0 
C:\Users\CYMR90~1\AppData\Local\Temp\cc5BNH7j.s:762    .text.hau_sha_md5_digest_read:0000000000000320 .L0 
C:\Users\CYMR90~1\AppData\Local\Temp\cc5BNH7j.s:768    .text.hau_sha_md5_digest_read:0000000000000330 .L0 
C:\Users\CYMR90~1\AppData\Local\Temp\cc5BNH7j.s:770    .text.hau_sha_md5_digest_read:0000000000000332 .L0 
C:\Users\CYMR90~1\AppData\Local\Temp\cc5BNH7j.s:775    .text.hau_sha_md5_digest_read:0000000000000340 .L0 
C:\Users\CYMR90~1\AppData\Local\Temp\cc5BNH7j.s:777    .text.hau_sha_md5_digest_read:0000000000000342 .L0 
C:\Users\CYMR90~1\AppData\Local\Temp\cc5BNH7j.s:780    .text.hau_sha_md5_digest_read:0000000000000348 .L0 
C:\Users\CYMR90~1\AppData\Local\Temp\cc5BNH7j.s:783    .text.hau_sha_md5_digest_read:000000000000034e .L0 
C:\Users\CYMR90~1\AppData\Local\Temp\cc5BNH7j.s:787    .text.hau_sha_md5_digest_read:0000000000000352 .L0 
C:\Users\CYMR90~1\AppData\Local\Temp\cc5BNH7j.s:789    .text.hau_sha_md5_digest_read:0000000000000354 .L0 
C:\Users\CYMR90~1\AppData\Local\Temp\cc5BNH7j.s:793    .text.hau_sha_md5_digest_read:000000000000035e .L0 
C:\Users\CYMR90~1\AppData\Local\Temp\cc5BNH7j.s:795    .text.hau_sha_md5_digest_read:0000000000000362 .L0 
C:\Users\CYMR90~1\AppData\Local\Temp\cc5BNH7j.s:800    .text.hau_sha_md5_digest_read:000000000000036a .L0 
C:\Users\CYMR90~1\AppData\Local\Temp\cc5BNH7j.s:803    .text.hau_sha_md5_digest_read:0000000000000372 .L0 
C:\Users\CYMR90~1\AppData\Local\Temp\cc5BNH7j.s:809    .text.hau_sha_md5_digest_read:0000000000000382 .L0 
C:\Users\CYMR90~1\AppData\Local\Temp\cc5BNH7j.s:811    .text.hau_sha_md5_digest_read:0000000000000384 .L0 
C:\Users\CYMR90~1\AppData\Local\Temp\cc5BNH7j.s:816    .text.hau_sha_md5_digest_read:0000000000000392 .L0 
C:\Users\CYMR90~1\AppData\Local\Temp\cc5BNH7j.s:818    .text.hau_sha_md5_digest_read:0000000000000394 .L0 
C:\Users\CYMR90~1\AppData\Local\Temp\cc5BNH7j.s:821    .text.hau_sha_md5_digest_read:000000000000039a .L0 
C:\Users\CYMR90~1\AppData\Local\Temp\cc5BNH7j.s:824    .text.hau_sha_md5_digest_read:00000000000003a0 .L0 
C:\Users\CYMR90~1\AppData\Local\Temp\cc5BNH7j.s:828    .text.hau_sha_md5_digest_read:00000000000003a4 .L0 
C:\Users\CYMR90~1\AppData\Local\Temp\cc5BNH7j.s:830    .text.hau_sha_md5_digest_read:00000000000003a6 .L0 
C:\Users\CYMR90~1\AppData\Local\Temp\cc5BNH7j.s:834    .text.hau_sha_md5_digest_read:00000000000003b0 .L0 
C:\Users\CYMR90~1\AppData\Local\Temp\cc5BNH7j.s:836    .text.hau_sha_md5_digest_read:00000000000003b4 .L0 
C:\Users\CYMR90~1\AppData\Local\Temp\cc5BNH7j.s:841    .text.hau_sha_md5_digest_read:00000000000003bc .L0 
C:\Users\CYMR90~1\AppData\Local\Temp\cc5BNH7j.s:844    .text.hau_sha_md5_digest_read:00000000000003c4 .L0 
C:\Users\CYMR90~1\AppData\Local\Temp\cc5BNH7j.s:850    .text.hau_sha_md5_digest_read:00000000000003d4 .L0 
C:\Users\CYMR90~1\AppData\Local\Temp\cc5BNH7j.s:852    .text.hau_sha_md5_digest_read:00000000000003d6 .L0 
C:\Users\CYMR90~1\AppData\Local\Temp\cc5BNH7j.s:857    .text.hau_sha_md5_digest_read:00000000000003e4 .L0 
C:\Users\CYMR90~1\AppData\Local\Temp\cc5BNH7j.s:859    .text.hau_sha_md5_digest_read:00000000000003e6 .L0 
C:\Users\CYMR90~1\AppData\Local\Temp\cc5BNH7j.s:862    .text.hau_sha_md5_digest_read:00000000000003ec .L0 
C:\Users\CYMR90~1\AppData\Local\Temp\cc5BNH7j.s:865    .text.hau_sha_md5_digest_read:00000000000003f2 .L0 
C:\Users\CYMR90~1\AppData\Local\Temp\cc5BNH7j.s:869    .text.hau_sha_md5_digest_read:00000000000003f6 .L0 
C:\Users\CYMR90~1\AppData\Local\Temp\cc5BNH7j.s:871    .text.hau_sha_md5_digest_read:00000000000003f8 .L0 
C:\Users\CYMR90~1\AppData\Local\Temp\cc5BNH7j.s:875    .text.hau_sha_md5_digest_read:0000000000000402 .L0 
C:\Users\CYMR90~1\AppData\Local\Temp\cc5BNH7j.s:877    .text.hau_sha_md5_digest_read:0000000000000406 .L0 
C:\Users\CYMR90~1\AppData\Local\Temp\cc5BNH7j.s:882    .text.hau_sha_md5_digest_read:000000000000040e .L0 
C:\Users\CYMR90~1\AppData\Local\Temp\cc5BNH7j.s:885    .text.hau_sha_md5_digest_read:0000000000000416 .L0 
C:\Users\CYMR90~1\AppData\Local\Temp\cc5BNH7j.s:891    .text.hau_sha_md5_digest_read:0000000000000426 .L0 
C:\Users\CYMR90~1\AppData\Local\Temp\cc5BNH7j.s:893    .text.hau_sha_md5_digest_read:0000000000000428 .L0 
C:\Users\CYMR90~1\AppData\Local\Temp\cc5BNH7j.s:898    .text.hau_sha_md5_digest_read:0000000000000436 .L0 
C:\Users\CYMR90~1\AppData\Local\Temp\cc5BNH7j.s:900    .text.hau_sha_md5_digest_read:0000000000000438 .L0 
C:\Users\CYMR90~1\AppData\Local\Temp\cc5BNH7j.s:903    .text.hau_sha_md5_digest_read:000000000000043e .L0 
C:\Users\CYMR90~1\AppData\Local\Temp\cc5BNH7j.s:906    .text.hau_sha_md5_digest_read:0000000000000444 .L0 
C:\Users\CYMR90~1\AppData\Local\Temp\cc5BNH7j.s:910    .text.hau_sha_md5_digest_read:0000000000000448 .L0 
C:\Users\CYMR90~1\AppData\Local\Temp\cc5BNH7j.s:912    .text.hau_sha_md5_digest_read:000000000000044a .L0 
C:\Users\CYMR90~1\AppData\Local\Temp\cc5BNH7j.s:915    .text.hau_sha_md5_digest_read:000000000000044c .L0 
C:\Users\CYMR90~1\AppData\Local\Temp\cc5BNH7j.s:919    .text.hau_sha_md5_digest_read:000000000000045a .L0 
C:\Users\CYMR90~1\AppData\Local\Temp\cc5BNH7j.s:921    .text.hau_sha_md5_digest_read:000000000000045e .L0 
C:\Users\CYMR90~1\AppData\Local\Temp\cc5BNH7j.s:926    .text.hau_sha_md5_digest_read:0000000000000466 .L0 
C:\Users\CYMR90~1\AppData\Local\Temp\cc5BNH7j.s:929    .text.hau_sha_md5_digest_read:000000000000046e .L0 
C:\Users\CYMR90~1\AppData\Local\Temp\cc5BNH7j.s:935    .text.hau_sha_md5_digest_read:000000000000047e .L0 
C:\Users\CYMR90~1\AppData\Local\Temp\cc5BNH7j.s:937    .text.hau_sha_md5_digest_read:0000000000000480 .L0 
C:\Users\CYMR90~1\AppData\Local\Temp\cc5BNH7j.s:942    .text.hau_sha_md5_digest_read:000000000000048e .L0 
C:\Users\CYMR90~1\AppData\Local\Temp\cc5BNH7j.s:944    .text.hau_sha_md5_digest_read:0000000000000490 .L0 
C:\Users\CYMR90~1\AppData\Local\Temp\cc5BNH7j.s:947    .text.hau_sha_md5_digest_read:0000000000000496 .L0 
C:\Users\CYMR90~1\AppData\Local\Temp\cc5BNH7j.s:950    .text.hau_sha_md5_digest_read:000000000000049c .L0 
C:\Users\CYMR90~1\AppData\Local\Temp\cc5BNH7j.s:954    .text.hau_sha_md5_digest_read:00000000000004a0 .L0 
C:\Users\CYMR90~1\AppData\Local\Temp\cc5BNH7j.s:956    .text.hau_sha_md5_digest_read:00000000000004a2 .L0 
C:\Users\CYMR90~1\AppData\Local\Temp\cc5BNH7j.s:960    .text.hau_sha_md5_digest_read:00000000000004ac .L0 
C:\Users\CYMR90~1\AppData\Local\Temp\cc5BNH7j.s:962    .text.hau_sha_md5_digest_read:00000000000004b0 .L0 
C:\Users\CYMR90~1\AppData\Local\Temp\cc5BNH7j.s:967    .text.hau_sha_md5_digest_read:00000000000004b8 .L0 
C:\Users\CYMR90~1\AppData\Local\Temp\cc5BNH7j.s:970    .text.hau_sha_md5_digest_read:00000000000004c0 .L0 
C:\Users\CYMR90~1\AppData\Local\Temp\cc5BNH7j.s:976    .text.hau_sha_md5_digest_read:00000000000004d0 .L0 
C:\Users\CYMR90~1\AppData\Local\Temp\cc5BNH7j.s:978    .text.hau_sha_md5_digest_read:00000000000004d2 .L0 
C:\Users\CYMR90~1\AppData\Local\Temp\cc5BNH7j.s:983    .text.hau_sha_md5_digest_read:00000000000004e0 .L0 
C:\Users\CYMR90~1\AppData\Local\Temp\cc5BNH7j.s:985    .text.hau_sha_md5_digest_read:00000000000004e2 .L0 
C:\Users\CYMR90~1\AppData\Local\Temp\cc5BNH7j.s:988    .text.hau_sha_md5_digest_read:00000000000004e8 .L0 
C:\Users\CYMR90~1\AppData\Local\Temp\cc5BNH7j.s:991    .text.hau_sha_md5_digest_read:00000000000004ee .L0 
C:\Users\CYMR90~1\AppData\Local\Temp\cc5BNH7j.s:995    .text.hau_sha_md5_digest_read:00000000000004f2 .L0 
C:\Users\CYMR90~1\AppData\Local\Temp\cc5BNH7j.s:997    .text.hau_sha_md5_digest_read:00000000000004f4 .L0 
C:\Users\CYMR90~1\AppData\Local\Temp\cc5BNH7j.s:1001   .text.hau_sha_md5_digest_read:00000000000004fe .L0 
C:\Users\CYMR90~1\AppData\Local\Temp\cc5BNH7j.s:1003   .text.hau_sha_md5_digest_read:0000000000000502 .L0 
C:\Users\CYMR90~1\AppData\Local\Temp\cc5BNH7j.s:1008   .text.hau_sha_md5_digest_read:000000000000050a .L0 
C:\Users\CYMR90~1\AppData\Local\Temp\cc5BNH7j.s:1011   .text.hau_sha_md5_digest_read:0000000000000512 .L0 
C:\Users\CYMR90~1\AppData\Local\Temp\cc5BNH7j.s:1017   .text.hau_sha_md5_digest_read:0000000000000522 .L0 
C:\Users\CYMR90~1\AppData\Local\Temp\cc5BNH7j.s:1019   .text.hau_sha_md5_digest_read:0000000000000524 .L0 
C:\Users\CYMR90~1\AppData\Local\Temp\cc5BNH7j.s:1024   .text.hau_sha_md5_digest_read:0000000000000532 .L0 
C:\Users\CYMR90~1\AppData\Local\Temp\cc5BNH7j.s:1026   .text.hau_sha_md5_digest_read:0000000000000534 .L0 
C:\Users\CYMR90~1\AppData\Local\Temp\cc5BNH7j.s:1029   .text.hau_sha_md5_digest_read:000000000000053a .L0 
C:\Users\CYMR90~1\AppData\Local\Temp\cc5BNH7j.s:1032   .text.hau_sha_md5_digest_read:0000000000000540 .L0 
C:\Users\CYMR90~1\AppData\Local\Temp\cc5BNH7j.s:1036   .text.hau_sha_md5_digest_read:0000000000000544 .L0 
C:\Users\CYMR90~1\AppData\Local\Temp\cc5BNH7j.s:1038   .text.hau_sha_md5_digest_read:0000000000000546 .L0 
C:\Users\CYMR90~1\AppData\Local\Temp\cc5BNH7j.s:1042   .text.hau_sha_md5_digest_read:0000000000000550 .L0 
C:\Users\CYMR90~1\AppData\Local\Temp\cc5BNH7j.s:1044   .text.hau_sha_md5_digest_read:0000000000000554 .L0 
C:\Users\CYMR90~1\AppData\Local\Temp\cc5BNH7j.s:1049   .text.hau_sha_md5_digest_read:000000000000055c .L0 
C:\Users\CYMR90~1\AppData\Local\Temp\cc5BNH7j.s:1052   .text.hau_sha_md5_digest_read:0000000000000564 .L0 
C:\Users\CYMR90~1\AppData\Local\Temp\cc5BNH7j.s:1058   .text.hau_sha_md5_digest_read:0000000000000574 .L0 
C:\Users\CYMR90~1\AppData\Local\Temp\cc5BNH7j.s:1060   .text.hau_sha_md5_digest_read:0000000000000576 .L0 
C:\Users\CYMR90~1\AppData\Local\Temp\cc5BNH7j.s:1065   .text.hau_sha_md5_digest_read:0000000000000584 .L0 
C:\Users\CYMR90~1\AppData\Local\Temp\cc5BNH7j.s:1067   .text.hau_sha_md5_digest_read:0000000000000586 .L0 
C:\Users\CYMR90~1\AppData\Local\Temp\cc5BNH7j.s:1070   .text.hau_sha_md5_digest_read:000000000000058c .L0 
C:\Users\CYMR90~1\AppData\Local\Temp\cc5BNH7j.s:1073   .text.hau_sha_md5_digest_read:0000000000000592 .L0 
C:\Users\CYMR90~1\AppData\Local\Temp\cc5BNH7j.s:1077   .text.hau_sha_md5_digest_read:0000000000000596 .L0 
C:\Users\CYMR90~1\AppData\Local\Temp\cc5BNH7j.s:1079   .text.hau_sha_md5_digest_read:0000000000000598 .L0 
C:\Users\CYMR90~1\AppData\Local\Temp\cc5BNH7j.s:1083   .text.hau_sha_md5_digest_read:00000000000005a2 .L0 
C:\Users\CYMR90~1\AppData\Local\Temp\cc5BNH7j.s:1085   .text.hau_sha_md5_digest_read:00000000000005a6 .L0 
C:\Users\CYMR90~1\AppData\Local\Temp\cc5BNH7j.s:1090   .text.hau_sha_md5_digest_read:00000000000005ae .L0 
C:\Users\CYMR90~1\AppData\Local\Temp\cc5BNH7j.s:1093   .text.hau_sha_md5_digest_read:00000000000005b6 .L0 
C:\Users\CYMR90~1\AppData\Local\Temp\cc5BNH7j.s:1099   .text.hau_sha_md5_digest_read:00000000000005c6 .L0 
C:\Users\CYMR90~1\AppData\Local\Temp\cc5BNH7j.s:1101   .text.hau_sha_md5_digest_read:00000000000005c8 .L0 
C:\Users\CYMR90~1\AppData\Local\Temp\cc5BNH7j.s:1106   .text.hau_sha_md5_digest_read:00000000000005d6 .L0 
C:\Users\CYMR90~1\AppData\Local\Temp\cc5BNH7j.s:1108   .text.hau_sha_md5_digest_read:00000000000005d8 .L0 
C:\Users\CYMR90~1\AppData\Local\Temp\cc5BNH7j.s:1111   .text.hau_sha_md5_digest_read:00000000000005de .L0 
C:\Users\CYMR90~1\AppData\Local\Temp\cc5BNH7j.s:1114   .text.hau_sha_md5_digest_read:00000000000005e4 .L0 
C:\Users\CYMR90~1\AppData\Local\Temp\cc5BNH7j.s:1118   .text.hau_sha_md5_digest_read:00000000000005e8 .L0 
C:\Users\CYMR90~1\AppData\Local\Temp\cc5BNH7j.s:1120   .text.hau_sha_md5_digest_read:00000000000005ea .L0 
C:\Users\CYMR90~1\AppData\Local\Temp\cc5BNH7j.s:1124   .text.hau_sha_md5_digest_read:00000000000005f4 .L0 
C:\Users\CYMR90~1\AppData\Local\Temp\cc5BNH7j.s:1126   .text.hau_sha_md5_digest_read:00000000000005f8 .L0 
C:\Users\CYMR90~1\AppData\Local\Temp\cc5BNH7j.s:1131   .text.hau_sha_md5_digest_read:0000000000000600 .L0 
C:\Users\CYMR90~1\AppData\Local\Temp\cc5BNH7j.s:1134   .text.hau_sha_md5_digest_read:0000000000000608 .L0 
C:\Users\CYMR90~1\AppData\Local\Temp\cc5BNH7j.s:1140   .text.hau_sha_md5_digest_read:0000000000000618 .L0 
C:\Users\CYMR90~1\AppData\Local\Temp\cc5BNH7j.s:1142   .text.hau_sha_md5_digest_read:000000000000061a .L0 
C:\Users\CYMR90~1\AppData\Local\Temp\cc5BNH7j.s:1147   .text.hau_sha_md5_digest_read:0000000000000628 .L0 
C:\Users\CYMR90~1\AppData\Local\Temp\cc5BNH7j.s:1149   .text.hau_sha_md5_digest_read:000000000000062a .L0 
C:\Users\CYMR90~1\AppData\Local\Temp\cc5BNH7j.s:1152   .text.hau_sha_md5_digest_read:0000000000000630 .L0 
C:\Users\CYMR90~1\AppData\Local\Temp\cc5BNH7j.s:1155   .text.hau_sha_md5_digest_read:0000000000000636 .L0 
C:\Users\CYMR90~1\AppData\Local\Temp\cc5BNH7j.s:1159   .text.hau_sha_md5_digest_read:000000000000063a .L0 
C:\Users\CYMR90~1\AppData\Local\Temp\cc5BNH7j.s:1161   .text.hau_sha_md5_digest_read:000000000000063c .L0 
C:\Users\CYMR90~1\AppData\Local\Temp\cc5BNH7j.s:1165   .text.hau_sha_md5_digest_read:0000000000000646 .L0 
C:\Users\CYMR90~1\AppData\Local\Temp\cc5BNH7j.s:1167   .text.hau_sha_md5_digest_read:000000000000064a .L0 
C:\Users\CYMR90~1\AppData\Local\Temp\cc5BNH7j.s:1172   .text.hau_sha_md5_digest_read:0000000000000652 .L0 
C:\Users\CYMR90~1\AppData\Local\Temp\cc5BNH7j.s:1175   .text.hau_sha_md5_digest_read:000000000000065a .L0 
C:\Users\CYMR90~1\AppData\Local\Temp\cc5BNH7j.s:1181   .text.hau_sha_md5_digest_read:000000000000066a .L0 
C:\Users\CYMR90~1\AppData\Local\Temp\cc5BNH7j.s:1183   .text.hau_sha_md5_digest_read:000000000000066c .L0 
C:\Users\CYMR90~1\AppData\Local\Temp\cc5BNH7j.s:1188   .text.hau_sha_md5_digest_read:000000000000067a .L0 
C:\Users\CYMR90~1\AppData\Local\Temp\cc5BNH7j.s:1190   .text.hau_sha_md5_digest_read:000000000000067c .L0 
C:\Users\CYMR90~1\AppData\Local\Temp\cc5BNH7j.s:1193   .text.hau_sha_md5_digest_read:0000000000000682 .L0 
C:\Users\CYMR90~1\AppData\Local\Temp\cc5BNH7j.s:1196   .text.hau_sha_md5_digest_read:0000000000000688 .L0 
C:\Users\CYMR90~1\AppData\Local\Temp\cc5BNH7j.s:1200   .text.hau_sha_md5_digest_read:000000000000068c .L0 
C:\Users\CYMR90~1\AppData\Local\Temp\cc5BNH7j.s:1202   .text.hau_sha_md5_digest_read:000000000000068e .L0 
C:\Users\CYMR90~1\AppData\Local\Temp\cc5BNH7j.s:1206   .text.hau_sha_md5_digest_read:0000000000000698 .L0 
C:\Users\CYMR90~1\AppData\Local\Temp\cc5BNH7j.s:1208   .text.hau_sha_md5_digest_read:000000000000069c .L0 
C:\Users\CYMR90~1\AppData\Local\Temp\cc5BNH7j.s:1213   .text.hau_sha_md5_digest_read:00000000000006a4 .L0 
C:\Users\CYMR90~1\AppData\Local\Temp\cc5BNH7j.s:1216   .text.hau_sha_md5_digest_read:00000000000006ac .L0 
C:\Users\CYMR90~1\AppData\Local\Temp\cc5BNH7j.s:1222   .text.hau_sha_md5_digest_read:00000000000006bc .L0 
C:\Users\CYMR90~1\AppData\Local\Temp\cc5BNH7j.s:1224   .text.hau_sha_md5_digest_read:00000000000006be .L0 
C:\Users\CYMR90~1\AppData\Local\Temp\cc5BNH7j.s:1229   .text.hau_sha_md5_digest_read:00000000000006cc .L0 
C:\Users\CYMR90~1\AppData\Local\Temp\cc5BNH7j.s:1231   .text.hau_sha_md5_digest_read:00000000000006ce .L0 
C:\Users\CYMR90~1\AppData\Local\Temp\cc5BNH7j.s:1234   .text.hau_sha_md5_digest_read:00000000000006d4 .L0 
C:\Users\CYMR90~1\AppData\Local\Temp\cc5BNH7j.s:1237   .text.hau_sha_md5_digest_read:00000000000006da .L0 
C:\Users\CYMR90~1\AppData\Local\Temp\cc5BNH7j.s:1241   .text.hau_sha_md5_digest_read:00000000000006de .L0 
C:\Users\CYMR90~1\AppData\Local\Temp\cc5BNH7j.s:1243   .text.hau_sha_md5_digest_read:00000000000006e0 .L0 
C:\Users\CYMR90~1\AppData\Local\Temp\cc5BNH7j.s:1246   .text.hau_sha_md5_digest_read:00000000000006e2 .L0 
C:\Users\CYMR90~1\AppData\Local\Temp\cc5BNH7j.s:1250   .text.hau_sha_md5_digest_read:00000000000006f0 .L0 
C:\Users\CYMR90~1\AppData\Local\Temp\cc5BNH7j.s:1252   .text.hau_sha_md5_digest_read:00000000000006f4 .L0 
C:\Users\CYMR90~1\AppData\Local\Temp\cc5BNH7j.s:1257   .text.hau_sha_md5_digest_read:00000000000006fc .L0 
C:\Users\CYMR90~1\AppData\Local\Temp\cc5BNH7j.s:1260   .text.hau_sha_md5_digest_read:0000000000000704 .L0 
C:\Users\CYMR90~1\AppData\Local\Temp\cc5BNH7j.s:1266   .text.hau_sha_md5_digest_read:0000000000000714 .L0 
C:\Users\CYMR90~1\AppData\Local\Temp\cc5BNH7j.s:1268   .text.hau_sha_md5_digest_read:0000000000000716 .L0 
C:\Users\CYMR90~1\AppData\Local\Temp\cc5BNH7j.s:1273   .text.hau_sha_md5_digest_read:0000000000000724 .L0 
C:\Users\CYMR90~1\AppData\Local\Temp\cc5BNH7j.s:1275   .text.hau_sha_md5_digest_read:0000000000000726 .L0 
C:\Users\CYMR90~1\AppData\Local\Temp\cc5BNH7j.s:1278   .text.hau_sha_md5_digest_read:000000000000072c .L0 
C:\Users\CYMR90~1\AppData\Local\Temp\cc5BNH7j.s:1281   .text.hau_sha_md5_digest_read:0000000000000732 .L0 
C:\Users\CYMR90~1\AppData\Local\Temp\cc5BNH7j.s:1285   .text.hau_sha_md5_digest_read:0000000000000736 .L0 
C:\Users\CYMR90~1\AppData\Local\Temp\cc5BNH7j.s:1287   .text.hau_sha_md5_digest_read:0000000000000738 .L0 
C:\Users\CYMR90~1\AppData\Local\Temp\cc5BNH7j.s:1291   .text.hau_sha_md5_digest_read:0000000000000742 .L0 
C:\Users\CYMR90~1\AppData\Local\Temp\cc5BNH7j.s:1293   .text.hau_sha_md5_digest_read:0000000000000746 .L0 
C:\Users\CYMR90~1\AppData\Local\Temp\cc5BNH7j.s:1298   .text.hau_sha_md5_digest_read:000000000000074e .L0 
C:\Users\CYMR90~1\AppData\Local\Temp\cc5BNH7j.s:1301   .text.hau_sha_md5_digest_read:0000000000000756 .L0 
C:\Users\CYMR90~1\AppData\Local\Temp\cc5BNH7j.s:1307   .text.hau_sha_md5_digest_read:0000000000000766 .L0 
C:\Users\CYMR90~1\AppData\Local\Temp\cc5BNH7j.s:1309   .text.hau_sha_md5_digest_read:0000000000000768 .L0 
C:\Users\CYMR90~1\AppData\Local\Temp\cc5BNH7j.s:1314   .text.hau_sha_md5_digest_read:0000000000000776 .L0 
C:\Users\CYMR90~1\AppData\Local\Temp\cc5BNH7j.s:1316   .text.hau_sha_md5_digest_read:0000000000000778 .L0 
C:\Users\CYMR90~1\AppData\Local\Temp\cc5BNH7j.s:1319   .text.hau_sha_md5_digest_read:000000000000077e .L0 
C:\Users\CYMR90~1\AppData\Local\Temp\cc5BNH7j.s:1322   .text.hau_sha_md5_digest_read:0000000000000784 .L0 
C:\Users\CYMR90~1\AppData\Local\Temp\cc5BNH7j.s:1326   .text.hau_sha_md5_digest_read:0000000000000788 .L0 
C:\Users\CYMR90~1\AppData\Local\Temp\cc5BNH7j.s:1328   .text.hau_sha_md5_digest_read:000000000000078a .L0 
C:\Users\CYMR90~1\AppData\Local\Temp\cc5BNH7j.s:1332   .text.hau_sha_md5_digest_read:0000000000000794 .L0 
C:\Users\CYMR90~1\AppData\Local\Temp\cc5BNH7j.s:1334   .text.hau_sha_md5_digest_read:0000000000000798 .L0 
C:\Users\CYMR90~1\AppData\Local\Temp\cc5BNH7j.s:1339   .text.hau_sha_md5_digest_read:00000000000007a0 .L0 
C:\Users\CYMR90~1\AppData\Local\Temp\cc5BNH7j.s:1342   .text.hau_sha_md5_digest_read:00000000000007a8 .L0 
C:\Users\CYMR90~1\AppData\Local\Temp\cc5BNH7j.s:1348   .text.hau_sha_md5_digest_read:00000000000007b8 .L0 
C:\Users\CYMR90~1\AppData\Local\Temp\cc5BNH7j.s:1350   .text.hau_sha_md5_digest_read:00000000000007ba .L0 
C:\Users\CYMR90~1\AppData\Local\Temp\cc5BNH7j.s:1355   .text.hau_sha_md5_digest_read:00000000000007c8 .L0 
C:\Users\CYMR90~1\AppData\Local\Temp\cc5BNH7j.s:1357   .text.hau_sha_md5_digest_read:00000000000007ca .L0 
C:\Users\CYMR90~1\AppData\Local\Temp\cc5BNH7j.s:1360   .text.hau_sha_md5_digest_read:00000000000007d0 .L0 
C:\Users\CYMR90~1\AppData\Local\Temp\cc5BNH7j.s:1363   .text.hau_sha_md5_digest_read:00000000000007d6 .L0 
C:\Users\CYMR90~1\AppData\Local\Temp\cc5BNH7j.s:1367   .text.hau_sha_md5_digest_read:00000000000007da .L0 
C:\Users\CYMR90~1\AppData\Local\Temp\cc5BNH7j.s:1369   .text.hau_sha_md5_digest_read:00000000000007dc .L0 
C:\Users\CYMR90~1\AppData\Local\Temp\cc5BNH7j.s:1373   .text.hau_sha_md5_digest_read:00000000000007e6 .L0 
C:\Users\CYMR90~1\AppData\Local\Temp\cc5BNH7j.s:1375   .text.hau_sha_md5_digest_read:00000000000007ea .L0 
C:\Users\CYMR90~1\AppData\Local\Temp\cc5BNH7j.s:1380   .text.hau_sha_md5_digest_read:00000000000007f2 .L0 
C:\Users\CYMR90~1\AppData\Local\Temp\cc5BNH7j.s:1383   .text.hau_sha_md5_digest_read:00000000000007fa .L0 
C:\Users\CYMR90~1\AppData\Local\Temp\cc5BNH7j.s:1389   .text.hau_sha_md5_digest_read:000000000000080a .L0 
C:\Users\CYMR90~1\AppData\Local\Temp\cc5BNH7j.s:1391   .text.hau_sha_md5_digest_read:000000000000080c .L0 
C:\Users\CYMR90~1\AppData\Local\Temp\cc5BNH7j.s:1396   .text.hau_sha_md5_digest_read:000000000000081a .L0 
C:\Users\CYMR90~1\AppData\Local\Temp\cc5BNH7j.s:1398   .text.hau_sha_md5_digest_read:000000000000081c .L0 
C:\Users\CYMR90~1\AppData\Local\Temp\cc5BNH7j.s:1401   .text.hau_sha_md5_digest_read:0000000000000822 .L0 
C:\Users\CYMR90~1\AppData\Local\Temp\cc5BNH7j.s:1404   .text.hau_sha_md5_digest_read:0000000000000828 .L0 
C:\Users\CYMR90~1\AppData\Local\Temp\cc5BNH7j.s:1408   .text.hau_sha_md5_digest_read:000000000000082c .L0 
C:\Users\CYMR90~1\AppData\Local\Temp\cc5BNH7j.s:1410   .text.hau_sha_md5_digest_read:000000000000082e .L0 
C:\Users\CYMR90~1\AppData\Local\Temp\cc5BNH7j.s:1413   .text.hau_sha_md5_digest_read:0000000000000830 .L0 
C:\Users\CYMR90~1\AppData\Local\Temp\cc5BNH7j.s:1416   .text.hau_sha_md5_digest_read:0000000000000832 .L0 
C:\Users\CYMR90~1\AppData\Local\Temp\cc5BNH7j.s:1418   .text.hau_sha_md5_digest_read:0000000000000838 .L0 
C:\Users\CYMR90~1\AppData\Local\Temp\cc5BNH7j.s:1420   .text.hau_sha_md5_digest_read:000000000000083c .L0 
C:\Users\CYMR90~1\AppData\Local\Temp\cc5BNH7j.s:1421   .text.hau_sha_md5_digest_read:000000000000083c .L0 
C:\Users\CYMR90~1\AppData\Local\Temp\cc5BNH7j.s:1423   .text.hau_sha_md5_digest_read:000000000000083e .L0 
C:\Users\CYMR90~1\AppData\Local\Temp\cc5BNH7j.s:1425   .text.hau_sha_md5_digest_read:0000000000000840 .L0 
C:\Users\CYMR90~1\AppData\Local\Temp\cc5BNH7j.s:1434   .text.hau_hash_calculate:0000000000000000 .L0 
C:\Users\CYMR90~1\AppData\Local\Temp\cc5BNH7j.s:1435   .text.hau_hash_calculate:0000000000000000 .L0 
C:\Users\CYMR90~1\AppData\Local\Temp\cc5BNH7j.s:1436   .text.hau_hash_calculate:0000000000000002 .L0 
C:\Users\CYMR90~1\AppData\Local\Temp\cc5BNH7j.s:1439   .text.hau_hash_calculate:0000000000000006 .L0 
C:\Users\CYMR90~1\AppData\Local\Temp\cc5BNH7j.s:1440   .text.hau_hash_calculate:0000000000000006 .L0 
C:\Users\CYMR90~1\AppData\Local\Temp\cc5BNH7j.s:1442   .text.hau_hash_calculate:0000000000000008 .L0 
C:\Users\CYMR90~1\AppData\Local\Temp\cc5BNH7j.s:1448   .text.hau_hash_calculate:0000000000000018 .L0 
C:\Users\CYMR90~1\AppData\Local\Temp\cc5BNH7j.s:1450   .text.hau_hash_calculate:000000000000001c .L0 
C:\Users\CYMR90~1\AppData\Local\Temp\cc5BNH7j.s:1452   .text.hau_hash_calculate:0000000000000020 .L0 
C:\Users\CYMR90~1\AppData\Local\Temp\cc5BNH7j.s:1454   .text.hau_hash_calculate:0000000000000024 .L0 
C:\Users\CYMR90~1\AppData\Local\Temp\cc5BNH7j.s:1456   .text.hau_hash_calculate:0000000000000028 .L0 
C:\Users\CYMR90~1\AppData\Local\Temp\cc5BNH7j.s:1459   .text.hau_hash_calculate:0000000000000030 .L0 
C:\Users\CYMR90~1\AppData\Local\Temp\cc5BNH7j.s:1462   .text.hau_hash_calculate:0000000000000036 .L0 
C:\Users\CYMR90~1\AppData\Local\Temp\cc5BNH7j.s:1464   .text.hau_hash_calculate:0000000000000038 .L0 
C:\Users\CYMR90~1\AppData\Local\Temp\cc5BNH7j.s:1466   .text.hau_hash_calculate:000000000000003c .L0 
C:\Users\CYMR90~1\AppData\Local\Temp\cc5BNH7j.s:1468   .text.hau_hash_calculate:0000000000000044 .L0 
C:\Users\CYMR90~1\AppData\Local\Temp\cc5BNH7j.s:1471   .text.hau_hash_calculate:000000000000004c .L0 
C:\Users\CYMR90~1\AppData\Local\Temp\cc5BNH7j.s:1473   .text.hau_hash_calculate:0000000000000050 .L0 
C:\Users\CYMR90~1\AppData\Local\Temp\cc5BNH7j.s:1476   .text.hau_hash_calculate:0000000000000058 .L0 
C:\Users\CYMR90~1\AppData\Local\Temp\cc5BNH7j.s:1480   .text.hau_hash_calculate:0000000000000066 .L0 
C:\Users\CYMR90~1\AppData\Local\Temp\cc5BNH7j.s:1484   .text.hau_hash_calculate:0000000000000074 .L0 
C:\Users\CYMR90~1\AppData\Local\Temp\cc5BNH7j.s:1486   .text.hau_hash_calculate:0000000000000078 .L0 
C:\Users\CYMR90~1\AppData\Local\Temp\cc5BNH7j.s:1489   .text.hau_hash_calculate:000000000000007a .L0 
C:\Users\CYMR90~1\AppData\Local\Temp\cc5BNH7j.s:1491   .text.hau_hash_calculate:000000000000007e .L0 
C:\Users\CYMR90~1\AppData\Local\Temp\cc5BNH7j.s:1495   .text.hau_hash_calculate:000000000000008a .L0 
C:\Users\CYMR90~1\AppData\Local\Temp\cc5BNH7j.s:1499   .text.hau_hash_calculate:0000000000000094 .L0 
C:\Users\CYMR90~1\AppData\Local\Temp\cc5BNH7j.s:1504   .text.hau_hash_calculate:000000000000009e .L0 
C:\Users\CYMR90~1\AppData\Local\Temp\cc5BNH7j.s:1508   .text.hau_hash_calculate:00000000000000aa .L0 
C:\Users\CYMR90~1\AppData\Local\Temp\cc5BNH7j.s:1511   .text.hau_hash_calculate:00000000000000b2 .L0 
C:\Users\CYMR90~1\AppData\Local\Temp\cc5BNH7j.s:1515   .text.hau_hash_calculate:00000000000000c0 .L0 
C:\Users\CYMR90~1\AppData\Local\Temp\cc5BNH7j.s:1519   .text.hau_hash_calculate:00000000000000ca .L0 
C:\Users\CYMR90~1\AppData\Local\Temp\cc5BNH7j.s:1521   .text.hau_hash_calculate:00000000000000ce .L0 
C:\Users\CYMR90~1\AppData\Local\Temp\cc5BNH7j.s:1524   .text.hau_hash_calculate:00000000000000d4 .L0 
C:\Users\CYMR90~1\AppData\Local\Temp\cc5BNH7j.s:1528   .text.hau_hash_calculate:00000000000000da .L0 
C:\Users\CYMR90~1\AppData\Local\Temp\cc5BNH7j.s:1531   .text.hau_hash_calculate:00000000000000e0 .L0 
C:\Users\CYMR90~1\AppData\Local\Temp\cc5BNH7j.s:1535   .text.hau_hash_calculate:00000000000000e4 .L0 
C:\Users\CYMR90~1\AppData\Local\Temp\cc5BNH7j.s:1539   .text.hau_hash_calculate:00000000000000f4 .L0 
C:\Users\CYMR90~1\AppData\Local\Temp\cc5BNH7j.s:1542   .text.hau_hash_calculate:00000000000000f6 .L0 
C:\Users\CYMR90~1\AppData\Local\Temp\cc5BNH7j.s:1544   .text.hau_hash_calculate:00000000000000fa .L0 
C:\Users\CYMR90~1\AppData\Local\Temp\cc5BNH7j.s:1546   .text.hau_hash_calculate:00000000000000fc .L0 
C:\Users\CYMR90~1\AppData\Local\Temp\cc5BNH7j.s:1547   .text.hau_hash_calculate:00000000000000fc .L0 
C:\Users\CYMR90~1\AppData\Local\Temp\cc5BNH7j.s:1549   .text.hau_hash_calculate:00000000000000fe .L0 
C:\Users\CYMR90~1\AppData\Local\Temp\cc5BNH7j.s:1551   .text.hau_hash_calculate:0000000000000100 .L0 
C:\Users\CYMR90~1\AppData\Local\Temp\cc5BNH7j.s:1560   .text.hau_hmac_calculate:0000000000000000 .L0 
C:\Users\CYMR90~1\AppData\Local\Temp\cc5BNH7j.s:1561   .text.hau_hmac_calculate:0000000000000000 .L0 
C:\Users\CYMR90~1\AppData\Local\Temp\cc5BNH7j.s:1562   .text.hau_hmac_calculate:0000000000000002 .L0 
C:\Users\CYMR90~1\AppData\Local\Temp\cc5BNH7j.s:1565   .text.hau_hmac_calculate:0000000000000006 .L0 
C:\Users\CYMR90~1\AppData\Local\Temp\cc5BNH7j.s:1566   .text.hau_hmac_calculate:0000000000000006 .L0 
C:\Users\CYMR90~1\AppData\Local\Temp\cc5BNH7j.s:1568   .text.hau_hmac_calculate:0000000000000008 .L0 
C:\Users\CYMR90~1\AppData\Local\Temp\cc5BNH7j.s:1576   .text.hau_hmac_calculate:0000000000000020 .L0 
C:\Users\CYMR90~1\AppData\Local\Temp\cc5BNH7j.s:1578   .text.hau_hmac_calculate:0000000000000024 .L0 
C:\Users\CYMR90~1\AppData\Local\Temp\cc5BNH7j.s:1580   .text.hau_hmac_calculate:0000000000000028 .L0 
C:\Users\CYMR90~1\AppData\Local\Temp\cc5BNH7j.s:1582   .text.hau_hmac_calculate:000000000000002c .L0 
C:\Users\CYMR90~1\AppData\Local\Temp\cc5BNH7j.s:1584   .text.hau_hmac_calculate:0000000000000030 .L0 
C:\Users\CYMR90~1\AppData\Local\Temp\cc5BNH7j.s:1586   .text.hau_hmac_calculate:0000000000000034 .L0 
C:\Users\CYMR90~1\AppData\Local\Temp\cc5BNH7j.s:1589   .text.hau_hmac_calculate:000000000000003c .L0 
C:\Users\CYMR90~1\AppData\Local\Temp\cc5BNH7j.s:1592   .text.hau_hmac_calculate:0000000000000044 .L0 
C:\Users\CYMR90~1\AppData\Local\Temp\cc5BNH7j.s:1603   .text.hau_hmac_calculate:000000000000005c .L0 
C:\Users\CYMR90~1\AppData\Local\Temp\cc5BNH7j.s:1614   .text.hau_hmac_calculate:0000000000000074 .L0 
C:\Users\CYMR90~1\AppData\Local\Temp\cc5BNH7j.s:1616   .text.hau_hmac_calculate:000000000000007c .L0 
C:\Users\CYMR90~1\AppData\Local\Temp\cc5BNH7j.s:1619   .text.hau_hmac_calculate:0000000000000084 .L0 
C:\Users\CYMR90~1\AppData\Local\Temp\cc5BNH7j.s:1622   .text.hau_hmac_calculate:000000000000008c .L0 
C:\Users\CYMR90~1\AppData\Local\Temp\cc5BNH7j.s:1625   .text.hau_hmac_calculate:0000000000000094 .L0 
C:\Users\CYMR90~1\AppData\Local\Temp\cc5BNH7j.s:1629   .text.hau_hmac_calculate:00000000000000a0 .L0 
C:\Users\CYMR90~1\AppData\Local\Temp\cc5BNH7j.s:1634   .text.hau_hmac_calculate:00000000000000a8 .L0 
C:\Users\CYMR90~1\AppData\Local\Temp\cc5BNH7j.s:1637   .text.hau_hmac_calculate:00000000000000ac .L0 
C:\Users\CYMR90~1\AppData\Local\Temp\cc5BNH7j.s:1641   .text.hau_hmac_calculate:00000000000000ba .L0 
C:\Users\CYMR90~1\AppData\Local\Temp\cc5BNH7j.s:1647   .text.hau_hmac_calculate:00000000000000cc .L0 
C:\Users\CYMR90~1\AppData\Local\Temp\cc5BNH7j.s:1649   .text.hau_hmac_calculate:00000000000000d0 .L0 
C:\Users\CYMR90~1\AppData\Local\Temp\cc5BNH7j.s:1652   .text.hau_hmac_calculate:00000000000000d2 .L0 
C:\Users\CYMR90~1\AppData\Local\Temp\cc5BNH7j.s:1654   .text.hau_hmac_calculate:00000000000000d6 .L0 
C:\Users\CYMR90~1\AppData\Local\Temp\cc5BNH7j.s:1658   .text.hau_hmac_calculate:00000000000000e2 .L0 
C:\Users\CYMR90~1\AppData\Local\Temp\cc5BNH7j.s:1662   .text.hau_hmac_calculate:00000000000000ec .L0 
C:\Users\CYMR90~1\AppData\Local\Temp\cc5BNH7j.s:1667   .text.hau_hmac_calculate:00000000000000f6 .L0 
C:\Users\CYMR90~1\AppData\Local\Temp\cc5BNH7j.s:1671   .text.hau_hmac_calculate:0000000000000102 .L0 
C:\Users\CYMR90~1\AppData\Local\Temp\cc5BNH7j.s:1674   .text.hau_hmac_calculate:000000000000010a .L0 
C:\Users\CYMR90~1\AppData\Local\Temp\cc5BNH7j.s:1678   .text.hau_hmac_calculate:0000000000000118 .L0 
C:\Users\CYMR90~1\AppData\Local\Temp\cc5BNH7j.s:1682   .text.hau_hmac_calculate:0000000000000122 .L0 
C:\Users\CYMR90~1\AppData\Local\Temp\cc5BNH7j.s:1684   .text.hau_hmac_calculate:0000000000000126 .L0 
C:\Users\CYMR90~1\AppData\Local\Temp\cc5BNH7j.s:1687   .text.hau_hmac_calculate:000000000000012c .L0 
C:\Users\CYMR90~1\AppData\Local\Temp\cc5BNH7j.s:1691   .text.hau_hmac_calculate:0000000000000132 .L0 
C:\Users\CYMR90~1\AppData\Local\Temp\cc5BNH7j.s:1694   .text.hau_hmac_calculate:0000000000000138 .L0 
C:\Users\CYMR90~1\AppData\Local\Temp\cc5BNH7j.s:1698   .text.hau_hmac_calculate:000000000000013c .L0 
C:\Users\CYMR90~1\AppData\Local\Temp\cc5BNH7j.s:1704   .text.hau_hmac_calculate:000000000000014e .L0 
C:\Users\CYMR90~1\AppData\Local\Temp\cc5BNH7j.s:1706   .text.hau_hmac_calculate:0000000000000152 .L0 
C:\Users\CYMR90~1\AppData\Local\Temp\cc5BNH7j.s:1709   .text.hau_hmac_calculate:0000000000000154 .L0 
C:\Users\CYMR90~1\AppData\Local\Temp\cc5BNH7j.s:1711   .text.hau_hmac_calculate:0000000000000158 .L0 
C:\Users\CYMR90~1\AppData\Local\Temp\cc5BNH7j.s:1715   .text.hau_hmac_calculate:0000000000000164 .L0 
C:\Users\CYMR90~1\AppData\Local\Temp\cc5BNH7j.s:1719   .text.hau_hmac_calculate:000000000000016e .L0 
C:\Users\CYMR90~1\AppData\Local\Temp\cc5BNH7j.s:1724   .text.hau_hmac_calculate:0000000000000178 .L0 
C:\Users\CYMR90~1\AppData\Local\Temp\cc5BNH7j.s:1728   .text.hau_hmac_calculate:0000000000000184 .L0 
C:\Users\CYMR90~1\AppData\Local\Temp\cc5BNH7j.s:1730   .text.hau_hmac_calculate:000000000000018c .L0 
C:\Users\CYMR90~1\AppData\Local\Temp\cc5BNH7j.s:1733   .text.hau_hmac_calculate:0000000000000190 .L0 
C:\Users\CYMR90~1\AppData\Local\Temp\cc5BNH7j.s:1737   .text.hau_hmac_calculate:000000000000019e .L0 
C:\Users\CYMR90~1\AppData\Local\Temp\cc5BNH7j.s:1741   .text.hau_hmac_calculate:00000000000001a8 .L0 
C:\Users\CYMR90~1\AppData\Local\Temp\cc5BNH7j.s:1743   .text.hau_hmac_calculate:00000000000001ac .L0 
C:\Users\CYMR90~1\AppData\Local\Temp\cc5BNH7j.s:1746   .text.hau_hmac_calculate:00000000000001b2 .L0 
C:\Users\CYMR90~1\AppData\Local\Temp\cc5BNH7j.s:1750   .text.hau_hmac_calculate:00000000000001b8 .L0 
C:\Users\CYMR90~1\AppData\Local\Temp\cc5BNH7j.s:1753   .text.hau_hmac_calculate:00000000000001be .L0 
C:\Users\CYMR90~1\AppData\Local\Temp\cc5BNH7j.s:1757   .text.hau_hmac_calculate:00000000000001c2 .L0 
C:\Users\CYMR90~1\AppData\Local\Temp\cc5BNH7j.s:1763   .text.hau_hmac_calculate:00000000000001d4 .L0 
C:\Users\CYMR90~1\AppData\Local\Temp\cc5BNH7j.s:1766   .text.hau_hmac_calculate:00000000000001dc .L0 
C:\Users\CYMR90~1\AppData\Local\Temp\cc5BNH7j.s:1768   .text.hau_hmac_calculate:00000000000001e0 .L0 
C:\Users\CYMR90~1\AppData\Local\Temp\cc5BNH7j.s:1771   .text.hau_hmac_calculate:00000000000001e2 .L0 
C:\Users\CYMR90~1\AppData\Local\Temp\cc5BNH7j.s:1773   .text.hau_hmac_calculate:00000000000001e6 .L0 
C:\Users\CYMR90~1\AppData\Local\Temp\cc5BNH7j.s:1777   .text.hau_hmac_calculate:00000000000001f2 .L0 
C:\Users\CYMR90~1\AppData\Local\Temp\cc5BNH7j.s:1781   .text.hau_hmac_calculate:00000000000001fc .L0 
C:\Users\CYMR90~1\AppData\Local\Temp\cc5BNH7j.s:1786   .text.hau_hmac_calculate:0000000000000206 .L0 
C:\Users\CYMR90~1\AppData\Local\Temp\cc5BNH7j.s:1790   .text.hau_hmac_calculate:0000000000000212 .L0 
C:\Users\CYMR90~1\AppData\Local\Temp\cc5BNH7j.s:1792   .text.hau_hmac_calculate:000000000000021a .L0 
C:\Users\CYMR90~1\AppData\Local\Temp\cc5BNH7j.s:1795   .text.hau_hmac_calculate:000000000000021e .L0 
C:\Users\CYMR90~1\AppData\Local\Temp\cc5BNH7j.s:1799   .text.hau_hmac_calculate:000000000000022c .L0 
C:\Users\CYMR90~1\AppData\Local\Temp\cc5BNH7j.s:1803   .text.hau_hmac_calculate:0000000000000236 .L0 
C:\Users\CYMR90~1\AppData\Local\Temp\cc5BNH7j.s:1805   .text.hau_hmac_calculate:000000000000023a .L0 
C:\Users\CYMR90~1\AppData\Local\Temp\cc5BNH7j.s:1808   .text.hau_hmac_calculate:0000000000000240 .L0 
C:\Users\CYMR90~1\AppData\Local\Temp\cc5BNH7j.s:1812   .text.hau_hmac_calculate:0000000000000246 .L0 
C:\Users\CYMR90~1\AppData\Local\Temp\cc5BNH7j.s:1815   .text.hau_hmac_calculate:000000000000024c .L0 
C:\Users\CYMR90~1\AppData\Local\Temp\cc5BNH7j.s:1819   .text.hau_hmac_calculate:0000000000000250 .L0 
C:\Users\CYMR90~1\AppData\Local\Temp\cc5BNH7j.s:1823   .text.hau_hmac_calculate:0000000000000260 .L0 
C:\Users\CYMR90~1\AppData\Local\Temp\cc5BNH7j.s:1826   .text.hau_hmac_calculate:0000000000000262 .L0 
C:\Users\CYMR90~1\AppData\Local\Temp\cc5BNH7j.s:1828   .text.hau_hmac_calculate:0000000000000266 .L0 
C:\Users\CYMR90~1\AppData\Local\Temp\cc5BNH7j.s:1830   .text.hau_hmac_calculate:0000000000000268 .L0 
C:\Users\CYMR90~1\AppData\Local\Temp\cc5BNH7j.s:1831   .text.hau_hmac_calculate:0000000000000268 .L0 
C:\Users\CYMR90~1\AppData\Local\Temp\cc5BNH7j.s:1833   .text.hau_hmac_calculate:000000000000026a .L0 
C:\Users\CYMR90~1\AppData\Local\Temp\cc5BNH7j.s:1835   .text.hau_hmac_calculate:000000000000026c .L0 
C:\Users\CYMR90~1\AppData\Local\Temp\cc5BNH7j.s:53     .text.hau_hash_sha_1:0000000000000040 .L0 
C:\Users\CYMR90~1\AppData\Local\Temp\cc5BNH7j.s:100    .text.hau_hmac_sha_1:0000000000000050 .L0 
C:\Users\CYMR90~1\AppData\Local\Temp\cc5BNH7j.s:143    .text.hau_hash_sha_224:0000000000000042 .L0 
C:\Users\CYMR90~1\AppData\Local\Temp\cc5BNH7j.s:190    .text.hau_hmac_sha_224:0000000000000052 .L0 
C:\Users\CYMR90~1\AppData\Local\Temp\cc5BNH7j.s:234    .text.hau_hash_sha_256:0000000000000046 .L0 
C:\Users\CYMR90~1\AppData\Local\Temp\cc5BNH7j.s:282    .text.hau_hmac_sha_256:0000000000000056 .L0 
C:\Users\CYMR90~1\AppData\Local\Temp\cc5BNH7j.s:325    .text.hau_hash_md5:0000000000000042 .L0 
C:\Users\CYMR90~1\AppData\Local\Temp\cc5BNH7j.s:372    .text.hau_hmac_md5:0000000000000052 .L0 
C:\Users\CYMR90~1\AppData\Local\Temp\cc5BNH7j.s:1428   .text.hau_sha_md5_digest_read:0000000000000840 .L0 
C:\Users\CYMR90~1\AppData\Local\Temp\cc5BNH7j.s:1554   .text.hau_hash_calculate:0000000000000100 .L0 
C:\Users\CYMR90~1\AppData\Local\Temp\cc5BNH7j.s:1838   .text.hau_hmac_calculate:000000000000026c .L0 
                     .debug_frame:0000000000000000 .L0 
C:\Users\CYMR90~1\AppData\Local\Temp\cc5BNH7j.s:913    .text.hau_sha_md5_digest_read:000000000000044c .L18
C:\Users\CYMR90~1\AppData\Local\Temp\cc5BNH7j.s:1411   .text.hau_sha_md5_digest_read:0000000000000830 .L48
C:\Users\CYMR90~1\AppData\Local\Temp\cc5BNH7j.s:623    .text.hau_sha_md5_digest_read:0000000000000208 .L20
C:\Users\CYMR90~1\AppData\Local\Temp\cc5BNH7j.s:414    .text.hau_sha_md5_digest_read:0000000000000068 .L21
C:\Users\CYMR90~1\AppData\Local\Temp\cc5BNH7j.s:1244   .text.hau_sha_md5_digest_read:00000000000006e2 .L22
C:\Users\CYMR90~1\AppData\Local\Temp\cc5BNH7j.s:1414   .text.hau_sha_md5_digest_read:0000000000000832 .L28
C:\Users\CYMR90~1\AppData\Local\Temp\cc5BNH7j.s:1502   .text.hau_hash_calculate:000000000000009e .L50
C:\Users\CYMR90~1\AppData\Local\Temp\cc5BNH7j.s:1487   .text.hau_hash_calculate:000000000000007a .L51
C:\Users\CYMR90~1\AppData\Local\Temp\cc5BNH7j.s:1526   .text.hau_hash_calculate:00000000000000da .L52
C:\Users\CYMR90~1\AppData\Local\Temp\cc5BNH7j.s:1509   .text.hau_hash_calculate:00000000000000b2 .L53
C:\Users\CYMR90~1\AppData\Local\Temp\cc5BNH7j.s:1533   .text.hau_hash_calculate:00000000000000e4 .L54
C:\Users\CYMR90~1\AppData\Local\Temp\cc5BNH7j.s:1540   .text.hau_hash_calculate:00000000000000f6 .L56
C:\Users\CYMR90~1\AppData\Local\Temp\cc5BNH7j.s:1632   .text.hau_hmac_calculate:00000000000000a8 .L58
C:\Users\CYMR90~1\AppData\Local\Temp\cc5BNH7j.s:1635   .text.hau_hmac_calculate:00000000000000ac .L59
C:\Users\CYMR90~1\AppData\Local\Temp\cc5BNH7j.s:1665   .text.hau_hmac_calculate:00000000000000f6 .L60
C:\Users\CYMR90~1\AppData\Local\Temp\cc5BNH7j.s:1650   .text.hau_hmac_calculate:00000000000000d2 .L61
C:\Users\CYMR90~1\AppData\Local\Temp\cc5BNH7j.s:1689   .text.hau_hmac_calculate:0000000000000132 .L62
C:\Users\CYMR90~1\AppData\Local\Temp\cc5BNH7j.s:1672   .text.hau_hmac_calculate:000000000000010a .L63
C:\Users\CYMR90~1\AppData\Local\Temp\cc5BNH7j.s:1696   .text.hau_hmac_calculate:000000000000013c .L64
C:\Users\CYMR90~1\AppData\Local\Temp\cc5BNH7j.s:1824   .text.hau_hmac_calculate:0000000000000262 .L76
C:\Users\CYMR90~1\AppData\Local\Temp\cc5BNH7j.s:1722   .text.hau_hmac_calculate:0000000000000178 .L66
C:\Users\CYMR90~1\AppData\Local\Temp\cc5BNH7j.s:1707   .text.hau_hmac_calculate:0000000000000154 .L67
C:\Users\CYMR90~1\AppData\Local\Temp\cc5BNH7j.s:1748   .text.hau_hmac_calculate:00000000000001b8 .L68
C:\Users\CYMR90~1\AppData\Local\Temp\cc5BNH7j.s:1731   .text.hau_hmac_calculate:0000000000000190 .L69
C:\Users\CYMR90~1\AppData\Local\Temp\cc5BNH7j.s:1755   .text.hau_hmac_calculate:00000000000001c2 .L70
C:\Users\CYMR90~1\AppData\Local\Temp\cc5BNH7j.s:1784   .text.hau_hmac_calculate:0000000000000206 .L71
C:\Users\CYMR90~1\AppData\Local\Temp\cc5BNH7j.s:1769   .text.hau_hmac_calculate:00000000000001e2 .L72
C:\Users\CYMR90~1\AppData\Local\Temp\cc5BNH7j.s:1810   .text.hau_hmac_calculate:0000000000000246 .L73
C:\Users\CYMR90~1\AppData\Local\Temp\cc5BNH7j.s:1793   .text.hau_hmac_calculate:000000000000021e .L74
C:\Users\CYMR90~1\AppData\Local\Temp\cc5BNH7j.s:1817   .text.hau_hmac_calculate:0000000000000250 .L75
C:\Users\CYMR90~1\AppData\Local\Temp\cc5BNH7j.s:3274   .debug_abbrev:0000000000000000 .Ldebug_abbrev0
C:\Users\CYMR90~1\AppData\Local\Temp\cc5BNH7j.s:24195  .debug_str:000000000000ad36 .LASF5606
C:\Users\CYMR90~1\AppData\Local\Temp\cc5BNH7j.s:24913  .debug_str:000000000000dd69 .LASF5607
C:\Users\CYMR90~1\AppData\Local\Temp\cc5BNH7j.s:24493  .debug_str:000000000000c1a3 .LASF5608
C:\Users\CYMR90~1\AppData\Local\Temp\cc5BNH7j.s:3807   .debug_ranges:0000000000000000 .Ldebug_ranges0
C:\Users\CYMR90~1\AppData\Local\Temp\cc5BNH7j.s:21471  .debug_line:0000000000000000 .Ldebug_line0
C:\Users\CYMR90~1\AppData\Local\Temp\cc5BNH7j.s:3833   .debug_macro:0000000000000000 .Ldebug_macro0
C:\Users\CYMR90~1\AppData\Local\Temp\cc5BNH7j.s:32654  .debug_str:000000000002cc90 .LASF5557
C:\Users\CYMR90~1\AppData\Local\Temp\cc5BNH7j.s:21489  .debug_str:000000000000011c .LASF5558
C:\Users\CYMR90~1\AppData\Local\Temp\cc5BNH7j.s:22403  .debug_str:00000000000039f9 .LASF5559
C:\Users\CYMR90~1\AppData\Local\Temp\cc5BNH7j.s:27554  .debug_str:0000000000018674 .LASF5560
C:\Users\CYMR90~1\AppData\Local\Temp\cc5BNH7j.s:23689  .debug_str:0000000000008d86 .LASF5563
C:\Users\CYMR90~1\AppData\Local\Temp\cc5BNH7j.s:27009  .debug_str:0000000000016319 .LASF5561
C:\Users\CYMR90~1\AppData\Local\Temp\cc5BNH7j.s:28876  .debug_str:000000000001de17 .LASF5562
C:\Users\CYMR90~1\AppData\Local\Temp\cc5BNH7j.s:24993  .debug_str:000000000000e269 .LASF5564
C:\Users\CYMR90~1\AppData\Local\Temp\cc5BNH7j.s:26489  .debug_str:00000000000142c9 .LASF5565
C:\Users\CYMR90~1\AppData\Local\Temp\cc5BNH7j.s:29280  .debug_str:000000000001f60c .LASF5566
C:\Users\CYMR90~1\AppData\Local\Temp\cc5BNH7j.s:27762  .debug_str:00000000000194cc .LASF5567
C:\Users\CYMR90~1\AppData\Local\Temp\cc5BNH7j.s:21601  .debug_str:00000000000007ce .LASF5568
C:\Users\CYMR90~1\AppData\Local\Temp\cc5BNH7j.s:30834  .debug_str:000000000002585f .LASF5569
C:\Users\CYMR90~1\AppData\Local\Temp\cc5BNH7j.s:29302  .debug_str:000000000001f776 .LASF855
C:\Users\CYMR90~1\AppData\Local\Temp\cc5BNH7j.s:26779  .debug_str:0000000000015494 .LASF5570
C:\Users\CYMR90~1\AppData\Local\Temp\cc5BNH7j.s:30766  .debug_str:0000000000025354 .LASF5571
C:\Users\CYMR90~1\AppData\Local\Temp\cc5BNH7j.s:30950  .debug_str:0000000000025fa1 .LASF5572
C:\Users\CYMR90~1\AppData\Local\Temp\cc5BNH7j.s:30530  .debug_str:00000000000242ec .LASF5573
C:\Users\CYMR90~1\AppData\Local\Temp\cc5BNH7j.s:29082  .debug_str:000000000001ea6a .LASF5574
C:\Users\CYMR90~1\AppData\Local\Temp\cc5BNH7j.s:26337  .debug_str:0000000000013982 .LASF5575
C:\Users\CYMR90~1\AppData\Local\Temp\cc5BNH7j.s:32630  .debug_str:000000000002cb21 .LASF5576
C:\Users\CYMR90~1\AppData\Local\Temp\cc5BNH7j.s:29118  .debug_str:000000000001ec5b .LASF5577
C:\Users\CYMR90~1\AppData\Local\Temp\cc5BNH7j.s:31902  .debug_str:0000000000029c88 .LASF5578
C:\Users\CYMR90~1\AppData\Local\Temp\cc5BNH7j.s:30478  .debug_str:0000000000023f51 .LASF5579
C:\Users\CYMR90~1\AppData\Local\Temp\cc5BNH7j.s:27468  .debug_str:0000000000018178 .LASF5580
C:\Users\CYMR90~1\AppData\Local\Temp\cc5BNH7j.s:28778  .debug_str:000000000001d82d .LASF5581
C:\Users\CYMR90~1\AppData\Local\Temp\cc5BNH7j.s:22013  .debug_str:00000000000020df .LASF5582
C:\Users\CYMR90~1\AppData\Local\Temp\cc5BNH7j.s:28286  .debug_str:000000000001b818 .LASF5594
C:\Users\CYMR90~1\AppData\Local\Temp\cc5BNH7j.s:1558   .text.hau_hmac_calculate:0000000000000000 .LFB357
C:\Users\CYMR90~1\AppData\Local\Temp\cc5BNH7j.s:1836   .text.hau_hmac_calculate:000000000000026c .LFE357
C:\Users\CYMR90~1\AppData\Local\Temp\cc5BNH7j.s:22889  .debug_str:00000000000058eb .LASF5583
C:\Users\CYMR90~1\AppData\Local\Temp\cc5BNH7j.s:22599  .debug_str:00000000000046fa .LASF5584
C:\Users\CYMR90~1\AppData\Local\Temp\cc5BNH7j.s:26405  .debug_str:0000000000013d6c .LASF5585
C:\Users\CYMR90~1\AppData\Local\Temp\cc5BNH7j.s:28586  .debug_str:000000000001cb0b .LASF5586
C:\Users\CYMR90~1\AppData\Local\Temp\cc5BNH7j.s:24683  .debug_str:000000000000ce9e .LASF5587
C:\Users\CYMR90~1\AppData\Local\Temp\cc5BNH7j.s:25845  .debug_str:00000000000118e1 .LASF5588
C:\Users\CYMR90~1\AppData\Local\Temp\cc5BNH7j.s:22079  .debug_str:00000000000024b9 .LASF5589
C:\Users\CYMR90~1\AppData\Local\Temp\cc5BNH7j.s:31802  .debug_str:00000000000296c9 .LASF5590
C:\Users\CYMR90~1\AppData\Local\Temp\cc5BNH7j.s:26397  .debug_str:0000000000013d14 .LASF5591
C:\Users\CYMR90~1\AppData\Local\Temp\cc5BNH7j.s:24549  .debug_str:000000000000c52a .LASF5592
C:\Users\CYMR90~1\AppData\Local\Temp\cc5BNH7j.s:32592  .debug_str:000000000002c890 .LASF5593
C:\Users\CYMR90~1\AppData\Local\Temp\cc5BNH7j.s:27874  .debug_str:0000000000019c68 .LASF5595
C:\Users\CYMR90~1\AppData\Local\Temp\cc5BNH7j.s:1432   .text.hau_hash_calculate:0000000000000000 .LFB356
C:\Users\CYMR90~1\AppData\Local\Temp\cc5BNH7j.s:1552   .text.hau_hash_calculate:0000000000000100 .LFE356
C:\Users\CYMR90~1\AppData\Local\Temp\cc5BNH7j.s:27560  .debug_str:00000000000186c2 .LASF5609
C:\Users\CYMR90~1\AppData\Local\Temp\cc5BNH7j.s:376    .text.hau_sha_md5_digest_read:0000000000000000 .LFB355
C:\Users\CYMR90~1\AppData\Local\Temp\cc5BNH7j.s:1426   .text.hau_sha_md5_digest_read:0000000000000840 .LFE355
C:\Users\CYMR90~1\AppData\Local\Temp\cc5BNH7j.s:21833  .debug_str:00000000000015ff .LASF5596
C:\Users\CYMR90~1\AppData\Local\Temp\cc5BNH7j.s:32134  .debug_str:000000000002aa4e .LASF5597
C:\Users\CYMR90~1\AppData\Local\Temp\cc5BNH7j.s:424    .text.hau_sha_md5_digest_read:0000000000000082 .LBB50
C:\Users\CYMR90~1\AppData\Local\Temp\cc5BNH7j.s:454    .text.hau_sha_md5_digest_read:00000000000000bc .LBE50
C:\Users\CYMR90~1\AppData\Local\Temp\cc5BNH7j.s:466    .text.hau_sha_md5_digest_read:00000000000000d4 .LBB52
C:\Users\CYMR90~1\AppData\Local\Temp\cc5BNH7j.s:495    .text.hau_sha_md5_digest_read:000000000000010e .LBE52
C:\Users\CYMR90~1\AppData\Local\Temp\cc5BNH7j.s:507    .text.hau_sha_md5_digest_read:0000000000000126 .LBB54
C:\Users\CYMR90~1\AppData\Local\Temp\cc5BNH7j.s:536    .text.hau_sha_md5_digest_read:0000000000000160 .LBE54
C:\Users\CYMR90~1\AppData\Local\Temp\cc5BNH7j.s:548    .text.hau_sha_md5_digest_read:0000000000000178 .LBB56
C:\Users\CYMR90~1\AppData\Local\Temp\cc5BNH7j.s:577    .text.hau_sha_md5_digest_read:00000000000001b2 .LBE56
C:\Users\CYMR90~1\AppData\Local\Temp\cc5BNH7j.s:589    .text.hau_sha_md5_digest_read:00000000000001ca .LBB58
C:\Users\CYMR90~1\AppData\Local\Temp\cc5BNH7j.s:618    .text.hau_sha_md5_digest_read:0000000000000204 .LBE58
C:\Users\CYMR90~1\AppData\Local\Temp\cc5BNH7j.s:633    .text.hau_sha_md5_digest_read:0000000000000222 .LBB60
C:\Users\CYMR90~1\AppData\Local\Temp\cc5BNH7j.s:662    .text.hau_sha_md5_digest_read:000000000000025c .LBE60
C:\Users\CYMR90~1\AppData\Local\Temp\cc5BNH7j.s:674    .text.hau_sha_md5_digest_read:0000000000000274 .LBB62
C:\Users\CYMR90~1\AppData\Local\Temp\cc5BNH7j.s:703    .text.hau_sha_md5_digest_read:00000000000002ae .LBE62
C:\Users\CYMR90~1\AppData\Local\Temp\cc5BNH7j.s:715    .text.hau_sha_md5_digest_read:00000000000002c6 .LBB64
C:\Users\CYMR90~1\AppData\Local\Temp\cc5BNH7j.s:744    .text.hau_sha_md5_digest_read:0000000000000300 .LBE64
C:\Users\CYMR90~1\AppData\Local\Temp\cc5BNH7j.s:756    .text.hau_sha_md5_digest_read:0000000000000318 .LBB66
C:\Users\CYMR90~1\AppData\Local\Temp\cc5BNH7j.s:785    .text.hau_sha_md5_digest_read:0000000000000352 .LBE66
C:\Users\CYMR90~1\AppData\Local\Temp\cc5BNH7j.s:797    .text.hau_sha_md5_digest_read:000000000000036a .LBB68
C:\Users\CYMR90~1\AppData\Local\Temp\cc5BNH7j.s:826    .text.hau_sha_md5_digest_read:00000000000003a4 .LBE68
C:\Users\CYMR90~1\AppData\Local\Temp\cc5BNH7j.s:838    .text.hau_sha_md5_digest_read:00000000000003bc .LBB70
C:\Users\CYMR90~1\AppData\Local\Temp\cc5BNH7j.s:867    .text.hau_sha_md5_digest_read:00000000000003f6 .LBE70
C:\Users\CYMR90~1\AppData\Local\Temp\cc5BNH7j.s:879    .text.hau_sha_md5_digest_read:000000000000040e .LBB72
C:\Users\CYMR90~1\AppData\Local\Temp\cc5BNH7j.s:908    .text.hau_sha_md5_digest_read:0000000000000448 .LBE72
C:\Users\CYMR90~1\AppData\Local\Temp\cc5BNH7j.s:923    .text.hau_sha_md5_digest_read:0000000000000466 .LBB74
C:\Users\CYMR90~1\AppData\Local\Temp\cc5BNH7j.s:952    .text.hau_sha_md5_digest_read:00000000000004a0 .LBE74
C:\Users\CYMR90~1\AppData\Local\Temp\cc5BNH7j.s:964    .text.hau_sha_md5_digest_read:00000000000004b8 .LBB76
C:\Users\CYMR90~1\AppData\Local\Temp\cc5BNH7j.s:993    .text.hau_sha_md5_digest_read:00000000000004f2 .LBE76
C:\Users\CYMR90~1\AppData\Local\Temp\cc5BNH7j.s:1005   .text.hau_sha_md5_digest_read:000000000000050a .LBB78
C:\Users\CYMR90~1\AppData\Local\Temp\cc5BNH7j.s:1034   .text.hau_sha_md5_digest_read:0000000000000544 .LBE78
C:\Users\CYMR90~1\AppData\Local\Temp\cc5BNH7j.s:1046   .text.hau_sha_md5_digest_read:000000000000055c .LBB80
C:\Users\CYMR90~1\AppData\Local\Temp\cc5BNH7j.s:1075   .text.hau_sha_md5_digest_read:0000000000000596 .LBE80
C:\Users\CYMR90~1\AppData\Local\Temp\cc5BNH7j.s:1087   .text.hau_sha_md5_digest_read:00000000000005ae .LBB82
C:\Users\CYMR90~1\AppData\Local\Temp\cc5BNH7j.s:1116   .text.hau_sha_md5_digest_read:00000000000005e8 .LBE82
C:\Users\CYMR90~1\AppData\Local\Temp\cc5BNH7j.s:1128   .text.hau_sha_md5_digest_read:0000000000000600 .LBB84
C:\Users\CYMR90~1\AppData\Local\Temp\cc5BNH7j.s:1157   .text.hau_sha_md5_digest_read:000000000000063a .LBE84
C:\Users\CYMR90~1\AppData\Local\Temp\cc5BNH7j.s:1169   .text.hau_sha_md5_digest_read:0000000000000652 .LBB86
C:\Users\CYMR90~1\AppData\Local\Temp\cc5BNH7j.s:1198   .text.hau_sha_md5_digest_read:000000000000068c .LBE86
C:\Users\CYMR90~1\AppData\Local\Temp\cc5BNH7j.s:1210   .text.hau_sha_md5_digest_read:00000000000006a4 .LBB88
C:\Users\CYMR90~1\AppData\Local\Temp\cc5BNH7j.s:1239   .text.hau_sha_md5_digest_read:00000000000006de .LBE88
C:\Users\CYMR90~1\AppData\Local\Temp\cc5BNH7j.s:1254   .text.hau_sha_md5_digest_read:00000000000006fc .LBB90
C:\Users\CYMR90~1\AppData\Local\Temp\cc5BNH7j.s:1283   .text.hau_sha_md5_digest_read:0000000000000736 .LBE90
C:\Users\CYMR90~1\AppData\Local\Temp\cc5BNH7j.s:1295   .text.hau_sha_md5_digest_read:000000000000074e .LBB92
C:\Users\CYMR90~1\AppData\Local\Temp\cc5BNH7j.s:1324   .text.hau_sha_md5_digest_read:0000000000000788 .LBE92
C:\Users\CYMR90~1\AppData\Local\Temp\cc5BNH7j.s:1336   .text.hau_sha_md5_digest_read:00000000000007a0 .LBB94
C:\Users\CYMR90~1\AppData\Local\Temp\cc5BNH7j.s:1365   .text.hau_sha_md5_digest_read:00000000000007da .LBE94
C:\Users\CYMR90~1\AppData\Local\Temp\cc5BNH7j.s:1377   .text.hau_sha_md5_digest_read:00000000000007f2 .LBB96
C:\Users\CYMR90~1\AppData\Local\Temp\cc5BNH7j.s:1406   .text.hau_sha_md5_digest_read:000000000000082c .LBE96
C:\Users\CYMR90~1\AppData\Local\Temp\cc5BNH7j.s:29376  .debug_str:000000000001fbfe .LASF5598
C:\Users\CYMR90~1\AppData\Local\Temp\cc5BNH7j.s:330    .text.hau_hmac_md5:0000000000000000 .LFB354
C:\Users\CYMR90~1\AppData\Local\Temp\cc5BNH7j.s:370    .text.hau_hmac_md5:0000000000000052 .LFE354
C:\Users\CYMR90~1\AppData\Local\Temp\cc5BNH7j.s:24431  .debug_str:000000000000bdf3 .LASF5599
C:\Users\CYMR90~1\AppData\Local\Temp\cc5BNH7j.s:287    .text.hau_hash_md5:0000000000000000 .LFB353
C:\Users\CYMR90~1\AppData\Local\Temp\cc5BNH7j.s:323    .text.hau_hash_md5:0000000000000042 .LFE353
C:\Users\CYMR90~1\AppData\Local\Temp\cc5BNH7j.s:26273  .debug_str:00000000000135b3 .LASF5600
C:\Users\CYMR90~1\AppData\Local\Temp\cc5BNH7j.s:239    .text.hau_hmac_sha_256:0000000000000000 .LFB352
C:\Users\CYMR90~1\AppData\Local\Temp\cc5BNH7j.s:280    .text.hau_hmac_sha_256:0000000000000056 .LFE352
C:\Users\CYMR90~1\AppData\Local\Temp\cc5BNH7j.s:32342  .debug_str:000000000002b7a4 .LASF5601
C:\Users\CYMR90~1\AppData\Local\Temp\cc5BNH7j.s:195    .text.hau_hash_sha_256:0000000000000000 .LFB351
C:\Users\CYMR90~1\AppData\Local\Temp\cc5BNH7j.s:232    .text.hau_hash_sha_256:0000000000000046 .LFE351
C:\Users\CYMR90~1\AppData\Local\Temp\cc5BNH7j.s:25991  .debug_str:00000000000122d8 .LASF5602
C:\Users\CYMR90~1\AppData\Local\Temp\cc5BNH7j.s:148    .text.hau_hmac_sha_224:0000000000000000 .LFB350
C:\Users\CYMR90~1\AppData\Local\Temp\cc5BNH7j.s:188    .text.hau_hmac_sha_224:0000000000000052 .LFE350
C:\Users\CYMR90~1\AppData\Local\Temp\cc5BNH7j.s:32038  .debug_str:000000000002a4c4 .LASF5603
C:\Users\CYMR90~1\AppData\Local\Temp\cc5BNH7j.s:105    .text.hau_hash_sha_224:0000000000000000 .LFB349
C:\Users\CYMR90~1\AppData\Local\Temp\cc5BNH7j.s:141    .text.hau_hash_sha_224:0000000000000042 .LFE349
C:\Users\CYMR90~1\AppData\Local\Temp\cc5BNH7j.s:28084  .debug_str:000000000001ab21 .LASF5604
C:\Users\CYMR90~1\AppData\Local\Temp\cc5BNH7j.s:58     .text.hau_hmac_sha_1:0000000000000000 .LFB348
C:\Users\CYMR90~1\AppData\Local\Temp\cc5BNH7j.s:98     .text.hau_hmac_sha_1:0000000000000050 .LFE348
C:\Users\CYMR90~1\AppData\Local\Temp\cc5BNH7j.s:23943  .debug_str:0000000000009d17 .LASF5605
C:\Users\CYMR90~1\AppData\Local\Temp\cc5BNH7j.s:14     .text.hau_hash_sha_1:0000000000000000 .LFB347
C:\Users\CYMR90~1\AppData\Local\Temp\cc5BNH7j.s:51     .text.hau_hash_sha_1:0000000000000040 .LFE347
C:\Users\CYMR90~1\AppData\Local\Temp\cc5BNH7j.s:32118  .debug_str:000000000002a987 .LASF5610
C:\Users\CYMR90~1\AppData\Local\Temp\cc5BNH7j.s:27772  .debug_str:0000000000019566 .LASF5611
C:\Users\CYMR90~1\AppData\Local\Temp\cc5BNH7j.s:22077  .debug_str:00000000000024b2 .LASF5612
C:\Users\CYMR90~1\AppData\Local\Temp\cc5BNH7j.s:1845   .debug_info:0000000000000000 .Ldebug_info0
C:\Users\CYMR90~1\AppData\Local\Temp\cc5BNH7j.s:4456   .debug_macro:0000000000000000 .Ldebug_macro2
C:\Users\CYMR90~1\AppData\Local\Temp\cc5BNH7j.s:30176  .debug_str:0000000000022cae .LASF314
C:\Users\CYMR90~1\AppData\Local\Temp\cc5BNH7j.s:27186  .debug_str:0000000000017086 .LASF315
C:\Users\CYMR90~1\AppData\Local\Temp\cc5BNH7j.s:5403   .debug_macro:0000000000000000 .Ldebug_macro3
C:\Users\CYMR90~1\AppData\Local\Temp\cc5BNH7j.s:23637  .debug_str:0000000000008a10 .LASF369
C:\Users\CYMR90~1\AppData\Local\Temp\cc5BNH7j.s:23205  .debug_str:0000000000006c95 .LASF370
C:\Users\CYMR90~1\AppData\Local\Temp\cc5BNH7j.s:27428  .debug_str:0000000000017f20 .LASF371
C:\Users\CYMR90~1\AppData\Local\Temp\cc5BNH7j.s:5567   .debug_macro:0000000000000000 .Ldebug_macro4
C:\Users\CYMR90~1\AppData\Local\Temp\cc5BNH7j.s:5587   .debug_macro:0000000000000000 .Ldebug_macro5
C:\Users\CYMR90~1\AppData\Local\Temp\cc5BNH7j.s:26087  .debug_str:0000000000012921 .LASF390
C:\Users\CYMR90~1\AppData\Local\Temp\cc5BNH7j.s:5631   .debug_macro:0000000000000000 .Ldebug_macro6
C:\Users\CYMR90~1\AppData\Local\Temp\cc5BNH7j.s:5645   .debug_macro:0000000000000000 .Ldebug_macro7
C:\Users\CYMR90~1\AppData\Local\Temp\cc5BNH7j.s:5713   .debug_macro:0000000000000000 .Ldebug_macro8
C:\Users\CYMR90~1\AppData\Local\Temp\cc5BNH7j.s:5739   .debug_macro:0000000000000000 .Ldebug_macro9
C:\Users\CYMR90~1\AppData\Local\Temp\cc5BNH7j.s:5768   .debug_macro:0000000000000000 .Ldebug_macro10
C:\Users\CYMR90~1\AppData\Local\Temp\cc5BNH7j.s:27566  .debug_str:000000000001874a .LASF433
C:\Users\CYMR90~1\AppData\Local\Temp\cc5BNH7j.s:5782   .debug_macro:0000000000000000 .Ldebug_macro11
C:\Users\CYMR90~1\AppData\Local\Temp\cc5BNH7j.s:5826   .debug_macro:0000000000000000 .Ldebug_macro12
C:\Users\CYMR90~1\AppData\Local\Temp\cc5BNH7j.s:5852   .debug_macro:0000000000000000 .Ldebug_macro13
C:\Users\CYMR90~1\AppData\Local\Temp\cc5BNH7j.s:31112  .debug_str:000000000002699c .LASF569
C:\Users\CYMR90~1\AppData\Local\Temp\cc5BNH7j.s:6223   .debug_macro:0000000000000000 .Ldebug_macro14
C:\Users\CYMR90~1\AppData\Local\Temp\cc5BNH7j.s:25613  .debug_str:000000000001094d .LASF572
C:\Users\CYMR90~1\AppData\Local\Temp\cc5BNH7j.s:30454  .debug_str:0000000000023d45 .LASF573
C:\Users\CYMR90~1\AppData\Local\Temp\cc5BNH7j.s:6234   .debug_macro:0000000000000000 .Ldebug_macro15
C:\Users\CYMR90~1\AppData\Local\Temp\cc5BNH7j.s:6248   .debug_macro:0000000000000000 .Ldebug_macro16
C:\Users\CYMR90~1\AppData\Local\Temp\cc5BNH7j.s:22169  .debug_str:0000000000002aa6 .LASF578
C:\Users\CYMR90~1\AppData\Local\Temp\cc5BNH7j.s:6280   .debug_macro:0000000000000000 .Ldebug_macro17
C:\Users\CYMR90~1\AppData\Local\Temp\cc5BNH7j.s:6306   .debug_macro:0000000000000000 .Ldebug_macro18
C:\Users\CYMR90~1\AppData\Local\Temp\cc5BNH7j.s:6317   .debug_macro:0000000000000000 .Ldebug_macro19
C:\Users\CYMR90~1\AppData\Local\Temp\cc5BNH7j.s:6361   .debug_macro:0000000000000000 .Ldebug_macro20
C:\Users\CYMR90~1\AppData\Local\Temp\cc5BNH7j.s:6531   .debug_macro:0000000000000000 .Ldebug_macro21
C:\Users\CYMR90~1\AppData\Local\Temp\cc5BNH7j.s:6542   .debug_macro:0000000000000000 .Ldebug_macro22
C:\Users\CYMR90~1\AppData\Local\Temp\cc5BNH7j.s:26093  .debug_str:000000000001297a .LASF675
C:\Users\CYMR90~1\AppData\Local\Temp\cc5BNH7j.s:6598   .debug_macro:0000000000000000 .Ldebug_macro23
C:\Users\CYMR90~1\AppData\Local\Temp\cc5BNH7j.s:6615   .debug_macro:0000000000000000 .Ldebug_macro24
C:\Users\CYMR90~1\AppData\Local\Temp\cc5BNH7j.s:29272  .debug_str:000000000001f59c .LASF693
C:\Users\CYMR90~1\AppData\Local\Temp\cc5BNH7j.s:27434  .debug_str:0000000000017f51 .LASF694
C:\Users\CYMR90~1\AppData\Local\Temp\cc5BNH7j.s:6659   .debug_macro:0000000000000000 .Ldebug_macro25
C:\Users\CYMR90~1\AppData\Local\Temp\cc5BNH7j.s:22671  .debug_str:0000000000004bf4 .LASF700
C:\Users\CYMR90~1\AppData\Local\Temp\cc5BNH7j.s:23775  .debug_str:0000000000009263 .LASF701
C:\Users\CYMR90~1\AppData\Local\Temp\cc5BNH7j.s:6679   .debug_macro:0000000000000000 .Ldebug_macro26
C:\Users\CYMR90~1\AppData\Local\Temp\cc5BNH7j.s:6690   .debug_macro:0000000000000000 .Ldebug_macro27
C:\Users\CYMR90~1\AppData\Local\Temp\cc5BNH7j.s:6734   .debug_macro:0000000000000000 .Ldebug_macro28
C:\Users\CYMR90~1\AppData\Local\Temp\cc5BNH7j.s:23035  .debug_str:0000000000006203 .LASF749
C:\Users\CYMR90~1\AppData\Local\Temp\cc5BNH7j.s:6835   .debug_macro:0000000000000000 .Ldebug_macro29
C:\Users\CYMR90~1\AppData\Local\Temp\cc5BNH7j.s:6852   .debug_macro:0000000000000000 .Ldebug_macro30
C:\Users\CYMR90~1\AppData\Local\Temp\cc5BNH7j.s:21537  .debug_str:0000000000000414 .LASF763
C:\Users\CYMR90~1\AppData\Local\Temp\cc5BNH7j.s:22847  .debug_str:0000000000005692 .LASF764
C:\Users\CYMR90~1\AppData\Local\Temp\cc5BNH7j.s:6884   .debug_macro:0000000000000000 .Ldebug_macro31
C:\Users\CYMR90~1\AppData\Local\Temp\cc5BNH7j.s:6898   .debug_macro:0000000000000000 .Ldebug_macro32
C:\Users\CYMR90~1\AppData\Local\Temp\cc5BNH7j.s:7068   .debug_macro:0000000000000000 .Ldebug_macro33
C:\Users\CYMR90~1\AppData\Local\Temp\cc5BNH7j.s:25273  .debug_str:000000000000f389 .LASF850
C:\Users\CYMR90~1\AppData\Local\Temp\cc5BNH7j.s:27652  .debug_str:0000000000018d75 .LASF851
C:\Users\CYMR90~1\AppData\Local\Temp\cc5BNH7j.s:7154   .debug_macro:0000000000000000 .Ldebug_macro34
C:\Users\CYMR90~1\AppData\Local\Temp\cc5BNH7j.s:7279   .debug_macro:0000000000000000 .Ldebug_macro35
C:\Users\CYMR90~1\AppData\Local\Temp\cc5BNH7j.s:21815  .debug_str:00000000000014d8 .LASF951
C:\Users\CYMR90~1\AppData\Local\Temp\cc5BNH7j.s:7491   .debug_macro:0000000000000000 .Ldebug_macro36
C:\Users\CYMR90~1\AppData\Local\Temp\cc5BNH7j.s:23523  .debug_str:00000000000082dc .LASF957
C:\Users\CYMR90~1\AppData\Local\Temp\cc5BNH7j.s:23085  .debug_str:00000000000064e7 .LASF958
C:\Users\CYMR90~1\AppData\Local\Temp\cc5BNH7j.s:21983  .debug_str:0000000000001f76 .LASF959
C:\Users\CYMR90~1\AppData\Local\Temp\cc5BNH7j.s:7511   .debug_macro:0000000000000000 .Ldebug_macro37
C:\Users\CYMR90~1\AppData\Local\Temp\cc5BNH7j.s:7603   .debug_macro:0000000000000000 .Ldebug_macro38
C:\Users\CYMR90~1\AppData\Local\Temp\cc5BNH7j.s:9249   .debug_macro:0000000000000000 .Ldebug_macro39
C:\Users\CYMR90~1\AppData\Local\Temp\cc5BNH7j.s:9341   .debug_macro:0000000000000000 .Ldebug_macro40
C:\Users\CYMR90~1\AppData\Local\Temp\cc5BNH7j.s:9397   .debug_macro:0000000000000000 .Ldebug_macro41
C:\Users\CYMR90~1\AppData\Local\Temp\cc5BNH7j.s:9411   .debug_macro:0000000000000000 .Ldebug_macro42
C:\Users\CYMR90~1\AppData\Local\Temp\cc5BNH7j.s:26971  .debug_str:00000000000160ed .LASF1655
C:\Users\CYMR90~1\AppData\Local\Temp\cc5BNH7j.s:23897  .debug_str:0000000000009a74 .LASF1656
C:\Users\CYMR90~1\AppData\Local\Temp\cc5BNH7j.s:9635   .debug_macro:0000000000000000 .Ldebug_macro43
C:\Users\CYMR90~1\AppData\Local\Temp\cc5BNH7j.s:9682   .debug_macro:0000000000000000 .Ldebug_macro44
C:\Users\CYMR90~1\AppData\Local\Temp\cc5BNH7j.s:9837   .debug_macro:0000000000000000 .Ldebug_macro45
C:\Users\CYMR90~1\AppData\Local\Temp\cc5BNH7j.s:9893   .debug_macro:0000000000000000 .Ldebug_macro46
C:\Users\CYMR90~1\AppData\Local\Temp\cc5BNH7j.s:9904   .debug_macro:0000000000000000 .Ldebug_macro47
C:\Users\CYMR90~1\AppData\Local\Temp\cc5BNH7j.s:31882  .debug_str:0000000000029b93 .LASF1782
C:\Users\CYMR90~1\AppData\Local\Temp\cc5BNH7j.s:26737  .debug_str:0000000000015259 .LASF1783
C:\Users\CYMR90~1\AppData\Local\Temp\cc5BNH7j.s:10035  .debug_macro:0000000000000000 .Ldebug_macro48
C:\Users\CYMR90~1\AppData\Local\Temp\cc5BNH7j.s:10607  .debug_macro:0000000000000000 .Ldebug_macro49
C:\Users\CYMR90~1\AppData\Local\Temp\cc5BNH7j.s:10894  .debug_macro:0000000000000000 .Ldebug_macro50
C:\Users\CYMR90~1\AppData\Local\Temp\cc5BNH7j.s:10923  .debug_macro:0000000000000000 .Ldebug_macro51
C:\Users\CYMR90~1\AppData\Local\Temp\cc5BNH7j.s:11000  .debug_macro:0000000000000000 .Ldebug_macro52
C:\Users\CYMR90~1\AppData\Local\Temp\cc5BNH7j.s:11533  .debug_macro:0000000000000000 .Ldebug_macro53
C:\Users\CYMR90~1\AppData\Local\Temp\cc5BNH7j.s:11556  .debug_macro:0000000000000000 .Ldebug_macro54
C:\Users\CYMR90~1\AppData\Local\Temp\cc5BNH7j.s:11822  .debug_macro:0000000000000000 .Ldebug_macro55
C:\Users\CYMR90~1\AppData\Local\Temp\cc5BNH7j.s:12301  .debug_macro:0000000000000000 .Ldebug_macro56
C:\Users\CYMR90~1\AppData\Local\Temp\cc5BNH7j.s:12630  .debug_macro:0000000000000000 .Ldebug_macro57
C:\Users\CYMR90~1\AppData\Local\Temp\cc5BNH7j.s:12719  .debug_macro:0000000000000000 .Ldebug_macro58
C:\Users\CYMR90~1\AppData\Local\Temp\cc5BNH7j.s:13534  .debug_macro:0000000000000000 .Ldebug_macro59
C:\Users\CYMR90~1\AppData\Local\Temp\cc5BNH7j.s:14037  .debug_macro:0000000000000000 .Ldebug_macro60
C:\Users\CYMR90~1\AppData\Local\Temp\cc5BNH7j.s:14183  .debug_macro:0000000000000000 .Ldebug_macro61
C:\Users\CYMR90~1\AppData\Local\Temp\cc5BNH7j.s:14713  .debug_macro:0000000000000000 .Ldebug_macro62
C:\Users\CYMR90~1\AppData\Local\Temp\cc5BNH7j.s:15135  .debug_macro:0000000000000000 .Ldebug_macro63
C:\Users\CYMR90~1\AppData\Local\Temp\cc5BNH7j.s:17909  .debug_macro:0000000000000000 .Ldebug_macro64
C:\Users\CYMR90~1\AppData\Local\Temp\cc5BNH7j.s:18985  .debug_macro:0000000000000000 .Ldebug_macro65
C:\Users\CYMR90~1\AppData\Local\Temp\cc5BNH7j.s:19254  .debug_macro:0000000000000000 .Ldebug_macro66
C:\Users\CYMR90~1\AppData\Local\Temp\cc5BNH7j.s:19526  .debug_macro:0000000000000000 .Ldebug_macro67
C:\Users\CYMR90~1\AppData\Local\Temp\cc5BNH7j.s:20554  .debug_macro:0000000000000000 .Ldebug_macro68
C:\Users\CYMR90~1\AppData\Local\Temp\cc5BNH7j.s:20598  .debug_macro:0000000000000000 .Ldebug_macro69
C:\Users\CYMR90~1\AppData\Local\Temp\cc5BNH7j.s:21224  .debug_macro:0000000000000000 .Ldebug_macro70
C:\Users\CYMR90~1\AppData\Local\Temp\cc5BNH7j.s:21283  .debug_macro:0000000000000000 .Ldebug_macro71
C:\Users\CYMR90~1\AppData\Local\Temp\cc5BNH7j.s:22387  .debug_str:00000000000038ad .LASF5556
C:\Users\CYMR90~1\AppData\Local\Temp\cc5BNH7j.s:22829  .debug_str:0000000000005557 .LASF0
C:\Users\CYMR90~1\AppData\Local\Temp\cc5BNH7j.s:27164  .debug_str:0000000000016f4a .LASF1
C:\Users\CYMR90~1\AppData\Local\Temp\cc5BNH7j.s:25441  .debug_str:000000000000fe8b .LASF2
C:\Users\CYMR90~1\AppData\Local\Temp\cc5BNH7j.s:25499  .debug_str:000000000001020b .LASF3
C:\Users\CYMR90~1\AppData\Local\Temp\cc5BNH7j.s:26783  .debug_str:00000000000154b2 .LASF4
C:\Users\CYMR90~1\AppData\Local\Temp\cc5BNH7j.s:32284  .debug_str:000000000002b3f7 .LASF5
C:\Users\CYMR90~1\AppData\Local\Temp\cc5BNH7j.s:23061  .debug_str:00000000000063ab .LASF6
C:\Users\CYMR90~1\AppData\Local\Temp\cc5BNH7j.s:31606  .debug_str:0000000000028a9d .LASF7
C:\Users\CYMR90~1\AppData\Local\Temp\cc5BNH7j.s:30568  .debug_str:0000000000024547 .LASF8
C:\Users\CYMR90~1\AppData\Local\Temp\cc5BNH7j.s:28496  .debug_str:000000000001c495 .LASF9
C:\Users\CYMR90~1\AppData\Local\Temp\cc5BNH7j.s:27850  .debug_str:0000000000019b0e .LASF10
C:\Users\CYMR90~1\AppData\Local\Temp\cc5BNH7j.s:27706  .debug_str:000000000001917c .LASF11
C:\Users\CYMR90~1\AppData\Local\Temp\cc5BNH7j.s:32124  .debug_str:000000000002a9d0 .LASF12
C:\Users\CYMR90~1\AppData\Local\Temp\cc5BNH7j.s:27718  .debug_str:0000000000019230 .LASF13
C:\Users\CYMR90~1\AppData\Local\Temp\cc5BNH7j.s:24051  .debug_str:000000000000a42c .LASF14
C:\Users\CYMR90~1\AppData\Local\Temp\cc5BNH7j.s:29070  .debug_str:000000000001e9da .LASF15
C:\Users\CYMR90~1\AppData\Local\Temp\cc5BNH7j.s:29822  .debug_str:0000000000021764 .LASF16
C:\Users\CYMR90~1\AppData\Local\Temp\cc5BNH7j.s:24099  .debug_str:000000000000a719 .LASF17
C:\Users\CYMR90~1\AppData\Local\Temp\cc5BNH7j.s:30848  .debug_str:000000000002593c .LASF18
C:\Users\CYMR90~1\AppData\Local\Temp\cc5BNH7j.s:25049  .debug_str:000000000000e600 .LASF19
C:\Users\CYMR90~1\AppData\Local\Temp\cc5BNH7j.s:22151  .debug_str:000000000000298b .LASF20
C:\Users\CYMR90~1\AppData\Local\Temp\cc5BNH7j.s:27520  .debug_str:000000000001849f .LASF21
C:\Users\CYMR90~1\AppData\Local\Temp\cc5BNH7j.s:27518  .debug_str:0000000000018485 .LASF22
C:\Users\CYMR90~1\AppData\Local\Temp\cc5BNH7j.s:30126  .debug_str:00000000000229dd .LASF23
C:\Users\CYMR90~1\AppData\Local\Temp\cc5BNH7j.s:28448  .debug_str:000000000001c1fd .LASF24
C:\Users\CYMR90~1\AppData\Local\Temp\cc5BNH7j.s:22375  .debug_str:0000000000003813 .LASF25
C:\Users\CYMR90~1\AppData\Local\Temp\cc5BNH7j.s:26907  .debug_str:0000000000015c7d .LASF26
C:\Users\CYMR90~1\AppData\Local\Temp\cc5BNH7j.s:30130  .debug_str:0000000000022a09 .LASF27
C:\Users\CYMR90~1\AppData\Local\Temp\cc5BNH7j.s:29830  .debug_str:00000000000217c1 .LASF28
C:\Users\CYMR90~1\AppData\Local\Temp\cc5BNH7j.s:22781  .debug_str:0000000000005285 .LASF29
C:\Users\CYMR90~1\AppData\Local\Temp\cc5BNH7j.s:28852  .debug_str:000000000001dc60 .LASF30
C:\Users\CYMR90~1\AppData\Local\Temp\cc5BNH7j.s:21763  .debug_str:00000000000011ed .LASF31
C:\Users\CYMR90~1\AppData\Local\Temp\cc5BNH7j.s:29308  .debug_str:000000000001f7aa .LASF32
C:\Users\CYMR90~1\AppData\Local\Temp\cc5BNH7j.s:23939  .debug_str:0000000000009cdf .LASF33
C:\Users\CYMR90~1\AppData\Local\Temp\cc5BNH7j.s:23791  .debug_str:000000000000934e .LASF34
C:\Users\CYMR90~1\AppData\Local\Temp\cc5BNH7j.s:25083  .debug_str:000000000000e80a .LASF35
C:\Users\CYMR90~1\AppData\Local\Temp\cc5BNH7j.s:27964  .debug_str:000000000001a19a .LASF36
C:\Users\CYMR90~1\AppData\Local\Temp\cc5BNH7j.s:23299  .debug_str:000000000000730a .LASF37
C:\Users\CYMR90~1\AppData\Local\Temp\cc5BNH7j.s:25439  .debug_str:000000000000fe68 .LASF38
C:\Users\CYMR90~1\AppData\Local\Temp\cc5BNH7j.s:22341  .debug_str:000000000000358c .LASF39
C:\Users\CYMR90~1\AppData\Local\Temp\cc5BNH7j.s:22143  .debug_str:00000000000028f9 .LASF40
C:\Users\CYMR90~1\AppData\Local\Temp\cc5BNH7j.s:25603  .debug_str:00000000000108c0 .LASF41
C:\Users\CYMR90~1\AppData\Local\Temp\cc5BNH7j.s:26027  .debug_str:0000000000012524 .LASF42
C:\Users\CYMR90~1\AppData\Local\Temp\cc5BNH7j.s:26291  .debug_str:00000000000136d8 .LASF43
C:\Users\CYMR90~1\AppData\Local\Temp\cc5BNH7j.s:27954  .debug_str:000000000001a108 .LASF44
C:\Users\CYMR90~1\AppData\Local\Temp\cc5BNH7j.s:25887  .debug_str:0000000000011bea .LASF45
C:\Users\CYMR90~1\AppData\Local\Temp\cc5BNH7j.s:22607  .debug_str:0000000000004760 .LASF46
C:\Users\CYMR90~1\AppData\Local\Temp\cc5BNH7j.s:28858  .debug_str:000000000001dcc5 .LASF47
C:\Users\CYMR90~1\AppData\Local\Temp\cc5BNH7j.s:30570  .debug_str:000000000002455c .LASF48
C:\Users\CYMR90~1\AppData\Local\Temp\cc5BNH7j.s:24827  .debug_str:000000000000d804 .LASF49
C:\Users\CYMR90~1\AppData\Local\Temp\cc5BNH7j.s:21979  .debug_str:0000000000001f38 .LASF50
C:\Users\CYMR90~1\AppData\Local\Temp\cc5BNH7j.s:21491  .debug_str:000000000000012a .LASF51
C:\Users\CYMR90~1\AppData\Local\Temp\cc5BNH7j.s:31894  .debug_str:0000000000029c27 .LASF52
C:\Users\CYMR90~1\AppData\Local\Temp\cc5BNH7j.s:30200  .debug_str:0000000000022e08 .LASF53
C:\Users\CYMR90~1\AppData\Local\Temp\cc5BNH7j.s:26367  .debug_str:0000000000013b42 .LASF54
C:\Users\CYMR90~1\AppData\Local\Temp\cc5BNH7j.s:25403  .debug_str:000000000000fbde .LASF55
C:\Users\CYMR90~1\AppData\Local\Temp\cc5BNH7j.s:23383  .debug_str:000000000000785e .LASF56
C:\Users\CYMR90~1\AppData\Local\Temp\cc5BNH7j.s:26761  .debug_str:0000000000015387 .LASF57
C:\Users\CYMR90~1\AppData\Local\Temp\cc5BNH7j.s:21715  .debug_str:0000000000000f36 .LASF58
C:\Users\CYMR90~1\AppData\Local\Temp\cc5BNH7j.s:30852  .debug_str:000000000002597c .LASF59
C:\Users\CYMR90~1\AppData\Local\Temp\cc5BNH7j.s:26299  .debug_str:0000000000013733 .LASF60
C:\Users\CYMR90~1\AppData\Local\Temp\cc5BNH7j.s:28228  .debug_str:000000000001b481 .LASF61
C:\Users\CYMR90~1\AppData\Local\Temp\cc5BNH7j.s:22209  .debug_str:0000000000002d10 .LASF62
C:\Users\CYMR90~1\AppData\Local\Temp\cc5BNH7j.s:24821  .debug_str:000000000000d7c0 .LASF63
C:\Users\CYMR90~1\AppData\Local\Temp\cc5BNH7j.s:24557  .debug_str:000000000000c586 .LASF64
C:\Users\CYMR90~1\AppData\Local\Temp\cc5BNH7j.s:27940  .debug_str:000000000001a03f .LASF65
C:\Users\CYMR90~1\AppData\Local\Temp\cc5BNH7j.s:26601  .debug_str:000000000001495d .LASF66
C:\Users\CYMR90~1\AppData\Local\Temp\cc5BNH7j.s:31678  .debug_str:0000000000028f13 .LASF67
C:\Users\CYMR90~1\AppData\Local\Temp\cc5BNH7j.s:32126  .debug_str:000000000002a9e3 .LASF68
C:\Users\CYMR90~1\AppData\Local\Temp\cc5BNH7j.s:25841  .debug_str:00000000000118b6 .LASF69
C:\Users\CYMR90~1\AppData\Local\Temp\cc5BNH7j.s:24977  .debug_str:000000000000e161 .LASF70
C:\Users\CYMR90~1\AppData\Local\Temp\cc5BNH7j.s:22619  .debug_str:00000000000048b3 .LASF71
C:\Users\CYMR90~1\AppData\Local\Temp\cc5BNH7j.s:25875  .debug_str:0000000000011b27 .LASF72
C:\Users\CYMR90~1\AppData\Local\Temp\cc5BNH7j.s:25507  .debug_str:000000000001027c .LASF73
C:\Users\CYMR90~1\AppData\Local\Temp\cc5BNH7j.s:26105  .debug_str:0000000000012a6b .LASF74
C:\Users\CYMR90~1\AppData\Local\Temp\cc5BNH7j.s:25947  .debug_str:0000000000011fbb .LASF75
C:\Users\CYMR90~1\AppData\Local\Temp\cc5BNH7j.s:26047  .debug_str:0000000000012682 .LASF76
C:\Users\CYMR90~1\AppData\Local\Temp\cc5BNH7j.s:30488  .debug_str:0000000000023ff8 .LASF77
C:\Users\CYMR90~1\AppData\Local\Temp\cc5BNH7j.s:28422  .debug_str:000000000001c06d .LASF78
C:\Users\CYMR90~1\AppData\Local\Temp\cc5BNH7j.s:28822  .debug_str:000000000001daa0 .LASF79
C:\Users\CYMR90~1\AppData\Local\Temp\cc5BNH7j.s:31658  .debug_str:0000000000028dc4 .LASF80
C:\Users\CYMR90~1\AppData\Local\Temp\cc5BNH7j.s:23891  .debug_str:0000000000009a00 .LASF81
C:\Users\CYMR90~1\AppData\Local\Temp\cc5BNH7j.s:24085  .debug_str:000000000000a5e5 .LASF82
C:\Users\CYMR90~1\AppData\Local\Temp\cc5BNH7j.s:31788  .debug_str:000000000002961d .LASF83
C:\Users\CYMR90~1\AppData\Local\Temp\cc5BNH7j.s:23831  .debug_str:00000000000095f0 .LASF84
C:\Users\CYMR90~1\AppData\Local\Temp\cc5BNH7j.s:23121  .debug_str:0000000000006744 .LASF85
C:\Users\CYMR90~1\AppData\Local\Temp\cc5BNH7j.s:28134  .debug_str:000000000001ae49 .LASF86
C:\Users\CYMR90~1\AppData\Local\Temp\cc5BNH7j.s:31818  .debug_str:000000000002979c .LASF87
C:\Users\CYMR90~1\AppData\Local\Temp\cc5BNH7j.s:29248  .debug_str:000000000001f427 .LASF88
C:\Users\CYMR90~1\AppData\Local\Temp\cc5BNH7j.s:28054  .debug_str:000000000001a904 .LASF89
C:\Users\CYMR90~1\AppData\Local\Temp\cc5BNH7j.s:29276  .debug_str:000000000001f5cf .LASF90
C:\Users\CYMR90~1\AppData\Local\Temp\cc5BNH7j.s:32030  .debug_str:000000000002a442 .LASF91
C:\Users\CYMR90~1\AppData\Local\Temp\cc5BNH7j.s:30860  .debug_str:00000000000259f4 .LASF92
C:\Users\CYMR90~1\AppData\Local\Temp\cc5BNH7j.s:23967  .debug_str:0000000000009eb2 .LASF93
C:\Users\CYMR90~1\AppData\Local\Temp\cc5BNH7j.s:28702  .debug_str:000000000001d328 .LASF94
C:\Users\CYMR90~1\AppData\Local\Temp\cc5BNH7j.s:26327  .debug_str:00000000000138ec .LASF95
C:\Users\CYMR90~1\AppData\Local\Temp\cc5BNH7j.s:26311  .debug_str:00000000000137fc .LASF96
C:\Users\CYMR90~1\AppData\Local\Temp\cc5BNH7j.s:32332  .debug_str:000000000002b715 .LASF97
C:\Users\CYMR90~1\AppData\Local\Temp\cc5BNH7j.s:25961  .debug_str:0000000000012128 .LASF98
C:\Users\CYMR90~1\AppData\Local\Temp\cc5BNH7j.s:29848  .debug_str:00000000000218e8 .LASF99
C:\Users\CYMR90~1\AppData\Local\Temp\cc5BNH7j.s:23331  .debug_str:00000000000074fc .LASF100
C:\Users\CYMR90~1\AppData\Local\Temp\cc5BNH7j.s:25453  .debug_str:000000000000ff16 .LASF101
C:\Users\CYMR90~1\AppData\Local\Temp\cc5BNH7j.s:26825  .debug_str:0000000000015709 .LASF102
C:\Users\CYMR90~1\AppData\Local\Temp\cc5BNH7j.s:25727  .debug_str:000000000001109e .LASF103
C:\Users\CYMR90~1\AppData\Local\Temp\cc5BNH7j.s:24739  .debug_str:000000000000d229 .LASF104
C:\Users\CYMR90~1\AppData\Local\Temp\cc5BNH7j.s:25897  .debug_str:0000000000011c81 .LASF105
C:\Users\CYMR90~1\AppData\Local\Temp\cc5BNH7j.s:28520  .debug_str:000000000001c637 .LASF106
C:\Users\CYMR90~1\AppData\Local\Temp\cc5BNH7j.s:25721  .debug_str:0000000000011039 .LASF107
C:\Users\CYMR90~1\AppData\Local\Temp\cc5BNH7j.s:24735  .debug_str:000000000000d205 .LASF108
C:\Users\CYMR90~1\AppData\Local\Temp\cc5BNH7j.s:26159  .debug_str:0000000000012dd2 .LASF109
C:\Users\CYMR90~1\AppData\Local\Temp\cc5BNH7j.s:25107  .debug_str:000000000000e9a4 .LASF110
C:\Users\CYMR90~1\AppData\Local\Temp\cc5BNH7j.s:27572  .debug_str:00000000000187a6 .LASF111
C:\Users\CYMR90~1\AppData\Local\Temp\cc5BNH7j.s:24221  .debug_str:000000000000af73 .LASF112
C:\Users\CYMR90~1\AppData\Local\Temp\cc5BNH7j.s:23965  .debug_str:0000000000009e89 .LASF113
C:\Users\CYMR90~1\AppData\Local\Temp\cc5BNH7j.s:26857  .debug_str:0000000000015909 .LASF114
C:\Users\CYMR90~1\AppData\Local\Temp\cc5BNH7j.s:31718  .debug_str:000000000002916e .LASF115
C:\Users\CYMR90~1\AppData\Local\Temp\cc5BNH7j.s:30372  .debug_str:000000000002386e .LASF116
C:\Users\CYMR90~1\AppData\Local\Temp\cc5BNH7j.s:23725  .debug_str:0000000000008f7b .LASF117
C:\Users\CYMR90~1\AppData\Local\Temp\cc5BNH7j.s:28284  .debug_str:000000000001b7fc .LASF118
C:\Users\CYMR90~1\AppData\Local\Temp\cc5BNH7j.s:32438  .debug_str:000000000002be46 .LASF119
C:\Users\CYMR90~1\AppData\Local\Temp\cc5BNH7j.s:25023  .debug_str:000000000000e415 .LASF120
C:\Users\CYMR90~1\AppData\Local\Temp\cc5BNH7j.s:30470  .debug_str:0000000000023e14 .LASF121
C:\Users\CYMR90~1\AppData\Local\Temp\cc5BNH7j.s:24519  .debug_str:000000000000c337 .LASF122
C:\Users\CYMR90~1\AppData\Local\Temp\cc5BNH7j.s:24629  .debug_str:000000000000cb46 .LASF123
C:\Users\CYMR90~1\AppData\Local\Temp\cc5BNH7j.s:22311  .debug_str:00000000000033c3 .LASF124
C:\Users\CYMR90~1\AppData\Local\Temp\cc5BNH7j.s:22581  .debug_str:000000000000459e .LASF125
C:\Users\CYMR90~1\AppData\Local\Temp\cc5BNH7j.s:31398  .debug_str:0000000000027c3a .LASF126
C:\Users\CYMR90~1\AppData\Local\Temp\cc5BNH7j.s:25903  .debug_str:0000000000011cbf .LASF127
C:\Users\CYMR90~1\AppData\Local\Temp\cc5BNH7j.s:28678  .debug_str:000000000001d1ca .LASF128
C:\Users\CYMR90~1\AppData\Local\Temp\cc5BNH7j.s:23799  .debug_str:00000000000093c6 .LASF129
C:\Users\CYMR90~1\AppData\Local\Temp\cc5BNH7j.s:30976  .debug_str:0000000000026120 .LASF130
C:\Users\CYMR90~1\AppData\Local\Temp\cc5BNH7j.s:31276  .debug_str:0000000000027424 .LASF131
C:\Users\CYMR90~1\AppData\Local\Temp\cc5BNH7j.s:31090  .debug_str:000000000002682a .LASF132
C:\Users\CYMR90~1\AppData\Local\Temp\cc5BNH7j.s:24999  .debug_str:000000000000e2a4 .LASF133
C:\Users\CYMR90~1\AppData\Local\Temp\cc5BNH7j.s:30388  .debug_str:0000000000023952 .LASF134
C:\Users\CYMR90~1\AppData\Local\Temp\cc5BNH7j.s:22575  .debug_str:0000000000004537 .LASF135
C:\Users\CYMR90~1\AppData\Local\Temp\cc5BNH7j.s:23429  .debug_str:0000000000007b5d .LASF136
C:\Users\CYMR90~1\AppData\Local\Temp\cc5BNH7j.s:28434  .debug_str:000000000001c147 .LASF137
C:\Users\CYMR90~1\AppData\Local\Temp\cc5BNH7j.s:26155  .debug_str:0000000000012da2 .LASF138
C:\Users\CYMR90~1\AppData\Local\Temp\cc5BNH7j.s:31604  .debug_str:0000000000028a8d .LASF139
C:\Users\CYMR90~1\AppData\Local\Temp\cc5BNH7j.s:30744  .debug_str:00000000000251f2 .LASF140
C:\Users\CYMR90~1\AppData\Local\Temp\cc5BNH7j.s:28378  .debug_str:000000000001bd9d .LASF141
C:\Users\CYMR90~1\AppData\Local\Temp\cc5BNH7j.s:23927  .debug_str:0000000000009c20 .LASF142
C:\Users\CYMR90~1\AppData\Local\Temp\cc5BNH7j.s:32192  .debug_str:000000000002adbe .LASF143
C:\Users\CYMR90~1\AppData\Local\Temp\cc5BNH7j.s:27542  .debug_str:00000000000185b3 .LASF144
C:\Users\CYMR90~1\AppData\Local\Temp\cc5BNH7j.s:26613  .debug_str:0000000000014a42 .LASF145
C:\Users\CYMR90~1\AppData\Local\Temp\cc5BNH7j.s:24591  .debug_str:000000000000c862 .LASF146
C:\Users\CYMR90~1\AppData\Local\Temp\cc5BNH7j.s:22617  .debug_str:000000000000489c .LASF147
C:\Users\CYMR90~1\AppData\Local\Temp\cc5BNH7j.s:25149  .debug_str:000000000000ec26 .LASF148
C:\Users\CYMR90~1\AppData\Local\Temp\cc5BNH7j.s:27522  .debug_str:00000000000184b3 .LASF149
C:\Users\CYMR90~1\AppData\Local\Temp\cc5BNH7j.s:21563  .debug_str:000000000000056c .LASF150
C:\Users\CYMR90~1\AppData\Local\Temp\cc5BNH7j.s:29832  .debug_str:00000000000217db .LASF151
C:\Users\CYMR90~1\AppData\Local\Temp\cc5BNH7j.s:26149  .debug_str:0000000000012d20 .LASF152
C:\Users\CYMR90~1\AppData\Local\Temp\cc5BNH7j.s:30750  .debug_str:0000000000025245 .LASF153
C:\Users\CYMR90~1\AppData\Local\Temp\cc5BNH7j.s:28580  .debug_str:000000000001ca89 .LASF154
C:\Users\CYMR90~1\AppData\Local\Temp\cc5BNH7j.s:25565  .debug_str:000000000001067e .LASF155
C:\Users\CYMR90~1\AppData\Local\Temp\cc5BNH7j.s:28594  .debug_str:000000000001cb76 .LASF156
C:\Users\CYMR90~1\AppData\Local\Temp\cc5BNH7j.s:28708  .debug_str:000000000001d390 .LASF157
C:\Users\CYMR90~1\AppData\Local\Temp\cc5BNH7j.s:24449  .debug_str:000000000000beda .LASF158
C:\Users\CYMR90~1\AppData\Local\Temp\cc5BNH7j.s:23527  .debug_str:00000000000082fe .LASF159
C:\Users\CYMR90~1\AppData\Local\Temp\cc5BNH7j.s:28234  .debug_str:000000000001b4d5 .LASF160
C:\Users\CYMR90~1\AppData\Local\Temp\cc5BNH7j.s:29652  .debug_str:0000000000020cf1 .LASF161
C:\Users\CYMR90~1\AppData\Local\Temp\cc5BNH7j.s:27842  .debug_str:0000000000019a7c .LASF162
C:\Users\CYMR90~1\AppData\Local\Temp\cc5BNH7j.s:30380  .debug_str:00000000000238e0 .LASF163
C:\Users\CYMR90~1\AppData\Local\Temp\cc5BNH7j.s:32014  .debug_str:000000000002a358 .LASF164
C:\Users\CYMR90~1\AppData\Local\Temp\cc5BNH7j.s:23289  .debug_str:0000000000007286 .LASF165
C:\Users\CYMR90~1\AppData\Local\Temp\cc5BNH7j.s:31706  .debug_str:00000000000290df .LASF166
C:\Users\CYMR90~1\AppData\Local\Temp\cc5BNH7j.s:31528  .debug_str:00000000000285c7 .LASF167
C:\Users\CYMR90~1\AppData\Local\Temp\cc5BNH7j.s:30302  .debug_str:00000000000233f2 .LASF168
C:\Users\CYMR90~1\AppData\Local\Temp\cc5BNH7j.s:27308  .debug_str:00000000000177d6 .LASF169
C:\Users\CYMR90~1\AppData\Local\Temp\cc5BNH7j.s:31152  .debug_str:0000000000026bfa .LASF170
C:\Users\CYMR90~1\AppData\Local\Temp\cc5BNH7j.s:26933  .debug_str:0000000000015e29 .LASF171
C:\Users\CYMR90~1\AppData\Local\Temp\cc5BNH7j.s:28502  .debug_str:000000000001c4f4 .LASF172
C:\Users\CYMR90~1\AppData\Local\Temp\cc5BNH7j.s:23919  .debug_str:0000000000009bac .LASF173
C:\Users\CYMR90~1\AppData\Local\Temp\cc5BNH7j.s:30192  .debug_str:0000000000022d9b .LASF174
C:\Users\CYMR90~1\AppData\Local\Temp\cc5BNH7j.s:22957  .debug_str:0000000000005d3f .LASF175
C:\Users\CYMR90~1\AppData\Local\Temp\cc5BNH7j.s:23767  .debug_str:00000000000091fa .LASF176
C:\Users\CYMR90~1\AppData\Local\Temp\cc5BNH7j.s:22453  .debug_str:0000000000003d05 .LASF177
C:\Users\CYMR90~1\AppData\Local\Temp\cc5BNH7j.s:27714  .debug_str:00000000000191ee .LASF178
C:\Users\CYMR90~1\AppData\Local\Temp\cc5BNH7j.s:24681  .debug_str:000000000000ce87 .LASF179
C:\Users\CYMR90~1\AppData\Local\Temp\cc5BNH7j.s:21973  .debug_str:0000000000001ecc .LASF180
C:\Users\CYMR90~1\AppData\Local\Temp\cc5BNH7j.s:32328  .debug_str:000000000002b6ea .LASF181
C:\Users\CYMR90~1\AppData\Local\Temp\cc5BNH7j.s:21749  .debug_str:0000000000001142 .LASF182
C:\Users\CYMR90~1\AppData\Local\Temp\cc5BNH7j.s:26269  .debug_str:0000000000013553 .LASF183
C:\Users\CYMR90~1\AppData\Local\Temp\cc5BNH7j.s:26675  .debug_str:0000000000014e5b .LASF184
C:\Users\CYMR90~1\AppData\Local\Temp\cc5BNH7j.s:31538  .debug_str:0000000000028676 .LASF185
C:\Users\CYMR90~1\AppData\Local\Temp\cc5BNH7j.s:24777  .debug_str:000000000000d53d .LASF186
C:\Users\CYMR90~1\AppData\Local\Temp\cc5BNH7j.s:23273  .debug_str:0000000000007125 .LASF187
C:\Users\CYMR90~1\AppData\Local\Temp\cc5BNH7j.s:29224  .debug_str:000000000001f2eb .LASF188
C:\Users\CYMR90~1\AppData\Local\Temp\cc5BNH7j.s:25043  .debug_str:000000000000e5a6 .LASF189
C:\Users\CYMR90~1\AppData\Local\Temp\cc5BNH7j.s:26375  .debug_str:0000000000013bc7 .LASF190
C:\Users\CYMR90~1\AppData\Local\Temp\cc5BNH7j.s:29712  .debug_str:0000000000021037 .LASF191
C:\Users\CYMR90~1\AppData\Local\Temp\cc5BNH7j.s:27089  .debug_str:00000000000168af .LASF192
C:\Users\CYMR90~1\AppData\Local\Temp\cc5BNH7j.s:29946  .debug_str:0000000000021efd .LASF193
C:\Users\CYMR90~1\AppData\Local\Temp\cc5BNH7j.s:22911  .debug_str:0000000000005a6f .LASF194
C:\Users\CYMR90~1\AppData\Local\Temp\cc5BNH7j.s:22281  .debug_str:00000000000031ce .LASF195
C:\Users\CYMR90~1\AppData\Local\Temp\cc5BNH7j.s:24871  .debug_str:000000000000da6a .LASF196
C:\Users\CYMR90~1\AppData\Local\Temp\cc5BNH7j.s:25789  .debug_str:00000000000114bb .LASF197
C:\Users\CYMR90~1\AppData\Local\Temp\cc5BNH7j.s:22767  .debug_str:00000000000051a5 .LASF198
C:\Users\CYMR90~1\AppData\Local\Temp\cc5BNH7j.s:31430  .debug_str:0000000000027e81 .LASF199
C:\Users\CYMR90~1\AppData\Local\Temp\cc5BNH7j.s:29592  .debug_str:0000000000020954 .LASF200
C:\Users\CYMR90~1\AppData\Local\Temp\cc5BNH7j.s:28716  .debug_str:000000000001d3ee .LASF201
C:\Users\CYMR90~1\AppData\Local\Temp\cc5BNH7j.s:23895  .debug_str:0000000000009a33 .LASF202
C:\Users\CYMR90~1\AppData\Local\Temp\cc5BNH7j.s:31874  .debug_str:0000000000029b02 .LASF203
C:\Users\CYMR90~1\AppData\Local\Temp\cc5BNH7j.s:22293  .debug_str:000000000000329f .LASF204
C:\Users\CYMR90~1\AppData\Local\Temp\cc5BNH7j.s:25279  .debug_str:000000000000f3e3 .LASF205
C:\Users\CYMR90~1\AppData\Local\Temp\cc5BNH7j.s:31614  .debug_str:0000000000028afe .LASF206
C:\Users\CYMR90~1\AppData\Local\Temp\cc5BNH7j.s:26497  .debug_str:000000000001434a .LASF207
C:\Users\CYMR90~1\AppData\Local\Temp\cc5BNH7j.s:29264  .debug_str:000000000001f52d .LASF208
C:\Users\CYMR90~1\AppData\Local\Temp\cc5BNH7j.s:24513  .debug_str:000000000000c2e6 .LASF209
C:\Users\CYMR90~1\AppData\Local\Temp\cc5BNH7j.s:32532  .debug_str:000000000002c465 .LASF210
C:\Users\CYMR90~1\AppData\Local\Temp\cc5BNH7j.s:26467  .debug_str:0000000000014169 .LASF211
C:\Users\CYMR90~1\AppData\Local\Temp\cc5BNH7j.s:29108  .debug_str:000000000001ebd6 .LASF212
C:\Users\CYMR90~1\AppData\Local\Temp\cc5BNH7j.s:27734  .debug_str:000000000001931c .LASF213
C:\Users\CYMR90~1\AppData\Local\Temp\cc5BNH7j.s:22997  .debug_str:0000000000005f88 .LASF214
C:\Users\CYMR90~1\AppData\Local\Temp\cc5BNH7j.s:26475  .debug_str:00000000000141ef .LASF215
C:\Users\CYMR90~1\AppData\Local\Temp\cc5BNH7j.s:28418  .debug_str:000000000001c01d .LASF216
C:\Users\CYMR90~1\AppData\Local\Temp\cc5BNH7j.s:29374  .debug_str:000000000001fbbc .LASF217
C:\Users\CYMR90~1\AppData\Local\Temp\cc5BNH7j.s:25359  .debug_str:000000000000f912 .LASF218
C:\Users\CYMR90~1\AppData\Local\Temp\cc5BNH7j.s:30752  .debug_str:0000000000025281 .LASF219
C:\Users\CYMR90~1\AppData\Local\Temp\cc5BNH7j.s:30562  .debug_str:00000000000244e3 .LASF220
C:\Users\CYMR90~1\AppData\Local\Temp\cc5BNH7j.s:30090  .debug_str:0000000000022751 .LASF221
C:\Users\CYMR90~1\AppData\Local\Temp\cc5BNH7j.s:26745  .debug_str:00000000000152b7 .LASF222
C:\Users\CYMR90~1\AppData\Local\Temp\cc5BNH7j.s:22967  .debug_str:0000000000005dbf .LASF223
C:\Users\CYMR90~1\AppData\Local\Temp\cc5BNH7j.s:23629  .debug_str:0000000000008987 .LASF224
C:\Users\CYMR90~1\AppData\Local\Temp\cc5BNH7j.s:32202  .debug_str:000000000002ae42 .LASF225
C:\Users\CYMR90~1\AppData\Local\Temp\cc5BNH7j.s:24941  .debug_str:000000000000df33 .LASF226
C:\Users\CYMR90~1\AppData\Local\Temp\cc5BNH7j.s:28576  .debug_str:000000000001ca5b .LASF227
C:\Users\CYMR90~1\AppData\Local\Temp\cc5BNH7j.s:28428  .debug_str:000000000001c0c3 .LASF228
C:\Users\CYMR90~1\AppData\Local\Temp\cc5BNH7j.s:24885  .debug_str:000000000000db47 .LASF229
C:\Users\CYMR90~1\AppData\Local\Temp\cc5BNH7j.s:29148  .debug_str:000000000001ee0a .LASF230
C:\Users\CYMR90~1\AppData\Local\Temp\cc5BNH7j.s:28906  .debug_str:000000000001dfc3 .LASF231
C:\Users\CYMR90~1\AppData\Local\Temp\cc5BNH7j.s:23009  .debug_str:000000000000606c .LASF232
C:\Users\CYMR90~1\AppData\Local\Temp\cc5BNH7j.s:23579  .debug_str:000000000000862d .LASF233
C:\Users\CYMR90~1\AppData\Local\Temp\cc5BNH7j.s:25557  .debug_str:0000000000010569 .LASF234
C:\Users\CYMR90~1\AppData\Local\Temp\cc5BNH7j.s:25275  .debug_str:000000000000f39b .LASF235
C:\Users\CYMR90~1\AppData\Local\Temp\cc5BNH7j.s:30310  .debug_str:000000000002349e .LASF236
C:\Users\CYMR90~1\AppData\Local\Temp\cc5BNH7j.s:25297  .debug_str:000000000000f4ec .LASF237
C:\Users\CYMR90~1\AppData\Local\Temp\cc5BNH7j.s:30972  .debug_str:00000000000260e4 .LASF238
C:\Users\CYMR90~1\AppData\Local\Temp\cc5BNH7j.s:30294  .debug_str:0000000000023373 .LASF239
C:\Users\CYMR90~1\AppData\Local\Temp\cc5BNH7j.s:30528  .debug_str:00000000000242d3 .LASF240
C:\Users\CYMR90~1\AppData\Local\Temp\cc5BNH7j.s:23397  .debug_str:000000000000798c .LASF241
C:\Users\CYMR90~1\AppData\Local\Temp\cc5BNH7j.s:24963  .debug_str:000000000000e080 .LASF242
C:\Users\CYMR90~1\AppData\Local\Temp\cc5BNH7j.s:25943  .debug_str:0000000000011f53 .LASF243
C:\Users\CYMR90~1\AppData\Local\Temp\cc5BNH7j.s:30320  .debug_str:0000000000023516 .LASF244
C:\Users\CYMR90~1\AppData\Local\Temp\cc5BNH7j.s:26133  .debug_str:0000000000012c00 .LASF245
C:\Users\CYMR90~1\AppData\Local\Temp\cc5BNH7j.s:29160  .debug_str:000000000001eeef .LASF246
C:\Users\CYMR90~1\AppData\Local\Temp\cc5BNH7j.s:27506  .debug_str:000000000001839f .LASF247
C:\Users\CYMR90~1\AppData\Local\Temp\cc5BNH7j.s:27021  .debug_str:00000000000163c0 .LASF248
C:\Users\CYMR90~1\AppData\Local\Temp\cc5BNH7j.s:28516  .debug_str:000000000001c607 .LASF249
C:\Users\CYMR90~1\AppData\Local\Temp\cc5BNH7j.s:27902  .debug_str:0000000000019def .LASF250
C:\Users\CYMR90~1\AppData\Local\Temp\cc5BNH7j.s:28450  .debug_str:000000000001c20c .LASF251
C:\Users\CYMR90~1\AppData\Local\Temp\cc5BNH7j.s:30138  .debug_str:0000000000022a8e .LASF252
C:\Users\CYMR90~1\AppData\Local\Temp\cc5BNH7j.s:24855  .debug_str:000000000000d9a6 .LASF253
C:\Users\CYMR90~1\AppData\Local\Temp\cc5BNH7j.s:30824  .debug_str:00000000000257cc .LASF254
C:\Users\CYMR90~1\AppData\Local\Temp\cc5BNH7j.s:24721  .debug_str:000000000000d0fb .LASF255
C:\Users\CYMR90~1\AppData\Local\Temp\cc5BNH7j.s:27806  .debug_str:000000000001982b .LASF256
C:\Users\CYMR90~1\AppData\Local\Temp\cc5BNH7j.s:24959  .debug_str:000000000000e039 .LASF257
C:\Users\CYMR90~1\AppData\Local\Temp\cc5BNH7j.s:29096  .debug_str:000000000001eb07 .LASF258
C:\Users\CYMR90~1\AppData\Local\Temp\cc5BNH7j.s:24183  .debug_str:000000000000ac37 .LASF259
C:\Users\CYMR90~1\AppData\Local\Temp\cc5BNH7j.s:21637  .debug_str:0000000000000a06 .LASF260
C:\Users\CYMR90~1\AppData\Local\Temp\cc5BNH7j.s:31936  .debug_str:0000000000029e84 .LASF261
C:\Users\CYMR90~1\AppData\Local\Temp\cc5BNH7j.s:31410  .debug_str:0000000000027ce0 .LASF262
C:\Users\CYMR90~1\AppData\Local\Temp\cc5BNH7j.s:26447  .debug_str:0000000000013feb .LASF263
C:\Users\CYMR90~1\AppData\Local\Temp\cc5BNH7j.s:28402  .debug_str:000000000001bf30 .LASF264
C:\Users\CYMR90~1\AppData\Local\Temp\cc5BNH7j.s:25407  .debug_str:000000000000fc25 .LASF265
C:\Users\CYMR90~1\AppData\Local\Temp\cc5BNH7j.s:24887  .debug_str:000000000000db88 .LASF266
C:\Users\CYMR90~1\AppData\Local\Temp\cc5BNH7j.s:24233  .debug_str:000000000000b038 .LASF267
C:\Users\CYMR90~1\AppData\Local\Temp\cc5BNH7j.s:28504  .debug_str:000000000001c509 .LASF268
C:\Users\CYMR90~1\AppData\Local\Temp\cc5BNH7j.s:24537  .debug_str:000000000000c475 .LASF269
C:\Users\CYMR90~1\AppData\Local\Temp\cc5BNH7j.s:25473  .debug_str:0000000000010083 .LASF270
C:\Users\CYMR90~1\AppData\Local\Temp\cc5BNH7j.s:26719  .debug_str:000000000001511b .LASF271
C:\Users\CYMR90~1\AppData\Local\Temp\cc5BNH7j.s:31072  .debug_str:000000000002671a .LASF272
C:\Users\CYMR90~1\AppData\Local\Temp\cc5BNH7j.s:23165  .debug_str:00000000000069ea .LASF273
C:\Users\CYMR90~1\AppData\Local\Temp\cc5BNH7j.s:22093  .debug_str:0000000000002570 .LASF274
C:\Users\CYMR90~1\AppData\Local\Temp\cc5BNH7j.s:23257  .debug_str:000000000000700e .LASF275
C:\Users\CYMR90~1\AppData\Local\Temp\cc5BNH7j.s:22345  .debug_str:00000000000035c8 .LASF276
C:\Users\CYMR90~1\AppData\Local\Temp\cc5BNH7j.s:24429  .debug_str:000000000000bdad .LASF277
C:\Users\CYMR90~1\AppData\Local\Temp\cc5BNH7j.s:21773  .debug_str:0000000000001261 .LASF278
C:\Users\CYMR90~1\AppData\Local\Temp\cc5BNH7j.s:23089  .debug_str:0000000000006511 .LASF279
C:\Users\CYMR90~1\AppData\Local\Temp\cc5BNH7j.s:31728  .debug_str:0000000000029202 .LASF280
C:\Users\CYMR90~1\AppData\Local\Temp\cc5BNH7j.s:21733  .debug_str:000000000000101d .LASF281
C:\Users\CYMR90~1\AppData\Local\Temp\cc5BNH7j.s:23057  .debug_str:000000000000636e .LASF282
C:\Users\CYMR90~1\AppData\Local\Temp\cc5BNH7j.s:22961  .debug_str:0000000000005d6f .LASF283
C:\Users\CYMR90~1\AppData\Local\Temp\cc5BNH7j.s:22723  .debug_str:0000000000004f1c .LASF284
C:\Users\CYMR90~1\AppData\Local\Temp\cc5BNH7j.s:30626  .debug_str:0000000000024960 .LASF285
C:\Users\CYMR90~1\AppData\Local\Temp\cc5BNH7j.s:31442  .debug_str:0000000000027f77 .LASF286
C:\Users\CYMR90~1\AppData\Local\Temp\cc5BNH7j.s:31714  .debug_str:000000000002913c .LASF287
C:\Users\CYMR90~1\AppData\Local\Temp\cc5BNH7j.s:31628  .debug_str:0000000000028bcf .LASF288
C:\Users\CYMR90~1\AppData\Local\Temp\cc5BNH7j.s:32466  .debug_str:000000000002c003 .LASF289
C:\Users\CYMR90~1\AppData\Local\Temp\cc5BNH7j.s:27448  .debug_str:000000000001804a .LASF290
C:\Users\CYMR90~1\AppData\Local\Temp\cc5BNH7j.s:26501  .debug_str:0000000000014370 .LASF291
C:\Users\CYMR90~1\AppData\Local\Temp\cc5BNH7j.s:30664  .debug_str:0000000000024be0 .LASF292
C:\Users\CYMR90~1\AppData\Local\Temp\cc5BNH7j.s:22369  .debug_str:00000000000037ab .LASF293
C:\Users\CYMR90~1\AppData\Local\Temp\cc5BNH7j.s:29604  .debug_str:0000000000020a19 .LASF294
C:\Users\CYMR90~1\AppData\Local\Temp\cc5BNH7j.s:22643  .debug_str:0000000000004a26 .LASF295
C:\Users\CYMR90~1\AppData\Local\Temp\cc5BNH7j.s:32062  .debug_str:000000000002a63d .LASF296
C:\Users\CYMR90~1\AppData\Local\Temp\cc5BNH7j.s:32250  .debug_str:000000000002b197 .LASF297
C:\Users\CYMR90~1\AppData\Local\Temp\cc5BNH7j.s:27326  .debug_str:000000000001792b .LASF298
C:\Users\CYMR90~1\AppData\Local\Temp\cc5BNH7j.s:21621  .debug_str:0000000000000900 .LASF299
C:\Users\CYMR90~1\AppData\Local\Temp\cc5BNH7j.s:25379  .debug_str:000000000000fa53 .LASF300
C:\Users\CYMR90~1\AppData\Local\Temp\cc5BNH7j.s:28078  .debug_str:000000000001aaa7 .LASF301
C:\Users\CYMR90~1\AppData\Local\Temp\cc5BNH7j.s:26607  .debug_str:00000000000149b4 .LASF302
C:\Users\CYMR90~1\AppData\Local\Temp\cc5BNH7j.s:26081  .debug_str:00000000000128bd .LASF303
C:\Users\CYMR90~1\AppData\Local\Temp\cc5BNH7j.s:22015  .debug_str:00000000000020fb .LASF304
C:\Users\CYMR90~1\AppData\Local\Temp\cc5BNH7j.s:24545  .debug_str:000000000000c4f9 .LASF305
C:\Users\CYMR90~1\AppData\Local\Temp\cc5BNH7j.s:29814  .debug_str:00000000000216fe .LASF306
C:\Users\CYMR90~1\AppData\Local\Temp\cc5BNH7j.s:25397  .debug_str:000000000000fb80 .LASF307
C:\Users\CYMR90~1\AppData\Local\Temp\cc5BNH7j.s:30648  .debug_str:0000000000024acb .LASF308
C:\Users\CYMR90~1\AppData\Local\Temp\cc5BNH7j.s:30262  .debug_str:0000000000023187 .LASF309
C:\Users\CYMR90~1\AppData\Local\Temp\cc5BNH7j.s:24943  .debug_str:000000000000df4c .LASF310
C:\Users\CYMR90~1\AppData\Local\Temp\cc5BNH7j.s:30968  .debug_str:000000000002609b .LASF311
C:\Users\CYMR90~1\AppData\Local\Temp\cc5BNH7j.s:30482  .debug_str:0000000000023f91 .LASF312
C:\Users\CYMR90~1\AppData\Local\Temp\cc5BNH7j.s:24663  .debug_str:000000000000cd14 .LASF313
C:\Users\CYMR90~1\AppData\Local\Temp\cc5BNH7j.s:27592  .debug_str:0000000000018900 .LASF316
C:\Users\CYMR90~1\AppData\Local\Temp\cc5BNH7j.s:27956  .debug_str:000000000001a125 .LASF317
C:\Users\CYMR90~1\AppData\Local\Temp\cc5BNH7j.s:28292  .debug_str:000000000001b84d .LASF318
C:\Users\CYMR90~1\AppData\Local\Temp\cc5BNH7j.s:25387  .debug_str:000000000000faf0 .LASF319
C:\Users\CYMR90~1\AppData\Local\Temp\cc5BNH7j.s:24301  .debug_str:000000000000b4cd .LASF320
C:\Users\CYMR90~1\AppData\Local\Temp\cc5BNH7j.s:31676  .debug_str:0000000000028f07 .LASF321
C:\Users\CYMR90~1\AppData\Local\Temp\cc5BNH7j.s:24853  .debug_str:000000000000d999 .LASF322
C:\Users\CYMR90~1\AppData\Local\Temp\cc5BNH7j.s:30918  .debug_str:0000000000025d66 .LASF323
C:\Users\CYMR90~1\AppData\Local\Temp\cc5BNH7j.s:21507  .debug_str:0000000000000229 .LASF324
C:\Users\CYMR90~1\AppData\Local\Temp\cc5BNH7j.s:32084  .debug_str:000000000002a772 .LASF325
C:\Users\CYMR90~1\AppData\Local\Temp\cc5BNH7j.s:22425  .debug_str:0000000000003b2a .LASF326
C:\Users\CYMR90~1\AppData\Local\Temp\cc5BNH7j.s:26435  .debug_str:0000000000013f2e .LASF327
C:\Users\CYMR90~1\AppData\Local\Temp\cc5BNH7j.s:26083  .debug_str:00000000000128d2 .LASF328
C:\Users\CYMR90~1\AppData\Local\Temp\cc5BNH7j.s:28946  .debug_str:000000000001e225 .LASF329
C:\Users\CYMR90~1\AppData\Local\Temp\cc5BNH7j.s:28938  .debug_str:000000000001e1d4 .LASF330
C:\Users\CYMR90~1\AppData\Local\Temp\cc5BNH7j.s:31114  .debug_str:00000000000269ae .LASF331
C:\Users\CYMR90~1\AppData\Local\Temp\cc5BNH7j.s:31656  .debug_str:0000000000028db5 .LASF332
C:\Users\CYMR90~1\AppData\Local\Temp\cc5BNH7j.s:31840  .debug_str:00000000000298f0 .LASF333
C:\Users\CYMR90~1\AppData\Local\Temp\cc5BNH7j.s:27930  .debug_str:0000000000019faa .LASF334
C:\Users\CYMR90~1\AppData\Local\Temp\cc5BNH7j.s:27370  .debug_str:0000000000017bc2 .LASF335
C:\Users\CYMR90~1\AppData\Local\Temp\cc5BNH7j.s:31696  .debug_str:0000000000029050 .LASF336
C:\Users\CYMR90~1\AppData\Local\Temp\cc5BNH7j.s:26009  .debug_str:0000000000012406 .LASF337
C:\Users\CYMR90~1\AppData\Local\Temp\cc5BNH7j.s:29660  .debug_str:0000000000020d5d .LASF338
C:\Users\CYMR90~1\AppData\Local\Temp\cc5BNH7j.s:24055  .debug_str:000000000000a455 .LASF339
C:\Users\CYMR90~1\AppData\Local\Temp\cc5BNH7j.s:26221  .debug_str:00000000000131e7 .LASF340
C:\Users\CYMR90~1\AppData\Local\Temp\cc5BNH7j.s:28126  .debug_str:000000000001ad97 .LASF341
C:\Users\CYMR90~1\AppData\Local\Temp\cc5BNH7j.s:24363  .debug_str:000000000000b8fa .LASF342
C:\Users\CYMR90~1\AppData\Local\Temp\cc5BNH7j.s:21755  .debug_str:000000000000118d .LASF343
C:\Users\CYMR90~1\AppData\Local\Temp\cc5BNH7j.s:31808  .debug_str:000000000002970b .LASF344
C:\Users\CYMR90~1\AppData\Local\Temp\cc5BNH7j.s:32410  .debug_str:000000000002bc30 .LASF345
C:\Users\CYMR90~1\AppData\Local\Temp\cc5BNH7j.s:25265  .debug_str:000000000000f313 .LASF346
C:\Users\CYMR90~1\AppData\Local\Temp\cc5BNH7j.s:21609  .debug_str:0000000000000849 .LASF347
C:\Users\CYMR90~1\AppData\Local\Temp\cc5BNH7j.s:29458  .debug_str:00000000000200a6 .LASF348
C:\Users\CYMR90~1\AppData\Local\Temp\cc5BNH7j.s:31420  .debug_str:0000000000027daf .LASF349
C:\Users\CYMR90~1\AppData\Local\Temp\cc5BNH7j.s:28940  .debug_str:000000000001e1e0 .LASF350
C:\Users\CYMR90~1\AppData\Local\Temp\cc5BNH7j.s:21543  .debug_str:0000000000000468 .LASF351
C:\Users\CYMR90~1\AppData\Local\Temp\cc5BNH7j.s:29228  .debug_str:000000000001f31b .LASF352
C:\Users\CYMR90~1\AppData\Local\Temp\cc5BNH7j.s:30910  .debug_str:0000000000025cfc .LASF353
C:\Users\CYMR90~1\AppData\Local\Temp\cc5BNH7j.s:28562  .debug_str:000000000001c9a9 .LASF354
C:\Users\CYMR90~1\AppData\Local\Temp\cc5BNH7j.s:28732  .debug_str:000000000001d4f9 .LASF355
C:\Users\CYMR90~1\AppData\Local\Temp\cc5BNH7j.s:24745  .debug_str:000000000000d31f .LASF356
C:\Users\CYMR90~1\AppData\Local\Temp\cc5BNH7j.s:27886  .debug_str:0000000000019d1d .LASF357
C:\Users\CYMR90~1\AppData\Local\Temp\cc5BNH7j.s:31332  .debug_str:000000000002779f .LASF358
C:\Users\CYMR90~1\AppData\Local\Temp\cc5BNH7j.s:26073  .debug_str:0000000000012812 .LASF359
C:\Users\CYMR90~1\AppData\Local\Temp\cc5BNH7j.s:24153  .debug_str:000000000000aa6f .LASF360
C:\Users\CYMR90~1\AppData\Local\Temp\cc5BNH7j.s:29110  .debug_str:000000000001ebee .LASF361
C:\Users\CYMR90~1\AppData\Local\Temp\cc5BNH7j.s:25813  .debug_str:000000000001164c .LASF362
C:\Users\CYMR90~1\AppData\Local\Temp\cc5BNH7j.s:31596  .debug_str:0000000000028a0d .LASF363
C:\Users\CYMR90~1\AppData\Local\Temp\cc5BNH7j.s:23709  .debug_str:0000000000008ea7 .LASF364
C:\Users\CYMR90~1\AppData\Local\Temp\cc5BNH7j.s:31492  .debug_str:000000000002831f .LASF365
C:\Users\CYMR90~1\AppData\Local\Temp\cc5BNH7j.s:23125  .debug_str:00000000000067a9 .LASF366
C:\Users\CYMR90~1\AppData\Local\Temp\cc5BNH7j.s:26213  .debug_str:0000000000013149 .LASF367
C:\Users\CYMR90~1\AppData\Local\Temp\cc5BNH7j.s:23405  .debug_str:0000000000007a0a .LASF368
C:\Users\CYMR90~1\AppData\Local\Temp\cc5BNH7j.s:27418  .debug_str:0000000000017e93 .LASF372
C:\Users\CYMR90~1\AppData\Local\Temp\cc5BNH7j.s:31154  .debug_str:0000000000026c3f .LASF373
C:\Users\CYMR90~1\AppData\Local\Temp\cc5BNH7j.s:24135  .debug_str:000000000000a93d .LASF374
C:\Users\CYMR90~1\AppData\Local\Temp\cc5BNH7j.s:27208  .debug_str:00000000000171cd .LASF375
C:\Users\CYMR90~1\AppData\Local\Temp\cc5BNH7j.s:27404  .debug_str:0000000000017de1 .LASF376
C:\Users\CYMR90~1\AppData\Local\Temp\cc5BNH7j.s:29910  .debug_str:0000000000021cf9 .LASF377
C:\Users\CYMR90~1\AppData\Local\Temp\cc5BNH7j.s:28578  .debug_str:000000000001ca74 .LASF378
C:\Users\CYMR90~1\AppData\Local\Temp\cc5BNH7j.s:32242  .debug_str:000000000002b124 .LASF379
C:\Users\CYMR90~1\AppData\Local\Temp\cc5BNH7j.s:22109  .debug_str:00000000000026a7 .LASF380
C:\Users\CYMR90~1\AppData\Local\Temp\cc5BNH7j.s:32184  .debug_str:000000000002ad56 .LASF381
C:\Users\CYMR90~1\AppData\Local\Temp\cc5BNH7j.s:28300  .debug_str:000000000001b89e .LASF382
C:\Users\CYMR90~1\AppData\Local\Temp\cc5BNH7j.s:23181  .debug_str:0000000000006af7 .LASF383
C:\Users\CYMR90~1\AppData\Local\Temp\cc5BNH7j.s:24515  .debug_str:000000000000c301 .LASF384
C:\Users\CYMR90~1\AppData\Local\Temp\cc5BNH7j.s:27824  .debug_str:000000000001995f .LASF385
C:\Users\CYMR90~1\AppData\Local\Temp\cc5BNH7j.s:25503  .debug_str:000000000001024d .LASF386
C:\Users\CYMR90~1\AppData\Local\Temp\cc5BNH7j.s:22041  .debug_str:000000000000229a .LASF387
C:\Users\CYMR90~1\AppData\Local\Temp\cc5BNH7j.s:25109  .debug_str:000000000000e9c4 .LASF388
C:\Users\CYMR90~1\AppData\Local\Temp\cc5BNH7j.s:23681  .debug_str:0000000000008cff .LASF389
C:\Users\CYMR90~1\AppData\Local\Temp\cc5BNH7j.s:22509  .debug_str:000000000000410a .LASF391
C:\Users\CYMR90~1\AppData\Local\Temp\cc5BNH7j.s:25511  .debug_str:00000000000102b9 .LASF392
C:\Users\CYMR90~1\AppData\Local\Temp\cc5BNH7j.s:29556  .debug_str:0000000000020716 .LASF393
C:\Users\CYMR90~1\AppData\Local\Temp\cc5BNH7j.s:31290  .debug_str:00000000000274f0 .LASF394
C:\Users\CYMR90~1\AppData\Local\Temp\cc5BNH7j.s:22067  .debug_str:00000000000023f8 .LASF395
C:\Users\CYMR90~1\AppData\Local\Temp\cc5BNH7j.s:24177  .debug_str:000000000000abd3 .LASF396
C:\Users\CYMR90~1\AppData\Local\Temp\cc5BNH7j.s:27936  .debug_str:000000000001a00a .LASF397
C:\Users\CYMR90~1\AppData\Local\Temp\cc5BNH7j.s:32060  .debug_str:000000000002a62b .LASF398
C:\Users\CYMR90~1\AppData\Local\Temp\cc5BNH7j.s:26773  .debug_str:0000000000015450 .LASF399
C:\Users\CYMR90~1\AppData\Local\Temp\cc5BNH7j.s:29190  .debug_str:000000000001f0ba .LASF400
C:\Users\CYMR90~1\AppData\Local\Temp\cc5BNH7j.s:23669  .debug_str:0000000000008be8 .LASF401
C:\Users\CYMR90~1\AppData\Local\Temp\cc5BNH7j.s:27260  .debug_str:00000000000174d2 .LASF402
C:\Users\CYMR90~1\AppData\Local\Temp\cc5BNH7j.s:23025  .debug_str:000000000000616d .LASF403
C:\Users\CYMR90~1\AppData\Local\Temp\cc5BNH7j.s:24111  .debug_str:000000000000a7b1 .LASF404
C:\Users\CYMR90~1\AppData\Local\Temp\cc5BNH7j.s:25165  .debug_str:000000000000ecf5 .LASF405
C:\Users\CYMR90~1\AppData\Local\Temp\cc5BNH7j.s:28488  .debug_str:000000000001c429 .LASF406
C:\Users\CYMR90~1\AppData\Local\Temp\cc5BNH7j.s:26699  .debug_str:0000000000015008 .LASF407
C:\Users\CYMR90~1\AppData\Local\Temp\cc5BNH7j.s:27666  .debug_str:0000000000018e20 .LASF408
C:\Users\CYMR90~1\AppData\Local\Temp\cc5BNH7j.s:29858  .debug_str:00000000000219a6 .LASF409
C:\Users\CYMR90~1\AppData\Local\Temp\cc5BNH7j.s:22979  .debug_str:0000000000005e7a .LASF410
C:\Users\CYMR90~1\AppData\Local\Temp\cc5BNH7j.s:26881  .debug_str:0000000000015a8e .LASF411
C:\Users\CYMR90~1\AppData\Local\Temp\cc5BNH7j.s:29982  .debug_str:000000000002213e .LASF412
C:\Users\CYMR90~1\AppData\Local\Temp\cc5BNH7j.s:23157  .debug_str:000000000000698a .LASF413
C:\Users\CYMR90~1\AppData\Local\Temp\cc5BNH7j.s:31690  .debug_str:0000000000028fe9 .LASF414
C:\Users\CYMR90~1\AppData\Local\Temp\cc5BNH7j.s:25267  .debug_str:000000000000f321 .LASF415
C:\Users\CYMR90~1\AppData\Local\Temp\cc5BNH7j.s:31028  .debug_str:0000000000026460 .LASF416
C:\Users\CYMR90~1\AppData\Local\Temp\cc5BNH7j.s:32530  .debug_str:000000000002c45a .LASF417
C:\Users\CYMR90~1\AppData\Local\Temp\cc5BNH7j.s:23597  .debug_str:0000000000008756 .LASF418
C:\Users\CYMR90~1\AppData\Local\Temp\cc5BNH7j.s:31900  .debug_str:0000000000029c7e .LASF419
C:\Users\CYMR90~1\AppData\Local\Temp\cc5BNH7j.s:23225  .debug_str:0000000000006df7 .LASF420
C:\Users\CYMR90~1\AppData\Local\Temp\cc5BNH7j.s:32102  .debug_str:000000000002a872 .LASF421
C:\Users\CYMR90~1\AppData\Local\Temp\cc5BNH7j.s:24443  .debug_str:000000000000be8a .LASF422
C:\Users\CYMR90~1\AppData\Local\Temp\cc5BNH7j.s:24641  .debug_str:000000000000cbe7 .LASF423
C:\Users\CYMR90~1\AppData\Local\Temp\cc5BNH7j.s:29090  .debug_str:000000000001eac8 .LASF424
C:\Users\CYMR90~1\AppData\Local\Temp\cc5BNH7j.s:27704  .debug_str:0000000000019163 .LASF425
C:\Users\CYMR90~1\AppData\Local\Temp\cc5BNH7j.s:21517  .debug_str:00000000000002d7 .LASF426
C:\Users\CYMR90~1\AppData\Local\Temp\cc5BNH7j.s:31602  .debug_str:0000000000028a6a .LASF427
C:\Users\CYMR90~1\AppData\Local\Temp\cc5BNH7j.s:26963  .debug_str:0000000000016069 .LASF428
C:\Users\CYMR90~1\AppData\Local\Temp\cc5BNH7j.s:28870  .debug_str:000000000001ddb2 .LASF429
C:\Users\CYMR90~1\AppData\Local\Temp\cc5BNH7j.s:25451  .debug_str:000000000000ff0d .LASF430
C:\Users\CYMR90~1\AppData\Local\Temp\cc5BNH7j.s:27158  .debug_str:0000000000016f0b .LASF431
C:\Users\CYMR90~1\AppData\Local\Temp\cc5BNH7j.s:29932  .debug_str:0000000000021e23 .LASF432
C:\Users\CYMR90~1\AppData\Local\Temp\cc5BNH7j.s:24625  .debug_str:000000000000cb07 .LASF434
C:\Users\CYMR90~1\AppData\Local\Temp\cc5BNH7j.s:22699  .debug_str:0000000000004d9b .LASF435
C:\Users\CYMR90~1\AppData\Local\Temp\cc5BNH7j.s:27344  .debug_str:0000000000017a3d .LASF436
C:\Users\CYMR90~1\AppData\Local\Temp\cc5BNH7j.s:23245  .debug_str:0000000000006f33 .LASF437
C:\Users\CYMR90~1\AppData\Local\Temp\cc5BNH7j.s:31618  .debug_str:0000000000028b3a .LASF438
C:\Users\CYMR90~1\AppData\Local\Temp\cc5BNH7j.s:21483  .debug_str:00000000000000c7 .LASF439
C:\Users\CYMR90~1\AppData\Local\Temp\cc5BNH7j.s:29126  .debug_str:000000000001ecb8 .LASF440
C:\Users\CYMR90~1\AppData\Local\Temp\cc5BNH7j.s:24861  .debug_str:000000000000d9fe .LASF441
C:\Users\CYMR90~1\AppData\Local\Temp\cc5BNH7j.s:30166  .debug_str:0000000000022c1c .LASF442
C:\Users\CYMR90~1\AppData\Local\Temp\cc5BNH7j.s:25743  .debug_str:00000000000111b4 .LASF443
C:\Users\CYMR90~1\AppData\Local\Temp\cc5BNH7j.s:25585  .debug_str:00000000000107ac .LASF444
C:\Users\CYMR90~1\AppData\Local\Temp\cc5BNH7j.s:32524  .debug_str:000000000002c40e .LASF445
C:\Users\CYMR90~1\AppData\Local\Temp\cc5BNH7j.s:32464  .debug_str:000000000002bffd .LASF446
C:\Users\CYMR90~1\AppData\Local\Temp\cc5BNH7j.s:25929  .debug_str:0000000000011e6e .LASF447
C:\Users\CYMR90~1\AppData\Local\Temp\cc5BNH7j.s:30140  .debug_str:0000000000022aa0 .LASF448
C:\Users\CYMR90~1\AppData\Local\Temp\cc5BNH7j.s:22521  .debug_str:00000000000041c2 .LASF449
C:\Users\CYMR90~1\AppData\Local\Temp\cc5BNH7j.s:23265  .debug_str:000000000000709c .LASF450
C:\Users\CYMR90~1\AppData\Local\Temp\cc5BNH7j.s:21995  .debug_str:0000000000001fff .LASF451
C:\Users\CYMR90~1\AppData\Local\Temp\cc5BNH7j.s:26615  .debug_str:0000000000014a56 .LASF452
C:\Users\CYMR90~1\AppData\Local\Temp\cc5BNH7j.s:21985  .debug_str:0000000000001f8c .LASF453
C:\Users\CYMR90~1\AppData\Local\Temp\cc5BNH7j.s:32470  .debug_str:000000000002c043 .LASF454
C:\Users\CYMR90~1\AppData\Local\Temp\cc5BNH7j.s:25029  .debug_str:000000000000e47c .LASF455
C:\Users\CYMR90~1\AppData\Local\Temp\cc5BNH7j.s:29758  .debug_str:0000000000021398 .LASF456
C:\Users\CYMR90~1\AppData\Local\Temp\cc5BNH7j.s:24717  .debug_str:000000000000d0d9 .LASF457
C:\Users\CYMR90~1\AppData\Local\Temp\cc5BNH7j.s:23037  .debug_str:000000000000621a .LASF458
C:\Users\CYMR90~1\AppData\Local\Temp\cc5BNH7j.s:25651  .debug_str:0000000000010c8b .LASF459
C:\Users\CYMR90~1\AppData\Local\Temp\cc5BNH7j.s:29510  .debug_str:000000000002045a .LASF460
C:\Users\CYMR90~1\AppData\Local\Temp\cc5BNH7j.s:30652  .debug_str:0000000000024b01 .LASF461
C:\Users\CYMR90~1\AppData\Local\Temp\cc5BNH7j.s:27121  .debug_str:0000000000016b07 .LASF462
C:\Users\CYMR90~1\AppData\Local\Temp\cc5BNH7j.s:27986  .debug_str:000000000001a481 .LASF463
C:\Users\CYMR90~1\AppData\Local\Temp\cc5BNH7j.s:24877  .debug_str:000000000000dacc .LASF464
C:\Users\CYMR90~1\AppData\Local\Temp\cc5BNH7j.s:26021  .debug_str:00000000000124c9 .LASF465
C:\Users\CYMR90~1\AppData\Local\Temp\cc5BNH7j.s:23175  .debug_str:0000000000006ab1 .LASF466
C:\Users\CYMR90~1\AppData\Local\Temp\cc5BNH7j.s:23727  .debug_str:0000000000008f8a .LASF467
C:\Users\CYMR90~1\AppData\Local\Temp\cc5BNH7j.s:25787  .debug_str:00000000000114a4 .LASF468
C:\Users\CYMR90~1\AppData\Local\Temp\cc5BNH7j.s:22325  .debug_str:00000000000034b0 .LASF469
C:\Users\CYMR90~1\AppData\Local\Temp\cc5BNH7j.s:25547  .debug_str:00000000000104ca .LASF470
C:\Users\CYMR90~1\AppData\Local\Temp\cc5BNH7j.s:25427  .debug_str:000000000000fd82 .LASF471
C:\Users\CYMR90~1\AppData\Local\Temp\cc5BNH7j.s:25003  .debug_str:000000000000e2f0 .LASF472
C:\Users\CYMR90~1\AppData\Local\Temp\cc5BNH7j.s:21693  .debug_str:0000000000000d7e .LASF473
C:\Users\CYMR90~1\AppData\Local\Temp\cc5BNH7j.s:23291  .debug_str:000000000000729d .LASF474
C:\Users\CYMR90~1\AppData\Local\Temp\cc5BNH7j.s:21639  .debug_str:0000000000000a44 .LASF475
C:\Users\CYMR90~1\AppData\Local\Temp\cc5BNH7j.s:22487  .debug_str:0000000000003f20 .LASF476
C:\Users\CYMR90~1\AppData\Local\Temp\cc5BNH7j.s:21863  .debug_str:000000000000185e .LASF477
C:\Users\CYMR90~1\AppData\Local\Temp\cc5BNH7j.s:26909  .debug_str:0000000000015c9a .LASF478
C:\Users\CYMR90~1\AppData\Local\Temp\cc5BNH7j.s:24321  .debug_str:000000000000b649 .LASF479
C:\Users\CYMR90~1\AppData\Local\Temp\cc5BNH7j.s:32098  .debug_str:000000000002a842 .LASF480
C:\Users\CYMR90~1\AppData\Local\Temp\cc5BNH7j.s:27500  .debug_str:0000000000018345 .LASF481
C:\Users\CYMR90~1\AppData\Local\Temp\cc5BNH7j.s:24243  .debug_str:000000000000b0cd .LASF482
C:\Users\CYMR90~1\AppData\Local\Temp\cc5BNH7j.s:23077  .debug_str:000000000000647e .LASF483
C:\Users\CYMR90~1\AppData\Local\Temp\cc5BNH7j.s:21605  .debug_str:0000000000000802 .LASF484
C:\Users\CYMR90~1\AppData\Local\Temp\cc5BNH7j.s:27446  .debug_str:0000000000018027 .LASF485
C:\Users\CYMR90~1\AppData\Local\Temp\cc5BNH7j.s:22709  .debug_str:0000000000004e39 .LASF486
C:\Users\CYMR90~1\AppData\Local\Temp\cc5BNH7j.s:26371  .debug_str:0000000000013b8b .LASF487
C:\Users\CYMR90~1\AppData\Local\Temp\cc5BNH7j.s:25573  .debug_str:0000000000010708 .LASF488
C:\Users\CYMR90~1\AppData\Local\Temp\cc5BNH7j.s:26137  .debug_str:0000000000012c62 .LASF489
C:\Users\CYMR90~1\AppData\Local\Temp\cc5BNH7j.s:24601  .debug_str:000000000000c9bf .LASF490
C:\Users\CYMR90~1\AppData\Local\Temp\cc5BNH7j.s:23595  .debug_str:0000000000008748 .LASF491
C:\Users\CYMR90~1\AppData\Local\Temp\cc5BNH7j.s:25223  .debug_str:000000000000f070 .LASF492
C:\Users\CYMR90~1\AppData\Local\Temp\cc5BNH7j.s:25537  .debug_str:000000000001044e .LASF493
C:\Users\CYMR90~1\AppData\Local\Temp\cc5BNH7j.s:25433  .debug_str:000000000000fdf6 .LASF494
C:\Users\CYMR90~1\AppData\Local\Temp\cc5BNH7j.s:27694  .debug_str:00000000000190c8 .LASF495
C:\Users\CYMR90~1\AppData\Local\Temp\cc5BNH7j.s:32548  .debug_str:000000000002c567 .LASF496
C:\Users\CYMR90~1\AppData\Local\Temp\cc5BNH7j.s:32486  .debug_str:000000000002c19d .LASF497
C:\Users\CYMR90~1\AppData\Local\Temp\cc5BNH7j.s:25271  .debug_str:000000000000f368 .LASF498
C:\Users\CYMR90~1\AppData\Local\Temp\cc5BNH7j.s:31712  .debug_str:0000000000029117 .LASF499
C:\Users\CYMR90~1\AppData\Local\Temp\cc5BNH7j.s:31812  .debug_str:000000000002972e .LASF500
C:\Users\CYMR90~1\AppData\Local\Temp\cc5BNH7j.s:27918  .debug_str:0000000000019ef5 .LASF501
C:\Users\CYMR90~1\AppData\Local\Temp\cc5BNH7j.s:31766  .debug_str:0000000000029482 .LASF502
C:\Users\CYMR90~1\AppData\Local\Temp\cc5BNH7j.s:26529  .debug_str:00000000000144f0 .LASF503
C:\Users\CYMR90~1\AppData\Local\Temp\cc5BNH7j.s:22195  .debug_str:0000000000002c29 .LASF504
C:\Users\CYMR90~1\AppData\Local\Temp\cc5BNH7j.s:30418  .debug_str:0000000000023ada .LASF505
C:\Users\CYMR90~1\AppData\Local\Temp\cc5BNH7j.s:31286  .debug_str:00000000000274b5 .LASF506
C:\Users\CYMR90~1\AppData\Local\Temp\cc5BNH7j.s:30864  .debug_str:0000000000025a21 .LASF507
C:\Users\CYMR90~1\AppData\Local\Temp\cc5BNH7j.s:27614  .debug_str:0000000000018a59 .LASF508
C:\Users\CYMR90~1\AppData\Local\Temp\cc5BNH7j.s:29846  .debug_str:00000000000218aa .LASF509
C:\Users\CYMR90~1\AppData\Local\Temp\cc5BNH7j.s:31510  .debug_str:000000000002846a .LASF510
C:\Users\CYMR90~1\AppData\Local\Temp\cc5BNH7j.s:27390  .debug_str:0000000000017cd6 .LASF511
C:\Users\CYMR90~1\AppData\Local\Temp\cc5BNH7j.s:31142  .debug_str:0000000000026b4a .LASF512
C:\Users\CYMR90~1\AppData\Local\Temp\cc5BNH7j.s:31258  .debug_str:000000000002732d .LASF513
C:\Users\CYMR90~1\AppData\Local\Temp\cc5BNH7j.s:31694  .debug_str:0000000000029015 .LASF514
C:\Users\CYMR90~1\AppData\Local\Temp\cc5BNH7j.s:26303  .debug_str:000000000001377f .LASF515
C:\Users\CYMR90~1\AppData\Local\Temp\cc5BNH7j.s:31568  .debug_str:0000000000028866 .LASF516
C:\Users\CYMR90~1\AppData\Local\Temp\cc5BNH7j.s:27760  .debug_str:00000000000194b8 .LASF517
C:\Users\CYMR90~1\AppData\Local\Temp\cc5BNH7j.s:31518  .debug_str:000000000002851e .LASF518
C:\Users\CYMR90~1\AppData\Local\Temp\cc5BNH7j.s:28410  .debug_str:000000000001bf98 .LASF519
C:\Users\CYMR90~1\AppData\Local\Temp\cc5BNH7j.s:32458  .debug_str:000000000002bf9b .LASF520
C:\Users\CYMR90~1\AppData\Local\Temp\cc5BNH7j.s:31126  .debug_str:0000000000026a4b .LASF521
C:\Users\CYMR90~1\AppData\Local\Temp\cc5BNH7j.s:30774  .debug_str:00000000000253ad .LASF522
C:\Users\CYMR90~1\AppData\Local\Temp\cc5BNH7j.s:26183  .debug_str:0000000000012f46 .LASF523
C:\Users\CYMR90~1\AppData\Local\Temp\cc5BNH7j.s:30332  .debug_str:000000000002360c .LASF524
C:\Users\CYMR90~1\AppData\Local\Temp\cc5BNH7j.s:23807  .debug_str:0000000000009432 .LASF525
C:\Users\CYMR90~1\AppData\Local\Temp\cc5BNH7j.s:32478  .debug_str:000000000002c0b1 .LASF526
C:\Users\CYMR90~1\AppData\Local\Temp\cc5BNH7j.s:25037  .debug_str:000000000000e4fa .LASF527
C:\Users\CYMR90~1\AppData\Local\Temp\cc5BNH7j.s:26045  .debug_str:0000000000012644 .LASF528
C:\Users\CYMR90~1\AppData\Local\Temp\cc5BNH7j.s:26887  .debug_str:0000000000015af2 .LASF529
C:\Users\CYMR90~1\AppData\Local\Temp\cc5BNH7j.s:26921  .debug_str:0000000000015d47 .LASF530
C:\Users\CYMR90~1\AppData\Local\Temp\cc5BNH7j.s:25969  .debug_str:00000000000121ad .LASF531
C:\Users\CYMR90~1\AppData\Local\Temp\cc5BNH7j.s:22253  .debug_str:0000000000002faf .LASF532
C:\Users\CYMR90~1\AppData\Local\Temp\cc5BNH7j.s:24723  .debug_str:000000000000d113 .LASF533
C:\Users\CYMR90~1\AppData\Local\Temp\cc5BNH7j.s:32322  .debug_str:000000000002b62d .LASF534
C:\Users\CYMR90~1\AppData\Local\Temp\cc5BNH7j.s:25221  .debug_str:000000000000f024 .LASF535
C:\Users\CYMR90~1\AppData\Local\Temp\cc5BNH7j.s:30516  .debug_str:00000000000241f3 .LASF536
C:\Users\CYMR90~1\AppData\Local\Temp\cc5BNH7j.s:31970  .debug_str:000000000002a06c .LASF537
C:\Users\CYMR90~1\AppData\Local\Temp\cc5BNH7j.s:25803  .debug_str:0000000000011593 .LASF538
C:\Users\CYMR90~1\AppData\Local\Temp\cc5BNH7j.s:26377  .debug_str:0000000000013be0 .LASF539
C:\Users\CYMR90~1\AppData\Local\Temp\cc5BNH7j.s:28468  .debug_str:000000000001c317 .LASF540
C:\Users\CYMR90~1\AppData\Local\Temp\cc5BNH7j.s:24815  .debug_str:000000000000d777 .LASF541
C:\Users\CYMR90~1\AppData\Local\Temp\cc5BNH7j.s:28764  .debug_str:000000000001d70e .LASF542
C:\Users\CYMR90~1\AppData\Local\Temp\cc5BNH7j.s:22595  .debug_str:0000000000004698 .LASF543
C:\Users\CYMR90~1\AppData\Local\Temp\cc5BNH7j.s:24971  .debug_str:000000000000e0e8 .LASF544
C:\Users\CYMR90~1\AppData\Local\Temp\cc5BNH7j.s:31752  .debug_str:000000000002939e .LASF545
C:\Users\CYMR90~1\AppData\Local\Temp\cc5BNH7j.s:26313  .debug_str:000000000001380e .LASF546
C:\Users\CYMR90~1\AppData\Local\Temp\cc5BNH7j.s:30036  .debug_str:0000000000022436 .LASF547
C:\Users\CYMR90~1\AppData\Local\Temp\cc5BNH7j.s:32238  .debug_str:000000000002b0e3 .LASF548
C:\Users\CYMR90~1\AppData\Local\Temp\cc5BNH7j.s:22299  .debug_str:00000000000032ee .LASF549
C:\Users\CYMR90~1\AppData\Local\Temp\cc5BNH7j.s:23433  .debug_str:0000000000007b9d .LASF550
C:\Users\CYMR90~1\AppData\Local\Temp\cc5BNH7j.s:31036  .debug_str:00000000000264c3 .LASF551
C:\Users\CYMR90~1\AppData\Local\Temp\cc5BNH7j.s:23005  .debug_str:0000000000006023 .LASF552
C:\Users\CYMR90~1\AppData\Local\Temp\cc5BNH7j.s:31988  .debug_str:000000000002a168 .LASF553
C:\Users\CYMR90~1\AppData\Local\Temp\cc5BNH7j.s:24391  .debug_str:000000000000bac2 .LASF554
C:\Users\CYMR90~1\AppData\Local\Temp\cc5BNH7j.s:24577  .debug_str:000000000000c743 .LASF555
C:\Users\CYMR90~1\AppData\Local\Temp\cc5BNH7j.s:23123  .debug_str:0000000000006756 .LASF556
C:\Users\CYMR90~1\AppData\Local\Temp\cc5BNH7j.s:22835  .debug_str:00000000000055a3 .LASF557
C:\Users\CYMR90~1\AppData\Local\Temp\cc5BNH7j.s:25915  .debug_str:0000000000011d93 .LASF558
C:\Users\CYMR90~1\AppData\Local\Temp\cc5BNH7j.s:27642  .debug_str:0000000000018caf .LASF559
C:\Users\CYMR90~1\AppData\Local\Temp\cc5BNH7j.s:31558  .debug_str:00000000000287be .LASF560
C:\Users\CYMR90~1\AppData\Local\Temp\cc5BNH7j.s:24387  .debug_str:000000000000ba5e .LASF561
C:\Users\CYMR90~1\AppData\Local\Temp\cc5BNH7j.s:25385  .debug_str:000000000000faa5 .LASF562
C:\Users\CYMR90~1\AppData\Local\Temp\cc5BNH7j.s:24765  .debug_str:000000000000d445 .LASF563
C:\Users\CYMR90~1\AppData\Local\Temp\cc5BNH7j.s:24095  .debug_str:000000000000a69c .LASF564
C:\Users\CYMR90~1\AppData\Local\Temp\cc5BNH7j.s:29784  .debug_str:000000000002150e .LASF565
C:\Users\CYMR90~1\AppData\Local\Temp\cc5BNH7j.s:29006  .debug_str:000000000001e5bf .LASF566
C:\Users\CYMR90~1\AppData\Local\Temp\cc5BNH7j.s:25911  .debug_str:0000000000011d4b .LASF567
C:\Users\CYMR90~1\AppData\Local\Temp\cc5BNH7j.s:23007  .debug_str:0000000000006037 .LASF568
C:\Users\CYMR90~1\AppData\Local\Temp\cc5BNH7j.s:21665  .debug_str:0000000000000c0a .LASF570
C:\Users\CYMR90~1\AppData\Local\Temp\cc5BNH7j.s:27276  .debug_str:00000000000175c3 .LASF571
C:\Users\CYMR90~1\AppData\Local\Temp\cc5BNH7j.s:28406  .debug_str:000000000001bf72 .LASF574
C:\Users\CYMR90~1\AppData\Local\Temp\cc5BNH7j.s:22565  .debug_str:000000000000449c .LASF575
C:\Users\CYMR90~1\AppData\Local\Temp\cc5BNH7j.s:26535  .debug_str:000000000001457a .LASF576
C:\Users\CYMR90~1\AppData\Local\Temp\cc5BNH7j.s:23525  .debug_str:00000000000082f0 .LASF577
C:\Users\CYMR90~1\AppData\Local\Temp\cc5BNH7j.s:29684  .debug_str:0000000000020ea3 .LASF579
C:\Users\CYMR90~1\AppData\Local\Temp\cc5BNH7j.s:28882  .debug_str:000000000001de6b .LASF580
C:\Users\CYMR90~1\AppData\Local\Temp\cc5BNH7j.s:30416  .debug_str:0000000000023ad1 .LASF581
C:\Users\CYMR90~1\AppData\Local\Temp\cc5BNH7j.s:22963  .debug_str:0000000000005d86 .LASF582
C:\Users\CYMR90~1\AppData\Local\Temp\cc5BNH7j.s:25531  .debug_str:00000000000103e4 .LASF583
C:\Users\CYMR90~1\AppData\Local\Temp\cc5BNH7j.s:22149  .debug_str:0000000000002971 .LASF584
C:\Users\CYMR90~1\AppData\Local\Temp\cc5BNH7j.s:31846  .debug_str:000000000002994f .LASF585
C:\Users\CYMR90~1\AppData\Local\Temp\cc5BNH7j.s:30080  .debug_str:00000000000226d2 .LASF586
C:\Users\CYMR90~1\AppData\Local\Temp\cc5BNH7j.s:28288  .debug_str:000000000001b82b .LASF587
C:\Users\CYMR90~1\AppData\Local\Temp\cc5BNH7j.s:23189  .debug_str:0000000000006b92 .LASF588
C:\Users\CYMR90~1\AppData\Local\Temp\cc5BNH7j.s:27552  .debug_str:0000000000018647 .LASF589
C:\Users\CYMR90~1\AppData\Local\Temp\cc5BNH7j.s:27932  .debug_str:0000000000019fb3 .LASF590
C:\Users\CYMR90~1\AppData\Local\Temp\cc5BNH7j.s:28756  .debug_str:000000000001d6a2 .LASF591
C:\Users\CYMR90~1\AppData\Local\Temp\cc5BNH7j.s:28544  .debug_str:000000000001c86d .LASF592
C:\Users\CYMR90~1\AppData\Local\Temp\cc5BNH7j.s:30404  .debug_str:0000000000023a2e .LASF593
C:\Users\CYMR90~1\AppData\Local\Temp\cc5BNH7j.s:25493  .debug_str:00000000000101b3 .LASF594
C:\Users\CYMR90~1\AppData\Local\Temp\cc5BNH7j.s:26369  .debug_str:0000000000013b6b .LASF595
C:\Users\CYMR90~1\AppData\Local\Temp\cc5BNH7j.s:26097  .debug_str:00000000000129bd .LASF596
C:\Users\CYMR90~1\AppData\Local\Temp\cc5BNH7j.s:23293  .debug_str:00000000000072bc .LASF597
C:\Users\CYMR90~1\AppData\Local\Temp\cc5BNH7j.s:31382  .debug_str:0000000000027b4d .LASF598
C:\Users\CYMR90~1\AppData\Local\Temp\cc5BNH7j.s:26261  .debug_str:00000000000134e5 .LASF599
C:\Users\CYMR90~1\AppData\Local\Temp\cc5BNH7j.s:29208  .debug_str:000000000001f1c5 .LASF600
C:\Users\CYMR90~1\AppData\Local\Temp\cc5BNH7j.s:28476  .debug_str:000000000001c383 .LASF601
C:\Users\CYMR90~1\AppData\Local\Temp\cc5BNH7j.s:30872  .debug_str:0000000000025ab4 .LASF602
C:\Users\CYMR90~1\AppData\Local\Temp\cc5BNH7j.s:31574  .debug_str:00000000000288c8 .LASF603
C:\Users\CYMR90~1\AppData\Local\Temp\cc5BNH7j.s:31468  .debug_str:00000000000281a2 .LASF604
C:\Users\CYMR90~1\AppData\Local\Temp\cc5BNH7j.s:26211  .debug_str:0000000000013131 .LASF605
C:\Users\CYMR90~1\AppData\Local\Temp\cc5BNH7j.s:30218  .debug_str:0000000000022ef4 .LASF606
C:\Users\CYMR90~1\AppData\Local\Temp\cc5BNH7j.s:23875  .debug_str:0000000000009909 .LASF607
C:\Users\CYMR90~1\AppData\Local\Temp\cc5BNH7j.s:23387  .debug_str:00000000000078a7 .LASF608
C:\Users\CYMR90~1\AppData\Local\Temp\cc5BNH7j.s:24155  .debug_str:000000000000aa7d .LASF609
C:\Users\CYMR90~1\AppData\Local\Temp\cc5BNH7j.s:28324  .debug_str:000000000001b9f0 .LASF610
C:\Users\CYMR90~1\AppData\Local\Temp\cc5BNH7j.s:28842  .debug_str:000000000001dbda .LASF611
C:\Users\CYMR90~1\AppData\Local\Temp\cc5BNH7j.s:30006  .debug_str:0000000000022287 .LASF612
C:\Users\CYMR90~1\AppData\Local\Temp\cc5BNH7j.s:26753  .debug_str:0000000000015310 .LASF613
C:\Users\CYMR90~1\AppData\Local\Temp\cc5BNH7j.s:23453  .debug_str:0000000000007d97 .LASF614
C:\Users\CYMR90~1\AppData\Local\Temp\cc5BNH7j.s:21567  .debug_str:0000000000000599 .LASF615
C:\Users\CYMR90~1\AppData\Local\Temp\cc5BNH7j.s:26991  .debug_str:00000000000161ee .LASF616
C:\Users\CYMR90~1\AppData\Local\Temp\cc5BNH7j.s:27968  .debug_str:000000000001a1e1 .LASF617
C:\Users\CYMR90~1\AppData\Local\Temp\cc5BNH7j.s:27123  .debug_str:0000000000016b16 .LASF618
C:\Users\CYMR90~1\AppData\Local\Temp\cc5BNH7j.s:30088  .debug_str:0000000000022737 .LASF619
C:\Users\CYMR90~1\AppData\Local\Temp\cc5BNH7j.s:24407  .debug_str:000000000000bc46 .LASF620
C:\Users\CYMR90~1\AppData\Local\Temp\cc5BNH7j.s:23203  .debug_str:0000000000006c7f .LASF621
C:\Users\CYMR90~1\AppData\Local\Temp\cc5BNH7j.s:30282  .debug_str:00000000000232a0 .LASF622
C:\Users\CYMR90~1\AppData\Local\Temp\cc5BNH7j.s:29386  .debug_str:000000000001fc93 .LASF623
C:\Users\CYMR90~1\AppData\Local\Temp\cc5BNH7j.s:31340  .debug_str:0000000000027814 .LASF624
C:\Users\CYMR90~1\AppData\Local\Temp\cc5BNH7j.s:31944  .debug_str:0000000000029f09 .LASF625
C:\Users\CYMR90~1\AppData\Local\Temp\cc5BNH7j.s:26443  .debug_str:0000000000013f8a .LASF626
C:\Users\CYMR90~1\AppData\Local\Temp\cc5BNH7j.s:32204  .debug_str:000000000002ae59 .LASF627
C:\Users\CYMR90~1\AppData\Local\Temp\cc5BNH7j.s:26845  .debug_str:000000000001584e .LASF628
C:\Users\CYMR90~1\AppData\Local\Temp\cc5BNH7j.s:30034  .debug_str:00000000000223fe .LASF629
C:\Users\CYMR90~1\AppData\Local\Temp\cc5BNH7j.s:23603  .debug_str:00000000000087cd .LASF630
C:\Users\CYMR90~1\AppData\Local\Temp\cc5BNH7j.s:24801  .debug_str:000000000000d690 .LASF631
C:\Users\CYMR90~1\AppData\Local\Temp\cc5BNH7j.s:29996  .debug_str:00000000000221e7 .LASF632
C:\Users\CYMR90~1\AppData\Local\Temp\cc5BNH7j.s:24521  .debug_str:000000000000c362 .LASF633
C:\Users\CYMR90~1\AppData\Local\Temp\cc5BNH7j.s:21655  .debug_str:0000000000000b77 .LASF634
C:\Users\CYMR90~1\AppData\Local\Temp\cc5BNH7j.s:27876  .debug_str:0000000000019c7b .LASF635
C:\Users\CYMR90~1\AppData\Local\Temp\cc5BNH7j.s:27045  .debug_str:000000000001658e .LASF636
C:\Users\CYMR90~1\AppData\Local\Temp\cc5BNH7j.s:28644  .debug_str:000000000001cfdd .LASF637
C:\Users\CYMR90~1\AppData\Local\Temp\cc5BNH7j.s:22361  .debug_str:0000000000003704 .LASF638
C:\Users\CYMR90~1\AppData\Local\Temp\cc5BNH7j.s:25863  .debug_str:0000000000011a79 .LASF639
C:\Users\CYMR90~1\AppData\Local\Temp\cc5BNH7j.s:23465  .debug_str:0000000000007e3f .LASF640
C:\Users\CYMR90~1\AppData\Local\Temp\cc5BNH7j.s:26079  .debug_str:0000000000012881 .LASF641
C:\Users\CYMR90~1\AppData\Local\Temp\cc5BNH7j.s:24309  .debug_str:000000000000b547 .LASF642
C:\Users\CYMR90~1\AppData\Local\Temp\cc5BNH7j.s:31322  .debug_str:00000000000276a6 .LASF643
C:\Users\CYMR90~1\AppData\Local\Temp\cc5BNH7j.s:24679  .debug_str:000000000000ce45 .LASF644
C:\Users\CYMR90~1\AppData\Local\Temp\cc5BNH7j.s:22533  .debug_str:000000000000425a .LASF645
C:\Users\CYMR90~1\AppData\Local\Temp\cc5BNH7j.s:23349  .debug_str:0000000000007615 .LASF646
C:\Users\CYMR90~1\AppData\Local\Temp\cc5BNH7j.s:22291  .debug_str:000000000000326b .LASF647
C:\Users\CYMR90~1\AppData\Local\Temp\cc5BNH7j.s:22653  .debug_str:0000000000004ab0 .LASF648
C:\Users\CYMR90~1\AppData\Local\Temp\cc5BNH7j.s:31844  .debug_str:0000000000029910 .LASF649
C:\Users\CYMR90~1\AppData\Local\Temp\cc5BNH7j.s:25783  .debug_str:0000000000011431 .LASF650
C:\Users\CYMR90~1\AppData\Local\Temp\cc5BNH7j.s:31960  .debug_str:0000000000029fe3 .LASF651
C:\Users\CYMR90~1\AppData\Local\Temp\cc5BNH7j.s:25395  .debug_str:000000000000fb66 .LASF652
C:\Users\CYMR90~1\AppData\Local\Temp\cc5BNH7j.s:21547  .debug_str:0000000000000488 .LASF653
C:\Users\CYMR90~1\AppData\Local\Temp\cc5BNH7j.s:32188  .debug_str:000000000002ad81 .LASF654
C:\Users\CYMR90~1\AppData\Local\Temp\cc5BNH7j.s:23699  .debug_str:0000000000008e11 .LASF655
C:\Users\CYMR90~1\AppData\Local\Temp\cc5BNH7j.s:31396  .debug_str:0000000000027c22 .LASF656
C:\Users\CYMR90~1\AppData\Local\Temp\cc5BNH7j.s:21599  .debug_str:00000000000007c0 .LASF657
C:\Users\CYMR90~1\AppData\Local\Temp\cc5BNH7j.s:32010  .debug_str:000000000002a2e0 .LASF658
C:\Users\CYMR90~1\AppData\Local\Temp\cc5BNH7j.s:26175  .debug_str:0000000000012ee1 .LASF659
C:\Users\CYMR90~1\AppData\Local\Temp\cc5BNH7j.s:28574  .debug_str:000000000001ca48 .LASF660
C:\Users\CYMR90~1\AppData\Local\Temp\cc5BNH7j.s:27868  .debug_str:0000000000019c26 .LASF661
C:\Users\CYMR90~1\AppData\Local\Temp\cc5BNH7j.s:29234  .debug_str:000000000001f366 .LASF662
C:\Users\CYMR90~1\AppData\Local\Temp\cc5BNH7j.s:31184  .debug_str:0000000000026e0d .LASF663
C:\Users\CYMR90~1\AppData\Local\Temp\cc5BNH7j.s:25763  .debug_str:0000000000011309 .LASF664
C:\Users\CYMR90~1\AppData\Local\Temp\cc5BNH7j.s:25753  .debug_str:000000000001125c .LASF665
C:\Users\CYMR90~1\AppData\Local\Temp\cc5BNH7j.s:27650  .debug_str:0000000000018d61 .LASF666
C:\Users\CYMR90~1\AppData\Local\Temp\cc5BNH7j.s:22943  .debug_str:0000000000005c65 .LASF667
C:\Users\CYMR90~1\AppData\Local\Temp\cc5BNH7j.s:32680  .debug_str:000000000002ce31 .LASF668
C:\Users\CYMR90~1\AppData\Local\Temp\cc5BNH7j.s:23317  .debug_str:0000000000007422 .LASF669
C:\Users\CYMR90~1\AppData\Local\Temp\cc5BNH7j.s:29880  .debug_str:0000000000021af4 .LASF670
C:\Users\CYMR90~1\AppData\Local\Temp\cc5BNH7j.s:26157  .debug_str:0000000000012dbe .LASF671
C:\Users\CYMR90~1\AppData\Local\Temp\cc5BNH7j.s:29286  .debug_str:000000000001f64e .LASF672
C:\Users\CYMR90~1\AppData\Local\Temp\cc5BNH7j.s:30010  .debug_str:00000000000222b8 .LASF673
C:\Users\CYMR90~1\AppData\Local\Temp\cc5BNH7j.s:21931  .debug_str:0000000000001c69 .LASF674
C:\Users\CYMR90~1\AppData\Local\Temp\cc5BNH7j.s:26831  .debug_str:000000000001576f .LASF676
C:\Users\CYMR90~1\AppData\Local\Temp\cc5BNH7j.s:30434  .debug_str:0000000000023bf1 .LASF677
C:\Users\CYMR90~1\AppData\Local\Temp\cc5BNH7j.s:27888  .debug_str:0000000000019d29 .LASF678
C:\Users\CYMR90~1\AppData\Local\Temp\cc5BNH7j.s:30536  .debug_str:000000000002435e .LASF679
C:\Users\CYMR90~1\AppData\Local\Temp\cc5BNH7j.s:29002  .debug_str:000000000001e593 .LASF680
C:\Users\CYMR90~1\AppData\Local\Temp\cc5BNH7j.s:31858  .debug_str:0000000000029a0d .LASF681
C:\Users\CYMR90~1\AppData\Local\Temp\cc5BNH7j.s:22535  .debug_str:0000000000004298 .LASF682
C:\Users\CYMR90~1\AppData\Local\Temp\cc5BNH7j.s:22461  .debug_str:0000000000003d65 .LASF683
C:\Users\CYMR90~1\AppData\Local\Temp\cc5BNH7j.s:23833  .debug_str:0000000000009603 .LASF684
C:\Users\CYMR90~1\AppData\Local\Temp\cc5BNH7j.s:28328  .debug_str:000000000001ba1d .LASF685
C:\Users\CYMR90~1\AppData\Local\Temp\cc5BNH7j.s:29742  .debug_str:0000000000021290 .LASF686
C:\Users\CYMR90~1\AppData\Local\Temp\cc5BNH7j.s:27101  .debug_str:0000000000016947 .LASF687
C:\Users\CYMR90~1\AppData\Local\Temp\cc5BNH7j.s:25687  .debug_str:0000000000010e5c .LASF688
C:\Users\CYMR90~1\AppData\Local\Temp\cc5BNH7j.s:22343  .debug_str:00000000000035ae .LASF689
C:\Users\CYMR90~1\AppData\Local\Temp\cc5BNH7j.s:23209  .debug_str:0000000000006cfe .LASF690
C:\Users\CYMR90~1\AppData\Local\Temp\cc5BNH7j.s:26029  .debug_str:000000000001253d .LASF691
C:\Users\CYMR90~1\AppData\Local\Temp\cc5BNH7j.s:26869  .debug_str:00000000000159b8 .LASF692
C:\Users\CYMR90~1\AppData\Local\Temp\cc5BNH7j.s:22909  .debug_str:0000000000005a5d .LASF695
C:\Users\CYMR90~1\AppData\Local\Temp\cc5BNH7j.s:27274  .debug_str:00000000000175ac .LASF696
C:\Users\CYMR90~1\AppData\Local\Temp\cc5BNH7j.s:24707  .debug_str:000000000000d011 .LASF697
C:\Users\CYMR90~1\AppData\Local\Temp\cc5BNH7j.s:28298  .debug_str:000000000001b88c .LASF698
C:\Users\CYMR90~1\AppData\Local\Temp\cc5BNH7j.s:30474  .debug_str:0000000000023e47 .LASF699
C:\Users\CYMR90~1\AppData\Local\Temp\cc5BNH7j.s:26611  .debug_str:00000000000149d3 .LASF702
C:\Users\CYMR90~1\AppData\Local\Temp\cc5BNH7j.s:23855  .debug_str:000000000000975a .LASF703
C:\Users\CYMR90~1\AppData\Local\Temp\cc5BNH7j.s:29180  .debug_str:000000000001f02a .LASF704
C:\Users\CYMR90~1\AppData\Local\Temp\cc5BNH7j.s:22731  .debug_str:0000000000004f79 .LASF705
C:\Users\CYMR90~1\AppData\Local\Temp\cc5BNH7j.s:26931  .debug_str:0000000000015e1b .LASF706
C:\Users\CYMR90~1\AppData\Local\Temp\cc5BNH7j.s:25269  .debug_str:000000000000f342 .LASF707
C:\Users\CYMR90~1\AppData\Local\Temp\cc5BNH7j.s:31592  .debug_str:00000000000289e1 .LASF708
C:\Users\CYMR90~1\AppData\Local\Temp\cc5BNH7j.s:30842  .debug_str:00000000000258d1 .LASF709
C:\Users\CYMR90~1\AppData\Local\Temp\cc5BNH7j.s:24915  .debug_str:000000000000ddb2 .LASF710
C:\Users\CYMR90~1\AppData\Local\Temp\cc5BNH7j.s:25431  .debug_str:000000000000fdc3 .LASF711
C:\Users\CYMR90~1\AppData\Local\Temp\cc5BNH7j.s:27075  .debug_str:0000000000016755 .LASF712
C:\Users\CYMR90~1\AppData\Local\Temp\cc5BNH7j.s:24089  .debug_str:000000000000a62a .LASF713
C:\Users\CYMR90~1\AppData\Local\Temp\cc5BNH7j.s:32404  .debug_str:000000000002bbb1 .LASF714
C:\Users\CYMR90~1\AppData\Local\Temp\cc5BNH7j.s:23449  .debug_str:0000000000007d32 .LASF715
C:\Users\CYMR90~1\AppData\Local\Temp\cc5BNH7j.s:24349  .debug_str:000000000000b7cf .LASF716
C:\Users\CYMR90~1\AppData\Local\Temp\cc5BNH7j.s:29402  .debug_str:000000000001fd9a .LASF717
C:\Users\CYMR90~1\AppData\Local\Temp\cc5BNH7j.s:30800  .debug_str:00000000000255cd .LASF718
C:\Users\CYMR90~1\AppData\Local\Temp\cc5BNH7j.s:30578  .debug_str:00000000000245e0 .LASF719
C:\Users\CYMR90~1\AppData\Local\Temp\cc5BNH7j.s:27586  .debug_str:00000000000188ae .LASF720
C:\Users\CYMR90~1\AppData\Local\Temp\cc5BNH7j.s:21989  .debug_str:0000000000001fc1 .LASF721
C:\Users\CYMR90~1\AppData\Local\Temp\cc5BNH7j.s:29514  .debug_str:000000000002048e .LASF722
C:\Users\CYMR90~1\AppData\Local\Temp\cc5BNH7j.s:28490  .debug_str:000000000001c439 .LASF723
C:\Users\CYMR90~1\AppData\Local\Temp\cc5BNH7j.s:29054  .debug_str:000000000001e8f5 .LASF724
C:\Users\CYMR90~1\AppData\Local\Temp\cc5BNH7j.s:29988  .debug_str:0000000000022195 .LASF725
C:\Users\CYMR90~1\AppData\Local\Temp\cc5BNH7j.s:26277  .debug_str:00000000000135dd .LASF726
C:\Users\CYMR90~1\AppData\Local\Temp\cc5BNH7j.s:24083  .debug_str:000000000000a5d0 .LASF727
C:\Users\CYMR90~1\AppData\Local\Temp\cc5BNH7j.s:30936  .debug_str:0000000000025eb8 .LASF728
C:\Users\CYMR90~1\AppData\Local\Temp\cc5BNH7j.s:21895  .debug_str:0000000000001a39 .LASF729
C:\Users\CYMR90~1\AppData\Local\Temp\cc5BNH7j.s:27770  .debug_str:0000000000019553 .LASF730
C:\Users\CYMR90~1\AppData\Local\Temp\cc5BNH7j.s:26249  .debug_str:000000000001341d .LASF731
C:\Users\CYMR90~1\AppData\Local\Temp\cc5BNH7j.s:30874  .debug_str:0000000000025aef .LASF732
C:\Users\CYMR90~1\AppData\Local\Temp\cc5BNH7j.s:32604  .debug_str:000000000002c92d .LASF733
C:\Users\CYMR90~1\AppData\Local\Temp\cc5BNH7j.s:25737  .debug_str:0000000000011156 .LASF734
C:\Users\CYMR90~1\AppData\Local\Temp\cc5BNH7j.s:25663  .debug_str:0000000000010d19 .LASF735
C:\Users\CYMR90~1\AppData\Local\Temp\cc5BNH7j.s:32534  .debug_str:000000000002c47b .LASF736
C:\Users\CYMR90~1\AppData\Local\Temp\cc5BNH7j.s:24649  .debug_str:000000000000cc49 .LASF737
C:\Users\CYMR90~1\AppData\Local\Temp\cc5BNH7j.s:28642  .debug_str:000000000001cfcc .LASF738
C:\Users\CYMR90~1\AppData\Local\Temp\cc5BNH7j.s:32290  .debug_str:000000000002b43c .LASF739
C:\Users\CYMR90~1\AppData\Local\Temp\cc5BNH7j.s:21897  .debug_str:0000000000001a4c .LASF740
C:\Users\CYMR90~1\AppData\Local\Temp\cc5BNH7j.s:24583  .debug_str:000000000000c7b3 .LASF741
C:\Users\CYMR90~1\AppData\Local\Temp\cc5BNH7j.s:21873  .debug_str:00000000000018ff .LASF742
C:\Users\CYMR90~1\AppData\Local\Temp\cc5BNH7j.s:25695  .debug_str:0000000000010eb1 .LASF743
C:\Users\CYMR90~1\AppData\Local\Temp\cc5BNH7j.s:22329  .debug_str:00000000000034ed .LASF744
C:\Users\CYMR90~1\AppData\Local\Temp\cc5BNH7j.s:23707  .debug_str:0000000000008e92 .LASF745
C:\Users\CYMR90~1\AppData\Local\Temp\cc5BNH7j.s:30000  .debug_str:0000000000022236 .LASF746
C:\Users\CYMR90~1\AppData\Local\Temp\cc5BNH7j.s:21769  .debug_str:0000000000001232 .LASF747
C:\Users\CYMR90~1\AppData\Local\Temp\cc5BNH7j.s:21759  .debug_str:00000000000011b0 .LASF748
C:\Users\CYMR90~1\AppData\Local\Temp\cc5BNH7j.s:25263  .debug_str:000000000000f304 .LASF750
C:\Users\CYMR90~1\AppData\Local\Temp\cc5BNH7j.s:25615  .debug_str:000000000001095f .LASF751
C:\Users\CYMR90~1\AppData\Local\Temp\cc5BNH7j.s:31748  .debug_str:000000000002935c .LASF752
C:\Users\CYMR90~1\AppData\Local\Temp\cc5BNH7j.s:25555  .debug_str:000000000001055e .LASF753
C:\Users\CYMR90~1\AppData\Local\Temp\cc5BNH7j.s:22773  .debug_str:0000000000005217 .LASF754
C:\Users\CYMR90~1\AppData\Local\Temp\cc5BNH7j.s:24333  .debug_str:000000000000b6e9 .LASF755
C:\Users\CYMR90~1\AppData\Local\Temp\cc5BNH7j.s:27848  .debug_str:0000000000019af6 .LASF756
C:\Users\CYMR90~1\AppData\Local\Temp\cc5BNH7j.s:23843  .debug_str:00000000000096b2 .LASF757
C:\Users\CYMR90~1\AppData\Local\Temp\cc5BNH7j.s:30826  .debug_str:00000000000257e9 .LASF758
C:\Users\CYMR90~1\AppData\Local\Temp\cc5BNH7j.s:32640  .debug_str:000000000002cbc9 .LASF759
C:\Users\CYMR90~1\AppData\Local\Temp\cc5BNH7j.s:28214  .debug_str:000000000001b395 .LASF760
C:\Users\CYMR90~1\AppData\Local\Temp\cc5BNH7j.s:32386  .debug_str:000000000002ba6b .LASF761
C:\Users\CYMR90~1\AppData\Local\Temp\cc5BNH7j.s:24261  .debug_str:000000000000b1ae .LASF762
C:\Users\CYMR90~1\AppData\Local\Temp\cc5BNH7j.s:28222  .debug_str:000000000001b429 .LASF765
C:\Users\CYMR90~1\AppData\Local\Temp\cc5BNH7j.s:26903  .debug_str:0000000000015bfb .LASF766
C:\Users\CYMR90~1\AppData\Local\Temp\cc5BNH7j.s:29890  .debug_str:0000000000021b92 .LASF767
C:\Users\CYMR90~1\AppData\Local\Temp\cc5BNH7j.s:26893  .debug_str:0000000000015b8b .LASF768
C:\Users\CYMR90~1\AppData\Local\Temp\cc5BNH7j.s:22137  .debug_str:00000000000028b0 .LASF769
C:\Users\CYMR90~1\AppData\Local\Temp\cc5BNH7j.s:28344  .debug_str:000000000001bb60 .LASF770
C:\Users\CYMR90~1\AppData\Local\Temp\cc5BNH7j.s:26987  .debug_str:00000000000161c8 .LASF771
C:\Users\CYMR90~1\AppData\Local\Temp\cc5BNH7j.s:30544  .debug_str:00000000000243cc .LASF772
C:\Users\CYMR90~1\AppData\Local\Temp\cc5BNH7j.s:30178  .debug_str:0000000000022cbf .LASF773
C:\Users\CYMR90~1\AppData\Local\Temp\cc5BNH7j.s:28660  .debug_str:000000000001d0df .LASF774
C:\Users\CYMR90~1\AppData\Local\Temp\cc5BNH7j.s:30876  .debug_str:0000000000025b05 .LASF775
C:\Users\CYMR90~1\AppData\Local\Temp\cc5BNH7j.s:23985  .debug_str:0000000000009fd2 .LASF776
C:\Users\CYMR90~1\AppData\Local\Temp\cc5BNH7j.s:24001  .debug_str:000000000000a0d6 .LASF777
C:\Users\CYMR90~1\AppData\Local\Temp\cc5BNH7j.s:28992  .debug_str:000000000001e4f2 .LASF778
C:\Users\CYMR90~1\AppData\Local\Temp\cc5BNH7j.s:25495  .debug_str:00000000000101db .LASF779
C:\Users\CYMR90~1\AppData\Local\Temp\cc5BNH7j.s:29244  .debug_str:000000000001f3fd .LASF780
C:\Users\CYMR90~1\AppData\Local\Temp\cc5BNH7j.s:29886  .debug_str:0000000000021b59 .LASF781
C:\Users\CYMR90~1\AppData\Local\Temp\cc5BNH7j.s:25979  .debug_str:0000000000012254 .LASF782
C:\Users\CYMR90~1\AppData\Local\Temp\cc5BNH7j.s:27109  .debug_str:0000000000016a6a .LASF783
C:\Users\CYMR90~1\AppData\Local\Temp\cc5BNH7j.s:25879  .debug_str:0000000000011b77 .LASF784
C:\Users\CYMR90~1\AppData\Local\Temp\cc5BNH7j.s:25173  .debug_str:000000000000ed66 .LASF785
C:\Users\CYMR90~1\AppData\Local\Temp\cc5BNH7j.s:30250  .debug_str:00000000000230ce .LASF786
C:\Users\CYMR90~1\AppData\Local\Temp\cc5BNH7j.s:26625  .debug_str:0000000000014af8 .LASF787
C:\Users\CYMR90~1\AppData\Local\Temp\cc5BNH7j.s:28926  .debug_str:000000000001e11b .LASF788
C:\Users\CYMR90~1\AppData\Local\Temp\cc5BNH7j.s:25353  .debug_str:000000000000f8c0 .LASF789
C:\Users\CYMR90~1\AppData\Local\Temp\cc5BNH7j.s:22821  .debug_str:00000000000054f2 .LASF790
C:\Users\CYMR90~1\AppData\Local\Temp\cc5BNH7j.s:31226  .debug_str:0000000000027148 .LASF791
C:\Users\CYMR90~1\AppData\Local\Temp\cc5BNH7j.s:23569  .debug_str:000000000000859b .LASF792
C:\Users\CYMR90~1\AppData\Local\Temp\cc5BNH7j.s:32610  .debug_str:000000000002c97b .LASF793
C:\Users\CYMR90~1\AppData\Local\Temp\cc5BNH7j.s:23359  .debug_str:00000000000076e9 .LASF794
C:\Users\CYMR90~1\AppData\Local\Temp\cc5BNH7j.s:31474  .debug_str:0000000000028201 .LASF795
C:\Users\CYMR90~1\AppData\Local\Temp\cc5BNH7j.s:29488  .debug_str:000000000002029a .LASF796
C:\Users\CYMR90~1\AppData\Local\Temp\cc5BNH7j.s:32180  .debug_str:000000000002ad30 .LASF797
C:\Users\CYMR90~1\AppData\Local\Temp\cc5BNH7j.s:23193  .debug_str:0000000000006bdc .LASF798
C:\Users\CYMR90~1\AppData\Local\Temp\cc5BNH7j.s:31534  .debug_str:0000000000028646 .LASF799
C:\Users\CYMR90~1\AppData\Local\Temp\cc5BNH7j.s:22787  .debug_str:00000000000052e3 .LASF800
C:\Users\CYMR90~1\AppData\Local\Temp\cc5BNH7j.s:27988  .debug_str:000000000001a48e .LASF801
C:\Users\CYMR90~1\AppData\Local\Temp\cc5BNH7j.s:28016  .debug_str:000000000001a63d .LASF802
C:\Users\CYMR90~1\AppData\Local\Temp\cc5BNH7j.s:23905  .debug_str:0000000000009ae8 .LASF803
C:\Users\CYMR90~1\AppData\Local\Temp\cc5BNH7j.s:26379  .debug_str:0000000000013c00 .LASF804
C:\Users\CYMR90~1\AppData\Local\Temp\cc5BNH7j.s:23207  .debug_str:0000000000006ca3 .LASF805
C:\Users\CYMR90~1\AppData\Local\Temp\cc5BNH7j.s:25833  .debug_str:00000000000117f2 .LASF806
C:\Users\CYMR90~1\AppData\Local\Temp\cc5BNH7j.s:28948  .debug_str:000000000001e231 .LASF807
C:\Users\CYMR90~1\AppData\Local\Temp\cc5BNH7j.s:28540  .debug_str:000000000001c81d .LASF808
C:\Users\CYMR90~1\AppData\Local\Temp\cc5BNH7j.s:30946  .debug_str:0000000000025f4f .LASF809
C:\Users\CYMR90~1\AppData\Local\Temp\cc5BNH7j.s:32390  .debug_str:000000000002bac0 .LASF810
C:\Users\CYMR90~1\AppData\Local\Temp\cc5BNH7j.s:23593  .debug_str:000000000000870f .LASF811
C:\Users\CYMR90~1\AppData\Local\Temp\cc5BNH7j.s:22517  .debug_str:0000000000004182 .LASF812
C:\Users\CYMR90~1\AppData\Local\Temp\cc5BNH7j.s:32424  .debug_str:000000000002bd74 .LASF813
C:\Users\CYMR90~1\AppData\Local\Temp\cc5BNH7j.s:22885  .debug_str:00000000000058c4 .LASF814
C:\Users\CYMR90~1\AppData\Local\Temp\cc5BNH7j.s:23103  .debug_str:0000000000006603 .LASF815
C:\Users\CYMR90~1\AppData\Local\Temp\cc5BNH7j.s:28312  .debug_str:000000000001b94a .LASF816
C:\Users\CYMR90~1\AppData\Local\Temp\cc5BNH7j.s:23771  .debug_str:000000000000922b .LASF817
C:\Users\CYMR90~1\AppData\Local\Temp\cc5BNH7j.s:28458  .debug_str:000000000001c292 .LASF818
C:\Users\CYMR90~1\AppData\Local\Temp\cc5BNH7j.s:28348  .debug_str:000000000001bb78 .LASF819
C:\Users\CYMR90~1\AppData\Local\Temp\cc5BNH7j.s:21641  .debug_str:0000000000000a7d .LASF820
C:\Users\CYMR90~1\AppData\Local\Temp\cc5BNH7j.s:32012  .debug_str:000000000002a2f0 .LASF821
C:\Users\CYMR90~1\AppData\Local\Temp\cc5BNH7j.s:30540  .debug_str:000000000002439c .LASF822
C:\Users\CYMR90~1\AppData\Local\Temp\cc5BNH7j.s:23737  .debug_str:000000000000900d .LASF823
C:\Users\CYMR90~1\AppData\Local\Temp\cc5BNH7j.s:27033  .debug_str:00000000000164eb .LASF824
C:\Users\CYMR90~1\AppData\Local\Temp\cc5BNH7j.s:28646  .debug_str:000000000001d007 .LASF825
C:\Users\CYMR90~1\AppData\Local\Temp\cc5BNH7j.s:26829  .debug_str:000000000001574e .LASF826
C:\Users\CYMR90~1\AppData\Local\Temp\cc5BNH7j.s:22411  .debug_str:0000000000003a5c .LASF827
C:\Users\CYMR90~1\AppData\Local\Temp\cc5BNH7j.s:25153  .debug_str:000000000000ec59 .LASF828
C:\Users\CYMR90~1\AppData\Local\Temp\cc5BNH7j.s:30646  .debug_str:0000000000024aa0 .LASF829
C:\Users\CYMR90~1\AppData\Local\Temp\cc5BNH7j.s:30816  .debug_str:0000000000025729 .LASF830
C:\Users\CYMR90~1\AppData\Local\Temp\cc5BNH7j.s:24339  .debug_str:000000000000b744 .LASF831
C:\Users\CYMR90~1\AppData\Local\Temp\cc5BNH7j.s:25099  .debug_str:000000000000e92b .LASF832
C:\Users\CYMR90~1\AppData\Local\Temp\cc5BNH7j.s:22971  .debug_str:0000000000005df0 .LASF833
C:\Users\CYMR90~1\AppData\Local\Temp\cc5BNH7j.s:25739  .debug_str:0000000000011167 .LASF834
C:\Users\CYMR90~1\AppData\Local\Temp\cc5BNH7j.s:27510  .debug_str:000000000001840b .LASF835
C:\Users\CYMR90~1\AppData\Local\Temp\cc5BNH7j.s:25645  .debug_str:0000000000010ba6 .LASF836
C:\Users\CYMR90~1\AppData\Local\Temp\cc5BNH7j.s:29394  .debug_str:000000000001fd35 .LASF837
C:\Users\CYMR90~1\AppData\Local\Temp\cc5BNH7j.s:23641  .debug_str:0000000000008a5e .LASF838
C:\Users\CYMR90~1\AppData\Local\Temp\cc5BNH7j.s:22809  .debug_str:0000000000005453 .LASF839
C:\Users\CYMR90~1\AppData\Local\Temp\cc5BNH7j.s:25543  .debug_str:0000000000010493 .LASF840
C:\Users\CYMR90~1\AppData\Local\Temp\cc5BNH7j.s:24471  .debug_str:000000000000c054 .LASF841
C:\Users\CYMR90~1\AppData\Local\Temp\cc5BNH7j.s:28556  .debug_str:000000000001c942 .LASF842
C:\Users\CYMR90~1\AppData\Local\Temp\cc5BNH7j.s:21711  .debug_str:0000000000000f11 .LASF843
C:\Users\CYMR90~1\AppData\Local\Temp\cc5BNH7j.s:22075  .debug_str:00000000000024a2 .LASF844
C:\Users\CYMR90~1\AppData\Local\Temp\cc5BNH7j.s:30396  .debug_str:00000000000239c6 .LASF845
C:\Users\CYMR90~1\AppData\Local\Temp\cc5BNH7j.s:21479  .debug_str:0000000000000096 .LASF846
C:\Users\CYMR90~1\AppData\Local\Temp\cc5BNH7j.s:23439  .debug_str:0000000000007ca5 .LASF847
C:\Users\CYMR90~1\AppData\Local\Temp\cc5BNH7j.s:29250  .debug_str:000000000001f44b .LASF848
C:\Users\CYMR90~1\AppData\Local\Temp\cc5BNH7j.s:23407  .debug_str:0000000000007a1c .LASF849
C:\Users\CYMR90~1\AppData\Local\Temp\cc5BNH7j.s:24761  .debug_str:000000000000d417 .LASF852
C:\Users\CYMR90~1\AppData\Local\Temp\cc5BNH7j.s:31586  .debug_str:0000000000028989 .LASF853
C:\Users\CYMR90~1\AppData\Local\Temp\cc5BNH7j.s:26681  .debug_str:0000000000014ee9 .LASF854
C:\Users\CYMR90~1\AppData\Local\Temp\cc5BNH7j.s:29896  .debug_str:0000000000021c27 .LASF856
C:\Users\CYMR90~1\AppData\Local\Temp\cc5BNH7j.s:28784  .debug_str:000000000001d876 .LASF857
C:\Users\CYMR90~1\AppData\Local\Temp\cc5BNH7j.s:31408  .debug_str:0000000000027cd6 .LASF858
C:\Users\CYMR90~1\AppData\Local\Temp\cc5BNH7j.s:24749  .debug_str:000000000000d348 .LASF859
C:\Users\CYMR90~1\AppData\Local\Temp\cc5BNH7j.s:25693  .debug_str:0000000000010ea7 .LASF860
C:\Users\CYMR90~1\AppData\Local\Temp\cc5BNH7j.s:29826  .debug_str:0000000000021792 .LASF861
C:\Users\CYMR90~1\AppData\Local\Temp\cc5BNH7j.s:28984  .debug_str:000000000001e4a2 .LASF862
C:\Users\CYMR90~1\AppData\Local\Temp\cc5BNH7j.s:21807  .debug_str:0000000000001476 .LASF863
C:\Users\CYMR90~1\AppData\Local\Temp\cc5BNH7j.s:22465  .debug_str:0000000000003d93 .LASF864
C:\Users\CYMR90~1\AppData\Local\Temp\cc5BNH7j.s:22855  .debug_str:0000000000005712 .LASF865
C:\Users\CYMR90~1\AppData\Local\Temp\cc5BNH7j.s:24033  .debug_str:000000000000a2ed .LASF866
C:\Users\CYMR90~1\AppData\Local\Temp\cc5BNH7j.s:23509  .debug_str:00000000000081ce .LASF867
C:\Users\CYMR90~1\AppData\Local\Temp\cc5BNH7j.s:28712  .debug_str:000000000001d3c0 .LASF868
C:\Users\CYMR90~1\AppData\Local\Temp\cc5BNH7j.s:29334  .debug_str:000000000001f978 .LASF869
C:\Users\CYMR90~1\AppData\Local\Temp\cc5BNH7j.s:30410  .debug_str:0000000000023a8a .LASF870
C:\Users\CYMR90~1\AppData\Local\Temp\cc5BNH7j.s:23679  .debug_str:0000000000008cf3 .LASF871
C:\Users\CYMR90~1\AppData\Local\Temp\cc5BNH7j.s:24107  .debug_str:000000000000a78f .LASF872
C:\Users\CYMR90~1\AppData\Local\Temp\cc5BNH7j.s:28548  .debug_str:000000000001c8c1 .LASF873
C:\Users\CYMR90~1\AppData\Local\Temp\cc5BNH7j.s:31116  .debug_str:00000000000269b7 .LASF874
C:\Users\CYMR90~1\AppData\Local\Temp\cc5BNH7j.s:25899  .debug_str:0000000000011c8f .LASF875
C:\Users\CYMR90~1\AppData\Local\Temp\cc5BNH7j.s:26589  .debug_str:00000000000148d6 .LASF876
C:\Users\CYMR90~1\AppData\Local\Temp\cc5BNH7j.s:23911  .debug_str:0000000000009b3d .LASF877
C:\Users\CYMR90~1\AppData\Local\Temp\cc5BNH7j.s:28252  .debug_str:000000000001b5fc .LASF878
C:\Users\CYMR90~1\AppData\Local\Temp\cc5BNH7j.s:25691  .debug_str:0000000000010e99 .LASF879
C:\Users\CYMR90~1\AppData\Local\Temp\cc5BNH7j.s:27222  .debug_str:0000000000017299 .LASF880
C:\Users\CYMR90~1\AppData\Local\Temp\cc5BNH7j.s:22789  .debug_str:00000000000052fc .LASF881
C:\Users\CYMR90~1\AppData\Local\Temp\cc5BNH7j.s:26117  .debug_str:0000000000012b35 .LASF882
C:\Users\CYMR90~1\AppData\Local\Temp\cc5BNH7j.s:29220  .debug_str:000000000001f2ad .LASF883
C:\Users\CYMR90~1\AppData\Local\Temp\cc5BNH7j.s:29406  .debug_str:000000000001fdc7 .LASF884
C:\Users\CYMR90~1\AppData\Local\Temp\cc5BNH7j.s:32664  .debug_str:000000000002cd0f .LASF885
C:\Users\CYMR90~1\AppData\Local\Temp\cc5BNH7j.s:28258  .debug_str:000000000001b654 .LASF886
C:\Users\CYMR90~1\AppData\Local\Temp\cc5BNH7j.s:23783  .debug_str:00000000000092d2 .LASF887
C:\Users\CYMR90~1\AppData\Local\Temp\cc5BNH7j.s:30362  .debug_str:00000000000237ee .LASF888
C:\Users\CYMR90~1\AppData\Local\Temp\cc5BNH7j.s:26055  .debug_str:00000000000126ff .LASF889
C:\Users\CYMR90~1\AppData\Local\Temp\cc5BNH7j.s:30298  .debug_str:00000000000233aa .LASF890
C:\Users\CYMR90~1\AppData\Local\Temp\cc5BNH7j.s:22613  .debug_str:000000000000484f .LASF891
C:\Users\CYMR90~1\AppData\Local\Temp\cc5BNH7j.s:25045  .debug_str:000000000000e5be .LASF892
C:\Users\CYMR90~1\AppData\Local\Temp\cc5BNH7j.s:31060  .debug_str:0000000000026666 .LASF893
C:\Users\CYMR90~1\AppData\Local\Temp\cc5BNH7j.s:30456  .debug_str:0000000000023d54 .LASF894
C:\Users\CYMR90~1\AppData\Local\Temp\cc5BNH7j.s:21781  .debug_str:00000000000012dc .LASF895
C:\Users\CYMR90~1\AppData\Local\Temp\cc5BNH7j.s:26445  .debug_str:0000000000013fc2 .LASF896
C:\Users\CYMR90~1\AppData\Local\Temp\cc5BNH7j.s:22703  .debug_str:0000000000004dc6 .LASF897
C:\Users\CYMR90~1\AppData\Local\Temp\cc5BNH7j.s:23901  .debug_str:0000000000009aa9 .LASF898
C:\Users\CYMR90~1\AppData\Local\Temp\cc5BNH7j.s:31352  .debug_str:0000000000027924 .LASF899
C:\Users\CYMR90~1\AppData\Local\Temp\cc5BNH7j.s:24219  .debug_str:000000000000af59 .LASF900
C:\Users\CYMR90~1\AppData\Local\Temp\cc5BNH7j.s:28304  .debug_str:000000000001b8c2 .LASF901
C:\Users\CYMR90~1\AppData\Local\Temp\cc5BNH7j.s:31880  .debug_str:0000000000029b68 .LASF902
C:\Users\CYMR90~1\AppData\Local\Temp\cc5BNH7j.s:30644  .debug_str:0000000000024a7a .LASF903
C:\Users\CYMR90~1\AppData\Local\Temp\cc5BNH7j.s:31496  .debug_str:000000000002836c .LASF904
C:\Users\CYMR90~1\AppData\Local\Temp\cc5BNH7j.s:26101  .debug_str:0000000000012a27 .LASF905
C:\Users\CYMR90~1\AppData\Local\Temp\cc5BNH7j.s:23557  .debug_str:00000000000084f8 .LASF906
C:\Users\CYMR90~1\AppData\Local\Temp\cc5BNH7j.s:28640  .debug_str:000000000001cfb0 .LASF907
C:\Users\CYMR90~1\AppData\Local\Temp\cc5BNH7j.s:25041  .debug_str:000000000000e57b .LASF908
C:\Users\CYMR90~1\AppData\Local\Temp\cc5BNH7j.s:31326  .debug_str:0000000000027706 .LASF909
C:\Users\CYMR90~1\AppData\Local\Temp\cc5BNH7j.s:25665  .debug_str:0000000000010d2a .LASF910
C:\Users\CYMR90~1\AppData\Local\Temp\cc5BNH7j.s:22171  .debug_str:0000000000002ab9 .LASF911
C:\Users\CYMR90~1\AppData\Local\Temp\cc5BNH7j.s:21753  .debug_str:0000000000001173 .LASF912
C:\Users\CYMR90~1\AppData\Local\Temp\cc5BNH7j.s:29744  .debug_str:00000000000212b4 .LASF913
C:\Users\CYMR90~1\AppData\Local\Temp\cc5BNH7j.s:30624  .debug_str:0000000000024935 .LASF914
C:\Users\CYMR90~1\AppData\Local\Temp\cc5BNH7j.s:24595  .debug_str:000000000000c885 .LASF915
C:\Users\CYMR90~1\AppData\Local\Temp\cc5BNH7j.s:24903  .debug_str:000000000000dcaa .LASF916
C:\Users\CYMR90~1\AppData\Local\Temp\cc5BNH7j.s:25477  .debug_str:00000000000100ad .LASF917
C:\Users\CYMR90~1\AppData\Local\Temp\cc5BNH7j.s:32130  .debug_str:000000000002aa0c .LASF918
C:\Users\CYMR90~1\AppData\Local\Temp\cc5BNH7j.s:21739  .debug_str:000000000000107f .LASF919
C:\Users\CYMR90~1\AppData\Local\Temp\cc5BNH7j.s:24205  .debug_str:000000000000ae6e .LASF920
C:\Users\CYMR90~1\AppData\Local\Temp\cc5BNH7j.s:30580  .debug_str:00000000000245f5 .LASF921
C:\Users\CYMR90~1\AppData\Local\Temp\cc5BNH7j.s:28010  .debug_str:000000000001a5cb .LASF922
C:\Users\CYMR90~1\AppData\Local\Temp\cc5BNH7j.s:31094  .debug_str:0000000000026871 .LASF923
C:\Users\CYMR90~1\AppData\Local\Temp\cc5BNH7j.s:27148  .debug_str:0000000000016e71 .LASF924
C:\Users\CYMR90~1\AppData\Local\Temp\cc5BNH7j.s:22129  .debug_str:000000000000281d .LASF925
C:\Users\CYMR90~1\AppData\Local\Temp\cc5BNH7j.s:28216  .debug_str:000000000001b3cf .LASF926
C:\Users\CYMR90~1\AppData\Local\Temp\cc5BNH7j.s:21851  .debug_str:000000000000178d .LASF927
C:\Users\CYMR90~1\AppData\Local\Temp\cc5BNH7j.s:26617  .debug_str:0000000000014a72 .LASF928
C:\Users\CYMR90~1\AppData\Local\Temp\cc5BNH7j.s:29282  .debug_str:000000000001f615 .LASF929
C:\Users\CYMR90~1\AppData\Local\Temp\cc5BNH7j.s:32388  .debug_str:000000000002baa3 .LASF930
C:\Users\CYMR90~1\AppData\Local\Temp\cc5BNH7j.s:32602  .debug_str:000000000002c90f .LASF931
C:\Users\CYMR90~1\AppData\Local\Temp\cc5BNH7j.s:29182  .debug_str:000000000001f03e .LASF932
C:\Users\CYMR90~1\AppData\Local\Temp\cc5BNH7j.s:31860  .debug_str:0000000000029a1d .LASF933
C:\Users\CYMR90~1\AppData\Local\Temp\cc5BNH7j.s:26951  .debug_str:0000000000015fa3 .LASF934
C:\Users\CYMR90~1\AppData\Local\Temp\cc5BNH7j.s:27780  .debug_str:00000000000195d3 .LASF935
C:\Users\CYMR90~1\AppData\Local\Temp\cc5BNH7j.s:26833  .debug_str:0000000000015783 .LASF936
C:\Users\CYMR90~1\AppData\Local\Temp\cc5BNH7j.s:30716  .debug_str:0000000000024f9c .LASF937
C:\Users\CYMR90~1\AppData\Local\Temp\cc5BNH7j.s:21659  .debug_str:0000000000000bb0 .LASF938
C:\Users\CYMR90~1\AppData\Local\Temp\cc5BNH7j.s:29552  .debug_str:00000000000206e7 .LASF939
C:\Users\CYMR90~1\AppData\Local\Temp\cc5BNH7j.s:30802  .debug_str:00000000000255d9 .LASF940
C:\Users\CYMR90~1\AppData\Local\Temp\cc5BNH7j.s:24341  .debug_str:000000000000b762 .LASF941
C:\Users\CYMR90~1\AppData\Local\Temp\cc5BNH7j.s:27998  .debug_str:000000000001a512 .LASF942
C:\Users\CYMR90~1\AppData\Local\Temp\cc5BNH7j.s:25087  .debug_str:000000000000e839 .LASF943
C:\Users\CYMR90~1\AppData\Local\Temp\cc5BNH7j.s:30742  .debug_str:00000000000251d8 .LASF944
C:\Users\CYMR90~1\AppData\Local\Temp\cc5BNH7j.s:28400  .debug_str:000000000001bf18 .LASF945
C:\Users\CYMR90~1\AppData\Local\Temp\cc5BNH7j.s:25291  .debug_str:000000000000f490 .LASF946
C:\Users\CYMR90~1\AppData\Local\Temp\cc5BNH7j.s:27300  .debug_str:0000000000017754 .LASF947
C:\Users\CYMR90~1\AppData\Local\Temp\cc5BNH7j.s:28912  .debug_str:000000000001e045 .LASF948
C:\Users\CYMR90~1\AppData\Local\Temp\cc5BNH7j.s:25641  .debug_str:0000000000010b68 .LASF949
C:\Users\CYMR90~1\AppData\Local\Temp\cc5BNH7j.s:24655  .debug_str:000000000000cc9f .LASF950
C:\Users\CYMR90~1\AppData\Local\Temp\cc5BNH7j.s:23269  .debug_str:00000000000070f9 .LASF952
C:\Users\CYMR90~1\AppData\Local\Temp\cc5BNH7j.s:26755  .debug_str:0000000000015327 .LASF953
C:\Users\CYMR90~1\AppData\Local\Temp\cc5BNH7j.s:24689  .debug_str:000000000000cef0 .LASF954
C:\Users\CYMR90~1\AppData\Local\Temp\cc5BNH7j.s:32594  .debug_str:000000000002c89a .LASF955
C:\Users\CYMR90~1\AppData\Local\Temp\cc5BNH7j.s:31762  .debug_str:0000000000029405 .LASF956
C:\Users\CYMR90~1\AppData\Local\Temp\cc5BNH7j.s:31850  .debug_str:0000000000029987 .LASF960
C:\Users\CYMR90~1\AppData\Local\Temp\cc5BNH7j.s:23809  .debug_str:00000000000094be .LASF961
C:\Users\CYMR90~1\AppData\Local\Temp\cc5BNH7j.s:31124  .debug_str:0000000000026a42 .LASF962
C:\Users\CYMR90~1\AppData\Local\Temp\cc5BNH7j.s:25871  .debug_str:0000000000011afb .LASF963
C:\Users\CYMR90~1\AppData\Local\Temp\cc5BNH7j.s:23295  .debug_str:00000000000072e0 .LASF964
C:\Users\CYMR90~1\AppData\Local\Temp\cc5BNH7j.s:29926  .debug_str:0000000000021dd9 .LASF965
C:\Users\CYMR90~1\AppData\Local\Temp\cc5BNH7j.s:28210  .debug_str:000000000001b363 .LASF966
C:\Users\CYMR90~1\AppData\Local\Temp\cc5BNH7j.s:31066  .debug_str:00000000000266c2 .LASF967
C:\Users\CYMR90~1\AppData\Local\Temp\cc5BNH7j.s:32174  .debug_str:000000000002acc2 .LASF968
C:\Users\CYMR90~1\AppData\Local\Temp\cc5BNH7j.s:23029  .debug_str:000000000000619c .LASF969
C:\Users\CYMR90~1\AppData\Local\Temp\cc5BNH7j.s:26485  .debug_str:000000000001428a .LASF970
C:\Users\CYMR90~1\AppData\Local\Temp\cc5BNH7j.s:32262  .debug_str:000000000002b269 .LASF971
C:\Users\CYMR90~1\AppData\Local\Temp\cc5BNH7j.s:25097  .debug_str:000000000000e905 .LASF972
C:\Users\CYMR90~1\AppData\Local\Temp\cc5BNH7j.s:25065  .debug_str:000000000000e6f1 .LASF973
C:\Users\CYMR90~1\AppData\Local\Temp\cc5BNH7j.s:24713  .debug_str:000000000000d06a .LASF974
C:\Users\CYMR90~1\AppData\Local\Temp\cc5BNH7j.s:27081  .debug_str:00000000000167cf .LASF975
C:\Users\CYMR90~1\AppData\Local\Temp\cc5BNH7j.s:32626  .debug_str:000000000002ca59 .LASF976
C:\Users\CYMR90~1\AppData\Local\Temp\cc5BNH7j.s:24651  .debug_str:000000000000cc5a .LASF977
C:\Users\CYMR90~1\AppData\Local\Temp\cc5BNH7j.s:32652  .debug_str:000000000002cc7e .LASF978
C:\Users\CYMR90~1\AppData\Local\Temp\cc5BNH7j.s:30906  .debug_str:0000000000025cc0 .LASF979
C:\Users\CYMR90~1\AppData\Local\Temp\cc5BNH7j.s:30966  .debug_str:0000000000026085 .LASF980
C:\Users\CYMR90~1\AppData\Local\Temp\cc5BNH7j.s:25151  .debug_str:000000000000ec3f .LASF981
C:\Users\CYMR90~1\AppData\Local\Temp\cc5BNH7j.s:22741  .debug_str:0000000000005023 .LASF982
C:\Users\CYMR90~1\AppData\Local\Temp\cc5BNH7j.s:25895  .debug_str:0000000000011c72 .LASF983
C:\Users\CYMR90~1\AppData\Local\Temp\cc5BNH7j.s:23683  .debug_str:0000000000008d13 .LASF984
C:\Users\CYMR90~1\AppData\Local\Temp\cc5BNH7j.s:28636  .debug_str:000000000001cee9 .LASF985
C:\Users\CYMR90~1\AppData\Local\Temp\cc5BNH7j.s:30210  .debug_str:0000000000022ea2 .LASF986
C:\Users\CYMR90~1\AppData\Local\Temp\cc5BNH7j.s:26899  .debug_str:0000000000015bd7 .LASF987
C:\Users\CYMR90~1\AppData\Local\Temp\cc5BNH7j.s:22189  .debug_str:0000000000002bcc .LASF988
C:\Users\CYMR90~1\AppData\Local\Temp\cc5BNH7j.s:30124  .debug_str:00000000000229c6 .LASF989
C:\Users\CYMR90~1\AppData\Local\Temp\cc5BNH7j.s:27600  .debug_str:000000000001896f .LASF990
C:\Users\CYMR90~1\AppData\Local\Temp\cc5BNH7j.s:24647  .debug_str:000000000000cc32 .LASF991
C:\Users\CYMR90~1\AppData\Local\Temp\cc5BNH7j.s:31068  .debug_str:00000000000266ea .LASF992
C:\Users\CYMR90~1\AppData\Local\Temp\cc5BNH7j.s:23313  .debug_str:00000000000073e9 .LASF993
C:\Users\CYMR90~1\AppData\Local\Temp\cc5BNH7j.s:30886  .debug_str:0000000000025b6f .LASF994
C:\Users\CYMR90~1\AppData\Local\Temp\cc5BNH7j.s:27682  .debug_str:0000000000019007 .LASF995
C:\Users\CYMR90~1\AppData\Local\Temp\cc5BNH7j.s:31670  .debug_str:0000000000028eb2 .LASF996
C:\Users\CYMR90~1\AppData\Local\Temp\cc5BNH7j.s:28824  .debug_str:000000000001dab2 .LASF997
C:\Users\CYMR90~1\AppData\Local\Temp\cc5BNH7j.s:28892  .debug_str:000000000001deec .LASF998
C:\Users\CYMR90~1\AppData\Local\Temp\cc5BNH7j.s:22087  .debug_str:0000000000002510 .LASF999
C:\Users\CYMR90~1\AppData\Local\Temp\cc5BNH7j.s:22417  .debug_str:0000000000003ab4 .LASF1000
C:\Users\CYMR90~1\AppData\Local\Temp\cc5BNH7j.s:30556  .debug_str:000000000002448a .LASF1001
C:\Users\CYMR90~1\AppData\Local\Temp\cc5BNH7j.s:25485  .debug_str:0000000000010135 .LASF1002
C:\Users\CYMR90~1\AppData\Local\Temp\cc5BNH7j.s:22695  .debug_str:0000000000004d6d .LASF1003
C:\Users\CYMR90~1\AppData\Local\Temp\cc5BNH7j.s:28442  .debug_str:000000000001c1ab .LASF1004
C:\Users\CYMR90~1\AppData\Local\Temp\cc5BNH7j.s:25849  .debug_str:0000000000011916 .LASF1005
C:\Users\CYMR90~1\AppData\Local\Temp\cc5BNH7j.s:24611  .debug_str:000000000000ca33 .LASF1006
C:\Users\CYMR90~1\AppData\Local\Temp\cc5BNH7j.s:23003  .debug_str:0000000000006005 .LASF1007
C:\Users\CYMR90~1\AppData\Local\Temp\cc5BNH7j.s:29922  .debug_str:0000000000021da1 .LASF1008
C:\Users\CYMR90~1\AppData\Local\Temp\cc5BNH7j.s:27376  .debug_str:0000000000017c06 .LASF1009
C:\Users\CYMR90~1\AppData\Local\Temp\cc5BNH7j.s:27534  .debug_str:0000000000018553 .LASF1010
C:\Users\CYMR90~1\AppData\Local\Temp\cc5BNH7j.s:24921  .debug_str:000000000000de00 .LASF1011
C:\Users\CYMR90~1\AppData\Local\Temp\cc5BNH7j.s:28682  .debug_str:000000000001d1ff .LASF1012
C:\Users\CYMR90~1\AppData\Local\Temp\cc5BNH7j.s:30128  .debug_str:00000000000229f1 .LASF1013
C:\Users\CYMR90~1\AppData\Local\Temp\cc5BNH7j.s:27798  .debug_str:0000000000019758 .LASF1014
C:\Users\CYMR90~1\AppData\Local\Temp\cc5BNH7j.s:22415  .debug_str:0000000000003a9e .LASF1015
C:\Users\CYMR90~1\AppData\Local\Temp\cc5BNH7j.s:22893  .debug_str:000000000000591a .LASF1016
C:\Users\CYMR90~1\AppData\Local\Temp\cc5BNH7j.s:22845  .debug_str:000000000000567b .LASF1017
C:\Users\CYMR90~1\AppData\Local\Temp\cc5BNH7j.s:31216  .debug_str:0000000000027008 .LASF1018
C:\Users\CYMR90~1\AppData\Local\Temp\cc5BNH7j.s:25161  .debug_str:000000000000ecc1 .LASF1019
C:\Users\CYMR90~1\AppData\Local\Temp\cc5BNH7j.s:22081  .debug_str:00000000000024c7 .LASF1020
C:\Users\CYMR90~1\AppData\Local\Temp\cc5BNH7j.s:27416  .debug_str:0000000000017e76 .LASF1021
C:\Users\CYMR90~1\AppData\Local\Temp\cc5BNH7j.s:24469  .debug_str:000000000000c03c .LASF1022
C:\Users\CYMR90~1\AppData\Local\Temp\cc5BNH7j.s:31144  .debug_str:0000000000026b75 .LASF1023
C:\Users\CYMR90~1\AppData\Local\Temp\cc5BNH7j.s:23719  .debug_str:0000000000008f35 .LASF1024
C:\Users\CYMR90~1\AppData\Local\Temp\cc5BNH7j.s:26169  .debug_str:0000000000012e7b .LASF1025
C:\Users\CYMR90~1\AppData\Local\Temp\cc5BNH7j.s:25669  .debug_str:0000000000010d6b .LASF1026
C:\Users\CYMR90~1\AppData\Local\Temp\cc5BNH7j.s:26609  .debug_str:00000000000149be .LASF1027
C:\Users\CYMR90~1\AppData\Local\Temp\cc5BNH7j.s:28762  .debug_str:000000000001d6f9 .LASF1028
C:\Users\CYMR90~1\AppData\Local\Temp\cc5BNH7j.s:29140  .debug_str:000000000001ed98 .LASF1029
C:\Users\CYMR90~1\AppData\Local\Temp\cc5BNH7j.s:30428  .debug_str:0000000000023b9f .LASF1030
C:\Users\CYMR90~1\AppData\Local\Temp\cc5BNH7j.s:29508  .debug_str:0000000000020448 .LASF1031
C:\Users\CYMR90~1\AppData\Local\Temp\cc5BNH7j.s:31764  .debug_str:000000000002946d .LASF1032
C:\Users\CYMR90~1\AppData\Local\Temp\cc5BNH7j.s:23863  .debug_str:0000000000009831 .LASF1033
C:\Users\CYMR90~1\AppData\Local\Temp\cc5BNH7j.s:22749  .debug_str:00000000000050a5 .LASF1034
C:\Users\CYMR90~1\AppData\Local\Temp\cc5BNH7j.s:27726  .debug_str:00000000000192a6 .LASF1035
C:\Users\CYMR90~1\AppData\Local\Temp\cc5BNH7j.s:27990  .debug_str:000000000001a4a8 .LASF1036
C:\Users\CYMR90~1\AppData\Local\Temp\cc5BNH7j.s:30224  .debug_str:0000000000022f39 .LASF1037
C:\Users\CYMR90~1\AppData\Local\Temp\cc5BNH7j.s:25331  .debug_str:000000000000f7a5 .LASF1038
C:\Users\CYMR90~1\AppData\Local\Temp\cc5BNH7j.s:28866  .debug_str:000000000001dd62 .LASF1039
C:\Users\CYMR90~1\AppData\Local\Temp\cc5BNH7j.s:26771  .debug_str:000000000001543e .LASF1040
C:\Users\CYMR90~1\AppData\Local\Temp\cc5BNH7j.s:25237  .debug_str:000000000000f14b .LASF1041
C:\Users\CYMR90~1\AppData\Local\Temp\cc5BNH7j.s:30956  .debug_str:0000000000025fec .LASF1042
C:\Users\CYMR90~1\AppData\Local\Temp\cc5BNH7j.s:25487  .debug_str:000000000001014c .LASF1043
C:\Users\CYMR90~1\AppData\Local\Temp\cc5BNH7j.s:21497  .debug_str:0000000000000193 .LASF1044
C:\Users\CYMR90~1\AppData\Local\Temp\cc5BNH7j.s:23731  .debug_str:0000000000008fbc .LASF1045
C:\Users\CYMR90~1\AppData\Local\Temp\cc5BNH7j.s:27922  .debug_str:0000000000019f3c .LASF1046
C:\Users\CYMR90~1\AppData\Local\Temp\cc5BNH7j.s:27017  .debug_str:000000000001637a .LASF1047
C:\Users\CYMR90~1\AppData\Local\Temp\cc5BNH7j.s:30272  .debug_str:000000000002320e .LASF1048
C:\Users\CYMR90~1\AppData\Local\Temp\cc5BNH7j.s:29106  .debug_str:000000000001ebbe .LASF1049
C:\Users\CYMR90~1\AppData\Local\Temp\cc5BNH7j.s:22259  .debug_str:0000000000003061 .LASF1050
C:\Users\CYMR90~1\AppData\Local\Temp\cc5BNH7j.s:29116  .debug_str:000000000001ec49 .LASF1051
C:\Users\CYMR90~1\AppData\Local\Temp\cc5BNH7j.s:29316  .debug_str:000000000001f844 .LASF1052
C:\Users\CYMR90~1\AppData\Local\Temp\cc5BNH7j.s:24217  .debug_str:000000000000af47 .LASF1053
C:\Users\CYMR90~1\AppData\Local\Temp\cc5BNH7j.s:30168  .debug_str:0000000000022c36 .LASF1054
C:\Users\CYMR90~1\AppData\Local\Temp\cc5BNH7j.s:26143  .debug_str:0000000000012ccb .LASF1055
C:\Users\CYMR90~1\AppData\Local\Temp\cc5BNH7j.s:25093  .debug_str:000000000000e8b3 .LASF1056
C:\Users\CYMR90~1\AppData\Local\Temp\cc5BNH7j.s:31388  .debug_str:0000000000027bad .LASF1057
C:\Users\CYMR90~1\AppData\Local\Temp\cc5BNH7j.s:31974  .debug_str:000000000002a091 .LASF1058
C:\Users\CYMR90~1\AppData\Local\Temp\cc5BNH7j.s:30714  .debug_str:0000000000024f7a .LASF1059
C:\Users\CYMR90~1\AppData\Local\Temp\cc5BNH7j.s:21939  .debug_str:0000000000001cec .LASF1060
C:\Users\CYMR90~1\AppData\Local\Temp\cc5BNH7j.s:23537  .debug_str:000000000000839c .LASF1061
C:\Users\CYMR90~1\AppData\Local\Temp\cc5BNH7j.s:21623  .debug_str:0000000000000915 .LASF1062
C:\Users\CYMR90~1\AppData\Local\Temp\cc5BNH7j.s:26523  .debug_str:0000000000014492 .LASF1063
C:\Users\CYMR90~1\AppData\Local\Temp\cc5BNH7j.s:22463  .debug_str:0000000000003d7c .LASF1064
C:\Users\CYMR90~1\AppData\Local\Temp\cc5BNH7j.s:21565  .debug_str:0000000000000582 .LASF1065
C:\Users\CYMR90~1\AppData\Local\Temp\cc5BNH7j.s:32658  .debug_str:000000000002ccc7 .LASF1066
C:\Users\CYMR90~1\AppData\Local\Temp\cc5BNH7j.s:30558  .debug_str:00000000000244a2 .LASF1067
C:\Users\CYMR90~1\AppData\Local\Temp\cc5BNH7j.s:27079  .debug_str:00000000000167b5 .LASF1068
C:\Users\CYMR90~1\AppData\Local\Temp\cc5BNH7j.s:28654  .debug_str:000000000001d07a .LASF1069
C:\Users\CYMR90~1\AppData\Local\Temp\cc5BNH7j.s:21677  .debug_str:0000000000000ca2 .LASF1070
C:\Users\CYMR90~1\AppData\Local\Temp\cc5BNH7j.s:23991  .debug_str:000000000000a026 .LASF1071
C:\Users\CYMR90~1\AppData\Local\Temp\cc5BNH7j.s:30076  .debug_str:00000000000226a1 .LASF1072
C:\Users\CYMR90~1\AppData\Local\Temp\cc5BNH7j.s:28618  .debug_str:000000000001cda6 .LASF1073
C:\Users\CYMR90~1\AppData\Local\Temp\cc5BNH7j.s:31634  .debug_str:0000000000028c44 .LASF1074
C:\Users\CYMR90~1\AppData\Local\Temp\cc5BNH7j.s:27230  .debug_str:00000000000172fa .LASF1075
C:\Users\CYMR90~1\AppData\Local\Temp\cc5BNH7j.s:22123  .debug_str:00000000000027cd .LASF1076
C:\Users\CYMR90~1\AppData\Local\Temp\cc5BNH7j.s:32064  .debug_str:000000000002a65e .LASF1077
C:\Users\CYMR90~1\AppData\Local\Temp\cc5BNH7j.s:23065  .debug_str:00000000000063d5 .LASF1078
C:\Users\CYMR90~1\AppData\Local\Temp\cc5BNH7j.s:29550  .debug_str:00000000000206d5 .LASF1079
C:\Users\CYMR90~1\AppData\Local\Temp\cc5BNH7j.s:24933  .debug_str:000000000000deb4 .LASF1080
C:\Users\CYMR90~1\AppData\Local\Temp\cc5BNH7j.s:28420  .debug_str:000000000001c05b .LASF1081
C:\Users\CYMR90~1\AppData\Local\Temp\cc5BNH7j.s:31246  .debug_str:0000000000027280 .LASF1082
C:\Users\CYMR90~1\AppData\Local\Temp\cc5BNH7j.s:26713  .debug_str:00000000000150dc .LASF1083
C:\Users\CYMR90~1\AppData\Local\Temp\cc5BNH7j.s:29766  .debug_str:000000000002141a .LASF1084
C:\Users\CYMR90~1\AppData\Local\Temp\cc5BNH7j.s:22769  .debug_str:00000000000051df .LASF1085
C:\Users\CYMR90~1\AppData\Local\Temp\cc5BNH7j.s:22865  .debug_str:000000000000578a .LASF1086
C:\Users\CYMR90~1\AppData\Local\Temp\cc5BNH7j.s:24967  .debug_str:000000000000e0bd .LASF1087
C:\Users\CYMR90~1\AppData\Local\Temp\cc5BNH7j.s:30964  .debug_str:0000000000026076 .LASF1088
C:\Users\CYMR90~1\AppData\Local\Temp\cc5BNH7j.s:30070  .debug_str:0000000000022649 .LASF1089
C:\Users\CYMR90~1\AppData\Local\Temp\cc5BNH7j.s:21729  .debug_str:0000000000000ff4 .LASF1090
C:\Users\CYMR90~1\AppData\Local\Temp\cc5BNH7j.s:32588  .debug_str:000000000002c838 .LASF1091
C:\Users\CYMR90~1\AppData\Local\Temp\cc5BNH7j.s:31350  .debug_str:000000000002790c .LASF1092
C:\Users\CYMR90~1\AppData\Local\Temp\cc5BNH7j.s:25311  .debug_str:000000000000f5af .LASF1093
C:\Users\CYMR90~1\AppData\Local\Temp\cc5BNH7j.s:31008  .debug_str:00000000000262f9 .LASF1094
C:\Users\CYMR90~1\AppData\Local\Temp\cc5BNH7j.s:26787  .debug_str:00000000000154e9 .LASF1095
C:\Users\CYMR90~1\AppData\Local\Temp\cc5BNH7j.s:28232  .debug_str:000000000001b4b5 .LASF1096
C:\Users\CYMR90~1\AppData\Local\Temp\cc5BNH7j.s:28766  .debug_str:000000000001d74b .LASF1097
C:\Users\CYMR90~1\AppData\Local\Temp\cc5BNH7j.s:23053  .debug_str:0000000000006330 .LASF1098
C:\Users\CYMR90~1\AppData\Local\Temp\cc5BNH7j.s:26163  .debug_str:0000000000012e02 .LASF1099
C:\Users\CYMR90~1\AppData\Local\Temp\cc5BNH7j.s:25481  .debug_str:0000000000010104 .LASF1100
C:\Users\CYMR90~1\AppData\Local\Temp\cc5BNH7j.s:30346  .debug_str:00000000000236f2 .LASF1101
C:\Users\CYMR90~1\AppData\Local\Temp\cc5BNH7j.s:24661  .debug_str:000000000000ccf9 .LASF1102
C:\Users\CYMR90~1\AppData\Local\Temp\cc5BNH7j.s:30016  .debug_str:00000000000222f9 .LASF1103
C:\Users\CYMR90~1\AppData\Local\Temp\cc5BNH7j.s:31578  .debug_str:0000000000028916 .LASF1104
C:\Users\CYMR90~1\AppData\Local\Temp\cc5BNH7j.s:29440  .debug_str:000000000001ffa2 .LASF1105
C:\Users\CYMR90~1\AppData\Local\Temp\cc5BNH7j.s:26345  .debug_str:00000000000139d8 .LASF1106
C:\Users\CYMR90~1\AppData\Local\Temp\cc5BNH7j.s:30268  .debug_str:00000000000231d8 .LASF1107
C:\Users\CYMR90~1\AppData\Local\Temp\cc5BNH7j.s:28152  .debug_str:000000000001af96 .LASF1108
C:\Users\CYMR90~1\AppData\Local\Temp\cc5BNH7j.s:23069  .debug_str:0000000000006411 .LASF1109
C:\Users\CYMR90~1\AppData\Local\Temp\cc5BNH7j.s:24021  .debug_str:000000000000a1ff .LASF1110
C:\Users\CYMR90~1\AppData\Local\Temp\cc5BNH7j.s:21951  .debug_str:0000000000001d9e .LASF1111
C:\Users\CYMR90~1\AppData\Local\Temp\cc5BNH7j.s:23151  .debug_str:0000000000006933 .LASF1112
C:\Users\CYMR90~1\AppData\Local\Temp\cc5BNH7j.s:24241  .debug_str:000000000000b0ac .LASF1113
C:\Users\CYMR90~1\AppData\Local\Temp\cc5BNH7j.s:22813  .debug_str:000000000000547b .LASF1114
C:\Users\CYMR90~1\AppData\Local\Temp\cc5BNH7j.s:23813  .debug_str:00000000000094e5 .LASF1115
C:\Users\CYMR90~1\AppData\Local\Temp\cc5BNH7j.s:31428  .debug_str:0000000000027e68 .LASF1116
C:\Users\CYMR90~1\AppData\Local\Temp\cc5BNH7j.s:31924  .debug_str:0000000000029db2 .LASF1117
C:\Users\CYMR90~1\AppData\Local\Temp\cc5BNH7j.s:22973  .debug_str:0000000000005e1a .LASF1118
C:\Users\CYMR90~1\AppData\Local\Temp\cc5BNH7j.s:27392  .debug_str:0000000000017d02 .LASF1119
C:\Users\CYMR90~1\AppData\Local\Temp\cc5BNH7j.s:23507  .debug_str:00000000000081b1 .LASF1120
C:\Users\CYMR90~1\AppData\Local\Temp\cc5BNH7j.s:23713  .debug_str:0000000000008ed4 .LASF1121
C:\Users\CYMR90~1\AppData\Local\Temp\cc5BNH7j.s:26281  .debug_str:000000000001360c .LASF1122
C:\Users\CYMR90~1\AppData\Local\Temp\cc5BNH7j.s:25921  .debug_str:0000000000011dfd .LASF1123
C:\Users\CYMR90~1\AppData\Local\Temp\cc5BNH7j.s:29526  .debug_str:0000000000020556 .LASF1124
C:\Users\CYMR90~1\AppData\Local\Temp\cc5BNH7j.s:26717  .debug_str:0000000000015105 .LASF1125
C:\Users\CYMR90~1\AppData\Local\Temp\cc5BNH7j.s:26807  .debug_str:0000000000015622 .LASF1126
C:\Users\CYMR90~1\AppData\Local\Temp\cc5BNH7j.s:30158  .debug_str:0000000000022b98 .LASF1127
C:\Users\CYMR90~1\AppData\Local\Temp\cc5BNH7j.s:31244  .debug_str:000000000002726b .LASF1128
C:\Users\CYMR90~1\AppData\Local\Temp\cc5BNH7j.s:22857  .debug_str:000000000000571f .LASF1129
C:\Users\CYMR90~1\AppData\Local\Temp\cc5BNH7j.s:26805  .debug_str:000000000001560d .LASF1130
C:\Users\CYMR90~1\AppData\Local\Temp\cc5BNH7j.s:31760  .debug_str:00000000000293f0 .LASF1131
C:\Users\CYMR90~1\AppData\Local\Temp\cc5BNH7j.s:32164  .debug_str:000000000002ac34 .LASF1132
C:\Users\CYMR90~1\AppData\Local\Temp\cc5BNH7j.s:27504  .debug_str:0000000000018386 .LASF1133
C:\Users\CYMR90~1\AppData\Local\Temp\cc5BNH7j.s:30318  .debug_str:0000000000023500 .LASF1134
C:\Users\CYMR90~1\AppData\Local\Temp\cc5BNH7j.s:23395  .debug_str:0000000000007976 .LASF1135
C:\Users\CYMR90~1\AppData\Local\Temp\cc5BNH7j.s:22637  .debug_str:00000000000049c2 .LASF1136
C:\Users\CYMR90~1\AppData\Local\Temp\cc5BNH7j.s:22467  .debug_str:0000000000003d9e .LASF1137
C:\Users\CYMR90~1\AppData\Local\Temp\cc5BNH7j.s:31770  .debug_str:00000000000294cc .LASF1138
C:\Users\CYMR90~1\AppData\Local\Temp\cc5BNH7j.s:28896  .debug_str:000000000001df25 .LASF1139
C:\Users\CYMR90~1\AppData\Local\Temp\cc5BNH7j.s:31756  .debug_str:00000000000293c3 .LASF1140
C:\Users\CYMR90~1\AppData\Local\Temp\cc5BNH7j.s:21539  .debug_str:0000000000000424 .LASF1141
C:\Users\CYMR90~1\AppData\Local\Temp\cc5BNH7j.s:25955  .debug_str:00000000000120b2 .LASF1142
C:\Users\CYMR90~1\AppData\Local\Temp\cc5BNH7j.s:24973  .debug_str:000000000000e130 .LASF1143
C:\Users\CYMR90~1\AppData\Local\Temp\cc5BNH7j.s:31298  .debug_str:0000000000027550 .LASF1144
C:\Users\CYMR90~1\AppData\Local\Temp\cc5BNH7j.s:29486  .debug_str:0000000000020280 .LASF1145
C:\Users\CYMR90~1\AppData\Local\Temp\cc5BNH7j.s:24503  .debug_str:000000000000c250 .LASF1146
C:\Users\CYMR90~1\AppData\Local\Temp\cc5BNH7j.s:32584  .debug_str:000000000002c7f6 .LASF1147
C:\Users\CYMR90~1\AppData\Local\Temp\cc5BNH7j.s:27254  .debug_str:000000000001745a .LASF1148
C:\Users\CYMR90~1\AppData\Local\Temp\cc5BNH7j.s:27512  .debug_str:0000000000018433 .LASF1149
C:\Users\CYMR90~1\AppData\Local\Temp\cc5BNH7j.s:28250  .debug_str:000000000001b5c1 .LASF1150
C:\Users\CYMR90~1\AppData\Local\Temp\cc5BNH7j.s:21953  .debug_str:0000000000001dbc .LASF1151
C:\Users\CYMR90~1\AppData\Local\Temp\cc5BNH7j.s:28672  .debug_str:000000000001d18f .LASF1152
C:\Users\CYMR90~1\AppData\Local\Temp\cc5BNH7j.s:23837  .debug_str:0000000000009624 .LASF1153
C:\Users\CYMR90~1\AppData\Local\Temp\cc5BNH7j.s:29780  .debug_str:00000000000214cc .LASF1154
C:\Users\CYMR90~1\AppData\Local\Temp\cc5BNH7j.s:29024  .debug_str:000000000001e734 .LASF1155
C:\Users\CYMR90~1\AppData\Local\Temp\cc5BNH7j.s:26635  .debug_str:0000000000014b90 .LASF1156
C:\Users\CYMR90~1\AppData\Local\Temp\cc5BNH7j.s:28860  .debug_str:000000000001dce7 .LASF1157
C:\Users\CYMR90~1\AppData\Local\Temp\cc5BNH7j.s:24259  .debug_str:000000000000b19c .LASF1158
C:\Users\CYMR90~1\AppData\Local\Temp\cc5BNH7j.s:31942  .debug_str:0000000000029ef7 .LASF1159
C:\Users\CYMR90~1\AppData\Local\Temp\cc5BNH7j.s:21835  .debug_str:000000000000160b .LASF1160
C:\Users\CYMR90~1\AppData\Local\Temp\cc5BNH7j.s:32022  .debug_str:000000000002a3cf .LASF1161
C:\Users\CYMR90~1\AppData\Local\Temp\cc5BNH7j.s:31710  .debug_str:000000000002910f .LASF1162
C:\Users\CYMR90~1\AppData\Local\Temp\cc5BNH7j.s:28752  .debug_str:000000000001d674 .LASF1163
C:\Users\CYMR90~1\AppData\Local\Temp\cc5BNH7j.s:27890  .debug_str:0000000000019d3a .LASF1164
C:\Users\CYMR90~1\AppData\Local\Temp\cc5BNH7j.s:24791  .debug_str:000000000000d60b .LASF1165
C:\Users\CYMR90~1\AppData\Local\Temp\cc5BNH7j.s:29410  .debug_str:000000000001fe03 .LASF1166
C:\Users\CYMR90~1\AppData\Local\Temp\cc5BNH7j.s:25677  .debug_str:0000000000010dd4 .LASF1167
C:\Users\CYMR90~1\AppData\Local\Temp\cc5BNH7j.s:23835  .debug_str:000000000000961a .LASF1168
C:\Users\CYMR90~1\AppData\Local\Temp\cc5BNH7j.s:26747  .debug_str:00000000000152c8 .LASF1169
C:\Users\CYMR90~1\AppData\Local\Temp\cc5BNH7j.s:28096  .debug_str:000000000001abba .LASF1170
C:\Users\CYMR90~1\AppData\Local\Temp\cc5BNH7j.s:27800  .debug_str:000000000001976f .LASF1171
C:\Users\CYMR90~1\AppData\Local\Temp\cc5BNH7j.s:31968  .debug_str:000000000002a05f .LASF1172
C:\Users\CYMR90~1\AppData\Local\Temp\cc5BNH7j.s:27027  .debug_str:0000000000016403 .LASF1173
C:\Users\CYMR90~1\AppData\Local\Temp\cc5BNH7j.s:21657  .debug_str:0000000000000ba2 .LASF1174
C:\Users\CYMR90~1\AppData\Local\Temp\cc5BNH7j.s:22061  .debug_str:00000000000023ae .LASF1175
C:\Users\CYMR90~1\AppData\Local\Temp\cc5BNH7j.s:26253  .debug_str:0000000000013470 .LASF1176
C:\Users\CYMR90~1\AppData\Local\Temp\cc5BNH7j.s:24607  .debug_str:000000000000ca03 .LASF1177
C:\Users\CYMR90~1\AppData\Local\Temp\cc5BNH7j.s:28810  .debug_str:000000000001da0b .LASF1178
C:\Users\CYMR90~1\AppData\Local\Temp\cc5BNH7j.s:25205  .debug_str:000000000000ef35 .LASF1179
C:\Users\CYMR90~1\AppData\Local\Temp\cc5BNH7j.s:24779  .debug_str:000000000000d579 .LASF1180
C:\Users\CYMR90~1\AppData\Local\Temp\cc5BNH7j.s:30520  .debug_str:000000000002425a .LASF1181
C:\Users\CYMR90~1\AppData\Local\Temp\cc5BNH7j.s:31716  .debug_str:000000000002915a .LASF1182
C:\Users\CYMR90~1\AppData\Local\Temp\cc5BNH7j.s:22227  .debug_str:0000000000002e23 .LASF1183
C:\Users\CYMR90~1\AppData\Local\Temp\cc5BNH7j.s:29128  .debug_str:000000000001eccd .LASF1184
C:\Users\CYMR90~1\AppData\Local\Temp\cc5BNH7j.s:29580  .debug_str:0000000000020887 .LASF1185
C:\Users\CYMR90~1\AppData\Local\Temp\cc5BNH7j.s:30754  .debug_str:000000000002529a .LASF1186
C:\Users\CYMR90~1\AppData\Local\Temp\cc5BNH7j.s:21955  .debug_str:0000000000001dd5 .LASF1187
C:\Users\CYMR90~1\AppData\Local\Temp\cc5BNH7j.s:22869  .debug_str:00000000000057c1 .LASF1188
C:\Users\CYMR90~1\AppData\Local\Temp\cc5BNH7j.s:30060  .debug_str:00000000000225ac .LASF1189
C:\Users\CYMR90~1\AppData\Local\Temp\cc5BNH7j.s:23399  .debug_str:00000000000079a7 .LASF1190
C:\Users\CYMR90~1\AppData\Local\Temp\cc5BNH7j.s:30104  .debug_str:0000000000022838 .LASF1191
C:\Users\CYMR90~1\AppData\Local\Temp\cc5BNH7j.s:24581  .debug_str:000000000000c7a1 .LASF1192
C:\Users\CYMR90~1\AppData\Local\Temp\cc5BNH7j.s:29768  .debug_str:000000000002142c .LASF1193
C:\Users\CYMR90~1\AppData\Local\Temp\cc5BNH7j.s:24823  .debug_str:000000000000d7e2 .LASF1194
C:\Users\CYMR90~1\AppData\Local\Temp\cc5BNH7j.s:28346  .debug_str:000000000001bb6d .LASF1195
C:\Users\CYMR90~1\AppData\Local\Temp\cc5BNH7j.s:26399  .debug_str:0000000000013d1f .LASF1196
C:\Users\CYMR90~1\AppData\Local\Temp\cc5BNH7j.s:29804  .debug_str:0000000000021674 .LASF1197
C:\Users\CYMR90~1\AppData\Local\Temp\cc5BNH7j.s:31966  .debug_str:000000000002a050 .LASF1198
C:\Users\CYMR90~1\AppData\Local\Temp\cc5BNH7j.s:27049  .debug_str:00000000000165d8 .LASF1199
C:\Users\CYMR90~1\AppData\Local\Temp\cc5BNH7j.s:31972  .debug_str:000000000002a086 .LASF1200
C:\Users\CYMR90~1\AppData\Local\Temp\cc5BNH7j.s:24081  .debug_str:000000000000a5c4 .LASF1201
C:\Users\CYMR90~1\AppData\Local\Temp\cc5BNH7j.s:23747  .debug_str:00000000000090cc .LASF1202
C:\Users\CYMR90~1\AppData\Local\Temp\cc5BNH7j.s:27242  .debug_str:00000000000173b9 .LASF1203
C:\Users\CYMR90~1\AppData\Local\Temp\cc5BNH7j.s:31082  .debug_str:00000000000267be .LASF1204
C:\Users\CYMR90~1\AppData\Local\Temp\cc5BNH7j.s:26307  .debug_str:00000000000137cc .LASF1205
C:\Users\CYMR90~1\AppData\Local\Temp\cc5BNH7j.s:25377  .debug_str:000000000000fa47 .LASF1206
C:\Users\CYMR90~1\AppData\Local\Temp\cc5BNH7j.s:31938  .debug_str:0000000000029ec5 .LASF1207
C:\Users\CYMR90~1\AppData\Local\Temp\cc5BNH7j.s:30606  .debug_str:0000000000024820 .LASF1208
C:\Users\CYMR90~1\AppData\Local\Temp\cc5BNH7j.s:25303  .debug_str:000000000000f552 .LASF1209
C:\Users\CYMR90~1\AppData\Local\Temp\cc5BNH7j.s:22763  .debug_str:0000000000005177 .LASF1210
C:\Users\CYMR90~1\AppData\Local\Temp\cc5BNH7j.s:22859  .debug_str:0000000000005735 .LASF1211
C:\Users\CYMR90~1\AppData\Local\Temp\cc5BNH7j.s:28674  .debug_str:000000000001d1a6 .LASF1212
C:\Users\CYMR90~1\AppData\Local\Temp\cc5BNH7j.s:23145  .debug_str:00000000000068b3 .LASF1213
C:\Users\CYMR90~1\AppData\Local\Temp\cc5BNH7j.s:22071  .debug_str:000000000000246a .LASF1214
C:\Users\CYMR90~1\AppData\Local\Temp\cc5BNH7j.s:23879  .debug_str:0000000000009940 .LASF1215
C:\Users\CYMR90~1\AppData\Local\Temp\cc5BNH7j.s:32554  .debug_str:000000000002c5e7 .LASF1216
C:\Users\CYMR90~1\AppData\Local\Temp\cc5BNH7j.s:30220  .debug_str:0000000000022f0c .LASF1217
C:\Users\CYMR90~1\AppData\Local\Temp\cc5BNH7j.s:30234  .debug_str:0000000000022fc0 .LASF1218
C:\Users\CYMR90~1\AppData\Local\Temp\cc5BNH7j.s:30662  .debug_str:0000000000024bd0 .LASF1219
C:\Users\CYMR90~1\AppData\Local\Temp\cc5BNH7j.s:28236  .debug_str:000000000001b4e9 .LASF1220
C:\Users\CYMR90~1\AppData\Local\Temp\cc5BNH7j.s:24863  .debug_str:000000000000da13 .LASF1221
C:\Users\CYMR90~1\AppData\Local\Temp\cc5BNH7j.s:26571  .debug_str:00000000000147d4 .LASF1222
C:\Users\CYMR90~1\AppData\Local\Temp\cc5BNH7j.s:22245  .debug_str:0000000000002f44 .LASF1223
C:\Users\CYMR90~1\AppData\Local\Temp\cc5BNH7j.s:27984  .debug_str:000000000001a472 .LASF1224
C:\Users\CYMR90~1\AppData\Local\Temp\cc5BNH7j.s:31262  .debug_str:000000000002736f .LASF1225
C:\Users\CYMR90~1\AppData\Local\Temp\cc5BNH7j.s:24345  .debug_str:000000000000b79c .LASF1226
C:\Users\CYMR90~1\AppData\Local\Temp\cc5BNH7j.s:23285  .debug_str:0000000000007236 .LASF1227
C:\Users\CYMR90~1\AppData\Local\Temp\cc5BNH7j.s:22337  .debug_str:000000000000355e .LASF1228
C:\Users\CYMR90~1\AppData\Local\Temp\cc5BNH7j.s:32642  .debug_str:000000000002cbe3 .LASF1229
C:\Users\CYMR90~1\AppData\Local\Temp\cc5BNH7j.s:31692  .debug_str:0000000000028fff .LASF1230
C:\Users\CYMR90~1\AppData\Local\Temp\cc5BNH7j.s:30722  .debug_str:0000000000024ff1 .LASF1231
C:\Users\CYMR90~1\AppData\Local\Temp\cc5BNH7j.s:29756  .debug_str:0000000000021382 .LASF1232
C:\Users\CYMR90~1\AppData\Local\Temp\cc5BNH7j.s:29638  .debug_str:0000000000020c2e .LASF1233
C:\Users\CYMR90~1\AppData\Local\Temp\cc5BNH7j.s:28690  .debug_str:000000000001d262 .LASF1234
C:\Users\CYMR90~1\AppData\Local\Temp\cc5BNH7j.s:27754  .debug_str:0000000000019477 .LASF1235
C:\Users\CYMR90~1\AppData\Local\Temp\cc5BNH7j.s:26179  .debug_str:0000000000012f17 .LASF1236
C:\Users\CYMR90~1\AppData\Local\Temp\cc5BNH7j.s:25839  .debug_str:000000000001189f .LASF1237
C:\Users\CYMR90~1\AppData\Local\Temp\cc5BNH7j.s:27140  .debug_str:0000000000016dec .LASF1238
C:\Users\CYMR90~1\AppData\Local\Temp\cc5BNH7j.s:23951  .debug_str:0000000000009d85 .LASF1239
C:\Users\CYMR90~1\AppData\Local\Temp\cc5BNH7j.s:22969  .debug_str:0000000000005dd9 .LASF1240
C:\Users\CYMR90~1\AppData\Local\Temp\cc5BNH7j.s:22029  .debug_str:00000000000021d1 .LASF1241
C:\Users\CYMR90~1\AppData\Local\Temp\cc5BNH7j.s:32360  .debug_str:000000000002b8ef .LASF1242
C:\Users\CYMR90~1\AppData\Local\Temp\cc5BNH7j.s:21553  .debug_str:00000000000004d8 .LASF1243
C:\Users\CYMR90~1\AppData\Local\Temp\cc5BNH7j.s:31834  .debug_str:000000000002989c .LASF1244
C:\Users\CYMR90~1\AppData\Local\Temp\cc5BNH7j.s:30866  .debug_str:0000000000025a4b .LASF1245
C:\Users\CYMR90~1\AppData\Local\Temp\cc5BNH7j.s:29912  .debug_str:0000000000021d10 .LASF1246
C:\Users\CYMR90~1\AppData\Local\Temp\cc5BNH7j.s:28932  .debug_str:000000000001e163 .LASF1247
C:\Users\CYMR90~1\AppData\Local\Temp\cc5BNH7j.s:28040  .debug_str:000000000001a81e .LASF1248
C:\Users\CYMR90~1\AppData\Local\Temp\cc5BNH7j.s:27093  .debug_str:00000000000168d6 .LASF1249
C:\Users\CYMR90~1\AppData\Local\Temp\cc5BNH7j.s:27258  .debug_str:00000000000174bb .LASF1250
C:\Users\CYMR90~1\AppData\Local\Temp\cc5BNH7j.s:25211  .debug_str:000000000000ef83 .LASF1251
C:\Users\CYMR90~1\AppData\Local\Temp\cc5BNH7j.s:27354  .debug_str:0000000000017adf .LASF1252
C:\Users\CYMR90~1\AppData\Local\Temp\cc5BNH7j.s:24719  .debug_str:000000000000d0e4 .LASF1253
C:\Users\CYMR90~1\AppData\Local\Temp\cc5BNH7j.s:23761  .debug_str:000000000000919b .LASF1254
C:\Users\CYMR90~1\AppData\Local\Temp\cc5BNH7j.s:21795  .debug_str:00000000000013ce .LASF1255
C:\Users\CYMR90~1\AppData\Local\Temp\cc5BNH7j.s:24639  .debug_str:000000000000cbd9 .LASF1256
C:\Users\CYMR90~1\AppData\Local\Temp\cc5BNH7j.s:22925  .debug_str:0000000000005b4f .LASF1257
C:\Users\CYMR90~1\AppData\Local\Temp\cc5BNH7j.s:27628  .debug_str:0000000000018bee .LASF1258
C:\Users\CYMR90~1\AppData\Local\Temp\cc5BNH7j.s:27630  .debug_str:0000000000018c01 .LASF1259
C:\Users\CYMR90~1\AppData\Local\Temp\cc5BNH7j.s:30108  .debug_str:0000000000022868 .LASF1260
C:\Users\CYMR90~1\AppData\Local\Temp\cc5BNH7j.s:28230  .debug_str:000000000001b4a2 .LASF1261
C:\Users\CYMR90~1\AppData\Local\Temp\cc5BNH7j.s:25647  .debug_str:0000000000010c6c .LASF1262
C:\Users\CYMR90~1\AppData\Local\Temp\cc5BNH7j.s:22817  .debug_str:00000000000054be .LASF1263
C:\Users\CYMR90~1\AppData\Local\Temp\cc5BNH7j.s:24949  .debug_str:000000000000df9a .LASF1264
C:\Users\CYMR90~1\AppData\Local\Temp\cc5BNH7j.s:27117  .debug_str:0000000000016ae3 .LASF1265
C:\Users\CYMR90~1\AppData\Local\Temp\cc5BNH7j.s:24997  .debug_str:000000000000e292 .LASF1266
C:\Users\CYMR90~1\AppData\Local\Temp\cc5BNH7j.s:30134  .debug_str:0000000000022a55 .LASF1267
C:\Users\CYMR90~1\AppData\Local\Temp\cc5BNH7j.s:30312  .debug_str:00000000000234b6 .LASF1268
C:\Users\CYMR90~1\AppData\Local\Temp\cc5BNH7j.s:25779  .debug_str:0000000000011400 .LASF1269
C:\Users\CYMR90~1\AppData\Local\Temp\cc5BNH7j.s:32412  .debug_str:000000000002bc3a .LASF1270
C:\Users\CYMR90~1\AppData\Local\Temp\cc5BNH7j.s:27356  .debug_str:0000000000017af6 .LASF1271
C:\Users\CYMR90~1\AppData\Local\Temp\cc5BNH7j.s:31796  .debug_str:0000000000029675 .LASF1272
C:\Users\CYMR90~1\AppData\Local\Temp\cc5BNH7j.s:28812  .debug_str:000000000001da18 .LASF1273
C:\Users\CYMR90~1\AppData\Local\Temp\cc5BNH7j.s:21613  .debug_str:0000000000000887 .LASF1274
C:\Users\CYMR90~1\AppData\Local\Temp\cc5BNH7j.s:27638  .debug_str:0000000000018c84 .LASF1275
C:\Users\CYMR90~1\AppData\Local\Temp\cc5BNH7j.s:21719  .debug_str:0000000000000f70 .LASF1276
C:\Users\CYMR90~1\AppData\Local\Temp\cc5BNH7j.s:23973  .debug_str:0000000000009f02 .LASF1277
C:\Users\CYMR90~1\AppData\Local\Temp\cc5BNH7j.s:22987  .debug_str:0000000000005ef4 .LASF1278
C:\Users\CYMR90~1\AppData\Local\Temp\cc5BNH7j.s:22059  .debug_str:000000000000239c .LASF1279
C:\Users\CYMR90~1\AppData\Local\Temp\cc5BNH7j.s:32380  .debug_str:000000000002ba1c .LASF1280
C:\Users\CYMR90~1\AppData\Local\Temp\cc5BNH7j.s:22881  .debug_str:0000000000005885 .LASF1281
C:\Users\CYMR90~1\AppData\Local\Temp\cc5BNH7j.s:21941  .debug_str:0000000000001d09 .LASF1282
C:\Users\CYMR90~1\AppData\Local\Temp\cc5BNH7j.s:28974  .debug_str:000000000001e3fc .LASF1283
C:\Users\CYMR90~1\AppData\Local\Temp\cc5BNH7j.s:21685  .debug_str:0000000000000d12 .LASF1284
C:\Users\CYMR90~1\AppData\Local\Temp\cc5BNH7j.s:30336  .debug_str:000000000002366c .LASF1285
C:\Users\CYMR90~1\AppData\Local\Temp\cc5BNH7j.s:29360  .debug_str:000000000001faf3 .LASF1286
C:\Users\CYMR90~1\AppData\Local\Temp\cc5BNH7j.s:28414  .debug_str:000000000001bfdc .LASF1287
C:\Users\CYMR90~1\AppData\Local\Temp\cc5BNH7j.s:27464  .debug_str:0000000000018144 .LASF1288
C:\Users\CYMR90~1\AppData\Local\Temp\cc5BNH7j.s:26511  .debug_str:0000000000014404 .LASF1289
C:\Users\CYMR90~1\AppData\Local\Temp\cc5BNH7j.s:25577  .debug_str:0000000000010739 .LASF1290
C:\Users\CYMR90~1\AppData\Local\Temp\cc5BNH7j.s:29862  .debug_str:00000000000219e3 .LASF1291
C:\Users\CYMR90~1\AppData\Local\Temp\cc5BNH7j.s:28884  .debug_str:000000000001de7b .LASF1292
C:\Users\CYMR90~1\AppData\Local\Temp\cc5BNH7j.s:27982  .debug_str:000000000001a45e .LASF1293
C:\Users\CYMR90~1\AppData\Local\Temp\cc5BNH7j.s:26983  .debug_str:000000000001619c .LASF1294
C:\Users\CYMR90~1\AppData\Local\Temp\cc5BNH7j.s:26063  .debug_str:0000000000012783 .LASF1295
C:\Users\CYMR90~1\AppData\Local\Temp\cc5BNH7j.s:25105  .debug_str:000000000000e990 .LASF1296
C:\Users\CYMR90~1\AppData\Local\Temp\cc5BNH7j.s:24481  .debug_str:000000000000c0fa .LASF1297
C:\Users\CYMR90~1\AppData\Local\Temp\cc5BNH7j.s:29326  .debug_str:000000000001f8cf .LASF1298
C:\Users\CYMR90~1\AppData\Local\Temp\cc5BNH7j.s:28386  .debug_str:000000000001be22 .LASF1299
C:\Users\CYMR90~1\AppData\Local\Temp\cc5BNH7j.s:27432  .debug_str:0000000000017f40 .LASF1300
C:\Users\CYMR90~1\AppData\Local\Temp\cc5BNH7j.s:28358  .debug_str:000000000001bc41 .LASF1301
C:\Users\CYMR90~1\AppData\Local\Temp\cc5BNH7j.s:29576  .debug_str:0000000000020864 .LASF1302
C:\Users\CYMR90~1\AppData\Local\Temp\cc5BNH7j.s:27025  .debug_str:00000000000163f0 .LASF1303
C:\Users\CYMR90~1\AppData\Local\Temp\cc5BNH7j.s:27900  .debug_str:0000000000019dde .LASF1304
C:\Users\CYMR90~1\AppData\Local\Temp\cc5BNH7j.s:27870  .debug_str:0000000000019c39 .LASF1305
C:\Users\CYMR90~1\AppData\Local\Temp\cc5BNH7j.s:23655  .debug_str:0000000000008b32 .LASF1306
C:\Users\CYMR90~1\AppData\Local\Temp\cc5BNH7j.s:22667  .debug_str:0000000000004bc2 .LASF1307
C:\Users\CYMR90~1\AppData\Local\Temp\cc5BNH7j.s:21731  .debug_str:0000000000001006 .LASF1308
C:\Users\CYMR90~1\AppData\Local\Temp\cc5BNH7j.s:32042  .debug_str:000000000002a4fb .LASF1309
C:\Users\CYMR90~1\AppData\Local\Temp\cc5BNH7j.s:31078  .debug_str:0000000000026783 .LASF1310
C:\Users\CYMR90~1\AppData\Local\Temp\cc5BNH7j.s:30110  .debug_str:0000000000022879 .LASF1311
C:\Users\CYMR90~1\AppData\Local\Temp\cc5BNH7j.s:23609  .debug_str:0000000000008856 .LASF1312
C:\Users\CYMR90~1\AppData\Local\Temp\cc5BNH7j.s:22873  .debug_str:0000000000005813 .LASF1313
C:\Users\CYMR90~1\AppData\Local\Temp\cc5BNH7j.s:26227  .debug_str:0000000000013229 .LASF1314
C:\Users\CYMR90~1\AppData\Local\Temp\cc5BNH7j.s:32260  .debug_str:000000000002b251 .LASF1315
C:\Users\CYMR90~1\AppData\Local\Temp\cc5BNH7j.s:30796  .debug_str:000000000002557e .LASF1316
C:\Users\CYMR90~1\AppData\Local\Temp\cc5BNH7j.s:30328  .debug_str:00000000000235d0 .LASF1317
C:\Users\CYMR90~1\AppData\Local\Temp\cc5BNH7j.s:29352  .debug_str:000000000001fa86 .LASF1318
C:\Users\CYMR90~1\AppData\Local\Temp\cc5BNH7j.s:28424  .debug_str:000000000001c086 .LASF1319
C:\Users\CYMR90~1\AppData\Local\Temp\cc5BNH7j.s:27476  .debug_str:00000000000181fa .LASF1320
C:\Users\CYMR90~1\AppData\Local\Temp\cc5BNH7j.s:26521  .debug_str:000000000001447a .LASF1321
C:\Users\CYMR90~1\AppData\Local\Temp\cc5BNH7j.s:25583  .debug_str:0000000000010794 .LASF1322
C:\Users\CYMR90~1\AppData\Local\Temp\cc5BNH7j.s:26039  .debug_str:00000000000125ed .LASF1323
C:\Users\CYMR90~1\AppData\Local\Temp\cc5BNH7j.s:24485  .debug_str:000000000000c11f .LASF1324
C:\Users\CYMR90~1\AppData\Local\Temp\cc5BNH7j.s:24131  .debug_str:000000000000a8f0 .LASF1325
C:\Users\CYMR90~1\AppData\Local\Temp\cc5BNH7j.s:23153  .debug_str:000000000000694f .LASF1326
C:\Users\CYMR90~1\AppData\Local\Temp\cc5BNH7j.s:22205  .debug_str:0000000000002cd3 .LASF1327
C:\Users\CYMR90~1\AppData\Local\Temp\cc5BNH7j.s:32526  .debug_str:000000000002c429 .LASF1328
C:\Users\CYMR90~1\AppData\Local\Temp\cc5BNH7j.s:31610  .debug_str:0000000000028acc .LASF1329
C:\Users\CYMR90~1\AppData\Local\Temp\cc5BNH7j.s:30642  .debug_str:0000000000024a62 .LASF1330
C:\Users\CYMR90~1\AppData\Local\Temp\cc5BNH7j.s:29678  .debug_str:0000000000020e4d .LASF1331
C:\Users\CYMR90~1\AppData\Local\Temp\cc5BNH7j.s:28722  .debug_str:000000000001d46c .LASF1332
C:\Users\CYMR90~1\AppData\Local\Temp\cc5BNH7j.s:29150  .debug_str:000000000001ee46 .LASF1333
C:\Users\CYMR90~1\AppData\Local\Temp\cc5BNH7j.s:28244  .debug_str:000000000001b565 .LASF1334
C:\Users\CYMR90~1\AppData\Local\Temp\cc5BNH7j.s:26945  .debug_str:0000000000015f39 .LASF1335
C:\Users\CYMR90~1\AppData\Local\Temp\cc5BNH7j.s:24635  .debug_str:000000000000cbae .LASF1336
C:\Users\CYMR90~1\AppData\Local\Temp\cc5BNH7j.s:29368  .debug_str:000000000001fb52 .LASF1337
C:\Users\CYMR90~1\AppData\Local\Temp\cc5BNH7j.s:25919  .debug_str:0000000000011de8 .LASF1338
C:\Users\CYMR90~1\AppData\Local\Temp\cc5BNH7j.s:21839  .debug_str:0000000000001643 .LASF1339
C:\Users\CYMR90~1\AppData\Local\Temp\cc5BNH7j.s:23923  .debug_str:0000000000009be7 .LASF1340
C:\Users\CYMR90~1\AppData\Local\Temp\cc5BNH7j.s:22941  .debug_str:0000000000005c50 .LASF1341
C:\Users\CYMR90~1\AppData\Local\Temp\cc5BNH7j.s:21999  .debug_str:0000000000002028 .LASF1342
C:\Users\CYMR90~1\AppData\Local\Temp\cc5BNH7j.s:32338  .debug_str:000000000002b76b .LASF1343
C:\Users\CYMR90~1\AppData\Local\Temp\cc5BNH7j.s:32128  .debug_str:000000000002a9f6 .LASF1344
C:\Users\CYMR90~1\AppData\Local\Temp\cc5BNH7j.s:31160  .debug_str:0000000000026ca3 .LASF1345
C:\Users\CYMR90~1\AppData\Local\Temp\cc5BNH7j.s:23647  .debug_str:0000000000008ab3 .LASF1346
C:\Users\CYMR90~1\AppData\Local\Temp\cc5BNH7j.s:31562  .debug_str:0000000000028821 .LASF1347
C:\Users\CYMR90~1\AppData\Local\Temp\cc5BNH7j.s:28290  .debug_str:000000000001b837 .LASF1348
C:\Users\CYMR90~1\AppData\Local\Temp\cc5BNH7j.s:28802  .debug_str:000000000001d98a .LASF1349
C:\Users\CYMR90~1\AppData\Local\Temp\cc5BNH7j.s:26389  .debug_str:0000000000013ca6 .LASF1350
C:\Users\CYMR90~1\AppData\Local\Temp\cc5BNH7j.s:29512  .debug_str:0000000000020478 .LASF1351
C:\Users\CYMR90~1\AppData\Local\Temp\cc5BNH7j.s:24499  .debug_str:000000000000c225 .LASF1352
C:\Users\CYMR90~1\AppData\Local\Temp\cc5BNH7j.s:23441  .debug_str:0000000000007cb7 .LASF1353
C:\Users\CYMR90~1\AppData\Local\Temp\cc5BNH7j.s:24005  .debug_str:000000000000a10b .LASF1354
C:\Users\CYMR90~1\AppData\Local\Temp\cc5BNH7j.s:23019  .debug_str:0000000000006120 .LASF1355
C:\Users\CYMR90~1\AppData\Local\Temp\cc5BNH7j.s:22083  .debug_str:00000000000024e4 .LASF1356
C:\Users\CYMR90~1\AppData\Local\Temp\cc5BNH7j.s:32408  .debug_str:000000000002bc1a .LASF1357
C:\Users\CYMR90~1\AppData\Local\Temp\cc5BNH7j.s:26481  .debug_str:000000000001425f .LASF1358
C:\Users\CYMR90~1\AppData\Local\Temp\cc5BNH7j.s:23147  .debug_str:00000000000068f7 .LASF1359
C:\Users\CYMR90~1\AppData\Local\Temp\cc5BNH7j.s:29558  .debug_str:000000000002073e .LASF1360
C:\Users\CYMR90~1\AppData\Local\Temp\cc5BNH7j.s:28518  .debug_str:000000000001c621 .LASF1361
C:\Users\CYMR90~1\AppData\Local\Temp\cc5BNH7j.s:27570  .debug_str:0000000000018790 .LASF1362
C:\Users\CYMR90~1\AppData\Local\Temp\cc5BNH7j.s:31572  .debug_str:00000000000288b2 .LASF1363
C:\Users\CYMR90~1\AppData\Local\Temp\cc5BNH7j.s:26871  .debug_str:00000000000159d2 .LASF1364
C:\Users\CYMR90~1\AppData\Local\Temp\cc5BNH7j.s:23559  .debug_str:0000000000008512 .LASF1365
C:\Users\CYMR90~1\AppData\Local\Temp\cc5BNH7j.s:31188  .debug_str:0000000000026e4e .LASF1366
C:\Users\CYMR90~1\AppData\Local\Temp\cc5BNH7j.s:21885  .debug_str:00000000000019b1 .LASF1367
C:\Users\CYMR90~1\AppData\Local\Temp\cc5BNH7j.s:29450  .debug_str:000000000002002f .LASF1368
C:\Users\CYMR90~1\AppData\Local\Temp\cc5BNH7j.s:27730  .debug_str:00000000000192d2 .LASF1369
C:\Users\CYMR90~1\AppData\Local\Temp\cc5BNH7j.s:32298  .debug_str:000000000002b4b2 .LASF1370
C:\Users\CYMR90~1\AppData\Local\Temp\cc5BNH7j.s:28734  .debug_str:000000000001d50c .LASF1371
C:\Users\CYMR90~1\AppData\Local\Temp\cc5BNH7j.s:22127  .debug_str:000000000000280a .LASF1372
C:\Users\CYMR90~1\AppData\Local\Temp\cc5BNH7j.s:24677  .debug_str:000000000000ce2e .LASF1373
C:\Users\CYMR90~1\AppData\Local\Temp\cc5BNH7j.s:27776  .debug_str:0000000000019592 .LASF1374
C:\Users\CYMR90~1\AppData\Local\Temp\cc5BNH7j.s:30858  .debug_str:00000000000259dd .LASF1375
C:\Users\CYMR90~1\AppData\Local\Temp\cc5BNH7j.s:22697  .debug_str:0000000000004d84 .LASF1376
C:\Users\CYMR90~1\AppData\Local\Temp\cc5BNH7j.s:25825  .debug_str:0000000000011707 .LASF1377
C:\Users\CYMR90~1\AppData\Local\Temp\cc5BNH7j.s:28890  .debug_str:000000000001ded5 .LASF1378
C:\Users\CYMR90~1\AppData\Local\Temp\cc5BNH7j.s:32036  .debug_str:000000000002a4ad .LASF1379
C:\Users\CYMR90~1\AppData\Local\Temp\cc5BNH7j.s:32002  .debug_str:000000000002a270 .LASF1380
C:\Users\CYMR90~1\AppData\Local\Temp\cc5BNH7j.s:23773  .debug_str:000000000000924b .LASF1381
C:\Users\CYMR90~1\AppData\Local\Temp\cc5BNH7j.s:26843  .debug_str:0000000000015836 .LASF1382
C:\Users\CYMR90~1\AppData\Local\Temp\cc5BNH7j.s:29958  .debug_str:0000000000021fc6 .LASF1383
C:\Users\CYMR90~1\AppData\Local\Temp\cc5BNH7j.s:21809  .debug_str:000000000000147f .LASF1384
C:\Users\CYMR90~1\AppData\Local\Temp\cc5BNH7j.s:26293  .debug_str:00000000000136f0 .LASF1385
C:\Users\CYMR90~1\AppData\Local\Temp\cc5BNH7j.s:28074  .debug_str:000000000001aa48 .LASF1386
C:\Users\CYMR90~1\AppData\Local\Temp\cc5BNH7j.s:31150  .debug_str:0000000000026be2 .LASF1387
C:\Users\CYMR90~1\AppData\Local\Temp\cc5BNH7j.s:22975  .debug_str:0000000000005e3c .LASF1388
C:\Users\CYMR90~1\AppData\Local\Temp\cc5BNH7j.s:26023  .debug_str:00000000000124ec .LASF1389
C:\Users\CYMR90~1\AppData\Local\Temp\cc5BNH7j.s:25383  .debug_str:000000000000fa8d .LASF1390
C:\Users\CYMR90~1\AppData\Local\Temp\cc5BNH7j.s:28368  .debug_str:000000000001bcf7 .LASF1391
C:\Users\CYMR90~1\AppData\Local\Temp\cc5BNH7j.s:31482  .debug_str:0000000000028288 .LASF1392
C:\Users\CYMR90~1\AppData\Local\Temp\cc5BNH7j.s:23321  .debug_str:0000000000007462 .LASF1393
C:\Users\CYMR90~1\AppData\Local\Temp\cc5BNH7j.s:26419  .debug_str:0000000000013e34 .LASF1394
C:\Users\CYMR90~1\AppData\Local\Temp\cc5BNH7j.s:26569  .debug_str:00000000000147bc .LASF1395
C:\Users\CYMR90~1\AppData\Local\Temp\cc5BNH7j.s:32704  .debug_str:000000000002cfac .LASF1396
C:\Users\CYMR90~1\AppData\Local\Temp\cc5BNH7j.s:24555  .debug_str:000000000000c56e .LASF1397
C:\Users\CYMR90~1\AppData\Local\Temp\cc5BNH7j.s:29100  .debug_str:000000000001eb69 .LASF1398
C:\Users\CYMR90~1\AppData\Local\Temp\cc5BNH7j.s:25729  .debug_str:00000000000110c3 .LASF1399
C:\Users\CYMR90~1\AppData\Local\Temp\cc5BNH7j.s:27007  .debug_str:0000000000016301 .LASF1400
C:\Users\CYMR90~1\AppData\Local\Temp\cc5BNH7j.s:21767  .debug_str:000000000000121a .LASF1401
C:\Users\CYMR90~1\AppData\Local\Temp\cc5BNH7j.s:29432  .debug_str:000000000001ff4b .LASF1402
C:\Users\CYMR90~1\AppData\Local\Temp\cc5BNH7j.s:24381  .debug_str:000000000000ba10 .LASF1403
C:\Users\CYMR90~1\AppData\Local\Temp\cc5BNH7j.s:29198  .debug_str:000000000001f13d .LASF1404
C:\Users\CYMR90~1\AppData\Local\Temp\cc5BNH7j.s:22479  .debug_str:0000000000003ecb .LASF1405
C:\Users\CYMR90~1\AppData\Local\Temp\cc5BNH7j.s:31962  .debug_str:000000000002a000 .LASF1406
C:\Users\CYMR90~1\AppData\Local\Temp\cc5BNH7j.s:30156  .debug_str:0000000000022b80 .LASF1407
C:\Users\CYMR90~1\AppData\Local\Temp\cc5BNH7j.s:30316  .debug_str:00000000000234e8 .LASF1408
C:\Users\CYMR90~1\AppData\Local\Temp\cc5BNH7j.s:22159  .debug_str:0000000000002a05 .LASF1409
C:\Users\CYMR90~1\AppData\Local\Temp\cc5BNH7j.s:25285  .debug_str:000000000000f43e .LASF1410
C:\Users\CYMR90~1\AppData\Local\Temp\cc5BNH7j.s:31708  .debug_str:00000000000290f6 .LASF1411
C:\Users\CYMR90~1\AppData\Local\Temp\cc5BNH7j.s:23547  .debug_str:000000000000844e .LASF1412
C:\Users\CYMR90~1\AppData\Local\Temp\cc5BNH7j.s:29076  .debug_str:000000000001ea20 .LASF1413
C:\Users\CYMR90~1\AppData\Local\Temp\cc5BNH7j.s:29738  .debug_str:0000000000021259 .LASF1414
C:\Users\CYMR90~1\AppData\Local\Temp\cc5BNH7j.s:21615  .debug_str:000000000000089a .LASF1415
C:\Users\CYMR90~1\AppData\Local\Temp\cc5BNH7j.s:24645  .debug_str:000000000000cc19 .LASF1416
C:\Users\CYMR90~1\AppData\Local\Temp\cc5BNH7j.s:27752  .debug_str:000000000001945e .LASF1417
C:\Users\CYMR90~1\AppData\Local\Temp\cc5BNH7j.s:29260  .debug_str:000000000001f4e8 .LASF1418
C:\Users\CYMR90~1\AppData\Local\Temp\cc5BNH7j.s:22675  .debug_str:0000000000004c2c .LASF1419
C:\Users\CYMR90~1\AppData\Local\Temp\cc5BNH7j.s:25715  .debug_str:0000000000010fe4 .LASF1420
C:\Users\CYMR90~1\AppData\Local\Temp\cc5BNH7j.s:25061  .debug_str:000000000000e6b0 .LASF1421
C:\Users\CYMR90~1\AppData\Local\Temp\cc5BNH7j.s:28184  .debug_str:000000000001b1e1 .LASF1422
C:\Users\CYMR90~1\AppData\Local\Temp\cc5BNH7j.s:31260  .debug_str:0000000000027356 .LASF1423
C:\Users\CYMR90~1\AppData\Local\Temp\cc5BNH7j.s:23099  .debug_str:00000000000065c6 .LASF1424
C:\Users\CYMR90~1\AppData\Local\Temp\cc5BNH7j.s:26231  .debug_str:0000000000013257 .LASF1425
C:\Users\CYMR90~1\AppData\Local\Temp\cc5BNH7j.s:29192  .debug_str:000000000001f0ca .LASF1426
C:\Users\CYMR90~1\AppData\Local\Temp\cc5BNH7j.s:32418  .debug_str:000000000002bd0d .LASF1427
C:\Users\CYMR90~1\AppData\Local\Temp\cc5BNH7j.s:24257  .debug_str:000000000000b183 .LASF1428
C:\Users\CYMR90~1\AppData\Local\Temp\cc5BNH7j.s:27332  .debug_str:000000000001799a .LASF1429
C:\Users\CYMR90~1\AppData\Local\Temp\cc5BNH7j.s:30448  .debug_str:0000000000023ce3 .LASF1430
C:\Users\CYMR90~1\AppData\Local\Temp\cc5BNH7j.s:29200  .debug_str:000000000001f155 .LASF1431
C:\Users\CYMR90~1\AppData\Local\Temp\cc5BNH7j.s:21577  .debug_str:0000000000000651 .LASF1432
C:\Users\CYMR90~1\AppData\Local\Temp\cc5BNH7j.s:30400  .debug_str:0000000000023a02 .LASF1433
C:\Users\CYMR90~1\AppData\Local\Temp\cc5BNH7j.s:29436  .debug_str:000000000001ff75 .LASF1434
C:\Users\CYMR90~1\AppData\Local\Temp\cc5BNH7j.s:28484  .debug_str:000000000001c3f5 .LASF1435
C:\Users\CYMR90~1\AppData\Local\Temp\cc5BNH7j.s:27538  .debug_str:000000000001857a .LASF1436
C:\Users\CYMR90~1\AppData\Local\Temp\cc5BNH7j.s:26967  .debug_str:00000000000160bb .LASF1437
C:\Users\CYMR90~1\AppData\Local\Temp\cc5BNH7j.s:31292  .debug_str:0000000000027501 .LASF1438
C:\Users\CYMR90~1\AppData\Local\Temp\cc5BNH7j.s:30334  .debug_str:0000000000023658 .LASF1439
C:\Users\CYMR90~1\AppData\Local\Temp\cc5BNH7j.s:29358  .debug_str:000000000001fadf .LASF1440
C:\Users\CYMR90~1\AppData\Local\Temp\cc5BNH7j.s:28412  .debug_str:000000000001bfc8 .LASF1441
C:\Users\CYMR90~1\AppData\Local\Temp\cc5BNH7j.s:27462  .debug_str:0000000000018130 .LASF1442
C:\Users\CYMR90~1\AppData\Local\Temp\cc5BNH7j.s:26509  .debug_str:00000000000143f0 .LASF1443
C:\Users\CYMR90~1\AppData\Local\Temp\cc5BNH7j.s:25575  .debug_str:0000000000010725 .LASF1444
C:\Users\CYMR90~1\AppData\Local\Temp\cc5BNH7j.s:32376  .debug_str:000000000002b9e4 .LASF1445
C:\Users\CYMR90~1\AppData\Local\Temp\cc5BNH7j.s:23663  .debug_str:0000000000008ba0 .LASF1446
C:\Users\CYMR90~1\AppData\Local\Temp\cc5BNH7j.s:25195  .debug_str:000000000000ee9c .LASF1447
C:\Users\CYMR90~1\AppData\Local\Temp\cc5BNH7j.s:30678  .debug_str:0000000000024cc9 .LASF1448
C:\Users\CYMR90~1\AppData\Local\Temp\cc5BNH7j.s:29714  .debug_str:000000000002104d .LASF1449
C:\Users\CYMR90~1\AppData\Local\Temp\cc5BNH7j.s:28744  .debug_str:000000000001d60b .LASF1450
C:\Users\CYMR90~1\AppData\Local\Temp\cc5BNH7j.s:27822  .debug_str:000000000001994a .LASF1451
C:\Users\CYMR90~1\AppData\Local\Temp\cc5BNH7j.s:26841  .debug_str:0000000000015821 .LASF1452
C:\Users\CYMR90~1\AppData\Local\Temp\cc5BNH7j.s:24255  .debug_str:000000000000b170 .LASF1453
C:\Users\CYMR90~1\AppData\Local\Temp\cc5BNH7j.s:22887  .debug_str:00000000000058db .LASF1454
C:\Users\CYMR90~1\AppData\Local\Temp\cc5BNH7j.s:24061  .debug_str:000000000000a4a5 .LASF1455
C:\Users\CYMR90~1\AppData\Local\Temp\cc5BNH7j.s:29104  .debug_str:000000000001ebab .LASF1456
C:\Users\CYMR90~1\AppData\Local\Temp\cc5BNH7j.s:30730  .debug_str:0000000000025080 .LASF1457
C:\Users\CYMR90~1\AppData\Local\Temp\cc5BNH7j.s:22853  .debug_str:0000000000005702 .LASF1458
C:\Users\CYMR90~1\AppData\Local\Temp\cc5BNH7j.s:29186  .debug_str:000000000001f07c .LASF1459
C:\Users\CYMR90~1\AppData\Local\Temp\cc5BNH7j.s:26043  .debug_str:000000000001262e .LASF1460
C:\Users\CYMR90~1\AppData\Local\Temp\cc5BNH7j.s:24167  .debug_str:000000000000ab3e .LASF1461
C:\Users\CYMR90~1\AppData\Local\Temp\cc5BNH7j.s:25339  .debug_str:000000000000f813 .LASF1462
C:\Users\CYMR90~1\AppData\Local\Temp\cc5BNH7j.s:25831  .debug_str:00000000000117e2 .LASF1463
C:\Users\CYMR90~1\AppData\Local\Temp\cc5BNH7j.s:26901  .debug_str:0000000000015be3 .LASF1464
C:\Users\CYMR90~1\AppData\Local\Temp\cc5BNH7j.s:32154  .debug_str:000000000002ab9e .LASF1465
C:\Users\CYMR90~1\AppData\Local\Temp\cc5BNH7j.s:28086  .debug_str:000000000001ab30 .LASF1466
C:\Users\CYMR90~1\AppData\Local\Temp\cc5BNH7j.s:26513  .debug_str:0000000000014417 .LASF1467
C:\Users\CYMR90~1\AppData\Local\Temp\cc5BNH7j.s:31180  .debug_str:0000000000026dd7 .LASF1468
C:\Users\CYMR90~1\AppData\Local\Temp\cc5BNH7j.s:25515  .debug_str:00000000000102ed .LASF1469
C:\Users\CYMR90~1\AppData\Local\Temp\cc5BNH7j.s:23621  .debug_str:0000000000008918 .LASF1470
C:\Users\CYMR90~1\AppData\Local\Temp\cc5BNH7j.s:25807  .debug_str:00000000000115eb .LASF1471
C:\Users\CYMR90~1\AppData\Local\Temp\cc5BNH7j.s:27358  .debug_str:0000000000017b09 .LASF1472
C:\Users\CYMR90~1\AppData\Local\Temp\cc5BNH7j.s:30630  .debug_str:00000000000249ab .LASF1473
C:\Users\CYMR90~1\AppData\Local\Temp\cc5BNH7j.s:31266  .debug_str:000000000002739b .LASF1474
C:\Users\CYMR90~1\AppData\Local\Temp\cc5BNH7j.s:21667  .debug_str:0000000000000c1b .LASF1475
C:\Users\CYMR90~1\AppData\Local\Temp\cc5BNH7j.s:23549  .debug_str:0000000000008467 .LASF1476
C:\Users\CYMR90~1\AppData\Local\Temp\cc5BNH7j.s:22185  .debug_str:0000000000002b9c .LASF1477
C:\Users\CYMR90~1\AppData\Local\Temp\cc5BNH7j.s:31448  .debug_str:0000000000027fcb .LASF1478
C:\Users\CYMR90~1\AppData\Local\Temp\cc5BNH7j.s:30484  .debug_str:0000000000023fa2 .LASF1479
C:\Users\CYMR90~1\AppData\Local\Temp\cc5BNH7j.s:22303  .debug_str:0000000000003333 .LASF1480
C:\Users\CYMR90~1\AppData\Local\Temp\cc5BNH7j.s:24507  .debug_str:000000000000c281 .LASF1481
C:\Users\CYMR90~1\AppData\Local\Temp\cc5BNH7j.s:30598  .debug_str:00000000000247b7 .LASF1482
C:\Users\CYMR90~1\AppData\Local\Temp\cc5BNH7j.s:23857  .debug_str:00000000000097c9 .LASF1483
C:\Users\CYMR90~1\AppData\Local\Temp\cc5BNH7j.s:22681  .debug_str:0000000000004c85 .LASF1484
C:\Users\CYMR90~1\AppData\Local\Temp\cc5BNH7j.s:25071  .debug_str:000000000000e752 .LASF1485
C:\Users\CYMR90~1\AppData\Local\Temp\cc5BNH7j.s:26479  .debug_str:000000000001424c .LASF1486
C:\Users\CYMR90~1\AppData\Local\Temp\cc5BNH7j.s:28070  .debug_str:000000000001aa19 .LASF1487
C:\Users\CYMR90~1\AppData\Local\Temp\cc5BNH7j.s:21505  .debug_str:0000000000000216 .LASF1488
C:\Users\CYMR90~1\AppData\Local\Temp\cc5BNH7j.s:26859  .debug_str:000000000001591e .LASF1489
C:\Users\CYMR90~1\AppData\Local\Temp\cc5BNH7j.s:24869  .debug_str:000000000000da53 .LASF1490
C:\Users\CYMR90~1\AppData\Local\Temp\cc5BNH7j.s:31674  .debug_str:0000000000028ef0 .LASF1491
C:\Users\CYMR90~1\AppData\Local\Temp\cc5BNH7j.s:22153  .debug_str:000000000000299e .LASF1492
C:\Users\CYMR90~1\AppData\Local\Temp\cc5BNH7j.s:29668  .debug_str:0000000000020dce .LASF1493
C:\Users\CYMR90~1\AppData\Local\Temp\cc5BNH7j.s:31888  .debug_str:0000000000029bdf .LASF1494
C:\Users\CYMR90~1\AppData\Local\Temp\cc5BNH7j.s:23309  .debug_str:00000000000073be .LASF1495
C:\Users\CYMR90~1\AppData\Local\Temp\cc5BNH7j.s:30952  .debug_str:0000000000025faa .LASF1496
C:\Users\CYMR90~1\AppData\Local\Temp\cc5BNH7j.s:31646  .debug_str:0000000000028d23 .LASF1497
C:\Users\CYMR90~1\AppData\Local\Temp\cc5BNH7j.s:23105  .debug_str:000000000000661e .LASF1498
C:\Users\CYMR90~1\AppData\Local\Temp\cc5BNH7j.s:23947  .debug_str:0000000000009d4c .LASF1499
C:\Users\CYMR90~1\AppData\Local\Temp\cc5BNH7j.s:32574  .debug_str:000000000002c748 .LASF1500
C:\Users\CYMR90~1\AppData\Local\Temp\cc5BNH7j.s:31806  .debug_str:00000000000296f7 .LASF1501
C:\Users\CYMR90~1\AppData\Local\Temp\cc5BNH7j.s:29568  .debug_str:00000000000207f4 .LASF1502
C:\Users\CYMR90~1\AppData\Local\Temp\cc5BNH7j.s:23087  .debug_str:00000000000064f8 .LASF1503
C:\Users\CYMR90~1\AppData\Local\Temp\cc5BNH7j.s:24617  .debug_str:000000000000ca85 .LASF1504
C:\Users\CYMR90~1\AppData\Local\Temp\cc5BNH7j.s:28944  .debug_str:000000000001e211 .LASF1505
C:\Users\CYMR90~1\AppData\Local\Temp\cc5BNH7j.s:28266  .debug_str:000000000001b6ca .LASF1506
C:\Users\CYMR90~1\AppData\Local\Temp\cc5BNH7j.s:24315  .debug_str:000000000000b5d3 .LASF1507
C:\Users\CYMR90~1\AppData\Local\Temp\cc5BNH7j.s:29770  .debug_str:0000000000021437 .LASF1508
C:\Users\CYMR90~1\AppData\Local\Temp\cc5BNH7j.s:25987  .debug_str:00000000000122aa .LASF1509
C:\Users\CYMR90~1\AppData\Local\Temp\cc5BNH7j.s:31548  .debug_str:0000000000028729 .LASF1510
C:\Users\CYMR90~1\AppData\Local\Temp\cc5BNH7j.s:30348  .debug_str:0000000000023712 .LASF1511
C:\Users\CYMR90~1\AppData\Local\Temp\cc5BNH7j.s:22347  .debug_str:0000000000003609 .LASF1512
C:\Users\CYMR90~1\AppData\Local\Temp\cc5BNH7j.s:26923  .debug_str:0000000000015daa .LASF1513
C:\Users\CYMR90~1\AppData\Local\Temp\cc5BNH7j.s:30756  .debug_str:00000000000252ae .LASF1514
C:\Users\CYMR90~1\AppData\Local\Temp\cc5BNH7j.s:29162  .debug_str:000000000001ef30 .LASF1515
C:\Users\CYMR90~1\AppData\Local\Temp\cc5BNH7j.s:32318  .debug_str:000000000002b5f9 .LASF1516
C:\Users\CYMR90~1\AppData\Local\Temp\cc5BNH7j.s:28994  .debug_str:000000000001e500 .LASF1517
C:\Users\CYMR90~1\AppData\Local\Temp\cc5BNH7j.s:30988  .debug_str:00000000000261d3 .LASF1518
C:\Users\CYMR90~1\AppData\Local\Temp\cc5BNH7j.s:25977  .debug_str:0000000000012239 .LASF1519
C:\Users\CYMR90~1\AppData\Local\Temp\cc5BNH7j.s:29384  .debug_str:000000000001fc78 .LASF1520
C:\Users\CYMR90~1\AppData\Local\Temp\cc5BNH7j.s:28444  .debug_str:000000000001c1c1 .LASF1521
C:\Users\CYMR90~1\AppData\Local\Temp\cc5BNH7j.s:29706  .debug_str:0000000000020fde .LASF1522
C:\Users\CYMR90~1\AppData\Local\Temp\cc5BNH7j.s:27728  .debug_str:00000000000192b6 .LASF1523
C:\Users\CYMR90~1\AppData\Local\Temp\cc5BNH7j.s:30350  .debug_str:0000000000023728 .LASF1524
C:\Users\CYMR90~1\AppData\Local\Temp\cc5BNH7j.s:22753  .debug_str:00000000000050d1 .LASF1525
C:\Users\CYMR90~1\AppData\Local\Temp\cc5BNH7j.s:28384  .debug_str:000000000001be07 .LASF1526
C:\Users\CYMR90~1\AppData\Local\Temp\cc5BNH7j.s:24529  .debug_str:000000000000c3e3 .LASF1527
C:\Users\CYMR90~1\AppData\Local\Temp\cc5BNH7j.s:30106  .debug_str:000000000002284c .LASF1528
C:\Users\CYMR90~1\AppData\Local\Temp\cc5BNH7j.s:31346  .debug_str:000000000002787c .LASF1529
C:\Users\CYMR90~1\AppData\Local\Temp\cc5BNH7j.s:30590  .debug_str:0000000000024695 .LASF1530
C:\Users\CYMR90~1\AppData\Local\Temp\cc5BNH7j.s:30656  .debug_str:0000000000024b44 .LASF1531
C:\Users\CYMR90~1\AppData\Local\Temp\cc5BNH7j.s:22499  .debug_str:0000000000003fd7 .LASF1532
C:\Users\CYMR90~1\AppData\Local\Temp\cc5BNH7j.s:27678  .debug_str:0000000000018ef3 .LASF1533
C:\Users\CYMR90~1\AppData\Local\Temp\cc5BNH7j.s:30476  .debug_str:0000000000023e59 .LASF1534
C:\Users\CYMR90~1\AppData\Local\Temp\cc5BNH7j.s:24599  .debug_str:000000000000c8c5 .LASF1535
C:\Users\CYMR90~1\AppData\Local\Temp\cc5BNH7j.s:30660  .debug_str:0000000000024bc4 .LASF1536
C:\Users\CYMR90~1\AppData\Local\Temp\cc5BNH7j.s:30014  .debug_str:00000000000222e9 .LASF1537
C:\Users\CYMR90~1\AppData\Local\Temp\cc5BNH7j.s:31222  .debug_str:000000000002706a .LASF1538
C:\Users\CYMR90~1\AppData\Local\Temp\cc5BNH7j.s:31118  .debug_str:00000000000269c0 .LASF1539
C:\Users\CYMR90~1\AppData\Local\Temp\cc5BNH7j.s:25857  .debug_str:0000000000011a12 .LASF1540
C:\Users\CYMR90~1\AppData\Local\Temp\cc5BNH7j.s:31832  .debug_str:000000000002987f .LASF1541
C:\Users\CYMR90~1\AppData\Local\Temp\cc5BNH7j.s:24847  .debug_str:000000000000d93d .LASF1542
C:\Users\CYMR90~1\AppData\Local\Temp\cc5BNH7j.s:22269  .debug_str:00000000000030d3 .LASF1543
C:\Users\CYMR90~1\AppData\Local\Temp\cc5BNH7j.s:25425  .debug_str:000000000000fd55 .LASF1544
C:\Users\CYMR90~1\AppData\Local\Temp\cc5BNH7j.s:23485  .debug_str:000000000000801b .LASF1545
C:\Users\CYMR90~1\AppData\Local\Temp\cc5BNH7j.s:23955  .debug_str:0000000000009dbf .LASF1546
C:\Users\CYMR90~1\AppData\Local\Temp\cc5BNH7j.s:24585  .debug_str:000000000000c7c6 .LASF1547
C:\Users\CYMR90~1\AppData\Local\Temp\cc5BNH7j.s:31424  .debug_str:0000000000027dea .LASF1548
C:\Users\CYMR90~1\AppData\Local\Temp\cc5BNH7j.s:30922  .debug_str:0000000000025d97 .LASF1549
C:\Users\CYMR90~1\AppData\Local\Temp\cc5BNH7j.s:28332  .debug_str:000000000001ba5a .LASF1550
C:\Users\CYMR90~1\AppData\Local\Temp\cc5BNH7j.s:25725  .debug_str:0000000000011075 .LASF1551
C:\Users\CYMR90~1\AppData\Local\Temp\cc5BNH7j.s:28302  .debug_str:000000000001b8ac .LASF1552
C:\Users\CYMR90~1\AppData\Local\Temp\cc5BNH7j.s:21735  .debug_str:0000000000001032 .LASF1553
C:\Users\CYMR90~1\AppData\Local\Temp\cc5BNH7j.s:22053  .debug_str:0000000000002331 .LASF1554
C:\Users\CYMR90~1\AppData\Local\Temp\cc5BNH7j.s:29030  .debug_str:000000000001e77e .LASF1555
C:\Users\CYMR90~1\AppData\Local\Temp\cc5BNH7j.s:27632  .debug_str:0000000000018c10 .LASF1556
C:\Users\CYMR90~1\AppData\Local\Temp\cc5BNH7j.s:25253  .debug_str:000000000000f271 .LASF1557
C:\Users\CYMR90~1\AppData\Local\Temp\cc5BNH7j.s:31918  .debug_str:0000000000029d63 .LASF1558
C:\Users\CYMR90~1\AppData\Local\Temp\cc5BNH7j.s:25571  .debug_str:00000000000106f9 .LASF1559
C:\Users\CYMR90~1\AppData\Local\Temp\cc5BNH7j.s:30360  .debug_str:00000000000237a1 .LASF1560
C:\Users\CYMR90~1\AppData\Local\Temp\cc5BNH7j.s:30784  .debug_str:0000000000025480 .LASF1561
C:\Users\CYMR90~1\AppData\Local\Temp\cc5BNH7j.s:25681  .debug_str:0000000000010e02 .LASF1562
C:\Users\CYMR90~1\AppData\Local\Temp\cc5BNH7j.s:25349  .debug_str:000000000000f890 .LASF1563
C:\Users\CYMR90~1\AppData\Local\Temp\cc5BNH7j.s:32416  .debug_str:000000000002bc67 .LASF1564
C:\Users\CYMR90~1\AppData\Local\Temp\cc5BNH7j.s:23113  .debug_str:0000000000006687 .LASF1565
C:\Users\CYMR90~1\AppData\Local\Temp\cc5BNH7j.s:28742  .debug_str:000000000001d57d .LASF1566
C:\Users\CYMR90~1\AppData\Local\Temp\cc5BNH7j.s:28024  .debug_str:000000000001a6c9 .LASF1567
C:\Users\CYMR90~1\AppData\Local\Temp\cc5BNH7j.s:29504  .debug_str:00000000000203a3 .LASF1568
C:\Users\CYMR90~1\AppData\Local\Temp\cc5BNH7j.s:25855  .debug_str:000000000001196b .LASF1569
C:\Users\CYMR90~1\AppData\Local\Temp\cc5BNH7j.s:30810  .debug_str:0000000000025656 .LASF1570
C:\Users\CYMR90~1\AppData\Local\Temp\cc5BNH7j.s:26251  .debug_str:0000000000013430 .LASF1571
C:\Users\CYMR90~1\AppData\Local\Temp\cc5BNH7j.s:22801  .debug_str:00000000000053c7 .LASF1572
C:\Users\CYMR90~1\AppData\Local\Temp\cc5BNH7j.s:26667  .debug_str:0000000000014de7 .LASF1573
C:\Users\CYMR90~1\AppData\Local\Temp\cc5BNH7j.s:31536  .debug_str:000000000002865f .LASF1574
C:\Users\CYMR90~1\AppData\Local\Temp\cc5BNH7j.s:27130  .debug_str:0000000000016d40 .LASF1575
C:\Users\CYMR90~1\AppData\Local\Temp\cc5BNH7j.s:25225  .debug_str:000000000000f080 .LASF1576
C:\Users\CYMR90~1\AppData\Local\Temp\cc5BNH7j.s:29034  .debug_str:000000000001e7c0 .LASF1577
C:\Users\CYMR90~1\AppData\Local\Temp\cc5BNH7j.s:32028  .debug_str:000000000002a411 .LASF1578
C:\Users\CYMR90~1\AppData\Local\Temp\cc5BNH7j.s:22063  .debug_str:00000000000023bc .LASF1579
C:\Users\CYMR90~1\AppData\Local\Temp\cc5BNH7j.s:28584  .debug_str:000000000001caf7 .LASF1580
C:\Users\CYMR90~1\AppData\Local\Temp\cc5BNH7j.s:24069  .debug_str:000000000000a519 .LASF1581
C:\Users\CYMR90~1\AppData\Local\Temp\cc5BNH7j.s:24767  .debug_str:000000000000d48b .LASF1582
C:\Users\CYMR90~1\AppData\Local\Temp\cc5BNH7j.s:23475  .debug_str:0000000000007eef .LASF1583
C:\Users\CYMR90~1\AppData\Local\Temp\cc5BNH7j.s:31224  .debug_str:0000000000027088 .LASF1584
C:\Users\CYMR90~1\AppData\Local\Temp\cc5BNH7j.s:25949  .debug_str:0000000000011fd4 .LASF1585
C:\Users\CYMR90~1\AppData\Local\Temp\cc5BNH7j.s:32628  .debug_str:000000000002ca6b .LASF1586
C:\Users\CYMR90~1\AppData\Local\Temp\cc5BNH7j.s:24741  .debug_str:000000000000d241 .LASF1587
C:\Users\CYMR90~1\AppData\Local\Temp\cc5BNH7j.s:23435  .debug_str:0000000000007bcc .LASF1588
C:\Users\CYMR90~1\AppData\Local\Temp\cc5BNH7j.s:27105  .debug_str:0000000000016991 .LASF1589
C:\Users\CYMR90~1\AppData\Local\Temp\cc5BNH7j.s:24283  .debug_str:000000000000b31a .LASF1590
C:\Users\CYMR90~1\AppData\Local\Temp\cc5BNH7j.s:27031  .debug_str:0000000000016437 .LASF1591
C:\Users\CYMR90~1\AppData\Local\Temp\cc5BNH7j.s:23675  .debug_str:0000000000008c30 .LASF1592
C:\Users\CYMR90~1\AppData\Local\Temp\cc5BNH7j.s:26243  .debug_str:000000000001334b .LASF1593
C:\Users\CYMR90~1\AppData\Local\Temp\cc5BNH7j.s:25563  .debug_str:00000000000105ca .LASF1594
C:\Users\CYMR90~1\AppData\Local\Temp\cc5BNH7j.s:31456  .debug_str:0000000000028049 .LASF1595
C:\Users\CYMR90~1\AppData\Local\Temp\cc5BNH7j.s:21701  .debug_str:0000000000000def .LASF1596
C:\Users\CYMR90~1\AppData\Local\Temp\cc5BNH7j.s:28612  .debug_str:000000000001ccbd .LASF1597
C:\Users\CYMR90~1\AppData\Local\Temp\cc5BNH7j.s:22611  .debug_str:000000000000479b .LASF1598
C:\Users\CYMR90~1\AppData\Local\Temp\cc5BNH7j.s:30732  .debug_str:000000000002508f .LASF1599
C:\Users\CYMR90~1\AppData\Local\Temp\cc5BNH7j.s:21845  .debug_str:000000000000169c .LASF1600
C:\Users\CYMR90~1\AppData\Local\Temp\cc5BNH7j.s:25313  .debug_str:000000000000f5c7 .LASF1601
C:\Users\CYMR90~1\AppData\Local\Temp\cc5BNH7j.s:29730  .debug_str:0000000000021145 .LASF1602
C:\Users\CYMR90~1\AppData\Local\Temp\cc5BNH7j.s:28638  .debug_str:000000000001cef8 .LASF1603
C:\Users\CYMR90~1\AppData\Local\Temp\cc5BNH7j.s:28530  .debug_str:000000000001c6d8 .LASF1604
C:\Users\CYMR90~1\AppData\Local\Temp\cc5BNH7j.s:30712  .debug_str:0000000000024ece .LASF1605
C:\Users\CYMR90~1\AppData\Local\Temp\cc5BNH7j.s:30632  .debug_str:00000000000249c1 .LASF1606
C:\Users\CYMR90~1\AppData\Local\Temp\cc5BNH7j.s:30584  .debug_str:0000000000024641 .LASF1607
C:\Users\CYMR90~1\AppData\Local\Temp\cc5BNH7j.s:27576  .debug_str:00000000000187e2 .LASF1608
C:\Users\CYMR90~1\AppData\Local\Temp\cc5BNH7j.s:22587  .debug_str:0000000000004608 .LASF1609
C:\Users\CYMR90~1\AppData\Local\Temp\cc5BNH7j.s:29942  .debug_str:0000000000021ec1 .LASF1610
C:\Users\CYMR90~1\AppData\Local\Temp\cc5BNH7j.s:32536  .debug_str:000000000002c48c .LASF1611
C:\Users\CYMR90~1\AppData\Local\Temp\cc5BNH7j.s:28480  .debug_str:000000000001c3b9 .LASF1612
C:\Users\CYMR90~1\AppData\Local\Temp\cc5BNH7j.s:26555  .debug_str:00000000000146ec .LASF1613
C:\Users\CYMR90~1\AppData\Local\Temp\cc5BNH7j.s:23941  .debug_str:0000000000009cf4 .LASF1614
C:\Users\CYMR90~1\AppData\Local\Temp\cc5BNH7j.s:28168  .debug_str:000000000001b09b .LASF1615
C:\Users\CYMR90~1\AppData\Local\Temp\cc5BNH7j.s:29828  .debug_str:000000000002179e .LASF1616
C:\Users\CYMR90~1\AppData\Local\Temp\cc5BNH7j.s:26641  .debug_str:0000000000014bee .LASF1617
C:\Users\CYMR90~1\AppData\Local\Temp\cc5BNH7j.s:28542  .debug_str:000000000001c84c .LASF1618
C:\Users\CYMR90~1\AppData\Local\Temp\cc5BNH7j.s:22635  .debug_str:00000000000049a4 .LASF1619
C:\Users\CYMR90~1\AppData\Local\Temp\cc5BNH7j.s:24319  .debug_str:000000000000b603 .LASF1620
C:\Users\CYMR90~1\AppData\Local\Temp\cc5BNH7j.s:25145  .debug_str:000000000000ebef .LASF1621
C:\Users\CYMR90~1\AppData\Local\Temp\cc5BNH7j.s:22211  .debug_str:0000000000002d32 .LASF1622
C:\Users\CYMR90~1\AppData\Local\Temp\cc5BNH7j.s:29534  .debug_str:00000000000205b0 .LASF1623
C:\Users\CYMR90~1\AppData\Local\Temp\cc5BNH7j.s:26245  .debug_str:00000000000133e6 .LASF1624
C:\Users\CYMR90~1\AppData\Local\Temp\cc5BNH7j.s:24413  .debug_str:000000000000bca3 .LASF1625
C:\Users\CYMR90~1\AppData\Local\Temp\cc5BNH7j.s:30228  .debug_str:0000000000022f68 .LASF1626
C:\Users\CYMR90~1\AppData\Local\Temp\cc5BNH7j.s:23109  .debug_str:0000000000006659 .LASF1627
C:\Users\CYMR90~1\AppData\Local\Temp\cc5BNH7j.s:29278  .debug_str:000000000001f5f5 .LASF1628
C:\Users\CYMR90~1\AppData\Local\Temp\cc5BNH7j.s:24179  .debug_str:000000000000ac00 .LASF1629
C:\Users\CYMR90~1\AppData\Local\Temp\cc5BNH7j.s:30024  .debug_str:0000000000022355 .LASF1630
C:\Users\CYMR90~1\AppData\Local\Temp\cc5BNH7j.s:23657  .debug_str:0000000000008b49 .LASF1631
C:\Users\CYMR90~1\AppData\Local\Temp\cc5BNH7j.s:21801  .debug_str:000000000000142a .LASF1632
C:\Users\CYMR90~1\AppData\Local\Temp\cc5BNH7j.s:28278  .debug_str:000000000001b7b1 .LASF1633
C:\Users\CYMR90~1\AppData\Local\Temp\cc5BNH7j.s:27270  .debug_str:0000000000017571 .LASF1634
C:\Users\CYMR90~1\AppData\Local\Temp\cc5BNH7j.s:24395  .debug_str:000000000000bb3c .LASF1635
C:\Users\CYMR90~1\AppData\Local\Temp\cc5BNH7j.s:24501  .debug_str:000000000000c23b .LASF1636
C:\Users\CYMR90~1\AppData\Local\Temp\cc5BNH7j.s:28140  .debug_str:000000000001aee5 .LASF1637
C:\Users\CYMR90~1\AppData\Local\Temp\cc5BNH7j.s:24569  .debug_str:000000000000c6b3 .LASF1638
C:\Users\CYMR90~1\AppData\Local\Temp\cc5BNH7j.s:24293  .debug_str:000000000000b43f .LASF1639
C:\Users\CYMR90~1\AppData\Local\Temp\cc5BNH7j.s:27480  .debug_str:000000000001822b .LASF1640
C:\Users\CYMR90~1\AppData\Local\Temp\cc5BNH7j.s:25521  .debug_str:0000000000010349 .LASF1641
C:\Users\CYMR90~1\AppData\Local\Temp\cc5BNH7j.s:30576  .debug_str:00000000000245cb .LASF1642
C:\Users\CYMR90~1\AppData\Local\Temp\cc5BNH7j.s:25865  .debug_str:0000000000011ab3 .LASF1643
C:\Users\CYMR90~1\AppData\Local\Temp\cc5BNH7j.s:29420  .debug_str:000000000001fe9d .LASF1644
C:\Users\CYMR90~1\AppData\Local\Temp\cc5BNH7j.s:32504  .debug_str:000000000002c2ed .LASF1645
C:\Users\CYMR90~1\AppData\Local\Temp\cc5BNH7j.s:22201  .debug_str:0000000000002ca2 .LASF1646
C:\Users\CYMR90~1\AppData\Local\Temp\cc5BNH7j.s:27067  .debug_str:00000000000166e7 .LASF1647
C:\Users\CYMR90~1\AppData\Local\Temp\cc5BNH7j.s:27178  .debug_str:000000000001702b .LASF1648
C:\Users\CYMR90~1\AppData\Local\Temp\cc5BNH7j.s:22003  .debug_str:000000000000205c .LASF1649
C:\Users\CYMR90~1\AppData\Local\Temp\cc5BNH7j.s:23501  .debug_str:0000000000008152 .LASF1650
C:\Users\CYMR90~1\AppData\Local\Temp\cc5BNH7j.s:30248  .debug_str:00000000000230b8 .LASF1651
C:\Users\CYMR90~1\AppData\Local\Temp\cc5BNH7j.s:25617  .debug_str:000000000001096d .LASF1652
C:\Users\CYMR90~1\AppData\Local\Temp\cc5BNH7j.s:23393  .debug_str:0000000000007901 .LASF1653
C:\Users\CYMR90~1\AppData\Local\Temp\cc5BNH7j.s:21741  .debug_str:00000000000010a3 .LASF1654
C:\Users\CYMR90~1\AppData\Local\Temp\cc5BNH7j.s:27372  .debug_str:0000000000017bcc .LASF1657
C:\Users\CYMR90~1\AppData\Local\Temp\cc5BNH7j.s:32080  .debug_str:000000000002a74c .LASF1658
C:\Users\CYMR90~1\AppData\Local\Temp\cc5BNH7j.s:25649  .debug_str:0000000000010c7a .LASF1659
C:\Users\CYMR90~1\AppData\Local\Temp\cc5BNH7j.s:27702  .debug_str:0000000000019152 .LASF1660
C:\Users\CYMR90~1\AppData\Local\Temp\cc5BNH7j.s:32314  .debug_str:000000000002b5ba .LASF1661
C:\Users\CYMR90~1\AppData\Local\Temp\cc5BNH7j.s:32348  .debug_str:000000000002b810 .LASF1662
C:\Users\CYMR90~1\AppData\Local\Temp\cc5BNH7j.s:29618  .debug_str:0000000000020b11 .LASF1663
C:\Users\CYMR90~1\AppData\Local\Temp\cc5BNH7j.s:26605  .debug_str:0000000000014990 .LASF1664
C:\Users\CYMR90~1\AppData\Local\Temp\cc5BNH7j.s:28790  .debug_str:000000000001d8c6 .LASF1665
C:\Users\CYMR90~1\AppData\Local\Temp\cc5BNH7j.s:29708  .debug_str:0000000000020ff9 .LASF1666
C:\Users\CYMR90~1\AppData\Local\Temp\cc5BNH7j.s:25355  .debug_str:000000000000f8cc .LASF1667
C:\Users\CYMR90~1\AppData\Local\Temp\cc5BNH7j.s:25053  .debug_str:000000000000e62d .LASF1668
C:\Users\CYMR90~1\AppData\Local\Temp\cc5BNH7j.s:22431  .debug_str:0000000000003b77 .LASF1669
C:\Users\CYMR90~1\AppData\Local\Temp\cc5BNH7j.s:23695  .debug_str:0000000000008dce .LASF1670
C:\Users\CYMR90~1\AppData\Local\Temp\cc5BNH7j.s:22649  .debug_str:0000000000004a82 .LASF1671
C:\Users\CYMR90~1\AppData\Local\Temp\cc5BNH7j.s:21551  .debug_str:00000000000004be .LASF1672
C:\Users\CYMR90~1\AppData\Local\Temp\cc5BNH7j.s:26533  .debug_str:0000000000014541 .LASF1673
C:\Users\CYMR90~1\AppData\Local\Temp\cc5BNH7j.s:25937  .debug_str:0000000000011edd .LASF1674
C:\Users\CYMR90~1\AppData\Local\Temp\cc5BNH7j.s:25095  .debug_str:000000000000e8c8 .LASF1675
C:\Users\CYMR90~1\AppData\Local\Temp\cc5BNH7j.s:30596  .debug_str:000000000002479d .LASF1676
C:\Users\CYMR90~1\AppData\Local\Temp\cc5BNH7j.s:26067  .debug_str:00000000000127ac .LASF1677
C:\Users\CYMR90~1\AppData\Local\Temp\cc5BNH7j.s:32506  .debug_str:000000000002c302 .LASF1678
C:\Users\CYMR90~1\AppData\Local\Temp\cc5BNH7j.s:22111  .debug_str:00000000000026be .LASF1679
C:\Users\CYMR90~1\AppData\Local\Temp\cc5BNH7j.s:25599  .debug_str:0000000000010894 .LASF1680
C:\Users\CYMR90~1\AppData\Local\Temp\cc5BNH7j.s:26769  .debug_str:000000000001540f .LASF1681
C:\Users\CYMR90~1\AppData\Local\Temp\cc5BNH7j.s:25445  .debug_str:000000000000feba .LASF1682
C:\Users\CYMR90~1\AppData\Local\Temp\cc5BNH7j.s:28124  .debug_str:000000000001ad68 .LASF1683
C:\Users\CYMR90~1\AppData\Local\Temp\cc5BNH7j.s:30194  .debug_str:0000000000022db3 .LASF1684
C:\Users\CYMR90~1\AppData\Local\Temp\cc5BNH7j.s:31110  .debug_str:0000000000026965 .LASF1685
C:\Users\CYMR90~1\AppData\Local\Temp\cc5BNH7j.s:25597  .debug_str:000000000001087c .LASF1686
C:\Users\CYMR90~1\AppData\Local\Temp\cc5BNH7j.s:29516  .debug_str:00000000000204a1 .LASF1687
C:\Users\CYMR90~1\AppData\Local\Temp\cc5BNH7j.s:31822  .debug_str:00000000000297d4 .LASF1688
C:\Users\CYMR90~1\AppData\Local\Temp\cc5BNH7j.s:30376  .debug_str:00000000000238ab .LASF1689
C:\Users\CYMR90~1\AppData\Local\Temp\cc5BNH7j.s:28240  .debug_str:000000000001b517 .LASF1690
C:\Users\CYMR90~1\AppData\Local\Temp\cc5BNH7j.s:26331  .debug_str:0000000000013933 .LASF1691
C:\Users\CYMR90~1\AppData\Local\Temp\cc5BNH7j.s:29924  .debug_str:0000000000021dbd .LASF1692
C:\Users\CYMR90~1\AppData\Local\Temp\cc5BNH7j.s:27564  .debug_str:0000000000018729 .LASF1693
C:\Users\CYMR90~1\AppData\Local\Temp\cc5BNH7j.s:23495  .debug_str:00000000000080de .LASF1694
C:\Users\CYMR90~1\AppData\Local\Temp\cc5BNH7j.s:25517  .debug_str:00000000000102fd .LASF1695
C:\Users\CYMR90~1\AppData\Local\Temp\cc5BNH7j.s:27342  .debug_str:0000000000017a19 .LASF1696
C:\Users\CYMR90~1\AppData\Local\Temp\cc5BNH7j.s:26649  .debug_str:0000000000014c81 .LASF1697
C:\Users\CYMR90~1\AppData\Local\Temp\cc5BNH7j.s:29176  .debug_str:000000000001efe9 .LASF1698
C:\Users\CYMR90~1\AppData\Local\Temp\cc5BNH7j.s:27738  .debug_str:000000000001937d .LASF1699
C:\Users\CYMR90~1\AppData\Local\Temp\cc5BNH7j.s:29628  .debug_str:0000000000020bac .LASF1700
C:\Users\CYMR90~1\AppData\Local\Temp\cc5BNH7j.s:29172  .debug_str:000000000001efac .LASF1701
C:\Users\CYMR90~1\AppData\Local\Temp\cc5BNH7j.s:30420  .debug_str:0000000000023b17 .LASF1702
C:\Users\CYMR90~1\AppData\Local\Temp\cc5BNH7j.s:30382  .debug_str:00000000000238fa .LASF1703
C:\Users\CYMR90~1\AppData\Local\Temp\cc5BNH7j.s:29914  .debug_str:0000000000021d27 .LASF1704
C:\Users\CYMR90~1\AppData\Local\Temp\cc5BNH7j.s:28364  .debug_str:000000000001bc9c .LASF1705
C:\Users\CYMR90~1\AppData\Local\Temp\cc5BNH7j.s:29772  .debug_str:000000000002144b .LASF1706
C:\Users\CYMR90~1\AppData\Local\Temp\cc5BNH7j.s:27252  .debug_str:0000000000017436 .LASF1707
C:\Users\CYMR90~1\AppData\Local\Temp\cc5BNH7j.s:26247  .debug_str:00000000000133f9 .LASF1708
C:\Users\CYMR90~1\AppData\Local\Temp\cc5BNH7j.s:28924  .debug_str:000000000001e0f9 .LASF1709
C:\Users\CYMR90~1\AppData\Local\Temp\cc5BNH7j.s:27482  .debug_str:0000000000018240 .LASF1710
C:\Users\CYMR90~1\AppData\Local\Temp\cc5BNH7j.s:24397  .debug_str:000000000000bb51 .LASF1711
C:\Users\CYMR90~1\AppData\Local\Temp\cc5BNH7j.s:25885  .debug_str:0000000000011bc6 .LASF1712
C:\Users\CYMR90~1\AppData\Local\Temp\cc5BNH7j.s:23041  .debug_str:000000000000624e .LASF1713
C:\Users\CYMR90~1\AppData\Local\Temp\cc5BNH7j.s:25361  .debug_str:000000000000f929 .LASF1714
C:\Users\CYMR90~1\AppData\Local\Temp\cc5BNH7j.s:22323  .debug_str:0000000000003484 .LASF1715
C:\Users\CYMR90~1\AppData\Local\Temp\cc5BNH7j.s:25595  .debug_str:0000000000010850 .LASF1716
C:\Users\CYMR90~1\AppData\Local\Temp\cc5BNH7j.s:28894  .debug_str:000000000001df03 .LASF1717
C:\Users\CYMR90~1\AppData\Local\Temp\cc5BNH7j.s:27444  .debug_str:0000000000018005 .LASF1718
C:\Users\CYMR90~1\AppData\Local\Temp\cc5BNH7j.s:25829  .debug_str:0000000000011734 .LASF1719
C:\Users\CYMR90~1\AppData\Local\Temp\cc5BNH7j.s:27802  .debug_str:000000000001977c .LASF1720
C:\Users\CYMR90~1\AppData\Local\Temp\cc5BNH7j.s:26323  .debug_str:00000000000138b0 .LASF1721
C:\Users\CYMR90~1\AppData\Local\Temp\cc5BNH7j.s:22039  .debug_str:0000000000002278 .LASF1722
C:\Users\CYMR90~1\AppData\Local\Temp\cc5BNH7j.s:28132  .debug_str:000000000001ae02 .LASF1723
C:\Users\CYMR90~1\AppData\Local\Temp\cc5BNH7j.s:22103  .debug_str:0000000000002648 .LASF1724
C:\Users\CYMR90~1\AppData\Local\Temp\cc5BNH7j.s:26837  .debug_str:00000000000157c4 .LASF1725
C:\Users\CYMR90~1\AppData\Local\Temp\cc5BNH7j.s:31622  .debug_str:0000000000028b74 .LASF1726
C:\Users\CYMR90~1\AppData\Local\Temp\cc5BNH7j.s:22935  .debug_str:0000000000005bd7 .LASF1727
C:\Users\CYMR90~1\AppData\Local\Temp\cc5BNH7j.s:31268  .debug_str:00000000000273af .LASF1728
C:\Users\CYMR90~1\AppData\Local\Temp\cc5BNH7j.s:28582  .debug_str:000000000001cac0 .LASF1729
C:\Users\CYMR90~1\AppData\Local\Temp\cc5BNH7j.s:32420  .debug_str:000000000002bd26 .LASF1730
C:\Users\CYMR90~1\AppData\Local\Temp\cc5BNH7j.s:31098  .debug_str:00000000000268b3 .LASF1731
C:\Users\CYMR90~1\AppData\Local\Temp\cc5BNH7j.s:25767  .debug_str:0000000000011338 .LASF1732
C:\Users\CYMR90~1\AppData\Local\Temp\cc5BNH7j.s:23803  .debug_str:00000000000093ed .LASF1733
C:\Users\CYMR90~1\AppData\Local\Temp\cc5BNH7j.s:21803  .debug_str:000000000000143d .LASF1734
C:\Users\CYMR90~1\AppData\Local\Temp\cc5BNH7j.s:27210  .debug_str:00000000000171e0 .LASF1735
C:\Users\CYMR90~1\AppData\Local\Temp\cc5BNH7j.s:29346  .debug_str:000000000001fa2a .LASF1736
C:\Users\CYMR90~1\AppData\Local\Temp\cc5BNH7j.s:23795  .debug_str:0000000000009377 .LASF1737
C:\Users\CYMR90~1\AppData\Local\Temp\cc5BNH7j.s:23515  .debug_str:000000000000822e .LASF1738
C:\Users\CYMR90~1\AppData\Local\Temp\cc5BNH7j.s:31106  .debug_str:0000000000026936 .LASF1739
C:\Users\CYMR90~1\AppData\Local\Temp\cc5BNH7j.s:25119  .debug_str:000000000000ea62 .LASF1740
C:\Users\CYMR90~1\AppData\Local\Temp\cc5BNH7j.s:24133  .debug_str:000000000000a908 .LASF1741
C:\Users\CYMR90~1\AppData\Local\Temp\cc5BNH7j.s:29196  .debug_str:000000000001f10a .LASF1742
C:\Users\CYMR90~1\AppData\Local\Temp\cc5BNH7j.s:24619  .debug_str:000000000000ca9c .LASF1743
C:\Users\CYMR90~1\AppData\Local\Temp\cc5BNH7j.s:31380  .debug_str:0000000000027af5 .LASF1744
C:\Users\CYMR90~1\AppData\Local\Temp\cc5BNH7j.s:23519  .debug_str:0000000000008278 .LASF1745
C:\Users\CYMR90~1\AppData\Local\Temp\cc5BNH7j.s:25417  .debug_str:000000000000fccc .LASF1746
C:\Users\CYMR90~1\AppData\Local\Temp\cc5BNH7j.s:30424  .debug_str:0000000000023b5d .LASF1747
C:\Users\CYMR90~1\AppData\Local\Temp\cc5BNH7j.s:30032  .debug_str:00000000000223db .LASF1748
C:\Users\CYMR90~1\AppData\Local\Temp\cc5BNH7j.s:25593  .debug_str:000000000001082d .LASF1749
C:\Users\CYMR90~1\AppData\Local\Temp\cc5BNH7j.s:24289  .debug_str:000000000000b3f6 .LASF1750
C:\Users\CYMR90~1\AppData\Local\Temp\cc5BNH7j.s:27378  .debug_str:0000000000017c22 .LASF1751
C:\Users\CYMR90~1\AppData\Local\Temp\cc5BNH7j.s:22683  .debug_str:0000000000004c99 .LASF1752
C:\Users\CYMR90~1\AppData\Local\Temp\cc5BNH7j.s:28110  .debug_str:000000000001ac90 .LASF1753
C:\Users\CYMR90~1\AppData\Local\Temp\cc5BNH7j.s:28008  .debug_str:000000000001a5a5 .LASF1754
C:\Users\CYMR90~1\AppData\Local\Temp\cc5BNH7j.s:24559  .debug_str:000000000000c5b2 .LASF1755
C:\Users\CYMR90~1\AppData\Local\Temp\cc5BNH7j.s:26135  .debug_str:0000000000012c3f .LASF1756
C:\Users\CYMR90~1\AppData\Local\Temp\cc5BNH7j.s:28198  .debug_str:000000000001b2b2 .LASF1757
C:\Users\CYMR90~1\AppData\Local\Temp\cc5BNH7j.s:25213  .debug_str:000000000000ef9a .LASF1758
C:\Users\CYMR90~1\AppData\Local\Temp\cc5BNH7j.s:23337  .debug_str:0000000000007563 .LASF1759
C:\Users\CYMR90~1\AppData\Local\Temp\cc5BNH7j.s:27952  .debug_str:000000000001a0df .LASF1760
C:\Users\CYMR90~1\AppData\Local\Temp\cc5BNH7j.s:23623  .debug_str:000000000000892a .LASF1761
C:\Users\CYMR90~1\AppData\Local\Temp\cc5BNH7j.s:21867  .debug_str:00000000000018a6 .LASF1762
C:\Users\CYMR90~1\AppData\Local\Temp\cc5BNH7j.s:30612  .debug_str:000000000002486c .LASF1763
C:\Users\CYMR90~1\AppData\Local\Temp\cc5BNH7j.s:23365  .debug_str:000000000000773e .LASF1764
C:\Users\CYMR90~1\AppData\Local\Temp\cc5BNH7j.s:23055  .debug_str:0000000000006347 .LASF1765
C:\Users\CYMR90~1\AppData\Local\Temp\cc5BNH7j.s:21847  .debug_str:0000000000001752 .LASF1766
C:\Users\CYMR90~1\AppData\Local\Temp\cc5BNH7j.s:28308  .debug_str:000000000001b905 .LASF1767
C:\Users\CYMR90~1\AppData\Local\Temp\cc5BNH7j.s:21907  .debug_str:0000000000001af4 .LASF1768
C:\Users\CYMR90~1\AppData\Local\Temp\cc5BNH7j.s:30812  .debug_str:00000000000256e4 .LASF1769
C:\Users\CYMR90~1\AppData\Local\Temp\cc5BNH7j.s:32490  .debug_str:000000000002c1fc .LASF1770
C:\Users\CYMR90~1\AppData\Local\Temp\cc5BNH7j.s:24451  .debug_str:000000000000bef1 .LASF1771
C:\Users\CYMR90~1\AppData\Local\Temp\cc5BNH7j.s:24041  .debug_str:000000000000a359 .LASF1772
C:\Users\CYMR90~1\AppData\Local\Temp\cc5BNH7j.s:21583  .debug_str:000000000000069c .LASF1773
C:\Users\CYMR90~1\AppData\Local\Temp\cc5BNH7j.s:21631  .debug_str:0000000000000984 .LASF1774
C:\Users\CYMR90~1\AppData\Local\Temp\cc5BNH7j.s:31526  .debug_str:00000000000285a0 .LASF1775
C:\Users\CYMR90~1\AppData\Local\Temp\cc5BNH7j.s:26547  .debug_str:0000000000014658 .LASF1776
C:\Users\CYMR90~1\AppData\Local\Temp\cc5BNH7j.s:25295  .debug_str:000000000000f4c5 .LASF1777
C:\Users\CYMR90~1\AppData\Local\Temp\cc5BNH7j.s:27368  .debug_str:0000000000017b9b .LASF1778
C:\Users\CYMR90~1\AppData\Local\Temp\cc5BNH7j.s:22777  .debug_str:0000000000005248 .LASF1779
C:\Users\CYMR90~1\AppData\Local\Temp\cc5BNH7j.s:30850  .debug_str:0000000000025953 .LASF1780
C:\Users\CYMR90~1\AppData\Local\Temp\cc5BNH7j.s:30064  .debug_str:00000000000225e6 .LASF1781
C:\Users\CYMR90~1\AppData\Local\Temp\cc5BNH7j.s:28592  .debug_str:000000000001cb69 .LASF1784
C:\Users\CYMR90~1\AppData\Local\Temp\cc5BNH7j.s:27748  .debug_str:0000000000019418 .LASF1785
C:\Users\CYMR90~1\AppData\Local\Temp\cc5BNH7j.s:27598  .debug_str:000000000001894d .LASF1786
C:\Users\CYMR90~1\AppData\Local\Temp\cc5BNH7j.s:26591  .debug_str:00000000000148e0 .LASF1787
C:\Users\CYMR90~1\AppData\Local\Temp\cc5BNH7j.s:31954  .debug_str:0000000000029f81 .LASF1788
C:\Users\CYMR90~1\AppData\Local\Temp\cc5BNH7j.s:32264  .debug_str:000000000002b28f .LASF1789
C:\Users\CYMR90~1\AppData\Local\Temp\cc5BNH7j.s:22367  .debug_str:0000000000003788 .LASF1790
C:\Users\CYMR90~1\AppData\Local\Temp\cc5BNH7j.s:21501  .debug_str:00000000000001e0 .LASF1791
C:\Users\CYMR90~1\AppData\Local\Temp\cc5BNH7j.s:31190  .debug_str:0000000000026e62 .LASF1792
C:\Users\CYMR90~1\AppData\Local\Temp\cc5BNH7j.s:30278  .debug_str:0000000000023259 .LASF1793
C:\Users\CYMR90~1\AppData\Local\Temp\cc5BNH7j.s:32146  .debug_str:000000000002aaf5 .LASF1794
C:\Users\CYMR90~1\AppData\Local\Temp\cc5BNH7j.s:31460  .debug_str:000000000002811a .LASF1795
C:\Users\CYMR90~1\AppData\Local\Temp\cc5BNH7j.s:26259  .debug_str:00000000000134c3 .LASF1796
C:\Users\CYMR90~1\AppData\Local\Temp\cc5BNH7j.s:26537  .debug_str:0000000000014583 .LASF1797
C:\Users\CYMR90~1\AppData\Local\Temp\cc5BNH7j.s:25653  .debug_str:0000000000010c97 .LASF1798
C:\Users\CYMR90~1\AppData\Local\Temp\cc5BNH7j.s:24477  .debug_str:000000000000c0bd .LASF1799
C:\Users\CYMR90~1\AppData\Local\Temp\cc5BNH7j.s:27286  .debug_str:0000000000017670 .LASF1800
C:\Users\CYMR90~1\AppData\Local\Temp\cc5BNH7j.s:27590  .debug_str:00000000000188dc .LASF1801
C:\Users\CYMR90~1\AppData\Local\Temp\cc5BNH7j.s:26671  .debug_str:0000000000014e21 .LASF1802
C:\Users\CYMR90~1\AppData\Local\Temp\cc5BNH7j.s:25711  .debug_str:0000000000010fa9 .LASF1803
C:\Users\CYMR90~1\AppData\Local\Temp\cc5BNH7j.s:25191  .debug_str:000000000000ee64 .LASF1804
C:\Users\CYMR90~1\AppData\Local\Temp\cc5BNH7j.s:29860  .debug_str:00000000000219bc .LASF1805
C:\Users\CYMR90~1\AppData\Local\Temp\cc5BNH7j.s:26557  .debug_str:0000000000014710 .LASF1806
C:\Users\CYMR90~1\AppData\Local\Temp\cc5BNH7j.s:29462  .debug_str:00000000000200cd .LASF1807
C:\Users\CYMR90~1\AppData\Local\Temp\cc5BNH7j.s:26695  .debug_str:0000000000014fb7 .LASF1808
C:\Users\CYMR90~1\AppData\Local\Temp\cc5BNH7j.s:31452  .debug_str:0000000000028008 .LASF1809
C:\Users\CYMR90~1\AppData\Local\Temp\cc5BNH7j.s:28686  .debug_str:000000000001d231 .LASF1810
C:\Users\CYMR90~1\AppData\Local\Temp\cc5BNH7j.s:27384  .debug_str:0000000000017c97 .LASF1811
C:\Users\CYMR90~1\AppData\Local\Temp\cc5BNH7j.s:21825  .debug_str:000000000000157b .LASF1812
C:\Users\CYMR90~1\AppData\Local\Temp\cc5BNH7j.s:25605  .debug_str:00000000000108da .LASF1813
C:\Users\CYMR90~1\AppData\Local\Temp\cc5BNH7j.s:25869  .debug_str:0000000000011ae5 .LASF1814
C:\Users\CYMR90~1\AppData\Local\Temp\cc5BNH7j.s:28668  .debug_str:000000000001d15e .LASF1815
C:\Users\CYMR90~1\AppData\Local\Temp\cc5BNH7j.s:27348  .debug_str:0000000000017a8b .LASF1816
C:\Users\CYMR90~1\AppData\Local\Temp\cc5BNH7j.s:28676  .debug_str:000000000001d1b7 .LASF1817
C:\Users\CYMR90~1\AppData\Local\Temp\cc5BNH7j.s:29120  .debug_str:000000000001ec60 .LASF1818
C:\Users\CYMR90~1\AppData\Local\Temp\cc5BNH7j.s:25413  .debug_str:000000000000fc94 .LASF1819
C:\Users\CYMR90~1\AppData\Local\Temp\cc5BNH7j.s:29598  .debug_str:00000000000209c6 .LASF1820
C:\Users\CYMR90~1\AppData\Local\Temp\cc5BNH7j.s:23081  .debug_str:00000000000064b9 .LASF1821
C:\Users\CYMR90~1\AppData\Local\Temp\cc5BNH7j.s:23455  .debug_str:0000000000007dad .LASF1822
C:\Users\CYMR90~1\AppData\Local\Temp\cc5BNH7j.s:29052  .debug_str:000000000001e8de .LASF1823
C:\Users\CYMR90~1\AppData\Local\Temp\cc5BNH7j.s:31732  .debug_str:0000000000029243 .LASF1824
C:\Users\CYMR90~1\AppData\Local\Temp\cc5BNH7j.s:24353  .debug_str:000000000000b877 .LASF1825
C:\Users\CYMR90~1\AppData\Local\Temp\cc5BNH7j.s:29696  .debug_str:0000000000020f47 .LASF1826
C:\Users\CYMR90~1\AppData\Local\Temp\cc5BNH7j.s:25351  .debug_str:000000000000f8aa .LASF1827
C:\Users\CYMR90~1\AppData\Local\Temp\cc5BNH7j.s:25163  .debug_str:000000000000ece1 .LASF1828
C:\Users\CYMR90~1\AppData\Local\Temp\cc5BNH7j.s:25233  .debug_str:000000000000f10f .LASF1829
C:\Users\CYMR90~1\AppData\Local\Temp\cc5BNH7j.s:26015  .debug_str:0000000000012461 .LASF1830
C:\Users\CYMR90~1\AppData\Local\Temp\cc5BNH7j.s:23823  .debug_str:0000000000009584 .LASF1831
C:\Users\CYMR90~1\AppData\Local\Temp\cc5BNH7j.s:31134  .debug_str:0000000000026acc .LASF1832
C:\Users\CYMR90~1\AppData\Local\Temp\cc5BNH7j.s:24615  .debug_str:000000000000ca6a .LASF1833
C:\Users\CYMR90~1\AppData\Local\Temp\cc5BNH7j.s:23281  .debug_str:00000000000071f7 .LASF1834
C:\Users\CYMR90~1\AppData\Local\Temp\cc5BNH7j.s:26985  .debug_str:00000000000161b0 .LASF1835
C:\Users\CYMR90~1\AppData\Local\Temp\cc5BNH7j.s:31002  .debug_str:00000000000262a2 .LASF1836
C:\Users\CYMR90~1\AppData\Local\Temp\cc5BNH7j.s:26955  .debug_str:0000000000015ff0 .LASF1837
C:\Users\CYMR90~1\AppData\Local\Temp\cc5BNH7j.s:27676  .debug_str:0000000000018edb .LASF1838
C:\Users\CYMR90~1\AppData\Local\Temp\cc5BNH7j.s:25657  .debug_str:0000000000010ccf .LASF1839
C:\Users\CYMR90~1\AppData\Local\Temp\cc5BNH7j.s:28624  .debug_str:000000000001ce0e .LASF1840
C:\Users\CYMR90~1\AppData\Local\Temp\cc5BNH7j.s:27914  .debug_str:0000000000019eb6 .LASF1841
C:\Users\CYMR90~1\AppData\Local\Temp\cc5BNH7j.s:30694  .debug_str:0000000000024de0 .LASF1842
C:\Users\CYMR90~1\AppData\Local\Temp\cc5BNH7j.s:31088  .debug_str:0000000000026812 .LASF1843
C:\Users\CYMR90~1\AppData\Local\Temp\cc5BNH7j.s:32282  .debug_str:000000000002b3df .LASF1844
C:\Users\CYMR90~1\AppData\Local\Temp\cc5BNH7j.s:32140  .debug_str:000000000002aaa2 .LASF1845
C:\Users\CYMR90~1\AppData\Local\Temp\cc5BNH7j.s:23555  .debug_str:00000000000084e1 .LASF1846
C:\Users\CYMR90~1\AppData\Local\Temp\cc5BNH7j.s:28826  .debug_str:000000000001dac9 .LASF1847
C:\Users\CYMR90~1\AppData\Local\Temp\cc5BNH7j.s:29968  .debug_str:0000000000022054 .LASF1848
C:\Users\CYMR90~1\AppData\Local\Temp\cc5BNH7j.s:29984  .debug_str:000000000002214f .LASF1849
C:\Users\CYMR90~1\AppData\Local\Temp\cc5BNH7j.s:29206  .debug_str:000000000001f1a8 .LASF1850
C:\Users\CYMR90~1\AppData\Local\Temp\cc5BNH7j.s:23615  .debug_str:00000000000088a7 .LASF1851
C:\Users\CYMR90~1\AppData\Local\Temp\cc5BNH7j.s:31042  .debug_str:0000000000026531 .LASF1852
C:\Users\CYMR90~1\AppData\Local\Temp\cc5BNH7j.s:24849  .debug_str:000000000000d95a .LASF1853
C:\Users\CYMR90~1\AppData\Local\Temp\cc5BNH7j.s:22275  .debug_str:0000000000003167 .LASF1854
C:\Users\CYMR90~1\AppData\Local\Temp\cc5BNH7j.s:28706  .debug_str:000000000001d376 .LASF1855
C:\Users\CYMR90~1\AppData\Local\Temp\cc5BNH7j.s:31306  .debug_str:00000000000275d7 .LASF1856
C:\Users\CYMR90~1\AppData\Local\Temp\cc5BNH7j.s:23701  .debug_str:0000000000008e39 .LASF1857
C:\Users\CYMR90~1\AppData\Local\Temp\cc5BNH7j.s:24541  .debug_str:000000000000c4b9 .LASF1858
C:\Users\CYMR90~1\AppData\Local\Temp\cc5BNH7j.s:31400  .debug_str:0000000000027c58 .LASF1859
C:\Users\CYMR90~1\AppData\Local\Temp\cc5BNH7j.s:26701  .debug_str:0000000000015018 .LASF1860
C:\Users\CYMR90~1\AppData\Local\Temp\cc5BNH7j.s:27620  .debug_str:0000000000018b41 .LASF1861
C:\Users\CYMR90~1\AppData\Local\Temp\cc5BNH7j.s:25463  .debug_str:000000000000ffb2 .LASF1862
C:\Users\CYMR90~1\AppData\Local\Temp\cc5BNH7j.s:23233  .debug_str:0000000000006e5a .LASF1863
C:\Users\CYMR90~1\AppData\Local\Temp\cc5BNH7j.s:27532  .debug_str:0000000000018532 .LASF1864
C:\Users\CYMR90~1\AppData\Local\Temp\cc5BNH7j.s:22883  .debug_str:0000000000005898 .LASF1865
C:\Users\CYMR90~1\AppData\Local\Temp\cc5BNH7j.s:30164  .debug_str:0000000000022bfc .LASF1866
C:\Users\CYMR90~1\AppData\Local\Temp\cc5BNH7j.s:29390  .debug_str:000000000001fcde .LASF1867
C:\Users\CYMR90~1\AppData\Local\Temp\cc5BNH7j.s:24475  .debug_str:000000000000c08d .LASF1868
C:\Users\CYMR90~1\AppData\Local\Temp\cc5BNH7j.s:21611  .debug_str:0000000000000856 .LASF1869
C:\Users\CYMR90~1\AppData\Local\Temp\cc5BNH7j.s:21977  .debug_str:0000000000001f00 .LASF1870
C:\Users\CYMR90~1\AppData\Local\Temp\cc5BNH7j.s:31682  .debug_str:0000000000028f43 .LASF1871
C:\Users\CYMR90~1\AppData\Local\Temp\cc5BNH7j.s:30790  .debug_str:0000000000025502 .LASF1872
C:\Users\CYMR90~1\AppData\Local\Temp\cc5BNH7j.s:26827  .debug_str:0000000000015725 .LASF1873
C:\Users\CYMR90~1\AppData\Local\Temp\cc5BNH7j.s:23401  .debug_str:00000000000079bb .LASF1874
C:\Users\CYMR90~1\AppData\Local\Temp\cc5BNH7j.s:24269  .debug_str:000000000000b228 .LASF1875
C:\Users\CYMR90~1\AppData\Local\Temp\cc5BNH7j.s:31856  .debug_str:00000000000299e4 .LASF1876
C:\Users\CYMR90~1\AppData\Local\Temp\cc5BNH7j.s:28142  .debug_str:000000000001aefa .LASF1877
C:\Users\CYMR90~1\AppData\Local\Temp\cc5BNH7j.s:28886  .debug_str:000000000001de8f .LASF1878
C:\Users\CYMR90~1\AppData\Local\Temp\cc5BNH7j.s:25299  .debug_str:000000000000f4fe .LASF1879
C:\Users\CYMR90~1\AppData\Local\Temp\cc5BNH7j.s:23659  .debug_str:0000000000008b60 .LASF1880
C:\Users\CYMR90~1\AppData\Local\Temp\cc5BNH7j.s:29188  .debug_str:000000000001f091 .LASF1881
C:\Users\CYMR90~1\AppData\Local\Temp\cc5BNH7j.s:21721  .debug_str:0000000000000f7e .LASF1882
C:\Users\CYMR90~1\AppData\Local\Temp\cc5BNH7j.s:29588  .debug_str:0000000000020904 .LASF1883
C:\Users\CYMR90~1\AppData\Local\Temp\cc5BNH7j.s:32278  .debug_str:000000000002b397 .LASF1884
C:\Users\CYMR90~1\AppData\Local\Temp\cc5BNH7j.s:29296  .debug_str:000000000001f706 .LASF1885
C:\Users\CYMR90~1\AppData\Local\Temp\cc5BNH7j.s:31416  .debug_str:0000000000027d58 .LASF1886
C:\Users\CYMR90~1\AppData\Local\Temp\cc5BNH7j.s:23541  .debug_str:00000000000083e0 .LASF1887
C:\Users\CYMR90~1\AppData\Local\Temp\cc5BNH7j.s:23691  .debug_str:0000000000008d90 .LASF1888
C:\Users\CYMR90~1\AppData\Local\Temp\cc5BNH7j.s:32310  .debug_str:000000000002b578 .LASF1889
C:\Users\CYMR90~1\AppData\Local\Temp\cc5BNH7j.s:27764  .debug_str:00000000000194d7 .LASF1890
C:\Users\CYMR90~1\AppData\Local\Temp\cc5BNH7j.s:23869  .debug_str:000000000000987b .LASF1891
C:\Users\CYMR90~1\AppData\Local\Temp\cc5BNH7j.s:23961  .debug_str:0000000000009e43 .LASF1892
C:\Users\CYMR90~1\AppData\Local\Temp\cc5BNH7j.s:28512  .debug_str:000000000001c5ab .LASF1893
C:\Users\CYMR90~1\AppData\Local\Temp\cc5BNH7j.s:23685  .debug_str:0000000000008d24 .LASF1894
C:\Users\CYMR90~1\AppData\Local\Temp\cc5BNH7j.s:24917  .debug_str:000000000000ddc6 .LASF1895
C:\Users\CYMR90~1\AppData\Local\Temp\cc5BNH7j.s:27220  .debug_str:0000000000017274 .LASF1896
C:\Users\CYMR90~1\AppData\Local\Temp\cc5BNH7j.s:21927  .debug_str:0000000000001c1d .LASF1897
C:\Users\CYMR90~1\AppData\Local\Temp\cc5BNH7j.s:31158  .debug_str:0000000000026c7d .LASF1898
C:\Users\CYMR90~1\AppData\Local\Temp\cc5BNH7j.s:28014  .debug_str:000000000001a617 .LASF1899
C:\Users\CYMR90~1\AppData\Local\Temp\cc5BNH7j.s:24743  .debug_str:000000000000d2f9 .LASF1900
C:\Users\CYMR90~1\AppData\Local\Temp\cc5BNH7j.s:21535  .debug_str:00000000000003ed .LASF1901
C:\Users\CYMR90~1\AppData\Local\Temp\cc5BNH7j.s:22353  .debug_str:0000000000003678 .LASF1902
C:\Users\CYMR90~1\AppData\Local\Temp\cc5BNH7j.s:24375  .debug_str:000000000000b991 .LASF1903
C:\Users\CYMR90~1\AppData\Local\Temp\cc5BNH7j.s:32552  .debug_str:000000000002c5aa .LASF1904
C:\Users\CYMR90~1\AppData\Local\Temp\cc5BNH7j.s:27085  .debug_str:0000000000016850 .LASF1905
C:\Users\CYMR90~1\AppData\Local\Temp\cc5BNH7j.s:23839  .debug_str:000000000000963f .LASF1906
C:\Users\CYMR90~1\AppData\Local\Temp\cc5BNH7j.s:31494  .debug_str:0000000000028330 .LASF1907
C:\Users\CYMR90~1\AppData\Local\Temp\cc5BNH7j.s:28550  .debug_str:000000000001c8ce .LASF1908
C:\Users\CYMR90~1\AppData\Local\Temp\cc5BNH7j.s:22871  .debug_str:00000000000057d5 .LASF1909
C:\Users\CYMR90~1\AppData\Local\Temp\cc5BNH7j.s:31848  .debug_str:0000000000029967 .LASF1910
C:\Users\CYMR90~1\AppData\Local\Temp\cc5BNH7j.s:28186  .debug_str:000000000001b1fa .LASF1911
C:\Users\CYMR90~1\AppData\Local\Temp\cc5BNH7j.s:27866  .debug_str:0000000000019c07 .LASF1912
C:\Users\CYMR90~1\AppData\Local\Temp\cc5BNH7j.s:24287  .debug_str:000000000000b3d7 .LASF1913
C:\Users\CYMR90~1\AppData\Local\Temp\cc5BNH7j.s:24129  .debug_str:000000000000a8b0 .LASF1914
C:\Users\CYMR90~1\AppData\Local\Temp\cc5BNH7j.s:29494  .debug_str:00000000000202ea .LASF1915
C:\Users\CYMR90~1\AppData\Local\Temp\cc5BNH7j.s:30764  .debug_str:0000000000025328 .LASF1916
C:\Users\CYMR90~1\AppData\Local\Temp\cc5BNH7j.s:27382  .debug_str:0000000000017c6b .LASF1917
C:\Users\CYMR90~1\AppData\Local\Temp\cc5BNH7j.s:24035  .debug_str:000000000000a2f4 .LASF1918
C:\Users\CYMR90~1\AppData\Local\Temp\cc5BNH7j.s:31904  .debug_str:0000000000029c8d .LASF1919
C:\Users\CYMR90~1\AppData\Local\Temp\cc5BNH7j.s:28522  .debug_str:000000000001c64e .LASF1920
C:\Users\CYMR90~1\AppData\Local\Temp\cc5BNH7j.s:25075  .debug_str:000000000000e788 .LASF1921
C:\Users\CYMR90~1\AppData\Local\Temp\cc5BNH7j.s:23255  .debug_str:0000000000006fe2 .LASF1922
C:\Users\CYMR90~1\AppData\Local\Temp\cc5BNH7j.s:29562  .debug_str:0000000000020778 .LASF1923
C:\Users\CYMR90~1\AppData\Local\Temp\cc5BNH7j.s:31636  .debug_str:0000000000028c60 .LASF1924
C:\Users\CYMR90~1\AppData\Local\Temp\cc5BNH7j.s:24149  .debug_str:000000000000aa1b .LASF1925
C:\Users\CYMR90~1\AppData\Local\Temp\cc5BNH7j.s:29388  .debug_str:000000000001fcb0 .LASF1926
C:\Users\CYMR90~1\AppData\Local\Temp\cc5BNH7j.s:28416  .debug_str:000000000001bfef .LASF1927
C:\Users\CYMR90~1\AppData\Local\Temp\cc5BNH7j.s:22391  .debug_str:00000000000038fd .LASF1928
C:\Users\CYMR90~1\AppData\Local\Temp\cc5BNH7j.s:23305  .debug_str:0000000000007362 .LASF1929
C:\Users\CYMR90~1\AppData\Local\Temp\cc5BNH7j.s:29314  .debug_str:000000000001f815 .LASF1930
C:\Users\CYMR90~1\AppData\Local\Temp\cc5BNH7j.s:32580  .debug_str:000000000002c79f .LASF1931
C:\Users\CYMR90~1\AppData\Local\Temp\cc5BNH7j.s:32270  .debug_str:000000000002b2fd .LASF1932
C:\Users\CYMR90~1\AppData\Local\Temp\cc5BNH7j.s:23413  .debug_str:0000000000007a65 .LASF1933
C:\Users\CYMR90~1\AppData\Local\Temp\cc5BNH7j.s:24455  .debug_str:000000000000bf4c .LASF1934
C:\Users\CYMR90~1\AppData\Local\Temp\cc5BNH7j.s:28494  .debug_str:000000000001c470 .LASF1935
C:\Users\CYMR90~1\AppData\Local\Temp\cc5BNH7j.s:22913  .debug_str:0000000000005a89 .LASF1936
C:\Users\CYMR90~1\AppData\Local\Temp\cc5BNH7j.s:28350  .debug_str:000000000001bb9f .LASF1937
C:\Users\CYMR90~1\AppData\Local\Temp\cc5BNH7j.s:27330  .debug_str:000000000001796e .LASF1938
C:\Users\CYMR90~1\AppData\Local\Temp\cc5BNH7j.s:26651  .debug_str:0000000000014cad .LASF1939
C:\Users\CYMR90~1\AppData\Local\Temp\cc5BNH7j.s:23599  .debug_str:000000000000876c .LASF1940
C:\Users\CYMR90~1\AppData\Local\Temp\cc5BNH7j.s:31700  .debug_str:0000000000029080 .LASF1941
C:\Users\CYMR90~1\AppData\Local\Temp\cc5BNH7j.s:28604  .debug_str:000000000001cc26 .LASF1942
C:\Users\CYMR90~1\AppData\Local\Temp\cc5BNH7j.s:24511  .debug_str:000000000000c2c7 .LASF1943
C:\Users\CYMR90~1\AppData\Local\Temp\cc5BNH7j.s:25639  .debug_str:0000000000010b49 .LASF1944
C:\Users\CYMR90~1\AppData\Local\Temp\cc5BNH7j.s:29424  .debug_str:000000000001fed9 .LASF1945
C:\Users\CYMR90~1\AppData\Local\Temp\cc5BNH7j.s:26365  .debug_str:0000000000013b23 .LASF1946
C:\Users\CYMR90~1\AppData\Local\Temp\cc5BNH7j.s:23199  .debug_str:0000000000006c3a .LASF1947
C:\Users\CYMR90~1\AppData\Local\Temp\cc5BNH7j.s:22133  .debug_str:0000000000002867 .LASF1948
C:\Users\CYMR90~1\AppData\Local\Temp\cc5BNH7j.s:28238  .debug_str:000000000001b4f8 .LASF1949
C:\Users\CYMR90~1\AppData\Local\Temp\cc5BNH7j.s:25181  .debug_str:000000000000edc4 .LASF1950
C:\Users\CYMR90~1\AppData\Local\Temp\cc5BNH7j.s:22001  .debug_str:000000000000203d .LASF1951
C:\Users\CYMR90~1\AppData\Local\Temp\cc5BNH7j.s:30180  .debug_str:0000000000022ccd .LASF1952
C:\Users\CYMR90~1\AppData\Local\Temp\cc5BNH7j.s:30898  .debug_str:0000000000025c36 .LASF1953
C:\Users\CYMR90~1\AppData\Local\Temp\cc5BNH7j.s:26495  .debug_str:000000000001432f .LASF1954
C:\Users\CYMR90~1\AppData\Local\Temp\cc5BNH7j.s:29710  .debug_str:000000000002101c .LASF1955
C:\Users\CYMR90~1\AppData\Local\Temp\cc5BNH7j.s:30378  .debug_str:00000000000238c3 .LASF1956
C:\Users\CYMR90~1\AppData\Local\Temp\cc5BNH7j.s:22055  .debug_str:000000000000235b .LASF1957
C:\Users\CYMR90~1\AppData\Local\Temp\cc5BNH7j.s:32110  .debug_str:000000000002a8f7 .LASF1958
C:\Users\CYMR90~1\AppData\Local\Temp\cc5BNH7j.s:23419  .debug_str:0000000000007ad6 .LASF1959
C:\Users\CYMR90~1\AppData\Local\Temp\cc5BNH7j.s:31684  .debug_str:0000000000028f82 .LASF1960
C:\Users\CYMR90~1\AppData\Local\Temp\cc5BNH7j.s:28558  .debug_str:000000000001c963 .LASF1961
C:\Users\CYMR90~1\AppData\Local\Temp\cc5BNH7j.s:21575  .debug_str:0000000000000612 .LASF1962
C:\Users\CYMR90~1\AppData\Local\Temp\cc5BNH7j.s:26873  .debug_str:00000000000159e8 .LASF1963
C:\Users\CYMR90~1\AppData\Local\Temp\cc5BNH7j.s:30746  .debug_str:000000000002520a .LASF1964
C:\Users\CYMR90~1\AppData\Local\Temp\cc5BNH7j.s:23259  .debug_str:000000000000704d .LASF1965
C:\Users\CYMR90~1\AppData\Local\Temp\cc5BNH7j.s:28696  .debug_str:000000000001d2ba .LASF1966
C:\Users\CYMR90~1\AppData\Local\Temp\cc5BNH7j.s:32210  .debug_str:000000000002aec0 .LASF1967
C:\Users\CYMR90~1\AppData\Local\Temp\cc5BNH7j.s:28536  .debug_str:000000000001c7dd .LASF1968
C:\Users\CYMR90~1\AppData\Local\Temp\cc5BNH7j.s:30068  .debug_str:0000000000022626 .LASF1969
C:\Users\CYMR90~1\AppData\Local\Temp\cc5BNH7j.s:23243  .debug_str:0000000000006f10 .LASF1970
C:\Users\CYMR90~1\AppData\Local\Temp\cc5BNH7j.s:30072  .debug_str:0000000000022657 .LASF1971
C:\Users\CYMR90~1\AppData\Local\Temp\cc5BNH7j.s:30782  .debug_str:0000000000025458 .LASF1972
C:\Users\CYMR90~1\AppData\Local\Temp\cc5BNH7j.s:27854  .debug_str:0000000000019b47 .LASF1973
C:\Users\CYMR90~1\AppData\Local\Temp\cc5BNH7j.s:27660  .debug_str:0000000000018de5 .LASF1974
C:\Users\CYMR90~1\AppData\Local\Temp\cc5BNH7j.s:32160  .debug_str:000000000002abed .LASF1975
C:\Users\CYMR90~1\AppData\Local\Temp\cc5BNH7j.s:23437  .debug_str:0000000000007c82 .LASF1976
C:\Users\CYMR90~1\AppData\Local\Temp\cc5BNH7j.s:23789  .debug_str:000000000000932e .LASF1977
C:\Users\CYMR90~1\AppData\Local\Temp\cc5BNH7j.s:31926  .debug_str:0000000000029dcf .LASF1978
C:\Users\CYMR90~1\AppData\Local\Temp\cc5BNH7j.s:22737  .debug_str:0000000000004fd7 .LASF1979
C:\Users\CYMR90~1\AppData\Local\Temp\cc5BNH7j.s:30684  .debug_str:0000000000024d38 .LASF1980
C:\Users\CYMR90~1\AppData\Local\Temp\cc5BNH7j.s:30542  .debug_str:00000000000243a9 .LASF1981
C:\Users\CYMR90~1\AppData\Local\Temp\cc5BNH7j.s:30384  .debug_str:000000000002391e .LASF1982
C:\Users\CYMR90~1\AppData\Local\Temp\cc5BNH7j.s:31204  .debug_str:0000000000026f15 .LASF1983
C:\Users\CYMR90~1\AppData\Local\Temp\cc5BNH7j.s:32114  .debug_str:000000000002a94d .LASF1984
C:\Users\CYMR90~1\AppData\Local\Temp\cc5BNH7j.s:23391  .debug_str:00000000000078de .LASF1985
C:\Users\CYMR90~1\AppData\Local\Temp\cc5BNH7j.s:28268  .debug_str:000000000001b6e3 .LASF1986
C:\Users\CYMR90~1\AppData\Local\Temp\cc5BNH7j.s:26567  .debug_str:0000000000014799 .LASF1987
C:\Users\CYMR90~1\AppData\Local\Temp\cc5BNH7j.s:23381  .debug_str:000000000000783b .LASF1988
C:\Users\CYMR90~1\AppData\Local\Temp\cc5BNH7j.s:24609  .debug_str:000000000000ca10 .LASF1989
C:\Users\CYMR90~1\AppData\Local\Temp\cc5BNH7j.s:23651  .debug_str:0000000000008aef .LASF1990
C:\Users\CYMR90~1\AppData\Local\Temp\cc5BNH7j.s:24669  .debug_str:000000000000cd7b .LASF1991
C:\Users\CYMR90~1\AppData\Local\Temp\cc5BNH7j.s:27908  .debug_str:0000000000019e47 .LASF1992
C:\Users\CYMR90~1\AppData\Local\Temp\cc5BNH7j.s:22641  .debug_str:0000000000004a04 .LASF1993
C:\Users\CYMR90~1\AppData\Local\Temp\cc5BNH7j.s:21717  .debug_str:0000000000000f4e .LASF1994
C:\Users\CYMR90~1\AppData\Local\Temp\cc5BNH7j.s:30798  .debug_str:0000000000025596 .LASF1995
C:\Users\CYMR90~1\AppData\Local\Temp\cc5BNH7j.s:22351  .debug_str:0000000000003644 .LASF1996
C:\Users\CYMR90~1\AppData\Local\Temp\cc5BNH7j.s:31256  .debug_str:0000000000027317 .LASF1997
C:\Users\CYMR90~1\AppData\Local\Temp\cc5BNH7j.s:23571  .debug_str:00000000000085b1 .LASF1998
C:\Users\CYMR90~1\AppData\Local\Temp\cc5BNH7j.s:27488  .debug_str:00000000000182aa .LASF1999
C:\Users\CYMR90~1\AppData\Local\Temp\cc5BNH7j.s:26973  .debug_str:0000000000016105 .LASF2000
C:\Users\CYMR90~1\AppData\Local\Temp\cc5BNH7j.s:25799  .debug_str:0000000000011556 .LASF2001
C:\Users\CYMR90~1\AppData\Local\Temp\cc5BNH7j.s:30078  .debug_str:00000000000226bc .LASF2002
C:\Users\CYMR90~1\AppData\Local\Temp\cc5BNH7j.s:31472  .debug_str:00000000000281e3 .LASF2003
C:\Users\CYMR90~1\AppData\Local\Temp\cc5BNH7j.s:26525  .debug_str:00000000000144af .LASF2004
C:\Users\CYMR90~1\AppData\Local\Temp\cc5BNH7j.s:29970  .debug_str:000000000002206f .LASF2005
C:\Users\CYMR90~1\AppData\Local\Temp\cc5BNH7j.s:27180  .debug_str:000000000001703f .LASF2006
C:\Users\CYMR90~1\AppData\Local\Temp\cc5BNH7j.s:32362  .debug_str:000000000002b906 .LASF2007
C:\Users\CYMR90~1\AppData\Local\Temp\cc5BNH7j.s:22779  .debug_str:0000000000005270 .LASF2008
C:\Users\CYMR90~1\AppData\Local\Temp\cc5BNH7j.s:26295  .debug_str:0000000000013708 .LASF2009
C:\Users\CYMR90~1\AppData\Local\Temp\cc5BNH7j.s:28976  .debug_str:000000000001e40f .LASF2010
C:\Users\CYMR90~1\AppData\Local\Temp\cc5BNH7j.s:24637  .debug_str:000000000000cbc4 .LASF2011
C:\Users\CYMR90~1\AppData\Local\Temp\cc5BNH7j.s:21909  .debug_str:0000000000001b1f .LASF2012
C:\Users\CYMR90~1\AppData\Local\Temp\cc5BNH7j.s:30264  .debug_str:00000000000231a0 .LASF2013
C:\Users\CYMR90~1\AppData\Local\Temp\cc5BNH7j.s:30022  .debug_str:000000000002233d .LASF2014
C:\Users\CYMR90~1\AppData\Local\Temp\cc5BNH7j.s:27992  .debug_str:000000000001a4ba .LASF2015
C:\Users\CYMR90~1\AppData\Local\Temp\cc5BNH7j.s:31836  .debug_str:00000000000298b3 .LASF2016
C:\Users\CYMR90~1\AppData\Local\Temp\cc5BNH7j.s:30172  .debug_str:0000000000022c76 .LASF2017
C:\Users\CYMR90~1\AppData\Local\Temp\cc5BNH7j.s:32272  .debug_str:000000000002b32d .LASF2018
C:\Users\CYMR90~1\AppData\Local\Temp\cc5BNH7j.s:28738  .debug_str:000000000001d547 .LASF2019
C:\Users\CYMR90~1\AppData\Local\Temp\cc5BNH7j.s:23139  .debug_str:0000000000006867 .LASF2020
C:\Users\CYMR90~1\AppData\Local\Temp\cc5BNH7j.s:30214  .debug_str:0000000000022ec4 .LASF2021
C:\Users\CYMR90~1\AppData\Local\Temp\cc5BNH7j.s:31194  .debug_str:0000000000026e97 .LASF2022
C:\Users\CYMR90~1\AppData\Local\Temp\cc5BNH7j.s:27400  .debug_str:0000000000017daa .LASF2023
C:\Users\CYMR90~1\AppData\Local\Temp\cc5BNH7j.s:31136  .debug_str:0000000000026ae1 .LASF2024
C:\Users\CYMR90~1\AppData\Local\Temp\cc5BNH7j.s:24351  .debug_str:000000000000b85c .LASF2025
C:\Users\CYMR90~1\AppData\Local\Temp\cc5BNH7j.s:32224  .debug_str:000000000002af9e .LASF2026
C:\Users\CYMR90~1\AppData\Local\Temp\cc5BNH7j.s:22315  .debug_str:0000000000003402 .LASF2027
C:\Users\CYMR90~1\AppData\Local\Temp\cc5BNH7j.s:30276  .debug_str:000000000002323b .LASF2028
C:\Users\CYMR90~1\AppData\Local\Temp\cc5BNH7j.s:29284  .debug_str:000000000001f631 .LASF2029
C:\Users\CYMR90~1\AppData\Local\Temp\cc5BNH7j.s:21487  .debug_str:00000000000000ff .LASF2030
C:\Users\CYMR90~1\AppData\Local\Temp\cc5BNH7j.s:27386  .debug_str:0000000000017cac .LASF2031
C:\Users\CYMR90~1\AppData\Local\Temp\cc5BNH7j.s:24123  .debug_str:000000000000a86b .LASF2032
C:\Users\CYMR90~1\AppData\Local\Temp\cc5BNH7j.s:25317  .debug_str:000000000000f6b3 .LASF2033
C:\Users\CYMR90~1\AppData\Local\Temp\cc5BNH7j.s:24331  .debug_str:000000000000b6cc .LASF2034
C:\Users\CYMR90~1\AppData\Local\Temp\cc5BNH7j.s:25867  .debug_str:0000000000011ac8 .LASF2035
C:\Users\CYMR90~1\AppData\Local\Temp\cc5BNH7j.s:29746  .debug_str:00000000000212d0 .LASF2036
C:\Users\CYMR90~1\AppData\Local\Temp\cc5BNH7j.s:30150  .debug_str:0000000000022b2f .LASF2037
C:\Users\CYMR90~1\AppData\Local\Temp\cc5BNH7j.s:30726  .debug_str:0000000000025025 .LASF2038
C:\Users\CYMR90~1\AppData\Local\Temp\cc5BNH7j.s:25963  .debug_str:0000000000012142 .LASF2039
C:\Users\CYMR90~1\AppData\Local\Temp\cc5BNH7j.s:27934  .debug_str:0000000000019fea .LASF2040
C:\Users\CYMR90~1\AppData\Local\Temp\cc5BNH7j.s:24665  .debug_str:000000000000cd2b .LASF2041
C:\Users\CYMR90~1\AppData\Local\Temp\cc5BNH7j.s:22141  .debug_str:00000000000028da .LASF2042
C:\Users\CYMR90~1\AppData\Local\Temp\cc5BNH7j.s:21981  .debug_str:0000000000001f57 .LASF2043
C:\Users\CYMR90~1\AppData\Local\Temp\cc5BNH7j.s:32632  .debug_str:000000000002cb2b .LASF2044
C:\Users\CYMR90~1\AppData\Local\Temp\cc5BNH7j.s:26265  .debug_str:000000000001351c .LASF2045
C:\Users\CYMR90~1\AppData\Local\Temp\cc5BNH7j.s:30038  .debug_str:0000000000022449 .LASF2046
C:\Users\CYMR90~1\AppData\Local\Temp\cc5BNH7j.s:31648  .debug_str:0000000000028d37 .LASF2047
C:\Users\CYMR90~1\AppData\Local\Temp\cc5BNH7j.s:28398  .debug_str:000000000001bed6 .LASF2048
C:\Users\CYMR90~1\AppData\Local\Temp\cc5BNH7j.s:28934  .debug_str:000000000001e17a .LASF2049
C:\Users\CYMR90~1\AppData\Local\Temp\cc5BNH7j.s:22937  .debug_str:0000000000005c1a .LASF2050
C:\Users\CYMR90~1\AppData\Local\Temp\cc5BNH7j.s:22301  .debug_str:0000000000003308 .LASF2051
C:\Users\CYMR90~1\AppData\Local\Temp\cc5BNH7j.s:24235  .debug_str:000000000000b04a .LASF2052
C:\Users\CYMR90~1\AppData\Local\Temp\cc5BNH7j.s:28076  .debug_str:000000000001aa60 .LASF2053
C:\Users\CYMR90~1\AppData\Local\Temp\cc5BNH7j.s:32070  .debug_str:000000000002a6ac .LASF2054
C:\Users\CYMR90~1\AppData\Local\Temp\cc5BNH7j.s:22747  .debug_str:000000000000507f .LASF2055
C:\Users\CYMR90~1\AppData\Local\Temp\cc5BNH7j.s:31092  .debug_str:0000000000026849 .LASF2056
C:\Users\CYMR90~1\AppData\Local\Temp\cc5BNH7j.s:29098  .debug_str:000000000001eb45 .LASF2057
C:\Users\CYMR90~1\AppData\Local\Temp\cc5BNH7j.s:27238  .debug_str:000000000001737e .LASF2058
C:\Users\CYMR90~1\AppData\Local\Temp\cc5BNH7j.s:24113  .debug_str:000000000000a7c2 .LASF2059
C:\Users\CYMR90~1\AppData\Local\Temp\cc5BNH7j.s:24907  .debug_str:000000000000dcfd .LASF2060
C:\Users\CYMR90~1\AppData\Local\Temp\cc5BNH7j.s:29548  .debug_str:00000000000206b5 .LASF2061
C:\Users\CYMR90~1\AppData\Local\Temp\cc5BNH7j.s:26395  .debug_str:0000000000013cf3 .LASF2062
C:\Users\CYMR90~1\AppData\Local\Temp\cc5BNH7j.s:22113  .debug_str:00000000000026f7 .LASF2063
C:\Users\CYMR90~1\AppData\Local\Temp\cc5BNH7j.s:25683  .debug_str:0000000000010e19 .LASF2064
C:\Users\CYMR90~1\AppData\Local\Temp\cc5BNH7j.s:29064  .debug_str:000000000001e96f .LASF2065
C:\Users\CYMR90~1\AppData\Local\Temp\cc5BNH7j.s:23805  .debug_str:000000000000940e .LASF2066
C:\Users\CYMR90~1\AppData\Local\Temp\cc5BNH7j.s:24263  .debug_str:000000000000b1ca .LASF2067
C:\Users\CYMR90~1\AppData\Local\Temp\cc5BNH7j.s:27336  .debug_str:00000000000179cf .LASF2068
C:\Users\CYMR90~1\AppData\Local\Temp\cc5BNH7j.s:26947  .debug_str:0000000000015f4f .LASF2069
C:\Users\CYMR90~1\AppData\Local\Temp\cc5BNH7j.s:24797  .debug_str:000000000000d64d .LASF2070
C:\Users\CYMR90~1\AppData\Local\Temp\cc5BNH7j.s:22907  .debug_str:0000000000005a42 .LASF2071
C:\Users\CYMR90~1\AppData\Local\Temp\cc5BNH7j.s:26119  .debug_str:0000000000012b4e .LASF2072
C:\Users\CYMR90~1\AppData\Local\Temp\cc5BNH7j.s:25141  .debug_str:000000000000ebc2 .LASF2073
C:\Users\CYMR90~1\AppData\Local\Temp\cc5BNH7j.s:24389  .debug_str:000000000000baaf .LASF2074
C:\Users\CYMR90~1\AppData\Local\Temp\cc5BNH7j.s:32440  .debug_str:000000000002be56 .LASF2075
C:\Users\CYMR90~1\AppData\Local\Temp\cc5BNH7j.s:23677  .debug_str:0000000000008ce6 .LASF2076
C:\Users\CYMR90~1\AppData\Local\Temp\cc5BNH7j.s:31724  .debug_str:00000000000291c8 .LASF2077
C:\Users\CYMR90~1\AppData\Local\Temp\cc5BNH7j.s:22759  .debug_str:0000000000005139 .LASF2078
C:\Users\CYMR90~1\AppData\Local\Temp\cc5BNH7j.s:21877  .debug_str:0000000000001928 .LASF2079
C:\Users\CYMR90~1\AppData\Local\Temp\cc5BNH7j.s:30304  .debug_str:0000000000023439 .LASF2080
C:\Users\CYMR90~1\AppData\Local\Temp\cc5BNH7j.s:31612  .debug_str:0000000000028ae4 .LASF2081
C:\Users\CYMR90~1\AppData\Local\Temp\cc5BNH7j.s:31702  .debug_str:00000000000290a8 .LASF2082
C:\Users\CYMR90~1\AppData\Local\Temp\cc5BNH7j.s:25989  .debug_str:00000000000122be .LASF2083
C:\Users\CYMR90~1\AppData\Local\Temp\cc5BNH7j.s:23459  .debug_str:0000000000007ded .LASF2084
C:\Users\CYMR90~1\AppData\Local\Temp\cc5BNH7j.s:30186  .debug_str:0000000000022d2b .LASF2085
C:\Users\CYMR90~1\AppData\Local\Temp\cc5BNH7j.s:21771  .debug_str:0000000000001245 .LASF2086
C:\Users\CYMR90~1\AppData\Local\Temp\cc5BNH7j.s:21625  .debug_str:0000000000000932 .LASF2087
C:\Users\CYMR90~1\AppData\Local\Temp\cc5BNH7j.s:28190  .debug_str:000000000001b240 .LASF2088
C:\Users\CYMR90~1\AppData\Local\Temp\cc5BNH7j.s:29254  .debug_str:000000000001f490 .LASF2089
C:\Users\CYMR90~1\AppData\Local\Temp\cc5BNH7j.s:27166  .debug_str:0000000000016f63 .LASF2090
C:\Users\CYMR90~1\AppData\Local\Temp\cc5BNH7j.s:25923  .debug_str:0000000000011e12 .LASF2091
C:\Users\CYMR90~1\AppData\Local\Temp\cc5BNH7j.s:27266  .debug_str:0000000000017532 .LASF2092
C:\Users\CYMR90~1\AppData\Local\Temp\cc5BNH7j.s:26427  .debug_str:0000000000013eb9 .LASF2093
C:\Users\CYMR90~1\AppData\Local\Temp\cc5BNH7j.s:22295  .debug_str:00000000000032b8 .LASF2094
C:\Users\CYMR90~1\AppData\Local\Temp\cc5BNH7j.s:22507  .debug_str:00000000000040ec .LASF2095
C:\Users\CYMR90~1\AppData\Local\Temp\cc5BNH7j.s:23915  .debug_str:0000000000009b60 .LASF2096
C:\Users\CYMR90~1\AppData\Local\Temp\cc5BNH7j.s:22271  .debug_str:0000000000003104 .LASF2097
C:\Users\CYMR90~1\AppData\Local\Temp\cc5BNH7j.s:30908  .debug_str:0000000000025cd4 .LASF2098
C:\Users\CYMR90~1\AppData\Local\Temp\cc5BNH7j.s:25475  .debug_str:000000000001009c .LASF2099
C:\Users\CYMR90~1\AppData\Local\Temp\cc5BNH7j.s:24271  .debug_str:000000000000b251 .LASF2100
C:\Users\CYMR90~1\AppData\Local\Temp\cc5BNH7j.s:23079  .debug_str:0000000000006496 .LASF2101
C:\Users\CYMR90~1\AppData\Local\Temp\cc5BNH7j.s:22191  .debug_str:0000000000002be2 .LASF2102
C:\Users\CYMR90~1\AppData\Local\Temp\cc5BNH7j.s:23953  .debug_str:0000000000009d9c .LASF2103
C:\Users\CYMR90~1\AppData\Local\Temp\cc5BNH7j.s:32392  .debug_str:000000000002baf2 .LASF2104
C:\Users\CYMR90~1\AppData\Local\Temp\cc5BNH7j.s:27264  .debug_str:000000000001750e .LASF2105
C:\Users\CYMR90~1\AppData\Local\Temp\cc5BNH7j.s:22289  .debug_str:0000000000003247 .LASF2106
C:\Users\CYMR90~1\AppData\Local\Temp\cc5BNH7j.s:31672  .debug_str:0000000000028eca .LASF2107
C:\Users\CYMR90~1\AppData\Local\Temp\cc5BNH7j.s:25957  .debug_str:00000000000120c8 .LASF2108
C:\Users\CYMR90~1\AppData\Local\Temp\cc5BNH7j.s:22305  .debug_str:0000000000003346 .LASF2109
C:\Users\CYMR90~1\AppData\Local\Temp\cc5BNH7j.s:24709  .debug_str:000000000000d023 .LASF2110
C:\Users\CYMR90~1\AppData\Local\Temp\cc5BNH7j.s:27214  .debug_str:0000000000017218 .LASF2111
C:\Users\CYMR90~1\AppData\Local\Temp\cc5BNH7j.s:29274  .debug_str:000000000001f5ab .LASF2112
C:\Users\CYMR90~1\AppData\Local\Temp\cc5BNH7j.s:31830  .debug_str:0000000000029859 .LASF2113
C:\Users\CYMR90~1\AppData\Local\Temp\cc5BNH7j.s:25197  .debug_str:000000000000eeb1 .LASF2114
C:\Users\CYMR90~1\AppData\Local\Temp\cc5BNH7j.s:26317  .debug_str:0000000000013840 .LASF2115
C:\Users\CYMR90~1\AppData\Local\Temp\cc5BNH7j.s:28174  .debug_str:000000000001b11f .LASF2116
C:\Users\CYMR90~1\AppData\Local\Temp\cc5BNH7j.s:26507  .debug_str:00000000000143cc .LASF2117
C:\Users\CYMR90~1\AppData\Local\Temp\cc5BNH7j.s:30534  .debug_str:000000000002433a .LASF2118
C:\Users\CYMR90~1\AppData\Local\Temp\cc5BNH7j.s:29216  .debug_str:000000000001f247 .LASF2119
C:\Users\CYMR90~1\AppData\Local\Temp\cc5BNH7j.s:22145  .debug_str:0000000000002911 .LASF2120
C:\Users\CYMR90~1\AppData\Local\Temp\cc5BNH7j.s:29648  .debug_str:0000000000020cbb .LASF2121
C:\Users\CYMR90~1\AppData\Local\Temp\cc5BNH7j.s:23529  .debug_str:0000000000008316 .LASF2122
C:\Users\CYMR90~1\AppData\Local\Temp\cc5BNH7j.s:26363  .debug_str:0000000000013aff .LASF2123
C:\Users\CYMR90~1\AppData\Local\Temp\cc5BNH7j.s:28960  .debug_str:000000000001e311 .LASF2124
C:\Users\CYMR90~1\AppData\Local\Temp\cc5BNH7j.s:26217  .debug_str:000000000001319d .LASF2125
C:\Users\CYMR90~1\AppData\Local\Temp\cc5BNH7j.s:27328  .debug_str:0000000000017947 .LASF2126
C:\Users\CYMR90~1\AppData\Local\Temp\cc5BNH7j.s:31218  .debug_str:0000000000027020 .LASF2127
C:\Users\CYMR90~1\AppData\Local\Temp\cc5BNH7j.s:29760  .debug_str:00000000000213a6 .LASF2128
C:\Users\CYMR90~1\AppData\Local\Temp\cc5BNH7j.s:25679  .debug_str:0000000000010dde .LASF2129
C:\Users\CYMR90~1\AppData\Local\Temp\cc5BNH7j.s:29666  .debug_str:0000000000020daa .LASF2130
C:\Users\CYMR90~1\AppData\Local\Temp\cc5BNH7j.s:27550  .debug_str:0000000000018621 .LASF2131
C:\Users\CYMR90~1\AppData\Local\Temp\cc5BNH7j.s:29490  .debug_str:00000000000202a5 .LASF2132
C:\Users\CYMR90~1\AppData\Local\Temp\cc5BNH7j.s:25861  .debug_str:0000000000011a52 .LASF2133
C:\Users\CYMR90~1\AppData\Local\Temp\cc5BNH7j.s:22279  .debug_str:00000000000031a9 .LASF2134
C:\Users\CYMR90~1\AppData\Local\Temp\cc5BNH7j.s:22025  .debug_str:0000000000002192 .LASF2135
C:\Users\CYMR90~1\AppData\Local\Temp\cc5BNH7j.s:27708  .debug_str:000000000001918f .LASF2136
C:\Users\CYMR90~1\AppData\Local\Temp\cc5BNH7j.s:31934  .debug_str:0000000000029e5e .LASF2137
C:\Users\CYMR90~1\AppData\Local\Temp\cc5BNH7j.s:23531  .debug_str:000000000000833b .LASF2138
C:\Users\CYMR90~1\AppData\Local\Temp\cc5BNH7j.s:29854  .debug_str:000000000002195e .LASF2139
C:\Users\CYMR90~1\AppData\Local\Temp\cc5BNH7j.s:25777  .debug_str:00000000000113db .LASF2140
C:\Users\CYMR90~1\AppData\Local\Temp\cc5BNH7j.s:25259  .debug_str:000000000000f2c4 .LASF2141
C:\Users\CYMR90~1\AppData\Local\Temp\cc5BNH7j.s:29232  .debug_str:000000000001f342 .LASF2142
C:\Users\CYMR90~1\AppData\Local\Temp\cc5BNH7j.s:29782  .debug_str:00000000000214e8 .LASF2143
C:\Users\CYMR90~1\AppData\Local\Temp\cc5BNH7j.s:26053  .debug_str:00000000000126d8 .LASF2144
C:\Users\CYMR90~1\AppData\Local\Temp\cc5BNH7j.s:22307  .debug_str:000000000000336d .LASF2145
C:\Users\CYMR90~1\AppData\Local\Temp\cc5BNH7j.s:21493  .debug_str:0000000000000148 .LASF2146
C:\Users\CYMR90~1\AppData\Local\Temp\cc5BNH7j.s:25113  .debug_str:000000000000e9f8 .LASF2147
C:\Users\CYMR90~1\AppData\Local\Temp\cc5BNH7j.s:27272  .debug_str:0000000000017588 .LASF2148
C:\Users\CYMR90~1\AppData\Local\Temp\cc5BNH7j.s:26733  .debug_str:0000000000015210 .LASF2149
C:\Users\CYMR90~1\AppData\Local\Temp\cc5BNH7j.s:31240  .debug_str:000000000002721f .LASF2150
C:\Users\CYMR90~1\AppData\Local\Temp\cc5BNH7j.s:26319  .debug_str:0000000000013867 .LASF2151
C:\Users\CYMR90~1\AppData\Local\Temp\cc5BNH7j.s:24875  .debug_str:000000000000daa7 .LASF2152
C:\Users\CYMR90~1\AppData\Local\Temp\cc5BNH7j.s:22919  .debug_str:0000000000005af4 .LASF2153
C:\Users\CYMR90~1\AppData\Local\Temp\cc5BNH7j.s:27047  .debug_str:00000000000165c2 .LASF2154
C:\Users\CYMR90~1\AppData\Local\Temp\cc5BNH7j.s:21829  .debug_str:00000000000015cb .LASF2155
C:\Users\CYMR90~1\AppData\Local\Temp\cc5BNH7j.s:22377  .debug_str:000000000000382c .LASF2156
C:\Users\CYMR90~1\AppData\Local\Temp\cc5BNH7j.s:31206  .debug_str:0000000000026f38 .LASF2157
C:\Users\CYMR90~1\AppData\Local\Temp\cc5BNH7j.s:25713  .debug_str:0000000000010fcd .LASF2158
C:\Users\CYMR90~1\AppData\Local\Temp\cc5BNH7j.s:27612  .debug_str:0000000000018a42 .LASF2159
C:\Users\CYMR90~1\AppData\Local\Temp\cc5BNH7j.s:31012  .debug_str:0000000000026354 .LASF2160
C:\Users\CYMR90~1\AppData\Local\Temp\cc5BNH7j.s:23705  .debug_str:0000000000008e7b .LASF2161
C:\Users\CYMR90~1\AppData\Local\Temp\cc5BNH7j.s:31916  .debug_str:0000000000029d4c .LASF2162
C:\Users\CYMR90~1\AppData\Local\Temp\cc5BNH7j.s:32620  .debug_str:000000000002ca0d .LASF2163
C:\Users\CYMR90~1\AppData\Local\Temp\cc5BNH7j.s:22413  .debug_str:0000000000003a86 .LASF2164
C:\Users\CYMR90~1\AppData\Local\Temp\cc5BNH7j.s:30286  .debug_str:00000000000232d7 .LASF2165
C:\Users\CYMR90~1\AppData\Local\Temp\cc5BNH7j.s:27692  .debug_str:00000000000190b0 .LASF2166
C:\Users\CYMR90~1\AppData\Local\Temp\cc5BNH7j.s:31238  .debug_str:0000000000027207 .LASF2167
C:\Users\CYMR90~1\AppData\Local\Temp\cc5BNH7j.s:23563  .debug_str:000000000000853c .LASF2168
C:\Users\CYMR90~1\AppData\Local\Temp\cc5BNH7j.s:28792  .debug_str:000000000001d8ea .LASF2169
C:\Users\CYMR90~1\AppData\Local\Temp\cc5BNH7j.s:26995  .debug_str:0000000000016252 .LASF2170
C:\Users\CYMR90~1\AppData\Local\Temp\cc5BNH7j.s:25027  .debug_str:000000000000e464 .LASF2171
C:\Users\CYMR90~1\AppData\Local\Temp\cc5BNH7j.s:25169  .debug_str:000000000000ed23 .LASF2172
C:\Users\CYMR90~1\AppData\Local\Temp\cc5BNH7j.s:29238  .debug_str:000000000001f39b .LASF2173
C:\Users\CYMR90~1\AppData\Local\Temp\cc5BNH7j.s:26935  .debug_str:0000000000015e72 .LASF2174
C:\Users\CYMR90~1\AppData\Local\Temp\cc5BNH7j.s:25917  .debug_str:0000000000011dd0 .LASF2175
C:\Users\CYMR90~1\AppData\Local\Temp\cc5BNH7j.s:29028  .debug_str:000000000001e762 .LASF2176
C:\Users\CYMR90~1\AppData\Local\Temp\cc5BNH7j.s:24273  .debug_str:000000000000b260 .LASF2177
C:\Users\CYMR90~1\AppData\Local\Temp\cc5BNH7j.s:29930  .debug_str:0000000000021e0c .LASF2178
C:\Users\CYMR90~1\AppData\Local\Temp\cc5BNH7j.s:24889  .debug_str:000000000000dba0 .LASF2179
C:\Users\CYMR90~1\AppData\Local\Temp\cc5BNH7j.s:23409  .debug_str:0000000000007a2f .LASF2180
C:\Users\CYMR90~1\AppData\Local\Temp\cc5BNH7j.s:30928  .debug_str:0000000000025e37 .LASF2181
C:\Users\CYMR90~1\AppData\Local\Temp\cc5BNH7j.s:25059  .debug_str:000000000000e696 .LASF2182
C:\Users\CYMR90~1\AppData\Local\Temp\cc5BNH7j.s:26969  .debug_str:00000000000160cf .LASF2183
C:\Users\CYMR90~1\AppData\Local\Temp\cc5BNH7j.s:22527  .debug_str:000000000000420c .LASF2184
C:\Users\CYMR90~1\AppData\Local\Temp\cc5BNH7j.s:25343  .debug_str:000000000000f840 .LASF2185
C:\Users\CYMR90~1\AppData\Local\Temp\cc5BNH7j.s:32182  .debug_str:000000000002ad3b .LASF2186
C:\Users\CYMR90~1\AppData\Local\Temp\cc5BNH7j.s:29038  .debug_str:000000000001e802 .LASF2187
C:\Users\CYMR90~1\AppData\Local\Temp\cc5BNH7j.s:23899  .debug_str:0000000000009a8e .LASF2188
C:\Users\CYMR90~1\AppData\Local\Temp\cc5BNH7j.s:28028  .debug_str:000000000001a783 .LASF2189
C:\Users\CYMR90~1\AppData\Local\Temp\cc5BNH7j.s:22469  .debug_str:0000000000003db5 .LASF2190
C:\Users\CYMR90~1\AppData\Local\Temp\cc5BNH7j.s:23999  .debug_str:000000000000a09a .LASF2191
C:\Users\CYMR90~1\AppData\Local\Temp\cc5BNH7j.s:30682  .debug_str:0000000000024cfc .LASF2192
C:\Users\CYMR90~1\AppData\Local\Temp\cc5BNH7j.s:22395  .debug_str:000000000000394a .LASF2193
C:\Users\CYMR90~1\AppData\Local\Temp\cc5BNH7j.s:25805  .debug_str:00000000000115ac .LASF2194
C:\Users\CYMR90~1\AppData\Local\Temp\cc5BNH7j.s:30486  .debug_str:0000000000023fb9 .LASF2195
C:\Users\CYMR90~1\AppData\Local\Temp\cc5BNH7j.s:23357  .debug_str:00000000000076ac .LASF2196
C:\Users\CYMR90~1\AppData\Local\Temp\cc5BNH7j.s:26665  .debug_str:0000000000014da6 .LASF2197
C:\Users\CYMR90~1\AppData\Local\Temp\cc5BNH7j.s:23631  .debug_str:00000000000089a3 .LASF2198
C:\Users\CYMR90~1\AppData\Local\Temp\cc5BNH7j.s:29484  .debug_str:000000000002025c .LASF2199
C:\Users\CYMR90~1\AppData\Local\Temp\cc5BNH7j.s:24137  .debug_str:000000000000a94a .LASF2200
C:\Users\CYMR90~1\AppData\Local\Temp\cc5BNH7j.s:29998  .debug_str:0000000000022212 .LASF2201
C:\Users\CYMR90~1\AppData\Local\Temp\cc5BNH7j.s:29318  .debug_str:000000000001f856 .LASF2202
C:\Users\CYMR90~1\AppData\Local\Temp\cc5BNH7j.s:30500  .debug_str:00000000000240de .LASF2203
C:\Users\CYMR90~1\AppData\Local\Temp\cc5BNH7j.s:31080  .debug_str:000000000002679a .LASF2204
C:\Users\CYMR90~1\AppData\Local\Temp\cc5BNH7j.s:30912  .debug_str:0000000000025d07 .LASF2205
C:\Users\CYMR90~1\AppData\Local\Temp\cc5BNH7j.s:30550  .debug_str:0000000000024410 .LASF2206
C:\Users\CYMR90~1\AppData\Local\Temp\cc5BNH7j.s:29614  .debug_str:0000000000020ad0 .LASF2207
C:\Users\CYMR90~1\AppData\Local\Temp\cc5BNH7j.s:25523  .debug_str:000000000001035e .LASF2208
C:\Users\CYMR90~1\AppData\Local\Temp\cc5BNH7j.s:27656  .debug_str:0000000000018d97 .LASF2209
C:\Users\CYMR90~1\AppData\Local\Temp\cc5BNH7j.s:29464  .debug_str:00000000000200e1 .LASF2210
C:\Users\CYMR90~1\AppData\Local\Temp\cc5BNH7j.s:24401  .debug_str:000000000000bba2 .LASF2211
C:\Users\CYMR90~1\AppData\Local\Temp\cc5BNH7j.s:23137  .debug_str:000000000000683f .LASF2212
C:\Users\CYMR90~1\AppData\Local\Temp\cc5BNH7j.s:32366  .debug_str:000000000002b934 .LASF2213
C:\Users\CYMR90~1\AppData\Local\Temp\cc5BNH7j.s:32442  .debug_str:000000000002be67 .LASF2214
C:\Users\CYMR90~1\AppData\Local\Temp\cc5BNH7j.s:26413  .debug_str:0000000000013dce .LASF2215
C:\Users\CYMR90~1\AppData\Local\Temp\cc5BNH7j.s:24097  .debug_str:000000000000a6da .LASF2216
C:\Users\CYMR90~1\AppData\Local\Temp\cc5BNH7j.s:28264  .debug_str:000000000001b6ab .LASF2217
C:\Users\CYMR90~1\AppData\Local\Temp\cc5BNH7j.s:27584  .debug_str:000000000001888c .LASF2218
C:\Users\CYMR90~1\AppData\Local\Temp\cc5BNH7j.s:32214  .debug_str:000000000002aefd .LASF2219
C:\Users\CYMR90~1\AppData\Local\Temp\cc5BNH7j.s:28816  .debug_str:000000000001da4b .LASF2220
C:\Users\CYMR90~1\AppData\Local\Temp\cc5BNH7j.s:27670  .debug_str:0000000000018e5c .LASF2221
C:\Users\CYMR90~1\AppData\Local\Temp\cc5BNH7j.s:26089  .debug_str:0000000000012933 .LASF2222
C:\Users\CYMR90~1\AppData\Local\Temp\cc5BNH7j.s:28306  .debug_str:000000000001b8de .LASF2223
C:\Users\CYMR90~1\AppData\Local\Temp\cc5BNH7j.s:30904  .debug_str:0000000000025c99 .LASF2224
C:\Users\CYMR90~1\AppData\Local\Temp\cc5BNH7j.s:21513  .debug_str:000000000000027b .LASF2225
C:\Users\CYMR90~1\AppData\Local\Temp\cc5BNH7j.s:22605  .debug_str:000000000000473a .LASF2226
C:\Users\CYMR90~1\AppData\Local\Temp\cc5BNH7j.s:27856  .debug_str:0000000000019b58 .LASF2227
C:\Users\CYMR90~1\AppData\Local\Temp\cc5BNH7j.s:27136  .debug_str:0000000000016da1 .LASF2228
C:\Users\CYMR90~1\AppData\Local\Temp\cc5BNH7j.s:28868  .debug_str:000000000001dd78 .LASF2229
C:\Users\CYMR90~1\AppData\Local\Temp\cc5BNH7j.s:22573  .debug_str:0000000000004516 .LASF2230
C:\Users\CYMR90~1\AppData\Local\Temp\cc5BNH7j.s:29092  .debug_str:000000000001ead2 .LASF2231
C:\Users\CYMR90~1\AppData\Local\Temp\cc5BNH7j.s:21887  .debug_str:00000000000019c3 .LASF2232
C:\Users\CYMR90~1\AppData\Local\Temp\cc5BNH7j.s:27844  .debug_str:0000000000019a94 .LASF2233
C:\Users\CYMR90~1\AppData\Local\Temp\cc5BNH7j.s:24573  .debug_str:000000000000c6f7 .LASF2234
C:\Users\CYMR90~1\AppData\Local\Temp\cc5BNH7j.s:22807  .debug_str:0000000000005434 .LASF2235
C:\Users\CYMR90~1\AppData\Local\Temp\cc5BNH7j.s:32398  .debug_str:000000000002bb4f .LASF2236
C:\Users\CYMR90~1\AppData\Local\Temp\cc5BNH7j.s:25031  .debug_str:000000000000e49f .LASF2237
C:\Users\CYMR90~1\AppData\Local\Temp\cc5BNH7j.s:29736  .debug_str:0000000000021234 .LASF2238
C:\Users\CYMR90~1\AppData\Local\Temp\cc5BNH7j.s:28772  .debug_str:000000000001d79e .LASF2239
C:\Users\CYMR90~1\AppData\Local\Temp\cc5BNH7j.s:28700  .debug_str:000000000001d2f7 .LASF2240
C:\Users\CYMR90~1\AppData\Local\Temp\cc5BNH7j.s:21949  .debug_str:0000000000001d6c .LASF2241
C:\Users\CYMR90~1\AppData\Local\Temp\cc5BNH7j.s:29754  .debug_str:0000000000021352 .LASF2242
C:\Users\CYMR90~1\AppData\Local\Temp\cc5BNH7j.s:31282  .debug_str:0000000000027469 .LASF2243
C:\Users\CYMR90~1\AppData\Local\Temp\cc5BNH7j.s:25939  .debug_str:0000000000011efa .LASF2244
C:\Users\CYMR90~1\AppData\Local\Temp\cc5BNH7j.s:27146  .debug_str:0000000000016e3d .LASF2245
C:\Users\CYMR90~1\AppData\Local\Temp\cc5BNH7j.s:24087  .debug_str:000000000000a5f7 .LASF2246
C:\Users\CYMR90~1\AppData\Local\Temp\cc5BNH7j.s:26729  .debug_str:00000000000151c4 .LASF2247
C:\Users\CYMR90~1\AppData\Local\Temp\cc5BNH7j.s:22309  .debug_str:0000000000003394 .LASF2248
C:\Users\CYMR90~1\AppData\Local\Temp\cc5BNH7j.s:29112  .debug_str:000000000001ec01 .LASF2249
C:\Users\CYMR90~1\AppData\Local\Temp\cc5BNH7j.s:28242  .debug_str:000000000001b536 .LASF2250
C:\Users\CYMR90~1\AppData\Local\Temp\cc5BNH7j.s:27306  .debug_str:00000000000177a7 .LASF2251
C:\Users\CYMR90~1\AppData\Local\Temp\cc5BNH7j.s:30506  .debug_str:0000000000024147 .LASF2252
C:\Users\CYMR90~1\AppData\Local\Temp\cc5BNH7j.s:26095  .debug_str:0000000000012990 .LASF2253
C:\Users\CYMR90~1\AppData\Local\Temp\cc5BNH7j.s:24839  .debug_str:000000000000d8b4 .LASF2254
C:\Users\CYMR90~1\AppData\Local\Temp\cc5BNH7j.s:23617  .debug_str:00000000000088c4 .LASF2255
C:\Users\CYMR90~1\AppData\Local\Temp\cc5BNH7j.s:25501  .debug_str:000000000001021d .LASF2256
C:\Users\CYMR90~1\AppData\Local\Temp\cc5BNH7j.s:28514  .debug_str:000000000001c5d7 .LASF2257
C:\Users\CYMR90~1\AppData\Local\Temp\cc5BNH7j.s:25795  .debug_str:000000000001150a .LASF2258
C:\Users\CYMR90~1\AppData\Local\Temp\cc5BNH7j.s:26017  .debug_str:0000000000012475 .LASF2259
C:\Users\CYMR90~1\AppData\Local\Temp\cc5BNH7j.s:25697  .debug_str:0000000000010ec4 .LASF2260
C:\Users\CYMR90~1\AppData\Local\Temp\cc5BNH7j.s:26777  .debug_str:0000000000015478 .LASF2261
C:\Users\CYMR90~1\AppData\Local\Temp\cc5BNH7j.s:22009  .debug_str:00000000000020ae .LASF2262
C:\Users\CYMR90~1\AppData\Local\Temp\cc5BNH7j.s:25081  .debug_str:000000000000e7ee .LASF2263
C:\Users\CYMR90~1\AppData\Local\Temp\cc5BNH7j.s:28888  .debug_str:000000000001deb9 .LASF2264
C:\Users\CYMR90~1\AppData\Local\Temp\cc5BNH7j.s:27948  .debug_str:000000000001a0a3 .LASF2265
C:\Users\CYMR90~1\AppData\Local\Temp\cc5BNH7j.s:24925  .debug_str:000000000000de35 .LASF2266
C:\Users\CYMR90~1\AppData\Local\Temp\cc5BNH7j.s:24285  .debug_str:000000000000b3b7 .LASF2267
C:\Users\CYMR90~1\AppData\Local\Temp\cc5BNH7j.s:27314  .debug_str:0000000000017861 .LASF2268
C:\Users\CYMR90~1\AppData\Local\Temp\cc5BNH7j.s:32132  .debug_str:000000000002aa2e .LASF2269
C:\Users\CYMR90~1\AppData\Local\Temp\cc5BNH7j.s:22627  .debug_str:000000000000491e .LASF2270
C:\Users\CYMR90~1\AppData\Local\Temp\cc5BNH7j.s:28394  .debug_str:000000000001be96 .LASF2271
C:\Users\CYMR90~1\AppData\Local\Temp\cc5BNH7j.s:28794  .debug_str:000000000001d902 .LASF2272
C:\Users\CYMR90~1\AppData\Local\Temp\cc5BNH7j.s:26623  .debug_str:0000000000014adb .LASF2273
C:\Users\CYMR90~1\AppData\Local\Temp\cc5BNH7j.s:31488  .debug_str:00000000000282e0 .LASF2274
C:\Users\CYMR90~1\AppData\Local\Temp\cc5BNH7j.s:28148  .debug_str:000000000001af5d .LASF2275
C:\Users\CYMR90~1\AppData\Local\Temp\cc5BNH7j.s:24845  .debug_str:000000000000d91f .LASF2276
C:\Users\CYMR90~1\AppData\Local\Temp\cc5BNH7j.s:22407  .debug_str:0000000000003a20 .LASF2277
C:\Users\CYMR90~1\AppData\Local\Temp\cc5BNH7j.s:21681  .debug_str:0000000000000cdd .LASF2278
C:\Users\CYMR90~1\AppData\Local\Temp\cc5BNH7j.s:31344  .debug_str:000000000002785e .LASF2279
C:\Users\CYMR90~1\AppData\Local\Temp\cc5BNH7j.s:29740  .debug_str:0000000000021272 .LASF2280
C:\Users\CYMR90~1\AppData\Local\Temp\cc5BNH7j.s:22811  .debug_str:0000000000005468 .LASF2281
C:\Users\CYMR90~1\AppData\Local\Temp\cc5BNH7j.s:27882  .debug_str:0000000000019cec .LASF2282
C:\Users\CYMR90~1\AppData\Local\Temp\cc5BNH7j.s:27202  .debug_str:0000000000017161 .LASF2283
C:\Users\CYMR90~1\AppData\Local\Temp\cc5BNH7j.s:28570  .debug_str:000000000001ca02 .LASF2284
C:\Users\CYMR90~1\AppData\Local\Temp\cc5BNH7j.s:28108  .debug_str:000000000001ac6a .LASF2285
C:\Users\CYMR90~1\AppData\Local\Temp\cc5BNH7j.s:31300  .debug_str:0000000000027567 .LASF2286
C:\Users\CYMR90~1\AppData\Local\Temp\cc5BNH7j.s:25703  .debug_str:0000000000010f1e .LASF2287
C:\Users\CYMR90~1\AppData\Local\Temp\cc5BNH7j.s:29894  .debug_str:0000000000021bfe .LASF2288
C:\Users\CYMR90~1\AppData\Local\Temp\cc5BNH7j.s:31798  .debug_str:0000000000029684 .LASF2289
C:\Users\CYMR90~1\AppData\Local\Temp\cc5BNH7j.s:25909  .debug_str:0000000000011d25 .LASF2290
C:\Users\CYMR90~1\AppData\Local\Temp\cc5BNH7j.s:32266  .debug_str:000000000002b2b3 .LASF2291
C:\Users\CYMR90~1\AppData\Local\Temp\cc5BNH7j.s:28980  .debug_str:000000000001e45c .LASF2292
C:\Users\CYMR90~1\AppData\Local\Temp\cc5BNH7j.s:22711  .debug_str:0000000000004e4c .LASF2293
C:\Users\CYMR90~1\AppData\Local\Temp\cc5BNH7j.s:31662  .debug_str:0000000000028e08 .LASF2294
C:\Users\CYMR90~1\AppData\Local\Temp\cc5BNH7j.s:32230  .debug_str:000000000002b035 .LASF2295
C:\Users\CYMR90~1\AppData\Local\Temp\cc5BNH7j.s:24905  .debug_str:000000000000dcd2 .LASF2296
C:\Users\CYMR90~1\AppData\Local\Temp\cc5BNH7j.s:24879  .debug_str:000000000000dadd .LASF2297
C:\Users\CYMR90~1\AppData\Local\Temp\cc5BNH7j.s:24265  .debug_str:000000000000b1db .LASF2298
C:\Users\CYMR90~1\AppData\Local\Temp\cc5BNH7j.s:26425  .debug_str:0000000000013e8e .LASF2299
C:\Users\CYMR90~1\AppData\Local\Temp\cc5BNH7j.s:31502  .debug_str:00000000000283d5 .LASF2300
C:\Users\CYMR90~1\AppData\Local\Temp\cc5BNH7j.s:25229  .debug_str:000000000000f0bc .LASF2301
C:\Users\CYMR90~1\AppData\Local\Temp\cc5BNH7j.s:28338  .debug_str:000000000001bafa .LASF2302
C:\Users\CYMR90~1\AppData\Local\Temp\cc5BNH7j.s:30636  .debug_str:0000000000024a05 .LASF2303
C:\Users\CYMR90~1\AppData\Local\Temp\cc5BNH7j.s:24837  .debug_str:000000000000d88d .LASF2304
C:\Users\CYMR90~1\AppData\Local\Temp\cc5BNH7j.s:29786  .debug_str:0000000000021523 .LASF2305
C:\Users\CYMR90~1\AppData\Local\Temp\cc5BNH7j.s:21761  .debug_str:00000000000011c6 .LASF2306
C:\Users\CYMR90~1\AppData\Local\Temp\cc5BNH7j.s:28052  .debug_str:000000000001a8dd .LASF2307
C:\Users\CYMR90~1\AppData\Local\Temp\cc5BNH7j.s:28534  .debug_str:000000000001c7b4 .LASF2308
C:\Users\CYMR90~1\AppData\Local\Temp\cc5BNH7j.s:22257  .debug_str:0000000000003038 .LASF2309
C:\Users\CYMR90~1\AppData\Local\Temp\cc5BNH7j.s:30926  .debug_str:0000000000025e0e .LASF2310
C:\Users\CYMR90~1\AppData\Local\Temp\cc5BNH7j.s:31736  .debug_str:000000000002927b .LASF2311
C:\Users\CYMR90~1\AppData\Local\Temp\cc5BNH7j.s:26463  .debug_str:000000000001410e .LASF2312
C:\Users\CYMR90~1\AppData\Local\Temp\cc5BNH7j.s:31454  .debug_str:000000000002801d .LASF2313
C:\Users\CYMR90~1\AppData\Local\Temp\cc5BNH7j.s:23319  .debug_str:0000000000007436 .LASF2314
C:\Users\CYMR90~1\AppData\Local\Temp\cc5BNH7j.s:29566  .debug_str:00000000000207c8 .LASF2315
C:\Users\CYMR90~1\AppData\Local\Temp\cc5BNH7j.s:23377  .debug_str:00000000000077e9 .LASF2316
C:\Users\CYMR90~1\AppData\Local\Temp\cc5BNH7j.s:28356  .debug_str:000000000001bc15 .LASF2317
C:\Users\CYMR90~1\AppData\Local\Temp\cc5BNH7j.s:31498  .debug_str:0000000000028394 .LASF2318
C:\Users\CYMR90~1\AppData\Local\Temp\cc5BNH7j.s:25117  .debug_str:000000000000ea36 .LASF2319
C:\Users\CYMR90~1\AppData\Local\Temp\cc5BNH7j.s:22639  .debug_str:00000000000049da .LASF2320
C:\Users\CYMR90~1\AppData\Local\Temp\cc5BNH7j.s:22183  .debug_str:0000000000002b86 .LASF2321
C:\Users\CYMR90~1\AppData\Local\Temp\cc5BNH7j.s:32706  .debug_str:000000000002cfc4 .LASF2322
C:\Users\CYMR90~1\AppData\Local\Temp\cc5BNH7j.s:22999  .debug_str:0000000000005fc8 .LASF2323
C:\Users\CYMR90~1\AppData\Local\Temp\cc5BNH7j.s:26585  .debug_str:000000000001489a .LASF2324
C:\Users\CYMR90~1\AppData\Local\Temp\cc5BNH7j.s:32292  .debug_str:000000000002b44d .LASF2325
C:\Users\CYMR90~1\AppData\Local\Temp\cc5BNH7j.s:24063  .debug_str:000000000000a4ba .LASF2326
C:\Users\CYMR90~1\AppData\Local\Temp\cc5BNH7j.s:27544  .debug_str:00000000000185c3 .LASF2327
C:\Users\CYMR90~1\AppData\Local\Temp\cc5BNH7j.s:22043  .debug_str:00000000000022b0 .LASF2328
C:\Users\CYMR90~1\AppData\Local\Temp\cc5BNH7j.s:26499  .debug_str:000000000001435a .LASF2329
C:\Users\CYMR90~1\AppData\Local\Temp\cc5BNH7j.s:23371  .debug_str:000000000000779c .LASF2330
C:\Users\CYMR90~1\AppData\Local\Temp\cc5BNH7j.s:24505  .debug_str:000000000000c268 .LASF2331
C:\Users\CYMR90~1\AppData\Local\Temp\cc5BNH7j.s:25545  .debug_str:00000000000104ae .LASF2332
C:\Users\CYMR90~1\AppData\Local\Temp\cc5BNH7j.s:29694  .debug_str:0000000000020f2a .LASF2333
C:\Users\CYMR90~1\AppData\Local\Temp\cc5BNH7j.s:31102  .debug_str:0000000000026908 .LASF2334
C:\Users\CYMR90~1\AppData\Local\Temp\cc5BNH7j.s:25559  .debug_str:0000000000010582 .LASF2335
C:\Users\CYMR90~1\AppData\Local\Temp\cc5BNH7j.s:25951  .debug_str:000000000001206f .LASF2336
C:\Users\CYMR90~1\AppData\Local\Temp\cc5BNH7j.s:25007  .debug_str:000000000000e331 .LASF2337
C:\Users\CYMR90~1\AppData\Local\Temp\cc5BNH7j.s:23013  .debug_str:00000000000060d2 .LASF2338
C:\Users\CYMR90~1\AppData\Local\Temp\cc5BNH7j.s:22089  .debug_str:0000000000002526 .LASF2339
C:\Users\CYMR90~1\AppData\Local\Temp\cc5BNH7j.s:28758  .debug_str:000000000001d6bf .LASF2340
C:\Users\CYMR90~1\AppData\Local\Temp\cc5BNH7j.s:30986  .debug_str:00000000000261bb .LASF2341
C:\Users\CYMR90~1\AppData\Local\Temp\cc5BNH7j.s:29348  .debug_str:000000000001fa4c .LASF2342
C:\Users\CYMR90~1\AppData\Local\Temp\cc5BNH7j.s:29364  .debug_str:000000000001fb24 .LASF2343
C:\Users\CYMR90~1\AppData\Local\Temp\cc5BNH7j.s:30402  .debug_str:0000000000023a15 .LASF2344
C:\Users\CYMR90~1\AppData\Local\Temp\cc5BNH7j.s:31208  .debug_str:0000000000026f4e .LASF2345
C:\Users\CYMR90~1\AppData\Local\Temp\cc5BNH7j.s:28460  .debug_str:000000000001c2b6 .LASF2346
C:\Users\CYMR90~1\AppData\Local\Temp\cc5BNH7j.s:28628  .debug_str:000000000001ce4c .LASF2347
C:\Users\CYMR90~1\AppData\Local\Temp\cc5BNH7j.s:23585  .debug_str:0000000000008692 .LASF2348
C:\Users\CYMR90~1\AppData\Local\Temp\cc5BNH7j.s:26305  .debug_str:00000000000137b2 .LASF2349
C:\Users\CYMR90~1\AppData\Local\Temp\cc5BNH7j.s:29838  .debug_str:000000000002182d .LASF2350
C:\Users\CYMR90~1\AppData\Local\Temp\cc5BNH7j.s:32096  .debug_str:000000000002a823 .LASF2351
C:\Users\CYMR90~1\AppData\Local\Temp\cc5BNH7j.s:30622  .debug_str:0000000000024916 .LASF2352
C:\Users\CYMR90~1\AppData\Local\Temp\cc5BNH7j.s:23163  .debug_str:00000000000069d0 .LASF2353
C:\Users\CYMR90~1\AppData\Local\Temp\cc5BNH7j.s:25455  .debug_str:000000000000ff2c .LASF2354
C:\Users\CYMR90~1\AppData\Local\Temp\cc5BNH7j.s:23107  .debug_str:0000000000006635 .LASF2355
C:\Users\CYMR90~1\AppData\Local\Temp\cc5BNH7j.s:32498  .debug_str:000000000002c27a .LASF2356
C:\Users\CYMR90~1\AppData\Local\Temp\cc5BNH7j.s:31920  .debug_str:0000000000029d71 .LASF2357
C:\Users\CYMR90~1\AppData\Local\Temp\cc5BNH7j.s:24757  .debug_str:000000000000d3d8 .LASF2358
C:\Users\CYMR90~1\AppData\Local\Temp\cc5BNH7j.s:23815  .debug_str:0000000000009501 .LASF2359
C:\Users\CYMR90~1\AppData\Local\Temp\cc5BNH7j.s:22401  .debug_str:00000000000039d3 .LASF2360
C:\Users\CYMR90~1\AppData\Local\Temp\cc5BNH7j.s:25467  .debug_str:0000000000010005 .LASF2361
C:\Users\CYMR90~1\AppData\Local\Temp\cc5BNH7j.s:24245  .debug_str:000000000000b0e6 .LASF2362
C:\Users\CYMR90~1\AppData\Local\Temp\cc5BNH7j.s:23043  .debug_str:0000000000006274 .LASF2363
C:\Users\CYMR90~1\AppData\Local\Temp\cc5BNH7j.s:30408  .debug_str:0000000000023a65 .LASF2364
C:\Users\CYMR90~1\AppData\Local\Temp\cc5BNH7j.s:29574  .debug_str:0000000000020843 .LASF2365
C:\Users\CYMR90~1\AppData\Local\Temp\cc5BNH7j.s:26011  .debug_str:0000000000012414 .LASF2366
C:\Users\CYMR90~1\AppData\Local\Temp\cc5BNH7j.s:30658  .debug_str:0000000000024ba3 .LASF2367
C:\Users\CYMR90~1\AppData\Local\Temp\cc5BNH7j.s:31278  .debug_str:000000000002743c .LASF2368
C:\Users\CYMR90~1\AppData\Local\Temp\cc5BNH7j.s:23801  .debug_str:00000000000093de .LASF2369
C:\Users\CYMR90~1\AppData\Local\Temp\cc5BNH7j.s:25111  .debug_str:000000000000e9d3 .LASF2370
C:\Users\CYMR90~1\AppData\Local\Temp\cc5BNH7j.s:23173  .debug_str:0000000000006a8d .LASF2371
C:\Users\CYMR90~1\AppData\Local\Temp\cc5BNH7j.s:25519  .debug_str:0000000000010325 .LASF2372
C:\Users\CYMR90~1\AppData\Local\Temp\cc5BNH7j.s:32378  .debug_str:000000000002b9f8 .LASF2373
C:\Users\CYMR90~1\AppData\Local\Temp\cc5BNH7j.s:31054  .debug_str:000000000002660b .LASF2374
C:\Users\CYMR90~1\AppData\Local\Temp\cc5BNH7j.s:21619  .debug_str:00000000000008de .LASF2375
C:\Users\CYMR90~1\AppData\Local\Temp\cc5BNH7j.s:25913  .debug_str:0000000000011d7a .LASF2376
C:\Users\CYMR90~1\AppData\Local\Temp\cc5BNH7j.s:29058  .debug_str:000000000001e91d .LASF2377
C:\Users\CYMR90~1\AppData\Local\Temp\cc5BNH7j.s:32324  .debug_str:000000000002b6a4 .LASF2378
C:\Users\CYMR90~1\AppData\Local\Temp\cc5BNH7j.s:24247  .debug_str:000000000000b10b .LASF2379
C:\Users\CYMR90~1\AppData\Local\Temp\cc5BNH7j.s:23215  .debug_str:0000000000006d4d .LASF2380
C:\Users\CYMR90~1\AppData\Local\Temp\cc5BNH7j.s:30614  .debug_str:0000000000024893 .LASF2381
C:\Users\CYMR90~1\AppData\Local\Temp\cc5BNH7j.s:30366  .debug_str:0000000000023822 .LASF2382
C:\Users\CYMR90~1\AppData\Local\Temp\cc5BNH7j.s:25689  .debug_str:0000000000010e80 .LASF2383
C:\Users\CYMR90~1\AppData\Local\Temp\cc5BNH7j.s:28836  .debug_str:000000000001db8a .LASF2384
C:\Users\CYMR90~1\AppData\Local\Temp\cc5BNH7j.s:32068  .debug_str:000000000002a693 .LASF2385
C:\Users\CYMR90~1\AppData\Local\Temp\cc5BNH7j.s:21921  .debug_str:0000000000001bd7 .LASF2386
C:\Users\CYMR90~1\AppData\Local\Temp\cc5BNH7j.s:26593  .debug_str:0000000000014902 .LASF2387
C:\Users\CYMR90~1\AppData\Local\Temp\cc5BNH7j.s:31280  .debug_str:000000000002744e .LASF2388
C:\Users\CYMR90~1\AppData\Local\Temp\cc5BNH7j.s:28204  .debug_str:000000000001b309 .LASF2389
C:\Users\CYMR90~1\AppData\Local\Temp\cc5BNH7j.s:29356  .debug_str:000000000001fac4 .LASF2390
C:\Users\CYMR90~1\AppData\Local\Temp\cc5BNH7j.s:22783  .debug_str:00000000000052ac .LASF2391
C:\Users\CYMR90~1\AppData\Local\Temp\cc5BNH7j.s:27470  .debug_str:0000000000018180 .LASF2392
C:\Users\CYMR90~1\AppData\Local\Temp\cc5BNH7j.s:32168  .debug_str:000000000002ac61 .LASF2393
C:\Users\CYMR90~1\AppData\Local\Temp\cc5BNH7j.s:28314  .debug_str:000000000001b966 .LASF2394
C:\Users\CYMR90~1\AppData\Local\Temp\cc5BNH7j.s:31338  .debug_str:00000000000277f9 .LASF2395
C:\Users\CYMR90~1\AppData\Local\Temp\cc5BNH7j.s:24769  .debug_str:000000000000d4a1 .LASF2396
C:\Users\CYMR90~1\AppData\Local\Temp\cc5BNH7j.s:29412  .debug_str:000000000001fe0e .LASF2397
C:\Users\CYMR90~1\AppData\Local\Temp\cc5BNH7j.s:22831  .debug_str:0000000000005562 .LASF2398
C:\Users\CYMR90~1\AppData\Local\Temp\cc5BNH7j.s:27524  .debug_str:00000000000184c7 .LASF2399
C:\Users\CYMR90~1\AppData\Local\Temp\cc5BNH7j.s:32226  .debug_str:000000000002b004 .LASF2400
C:\Users\CYMR90~1\AppData\Local\Temp\cc5BNH7j.s:32100  .debug_str:000000000002a85b .LASF2401
C:\Users\CYMR90~1\AppData\Local\Temp\cc5BNH7j.s:24039  .debug_str:000000000000a342 .LASF2402
C:\Users\CYMR90~1\AppData\Local\Temp\cc5BNH7j.s:27218  .debug_str:000000000001725d .LASF2403
C:\Users\CYMR90~1\AppData\Local\Temp\cc5BNH7j.s:30412  .debug_str:0000000000023a96 .LASF2404
C:\Users\CYMR90~1\AppData\Local\Temp\cc5BNH7j.s:22429  .debug_str:0000000000003b60 .LASF2405
C:\Users\CYMR90~1\AppData\Local\Temp\cc5BNH7j.s:25567  .debug_str:00000000000106b8 .LASF2406
C:\Users\CYMR90~1\AppData\Local\Temp\cc5BNH7j.s:28730  .debug_str:000000000001d4e2 .LASF2407
C:\Users\CYMR90~1\AppData\Local\Temp\cc5BNH7j.s:31946  .debug_str:0000000000029f27 .LASF2408
C:\Users\CYMR90~1\AppData\Local\Temp\cc5BNH7j.s:26351  .debug_str:0000000000013a36 .LASF2409
C:\Users\CYMR90~1\AppData\Local\Temp\cc5BNH7j.s:24747  .debug_str:000000000000d331 .LASF2410
C:\Users\CYMR90~1\AppData\Local\Temp\cc5BNH7j.s:28098  .debug_str:000000000001abc7 .LASF2411
C:\Users\CYMR90~1\AppData\Local\Temp\cc5BNH7j.s:21509  .debug_str:000000000000023a .LASF2412
C:\Users\CYMR90~1\AppData\Local\Temp\cc5BNH7j.s:21521  .debug_str:0000000000000325 .LASF2413
C:\Users\CYMR90~1\AppData\Local\Temp\cc5BNH7j.s:30828  .debug_str:0000000000025803 .LASF2414
C:\Users\CYMR90~1\AppData\Local\Temp\cc5BNH7j.s:24281  .debug_str:000000000000b301 .LASF2415
C:\Users\CYMR90~1\AppData\Local\Temp\cc5BNH7j.s:28904  .debug_str:000000000001dfaa .LASF2416
C:\Users\CYMR90~1\AppData\Local\Temp\cc5BNH7j.s:24603  .debug_str:000000000000c9d8 .LASF2417
C:\Users\CYMR90~1\AppData\Local\Temp\cc5BNH7j.s:27011  .debug_str:0000000000016327 .LASF2418
C:\Users\CYMR90~1\AppData\Local\Temp\cc5BNH7j.s:29114  .debug_str:000000000001ec30 .LASF2419
C:\Users\CYMR90~1\AppData\Local\Temp\cc5BNH7j.s:26225  .debug_str:0000000000013210 .LASF2420
C:\Users\CYMR90~1\AppData\Local\Temp\cc5BNH7j.s:30880  .debug_str:0000000000025b29 .LASF2421
C:\Users\CYMR90~1\AppData\Local\Temp\cc5BNH7j.s:24323  .debug_str:000000000000b660 .LASF2422
C:\Users\CYMR90~1\AppData\Local\Temp\cc5BNH7j.s:28952  .debug_str:000000000001e2a3 .LASF2423
C:\Users\CYMR90~1\AppData\Local\Temp\cc5BNH7j.s:22397  .debug_str:0000000000003988 .LASF2424
C:\Users\CYMR90~1\AppData\Local\Temp\cc5BNH7j.s:27069  .debug_str:00000000000166fc .LASF2425
C:\Users\CYMR90~1\AppData\Local\Temp\cc5BNH7j.s:24163  .debug_str:000000000000ab05 .LASF2426
C:\Users\CYMR90~1\AppData\Local\Temp\cc5BNH7j.s:27244  .debug_str:00000000000173c5 .LASF2427
C:\Users\CYMR90~1\AppData\Local\Temp\cc5BNH7j.s:30452  .debug_str:0000000000023d2e .LASF2428
C:\Users\CYMR90~1\AppData\Local\Temp\cc5BNH7j.s:22379  .debug_str:0000000000003842 .LASF2429
C:\Users\CYMR90~1\AppData\Local\Temp\cc5BNH7j.s:25601  .debug_str:00000000000108a9 .LASF2430
C:\Users\CYMR90~1\AppData\Local\Temp\cc5BNH7j.s:25843  .debug_str:00000000000118ca .LASF2431
C:\Users\CYMR90~1\AppData\Local\Temp\cc5BNH7j.s:31986  .debug_str:000000000002a151 .LASF2432
C:\Users\CYMR90~1\AppData\Local\Temp\cc5BNH7j.s:22579  .debug_str:0000000000004587 .LASF2433
C:\Users\CYMR90~1\AppData\Local\Temp\cc5BNH7j.s:31250  .debug_str:00000000000272cb .LASF2434
C:\Users\CYMR90~1\AppData\Local\Temp\cc5BNH7j.s:30212  .debug_str:0000000000022ead .LASF2435
C:\Users\CYMR90~1\AppData\Local\Temp\cc5BNH7j.s:31554  .debug_str:0000000000028776 .LASF2436
C:\Users\CYMR90~1\AppData\Local\Temp\cc5BNH7j.s:24981  .debug_str:000000000000e19e .LASF2437
C:\Users\CYMR90~1\AppData\Local\Temp\cc5BNH7j.s:29632  .debug_str:0000000000020bdb .LASF2438
C:\Users\CYMR90~1\AppData\Local\Temp\cc5BNH7j.s:23063  .debug_str:00000000000063bc .LASF2439
C:\Users\CYMR90~1\AppData\Local\Temp\cc5BNH7j.s:27758  .debug_str:000000000001949f .LASF2440
C:\Users\CYMR90~1\AppData\Local\Temp\cc5BNH7j.s:32444  .debug_str:000000000002be8f .LASF2441
C:\Users\CYMR90~1\AppData\Local\Temp\cc5BNH7j.s:25851  .debug_str:000000000001192e .LASF2442
C:\Users\CYMR90~1\AppData\Local\Temp\cc5BNH7j.s:30518  .debug_str:0000000000024241 .LASF2443
C:\Users\CYMR90~1\AppData\Local\Temp\cc5BNH7j.s:28602  .debug_str:000000000001cc0d .LASF2444
C:\Users\CYMR90~1\AppData\Local\Temp\cc5BNH7j.s:29688  .debug_str:0000000000020ebf .LASF2445
C:\Users\CYMR90~1\AppData\Local\Temp\cc5BNH7j.s:23111  .debug_str:000000000000666e .LASF2446
C:\Users\CYMR90~1\AppData\Local\Temp\cc5BNH7j.s:27808  .debug_str:0000000000019845 .LASF2447
C:\Users\CYMR90~1\AppData\Local\Temp\cc5BNH7j.s:32494  .debug_str:000000000002c23b .LASF2448
C:\Users\CYMR90~1\AppData\Local\Temp\cc5BNH7j.s:25905  .debug_str:0000000000011cd7 .LASF2449
C:\Users\CYMR90~1\AppData\Local\Temp\cc5BNH7j.s:25823  .debug_str:00000000000116ee .LASF2450
C:\Users\CYMR90~1\AppData\Local\Temp\cc5BNH7j.s:29378  .debug_str:000000000001fc0b .LASF2451
C:\Users\CYMR90~1\AppData\Local\Temp\cc5BNH7j.s:30676  .debug_str:0000000000024cb2 .LASF2452
C:\Users\CYMR90~1\AppData\Local\Temp\cc5BNH7j.s:29026  .debug_str:000000000001e74b .LASF2453
C:\Users\CYMR90~1\AppData\Local\Temp\cc5BNH7j.s:27654  .debug_str:0000000000018d80 .LASF2454
C:\Users\CYMR90~1\AppData\Local\Temp\cc5BNH7j.s:30830  .debug_str:000000000002581c .LASF2455
C:\Users\CYMR90~1\AppData\Local\Temp\cc5BNH7j.s:24225  .debug_str:000000000000afce .LASF2456
C:\Users\CYMR90~1\AppData\Local\Temp\cc5BNH7j.s:25983  .debug_str:000000000001227b .LASF2457
C:\Users\CYMR90~1\AppData\Local\Temp\cc5BNH7j.s:29122  .debug_str:000000000001ec75 .LASF2458
C:\Users\CYMR90~1\AppData\Local\Temp\cc5BNH7j.s:30604  .debug_str:0000000000024809 .LASF2459
C:\Users\CYMR90~1\AppData\Local\Temp\cc5BNH7j.s:24229  .debug_str:000000000000b00b .LASF2460
C:\Users\CYMR90~1\AppData\Local\Temp\cc5BNH7j.s:30252  .debug_str:00000000000230d7 .LASF2461
C:\Users\CYMR90~1\AppData\Local\Temp\cc5BNH7j.s:32320  .debug_str:000000000002b614 .LASF2462
C:\Users\CYMR90~1\AppData\Local\Temp\cc5BNH7j.s:28614  .debug_str:000000000001cd77 .LASF2463
C:\Users\CYMR90~1\AppData\Local\Temp\cc5BNH7j.s:22049  .debug_str:00000000000022fc .LASF2464
C:\Users\CYMR90~1\AppData\Local\Temp\cc5BNH7j.s:26709  .debug_str:0000000000015087 .LASF2465
C:\Users\CYMR90~1\AppData\Local\Temp\cc5BNH7j.s:31404  .debug_str:0000000000027c9e .LASF2466
C:\Users\CYMR90~1\AppData\Local\Temp\cc5BNH7j.s:24829  .debug_str:000000000000d824 .LASF2467
C:\Users\CYMR90~1\AppData\Local\Temp\cc5BNH7j.s:29480  .debug_str:0000000000020214 .LASF2468
C:\Users\CYMR90~1\AppData\Local\Temp\cc5BNH7j.s:27596  .debug_str:0000000000018934 .LASF2469
C:\Users\CYMR90~1\AppData\Local\Temp\cc5BNH7j.s:22457  .debug_str:0000000000003d39 .LASF2470
C:\Users\CYMR90~1\AppData\Local\Temp\cc5BNH7j.s:22105  .debug_str:000000000000266a .LASF2471
C:\Users\CYMR90~1\AppData\Local\Temp\cc5BNH7j.s:26275  .debug_str:00000000000135c4 .LASF2472
C:\Users\CYMR90~1\AppData\Local\Temp\cc5BNH7j.s:31458  .debug_str:0000000000028101 .LASF2473
C:\Users\CYMR90~1\AppData\Local\Temp\cc5BNH7j.s:24883  .debug_str:000000000000db2e .LASF2474
C:\Users\CYMR90~1\AppData\Local\Temp\cc5BNH7j.s:29536  .debug_str:00000000000205c7 .LASF2475
C:\Users\CYMR90~1\AppData\Local\Temp\cc5BNH7j.s:31680  .debug_str:0000000000028f2a .LASF2476
C:\Users\CYMR90~1\AppData\Local\Temp\cc5BNH7j.s:22243  .debug_str:0000000000002f2b .LASF2477
C:\Users\CYMR90~1\AppData\Local\Temp\cc5BNH7j.s:26789  .debug_str:0000000000015503 .LASF2478
C:\Users\CYMR90~1\AppData\Local\Temp\cc5BNH7j.s:31444  .debug_str:0000000000027f95 .LASF2479
C:\Users\CYMR90~1\AppData\Local\Temp\cc5BNH7j.s:29806  .debug_str:0000000000021683 .LASF2480
C:\Users\CYMR90~1\AppData\Local\Temp\cc5BNH7j.s:28208  .debug_str:000000000001b34a .LASF2481
C:\Users\CYMR90~1\AppData\Local\Temp\cc5BNH7j.s:28320  .debug_str:000000000001b9b1 .LASF2482
C:\Users\CYMR90~1\AppData\Local\Temp\cc5BNH7j.s:31530  .debug_str:0000000000028609 .LASF2483
C:\Users\CYMR90~1\AppData\Local\Temp\cc5BNH7j.s:23463  .debug_str:0000000000007e26 .LASF2484
C:\Users\CYMR90~1\AppData\Local\Temp\cc5BNH7j.s:26563  .debug_str:0000000000014769 .LASF2485
C:\Users\CYMR90~1\AppData\Local\Temp\cc5BNH7j.s:26279  .debug_str:00000000000135f1 .LASF2486
C:\Users\CYMR90~1\AppData\Local\Temp\cc5BNH7j.s:30940  .debug_str:0000000000025eef .LASF2487
C:\Users\CYMR90~1\AppData\Local\Temp\cc5BNH7j.s:24371  .debug_str:000000000000b95f .LASF2488
C:\Users\CYMR90~1\AppData\Local\Temp\cc5BNH7j.s:29004  .debug_str:000000000001e5a4 .LASF2489
C:\Users\CYMR90~1\AppData\Local\Temp\cc5BNH7j.s:22447  .debug_str:0000000000003ca6 .LASF2490
C:\Users\CYMR90~1\AppData\Local\Temp\cc5BNH7j.s:27132  .debug_str:0000000000016d5c .LASF2491
C:\Users\CYMR90~1\AppData\Local\Temp\cc5BNH7j.s:31816  .debug_str:0000000000029781 .LASF2492
C:\Users\CYMR90~1\AppData\Local\Temp\cc5BNH7j.s:25243  .debug_str:000000000000f1a1 .LASF2493
C:\Users\CYMR90~1\AppData\Local\Temp\cc5BNH7j.s:23325  .debug_str:0000000000007497 .LASF2494
C:\Users\CYMR90~1\AppData\Local\Temp\cc5BNH7j.s:24423  .debug_str:000000000000bd49 .LASF2495
C:\Users\CYMR90~1\AppData\Local\Temp\cc5BNH7j.s:29048  .debug_str:000000000001e8a8 .LASF2496
C:\Users\CYMR90~1\AppData\Local\Temp\cc5BNH7j.s:22491  .debug_str:0000000000003f59 .LASF2497
C:\Users\CYMR90~1\AppData\Local\Temp\cc5BNH7j.s:21889  .debug_str:00000000000019e4 .LASF2498
C:\Users\CYMR90~1\AppData\Local\Temp\cc5BNH7j.s:31868  .debug_str:0000000000029aa6 .LASF2499
C:\Users\CYMR90~1\AppData\Local\Temp\cc5BNH7j.s:25305  .debug_str:000000000000f55e .LASF2500
C:\Users\CYMR90~1\AppData\Local\Temp\cc5BNH7j.s:25021  .debug_str:000000000000e402 .LASF2501
C:\Users\CYMR90~1\AppData\Local\Temp\cc5BNH7j.s:28218  .debug_str:000000000001b3f8 .LASF2502
C:\Users\CYMR90~1\AppData\Local\Temp\cc5BNH7j.s:31414  .debug_str:0000000000027d45 .LASF2503
C:\Users\CYMR90~1\AppData\Local\Temp\cc5BNH7j.s:23341  .debug_str:00000000000075b2 .LASF2504
C:\Users\CYMR90~1\AppData\Local\Temp\cc5BNH7j.s:26449  .debug_str:0000000000014003 .LASF2505
C:\Users\CYMR90~1\AppData\Local\Temp\cc5BNH7j.s:29630  .debug_str:0000000000020bc8 .LASF2506
C:\Users\CYMR90~1\AppData\Local\Temp\cc5BNH7j.s:27646  .debug_str:0000000000018d22 .LASF2507
C:\Users\CYMR90~1\AppData\Local\Temp\cc5BNH7j.s:24795  .debug_str:000000000000d63a .LASF2508
C:\Users\CYMR90~1\AppData\Local\Temp\cc5BNH7j.s:28004  .debug_str:000000000001a56c .LASF2509
C:\Users\CYMR90~1\AppData\Local\Temp\cc5BNH7j.s:31178  .debug_str:0000000000026dc4 .LASF2510
C:\Users\CYMR90~1\AppData\Local\Temp\cc5BNH7j.s:31500  .debug_str:00000000000283c0 .LASF2511
C:\Users\CYMR90~1\AppData\Local\Temp\cc5BNH7j.s:24927  .debug_str:000000000000de55 .LASF2512
C:\Users\CYMR90~1\AppData\Local\Temp\cc5BNH7j.s:29578  .debug_str:0000000000020872 .LASF2513
C:\Users\CYMR90~1\AppData\Local\Temp\cc5BNH7j.s:22991  .debug_str:0000000000005f32 .LASF2514
C:\Users\CYMR90~1\AppData\Local\Temp\cc5BNH7j.s:27698  .debug_str:0000000000019117 .LASF2515
C:\Users\CYMR90~1\AppData\Local\Temp\cc5BNH7j.s:28462  .debug_str:000000000001c2d3 .LASF2516
C:\Users\CYMR90~1\AppData\Local\Temp\cc5BNH7j.s:25793  .debug_str:00000000000114f5 .LASF2517
C:\Users\CYMR90~1\AppData\Local\Temp\cc5BNH7j.s:30462  .debug_str:0000000000023d9e .LASF2518
C:\Users\CYMR90~1\AppData\Local\Temp\cc5BNH7j.s:28552  .debug_str:000000000001c909 .LASF2519
C:\Users\CYMR90~1\AppData\Local\Temp\cc5BNH7j.s:29722  .debug_str:00000000000210c2 .LASF2520
C:\Users\CYMR90~1\AppData\Local\Temp\cc5BNH7j.s:23143  .debug_str:000000000000689e .LASF2521
C:\Users\CYMR90~1\AppData\Local\Temp\cc5BNH7j.s:27834  .debug_str:00000000000199fc .LASF2522
C:\Users\CYMR90~1\AppData\Local\Temp\cc5BNH7j.s:32522  .debug_str:000000000002c3f9 .LASF2523
C:\Users\CYMR90~1\AppData\Local\Temp\cc5BNH7j.s:25931  .debug_str:0000000000011e7f .LASF2524
C:\Users\CYMR90~1\AppData\Local\Temp\cc5BNH7j.s:30586  .debug_str:0000000000024663 .LASF2525
C:\Users\CYMR90~1\AppData\Local\Temp\cc5BNH7j.s:26129  .debug_str:0000000000012bc9 .LASF2526
C:\Users\CYMR90~1\AppData\Local\Temp\cc5BNH7j.s:22333  .debug_str:000000000000352b .LASF2527
C:\Users\CYMR90~1\AppData\Local\Temp\cc5BNH7j.s:27494  .debug_str:00000000000182ee .LASF2528
C:\Users\CYMR90~1\AppData\Local\Temp\cc5BNH7j.s:23873  .debug_str:00000000000098e6 .LASF2529
C:\Users\CYMR90~1\AppData\Local\Temp\cc5BNH7j.s:22663  .debug_str:0000000000004b74 .LASF2530
C:\Users\CYMR90~1\AppData\Local\Temp\cc5BNH7j.s:30900  .debug_str:0000000000025c56 .LASF2531
C:\Users\CYMR90~1\AppData\Local\Temp\cc5BNH7j.s:26913  .debug_str:0000000000015ccd .LASF2532
C:\Users\CYMR90~1\AppData\Local\Temp\cc5BNH7j.s:26679  .debug_str:0000000000014ec5 .LASF2533
C:\Users\CYMR90~1\AppData\Local\Temp\cc5BNH7j.s:27053  .debug_str:0000000000016605 .LASF2534
C:\Users\CYMR90~1\AppData\Local\Temp\cc5BNH7j.s:23937  .debug_str:0000000000009cbb .LASF2535
C:\Users\CYMR90~1\AppData\Local\Temp\cc5BNH7j.s:30566  .debug_str:0000000000024523 .LASF2536
C:\Users\CYMR90~1\AppData\Local\Temp\cc5BNH7j.s:31630  .debug_str:0000000000028bf1 .LASF2537
C:\Users\CYMR90~1\AppData\Local\Temp\cc5BNH7j.s:21585  .debug_str:00000000000006c3 .LASF2538
C:\Users\CYMR90~1\AppData\Local\Temp\cc5BNH7j.s:23361  .debug_str:00000000000076f4 .LASF2539
C:\Users\CYMR90~1\AppData\Local\Temp\cc5BNH7j.s:22373  .debug_str:00000000000037ef .LASF2540
C:\Users\CYMR90~1\AppData\Local\Temp\cc5BNH7j.s:30794  .debug_str:000000000002555a .LASF2541
C:\Users\CYMR90~1\AppData\Local\Temp\cc5BNH7j.s:25933  .debug_str:0000000000011e94 .LASF2542
C:\Users\CYMR90~1\AppData\Local\Temp\cc5BNH7j.s:24711  .debug_str:000000000000d048 .LASF2543
C:\Users\CYMR90~1\AppData\Local\Temp\cc5BNH7j.s:29312  .debug_str:000000000001f7f3 .LASF2544
C:\Users\CYMR90~1\AppData\Local\Temp\cc5BNH7j.s:28432  .debug_str:000000000001c125 .LASF2545
C:\Users\CYMR90~1\AppData\Local\Temp\cc5BNH7j.s:22421  .debug_str:0000000000003ae1 .LASF2546
C:\Users\CYMR90~1\AppData\Local\Temp\cc5BNH7j.s:30948  .debug_str:0000000000025f7f .LASF2547
C:\Users\CYMR90~1\AppData\Local\Temp\cc5BNH7j.s:24685  .debug_str:000000000000cea8 .LASF2548
C:\Users\CYMR90~1\AppData\Local\Temp\cc5BNH7j.s:23779  .debug_str:0000000000009296 .LASF2549
C:\Users\CYMR90~1\AppData\Local\Temp\cc5BNH7j.s:22755  .debug_str:00000000000050ec .LASF2550
C:\Users\CYMR90~1\AppData\Local\Temp\cc5BNH7j.s:31288  .debug_str:00000000000274ce .LASF2551
C:\Users\CYMR90~1\AppData\Local\Temp\cc5BNH7j.s:31584  .debug_str:0000000000028967 .LASF2552
C:\Users\CYMR90~1\AppData\Local\Temp\cc5BNH7j.s:25791  .debug_str:00000000000114d3 .LASF2553
C:\Users\CYMR90~1\AppData\Local\Temp\cc5BNH7j.s:29672  .debug_str:0000000000020df7 .LASF2554
C:\Users\CYMR90~1\AppData\Local\Temp\cc5BNH7j.s:26835  .debug_str:00000000000157a2 .LASF2555
C:\Users\CYMR90~1\AppData\Local\Temp\cc5BNH7j.s:27396  .debug_str:0000000000017d42 .LASF2556
C:\Users\CYMR90~1\AppData\Local\Temp\cc5BNH7j.s:26257  .debug_str:00000000000134a1 .LASF2557
C:\Users\CYMR90~1\AppData\Local\Temp\cc5BNH7j.s:26735  .debug_str:0000000000015236 .LASF2558
C:\Users\CYMR90~1\AppData\Local\Temp\cc5BNH7j.s:25459  .debug_str:000000000000ff6b .LASF2559
C:\Users\CYMR90~1\AppData\Local\Temp\cc5BNH7j.s:25741  .debug_str:0000000000011191 .LASF2560
C:\Users\CYMR90~1\AppData\Local\Temp\cc5BNH7j.s:24833  .debug_str:000000000000d852 .LASF2561
C:\Users\CYMR90~1\AppData\Local\Temp\cc5BNH7j.s:23853  .debug_str:0000000000009737 .LASF2562
C:\Users\CYMR90~1\AppData\Local\Temp\cc5BNH7j.s:32286  .debug_str:000000000002b403 .LASF2563
C:\Users\CYMR90~1\AppData\Local\Temp\cc5BNH7j.s:25483  .debug_str:000000000001011e .LASF2564
C:\Users\CYMR90~1\AppData\Local\Temp\cc5BNH7j.s:31624  .debug_str:0000000000028b94 .LASF2565
C:\Users\CYMR90~1\AppData\Local\Temp\cc5BNH7j.s:30354  .debug_str:000000000002375b .LASF2566
C:\Users\CYMR90~1\AppData\Local\Temp\cc5BNH7j.s:27226  .debug_str:00000000000172cc .LASF2567
C:\Users\CYMR90~1\AppData\Local\Temp\cc5BNH7j.s:26853  .debug_str:00000000000158d8 .LASF2568
C:\Users\CYMR90~1\AppData\Local\Temp\cc5BNH7j.s:26981  .debug_str:000000000001618a .LASF2569
C:\Users\CYMR90~1\AppData\Local\Temp\cc5BNH7j.s:31310  .debug_str:000000000002760e .LASF2570
C:\Users\CYMR90~1\AppData\Local\Temp\cc5BNH7j.s:24701  .debug_str:000000000000cfac .LASF2571
C:\Users\CYMR90~1\AppData\Local\Temp\cc5BNH7j.s:29094  .debug_str:000000000001eaf3 .LASF2572
C:\Users\CYMR90~1\AppData\Local\Temp\cc5BNH7j.s:23263  .debug_str:0000000000007087 .LASF2573
C:\Users\CYMR90~1\AppData\Local\Temp\cc5BNH7j.s:21723  .debug_str:0000000000000fa9 .LASF2574
C:\Users\CYMR90~1\AppData\Local\Temp\cc5BNH7j.s:28088  .debug_str:000000000001ab43 .LASF2575
C:\Users\CYMR90~1\AppData\Local\Temp\cc5BNH7j.s:24109  .debug_str:000000000000a79b .LASF2576
C:\Users\CYMR90~1\AppData\Local\Temp\cc5BNH7j.s:26961  .debug_str:0000000000016053 .LASF2577
C:\Users\CYMR90~1\AppData\Local\Temp\cc5BNH7j.s:24421  .debug_str:000000000000bd31 .LASF2578
C:\Users\CYMR90~1\AppData\Local\Temp\cc5BNH7j.s:24551  .debug_str:000000000000c532 .LASF2579
C:\Users\CYMR90~1\AppData\Local\Temp\cc5BNH7j.s:28472  .debug_str:000000000001c34c .LASF2580
C:\Users\CYMR90~1\AppData\Local\Temp\cc5BNH7j.s:22701  .debug_str:0000000000004db0 .LASF2581
C:\Users\CYMR90~1\AppData\Local\Temp\cc5BNH7j.s:28326  .debug_str:000000000001ba08 .LASF2582
C:\Users\CYMR90~1\AppData\Local\Temp\cc5BNH7j.s:26839  .debug_str:000000000001580b .LASF2583
C:\Users\CYMR90~1\AppData\Local\Temp\cc5BNH7j.s:31768  .debug_str:00000000000294b5 .LASF2584
C:\Users\CYMR90~1\AppData\Local\Temp\cc5BNH7j.s:29960  .debug_str:0000000000021fde .LASF2585
C:\Users\CYMR90~1\AppData\Local\Temp\cc5BNH7j.s:22669  .debug_str:0000000000004bd9 .LASF2586
C:\Users\CYMR90~1\AppData\Local\Temp\cc5BNH7j.s:21737  .debug_str:0000000000001065 .LASF2587
C:\Users\CYMR90~1\AppData\Local\Temp\cc5BNH7j.s:32048  .debug_str:000000000002a54e .LASF2588
C:\Users\CYMR90~1\AppData\Local\Temp\cc5BNH7j.s:21679  .debug_str:0000000000000cbd .LASF2589
C:\Users\CYMR90~1\AppData\Local\Temp\cc5BNH7j.s:29236  .debug_str:000000000001f379 .LASF2590
C:\Users\CYMR90~1\AppData\Local\Temp\cc5BNH7j.s:23851  .debug_str:0000000000009717 .LASF2591
C:\Users\CYMR90~1\AppData\Local\Temp\cc5BNH7j.s:26109  .debug_str:0000000000012aa7 .LASF2592
C:\Users\CYMR90~1\AppData\Local\Temp\cc5BNH7j.s:23907  .debug_str:0000000000009b04 .LASF2593
C:\Users\CYMR90~1\AppData\Local\Temp\cc5BNH7j.s:29974  .debug_str:00000000000220a7 .LASF2594
C:\Users\CYMR90~1\AppData\Local\Temp\cc5BNH7j.s:28336  .debug_str:000000000001bad8 .LASF2595
C:\Users\CYMR90~1\AppData\Local\Temp\cc5BNH7j.s:27486  .debug_str:0000000000018286 .LASF2596
C:\Users\CYMR90~1\AppData\Local\Temp\cc5BNH7j.s:29046  .debug_str:000000000001e886 .LASF2597
C:\Users\CYMR90~1\AppData\Local\Temp\cc5BNH7j.s:32612  .debug_str:000000000002c98b .LASF2598
C:\Users\CYMR90~1\AppData\Local\Temp\cc5BNH7j.s:21917  .debug_str:0000000000001b9d .LASF2599
C:\Users\CYMR90~1\AppData\Local\Temp\cc5BNH7j.s:26361  .debug_str:0000000000013adb .LASF2600
C:\Users\CYMR90~1\AppData\Local\Temp\cc5BNH7j.s:29936  .debug_str:0000000000021e54 .LASF2601
C:\Users\CYMR90~1\AppData\Local\Temp\cc5BNH7j.s:32396  .debug_str:000000000002bb31 .LASF2602
C:\Users\CYMR90~1\AppData\Local\Temp\cc5BNH7j.s:25797  .debug_str:0000000000011539 .LASF2603
C:\Users\CYMR90~1\AppData\Local\Temp\cc5BNH7j.s:25133  .debug_str:000000000000eb60 .LASF2604
C:\Users\CYMR90~1\AppData\Local\Temp\cc5BNH7j.s:28598  .debug_str:000000000001cbdb .LASF2605
C:\Users\CYMR90~1\AppData\Local\Temp\cc5BNH7j.s:27872  .debug_str:0000000000019c4c .LASF2606
C:\Users\CYMR90~1\AppData\Local\Temp\cc5BNH7j.s:22717  .debug_str:0000000000004eb1 .LASF2607
C:\Users\CYMR90~1\AppData\Local\Temp\cc5BNH7j.s:22633  .debug_str:0000000000004989 .LASF2608
C:\Users\CYMR90~1\AppData\Local\Temp\cc5BNH7j.s:32644  .debug_str:000000000002cbf9 .LASF2609
C:\Users\CYMR90~1\AppData\Local\Temp\cc5BNH7j.s:29214  .debug_str:000000000001f229 .LASF2610
C:\Users\CYMR90~1\AppData\Local\Temp\cc5BNH7j.s:23533  .debug_str:0000000000008362 .LASF2611
C:\Users\CYMR90~1\AppData\Local\Temp\cc5BNH7j.s:23521  .debug_str:00000000000082c1 .LASF2612
C:\Users\CYMR90~1\AppData\Local\Temp\cc5BNH7j.s:30836  .debug_str:0000000000025876 .LASF2613
C:\Users\CYMR90~1\AppData\Local\Temp\cc5BNH7j.s:25755  .debug_str:000000000001126f .LASF2614
C:\Users\CYMR90~1\AppData\Local\Temp\cc5BNH7j.s:26979  .debug_str:0000000000016166 .LASF2615
C:\Users\CYMR90~1\AppData\Local\Temp\cc5BNH7j.s:28282  .debug_str:000000000001b7e2 .LASF2616
C:\Users\CYMR90~1\AppData\Local\Temp\cc5BNH7j.s:31560  .debug_str:0000000000028805 .LASF2617
C:\Users\CYMR90~1\AppData\Local\Temp\cc5BNH7j.s:29812  .debug_str:00000000000216d9 .LASF2618
C:\Users\CYMR90~1\AppData\Local\Temp\cc5BNH7j.s:28840  .debug_str:000000000001dbb5 .LASF2619
C:\Users\CYMR90~1\AppData\Local\Temp\cc5BNH7j.s:27846  .debug_str:0000000000019ad1 .LASF2620
C:\Users\CYMR90~1\AppData\Local\Temp\cc5BNH7j.s:26937  .debug_str:0000000000015e90 .LASF2621
C:\Users\CYMR90~1\AppData\Local\Temp\cc5BNH7j.s:26019  .debug_str:00000000000124a4 .LASF2622
C:\Users\CYMR90~1\AppData\Local\Temp\cc5BNH7j.s:30198  .debug_str:0000000000022de3 .LASF2623
C:\Users\CYMR90~1\AppData\Local\Temp\cc5BNH7j.s:26767  .debug_str:00000000000153ea .LASF2624
C:\Users\CYMR90~1\AppData\Local\Temp\cc5BNH7j.s:22553  .debug_str:00000000000043cc .LASF2625
C:\Users\CYMR90~1\AppData\Local\Temp\cc5BNH7j.s:22267  .debug_str:00000000000030b9 .LASF2626
C:\Users\CYMR90~1\AppData\Local\Temp\cc5BNH7j.s:23781  .debug_str:00000000000092b8 .LASF2627
C:\Users\CYMR90~1\AppData\Local\Temp\cc5BNH7j.s:21675  .debug_str:0000000000000c86 .LASF2628
C:\Users\CYMR90~1\AppData\Local\Temp\cc5BNH7j.s:24923  .debug_str:000000000000de17 .LASF2629
C:\Users\CYMR90~1\AppData\Local\Temp\cc5BNH7j.s:23591  .debug_str:00000000000086f4 .LASF2630
C:\Users\CYMR90~1\AppData\Local\Temp\cc5BNH7j.s:21967  .debug_str:0000000000001e87 .LASF2631
C:\Users\CYMR90~1\AppData\Local\Temp\cc5BNH7j.s:24385  .debug_str:000000000000ba3f .LASF2632
C:\Users\CYMR90~1\AppData\Local\Temp\cc5BNH7j.s:21777  .debug_str:0000000000001297 .LASF2633
C:\Users\CYMR90~1\AppData\Local\Temp\cc5BNH7j.s:27976  .debug_str:000000000001a409 .LASF2634
C:\Users\CYMR90~1\AppData\Local\Temp\cc5BNH7j.s:27756  .debug_str:000000000001948e .LASF2635
C:\Users\CYMR90~1\AppData\Local\Temp\cc5BNH7j.s:26285  .debug_str:000000000001365e .LASF2636
C:\Users\CYMR90~1\AppData\Local\Temp\cc5BNH7j.s:31466  .debug_str:000000000002817b .LASF2637
C:\Users\CYMR90~1\AppData\Local\Temp\cc5BNH7j.s:23977  .debug_str:0000000000009f46 .LASF2638
C:\Users\CYMR90~1\AppData\Local\Temp\cc5BNH7j.s:28018  .debug_str:000000000001a659 .LASF2639
C:\Users\CYMR90~1\AppData\Local\Temp\cc5BNH7j.s:28648  .debug_str:000000000001d015 .LASF2640
C:\Users\CYMR90~1\AppData\Local\Temp\cc5BNH7j.s:27160  .debug_str:0000000000016f1a .LASF2641
C:\Users\CYMR90~1\AppData\Local\Temp\cc5BNH7j.s:31064  .debug_str:00000000000266a9 .LASF2642
C:\Users\CYMR90~1\AppData\Local\Temp\cc5BNH7j.s:26229  .debug_str:0000000000013241 .LASF2643
C:\Users\CYMR90~1\AppData\Local\Temp\cc5BNH7j.s:21545  .debug_str:0000000000000472 .LASF2644
C:\Users\CYMR90~1\AppData\Local\Temp\cc5BNH7j.s:22033  .debug_str:0000000000002201 .LASF2645
C:\Users\CYMR90~1\AppData\Local\Temp\cc5BNH7j.s:26797  .debug_str:0000000000015573 .LASF2646
C:\Users\CYMR90~1\AppData\Local\Temp\cc5BNH7j.s:21663  .debug_str:0000000000000be5 .LASF2647
C:\Users\CYMR90~1\AppData\Local\Temp\cc5BNH7j.s:28746  .debug_str:000000000001d620 .LASF2648
C:\Users\CYMR90~1\AppData\Local\Temp\cc5BNH7j.s:24101  .debug_str:000000000000a72b .LASF2649
C:\Users\CYMR90~1\AppData\Local\Temp\cc5BNH7j.s:30634  .debug_str:00000000000249df .LASF2650
C:\Users\CYMR90~1\AppData\Local\Temp\cc5BNH7j.s:22815  .debug_str:0000000000005497 .LASF2651
C:\Users\CYMR90~1\AppData\Local\Temp\cc5BNH7j.s:22423  .debug_str:0000000000003b03 .LASF2652
C:\Users\CYMR90~1\AppData\Local\Temp\cc5BNH7j.s:26493  .debug_str:0000000000014302 .LASF2653
C:\Users\CYMR90~1\AppData\Local\Temp\cc5BNH7j.s:24461  .debug_str:000000000000bfbc .LASF2654
C:\Users\CYMR90~1\AppData\Local\Temp\cc5BNH7j.s:29202  .debug_str:000000000001f16e .LASF2655
C:\Users\CYMR90~1\AppData\Local\Temp\cc5BNH7j.s:25005  .debug_str:000000000000e30c .LASF2656
C:\Users\CYMR90~1\AppData\Local\Temp\cc5BNH7j.s:29016  .debug_str:000000000001e685 .LASF2657
C:\Users\CYMR90~1\AppData\Local\Temp\cc5BNH7j.s:32596  .debug_str:000000000002c8b5 .LASF2658
C:\Users\CYMR90~1\AppData\Local\Temp\cc5BNH7j.s:22933  .debug_str:0000000000005bb9 .LASF2659
C:\Users\CYMR90~1\AppData\Local\Temp\cc5BNH7j.s:28002  .debug_str:000000000001a54e .LASF2660
C:\Users\CYMR90~1\AppData\Local\Temp\cc5BNH7j.s:24185  .debug_str:000000000000ac7a .LASF2661
C:\Users\CYMR90~1\AppData\Local\Temp\cc5BNH7j.s:30772  .debug_str:000000000002539b .LASF2662
C:\Users\CYMR90~1\AppData\Local\Temp\cc5BNH7j.s:22219  .debug_str:0000000000002da1 .LASF2663
C:\Users\CYMR90~1\AppData\Local\Temp\cc5BNH7j.s:32480  .debug_str:000000000002c110 .LASF2664
C:\Users\CYMR90~1\AppData\Local\Temp\cc5BNH7j.s:21813  .debug_str:00000000000014b8 .LASF2665
C:\Users\CYMR90~1\AppData\Local\Temp\cc5BNH7j.s:26469  .debug_str:0000000000014181 .LASF2666
C:\Users\CYMR90~1\AppData\Local\Temp\cc5BNH7j.s:29976  .debug_str:00000000000220cb .LASF2667
C:\Users\CYMR90~1\AppData\Local\Temp\cc5BNH7j.s:26383  .debug_str:0000000000013c4a .LASF2668
C:\Users\CYMR90~1\AppData\Local\Temp\cc5BNH7j.s:26173  .debug_str:0000000000012eb4 .LASF2669
C:\Users\CYMR90~1\AppData\Local\Temp\cc5BNH7j.s:29010  .debug_str:000000000001e61a .LASF2670
C:\Users\CYMR90~1\AppData\Local\Temp\cc5BNH7j.s:24313  .debug_str:000000000000b5a5 .LASF2671
C:\Users\CYMR90~1\AppData\Local\Temp\cc5BNH7j.s:23197  .debug_str:0000000000006c0d .LASF2672
C:\Users\CYMR90~1\AppData\Local\Temp\cc5BNH7j.s:29310  .debug_str:000000000001f7c5 .LASF2673
C:\Users\CYMR90~1\AppData\Local\Temp\cc5BNH7j.s:31824  .debug_str:00000000000297e8 .LASF2674
C:\Users\CYMR90~1\AppData\Local\Temp\cc5BNH7j.s:27312  .debug_str:0000000000017831 .LASF2675
C:\Users\CYMR90~1\AppData\Local\Temp\cc5BNH7j.s:28662  .debug_str:000000000001d0ed .LASF2676
C:\Users\CYMR90~1\AppData\Local\Temp\cc5BNH7j.s:26551  .debug_str:00000000000146a7 .LASF2677
C:\Users\CYMR90~1\AppData\Local\Temp\cc5BNH7j.s:24835  .debug_str:000000000000d875 .LASF2678
C:\Users\CYMR90~1\AppData\Local\Temp\cc5BNH7j.s:28176  .debug_str:000000000001b144 .LASF2679
C:\Users\CYMR90~1\AppData\Local\Temp\cc5BNH7j.s:32206  .debug_str:000000000002ae8f .LASF2680
C:\Users\CYMR90~1\AppData\Local\Temp\cc5BNH7j.s:22729  .debug_str:0000000000004f61 .LASF2681
C:\Users\CYMR90~1\AppData\Local\Temp\cc5BNH7j.s:23353  .debug_str:000000000000766e .LASF2682
C:\Users\CYMR90~1\AppData\Local\Temp\cc5BNH7j.s:31640  .debug_str:0000000000028cca .LASF2683
C:\Users\CYMR90~1\AppData\Local\Temp\cc5BNH7j.s:27684  .debug_str:000000000001901f .LASF2684
C:\Users\CYMR90~1\AppData\Local\Temp\cc5BNH7j.s:30710  .debug_str:0000000000024eb4 .LASF2685
C:\Users\CYMR90~1\AppData\Local\Temp\cc5BNH7j.s:24693  .debug_str:000000000000cf1e .LASF2686
C:\Users\CYMR90~1\AppData\Local\Temp\cc5BNH7j.s:29870  .debug_str:0000000000021a4e .LASF2687
C:\Users\CYMR90~1\AppData\Local\Temp\cc5BNH7j.s:30118  .debug_str:00000000000228f6 .LASF2688
C:\Users\CYMR90~1\AppData\Local\Temp\cc5BNH7j.s:25785  .debug_str:0000000000011489 .LASF2689
C:\Users\CYMR90~1\AppData\Local\Temp\cc5BNH7j.s:22405  .debug_str:0000000000003a05 .LASF2690
C:\Users\CYMR90~1\AppData\Local\Temp\cc5BNH7j.s:27640  .debug_str:0000000000018c94 .LASF2691
C:\Users\CYMR90~1\AppData\Local\Temp\cc5BNH7j.s:21595  .debug_str:000000000000076c .LASF2692
C:\Users\CYMR90~1\AppData\Local\Temp\cc5BNH7j.s:29404  .debug_str:000000000001fdac .LASF2693
C:\Users\CYMR90~1\AppData\Local\Temp\cc5BNH7j.s:31550  .debug_str:0000000000028744 .LASF2694
C:\Users\CYMR90~1\AppData\Local\Temp\cc5BNH7j.s:23491  .debug_str:00000000000080a2 .LASF2695
C:\Users\CYMR90~1\AppData\Local\Temp\cc5BNH7j.s:24121  .debug_str:000000000000a855 .LASF2696
C:\Users\CYMR90~1\AppData\Local\Temp\cc5BNH7j.s:29866  .debug_str:0000000000021a12 .LASF2697
C:\Users\CYMR90~1\AppData\Local\Temp\cc5BNH7j.s:21725  .debug_str:0000000000000fbb .LASF2698
C:\Users\CYMR90~1\AppData\Local\Temp\cc5BNH7j.s:24935  .debug_str:000000000000dec6 .LASF2699
C:\Users\CYMR90~1\AppData\Local\Temp\cc5BNH7j.s:28144  .debug_str:000000000001af23 .LASF2700
C:\Users\CYMR90~1\AppData\Local\Temp\cc5BNH7j.s:31312  .debug_str:0000000000027621 .LASF2701
C:\Users\CYMR90~1\AppData\Local\Temp\cc5BNH7j.s:23241  .debug_str:0000000000006efa .LASF2702
C:\Users\CYMR90~1\AppData\Local\Temp\cc5BNH7j.s:26441  .debug_str:0000000000013f74 .LASF2703
C:\Users\CYMR90~1\AppData\Local\Temp\cc5BNH7j.s:22927  .debug_str:0000000000005b5f .LASF2704
C:\Users\CYMR90~1\AppData\Local\Temp\cc5BNH7j.s:27634  .debug_str:0000000000018c37 .LASF2705
C:\Users\CYMR90~1\AppData\Local\Temp\cc5BNH7j.s:32330  .debug_str:000000000002b6fd .LASF2706
C:\Users\CYMR90~1\AppData\Local\Temp\cc5BNH7j.s:25731  .debug_str:00000000000110db .LASF2707
C:\Users\CYMR90~1\AppData\Local\Temp\cc5BNH7j.s:30390  .debug_str:0000000000023972 .LASF2708
C:\Users\CYMR90~1\AppData\Local\Temp\cc5BNH7j.s:23829  .debug_str:00000000000095d8 .LASF2709
C:\Users\CYMR90~1\AppData\Local\Temp\cc5BNH7j.s:24197  .debug_str:000000000000ae03 .LASF2710
C:\Users\CYMR90~1\AppData\Local\Temp\cc5BNH7j.s:24843  .debug_str:000000000000d905 .LASF2711
C:\Users\CYMR90~1\AppData\Local\Temp\cc5BNH7j.s:30112  .debug_str:0000000000022890 .LASF2712
C:\Users\CYMR90~1\AppData\Local\Temp\cc5BNH7j.s:27362  .debug_str:0000000000017b40 .LASF2713
C:\Users\CYMR90~1\AppData\Local\Temp\cc5BNH7j.s:22647  .debug_str:0000000000004a68 .LASF2714
C:\Users\CYMR90~1\AppData\Local\Temp\cc5BNH7j.s:24071  .debug_str:000000000000a530 .LASF2715
C:\Users\CYMR90~1\AppData\Local\Temp\cc5BNH7j.s:29230  .debug_str:000000000001f326 .LASF2716
C:\Users\CYMR90~1\AppData\Local\Temp\cc5BNH7j.s:23211  .debug_str:0000000000006d18 .LASF2717
C:\Users\CYMR90~1\AppData\Local\Temp\cc5BNH7j.s:28340  .debug_str:000000000001bb25 .LASF2718
C:\Users\CYMR90~1\AppData\Local\Temp\cc5BNH7j.s:28962  .debug_str:000000000001e335 .LASF2719
C:\Users\CYMR90~1\AppData\Local\Temp\cc5BNH7j.s:24295  .debug_str:000000000000b452 .LASF2720
C:\Users\CYMR90~1\AppData\Local\Temp\cc5BNH7j.s:29476  .debug_str:00000000000201d3 .LASF2721
C:\Users\CYMR90~1\AppData\Local\Temp\cc5BNH7j.s:23445  .debug_str:0000000000007cf1 .LASF2722
C:\Users\CYMR90~1\AppData\Local\Temp\cc5BNH7j.s:28564  .debug_str:000000000001c9b8 .LASF2723
C:\Users\CYMR90~1\AppData\Local\Temp\cc5BNH7j.s:22513  .debug_str:000000000000414c .LASF2724
C:\Users\CYMR90~1\AppData\Local\Temp\cc5BNH7j.s:30368  .debug_str:000000000002383b .LASF2725
C:\Users\CYMR90~1\AppData\Local\Temp\cc5BNH7j.s:27664  .debug_str:0000000000018e08 .LASF2726
C:\Users\CYMR90~1\AppData\Local\Temp\cc5BNH7j.s:21993  .debug_str:0000000000001fe7 .LASF2727
C:\Users\CYMR90~1\AppData\Local\Temp\cc5BNH7j.s:22339  .debug_str:0000000000003574 .LASF2728
C:\Users\CYMR90~1\AppData\Local\Temp\cc5BNH7j.s:30840  .debug_str:00000000000258b9 .LASF2729
C:\Users\CYMR90~1\AppData\Local\Temp\cc5BNH7j.s:28202  .debug_str:000000000001b2f1 .LASF2730
C:\Users\CYMR90~1\AppData\Local\Temp\cc5BNH7j.s:27350  .debug_str:0000000000017aa2 .LASF2731
C:\Users\CYMR90~1\AppData\Local\Temp\cc5BNH7j.s:32508  .debug_str:000000000002c31b .LASF2732
C:\Users\CYMR90~1\AppData\Local\Temp\cc5BNH7j.s:26439  .debug_str:0000000000013f5a .LASF2733
C:\Users\CYMR90~1\AppData\Local\Temp\cc5BNH7j.s:31664  .debug_str:0000000000028e31 .LASF2734
C:\Users\CYMR90~1\AppData\Local\Temp\cc5BNH7j.s:25541  .debug_str:0000000000010479 .LASF2735
C:\Users\CYMR90~1\AppData\Local\Temp\cc5BNH7j.s:28104  .debug_str:000000000001ac32 .LASF2736
C:\Users\CYMR90~1\AppData\Local\Temp\cc5BNH7j.s:22027  .debug_str:00000000000021b6 .LASF2737
C:\Users\CYMR90~1\AppData\Local\Temp\cc5BNH7j.s:27150  .debug_str:0000000000016e95 .LASF2738
C:\Users\CYMR90~1\AppData\Local\Temp\cc5BNH7j.s:26473  .debug_str:00000000000141d4 .LASF2739
C:\Users\CYMR90~1\AppData\Local\Temp\cc5BNH7j.s:26241  .debug_str:0000000000013330 .LASF2740
C:\Users\CYMR90~1\AppData\Local\Temp\cc5BNH7j.s:25137  .debug_str:000000000000eb91 .LASF2741
C:\Users\CYMR90~1\AppData\Local\Temp\cc5BNH7j.s:32208  .debug_str:000000000002aea7 .LASF2742
C:\Users\CYMR90~1\AppData\Local\Temp\cc5BNH7j.s:24139  .debug_str:000000000000a96e .LASF2743
C:\Users\CYMR90~1\AppData\Local\Temp\cc5BNH7j.s:27310  .debug_str:0000000000017818 .LASF2744
C:\Users\CYMR90~1\AppData\Local\Temp\cc5BNH7j.s:30514  .debug_str:00000000000241da .LASF2745
C:\Users\CYMR90~1\AppData\Local\Temp\cc5BNH7j.s:22445  .debug_str:0000000000003c8d .LASF2746
C:\Users\CYMR90~1\AppData\Local\Temp\cc5BNH7j.s:25667  .debug_str:0000000000010d52 .LASF2747
C:\Users\CYMR90~1\AppData\Local\Temp\cc5BNH7j.s:28818  .debug_str:000000000001da71 .LASF2748
C:\Users\CYMR90~1\AppData\Local\Temp\cc5BNH7j.s:31956  .debug_str:0000000000029fa5 .LASF2749
C:\Users\CYMR90~1\AppData\Local\Temp\cc5BNH7j.s:23903  .debug_str:0000000000009acf .LASF2750
C:\Users\CYMR90~1\AppData\Local\Temp\cc5BNH7j.s:27071  .debug_str:0000000000016715 .LASF2751
C:\Users\CYMR90~1\AppData\Local\Temp\cc5BNH7j.s:29050  .debug_str:000000000001e8c3 .LASF2752
C:\Users\CYMR90~1\AppData\Local\Temp\cc5BNH7j.s:22493  .debug_str:0000000000003f74 .LASF2753
C:\Users\CYMR90~1\AppData\Local\Temp\cc5BNH7j.s:27188  .debug_str:0000000000017093 .LASF2754
C:\Users\CYMR90~1\AppData\Local\Temp\cc5BNH7j.s:31870  .debug_str:0000000000029ac1 .LASF2755
C:\Users\CYMR90~1\AppData\Local\Temp\cc5BNH7j.s:25307  .debug_str:000000000000f579 .LASF2756
C:\Users\CYMR90~1\AppData\Local\Temp\cc5BNH7j.s:29954  .debug_str:0000000000021f94 .LASF2757
C:\Users\CYMR90~1\AppData\Local\Temp\cc5BNH7j.s:23367  .debug_str:0000000000007765 .LASF2758
C:\Users\CYMR90~1\AppData\Local\Temp\cc5BNH7j.s:26565  .debug_str:0000000000014782 .LASF2759
C:\Users\CYMR90~1\AppData\Local\Temp\cc5BNH7j.s:29658  .debug_str:0000000000020d46 .LASF2760
C:\Users\CYMR90~1\AppData\Local\Temp\cc5BNH7j.s:21627  .debug_str:000000000000094e .LASF2761
C:\Users\CYMR90~1\AppData\Local\Temp\cc5BNH7j.s:24825  .debug_str:000000000000d7ed .LASF2762
C:\Users\CYMR90~1\AppData\Local\Temp\cc5BNH7j.s:28034  .debug_str:000000000001a7d4 .LASF2763
C:\Users\CYMR90~1\AppData\Local\Temp\cc5BNH7j.s:31200  .debug_str:0000000000026eea .LASF2764
C:\Users\CYMR90~1\AppData\Local\Temp\cc5BNH7j.s:23131  .debug_str:00000000000067eb .LASF2765
C:\Users\CYMR90~1\AppData\Local\Temp\cc5BNH7j.s:26339  .debug_str:000000000001398a .LASF2766
C:\Users\CYMR90~1\AppData\Local\Temp\cc5BNH7j.s:29522  .debug_str:000000000002051b .LASF2767
C:\Users\CYMR90~1\AppData\Local\Temp\cc5BNH7j.s:26867  .debug_str:000000000001599f .LASF2768
C:\Users\CYMR90~1\AppData\Local\Temp\cc5BNH7j.s:31564  .debug_str:0000000000028837 .LASF2769
C:\Users\CYMR90~1\AppData\Local\Temp\cc5BNH7j.s:24989  .debug_str:000000000000e228 .LASF2770
C:\Users\CYMR90~1\AppData\Local\Temp\cc5BNH7j.s:23071  .debug_str:0000000000006426 .LASF2771
C:\Users\CYMR90~1\AppData\Local\Temp\cc5BNH7j.s:27768  .debug_str:000000000001953a .LASF2772
C:\Users\CYMR90~1\AppData\Local\Temp\cc5BNH7j.s:26297  .debug_str:000000000001371e .LASF2773
C:\Users\CYMR90~1\AppData\Local\Temp\cc5BNH7j.s:29466  .debug_str:000000000002010a .LASF2774
C:\Users\CYMR90~1\AppData\Local\Temp\cc5BNH7j.s:32688  .debug_str:000000000002ceab .LASF2775
C:\Users\CYMR90~1\AppData\Local\Temp\cc5BNH7j.s:28436  .debug_str:000000000001c15b .LASF2776
C:\Users\CYMR90~1\AppData\Local\Temp\cc5BNH7j.s:30496  .debug_str:00000000000240a7 .LASF2777
C:\Users\CYMR90~1\AppData\Local\Temp\cc5BNH7j.s:30914  .debug_str:0000000000025d2b .LASF2778
C:\Users\CYMR90~1\AppData\Local\Temp\cc5BNH7j.s:24831  .debug_str:000000000000d83d .LASF2779
C:\Users\CYMR90~1\AppData\Local\Temp\cc5BNH7j.s:26065  .debug_str:0000000000012797 .LASF2780
C:\Users\CYMR90~1\AppData\Local\Temp\cc5BNH7j.s:29204  .debug_str:000000000001f193 .LASF2781
C:\Users\CYMR90~1\AppData\Local\Temp\cc5BNH7j.s:32460  .debug_str:000000000002bfc9 .LASF2782
C:\Users\CYMR90~1\AppData\Local\Temp\cc5BNH7j.s:29956  .debug_str:0000000000021faf .LASF2783
C:\Users\CYMR90~1\AppData\Local\Temp\cc5BNH7j.s:31930  .debug_str:0000000000029e21 .LASF2784
C:\Users\CYMR90~1\AppData\Local\Temp\cc5BNH7j.s:22419  .debug_str:0000000000003aca .LASF2785
C:\Users\CYMR90~1\AppData\Local\Temp\cc5BNH7j.s:27095  .debug_str:00000000000168ed .LASF2786
C:\Users\CYMR90~1\AppData\Local\Temp\cc5BNH7j.s:31790  .debug_str:0000000000029634 .LASF2787
C:\Users\CYMR90~1\AppData\Local\Temp\cc5BNH7j.s:25219  .debug_str:000000000000f00d .LASF2788
C:\Users\CYMR90~1\AppData\Local\Temp\cc5BNH7j.s:27061  .debug_str:0000000000016690 .LASF2789
C:\Users\CYMR90~1\AppData\Local\Temp\cc5BNH7j.s:31758  .debug_str:00000000000293db .LASF2790
C:\Users\CYMR90~1\AppData\Local\Temp\cc5BNH7j.s:25193  .debug_str:000000000000ee87 .LASF2791
C:\Users\CYMR90~1\AppData\Local\Temp\cc5BNH7j.s:29842  .debug_str:000000000002186e .LASF2792
C:\Users\CYMR90~1\AppData\Local\Temp\cc5BNH7j.s:26349  .debug_str:0000000000013a21 .LASF2793
C:\Users\CYMR90~1\AppData\Local\Temp\cc5BNH7j.s:21933  .debug_str:0000000000001c7e .LASF2794
C:\Users\CYMR90~1\AppData\Local\Temp\cc5BNH7j.s:26603  .debug_str:000000000001497b .LASF2795
C:\Users\CYMR90~1\AppData\Local\Temp\cc5BNH7j.s:31294  .debug_str:0000000000027515 .LASF2796
C:\Users\CYMR90~1\AppData\Local\Temp\cc5BNH7j.s:24729  .debug_str:000000000000d1bc .LASF2797
C:\Users\CYMR90~1\AppData\Local\Temp\cc5BNH7j.s:29366  .debug_str:000000000001fb3d .LASF2798
C:\Users\CYMR90~1\AppData\Local\Temp\cc5BNH7j.s:24357  .debug_str:000000000000b8aa .LASF2799
C:\Users\CYMR90~1\AppData\Local\Temp\cc5BNH7j.s:28996  .debug_str:000000000001e516 .LASF2800
C:\Users\CYMR90~1\AppData\Local\Temp\cc5BNH7j.s:22435  .debug_str:0000000000003bc2 .LASF2801
C:\Users\CYMR90~1\AppData\Local\Temp\cc5BNH7j.s:27111  .debug_str:0000000000016a78 .LASF2802
C:\Users\CYMR90~1\AppData\Local\Temp\cc5BNH7j.s:23749  .debug_str:00000000000090d9 .LASF2803
C:\Users\CYMR90~1\AppData\Local\Temp\cc5BNH7j.s:30468  .debug_str:0000000000023dfe .LASF2804
C:\Users\CYMR90~1\AppData\Local\Temp\cc5BNH7j.s:21943  .debug_str:0000000000001d1c .LASF2805
C:\Users\CYMR90~1\AppData\Local\Temp\cc5BNH7j.s:25159  .debug_str:000000000000ecac .LASF2806
C:\Users\CYMR90~1\AppData\Local\Temp\cc5BNH7j.s:31254  .debug_str:0000000000027302 .LASF2807
C:\Users\CYMR90~1\AppData\Local\Temp\cc5BNH7j.s:31540  .debug_str:00000000000286b0 .LASF2808
C:\Users\CYMR90~1\AppData\Local\Temp\cc5BNH7j.s:23375  .debug_str:00000000000077d4 .LASF2809
C:\Users\CYMR90~1\AppData\Local\Temp\cc5BNH7j.s:26573  .debug_str:00000000000147e1 .LASF2810
C:\Users\CYMR90~1\AppData\Local\Temp\cc5BNH7j.s:23913  .debug_str:0000000000009b4b .LASF2811
C:\Users\CYMR90~1\AppData\Local\Temp\cc5BNH7j.s:21713  .debug_str:0000000000000f21 .LASF2812
C:\Users\CYMR90~1\AppData\Local\Temp\cc5BNH7j.s:24919  .debug_str:000000000000ddeb .LASF2813
C:\Users\CYMR90~1\AppData\Local\Temp\cc5BNH7j.s:23469  .debug_str:0000000000007ea1 .LASF2814
C:\Users\CYMR90~1\AppData\Local\Temp\cc5BNH7j.s:27412  .debug_str:0000000000017e4d .LASF2815
C:\Users\CYMR90~1\AppData\Local\Temp\cc5BNH7j.s:32116  .debug_str:000000000002a970 .LASF2816
C:\Users\CYMR90~1\AppData\Local\Temp\cc5BNH7j.s:25539  .debug_str:0000000000010462 .LASF2817
C:\Users\CYMR90~1\AppData\Local\Temp\cc5BNH7j.s:30196  .debug_str:0000000000022dcc .LASF2818
C:\Users\CYMR90~1\AppData\Local\Temp\cc5BNH7j.s:30806  .debug_str:0000000000025628 .LASF2819
C:\Users\CYMR90~1\AppData\Local\Temp\cc5BNH7j.s:28294  .debug_str:000000000001b85d .LASF2820
C:\Users\CYMR90~1\AppData\Local\Temp\cc5BNH7j.s:25717  .debug_str:0000000000010ffd .LASF2821
C:\Users\CYMR90~1\AppData\Local\Temp\cc5BNH7j.s:31980  .debug_str:000000000002a0e5 .LASF2822
C:\Users\CYMR90~1\AppData\Local\Temp\cc5BNH7j.s:23159  .debug_str:000000000000699a .LASF2823
C:\Users\CYMR90~1\AppData\Local\Temp\cc5BNH7j.s:23565  .debug_str:0000000000008553 .LASF2824
C:\Users\CYMR90~1\AppData\Local\Temp\cc5BNH7j.s:24525  .debug_str:000000000000c397 .LASF2825
C:\Users\CYMR90~1\AppData\Local\Temp\cc5BNH7j.s:31996  .debug_str:000000000002a1f4 .LASF2826
C:\Users\CYMR90~1\AppData\Local\Temp\cc5BNH7j.s:22349  .debug_str:0000000000003627 .LASF2827
C:\Users\CYMR90~1\AppData\Local\Temp\cc5BNH7j.s:27250  .debug_str:0000000000017419 .LASF2828
C:\Users\CYMR90~1\AppData\Local\Temp\cc5BNH7j.s:22707  .debug_str:0000000000004e1c .LASF2829
C:\Users\CYMR90~1\AppData\Local\Temp\cc5BNH7j.s:26059  .debug_str:0000000000012734 .LASF2830
C:\Users\CYMR90~1\AppData\Local\Temp\cc5BNH7j.s:22751  .debug_str:00000000000050b6 .LASF2831
C:\Users\CYMR90~1\AppData\Local\Temp\cc5BNH7j.s:29532  .debug_str:0000000000020593 .LASF2832
C:\Users\CYMR90~1\AppData\Local\Temp\cc5BNH7j.s:26335  .debug_str:0000000000013964 .LASF2833
C:\Users\CYMR90~1\AppData\Local\Temp\cc5BNH7j.s:25127  .debug_str:000000000000eaf5 .LASF2834
C:\Users\CYMR90~1\AppData\Local\Temp\cc5BNH7j.s:24189  .debug_str:000000000000accf .LASF2835
C:\Users\CYMR90~1\AppData\Local\Temp\cc5BNH7j.s:21775  .debug_str:0000000000001279 .LASF2836
C:\Users\CYMR90~1\AppData\Local\Temp\cc5BNH7j.s:24561  .debug_str:000000000000c5d8 .LASF2837
C:\Users\CYMR90~1\AppData\Local\Temp\cc5BNH7j.s:26343  .debug_str:00000000000139c5 .LASF2838
C:\Users\CYMR90~1\AppData\Local\Temp\cc5BNH7j.s:29528  .debug_str:000000000002056b .LASF2839
C:\Users\CYMR90~1\AppData\Local\Temp\cc5BNH7j.s:21503  .debug_str:0000000000000203 .LASF2840
C:\Users\CYMR90~1\AppData\Local\Temp\cc5BNH7j.s:24691  .debug_str:000000000000cf0b .LASF2841
C:\Users\CYMR90~1\AppData\Local\Temp\cc5BNH7j.s:27878  .debug_str:0000000000019cb5 .LASF2842
C:\Users\CYMR90~1\AppData\Local\Temp\cc5BNH7j.s:21691  .debug_str:0000000000000d6b .LASF2843
C:\Users\CYMR90~1\AppData\Local\Temp\cc5BNH7j.s:31318  .debug_str:0000000000027679 .LASF2844
C:\Users\CYMR90~1\AppData\Local\Temp\cc5BNH7j.s:29686  .debug_str:0000000000020eac .LASF2845
C:\Users\CYMR90~1\AppData\Local\Temp\cc5BNH7j.s:28112  .debug_str:000000000001acb6 .LASF2846
C:\Users\CYMR90~1\AppData\Local\Temp\cc5BNH7j.s:32516  .debug_str:000000000002c39e .LASF2847
C:\Users\CYMR90~1\AppData\Local\Temp\cc5BNH7j.s:21805  .debug_str:0000000000001461 .LASF2848
C:\Users\CYMR90~1\AppData\Local\Temp\cc5BNH7j.s:26483  .debug_str:0000000000014275 .LASF2849
C:\Users\CYMR90~1\AppData\Local\Temp\cc5BNH7j.s:31170  .debug_str:0000000000026d44 .LASF2850
C:\Users\CYMR90~1\AppData\Local\Temp\cc5BNH7j.s:32200  .debug_str:000000000002ae2d .LASF2851
C:\Users\CYMR90~1\AppData\Local\Temp\cc5BNH7j.s:28438  .debug_str:000000000001c170 .LASF2852
C:\Users\CYMR90~1\AppData\Local\Temp\cc5BNH7j.s:24737  .debug_str:000000000000d214 .LASF2853
C:\Users\CYMR90~1\AppData\Local\Temp\cc5BNH7j.s:29992  .debug_str:00000000000221bd .LASF2854
C:\Users\CYMR90~1\AppData\Local\Temp\cc5BNH7j.s:21925  .debug_str:0000000000001c0a .LASF2855
C:\Users\CYMR90~1\AppData\Local\Temp\cc5BNH7j.s:25143  .debug_str:000000000000ebdc .LASF2856
C:\Users\CYMR90~1\AppData\Local\Temp\cc5BNH7j.s:28316  .debug_str:000000000001b981 .LASF2857
C:\Users\CYMR90~1\AppData\Local\Temp\cc5BNH7j.s:31436  .debug_str:0000000000027f0d .LASF2858
C:\Users\CYMR90~1\AppData\Local\Temp\cc5BNH7j.s:25067  .debug_str:000000000000e719 .LASF2859
C:\Users\CYMR90~1\AppData\Local\Temp\cc5BNH7j.s:26559  .debug_str:0000000000014732 .LASF2860
C:\Users\CYMR90~1\AppData\Local\Temp\cc5BNH7j.s:26597  .debug_str:0000000000014936 .LASF2861
C:\Users\CYMR90~1\AppData\Local\Temp\cc5BNH7j.s:21705  .debug_str:0000000000000ec2 .LASF2862
C:\Users\CYMR90~1\AppData\Local\Temp\cc5BNH7j.s:21849  .debug_str:000000000000177a .LASF2863
C:\Users\CYMR90~1\AppData\Local\Temp\cc5BNH7j.s:27119  .debug_str:0000000000016af2 .LASF2864
C:\Users\CYMR90~1\AppData\Local\Temp\cc5BNH7j.s:29990  .debug_str:00000000000221a8 .LASF2865
C:\Users\CYMR90~1\AppData\Local\Temp\cc5BNH7j.s:25239  .debug_str:000000000000f15d .LASF2866
C:\Users\CYMR90~1\AppData\Local\Temp\cc5BNH7j.s:29892  .debug_str:0000000000021be9 .LASF2867
C:\Users\CYMR90~1\AppData\Local\Temp\cc5BNH7j.s:30058  .debug_str:0000000000022597 .LASF2868
C:\Users\CYMR90~1\AppData\Local\Temp\cc5BNH7j.s:28026  .debug_str:000000000001a76e .LASF2869
C:\Users\CYMR90~1\AppData\Local\Temp\cc5BNH7j.s:27280  .debug_str:00000000000175f5 .LASF2870
C:\Users\CYMR90~1\AppData\Local\Temp\cc5BNH7j.s:25009  .debug_str:000000000000e34b .LASF2871
C:\Users\CYMR90~1\AppData\Local\Temp\cc5BNH7j.s:26185  .debug_str:0000000000012f73 .LASF2872
C:\Users\CYMR90~1\AppData\Local\Temp\cc5BNH7j.s:26147  .debug_str:0000000000012d07 .LASF2873
C:\Users\CYMR90~1\AppData\Local\Temp\cc5BNH7j.s:22261  .debug_str:0000000000003073 .LASF2874
C:\Users\CYMR90~1\AppData\Local\Temp\cc5BNH7j.s:22147  .debug_str:0000000000002938 .LASF2875
C:\Users\CYMR90~1\AppData\Local\Temp\cc5BNH7j.s:29646  .debug_str:0000000000020ca0 .LASF2876
C:\Users\CYMR90~1\AppData\Local\Temp\cc5BNH7j.s:30638  .debug_str:0000000000024a30 .LASF2877
C:\Users\CYMR90~1\AppData\Local\Temp\cc5BNH7j.s:30322  .debug_str:000000000002355a .LASF2878
C:\Users\CYMR90~1\AppData\Local\Temp\cc5BNH7j.s:24249  .debug_str:000000000000b124 .LASF2879
C:\Users\CYMR90~1\AppData\Local\Temp\cc5BNH7j.s:27414  .debug_str:0000000000017e64 .LASF2880
C:\Users\CYMR90~1\AppData\Local\Temp\cc5BNH7j.s:30616  .debug_str:00000000000248ac .LASF2881
C:\Users\CYMR90~1\AppData\Local\Temp\cc5BNH7j.s:22545  .debug_str:000000000000434a .LASF2882
C:\Users\CYMR90~1\AppData\Local\Temp\cc5BNH7j.s:24605  .debug_str:000000000000c9f1 .LASF2883
C:\Users\CYMR90~1\AppData\Local\Temp\cc5BNH7j.s:28838  .debug_str:000000000001dba3 .LASF2884
C:\Users\CYMR90~1\AppData\Local\Temp\cc5BNH7j.s:32616  .debug_str:000000000002c9d5 .LASF2885
C:\Users\CYMR90~1\AppData\Local\Temp\cc5BNH7j.s:24015  .debug_str:000000000000a1a5 .LASF2886
C:\Users\CYMR90~1\AppData\Local\Temp\cc5BNH7j.s:27194  .debug_str:00000000000170f0 .LASF2887
C:\Users\CYMR90~1\AppData\Local\Temp\cc5BNH7j.s:30386  .debug_str:0000000000023940 .LASF2888
C:\Users\CYMR90~1\AppData\Local\Temp\cc5BNH7j.s:28568  .debug_str:000000000001c9ee .LASF2889
C:\Users\CYMR90~1\AppData\Local\Temp\cc5BNH7j.s:21991  .debug_str:0000000000001fd3 .LASF2890
C:\Users\CYMR90~1\AppData\Local\Temp\cc5BNH7j.s:26657  .debug_str:0000000000014d24 .LASF2891
C:\Users\CYMR90~1\AppData\Local\Temp\cc5BNH7j.s:31354  .debug_str:0000000000027943 .LASF2892
C:\Users\CYMR90~1\AppData\Local\Temp\cc5BNH7j.s:24785  .debug_str:000000000000d5c4 .LASF2893
C:\Users\CYMR90~1\AppData\Local\Temp\cc5BNH7j.s:29430  .debug_str:000000000001ff37 .LASF2894
C:\Users\CYMR90~1\AppData\Local\Temp\cc5BNH7j.s:32020  .debug_str:000000000002a3b7 .LASF2895
C:\Users\CYMR90~1\AppData\Local\Temp\cc5BNH7j.s:32236  .debug_str:000000000002b0a0 .LASF2896
C:\Users\CYMR90~1\AppData\Local\Temp\cc5BNH7j.s:28062  .debug_str:000000000001a96d .LASF2897
C:\Users\CYMR90~1\AppData\Local\Temp\cc5BNH7j.s:23275  .debug_str:0000000000007166 .LASF2898
C:\Users\CYMR90~1\AppData\Local\Temp\cc5BNH7j.s:23573  .debug_str:00000000000085d4 .LASF2899
C:\Users\CYMR90~1\AppData\Local\Temp\cc5BNH7j.s:27474  .debug_str:00000000000181b3 .LASF2900
C:\Users\CYMR90~1\AppData\Local\Temp\cc5BNH7j.s:32334  .debug_str:000000000002b72a .LASF2901
C:\Users\CYMR90~1\AppData\Local\Temp\cc5BNH7j.s:25927  .debug_str:0000000000011e4d .LASF2902
C:\Users\CYMR90~1\AppData\Local\Temp\cc5BNH7j.s:26751  .debug_str:00000000000152ef .LASF2903
C:\Users\CYMR90~1\AppData\Local\Temp\cc5BNH7j.s:22981  .debug_str:0000000000005e8b .LASF2904
C:\Users\CYMR90~1\AppData\Local\Temp\cc5BNH7j.s:29674  .debug_str:0000000000020e19 .LASF2905
C:\Users\CYMR90~1\AppData\Local\Temp\cc5BNH7j.s:31052  .debug_str:00000000000265eb .LASF2906
C:\Users\CYMR90~1\AppData\Local\Temp\cc5BNH7j.s:32432  .debug_str:000000000002bdd3 .LASF2907
C:\Users\CYMR90~1\AppData\Local\Temp\cc5BNH7j.s:22503  .debug_str:00000000000040a6 .LASF2908
C:\Users\CYMR90~1\AppData\Local\Temp\cc5BNH7j.s:26193  .debug_str:0000000000013001 .LASF2909
C:\Users\CYMR90~1\AppData\Local\Temp\cc5BNH7j.s:31544  .debug_str:00000000000286de .LASF2910
C:\Users\CYMR90~1\AppData\Local\Temp\cc5BNH7j.s:29496  .debug_str:0000000000020318 .LASF2911
C:\Users\CYMR90~1\AppData\Local\Temp\cc5BNH7j.s:28396  .debug_str:000000000001beb3 .LASF2912
C:\Users\CYMR90~1\AppData\Local\Temp\cc5BNH7j.s:27974  .debug_str:000000000001a3cb .LASF2913
C:\Users\CYMR90~1\AppData\Local\Temp\cc5BNH7j.s:27896  .debug_str:0000000000019d92 .LASF2914
C:\Users\CYMR90~1\AppData\Local\Temp\cc5BNH7j.s:30096  .debug_str:00000000000227ad .LASF2915
C:\Users\CYMR90~1\AppData\Local\Temp\cc5BNH7j.s:28390  .debug_str:000000000001be60 .LASF2916
C:\Users\CYMR90~1\AppData\Local\Temp\cc5BNH7j.s:27536  .debug_str:000000000001856a .LASF2917
C:\Users\CYMR90~1\AppData\Local\Temp\cc5BNH7j.s:26579  .debug_str:0000000000014839 .LASF2918
C:\Users\CYMR90~1\AppData\Local\Temp\cc5BNH7j.s:26125  .debug_str:0000000000012b9b .LASF2919
C:\Users\CYMR90~1\AppData\Local\Temp\cc5BNH7j.s:24867  .debug_str:000000000000da43 .LASF2920
C:\Users\CYMR90~1\AppData\Local\Temp\cc5BNH7j.s:24009  .debug_str:000000000000a142 .LASF2921
C:\Users\CYMR90~1\AppData\Local\Temp\cc5BNH7j.s:23117  .debug_str:0000000000006719 .LASF2922
C:\Users\CYMR90~1\AppData\Local\Temp\cc5BNH7j.s:22265  .debug_str:00000000000030a9 .LASF2923
C:\Users\CYMR90~1\AppData\Local\Temp\cc5BNH7j.s:32660  .debug_str:000000000002ccdb .LASF2924
C:\Users\CYMR90~1\AppData\Local\Temp\cc5BNH7j.s:31794  .debug_str:0000000000029665 .LASF2925
C:\Users\CYMR90~1\AppData\Local\Temp\cc5BNH7j.s:30548  .debug_str:00000000000243fe .LASF2926
C:\Users\CYMR90~1\AppData\Local\Temp\cc5BNH7j.s:22471  .debug_str:0000000000003e52 .LASF2927
C:\Users\CYMR90~1\AppData\Local\Temp\cc5BNH7j.s:25705  .debug_str:0000000000010f45 .LASF2928
C:\Users\CYMR90~1\AppData\Local\Temp\cc5BNH7j.s:28856  .debug_str:000000000001dcb3 .LASF2929
C:\Users\CYMR90~1\AppData\Local\Temp\cc5BNH7j.s:32086  .debug_str:000000000002a786 .LASF2930
C:\Users\CYMR90~1\AppData\Local\Temp\cc5BNH7j.s:24027  .debug_str:000000000000a28e .LASF2931
C:\Users\CYMR90~1\AppData\Local\Temp\cc5BNH7j.s:23643  .debug_str:0000000000008a7c .LASF2932
C:\Users\CYMR90~1\AppData\Local\Temp\cc5BNH7j.s:32006  .debug_str:000000000002a2ac .LASF2933
C:\Users\CYMR90~1\AppData\Local\Temp\cc5BNH7j.s:32468  .debug_str:000000000002c025 .LASF2934
C:\Users\CYMR90~1\AppData\Local\Temp\cc5BNH7j.s:26725  .debug_str:0000000000015180 .LASF2935
C:\Users\CYMR90~1\AppData\Local\Temp\cc5BNH7j.s:22797  .debug_str:000000000000536e .LASF2936
C:\Users\CYMR90~1\AppData\Local\Temp\cc5BNH7j.s:26905  .debug_str:0000000000015c50 .LASF2937
C:\Users\CYMR90~1\AppData\Local\Temp\cc5BNH7j.s:32434  .debug_str:000000000002bdf3 .LASF2938
C:\Users\CYMR90~1\AppData\Local\Temp\cc5BNH7j.s:25561  .debug_str:000000000001059d .LASF2939
C:\Users\CYMR90~1\AppData\Local\Temp\cc5BNH7j.s:24047  .debug_str:000000000000a3df .LASF2940
C:\Users\CYMR90~1\AppData\Local\Temp\cc5BNH7j.s:21617  .debug_str:00000000000008b3 .LASF2941
C:\Users\CYMR90~1\AppData\Local\Temp\cc5BNH7j.s:29540  .debug_str:0000000000020610 .LASF2942
C:\Users\CYMR90~1\AppData\Local\Temp\cc5BNH7j.s:32538  .debug_str:000000000002c4b1 .LASF2943
C:\Users\CYMR90~1\AppData\Local\Temp\cc5BNH7j.s:30464  .debug_str:0000000000023db3 .LASF2944
C:\Users\CYMR90~1\AppData\Local\Temp\cc5BNH7j.s:29852  .debug_str:0000000000021932 .LASF2945
C:\Users\CYMR90~1\AppData\Local\Temp\cc5BNH7j.s:22757  .debug_str:000000000000510e .LASF2946
C:\Users\CYMR90~1\AppData\Local\Temp\cc5BNH7j.s:32666  .debug_str:000000000002cd29 .LASF2947
C:\Users\CYMR90~1\AppData\Local\Temp\cc5BNH7j.s:25085  .debug_str:000000000000e825 .LASF2948
C:\Users\CYMR90~1\AppData\Local\Temp\cc5BNH7j.s:28408  .debug_str:000000000001bf81 .LASF2949
C:\Users\CYMR90~1\AppData\Local\Temp\cc5BNH7j.s:30102  .debug_str:0000000000022821 .LASF2950
C:\Users\CYMR90~1\AppData\Local\Temp\cc5BNH7j.s:25685  .debug_str:0000000000010e45 .LASF2951
C:\Users\CYMR90~1\AppData\Local\Temp\cc5BNH7j.s:24807  .debug_str:000000000000d6fc .LASF2952
C:\Users\CYMR90~1\AppData\Local\Temp\cc5BNH7j.s:29530  .debug_str:000000000002057e .LASF2953
C:\Users\CYMR90~1\AppData\Local\Temp\cc5BNH7j.s:31866  .debug_str:0000000000029a90 .LASF2954
C:\Users\CYMR90~1\AppData\Local\Temp\cc5BNH7j.s:24463  .debug_str:000000000000bfea .LASF2955
C:\Users\CYMR90~1\AppData\Local\Temp\cc5BNH7j.s:23261  .debug_str:0000000000007070 .LASF2956
C:\Users\CYMR90~1\AppData\Local\Temp\cc5BNH7j.s:29698  .debug_str:0000000000020f5f .LASF2957
C:\Users\CYMR90~1\AppData\Local\Temp\cc5BNH7j.s:31890  .debug_str:0000000000029bed .LASF2958
C:\Users\CYMR90~1\AppData\Local\Temp\cc5BNH7j.s:22225  .debug_str:0000000000002e0c .LASF2959
C:\Users\CYMR90~1\AppData\Local\Temp\cc5BNH7j.s:24523  .debug_str:000000000000c383 .LASF2960
C:\Users\CYMR90~1\AppData\Local\Temp\cc5BNH7j.s:25015  .debug_str:000000000000e3ad .LASF2961
C:\Users\CYMR90~1\AppData\Local\Temp\cc5BNH7j.s:32288  .debug_str:000000000002b426 .LASF2962
C:\Users\CYMR90~1\AppData\Local\Temp\cc5BNH7j.s:23229  .debug_str:0000000000006e1b .LASF2963
C:\Users\CYMR90~1\AppData\Local\Temp\cc5BNH7j.s:29426  .debug_str:000000000001fef8 .LASF2964
C:\Users\CYMR90~1\AppData\Local\Temp\cc5BNH7j.s:25399  .debug_str:000000000000fb91 .LASF2965
C:\Users\CYMR90~1\AppData\Local\Temp\cc5BNH7j.s:27236  .debug_str:0000000000017367 .LASF2966
C:\Users\CYMR90~1\AppData\Local\Temp\cc5BNH7j.s:23865  .debug_str:0000000000009842 .LASF2967
C:\Users\CYMR90~1\AppData\Local\Temp\cc5BNH7j.s:23969  .debug_str:0000000000009ed0 .LASF2968
C:\Users\CYMR90~1\AppData\Local\Temp\cc5BNH7j.s:24969  .debug_str:000000000000e0cf .LASF2969
C:\Users\CYMR90~1\AppData\Local\Temp\cc5BNH7j.s:24079  .debug_str:000000000000a5ab .LASF2970
C:\Users\CYMR90~1\AppData\Local\Temp\cc5BNH7j.s:30688  .debug_str:0000000000024d81 .LASF2971
C:\Users\CYMR90~1\AppData\Local\Temp\cc5BNH7j.s:25139  .debug_str:000000000000ebac .LASF2972
C:\Users\CYMR90~1\AppData\Local\Temp\cc5BNH7j.s:25701  .debug_str:0000000000010f06 .LASF2973
C:\Users\CYMR90~1\AppData\Local\Temp\cc5BNH7j.s:31432  .debug_str:0000000000027ec0 .LASF2974
C:\Users\CYMR90~1\AppData\Local\Temp\cc5BNH7j.s:23611  .debug_str:000000000000886d .LASF2975
C:\Users\CYMR90~1\AppData\Local\Temp\cc5BNH7j.s:32364  .debug_str:000000000002b91b .LASF2976
C:\Users\CYMR90~1\AppData\Local\Temp\cc5BNH7j.s:31524  .debug_str:0000000000028586 .LASF2977
C:\Users\CYMR90~1\AppData\Local\Temp\cc5BNH7j.s:31786  .debug_str:0000000000029602 .LASF2978
C:\Users\CYMR90~1\AppData\Local\Temp\cc5BNH7j.s:22477  .debug_str:0000000000003eae .LASF2979
C:\Users\CYMR90~1\AppData\Local\Temp\cc5BNH7j.s:23877  .debug_str:0000000000009921 .LASF2980
C:\Users\CYMR90~1\AppData\Local\Temp\cc5BNH7j.s:28262  .debug_str:000000000001b68e .LASF2981
C:\Users\CYMR90~1\AppData\Local\Temp\cc5BNH7j.s:30702  .debug_str:0000000000024e3e .LASF2982
C:\Users\CYMR90~1\AppData\Local\Temp\cc5BNH7j.s:24813  .debug_str:000000000000d759 .LASF2983
C:\Users\CYMR90~1\AppData\Local\Temp\cc5BNH7j.s:27884  .debug_str:0000000000019cff .LASF2984
C:\Users\CYMR90~1\AppData\Local\Temp\cc5BNH7j.s:21747  .debug_str:0000000000001124 .LASF2985
C:\Users\CYMR90~1\AppData\Local\Temp\cc5BNH7j.s:25183  .debug_str:000000000000ede3 .LASF2986
C:\Users\CYMR90~1\AppData\Local\Temp\cc5BNH7j.s:28464  .debug_str:000000000001c2e8 .LASF2987
C:\Users\CYMR90~1\AppData\Local\Temp\cc5BNH7j.s:31800  .debug_str:00000000000296aa .LASF2988
C:\Users\CYMR90~1\AppData\Local\Temp\cc5BNH7j.s:21881  .debug_str:0000000000001969 .LASF2989
C:\Users\CYMR90~1\AppData\Local\Temp\cc5BNH7j.s:23935  .debug_str:0000000000009ca0 .LASF2990
C:\Users\CYMR90~1\AppData\Local\Temp\cc5BNH7j.s:31232  .debug_str:00000000000271ac .LASF2991
C:\Users\CYMR90~1\AppData\Local\Temp\cc5BNH7j.s:23499  .debug_str:0000000000008137 .LASF2992
C:\Users\CYMR90~1\AppData\Local\Temp\cc5BNH7j.s:24975  .debug_str:000000000000e148 .LASF2993
C:\Users\CYMR90~1\AppData\Local\Temp\cc5BNH7j.s:30466  .debug_str:0000000000023ddf .LASF2994
C:\Users\CYMR90~1\AppData\Local\Temp\cc5BNH7j.s:27810  .debug_str:000000000001985e .LASF2995
C:\Users\CYMR90~1\AppData\Local\Temp\cc5BNH7j.s:29292  .debug_str:000000000001f6cc .LASF2996
C:\Users\CYMR90~1\AppData\Local\Temp\cc5BNH7j.s:29212  .debug_str:000000000001f216 .LASF2997
C:\Users\CYMR90~1\AppData\Local\Temp\cc5BNH7j.s:23473  .debug_str:0000000000007eda .LASF2998
C:\Users\CYMR90~1\AppData\Local\Temp\cc5BNH7j.s:30762  .debug_str:0000000000025310 .LASF2999
C:\Users\CYMR90~1\AppData\Local\Temp\cc5BNH7j.s:30924  .debug_str:0000000000025df9 .LASF3000
C:\Users\CYMR90~1\AppData\Local\Temp\cc5BNH7j.s:30696  .debug_str:0000000000024df9 .LASF3001
C:\Users\CYMR90~1\AppData\Local\Temp\cc5BNH7j.s:22459  .debug_str:0000000000003d52 .LASF3002
C:\Users\CYMR90~1\AppData\Local\Temp\cc5BNH7j.s:29676  .debug_str:0000000000020e39 .LASF3003
C:\Users\CYMR90~1\AppData\Local\Temp\cc5BNH7j.s:25671  .debug_str:0000000000010d80 .LASF3004
C:\Users\CYMR90~1\AppData\Local\Temp\cc5BNH7j.s:31176  .debug_str:0000000000026dac .LASF3005
C:\Users\CYMR90~1\AppData\Local\Temp\cc5BNH7j.s:30342  .debug_str:00000000000236bc .LASF3006
C:\Users\CYMR90~1\AppData\Local\Temp\cc5BNH7j.s:27184  .debug_str:000000000001706e .LASF3007
C:\Users\CYMR90~1\AppData\Local\Temp\cc5BNH7j.s:26925  .debug_str:0000000000015dbf .LASF3008
C:\Users\CYMR90~1\AppData\Local\Temp\cc5BNH7j.s:29170  .debug_str:000000000001ef94 .LASF3009
C:\Users\CYMR90~1\AppData\Local\Temp\cc5BNH7j.s:25631  .debug_str:0000000000010ac6 .LASF3010
C:\Users\CYMR90~1\AppData\Local\Temp\cc5BNH7j.s:25757  .debug_str:0000000000011293 .LASF3011
C:\Users\CYMR90~1\AppData\Local\Temp\cc5BNH7j.s:25155  .debug_str:000000000000ec7b .LASF3012
C:\Users\CYMR90~1\AppData\Local\Temp\cc5BNH7j.s:25289  .debug_str:000000000000f476 .LASF3013
C:\Users\CYMR90~1\AppData\Local\Temp\cc5BNH7j.s:28902  .debug_str:000000000001df93 .LASF3014
C:\Users\CYMR90~1\AppData\Local\Temp\cc5BNH7j.s:31542  .debug_str:00000000000286c5 .LASF3015
C:\Users\CYMR90~1\AppData\Local\Temp\cc5BNH7j.s:27041  .debug_str:0000000000016554 .LASF3016
C:\Users\CYMR90~1\AppData\Local\Temp\cc5BNH7j.s:30460  .debug_str:0000000000023d84 .LASF3017
C:\Users\CYMR90~1\AppData\Local\Temp\cc5BNH7j.s:22031  .debug_str:00000000000021e8 .LASF3018
C:\Users\CYMR90~1\AppData\Local\Temp\cc5BNH7j.s:23253  .debug_str:0000000000006fc8 .LASF3019
C:\Users\CYMR90~1\AppData\Local\Temp\cc5BNH7j.s:31594  .debug_str:00000000000289f2 .LASF3020
C:\Users\CYMR90~1\AppData\Local\Temp\cc5BNH7j.s:23987  .debug_str:0000000000009fe0 .LASF3021
C:\Users\CYMR90~1\AppData\Local\Temp\cc5BNH7j.s:26437  .debug_str:0000000000013f43 .LASF3022
C:\Users\CYMR90~1\AppData\Local\Temp\cc5BNH7j.s:25115  .debug_str:000000000000ea1c .LASF3023
C:\Users\CYMR90~1\AppData\Local\Temp\cc5BNH7j.s:26775  .debug_str:000000000001545e .LASF3024
C:\Users\CYMR90~1\AppData\Local\Temp\cc5BNH7j.s:29616  .debug_str:0000000000020af8 .LASF3025
C:\Users\CYMR90~1\AppData\Local\Temp\cc5BNH7j.s:27562  .debug_str:00000000000186da .LASF3026
C:\Users\CYMR90~1\AppData\Local\Temp\cc5BNH7j.s:29474  .debug_str:000000000002017e .LASF3027
C:\Users\CYMR90~1\AppData\Local\Temp\cc5BNH7j.s:31686  .debug_str:0000000000028fa2 .LASF3028
C:\Users\CYMR90~1\AppData\Local\Temp\cc5BNH7j.s:30120  .debug_str:0000000000022911 .LASF3029
C:\Users\CYMR90~1\AppData\Local\Temp\cc5BNH7j.s:24535  .debug_str:000000000000c42e .LASF3030
C:\Users\CYMR90~1\AppData\Local\Temp\cc5BNH7j.s:32488  .debug_str:000000000002c1c2 .LASF3031
C:\Users\CYMR90~1\AppData\Local\Temp\cc5BNH7j.s:29262  .debug_str:000000000001f501 .LASF3032
C:\Users\CYMR90~1\AppData\Local\Temp\cc5BNH7j.s:31214  .debug_str:0000000000026fdc .LASF3033
C:\Users\CYMR90~1\AppData\Local\Temp\cc5BNH7j.s:30958  .debug_str:0000000000026015 .LASF3034
C:\Users\CYMR90~1\AppData\Local\Temp\cc5BNH7j.s:24439  .debug_str:000000000000be4e .LASF3035
C:\Users\CYMR90~1\AppData\Local\Temp\cc5BNH7j.s:26823  .debug_str:00000000000156ee .LASF3036
C:\Users\CYMR90~1\AppData\Local\Temp\cc5BNH7j.s:26727  .debug_str:00000000000151ab .LASF3037
C:\Users\CYMR90~1\AppData\Local\Temp\cc5BNH7j.s:27626  .debug_str:0000000000018bcd .LASF3038
C:\Users\CYMR90~1\AppData\Local\Temp\cc5BNH7j.s:29298  .debug_str:000000000001f731 .LASF3039
C:\Users\CYMR90~1\AppData\Local\Temp\cc5BNH7j.s:29818  .debug_str:0000000000021721 .LASF3040
C:\Users\CYMR90~1\AppData\Local\Temp\cc5BNH7j.s:32622  .debug_str:000000000002ca24 .LASF3041
C:\Users\CYMR90~1\AppData\Local\Temp\cc5BNH7j.s:25345  .debug_str:000000000000f860 .LASF3042
C:\Users\CYMR90~1\AppData\Local\Temp\cc5BNH7j.s:22237  .debug_str:0000000000002eb3 .LASF3043
C:\Users\CYMR90~1\AppData\Local\Temp\cc5BNH7j.s:25199  .debug_str:000000000000eed8 .LASF3044
C:\Users\CYMR90~1\AppData\Local\Temp\cc5BNH7j.s:29498  .debug_str:000000000002033d .LASF3045
C:\Users\CYMR90~1\AppData\Local\Temp\cc5BNH7j.s:26799  .debug_str:0000000000015598 .LASF3046
C:\Users\CYMR90~1\AppData\Local\Temp\cc5BNH7j.s:25819  .debug_str:0000000000011696 .LASF3047
C:\Users\CYMR90~1\AppData\Local\Temp\cc5BNH7j.s:28404  .debug_str:000000000001bf4a .LASF3048
C:\Users\CYMR90~1\AppData\Local\Temp\cc5BNH7j.s:27440  .debug_str:0000000000017fab .LASF3049
C:\Users\CYMR90~1\AppData\Local\Temp\cc5BNH7j.s:29332  .debug_str:000000000001f950 .LASF3050
C:\Users\CYMR90~1\AppData\Local\Temp\cc5BNH7j.s:25633  .debug_str:0000000000010ade .LASF3051
C:\Users\CYMR90~1\AppData\Local\Temp\cc5BNH7j.s:31476  .debug_str:000000000002820c .LASF3052
C:\Users\CYMR90~1\AppData\Local\Temp\cc5BNH7j.s:23711  .debug_str:0000000000008eac .LASF3053
C:\Users\CYMR90~1\AppData\Local\Temp\cc5BNH7j.s:22805  .debug_str:000000000000540c .LASF3054
C:\Users\CYMR90~1\AppData\Local\Temp\cc5BNH7j.s:21865  .debug_str:000000000000187e .LASF3055
C:\Users\CYMR90~1\AppData\Local\Temp\cc5BNH7j.s:32178  .debug_str:000000000002ad08 .LASF3056
C:\Users\CYMR90~1\AppData\Local\Temp\cc5BNH7j.s:29764  .debug_str:00000000000213f1 .LASF3057
C:\Users\CYMR90~1\AppData\Local\Temp\cc5BNH7j.s:28796  .debug_str:000000000001d91f .LASF3058
C:\Users\CYMR90~1\AppData\Local\Temp\cc5BNH7j.s:27966  .debug_str:000000000001a1b8 .LASF3059
C:\Users\CYMR90~1\AppData\Local\Temp\cc5BNH7j.s:26965  .debug_str:0000000000016092 .LASF3060
C:\Users\CYMR90~1\AppData\Local\Temp\cc5BNH7j.s:26041  .debug_str:0000000000012605 .LASF3061
C:\Users\CYMR90~1\AppData\Local\Temp\cc5BNH7j.s:25077  .debug_str:000000000000e7b4 .LASF3062
C:\Users\CYMR90~1\AppData\Local\Temp\cc5BNH7j.s:25215  .debug_str:000000000000efc1 .LASF3063
C:\Users\CYMR90~1\AppData\Local\Temp\cc5BNH7j.s:31168  .debug_str:0000000000026d17 .LASF3064
C:\Users\CYMR90~1\AppData\Local\Temp\cc5BNH7j.s:30954  .debug_str:0000000000025fbf .LASF3065
C:\Users\CYMR90~1\AppData\Local\Temp\cc5BNH7j.s:25535  .debug_str:0000000000010421 .LASF3066
C:\Users\CYMR90~1\AppData\Local\Temp\cc5BNH7j.s:24393  .debug_str:000000000000bb0f .LASF3067
C:\Users\CYMR90~1\AppData\Local\Temp\cc5BNH7j.s:23307  .debug_str:0000000000007391 .LASF3068
C:\Users\CYMR90~1\AppData\Local\Temp\cc5BNH7j.s:28632  .debug_str:000000000001ce97 .LASF3069
C:\Users\CYMR90~1\AppData\Local\Temp\cc5BNH7j.s:30240  .debug_str:0000000000023022 .LASF3070
C:\Users\CYMR90~1\AppData\Local\Temp\cc5BNH7j.s:24571  .debug_str:000000000000c6c6 .LASF3071
C:\Users\CYMR90~1\AppData\Local\Temp\cc5BNH7j.s:22875  .debug_str:000000000000582b .LASF3072
C:\Users\CYMR90~1\AppData\Local\Temp\cc5BNH7j.s:22659  .debug_str:0000000000004b27 .LASF3073
C:\Users\CYMR90~1\AppData\Local\Temp\cc5BNH7j.s:28546  .debug_str:000000000001c894 .LASF3074
C:\Users\CYMR90~1\AppData\Local\Temp\cc5BNH7j.s:27057  .debug_str:000000000001664a .LASF3075
C:\Users\CYMR90~1\AppData\Local\Temp\cc5BNH7j.s:22173  .debug_str:0000000000002ad8 .LASF3076
C:\Users\CYMR90~1\AppData\Local\Temp\cc5BNH7j.s:32560  .debug_str:000000000002c649 .LASF3077
C:\Users\CYMR90~1\AppData\Local\Temp\cc5BNH7j.s:31514  .debug_str:00000000000284b8 .LASF3078
C:\Users\CYMR90~1\AppData\Local\Temp\cc5BNH7j.s:22629  .debug_str:000000000000493b .LASF3079
C:\Users\CYMR90~1\AppData\Local\Temp\cc5BNH7j.s:28382  .debug_str:000000000001bdd9 .LASF3080
C:\Users\CYMR90~1\AppData\Local\Temp\cc5BNH7j.s:25637  .debug_str:0000000000010b23 .LASF3081
C:\Users\CYMR90~1\AppData\Local\Temp\cc5BNH7j.s:28684  .debug_str:000000000001d217 .LASF3082
C:\Users\CYMR90~1\AppData\Local\Temp\cc5BNH7j.s:21559  .debug_str:000000000000053f .LASF3083
C:\Users\CYMR90~1\AppData\Local\Temp\cc5BNH7j.s:26215  .debug_str:0000000000013181 .LASF3084
C:\Users\CYMR90~1\AppData\Local\Temp\cc5BNH7j.s:30902  .debug_str:0000000000025c77 .LASF3085
C:\Users\CYMR90~1\AppData\Local\Temp\cc5BNH7j.s:26121  .debug_str:0000000000012b67 .LASF3086
C:\Users\CYMR90~1\AppData\Local\Temp\cc5BNH7j.s:23027  .debug_str:000000000000617c .LASF3087
C:\Users\CYMR90~1\AppData\Local\Temp\cc5BNH7j.s:27406  .debug_str:0000000000017df9 .LASF3088
C:\Users\CYMR90~1\AppData\Local\Temp\cc5BNH7j.s:25881  .debug_str:0000000000011b85 .LASF3089
C:\Users\CYMR90~1\AppData\Local\Temp\cc5BNH7j.s:24435  .debug_str:000000000000be17 .LASF3090
C:\Users\CYMR90~1\AppData\Local\Temp\cc5BNH7j.s:28248  .debug_str:000000000001b59f .LASF3091
C:\Users\CYMR90~1\AppData\Local\Temp\cc5BNH7j.s:24783  .debug_str:000000000000d5a6 .LASF3092
C:\Users\CYMR90~1\AppData\Local\Temp\cc5BNH7j.s:23777  .debug_str:0000000000009276 .LASF3093
C:\Users\CYMR90~1\AppData\Local\Temp\cc5BNH7j.s:30602  .debug_str:00000000000247e7 .LASF3094
C:\Users\CYMR90~1\AppData\Local\Temp\cc5BNH7j.s:25925  .debug_str:0000000000011e2d .LASF3095
C:\Users\CYMR90~1\AppData\Local\Temp\cc5BNH7j.s:30208  .debug_str:0000000000022e82 .LASF3096
C:\Users\CYMR90~1\AppData\Local\Temp\cc5BNH7j.s:24105  .debug_str:000000000000a777 .LASF3097
C:\Users\CYMR90~1\AppData\Local\Temp\cc5BNH7j.s:27826  .debug_str:0000000000019982 .LASF3098
C:\Users\CYMR90~1\AppData\Local\Temp\cc5BNH7j.s:31130  .debug_str:0000000000026aa3 .LASF3099
C:\Users\CYMR90~1\AppData\Local\Temp\cc5BNH7j.s:24811  .debug_str:000000000000d734 .LASF3100
C:\Users\CYMR90~1\AppData\Local\Temp\cc5BNH7j.s:22923  .debug_str:0000000000005b29 .LASF3101
C:\Users\CYMR90~1\AppData\Local\Temp\cc5BNH7j.s:24417  .debug_str:000000000000bce0 .LASF3102
C:\Users\CYMR90~1\AppData\Local\Temp\cc5BNH7j.s:23213  .debug_str:0000000000006d34 .LASF3103
C:\Users\CYMR90~1\AppData\Local\Temp\cc5BNH7j.s:25103  .debug_str:000000000000e979 .LASF3104
C:\Users\CYMR90~1\AppData\Local\Temp\cc5BNH7j.s:21703  .debug_str:0000000000000ea5 .LASF3105
C:\Users\CYMR90~1\AppData\Local\Temp\cc5BNH7j.s:32312  .debug_str:000000000002b5a2 .LASF3106
C:\Users\CYMR90~1\AppData\Local\Temp\cc5BNH7j.s:31906  .debug_str:0000000000029cb9 .LASF3107
C:\Users\CYMR90~1\AppData\Local\Temp\cc5BNH7j.s:29344  .debug_str:000000000001fa0e .LASF3108
C:\Users\CYMR90~1\AppData\Local\Temp\cc5BNH7j.s:30458  .debug_str:0000000000023d6c .LASF3109
C:\Users\CYMR90~1\AppData\Local\Temp\cc5BNH7j.s:28918  .debug_str:000000000001e0ab .LASF3110
C:\Users\CYMR90~1\AppData\Local\Temp\cc5BNH7j.s:29306  .debug_str:000000000001f790 .LASF3111
C:\Users\CYMR90~1\AppData\Local\Temp\cc5BNH7j.s:31270  .debug_str:00000000000273c9 .LASF3112
C:\Users\CYMR90~1\AppData\Local\Temp\cc5BNH7j.s:26515  .debug_str:000000000001442b .LASF3113
C:\Users\CYMR90~1\AppData\Local\Temp\cc5BNH7j.s:27063  .debug_str:00000000000166a5 .LASF3114
C:\Users\CYMR90~1\AppData\Local\Temp\cc5BNH7j.s:21961  .debug_str:0000000000001e2c .LASF3115
C:\Users\CYMR90~1\AppData\Local\Temp\cc5BNH7j.s:29290  .debug_str:000000000001f692 .LASF3116
C:\Users\CYMR90~1\AppData\Local\Temp\cc5BNH7j.s:29240  .debug_str:000000000001f3b9 .LASF3117
C:\Users\CYMR90~1\AppData\Local\Temp\cc5BNH7j.s:28354  .debug_str:000000000001bbf3 .LASF3118
C:\Users\CYMR90~1\AppData\Local\Temp\cc5BNH7j.s:22131  .debug_str:0000000000002843 .LASF3119
C:\Users\CYMR90~1\AppData\Local\Temp\cc5BNH7j.s:30770  .debug_str:000000000002537c .LASF3120
C:\Users\CYMR90~1\AppData\Local\Temp\cc5BNH7j.s:24703  .debug_str:000000000000cfbf .LASF3121
C:\Users\CYMR90~1\AppData\Local\Temp\cc5BNH7j.s:22475  .debug_str:0000000000003e88 .LASF3122
C:\Users\CYMR90~1\AppData\Local\Temp\cc5BNH7j.s:22221  .debug_str:0000000000002dc1 .LASF3123
C:\Users\CYMR90~1\AppData\Local\Temp\cc5BNH7j.s:23607  .debug_str:000000000000882f .LASF3124
C:\Users\CYMR90~1\AppData\Local\Temp\cc5BNH7j.s:28910  .debug_str:000000000001e01d .LASF3125
C:\Users\CYMR90~1\AppData\Local\Temp\cc5BNH7j.s:30052  .debug_str:0000000000022535 .LASF3126
C:\Users\CYMR90~1\AppData\Local\Temp\cc5BNH7j.s:23979  .debug_str:0000000000009f6d .LASF3127
C:\Users\CYMR90~1\AppData\Local\Temp\cc5BNH7j.s:24897  .debug_str:000000000000dc0f .LASF3128
C:\Users\CYMR90~1\AppData\Local\Temp\cc5BNH7j.s:26863  .debug_str:0000000000015967 .LASF3129
C:\Users\CYMR90~1\AppData\Local\Temp\cc5BNH7j.s:24939  .debug_str:000000000000df0c .LASF3130
C:\Users\CYMR90~1\AppData\Local\Temp\cc5BNH7j.s:28138  .debug_str:000000000001aeb9 .LASF3131
C:\Users\CYMR90~1\AppData\Local\Temp\cc5BNH7j.s:27784  .debug_str:000000000001962d .LASF3132
C:\Users\CYMR90~1\AppData\Local\Temp\cc5BNH7j.s:24425  .debug_str:000000000000bd64 .LASF3133
C:\Users\CYMR90~1\AppData\Local\Temp\cc5BNH7j.s:29502  .debug_str:000000000002037f .LASF3134
C:\Users\CYMR90~1\AppData\Local\Temp\cc5BNH7j.s:27338  .debug_str:00000000000179dc .LASF3135
C:\Users\CYMR90~1\AppData\Local\Temp\cc5BNH7j.s:31508  .debug_str:0000000000028446 .LASF3136
C:\Users\CYMR90~1\AppData\Local\Temp\cc5BNH7j.s:29012  .debug_str:000000000001e649 .LASF3137
C:\Users\CYMR90~1\AppData\Local\Temp\cc5BNH7j.s:28330  .debug_str:000000000001ba34 .LASF3138
C:\Users\CYMR90~1\AppData\Local\Temp\cc5BNH7j.s:24865  .debug_str:000000000000da1f .LASF3139
C:\Users\CYMR90~1\AppData\Local\Temp\cc5BNH7j.s:21987  .debug_str:0000000000001fa2 .LASF3140
C:\Users\CYMR90~1\AppData\Local\Temp\cc5BNH7j.s:25129  .debug_str:000000000000eb13 .LASF3141
C:\Users\CYMR90~1\AppData\Local\Temp\cc5BNH7j.s:25171  .debug_str:000000000000ed3c .LASF3142
C:\Users\CYMR90~1\AppData\Local\Temp\cc5BNH7j.s:31040  .debug_str:0000000000026509 .LASF3143
C:\Users\CYMR90~1\AppData\Local\Temp\cc5BNH7j.s:31394  .debug_str:0000000000027bfe .LASF3144
C:\Users\CYMR90~1\AppData\Local\Temp\cc5BNH7j.s:27430  .debug_str:0000000000017f2f .LASF3145
C:\Users\CYMR90~1\AppData\Local\Temp\cc5BNH7j.s:30154  .debug_str:0000000000022b73 .LASF3146
C:\Users\CYMR90~1\AppData\Local\Temp\cc5BNH7j.s:21821  .debug_str:0000000000001526 .LASF3147
C:\Users\CYMR90~1\AppData\Local\Temp\cc5BNH7j.s:22125  .debug_str:00000000000027e7 .LASF3148
C:\Users\CYMR90~1\AppData\Local\Temp\cc5BNH7j.s:31982  .debug_str:000000000002a100 .LASF3149
C:\Users\CYMR90~1\AppData\Local\Temp\cc5BNH7j.s:23011  .debug_str:00000000000060af .LASF3150
C:\Users\CYMR90~1\AppData\Local\Temp\cc5BNH7j.s:26219  .debug_str:00000000000131c3 .LASF3151
C:\Users\CYMR90~1\AppData\Local\Temp\cc5BNH7j.s:24773  .debug_str:000000000000d4ee .LASF3152
C:\Users\CYMR90~1\AppData\Local\Temp\cc5BNH7j.s:29724  .debug_str:00000000000210d7 .LASF3153
C:\Users\CYMR90~1\AppData\Local\Temp\cc5BNH7j.s:27794  .debug_str:000000000001970d .LASF3154
C:\Users\CYMR90~1\AppData\Local\Temp\cc5BNH7j.s:23957  .debug_str:0000000000009df8 .LASF3155
C:\Users\CYMR90~1\AppData\Local\Temp\cc5BNH7j.s:23715  .debug_str:0000000000008ee9 .LASF3156
C:\Users\CYMR90~1\AppData\Local\Temp\cc5BNH7j.s:24297  .debug_str:000000000000b46f .LASF3157
C:\Users\CYMR90~1\AppData\Local\Temp\cc5BNH7j.s:22549  .debug_str:0000000000004382 .LASF3158
C:\Users\CYMR90~1\AppData\Local\Temp\cc5BNH7j.s:25655  .debug_str:0000000000010cb9 .LASF3159
C:\Users\CYMR90~1\AppData\Local\Temp\cc5BNH7j.s:27324  .debug_str:0000000000017914 .LASF3160
C:\Users\CYMR90~1\AppData\Local\Temp\cc5BNH7j.s:23581  .debug_str:0000000000008644 .LASF3161
C:\Users\CYMR90~1\AppData\Local\Temp\cc5BNH7j.s:24373  .debug_str:000000000000b97a .LASF3162
C:\Users\CYMR90~1\AppData\Local\Temp\cc5BNH7j.s:24325  .debug_str:000000000000b679 .LASF3163
C:\Users\CYMR90~1\AppData\Local\Temp\cc5BNH7j.s:27228  .debug_str:00000000000172e2 .LASF3164
C:\Users\CYMR90~1\AppData\Local\Temp\cc5BNH7j.s:31018  .debug_str:00000000000263a8 .LASF3165
C:\Users\CYMR90~1\AppData\Local\Temp\cc5BNH7j.s:24053  .debug_str:000000000000a43f .LASF3166
C:\Users\CYMR90~1\AppData\Local\Temp\cc5BNH7j.s:22101  .debug_str:0000000000002632 .LASF3167
C:\Users\CYMR90~1\AppData\Local\Temp\cc5BNH7j.s:29040  .debug_str:000000000001e81b .LASF3168
C:\Users\CYMR90~1\AppData\Local\Temp\cc5BNH7j.s:21787  .debug_str:0000000000001360 .LASF3169
C:\Users\CYMR90~1\AppData\Local\Temp\cc5BNH7j.s:27610  .debug_str:0000000000018a2e .LASF3170
C:\Users\CYMR90~1\AppData\Local\Temp\cc5BNH7j.s:21893  .debug_str:0000000000001a25 .LASF3171
C:\Users\CYMR90~1\AppData\Local\Temp\cc5BNH7j.s:32572  .debug_str:000000000002c732 .LASF3172
C:\Users\CYMR90~1\AppData\Local\Temp\cc5BNH7j.s:26781  .debug_str:000000000001549c .LASF3173
C:\Users\CYMR90~1\AppData\Local\Temp\cc5BNH7j.s:30554  .debug_str:0000000000024473 .LASF3174
C:\Users\CYMR90~1\AppData\Local\Temp\cc5BNH7j.s:23993  .debug_str:000000000000a041 .LASF3175
C:\Users\CYMR90~1\AppData\Local\Temp\cc5BNH7j.s:21919  .debug_str:0000000000001bbf .LASF3176
C:\Users\CYMR90~1\AppData\Local\Temp\cc5BNH7j.s:23033  .debug_str:00000000000061ea .LASF3177
C:\Users\CYMR90~1\AppData\Local\Temp\cc5BNH7j.s:28212  .debug_str:000000000001b380 .LASF3178
C:\Users\CYMR90~1\AppData\Local\Temp\cc5BNH7j.s:22483  .debug_str:0000000000003ef7 .LASF3179
C:\Users\CYMR90~1\AppData\Local\Temp\cc5BNH7j.s:23721  .debug_str:0000000000008f4c .LASF3180
C:\Users\CYMR90~1\AppData\Local\Temp\cc5BNH7j.s:22785  .debug_str:00000000000052c7 .LASF3181
C:\Users\CYMR90~1\AppData\Local\Temp\cc5BNH7j.s:32076  .debug_str:000000000002a70b .LASF3182
C:\Users\CYMR90~1\AppData\Local\Temp\cc5BNH7j.s:24447  .debug_str:000000000000bebe .LASF3183
C:\Users\CYMR90~1\AppData\Local\Temp\cc5BNH7j.s:22139  .debug_str:00000000000028be .LASF3184
C:\Users\CYMR90~1\AppData\Local\Temp\cc5BNH7j.s:30012  .debug_str:00000000000222cc .LASF3185
C:\Users\CYMR90~1\AppData\Local\Temp\cc5BNH7j.s:26691  .debug_str:0000000000014f77 .LASF3186
C:\Users\CYMR90~1\AppData\Local\Temp\cc5BNH7j.s:23303  .debug_str:000000000000734a .LASF3187
C:\Users\CYMR90~1\AppData\Local\Temp\cc5BNH7j.s:28192  .debug_str:000000000001b25a .LASF3188
C:\Users\CYMR90~1\AppData\Local\Temp\cc5BNH7j.s:22921  .debug_str:0000000000005b0a .LASF3189
C:\Users\CYMR90~1\AppData\Local\Temp\cc5BNH7j.s:23811  .debug_str:00000000000094c8 .LASF3190
C:\Users\CYMR90~1\AppData\Local\Temp\cc5BNH7j.s:26057  .debug_str:0000000000012718 .LASF3191
C:\Users\CYMR90~1\AppData\Local\Temp\cc5BNH7j.s:30030  .debug_str:00000000000223bd .LASF3192
C:\Users\CYMR90~1\AppData\Local\Temp\cc5BNH7j.s:31376  .debug_str:0000000000027aaf .LASF3193
C:\Users\CYMR90~1\AppData\Local\Temp\cc5BNH7j.s:27422  .debug_str:0000000000017ec9 .LASF3194
C:\Users\CYMR90~1\AppData\Local\Temp\cc5BNH7j.s:25287  .debug_str:000000000000f456 .LASF3195
C:\Users\CYMR90~1\AppData\Local\Temp\cc5BNH7j.s:30028  .debug_str:00000000000223a4 .LASF3196
C:\Users\CYMR90~1\AppData\Local\Temp\cc5BNH7j.s:31810  .debug_str:0000000000029714 .LASF3197
C:\Users\CYMR90~1\AppData\Local\Temp\cc5BNH7j.s:28056  .debug_str:000000000001a91a .LASF3198
C:\Users\CYMR90~1\AppData\Local\Temp\cc5BNH7j.s:23171  .debug_str:0000000000006a70 .LASF3199
C:\Users\CYMR90~1\AppData\Local\Temp\cc5BNH7j.s:22791  .debug_str:000000000000530b .LASF3200
C:\Users\CYMR90~1\AppData\Local\Temp\cc5BNH7j.s:28956  .debug_str:000000000001e2dc .LASF3201
C:\Users\CYMR90~1\AppData\Local\Temp\cc5BNH7j.s:24995  .debug_str:000000000000e274 .LASF3202
C:\Users\CYMR90~1\AppData\Local\Temp\cc5BNH7j.s:30226  .debug_str:0000000000022f4b .LASF3203
C:\Users\CYMR90~1\AppData\Local\Temp\cc5BNH7j.s:27282  .debug_str:000000000001762e .LASF3204
C:\Users\CYMR90~1\AppData\Local\Temp\cc5BNH7j.s:30668  .debug_str:0000000000024c19 .LASF3205
C:\Users\CYMR90~1\AppData\Local\Temp\cc5BNH7j.s:30066  .debug_str:0000000000022607 .LASF3206
C:\Users\CYMR90~1\AppData\Local\Temp\cc5BNH7j.s:27334  .debug_str:00000000000179b3 .LASF3207
C:\Users\CYMR90~1\AppData\Local\Temp\cc5BNH7j.s:32248  .debug_str:000000000002b17a .LASF3208
C:\Users\CYMR90~1\AppData\Local\Temp\cc5BNH7j.s:32542  .debug_str:000000000002c50d .LASF3209
C:\Users\CYMR90~1\AppData\Local\Temp\cc5BNH7j.s:30974  .debug_str:0000000000026100 .LASF3210
C:\Users\CYMR90~1\AppData\Local\Temp\cc5BNH7j.s:22439  .debug_str:0000000000003c12 .LASF3211
C:\Users\CYMR90~1\AppData\Local\Temp\cc5BNH7j.s:25217  .debug_str:000000000000eff0 .LASF3212
C:\Users\CYMR90~1\AppData\Local\Temp\cc5BNH7j.s:22409  .debug_str:0000000000003a3e .LASF3213
C:\Users\CYMR90~1\AppData\Local\Temp\cc5BNH7j.s:25771  .debug_str:0000000000011382 .LASF3214
C:\Users\CYMR90~1\AppData\Local\Temp\cc5BNH7j.s:25591  .debug_str:0000000000010811 .LASF3215
C:\Users\CYMR90~1\AppData\Local\Temp\cc5BNH7j.s:23141  .debug_str:0000000000006882 .LASF3216
C:\Users\CYMR90~1\AppData\Local\Temp\cc5BNH7j.s:25975  .debug_str:000000000001221d .LASF3217
C:\Users\CYMR90~1\AppData\Local\Temp\cc5BNH7j.s:25635  .debug_str:0000000000010b06 .LASF3218
C:\Users\CYMR90~1\AppData\Local\Temp\cc5BNH7j.s:23385  .debug_str:000000000000788b .LASF3219
C:\Users\CYMR90~1\AppData\Local\Temp\cc5BNH7j.s:24059  .debug_str:000000000000a489 .LASF3220
C:\Users\CYMR90~1\AppData\Local\Temp\cc5BNH7j.s:26457  .debug_str:00000000000140a6 .LASF3221
C:\Users\CYMR90~1\AppData\Local\Temp\cc5BNH7j.s:28964  .debug_str:000000000001e351 .LASF3222
C:\Users\CYMR90~1\AppData\Local\Temp\cc5BNH7j.s:22591  .debug_str:000000000000465e .LASF3223
C:\Users\CYMR90~1\AppData\Local\Temp\cc5BNH7j.s:29500  .debug_str:0000000000020369 .LASF3224
C:\Users\CYMR90~1\AppData\Local\Temp\cc5BNH7j.s:29864  .debug_str:00000000000219f7 .LASF3225
C:\Users\CYMR90~1\AppData\Local\Temp\cc5BNH7j.s:23867  .debug_str:000000000000985e .LASF3226
C:\Users\CYMR90~1\AppData\Local\Temp\cc5BNH7j.s:23217  .debug_str:0000000000006d66 .LASF3227
C:\Users\CYMR90~1\AppData\Local\Temp\cc5BNH7j.s:23733  .debug_str:0000000000008fd4 .LASF3228
C:\Users\CYMR90~1\AppData\Local\Temp\cc5BNH7j.s:22199  .debug_str:0000000000002c82 .LASF3229
C:\Users\CYMR90~1\AppData\Local\Temp\cc5BNH7j.s:32400  .debug_str:000000000002bb6e .LASF3230
C:\Users\CYMR90~1\AppData\Local\Temp\cc5BNH7j.s:23017  .debug_str:0000000000006102 .LASF3231
C:\Users\CYMR90~1\AppData\Local\Temp\cc5BNH7j.s:21591  .debug_str:0000000000000727 .LASF3232
C:\Users\CYMR90~1\AppData\Local\Temp\cc5BNH7j.s:22597  .debug_str:00000000000046db .LASF3233
C:\Users\CYMR90~1\AppData\Local\Temp\cc5BNH7j.s:29966  .debug_str:0000000000022035 .LASF3234
C:\Users\CYMR90~1\AppData\Local\Temp\cc5BNH7j.s:26049  .debug_str:0000000000012692 .LASF3235
C:\Users\CYMR90~1\AppData\Local\Temp\cc5BNH7j.s:29582  .debug_str:000000000002089b .LASF3236
C:\Users\CYMR90~1\AppData\Local\Temp\cc5BNH7j.s:21531  .debug_str:00000000000003ba .LASF3237
C:\Users\CYMR90~1\AppData\Local\Temp\cc5BNH7j.s:29178  .debug_str:000000000001f00d .LASF3238
C:\Users\CYMR90~1\AppData\Local\Temp\cc5BNH7j.s:28044  .debug_str:000000000001a858 .LASF3239
C:\Users\CYMR90~1\AppData\Local\Temp\cc5BNH7j.s:28954  .debug_str:000000000001e2bc .LASF3240
C:\Users\CYMR90~1\AppData\Local\Temp\cc5BNH7j.s:28538  .debug_str:000000000001c7ff .LASF3241
C:\Users\CYMR90~1\AppData\Local\Temp\cc5BNH7j.s:27402  .debug_str:0000000000017dc3 .LASF3242
C:\Users\CYMR90~1\AppData\Local\Temp\cc5BNH7j.s:25935  .debug_str:0000000000011eb6 .LASF3243
C:\Users\CYMR90~1\AppData\Local\Temp\cc5BNH7j.s:23949  .debug_str:0000000000009d65 .LASF3244
C:\Users\CYMR90~1\AppData\Local\Temp\cc5BNH7j.s:28828  .debug_str:000000000001dae6 .LASF3245
C:\Users\CYMR90~1\AppData\Local\Temp\cc5BNH7j.s:32492  .debug_str:000000000002c223 .LASF3246
C:\Users\CYMR90~1\AppData\Local\Temp\cc5BNH7j.s:27804  .debug_str:0000000000019813 .LASF3247
C:\Users\CYMR90~1\AppData\Local\Temp\cc5BNH7j.s:28114  .debug_str:000000000001acc9 .LASF3248
C:\Users\CYMR90~1\AppData\Local\Temp\cc5BNH7j.s:30594  .debug_str:0000000000024785 .LASF3249
C:\Users\CYMR90~1\AppData\Local\Temp\cc5BNH7j.s:31978  .debug_str:000000000002a0cd .LASF3250
C:\Users\CYMR90~1\AppData\Local\Temp\cc5BNH7j.s:25815  .debug_str:000000000001165a .LASF3251
C:\Users\CYMR90~1\AppData\Local\Temp\cc5BNH7j.s:28780  .debug_str:000000000001d847 .LASF3252
C:\Users\CYMR90~1\AppData\Local\Temp\cc5BNH7j.s:24895  .debug_str:000000000000dbf7 .LASF3253
C:\Users\CYMR90~1\AppData\Local\Temp\cc5BNH7j.s:31750  .debug_str:0000000000029369 .LASF3254
C:\Users\CYMR90~1\AppData\Local\Temp\cc5BNH7j.s:23315  .debug_str:0000000000007401 .LASF3255
C:\Users\CYMR90~1\AppData\Local\Temp\cc5BNH7j.s:32024  .debug_str:000000000002a3d7 .LASF3256
C:\Users\CYMR90~1\AppData\Local\Temp\cc5BNH7j.s:30818  .debug_str:0000000000025748 .LASF3257
C:\Users\CYMR90~1\AppData\Local\Temp\cc5BNH7j.s:22365  .debug_str:0000000000003764 .LASF3258
C:\Users\CYMR90~1\AppData\Local\Temp\cc5BNH7j.s:25529  .debug_str:00000000000103c3 .LASF3259
C:\Users\CYMR90~1\AppData\Local\Temp\cc5BNH7j.s:31480  .debug_str:000000000002825a .LASF3260
C:\Users\CYMR90~1\AppData\Local\Temp\cc5BNH7j.s:25999  .debug_str:000000000001236a .LASF3261
C:\Users\CYMR90~1\AppData\Local\Temp\cc5BNH7j.s:24119  .debug_str:000000000000a836 .LASF3262
C:\Users\CYMR90~1\AppData\Local\Temp\cc5BNH7j.s:32304  .debug_str:000000000002b50e .LASF3263
C:\Users\CYMR90~1\AppData\Local\Temp\cc5BNH7j.s:24203  .debug_str:000000000000ae4f .LASF3264
C:\Users\CYMR90~1\AppData\Local\Temp\cc5BNH7j.s:27858  .debug_str:0000000000019b7f .LASF3265
C:\Users\CYMR90~1\AppData\Local\Temp\cc5BNH7j.s:32056  .debug_str:000000000002a5cd .LASF3266
C:\Users\CYMR90~1\AppData\Local\Temp\cc5BNH7j.s:27604  .debug_str:00000000000189a5 .LASF3267
C:\Users\CYMR90~1\AppData\Local\Temp\cc5BNH7j.s:32094  .debug_str:000000000002a804 .LASF3268
C:\Users\CYMR90~1\AppData\Local\Temp\cc5BNH7j.s:29690  .debug_str:0000000000020ed8 .LASF3269
C:\Users\CYMR90~1\AppData\Local\Temp\cc5BNH7j.s:31058  .debug_str:0000000000026648 .LASF3270
C:\Users\CYMR90~1\AppData\Local\Temp\cc5BNH7j.s:24751  .debug_str:000000000000d34d .LASF3271
C:\Users\CYMR90~1\AppData\Local\Temp\cc5BNH7j.s:30446  .debug_str:0000000000023cc0 .LASF3272
C:\Users\CYMR90~1\AppData\Local\Temp\cc5BNH7j.s:26581  .debug_str:0000000000014849 .LASF3273
C:\Users\CYMR90~1\AppData\Local\Temp\cc5BNH7j.s:25421  .debug_str:000000000000fd0e .LASF3274
C:\Users\CYMR90~1\AppData\Local\Temp\cc5BNH7j.s:28526  .debug_str:000000000001c695 .LASF3275
C:\Users\CYMR90~1\AppData\Local\Temp\cc5BNH7j.s:31314  .debug_str:0000000000027637 .LASF3276
C:\Users\CYMR90~1\AppData\Local\Temp\cc5BNH7j.s:22389  .debug_str:00000000000038d8 .LASF3277
C:\Users\CYMR90~1\AppData\Local\Temp\cc5BNH7j.s:28760  .debug_str:000000000001d6d6 .LASF3278
C:\Users\CYMR90~1\AppData\Local\Temp\cc5BNH7j.s:31490  .debug_str:00000000000282fe .LASF3279
C:\Users\CYMR90~1\AppData\Local\Temp\cc5BNH7j.s:23627  .debug_str:0000000000008968 .LASF3280
C:\Users\CYMR90~1\AppData\Local\Temp\cc5BNH7j.s:29938  .debug_str:0000000000021e71 .LASF3281
C:\Users\CYMR90~1\AppData\Local\Temp\cc5BNH7j.s:26759  .debug_str:0000000000015361 .LASF3282
C:\Users\CYMR90~1\AppData\Local\Temp\cc5BNH7j.s:23717  .debug_str:0000000000008f0d .LASF3283
C:\Users\CYMR90~1\AppData\Local\Temp\cc5BNH7j.s:28666  .debug_str:000000000001d13d .LASF3284
C:\Users\CYMR90~1\AppData\Local\Temp\cc5BNH7j.s:26141  .debug_str:0000000000012caa .LASF3285
C:\Users\CYMR90~1\AppData\Local\Temp\cc5BNH7j.s:24181  .debug_str:000000000000ac15 .LASF3286
C:\Users\CYMR90~1\AppData\Local\Temp\cc5BNH7j.s:28596  .debug_str:000000000001cbb4 .LASF3287
C:\Users\CYMR90~1\AppData\Local\Temp\cc5BNH7j.s:30692  .debug_str:0000000000024db6 .LASF3288
C:\Users\CYMR90~1\AppData\Local\Temp\cc5BNH7j.s:22677  .debug_str:0000000000004c45 .LASF3289
C:\Users\CYMR90~1\AppData\Local\Temp\cc5BNH7j.s:31992  .debug_str:000000000002a1ba .LASF3290
C:\Users\CYMR90~1\AppData\Local\Temp\cc5BNH7j.s:30884  .debug_str:0000000000025b55 .LASF3291
C:\Users\CYMR90~1\AppData\Local\Temp\cc5BNH7j.s:27904  .debug_str:0000000000019e0a .LASF3292
C:\Users\CYMR90~1\AppData\Local\Temp\cc5BNH7j.s:27912  .debug_str:0000000000019e9b .LASF3293
C:\Users\CYMR90~1\AppData\Local\Temp\cc5BNH7j.s:31172  .debug_str:0000000000026d59 .LASF3294
C:\Users\CYMR90~1\AppData\Local\Temp\cc5BNH7j.s:26031  .debug_str:0000000000012557 .LASF3295
C:\Users\CYMR90~1\AppData\Local\Temp\cc5BNH7j.s:31964  .debug_str:000000000002a018 .LASF3296
C:\Users\CYMR90~1\AppData\Local\Temp\cc5BNH7j.s:27568  .debug_str:0000000000018759 .LASF3297
C:\Users\CYMR90~1\AppData\Local\Temp\cc5BNH7j.s:31248  .debug_str:0000000000027292 .LASF3298
C:\Users\CYMR90~1\AppData\Local\Temp\cc5BNH7j.s:22571  .debug_str:00000000000044df .LASF3299
C:\Users\CYMR90~1\AppData\Local\Temp\cc5BNH7j.s:25625  .debug_str:0000000000010a2c .LASF3300
C:\Users\CYMR90~1\AppData\Local\Temp\cc5BNH7j.s:28936  .debug_str:000000000001e19d .LASF3301
C:\Users\CYMR90~1\AppData\Local\Temp\cc5BNH7j.s:25959  .debug_str:00000000000120ef .LASF3302
C:\Users\CYMR90~1\AppData\Local\Temp\cc5BNH7j.s:25375  .debug_str:000000000000fa10 .LASF3303
C:\Users\CYMR90~1\AppData\Local\Temp\cc5BNH7j.s:26139  .debug_str:0000000000012c71 .LASF3304
C:\Users\CYMR90~1\AppData\Local\Temp\cc5BNH7j.s:30162  .debug_str:0000000000022bc9 .LASF3305
C:\Users\CYMR90~1\AppData\Local\Temp\cc5BNH7j.s:26943  .debug_str:0000000000015f04 .LASF3306
C:\Users\CYMR90~1\AppData\Local\Temp\cc5BNH7j.s:28508  .debug_str:000000000001c54b .LASF3307
C:\Users\CYMR90~1\AppData\Local\Temp\cc5BNH7j.s:31330  .debug_str:0000000000027765 .LASF3308
C:\Users\CYMR90~1\AppData\Local\Temp\cc5BNH7j.s:23417  .debug_str:0000000000007ab1 .LASF3309
C:\Users\CYMR90~1\AppData\Local\Temp\cc5BNH7j.s:22733  .debug_str:0000000000004f8c .LASF3310
C:\Users\CYMR90~1\AppData\Local\Temp\cc5BNH7j.s:26091  .debug_str:0000000000012959 .LASF3311
C:\Users\CYMR90~1\AppData\Local\Temp\cc5BNH7j.s:21745  .debug_str:00000000000010f4 .LASF3312
C:\Users\CYMR90~1\AppData\Local\Temp\cc5BNH7j.s:21837  .debug_str:0000000000001613 .LASF3313
C:\Users\CYMR90~1\AppData\Local\Temp\cc5BNH7j.s:31440  .debug_str:0000000000027f45 .LASF3314
C:\Users\CYMR90~1\AppData\Local\Temp\cc5BNH7j.s:28178  .debug_str:000000000001b15c .LASF3315
C:\Users\CYMR90~1\AppData\Local\Temp\cc5BNH7j.s:24671  .debug_str:000000000000cd9d .LASF3316
C:\Users\CYMR90~1\AppData\Local\Temp\cc5BNH7j.s:31328  .debug_str:000000000002772c .LASF3317
C:\Users\CYMR90~1\AppData\Local\Temp\cc5BNH7j.s:27514  .debug_str:0000000000018453 .LASF3318
C:\Users\CYMR90~1\AppData\Local\Temp\cc5BNH7j.s:25373  .debug_str:000000000000f9f7 .LASF3319
C:\Users\CYMR90~1\AppData\Local\Temp\cc5BNH7j.s:28990  .debug_str:000000000001e4e0 .LASF3320
C:\Users\CYMR90~1\AppData\Local\Temp\cc5BNH7j.s:24483  .debug_str:000000000000c10c .LASF3321
C:\Users\CYMR90~1\AppData\Local\Temp\cc5BNH7j.s:24057  .debug_str:000000000000a466 .LASF3322
C:\Users\CYMR90~1\AppData\Local\Temp\cc5BNH7j.s:27003  .debug_str:00000000000162c6 .LASF3323
C:\Users\CYMR90~1\AppData\Local\Temp\cc5BNH7j.s:27962  .debug_str:000000000001a176 .LASF3324
C:\Users\CYMR90~1\AppData\Local\Temp\cc5BNH7j.s:29242  .debug_str:000000000001f3d8 .LASF3325
C:\Users\CYMR90~1\AppData\Local\Temp\cc5BNH7j.s:25449  .debug_str:000000000000fee8 .LASF3326
C:\Users\CYMR90~1\AppData\Local\Temp\cc5BNH7j.s:32566  .debug_str:000000000002c6c2 .LASF3327
C:\Users\CYMR90~1\AppData\Local\Temp\cc5BNH7j.s:29948  .debug_str:0000000000021f15 .LASF3328
C:\Users\CYMR90~1\AppData\Local\Temp\cc5BNH7j.s:29964  .debug_str:0000000000022011 .LASF3329
C:\Users\CYMR90~1\AppData\Local\Temp\cc5BNH7j.s:24361  .debug_str:000000000000b8d6 .LASF3330
C:\Users\CYMR90~1\AppData\Local\Temp\cc5BNH7j.s:30242  .debug_str:000000000002304f .LASF3331
C:\Users\CYMR90~1\AppData\Local\Temp\cc5BNH7j.s:26421  .debug_str:0000000000013e4c .LASF3332
C:\Users\CYMR90~1\AppData\Local\Temp\cc5BNH7j.s:29134  .debug_str:000000000001ed1e .LASF3333
C:\Users\CYMR90~1\AppData\Local\Temp\cc5BNH7j.s:25201  .debug_str:000000000000eefa .LASF3334
C:\Users\CYMR90~1\AppData\Local\Temp\cc5BNH7j.s:31958  .debug_str:0000000000029fbe .LASF3335
C:\Users\CYMR90~1\AppData\Local\Temp\cc5BNH7j.s:25525  .debug_str:0000000000010386 .LASF3336
C:\Users\CYMR90~1\AppData\Local\Temp\cc5BNH7j.s:31566  .debug_str:0000000000028850 .LASF3337
C:\Users\CYMR90~1\AppData\Local\Temp\cc5BNH7j.s:26705  .debug_str:000000000001505a .LASF3338
C:\Users\CYMR90~1\AppData\Local\Temp\cc5BNH7j.s:23115  .debug_str:0000000000006701 .LASF3339
C:\Users\CYMR90~1\AppData\Local\Temp\cc5BNH7j.s:23757  .debug_str:000000000000915a .LASF3340
C:\Users\CYMR90~1\AppData\Local\Temp\cc5BNH7j.s:23343  .debug_str:00000000000075c5 .LASF3341
C:\Users\CYMR90~1\AppData\Local\Temp\cc5BNH7j.s:32686  .debug_str:000000000002ce93 .LASF3342
C:\Users\CYMR90~1\AppData\Local\Temp\cc5BNH7j.s:22523  .debug_str:00000000000041cb .LASF3343
C:\Users\CYMR90~1\AppData\Local\Temp\cc5BNH7j.s:32222  .debug_str:000000000002af86 .LASF3344
C:\Users\CYMR90~1\AppData\Local\Temp\cc5BNH7j.s:24819  .debug_str:000000000000d7aa .LASF3345
C:\Users\CYMR90~1\AppData\Local\Temp\cc5BNH7j.s:27492  .debug_str:00000000000182d8 .LASF3346
C:\Users\CYMR90~1\AppData\Local\Temp\cc5BNH7j.s:26941  .debug_str:0000000000015eec .LASF3347
C:\Users\CYMR90~1\AppData\Local\Temp\cc5BNH7j.s:30256  .debug_str:0000000000023110 .LASF3348
C:\Users\CYMR90~1\AppData\Local\Temp\cc5BNH7j.s:21757  .debug_str:000000000000119a .LASF3349
C:\Users\CYMR90~1\AppData\Local\Temp\cc5BNH7j.s:22693  .debug_str:0000000000004d57 .LASF3350
C:\Users\CYMR90~1\AppData\Local\Temp\cc5BNH7j.s:30114  .debug_str:00000000000228aa .LASF3351
C:\Users\CYMR90~1\AppData\Local\Temp\cc5BNH7j.s:22939  .debug_str:0000000000005c39 .LASF3352
C:\Users\CYMR90~1\AppData\Local\Temp\cc5BNH7j.s:30430  .debug_str:0000000000023bb4 .LASF3353
C:\Users\CYMR90~1\AppData\Local\Temp\cc5BNH7j.s:30846  .debug_str:0000000000025921 .LASF3354
C:\Users\CYMR90~1\AppData\Local\Temp\cc5BNH7j.s:29572  .debug_str:000000000002082d .LASF3355
C:\Users\CYMR90~1\AppData\Local\Temp\cc5BNH7j.s:26847  .debug_str:0000000000015886 .LASF3356
C:\Users\CYMR90~1\AppData\Local\Temp\cc5BNH7j.s:26599  .debug_str:0000000000014949 .LASF3357
C:\Users\CYMR90~1\AppData\Local\Temp\cc5BNH7j.s:27316  .debug_str:0000000000017881 .LASF3358
C:\Users\CYMR90~1\AppData\Local\Temp\cc5BNH7j.s:29468  .debug_str:000000000002011f .LASF3359
C:\Users\CYMR90~1\AppData\Local\Temp\cc5BNH7j.s:23311  .debug_str:00000000000073d3 .LASF3360
C:\Users\CYMR90~1\AppData\Local\Temp\cc5BNH7j.s:21525  .debug_str:0000000000000361 .LASF3361
C:\Users\CYMR90~1\AppData\Local\Temp\cc5BNH7j.s:31590  .debug_str:00000000000289c9 .LASF3362
C:\Users\CYMR90~1\AppData\Local\Temp\cc5BNH7j.s:21653  .debug_str:0000000000000b61 .LASF3363
C:\Users\CYMR90~1\AppData\Local\Temp\cc5BNH7j.s:29944  .debug_str:0000000000021ee5 .LASF3364
C:\Users\CYMR90~1\AppData\Local\Temp\cc5BNH7j.s:26741  .debug_str:0000000000015281 .LASF3365
C:\Users\CYMR90~1\AppData\Local\Temp\cc5BNH7j.s:26401  .debug_str:0000000000013d2a .LASF3366
C:\Users\CYMR90~1\AppData\Local\Temp\cc5BNH7j.s:24695  .debug_str:000000000000cf38 .LASF3367
C:\Users\CYMR90~1\AppData\Local\Temp\cc5BNH7j.s:30244  .debug_str:0000000000023075 .LASF3368
C:\Users\CYMR90~1\AppData\Local\Temp\cc5BNH7j.s:28220  .debug_str:000000000001b40b .LASF3369
C:\Users\CYMR90~1\AppData\Local\Temp\cc5BNH7j.s:27001  .debug_str:00000000000162a9 .LASF3370
C:\Users\CYMR90~1\AppData\Local\Temp\cc5BNH7j.s:30690  .debug_str:0000000000024d98 .LASF3371
C:\Users\CYMR90~1\AppData\Local\Temp\cc5BNH7j.s:25337  .debug_str:000000000000f7f6 .LASF3372
C:\Users\CYMR90~1\AppData\Local\Temp\cc5BNH7j.s:30160  .debug_str:0000000000022bad .LASF3373
C:\Users\CYMR90~1\AppData\Local\Temp\cc5BNH7j.s:26239  .debug_str:0000000000013312 .LASF3374
C:\Users\CYMR90~1\AppData\Local\Temp\cc5BNH7j.s:28710  .debug_str:000000000001d3a5 .LASF3375
C:\Users\CYMR90~1\AppData\Local\Temp\cc5BNH7j.s:31358  .debug_str:000000000002797b .LASF3376
C:\Users\CYMR90~1\AppData\Local\Temp\cc5BNH7j.s:32606  .debug_str:000000000002c93d .LASF3377
C:\Users\CYMR90~1\AppData\Local\Temp\cc5BNH7j.s:21901  .debug_str:0000000000001a8d .LASF3378
C:\Users\CYMR90~1\AppData\Local\Temp\cc5BNH7j.s:22455  .debug_str:0000000000003d1f .LASF3379
C:\Users\CYMR90~1\AppData\Local\Temp\cc5BNH7j.s:32294  .debug_str:000000000002b466 .LASF3380
C:\Users\CYMR90~1\AppData\Local\Temp\cc5BNH7j.s:24209  .debug_str:000000000000aeb0 .LASF3381
C:\Users\CYMR90~1\AppData\Local\Temp\cc5BNH7j.s:26393  .debug_str:0000000000013cd1 .LASF3382
C:\Users\CYMR90~1\AppData\Local\Temp\cc5BNH7j.s:22725  .debug_str:0000000000004f2c .LASF3383
C:\Users\CYMR90~1\AppData\Local\Temp\cc5BNH7j.s:24093  .debug_str:000000000000a684 .LASF3384
C:\Users\CYMR90~1\AppData\Local\Temp\cc5BNH7j.s:22917  .debug_str:0000000000005aca .LASF3385
C:\Users\CYMR90~1\AppData\Local\Temp\cc5BNH7j.s:24305  .debug_str:000000000000b4ff .LASF3386
C:\Users\CYMR90~1\AppData\Local\Temp\cc5BNH7j.s:22851  .debug_str:00000000000056c6 .LASF3387
C:\Users\CYMR90~1\AppData\Local\Temp\cc5BNH7j.s:25953  .debug_str:0000000000012089 .LASF3388
C:\Users\CYMR90~1\AppData\Local\Temp\cc5BNH7j.s:31348  .debug_str:00000000000278de .LASF3389
C:\Users\CYMR90~1\AppData\Local\Temp\cc5BNH7j.s:27746  .debug_str:00000000000193eb .LASF3390
C:\Users\CYMR90~1\AppData\Local\Temp\cc5BNH7j.s:26541  .debug_str:00000000000145d0 .LASF3391
C:\Users\CYMR90~1\AppData\Local\Temp\cc5BNH7j.s:32634  .debug_str:000000000002cb65 .LASF3392
C:\Users\CYMR90~1\AppData\Local\Temp\cc5BNH7j.s:29210  .debug_str:000000000001f1ef .LASF3393
C:\Users\CYMR90~1\AppData\Local\Temp\cc5BNH7j.s:25883  .debug_str:0000000000011b9f .LASF3394
C:\Users\CYMR90~1\AppData\Local\Temp\cc5BNH7j.s:23039  .debug_str:0000000000006227 .LASF3395
C:\Users\CYMR90~1\AppData\Local\Temp\cc5BNH7j.s:30300  .debug_str:00000000000233cb .LASF3396
C:\Users\CYMR90~1\AppData\Local\Temp\cc5BNH7j.s:26897  .debug_str:0000000000015bb0 .LASF3397
C:\Users\CYMR90~1\AppData\Local\Temp\cc5BNH7j.s:23543  .debug_str:000000000000840a .LASF3398
C:\Users\CYMR90~1\AppData\Local\Temp\cc5BNH7j.s:27436  .debug_str:0000000000017f62 .LASF3399
C:\Users\CYMR90~1\AppData\Local\Temp\cc5BNH7j.s:32356  .debug_str:000000000002b88e .LASF3400
C:\Users\CYMR90~1\AppData\Local\Temp\cc5BNH7j.s:30920  .debug_str:0000000000025d73 .LASF3401
C:\Users\CYMR90~1\AppData\Local\Temp\cc5BNH7j.s:21857  .debug_str:00000000000017f8 .LASF3402
C:\Users\CYMR90~1\AppData\Local\Temp\cc5BNH7j.s:22891  .debug_str:00000000000058f3 .LASF3403
C:\Users\CYMR90~1\AppData\Local\Temp\cc5BNH7j.s:28998  .debug_str:000000000001e52c .LASF3404
C:\Users\CYMR90~1\AppData\Local\Temp\cc5BNH7j.s:29218  .debug_str:000000000001f26d .LASF3405
C:\Users\CYMR90~1\AppData\Local\Temp\cc5BNH7j.s:30344  .debug_str:00000000000236d3 .LASF3406
C:\Users\CYMR90~1\AppData\Local\Temp\cc5BNH7j.s:21853  .debug_str:00000000000017b1 .LASF3407
C:\Users\CYMR90~1\AppData\Local\Temp\cc5BNH7j.s:27548  .debug_str:00000000000185ff .LASF3408
C:\Users\CYMR90~1\AppData\Local\Temp\cc5BNH7j.s:32586  .debug_str:000000000002c816 .LASF3409
C:\Users\CYMR90~1\AppData\Local\Temp\cc5BNH7j.s:24279  .debug_str:000000000000b2c2 .LASF3410
C:\Users\CYMR90~1\AppData\Local\Temp\cc5BNH7j.s:27420  .debug_str:0000000000017ea9 .LASF3411
C:\Users\CYMR90~1\AppData\Local\Temp\cc5BNH7j.s:21789  .debug_str:0000000000001373 .LASF3412
C:\Users\CYMR90~1\AppData\Local\Temp\cc5BNH7j.s:28486  .debug_str:000000000001c408 .LASF3413
C:\Users\CYMR90~1\AppData\Local\Temp\cc5BNH7j.s:24491  .debug_str:000000000000c182 .LASF3414
C:\Users\CYMR90~1\AppData\Local\Temp\cc5BNH7j.s:24755  .debug_str:000000000000d398 .LASF3415
C:\Users\CYMR90~1\AppData\Local\Temp\cc5BNH7j.s:32352  .debug_str:000000000002b843 .LASF3416
C:\Users\CYMR90~1\AppData\Local\Temp\cc5BNH7j.s:29416  .debug_str:000000000001fe50 .LASF3417
C:\Users\CYMR90~1\AppData\Local\Temp\cc5BNH7j.s:25231  .debug_str:000000000000f0e7 .LASF3418
C:\Users\CYMR90~1\AppData\Local\Temp\cc5BNH7j.s:30844  .debug_str:00000000000258f9 .LASF3419
C:\Users\CYMR90~1\AppData\Local\Temp\cc5BNH7j.s:29794  .debug_str:00000000000215b4 .LASF3420
C:\Users\CYMR90~1\AppData\Local\Temp\cc5BNH7j.s:25491  .debug_str:000000000001018d .LASF3421
C:\Users\CYMR90~1\AppData\Local\Temp\cc5BNH7j.s:29414  .debug_str:000000000001fe29 .LASF3422
C:\Users\CYMR90~1\AppData\Local\Temp\cc5BNH7j.s:26549  .debug_str:0000000000014680 .LASF3423
C:\Users\CYMR90~1\AppData\Local\Temp\cc5BNH7j.s:32232  .debug_str:000000000002b05e .LASF3424
C:\Users\CYMR90~1\AppData\Local\Temp\cc5BNH7j.s:23553  .debug_str:00000000000084a1 .LASF3425
C:\Users\CYMR90~1\AppData\Local\Temp\cc5BNH7j.s:29446  .debug_str:000000000001ffea .LASF3426
C:\Users\CYMR90~1\AppData\Local\Temp\cc5BNH7j.s:30980  .debug_str:000000000002615f .LASF3427
C:\Users\CYMR90~1\AppData\Local\Temp\cc5BNH7j.s:32636  .debug_str:000000000002cb8c .LASF3428
C:\Users\CYMR90~1\AppData\Local\Temp\cc5BNH7j.s:23929  .debug_str:0000000000009c41 .LASF3429
C:\Users\CYMR90~1\AppData\Local\Temp\cc5BNH7j.s:27786  .debug_str:0000000000019650 .LASF3430
C:\Users\CYMR90~1\AppData\Local\Temp\cc5BNH7j.s:25207  .debug_str:000000000000ef40 .LASF3431
C:\Users\CYMR90~1\AppData\Local\Temp\cc5BNH7j.s:29132  .debug_str:000000000001ed00 .LASF3432
C:\Users\CYMR90~1\AppData\Local\Temp\cc5BNH7j.s:27602  .debug_str:0000000000018986 .LASF3433
C:\Users\CYMR90~1\AppData\Local\Temp\cc5BNH7j.s:32158  .debug_str:000000000002abcd .LASF3434
C:\Users\CYMR90~1\AppData\Local\Temp\cc5BNH7j.s:28366  .debug_str:000000000001bcc6 .LASF3435
C:\Users\CYMR90~1\AppData\Local\Temp\cc5BNH7j.s:22443  .debug_str:0000000000003c60 .LASF3436
C:\Users\CYMR90~1\AppData\Local\Temp\cc5BNH7j.s:24193  .debug_str:000000000000ad0b .LASF3437
C:\Users\CYMR90~1\AppData\Local\Temp\cc5BNH7j.s:25227  .debug_str:000000000000f099 .LASF3438
C:\Users\CYMR90~1\AppData\Local\Temp\cc5BNH7j.s:29874  .debug_str:0000000000021a8c .LASF3439
C:\Users\CYMR90~1\AppData\Local\Temp\cc5BNH7j.s:27107  .debug_str:0000000000016a49 .LASF3440
C:\Users\CYMR90~1\AppData\Local\Temp\cc5BNH7j.s:28898  .debug_str:000000000001df3f .LASF3441
C:\Users\CYMR90~1\AppData\Local\Temp\cc5BNH7j.s:28130  .debug_str:000000000001addb .LASF3442
C:\Users\CYMR90~1\AppData\Local\Temp\cc5BNH7j.s:29898  .debug_str:0000000000021c2d .LASF3443
C:\Users\CYMR90~1\AppData\Local\Temp\cc5BNH7j.s:24159  .debug_str:000000000000aac7 .LASF3444
C:\Users\CYMR90~1\AppData\Local\Temp\cc5BNH7j.s:26517  .debug_str:0000000000014445 .LASF3445
C:\Users\CYMR90~1\AppData\Local\Temp\cc5BNH7j.s:22985  .debug_str:0000000000005ed6 .LASF3446
C:\Users\CYMR90~1\AppData\Local\Temp\cc5BNH7j.s:29626  .debug_str:0000000000020b8c .LASF3447
C:\Users\CYMR90~1\AppData\Local\Temp\cc5BNH7j.s:26127  .debug_str:0000000000012bab .LASF3448
C:\Users\CYMR90~1\AppData\Local\Temp\cc5BNH7j.s:28196  .debug_str:000000000001b294 .LASF3449
C:\Users\CYMR90~1\AppData\Local\Temp\cc5BNH7j.s:28072  .debug_str:000000000001aa2e .LASF3450
C:\Users\CYMR90~1\AppData\Local\Temp\cc5BNH7j.s:22745  .debug_str:0000000000005065 .LASF3451
C:\Users\CYMR90~1\AppData\Local\Temp\cc5BNH7j.s:29492  .debug_str:00000000000202cc .LASF3452
C:\Users\CYMR90~1\AppData\Local\Temp\cc5BNH7j.s:26205  .debug_str:00000000000130cc .LASF3453
C:\Users\CYMR90~1\AppData\Local\Temp\cc5BNH7j.s:24037  .debug_str:000000000000a320 .LASF3454
C:\Users\CYMR90~1\AppData\Local\Temp\cc5BNH7j.s:28528  .debug_str:000000000001c6ba .LASF3455
C:\Users\CYMR90~1\AppData\Local\Temp\cc5BNH7j.s:23249  .debug_str:0000000000006f67 .LASF3456
C:\Users\CYMR90~1\AppData\Local\Temp\cc5BNH7j.s:31166  .debug_str:0000000000026cf5 .LASF3457
C:\Users\CYMR90~1\AppData\Local\Temp\cc5BNH7j.s:22657  .debug_str:0000000000004b03 .LASF3458
C:\Users\CYMR90~1\AppData\Local\Temp\cc5BNH7j.s:22983  .debug_str:0000000000005ec5 .LASF3459
C:\Users\CYMR90~1\AppData\Local\Temp\cc5BNH7j.s:21971  .debug_str:0000000000001ebf .LASF3460
C:\Users\CYMR90~1\AppData\Local\Temp\cc5BNH7j.s:27496  .debug_str:000000000001830f .LASF3461
C:\Users\CYMR90~1\AppData\Local\Temp\cc5BNH7j.s:27216  .debug_str:000000000001723c .LASF3462
C:\Users\CYMR90~1\AppData\Local\Temp\cc5BNH7j.s:28246  .debug_str:000000000001b57d .LASF3463
C:\Users\CYMR90~1\AppData\Local\Temp\cc5BNH7j.s:24909  .debug_str:000000000000dd1e .LASF3464
C:\Users\CYMR90~1\AppData\Local\Temp\cc5BNH7j.s:29622  .debug_str:0000000000020b4f .LASF3465
C:\Users\CYMR90~1\AppData\Local\Temp\cc5BNH7j.s:30494  .debug_str:0000000000024082 .LASF3466
C:\Users\CYMR90~1\AppData\Local\Temp\cc5BNH7j.s:31360  .debug_str:0000000000027992 .LASF3467
C:\Users\CYMR90~1\AppData\Local\Temp\cc5BNH7j.s:29748  .debug_str:00000000000212ed .LASF3468
C:\Users\CYMR90~1\AppData\Local\Temp\cc5BNH7j.s:31004  .debug_str:00000000000262bd .LASF3469
C:\Users\CYMR90~1\AppData\Local\Temp\cc5BNH7j.s:23267  .debug_str:00000000000070d5 .LASF3470
C:\Users\CYMR90~1\AppData\Local\Temp\cc5BNH7j.s:28254  .debug_str:000000000001b60a .LASF3471
C:\Users\CYMR90~1\AppData\Local\Temp\cc5BNH7j.s:22065  .debug_str:00000000000023d4 .LASF3472
C:\Users\CYMR90~1\AppData\Local\Temp\cc5BNH7j.s:30760  .debug_str:00000000000252ec .LASF3473
C:\Users\CYMR90~1\AppData\Local\Temp\cc5BNH7j.s:24497  .debug_str:000000000000c201 .LASF3474
C:\Users\CYMR90~1\AppData\Local\Temp\cc5BNH7j.s:26975  .debug_str:000000000001611c .LASF3475
C:\Users\CYMR90~1\AppData\Local\Temp\cc5BNH7j.s:31198  .debug_str:0000000000026ec7 .LASF3476
C:\Users\CYMR90~1\AppData\Local\Temp\cc5BNH7j.s:24147  .debug_str:000000000000a9f7 .LASF3477
C:\Users\CYMR90~1\AppData\Local\Temp\cc5BNH7j.s:24985  .debug_str:000000000000e1de .LASF3478
C:\Users\CYMR90~1\AppData\Local\Temp\cc5BNH7j.s:22661  .debug_str:0000000000004b52 .LASF3479
C:\Users\CYMR90~1\AppData\Local\Temp\cc5BNH7j.s:21647  .debug_str:0000000000000ae7 .LASF3480
C:\Users\CYMR90~1\AppData\Local\Temp\cc5BNH7j.s:29908  .debug_str:0000000000021cd1 .LASF3481
C:\Users\CYMR90~1\AppData\Local\Temp\cc5BNH7j.s:24165  .debug_str:000000000000ab1c .LASF3482
C:\Users\CYMR90~1\AppData\Local\Temp\cc5BNH7j.s:22357  .debug_str:00000000000036c4 .LASF3483
C:\Users\CYMR90~1\AppData\Local\Temp\cc5BNH7j.s:21817  .debug_str:00000000000014ec .LASF3484
C:\Users\CYMR90~1\AppData\Local\Temp\cc5BNH7j.s:27516  .debug_str:000000000001846c .LASF3485
C:\Users\CYMR90~1\AppData\Local\Temp\cc5BNH7j.s:26997  .debug_str:0000000000016269 .LASF3486
C:\Users\CYMR90~1\AppData\Local\Temp\cc5BNH7j.s:26191  .debug_str:0000000000012fe5 .LASF3487
C:\Users\CYMR90~1\AppData\Local\Temp\cc5BNH7j.s:27864  .debug_str:0000000000019be8 .LASF3488
C:\Users\CYMR90~1\AppData\Local\Temp\cc5BNH7j.s:32120  .debug_str:000000000002a98d .LASF3489
C:\Users\CYMR90~1\AppData\Local\Temp\cc5BNH7j.s:27059  .debug_str:0000000000016677 .LASF3490
C:\Users\CYMR90~1\AppData\Local\Temp\cc5BNH7j.s:26107  .debug_str:0000000000012a8e .LASF3491
C:\Users\CYMR90~1\AppData\Local\Temp\cc5BNH7j.s:28154  .debug_str:000000000001afb0 .LASF3492
C:\Users\CYMR90~1\AppData\Local\Temp\cc5BNH7j.s:31034  .debug_str:00000000000264aa .LASF3493
C:\Users\CYMR90~1\AppData\Local\Temp\cc5BNH7j.s:23481  .debug_str:0000000000007fe6 .LASF3494
C:\Users\CYMR90~1\AppData\Local\Temp\cc5BNH7j.s:22187  .debug_str:0000000000002bb2 .LASF3495
C:\Users\CYMR90~1\AppData\Local\Temp\cc5BNH7j.s:29834  .debug_str:00000000000217f1 .LASF3496
C:\Users\CYMR90~1\AppData\Local\Temp\cc5BNH7j.s:29168  .debug_str:000000000001ef79 .LASF3497
C:\Users\CYMR90~1\AppData\Local\Temp\cc5BNH7j.s:29460  .debug_str:00000000000200b3 .LASF3498
C:\Users\CYMR90~1\AppData\Local\Temp\cc5BNH7j.s:29994  .debug_str:00000000000221d0 .LASF3499
C:\Users\CYMR90~1\AppData\Local\Temp\cc5BNH7j.s:25623  .debug_str:0000000000010a14 .LASF3500
C:\Users\CYMR90~1\AppData\Local\Temp\cc5BNH7j.s:23195  .debug_str:0000000000006bf3 .LASF3501
C:\Users\CYMR90~1\AppData\Local\Temp\cc5BNH7j.s:32280  .debug_str:000000000002b3c2 .LASF3502
C:\Users\CYMR90~1\AppData\Local\Temp\cc5BNH7j.s:32108  .debug_str:000000000002a8da .LASF3503
C:\Users\CYMR90~1\AppData\Local\Temp\cc5BNH7j.s:28850  .debug_str:000000000001dc44 .LASF3504
C:\Users\CYMR90~1\AppData\Local\Temp\cc5BNH7j.s:21629  .debug_str:0000000000000965 .LASF3505
C:\Users\CYMR90~1\AppData\Local\Temp\cc5BNH7j.s:22931  .debug_str:0000000000005b9a .LASF3506
C:\Users\CYMR90~1\AppData\Local\Temp\cc5BNH7j.s:25405  .debug_str:000000000000fc06 .LASF3507
C:\Users\CYMR90~1\AppData\Local\Temp\cc5BNH7j.s:32576  .debug_str:000000000002c75f .LASF3508
C:\Users\CYMR90~1\AppData\Local\Temp\cc5BNH7j.s:27680  .debug_str:0000000000018fec .LASF3509
C:\Users\CYMR90~1\AppData\Local\Temp\cc5BNH7j.s:32218  .debug_str:000000000002af43 .LASF3510
C:\Users\CYMR90~1\AppData\Local\Temp\cc5BNH7j.s:27722  .debug_str:0000000000019265 .LASF3511
C:\Users\CYMR90~1\AppData\Local\Temp\cc5BNH7j.s:29978  .debug_str:00000000000220fa .LASF3512
C:\Users\CYMR90~1\AppData\Local\Temp\cc5BNH7j.s:26451  .debug_str:0000000000014016 .LASF3513
C:\Users\CYMR90~1\AppData\Local\Temp\cc5BNH7j.s:24593  .debug_str:000000000000c870 .LASF3514
C:\Users\CYMR90~1\AppData\Local\Temp\cc5BNH7j.s:22247  .debug_str:0000000000002f54 .LASF3515
C:\Users\CYMR90~1\AppData\Local\Temp\cc5BNH7j.s:28038  .debug_str:000000000001a804 .LASF3516
C:\Users\CYMR90~1\AppData\Local\Temp\cc5BNH7j.s:29246  .debug_str:000000000001f40b .LASF3517
C:\Users\CYMR90~1\AppData\Local\Temp\cc5BNH7j.s:31910  .debug_str:0000000000029cf6 .LASF3518
C:\Users\CYMR90~1\AppData\Local\Temp\cc5BNH7j.s:31120  .debug_str:0000000000026a02 .LASF3519
C:\Users\CYMR90~1\AppData\Local\Temp\cc5BNH7j.s:30042  .debug_str:000000000002248d .LASF3520
C:\Users\CYMR90~1\AppData\Local\Temp\cc5BNH7j.s:30706  .debug_str:0000000000024e7f .LASF3521
C:\Users\CYMR90~1\AppData\Local\Temp\cc5BNH7j.s:28848  .debug_str:000000000001dc28 .LASF3522
C:\Users\CYMR90~1\AppData\Local\Temp\cc5BNH7j.s:28908  .debug_str:000000000001e002 .LASF3523
C:\Users\CYMR90~1\AppData\Local\Temp\cc5BNH7j.s:27950  .debug_str:000000000001a0c3 .LASF3524
C:\Users\CYMR90~1\AppData\Local\Temp\cc5BNH7j.s:21533  .debug_str:00000000000003d7 .LASF3525
C:\Users\CYMR90~1\AppData\Local\Temp\cc5BNH7j.s:27304  .debug_str:000000000001778e .LASF3526
C:\Users\CYMR90~1\AppData\Local\Temp\cc5BNH7j.s:30890  .debug_str:0000000000025bab .LASF3527
C:\Users\CYMR90~1\AppData\Local\Temp\cc5BNH7j.s:22775  .debug_str:000000000000522f .LASF3528
C:\Users\CYMR90~1\AppData\Local\Temp\cc5BNH7j.s:21869  .debug_str:00000000000018cd .LASF3529
C:\Users\CYMR90~1\AppData\Local\Temp\cc5BNH7j.s:26855  .debug_str:00000000000158ed .LASF3530
C:\Users\CYMR90~1\AppData\Local\Temp\cc5BNH7j.s:25309  .debug_str:000000000000f594 .LASF3531
C:\Users\CYMR90~1\AppData\Local\Temp\cc5BNH7j.s:23845  .debug_str:00000000000096cb .LASF3532
C:\Users\CYMR90~1\AppData\Local\Temp\cc5BNH7j.s:28922  .debug_str:000000000001e0dd .LASF3533
C:\Users\CYMR90~1\AppData\Local\Temp\cc5BNH7j.s:21963  .debug_str:0000000000001e49 .LASF3534
C:\Users\CYMR90~1\AppData\Local\Temp\cc5BNH7j.s:29226  .debug_str:000000000001f301 .LASF3535
C:\Users\CYMR90~1\AppData\Local\Temp\cc5BNH7j.s:23821  .debug_str:0000000000009569 .LASF3536
C:\Users\CYMR90~1\AppData\Local\Temp\cc5BNH7j.s:27426  .debug_str:0000000000017f05 .LASF3537
C:\Users\CYMR90~1\AppData\Local\Temp\cc5BNH7j.s:30992  .debug_str:0000000000026205 .LASF3538
C:\Users\CYMR90~1\AppData\Local\Temp\cc5BNH7j.s:24947  .debug_str:000000000000df7d .LASF3539
C:\Users\CYMR90~1\AppData\Local\Temp\cc5BNH7j.s:28982  .debug_str:000000000001e485 .LASF3540
C:\Users\CYMR90~1\AppData\Local\Temp\cc5BNH7j.s:32474  .debug_str:000000000002c07e .LASF3541
C:\Users\CYMR90~1\AppData\Local\Temp\cc5BNH7j.s:25257  .debug_str:000000000000f2a9 .LASF3542
C:\Users\CYMR90~1\AppData\Local\Temp\cc5BNH7j.s:29268  .debug_str:000000000001f564 .LASF3543
C:\Users\CYMR90~1\AppData\Local\Temp\cc5BNH7j.s:22645  .debug_str:0000000000004a4a .LASF3544
C:\Users\CYMR90~1\AppData\Local\Temp\cc5BNH7j.s:29164  .debug_str:000000000001ef45 .LASF3545
C:\Users\CYMR90~1\AppData\Local\Temp\cc5BNH7j.s:24957  .debug_str:000000000000e01d .LASF3546
C:\Users\CYMR90~1\AppData\Local\Temp\cc5BNH7j.s:32234  .debug_str:000000000002b085 .LASF3547
C:\Users\CYMR90~1\AppData\Local\Temp\cc5BNH7j.s:29824  .debug_str:0000000000021775 .LASF3548
C:\Users\CYMR90~1\AppData\Local\Temp\cc5BNH7j.s:27198  .debug_str:000000000001711f .LASF3549
C:\Users\CYMR90~1\AppData\Local\Temp\cc5BNH7j.s:28720  .debug_str:000000000001d452 .LASF3550
C:\Users\CYMR90~1\AppData\Local\Temp\cc5BNH7j.s:27246  .debug_str:00000000000173dc .LASF3551
C:\Users\CYMR90~1\AppData\Local\Temp\cc5BNH7j.s:30724  .debug_str:0000000000025007 .LASF3552
C:\Users\CYMR90~1\AppData\Local\Temp\cc5BNH7j.s:28872  .debug_str:000000000001ddd4 .LASF3553
C:\Users\CYMR90~1\AppData\Local\Temp\cc5BNH7j.s:29796  .debug_str:00000000000215f3 .LASF3554
C:\Users\CYMR90~1\AppData\Local\Temp\cc5BNH7j.s:25513  .debug_str:00000000000102d3 .LASF3555
C:\Users\CYMR90~1\AppData\Local\Temp\cc5BNH7j.s:26645  .debug_str:0000000000014c34 .LASF3556
C:\Users\CYMR90~1\AppData\Local\Temp\cc5BNH7j.s:32598  .debug_str:000000000002c8df .LASF3557
C:\Users\CYMR90~1\AppData\Local\Temp\cc5BNH7j.s:29732  .debug_str:00000000000211fb .LASF3558
C:\Users\CYMR90~1\AppData\Local\Temp\cc5BNH7j.s:27478  .debug_str:0000000000018212 .LASF3559
C:\Users\CYMR90~1\AppData\Local\Temp\cc5BNH7j.s:23849  .debug_str:00000000000096fd .LASF3560
C:\Users\CYMR90~1\AppData\Local\Temp\cc5BNH7j.s:30990  .debug_str:00000000000261e8 .LASF3561
C:\Users\CYMR90~1\AppData\Local\Temp\cc5BNH7j.s:32052  .debug_str:000000000002a58d .LASF3562
C:\Users\CYMR90~1\AppData\Local\Temp\cc5BNH7j.s:24383  .debug_str:000000000000ba24 .LASF3563
C:\Users\CYMR90~1\AppData\Local\Temp\cc5BNH7j.s:31464  .debug_str:0000000000028160 .LASF3564
C:\Users\CYMR90~1\AppData\Local\Temp\cc5BNH7j.s:28374  .debug_str:000000000001bd55 .LASF3565
C:\Users\CYMR90~1\AppData\Local\Temp\cc5BNH7j.s:31922  .debug_str:0000000000029d99 .LASF3566
C:\Users\CYMR90~1\AppData\Local\Temp\cc5BNH7j.s:22037  .debug_str:000000000000225f .LASF3567
C:\Users\CYMR90~1\AppData\Local\Temp\cc5BNH7j.s:31046  .debug_str:0000000000026585 .LASF3568
C:\Users\CYMR90~1\AppData\Local\Temp\cc5BNH7j.s:27816  .debug_str:00000000000198ef .LASF3569
C:\Users\CYMR90~1\AppData\Local\Temp\cc5BNH7j.s:27740  .debug_str:0000000000019399 .LASF3570
C:\Users\CYMR90~1\AppData\Local\Temp\cc5BNH7j.s:28158  .debug_str:000000000001aff0 .LASF3571
C:\Users\CYMR90~1\AppData\Local\Temp\cc5BNH7j.s:22045  .debug_str:00000000000022c9 .LASF3572
C:\Users\CYMR90~1\AppData\Local\Temp\cc5BNH7j.s:31386  .debug_str:0000000000027b92 .LASF3573
C:\Users\CYMR90~1\AppData\Local\Temp\cc5BNH7j.s:28808  .debug_str:000000000001d9f0 .LASF3574
C:\Users\CYMR90~1\AppData\Local\Temp\cc5BNH7j.s:22655  .debug_str:0000000000004ae8 .LASF3575
C:\Users\CYMR90~1\AppData\Local\Temp\cc5BNH7j.s:30044  .debug_str:00000000000224a9 .LASF3576
C:\Users\CYMR90~1\AppData\Local\Temp\cc5BNH7j.s:27408  .debug_str:0000000000017e11 .LASF3577
C:\Users\CYMR90~1\AppData\Local\Temp\cc5BNH7j.s:32430  .debug_str:000000000002bdb8 .LASF3578
C:\Users\CYMR90~1\AppData\Local\Temp\cc5BNH7j.s:32176  .debug_str:000000000002acec .LASF3579
C:\Users\CYMR90~1\AppData\Local\Temp\cc5BNH7j.s:21589  .debug_str:000000000000070d .LASF3580
C:\Users\CYMR90~1\AppData\Local\Temp\cc5BNH7j.s:25175  .debug_str:000000000000ed6f .LASF3581
C:\Users\CYMR90~1\AppData\Local\Temp\cc5BNH7j.s:26553  .debug_str:00000000000146d3 .LASF3582
C:\Users\CYMR90~1\AppData\Local\Temp\cc5BNH7j.s:30356  .debug_str:0000000000023770 .LASF3583
C:\Users\CYMR90~1\AppData\Local\Temp\cc5BNH7j.s:27994  .debug_str:000000000001a4d2 .LASF3584
C:\Users\CYMR90~1\AppData\Local\Temp\cc5BNH7j.s:27142  .debug_str:0000000000016e03 .LASF3585
C:\Users\CYMR90~1\AppData\Local\Temp\cc5BNH7j.s:27588  .debug_str:00000000000188c3 .LASF3586
C:\Users\CYMR90~1\AppData\Local\Temp\cc5BNH7j.s:31994  .debug_str:000000000002a1d8 .LASF3587
C:\Users\CYMR90~1\AppData\Local\Temp\cc5BNH7j.s:24731  .debug_str:000000000000d1d1 .LASF3588
C:\Users\CYMR90~1\AppData\Local\Temp\cc5BNH7j.s:27196  .debug_str:0000000000017102 .LASF3589
C:\Users\CYMR90~1\AppData\Local\Temp\cc5BNH7j.s:26531  .debug_str:0000000000014529 .LASF3590
C:\Users\CYMR90~1\AppData\Local\Temp\cc5BNH7j.s:26621  .debug_str:0000000000014abe .LASF3591
C:\Users\CYMR90~1\AppData\Local\Temp\cc5BNH7j.s:28950  .debug_str:000000000001e28a .LASF3592
C:\Users\CYMR90~1\AppData\Local\Temp\cc5BNH7j.s:31792  .debug_str:000000000002964b .LASF3593
C:\Users\CYMR90~1\AppData\Local\Temp\cc5BNH7j.s:22181  .debug_str:0000000000002b6c .LASF3594
C:\Users\CYMR90~1\AppData\Local\Temp\cc5BNH7j.s:29146  .debug_str:000000000001eded .LASF3595
C:\Users\CYMR90~1\AppData\Local\Temp\cc5BNH7j.s:23971  .debug_str:0000000000009ee7 .LASF3596
C:\Users\CYMR90~1\AppData\Local\Temp\cc5BNH7j.s:22297  .debug_str:00000000000032d6 .LASF3597
C:\Users\CYMR90~1\AppData\Local\Temp\cc5BNH7j.s:24207  .debug_str:000000000000ae97 .LASF3598
C:\Users\CYMR90~1\AppData\Local\Temp\cc5BNH7j.s:23161  .debug_str:00000000000069b5 .LASF3599
C:\Users\CYMR90~1\AppData\Local\Temp\cc5BNH7j.s:30666  .debug_str:0000000000024bfd .LASF3600
C:\Users\CYMR90~1\AppData\Local\Temp\cc5BNH7j.s:28058  .debug_str:000000000001a939 .LASF3601
C:\Users\CYMR90~1\AppData\Local\Temp\cc5BNH7j.s:27920  .debug_str:0000000000019f22 .LASF3602
C:\Users\CYMR90~1\AppData\Local\Temp\cc5BNH7j.s:23119  .debug_str:0000000000006729 .LASF3603
C:\Users\CYMR90~1\AppData\Local\Temp\cc5BNH7j.s:25051  .debug_str:000000000000e613 .LASF3604
C:\Users\CYMR90~1\AppData\Local\Temp\cc5BNH7j.s:24893  .debug_str:000000000000dbda .LASF3605
C:\Users\CYMR90~1\AppData\Local\Temp\cc5BNH7j.s:23545  .debug_str:0000000000008431 .LASF3606
C:\Users\CYMR90~1\AppData\Local\Temp\cc5BNH7j.s:23735  .debug_str:0000000000008ff3 .LASF3607
C:\Users\CYMR90~1\AppData\Local\Temp\cc5BNH7j.s:24307  .debug_str:000000000000b521 .LASF3608
C:\Users\CYMR90~1\AppData\Local\Temp\cc5BNH7j.s:22321  .debug_str:000000000000345b .LASF3609
C:\Users\CYMR90~1\AppData\Local\Temp\cc5BNH7j.s:23665  .debug_str:0000000000008bb4 .LASF3610
C:\Users\CYMR90~1\AppData\Local\Temp\cc5BNH7j.s:21515  .debug_str:00000000000002bc .LASF3611
C:\Users\CYMR90~1\AppData\Local\Temp\cc5BNH7j.s:27192  .debug_str:00000000000170d4 .LASF3612
C:\Users\CYMR90~1\AppData\Local\Temp\cc5BNH7j.s:24459  .debug_str:000000000000bfa1 .LASF3613
C:\Users\CYMR90~1\AppData\Local\Temp\cc5BNH7j.s:30296  .debug_str:0000000000023391 .LASF3614
C:\Users\CYMR90~1\AppData\Local\Temp\cc5BNH7j.s:32350  .debug_str:000000000002b829 .LASF3615
C:\Users\CYMR90~1\AppData\Local\Temp\cc5BNH7j.s:26005  .debug_str:00000000000123c6 .LASF3616
C:\Users\CYMR90~1\AppData\Local\Temp\cc5BNH7j.s:25859  .debug_str:0000000000011a3c .LASF3617
C:\Users\CYMR90~1\AppData\Local\Temp\cc5BNH7j.s:28172  .debug_str:000000000001b102 .LASF3618
C:\Users\CYMR90~1\AppData\Local\Temp\cc5BNH7j.s:30308  .debug_str:0000000000023481 .LASF3619
C:\Users\CYMR90~1\AppData\Local\Temp\cc5BNH7j.s:31726  .debug_str:00000000000291e8 .LASF3620
C:\Users\CYMR90~1\AppData\Local\Temp\cc5BNH7j.s:27832  .debug_str:00000000000199df .LASF3621
C:\Users\CYMR90~1\AppData\Local\Temp\cc5BNH7j.s:29130  .debug_str:000000000001ece1 .LASF3622
C:\Users\CYMR90~1\AppData\Local\Temp\cc5BNH7j.s:30230  .debug_str:0000000000022f7d .LASF3623
C:\Users\CYMR90~1\AppData\Local\Temp\cc5BNH7j.s:31076  .debug_str:000000000002675f .LASF3624
C:\Users\CYMR90~1\AppData\Local\Temp\cc5BNH7j.s:21689  .debug_str:0000000000000d47 .LASF3625
C:\Users\CYMR90~1\AppData\Local\Temp\cc5BNH7j.s:25121  .debug_str:000000000000ea97 .LASF3626
C:\Users\CYMR90~1\AppData\Local\Temp\cc5BNH7j.s:32426  .debug_str:000000000002bd87 .LASF3627
C:\Users\CYMR90~1\AppData\Local\Temp\cc5BNH7j.s:31212  .debug_str:0000000000026f8c .LASF3628
C:\Users\CYMR90~1\AppData\Local\Temp\cc5BNH7j.s:22167  .debug_str:0000000000002a68 .LASF3629
C:\Users\CYMR90~1\AppData\Local\Temp\cc5BNH7j.s:21841  .debug_str:0000000000001658 .LASF3630
C:\Users\CYMR90~1\AppData\Local\Temp\cc5BNH7j.s:23277  .debug_str:00000000000071a9 .LASF3631
C:\Users\CYMR90~1\AppData\Local\Temp\cc5BNH7j.s:24657  .debug_str:000000000000ccbb .LASF3632
C:\Users\CYMR90~1\AppData\Local\Temp\cc5BNH7j.s:23023  .debug_str:0000000000006155 .LASF3633
C:\Users\CYMR90~1\AppData\Local\Temp\cc5BNH7j.s:29682  .debug_str:0000000000020e8b .LASF3634
C:\Users\CYMR90~1\AppData\Local\Temp\cc5BNH7j.s:29950  .debug_str:0000000000021f39 .LASF3635
C:\Users\CYMR90~1\AppData\Local\Temp\cc5BNH7j.s:23827  .debug_str:00000000000095c0 .LASF3636
C:\Users\CYMR90~1\AppData\Local\Temp\cc5BNH7j.s:30352  .debug_str:0000000000023742 .LASF3637
C:\Users\CYMR90~1\AppData\Local\Temp\cc5BNH7j.s:32546  .debug_str:000000000002c54e .LASF3638
C:\Users\CYMR90~1\AppData\Local\Temp\cc5BNH7j.s:25447  .debug_str:000000000000fecf .LASF3639
C:\Users\CYMR90~1\AppData\Local\Temp\cc5BNH7j.s:24945  .debug_str:000000000000df64 .LASF3640
C:\Users\CYMR90~1\AppData\Local\Temp\cc5BNH7j.s:29072  .debug_str:000000000001e9f1 .LASF3641
C:\Users\CYMR90~1\AppData\Local\Temp\cc5BNH7j.s:22609  .debug_str:0000000000004783 .LASF3642
C:\Users\CYMR90~1\AppData\Local\Temp\cc5BNH7j.s:21913  .debug_str:0000000000001b5b .LASF3643
C:\Users\CYMR90~1\AppData\Local\Temp\cc5BNH7j.s:23909  .debug_str:0000000000009b26 .LASF3644
C:\Users\CYMR90~1\AppData\Local\Temp\cc5BNH7j.s:30206  .debug_str:0000000000022e6a .LASF3645
C:\Users\CYMR90~1\AppData\Local\Temp\cc5BNH7j.s:25891  .debug_str:0000000000011c39 .LASF3646
C:\Users\CYMR90~1\AppData\Local\Temp\cc5BNH7j.s:26431  .debug_str:0000000000013ef8 .LASF3647
C:\Users\CYMR90~1\AppData\Local\Temp\cc5BNH7j.s:23793  .debug_str:0000000000009361 .LASF3648
C:\Users\CYMR90~1\AppData\Local\Temp\cc5BNH7j.s:32026  .debug_str:000000000002a3f5 .LASF3649
C:\Users\CYMR90~1\AppData\Local\Temp\cc5BNH7j.s:27662  .debug_str:0000000000018df2 .LASF3650
C:\Users\CYMR90~1\AppData\Local\Temp\cc5BNH7j.s:31582  .debug_str:000000000002894b .LASF3651
C:\Users\CYMR90~1\AppData\Local\Temp\cc5BNH7j.s:27346  .debug_str:0000000000017a51 .LASF3652
C:\Users\CYMR90~1\AppData\Local\Temp\cc5BNH7j.s:31504  .debug_str:0000000000028400 .LASF3653
C:\Users\CYMR90~1\AppData\Local\Temp\cc5BNH7j.s:24955  .debug_str:000000000000dffe .LASF3654
C:\Users\CYMR90~1\AppData\Local\Temp\cc5BNH7j.s:23461  .debug_str:0000000000007e06 .LASF3655
C:\Users\CYMR90~1\AppData\Local\Temp\cc5BNH7j.s:32482  .debug_str:000000000002c130 .LASF3656
C:\Users\CYMR90~1\AppData\Local\Temp\cc5BNH7j.s:26743  .debug_str:000000000001529a .LASF3657
C:\Users\CYMR90~1\AppData\Local\Temp\cc5BNH7j.s:28452  .debug_str:000000000001c223 .LASF3658
C:\Users\CYMR90~1\AppData\Local\Temp\cc5BNH7j.s:27894  .debug_str:0000000000019d75 .LASF3659
C:\Users\CYMR90~1\AppData\Local\Temp\cc5BNH7j.s:30492  .debug_str:0000000000024045 .LASF3660
C:\Users\CYMR90~1\AppData\Local\Temp\cc5BNH7j.s:29734  .debug_str:0000000000021212 .LASF3661
C:\Users\CYMR90~1\AppData\Local\Temp\cc5BNH7j.s:24337  .debug_str:000000000000b722 .LASF3662
C:\Users\CYMR90~1\AppData\Local\Temp\cc5BNH7j.s:27942  .debug_str:000000000001a053 .LASF3663
C:\Users\CYMR90~1\AppData\Local\Temp\cc5BNH7j.s:21485  .debug_str:00000000000000dc .LASF3664
C:\Users\CYMR90~1\AppData\Local\Temp\cc5BNH7j.s:25853  .debug_str:0000000000011947 .LASF3665
C:\Users\CYMR90~1\AppData\Local\Temp\cc5BNH7j.s:29774  .debug_str:0000000000021479 .LASF3666
C:\Users\CYMR90~1\AppData\Local\Temp\cc5BNH7j.s:30040  .debug_str:0000000000022468 .LASF3667
C:\Users\CYMR90~1\AppData\Local\Temp\cc5BNH7j.s:26929  .debug_str:0000000000015df6 .LASF3668
C:\Users\CYMR90~1\AppData\Local\Temp\cc5BNH7j.s:31854  .debug_str:00000000000299bf .LASF3669
C:\Users\CYMR90~1\AppData\Local\Temp\cc5BNH7j.s:24563  .debug_str:000000000000c5f6 .LASF3670
C:\Users\CYMR90~1\AppData\Local\Temp\cc5BNH7j.s:32662  .debug_str:000000000002cceb .LASF3671
C:\Users\CYMR90~1\AppData\Local\Temp\cc5BNH7j.s:30330  .debug_str:00000000000235e8 .LASF3672
C:\Users\CYMR90~1\AppData\Local\Temp\cc5BNH7j.s:30758  .debug_str:00000000000252c8 .LASF3673
C:\Users\CYMR90~1\AppData\Local\Temp\cc5BNH7j.s:25893  .debug_str:0000000000011c4e .LASF3674
C:\Users\CYMR90~1\AppData\Local\Temp\cc5BNH7j.s:26255  .debug_str:000000000001347c .LASF3675
C:\Users\CYMR90~1\AppData\Local\Temp\cc5BNH7j.s:21937  .debug_str:0000000000001cab .LASF3676
C:\Users\CYMR90~1\AppData\Local\Temp\cc5BNH7j.s:23247  .debug_str:0000000000006f43 .LASF3677
C:\Users\CYMR90~1\AppData\Local\Temp\cc5BNH7j.s:32306  .debug_str:000000000002b52d .LASF3678
C:\Users\CYMR90~1\AppData\Local\Temp\cc5BNH7j.s:26959  .debug_str:000000000001602f .LASF3679
C:\Users\CYMR90~1\AppData\Local\Temp\cc5BNH7j.s:27750  .debug_str:000000000001943a .LASF3680
C:\Users\CYMR90~1\AppData\Local\Temp\cc5BNH7j.s:24457  .debug_str:000000000000bf7c .LASF3681
C:\Users\CYMR90~1\AppData\Local\Temp\cc5BNH7j.s:26099  .debug_str:00000000000129e7 .LASF3682
C:\Users\CYMR90~1\AppData\Local\Temp\cc5BNH7j.s:21709  .debug_str:0000000000000eef .LASF3683
C:\Users\CYMR90~1\AppData\Local\Temp\cc5BNH7j.s:28022  .debug_str:000000000001a6a7 .LASF3684
C:\Users\CYMR90~1\AppData\Local\Temp\cc5BNH7j.s:22525  .debug_str:00000000000041ea .LASF3685
C:\Users\CYMR90~1\AppData\Local\Temp\cc5BNH7j.s:28260  .debug_str:000000000001b66c .LASF3686
C:\Users\CYMR90~1\AppData\Local\Temp\cc5BNH7j.s:22795  .debug_str:000000000000534c .LASF3687
C:\Users\CYMR90~1\AppData\Local\Temp\cc5BNH7j.s:23893  .debug_str:0000000000009a11 .LASF3688
C:\Users\CYMR90~1\AppData\Local\Temp\cc5BNH7j.s:23067  .debug_str:00000000000063ef .LASF3689
C:\Users\CYMR90~1\AppData\Local\Temp\cc5BNH7j.s:28770  .debug_str:000000000001d77c .LASF3690
C:\Users\CYMR90~1\AppData\Local\Temp\cc5BNH7j.s:31236  .debug_str:00000000000271e5 .LASF3691
C:\Users\CYMR90~1\AppData\Local\Temp\cc5BNH7j.s:29972  .debug_str:0000000000022084 .LASF3692
C:\Users\CYMR90~1\AppData\Local\Temp\cc5BNH7j.s:23101  .debug_str:00000000000065df .LASF3693
C:\Users\CYMR90~1\AppData\Local\Temp\cc5BNH7j.s:31864  .debug_str:0000000000029a6c .LASF3694
C:\Users\CYMR90~1\AppData\Local\Temp\cc5BNH7j.s:29222  .debug_str:000000000001f2c7 .LASF3695
C:\Users\CYMR90~1\AppData\Local\Temp\cc5BNH7j.s:25147  .debug_str:000000000000ec02 .LASF3696
C:\Users\CYMR90~1\AppData\Local\Temp\cc5BNH7j.s:24161  .debug_str:000000000000aae1 .LASF3697
C:\Users\CYMR90~1\AppData\Local\Temp\cc5BNH7j.s:21573  .debug_str:00000000000005ee .LASF3698
C:\Users\CYMR90~1\AppData\Local\Temp\cc5BNH7j.s:25393  .debug_str:000000000000fb42 .LASF3699
C:\Users\CYMR90~1\AppData\Local\Temp\cc5BNH7j.s:24343  .debug_str:000000000000b778 .LASF3700
C:\Users\CYMR90~1\AppData\Local\Temp\cc5BNH7j.s:25101  .debug_str:000000000000e955 .LASF3701
C:\Users\CYMR90~1\AppData\Local\Temp\cc5BNH7j.s:23283  .debug_str:0000000000007212 .LASF3702
C:\Users\CYMR90~1\AppData\Local\Temp\cc5BNH7j.s:31302  .debug_str:000000000002758d .LASF3703
C:\Users\CYMR90~1\AppData\Local\Temp\cc5BNH7j.s:28692  .debug_str:000000000001d279 .LASF3704
C:\Users\CYMR90~1\AppData\Local\Temp\cc5BNH7j.s:26197  .debug_str:0000000000013045 .LASF3705
C:\Users\CYMR90~1\AppData\Local\Temp\cc5BNH7j.s:28274  .debug_str:000000000001b767 .LASF3706
C:\Users\CYMR90~1\AppData\Local\Temp\cc5BNH7j.s:32268  .debug_str:000000000002b2d9 .LASF3707
C:\Users\CYMR90~1\AppData\Local\Temp\cc5BNH7j.s:25533  .debug_str:00000000000103fd .LASF3708
C:\Users\CYMR90~1\AppData\Local\Temp\cc5BNH7j.s:31532  .debug_str:0000000000028622 .LASF3709
C:\Users\CYMR90~1\AppData\Local\Temp\cc5BNH7j.s:24543  .debug_str:000000000000c4d5 .LASF3710
C:\Users\CYMR90~1\AppData\Local\Temp\cc5BNH7j.s:22021  .debug_str:000000000000214c .LASF3711
C:\Users\CYMR90~1\AppData\Local\Temp\cc5BNH7j.s:25509  .debug_str:0000000000010295 .LASF3712
C:\Users\CYMR90~1\AppData\Local\Temp\cc5BNH7j.s:25429  .debug_str:000000000000fd9f .LASF3713
C:\Users\CYMR90~1\AppData\Local\Temp\cc5BNH7j.s:25643  .debug_str:0000000000010b82 .LASF3714
C:\Users\CYMR90~1\AppData\Local\Temp\cc5BNH7j.s:29952  .debug_str:0000000000021f51 .LASF3715
C:\Users\CYMR90~1\AppData\Local\Temp\cc5BNH7j.s:26315  .debug_str:0000000000013819 .LASF3716
C:\Users\CYMR90~1\AppData\Local\Temp\cc5BNH7j.s:23451  .debug_str:0000000000007d71 .LASF3717
C:\Users\CYMR90~1\AppData\Local\Temp\cc5BNH7j.s:30182  .debug_str:0000000000022cec .LASF3718
C:\Users\CYMR90~1\AppData\Local\Temp\cc5BNH7j.s:32308  .debug_str:000000000002b551 .LASF3719
C:\Users\CYMR90~1\AppData\Local\Temp\cc5BNH7j.s:31838  .debug_str:00000000000298c9 .LASF3720
C:\Users\CYMR90~1\AppData\Local\Temp\cc5BNH7j.s:28362  .debug_str:000000000001bc76 .LASF3721
C:\Users\CYMR90~1\AppData\Local\Temp\cc5BNH7j.s:23251  .debug_str:0000000000006f85 .LASF3722
C:\Users\CYMR90~1\AppData\Local\Temp\cc5BNH7j.s:22841  .debug_str:0000000000005633 .LASF3723
C:\Users\CYMR90~1\AppData\Local\Temp\cc5BNH7j.s:23335  .debug_str:0000000000007541 .LASF3724
C:\Users\CYMR90~1\AppData\Local\Temp\cc5BNH7j.s:22313  .debug_str:00000000000033e0 .LASF3725
C:\Users\CYMR90~1\AppData\Local\Temp\cc5BNH7j.s:30572  .debug_str:0000000000024583 .LASF3726
C:\Users\CYMR90~1\AppData\Local\Temp\cc5BNH7j.s:25457  .debug_str:000000000000ff49 .LASF3727
C:\Users\CYMR90~1\AppData\Local\Temp\cc5BNH7j.s:23639  .debug_str:0000000000008a1b .LASF3728
C:\Users\CYMR90~1\AppData\Local\Temp\cc5BNH7j.s:23745  .debug_str:00000000000090a6 .LASF3729
C:\Users\CYMR90~1\AppData\Local\Temp\cc5BNH7j.s:29844  .debug_str:0000000000021883 .LASF3730
C:\Users\CYMR90~1\AppData\Local\Temp\cc5BNH7j.s:31774  .debug_str:000000000002950d .LASF3731
C:\Users\CYMR90~1\AppData\Local\Temp\cc5BNH7j.s:30094  .debug_str:0000000000022786 .LASF3732
C:\Users\CYMR90~1\AppData\Local\Temp\cc5BNH7j.s:31668  .debug_str:0000000000028e6f .LASF3733
C:\Users\CYMR90~1\AppData\Local\Temp\cc5BNH7j.s:21603  .debug_str:00000000000007e0 .LASF3734
C:\Users\CYMR90~1\AppData\Local\Temp\cc5BNH7j.s:29920  .debug_str:0000000000021d7f .LASF3735
C:\Users\CYMR90~1\AppData\Local\Temp\cc5BNH7j.s:27144  .debug_str:0000000000016e1b .LASF3736
C:\Users\CYMR90~1\AppData\Local\Temp\cc5BNH7j.s:24169  .debug_str:000000000000ab55 .LASF3737
C:\Users\CYMR90~1\AppData\Local\Temp\cc5BNH7j.s:24715  .debug_str:000000000000d0b7 .LASF3738
C:\Users\CYMR90~1\AppData\Local\Temp\cc5BNH7j.s:23235  .debug_str:0000000000006e81 .LASF3739
C:\Users\CYMR90~1\AppData\Local\Temp\cc5BNH7j.s:26763  .debug_str:000000000001539e .LASF3740
C:\Users\CYMR90~1\AppData\Local\Temp\cc5BNH7j.s:24589  .debug_str:000000000000c840 .LASF3741
C:\Users\CYMR90~1\AppData\Local\Temp\cc5BNH7j.s:30202  .debug_str:0000000000022e2b .LASF3742
C:\Users\CYMR90~1\AppData\Local\Temp\cc5BNH7j.s:28170  .debug_str:000000000001b0bf .LASF3743
C:\Users\CYMR90~1\AppData\Local\Temp\cc5BNH7j.s:30136  .debug_str:0000000000022a67 .LASF3744
C:\Users\CYMR90~1\AppData\Local\Temp\cc5BNH7j.s:27290  .debug_str:00000000000176b2 .LASF3745
C:\Users\CYMR90~1\AppData\Local\Temp\cc5BNH7j.s:25017  .debug_str:000000000000e3c3 .LASF3746
C:\Users\CYMR90~1\AppData\Local\Temp\cc5BNH7j.s:29194  .debug_str:000000000001f0e3 .LASF3747
C:\Users\CYMR90~1\AppData\Local\Temp\cc5BNH7j.s:24223  .debug_str:000000000000af8c .LASF3748
C:\Users\CYMR90~1\AppData\Local\Temp\cc5BNH7j.s:26477  .debug_str:000000000001422a .LASF3749
C:\Users\CYMR90~1\AppData\Local\Temp\cc5BNH7j.s:27424  .debug_str:0000000000017ee3 .LASF3750
C:\Users\CYMR90~1\AppData\Local\Temp\cc5BNH7j.s:31128  .debug_str:0000000000026a81 .LASF3751
C:\Users\CYMR90~1\AppData\Local\Temp\cc5BNH7j.s:24017  .debug_str:000000000000a1b7 .LASF3752
C:\Users\CYMR90~1\AppData\Local\Temp\cc5BNH7j.s:22765  .debug_str:0000000000005183 .LASF3753
C:\Users\CYMR90~1\AppData\Local\Temp\cc5BNH7j.s:27720  .debug_str:0000000000019243 .LASF3754
C:\Users\CYMR90~1\AppData\Local\Temp\cc5BNH7j.s:24267  .debug_str:000000000000b206 .LASF3755
C:\Users\CYMR90~1\AppData\Local\Temp\cc5BNH7j.s:24987  .debug_str:000000000000e206 .LASF3756
C:\Users\CYMR90~1\AppData\Local\Temp\cc5BNH7j.s:32406  .debug_str:000000000002bbf8 .LASF3757
C:\Users\CYMR90~1\AppData\Local\Temp\cc5BNH7j.s:32254  .debug_str:000000000002b1e5 .LASF3758
C:\Users\CYMR90~1\AppData\Local\Temp\cc5BNH7j.s:24851  .debug_str:000000000000d975 .LASF3759
C:\Users\CYMR90~1\AppData\Local\Temp\cc5BNH7j.s:22849  .debug_str:00000000000056a2 .LASF3760
C:\Users\CYMR90~1\AppData\Local\Temp\cc5BNH7j.s:31892  .debug_str:0000000000029c03 .LASF3761
C:\Users\CYMR90~1\AppData\Local\Temp\cc5BNH7j.s:29642  .debug_str:0000000000020c5e .LASF3762
C:\Users\CYMR90~1\AppData\Local\Temp\cc5BNH7j.s:29560  .debug_str:0000000000020754 .LASF3763
C:\Users\CYMR90~1\AppData\Local\Temp\cc5BNH7j.s:25209  .debug_str:000000000000ef5f .LASF3764
C:\Users\CYMR90~1\AppData\Local\Temp\cc5BNH7j.s:22949  .debug_str:0000000000005cb5 .LASF3765
C:\Users\CYMR90~1\AppData\Local\Temp\cc5BNH7j.s:26359  .debug_str:0000000000013ab7 .LASF3766
C:\Users\CYMR90~1\AppData\Local\Temp\cc5BNH7j.s:29836  .debug_str:0000000000021809 .LASF3767
C:\Users\CYMR90~1\AppData\Local\Temp\cc5BNH7j.s:30938  .debug_str:0000000000025ecb .LASF3768
C:\Users\CYMR90~1\AppData\Local\Temp\cc5BNH7j.s:22679  .debug_str:0000000000004c61 .LASF3769
C:\Users\CYMR90~1\AppData\Local\Temp\cc5BNH7j.s:30414  .debug_str:0000000000023aad .LASF3770
C:\Users\CYMR90~1\AppData\Local\Temp\cc5BNH7j.s:29564  .debug_str:00000000000207a4 .LASF3771
C:\Users\CYMR90~1\AppData\Local\Temp\cc5BNH7j.s:32050  .debug_str:000000000002a569 .LASF3772
C:\Users\CYMR90~1\AppData\Local\Temp\cc5BNH7j.s:25123  .debug_str:000000000000eaaf .LASF3773
C:\Users\CYMR90~1\AppData\Local\Temp\cc5BNH7j.s:22861  .debug_str:0000000000005744 .LASF3774
C:\Users\CYMR90~1\AppData\Local\Temp\cc5BNH7j.s:24495  .debug_str:000000000000c1dd .LASF3775
C:\Users\CYMR90~1\AppData\Local\Temp\cc5BNH7j.s:29654  .debug_str:0000000000020d00 .LASF3776
C:\Users\CYMR90~1\AppData\Local\Temp\cc5BNH7j.s:27528  .debug_str:00000000000184fa .LASF3777
C:\Users\CYMR90~1\AppData\Local\Temp\cc5BNH7j.s:28608  .debug_str:000000000001cc6e .LASF3778
C:\Users\CYMR90~1\AppData\Local\Temp\cc5BNH7j.s:31642  .debug_str:0000000000028ce4 .LASF3779
C:\Users\CYMR90~1\AppData\Local\Temp\cc5BNH7j.s:29478  .debug_str:00000000000201f0 .LASF3780
C:\Users\CYMR90~1\AppData\Local\Temp\cc5BNH7j.s:32570  .debug_str:000000000002c70c .LASF3781
C:\Users\CYMR90~1\AppData\Local\Temp\cc5BNH7j.s:22355  .debug_str:000000000000369f .LASF3782
C:\Users\CYMR90~1\AppData\Local\Temp\cc5BNH7j.s:30740  .debug_str:00000000000251ae .LASF3783
C:\Users\CYMR90~1\AppData\Local\Temp\cc5BNH7j.s:21727  .debug_str:0000000000000fd1 .LASF3784
C:\Users\CYMR90~1\AppData\Local\Temp\cc5BNH7j.s:28774  .debug_str:000000000001d7c3 .LASF3785
C:\Users\CYMR90~1\AppData\Local\Temp\cc5BNH7j.s:26233  .debug_str:0000000000013270 .LASF3786
C:\Users\CYMR90~1\AppData\Local\Temp\cc5BNH7j.s:32656  .debug_str:000000000002cc9d .LASF3787
C:\Users\CYMR90~1\AppData\Local\Temp\cc5BNH7j.s:22155  .debug_str:00000000000029b3 .LASF3788
C:\Users\CYMR90~1\AppData\Local\Temp\cc5BNH7j.s:31186  .debug_str:0000000000026e21 .LASF3789
C:\Users\CYMR90~1\AppData\Local\Temp\cc5BNH7j.s:26085  .debug_str:00000000000128e3 .LASF3790
C:\Users\CYMR90~1\AppData\Local\Temp\cc5BNH7j.s:29470  .debug_str:0000000000020136 .LASF3791
C:\Users\CYMR90~1\AppData\Local\Temp\cc5BNH7j.s:29606  .debug_str:0000000000020a38 .LASF3792
C:\Users\CYMR90~1\AppData\Local\Temp\cc5BNH7j.s:21687  .debug_str:0000000000000d25 .LASF3793
C:\Users\CYMR90~1\AppData\Local\Temp\cc5BNH7j.s:28834  .debug_str:000000000001db5e .LASF3794
C:\Users\CYMR90~1\AppData\Local\Temp\cc5BNH7j.s:21785  .debug_str:0000000000001313 .LASF3795
C:\Users\CYMR90~1\AppData\Local\Temp\cc5BNH7j.s:31434  .debug_str:0000000000027edd .LASF3796
C:\Users\CYMR90~1\AppData\Local\Temp\cc5BNH7j.s:30654  .debug_str:0000000000024b14 .LASF3797
C:\Users\CYMR90~1\AppData\Local\Temp\cc5BNH7j.s:28970  .debug_str:000000000001e3a6 .LASF3798
C:\Users\CYMR90~1\AppData\Local\Temp\cc5BNH7j.s:27892  .debug_str:0000000000019d45 .LASF3799
C:\Users\CYMR90~1\AppData\Local\Temp\cc5BNH7j.s:26653  .debug_str:0000000000014cd5 .LASF3800
C:\Users\CYMR90~1\AppData\Local\Temp\cc5BNH7j.s:25479  .debug_str:00000000000100d4 .LASF3801
C:\Users\CYMR90~1\AppData\Local\Temp\cc5BNH7j.s:32296  .debug_str:000000000002b482 .LASF3802
C:\Users\CYMR90~1\AppData\Local\Temp\cc5BNH7j.s:23221  .debug_str:0000000000006da1 .LASF3803
C:\Users\CYMR90~1\AppData\Local\Temp\cc5BNH7j.s:21899  .debug_str:0000000000001a5d .LASF3804
C:\Users\CYMR90~1\AppData\Local\Temp\cc5BNH7j.s:31422  .debug_str:0000000000027db9 .LASF3805
C:\Users\CYMR90~1\AppData\Local\Temp\cc5BNH7j.s:31660  .debug_str:0000000000028dd6 .LASF3806
C:\Users\CYMR90~1\AppData\Local\Temp\cc5BNH7j.s:24673  .debug_str:000000000000cdd6 .LASF3807
C:\Users\CYMR90~1\AppData\Local\Temp\cc5BNH7j.s:32520  .debug_str:000000000002c3c7 .LASF3808
C:\Users\CYMR90~1\AppData\Local\Temp\cc5BNH7j.s:24115  .debug_str:000000000000a7e2 .LASF3809
C:\Users\CYMR90~1\AppData\Local\Temp\cc5BNH7j.s:30670  .debug_str:0000000000024c37 .LASF3810
C:\Users\CYMR90~1\AppData\Local\Temp\cc5BNH7j.s:23975  .debug_str:0000000000009f14 .LASF3811
C:\Users\CYMR90~1\AppData\Local\Temp\cc5BNH7j.s:29716  .debug_str:0000000000021062 .LASF3812
C:\Users\CYMR90~1\AppData\Local\Temp\cc5BNH7j.s:26879  .debug_str:0000000000015a5c .LASF3813
C:\Users\CYMR90~1\AppData\Local\Temp\cc5BNH7j.s:27910  .debug_str:0000000000019e69 .LASF3814
C:\Users\CYMR90~1\AppData\Local\Temp\cc5BNH7j.s:24771  .debug_str:000000000000d4bc .LASF3815
C:\Users\CYMR90~1\AppData\Local\Temp\cc5BNH7j.s:22901  .debug_str:00000000000059ae .LASF3816
C:\Users\CYMR90~1\AppData\Local\Temp\cc5BNH7j.s:31342  .debug_str:000000000002782c .LASF3817
C:\Users\CYMR90~1\AppData\Local\Temp\cc5BNH7j.s:25251  .debug_str:000000000000f23f .LASF3818
C:\Users\CYMR90~1\AppData\Local\Temp\cc5BNH7j.s:24453  .debug_str:000000000000bf1a .LASF3819
C:\Users\CYMR90~1\AppData\Local\Temp\cc5BNH7j.s:24277  .debug_str:000000000000b290 .LASF3820
C:\Users\CYMR90~1\AppData\Local\Temp\cc5BNH7j.s:21633  .debug_str:00000000000009b0 .LASF3821
C:\Users\CYMR90~1\AppData\Local\Temp\cc5BNH7j.s:25889  .debug_str:0000000000011c07 .LASF3822
C:\Users\CYMR90~1\AppData\Local\Temp\cc5BNH7j.s:30132  .debug_str:0000000000022a23 .LASF3823
C:\Users\CYMR90~1\AppData\Local\Temp\cc5BNH7j.s:23049  .debug_str:00000000000062c7 .LASF3824
C:\Users\CYMR90~1\AppData\Local\Temp\cc5BNH7j.s:24379  .debug_str:000000000000b9de .LASF3825
C:\Users\CYMR90~1\AppData\Local\Temp\cc5BNH7j.s:25469  .debug_str:000000000001002b .LASF3826
C:\Users\CYMR90~1\AppData\Local\Temp\cc5BNH7j.s:29692  .debug_str:0000000000020ef8 .LASF3827
C:\Users\CYMR90~1\AppData\Local\Temp\cc5BNH7j.s:22689  .debug_str:0000000000004d0b .LASF3828
C:\Users\CYMR90~1\AppData\Local\Temp\cc5BNH7j.s:26861  .debug_str:0000000000015935 .LASF3829
C:\Users\CYMR90~1\AppData\Local\Temp\cc5BNH7j.s:31146  .debug_str:0000000000026b8a .LASF3830
C:\Users\CYMR90~1\AppData\Local\Temp\cc5BNH7j.s:24157  .debug_str:000000000000aa95 .LASF3831
C:\Users\CYMR90~1\AppData\Local\Temp\cc5BNH7j.s:26453  .debug_str:0000000000014031 .LASF3832
C:\Users\CYMR90~1\AppData\Local\Temp\cc5BNH7j.s:28862  .debug_str:000000000001dd05 .LASF3833
C:\Users\CYMR90~1\AppData\Local\Temp\cc5BNH7j.s:24653  .debug_str:000000000000cc6d .LASF3834
C:\Users\CYMR90~1\AppData\Local\Temp\cc5BNH7j.s:29882  .debug_str:0000000000021b08 .LASF3835
C:\Users\CYMR90~1\AppData\Local\Temp\cc5BNH7j.s:22897  .debug_str:0000000000005956 .LASF3836
C:\Users\CYMR90~1\AppData\Local\Temp\cc5BNH7j.s:32252  .debug_str:000000000002b1b3 .LASF3837
C:\Users\CYMR90~1\AppData\Local\Temp\cc5BNH7j.s:25245  .debug_str:000000000000f1bc .LASF3838
C:\Users\CYMR90~1\AppData\Local\Temp\cc5BNH7j.s:29380  .debug_str:000000000001fc22 .LASF3839
C:\Users\CYMR90~1\AppData\Local\Temp\cc5BNH7j.s:22399  .debug_str:00000000000039a1 .LASF3840
C:\Users\CYMR90~1\AppData\Local\Temp\cc5BNH7j.s:25321  .debug_str:000000000000f6f4 .LASF3841
C:\Users\CYMR90~1\AppData\Local\Temp\cc5BNH7j.s:30450  .debug_str:0000000000023cfc .LASF3842
C:\Users\CYMR90~1\AppData\Local\Temp\cc5BNH7j.s:23861  .debug_str:00000000000097ff .LASF3843
C:\Users\CYMR90~1\AppData\Local\Temp\cc5BNH7j.s:28128  .debug_str:000000000001ada9 .LASF3844
C:\Users\CYMR90~1\AppData\Local\Temp\cc5BNH7j.s:22495  .debug_str:0000000000003f8f .LASF3845
C:\Users\CYMR90~1\AppData\Local\Temp\cc5BNH7j.s:30490  .debug_str:0000000000024013 .LASF3846
C:\Users\CYMR90~1\AppData\Local\Temp\cc5BNH7j.s:23505  .debug_str:000000000000817f .LASF3847
C:\Users\CYMR90~1\AppData\Local\Temp\cc5BNH7j.s:25091  .debug_str:000000000000e881 .LASF3848
C:\Users\CYMR90~1\AppData\Local\Temp\cc5BNH7j.s:31928  .debug_str:0000000000029def .LASF3849
C:\Users\CYMR90~1\AppData\Local\Temp\cc5BNH7j.s:23333  .debug_str:000000000000750f .LASF3850
C:\Users\CYMR90~1\AppData\Local\Temp\cc5BNH7j.s:29252  .debug_str:000000000001f45e .LASF3851
C:\Users\CYMR90~1\AppData\Local\Temp\cc5BNH7j.s:22115  .debug_str:0000000000002722 .LASF3852
C:\Users\CYMR90~1\AppData\Local\Temp\cc5BNH7j.s:27458  .debug_str:00000000000180df .LASF3853
C:\Users\CYMR90~1\AppData\Local\Temp\cc5BNH7j.s:30620  .debug_str:00000000000248e4 .LASF3854
C:\Users\CYMR90~1\AppData\Local\Temp\cc5BNH7j.s:23513  .debug_str:00000000000081fc .LASF3855
C:\Users\CYMR90~1\AppData\Local\Temp\cc5BNH7j.s:30894  .debug_str:0000000000025bea .LASF3856
C:\Users\CYMR90~1\AppData\Local\Temp\cc5BNH7j.s:26033  .debug_str:000000000001258b .LASF3857
C:\Users\CYMR90~1\AppData\Local\Temp\cc5BNH7j.s:30188  .debug_str:0000000000022d47 .LASF3858
C:\Users\CYMR90~1\AppData\Local\Temp\cc5BNH7j.s:23187  .debug_str:0000000000006b60 .LASF3859
C:\Users\CYMR90~1\AppData\Local\Temp\cc5BNH7j.s:26075  .debug_str:0000000000012823 .LASF3860
C:\Users\CYMR90~1\AppData\Local\Temp\cc5BNH7j.s:29382  .debug_str:000000000001fc54 .LASF3861
C:\Users\CYMR90~1\AppData\Local\Temp\cc5BNH7j.s:25997  .debug_str:0000000000012346 .LASF3862
C:\Users\CYMR90~1\AppData\Local\Temp\cc5BNH7j.s:30930  .debug_str:0000000000025e55 .LASF3863
C:\Users\CYMR90~1\AppData\Local\Temp\cc5BNH7j.s:22385  .debug_str:0000000000003889 .LASF3864
C:\Users\CYMR90~1\AppData\Local\Temp\cc5BNH7j.s:30868  .debug_str:0000000000025a62 .LASF3865
C:\Users\CYMR90~1\AppData\Local\Temp\cc5BNH7j.s:25035  .debug_str:000000000000e4d8 .LASF3866
C:\Users\CYMR90~1\AppData\Local\Temp\cc5BNH7j.s:30498  .debug_str:00000000000240bc .LASF3867
C:\Users\CYMR90~1\AppData\Local\Temp\cc5BNH7j.s:26875  .debug_str:0000000000015a0b .LASF3868
C:\Users\CYMR90~1\AppData\Local\Temp\cc5BNH7j.s:27302  .debug_str:000000000001776c .LASF3869
C:\Users\CYMR90~1\AppData\Local\Temp\cc5BNH7j.s:24335  .debug_str:000000000000b700 .LASF3870
C:\Users\CYMR90~1\AppData\Local\Temp\cc5BNH7j.s:26661  .debug_str:0000000000014d5e .LASF3871
C:\Users\CYMR90~1\AppData\Local\Temp\cc5BNH7j.s:29586  .debug_str:00000000000208e2 .LASF3872
C:\Users\CYMR90~1\AppData\Local\Temp\cc5BNH7j.s:26685  .debug_str:0000000000014f13 .LASF3873
C:\Users\CYMR90~1\AppData\Local\Temp\cc5BNH7j.s:30962  .debug_str:0000000000026054 .LASF3874
C:\Users\CYMR90~1\AppData\Local\Temp\cc5BNH7j.s:27744  .debug_str:00000000000193c8 .LASF3875
C:\Users\CYMR90~1\AppData\Local\Temp\cc5BNH7j.s:25745  .debug_str:00000000000111cf .LASF3876
C:\Users\CYMR90~1\AppData\Local\Temp\cc5BNH7j.s:23427  .debug_str:0000000000007b39 .LASF3877
C:\Users\CYMR90~1\AppData\Local\Temp\cc5BNH7j.s:21797  .debug_str:00000000000013e0 .LASF3878
C:\Users\CYMR90~1\AppData\Local\Temp\cc5BNH7j.s:25389  .debug_str:000000000000fafc .LASF3879
C:\Users\CYMR90~1\AppData\Local\Temp\cc5BNH7j.s:26309  .debug_str:00000000000137d8 .LASF3880
C:\Users\CYMR90~1\AppData\Local\Temp\cc5BNH7j.s:22819  .debug_str:00000000000054ce .LASF3881
C:\Users\CYMR90~1\AppData\Local\Temp\cc5BNH7j.s:27558  .debug_str:000000000001869e .LASF3882
C:\Users\CYMR90~1\AppData\Local\Temp\cc5BNH7j.s:24931  .debug_str:000000000000de90 .LASF3883
C:\Users\CYMR90~1\AppData\Local\Temp\cc5BNH7j.s:23983  .debug_str:0000000000009fae .LASF3884
C:\Users\CYMR90~1\AppData\Local\Temp\cc5BNH7j.s:25423  .debug_str:000000000000fd31 .LASF3885
C:\Users\CYMR90~1\AppData\Local\Temp\cc5BNH7j.s:27268  .debug_str:000000000001754d .LASF3886
C:\Users\CYMR90~1\AppData\Local\Temp\cc5BNH7j.s:26721  .debug_str:0000000000015136 .LASF3887
C:\Users\CYMR90~1\AppData\Local\Temp\cc5BNH7j.s:26113  .debug_str:0000000000012af2 .LASF3888
C:\Users\CYMR90~1\AppData\Local\Temp\cc5BNH7j.s:28446  .debug_str:000000000001c1d9 .LASF3889
C:\Users\CYMR90~1\AppData\Local\Temp\cc5BNH7j.s:25039  .debug_str:000000000000e557 .LASF3890
C:\Users\CYMR90~1\AppData\Local\Temp\cc5BNH7j.s:21671  .debug_str:0000000000000c49 .LASF3891
C:\Users\CYMR90~1\AppData\Local\Temp\cc5BNH7j.s:31666  .debug_str:0000000000028e4b .LASF3892
C:\Users\CYMR90~1\AppData\Local\Temp\cc5BNH7j.s:26177  .debug_str:0000000000012ef3 .LASF3893
C:\Users\CYMR90~1\AppData\Local\Temp\cc5BNH7j.s:28786  .debug_str:000000000001d87e .LASF3894
C:\Users\CYMR90~1\AppData\Local\Temp\cc5BNH7j.s:22057  .debug_str:0000000000002378 .LASF3895
C:\Users\CYMR90~1\AppData\Local\Temp\cc5BNH7j.s:21965  .debug_str:0000000000001e63 .LASF3896
C:\Users\CYMR90~1\AppData\Local\Temp\cc5BNH7j.s:30734  .debug_str:0000000000025147 .LASF3897
C:\Users\CYMR90~1\AppData\Local\Temp\cc5BNH7j.s:30510  .debug_str:000000000002419f .LASF3898
C:\Users\CYMR90~1\AppData\Local\Temp\cc5BNH7j.s:27138  .debug_str:0000000000016dc8 .LASF3899
C:\Users\CYMR90~1\AppData\Local\Temp\cc5BNH7j.s:26459  .debug_str:00000000000140c0 .LASF3900
C:\Users\CYMR90~1\AppData\Local\Temp\cc5BNH7j.s:31654  .debug_str:0000000000028d91 .LASF3901
C:\Users\CYMR90~1\AppData\Local\Temp\cc5BNH7j.s:28270  .debug_str:000000000001b706 .LASF3902
C:\Users\CYMR90~1\AppData\Local\Temp\cc5BNH7j.s:22193  .debug_str:0000000000002c05 .LASF3903
C:\Users\CYMR90~1\AppData\Local\Temp\cc5BNH7j.s:32032  .debug_str:000000000002a45a .LASF3904
C:\Users\CYMR90~1\AppData\Local\Temp\cc5BNH7j.s:32340  .debug_str:000000000002b780 .LASF3905
C:\Users\CYMR90~1\AppData\Local\Temp\cc5BNH7j.s:24141  .debug_str:000000000000a987 .LASF3906
C:\Users\CYMR90~1\AppData\Local\Temp\cc5BNH7j.s:22687  .debug_str:0000000000004ce7 .LASF3907
C:\Users\CYMR90~1\AppData\Local\Temp\cc5BNH7j.s:27880  .debug_str:0000000000019cc8 .LASF3908
C:\Users\CYMR90~1\AppData\Local\Temp\cc5BNH7j.s:25873  .debug_str:0000000000011b03 .LASF3909
C:\Users\CYMR90~1\AppData\Local\Temp\cc5BNH7j.s:22473  .debug_str:0000000000003e64 .LASF3910
C:\Users\CYMR90~1\AppData\Local\Temp\cc5BNH7j.s:30374  .debug_str:0000000000023887 .LASF3911
C:\Users\CYMR90~1\AppData\Local\Temp\cc5BNH7j.s:26977  .debug_str:0000000000016142 .LASF3912
C:\Users\CYMR90~1\AppData\Local\Temp\cc5BNH7j.s:25437  .debug_str:000000000000fe44 .LASF3913
C:\Users\CYMR90~1\AppData\Local\Temp\cc5BNH7j.s:31512  .debug_str:0000000000028494 .LASF3914
C:\Users\CYMR90~1\AppData\Local\Temp\cc5BNH7j.s:29524  .debug_str:0000000000020532 .LASF3915
C:\Users\CYMR90~1\AppData\Local\Temp\cc5BNH7j.s:23471  .debug_str:0000000000007eb6 .LASF3916
C:\Users\CYMR90~1\AppData\Local\Temp\cc5BNH7j.s:31356  .debug_str:0000000000027957 .LASF3917
C:\Users\CYMR90~1\AppData\Local\Temp\cc5BNH7j.s:28000  .debug_str:000000000001a52a .LASF3918
C:\Users\CYMR90~1\AppData\Local\Temp\cc5BNH7j.s:24623  .debug_str:000000000000cae3 .LASF3919
C:\Users\CYMR90~1\AppData\Local\Temp\cc5BNH7j.s:32500  .debug_str:000000000002c2a1 .LASF3920
C:\Users\CYMR90~1\AppData\Local\Temp\cc5BNH7j.s:22585  .debug_str:00000000000045e4 .LASF3921
C:\Users\CYMR90~1\AppData\Local\Temp\cc5BNH7j.s:25749  .debug_str:000000000001120a .LASF3922
C:\Users\CYMR90~1\AppData\Local\Temp\cc5BNH7j.s:28626  .debug_str:000000000001ce28 .LASF3923
C:\Users\CYMR90~1\AppData\Local\Temp\cc5BNH7j.s:30232  .debug_str:0000000000022f9c .LASF3924
C:\Users\CYMR90~1\AppData\Local\Temp\cc5BNH7j.s:31588  .debug_str:00000000000289a5 .LASF3925
C:\Users\CYMR90~1\AppData\Local\Temp\cc5BNH7j.s:22197  .debug_str:0000000000002c5e .LASF3926
C:\Users\CYMR90~1\AppData\Local\Temp\cc5BNH7j.s:27262  .debug_str:00000000000174ea .LASF3927
C:\Users\CYMR90~1\AppData\Local\Temp\cc5BNH7j.s:26693  .debug_str:0000000000014f93 .LASF3928
C:\Users\CYMR90~1\AppData\Local\Temp\cc5BNH7j.s:23327  .debug_str:00000000000074b2 .LASF3929
C:\Users\CYMR90~1\AppData\Local\Temp\cc5BNH7j.s:23447  .debug_str:0000000000007d0e .LASF3930
C:\Users\CYMR90~1\AppData\Local\Temp\cc5BNH7j.s:23443  .debug_str:0000000000007ccd .LASF3931
C:\Users\CYMR90~1\AppData\Local\Temp\cc5BNH7j.s:24473  .debug_str:000000000000c069 .LASF3932
C:\Users\CYMR90~1\AppData\Local\Temp\cc5BNH7j.s:32368  .debug_str:000000000002b95c .LASF3933
C:\Users\CYMR90~1\AppData\Local\Temp\cc5BNH7j.s:22107  .debug_str:0000000000002683 .LASF3934
C:\Users\CYMR90~1\AppData\Local\Temp\cc5BNH7j.s:30394  .debug_str:00000000000239a2 .LASF3935
C:\Users\CYMR90~1\AppData\Local\Temp\cc5BNH7j.s:32302  .debug_str:000000000002b4ea .LASF3936
C:\Users\CYMR90~1\AppData\Local\Temp\cc5BNH7j.s:28788  .debug_str:000000000001d8a2 .LASF3937
C:\Users\CYMR90~1\AppData\Local\Temp\cc5BNH7j.s:25461  .debug_str:000000000000ff8e .LASF3938
C:\Users\CYMR90~1\AppData\Local\Temp\cc5BNH7j.s:21903  .debug_str:0000000000001aa7 .LASF3939
C:\Users\CYMR90~1\AppData\Local\Temp\cc5BNH7j.s:29934  .debug_str:0000000000021e30 .LASF3940
C:\Users\CYMR90~1\AppData\Local\Temp\cc5BNH7j.s:26561  .debug_str:0000000000014745 .LASF3941
C:\Users\CYMR90~1\AppData\Local\Temp\cc5BNH7j.s:25255  .debug_str:000000000000f285 .LASF3942
C:\Users\CYMR90~1\AppData\Local\Temp\cc5BNH7j.s:27828  .debug_str:0000000000019995 .LASF3943
C:\Users\CYMR90~1\AppData\Local\Temp\cc5BNH7j.s:27710  .debug_str:00000000000191b3 .LASF3944
C:\Users\CYMR90~1\AppData\Local\Temp\cc5BNH7j.s:29086  .debug_str:000000000001ea88 .LASF3945
C:\Users\CYMR90~1\AppData\Local\Temp\cc5BNH7j.s:31010  .debug_str:0000000000026330 .LASF3946
C:\Users\CYMR90~1\AppData\Local\Temp\cc5BNH7j.s:29152  .debug_str:000000000001ee5e .LASF3947
C:\Users\CYMR90~1\AppData\Local\Temp\cc5BNH7j.s:23797  .debug_str:00000000000093a2 .LASF3948
C:\Users\CYMR90~1\AppData\Local\Temp\cc5BNH7j.s:32152  .debug_str:000000000002ab7a .LASF3949
C:\Users\CYMR90~1\AppData\Local\Temp\cc5BNH7j.s:28664  .debug_str:000000000001d119 .LASF3950
C:\Users\CYMR90~1\AppData\Local\Temp\cc5BNH7j.s:29872  .debug_str:0000000000021a68 .LASF3951
C:\Users\CYMR90~1\AppData\Local\Temp\cc5BNH7j.s:21911  .debug_str:0000000000001b37 .LASF3952
C:\Users\CYMR90~1\AppData\Local\Temp\cc5BNH7j.s:29788  .debug_str:000000000002154a .LASF3953
C:\Users\CYMR90~1\AppData\Local\Temp\cc5BNH7j.s:26415  .debug_str:0000000000013df7 .LASF3954
C:\Users\CYMR90~1\AppData\Local\Temp\cc5BNH7j.s:32046  .debug_str:000000000002a52a .LASF3955
C:\Users\CYMR90~1\AppData\Local\Temp\cc5BNH7j.s:29726  .debug_str:00000000000210fb .LASF3956
C:\Users\CYMR90~1\AppData\Local\Temp\cc5BNH7j.s:26355  .debug_str:0000000000013a7c .LASF3957
C:\Users\CYMR90~1\AppData\Local\Temp\cc5BNH7j.s:31026  .debug_str:000000000002643c .LASF3958
C:\Users\CYMR90~1\AppData\Local\Temp\cc5BNH7j.s:30856  .debug_str:00000000000259b9 .LASF3959
C:\Users\CYMR90~1\AppData\Local\Temp\cc5BNH7j.s:27484  .debug_str:0000000000018262 .LASF3960
C:\Users\CYMR90~1\AppData\Local\Temp\cc5BNH7j.s:32608  .debug_str:000000000002c957 .LASF3961
C:\Users\CYMR90~1\AppData\Local\Temp\cc5BNH7j.s:31998  .debug_str:000000000002a211 .LASF3962
C:\Users\CYMR90~1\AppData\Local\Temp\cc5BNH7j.s:29940  .debug_str:0000000000021e9d .LASF3963
C:\Users\CYMR90~1\AppData\Local\Temp\cc5BNH7j.s:28804  .debug_str:000000000001d9a0 .LASF3964
C:\Users\CYMR90~1\AppData\Local\Temp\cc5BNH7j.s:23239  .debug_str:0000000000006ed5 .LASF3965
C:\Users\CYMR90~1\AppData\Local\Temp\cc5BNH7j.s:23379  .debug_str:0000000000007815 .LASF3966
C:\Users\CYMR90~1\AppData\Local\Temp\cc5BNH7j.s:27366  .debug_str:0000000000017b75 .LASF3967
C:\Users\CYMR90~1\AppData\Local\Temp\cc5BNH7j.s:31296  .debug_str:000000000002752a .LASF3968
C:\Users\CYMR90~1\AppData\Local\Temp\cc5BNH7j.s:23959  .debug_str:0000000000009e1d .LASF3969
C:\Users\CYMR90~1\AppData\Local\Temp\cc5BNH7j.s:32436  .debug_str:000000000002be20 .LASF3970
C:\Users\CYMR90~1\AppData\Local\Temp\cc5BNH7j.s:23487  .debug_str:0000000000008056 .LASF3971
C:\Users\CYMR90~1\AppData\Local\Temp\cc5BNH7j.s:25809  .debug_str:0000000000011600 .LASF3972
C:\Users\CYMR90~1\AppData\Local\Temp\cc5BNH7j.s:28322  .debug_str:000000000001b9ca .LASF3973
C:\Users\CYMR90~1\AppData\Local\Temp\cc5BNH7j.s:32358  .debug_str:000000000002b8c9 .LASF3974
C:\Users\CYMR90~1\AppData\Local\Temp\cc5BNH7j.s:26503  .debug_str:000000000001438f .LASF3975
C:\Users\CYMR90~1\AppData\Local\Temp\cc5BNH7j.s:28916  .debug_str:000000000001e085 .LASF3976
C:\Users\CYMR90~1\AppData\Local\Temp\cc5BNH7j.s:31228  .debug_str:000000000002715a .LASF3977
C:\Users\CYMR90~1\AppData\Local\Temp\cc5BNH7j.s:22335  .debug_str:0000000000003538 .LASF3978
C:\Users\CYMR90~1\AppData\Local\Temp\cc5BNH7j.s:29620  .debug_str:0000000000020b29 .LASF3979
C:\Users\CYMR90~1\AppData\Local\Temp\cc5BNH7j.s:22249  .debug_str:0000000000002f6f .LASF3980
C:\Users\CYMR90~1\AppData\Local\Temp\cc5BNH7j.s:29258  .debug_str:000000000001f4c2 .LASF3981
C:\Users\CYMR90~1\AppData\Local\Temp\cc5BNH7j.s:31620  .debug_str:0000000000028b4e .LASF3982
C:\Users\CYMR90~1\AppData\Local\Temp\cc5BNH7j.s:26131  .debug_str:0000000000012bda .LASF3983
C:\Users\CYMR90~1\AppData\Local\Temp\cc5BNH7j.s:24929  .debug_str:000000000000de6a .LASF3984
C:\Users\CYMR90~1\AppData\Local\Temp\cc5BNH7j.s:22005  .debug_str:000000000000206f .LASF3985
C:\Users\CYMR90~1\AppData\Local\Temp\cc5BNH7j.s:23511  .debug_str:00000000000081d6 .LASF3986
C:\Users\CYMR90~1\AppData\Local\Temp\cc5BNH7j.s:25835  .debug_str:000000000001184d .LASF3987
C:\Users\CYMR90~1\AppData\Local\Temp\cc5BNH7j.s:27736  .debug_str:0000000000019357 .LASF3988
C:\Users\CYMR90~1\AppData\Local\Temp\cc5BNH7j.s:25801  .debug_str:000000000001156d .LASF3989
C:\Users\CYMR90~1\AppData\Local\Temp\cc5BNH7j.s:21557  .debug_str:0000000000000519 .LASF3990
C:\Users\CYMR90~1\AppData\Local\Temp\cc5BNH7j.s:28206  .debug_str:000000000001b324 .LASF3991
C:\Users\CYMR90~1\AppData\Local\Temp\cc5BNH7j.s:32216  .debug_str:000000000002af1d .LASF3992
C:\Users\CYMR90~1\AppData\Local\Temp\cc5BNH7j.s:24859  .debug_str:000000000000d9d8 .LASF3993
C:\Users\CYMR90~1\AppData\Local\Temp\cc5BNH7j.s:23889  .debug_str:00000000000099da .LASF3994
C:\Users\CYMR90~1\AppData\Local\Temp\cc5BNH7j.s:27774  .debug_str:000000000001956c .LASF3995
C:\Users\CYMR90~1\AppData\Local\Temp\cc5BNH7j.s:23765  .debug_str:00000000000091d4 .LASF3996
C:\Users\CYMR90~1\AppData\Local\Temp\cc5BNH7j.s:27672  .debug_str:0000000000018e9d .LASF3997
C:\Users\CYMR90~1\AppData\Local\Temp\cc5BNH7j.s:31576  .debug_str:00000000000288f0 .LASF3998
C:\Users\CYMR90~1\AppData\Local\Temp\cc5BNH7j.s:26627  .debug_str:0000000000014b01 .LASF3999
C:\Users\CYMR90~1\AppData\Local\Temp\cc5BNH7j.s:28162  .debug_str:000000000001b02f .LASF4000
C:\Users\CYMR90~1\AppData\Local\Temp\cc5BNH7j.s:32150  .debug_str:000000000002ab54 .LASF4001
C:\Users\CYMR90~1\AppData\Local\Temp\cc5BNH7j.s:24799  .debug_str:000000000000d66a .LASF4002
C:\Users\CYMR90~1\AppData\Local\Temp\cc5BNH7j.s:23945  .debug_str:0000000000009d26 .LASF4003
C:\Users\CYMR90~1\AppData\Local\Temp\cc5BNH7j.s:32618  .debug_str:000000000002c9e7 .LASF4004
C:\Users\CYMR90~1\AppData\Local\Temp\cc5BNH7j.s:29680  .debug_str:0000000000020e65 .LASF4005
C:\Users\CYMR90~1\AppData\Local\Temp\cc5BNH7j.s:31426  .debug_str:0000000000027e42 .LASF4006
C:\Users\CYMR90~1\AppData\Local\Temp\cc5BNH7j.s:28754  .debug_str:000000000001d67c .LASF4007
C:\Users\CYMR90~1\AppData\Local\Temp\cc5BNH7j.s:24175  .debug_str:000000000000abad .LASF4008
C:\Users\CYMR90~1\AppData\Local\Temp\cc5BNH7j.s:28102  .debug_str:000000000001ac0c .LASF4009
C:\Users\CYMR90~1\AppData\Local\Temp\cc5BNH7j.s:32078  .debug_str:000000000002a726 .LASF4010
C:\Users\CYMR90~1\AppData\Local\Temp\cc5BNH7j.s:27029  .debug_str:0000000000016411 .LASF4011
C:\Users\CYMR90~1\AppData\Local\Temp\cc5BNH7j.s:28622  .debug_str:000000000001cde8 .LASF4012
C:\Users\CYMR90~1\AppData\Local\Temp\cc5BNH7j.s:32556  .debug_str:000000000002c5fd .LASF4013
C:\Users\CYMR90~1\AppData\Local\Temp\cc5BNH7j.s:27700  .debug_str:000000000001912c .LASF4014
C:\Users\CYMR90~1\AppData\Local\Temp\cc5BNH7j.s:22283  .debug_str:00000000000031e3 .LASF4015
C:\Users\CYMR90~1\AppData\Local\Temp\cc5BNH7j.s:31450  .debug_str:0000000000027fe2 .LASF4016
C:\Users\CYMR90~1\AppData\Local\Temp\cc5BNH7j.s:32018  .debug_str:000000000002a391 .LASF4017
C:\Users\CYMR90~1\AppData\Local\Temp\cc5BNH7j.s:23073  .debug_str:000000000000643f .LASF4018
C:\Users\CYMR90~1\AppData\Local\Temp\cc5BNH7j.s:32008  .debug_str:000000000002a2ba .LASF4019
C:\Users\CYMR90~1\AppData\Local\Temp\cc5BNH7j.s:24675  .debug_str:000000000000ce08 .LASF4020
C:\Users\CYMR90~1\AppData\Local\Temp\cc5BNH7j.s:28560  .debug_str:000000000001c983 .LASF4021
C:\Users\CYMR90~1\AppData\Local\Temp\cc5BNH7j.s:32496  .debug_str:000000000002c254 .LASF4022
C:\Users\CYMR90~1\AppData\Local\Temp\cc5BNH7j.s:23489  .debug_str:000000000000807c .LASF4023
C:\Users\CYMR90~1\AppData\Local\Temp\cc5BNH7j.s:26619  .debug_str:0000000000014a98 .LASF4024
C:\Users\CYMR90~1\AppData\Local\Temp\cc5BNH7j.s:26145  .debug_str:0000000000012ce1 .LASF4025
C:\Users\CYMR90~1\AppData\Local\Temp\cc5BNH7j.s:24045  .debug_str:000000000000a3b9 .LASF4026
C:\Users\CYMR90~1\AppData\Local\Temp\cc5BNH7j.s:27960  .debug_str:000000000001a150 .LASF4027
C:\Users\CYMR90~1\AppData\Local\Temp\cc5BNH7j.s:25471  .debug_str:000000000001005d .LASF4028
C:\Users\CYMR90~1\AppData\Local\Temp\cc5BNH7j.s:28334  .debug_str:000000000001bab2 .LASF4029
C:\Users\CYMR90~1\AppData\Local\Temp\cc5BNH7j.s:28492  .debug_str:000000000001c44a .LASF4030
C:\Users\CYMR90~1\AppData\Local\Temp\cc5BNH7j.s:29790  .debug_str:000000000002156e .LASF4031
C:\Users\CYMR90~1\AppData\Local\Temp\cc5BNH7j.s:25073  .debug_str:000000000000e762 .LASF4032
C:\Users\CYMR90~1\AppData\Local\Temp\cc5BNH7j.s:28942  .debug_str:000000000001e1eb .LASF4033
C:\Users\CYMR90~1\AppData\Local\Temp\cc5BNH7j.s:21645  .debug_str:0000000000000ac1 .LASF4034
C:\Users\CYMR90~1\AppData\Local\Temp\cc5BNH7j.s:28498  .debug_str:000000000001c4a8 .LASF4035
C:\Users\CYMR90~1\AppData\Local\Temp\cc5BNH7j.s:30062  .debug_str:00000000000225c0 .LASF4036
C:\Users\CYMR90~1\AppData\Local\Temp\cc5BNH7j.s:31876  .debug_str:0000000000029b19 .LASF4037
C:\Users\CYMR90~1\AppData\Local\Temp\cc5BNH7j.s:24539  .debug_str:000000000000c493 .LASF4038
C:\Users\CYMR90~1\AppData\Local\Temp\cc5BNH7j.s:26637  .debug_str:0000000000014ba7 .LASF4039
C:\Users\CYMR90~1\AppData\Local\Temp\cc5BNH7j.s:32372  .debug_str:000000000002b998 .LASF4040
C:\Users\CYMR90~1\AppData\Local\Temp\cc5BNH7j.s:28968  .debug_str:000000000001e380 .LASF4041
C:\Users\CYMR90~1\AppData\Local\Temp\cc5BNH7j.s:28878  .debug_str:000000000001de21 .LASF4042
C:\Users\CYMR90~1\AppData\Local\Temp\cc5BNH7j.s:21587  .debug_str:00000000000006e7 .LASF4043
C:\Users\CYMR90~1\AppData\Local\Temp\cc5BNH7j.s:32544  .debug_str:000000000002c528 .LASF4044
C:\Users\CYMR90~1\AppData\Local\Temp\cc5BNH7j.s:22547  .debug_str:000000000000435c .LASF4045
C:\Users\CYMR90~1\AppData\Local\Temp\cc5BNH7j.s:31814  .debug_str:000000000002975b .LASF4046
C:\Users\CYMR90~1\AppData\Local\Temp\cc5BNH7j.s:27836  .debug_str:0000000000019a11 .LASF4047
C:\Users\CYMR90~1\AppData\Local\Temp\cc5BNH7j.s:30144  .debug_str:0000000000022ac5 .LASF4048
C:\Users\CYMR90~1\AppData\Local\Temp\cc5BNH7j.s:32316  .debug_str:000000000002b5d3 .LASF4049
C:\Users\CYMR90~1\AppData\Local\Temp\cc5BNH7j.s:24951  .debug_str:000000000000dfac .LASF4050
C:\Users\CYMR90~1\AppData\Local\Temp\cc5BNH7j.s:22843  .debug_str:0000000000005655 .LASF4051
C:\Users\CYMR90~1\AppData\Local\Temp\cc5BNH7j.s:21519  .debug_str:00000000000002ff .LASF4052
C:\Users\CYMR90~1\AppData\Local\Temp\cc5BNH7j.s:26013  .debug_str:000000000001243b .LASF4053
C:\Users\CYMR90~1\AppData\Local\Temp\cc5BNH7j.s:22427  .debug_str:0000000000003b3a .LASF4054
C:\Users\CYMR90~1\AppData\Local\Temp\cc5BNH7j.s:26491  .debug_str:00000000000142dc .LASF4055
C:\Users\CYMR90~1\AppData\Local\Temp\cc5BNH7j.s:24409  .debug_str:000000000000bc5c .LASF4056
C:\Users\CYMR90~1\AppData\Local\Temp\cc5BNH7j.s:21799  .debug_str:0000000000001404 .LASF4057
C:\Users\CYMR90~1\AppData\Local\Temp\cc5BNH7j.s:32240  .debug_str:000000000002b0fe .LASF4058
C:\Users\CYMR90~1\AppData\Local\Temp\cc5BNH7j.s:29138  .debug_str:000000000001ed72 .LASF4059
C:\Users\CYMR90~1\AppData\Local\Temp\cc5BNH7j.s:29320  .debug_str:000000000001f87a .LASF4060
C:\Users\CYMR90~1\AppData\Local\Temp\cc5BNH7j.s:32702  .debug_str:000000000002cf86 .LASF4061
C:\Users\CYMR90~1\AppData\Local\Temp\cc5BNH7j.s:21793  .debug_str:00000000000013a8 .LASF4062
C:\Users\CYMR90~1\AppData\Local\Temp\cc5BNH7j.s:25941  .debug_str:0000000000011f2d .LASF4063
C:\Users\CYMR90~1\AppData\Local\Temp\cc5BNH7j.s:28256  .debug_str:000000000001b62e .LASF4064
C:\Users\CYMR90~1\AppData\Local\Temp\cc5BNH7j.s:30916  .debug_str:0000000000025d40 .LASF4065
C:\Users\CYMR90~1\AppData\Local\Temp\cc5BNH7j.s:26663  .debug_str:0000000000014d80 .LASF4066
C:\Users\CYMR90~1\AppData\Local\Temp\cc5BNH7j.s:29868  .debug_str:0000000000021a28 .LASF4067
C:\Users\CYMR90~1\AppData\Local\Temp\cc5BNH7j.s:22241  .debug_str:0000000000002f05 .LASF4068
C:\Users\CYMR90~1\AppData\Local\Temp\cc5BNH7j.s:23551  .debug_str:000000000000847b .LASF4069
C:\Users\CYMR90~1\AppData\Local\Temp\cc5BNH7j.s:27452  .debug_str:0000000000018082 .LASF4070
C:\Users\CYMR90~1\AppData\Local\Temp\cc5BNH7j.s:31374  .debug_str:0000000000027a89 .LASF4071
C:\Users\CYMR90~1\AppData\Local\Temp\cc5BNH7j.s:31366  .debug_str:00000000000279ff .LASF4072
C:\Users\CYMR90~1\AppData\Local\Temp\cc5BNH7j.s:32558  .debug_str:000000000002c623 .LASF4073
C:\Users\CYMR90~1\AppData\Local\Temp\cc5BNH7j.s:31932  .debug_str:0000000000029e38 .LASF4074
C:\Users\CYMR90~1\AppData\Local\Temp\cc5BNH7j.s:27658  .debug_str:0000000000018dbf .LASF4075
C:\Users\CYMR90~1\AppData\Local\Temp\cc5BNH7j.s:22121  .debug_str:00000000000027a7 .LASF4076
C:\Users\CYMR90~1\AppData\Local\Temp\cc5BNH7j.s:30822  .debug_str:00000000000257a6 .LASF4077
C:\Users\CYMR90~1\AppData\Local\Temp\cc5BNH7j.s:23493  .debug_str:00000000000080b8 .LASF4078
C:\Users\CYMR90~1\AppData\Local\Temp\cc5BNH7j.s:27380  .debug_str:0000000000017c45 .LASF4079
C:\Users\CYMR90~1\AppData\Local\Temp\cc5BNH7j.s:32142  .debug_str:000000000002aab9 .LASF4080
C:\Users\CYMR90~1\AppData\Local\Temp\cc5BNH7j.s:22449  .debug_str:0000000000003cc1 .LASF4081
C:\Users\CYMR90~1\AppData\Local\Temp\cc5BNH7j.s:24793  .debug_str:000000000000d614 .LASF4082
C:\Users\CYMR90~1\AppData\Local\Temp\cc5BNH7j.s:31872  .debug_str:0000000000029adc .LASF4083
C:\Users\CYMR90~1\AppData\Local\Temp\cc5BNH7j.s:30306  .debug_str:000000000002345b .LASF4084
C:\Users\CYMR90~1\AppData\Local\Temp\cc5BNH7j.s:29354  .debug_str:000000000001fa9e .LASF4085
C:\Users\CYMR90~1\AppData\Local\Temp\cc5BNH7j.s:30650  .debug_str:0000000000024adb .LASF4086
C:\Users\CYMR90~1\AppData\Local\Temp\cc5BNH7j.s:32648  .debug_str:000000000002cc41 .LASF4087
C:\Users\CYMR90~1\AppData\Local\Temp\cc5BNH7j.s:27322  .debug_str:00000000000178ee .LASF4088
C:\Users\CYMR90~1\AppData\Local\Temp\cc5BNH7j.s:23645  .debug_str:0000000000008a8d .LASF4089
C:\Users\CYMR90~1\AppData\Local\Temp\cc5BNH7j.s:28046  .debug_str:000000000001a878 .LASF4090
C:\Users\CYMR90~1\AppData\Local\Temp\cc5BNH7j.s:28276  .debug_str:000000000001b78b .LASF4091
C:\Users\CYMR90~1\AppData\Local\Temp\cc5BNH7j.s:31804  .debug_str:00000000000296d1 .LASF4092
C:\Users\CYMR90~1\AppData\Local\Temp\cc5BNH7j.s:24467  .debug_str:000000000000c016 .LASF4093
C:\Users\CYMR90~1\AppData\Local\Temp\cc5BNH7j.s:24873  .debug_str:000000000000da81 .LASF4094
C:\Users\CYMR90~1\AppData\Local\Temp\cc5BNH7j.s:25333  .debug_str:000000000000f7b7 .LASF4095
C:\Users\CYMR90~1\AppData\Local\Temp\cc5BNH7j.s:23355  .debug_str:0000000000007686 .LASF4096
C:\Users\CYMR90~1\AppData\Local\Temp\cc5BNH7j.s:27256  .debug_str:0000000000017495 .LASF4097
C:\Users\CYMR90~1\AppData\Local\Temp\cc5BNH7j.s:30288  .debug_str:00000000000232ef .LASF4098
C:\Users\CYMR90~1\AppData\Local\Temp\cc5BNH7j.s:23825  .debug_str:000000000000959a .LASF4099
C:\Users\CYMR90~1\AppData\Local\Temp\cc5BNH7j.s:32614  .debug_str:000000000002c9af .LASF4100
C:\Users\CYMR90~1\AppData\Local\Temp\cc5BNH7j.s:31744  .debug_str:0000000000029316 .LASF4101
C:\Users\CYMR90~1\AppData\Local\Temp\cc5BNH7j.s:24403  .debug_str:000000000000bbe3 .LASF4102
C:\Users\CYMR90~1\AppData\Local\Temp\cc5BNH7j.s:28352  .debug_str:000000000001bbcd .LASF4103
C:\Users\CYMR90~1\AppData\Local\Temp\cc5BNH7j.s:30672  .debug_str:0000000000024c69 .LASF4104
C:\Users\CYMR90~1\AppData\Local\Temp\cc5BNH7j.s:26723  .debug_str:000000000001515a .LASF4105
C:\Users\CYMR90~1\AppData\Local\Temp\cc5BNH7j.s:27200  .debug_str:000000000001713b .LASF4106
C:\Users\CYMR90~1\AppData\Local\Temp\cc5BNH7j.s:28650  .debug_str:000000000001d02e .LASF4107
C:\Users\CYMR90~1\AppData\Local\Temp\cc5BNH7j.s:21697  .debug_str:0000000000000db3 .LASF4108
C:\Users\CYMR90~1\AppData\Local\Temp\cc5BNH7j.s:27688  .debug_str:0000000000019066 .LASF4109
C:\Users\CYMR90~1\AppData\Local\Temp\cc5BNH7j.s:27206  .debug_str:00000000000171a7 .LASF4110
C:\Users\CYMR90~1\AppData\Local\Temp\cc5BNH7j.s:29520  .debug_str:00000000000204f5 .LASF4111
C:\Users\CYMR90~1\AppData\Local\Temp\cc5BNH7j.s:31852  .debug_str:0000000000029999 .LASF4112
C:\Users\CYMR90~1\AppData\Local\Temp\cc5BNH7j.s:32162  .debug_str:000000000002ac0e .LASF4113
C:\Users\CYMR90~1\AppData\Local\Temp\cc5BNH7j.s:25249  .debug_str:000000000000f219 .LASF4114
C:\Users\CYMR90~1\AppData\Local\Temp\cc5BNH7j.s:32564  .debug_str:000000000002c69c .LASF4115
C:\Users\CYMR90~1\AppData\Local\Temp\cc5BNH7j.s:31048  .debug_str:000000000002659f .LASF4116
C:\Users\CYMR90~1\AppData\Local\Temp\cc5BNH7j.s:29608  .debug_str:0000000000020a59 .LASF4117
C:\Users\CYMR90~1\AppData\Local\Temp\cc5BNH7j.s:27622  .debug_str:0000000000018b81 .LASF4118
C:\Users\CYMR90~1\AppData\Local\Temp\cc5BNH7j.s:31616  .debug_str:0000000000028b14 .LASF4119
C:\Users\CYMR90~1\AppData\Local\Temp\cc5BNH7j.s:30526  .debug_str:00000000000242ad .LASF4120
C:\Users\CYMR90~1\AppData\Local\Temp\cc5BNH7j.s:28188  .debug_str:000000000001b21a .LASF4121
C:\Users\CYMR90~1\AppData\Local\Temp\cc5BNH7j.s:32090  .debug_str:000000000002a7be .LASF4122
C:\Users\CYMR90~1\AppData\Local\Temp\cc5BNH7j.s:24753  .debug_str:000000000000d372 .LASF4123
C:\Users\CYMR90~1\AppData\Local\Temp\cc5BNH7j.s:31050  .debug_str:00000000000265c5 .LASF4124
C:\Users\CYMR90~1\AppData\Local\Temp\cc5BNH7j.s:27099  .debug_str:0000000000016921 .LASF4125
C:\Users\CYMR90~1\AppData\Local\Temp\cc5BNH7j.s:23649  .debug_str:0000000000008ac9 .LASF4126
C:\Users\CYMR90~1\AppData\Local\Temp\cc5BNH7j.s:27546  .debug_str:00000000000185d9 .LASF4127
C:\Users\CYMR90~1\AppData\Local\Temp\cc5BNH7j.s:25607  .debug_str:00000000000108f5 .LASF4128
C:\Users\CYMR90~1\AppData\Local\Temp\cc5BNH7j.s:24213  .debug_str:000000000000aef6 .LASF4129
C:\Users\CYMR90~1\AppData\Local\Temp\cc5BNH7j.s:27582  .debug_str:0000000000018866 .LASF4130
C:\Users\CYMR90~1\AppData\Local\Temp\cc5BNH7j.s:27796  .debug_str:0000000000019732 .LASF4131
C:\Users\CYMR90~1\AppData\Local\Temp\cc5BNH7j.s:32246  .debug_str:000000000002b154 .LASF4132
C:\Users\CYMR90~1\AppData\Local\Temp\cc5BNH7j.s:23279  .debug_str:00000000000071d1 .LASF4133
C:\Users\CYMR90~1\AppData\Local\Temp\cc5BNH7j.s:32510  .debug_str:000000000002c335 .LASF4134
C:\Users\CYMR90~1\AppData\Local\Temp\cc5BNH7j.s:29570  .debug_str:0000000000020807 .LASF4135
C:\Users\CYMR90~1\AppData\Local\Temp\cc5BNH7j.s:30238  .debug_str:0000000000022ffc .LASF4136
C:\Users\CYMR90~1\AppData\Local\Temp\cc5BNH7j.s:31486  .debug_str:00000000000282ba .LASF4137
C:\Users\CYMR90~1\AppData\Local\Temp\cc5BNH7j.s:24145  .debug_str:000000000000a9d1 .LASF4138
C:\Users\CYMR90~1\AppData\Local\Temp\cc5BNH7j.s:22833  .debug_str:000000000000557d .LASF4139
C:\Users\CYMR90~1\AppData\Local\Temp\cc5BNH7j.s:23589  .debug_str:00000000000086ce .LASF4140
C:\Users\CYMR90~1\AppData\Local\Temp\cc5BNH7j.s:24631  .debug_str:000000000000cb5d .LASF4141
C:\Users\CYMR90~1\AppData\Local\Temp\cc5BNH7j.s:28510  .debug_str:000000000001c585 .LASF4142
C:\Users\CYMR90~1\AppData\Local\Temp\cc5BNH7j.s:32446  .debug_str:000000000002bea8 .LASF4143
C:\Users\CYMR90~1\AppData\Local\Temp\cc5BNH7j.s:25187  .debug_str:000000000000ee23 .LASF4144
C:\Users\CYMR90~1\AppData\Local\Temp\cc5BNH7j.s:29294  .debug_str:000000000001f6e0 .LASF4145
C:\Users\CYMR90~1\AppData\Local\Temp\cc5BNH7j.s:28430  .debug_str:000000000001c0ff .LASF4146
C:\Users\CYMR90~1\AppData\Local\Temp\cc5BNH7j.s:32274  .debug_str:000000000002b343 .LASF4147
C:\Users\CYMR90~1\AppData\Local\Temp\cc5BNH7j.s:28006  .debug_str:000000000001a57f .LASF4148
C:\Users\CYMR90~1\AppData\Local\Temp\cc5BNH7j.s:30628  .debug_str:0000000000024985 .LASF4149
C:\Users\CYMR90~1\AppData\Local\Temp\cc5BNH7j.s:27978  .debug_str:000000000001a41c .LASF4150
C:\Users\CYMR90~1\AppData\Local\Temp\cc5BNH7j.s:28440  .debug_str:000000000001c185 .LASF4151
C:\Users\CYMR90~1\AppData\Local\Temp\cc5BNH7j.s:21593  .debug_str:0000000000000746 .LASF4152
C:\Users\CYMR90~1\AppData\Local\Temp\cc5BNH7j.s:24553  .debug_str:000000000000c548 .LASF4153
C:\Users\CYMR90~1\AppData\Local\Temp\cc5BNH7j.s:24725  .debug_str:000000000000d16b .LASF4154
C:\Users\CYMR90~1\AppData\Local\Temp\cc5BNH7j.s:22905  .debug_str:0000000000005a1c .LASF4155
C:\Users\CYMR90~1\AppData\Local\Temp\cc5BNH7j.s:24019  .debug_str:000000000000a1d9 .LASF4156
C:\Users\CYMR90~1\AppData\Local\Temp\cc5BNH7j.s:27924  .debug_str:0000000000019f54 .LASF4157
C:\Users\CYMR90~1\AppData\Local\Temp\cc5BNH7j.s:31826  .debug_str:0000000000029818 .LASF4158
C:\Users\CYMR90~1\AppData\Local\Temp\cc5BNH7j.s:24489  .debug_str:000000000000c15c .LASF4159
C:\Users\CYMR90~1\AppData\Local\Temp\cc5BNH7j.s:28380  .debug_str:000000000001bdb3 .LASF4160
C:\Users\CYMR90~1\AppData\Local\Temp\cc5BNH7j.s:28620  .debug_str:000000000001cdc2 .LASF4161
C:\Users\CYMR90~1\AppData\Local\Temp\cc5BNH7j.s:28066  .debug_str:000000000001a9d2 .LASF4162
C:\Users\CYMR90~1\AppData\Local\Temp\cc5BNH7j.s:28914  .debug_str:000000000001e05f .LASF4163
C:\Users\CYMR90~1\AppData\Local\Temp\cc5BNH7j.s:32512  .debug_str:000000000002c35b .LASF4164
C:\Users\CYMR90~1\AppData\Local\Temp\cc5BNH7j.s:24103  .debug_str:000000000000a751 .LASF4165
C:\Users\CYMR90~1\AppData\Local\Temp\cc5BNH7j.s:22577  .debug_str:0000000000004561 .LASF4166
C:\Users\CYMR90~1\AppData\Local\Temp\cc5BNH7j.s:26587  .debug_str:00000000000148b0 .LASF4167
C:\Users\CYMR90~1\AppData\Local\Temp\cc5BNH7j.s:30502  .debug_str:0000000000024102 .LASF4168
C:\Users\CYMR90~1\AppData\Local\Temp\cc5BNH7j.s:23149  .debug_str:000000000000690d .LASF4169
C:\Users\CYMR90~1\AppData\Local\Temp\cc5BNH7j.s:30002  .debug_str:0000000000022249 .LASF4170
C:\Users\CYMR90~1\AppData\Local\Temp\cc5BNH7j.s:32354  .debug_str:000000000002b868 .LASF4171
C:\Users\CYMR90~1\AppData\Local\Temp\cc5BNH7j.s:23133  .debug_str:0000000000006802 .LASF4172
C:\Users\CYMR90~1\AppData\Local\Temp\cc5BNH7j.s:27540  .debug_str:000000000001858d .LASF4173
C:\Users\CYMR90~1\AppData\Local\Temp\cc5BNH7j.s:31546  .debug_str:0000000000028703 .LASF4174
C:\Users\CYMR90~1\AppData\Local\Temp\cc5BNH7j.s:30892  .debug_str:0000000000025bc4 .LASF4175
C:\Users\CYMR90~1\AppData\Local\Temp\cc5BNH7j.s:26527  .debug_str:00000000000144ca .LASF4176
C:\Users\CYMR90~1\AppData\Local\Temp\cc5BNH7j.s:30436  .debug_str:0000000000023c02 .LASF4177
C:\Users\CYMR90~1\AppData\Local\Temp\cc5BNH7j.s:31182  .debug_str:0000000000026de7 .LASF4178
C:\Users\CYMR90~1\AppData\Local\Temp\cc5BNH7j.s:28718  .debug_str:000000000001d42c .LASF4179
C:\Users\CYMR90~1\AppData\Local\Temp\cc5BNH7j.s:29448  .debug_str:0000000000020009 .LASF4180
C:\Users\CYMR90~1\AppData\Local\Temp\cc5BNH7j.s:25589  .debug_str:00000000000107eb .LASF4181
C:\Users\CYMR90~1\AppData\Local\Temp\cc5BNH7j.s:29154  .debug_str:000000000001ee82 .LASF4182
C:\Users\CYMR90~1\AppData\Local\Temp\cc5BNH7j.s:24881  .debug_str:000000000000db08 .LASF4183
C:\Users\CYMR90~1\AppData\Local\Temp\cc5BNH7j.s:23467  .debug_str:0000000000007e7b .LASF4184
C:\Users\CYMR90~1\AppData\Local\Temp\cc5BNH7j.s:30780  .debug_str:0000000000025432 .LASF4185
C:\Users\CYMR90~1\AppData\Local\Temp\cc5BNH7j.s:32374  .debug_str:000000000002b9be .LASF4186
C:\Users\CYMR90~1\AppData\Local\Temp\cc5BNH7j.s:23817  .debug_str:0000000000009521 .LASF4187
C:\Users\CYMR90~1\AppData\Local\Temp\cc5BNH7j.s:26917  .debug_str:0000000000015d05 .LASF4188
C:\Users\CYMR90~1\AppData\Local\Temp\cc5BNH7j.s:30838  .debug_str:0000000000025893 .LASF4189
C:\Users\CYMR90~1\AppData\Local\Temp\cc5BNH7j.s:26007  .debug_str:00000000000123e0 .LASF4190
C:\Users\CYMR90~1\AppData\Local\Temp\cc5BNH7j.s:26051  .debug_str:00000000000126b2 .LASF4191
C:\Users\CYMR90~1\AppData\Local\Temp\cc5BNH7j.s:24659  .debug_str:000000000000ccd3 .LASF4192
C:\Users\CYMR90~1\AppData\Local\Temp\cc5BNH7j.s:24075  .debug_str:000000000000a564 .LASF4193
C:\Users\CYMR90~1\AppData\Local\Temp\cc5BNH7j.s:27996  .debug_str:000000000001a4ec .LASF4194
C:\Users\CYMR90~1\AppData\Local\Temp\cc5BNH7j.s:25069  .debug_str:000000000000e72c .LASF4195
C:\Users\CYMR90~1\AppData\Local\Temp\cc5BNH7j.s:22947  .debug_str:0000000000005c8f .LASF4196
C:\Users\CYMR90~1\AppData\Local\Temp\cc5BNH7j.s:29184  .debug_str:000000000001f056 .LASF4197
C:\Users\CYMR90~1\AppData\Local\Temp\cc5BNH7j.s:30776  .debug_str:00000000000253e0 .LASF4198
C:\Users\CYMR90~1\AppData\Local\Temp\cc5BNH7j.s:30564  .debug_str:00000000000244fd .LASF4199
C:\Users\CYMR90~1\AppData\Local\Temp\cc5BNH7j.s:22505  .debug_str:00000000000040c6 .LASF4200
C:\Users\CYMR90~1\AppData\Local\Temp\cc5BNH7j.s:28160  .debug_str:000000000001b009 .LASF4201
C:\Users\CYMR90~1\AppData\Local\Temp\cc5BNH7j.s:25673  .debug_str:0000000000010d95 .LASF4202
C:\Users\CYMR90~1\AppData\Local\Temp\cc5BNH7j.s:27916  .debug_str:0000000000019ecf .LASF4203
C:\Users\CYMR90~1\AppData\Local\Temp\cc5BNH7j.s:31820  .debug_str:00000000000297ae .LASF4204
C:\Users\CYMR90~1\AppData\Local\Temp\cc5BNH7j.s:31164  .debug_str:0000000000026ccf .LASF4205
C:\Users\CYMR90~1\AppData\Local\Temp\cc5BNH7j.s:26793  .debug_str:0000000000015535 .LASF4206
C:\Users\CYMR90~1\AppData\Local\Temp\cc5BNH7j.s:32456  .debug_str:000000000002bf75 .LASF4207
C:\Users\CYMR90~1\AppData\Local\Temp\cc5BNH7j.s:23363  .debug_str:0000000000007718 .LASF4208
C:\Users\CYMR90~1\AppData\Local\Temp\cc5BNH7j.s:30720  .debug_str:0000000000024fcb .LASF4209
C:\Users\CYMR90~1\AppData\Local\Temp\cc5BNH7j.s:32694  .debug_str:000000000002cef6 .LASF4210
C:\Users\CYMR90~1\AppData\Local\Temp\cc5BNH7j.s:22673  .debug_str:0000000000004c06 .LASF4211
C:\Users\CYMR90~1\AppData\Local\Temp\cc5BNH7j.s:27852  .debug_str:0000000000019b21 .LASF4212
C:\Users\CYMR90~1\AppData\Local\Temp\cc5BNH7j.s:22899  .debug_str:0000000000005988 .LASF4213
C:\Users\CYMR90~1\AppData\Local\Temp\cc5BNH7j.s:24415  .debug_str:000000000000bcba .LASF4214
C:\Users\CYMR90~1\AppData\Local\Temp\cc5BNH7j.s:25735  .debug_str:0000000000011130 .LASF4215
C:\Users\CYMR90~1\AppData\Local\Temp\cc5BNH7j.s:23917  .debug_str:0000000000009b86 .LASF4216
C:\Users\CYMR90~1\AppData\Local\Temp\cc5BNH7j.s:30934  .debug_str:0000000000025e92 .LASF4217
C:\Users\CYMR90~1\AppData\Local\Temp\cc5BNH7j.s:27294  .debug_str:00000000000176f1 .LASF4218
C:\Users\CYMR90~1\AppData\Local\Temp\cc5BNH7j.s:23887  .debug_str:00000000000099b4 .LASF4219
C:\Users\CYMR90~1\AppData\Local\Temp\cc5BNH7j.s:28500  .debug_str:000000000001c4ce .LASF4220
C:\Users\CYMR90~1\AppData\Local\Temp\cc5BNH7j.s:27792  .debug_str:00000000000196e7 .LASF4221
C:\Users\CYMR90~1\AppData\Local\Temp\cc5BNH7j.s:31698  .debug_str:000000000002905a .LASF4222
C:\Users\CYMR90~1\AppData\Local\Temp\cc5BNH7j.s:21891  .debug_str:00000000000019ff .LASF4223
C:\Users\CYMR90~1\AppData\Local\Temp\cc5BNH7j.s:24227  .debug_str:000000000000afe5 .LASF4224
C:\Users\CYMR90~1\AppData\Local\Temp\cc5BNH7j.s:25365  .debug_str:000000000000f971 .LASF4225
C:\Users\CYMR90~1\AppData\Local\Temp\cc5BNH7j.s:23231  .debug_str:0000000000006e34 .LASF4226
C:\Users\CYMR90~1\AppData\Local\Temp\cc5BNH7j.s:27234  .debug_str:0000000000017341 .LASF4227
C:\Users\CYMR90~1\AppData\Local\Temp\cc5BNH7j.s:31156  .debug_str:0000000000026c57 .LASF4228
C:\Users\CYMR90~1\AppData\Local\Temp\cc5BNH7j.s:29664  .debug_str:0000000000020d84 .LASF4229
C:\Users\CYMR90~1\AppData\Local\Temp\cc5BNH7j.s:27724  .debug_str:0000000000019280 .LASF4230
C:\Users\CYMR90~1\AppData\Local\Temp\cc5BNH7j.s:23059  .debug_str:0000000000006385 .LASF4231
C:\Users\CYMR90~1\AppData\Local\Temp\cc5BNH7j.s:24291  .debug_str:000000000000b419 .LASF4232
C:\Users\CYMR90~1\AppData\Local\Temp\cc5BNH7j.s:27716  .debug_str:000000000001920a .LASF4233
C:\Users\CYMR90~1\AppData\Local\Temp\cc5BNH7j.s:25901  .debug_str:0000000000011c99 .LASF4234
C:\Users\CYMR90~1\AppData\Local\Temp\cc5BNH7j.s:22977  .debug_str:0000000000005e54 .LASF4235
C:\Users\CYMR90~1\AppData\Local\Temp\cc5BNH7j.s:27172  .debug_str:0000000000016fba .LASF4236
C:\Users\CYMR90~1\AppData\Local\Temp\cc5BNH7j.s:31086  .debug_str:00000000000267ec .LASF4237
C:\Users\CYMR90~1\AppData\Local\Temp\cc5BNH7j.s:23751  .debug_str:00000000000090ef .LASF4238
C:\Users\CYMR90~1\AppData\Local\Temp\cc5BNH7j.s:21855  .debug_str:00000000000017d2 .LASF4239
C:\Users\CYMR90~1\AppData\Local\Temp\cc5BNH7j.s:27830  .debug_str:00000000000199b9 .LASF4240
C:\Users\CYMR90~1\AppData\Local\Temp\cc5BNH7j.s:28854  .debug_str:000000000001dc8d .LASF4241
C:\Users\CYMR90~1\AppData\Local\Temp\cc5BNH7j.s:28150  .debug_str:000000000001af70 .LASF4242
C:\Users\CYMR90~1\AppData\Local\Temp\cc5BNH7j.s:32040  .debug_str:000000000002a4d5 .LASF4243
C:\Users\CYMR90~1\AppData\Local\Temp\cc5BNH7j.s:24789  .debug_str:000000000000d5e5 .LASF4244
C:\Users\CYMR90~1\AppData\Local\Temp\cc5BNH7j.s:21861  .debug_str:0000000000001838 .LASF4245
C:\Users\CYMR90~1\AppData\Local\Temp\cc5BNH7j.s:31024  .debug_str:0000000000026416 .LASF4246
C:\Users\CYMR90~1\AppData\Local\Temp\cc5BNH7j.s:25435  .debug_str:000000000000fe1e .LASF4247
C:\Users\CYMR90~1\AppData\Local\Temp\cc5BNH7j.s:27898  .debug_str:0000000000019db8 .LASF4248
C:\Users\CYMR90~1\AppData\Local\Temp\cc5BNH7j.s:30056  .debug_str:0000000000022571 .LASF4249
C:\Users\CYMR90~1\AppData\Local\Temp\cc5BNH7j.s:32402  .debug_str:000000000002bb8b .LASF4250
C:\Users\CYMR90~1\AppData\Local\Temp\cc5BNH7j.s:28092  .debug_str:000000000001ab6e .LASF4251
C:\Users\CYMR90~1\AppData\Local\Temp\cc5BNH7j.s:31976  .debug_str:000000000002a0a7 .LASF4252
C:\Users\CYMR90~1\AppData\Local\Temp\cc5BNH7j.s:28928  .debug_str:000000000001e124 .LASF4253
C:\Users\CYMR90~1\AppData\Local\Temp\cc5BNH7j.s:25381  .debug_str:000000000000fa67 .LASF4254
C:\Users\CYMR90~1\AppData\Local\Temp\cc5BNH7j.s:25719  .debug_str:0000000000011013 .LASF4255
C:\Users\CYMR90~1\AppData\Local\Temp\cc5BNH7j.s:23619  .debug_str:00000000000088f2 .LASF4256
C:\Users\CYMR90~1\AppData\Local\Temp\cc5BNH7j.s:23697  .debug_str:0000000000008deb .LASF4257
C:\Users\CYMR90~1\AppData\Local\Temp\cc5BNH7j.s:28652  .debug_str:000000000001d054 .LASF4258
C:\Users\CYMR90~1\AppData\Local\Temp\cc5BNH7j.s:25699  .debug_str:0000000000010ee0 .LASF4259
C:\Users\CYMR90~1\AppData\Local\Temp\cc5BNH7j.s:28020  .debug_str:000000000001a681 .LASF4260
C:\Users\CYMR90~1\AppData\Local\Temp\cc5BNH7j.s:26409  .debug_str:0000000000013d93 .LASF4261
C:\Users\CYMR90~1\AppData\Local\Temp\cc5BNH7j.s:28972  .debug_str:000000000001e3d6 .LASF4262
C:\Users\CYMR90~1\AppData\Local\Temp\cc5BNH7j.s:29728  .debug_str:000000000002111f .LASF4263
C:\Users\CYMR90~1\AppData\Local\Temp\cc5BNH7j.s:25847  .debug_str:00000000000118f0 .LASF4264
C:\Users\CYMR90~1\AppData\Local\Temp\cc5BNH7j.s:24143  .debug_str:000000000000a9ab .LASF4265
C:\Users\CYMR90~1\AppData\Local\Temp\cc5BNH7j.s:22287  .debug_str:0000000000003221 .LASF4266
C:\Users\CYMR90~1\AppData\Local\Temp\cc5BNH7j.s:26209  .debug_str:000000000001310b .LASF4267
C:\Users\CYMR90~1\AppData\Local\Temp\cc5BNH7j.s:29762  .debug_str:00000000000213cb .LASF4268
C:\Users\CYMR90~1\AppData\Local\Temp\cc5BNH7j.s:22743  .debug_str:000000000000503f .LASF4269
C:\Users\CYMR90~1\AppData\Local\Temp\cc5BNH7j.s:26659  .debug_str:0000000000014d38 .LASF4270
C:\Users\CYMR90~1\AppData\Local\Temp\cc5BNH7j.s:30574  .debug_str:00000000000245a5 .LASF4271
C:\Users\CYMR90~1\AppData\Local\Temp\cc5BNH7j.s:23223  .debug_str:0000000000006dd1 .LASF4272
C:\Users\CYMR90~1\AppData\Local\Temp\cc5BNH7j.s:22519  .debug_str:000000000000419c .LASF4273
C:\Users\CYMR90~1\AppData\Local\Temp\cc5BNH7j.s:31148  .debug_str:0000000000026bbc .LASF4274
C:\Users\CYMR90~1\AppData\Local\Temp\cc5BNH7j.s:29372  .debug_str:000000000001fb96 .LASF4275
C:\Users\CYMR90~1\AppData\Local\Temp\cc5BNH7j.s:26153  .debug_str:0000000000012d7c .LASF4276
C:\Users\CYMR90~1\AppData\Local\Temp\cc5BNH7j.s:30048  .debug_str:00000000000224dc .LASF4277
C:\Users\CYMR90~1\AppData\Local\Temp\cc5BNH7j.s:25993  .debug_str:00000000000122e9 .LASF4278
C:\Users\CYMR90~1\AppData\Local\Temp\cc5BNH7j.s:26703  .debug_str:0000000000015034 .LASF4279
C:\Users\CYMR90~1\AppData\Local\Temp\cc5BNH7j.s:32562  .debug_str:000000000002c676 .LASF4280
C:\Users\CYMR90~1\AppData\Local\Temp\cc5BNH7j.s:31304  .debug_str:00000000000275b1 .LASF4281
C:\Users\CYMR90~1\AppData\Local\Temp\cc5BNH7j.s:27065  .debug_str:00000000000166c1 .LASF4282
C:\Users\CYMR90~1\AppData\Local\Temp\cc5BNH7j.s:25581  .debug_str:000000000001076e .LASF4283
C:\Users\CYMR90~1\AppData\Local\Temp\cc5BNH7j.s:23743  .debug_str:0000000000009080 .LASF4284
C:\Users\CYMR90~1\AppData\Local\Temp\cc5BNH7j.s:32088  .debug_str:000000000002a798 .LASF4285
C:\Users\CYMR90~1\AppData\Local\Temp\cc5BNH7j.s:25527  .debug_str:000000000001039d .LASF4286
C:\Users\CYMR90~1\AppData\Local\Temp\cc5BNH7j.s:26953  .debug_str:0000000000015fca .LASF4287
C:\Users\CYMR90~1\AppData\Local\Temp\cc5BNH7j.s:30152  .debug_str:0000000000022b4d .LASF4288
C:\Users\CYMR90~1\AppData\Local\Temp\cc5BNH7j.s:25283  .debug_str:000000000000f418 .LASF4289
C:\Users\CYMR90~1\AppData\Local\Temp\cc5BNH7j.s:23093  .debug_str:000000000000654e .LASF4290
C:\Users\CYMR90~1\AppData\Local\Temp\cc5BNH7j.s:26999  .debug_str:0000000000016283 .LASF4291
C:\Users\CYMR90~1\AppData\Local\Temp\cc5BNH7j.s:31016  .debug_str:0000000000026382 .LASF4292
C:\Users\CYMR90~1\AppData\Local\Temp\cc5BNH7j.s:23687  .debug_str:0000000000008d60 .LASF4293
C:\Users\CYMR90~1\AppData\Local\Temp\cc5BNH7j.s:27578  .debug_str:0000000000018806 .LASF4294
C:\Users\CYMR90~1\AppData\Local\Temp\cc5BNH7j.s:24687  .debug_str:000000000000ceca .LASF4295
C:\Users\CYMR90~1\AppData\Local\Temp\cc5BNH7j.s:22551  .debug_str:00000000000043a6 .LASF4296
C:\Users\CYMR90~1\AppData\Local\Temp\cc5BNH7j.s:26471  .debug_str:00000000000141ae .LASF4297
C:\Users\CYMR90~1\AppData\Local\Temp\cc5BNH7j.s:24643  .debug_str:000000000000cbf3 .LASF4298
C:\Users\CYMR90~1\AppData\Local\Temp\cc5BNH7j.s:23031  .debug_str:00000000000061c4 .LASF4299
C:\Users\CYMR90~1\AppData\Local\Temp\cc5BNH7j.s:22175  .debug_str:0000000000002b05 .LASF4300
C:\Users\CYMR90~1\AppData\Local\Temp\cc5BNH7j.s:32568  .debug_str:000000000002c6e6 .LASF4301
C:\Users\CYMR90~1\AppData\Local\Temp\cc5BNH7j.s:23633  .debug_str:00000000000089c7 .LASF4302
C:\Users\CYMR90~1\AppData\Local\Temp\cc5BNH7j.s:27508  .debug_str:00000000000183e5 .LASF4303
C:\Users\CYMR90~1\AppData\Local\Temp\cc5BNH7j.s:21929  .debug_str:0000000000001c43 .LASF4304
C:\Users\CYMR90~1\AppData\Local\Temp\cc5BNH7j.s:28506  .debug_str:000000000001c525 .LASF4305
C:\Users\CYMR90~1\AppData\Local\Temp\cc5BNH7j.s:26403  .debug_str:0000000000013d46 .LASF4306
C:\Users\CYMR90~1\AppData\Local\Temp\cc5BNH7j.s:30324  .debug_str:0000000000023579 .LASF4307
C:\Users\CYMR90~1\AppData\Local\Temp\cc5BNH7j.s:26803  .debug_str:00000000000155e7 .LASF4308
C:\Users\CYMR90~1\AppData\Local\Temp\cc5BNH7j.s:31478  .debug_str:0000000000028234 .LASF4309
C:\Users\CYMR90~1\AppData\Local\Temp\cc5BNH7j.s:24805  .debug_str:000000000000d6d6 .LASF4310
C:\Users\CYMR90~1\AppData\Local\Temp\cc5BNH7j.s:23539  .debug_str:00000000000083ba .LASF4311
C:\Users\CYMR90~1\AppData\Local\Temp\cc5BNH7j.s:29418  .debug_str:000000000001fe77 .LASF4312
C:\Users\CYMR90~1\AppData\Local\Temp\cc5BNH7j.s:31362  .debug_str:00000000000279b7 .LASF4313
C:\Users\CYMR90~1\AppData\Local\Temp\cc5BNH7j.s:24023  .debug_str:000000000000a217 .LASF4314
C:\Users\CYMR90~1\AppData\Local\Temp\cc5BNH7j.s:32384  .debug_str:000000000002ba45 .LASF4315
C:\Users\CYMR90~1\AppData\Local\Temp\cc5BNH7j.s:23329  .debug_str:00000000000074d6 .LASF4316
C:\Users\CYMR90~1\AppData\Local\Temp\cc5BNH7j.s:22895  .debug_str:0000000000005930 .LASF4317
C:\Users\CYMR90~1\AppData\Local\Temp\cc5BNH7j.s:25973  .debug_str:00000000000121f7 .LASF4318
C:\Users\CYMR90~1\AppData\Local\Temp\cc5BNH7j.s:26851  .debug_str:00000000000158b2 .LASF4319
C:\Users\CYMR90~1\AppData\Local\Temp\cc5BNH7j.s:23479  .debug_str:0000000000007fc0 .LASF4320
C:\Users\CYMR90~1\AppData\Local\Temp\cc5BNH7j.s:27035  .debug_str:00000000000164f8 .LASF4321
C:\Users\CYMR90~1\AppData\Local\Temp\cc5BNH7j.s:24011  .debug_str:000000000000a152 .LASF4322
C:\Users\CYMR90~1\AppData\Local\Temp\cc5BNH7j.s:22157  .debug_str:00000000000029df .LASF4323
C:\Users\CYMR90~1\AppData\Local\Temp\cc5BNH7j.s:29392  .debug_str:000000000001fd0f .LASF4324
C:\Users\CYMR90~1\AppData\Local\Temp\cc5BNH7j.s:24211  .debug_str:000000000000aed0 .LASF4325
C:\Users\CYMR90~1\AppData\Local\Temp\cc5BNH7j.s:22827  .debug_str:0000000000005531 .LASF4326
C:\Users\CYMR90~1\AppData\Local\Temp\cc5BNH7j.s:23431  .debug_str:0000000000007b77 .LASF4327
C:\Users\CYMR90~1\AppData\Local\Temp\cc5BNH7j.s:31784  .debug_str:00000000000295dc .LASF4328
C:\Users\CYMR90~1\AppData\Local\Temp\cc5BNH7j.s:23403  .debug_str:00000000000079e4 .LASF4329
C:\Users\CYMR90~1\AppData\Local\Temp\cc5BNH7j.s:25185  .debug_str:000000000000edfd .LASF4330
C:\Users\CYMR90~1\AppData\Local\Temp\cc5BNH7j.s:23759  .debug_str:0000000000009175 .LASF4331
C:\Users\CYMR90~1\AppData\Local\Temp\cc5BNH7j.s:30398  .debug_str:00000000000239dc .LASF4332
C:\Users\CYMR90~1\AppData\Local\Temp\cc5BNH7j.s:22603  .debug_str:0000000000004714 .LASF4333
C:\Users\CYMR90~1\AppData\Local\Temp\cc5BNH7j.s:23183  .debug_str:0000000000006b0d .LASF4334
C:\Users\CYMR90~1\AppData\Local\Temp\cc5BNH7j.s:32256  .debug_str:000000000002b208 .LASF4335
C:\Users\CYMR90~1\AppData\Local\Temp\cc5BNH7j.s:22771  .debug_str:00000000000051f1 .LASF4336
C:\Users\CYMR90~1\AppData\Local\Temp\cc5BNH7j.s:24031  .debug_str:000000000000a2c7 .LASF4337
C:\Users\CYMR90~1\AppData\Local\Temp\cc5BNH7j.s:23339  .debug_str:000000000000758c .LASF4338
C:\Users\CYMR90~1\AppData\Local\Temp\cc5BNH7j.s:28658  .debug_str:000000000001d0b9 .LASF4339
C:\Users\CYMR90~1\AppData\Local\Temp\cc5BNH7j.s:30982  .debug_str:0000000000026180 .LASF4340
C:\Users\CYMR90~1\AppData\Local\Temp\cc5BNH7j.s:28012  .debug_str:000000000001a5f1 .LASF4341
C:\Users\CYMR90~1\AppData\Local\Temp\cc5BNH7j.s:24377  .debug_str:000000000000b9b8 .LASF4342
C:\Users\CYMR90~1\AppData\Local\Temp\cc5BNH7j.s:31730  .debug_str:000000000002921d .LASF4343
C:\Users\CYMR90~1\AppData\Local\Temp\cc5BNH7j.s:24151  .debug_str:000000000000aa49 .LASF4344
C:\Users\CYMR90~1\AppData\Local\Temp\cc5BNH7j.s:21495  .debug_str:000000000000016d .LASF4345
C:\Users\CYMR90~1\AppData\Local\Temp\cc5BNH7j.s:30618  .debug_str:00000000000248be .LASF4346
C:\Users\CYMR90~1\AppData\Local\Temp\cc5BNH7j.s:29820  .debug_str:000000000002173e .LASF4347
C:\Users\CYMR90~1\AppData\Local\Temp\cc5BNH7j.s:27190  .debug_str:00000000000170ae .LASF4348
C:\Users\CYMR90~1\AppData\Local\Temp\cc5BNH7j.s:31100  .debug_str:00000000000268e2 .LASF4349
C:\Users\CYMR90~1\AppData\Local\Temp\cc5BNH7j.s:27318  .debug_str:0000000000017897 .LASF4350
C:\Users\CYMR90~1\AppData\Local\Temp\cc5BNH7j.s:28094  .debug_str:000000000001ab94 .LASF4351
C:\Users\CYMR90~1\AppData\Local\Temp\cc5BNH7j.s:31062  .debug_str:0000000000026683 .LASF4352
C:\Users\CYMR90~1\AppData\Local\Temp\cc5BNH7j.s:24327  .debug_str:000000000000b68f .LASF4353
C:\Users\CYMR90~1\AppData\Local\Temp\cc5BNH7j.s:28226  .debug_str:000000000001b45b .LASF4354
C:\Users\CYMR90~1\AppData\Local\Temp\cc5BNH7j.s:30260  .debug_str:0000000000023161 .LASF4355
C:\Users\CYMR90~1\AppData\Local\Temp\cc5BNH7j.s:23201  .debug_str:0000000000006c59 .LASF4356
C:\Users\CYMR90~1\AppData\Local\Temp\cc5BNH7j.s:27113  .debug_str:0000000000016a8e .LASF4357
C:\Users\CYMR90~1\AppData\Local\Temp\cc5BNH7j.s:31038  .debug_str:00000000000264e3 .LASF4358
C:\Users\CYMR90~1\AppData\Local\Temp\cc5BNH7j.s:22541  .debug_str:00000000000042fe .LASF4359
C:\Users\CYMR90~1\AppData\Local\Temp\cc5BNH7j.s:27624  .debug_str:0000000000018ba7 .LASF4360
C:\Users\CYMR90~1\AppData\Local\Temp\cc5BNH7j.s:26271  .debug_str:000000000001358d .LASF4361
C:\Users\CYMR90~1\AppData\Local\Temp\cc5BNH7j.s:28360  .debug_str:000000000001bc50 .LASF4362
C:\Users\CYMR90~1\AppData\Local\Temp\cc5BNH7j.s:28180  .debug_str:000000000001b18e .LASF4363
C:\Users\CYMR90~1\AppData\Local\Temp\cc5BNH7j.s:26631  .debug_str:0000000000014b3b .LASF4364
C:\Users\CYMR90~1\AppData\Local\Temp\cc5BNH7j.s:22543  .debug_str:0000000000004324 .LASF4365
C:\Users\CYMR90~1\AppData\Local\Temp\cc5BNH7j.s:29546  .debug_str:000000000002068f .LASF4366
C:\Users\CYMR90~1\AppData\Local\Temp\cc5BNH7j.s:25811  .debug_str:0000000000011626 .LASF4367
C:\Users\CYMR90~1\AppData\Local\Temp\cc5BNH7j.s:29704  .debug_str:0000000000020fb8 .LASF4368
C:\Users\CYMR90~1\AppData\Local\Temp\cc5BNH7j.s:22363  .debug_str:000000000000373e .LASF4369
C:\Users\CYMR90~1\AppData\Local\Temp\cc5BNH7j.s:26289  .debug_str:00000000000136b2 .LASF4370
C:\Users\CYMR90~1\AppData\Local\Temp\cc5BNH7j.s:29610  .debug_str:0000000000020a7f .LASF4371
C:\Users\CYMR90~1\AppData\Local\Temp\cc5BNH7j.s:28478  .debug_str:000000000001c393 .LASF4372
C:\Users\CYMR90~1\AppData\Local\Temp\cc5BNH7j.s:27644  .debug_str:0000000000018cfc .LASF4373
C:\Users\CYMR90~1\AppData\Local\Temp\cc5BNH7j.s:22239  .debug_str:0000000000002edf .LASF4374
C:\Users\CYMR90~1\AppData\Local\Temp\cc5BNH7j.s:22539  .debug_str:00000000000042d8 .LASF4375
C:\Users\CYMR90~1\AppData\Local\Temp\cc5BNH7j.s:25759  .debug_str:00000000000112a7 .LASF4376
C:\Users\CYMR90~1\AppData\Local\Temp\cc5BNH7j.s:29634  .debug_str:0000000000020bf4 .LASF4377
C:\Users\CYMR90~1\AppData\Local\Temp\cc5BNH7j.s:27606  .debug_str:00000000000189c1 .LASF4378
C:\Users\CYMR90~1\AppData\Local\Temp\cc5BNH7j.s:26321  .debug_str:000000000001388e .LASF4379
C:\Users\CYMR90~1\AppData\Local\Temp\cc5BNH7j.s:30146  .debug_str:0000000000022aeb .LASF4380
C:\Users\CYMR90~1\AppData\Local\Temp\cc5BNH7j.s:32670  .debug_str:000000000002cd5f .LASF4381
C:\Users\CYMR90~1\AppData\Local\Temp\cc5BNH7j.s:24127  .debug_str:000000000000a89f .LASF4382
C:\Users\CYMR90~1\AppData\Local\Temp\cc5BNH7j.s:24787  .debug_str:000000000000d5d8 .LASF4383
C:\Users\CYMR90~1\AppData\Local\Temp\cc5BNH7j.s:30280  .debug_str:000000000002327c .LASF4384
C:\Users\CYMR90~1\AppData\Local\Temp\cc5BNH7j.s:28830  .debug_str:000000000001db1c .LASF4385
C:\Users\CYMR90~1\AppData\Local\Temp\cc5BNH7j.s:21549  .debug_str:000000000000049b .LASF4386
C:\Users\CYMR90~1\AppData\Local\Temp\cc5BNH7j.s:22593  .debug_str:0000000000004674 .LASF4387
C:\Users\CYMR90~1\AppData\Local\Temp\cc5BNH7j.s:24965  .debug_str:000000000000e09a .LASF4388
C:\Users\CYMR90~1\AppData\Local\Temp\cc5BNH7j.s:23155  .debug_str:0000000000006967 .LASF4389
C:\Users\CYMR90~1\AppData\Local\Temp\cc5BNH7j.s:26341  .debug_str:00000000000139a1 .LASF4390
C:\Users\CYMR90~1\AppData\Local\Temp\cc5BNH7j.s:25971  .debug_str:00000000000121d0 .LASF4391
C:\Users\CYMR90~1\AppData\Local\Temp\cc5BNH7j.s:22233  .debug_str:0000000000002e73 .LASF4392
C:\Users\CYMR90~1\AppData\Local\Temp\cc5BNH7j.s:22793  .debug_str:0000000000005329 .LASF4393
C:\Users\CYMR90~1\AppData\Local\Temp\cc5BNH7j.s:22317  .debug_str:0000000000003420 .LASF4394
C:\Users\CYMR90~1\AppData\Local\Temp\cc5BNH7j.s:21511  .debug_str:0000000000000253 .LASF4395
C:\Users\CYMR90~1\AppData\Local\Temp\cc5BNH7j.s:23753  .debug_str:0000000000009115 .LASF4396
C:\Users\CYMR90~1\AppData\Local\Temp\cc5BNH7j.s:27087  .debug_str:000000000001688c .LASF4397
C:\Users\CYMR90~1\AppData\Local\Temp\cc5BNH7j.s:22223  .debug_str:0000000000002de8 .LASF4398
C:\Users\CYMR90~1\AppData\Local\Temp\cc5BNH7j.s:31122  .debug_str:0000000000026a1e .LASF4399
C:\Users\CYMR90~1\AppData\Local\Temp\cc5BNH7j.s:26957  .debug_str:000000000001600b .LASF4400
C:\Users\CYMR90~1\AppData\Local\Temp\cc5BNH7j.s:27618  .debug_str:0000000000018b1a .LASF4401
C:\Users\CYMR90~1\AppData\Local\Temp\cc5BNH7j.s:30292  .debug_str:000000000002334c .LASF4402
C:\Users\CYMR90~1\AppData\Local\Temp\cc5BNH7j.s:30074  .debug_str:000000000002267d .LASF4403
C:\Users\CYMR90~1\AppData\Local\Temp\cc5BNH7j.s:26171  .debug_str:0000000000012e90 .LASF4404
C:\Users\CYMR90~1\AppData\Local\Temp\cc5BNH7j.s:31778  .debug_str:0000000000029565 .LASF4405
C:\Users\CYMR90~1\AppData\Local\Temp\cc5BNH7j.s:32004  .debug_str:000000000002a288 .LASF4406
C:\Users\CYMR90~1\AppData\Local\Temp\cc5BNH7j.s:28726  .debug_str:000000000001d4a9 .LASF4407
C:\Users\CYMR90~1\AppData\Local\Temp\cc5BNH7j.s:30888  .debug_str:0000000000025b87 .LASF4408
C:\Users\CYMR90~1\AppData\Local\Temp\cc5BNH7j.s:25707  .debug_str:0000000000010f57 .LASF4409
C:\Users\CYMR90~1\AppData\Local\Temp\cc5BNH7j.s:28880  .debug_str:000000000001de47 .LASF4410
C:\Users\CYMR90~1\AppData\Local\Temp\cc5BNH7j.s:23921  .debug_str:0000000000009bc3 .LASF4411
C:\Users\CYMR90~1\AppData\Local\Temp\cc5BNH7j.s:28146  .debug_str:000000000001af39 .LASF4412
C:\Users\CYMR90~1\AppData\Local\Temp\cc5BNH7j.s:28724  .debug_str:000000000001d484 .LASF4413
C:\Users\CYMR90~1\AppData\Local\Temp\cc5BNH7j.s:24303  .debug_str:000000000000b4da .LASF4414
C:\Users\CYMR90~1\AppData\Local\Temp\cc5BNH7j.s:27298  .debug_str:000000000001772f .LASF4415
C:\Users\CYMR90~1\AppData\Local\Temp\cc5BNH7j.s:28426  .debug_str:000000000001c09e .LASF4416
C:\Users\CYMR90~1\AppData\Local\Temp\cc5BNH7j.s:26103  .debug_str:0000000000012a46 .LASF4417
C:\Users\CYMR90~1\AppData\Local\Temp\cc5BNH7j.s:29590  .debug_str:000000000002092f .LASF4418
C:\Users\CYMR90~1\AppData\Local\Temp\cc5BNH7j.s:24237  .debug_str:000000000000b069 .LASF4419
C:\Users\CYMR90~1\AppData\Local\Temp\cc5BNH7j.s:22993  .debug_str:0000000000005f47 .LASF4420
C:\Users\CYMR90~1\AppData\Local\Temp\cc5BNH7j.s:26801  .debug_str:00000000000155c2 .LASF4421
C:\Users\CYMR90~1\AppData\Local\Temp\cc5BNH7j.s:26151  .debug_str:0000000000012d57 .LASF4422
C:\Users\CYMR90~1\AppData\Local\Temp\cc5BNH7j.s:32382  .debug_str:000000000002ba2e .LASF4423
C:\Users\CYMR90~1\AppData\Local\Temp\cc5BNH7j.s:27742  .debug_str:00000000000193b1 .LASF4424
C:\Users\CYMR90~1\AppData\Local\Temp\cc5BNH7j.s:27296  .debug_str:0000000000017717 .LASF4425
C:\Users\CYMR90~1\AppData\Local\Temp\cc5BNH7j.s:28750  .debug_str:000000000001d65b .LASF4426
C:\Users\CYMR90~1\AppData\Local\Temp\cc5BNH7j.s:30406  .debug_str:0000000000023a4c .LASF4427
C:\Users\CYMR90~1\AppData\Local\Temp\cc5BNH7j.s:22825  .debug_str:0000000000005518 .LASF4428
C:\Users\CYMR90~1\AppData\Local\Temp\cc5BNH7j.s:21791  .debug_str:0000000000001394 .LASF4429
C:\Users\CYMR90~1\AppData\Local\Temp\cc5BNH7j.s:29062  .debug_str:000000000001e957 .LASF4430
C:\Users\CYMR90~1\AppData\Local\Temp\cc5BNH7j.s:29778  .debug_str:00000000000214b4 .LASF4431
C:\Users\CYMR90~1\AppData\Local\Temp\cc5BNH7j.s:31950  .debug_str:0000000000029f55 .LASF4432
C:\Users\CYMR90~1\AppData\Local\Temp\cc5BNH7j.s:25827  .debug_str:000000000001171e .LASF4433
C:\Users\CYMR90~1\AppData\Local\Temp\cc5BNH7j.s:31608  .debug_str:0000000000028ab3 .LASF4434
C:\Users\CYMR90~1\AppData\Local\Temp\cc5BNH7j.s:26595  .debug_str:000000000001491d .LASF4435
C:\Users\CYMR90~1\AppData\Local\Temp\cc5BNH7j.s:24199  .debug_str:000000000000ae1d .LASF4436
C:\Users\CYMR90~1\AppData\Local\Temp\cc5BNH7j.s:29554  .debug_str:00000000000206ff .LASF4437
C:\Users\CYMR90~1\AppData\Local\Temp\cc5BNH7j.s:29398  .debug_str:000000000001fd6a .LASF4438
C:\Users\CYMR90~1\AppData\Local\Temp\cc5BNH7j.s:27212  .debug_str:0000000000017203 .LASF4439
C:\Users\CYMR90~1\AppData\Local\Temp\cc5BNH7j.s:30370  .debug_str:0000000000023858 .LASF4440
C:\Users\CYMR90~1\AppData\Local\Temp\cc5BNH7j.s:31192  .debug_str:0000000000026e85 .LASF4441
C:\Users\CYMR90~1\AppData\Local\Temp\cc5BNH7j.s:26629  .debug_str:0000000000014b27 .LASF4442
C:\Users\CYMR90~1\AppData\Local\Temp\cc5BNH7j.s:28966  .debug_str:000000000001e369 .LASF4443
C:\Users\CYMR90~1\AppData\Local\Temp\cc5BNH7j.s:24613  .debug_str:000000000000ca53 .LASF4444
C:\Users\CYMR90~1\AppData\Local\Temp\cc5BNH7j.s:26411  .debug_str:0000000000013db9 .LASF4445
C:\Users\CYMR90~1\AppData\Local\Temp\cc5BNH7j.s:28798  .debug_str:000000000001d948 .LASF4446
C:\Users\CYMR90~1\AppData\Local\Temp\cc5BNH7j.s:26181  .debug_str:0000000000012f2e .LASF4447
C:\Users\CYMR90~1\AppData\Local\Temp\cc5BNH7j.s:29624  .debug_str:0000000000020b74 .LASF4448
C:\Users\CYMR90~1\AppData\Local\Temp\cc5BNH7j.s:25157  .debug_str:000000000000ec97 .LASF4449
C:\Users\CYMR90~1\AppData\Local\Temp\cc5BNH7j.s:28748  .debug_str:000000000001d646 .LASF4450
C:\Users\CYMR90~1\AppData\Local\Temp\cc5BNH7j.s:22601  .debug_str:0000000000004700 .LASF4451
C:\Users\CYMR90~1\AppData\Local\Temp\cc5BNH7j.s:29808  .debug_str:000000000002169c .LASF4452
C:\Users\CYMR90~1\AppData\Local\Temp\cc5BNH7j.s:28466  .debug_str:000000000001c303 .LASF4453
C:\Users\CYMR90~1\AppData\Local\Temp\cc5BNH7j.s:23561  .debug_str:0000000000008528 .LASF4454
C:\Users\CYMR90~1\AppData\Local\Temp\cc5BNH7j.s:32082  .debug_str:000000000002a75d .LASF4455
C:\Users\CYMR90~1\AppData\Local\Temp\cc5BNH7j.s:23415  .debug_str:0000000000007a9a .LASF4456
C:\Users\CYMR90~1\AppData\Local\Temp\cc5BNH7j.s:21561  .debug_str:0000000000000557 .LASF4457
C:\Users\CYMR90~1\AppData\Local\Temp\cc5BNH7j.s:30610  .debug_str:0000000000024855 .LASF4458
C:\Users\CYMR90~1\AppData\Local\Temp\cc5BNH7j.s:27526  .debug_str:00000000000184e2 .LASF4459
C:\Users\CYMR90~1\AppData\Local\Temp\cc5BNH7j.s:27162  .debug_str:0000000000016f32 .LASF4460
C:\Users\CYMR90~1\AppData\Local\Temp\cc5BNH7j.s:30216  .debug_str:0000000000022edf .LASF4461
C:\Users\CYMR90~1\AppData\Local\Temp\cc5BNH7j.s:31898  .debug_str:0000000000029c69 .LASF4462
C:\Users\CYMR90~1\AppData\Local\Temp\cc5BNH7j.s:24465  .debug_str:000000000000c002 .LASF4463
C:\Users\CYMR90~1\AppData\Local\Temp\cc5BNH7j.s:23015  .debug_str:00000000000060ec .LASF4464
C:\Users\CYMR90~1\AppData\Local\Temp\cc5BNH7j.s:22651  .debug_str:0000000000004a9a .LASF4465
C:\Users\CYMR90~1\AppData\Local\Temp\cc5BNH7j.s:30960  .debug_str:000000000002603e .LASF4466
C:\Users\CYMR90~1\AppData\Local\Temp\cc5BNH7j.s:24857  .debug_str:000000000000d9c1 .LASF4467
C:\Users\CYMR90~1\AppData\Local\Temp\cc5BNH7j.s:26263  .debug_str:0000000000013505 .LASF4468
C:\Users\CYMR90~1\AppData\Local\Temp\cc5BNH7j.s:23625  .debug_str:0000000000008953 .LASF4469
C:\Users\CYMR90~1\AppData\Local\Temp\cc5BNH7j.s:26809  .debug_str:0000000000015638 .LASF4470
C:\Users\CYMR90~1\AppData\Local\Temp\cc5BNH7j.s:30748  .debug_str:000000000002522d .LASF4471
C:\Users\CYMR90~1\AppData\Local\Temp\cc5BNH7j.s:22085  .debug_str:00000000000024fa .LASF4472
C:\Users\CYMR90~1\AppData\Local\Temp\cc5BNH7j.s:25203  .debug_str:000000000000ef1f .LASF4473
C:\Users\CYMR90~1\AppData\Local\Temp\cc5BNH7j.s:21699  .debug_str:0000000000000dd9 .LASF4474
C:\Users\CYMR90~1\AppData\Local\Temp\cc5BNH7j.s:25661  .debug_str:0000000000010cfd .LASF4475
C:\Users\CYMR90~1\AppData\Local\Temp\cc5BNH7j.s:24347  .debug_str:000000000000b7b2 .LASF4476
C:\Users\CYMR90~1\AppData\Local\Temp\cc5BNH7j.s:29322  .debug_str:000000000001f8a0 .LASF4477
C:\Users\CYMR90~1\AppData\Local\Temp\cc5BNH7j.s:28296  .debug_str:000000000001b874 .LASF4478
C:\Users\CYMR90~1\AppData\Local\Temp\cc5BNH7j.s:26069  .debug_str:00000000000127e5 .LASF4479
C:\Users\CYMR90~1\AppData\Local\Temp\cc5BNH7j.s:25553  .debug_str:0000000000010544 .LASF4480
C:\Users\CYMR90~1\AppData\Local\Temp\cc5BNH7j.s:28698  .debug_str:000000000001d2dd .LASF4481
C:\Users\CYMR90~1\AppData\Local\Temp\cc5BNH7j.s:24587  .debug_str:000000000000c828 .LASF4482
C:\Users\CYMR90~1\AppData\Local\Temp\cc5BNH7j.s:32066  .debug_str:000000000002a678 .LASF4483
C:\Users\CYMR90~1\AppData\Local\Temp\cc5BNH7j.s:27980  .debug_str:000000000001a442 .LASF4484
C:\Users\CYMR90~1\AppData\Local\Temp\cc5BNH7j.s:30184  .debug_str:0000000000022d12 .LASF4485
C:\Users\CYMR90~1\AppData\Local\Temp\cc5BNH7j.s:31738  .debug_str:00000000000292a4 .LASF4486
C:\Users\CYMR90~1\AppData\Local\Temp\cc5BNH7j.s:27051  .debug_str:00000000000165e9 .LASF4487
C:\Users\CYMR90~1\AppData\Local\Temp\cc5BNH7j.s:27712  .debug_str:00000000000191d7 .LASF4488
C:\Users\CYMR90~1\AppData\Local\Temp\cc5BNH7j.s:22823  .debug_str:00000000000054ff .LASF4489
C:\Users\CYMR90~1\AppData\Local\Temp\cc5BNH7j.s:26487  .debug_str:00000000000142ac .LASF4490
C:\Users\CYMR90~1\AppData\Local\Temp\cc5BNH7j.s:25443  .debug_str:000000000000fe9d .LASF4491
C:\Users\CYMR90~1\AppData\Local\Temp\cc5BNH7j.s:28600  .debug_str:000000000001cbf4 .LASF4492
C:\Users\CYMR90~1\AppData\Local\Temp\cc5BNH7j.s:29900  .debug_str:0000000000021c47 .LASF4493
C:\Users\CYMR90~1\AppData\Local\Temp\cc5BNH7j.s:24817  .debug_str:000000000000d794 .LASF4494
C:\Users\CYMR90~1\AppData\Local\Temp\cc5BNH7j.s:32228  .debug_str:000000000002b01f .LASF4495
C:\Users\CYMR90~1\AppData\Local\Temp\cc5BNH7j.s:24365  .debug_str:000000000000b90b .LASF4496
C:\Users\CYMR90~1\AppData\Local\Temp\cc5BNH7j.s:29506  .debug_str:000000000002042f .LASF4497
C:\Users\CYMR90~1\AppData\Local\Temp\cc5BNH7j.s:26915  .debug_str:0000000000015cef .LASF4498
C:\Users\CYMR90~1\AppData\Local\Temp\cc5BNH7j.s:30358  .debug_str:000000000002378b .LASF4499
C:\Users\CYMR90~1\AppData\Local\Temp\cc5BNH7j.s:32198  .debug_str:000000000002ae16 .LASF4500
C:\Users\CYMR90~1\AppData\Local\Temp\cc5BNH7j.s:29700  .debug_str:0000000000020f75 .LASF4501
C:\Users\CYMR90~1\AppData\Local\Temp\cc5BNH7j.s:30046  .debug_str:00000000000224c4 .LASF4502
C:\Users\CYMR90~1\AppData\Local\Temp\cc5BNH7j.s:27039  .debug_str:000000000001653c .LASF4503
C:\Users\CYMR90~1\AppData\Local\Temp\cc5BNH7j.s:23237  .debug_str:0000000000006ec2 .LASF4504
C:\Users\CYMR90~1\AppData\Local\Temp\cc5BNH7j.s:30786  .debug_str:00000000000254cd .LASF4505
C:\Users\CYMR90~1\AppData\Local\Temp\cc5BNH7j.s:28032  .debug_str:000000000001a7bd .LASF4506
C:\Users\CYMR90~1\AppData\Local\Temp\cc5BNH7j.s:21695  .debug_str:0000000000000d9b .LASF4507
C:\Users\CYMR90~1\AppData\Local\Temp\cc5BNH7j.s:30020  .debug_str:0000000000022328 .LASF4508
C:\Users\CYMR90~1\AppData\Local\Temp\cc5BNH7j.s:31722  .debug_str:00000000000291b0 .LASF4509
C:\Users\CYMR90~1\AppData\Local\Temp\cc5BNH7j.s:22165  .debug_str:0000000000002a50 .LASF4510
C:\Users\CYMR90~1\AppData\Local\Temp\cc5BNH7j.s:25135  .debug_str:000000000000eb79 .LASF4511
C:\Users\CYMR90~1\AppData\Local\Temp\cc5BNH7j.s:28958  .debug_str:000000000001e2f9 .LASF4512
C:\Users\CYMR90~1\AppData\Local\Temp\cc5BNH7j.s:22381  .debug_str:0000000000003859 .LASF4513
C:\Users\CYMR90~1\AppData\Local\Temp\cc5BNH7j.s:26385  .debug_str:0000000000013c78 .LASF4514
C:\Users\CYMR90~1\AppData\Local\Temp\cc5BNH7j.s:30700  .debug_str:0000000000024e28 .LASF4515
C:\Users\CYMR90~1\AppData\Local\Temp\cc5BNH7j.s:31688  .debug_str:0000000000028fd3 .LASF4516
C:\Users\CYMR90~1\AppData\Local\Temp\cc5BNH7j.s:26391  .debug_str:0000000000013cbc .LASF4517
C:\Users\CYMR90~1\AppData\Local\Temp\cc5BNH7j.s:22945  .debug_str:0000000000005c79 .LASF4518
C:\Users\CYMR90~1\AppData\Local\Temp\cc5BNH7j.s:22531  .debug_str:0000000000004244 .LASF4519
C:\Users\CYMR90~1\AppData\Local\Temp\cc5BNH7j.s:29816  .debug_str:000000000002170c .LASF4520
C:\Users\CYMR90~1\AppData\Local\Temp\cc5BNH7j.s:29338  .debug_str:000000000001f99e .LASF4521
C:\Users\CYMR90~1\AppData\Local\Temp\cc5BNH7j.s:22625  .debug_str:0000000000004905 .LASF4522
C:\Users\CYMR90~1\AppData\Local\Temp\cc5BNH7j.s:29602  .debug_str:00000000000209ff .LASF4523
C:\Users\CYMR90~1\AppData\Local\Temp\cc5BNH7j.s:31014  .debug_str:000000000002636b .LASF4524
C:\Users\CYMR90~1\AppData\Local\Temp\cc5BNH7j.s:32186  .debug_str:000000000002ad6c .LASF4525
C:\Users\CYMR90~1\AppData\Local\Temp\cc5BNH7j.s:30932  .debug_str:0000000000025e79 .LASF4526
C:\Users\CYMR90~1\AppData\Local\Temp\cc5BNH7j.s:21843  .debug_str:0000000000001683 .LASF4527
C:\Users\CYMR90~1\AppData\Local\Temp\cc5BNH7j.s:28930  .debug_str:000000000001e14a .LASF4528
C:\Users\CYMR90~1\AppData\Local\Temp\cc5BNH7j.s:31234  .debug_str:00000000000271ca .LASF4529
C:\Users\CYMR90~1\AppData\Local\Temp\cc5BNH7j.s:24049  .debug_str:000000000000a40d .LASF4530
C:\Users\CYMR90~1\AppData\Local\Temp\cc5BNH7j.s:32528  .debug_str:000000000002c441 .LASF4531
C:\Users\CYMR90~1\AppData\Local\Temp\cc5BNH7j.s:31886  .debug_str:0000000000029bc6 .LASF4532
C:\Users\CYMR90~1\AppData\Local\Temp\cc5BNH7j.s:23421  .debug_str:0000000000007af4 .LASF4533
C:\Users\CYMR90~1\AppData\Local\Temp\cc5BNH7j.s:22515  .debug_str:0000000000004169 .LASF4534
C:\Users\CYMR90~1\AppData\Local\Temp\cc5BNH7j.s:31096  .debug_str:000000000002689a .LASF4535
C:\Users\CYMR90~1\AppData\Local\Temp\cc5BNH7j.s:28482  .debug_str:000000000001c3dc .LASF4536
C:\Users\CYMR90~1\AppData\Local\Temp\cc5BNH7j.s:31070  .debug_str:0000000000026701 .LASF4537
C:\Users\CYMR90~1\AppData\Local\Temp\cc5BNH7j.s:26423  .debug_str:0000000000013e75 .LASF4538
C:\Users\CYMR90~1\AppData\Local\Temp\cc5BNH7j.s:25335  .debug_str:000000000000f7dd .LASF4539
C:\Users\CYMR90~1\AppData\Local\Temp\cc5BNH7j.s:29032  .debug_str:000000000001e7a7 .LASF4540
C:\Users\CYMR90~1\AppData\Local\Temp\cc5BNH7j.s:22879  .debug_str:000000000000586b .LASF4541
C:\Users\CYMR90~1\AppData\Local\Temp\cc5BNH7j.s:30236  .debug_str:0000000000022fe2 .LASF4542
C:\Users\CYMR90~1\AppData\Local\Temp\cc5BNH7j.s:22691  .debug_str:0000000000004d3d .LASF4543
C:\Users\CYMR90~1\AppData\Local\Temp\cc5BNH7j.s:22047  .debug_str:00000000000022e2 .LASF4544
C:\Users\CYMR90~1\AppData\Local\Temp\cc5BNH7j.s:22251  .debug_str:0000000000002f95 .LASF4545
C:\Users\CYMR90~1\AppData\Local\Temp\cc5BNH7j.s:30896  .debug_str:0000000000025c1c .LASF4546
C:\Users\CYMR90~1\AppData\Local\Temp\cc5BNH7j.s:26817  .debug_str:00000000000156a4 .LASF4547
C:\Users\CYMR90~1\AppData\Local\Temp\cc5BNH7j.s:32678  .debug_str:000000000002ce17 .LASF4548
C:\Users\CYMR90~1\AppData\Local\Temp\cc5BNH7j.s:23729  .debug_str:0000000000008fa2 .LASF4549
C:\Users\CYMR90~1\AppData\Local\Temp\cc5BNH7j.s:31484  .debug_str:00000000000282a0 .LASF4550
C:\Users\CYMR90~1\AppData\Local\Temp\cc5BNH7j.s:32676  .debug_str:000000000002cdde .LASF4551
C:\Users\CYMR90~1\AppData\Local\Temp\cc5BNH7j.s:28864  .debug_str:000000000001dd37 .LASF4552
C:\Users\CYMR90~1\AppData\Local\Temp\cc5BNH7j.s:23191  .debug_str:0000000000006ba2 .LASF4553
C:\Users\CYMR90~1\AppData\Local\Temp\cc5BNH7j.s:22665  .debug_str:0000000000004b96 .LASF4554
C:\Users\CYMR90~1\AppData\Local\Temp\cc5BNH7j.s:25761  .debug_str:00000000000112cd .LASF4555
C:\Users\CYMR90~1\AppData\Local\Temp\cc5BNH7j.s:32326  .debug_str:000000000002b6bd .LASF4556
C:\Users\CYMR90~1\AppData\Local\Temp\cc5BNH7j.s:26207  .debug_str:00000000000130ec .LASF4557
C:\Users\CYMR90~1\AppData\Local\Temp\cc5BNH7j.s:31952  .debug_str:0000000000029f6e .LASF4558
C:\Users\CYMR90~1\AppData\Local\Temp\cc5BNH7j.s:31044  .debug_str:000000000002654b .LASF4559
C:\Users\CYMR90~1\AppData\Local\Temp\cc5BNH7j.s:25409  .debug_str:000000000000fc40 .LASF4560
C:\Users\CYMR90~1\AppData\Local\Temp\cc5BNH7j.s:31782  .debug_str:00000000000295a1 .LASF4561
C:\Users\CYMR90~1\AppData\Local\Temp\cc5BNH7j.s:28388  .debug_str:000000000001be33 .LASF4562
C:\Users\CYMR90~1\AppData\Local\Temp\cc5BNH7j.s:27860  .debug_str:0000000000019b9e .LASF4563
C:\Users\CYMR90~1\AppData\Local\Temp\cc5BNH7j.s:23477  .debug_str:0000000000007fa7 .LASF4564
C:\Users\CYMR90~1\AppData\Local\Temp\cc5BNH7j.s:28566  .debug_str:000000000001c9d5 .LASF4565
C:\Users\CYMR90~1\AppData\Local\Temp\cc5BNH7j.s:28164  .debug_str:000000000001b055 .LASF4566
C:\Users\CYMR90~1\AppData\Local\Temp\cc5BNH7j.s:30084  .debug_str:00000000000226f8 .LASF4567
C:\Users\CYMR90~1\AppData\Local\Temp\cc5BNH7j.s:31000  .debug_str:0000000000026289 .LASF4568
C:\Users\CYMR90~1\AppData\Local\Temp\cc5BNH7j.s:21957  .debug_str:0000000000001de9 .LASF4569
C:\Users\CYMR90~1\AppData\Local\Temp\cc5BNH7j.s:26989  .debug_str:00000000000161d5 .LASF4570
C:\Users\CYMR90~1\AppData\Local\Temp\cc5BNH7j.s:22263  .debug_str:0000000000003090 .LASF4571
C:\Users\CYMR90~1\AppData\Local\Temp\cc5BNH7j.s:21945  .debug_str:0000000000001d31 .LASF4572
C:\Users\CYMR90~1\AppData\Local\Temp\cc5BNH7j.s:29042  .debug_str:000000000001e835 .LASF4573
C:\Users\CYMR90~1\AppData\Local\Temp\cc5BNH7j.s:21751  .debug_str:000000000000115a .LASF4574
C:\Users\CYMR90~1\AppData\Local\Temp\cc5BNH7j.s:30728  .debug_str:0000000000025043 .LASF4575
C:\Users\CYMR90~1\AppData\Local\Temp\cc5BNH7j.s:23583  .debug_str:000000000000865a .LASF4576
C:\Users\CYMR90~1\AppData\Local\Temp\cc5BNH7j.s:28670  .debug_str:000000000001d174 .LASF4577
C:\Users\CYMR90~1\AppData\Local\Temp\cc5BNH7j.s:28688  .debug_str:000000000001d246 .LASF4578
C:\Users\CYMR90~1\AppData\Local\Temp\cc5BNH7j.s:29644  .debug_str:0000000000020c82 .LASF4579
C:\Users\CYMR90~1\AppData\Local\Temp\cc5BNH7j.s:28106  .debug_str:000000000001ac4d .LASF4580
C:\Users\CYMR90~1\AppData\Local\Temp\cc5BNH7j.s:22915  .debug_str:0000000000005aaf .LASF4581
C:\Users\CYMR90~1\AppData\Local\Temp\cc5BNH7j.s:31446  .debug_str:0000000000027fae .LASF4582
C:\Users\CYMR90~1\AppData\Local\Temp\cc5BNH7j.s:30364  .debug_str:0000000000023807 .LASF4583
C:\Users\CYMR90~1\AppData\Local\Temp\cc5BNH7j.s:26711  .debug_str:00000000000150a0 .LASF4584
C:\Users\CYMR90~1\AppData\Local\Temp\cc5BNH7j.s:28800  .debug_str:000000000001d95d .LASF4585
C:\Users\CYMR90~1\AppData\Local\Temp\cc5BNH7j.s:22229  .debug_str:0000000000002e37 .LASF4586
C:\Users\CYMR90~1\AppData\Local\Temp\cc5BNH7j.s:21499  .debug_str:00000000000001c1 .LASF4587
C:\Users\CYMR90~1\AppData\Local\Temp\cc5BNH7j.s:27812  .debug_str:0000000000019879 .LASF4588
C:\Users\CYMR90~1\AppData\Local\Temp\cc5BNH7j.s:25609  .debug_str:000000000001091b .LASF4589
C:\Users\CYMR90~1\AppData\Local\Temp\cc5BNH7j.s:22529  .debug_str:000000000000422c .LASF4590
C:\Users\CYMR90~1\AppData\Local\Temp\cc5BNH7j.s:24531  .debug_str:000000000000c3fe .LASF4591
C:\Users\CYMR90~1\AppData\Local\Temp\cc5BNH7j.s:31056  .debug_str:0000000000026630 .LASF4592
C:\Users\CYMR90~1\AppData\Local\Temp\cc5BNH7j.s:21523  .debug_str:000000000000033e .LASF4593
C:\Users\CYMR90~1\AppData\Local\Temp\cc5BNH7j.s:21569  .debug_str:00000000000005a5 .LASF4594
C:\Users\CYMR90~1\AppData\Local\Temp\cc5BNH7j.s:31704  .debug_str:00000000000290c1 .LASF4595
C:\Users\CYMR90~1\AppData\Local\Temp\cc5BNH7j.s:22561  .debug_str:0000000000004457 .LASF4596
C:\Users\CYMR90~1\AppData\Local\Temp\cc5BNH7j.s:24191  .debug_str:000000000000aced .LASF4597
C:\Users\CYMR90~1\AppData\Local\Temp\cc5BNH7j.s:21541  .debug_str:000000000000043a .LASF4598
C:\Users\CYMR90~1\AppData\Local\Temp\cc5BNH7j.s:29020  .debug_str:000000000001e6e5 .LASF4599
C:\Users\CYMR90~1\AppData\Local\Temp\cc5BNH7j.s:27174  .debug_str:0000000000016fe0 .LASF4600
C:\Users\CYMR90~1\AppData\Local\Temp\cc5BNH7j.s:22097  .debug_str:00000000000025d6 .LASF4601
C:\Users\CYMR90~1\AppData\Local\Temp\cc5BNH7j.s:31162  .debug_str:0000000000026cb9 .LASF4602
C:\Users\CYMR90~1\AppData\Local\Temp\cc5BNH7j.s:32484  .debug_str:000000000002c16b .LASF4603
C:\Users\CYMR90~1\AppData\Local\Temp\cc5BNH7j.s:29472  .debug_str:0000000000020156 .LASF4604
C:\Users\CYMR90~1\AppData\Local\Temp\cc5BNH7j.s:24527  .debug_str:000000000000c3b4 .LASF4605
C:\Users\CYMR90~1\AppData\Local\Temp\cc5BNH7j.s:30092  .debug_str:0000000000022767 .LASF4606
C:\Users\CYMR90~1\AppData\Local\Temp\cc5BNH7j.s:24427  .debug_str:000000000000bd8f .LASF4607
C:\Users\CYMR90~1\AppData\Local\Temp\cc5BNH7j.s:30082  .debug_str:00000000000226da .LASF4608
C:\Users\CYMR90~1\AppData\Local\Temp\cc5BNH7j.s:31598  .debug_str:0000000000028a1c .LASF4609
C:\Users\CYMR90~1\AppData\Local\Temp\cc5BNH7j.s:22959  .debug_str:0000000000005d55 .LASF4610
C:\Users\CYMR90~1\AppData\Local\Temp\cc5BNH7j.s:25723  .debug_str:0000000000011054 .LASF4611
C:\Users\CYMR90~1\AppData\Local\Temp\cc5BNH7j.s:24901  .debug_str:000000000000dc6b .LASF4612
C:\Users\CYMR90~1\AppData\Local\Temp\cc5BNH7j.s:22615  .debug_str:000000000000486b .LASF4613
C:\Users\CYMR90~1\AppData\Local\Temp\cc5BNH7j.s:23871  .debug_str:00000000000098a5 .LASF4614
C:\Users\CYMR90~1\AppData\Local\Temp\cc5BNH7j.s:26381  .debug_str:0000000000013c18 .LASF4615
C:\Users\CYMR90~1\AppData\Local\Temp\cc5BNH7j.s:22437  .debug_str:0000000000003bd8 .LASF4616
C:\Users\CYMR90~1\AppData\Local\Temp\cc5BNH7j.s:23185  .debug_str:0000000000006b33 .LASF4617
C:\Users\CYMR90~1\AppData\Local\Temp\cc5BNH7j.s:21475  .debug_str:000000000000002e .LASF4618
C:\Users\CYMR90~1\AppData\Local\Temp\cc5BNH7j.s:25709  .debug_str:0000000000010f7b .LASF4619
C:\Users\CYMR90~1\AppData\Local\Temp\cc5BNH7j.s:28064  .debug_str:000000000001a994 .LASF4620
C:\Users\CYMR90~1\AppData\Local\Temp\cc5BNH7j.s:27115  .debug_str:0000000000016ab4 .LASF4621
C:\Users\CYMR90~1\AppData\Local\Temp\cc5BNH7j.s:30970  .debug_str:00000000000260a5 .LASF4622
C:\Users\CYMR90~1\AppData\Local\Temp\cc5BNH7j.s:30592  .debug_str:0000000000024755 .LASF4623
C:\Users\CYMR90~1\AppData\Local\Temp\cc5BNH7j.s:25001  .debug_str:000000000000e2c4 .LASF4624
C:\Users\CYMR90~1\AppData\Local\Temp\cc5BNH7j.s:29142  .debug_str:000000000001edaf .LASF4625
C:\Users\CYMR90~1\AppData\Local\Temp\cc5BNH7j.s:26643  .debug_str:0000000000014c0f .LASF4626
C:\Users\CYMR90~1\AppData\Local\Temp\cc5BNH7j.s:31772  .debug_str:00000000000294e6 .LASF4627
C:\Users\CYMR90~1\AppData\Local\Temp\cc5BNH7j.s:27668  .debug_str:0000000000018e35 .LASF4628
C:\Users\CYMR90~1\AppData\Local\Temp\cc5BNH7j.s:26235  .debug_str:00000000000132a0 .LASF4629
C:\Users\CYMR90~1\AppData\Local\Temp\cc5BNH7j.s:22091  .debug_str:0000000000002540 .LASF4630
C:\Users\CYMR90~1\AppData\Local\Temp\cc5BNH7j.s:29124  .debug_str:000000000001ec8c .LASF4631
C:\Users\CYMR90~1\AppData\Local\Temp\cc5BNH7j.s:24043  .debug_str:000000000000a380 .LASF4632
C:\Users\CYMR90~1\AppData\Local\Temp\cc5BNH7j.s:21597  .debug_str:0000000000000787 .LASF4633
C:\Users\CYMR90~1\AppData\Local\Temp\cc5BNH7j.s:28080  .debug_str:000000000001aabe .LASF4634
C:\Users\CYMR90~1\AppData\Local\Temp\cc5BNH7j.s:31368  .debug_str:0000000000027a25 .LASF4635
C:\Users\CYMR90~1\AppData\Local\Temp\cc5BNH7j.s:26785  .debug_str:00000000000154c4 .LASF4636
C:\Users\CYMR90~1\AppData\Local\Temp\cc5BNH7j.s:27732  .debug_str:00000000000192e4 .LASF4637
C:\Users\CYMR90~1\AppData\Local\Temp\cc5BNH7j.s:24419  .debug_str:000000000000bd07 .LASF4638
C:\Users\CYMR90~1\AppData\Local\Temp\cc5BNH7j.s:27790  .debug_str:00000000000196ae .LASF4639
C:\Users\CYMR90~1\AppData\Local\Temp\cc5BNH7j.s:29702  .debug_str:0000000000020f8d .LASF4640
C:\Users\CYMR90~1\AppData\Local\Temp\cc5BNH7j.s:27814  .debug_str:00000000000198b4 .LASF4641
C:\Users\CYMR90~1\AppData\Local\Temp\cc5BNH7j.s:22511  .debug_str:0000000000004120 .LASF4642
C:\Users\CYMR90~1\AppData\Local\Temp\cc5BNH7j.s:24091  .debug_str:000000000000a64b .LASF4643
C:\Users\CYMR90~1\AppData\Local\Temp\cc5BNH7j.s:24775  .debug_str:000000000000d512 .LASF4644
C:\Users\CYMR90~1\AppData\Local\Temp\cc5BNH7j.s:29542  .debug_str:000000000002063c .LASF4645
C:\Users\CYMR90~1\AppData\Local\Temp\cc5BNH7j.s:29136  .debug_str:000000000001ed46 .LASF4646
C:\Users\CYMR90~1\AppData\Local\Temp\cc5BNH7j.s:24899  .debug_str:000000000000dc2f .LASF4647
C:\Users\CYMR90~1\AppData\Local\Temp\cc5BNH7j.s:28182  .debug_str:000000000001b1b4 .LASF4648
C:\Users\CYMR90~1\AppData\Local\Temp\cc5BNH7j.s:32000  .debug_str:000000000002a235 .LASF4649
C:\Users\CYMR90~1\AppData\Local\Temp\cc5BNH7j.s:25629  .debug_str:0000000000010a8b .LASF4650
C:\Users\CYMR90~1\AppData\Local\Temp\cc5BNH7j.s:26347  .debug_str:00000000000139ee .LASF4651
C:\Users\CYMR90~1\AppData\Local\Temp\cc5BNH7j.s:29986  .debug_str:000000000002216a .LASF4652
C:\Users\CYMR90~1\AppData\Local\Temp\cc5BNH7j.s:32106  .debug_str:000000000002a8b1 .LASF4653
C:\Users\CYMR90~1\AppData\Local\Temp\cc5BNH7j.s:25411  .debug_str:000000000000fc6c .LASF4654
C:\Users\CYMR90~1\AppData\Local\Temp\cc5BNH7j.s:30050  .debug_str:0000000000022502 .LASF4655
C:\Users\CYMR90~1\AppData\Local\Temp\cc5BNH7j.s:32344  .debug_str:000000000002b7b5 .LASF4656
C:\Users\CYMR90~1\AppData\Local\Temp\cc5BNH7j.s:30546  .debug_str:00000000000243d9 .LASF4657
C:\Users\CYMR90~1\AppData\Local\Temp\cc5BNH7j.s:27055  .debug_str:0000000000016626 .LASF4658
C:\Users\CYMR90~1\AppData\Local\Temp\cc5BNH7j.s:28532  .debug_str:000000000001c790 .LASF4659
C:\Users\CYMR90~1\AppData\Local\Temp\cc5BNH7j.s:27840  .debug_str:0000000000019a54 .LASF4660
C:\Users\CYMR90~1\AppData\Local\Temp\cc5BNH7j.s:25549  .debug_str:00000000000104ea .LASF4661
C:\Users\CYMR90~1\AppData\Local\Temp\cc5BNH7j.s:25981  .debug_str:0000000000012262 .LASF4662
C:\Users\CYMR90~1\AppData\Local\Temp\cc5BNH7j.s:22319  .debug_str:0000000000003442 .LASF4663
C:\Users\CYMR90~1\AppData\Local\Temp\cc5BNH7j.s:23177  .debug_str:0000000000006ac7 .LASF4664
C:\Users\CYMR90~1\AppData\Local\Temp\cc5BNH7j.s:26037  .debug_str:00000000000125d4 .LASF4665
C:\Users\CYMR90~1\AppData\Local\Temp\cc5BNH7j.s:32148  .debug_str:000000000002ab17 .LASF4666
C:\Users\CYMR90~1\AppData\Local\Temp\cc5BNH7j.s:25019  .debug_str:000000000000e3e9 .LASF4667
C:\Users\CYMR90~1\AppData\Local\Temp\cc5BNH7j.s:27944  .debug_str:000000000001a075 .LASF4668
C:\Users\CYMR90~1\AppData\Local\Temp\cc5BNH7j.s:21683  .debug_str:0000000000000cfb .LASF4669
C:\Users\CYMR90~1\AppData\Local\Temp\cc5BNH7j.s:31372  .debug_str:0000000000027a72 .LASF4670
C:\Users\CYMR90~1\AppData\Local\Temp\cc5BNH7j.s:32590  .debug_str:000000000002c854 .LASF4671
C:\Users\CYMR90~1\AppData\Local\Temp\cc5BNH7j.s:24803  .debug_str:000000000000d6b7 .LASF4672
C:\Users\CYMR90~1\AppData\Local\Temp\cc5BNH7j.s:27460  .debug_str:0000000000018111 .LASF4673
C:\Users\CYMR90~1\AppData\Local\Temp\cc5BNH7j.s:21831  .debug_str:00000000000015e1 .LASF4674
C:\Users\CYMR90~1\AppData\Local\Temp\cc5BNH7j.s:30422  .debug_str:0000000000023b3f .LASF4675
C:\Users\CYMR90~1\AppData\Local\Temp\cc5BNH7j.s:26927  .debug_str:0000000000015dd8 .LASF4676
C:\Users\CYMR90~1\AppData\Local\Temp\cc5BNH7j.s:32072  .debug_str:000000000002a6d0 .LASF4677
C:\Users\CYMR90~1\AppData\Local\Temp\cc5BNH7j.s:31030  .debug_str:0000000000026472 .LASF4678
C:\Users\CYMR90~1\AppData\Local\Temp\cc5BNH7j.s:32074  .debug_str:000000000002a6ee .LASF4679
C:\Users\CYMR90~1\AppData\Local\Temp\cc5BNH7j.s:28470  .debug_str:000000000001c331 .LASF4680
C:\Users\CYMR90~1\AppData\Local\Temp\cc5BNH7j.s:21779  .debug_str:00000000000012c1 .LASF4681
C:\Users\CYMR90~1\AppData\Local\Temp\cc5BNH7j.s:30804  .debug_str:00000000000255f1 .LASF4682
C:\Users\CYMR90~1\AppData\Local\Temp\cc5BNH7j.s:28370  .debug_str:000000000001bd0f .LASF4683
C:\Users\CYMR90~1\AppData\Local\Temp\cc5BNH7j.s:22953  .debug_str:0000000000005ced .LASF4684
C:\Users\CYMR90~1\AppData\Local\Temp\cc5BNH7j.s:25025  .debug_str:000000000000e437 .LASF4685
C:\Users\CYMR90~1\AppData\Local\Temp\cc5BNH7j.s:29482  .debug_str:000000000002022d .LASF4686
C:\Users\CYMR90~1\AppData\Local\Temp\cc5BNH7j.s:26167  .debug_str:0000000000012e4f .LASF4687
C:\Users\CYMR90~1\AppData\Local\Temp\cc5BNH7j.s:31174  .debug_str:0000000000026d8b .LASF4688
C:\Users\CYMR90~1\AppData\Local\Temp\cc5BNH7j.s:26697  .debug_str:0000000000014fcb .LASF4689
C:\Users\CYMR90~1\AppData\Local\Temp\cc5BNH7j.s:26455  .debug_str:0000000000014063 .LASF4690
C:\Users\CYMR90~1\AppData\Local\Temp\cc5BNH7j.s:24517  .debug_str:000000000000c315 .LASF4691
C:\Users\CYMR90~1\AppData\Local\Temp\cc5BNH7j.s:29350  .debug_str:000000000001fa64 .LASF4692
C:\Users\CYMR90~1\AppData\Local\Temp\cc5BNH7j.s:25125  .debug_str:000000000000ead3 .LASF4693
C:\Users\CYMR90~1\AppData\Local\Temp\cc5BNH7j.s:22863  .debug_str:0000000000005768 .LASF4694
C:\Users\CYMR90~1\AppData\Local\Temp\cc5BNH7j.s:31908  .debug_str:0000000000029cd4 .LASF4695
C:\Users\CYMR90~1\AppData\Local\Temp\cc5BNH7j.s:29656  .debug_str:0000000000020d24 .LASF4696
C:\Users\CYMR90~1\AppData\Local\Temp\cc5BNH7j.s:32422  .debug_str:000000000002bd52 .LASF4697
C:\Users\CYMR90~1\AppData\Local\Temp\cc5BNH7j.s:25327  .debug_str:000000000000f768 .LASF4698
C:\Users\CYMR90~1\AppData\Local\Temp\cc5BNH7j.s:23763  .debug_str:00000000000091b2 .LASF4699
C:\Users\CYMR90~1\AppData\Local\Temp\cc5BNH7j.s:32104  .debug_str:000000000002a88f .LASF4700
C:\Users\CYMR90~1\AppData\Local\Temp\cc5BNH7j.s:29750  .debug_str:0000000000021312 .LASF4701
C:\Users\CYMR90~1\AppData\Local\Temp\cc5BNH7j.s:31570  .debug_str:000000000002888e .LASF4702
C:\Users\CYMR90~1\AppData\Local\Temp\cc5BNH7j.s:23167  .debug_str:0000000000006a29 .LASF4703
C:\Users\CYMR90~1\AppData\Local\Temp\cc5BNH7j.s:29902  .debug_str:0000000000021c60 .LASF4704
C:\Users\CYMR90~1\AppData\Local\Temp\cc5BNH7j.s:31734  .debug_str:000000000002925a .LASF4705
C:\Users\CYMR90~1\AppData\Local\Temp\cc5BNH7j.s:31470  .debug_str:00000000000281c0 .LASF4706
C:\Users\CYMR90~1\AppData\Local\Temp\cc5BNH7j.s:30768  .debug_str:000000000002535d .LASF4707
C:\Users\CYMR90~1\AppData\Local\Temp\cc5BNH7j.s:26757  .debug_str:0000000000015342 .LASF4708
C:\Users\CYMR90~1\AppData\Local\Temp\cc5BNH7j.s:23931  .debug_str:0000000000009c63 .LASF4709
C:\Users\CYMR90~1\AppData\Local\Temp\cc5BNH7j.s:25329  .debug_str:000000000000f78a .LASF4710
C:\Users\CYMR90~1\AppData\Local\Temp\cc5BNH7j.s:22051  .debug_str:0000000000002315 .LASF4711
C:\Users\CYMR90~1\AppData\Local\Temp\cc5BNH7j.s:24077  .debug_str:000000000000a58a .LASF4712
C:\Users\CYMR90~1\AppData\Local\Temp\cc5BNH7j.s:28988  .debug_str:000000000001e4bf .LASF4713
C:\Users\CYMR90~1\AppData\Local\Temp\cc5BNH7j.s:27240  .debug_str:000000000001739b .LASF4714
C:\Users\CYMR90~1\AppData\Local\Temp\cc5BNH7j.s:24727  .debug_str:000000000000d191 .LASF4715
C:\Users\CYMR90~1\AppData\Local\Temp\cc5BNH7j.s:32472  .debug_str:000000000002c057 .LASF4716
C:\Users\CYMR90~1\AppData\Local\Temp\cc5BNH7j.s:27073  .debug_str:000000000001672e .LASF4717
C:\Users\CYMR90~1\AppData\Local\Temp\cc5BNH7j.s:32136  .debug_str:000000000002aa59 .LASF4718
C:\Users\CYMR90~1\AppData\Local\Temp\cc5BNH7j.s:22255  .debug_str:0000000000003012 .LASF4719
C:\Users\CYMR90~1\AppData\Local\Temp\cc5BNH7j.s:30522  .debug_str:000000000002426e .LASF4720
C:\Users\CYMR90~1\AppData\Local\Temp\cc5BNH7j.s:27083  .debug_str:0000000000016834 .LASF4721
C:\Users\CYMR90~1\AppData\Local\Temp\cc5BNH7j.s:23653  .debug_str:0000000000008b12 .LASF4722
C:\Users\CYMR90~1\AppData\Local\Temp\cc5BNH7j.s:31252  .debug_str:00000000000272e2 .LASF4723
C:\Users\CYMR90~1\AppData\Local\Temp\cc5BNH7j.s:30190  .debug_str:0000000000022d79 .LASF4724
C:\Users\CYMR90~1\AppData\Local\Temp\cc5BNH7j.s:22023  .debug_str:0000000000002170 .LASF4725
C:\Users\CYMR90~1\AppData\Local\Temp\cc5BNH7j.s:23127  .debug_str:00000000000067b5 .LASF4726
C:\Users\CYMR90~1\AppData\Local\Temp\cc5BNH7j.s:31390  .debug_str:0000000000027bc2 .LASF4727
C:\Users\CYMR90~1\AppData\Local\Temp\cc5BNH7j.s:28920  .debug_str:000000000001e0c3 .LASF4728
C:\Users\CYMR90~1\AppData\Local\Temp\cc5BNH7j.s:23483  .debug_str:0000000000007ffe .LASF4729
C:\Users\CYMR90~1\AppData\Local\Temp\cc5BNH7j.s:31308  .debug_str:00000000000275f1 .LASF4730
C:\Users\CYMR90~1\AppData\Local\Temp\cc5BNH7j.s:25189  .debug_str:000000000000ee49 .LASF4731
C:\Users\CYMR90~1\AppData\Local\Temp\cc5BNH7j.s:28606  .debug_str:000000000001cc4e .LASF4732
C:\Users\CYMR90~1\AppData\Local\Temp\cc5BNH7j.s:28740  .debug_str:000000000001d55d .LASF4733
C:\Users\CYMR90~1\AppData\Local\Temp\cc5BNH7j.s:22007  .debug_str:0000000000002095 .LASF4734
C:\Users\CYMR90~1\AppData\Local\Temp\cc5BNH7j.s:25357  .debug_str:000000000000f8f9 .LASF4735
C:\Users\CYMR90~1\AppData\Local\Temp\cc5BNH7j.s:31884  .debug_str:0000000000029ba7 .LASF4736
C:\Users\CYMR90~1\AppData\Local\Temp\cc5BNH7j.s:25167  .debug_str:000000000000ed08 .LASF4737
C:\Users\CYMR90~1\AppData\Local\Temp\cc5BNH7j.s:28524  .debug_str:000000000001c67a .LASF4738
C:\Users\CYMR90~1\AppData\Local\Temp\cc5BNH7j.s:24253  .debug_str:000000000000b15f .LASF4739
C:\Users\CYMR90~1\AppData\Local\Temp\cc5BNH7j.s:27388  .debug_str:0000000000017cc9 .LASF4740
C:\Users\CYMR90~1\AppData\Local\Temp\cc5BNH7j.s:25579  .debug_str:000000000001074c .LASF4741
C:\Users\CYMR90~1\AppData\Local\Temp\cc5BNH7j.s:22095  .debug_str:00000000000025b4 .LASF4742
C:\Users\CYMR90~1\AppData\Local\Temp\cc5BNH7j.s:30174  .debug_str:0000000000022c8c .LASF4743
C:\Users\CYMR90~1\AppData\Local\Temp\cc5BNH7j.s:21819  .debug_str:0000000000001504 .LASF4744
C:\Users\CYMR90~1\AppData\Local\Temp\cc5BNH7j.s:21651  .debug_str:0000000000000b3c .LASF4745
C:\Users\CYMR90~1\AppData\Local\Temp\cc5BNH7j.s:22715  .debug_str:0000000000004e8f .LASF4746
C:\Users\CYMR90~1\AppData\Local\Temp\cc5BNH7j.s:23345  .debug_str:00000000000075dc .LASF4747
C:\Users\CYMR90~1\AppData\Local\Temp\cc5BNH7j.s:30984  .debug_str:00000000000261a6 .LASF4748
C:\Users\CYMR90~1\AppData\Local\Temp\cc5BNH7j.s:22011  .debug_str:00000000000020ca .LASF4749
C:\Users\CYMR90~1\AppData\Local\Temp\cc5BNH7j.s:29718  .debug_str:0000000000021094 .LASF4750
C:\Users\CYMR90~1\AppData\Local\Temp\cc5BNH7j.s:24329  .debug_str:000000000000b6b5 .LASF4751
C:\Users\CYMR90~1\AppData\Local\Temp\cc5BNH7j.s:27156  .debug_str:0000000000016ef5 .LASF4752
C:\Users\CYMR90~1\AppData\Local\Temp\cc5BNH7j.s:23693  .debug_str:0000000000008dbb .LASF4753
C:\Users\CYMR90~1\AppData\Local\Temp\cc5BNH7j.s:29336  .debug_str:000000000001f988 .LASF4754
C:\Users\CYMR90~1\AppData\Local\Temp\cc5BNH7j.s:29962  .debug_str:0000000000021ff9 .LASF4755
C:\Users\CYMR90~1\AppData\Local\Temp\cc5BNH7j.s:27530  .debug_str:000000000001851e .LASF4756
C:\Users\CYMR90~1\AppData\Local\Temp\cc5BNH7j.s:30054  .debug_str:000000000002255b .LASF4757
C:\Users\CYMR90~1\AppData\Local\Temp\cc5BNH7j.s:27005  .debug_str:00000000000162ea .LASF4758
C:\Users\CYMR90~1\AppData\Local\Temp\cc5BNH7j.s:26911  .debug_str:0000000000015cb6 .LASF4759
C:\Users\CYMR90~1\AppData\Local\Temp\cc5BNH7j.s:26505  .debug_str:00000000000143b5 .LASF4760
C:\Users\CYMR90~1\AppData\Local\Temp\cc5BNH7j.s:29056  .debug_str:000000000001e907 .LASF4761
C:\Users\CYMR90~1\AppData\Local\Temp\cc5BNH7j.s:25747  .debug_str:00000000000111f3 .LASF4762
C:\Users\CYMR90~1\AppData\Local\Temp\cc5BNH7j.s:28782  .debug_str:000000000001d85f .LASF4763
C:\Users\CYMR90~1\AppData\Local\Temp\cc5BNH7j.s:32650  .debug_str:000000000002cc67 .LASF4764
C:\Users\CYMR90~1\AppData\Local\Temp\cc5BNH7j.s:25011  .debug_str:000000000000e367 .LASF4765
C:\Users\CYMR90~1\AppData\Local\Temp\cc5BNH7j.s:27490  .debug_str:00000000000182c2 .LASF4766
C:\Users\CYMR90~1\AppData\Local\Temp\cc5BNH7j.s:21871  .debug_str:00000000000018e8 .LASF4767
C:\Users\CYMR90~1\AppData\Local\Temp\cc5BNH7j.s:22497  .debug_str:0000000000003fc1 .LASF4768
C:\Users\CYMR90~1\AppData\Local\Temp\cc5BNH7j.s:22501  .debug_str:0000000000004091 .LASF4769
C:\Users\CYMR90~1\AppData\Local\Temp\cc5BNH7j.s:25659  .debug_str:0000000000010ce9 .LASF4770
C:\Users\CYMR90~1\AppData\Local\Temp\cc5BNH7j.s:30444  .debug_str:0000000000023ca9 .LASF4771
C:\Users\CYMR90~1\AppData\Local\Temp\cc5BNH7j.s:26267  .debug_str:000000000001353b .LASF4772
C:\Users\CYMR90~1\AppData\Local\Temp\cc5BNH7j.s:24073  .debug_str:000000000000a54c .LASF4773
C:\Users\CYMR90~1\AppData\Local\Temp\cc5BNH7j.s:29594  .debug_str:000000000002098e .LASF4774
C:\Users\CYMR90~1\AppData\Local\Temp\cc5BNH7j.s:23425  .debug_str:0000000000007b24 .LASF4775
C:\Users\CYMR90~1\AppData\Local\Temp\cc5BNH7j.s:30862  .debug_str:0000000000025a08 .LASF4776
C:\Users\CYMR90~1\AppData\Local\Temp\cc5BNH7j.s:30504  .debug_str:0000000000024128 .LASF4777
C:\Users\CYMR90~1\AppData\Local\Temp\cc5BNH7j.s:25489  .debug_str:0000000000010174 .LASF4778
C:\Users\CYMR90~1\AppData\Local\Temp\cc5BNH7j.s:26791  .debug_str:000000000001551c .LASF4779
C:\Users\CYMR90~1\AppData\Local\Temp\cc5BNH7j.s:32276  .debug_str:000000000002b369 .LASF4780
C:\Users\CYMR90~1\AppData\Local\Temp\cc5BNH7j.s:30552  .debug_str:0000000000024451 .LASF4781
C:\Users\CYMR90~1\AppData\Local\Temp\cc5BNH7j.s:27778  .debug_str:00000000000195a9 .LASF4782
C:\Users\CYMR90~1\AppData\Local\Temp\cc5BNH7j.s:28806  .debug_str:000000000001d9c4 .LASF4783
C:\Users\CYMR90~1\AppData\Local\Temp\cc5BNH7j.s:26993  .debug_str:0000000000016221 .LASF4784
C:\Users\CYMR90~1\AppData\Local\Temp\cc5BNH7j.s:23703  .debug_str:0000000000008e55 .LASF4785
C:\Users\CYMR90~1\AppData\Local\Temp\cc5BNH7j.s:25627  .debug_str:0000000000010a65 .LASF4786
C:\Users\CYMR90~1\AppData\Local\Temp\cc5BNH7j.s:27580  .debug_str:000000000001882c .LASF4787
C:\Users\CYMR90~1\AppData\Local\Temp\cc5BNH7j.s:27248  .debug_str:00000000000173f7 .LASF4788
C:\Users\CYMR90~1\AppData\Local\Temp\cc5BNH7j.s:27019  .debug_str:0000000000016395 .LASF4789
C:\Users\CYMR90~1\AppData\Local\Temp\cc5BNH7j.s:22451  .debug_str:0000000000003ce7 .LASF4790
C:\Users\CYMR90~1\AppData\Local\Temp\cc5BNH7j.s:31272  .debug_str:00000000000273e4 .LASF4791
C:\Users\CYMR90~1\AppData\Local\Temp\cc5BNH7j.s:24983  .debug_str:000000000000e1b7 .LASF4792
C:\Users\CYMR90~1\AppData\Local\Temp\cc5BNH7j.s:22489  .debug_str:0000000000003f3e .LASF4793
C:\Users\CYMR90~1\AppData\Local\Temp\cc5BNH7j.s:26633  .debug_str:0000000000014b61 .LASF4794
C:\Users\CYMR90~1\AppData\Local\Temp\cc5BNH7j.s:24979  .debug_str:000000000000e178 .LASF4795
C:\Users\CYMR90~1\AppData\Local\Temp\cc5BNH7j.s:22035  .debug_str:000000000000223a .LASF4796
C:\Users\CYMR90~1\AppData\Local\Temp\cc5BNH7j.s:32112  .debug_str:000000000002a915 .LASF4797
C:\Users\CYMR90~1\AppData\Local\Temp\cc5BNH7j.s:23601  .debug_str:0000000000008794 .LASF4798
C:\Users\CYMR90~1\AppData\Local\Temp\cc5BNH7j.s:22215  .debug_str:0000000000002d74 .LASF4799
C:\Users\CYMR90~1\AppData\Local\Temp\cc5BNH7j.s:26165  .debug_str:0000000000012e39 .LASF4800
C:\Users\CYMR90~1\AppData\Local\Temp\cc5BNH7j.s:31842  .debug_str:00000000000298fa .LASF4801
C:\Users\CYMR90~1\AppData\Local\Temp\cc5BNH7j.s:24433  .debug_str:000000000000be00 .LASF4802
C:\Users\CYMR90~1\AppData\Local\Temp\cc5BNH7j.s:27946  .debug_str:000000000001a08c .LASF4803
C:\Users\CYMR90~1\AppData\Local\Temp\cc5BNH7j.s:30808  .debug_str:000000000002563f .LASF4804
C:\Users\CYMR90~1\AppData\Local\Temp\cc5BNH7j.s:26731  .debug_str:00000000000151f8 .LASF4805
C:\Users\CYMR90~1\AppData\Local\Temp\cc5BNH7j.s:32624  .debug_str:000000000002ca41 .LASF4806
C:\Users\CYMR90~1\AppData\Local\Temp\cc5BNH7j.s:31520  .debug_str:000000000002854d .LASF4807
C:\Users\CYMR90~1\AppData\Local\Temp\cc5BNH7j.s:22965  .debug_str:0000000000005d9e .LASF4808
C:\Users\CYMR90~1\AppData\Local\Temp\cc5BNH7j.s:29088  .debug_str:000000000001eaac .LASF4809
C:\Users\CYMR90~1\AppData\Local\Temp\cc5BNH7j.s:25551  .debug_str:0000000000010528 .LASF4810
C:\Users\CYMR90~1\AppData\Local\Temp\cc5BNH7j.s:32514  .debug_str:000000000002c381 .LASF4811
C:\Users\CYMR90~1\AppData\Local\Temp\cc5BNH7j.s:30680  .debug_str:0000000000024cde .LASF4812
C:\Users\CYMR90~1\AppData\Local\Temp\cc5BNH7j.s:30588  .debug_str:0000000000024678 .LASF4813
C:\Users\CYMR90~1\AppData\Local\Temp\cc5BNH7j.s:23219  .debug_str:0000000000006d7f .LASF4814
C:\Users\CYMR90~1\AppData\Local\Temp\cc5BNH7j.s:27043  .debug_str:000000000001656b .LASF4815
C:\Users\CYMR90~1\AppData\Local\Temp\cc5BNH7j.s:31336  .debug_str:00000000000277d3 .LASF4816
C:\Users\CYMR90~1\AppData\Local\Temp\cc5BNH7j.s:28588  .debug_str:000000000001cb12 .LASF4817
C:\Users\CYMR90~1\AppData\Local\Temp\cc5BNH7j.s:31138  .debug_str:0000000000026b05 .LASF4818
C:\Users\CYMR90~1\AppData\Local\Temp\cc5BNH7j.s:27352  .debug_str:0000000000017abc .LASF4819
C:\Users\CYMR90~1\AppData\Local\Temp\cc5BNH7j.s:22203  .debug_str:0000000000002cb7 .LASF4820
C:\Users\CYMR90~1\AppData\Local\Temp\cc5BNH7j.s:23503  .debug_str:0000000000008165 .LASF4821
C:\Users\CYMR90~1\AppData\Local\Temp\cc5BNH7j.s:28572  .debug_str:000000000001ca28 .LASF4822
C:\Users\CYMR90~1\AppData\Local\Temp\cc5BNH7j.s:24117  .debug_str:000000000000a814 .LASF4823
C:\Users\CYMR90~1\AppData\Local\Temp\cc5BNH7j.s:23095  .debug_str:0000000000006574 .LASF4824
C:\Users\CYMR90~1\AppData\Local\Temp\cc5BNH7j.s:27037  .debug_str:000000000001651e .LASF4825
C:\Users\CYMR90~1\AppData\Local\Temp\cc5BNH7j.s:28194  .debug_str:000000000001b278 .LASF4826
C:\Users\CYMR90~1\AppData\Local\Temp\cc5BNH7j.s:22481  .debug_str:0000000000003ee3 .LASF4827
C:\Users\CYMR90~1\AppData\Local\Temp\cc5BNH7j.s:30882  .debug_str:0000000000025b42 .LASF4828
C:\Users\CYMR90~1\AppData\Local\Temp\cc5BNH7j.s:25063  .debug_str:000000000000e6c9 .LASF4829
C:\Users\CYMR90~1\AppData\Local\Temp\cc5BNH7j.s:29798  .debug_str:0000000000021612 .LASF4830
C:\Users\CYMR90~1\AppData\Local\Temp\cc5BNH7j.s:26539  .debug_str:00000000000145a5 .LASF4831
C:\Users\CYMR90~1\AppData\Local\Temp\cc5BNH7j.s:24215  .debug_str:000000000000af1c .LASF4832
C:\Users\CYMR90~1\AppData\Local\Temp\cc5BNH7j.s:29612  .debug_str:0000000000020aa5 .LASF4833
C:\Users\CYMR90~1\AppData\Local\Temp\cc5BNH7j.s:30996  .debug_str:0000000000026239 .LASF4834
C:\Users\CYMR90~1\AppData\Local\Temp\cc5BNH7j.s:29300  .debug_str:000000000001f74e .LASF4835
C:\Users\CYMR90~1\AppData\Local\Temp\cc5BNH7j.s:29904  .debug_str:0000000000021c84 .LASF4836
C:\Users\CYMR90~1\AppData\Local\Temp\cc5BNH7j.s:28166  .debug_str:000000000001b06e .LASF4837
C:\Users\CYMR90~1\AppData\Local\Temp\cc5BNH7j.s:29452  .debug_str:0000000000020040 .LASF4838
C:\Users\CYMR90~1\AppData\Local\Temp\cc5BNH7j.s:30944  .debug_str:0000000000025f22 .LASF4839
C:\Users\CYMR90~1\AppData\Local\Temp\cc5BNH7j.s:30426  .debug_str:0000000000023b7f .LASF4840
C:\Users\CYMR90~1\AppData\Local\Temp\cc5BNH7j.s:23673  .debug_str:0000000000008c0e .LASF4841
C:\Users\CYMR90~1\AppData\Local\Temp\cc5BNH7j.s:32682  .debug_str:000000000002ce44 .LASF4842
C:\Users\CYMR90~1\AppData\Local\Temp\cc5BNH7j.s:23091  .debug_str:000000000000652b .LASF4843
C:\Users\CYMR90~1\AppData\Local\Temp\cc5BNH7j.s:22735  .debug_str:0000000000004fb3 .LASF4844
C:\Users\CYMR90~1\AppData\Local\Temp\cc5BNH7j.s:30148  .debug_str:0000000000022b0d .LASF4845
C:\Users\CYMR90~1\AppData\Local\Temp\cc5BNH7j.s:30100  .debug_str:00000000000227ff .LASF4846
C:\Users\CYMR90~1\AppData\Local\Temp\cc5BNH7j.s:29396  .debug_str:000000000001fd47 .LASF4847
C:\Users\CYMR90~1\AppData\Local\Temp\cc5BNH7j.s:21635  .debug_str:00000000000009e2 .LASF4848
C:\Users\CYMR90~1\AppData\Local\Temp\cc5BNH7j.s:26325  .debug_str:00000000000138ca .LASF4849
C:\Users\CYMR90~1\AppData\Local\Temp\cc5BNH7j.s:27438  .debug_str:0000000000017f89 .LASF4850
C:\Users\CYMR90~1\AppData\Local\Temp\cc5BNH7j.s:25047  .debug_str:000000000000e5dc .LASF4851
C:\Users\CYMR90~1\AppData\Local\Temp\cc5BNH7j.s:28634  .debug_str:000000000001cec4 .LASF4852
C:\Users\CYMR90~1\AppData\Local\Temp\cc5BNH7j.s:26669  .debug_str:0000000000014dfe .LASF4853
C:\Users\CYMR90~1\AppData\Local\Temp\cc5BNH7j.s:22019  .debug_str:0000000000002129 .LASF4854
C:\Users\CYMR90~1\AppData\Local\Temp\cc5BNH7j.s:23457  .debug_str:0000000000007dc9 .LASF4855
C:\Users\CYMR90~1\AppData\Local\Temp\cc5BNH7j.s:24487  .debug_str:000000000000c137 .LASF4856
C:\Users\CYMR90~1\AppData\Local\Temp\cc5BNH7j.s:26813  .debug_str:000000000001566d .LASF4857
C:\Users\CYMR90~1\AppData\Local\Temp\cc5BNH7j.s:28318  .debug_str:000000000001b994 .LASF4858
C:\Users\CYMR90~1\AppData\Local\Temp\cc5BNH7j.s:22569  .debug_str:00000000000044c3 .LASF4859
C:\Users\CYMR90~1\AppData\Local\Temp\cc5BNH7j.s:23577  .debug_str:0000000000008612 .LASF4860
C:\Users\CYMR90~1\AppData\Local\Temp\cc5BNH7j.s:22621  .debug_str:00000000000048cc .LASF4861
C:\Users\CYMR90~1\AppData\Local\Temp\cc5BNH7j.s:28900  .debug_str:000000000001df71 .LASF4862
C:\Users\CYMR90~1\AppData\Local\Temp\cc5BNH7j.s:30524  .debug_str:000000000002428a .LASF4863
C:\Users\CYMR90~1\AppData\Local\Temp\cc5BNH7j.s:32016  .debug_str:000000000002a36d .LASF4864
C:\Users\CYMR90~1\AppData\Local\Temp\cc5BNH7j.s:28554  .debug_str:000000000001c91e .LASF4865
C:\Users\CYMR90~1\AppData\Local\Temp\cc5BNH7j.s:29928  .debug_str:0000000000021de8 .LASF4866
C:\Users\CYMR90~1\AppData\Local\Temp\cc5BNH7j.s:31462  .debug_str:000000000002813c .LASF4867
C:\Users\CYMR90~1\AppData\Local\Temp\cc5BNH7j.s:30314  .debug_str:00000000000234c4 .LASF4868
C:\Users\CYMR90~1\AppData\Local\Temp\cc5BNH7j.s:26689  .debug_str:0000000000014f4e .LASF4869
C:\Users\CYMR90~1\AppData\Local\Temp\cc5BNH7j.s:32220  .debug_str:000000000002af5d .LASF4870
C:\Users\CYMR90~1\AppData\Local\Temp\cc5BNH7j.s:24251  .debug_str:000000000000b136 .LASF4871
C:\Users\CYMR90~1\AppData\Local\Temp\cc5BNH7j.s:31720  .debug_str:0000000000029187 .LASF4872
C:\Users\CYMR90~1\AppData\Local\Temp\cc5BNH7j.s:26765  .debug_str:00000000000153c1 .LASF4873
C:\Users\CYMR90~1\AppData\Local\Temp\cc5BNH7j.s:23605  .debug_str:0000000000008803 .LASF4874
C:\Users\CYMR90~1\AppData\Local\Temp\cc5BNH7j.s:32122  .debug_str:000000000002a9a5 .LASF4875
C:\Users\CYMR90~1\AppData\Local\Temp\cc5BNH7j.s:21607  .debug_str:000000000000081e .LASF4876
C:\Users\CYMR90~1\AppData\Local\Temp\cc5BNH7j.s:21555  .debug_str:00000000000004ef .LASF4877
C:\Users\CYMR90~1\AppData\Local\Temp\cc5BNH7j.s:29102  .debug_str:000000000001eb81 .LASF4878
C:\Users\CYMR90~1\AppData\Local\Temp\cc5BNH7j.s:23997  .debug_str:000000000000a070 .LASF4879
C:\Users\CYMR90~1\AppData\Local\Temp\cc5BNH7j.s:22839  .debug_str:0000000000005609 .LASF4880
C:\Users\CYMR90~1\AppData\Local\Temp\cc5BNH7j.s:25325  .debug_str:000000000000f73e .LASF4881
C:\Users\CYMR90~1\AppData\Local\Temp\cc5BNH7j.s:27574  .debug_str:00000000000187ba .LASF4882
C:\Users\CYMR90~1\AppData\Local\Temp\cc5BNH7j.s:22117  .debug_str:0000000000002754 .LASF4883
C:\Users\CYMR90~1\AppData\Local\Temp\cc5BNH7j.s:27818  .debug_str:0000000000019907 .LASF4884
C:\Users\CYMR90~1\AppData\Local\Temp\cc5BNH7j.s:29158  .debug_str:000000000001eec5 .LASF4885
C:\Users\CYMR90~1\AppData\Local\Temp\cc5BNH7j.s:21643  .debug_str:0000000000000aa8 .LASF4886
C:\Users\CYMR90~1\AppData\Local\Temp\cc5BNH7j.s:23075  .debug_str:0000000000006465 .LASF4887
C:\Users\CYMR90~1\AppData\Local\Temp\cc5BNH7j.s:26077  .debug_str:0000000000012868 .LASF4888
C:\Users\CYMR90~1\AppData\Local\Temp\cc5BNH7j.s:29080  .debug_str:000000000001ea51 .LASF4889
C:\Users\CYMR90~1\AppData\Local\Temp\cc5BNH7j.s:27820  .debug_str:0000000000019933 .LASF4890
C:\Users\CYMR90~1\AppData\Local\Temp\cc5BNH7j.s:32172  .debug_str:000000000002aca1 .LASF4891
C:\Users\CYMR90~1\AppData\Local\Temp\cc5BNH7j.s:24405  .debug_str:000000000000bc09 .LASF4892
C:\Users\CYMR90~1\AppData\Local\Temp\cc5BNH7j.s:27410  .debug_str:0000000000017e2a .LASF4893
C:\Users\CYMR90~1\AppData\Local\Temp\cc5BNH7j.s:26429  .debug_str:0000000000013ed5 .LASF4894
C:\Users\CYMR90~1\AppData\Local\Temp\cc5BNH7j.s:27394  .debug_str:0000000000017d1f .LASF4895
C:\Users\CYMR90~1\AppData\Local\Temp\cc5BNH7j.s:29596  .debug_str:00000000000209a4 .LASF4896
C:\Users\CYMR90~1\AppData\Local\Temp\cc5BNH7j.s:29600  .debug_str:00000000000209dd .LASF4897
C:\Users\CYMR90~1\AppData\Local\Temp\cc5BNH7j.s:26543  .debug_str:000000000001460b .LASF4898
C:\Users\CYMR90~1\AppData\Local\Temp\cc5BNH7j.s:25497  .debug_str:00000000000101e9 .LASF4899
C:\Users\CYMR90~1\AppData\Local\Temp\cc5BNH7j.s:31912  .debug_str:0000000000029d11 .LASF4900
C:\Users\CYMR90~1\AppData\Local\Temp\cc5BNH7j.s:23613  .debug_str:0000000000008885 .LASF4901
C:\Users\CYMR90~1\AppData\Local\Temp\cc5BNH7j.s:25363  .debug_str:000000000000f94f .LASF4902
C:\Users\CYMR90~1\AppData\Local\Temp\cc5BNH7j.s:22179  .debug_str:0000000000002b4a .LASF4903
C:\Users\CYMR90~1\AppData\Local\Temp\cc5BNH7j.s:25391  .debug_str:000000000000fb20 .LASF4904
C:\Users\CYMR90~1\AppData\Local\Temp\cc5BNH7j.s:27204  .debug_str:0000000000017185 .LASF4905
C:\Users\CYMR90~1\AppData\Local\Temp\cc5BNH7j.s:24841  .debug_str:000000000000d8e2 .LASF4906
C:\Users\CYMR90~1\AppData\Local\Temp\cc5BNH7j.s:27284  .debug_str:000000000001764d .LASF4907
C:\Users\CYMR90~1\AppData\Local\Temp\cc5BNH7j.s:23883  .debug_str:0000000000009979 .LASF4908
C:\Users\CYMR90~1\AppData\Local\Temp\cc5BNH7j.s:26683  .debug_str:0000000000014ef0 .LASF4909
C:\Users\CYMR90~1\AppData\Local\Temp\cc5BNH7j.s:23635  .debug_str:00000000000089ed .LASF4910
C:\Users\CYMR90~1\AppData\Local\Temp\cc5BNH7j.s:32258  .debug_str:000000000002b22e .LASF4911
C:\Users\CYMR90~1\AppData\Local\Temp\cc5BNH7j.s:32170  .debug_str:000000000002ac7c .LASF4912
C:\Users\CYMR90~1\AppData\Local\Temp\cc5BNH7j.s:30480  .debug_str:0000000000023f5a .LASF4913
C:\Users\CYMR90~1\AppData\Local\Temp\cc5BNH7j.s:32156  .debug_str:000000000002abb1 .LASF4914
C:\Users\CYMR90~1\AppData\Local\Temp\cc5BNH7j.s:27472  .debug_str:000000000001819b .LASF4915
C:\Users\CYMR90~1\AppData\Local\Temp\cc5BNH7j.s:31650  .debug_str:0000000000028d56 .LASF4916
C:\Users\CYMR90~1\AppData\Local\Temp\cc5BNH7j.s:31334  .debug_str:00000000000277b1 .LASF4917
C:\Users\CYMR90~1\AppData\Local\Temp\cc5BNH7j.s:23859  .debug_str:00000000000097dd .LASF4918
C:\Users\CYMR90~1\AppData\Local\Temp\cc5BNH7j.s:31084  .debug_str:00000000000267ca .LASF4919
C:\Users\CYMR90~1\AppData\Local\Temp\cc5BNH7j.s:27454  .debug_str:00000000000180a8 .LASF4920
C:\Users\CYMR90~1\AppData\Local\Temp\cc5BNH7j.s:27360  .debug_str:0000000000017b1d .LASF4921
C:\Users\CYMR90~1\AppData\Local\Temp\cc5BNH7j.s:31210  .debug_str:0000000000026f69 .LASF4922
C:\Users\CYMR90~1\AppData\Local\Temp\cc5BNH7j.s:25247  .debug_str:000000000000f1ee .LASF4923
C:\Users\CYMR90~1\AppData\Local\Temp\cc5BNH7j.s:28610  .debug_str:000000000001cc92 .LASF4924
C:\Users\CYMR90~1\AppData\Local\Temp\cc5BNH7j.s:27648  .debug_str:0000000000018d35 .LASF4925
C:\Users\CYMR90~1\AppData\Local\Temp\cc5BNH7j.s:24567  .debug_str:000000000000c684 .LASF4926
C:\Users\CYMR90~1\AppData\Local\Temp\cc5BNH7j.s:30736  .debug_str:000000000002516b .LASF4927
C:\Users\CYMR90~1\AppData\Local\Temp\cc5BNH7j.s:23989  .debug_str:0000000000009ffa .LASF4928
C:\Users\CYMR90~1\AppData\Local\Temp\cc5BNH7j.s:30560  .debug_str:00000000000244b6 .LASF4929
C:\Users\CYMR90~1\AppData\Local\Temp\cc5BNH7j.s:28376  .debug_str:000000000001bd70 .LASF4930
C:\Users\CYMR90~1\AppData\Local\Temp\cc5BNH7j.s:24705  .debug_str:000000000000cfe4 .LASF4931
C:\Users\CYMR90~1\AppData\Local\Temp\cc5BNH7j.s:25569  .debug_str:00000000000106cf .LASF4932
C:\Users\CYMR90~1\AppData\Local\Temp\cc5BNH7j.s:21959  .debug_str:0000000000001e02 .LASF4933
C:\Users\CYMR90~1\AppData\Local\Temp\cc5BNH7j.s:27152  .debug_str:0000000000016eb0 .LASF4934
C:\Users\CYMR90~1\AppData\Local\Temp\cc5BNH7j.s:28456  .debug_str:000000000001c267 .LASF4935
C:\Users\CYMR90~1\AppData\Local\Temp\cc5BNH7j.s:26583  .debug_str:000000000001486e .LASF4936
C:\Users\CYMR90~1\AppData\Local\Temp\cc5BNH7j.s:22559  .debug_str:000000000000442b .LASF4937
C:\Users\CYMR90~1\AppData\Local\Temp\cc5BNH7j.s:28100  .debug_str:000000000001abe0 .LASF4938
C:\Users\CYMR90~1\AppData\Local\Temp\cc5BNH7j.s:30832  .debug_str:0000000000025833 .LASF4939
C:\Users\CYMR90~1\AppData\Local\Temp\cc5BNH7j.s:25301  .debug_str:000000000000f527 .LASF4940
C:\Users\CYMR90~1\AppData\Local\Temp\cc5BNH7j.s:24399  .debug_str:000000000000bb75 .LASF4941
C:\Users\CYMR90~1\AppData\Local\Temp\cc5BNH7j.s:21477  .debug_str:000000000000006a .LASF4942
C:\Users\CYMR90~1\AppData\Local\Temp\cc5BNH7j.s:31638  .debug_str:0000000000028ca0 .LASF4943
C:\Users\CYMR90~1\AppData\Local\Temp\cc5BNH7j.s:30274  .debug_str:0000000000023225 .LASF4944
C:\Users\CYMR90~1\AppData\Local\Temp\cc5BNH7j.s:23301  .debug_str:0000000000007332 .LASF4945
C:\Users\CYMR90~1\AppData\Local\Temp\cc5BNH7j.s:26819  .debug_str:00000000000156be .LASF4946
C:\Users\CYMR90~1\AppData\Local\Temp\cc5BNH7j.s:24359  .debug_str:000000000000b8c0 .LASF4947
C:\Users\CYMR90~1\AppData\Local\Temp\cc5BNH7j.s:26673  .debug_str:0000000000014e45 .LASF4948
C:\Users\CYMR90~1\AppData\Local\Temp\cc5BNH7j.s:24317  .debug_str:000000000000b5ea .LASF4949
C:\Users\CYMR90~1\AppData\Local\Temp\cc5BNH7j.s:26865  .debug_str:0000000000015988 .LASF4950
C:\Users\CYMR90~1\AppData\Local\Temp\cc5BNH7j.s:25765  .debug_str:000000000001131d .LASF4951
C:\Users\CYMR90~1\AppData\Local\Temp\cc5BNH7j.s:31006  .debug_str:00000000000262e2 .LASF4952
C:\Users\CYMR90~1\AppData\Local\Temp\cc5BNH7j.s:26003  .debug_str:00000000000123af .LASF4953
C:\Users\CYMR90~1\AppData\Local\Temp\cc5BNH7j.s:26739  .debug_str:000000000001526a .LASF4954
C:\Users\CYMR90~1\AppData\Local\Temp\cc5BNH7j.s:25675  .debug_str:0000000000010dbb .LASF4955
C:\Users\CYMR90~1\AppData\Local\Temp\cc5BNH7j.s:31522  .debug_str:000000000002856f .LASF4956
C:\Users\CYMR90~1\AppData\Local\Temp\cc5BNH7j.s:23347  .debug_str:00000000000075fe .LASF4957
C:\Users\CYMR90~1\AppData\Local\Temp\cc5BNH7j.s:32414  .debug_str:000000000002bc4f .LASF4958
C:\Users\CYMR90~1\AppData\Local\Temp\cc5BNH7j.s:32428  .debug_str:000000000002bda0 .LASF4959
C:\Users\CYMR90~1\AppData\Local\Temp\cc5BNH7j.s:26237  .debug_str:00000000000132f9 .LASF4960
C:\Users\CYMR90~1\AppData\Local\Temp\cc5BNH7j.s:21669  .debug_str:0000000000000c31 .LASF4961
C:\Users\CYMR90~1\AppData\Local\Temp\cc5BNH7j.s:24355  .debug_str:000000000000b891 .LASF4962
C:\Users\CYMR90~1\AppData\Local\Temp\cc5BNH7j.s:29084  .debug_str:000000000001ea70 .LASF4963
C:\Users\CYMR90~1\AppData\Local\Temp\cc5BNH7j.s:23083  .debug_str:00000000000064d0 .LASF4964
C:\Users\CYMR90~1\AppData\Local\Temp\cc5BNH7j.s:23535  .debug_str:0000000000008380 .LASF4965
C:\Users\CYMR90~1\AppData\Local\Temp\cc5BNH7j.s:26189  .debug_str:0000000000012fc7 .LASF4966
C:\Users\CYMR90~1\AppData\Local\Temp\cc5BNH7j.s:25611  .debug_str:0000000000010934 .LASF4967
C:\Users\CYMR90~1\AppData\Local\Temp\cc5BNH7j.s:29916  .debug_str:0000000000021d51 .LASF4968
C:\Users\CYMR90~1\AppData\Local\Temp\cc5BNH7j.s:26203  .debug_str:00000000000130b1 .LASF4969
C:\Users\CYMR90~1\AppData\Local\Temp\cc5BNH7j.s:22761  .debug_str:000000000000515b .LASF4970
C:\Users\CYMR90~1\AppData\Local\Temp\cc5BNH7j.s:29752  .debug_str:0000000000021336 .LASF4971
C:\Users\CYMR90~1\AppData\Local\Temp\cc5BNH7j.s:26919  .debug_str:0000000000015d2b .LASF4972
C:\Users\CYMR90~1\AppData\Local\Temp\cc5BNH7j.s:22995  .debug_str:0000000000005f6c .LASF4973
C:\Users\CYMR90~1\AppData\Local\Temp\cc5BNH7j.s:27906  .debug_str:0000000000019e2b .LASF4974
C:\Users\CYMR90~1\AppData\Local\Temp\cc5BNH7j.s:26749  .debug_str:00000000000152d3 .LASF4975
C:\Users\CYMR90~1\AppData\Local\Temp\cc5BNH7j.s:29400  .debug_str:000000000001fd7e .LASF4976
C:\Users\CYMR90~1\AppData\Local\Temp\cc5BNH7j.s:31552  .debug_str:000000000002875a .LASF4977
C:\Users\CYMR90~1\AppData\Local\Temp\cc5BNH7j.s:26407  .debug_str:0000000000013d76 .LASF4978
C:\Users\CYMR90~1\AppData\Local\Temp\cc5BNH7j.s:27556  .debug_str:0000000000018680 .LASF4979
C:\Users\CYMR90~1\AppData\Local\Temp\cc5BNH7j.s:22069  .debug_str:000000000000244c .LASF4980
C:\Users\CYMR90~1\AppData\Local\Temp\cc5BNH7j.s:29014  .debug_str:000000000001e667 .LASF4981
C:\Users\CYMR90~1\AppData\Local\Temp\cc5BNH7j.s:28474  .debug_str:000000000001c365 .LASF4982
C:\Users\CYMR90~1\AppData\Local\Temp\cc5BNH7j.s:30788  .debug_str:00000000000254e4 .LASF4983
C:\Users\CYMR90~1\AppData\Local\Temp\cc5BNH7j.s:23135  .debug_str:0000000000006828 .LASF4984
C:\Users\CYMR90~1\AppData\Local\Temp\cc5BNH7j.s:21923  .debug_str:0000000000001bf2 .LASF4985
C:\Users\CYMR90~1\AppData\Local\Temp\cc5BNH7j.s:23723  .debug_str:0000000000008f63 .LASF4986
C:\Users\CYMR90~1\AppData\Local\Temp\cc5BNH7j.s:23885  .debug_str:000000000000999c .LASF4987
C:\Users\CYMR90~1\AppData\Local\Temp\cc5BNH7j.s:21935  .debug_str:0000000000001c93 .LASF4988
C:\Users\CYMR90~1\AppData\Local\Temp\cc5BNH7j.s:32452  .debug_str:000000000002bf1f .LASF4989
C:\Users\CYMR90~1\AppData\Local\Temp\cc5BNH7j.s:24533  .debug_str:000000000000c416 .LASF4990
C:\Users\CYMR90~1\AppData\Local\Temp\cc5BNH7j.s:27023  .debug_str:00000000000163d8 .LASF4991
C:\Users\CYMR90~1\AppData\Local\Temp\cc5BNH7j.s:26123  .debug_str:0000000000012b83 .LASF4992
C:\Users\CYMR90~1\AppData\Local\Temp\cc5BNH7j.s:24201  .debug_str:000000000000ae36 .LASF4993
C:\Users\CYMR90~1\AppData\Local\Temp\cc5BNH7j.s:26687  .debug_str:0000000000014f35 .LASF4994
C:\Users\CYMR90~1\AppData\Local\Temp\cc5BNH7j.s:23271  .debug_str:000000000000710c .LASF4995
C:\Users\CYMR90~1\AppData\Local\Temp\cc5BNH7j.s:27450  .debug_str:000000000001806b .LASF4996
C:\Users\CYMR90~1\AppData\Local\Temp\cc5BNH7j.s:25347  .debug_str:000000000000f878 .LASF4997
C:\Users\CYMR90~1\AppData\Local\Temp\cc5BNH7j.s:26849  .debug_str:000000000001589a .LASF4998
C:\Users\CYMR90~1\AppData\Local\Temp\cc5BNH7j.s:23411  .debug_str:0000000000007a4d .LASF4999
C:\Users\CYMR90~1\AppData\Local\Temp\cc5BNH7j.s:28120  .debug_str:000000000001ad23 .LASF5000
C:\Users\CYMR90~1\AppData\Local\Temp\cc5BNH7j.s:32698  .debug_str:000000000002cf42 .LASF5001
C:\Users\CYMR90~1\AppData\Local\Temp\cc5BNH7j.s:31132  .debug_str:0000000000026ab4 .LASF5002
C:\Users\CYMR90~1\AppData\Local\Temp\cc5BNH7j.s:25985  .debug_str:0000000000012292 .LASF5003
C:\Users\CYMR90~1\AppData\Local\Temp\cc5BNH7j.s:23323  .debug_str:000000000000747a .LASF5004
C:\Users\CYMR90~1\AppData\Local\Temp\cc5BNH7j.s:22719  .debug_str:0000000000004ecd .LASF5005
C:\Users\CYMR90~1\AppData\Local\Temp\cc5BNH7j.s:23933  .debug_str:0000000000009c82 .LASF5006
C:\Users\CYMR90~1\AppData\Local\Temp\cc5BNH7j.s:23881  .debug_str:0000000000009958 .LASF5007
C:\Users\CYMR90~1\AppData\Local\Temp\cc5BNH7j.s:24763  .debug_str:000000000000d427 .LASF5008
C:\Users\CYMR90~1\AppData\Local\Temp\cc5BNH7j.s:22017  .debug_str:000000000000210c .LASF5009
C:\Users\CYMR90~1\AppData\Local\Temp\cc5BNH7j.s:29884  .debug_str:0000000000021b3a .LASF5010
C:\Users\CYMR90~1\AppData\Local\Temp\cc5BNH7j.s:29518  .debug_str:00000000000204d6 .LASF5011
C:\Users\CYMR90~1\AppData\Local\Temp\cc5BNH7j.s:31220  .debug_str:0000000000027047 .LASF5012
C:\Users\CYMR90~1\AppData\Local\Temp\cc5BNH7j.s:21879  .debug_str:000000000000194a .LASF5013
C:\Users\CYMR90~1\AppData\Local\Temp\cc5BNH7j.s:25371  .debug_str:000000000000f9d6 .LASF5014
C:\Users\CYMR90~1\AppData\Local\Temp\cc5BNH7j.s:23769  .debug_str:000000000000920a .LASF5015
C:\Users\CYMR90~1\AppData\Local\Temp\cc5BNH7j.s:30674  .debug_str:0000000000024c8f .LASF5016
C:\Users\CYMR90~1\AppData\Local\Temp\cc5BNH7j.s:32138  .debug_str:000000000002aa7f .LASF5017
C:\Users\CYMR90~1\AppData\Local\Temp\cc5BNH7j.s:27176  .debug_str:000000000001700e .LASF5018
C:\Users\CYMR90~1\AppData\Local\Temp\cc5BNH7j.s:27288  .debug_str:0000000000017694 .LASF5019
C:\Users\CYMR90~1\AppData\Local\Temp\cc5BNH7j.s:28832  .debug_str:000000000001db40 .LASF5020
C:\Users\CYMR90~1\AppData\Local\Temp\cc5BNH7j.s:24007  .debug_str:000000000000a121 .LASF5021
C:\Users\CYMR90~1\AppData\Local\Temp\cc5BNH7j.s:29266  .debug_str:000000000001f546 .LASF5022
C:\Users\CYMR90~1\AppData\Local\Temp\cc5BNH7j.s:30442  .debug_str:0000000000023c8c .LASF5023
C:\Users\CYMR90~1\AppData\Local\Temp\cc5BNH7j.s:26115  .debug_str:0000000000012b16 .LASF5024
C:\Users\CYMR90~1\AppData\Local\Temp\cc5BNH7j.s:22359  .debug_str:00000000000036e5 .LASF5025
C:\Users\CYMR90~1\AppData\Local\Temp\cc5BNH7j.s:22537  .debug_str:00000000000042b5 .LASF5026
C:\Users\CYMR90~1\AppData\Local\Temp\cc5BNH7j.s:31370  .debug_str:0000000000027a53 .LASF5027
C:\Users\CYMR90~1\AppData\Local\Temp\cc5BNH7j.s:25781  .debug_str:0000000000011410 .LASF5028
C:\Users\CYMR90~1\AppData\Local\Temp\cc5BNH7j.s:24367  .debug_str:000000000000b927 .LASF5029
C:\Users\CYMR90~1\AppData\Local\Temp\cc5BNH7j.s:30432  .debug_str:0000000000023bce .LASF5030
C:\Users\CYMR90~1\AppData\Local\Temp\cc5BNH7j.s:30538  .debug_str:0000000000024379 .LASF5031
C:\Users\CYMR90~1\AppData\Local\Temp\cc5BNH7j.s:26821  .debug_str:00000000000156d4 .LASF5032
C:\Users\CYMR90~1\AppData\Local\Temp\cc5BNH7j.s:22383  .debug_str:0000000000003870 .LASF5033
C:\Users\CYMR90~1\AppData\Local\Temp\cc5BNH7j.s:27154  .debug_str:0000000000016eda .LASF5034
C:\Users\CYMR90~1\AppData\Local\Temp\cc5BNH7j.s:22327  .debug_str:00000000000034d3 .LASF5035
C:\Users\CYMR90~1\AppData\Local\Temp\cc5BNH7j.s:21997  .debug_str:000000000000200e .LASF5036
C:\Users\CYMR90~1\AppData\Local\Temp\cc5BNH7j.s:23047  .debug_str:00000000000062ae .LASF5037
C:\Users\CYMR90~1\AppData\Local\Temp\cc5BNH7j.s:32638  .debug_str:000000000002cbae .LASF5038
C:\Users\CYMR90~1\AppData\Local\Temp\cc5BNH7j.s:31264  .debug_str:0000000000027381 .LASF5039
C:\Users\CYMR90~1\AppData\Local\Temp\cc5BNH7j.s:21581  .debug_str:0000000000000682 .LASF5040
C:\Users\CYMR90~1\AppData\Local\Temp\cc5BNH7j.s:28036  .debug_str:000000000001a7eb .LASF5041
C:\Users\CYMR90~1\AppData\Local\Temp\cc5BNH7j.s:32394  .debug_str:000000000002bb15 .LASF5042
C:\Users\CYMR90~1\AppData\Local\Temp\cc5BNH7j.s:24187  .debug_str:000000000000acb4 .LASF5043
C:\Users\CYMR90~1\AppData\Local\Temp\cc5BNH7j.s:23129  .debug_str:00000000000067d0 .LASF5044
C:\Users\CYMR90~1\AppData\Local\Temp\cc5BNH7j.s:31320  .debug_str:000000000002768c .LASF5045
C:\Users\CYMR90~1\AppData\Local\Temp\cc5BNH7j.s:28060  .debug_str:000000000001a952 .LASF5046
C:\Users\CYMR90~1\AppData\Local\Temp\cc5BNH7j.s:29174  .debug_str:000000000001efce .LASF5047
C:\Users\CYMR90~1\AppData\Local\Temp\cc5BNH7j.s:28310  .debug_str:000000000001b92f .LASF5048
C:\Users\CYMR90~1\AppData\Local\Temp\cc5BNH7j.s:22837  .debug_str:00000000000055f0 .LASF5049
C:\Users\CYMR90~1\AppData\Local\Temp\cc5BNH7j.s:30204  .debug_str:0000000000022e4e .LASF5050
C:\Users\CYMR90~1\AppData\Local\Temp\cc5BNH7j.s:30222  .debug_str:0000000000022f1d .LASF5051
C:\Users\CYMR90~1\AppData\Local\Temp\cc5BNH7j.s:30708  .debug_str:0000000000024e9a .LASF5052
C:\Users\CYMR90~1\AppData\Local\Temp\cc5BNH7j.s:31626  .debug_str:0000000000028baf .LASF5053
C:\Users\CYMR90~1\AppData\Local\Temp\cc5BNH7j.s:30266  .debug_str:00000000000231b8 .LASF5054
C:\Users\CYMR90~1\AppData\Local\Temp\cc5BNH7j.s:31746  .debug_str:000000000002933c .LASF5055
C:\Users\CYMR90~1\AppData\Local\Temp\cc5BNH7j.s:26195  .debug_str:0000000000013025 .LASF5056
C:\Users\CYMR90~1\AppData\Local\Temp\cc5BNH7j.s:26025  .debug_str:0000000000012504 .LASF5057
C:\Users\CYMR90~1\AppData\Local\Temp\cc5BNH7j.s:29792  .debug_str:0000000000021594 .LASF5058
C:\Users\CYMR90~1\AppData\Local\Temp\cc5BNH7j.s:32668  .debug_str:000000000002cd3f .LASF5059
C:\Users\CYMR90~1\AppData\Local\Temp\cc5BNH7j.s:26199  .debug_str:0000000000013069 .LASF5060
C:\Users\CYMR90~1\AppData\Local\Temp\cc5BNH7j.s:27364  .debug_str:0000000000017b5a .LASF5061
C:\Users\CYMR90~1\AppData\Local\Temp\cc5BNH7j.s:22713  .debug_str:0000000000004e75 .LASF5062
C:\Users\CYMR90~1\AppData\Local\Temp\cc5BNH7j.s:29776  .debug_str:000000000002149d .LASF5063
C:\Users\CYMR90~1\AppData\Local\Temp\cc5BNH7j.s:27091  .debug_str:00000000000168bf .LASF5064
C:\Users\CYMR90~1\AppData\Local\Temp\cc5BNH7j.s:22235  .debug_str:0000000000002e9a .LASF5065
C:\Users\CYMR90~1\AppData\Local\Temp\cc5BNH7j.s:29078  .debug_str:000000000001ea39 .LASF5066
C:\Users\CYMR90~1\AppData\Local\Temp\cc5BNH7j.s:30018  .debug_str:0000000000022310 .LASF5067
C:\Users\CYMR90~1\AppData\Local\Temp\cc5BNH7j.s:31418  .debug_str:0000000000027d97 .LASF5068
C:\Users\CYMR90~1\AppData\Local\Temp\cc5BNH7j.s:30472  .debug_str:0000000000023e2a .LASF5069
C:\Users\CYMR90~1\AppData\Local\Temp\cc5BNH7j.s:28714  .debug_str:000000000001d3d0 .LASF5070
C:\Users\CYMR90~1\AppData\Local\Temp\cc5BNH7j.s:28694  .debug_str:000000000001d29d .LASF5071
C:\Users\CYMR90~1\AppData\Local\Temp\cc5BNH7j.s:29800  .debug_str:000000000002163d .LASF5072
C:\Users\CYMR90~1\AppData\Local\Temp\cc5BNH7j.s:26071  .debug_str:00000000000127fa .LASF5073
C:\Users\CYMR90~1\AppData\Local\Temp\cc5BNH7j.s:27466  .debug_str:0000000000018157 .LASF5074
C:\Users\CYMR90~1\AppData\Local\Temp\cc5BNH7j.s:23297  .debug_str:00000000000072e7 .LASF5075
C:\Users\CYMR90~1\AppData\Local\Temp\cc5BNH7j.s:28042  .debug_str:000000000001a835 .LASF5076
C:\Users\CYMR90~1\AppData\Local\Temp\cc5BNH7j.s:31862  .debug_str:0000000000029a49 .LASF5077
C:\Users\CYMR90~1\AppData\Local\Temp\cc5BNH7j.s:24547  .debug_str:000000000000c507 .LASF5078
C:\Users\CYMR90~1\AppData\Local\Temp\cc5BNH7j.s:24171  .debug_str:000000000000ab77 .LASF5079
C:\Users\CYMR90~1\AppData\Local\Temp\cc5BNH7j.s:25177  .debug_str:000000000000ed89 .LASF5080
C:\Users\CYMR90~1\AppData\Local\Temp\cc5BNH7j.s:23169  .debug_str:0000000000006a4d .LASF5081
C:\Users\CYMR90~1\AppData\Local\Temp\cc5BNH7j.s:29442  .debug_str:000000000001ffb5 .LASF5082
C:\Users\CYMR90~1\AppData\Local\Temp\cc5BNH7j.s:22073  .debug_str:0000000000002482 .LASF5083
C:\Users\CYMR90~1\AppData\Local\Temp\cc5BNH7j.s:30254  .debug_str:00000000000230f0 .LASF5084
C:\Users\CYMR90~1\AppData\Local\Temp\cc5BNH7j.s:27077  .debug_str:0000000000016795 .LASF5085
C:\Users\CYMR90~1\AppData\Local\Temp\cc5BNH7j.s:32092  .debug_str:000000000002a7e4 .LASF5086
C:\Users\CYMR90~1\AppData\Local\Temp\cc5BNH7j.s:25369  .debug_str:000000000000f9b6 .LASF5087
C:\Users\CYMR90~1\AppData\Local\Temp\cc5BNH7j.s:31412  .debug_str:0000000000027d25 .LASF5088
C:\Users\CYMR90~1\AppData\Local\Temp\cc5BNH7j.s:23369  .debug_str:000000000000777c .LASF5089
C:\Users\CYMR90~1\AppData\Local\Temp\cc5BNH7j.s:24781  .debug_str:000000000000d585 .LASF5090
C:\Users\CYMR90~1\AppData\Local\Temp\cc5BNH7j.s:32578  .debug_str:000000000002c77e .LASF5091
C:\Users\CYMR90~1\AppData\Local\Temp\cc5BNH7j.s:24411  .debug_str:000000000000bc82 .LASF5092
C:\Users\CYMR90~1\AppData\Local\Temp\cc5BNH7j.s:23981  .debug_str:0000000000009f8d .LASF5093
C:\Users\CYMR90~1\AppData\Local\Temp\cc5BNH7j.s:31324  .debug_str:00000000000276e4 .LASF5094
C:\Users\CYMR90~1\AppData\Local\Temp\cc5BNH7j.s:25817  .debug_str:0000000000011672 .LASF5095
C:\Users\CYMR90~1\AppData\Local\Temp\cc5BNH7j.s:22631  .debug_str:0000000000004965 .LASF5096
C:\Users\CYMR90~1\AppData\Local\Temp\cc5BNH7j.s:23925  .debug_str:0000000000009bfc .LASF5097
C:\Users\CYMR90~1\AppData\Local\Temp\cc5BNH7j.s:27690  .debug_str:000000000001908c .LASF5098
C:\Users\CYMR90~1\AppData\Local\Temp\cc5BNH7j.s:28656  .debug_str:000000000001d095 .LASF5099
C:\Users\CYMR90~1\AppData\Local\Temp\cc5BNH7j.s:28874  .debug_str:000000000001ddf3 .LASF5100
C:\Users\CYMR90~1\AppData\Local\Temp\cc5BNH7j.s:24627  .debug_str:000000000000cb22 .LASF5101
C:\Users\CYMR90~1\AppData\Local\Temp\cc5BNH7j.s:26877  .debug_str:0000000000015a2d .LASF5102
C:\Users\CYMR90~1\AppData\Local\Temp\cc5BNH7j.s:25013  .debug_str:000000000000e37c .LASF5103
C:\Users\CYMR90~1\AppData\Local\Temp\cc5BNH7j.s:27862  .debug_str:0000000000019bb7 .LASF5104
C:\Users\CYMR90~1\AppData\Local\Temp\cc5BNH7j.s:27608  .debug_str:00000000000189fd .LASF5105
C:\Users\CYMR90~1\AppData\Local\Temp\cc5BNH7j.s:30326  .debug_str:000000000002359f .LASF5106
C:\Users\CYMR90~1\AppData\Local\Temp\cc5BNH7j.s:22589  .debug_str:000000000000462d .LASF5107
C:\Users\CYMR90~1\AppData\Local\Temp\cc5BNH7j.s:21649  .debug_str:0000000000000b0b .LASF5108
C:\Users\CYMR90~1\AppData\Local\Temp\cc5BNH7j.s:25907  .debug_str:0000000000011cf0 .LASF5109
C:\Users\CYMR90~1\AppData\Local\Temp\cc5BNH7j.s:26647  .debug_str:0000000000014c4b .LASF5110
C:\Users\CYMR90~1\AppData\Local\Temp\cc5BNH7j.s:32454  .debug_str:000000000002bf37 .LASF5111
C:\Users\CYMR90~1\AppData\Local\Temp\cc5BNH7j.s:24991  .debug_str:000000000000e241 .LASF5112
C:\Users\CYMR90~1\AppData\Local\Temp\cc5BNH7j.s:24065  .debug_str:000000000000a4d0 .LASF5113
C:\Users\CYMR90~1\AppData\Local\Temp\cc5BNH7j.s:27696  .debug_str:00000000000190ee .LASF5114
C:\Users\CYMR90~1\AppData\Local\Temp\cc5BNH7j.s:24953  .debug_str:000000000000dfd2 .LASF5115
C:\Users\CYMR90~1\AppData\Local\Temp\cc5BNH7j.s:32502  .debug_str:000000000002c2c5 .LASF5116
C:\Users\CYMR90~1\AppData\Local\Temp\cc5BNH7j.s:21883  .debug_str:0000000000001988 .LASF5117
C:\Users\CYMR90~1\AppData\Local\Temp\cc5BNH7j.s:31402  .debug_str:0000000000027c74 .LASF5118
C:\Users\CYMR90~1\AppData\Local\Temp\cc5BNH7j.s:28776  .debug_str:000000000001d803 .LASF5119
C:\Users\CYMR90~1\AppData\Local\Temp\cc5BNH7j.s:27134  .debug_str:0000000000016d77 .LASF5120
C:\Users\CYMR90~1\AppData\Local\Temp\cc5BNH7j.s:24029  .debug_str:000000000000a2a0 .LASF5121
C:\Users\CYMR90~1\AppData\Local\Temp\cc5BNH7j.s:29840  .debug_str:0000000000021846 .LASF5122
C:\Users\CYMR90~1\AppData\Local\Temp\cc5BNH7j.s:26201  .debug_str:0000000000013089 .LASF5123
C:\Users\CYMR90~1\AppData\Local\Temp\cc5BNH7j.s:27594  .debug_str:000000000001890b .LASF5124
C:\Users\CYMR90~1\AppData\Local\Temp\cc5BNH7j.s:26301  .debug_str:0000000000013755 .LASF5125
C:\Users\CYMR90~1\AppData\Local\Temp\cc5BNH7j.s:30508  .debug_str:0000000000024175 .LASF5126
C:\Users\CYMR90~1\AppData\Local\Temp\cc5BNH7j.s:31020  .debug_str:00000000000263bf .LASF5127
C:\Users\CYMR90~1\AppData\Local\Temp\cc5BNH7j.s:22135  .debug_str:0000000000002886 .LASF5128
C:\Users\CYMR90~1\AppData\Local\Temp\cc5BNH7j.s:25877  .debug_str:0000000000011b4e .LASF5129
C:\Users\CYMR90~1\AppData\Local\Temp\cc5BNH7j.s:31074  .debug_str:0000000000026734 .LASF5130
C:\Users\CYMR90~1\AppData\Local\Temp\cc5BNH7j.s:22277  .debug_str:000000000000317f .LASF5131
C:\Users\CYMR90~1\AppData\Local\Temp\cc5BNH7j.s:29330  .debug_str:000000000001f911 .LASF5132
C:\Users\CYMR90~1\AppData\Local\Temp\cc5BNH7j.s:26287  .debug_str:0000000000013685 .LASF5133
C:\Users\CYMR90~1\AppData\Local\Temp\cc5BNH7j.s:31740  .debug_str:00000000000292c0 .LASF5134
C:\Users\CYMR90~1\AppData\Local\Temp\cc5BNH7j.s:24013  .debug_str:000000000000a178 .LASF5135
C:\Users\CYMR90~1\AppData\Local\Temp\cc5BNH7j.s:27686  .debug_str:0000000000019039 .LASF5136
C:\Users\CYMR90~1\AppData\Local\Temp\cc5BNH7j.s:31990  .debug_str:000000000002a18d .LASF5137
C:\Users\CYMR90~1\AppData\Local\Temp\cc5BNH7j.s:24961  .debug_str:000000000000e053 .LASF5138
C:\Users\CYMR90~1\AppData\Local\Temp\cc5BNH7j.s:31984  .debug_str:000000000002a124 .LASF5139
C:\Users\CYMR90~1\AppData\Local\Temp\cc5BNH7j.s:22213  .debug_str:0000000000002d47 .LASF5140
C:\Users\CYMR90~1\AppData\Local\Temp\cc5BNH7j.s:28122  .debug_str:000000000001ad3b .LASF5141
C:\Users\CYMR90~1\AppData\Local\Temp\cc5BNH7j.s:25277  .debug_str:000000000000f3b5 .LASF5142
C:\Users\CYMR90~1\AppData\Local\Temp\cc5BNH7j.s:26465  .debug_str:000000000001413a .LASF5143
C:\Users\CYMR90~1\AppData\Local\Temp\cc5BNH7j.s:31632  .debug_str:0000000000028c15 .LASF5144
C:\Users\CYMR90~1\AppData\Local\Temp\cc5BNH7j.s:23741  .debug_str:0000000000009051 .LASF5145
C:\Users\CYMR90~1\AppData\Local\Temp\cc5BNH7j.s:28630  .debug_str:000000000001ce68 .LASF5146
C:\Users\CYMR90~1\AppData\Local\Temp\cc5BNH7j.s:32034  .debug_str:000000000002a47e .LASF5147
C:\Users\CYMR90~1\AppData\Local\Temp\cc5BNH7j.s:22583  .debug_str:00000000000045b5 .LASF5148
C:\Users\CYMR90~1\AppData\Local\Temp\cc5BNH7j.s:30792  .debug_str:000000000002552b .LASF5149
C:\Users\CYMR90~1\AppData\Local\Temp\cc5BNH7j.s:29288  .debug_str:000000000001f663 .LASF5150
C:\Users\CYMR90~1\AppData\Local\Temp\cc5BNH7j.s:28454  .debug_str:000000000001c23f .LASF5151
C:\Users\CYMR90~1\AppData\Local\Temp\cc5BNH7j.s:29422  .debug_str:000000000001feb0 .LASF5152
C:\Users\CYMR90~1\AppData\Local\Temp\cc5BNH7j.s:32646  .debug_str:000000000002cc18 .LASF5153
C:\Users\CYMR90~1\AppData\Local\Temp\cc5BNH7j.s:22331  .debug_str:0000000000003502 .LASF5154
C:\Users\CYMR90~1\AppData\Local\Temp\cc5BNH7j.s:29036  .debug_str:000000000001e7d9 .LASF5155
C:\Users\CYMR90~1\AppData\Local\Temp\cc5BNH7j.s:29810  .debug_str:00000000000216b0 .LASF5156
C:\Users\CYMR90~1\AppData\Local\Temp\cc5BNH7j.s:21905  .debug_str:0000000000001acb .LASF5157
C:\Users\CYMR90~1\AppData\Local\Temp\cc5BNH7j.s:26111  .debug_str:0000000000012ac9 .LASF5158
C:\Users\CYMR90~1\AppData\Local\Temp\cc5BNH7j.s:27398  .debug_str:0000000000017d64 .LASF5159
C:\Users\CYMR90~1\AppData\Local\Temp\cc5BNH7j.s:25619  .debug_str:00000000000109e2 .LASF5160
C:\Users\CYMR90~1\AppData\Local\Temp\cc5BNH7j.s:27502  .debug_str:0000000000018360 .LASF5161
C:\Users\CYMR90~1\AppData\Local\Temp\cc5BNH7j.s:28082  .debug_str:000000000001aafd .LASF5162
C:\Users\CYMR90~1\AppData\Local\Temp\cc5BNH7j.s:29428  .debug_str:000000000001ff11 .LASF5163
C:\Users\CYMR90~1\AppData\Local\Temp\cc5BNH7j.s:32684  .debug_str:000000000002ce66 .LASF5164
C:\Users\CYMR90~1\AppData\Local\Temp\cc5BNH7j.s:26575  .debug_str:00000000000147f6 .LASF5165
C:\Users\CYMR90~1\AppData\Local\Temp\cc5BNH7j.s:27938  .debug_str:000000000001a01a .LASF5166
C:\Users\CYMR90~1\AppData\Local\Temp\cc5BNH7j.s:22799  .debug_str:0000000000005399 .LASF5167
C:\Users\CYMR90~1\AppData\Local\Temp\cc5BNH7j.s:30532  .debug_str:00000000000242f2 .LASF5168
C:\Users\CYMR90~1\AppData\Local\Temp\cc5BNH7j.s:31406  .debug_str:0000000000027cb7 .LASF5169
C:\Users\CYMR90~1\AppData\Local\Temp\cc5BNH7j.s:23389  .debug_str:00000000000078bf .LASF5170
C:\Users\CYMR90~1\AppData\Local\Temp\cc5BNH7j.s:32462  .debug_str:000000000002bfde .LASF5171
C:\Users\CYMR90~1\AppData\Local\Temp\cc5BNH7j.s:25131  .debug_str:000000000000eb33 .LASF5172
C:\Users\CYMR90~1\AppData\Local\Temp\cc5BNH7j.s:27320  .debug_str:00000000000178bd .LASF5173
C:\Users\CYMR90~1\AppData\Local\Temp\cc5BNH7j.s:23497  .debug_str:0000000000008106 .LASF5174
C:\Users\CYMR90~1\AppData\Local\Temp\cc5BNH7j.s:23097  .debug_str:0000000000006596 .LASF5175
C:\Users\CYMR90~1\AppData\Local\Temp\cc5BNH7j.s:22705  .debug_str:0000000000004dea .LASF5176
C:\Users\CYMR90~1\AppData\Local\Temp\cc5BNH7j.s:31230  .debug_str:0000000000027180 .LASF5177
C:\Users\CYMR90~1\AppData\Local\Temp\cc5BNH7j.s:27442  .debug_str:0000000000017fd3 .LASF5178
C:\Users\CYMR90~1\AppData\Local\Temp\cc5BNH7j.s:23567  .debug_str:000000000000856f .LASF5179
C:\Users\CYMR90~1\AppData\Local\Temp\cc5BNH7j.s:24575  .debug_str:000000000000c716 .LASF5180
C:\Users\CYMR90~1\AppData\Local\Temp\cc5BNH7j.s:29018  .debug_str:000000000001e6af .LASF5181
C:\Users\CYMR90~1\AppData\Local\Temp\cc5BNH7j.s:23739  .debug_str:0000000000009020 .LASF5182
C:\Users\CYMR90~1\AppData\Local\Temp\cc5BNH7j.s:32196  .debug_str:000000000002adec .LASF5183
C:\Users\CYMR90~1\AppData\Local\Temp\cc5BNH7j.s:29008  .debug_str:000000000001e5d3 .LASF5184
C:\Users\CYMR90~1\AppData\Local\Temp\cc5BNH7j.s:23587  .debug_str:00000000000086ad .LASF5185
C:\Users\CYMR90~1\AppData\Local\Temp\cc5BNH7j.s:31316  .debug_str:000000000002765a .LASF5186
C:\Users\CYMR90~1\AppData\Local\Temp\cc5BNH7j.s:32690  .debug_str:000000000002cec0 .LASF5187
C:\Users\CYMR90~1\AppData\Local\Temp\cc5BNH7j.s:29340  .debug_str:000000000001f9b7 .LASF5188
C:\Users\CYMR90~1\AppData\Local\Temp\cc5BNH7j.s:31600  .debug_str:0000000000028a3a .LASF5189
C:\Users\CYMR90~1\AppData\Local\Temp\cc5BNH7j.s:22685  .debug_str:0000000000004cbf .LASF5190
C:\Users\CYMR90~1\AppData\Local\Temp\cc5BNH7j.s:23021  .debug_str:0000000000006136 .LASF5191
C:\Users\CYMR90~1\AppData\Local\Temp\cc5BNH7j.s:27958  .debug_str:000000000001a131 .LASF5192
C:\Users\CYMR90~1\AppData\Local\Temp\cc5BNH7j.s:26655  .debug_str:0000000000014d05 .LASF5193
C:\Users\CYMR90~1\AppData\Local\Temp\cc5BNH7j.s:25419  .debug_str:000000000000fcef .LASF5194
C:\Users\CYMR90~1\AppData\Local\Temp\cc5BNH7j.s:32054  .debug_str:000000000002a5a8 .LASF5195
C:\Users\CYMR90~1\AppData\Local\Temp\cc5BNH7j.s:28392  .debug_str:000000000001be70 .LASF5196
C:\Users\CYMR90~1\AppData\Local\Temp\cc5BNH7j.s:29876  .debug_str:0000000000021ab8 .LASF5197
C:\Users\CYMR90~1\AppData\Local\Temp\cc5BNH7j.s:28156  .debug_str:000000000001afc9 .LASF5198
C:\Users\CYMR90~1\AppData\Local\Temp\cc5BNH7j.s:23787  .debug_str:0000000000009303 .LASF5199
C:\Users\CYMR90~1\AppData\Local\Temp\cc5BNH7j.s:21527  .debug_str:0000000000000379 .LASF5200
C:\Users\CYMR90~1\AppData\Local\Temp\cc5BNH7j.s:25837  .debug_str:0000000000011873 .LASF5201
C:\Users\CYMR90~1\AppData\Local\Temp\cc5BNH7j.s:22119  .debug_str:000000000000277c .LASF5202
C:\Users\CYMR90~1\AppData\Local\Temp\cc5BNH7j.s:29066  .debug_str:000000000001e992 .LASF5203
C:\Users\CYMR90~1\AppData\Local\Temp\cc5BNH7j.s:26677  .debug_str:0000000000014e9a .LASF5204
C:\Users\CYMR90~1\AppData\Local\Temp\cc5BNH7j.s:21473  .debug_str:0000000000000000 .LASF5205
C:\Users\CYMR90~1\AppData\Local\Temp\cc5BNH7j.s:21915  .debug_str:0000000000001b70 .LASF5206
C:\Users\CYMR90~1\AppData\Local\Temp\cc5BNH7j.s:31742  .debug_str:00000000000292ed .LASF5207
C:\Users\CYMR90~1\AppData\Local\Temp\cc5BNH7j.s:30608  .debug_str:000000000002482c .LASF5208
C:\Users\CYMR90~1\AppData\Local\Temp\cc5BNH7j.s:31378  .debug_str:0000000000027aca .LASF5209
C:\Users\CYMR90~1\AppData\Local\Temp\cc5BNH7j.s:22803  .debug_str:00000000000053e3 .LASF5210
C:\Users\CYMR90~1\AppData\Local\Temp\cc5BNH7j.s:27103  .debug_str:000000000001696b .LASF5211
C:\Users\CYMR90~1\AppData\Local\Temp\cc5BNH7j.s:23001  .debug_str:0000000000005fde .LASF5212
C:\Users\CYMR90~1\AppData\Local\Temp\cc5BNH7j.s:28048  .debug_str:000000000001a89e .LASF5213
C:\Users\CYMR90~1\AppData\Local\Temp\cc5BNH7j.s:32672  .debug_str:000000000002cd81 .LASF5214
C:\Users\CYMR90~1\AppData\Local\Temp\cc5BNH7j.s:27232  .debug_str:0000000000017316 .LASF5215
C:\Users\CYMR90~1\AppData\Local\Temp\cc5BNH7j.s:22989  .debug_str:0000000000005f06 .LASF5216
C:\Users\CYMR90~1\AppData\Local\Temp\cc5BNH7j.s:25235  .debug_str:000000000000f123 .LASF5217
C:\Users\CYMR90~1\AppData\Local\Temp\cc5BNH7j.s:25945  .debug_str:0000000000011f92 .LASF5218
C:\Users\CYMR90~1\AppData\Local\Temp\cc5BNH7j.s:29980  .debug_str:0000000000022114 .LASF5219
C:\Users\CYMR90~1\AppData\Local\Temp\cc5BNH7j.s:29888  .debug_str:0000000000021b67 .LASF5220
C:\Users\CYMR90~1\AppData\Local\Temp\cc5BNH7j.s:30778  .debug_str:0000000000025406 .LASF5221
C:\Users\CYMR90~1\AppData\Local\Temp\cc5BNH7j.s:31556  .debug_str:000000000002878f .LASF5222
C:\Users\CYMR90~1\AppData\Local\Temp\cc5BNH7j.s:31022  .debug_str:00000000000263e9 .LASF5223
C:\Users\CYMR90~1\AppData\Local\Temp\cc5BNH7j.s:25751  .debug_str:000000000001122e .LASF5224
C:\Users\CYMR90~1\AppData\Local\Temp\cc5BNH7j.s:24667  .debug_str:000000000000cd4b .LASF5225
C:\Users\CYMR90~1\AppData\Local\Temp\cc5BNH7j.s:29538  .debug_str:00000000000205e0 .LASF5226
C:\Users\CYMR90~1\AppData\Local\Temp\cc5BNH7j.s:25315  .debug_str:000000000000f681 .LASF5227
C:\Users\CYMR90~1\AppData\Local\Temp\cc5BNH7j.s:24633  .debug_str:000000000000cb83 .LASF5228
C:\Users\CYMR90~1\AppData\Local\Temp\cc5BNH7j.s:30998  .debug_str:0000000000026263 .LASF5229
C:\Users\CYMR90~1\AppData\Local\Temp\cc5BNH7j.s:32058  .debug_str:000000000002a605 .LASF5230
C:\Users\CYMR90~1\AppData\Local\Temp\cc5BNH7j.s:24445  .debug_str:000000000000be98 .LASF5231
C:\Users\CYMR90~1\AppData\Local\Temp\cc5BNH7j.s:22371  .debug_str:00000000000037c9 .LASF5232
C:\Users\CYMR90~1\AppData\Local\Temp\cc5BNH7j.s:23287  .debug_str:000000000000724c .LASF5233
C:\Users\CYMR90~1\AppData\Local\Temp\cc5BNH7j.s:25319  .debug_str:000000000000f6d0 .LASF5234
C:\Users\CYMR90~1\AppData\Local\Temp\cc5BNH7j.s:22867  .debug_str:000000000000579c .LASF5235
C:\Users\CYMR90~1\AppData\Local\Temp\cc5BNH7j.s:31438  .debug_str:0000000000027f20 .LASF5236
C:\Users\CYMR90~1\AppData\Local\Temp\cc5BNH7j.s:26001  .debug_str:000000000001238d .LASF5237
C:\Users\CYMR90~1\AppData\Local\Temp\cc5BNH7j.s:22207  .debug_str:0000000000002ceb .LASF5238
C:\Users\CYMR90~1\AppData\Local\Temp\cc5BNH7j.s:30854  .debug_str:0000000000025994 .LASF5239
C:\Users\CYMR90~1\AppData\Local\Temp\cc5BNH7j.s:31242  .debug_str:0000000000027246 .LASF5240
C:\Users\CYMR90~1\AppData\Local\Temp\cc5BNH7j.s:25769  .debug_str:000000000001135d .LASF5241
C:\Users\CYMR90~1\AppData\Local\Temp\cc5BNH7j.s:26939  .debug_str:0000000000015eb5 .LASF5242
C:\Users\CYMR90~1\AppData\Local\Temp\cc5BNH7j.s:30258  .debug_str:0000000000023129 .LASF5243
C:\Users\CYMR90~1\AppData\Local\Temp\cc5BNH7j.s:29000  .debug_str:000000000001e553 .LASF5244
C:\Users\CYMR90~1\AppData\Local\Temp\cc5BNH7j.s:29906  .debug_str:0000000000021cac .LASF5245
C:\Users\CYMR90~1\AppData\Local\Temp\cc5BNH7j.s:32696  .debug_str:000000000002cf1c .LASF5246
C:\Users\CYMR90~1\AppData\Local\Temp\cc5BNH7j.s:30086  .debug_str:0000000000022711 .LASF5247
C:\Users\CYMR90~1\AppData\Local\Temp\cc5BNH7j.s:30686  .debug_str:0000000000024d5b .LASF5248
C:\Users\CYMR90~1\AppData\Local\Temp\cc5BNH7j.s:23373  .debug_str:00000000000077b2 .LASF5249
C:\Users\CYMR90~1\AppData\Local\Temp\cc5BNH7j.s:22739  .debug_str:0000000000004ffa .LASF5250
C:\Users\CYMR90~1\AppData\Local\Temp\cc5BNH7j.s:30116  .debug_str:00000000000228c3 .LASF5251
C:\Users\CYMR90~1\AppData\Local\Temp\cc5BNH7j.s:26061  .debug_str:000000000001274f .LASF5252
C:\Users\CYMR90~1\AppData\Local\Temp\cc5BNH7j.s:30582  .debug_str:0000000000024619 .LASF5253
C:\Users\CYMR90~1\AppData\Local\Temp\cc5BNH7j.s:31878  .debug_str:0000000000029b3f .LASF5254
C:\Users\CYMR90~1\AppData\Local\Temp\cc5BNH7j.s:30170  .debug_str:0000000000022c4e .LASF5255
C:\Users\CYMR90~1\AppData\Local\Temp\cc5BNH7j.s:30820  .debug_str:000000000002577d .LASF5256
C:\Users\CYMR90~1\AppData\Local\Temp\cc5BNH7j.s:30870  .debug_str:0000000000025aa2 .LASF5257
C:\Users\CYMR90~1\AppData\Local\Temp\cc5BNH7j.s:29650  .debug_str:0000000000020ce2 .LASF5258
C:\Users\CYMR90~1\AppData\Local\Temp\cc5BNH7j.s:25415  .debug_str:000000000000fca9 .LASF5259
C:\Users\CYMR90~1\AppData\Local\Temp\cc5BNH7j.s:25587  .debug_str:00000000000107c7 .LASF5260
C:\Users\CYMR90~1\AppData\Local\Temp\cc5BNH7j.s:30704  .debug_str:0000000000024e5b .LASF5261
C:\Users\CYMR90~1\AppData\Local\Temp\cc5BNH7j.s:24125  .debug_str:000000000000a888 .LASF5262
C:\Users\CYMR90~1\AppData\Local\Temp\cc5BNH7j.s:25621  .debug_str:0000000000010a01 .LASF5263
C:\Users\CYMR90~1\AppData\Local\Temp\cc5BNH7j.s:32144  .debug_str:000000000002aadf .LASF5264
C:\Users\CYMR90~1\AppData\Local\Temp\cc5BNH7j.s:23661  .debug_str:0000000000008b8a .LASF5265
C:\Users\CYMR90~1\AppData\Local\Temp\cc5BNH7j.s:24231  .debug_str:000000000000b022 .LASF5266
C:\Users\CYMR90~1\AppData\Local\Temp\cc5BNH7j.s:30878  .debug_str:0000000000025b13 .LASF5267
C:\Users\CYMR90~1\AppData\Local\Temp\cc5BNH7j.s:21743  .debug_str:00000000000010de .LASF5268
C:\Users\CYMR90~1\AppData\Local\Temp\cc5BNH7j.s:27015  .debug_str:000000000001635d .LASF5269
C:\Users\CYMR90~1\AppData\Local\Temp\cc5BNH7j.s:26577  .debug_str:0000000000014826 .LASF5270
C:\Users\CYMR90~1\AppData\Local\Temp\cc5BNH7j.s:31364  .debug_str:00000000000279dd .LASF5271
C:\Users\CYMR90~1\AppData\Local\Temp\cc5BNH7j.s:25079  .debug_str:000000000000e7dd .LASF5272
C:\Users\CYMR90~1\AppData\Local\Temp\cc5BNH7j.s:31392  .debug_str:0000000000027bdd .LASF5273
C:\Users\CYMR90~1\AppData\Local\Temp\cc5BNH7j.s:29022  .debug_str:000000000001e703 .LASF5274
C:\Users\CYMR90~1\AppData\Local\Temp\cc5BNH7j.s:25821  .debug_str:00000000000116bd .LASF5275
C:\Users\CYMR90~1\AppData\Local\Temp\cc5BNH7j.s:29328  .debug_str:000000000001f8e0 .LASF5276
C:\Users\CYMR90~1\AppData\Local\Temp\cc5BNH7j.s:22721  .debug_str:0000000000004eeb .LASF5277
C:\Users\CYMR90~1\AppData\Local\Temp\cc5BNH7j.s:26353  .debug_str:0000000000013a4d .LASF5278
C:\Users\CYMR90~1\AppData\Local\Temp\cc5BNH7j.s:29370  .debug_str:000000000001fb67 .LASF5279
C:\Users\CYMR90~1\AppData\Local\Temp\cc5BNH7j.s:24937  .debug_str:000000000000dedc .LASF5280
C:\Users\CYMR90~1\AppData\Local\Temp\cc5BNH7j.s:28590  .debug_str:000000000001cb38 .LASF5281
C:\Users\CYMR90~1\AppData\Local\Temp\cc5BNH7j.s:25057  .debug_str:000000000000e665 .LASF5282
C:\Users\CYMR90~1\AppData\Local\Temp\cc5BNH7j.s:31776  .debug_str:0000000000029533 .LASF5283
C:\Users\CYMR90~1\AppData\Local\Temp\cc5BNH7j.s:32540  .debug_str:000000000002c4db .LASF5284
C:\Users\CYMR90~1\AppData\Local\Temp\cc5BNH7j.s:25089  .debug_str:000000000000e851 .LASF5285
C:\Users\CYMR90~1\AppData\Local\Temp\cc5BNH7j.s:21823  .debug_str:000000000000154a .LASF5286
C:\Users\CYMR90~1\AppData\Local\Temp\cc5BNH7j.s:28200  .debug_str:000000000001b2db .LASF5287
C:\Users\CYMR90~1\AppData\Local\Temp\cc5BNH7j.s:31196  .debug_str:0000000000026eb0 .LASF5288
C:\Users\CYMR90~1\AppData\Local\Temp\cc5BNH7j.s:28090  .debug_str:000000000001ab58 .LASF5289
C:\Users\CYMR90~1\AppData\Local\Temp\cc5BNH7j.s:29074  .debug_str:000000000001ea0a .LASF5290
C:\Users\CYMR90~1\AppData\Local\Temp\cc5BNH7j.s:21673  .debug_str:0000000000000c6d .LASF5291
C:\Users\CYMR90~1\AppData\Local\Temp\cc5BNH7j.s:29670  .debug_str:0000000000020dde .LASF5292
C:\Users\CYMR90~1\AppData\Local\Temp\cc5BNH7j.s:24579  .debug_str:000000000000c78a .LASF5293
C:\Users\CYMR90~1\AppData\Local\Temp\cc5BNH7j.s:26883  .debug_str:0000000000015aa5 .LASF5294
C:\Users\CYMR90~1\AppData\Local\Temp\cc5BNH7j.s:25341  .debug_str:000000000000f827 .LASF5295
C:\Users\CYMR90~1\AppData\Local\Temp\cc5BNH7j.s:27498  .debug_str:0000000000018330 .LASF5296
C:\Users\CYMR90~1\AppData\Local\Temp\cc5BNH7j.s:32044  .debug_str:000000000002a512 .LASF5297
C:\Users\CYMR90~1\AppData\Local\Temp\cc5BNH7j.s:26283  .debug_str:0000000000013648 .LASF5298
C:\Users\CYMR90~1\AppData\Local\Temp\cc5BNH7j.s:29256  .debug_str:000000000001f4ac .LASF5299
C:\Users\CYMR90~1\AppData\Local\Temp\cc5BNH7j.s:23351  .debug_str:0000000000007657 .LASF5300
C:\Users\CYMR90~1\AppData\Local\Temp\cc5BNH7j.s:30738  .debug_str:0000000000025196 .LASF5301
C:\Users\CYMR90~1\AppData\Local\Temp\cc5BNH7j.s:23227  .debug_str:0000000000006e01 .LASF5302
C:\Users\CYMR90~1\AppData\Local\Temp\cc5BNH7j.s:31274  .debug_str:0000000000027409 .LASF5303
C:\Users\CYMR90~1\AppData\Local\Temp\cc5BNH7j.s:31754  .debug_str:00000000000293a8 .LASF5304
C:\Users\CYMR90~1\AppData\Local\Temp\cc5BNH7j.s:30004  .debug_str:000000000002226f .LASF5305
C:\Users\CYMR90~1\AppData\Local\Temp\cc5BNH7j.s:26795  .debug_str:000000000001555b .LASF5306
C:\Users\CYMR90~1\AppData\Local\Temp\cc5BNH7j.s:23667  .debug_str:0000000000008bd1 .LASF5307
C:\Users\CYMR90~1\AppData\Local\Temp\cc5BNH7j.s:22285  .debug_str:0000000000003209 .LASF5308
C:\Users\CYMR90~1\AppData\Local\Temp\cc5BNH7j.s:32450  .debug_str:000000000002bf07 .LASF5309
C:\Users\CYMR90~1\AppData\Local\Temp\cc5BNH7j.s:23847  .debug_str:00000000000096e6 .LASF5310
C:\Users\CYMR90~1\AppData\Local\Temp\cc5BNH7j.s:23671  .debug_str:0000000000008bf8 .LASF5311
C:\Users\CYMR90~1\AppData\Local\Temp\cc5BNH7j.s:31948  .debug_str:0000000000029f3e .LASF5312
C:\Users\CYMR90~1\AppData\Local\Temp\cc5BNH7j.s:25179  .debug_str:000000000000edac .LASF5313
C:\Users\CYMR90~1\AppData\Local\Temp\cc5BNH7j.s:31644  .debug_str:0000000000028d08 .LASF5314
C:\Users\CYMR90~1\AppData\Local\Temp\cc5BNH7j.s:23785  .debug_str:00000000000092eb .LASF5315
C:\Users\CYMR90~1\AppData\Local\Temp\cc5BNH7j.s:32346  .debug_str:000000000002b7f8 .LASF5316
C:\Users\CYMR90~1\AppData\Local\Temp\cc5BNH7j.s:30942  .debug_str:0000000000025f0a .LASF5317
C:\Users\CYMR90~1\AppData\Local\Temp\cc5BNH7j.s:25323  .debug_str:000000000000f726 .LASF5318
C:\Users\CYMR90~1\AppData\Local\Temp\cc5BNH7j.s:22567  .debug_str:00000000000044ab .LASF5319
C:\Users\CYMR90~1\AppData\Local\Temp\cc5BNH7j.s:28050  .debug_str:000000000001a8c5 .LASF5320
C:\Users\CYMR90~1\AppData\Local\Temp\cc5BNH7j.s:30698  .debug_str:0000000000024e10 .LASF5321
C:\Users\CYMR90~1\AppData\Local\Temp\cc5BNH7j.s:25261  .debug_str:000000000000f2e8 .LASF5322
C:\Users\CYMR90~1\AppData\Local\Temp\cc5BNH7j.s:21579  .debug_str:000000000000066a .LASF5323
C:\Users\CYMR90~1\AppData\Local\Temp\cc5BNH7j.s:21529  .debug_str:00000000000003a3 .LASF5324
C:\Users\CYMR90~1\AppData\Local\Temp\cc5BNH7j.s:21875  .debug_str:0000000000001911 .LASF5325
C:\Users\CYMR90~1\AppData\Local\Temp\cc5BNH7j.s:30340  .debug_str:00000000000236a5 .LASF5326
C:\Users\CYMR90~1\AppData\Local\Temp\cc5BNH7j.s:30994  .debug_str:0000000000026222 .LASF5327
C:\Users\CYMR90~1\AppData\Local\Temp\cc5BNH7j.s:26161  .debug_str:0000000000012deb .LASF5328
C:\Users\CYMR90~1\AppData\Local\Temp\cc5BNH7j.s:30512  .debug_str:00000000000241c3 .LASF5329
C:\Users\CYMR90~1\AppData\Local\Temp\cc5BNH7j.s:22163  .debug_str:0000000000002a39 .LASF5330
C:\Users\CYMR90~1\AppData\Local\Temp\cc5BNH7j.s:26891  .debug_str:0000000000015b73 .LASF5331
C:\Users\CYMR90~1\AppData\Local\Temp\cc5BNH7j.s:29454  .debug_str:000000000002006d .LASF5332
C:\Users\CYMR90~1\AppData\Local\Temp\cc5BNH7j.s:31914  .debug_str:0000000000029d33 .LASF5333
C:\Users\CYMR90~1\AppData\Local\Temp\cc5BNH7j.s:23575  .debug_str:00000000000085fb .LASF5334
C:\Users\CYMR90~1\AppData\Local\Temp\cc5BNH7j.s:30142  .debug_str:0000000000022aad .LASF5335
C:\Users\CYMR90~1\AppData\Local\Temp\cc5BNH7j.s:29434  .debug_str:000000000001ff5d .LASF5336
C:\Users\CYMR90~1\AppData\Local\Temp\cc5BNH7j.s:22623  .debug_str:00000000000048ee .LASF5337
C:\Users\CYMR90~1\AppData\Local\Temp\cc5BNH7j.s:23045  .debug_str:0000000000006297 .LASF5338
C:\Users\CYMR90~1\AppData\Local\Temp\cc5BNH7j.s:30098  .debug_str:00000000000227e0 .LASF5339
C:\Users\CYMR90~1\AppData\Local\Temp\cc5BNH7j.s:31828  .debug_str:000000000002983e .LASF5340
C:\Users\CYMR90~1\AppData\Local\Temp\cc5BNH7j.s:27674  .debug_str:0000000000018ec3 .LASF5341
C:\Users\CYMR90~1\AppData\Local\Temp\cc5BNH7j.s:24479  .debug_str:000000000000c0de .LASF5342
C:\Users\CYMR90~1\AppData\Local\Temp\cc5BNH7j.s:29156  .debug_str:000000000001eea8 .LASF5343
C:\Users\CYMR90~1\AppData\Local\Temp\cc5BNH7j.s:26035  .debug_str:00000000000125bd .LASF5344
C:\Users\CYMR90~1\AppData\Local\Temp\cc5BNH7j.s:29544  .debug_str:0000000000020676 .LASF5345
C:\Users\CYMR90~1\AppData\Local\Temp\cc5BNH7j.s:26357  .debug_str:0000000000013aa0 .LASF5346
C:\Users\CYMR90~1\AppData\Local\Temp\cc5BNH7j.s:31780  .debug_str:0000000000029589 .LASF5347
C:\Users\CYMR90~1\AppData\Local\Temp\cc5BNH7j.s:25505  .debug_str:0000000000010264 .LASF5348
C:\Users\CYMR90~1\AppData\Local\Temp\cc5BNH7j.s:24733  .debug_str:000000000000d1ee .LASF5349
C:\Users\CYMR90~1\AppData\Local\Temp\cc5BNH7j.s:29166  .debug_str:000000000001ef61 .LASF5350
C:\Users\CYMR90~1\AppData\Local\Temp\cc5BNH7j.s:32370  .debug_str:000000000002b980 .LASF5351
C:\Users\CYMR90~1\AppData\Local\Temp\cc5BNH7j.s:30122  .debug_str:00000000000229af .LASF5352
C:\Users\CYMR90~1\AppData\Local\Temp\cc5BNH7j.s:30270  .debug_str:00000000000231f7 .LASF5353
C:\Users\CYMR90~1\AppData\Local\Temp\cc5BNH7j.s:24275  .debug_str:000000000000b279 .LASF5354
C:\Users\CYMR90~1\AppData\Local\Temp\cc5BNH7j.s:30392  .debug_str:000000000002398a .LASF5355
C:\Users\CYMR90~1\AppData\Local\Temp\cc5BNH7j.s:30008  .debug_str:00000000000222a0 .LASF5356
C:\Users\CYMR90~1\AppData\Local\Temp\cc5BNH7j.s:27926  .debug_str:0000000000019f7a .LASF5357
C:\Users\CYMR90~1\AppData\Local\Temp\cc5BNH7j.s:27456  .debug_str:00000000000180ca .LASF5358
C:\Users\CYMR90~1\AppData\Local\Temp\cc5BNH7j.s:29878  .debug_str:0000000000021ade .LASF5359
C:\Users\CYMR90~1\AppData\Local\Temp\cc5BNH7j.s:31104  .debug_str:000000000002691f .LASF5360
C:\Users\CYMR90~1\AppData\Local\Temp\cc5BNH7j.s:23423  .debug_str:0000000000007b0d .LASF5361
C:\Users\CYMR90~1\AppData\Local\Temp\cc5BNH7j.s:22877  .debug_str:0000000000005854 .LASF5362
C:\Users\CYMR90~1\AppData\Local\Temp\cc5BNH7j.s:23179  .debug_str:0000000000006ae0 .LASF5363
C:\Users\CYMR90~1\AppData\Local\Temp\cc5BNH7j.s:24621  .debug_str:000000000000cacc .LASF5364
C:\Users\CYMR90~1\AppData\Local\Temp\cc5BNH7j.s:25967  .debug_str:0000000000012196 .LASF5365
C:\Users\CYMR90~1\AppData\Local\Temp\cc5BNH7j.s:24369  .debug_str:000000000000b948 .LASF5366
C:\Users\CYMR90~1\AppData\Local\Temp\cc5BNH7j.s:31384  .debug_str:0000000000027b7b .LASF5367
C:\Users\CYMR90~1\AppData\Local\Temp\cc5BNH7j.s:30978  .debug_str:0000000000026148 .LASF5368
C:\Users\CYMR90~1\AppData\Local\Temp\cc5BNH7j.s:26707  .debug_str:0000000000015070 .LASF5369
C:\Users\CYMR90~1\AppData\Local\Temp\cc5BNH7j.s:29324  .debug_str:000000000001f8b8 .LASF5370
C:\Users\CYMR90~1\AppData\Local\Temp\cc5BNH7j.s:28372  .debug_str:000000000001bd3e .LASF5371
C:\Users\CYMR90~1\AppData\Local\Temp\cc5BNH7j.s:32518  .debug_str:000000000002c3b1 .LASF5372
C:\Users\CYMR90~1\AppData\Local\Temp\cc5BNH7j.s:28820  .debug_str:000000000001da8a .LASF5373
C:\Users\CYMR90~1\AppData\Local\Temp\cc5BNH7j.s:28616  .debug_str:000000000001cd90 .LASF5374
C:\Users\CYMR90~1\AppData\Local\Temp\cc5BNH7j.s:29720  .debug_str:00000000000210ab .LASF5375
C:\Users\CYMR90~1\AppData\Local\Temp\cc5BNH7j.s:24697  .debug_str:000000000000cf58 .LASF5376
C:\Users\CYMR90~1\AppData\Local\Temp\cc5BNH7j.s:28768  .debug_str:000000000001d766 .LASF5377
C:\Users\CYMR90~1\AppData\Local\Temp\cc5BNH7j.s:27340  .debug_str:0000000000017a02 .LASF5378
C:\Users\CYMR90~1\AppData\Local\Temp\cc5BNH7j.s:26519  .debug_str:0000000000014463 .LASF5379
C:\Users\CYMR90~1\AppData\Local\Temp\cc5BNH7j.s:22231  .debug_str:0000000000002e5c .LASF5380
C:\Users\CYMR90~1\AppData\Local\Temp\cc5BNH7j.s:26715  .debug_str:00000000000150ee .LASF5381
C:\Users\CYMR90~1\AppData\Local\Temp\cc5BNH7j.s:24759  .debug_str:000000000000d400 .LASF5382
C:\Users\CYMR90~1\AppData\Local\Temp\cc5BNH7j.s:26387  .debug_str:0000000000013c8f .LASF5383
C:\Users\CYMR90~1\AppData\Local\Temp\cc5BNH7j.s:22161  .debug_str:0000000000002a1d .LASF5384
C:\Users\CYMR90~1\AppData\Local\Temp\cc5BNH7j.s:23963  .debug_str:0000000000009e6d .LASF5385
C:\Users\CYMR90~1\AppData\Local\Temp\cc5BNH7j.s:30718  .debug_str:0000000000024fb6 .LASF5386
C:\Users\CYMR90~1\AppData\Local\Temp\cc5BNH7j.s:28680  .debug_str:000000000001d1e8 .LASF5387
C:\Users\CYMR90~1\AppData\Local\Temp\cc5BNH7j.s:32600  .debug_str:000000000002c8f6 .LASF5388
C:\Users\CYMR90~1\AppData\Local\Temp\cc5BNH7j.s:26895  .debug_str:0000000000015b99 .LASF5389
C:\Users\CYMR90~1\AppData\Local\Temp\cc5BNH7j.s:23995  .debug_str:000000000000a058 .LASF5390
C:\Users\CYMR90~1\AppData\Local\Temp\cc5BNH7j.s:22563  .debug_str:0000000000004485 .LASF5391
C:\Users\CYMR90~1\AppData\Local\Temp\cc5BNH7j.s:29444  .debug_str:000000000001ffd3 .LASF5392
C:\Users\CYMR90~1\AppData\Local\Temp\cc5BNH7j.s:30814  .debug_str:000000000002570c .LASF5393
C:\Users\CYMR90~1\AppData\Local\Temp\cc5BNH7j.s:24597  .debug_str:000000000000c8ab .LASF5394
C:\Users\CYMR90~1\AppData\Local\Temp\cc5BNH7j.s:24025  .debug_str:000000000000a23d .LASF5395
C:\Users\CYMR90~1\AppData\Local\Temp\cc5BNH7j.s:28136  .debug_str:000000000001ae5e .LASF5396
C:\Users\CYMR90~1\AppData\Local\Temp\cc5BNH7j.s:25401  .debug_str:000000000000fbab .LASF5397
C:\Users\CYMR90~1\AppData\Local\Temp\cc5BNH7j.s:27616  .debug_str:0000000000018a7a .LASF5398
C:\Users\CYMR90~1\AppData\Local\Temp\cc5BNH7j.s:24565  .debug_str:000000000000c637 .LASF5399
C:\Users\CYMR90~1\AppData\Local\Temp\cc5BNH7j.s:24699  .debug_str:000000000000cf70 .LASF5400
C:\Users\CYMR90~1\AppData\Local\Temp\cc5BNH7j.s:25773  .debug_str:00000000000113a1 .LASF5401
C:\Users\CYMR90~1\AppData\Local\Temp\cc5BNH7j.s:28814  .debug_str:000000000001da29 .LASF5402
C:\Users\CYMR90~1\AppData\Local\Temp\cc5BNH7j.s:23755  .debug_str:0000000000009138 .LASF5403
C:\Users\CYMR90~1\AppData\Local\Temp\cc5BNH7j.s:23819  .debug_str:0000000000009547 .LASF5404
C:\Users\CYMR90~1\AppData\Local\Temp\cc5BNH7j.s:28704  .debug_str:000000000001d355 .LASF5405
C:\Users\CYMR90~1\AppData\Local\Temp\cc5BNH7j.s:27278  .debug_str:00000000000175d3 .LASF5406
C:\Users\CYMR90~1\AppData\Local\Temp\cc5BNH7j.s:30026  .debug_str:000000000002236e .LASF5407
C:\Users\CYMR90~1\AppData\Local\Temp\cc5BNH7j.s:21481  .debug_str:00000000000000a6 .LASF5408
C:\Users\CYMR90~1\AppData\Local\Temp\cc5BNH7j.s:29408  .debug_str:000000000001fde1 .LASF5409
C:\Users\CYMR90~1\AppData\Local\Temp\cc5BNH7j.s:32674  .debug_str:000000000002cda8 .LASF5410
C:\Users\CYMR90~1\AppData\Local\Temp\cc5BNH7j.s:28844  .debug_str:000000000001dbef .LASF5411
C:\Users\CYMR90~1\AppData\Local\Temp\cc5BNH7j.s:22929  .debug_str:0000000000005b77 .LASF5412
C:\Users\CYMR90~1\AppData\Local\Temp\cc5BNH7j.s:22099  .debug_str:00000000000025f9 .LASF5413
C:\Users\CYMR90~1\AppData\Local\Temp\cc5BNH7j.s:29640  .debug_str:0000000000020c45 .LASF5414
C:\Users\CYMR90~1\AppData\Local\Temp\cc5BNH7j.s:27928  .debug_str:0000000000019f91 .LASF5415
C:\Users\CYMR90~1\AppData\Local\Temp\cc5BNH7j.s:21571  .debug_str:00000000000005d6 .LASF5416
C:\Users\CYMR90~1\AppData\Local\Temp\cc5BNH7j.s:25995  .debug_str:000000000001230f .LASF5417
C:\Users\CYMR90~1\AppData\Local\Temp\cc5BNH7j.s:26417  .debug_str:0000000000013e1b .LASF5418
C:\Users\CYMR90~1\AppData\Local\Temp\cc5BNH7j.s:25965  .debug_str:000000000001217d .LASF5419
C:\Users\CYMR90~1\AppData\Local\Temp\cc5BNH7j.s:23051  .debug_str:00000000000062f9 .LASF5420
C:\Users\CYMR90~1\AppData\Local\Temp\cc5BNH7j.s:29144  .debug_str:000000000001edd4 .LASF5421
C:\Users\CYMR90~1\AppData\Local\Temp\cc5BNH7j.s:27292  .debug_str:00000000000176d8 .LASF5422
C:\Users\CYMR90~1\AppData\Local\Temp\cc5BNH7j.s:21827  .debug_str:0000000000001590 .LASF5423
C:\Users\CYMR90~1\AppData\Local\Temp\cc5BNH7j.s:29362  .debug_str:000000000001fb06 .LASF5424
C:\Users\CYMR90~1\AppData\Local\Temp\cc5BNH7j.s:22177  .debug_str:0000000000002b2b .LASF5425
C:\Users\CYMR90~1\AppData\Local\Temp\cc5BNH7j.s:30290  .debug_str:0000000000023315 .LASF5426
C:\Users\CYMR90~1\AppData\Local\Temp\cc5BNH7j.s:21783  .debug_str:00000000000012f6 .LASF5427
C:\Users\CYMR90~1\AppData\Local\Temp\cc5BNH7j.s:31140  .debug_str:0000000000026b2a .LASF5428
C:\Users\CYMR90~1\AppData\Local\Temp\cc5BNH7j.s:26949  .debug_str:0000000000015f6b .LASF5429
C:\Users\CYMR90~1\AppData\Local\Temp\cc5BNH7j.s:22393  .debug_str:000000000000392c .LASF5430
C:\Users\CYMR90~1\AppData\Local\Temp\cc5BNH7j.s:24239  .debug_str:000000000000b08e .LASF5431
C:\Users\CYMR90~1\AppData\Local\Temp\cc5BNH7j.s:30438  .debug_str:0000000000023c28 .LASF5432
C:\Users\CYMR90~1\AppData\Local\Temp\cc5BNH7j.s:22955  .debug_str:0000000000005d22 .LASF5433
C:\Users\CYMR90~1\AppData\Local\Temp\cc5BNH7j.s:31284  .debug_str:000000000002749a .LASF5434
C:\Users\CYMR90~1\AppData\Local\Temp\cc5BNH7j.s:23517  .debug_str:0000000000008242 .LASF5435
C:\Users\CYMR90~1\AppData\Local\Temp\cc5BNH7j.s:32244  .debug_str:000000000002b13a .LASF5436
C:\Users\CYMR90~1\AppData\Local\Temp\cc5BNH7j.s:29438  .debug_str:000000000001ff88 .LASF5437
C:\Users\CYMR90~1\AppData\Local\Temp\cc5BNH7j.s:27766  .debug_str:0000000000019502 .LASF5438
C:\Users\CYMR90~1\AppData\Local\Temp\cc5BNH7j.s:21707  .debug_str:0000000000000ed5 .LASF5439
C:\Users\CYMR90~1\AppData\Local\Temp\cc5BNH7j.s:29270  .debug_str:000000000001f581 .LASF5440
C:\Users\CYMR90~1\AppData\Local\Temp\cc5BNH7j.s:22903  .debug_str:00000000000059e0 .LASF5441
C:\Users\CYMR90~1\AppData\Local\Temp\cc5BNH7j.s:32212  .debug_str:000000000002aee2 .LASF5442
C:\Users\CYMR90~1\AppData\Local\Temp\cc5BNH7j.s:27013  .debug_str:0000000000016340 .LASF5443
C:\Users\CYMR90~1\AppData\Local\Temp\cc5BNH7j.s:26815  .debug_str:0000000000015689 .LASF5444
C:\Users\CYMR90~1\AppData\Local\Temp\cc5BNH7j.s:27838  .debug_str:0000000000019a37 .LASF5445
C:\Users\CYMR90~1\AppData\Local\Temp\cc5BNH7j.s:24299  .debug_str:000000000000b494 .LASF5446
C:\Users\CYMR90~1\AppData\Local\Temp\cc5BNH7j.s:30600  .debug_str:00000000000247cb .LASF5447
C:\Users\CYMR90~1\AppData\Local\Temp\cc5BNH7j.s:32190  .debug_str:000000000002ada2 .LASF5448
C:\Users\CYMR90~1\AppData\Local\Temp\cc5BNH7j.s:22441  .debug_str:0000000000003c29 .LASF5449
C:\Users\CYMR90~1\AppData\Local\Temp\cc5BNH7j.s:29068  .debug_str:000000000001e9be .LASF5450
C:\Users\CYMR90~1\AppData\Local\Temp\cc5BNH7j.s:28342  .debug_str:000000000001bb41 .LASF5451
C:\Users\CYMR90~1\AppData\Local\Temp\cc5BNH7j.s:26187  .debug_str:0000000000012f90 .LASF5452
C:\Users\CYMR90~1\AppData\Local\Temp\cc5BNH7j.s:31940  .debug_str:0000000000029ed1 .LASF5453
C:\Users\CYMR90~1\AppData\Local\Temp\cc5BNH7j.s:29850  .debug_str:000000000002190b .LASF5454
C:\Users\CYMR90~1\AppData\Local\Temp\cc5BNH7j.s:23841  .debug_str:000000000000967b .LASF5455
C:\Users\CYMR90~1\AppData\Local\Temp\cc5BNH7j.s:32582  .debug_str:000000000002c7cf .LASF5456
C:\Users\CYMR90~1\AppData\Local\Temp\cc5BNH7j.s:31652  .debug_str:0000000000028d69 .LASF5457
C:\Users\CYMR90~1\AppData\Local\Temp\cc5BNH7j.s:22273  .debug_str:000000000000312f .LASF5458
C:\Users\CYMR90~1\AppData\Local\Temp\cc5BNH7j.s:29802  .debug_str:0000000000021655 .LASF5459
C:\Users\CYMR90~1\AppData\Local\Temp\cc5BNH7j.s:32550  .debug_str:000000000002c58a .LASF5460
C:\Users\CYMR90~1\AppData\Local\Temp\cc5BNH7j.s:29044  .debug_str:000000000001e84e .LASF5461
C:\Users\CYMR90~1\AppData\Local\Temp\cc5BNH7j.s:31896  .debug_str:0000000000029c4a .LASF5462
C:\Users\CYMR90~1\AppData\Local\Temp\cc5BNH7j.s:26889  .debug_str:0000000000015b53 .LASF5463
C:\Users\CYMR90~1\AppData\Local\Temp\cc5BNH7j.s:28978  .debug_str:000000000001e424 .LASF5464
C:\Users\CYMR90~1\AppData\Local\Temp\cc5BNH7j.s:25293  .debug_str:000000000000f4aa .LASF5465
C:\Users\CYMR90~1\AppData\Local\Temp\cc5BNH7j.s:25281  .debug_str:000000000000f3fd .LASF5466
C:\Users\CYMR90~1\AppData\Local\Temp\cc5BNH7j.s:29342  .debug_str:000000000001f9d6 .LASF5467
C:\Users\CYMR90~1\AppData\Local\Temp\cc5BNH7j.s:31032  .debug_str:000000000002648f .LASF5468
C:\Users\CYMR90~1\AppData\Local\Temp\cc5BNH7j.s:21859  .debug_str:000000000000181e .LASF5469
C:\Users\CYMR90~1\AppData\Local\Temp\cc5BNH7j.s:27782  .debug_str:00000000000195f1 .LASF5470
C:\Users\CYMR90~1\AppData\Local\Temp\cc5BNH7j.s:21661  .debug_str:0000000000000bca .LASF5471
C:\Users\CYMR90~1\AppData\Local\Temp\cc5BNH7j.s:27097  .debug_str:0000000000016904 .LASF5472
C:\Users\CYMR90~1\AppData\Local\Temp\cc5BNH7j.s:21975  .debug_str:0000000000001ee5 .LASF5473
C:\Users\CYMR90~1\AppData\Local\Temp\cc5BNH7j.s:26885  .debug_str:0000000000015abd .LASF5474
C:\Users\CYMR90~1\AppData\Local\Temp\cc5BNH7j.s:25033  .debug_str:000000000000e4be .LASF5475
C:\Users\CYMR90~1\AppData\Local\Temp\cc5BNH7j.s:25775  .debug_str:00000000000113c3 .LASF5476
C:\Users\CYMR90~1\AppData\Local\Temp\cc5BNH7j.s:24173  .debug_str:000000000000ab9a .LASF5477
C:\Users\CYMR90~1\AppData\Local\Temp\cc5BNH7j.s:22485  .debug_str:0000000000003f0f .LASF5478
C:\Users\CYMR90~1\AppData\Local\Temp\cc5BNH7j.s:32300  .debug_str:000000000002b4c3 .LASF5479
C:\Users\CYMR90~1\AppData\Local\Temp\cc5BNH7j.s:24003  .debug_str:000000000000a0e4 .LASF5480
C:\Users\CYMR90~1\AppData\Local\Temp\cc5BNH7j.s:29584  .debug_str:00000000000208ba .LASF5481
C:\Users\CYMR90~1\AppData\Local\Temp\cc5BNH7j.s:30284  .debug_str:00000000000232bf .LASF5482
C:\Users\CYMR90~1\AppData\Local\Temp\cc5BNH7j.s:32336  .debug_str:000000000002b753 .LASF5483
C:\Users\CYMR90~1\AppData\Local\Temp\cc5BNH7j.s:21765  .debug_str:0000000000001202 .LASF5484
C:\Users\CYMR90~1\AppData\Local\Temp\cc5BNH7j.s:27170  .debug_str:0000000000016fa2 .LASF5485
C:\Users\CYMR90~1\AppData\Local\Temp\cc5BNH7j.s:29918  .debug_str:0000000000021d69 .LASF5486
C:\Users\CYMR90~1\AppData\Local\Temp\cc5BNH7j.s:28846  .debug_str:000000000001dc11 .LASF5487
C:\Users\CYMR90~1\AppData\Local\Temp\cc5BNH7j.s:25465  .debug_str:000000000000ffcc .LASF5488
C:\Users\CYMR90~1\AppData\Local\Temp\cc5BNH7j.s:30246  .debug_str:000000000002308e .LASF5489
C:\Users\CYMR90~1\AppData\Local\Temp\cc5BNH7j.s:28118  .debug_str:000000000001acf9 .LASF5490
C:\Users\CYMR90~1\AppData\Local\Temp\cc5BNH7j.s:24911  .debug_str:000000000000dd3f .LASF5491
C:\Users\CYMR90~1\AppData\Local\Temp\cc5BNH7j.s:26461  .debug_str:00000000000140e4 .LASF5492
C:\Users\CYMR90~1\AppData\Local\Temp\cc5BNH7j.s:31516  .debug_str:00000000000284e5 .LASF5493
C:\Users\CYMR90~1\AppData\Local\Temp\cc5BNH7j.s:32448  .debug_str:000000000002bece .LASF5494
C:\Users\CYMR90~1\AppData\Local\Temp\cc5BNH7j.s:25055  .debug_str:000000000000e658 .LASF5495
C:\Users\CYMR90~1\AppData\Local\Temp\cc5BNH7j.s:24067  .debug_str:000000000000a4f8 .LASF5496
C:\Users\CYMR90~1\AppData\Local\Temp\cc5BNH7j.s:26811  .debug_str:000000000001564d .LASF5497
C:\Users\CYMR90~1\AppData\Local\Temp\cc5BNH7j.s:21811  .debug_str:0000000000001497 .LASF5498
C:\Users\CYMR90~1\AppData\Local\Temp\cc5BNH7j.s:22555  .debug_str:00000000000043e8 .LASF5499
C:\Users\CYMR90~1\AppData\Local\Temp\cc5BNH7j.s:28030  .debug_str:000000000001a79c .LASF5500
C:\Users\CYMR90~1\AppData\Local\Temp\cc5BNH7j.s:28068  .debug_str:000000000001a9f8 .LASF5501
C:\Users\CYMR90~1\AppData\Local\Temp\cc5BNH7j.s:31580  .debug_str:000000000002892a .LASF5502
C:\Users\CYMR90~1\AppData\Local\Temp\cc5BNH7j.s:27788  .debug_str:000000000001968d .LASF5503
C:\Users\CYMR90~1\AppData\Local\Temp\cc5BNH7j.s:26433  .debug_str:0000000000013f0d .LASF5504
C:\Users\CYMR90~1\AppData\Local\Temp\cc5BNH7j.s:29456  .debug_str:0000000000020085 .LASF5505
C:\Users\CYMR90~1\AppData\Local\Temp\cc5BNH7j.s:28224  .debug_str:000000000001b43a .LASF5506
C:\Users\CYMR90~1\AppData\Local\Temp\cc5BNH7j.s:27168  .debug_str:0000000000016f7f .LASF5507
C:\Users\CYMR90~1\AppData\Local\Temp\cc5BNH7j.s:24311  .debug_str:000000000000b583 .LASF5508
C:\Users\CYMR90~1\AppData\Local\Temp\cc5BNH7j.s:25733  .debug_str:00000000000110f3 .LASF5509
C:\Users\CYMR90~1\AppData\Local\Temp\cc5BNH7j.s:30640  .debug_str:0000000000024a4d .LASF5510
C:\Users\CYMR90~1\AppData\Local\Temp\cc5BNH7j.s:24441  .debug_str:000000000000be76 .LASF5511
C:\Users\CYMR90~1\AppData\Local\Temp\cc5BNH7j.s:28116  .debug_str:000000000001ace1 .LASF5512
C:\Users\CYMR90~1\AppData\Local\Temp\cc5BNH7j.s:26223  .debug_str:00000000000131fd .LASF5513
C:\Users\CYMR90~1\AppData\Local\Temp\cc5BNH7j.s:22727  .debug_str:0000000000004f4b .LASF5514
C:\Users\CYMR90~1\AppData\Local\Temp\cc5BNH7j.s:32194  .debug_str:000000000002add4 .LASF5515
C:\Users\CYMR90~1\AppData\Local\Temp\cc5BNH7j.s:29304  .debug_str:000000000001f77b .LASF5516
C:\Users\CYMR90~1\AppData\Local\Temp\cc5BNH7j.s:31202  .debug_str:0000000000026f01 .LASF5517
C:\Users\CYMR90~1\AppData\Local\Temp\cc5BNH7j.s:29636  .debug_str:0000000000020c1a .LASF5518
C:\Users\CYMR90~1\AppData\Local\Temp\cc5BNH7j.s:32692  .debug_str:000000000002cedf .LASF5519
C:\Users\CYMR90~1\AppData\Local\Temp\cc5BNH7j.s:29662  .debug_str:0000000000020d6f .LASF5520
C:\Users\CYMR90~1\AppData\Local\Temp\cc5BNH7j.s:21969  .debug_str:0000000000001ea9 .LASF5521
C:\Users\CYMR90~1\AppData\Local\Temp\cc5BNH7j.s:28986  .debug_str:000000000001e4aa .LASF5522
C:\Users\CYMR90~1\AppData\Local\Temp\cc5BNH7j.s:22217  .debug_str:0000000000002d8a .LASF5523
C:\Users\CYMR90~1\AppData\Local\Temp\cc5BNH7j.s:26333  .debug_str:000000000001394e .LASF5524
C:\Users\CYMR90~1\AppData\Local\Temp\cc5BNH7j.s:32476  .debug_str:000000000002c09b .LASF5525
C:\Users\CYMR90~1\AppData\Local\Temp\cc5BNH7j.s:31108  .debug_str:0000000000026951 .LASF5526
C:\Users\CYMR90~1\AppData\Local\Temp\cc5BNH7j.s:22951  .debug_str:0000000000005cd9 .LASF5527
C:\Users\CYMR90~1\AppData\Local\Temp\cc5BNH7j.s:32166  .debug_str:000000000002ac4c .LASF5528
C:\Users\CYMR90~1\AppData\Local\Temp\cc5BNH7j.s:28728  .debug_str:000000000001d4cd .LASF5529
C:\Users\CYMR90~1\AppData\Local\Temp\cc5BNH7j.s:26373  .debug_str:0000000000013ba1 .LASF5530
C:\Users\CYMR90~1\AppData\Local\Temp\cc5BNH7j.s:25367  .debug_str:000000000000f997 .LASF5531
C:\Users\CYMR90~1\AppData\Local\Temp\cc5BNH7j.s:24509  .debug_str:000000000000c295 .LASF5532
C:\Users\CYMR90~1\AppData\Local\Temp\cc5BNH7j.s:28280  .debug_str:000000000001b7c6 .LASF5533
C:\Users\CYMR90~1\AppData\Local\Temp\cc5BNH7j.s:31506  .debug_str:0000000000028420 .LASF5534
C:\Users\CYMR90~1\AppData\Local\Temp\cc5BNH7j.s:27182  .debug_str:0000000000017054 .LASF5535
C:\Users\CYMR90~1\AppData\Local\Temp\cc5BNH7j.s:28272  .debug_str:000000000001b72a .LASF5536
C:\Users\CYMR90~1\AppData\Local\Temp\cc5BNH7j.s:22557  .debug_str:0000000000004409 .LASF5537
C:\Users\CYMR90~1\AppData\Local\Temp\cc5BNH7j.s:27374  .debug_str:0000000000017be4 .LASF5538
C:\Users\CYMR90~1\AppData\Local\Temp\cc5BNH7j.s:29856  .debug_str:0000000000021985 .LASF5539
C:\Users\CYMR90~1\AppData\Local\Temp\cc5BNH7j.s:29060  .debug_str:000000000001e936 .LASF5540
C:\Users\CYMR90~1\AppData\Local\Temp\cc5BNH7j.s:28736  .debug_str:000000000001d51c .LASF5541
C:\Users\CYMR90~1\AppData\Local\Temp\cc5BNH7j.s:24809  .debug_str:000000000000d715 .LASF5542
C:\Users\CYMR90~1\AppData\Local\Temp\cc5BNH7j.s:30440  .debug_str:0000000000023c5f .LASF5543
C:\Users\CYMR90~1\AppData\Local\Temp\cc5BNH7j.s:25241  .debug_str:000000000000f172 .LASF5544
C:\Users\CYMR90~1\AppData\Local\Temp\cc5BNH7j.s:22433  .debug_str:0000000000003b9f .LASF5545
C:\Users\CYMR90~1\AppData\Local\Temp\cc5BNH7j.s:27636  .debug_str:0000000000018c4f .LASF5546
C:\Users\CYMR90~1\AppData\Local\Temp\cc5BNH7j.s:21947  .debug_str:0000000000001d4a .LASF5547
C:\Users\CYMR90~1\AppData\Local\Temp\cc5BNH7j.s:32700  .debug_str:000000000002cf5a .LASF5548
C:\Users\CYMR90~1\AppData\Local\Temp\cc5BNH7j.s:26639  .debug_str:0000000000014bcd .LASF5549
C:\Users\CYMR90~1\AppData\Local\Temp\cc5BNH7j.s:26545  .debug_str:000000000001462d .LASF5550
C:\Users\CYMR90~1\AppData\Local\Temp\cc5BNH7j.s:24437  .debug_str:000000000000be33 .LASF5551
C:\Users\CYMR90~1\AppData\Local\Temp\cc5BNH7j.s:24891  .debug_str:000000000000dbbe .LASF5552
C:\Users\CYMR90~1\AppData\Local\Temp\cc5BNH7j.s:30338  .debug_str:000000000002367f .LASF5553
C:\Users\CYMR90~1\AppData\Local\Temp\cc5BNH7j.s:27224  .debug_str:00000000000172a7 .LASF5554
C:\Users\CYMR90~1\AppData\Local\Temp\cc5BNH7j.s:26329  .debug_str:0000000000013904 .LASF5555
                           .group:0000000000000000 wm4.0.10abbef32179bc1260444192115bdf5e
                           .group:0000000000000000 wm4.stddef.h.39.144cf5ddcd53cbfdac30259dc1a6c87f
                           .group:0000000000000000 wm4._newlib_version.h.4.bfdf54b0af045d4a71376ae00f63a22c
                           .group:0000000000000000 wm4.newlib.h.18.08a2ecba46890ca2aa56bbe21686e6c3
                           .group:0000000000000000 wm4.ieeefp.h.202.4f2759f5758fd82153cfbf98692f2ced
                           .group:0000000000000000 wm4.features.h.22.fad1cec3bc7ff06488171438dbdcfd02
                           .group:0000000000000000 wm4.config.h.83.13bbc8852bfac55b724c9822481355b5
                           .group:0000000000000000 wm4._ansi.h.31.de524f58584151836e90d8620a16f8e8
                           .group:0000000000000000 wm4.stdio.h.31.7c0e28c411445f3f9c5b11accf882760
                           .group:0000000000000000 wm4._default_types.h.6.959254cf5f09734ea7516c89e8bb21bd
                           .group:0000000000000000 wm4.stddef.h.155.ba788add86a0e365f264484f110c3c29
                           .group:0000000000000000 wm4.cdefs.h.49.39045112216f6a021dbdffe3bf5accce
                           .group:0000000000000000 wm4.stdarg.h.34.3a23a216c0c293b3d2ea2e89281481e6
                           .group:0000000000000000 wm4._types.h.20.dd0d04dca3800a0d2a6129b87f3adbb2
                           .group:0000000000000000 wm4.stddef.h.155.3588ebfdd1e8c7ede80509bb9c3b8009
                           .group:0000000000000000 wm4._types.h.127.34941de1b2539d59d5cac00e0dd27a45
                           .group:0000000000000000 wm4.reent.h.17.e292bf8b0bec6c96e131a54347145a30
                           .group:0000000000000000 wm4.lock.h.2.c0958401bd0ce484d507ee19aacab817
                           .group:0000000000000000 wm4.reent.h.77.dcd6129ff07fe81bd5636db29abe53b2
                           .group:0000000000000000 wm4.types.h.40.8b6acba56cefbb11746718204edc8f5e
                           .group:0000000000000000 wm4._stdint.h.10.c24fa3af3bc1706662bb5593a907e841
                           .group:0000000000000000 wm4._endian.h.18.1bf9649e8e5bbc91042012680270b9ed
                           .group:0000000000000000 wm4.endian.h.9.49f3a4695c1b61e8a0808de3c4a106cb
                           .group:0000000000000000 wm4._timeval.h.32.bec3221fa7a9bb0bdde696c9c57e47d2
                           .group:0000000000000000 wm4.timespec.h.41.d855182eb0e690443ab8651bcedca6e1
                           .group:0000000000000000 wm4.select.h.19.40cd3f2bfc456b193b790c2754690ebf
                           .group:0000000000000000 wm4.types.h.51.5571ec98f267d17d3c670b7a3ba33afa
                           .group:0000000000000000 wm4.sched.h.22.c60982713a5c428609783c78f9c78d95
                           .group:0000000000000000 wm4._pthreadtypes.h.36.fcee9961c35163dde6267ef772ad1972
                           .group:0000000000000000 wm4.stdio.h.2.4aa87247282eca6c8f36f9de33d8df1a
                           .group:0000000000000000 wm4.stdio.h.81.932d0c162786b883f622b8d05c120c78
                           .group:0000000000000000 wm4.gd32vw55x.h.47.379378190858578060a317909b2c8d8a
                           .group:0000000000000000 wm4._intsup.h.10.48bafbb683905c4daa4565a85aeeb264
                           .group:0000000000000000 wm4.stdint.h.23.d53047a68f4a85177f80b422d52785ed
                           .group:0000000000000000 wm4.nmsis_version.h.19.ffa173da8efb17b1050904994d6f500e
                           .group:0000000000000000 wm4.riscv_bits.h.19.ee94eb3d39937793d4cd0a62363e5d00
                           .group:0000000000000000 wm4.riscv_encoding.h.35.f5d37fad7abbab8278b4bb6f1e32fa65
                           .group:0000000000000000 wm4.nmsis_gcc.h.61.5d70d7598ffc79c3c991d847a574cf23
                           .group:0000000000000000 wm4.core_feature_base.h.20.e99d3e75c26a8f3341d35bf20d0e1d20
                           .group:0000000000000000 wm4.core_feature_fpu.h.19.695f2200274659b530cb97cda749ff4f
                           .group:0000000000000000 wm4.core_feature_dsp.h.19.e8f8d7aa42f197807aefedb6584486cd
                           .group:0000000000000000 wm4.core_compatiable.h.19.5b8282d61b1f6889a82895616b730084
                           .group:0000000000000000 wm4.core_feature_eclic.h.19.e0c091d0cbda79e8b3b031b979ebd5a1
                           .group:0000000000000000 wm4.core_feature_timer.h.19.21a5151282de34c37dfa6d84e262aa54
                           .group:0000000000000000 wm4.system_gd32vw55x.h.32.f1fcb1212d387c35ac955b0e96ada468
                           .group:0000000000000000 wm4.gd32vw55x.h.231.3529c650aff38c9372f7e03177fd2c8a
                           .group:0000000000000000 wm4.gd32vw55x_adc.h.42.ae73acec1704ef509ccecb41a875b50e
                           .group:0000000000000000 wm4.gd32vw55x_cau.h.36.c98428fe1eae7edb4721da5c8078c974
                           .group:0000000000000000 wm4.gd32vw55x_crc.h.37.c58f296814c2300a4b067c08bd88d54e
                           .group:0000000000000000 wm4.gd32vw55x_dbg.h.36.311650c8545549d482ceca8befc5a232
                           .group:0000000000000000 wm4.gd32vw55x_dma.h.36.f4adc751172b2a7b1533dda72e948737
                           .group:0000000000000000 wm4.gd32vw55x_eclic.h.36.0411499f2b2493c67246e32ccae096c1
                           .group:0000000000000000 wm4.gd32vw55x_efuse.h.36.091404cecbab70359dfd93faec5fdb62
                           .group:0000000000000000 wm4.gd32vw55x_exti.h.36.de7508334dd12f1a6a673521a1a835f5
                           .group:0000000000000000 wm4.gd32vw55x_fmc.h.36.a4b0b94c47ffe23a2fa09260c5ed4850
                           .group:0000000000000000 wm4.gd32vw55x_fwdgt.h.36.4846b6900fd24b5bfce4986c9a8ce677
                           .group:0000000000000000 wm4.gd32vw55x_gpio.h.36.adfee1371bb58d3d9043c47bdb25a90f
                           .group:0000000000000000 wm4.gd32vw55x_i2c.h.36.3848990933925e084eb427083790c53f
                           .group:0000000000000000 wm4.gd32vw55x_pkcau.h.36.bb2235f4cf4967063a51bfa9aca5ef27
                           .group:0000000000000000 wm4.gd32vw55x_pmu.h.36.4c76091f1415551526d489ccf2c42052
                           .group:0000000000000000 wm4.gd32vw55x_qspi.h.36.2d2c181cfe19b935a9641008fc786613
                           .group:0000000000000000 wm4.gd32vw55x_rcu.h.36.780a8a45c00d563711cceb445027ef47
                           .group:0000000000000000 wm4.gd32vw55x_rtc.h.36.3172855e8715659e080e0eab46fdf175
                           .group:0000000000000000 wm4.gd32vw55x_spi.h.36.9fa1be2b09fb73e4b5886e97f0e96d58
                           .group:0000000000000000 wm4.gd32vw55x_syscfg.h.36.010551f05591f5e34051d2e15df0352b
                           .group:0000000000000000 wm4.gd32vw55x_timer.h.38.2cbee78ea60d47145be361b2d2c55070
                           .group:0000000000000000 wm4.gd32vw55x_trng.h.36.c9e7807af1b1ab68d3bbb54f4ed5cd73
                           .group:0000000000000000 wm4.gd32vw55x_usart.h.36.f5c497cca17945a34f154b0e17017d02
                           .group:0000000000000000 wm4.gd32vw55x_wwdgt.h.36.f7a443b7302efc0e5c335888582ee197
                           .group:0000000000000000 wm4.gd32vw55x_hau.h.41.c15834d7deff02978f8681be035d2e9b

UNDEFINED SYMBOLS
hau_digest_read
hau_deinit
hau_init
hau_last_word_validbits_num_config
hau_data_write
hau_digest_calculation_enable
hau_flag_get
