   1              		.file	"gd32vw55x_spi.c"
   2              		.option nopic
   3              		.attribute arch, "rv32i2p0_m2p0_a2p0_c2p0"
   4              		.attribute unaligned_access, 0
   5              		.attribute stack_align, 16
   6              		.text
   7              	.Ltext0:
   8              		.cfi_sections	.debug_frame
   9              		.section	.text.spi_deinit,"ax",@progbits
  10              		.align	1
  11              		.globl	spi_deinit
  13              	spi_deinit:
  14              	.LFB347:
  15              		.file 1 "../Firmware/GD32VW55x_standard_peripheral/Source/gd32vw55x_spi.c"
   1:../Firmware/GD32VW55x_standard_peripheral/Source/gd32vw55x_spi.c **** /*!
   2:../Firmware/GD32VW55x_standard_peripheral/Source/gd32vw55x_spi.c ****     \file    gd32vw55x_spi.c
   3:../Firmware/GD32VW55x_standard_peripheral/Source/gd32vw55x_spi.c ****     \brief   SPI driver
   4:../Firmware/GD32VW55x_standard_peripheral/Source/gd32vw55x_spi.c **** 
   5:../Firmware/GD32VW55x_standard_peripheral/Source/gd32vw55x_spi.c ****     \version 2025-01-16, V1.4.0, firmware for GD32VW55x
   6:../Firmware/GD32VW55x_standard_peripheral/Source/gd32vw55x_spi.c **** */
   7:../Firmware/GD32VW55x_standard_peripheral/Source/gd32vw55x_spi.c **** 
   8:../Firmware/GD32VW55x_standard_peripheral/Source/gd32vw55x_spi.c **** /*
   9:../Firmware/GD32VW55x_standard_peripheral/Source/gd32vw55x_spi.c ****     Copyright (c) 2025, GigaDevice Semiconductor Inc.
  10:../Firmware/GD32VW55x_standard_peripheral/Source/gd32vw55x_spi.c **** 
  11:../Firmware/GD32VW55x_standard_peripheral/Source/gd32vw55x_spi.c ****     Redistribution and use in source and binary forms, with or without modification,
  12:../Firmware/GD32VW55x_standard_peripheral/Source/gd32vw55x_spi.c **** are permitted provided that the following conditions are met:
  13:../Firmware/GD32VW55x_standard_peripheral/Source/gd32vw55x_spi.c **** 
  14:../Firmware/GD32VW55x_standard_peripheral/Source/gd32vw55x_spi.c ****     1. Redistributions of source code must retain the above copyright notice, this
  15:../Firmware/GD32VW55x_standard_peripheral/Source/gd32vw55x_spi.c ****        list of conditions and the following disclaimer.
  16:../Firmware/GD32VW55x_standard_peripheral/Source/gd32vw55x_spi.c ****     2. Redistributions in binary form must reproduce the above copyright notice,
  17:../Firmware/GD32VW55x_standard_peripheral/Source/gd32vw55x_spi.c ****        this list of conditions and the following disclaimer in the documentation
  18:../Firmware/GD32VW55x_standard_peripheral/Source/gd32vw55x_spi.c ****        and/or other materials provided with the distribution.
  19:../Firmware/GD32VW55x_standard_peripheral/Source/gd32vw55x_spi.c ****     3. Neither the name of the copyright holder nor the names of its contributors
  20:../Firmware/GD32VW55x_standard_peripheral/Source/gd32vw55x_spi.c ****        may be used to endorse or promote products derived from this software without
  21:../Firmware/GD32VW55x_standard_peripheral/Source/gd32vw55x_spi.c ****        specific prior written permission.
  22:../Firmware/GD32VW55x_standard_peripheral/Source/gd32vw55x_spi.c **** 
  23:../Firmware/GD32VW55x_standard_peripheral/Source/gd32vw55x_spi.c ****     THIS SOFTWARE IS PROVIDED BY THE COPYRIGHT HOLDERS AND CONTRIBUTORS "AS IS"
  24:../Firmware/GD32VW55x_standard_peripheral/Source/gd32vw55x_spi.c **** AND ANY EXPRESS OR IMPLIED WARRANTIES, INCLUDING, BUT NOT LIMITED TO, THE IMPLIED
  25:../Firmware/GD32VW55x_standard_peripheral/Source/gd32vw55x_spi.c **** WARRANTIES OF MERCHANTABILITY AND FITNESS FOR A PARTICULAR PURPOSE ARE DISCLAIMED.
  26:../Firmware/GD32VW55x_standard_peripheral/Source/gd32vw55x_spi.c **** IN NO EVENT SHALL THE COPYRIGHT HOLDER OR CONTRIBUTORS BE LIABLE FOR ANY DIRECT,
  27:../Firmware/GD32VW55x_standard_peripheral/Source/gd32vw55x_spi.c **** INDIRECT, INCIDENTAL, SPECIAL, EXEMPLARY, OR CONSEQUENTIAL DAMAGES (INCLUDING, BUT
  28:../Firmware/GD32VW55x_standard_peripheral/Source/gd32vw55x_spi.c **** NOT LIMITED TO, PROCUREMENT OF SUBSTITUTE GOODS OR SERVICES; LOSS OF USE, DATA, OR
  29:../Firmware/GD32VW55x_standard_peripheral/Source/gd32vw55x_spi.c **** PROFITS; OR BUSINESS INTERRUPTION) HOWEVER CAUSED AND ON ANY THEORY OF LIABILITY,
  30:../Firmware/GD32VW55x_standard_peripheral/Source/gd32vw55x_spi.c **** WHETHER IN CONTRACT, STRICT LIABILITY, OR TORT (INCLUDING NEGLIGENCE OR OTHERWISE)
  31:../Firmware/GD32VW55x_standard_peripheral/Source/gd32vw55x_spi.c **** ARISING IN ANY WAY OUT OF THE USE OF THIS SOFTWARE, EVEN IF ADVISED OF THE POSSIBILITY
  32:../Firmware/GD32VW55x_standard_peripheral/Source/gd32vw55x_spi.c **** OF SUCH DAMAGE.
  33:../Firmware/GD32VW55x_standard_peripheral/Source/gd32vw55x_spi.c **** */
  34:../Firmware/GD32VW55x_standard_peripheral/Source/gd32vw55x_spi.c **** 
  35:../Firmware/GD32VW55x_standard_peripheral/Source/gd32vw55x_spi.c **** #include "gd32vw55x_spi.h"
  36:../Firmware/GD32VW55x_standard_peripheral/Source/gd32vw55x_spi.c **** 
  37:../Firmware/GD32VW55x_standard_peripheral/Source/gd32vw55x_spi.c **** /* SPI parameter initialization mask */
  38:../Firmware/GD32VW55x_standard_peripheral/Source/gd32vw55x_spi.c **** #define SPI_INIT_MASK                ((uint32_t)0x00003040U)
  39:../Firmware/GD32VW55x_standard_peripheral/Source/gd32vw55x_spi.c **** 
  40:../Firmware/GD32VW55x_standard_peripheral/Source/gd32vw55x_spi.c **** /*!
  41:../Firmware/GD32VW55x_standard_peripheral/Source/gd32vw55x_spi.c ****     \brief      reset SPI
  42:../Firmware/GD32VW55x_standard_peripheral/Source/gd32vw55x_spi.c ****     \param[in]  none
  43:../Firmware/GD32VW55x_standard_peripheral/Source/gd32vw55x_spi.c ****     \param[out] none
  44:../Firmware/GD32VW55x_standard_peripheral/Source/gd32vw55x_spi.c ****     \retval     none
  45:../Firmware/GD32VW55x_standard_peripheral/Source/gd32vw55x_spi.c **** */
  46:../Firmware/GD32VW55x_standard_peripheral/Source/gd32vw55x_spi.c **** void spi_deinit(void)
  47:../Firmware/GD32VW55x_standard_peripheral/Source/gd32vw55x_spi.c **** {
  16              		.loc 1 47 1
  17              		.cfi_startproc
  18 0000 4111     		addi	sp,sp,-16
  19              		.cfi_def_cfa_offset 16
  20 0002 06C6     		sw	ra,12(sp)
  21 0004 22C4     		sw	s0,8(sp)
  22              		.cfi_offset 1, -4
  23              		.cfi_offset 8, -8
  24 0006 0008     		addi	s0,sp,16
  25              		.cfi_def_cfa 8, 0
  48:../Firmware/GD32VW55x_standard_peripheral/Source/gd32vw55x_spi.c ****     /* reset SPI0 */
  49:../Firmware/GD32VW55x_standard_peripheral/Source/gd32vw55x_spi.c ****     rcu_periph_reset_enable(RCU_SPIRST);
  26              		.loc 1 49 5
  27 0008 8567     		li	a5,4096
  28 000a 1385C790 		addi	a0,a5,-1780
  29 000e 97000000 		call	rcu_periph_reset_enable
  29      E7800000 
  50:../Firmware/GD32VW55x_standard_peripheral/Source/gd32vw55x_spi.c ****     rcu_periph_reset_disable(RCU_SPIRST);
  30              		.loc 1 50 5
  31 0016 8567     		li	a5,4096
  32 0018 1385C790 		addi	a0,a5,-1780
  33 001c 97000000 		call	rcu_periph_reset_disable
  33      E7800000 
  51:../Firmware/GD32VW55x_standard_peripheral/Source/gd32vw55x_spi.c **** }
  34              		.loc 1 51 1
  35 0024 0100     		nop
  36 0026 B240     		lw	ra,12(sp)
  37              		.cfi_restore 1
  38 0028 2244     		lw	s0,8(sp)
  39              		.cfi_restore 8
  40              		.cfi_def_cfa 2, 16
  41 002a 4101     		addi	sp,sp,16
  42              		.cfi_def_cfa_offset 0
  43 002c 8280     		jr	ra
  44              		.cfi_endproc
  45              	.LFE347:
  47              		.section	.text.spi_struct_para_init,"ax",@progbits
  48              		.align	1
  49              		.globl	spi_struct_para_init
  51              	spi_struct_para_init:
  52              	.LFB348:
  52:../Firmware/GD32VW55x_standard_peripheral/Source/gd32vw55x_spi.c **** 
  53:../Firmware/GD32VW55x_standard_peripheral/Source/gd32vw55x_spi.c **** /*!
  54:../Firmware/GD32VW55x_standard_peripheral/Source/gd32vw55x_spi.c ****     \brief      initialize the parameters of SPI structure with default values
  55:../Firmware/GD32VW55x_standard_peripheral/Source/gd32vw55x_spi.c ****     \param[in]  none
  56:../Firmware/GD32VW55x_standard_peripheral/Source/gd32vw55x_spi.c ****     \param[out] spi_parameter_struct: the initialized structure spi_parameter_struct pointer
  57:../Firmware/GD32VW55x_standard_peripheral/Source/gd32vw55x_spi.c ****     \retval     none
  58:../Firmware/GD32VW55x_standard_peripheral/Source/gd32vw55x_spi.c **** */
  59:../Firmware/GD32VW55x_standard_peripheral/Source/gd32vw55x_spi.c **** void spi_struct_para_init(spi_parameter_struct *spi_struct)
  60:../Firmware/GD32VW55x_standard_peripheral/Source/gd32vw55x_spi.c **** {
  53              		.loc 1 60 1
  54              		.cfi_startproc
  55 0000 0111     		addi	sp,sp,-32
  56              		.cfi_def_cfa_offset 32
  57 0002 22CE     		sw	s0,28(sp)
  58              		.cfi_offset 8, -4
  59 0004 0010     		addi	s0,sp,32
  60              		.cfi_def_cfa 8, 0
  61 0006 2326A4FE 		sw	a0,-20(s0)
  61:../Firmware/GD32VW55x_standard_peripheral/Source/gd32vw55x_spi.c ****     /* configure the structure with default value */
  62:../Firmware/GD32VW55x_standard_peripheral/Source/gd32vw55x_spi.c ****     spi_struct->device_mode          = SPI_SLAVE;
  62              		.loc 1 62 38
  63 000a 8327C4FE 		lw	a5,-20(s0)
  64 000e 23A00700 		sw	zero,0(a5)
  63:../Firmware/GD32VW55x_standard_peripheral/Source/gd32vw55x_spi.c ****     spi_struct->trans_mode           = SPI_TRANSMODE_FULLDUPLEX;
  65              		.loc 1 63 38
  66 0012 8327C4FE 		lw	a5,-20(s0)
  67 0016 23A20700 		sw	zero,4(a5)
  64:../Firmware/GD32VW55x_standard_peripheral/Source/gd32vw55x_spi.c ****     spi_struct->frame_size           = SPI_FRAMESIZE_8BIT;
  68              		.loc 1 64 38
  69 001a 8327C4FE 		lw	a5,-20(s0)
  70 001e 23A40700 		sw	zero,8(a5)
  65:../Firmware/GD32VW55x_standard_peripheral/Source/gd32vw55x_spi.c ****     spi_struct->nss                  = SPI_NSS_HARD;
  71              		.loc 1 65 38
  72 0022 8327C4FE 		lw	a5,-20(s0)
  73 0026 23A60700 		sw	zero,12(a5)
  66:../Firmware/GD32VW55x_standard_peripheral/Source/gd32vw55x_spi.c ****     spi_struct->clock_polarity_phase = SPI_CK_PL_LOW_PH_1EDGE;
  74              		.loc 1 66 38
  75 002a 8327C4FE 		lw	a5,-20(s0)
  76 002e 23AA0700 		sw	zero,20(a5)
  67:../Firmware/GD32VW55x_standard_peripheral/Source/gd32vw55x_spi.c ****     spi_struct->prescale             = SPI_PSC_2;
  77              		.loc 1 67 38
  78 0032 8327C4FE 		lw	a5,-20(s0)
  79 0036 23AC0700 		sw	zero,24(a5)
  68:../Firmware/GD32VW55x_standard_peripheral/Source/gd32vw55x_spi.c ****     spi_struct->endian               = SPI_ENDIAN_MSB;
  80              		.loc 1 68 38
  81 003a 8327C4FE 		lw	a5,-20(s0)
  82 003e 23A80700 		sw	zero,16(a5)
  69:../Firmware/GD32VW55x_standard_peripheral/Source/gd32vw55x_spi.c **** }
  83              		.loc 1 69 1
  84 0042 0100     		nop
  85 0044 7244     		lw	s0,28(sp)
  86              		.cfi_restore 8
  87              		.cfi_def_cfa 2, 32
  88 0046 0561     		addi	sp,sp,32
  89              		.cfi_def_cfa_offset 0
  90 0048 8280     		jr	ra
  91              		.cfi_endproc
  92              	.LFE348:
  94              		.section	.text.spi_init,"ax",@progbits
  95              		.align	1
  96              		.globl	spi_init
  98              	spi_init:
  99              	.LFB349:
  70:../Firmware/GD32VW55x_standard_peripheral/Source/gd32vw55x_spi.c **** 
  71:../Firmware/GD32VW55x_standard_peripheral/Source/gd32vw55x_spi.c **** /*!
  72:../Firmware/GD32VW55x_standard_peripheral/Source/gd32vw55x_spi.c ****     \brief      initialize SPI parameter
  73:../Firmware/GD32VW55x_standard_peripheral/Source/gd32vw55x_spi.c ****     \param[in]  spi_struct: SPI parameter initialization stucture members of the structure
  74:../Firmware/GD32VW55x_standard_peripheral/Source/gd32vw55x_spi.c ****                             and the member values are shown as below:
  75:../Firmware/GD32VW55x_standard_peripheral/Source/gd32vw55x_spi.c ****                   device_mode: SPI_MASTER, SPI_SLAVE
  76:../Firmware/GD32VW55x_standard_peripheral/Source/gd32vw55x_spi.c ****                   trans_mode: SPI_TRANSMODE_FULLDUPLEX, SPI_TRANSMODE_RECEIVEONLY,
  77:../Firmware/GD32VW55x_standard_peripheral/Source/gd32vw55x_spi.c ****                               SPI_TRANSMODE_BDRECEIVE, SPI_TRANSMODE_BDTRANSMIT
  78:../Firmware/GD32VW55x_standard_peripheral/Source/gd32vw55x_spi.c ****                   frame_size: SPI_FRAMESIZE_16BIT, SPI_FRAMESIZE_8BIT
  79:../Firmware/GD32VW55x_standard_peripheral/Source/gd32vw55x_spi.c ****                   nss: SPI_NSS_SOFT, SPI_NSS_HARD
  80:../Firmware/GD32VW55x_standard_peripheral/Source/gd32vw55x_spi.c ****                   endian: SPI_ENDIAN_MSB, SPI_ENDIAN_LSB
  81:../Firmware/GD32VW55x_standard_peripheral/Source/gd32vw55x_spi.c ****                   clock_polarity_phase: SPI_CK_PL_LOW_PH_1EDGE, SPI_CK_PL_HIGH_PH_1EDGE
  82:../Firmware/GD32VW55x_standard_peripheral/Source/gd32vw55x_spi.c ****                                         SPI_CK_PL_LOW_PH_2EDGE, SPI_CK_PL_HIGH_PH_2EDGE
  83:../Firmware/GD32VW55x_standard_peripheral/Source/gd32vw55x_spi.c ****                   prescale: SPI_PSC_n (n=2,4,8,16,32,64,128,256)
  84:../Firmware/GD32VW55x_standard_peripheral/Source/gd32vw55x_spi.c ****     \param[out] none
  85:../Firmware/GD32VW55x_standard_peripheral/Source/gd32vw55x_spi.c ****     \retval     none
  86:../Firmware/GD32VW55x_standard_peripheral/Source/gd32vw55x_spi.c **** */
  87:../Firmware/GD32VW55x_standard_peripheral/Source/gd32vw55x_spi.c **** void spi_init(spi_parameter_struct* spi_struct)
  88:../Firmware/GD32VW55x_standard_peripheral/Source/gd32vw55x_spi.c **** {
 100              		.loc 1 88 1
 101              		.cfi_startproc
 102 0000 7971     		addi	sp,sp,-48
 103              		.cfi_def_cfa_offset 48
 104 0002 22D6     		sw	s0,44(sp)
 105              		.cfi_offset 8, -4
 106 0004 0018     		addi	s0,sp,48
 107              		.cfi_def_cfa 8, 0
 108 0006 232EA4FC 		sw	a0,-36(s0)
  89:../Firmware/GD32VW55x_standard_peripheral/Source/gd32vw55x_spi.c ****     uint32_t reg = 0U;
 109              		.loc 1 89 14
 110 000a 232604FE 		sw	zero,-20(s0)
  90:../Firmware/GD32VW55x_standard_peripheral/Source/gd32vw55x_spi.c ****     reg = SPI_CTL0;
 111              		.loc 1 90 11
 112 000e B7370140 		li	a5,1073819648
 113              		.loc 1 90 9
 114 0012 9C43     		lw	a5,0(a5)
 115 0014 2326F4FE 		sw	a5,-20(s0)
  91:../Firmware/GD32VW55x_standard_peripheral/Source/gd32vw55x_spi.c ****     reg &= SPI_INIT_MASK;
 116              		.loc 1 91 9
 117 0018 0327C4FE 		lw	a4,-20(s0)
 118 001c 8D67     		li	a5,12288
 119 001e 93870704 		addi	a5,a5,64
 120 0022 F98F     		and	a5,a4,a5
 121 0024 2326F4FE 		sw	a5,-20(s0)
  92:../Firmware/GD32VW55x_standard_peripheral/Source/gd32vw55x_spi.c **** 
  93:../Firmware/GD32VW55x_standard_peripheral/Source/gd32vw55x_spi.c ****     /* select SPI as master or slave */
  94:../Firmware/GD32VW55x_standard_peripheral/Source/gd32vw55x_spi.c ****     reg |= spi_struct->device_mode;
 122              		.loc 1 94 22
 123 0028 8327C4FD 		lw	a5,-36(s0)
 124 002c 9C43     		lw	a5,0(a5)
 125              		.loc 1 94 9
 126 002e 0327C4FE 		lw	a4,-20(s0)
 127 0032 D98F     		or	a5,a4,a5
 128 0034 2326F4FE 		sw	a5,-20(s0)
  95:../Firmware/GD32VW55x_standard_peripheral/Source/gd32vw55x_spi.c ****     /* select SPI transfer mode */
  96:../Firmware/GD32VW55x_standard_peripheral/Source/gd32vw55x_spi.c ****     reg |= spi_struct->trans_mode;
 129              		.loc 1 96 22
 130 0038 8327C4FD 		lw	a5,-36(s0)
 131 003c DC43     		lw	a5,4(a5)
 132              		.loc 1 96 9
 133 003e 0327C4FE 		lw	a4,-20(s0)
 134 0042 D98F     		or	a5,a4,a5
 135 0044 2326F4FE 		sw	a5,-20(s0)
  97:../Firmware/GD32VW55x_standard_peripheral/Source/gd32vw55x_spi.c ****     /* select SPI frame size */
  98:../Firmware/GD32VW55x_standard_peripheral/Source/gd32vw55x_spi.c ****     reg |= spi_struct->frame_size;
 136              		.loc 1 98 22
 137 0048 8327C4FD 		lw	a5,-36(s0)
 138 004c 9C47     		lw	a5,8(a5)
 139              		.loc 1 98 9
 140 004e 0327C4FE 		lw	a4,-20(s0)
 141 0052 D98F     		or	a5,a4,a5
 142 0054 2326F4FE 		sw	a5,-20(s0)
  99:../Firmware/GD32VW55x_standard_peripheral/Source/gd32vw55x_spi.c ****     /* select SPI NSS use hardware or software */
 100:../Firmware/GD32VW55x_standard_peripheral/Source/gd32vw55x_spi.c ****     reg |= spi_struct->nss;
 143              		.loc 1 100 22
 144 0058 8327C4FD 		lw	a5,-36(s0)
 145 005c DC47     		lw	a5,12(a5)
 146              		.loc 1 100 9
 147 005e 0327C4FE 		lw	a4,-20(s0)
 148 0062 D98F     		or	a5,a4,a5
 149 0064 2326F4FE 		sw	a5,-20(s0)
 101:../Firmware/GD32VW55x_standard_peripheral/Source/gd32vw55x_spi.c ****     /* select SPI LSB or MSB */
 102:../Firmware/GD32VW55x_standard_peripheral/Source/gd32vw55x_spi.c ****     reg |= spi_struct->endian;
 150              		.loc 1 102 22
 151 0068 8327C4FD 		lw	a5,-36(s0)
 152 006c 9C4B     		lw	a5,16(a5)
 153              		.loc 1 102 9
 154 006e 0327C4FE 		lw	a4,-20(s0)
 155 0072 D98F     		or	a5,a4,a5
 156 0074 2326F4FE 		sw	a5,-20(s0)
 103:../Firmware/GD32VW55x_standard_peripheral/Source/gd32vw55x_spi.c ****     /* select SPI polarity and phase */
 104:../Firmware/GD32VW55x_standard_peripheral/Source/gd32vw55x_spi.c ****     reg |= spi_struct->clock_polarity_phase;
 157              		.loc 1 104 22
 158 0078 8327C4FD 		lw	a5,-36(s0)
 159 007c DC4B     		lw	a5,20(a5)
 160              		.loc 1 104 9
 161 007e 0327C4FE 		lw	a4,-20(s0)
 162 0082 D98F     		or	a5,a4,a5
 163 0084 2326F4FE 		sw	a5,-20(s0)
 105:../Firmware/GD32VW55x_standard_peripheral/Source/gd32vw55x_spi.c ****     /* select SPI prescale to adjust transmit speed */
 106:../Firmware/GD32VW55x_standard_peripheral/Source/gd32vw55x_spi.c ****     reg |= spi_struct->prescale;
 164              		.loc 1 106 22
 165 0088 8327C4FD 		lw	a5,-36(s0)
 166 008c 9C4F     		lw	a5,24(a5)
 167              		.loc 1 106 9
 168 008e 0327C4FE 		lw	a4,-20(s0)
 169 0092 D98F     		or	a5,a4,a5
 170 0094 2326F4FE 		sw	a5,-20(s0)
 107:../Firmware/GD32VW55x_standard_peripheral/Source/gd32vw55x_spi.c **** 
 108:../Firmware/GD32VW55x_standard_peripheral/Source/gd32vw55x_spi.c ****     /* write to SPI_CTL0 register */
 109:../Firmware/GD32VW55x_standard_peripheral/Source/gd32vw55x_spi.c ****     SPI_CTL0 = (uint32_t)reg;
 171              		.loc 1 109 5
 172 0098 B7370140 		li	a5,1073819648
 173              		.loc 1 109 14
 174 009c 0327C4FE 		lw	a4,-20(s0)
 175 00a0 98C3     		sw	a4,0(a5)
 110:../Firmware/GD32VW55x_standard_peripheral/Source/gd32vw55x_spi.c **** }
 176              		.loc 1 110 1
 177 00a2 0100     		nop
 178 00a4 3254     		lw	s0,44(sp)
 179              		.cfi_restore 8
 180              		.cfi_def_cfa 2, 48
 181 00a6 4561     		addi	sp,sp,48
 182              		.cfi_def_cfa_offset 0
 183 00a8 8280     		jr	ra
 184              		.cfi_endproc
 185              	.LFE349:
 187              		.section	.text.spi_enable,"ax",@progbits
 188              		.align	1
 189              		.globl	spi_enable
 191              	spi_enable:
 192              	.LFB350:
 111:../Firmware/GD32VW55x_standard_peripheral/Source/gd32vw55x_spi.c **** 
 112:../Firmware/GD32VW55x_standard_peripheral/Source/gd32vw55x_spi.c **** /*!
 113:../Firmware/GD32VW55x_standard_peripheral/Source/gd32vw55x_spi.c ****     \brief      enable SPI
 114:../Firmware/GD32VW55x_standard_peripheral/Source/gd32vw55x_spi.c ****     \param[in]  none
 115:../Firmware/GD32VW55x_standard_peripheral/Source/gd32vw55x_spi.c ****     \param[out] none
 116:../Firmware/GD32VW55x_standard_peripheral/Source/gd32vw55x_spi.c ****     \retval     none
 117:../Firmware/GD32VW55x_standard_peripheral/Source/gd32vw55x_spi.c **** */
 118:../Firmware/GD32VW55x_standard_peripheral/Source/gd32vw55x_spi.c **** void spi_enable(void)
 119:../Firmware/GD32VW55x_standard_peripheral/Source/gd32vw55x_spi.c **** {
 193              		.loc 1 119 1
 194              		.cfi_startproc
 195 0000 4111     		addi	sp,sp,-16
 196              		.cfi_def_cfa_offset 16
 197 0002 22C6     		sw	s0,12(sp)
 198              		.cfi_offset 8, -4
 199 0004 0008     		addi	s0,sp,16
 200              		.cfi_def_cfa 8, 0
 120:../Firmware/GD32VW55x_standard_peripheral/Source/gd32vw55x_spi.c ****     SPI_CTL0 |= (uint32_t)SPI_CTL0_SPIEN;
 201              		.loc 1 120 14
 202 0006 B7370140 		li	a5,1073819648
 203 000a 9843     		lw	a4,0(a5)
 204 000c B7370140 		li	a5,1073819648
 205 0010 13670704 		ori	a4,a4,64
 206 0014 98C3     		sw	a4,0(a5)
 121:../Firmware/GD32VW55x_standard_peripheral/Source/gd32vw55x_spi.c **** }
 207              		.loc 1 121 1
 208 0016 0100     		nop
 209 0018 3244     		lw	s0,12(sp)
 210              		.cfi_restore 8
 211              		.cfi_def_cfa 2, 16
 212 001a 4101     		addi	sp,sp,16
 213              		.cfi_def_cfa_offset 0
 214 001c 8280     		jr	ra
 215              		.cfi_endproc
 216              	.LFE350:
 218              		.section	.text.spi_disable,"ax",@progbits
 219              		.align	1
 220              		.globl	spi_disable
 222              	spi_disable:
 223              	.LFB351:
 122:../Firmware/GD32VW55x_standard_peripheral/Source/gd32vw55x_spi.c **** 
 123:../Firmware/GD32VW55x_standard_peripheral/Source/gd32vw55x_spi.c **** /*!
 124:../Firmware/GD32VW55x_standard_peripheral/Source/gd32vw55x_spi.c ****     \brief      disable SPI
 125:../Firmware/GD32VW55x_standard_peripheral/Source/gd32vw55x_spi.c ****     \param[in]  none
 126:../Firmware/GD32VW55x_standard_peripheral/Source/gd32vw55x_spi.c ****     \param[out] none
 127:../Firmware/GD32VW55x_standard_peripheral/Source/gd32vw55x_spi.c ****     \retval     none
 128:../Firmware/GD32VW55x_standard_peripheral/Source/gd32vw55x_spi.c **** */
 129:../Firmware/GD32VW55x_standard_peripheral/Source/gd32vw55x_spi.c **** void spi_disable(void)
 130:../Firmware/GD32VW55x_standard_peripheral/Source/gd32vw55x_spi.c **** {
 224              		.loc 1 130 1
 225              		.cfi_startproc
 226 0000 4111     		addi	sp,sp,-16
 227              		.cfi_def_cfa_offset 16
 228 0002 22C6     		sw	s0,12(sp)
 229              		.cfi_offset 8, -4
 230 0004 0008     		addi	s0,sp,16
 231              		.cfi_def_cfa 8, 0
 131:../Firmware/GD32VW55x_standard_peripheral/Source/gd32vw55x_spi.c ****     SPI_CTL0 &= (uint32_t)(~SPI_CTL0_SPIEN);
 232              		.loc 1 131 14
 233 0006 B7370140 		li	a5,1073819648
 234 000a 9843     		lw	a4,0(a5)
 235 000c B7370140 		li	a5,1073819648
 236 0010 1377F7FB 		andi	a4,a4,-65
 237 0014 98C3     		sw	a4,0(a5)
 132:../Firmware/GD32VW55x_standard_peripheral/Source/gd32vw55x_spi.c **** }
 238              		.loc 1 132 1
 239 0016 0100     		nop
 240 0018 3244     		lw	s0,12(sp)
 241              		.cfi_restore 8
 242              		.cfi_def_cfa 2, 16
 243 001a 4101     		addi	sp,sp,16
 244              		.cfi_def_cfa_offset 0
 245 001c 8280     		jr	ra
 246              		.cfi_endproc
 247              	.LFE351:
 249              		.section	.text.spi_nss_output_enable,"ax",@progbits
 250              		.align	1
 251              		.globl	spi_nss_output_enable
 253              	spi_nss_output_enable:
 254              	.LFB352:
 133:../Firmware/GD32VW55x_standard_peripheral/Source/gd32vw55x_spi.c **** 
 134:../Firmware/GD32VW55x_standard_peripheral/Source/gd32vw55x_spi.c **** /*!
 135:../Firmware/GD32VW55x_standard_peripheral/Source/gd32vw55x_spi.c ****     \brief      enable SPI NSS output
 136:../Firmware/GD32VW55x_standard_peripheral/Source/gd32vw55x_spi.c ****     \param[in]  none
 137:../Firmware/GD32VW55x_standard_peripheral/Source/gd32vw55x_spi.c ****     \param[out] none
 138:../Firmware/GD32VW55x_standard_peripheral/Source/gd32vw55x_spi.c ****     \retval     none
 139:../Firmware/GD32VW55x_standard_peripheral/Source/gd32vw55x_spi.c **** */
 140:../Firmware/GD32VW55x_standard_peripheral/Source/gd32vw55x_spi.c **** void spi_nss_output_enable(void)
 141:../Firmware/GD32VW55x_standard_peripheral/Source/gd32vw55x_spi.c **** {
 255              		.loc 1 141 1
 256              		.cfi_startproc
 257 0000 4111     		addi	sp,sp,-16
 258              		.cfi_def_cfa_offset 16
 259 0002 22C6     		sw	s0,12(sp)
 260              		.cfi_offset 8, -4
 261 0004 0008     		addi	s0,sp,16
 262              		.cfi_def_cfa 8, 0
 142:../Firmware/GD32VW55x_standard_peripheral/Source/gd32vw55x_spi.c ****     SPI_CTL1 |= (uint32_t)SPI_CTL1_NSSDRV;
 263              		.loc 1 142 14
 264 0006 B7370140 		li	a5,1073819648
 265 000a 9107     		addi	a5,a5,4
 266 000c 9843     		lw	a4,0(a5)
 267 000e B7370140 		li	a5,1073819648
 268 0012 9107     		addi	a5,a5,4
 269 0014 13674700 		ori	a4,a4,4
 270 0018 98C3     		sw	a4,0(a5)
 143:../Firmware/GD32VW55x_standard_peripheral/Source/gd32vw55x_spi.c **** }
 271              		.loc 1 143 1
 272 001a 0100     		nop
 273 001c 3244     		lw	s0,12(sp)
 274              		.cfi_restore 8
 275              		.cfi_def_cfa 2, 16
 276 001e 4101     		addi	sp,sp,16
 277              		.cfi_def_cfa_offset 0
 278 0020 8280     		jr	ra
 279              		.cfi_endproc
 280              	.LFE352:
 282              		.section	.text.spi_nss_output_disable,"ax",@progbits
 283              		.align	1
 284              		.globl	spi_nss_output_disable
 286              	spi_nss_output_disable:
 287              	.LFB353:
 144:../Firmware/GD32VW55x_standard_peripheral/Source/gd32vw55x_spi.c **** 
 145:../Firmware/GD32VW55x_standard_peripheral/Source/gd32vw55x_spi.c **** /*!
 146:../Firmware/GD32VW55x_standard_peripheral/Source/gd32vw55x_spi.c ****     \brief      disable SPI NSS output
 147:../Firmware/GD32VW55x_standard_peripheral/Source/gd32vw55x_spi.c ****     \param[in]  none
 148:../Firmware/GD32VW55x_standard_peripheral/Source/gd32vw55x_spi.c ****     \param[out] none
 149:../Firmware/GD32VW55x_standard_peripheral/Source/gd32vw55x_spi.c ****     \retval     none
 150:../Firmware/GD32VW55x_standard_peripheral/Source/gd32vw55x_spi.c **** */
 151:../Firmware/GD32VW55x_standard_peripheral/Source/gd32vw55x_spi.c **** void spi_nss_output_disable(void)
 152:../Firmware/GD32VW55x_standard_peripheral/Source/gd32vw55x_spi.c **** {
 288              		.loc 1 152 1
 289              		.cfi_startproc
 290 0000 4111     		addi	sp,sp,-16
 291              		.cfi_def_cfa_offset 16
 292 0002 22C6     		sw	s0,12(sp)
 293              		.cfi_offset 8, -4
 294 0004 0008     		addi	s0,sp,16
 295              		.cfi_def_cfa 8, 0
 153:../Firmware/GD32VW55x_standard_peripheral/Source/gd32vw55x_spi.c ****     SPI_CTL1 &= (uint32_t)(~SPI_CTL1_NSSDRV);
 296              		.loc 1 153 14
 297 0006 B7370140 		li	a5,1073819648
 298 000a 9107     		addi	a5,a5,4
 299 000c 9843     		lw	a4,0(a5)
 300 000e B7370140 		li	a5,1073819648
 301 0012 9107     		addi	a5,a5,4
 302 0014 6D9B     		andi	a4,a4,-5
 303 0016 98C3     		sw	a4,0(a5)
 154:../Firmware/GD32VW55x_standard_peripheral/Source/gd32vw55x_spi.c **** }
 304              		.loc 1 154 1
 305 0018 0100     		nop
 306 001a 3244     		lw	s0,12(sp)
 307              		.cfi_restore 8
 308              		.cfi_def_cfa 2, 16
 309 001c 4101     		addi	sp,sp,16
 310              		.cfi_def_cfa_offset 0
 311 001e 8280     		jr	ra
 312              		.cfi_endproc
 313              	.LFE353:
 315              		.section	.text.spi_nss_internal_high,"ax",@progbits
 316              		.align	1
 317              		.globl	spi_nss_internal_high
 319              	spi_nss_internal_high:
 320              	.LFB354:
 155:../Firmware/GD32VW55x_standard_peripheral/Source/gd32vw55x_spi.c **** 
 156:../Firmware/GD32VW55x_standard_peripheral/Source/gd32vw55x_spi.c **** /*!
 157:../Firmware/GD32VW55x_standard_peripheral/Source/gd32vw55x_spi.c ****     \brief      SPI NSS pin high level in software mode
 158:../Firmware/GD32VW55x_standard_peripheral/Source/gd32vw55x_spi.c ****     \param[in]  none
 159:../Firmware/GD32VW55x_standard_peripheral/Source/gd32vw55x_spi.c ****     \param[out] none
 160:../Firmware/GD32VW55x_standard_peripheral/Source/gd32vw55x_spi.c ****     \retval     none
 161:../Firmware/GD32VW55x_standard_peripheral/Source/gd32vw55x_spi.c **** */
 162:../Firmware/GD32VW55x_standard_peripheral/Source/gd32vw55x_spi.c **** void spi_nss_internal_high(void)
 163:../Firmware/GD32VW55x_standard_peripheral/Source/gd32vw55x_spi.c **** {
 321              		.loc 1 163 1
 322              		.cfi_startproc
 323 0000 4111     		addi	sp,sp,-16
 324              		.cfi_def_cfa_offset 16
 325 0002 22C6     		sw	s0,12(sp)
 326              		.cfi_offset 8, -4
 327 0004 0008     		addi	s0,sp,16
 328              		.cfi_def_cfa 8, 0
 164:../Firmware/GD32VW55x_standard_peripheral/Source/gd32vw55x_spi.c ****     SPI_CTL0 |= (uint32_t)SPI_CTL0_SWNSS;
 329              		.loc 1 164 14
 330 0006 B7370140 		li	a5,1073819648
 331 000a 9843     		lw	a4,0(a5)
 332 000c B7370140 		li	a5,1073819648
 333 0010 13670710 		ori	a4,a4,256
 334 0014 98C3     		sw	a4,0(a5)
 165:../Firmware/GD32VW55x_standard_peripheral/Source/gd32vw55x_spi.c **** }
 335              		.loc 1 165 1
 336 0016 0100     		nop
 337 0018 3244     		lw	s0,12(sp)
 338              		.cfi_restore 8
 339              		.cfi_def_cfa 2, 16
 340 001a 4101     		addi	sp,sp,16
 341              		.cfi_def_cfa_offset 0
 342 001c 8280     		jr	ra
 343              		.cfi_endproc
 344              	.LFE354:
 346              		.section	.text.spi_nss_internal_low,"ax",@progbits
 347              		.align	1
 348              		.globl	spi_nss_internal_low
 350              	spi_nss_internal_low:
 351              	.LFB355:
 166:../Firmware/GD32VW55x_standard_peripheral/Source/gd32vw55x_spi.c **** 
 167:../Firmware/GD32VW55x_standard_peripheral/Source/gd32vw55x_spi.c **** /*!
 168:../Firmware/GD32VW55x_standard_peripheral/Source/gd32vw55x_spi.c ****     \brief      SPI NSS pin low level in software mode
 169:../Firmware/GD32VW55x_standard_peripheral/Source/gd32vw55x_spi.c ****     \param[in]  none
 170:../Firmware/GD32VW55x_standard_peripheral/Source/gd32vw55x_spi.c ****     \param[out] none
 171:../Firmware/GD32VW55x_standard_peripheral/Source/gd32vw55x_spi.c ****     \retval     none
 172:../Firmware/GD32VW55x_standard_peripheral/Source/gd32vw55x_spi.c **** */
 173:../Firmware/GD32VW55x_standard_peripheral/Source/gd32vw55x_spi.c **** void spi_nss_internal_low(void)
 174:../Firmware/GD32VW55x_standard_peripheral/Source/gd32vw55x_spi.c **** {
 352              		.loc 1 174 1
 353              		.cfi_startproc
 354 0000 4111     		addi	sp,sp,-16
 355              		.cfi_def_cfa_offset 16
 356 0002 22C6     		sw	s0,12(sp)
 357              		.cfi_offset 8, -4
 358 0004 0008     		addi	s0,sp,16
 359              		.cfi_def_cfa 8, 0
 175:../Firmware/GD32VW55x_standard_peripheral/Source/gd32vw55x_spi.c ****     SPI_CTL0 &= (uint32_t)(~SPI_CTL0_SWNSS);
 360              		.loc 1 175 14
 361 0006 B7370140 		li	a5,1073819648
 362 000a 9843     		lw	a4,0(a5)
 363 000c B7370140 		li	a5,1073819648
 364 0010 1377F7EF 		andi	a4,a4,-257
 365 0014 98C3     		sw	a4,0(a5)
 176:../Firmware/GD32VW55x_standard_peripheral/Source/gd32vw55x_spi.c **** }
 366              		.loc 1 176 1
 367 0016 0100     		nop
 368 0018 3244     		lw	s0,12(sp)
 369              		.cfi_restore 8
 370              		.cfi_def_cfa 2, 16
 371 001a 4101     		addi	sp,sp,16
 372              		.cfi_def_cfa_offset 0
 373 001c 8280     		jr	ra
 374              		.cfi_endproc
 375              	.LFE355:
 377              		.section	.text.spi_dma_enable,"ax",@progbits
 378              		.align	1
 379              		.globl	spi_dma_enable
 381              	spi_dma_enable:
 382              	.LFB356:
 177:../Firmware/GD32VW55x_standard_peripheral/Source/gd32vw55x_spi.c **** 
 178:../Firmware/GD32VW55x_standard_peripheral/Source/gd32vw55x_spi.c **** /*!
 179:../Firmware/GD32VW55x_standard_peripheral/Source/gd32vw55x_spi.c ****     \brief      enable SPI DMA send or receive
 180:../Firmware/GD32VW55x_standard_peripheral/Source/gd32vw55x_spi.c ****     \param[in]  spi_dma: SPI DMA mode
 181:../Firmware/GD32VW55x_standard_peripheral/Source/gd32vw55x_spi.c ****                 only one parameter can be selected which is shown as below:
 182:../Firmware/GD32VW55x_standard_peripheral/Source/gd32vw55x_spi.c ****       \arg        SPI_DMA_TRANSMIT: SPI transmit data use DMA
 183:../Firmware/GD32VW55x_standard_peripheral/Source/gd32vw55x_spi.c ****       \arg        SPI_DMA_RECEIVE: SPI receive data use DMA
 184:../Firmware/GD32VW55x_standard_peripheral/Source/gd32vw55x_spi.c ****     \param[out] none
 185:../Firmware/GD32VW55x_standard_peripheral/Source/gd32vw55x_spi.c ****     \retval     none
 186:../Firmware/GD32VW55x_standard_peripheral/Source/gd32vw55x_spi.c **** */
 187:../Firmware/GD32VW55x_standard_peripheral/Source/gd32vw55x_spi.c **** void spi_dma_enable(uint8_t spi_dma)
 188:../Firmware/GD32VW55x_standard_peripheral/Source/gd32vw55x_spi.c **** {
 383              		.loc 1 188 1
 384              		.cfi_startproc
 385 0000 0111     		addi	sp,sp,-32
 386              		.cfi_def_cfa_offset 32
 387 0002 22CE     		sw	s0,28(sp)
 388              		.cfi_offset 8, -4
 389 0004 0010     		addi	s0,sp,32
 390              		.cfi_def_cfa 8, 0
 391 0006 AA87     		mv	a5,a0
 392 0008 A307F4FE 		sb	a5,-17(s0)
 189:../Firmware/GD32VW55x_standard_peripheral/Source/gd32vw55x_spi.c ****     if(SPI_DMA_TRANSMIT == spi_dma){
 393              		.loc 1 189 7
 394 000c 8347F4FE 		lbu	a5,-17(s0)
 395 0010 81EF     		bne	a5,zero,.L11
 190:../Firmware/GD32VW55x_standard_peripheral/Source/gd32vw55x_spi.c ****         SPI_CTL1 |= (uint32_t)SPI_CTL1_DMATEN;
 396              		.loc 1 190 18
 397 0012 B7370140 		li	a5,1073819648
 398 0016 9107     		addi	a5,a5,4
 399 0018 9843     		lw	a4,0(a5)
 400 001a B7370140 		li	a5,1073819648
 401 001e 9107     		addi	a5,a5,4
 402 0020 13672700 		ori	a4,a4,2
 403 0024 98C3     		sw	a4,0(a5)
 191:../Firmware/GD32VW55x_standard_peripheral/Source/gd32vw55x_spi.c ****     }else{
 192:../Firmware/GD32VW55x_standard_peripheral/Source/gd32vw55x_spi.c ****         SPI_CTL1 |= (uint32_t)SPI_CTL1_DMAREN;
 193:../Firmware/GD32VW55x_standard_peripheral/Source/gd32vw55x_spi.c ****     }
 194:../Firmware/GD32VW55x_standard_peripheral/Source/gd32vw55x_spi.c **** }
 404              		.loc 1 194 1
 405 0026 19A8     		j	.L13
 406              	.L11:
 192:../Firmware/GD32VW55x_standard_peripheral/Source/gd32vw55x_spi.c ****     }
 407              		.loc 1 192 18
 408 0028 B7370140 		li	a5,1073819648
 409 002c 9107     		addi	a5,a5,4
 410 002e 9843     		lw	a4,0(a5)
 411 0030 B7370140 		li	a5,1073819648
 412 0034 9107     		addi	a5,a5,4
 413 0036 13671700 		ori	a4,a4,1
 414 003a 98C3     		sw	a4,0(a5)
 415              	.L13:
 416              		.loc 1 194 1
 417 003c 0100     		nop
 418 003e 7244     		lw	s0,28(sp)
 419              		.cfi_restore 8
 420              		.cfi_def_cfa 2, 32
 421 0040 0561     		addi	sp,sp,32
 422              		.cfi_def_cfa_offset 0
 423 0042 8280     		jr	ra
 424              		.cfi_endproc
 425              	.LFE356:
 427              		.section	.text.spi_dma_disable,"ax",@progbits
 428              		.align	1
 429              		.globl	spi_dma_disable
 431              	spi_dma_disable:
 432              	.LFB357:
 195:../Firmware/GD32VW55x_standard_peripheral/Source/gd32vw55x_spi.c **** 
 196:../Firmware/GD32VW55x_standard_peripheral/Source/gd32vw55x_spi.c **** /*!
 197:../Firmware/GD32VW55x_standard_peripheral/Source/gd32vw55x_spi.c ****     \brief      disable SPI DMA send or receive
 198:../Firmware/GD32VW55x_standard_peripheral/Source/gd32vw55x_spi.c ****     \param[in]  spi_dma: SPI DMA mode
 199:../Firmware/GD32VW55x_standard_peripheral/Source/gd32vw55x_spi.c ****                 only one parameter can be selected which is shown as below:
 200:../Firmware/GD32VW55x_standard_peripheral/Source/gd32vw55x_spi.c ****       \arg        SPI_DMA_TRANSMIT: SPI transmit data use DMA
 201:../Firmware/GD32VW55x_standard_peripheral/Source/gd32vw55x_spi.c ****       \arg        SPI_DMA_RECEIVE: SPI receive data use DMA
 202:../Firmware/GD32VW55x_standard_peripheral/Source/gd32vw55x_spi.c ****     \param[out] none
 203:../Firmware/GD32VW55x_standard_peripheral/Source/gd32vw55x_spi.c ****     \retval     none
 204:../Firmware/GD32VW55x_standard_peripheral/Source/gd32vw55x_spi.c **** */
 205:../Firmware/GD32VW55x_standard_peripheral/Source/gd32vw55x_spi.c **** void spi_dma_disable(uint8_t spi_dma)
 206:../Firmware/GD32VW55x_standard_peripheral/Source/gd32vw55x_spi.c **** {
 433              		.loc 1 206 1
 434              		.cfi_startproc
 435 0000 0111     		addi	sp,sp,-32
 436              		.cfi_def_cfa_offset 32
 437 0002 22CE     		sw	s0,28(sp)
 438              		.cfi_offset 8, -4
 439 0004 0010     		addi	s0,sp,32
 440              		.cfi_def_cfa 8, 0
 441 0006 AA87     		mv	a5,a0
 442 0008 A307F4FE 		sb	a5,-17(s0)
 207:../Firmware/GD32VW55x_standard_peripheral/Source/gd32vw55x_spi.c ****     if(SPI_DMA_TRANSMIT == spi_dma){
 443              		.loc 1 207 7
 444 000c 8347F4FE 		lbu	a5,-17(s0)
 445 0010 99EB     		bne	a5,zero,.L15
 208:../Firmware/GD32VW55x_standard_peripheral/Source/gd32vw55x_spi.c ****         SPI_CTL1 &= (uint32_t)(~SPI_CTL1_DMATEN);
 446              		.loc 1 208 18
 447 0012 B7370140 		li	a5,1073819648
 448 0016 9107     		addi	a5,a5,4
 449 0018 9843     		lw	a4,0(a5)
 450 001a B7370140 		li	a5,1073819648
 451 001e 9107     		addi	a5,a5,4
 452 0020 759B     		andi	a4,a4,-3
 453 0022 98C3     		sw	a4,0(a5)
 209:../Firmware/GD32VW55x_standard_peripheral/Source/gd32vw55x_spi.c ****     }else{
 210:../Firmware/GD32VW55x_standard_peripheral/Source/gd32vw55x_spi.c ****         SPI_CTL1 &= (uint32_t)(~SPI_CTL1_DMAREN);
 211:../Firmware/GD32VW55x_standard_peripheral/Source/gd32vw55x_spi.c ****     }
 212:../Firmware/GD32VW55x_standard_peripheral/Source/gd32vw55x_spi.c **** }
 454              		.loc 1 212 1
 455 0024 11A8     		j	.L17
 456              	.L15:
 210:../Firmware/GD32VW55x_standard_peripheral/Source/gd32vw55x_spi.c ****     }
 457              		.loc 1 210 18
 458 0026 B7370140 		li	a5,1073819648
 459 002a 9107     		addi	a5,a5,4
 460 002c 9843     		lw	a4,0(a5)
 461 002e B7370140 		li	a5,1073819648
 462 0032 9107     		addi	a5,a5,4
 463 0034 799B     		andi	a4,a4,-2
 464 0036 98C3     		sw	a4,0(a5)
 465              	.L17:
 466              		.loc 1 212 1
 467 0038 0100     		nop
 468 003a 7244     		lw	s0,28(sp)
 469              		.cfi_restore 8
 470              		.cfi_def_cfa 2, 32
 471 003c 0561     		addi	sp,sp,32
 472              		.cfi_def_cfa_offset 0
 473 003e 8280     		jr	ra
 474              		.cfi_endproc
 475              	.LFE357:
 477              		.section	.text.spi_data_frame_format_config,"ax",@progbits
 478              		.align	1
 479              		.globl	spi_data_frame_format_config
 481              	spi_data_frame_format_config:
 482              	.LFB358:
 213:../Firmware/GD32VW55x_standard_peripheral/Source/gd32vw55x_spi.c **** 
 214:../Firmware/GD32VW55x_standard_peripheral/Source/gd32vw55x_spi.c **** /*!
 215:../Firmware/GD32VW55x_standard_peripheral/Source/gd32vw55x_spi.c ****     \brief      configure SPI data frame format
 216:../Firmware/GD32VW55x_standard_peripheral/Source/gd32vw55x_spi.c ****     \param[in]  frame_format: SPI frame format
 217:../Firmware/GD32VW55x_standard_peripheral/Source/gd32vw55x_spi.c ****                 only one parameter can be selected which is shown as below:
 218:../Firmware/GD32VW55x_standard_peripheral/Source/gd32vw55x_spi.c ****       \arg        SPI_FRAMESIZE_16BIT: SPI frame size is 16 bits
 219:../Firmware/GD32VW55x_standard_peripheral/Source/gd32vw55x_spi.c ****       \arg        SPI_FRAMESIZE_8BIT: SPI frame size is 8 bits
 220:../Firmware/GD32VW55x_standard_peripheral/Source/gd32vw55x_spi.c ****     \param[out] none
 221:../Firmware/GD32VW55x_standard_peripheral/Source/gd32vw55x_spi.c ****     \retval     none
 222:../Firmware/GD32VW55x_standard_peripheral/Source/gd32vw55x_spi.c **** */
 223:../Firmware/GD32VW55x_standard_peripheral/Source/gd32vw55x_spi.c **** void spi_data_frame_format_config(uint16_t frame_format)
 224:../Firmware/GD32VW55x_standard_peripheral/Source/gd32vw55x_spi.c **** {
 483              		.loc 1 224 1
 484              		.cfi_startproc
 485 0000 0111     		addi	sp,sp,-32
 486              		.cfi_def_cfa_offset 32
 487 0002 22CE     		sw	s0,28(sp)
 488              		.cfi_offset 8, -4
 489 0004 0010     		addi	s0,sp,32
 490              		.cfi_def_cfa 8, 0
 491 0006 AA87     		mv	a5,a0
 492 0008 2317F4FE 		sh	a5,-18(s0)
 225:../Firmware/GD32VW55x_standard_peripheral/Source/gd32vw55x_spi.c ****     /* clear SPI_CTL0_FF16 bit */
 226:../Firmware/GD32VW55x_standard_peripheral/Source/gd32vw55x_spi.c ****     SPI_CTL0 &= (uint32_t)(~SPI_CTL0_FF16);
 493              		.loc 1 226 14
 494 000c B7370140 		li	a5,1073819648
 495 0010 9443     		lw	a3,0(a5)
 496 0012 B7370140 		li	a5,1073819648
 497 0016 7D77     		li	a4,-4096
 498 0018 1307F77F 		addi	a4,a4,2047
 499 001c 758F     		and	a4,a3,a4
 500 001e 98C3     		sw	a4,0(a5)
 227:../Firmware/GD32VW55x_standard_peripheral/Source/gd32vw55x_spi.c ****     /* configure SPI_CTL0_FF16 bit */
 228:../Firmware/GD32VW55x_standard_peripheral/Source/gd32vw55x_spi.c ****     SPI_CTL0 |= (uint32_t)frame_format;
 501              		.loc 1 228 14
 502 0020 B7370140 		li	a5,1073819648
 503 0024 9443     		lw	a3,0(a5)
 504              		.loc 1 228 17
 505 0026 0357E4FE 		lhu	a4,-18(s0)
 506              		.loc 1 228 14
 507 002a B7370140 		li	a5,1073819648
 508 002e 558F     		or	a4,a3,a4
 509 0030 98C3     		sw	a4,0(a5)
 229:../Firmware/GD32VW55x_standard_peripheral/Source/gd32vw55x_spi.c **** }
 510              		.loc 1 229 1
 511 0032 0100     		nop
 512 0034 7244     		lw	s0,28(sp)
 513              		.cfi_restore 8
 514              		.cfi_def_cfa 2, 32
 515 0036 0561     		addi	sp,sp,32
 516              		.cfi_def_cfa_offset 0
 517 0038 8280     		jr	ra
 518              		.cfi_endproc
 519              	.LFE358:
 521              		.section	.text.spi_data_transmit,"ax",@progbits
 522              		.align	1
 523              		.globl	spi_data_transmit
 525              	spi_data_transmit:
 526              	.LFB359:
 230:../Firmware/GD32VW55x_standard_peripheral/Source/gd32vw55x_spi.c **** 
 231:../Firmware/GD32VW55x_standard_peripheral/Source/gd32vw55x_spi.c **** /*!
 232:../Firmware/GD32VW55x_standard_peripheral/Source/gd32vw55x_spi.c ****     \brief      SPI transmit data
 233:../Firmware/GD32VW55x_standard_peripheral/Source/gd32vw55x_spi.c ****     \param[in]  data: 16-bit data
 234:../Firmware/GD32VW55x_standard_peripheral/Source/gd32vw55x_spi.c ****     \param[out] none
 235:../Firmware/GD32VW55x_standard_peripheral/Source/gd32vw55x_spi.c ****     \retval     none
 236:../Firmware/GD32VW55x_standard_peripheral/Source/gd32vw55x_spi.c **** */
 237:../Firmware/GD32VW55x_standard_peripheral/Source/gd32vw55x_spi.c **** void spi_data_transmit(uint16_t data)
 238:../Firmware/GD32VW55x_standard_peripheral/Source/gd32vw55x_spi.c **** {
 527              		.loc 1 238 1
 528              		.cfi_startproc
 529 0000 0111     		addi	sp,sp,-32
 530              		.cfi_def_cfa_offset 32
 531 0002 22CE     		sw	s0,28(sp)
 532              		.cfi_offset 8, -4
 533 0004 0010     		addi	s0,sp,32
 534              		.cfi_def_cfa 8, 0
 535 0006 AA87     		mv	a5,a0
 536 0008 2317F4FE 		sh	a5,-18(s0)
 239:../Firmware/GD32VW55x_standard_peripheral/Source/gd32vw55x_spi.c ****     SPI_DATA = (uint32_t)data;
 537              		.loc 1 239 5
 538 000c B7370140 		li	a5,1073819648
 539 0010 B107     		addi	a5,a5,12
 540              		.loc 1 239 16
 541 0012 0357E4FE 		lhu	a4,-18(s0)
 542              		.loc 1 239 14
 543 0016 98C3     		sw	a4,0(a5)
 240:../Firmware/GD32VW55x_standard_peripheral/Source/gd32vw55x_spi.c **** }
 544              		.loc 1 240 1
 545 0018 0100     		nop
 546 001a 7244     		lw	s0,28(sp)
 547              		.cfi_restore 8
 548              		.cfi_def_cfa 2, 32
 549 001c 0561     		addi	sp,sp,32
 550              		.cfi_def_cfa_offset 0
 551 001e 8280     		jr	ra
 552              		.cfi_endproc
 553              	.LFE359:
 555              		.section	.text.spi_data_receive,"ax",@progbits
 556              		.align	1
 557              		.globl	spi_data_receive
 559              	spi_data_receive:
 560              	.LFB360:
 241:../Firmware/GD32VW55x_standard_peripheral/Source/gd32vw55x_spi.c **** 
 242:../Firmware/GD32VW55x_standard_peripheral/Source/gd32vw55x_spi.c **** /*!
 243:../Firmware/GD32VW55x_standard_peripheral/Source/gd32vw55x_spi.c ****     \brief      SPI receive data
 244:../Firmware/GD32VW55x_standard_peripheral/Source/gd32vw55x_spi.c ****     \param[in]  none
 245:../Firmware/GD32VW55x_standard_peripheral/Source/gd32vw55x_spi.c ****     \param[out] none
 246:../Firmware/GD32VW55x_standard_peripheral/Source/gd32vw55x_spi.c ****     \retval     16-bit data
 247:../Firmware/GD32VW55x_standard_peripheral/Source/gd32vw55x_spi.c **** */
 248:../Firmware/GD32VW55x_standard_peripheral/Source/gd32vw55x_spi.c **** uint16_t spi_data_receive(void)
 249:../Firmware/GD32VW55x_standard_peripheral/Source/gd32vw55x_spi.c **** {
 561              		.loc 1 249 1
 562              		.cfi_startproc
 563 0000 4111     		addi	sp,sp,-16
 564              		.cfi_def_cfa_offset 16
 565 0002 22C6     		sw	s0,12(sp)
 566              		.cfi_offset 8, -4
 567 0004 0008     		addi	s0,sp,16
 568              		.cfi_def_cfa 8, 0
 250:../Firmware/GD32VW55x_standard_peripheral/Source/gd32vw55x_spi.c ****     return ((uint16_t)SPI_DATA);
 569              		.loc 1 250 23
 570 0006 B7370140 		li	a5,1073819648
 571 000a B107     		addi	a5,a5,12
 572 000c 9C43     		lw	a5,0(a5)
 573              		.loc 1 250 13
 574 000e C207     		slli	a5,a5,16
 575 0010 C183     		srli	a5,a5,16
 251:../Firmware/GD32VW55x_standard_peripheral/Source/gd32vw55x_spi.c **** }
 576              		.loc 1 251 1
 577 0012 3E85     		mv	a0,a5
 578 0014 3244     		lw	s0,12(sp)
 579              		.cfi_restore 8
 580              		.cfi_def_cfa 2, 16
 581 0016 4101     		addi	sp,sp,16
 582              		.cfi_def_cfa_offset 0
 583 0018 8280     		jr	ra
 584              		.cfi_endproc
 585              	.LFE360:
 587              		.section	.text.spi_bidirectional_transfer_config,"ax",@progbits
 588              		.align	1
 589              		.globl	spi_bidirectional_transfer_config
 591              	spi_bidirectional_transfer_config:
 592              	.LFB361:
 252:../Firmware/GD32VW55x_standard_peripheral/Source/gd32vw55x_spi.c **** 
 253:../Firmware/GD32VW55x_standard_peripheral/Source/gd32vw55x_spi.c **** /*!
 254:../Firmware/GD32VW55x_standard_peripheral/Source/gd32vw55x_spi.c ****     \brief      configure SPI bidirectional transfer direction
 255:../Firmware/GD32VW55x_standard_peripheral/Source/gd32vw55x_spi.c ****     \param[in]  transfer_direction: SPI transfer direction
 256:../Firmware/GD32VW55x_standard_peripheral/Source/gd32vw55x_spi.c ****                 only one parameter can be selected which is shown as below:
 257:../Firmware/GD32VW55x_standard_peripheral/Source/gd32vw55x_spi.c ****       \arg        SPI_BIDIRECTIONAL_TRANSMIT: SPI work in transmit-only mode
 258:../Firmware/GD32VW55x_standard_peripheral/Source/gd32vw55x_spi.c ****       \arg        SPI_BIDIRECTIONAL_RECEIVE: SPI work in receive-only mode
 259:../Firmware/GD32VW55x_standard_peripheral/Source/gd32vw55x_spi.c ****     \param[out] none
 260:../Firmware/GD32VW55x_standard_peripheral/Source/gd32vw55x_spi.c ****     \retval     none
 261:../Firmware/GD32VW55x_standard_peripheral/Source/gd32vw55x_spi.c **** */
 262:../Firmware/GD32VW55x_standard_peripheral/Source/gd32vw55x_spi.c **** void spi_bidirectional_transfer_config(uint32_t transfer_direction)
 263:../Firmware/GD32VW55x_standard_peripheral/Source/gd32vw55x_spi.c **** {
 593              		.loc 1 263 1
 594              		.cfi_startproc
 595 0000 0111     		addi	sp,sp,-32
 596              		.cfi_def_cfa_offset 32
 597 0002 22CE     		sw	s0,28(sp)
 598              		.cfi_offset 8, -4
 599 0004 0010     		addi	s0,sp,32
 600              		.cfi_def_cfa 8, 0
 601 0006 2326A4FE 		sw	a0,-20(s0)
 264:../Firmware/GD32VW55x_standard_peripheral/Source/gd32vw55x_spi.c ****     if(SPI_BIDIRECTIONAL_TRANSMIT == transfer_direction){
 602              		.loc 1 264 7
 603 000a 0327C4FE 		lw	a4,-20(s0)
 604 000e 9167     		li	a5,16384
 605 0010 631BF700 		bne	a4,a5,.L23
 265:../Firmware/GD32VW55x_standard_peripheral/Source/gd32vw55x_spi.c ****         /* set the transmit only mode */
 266:../Firmware/GD32VW55x_standard_peripheral/Source/gd32vw55x_spi.c ****         SPI_CTL0 |= (uint32_t)SPI_BIDIRECTIONAL_TRANSMIT;
 606              		.loc 1 266 18
 607 0014 B7370140 		li	a5,1073819648
 608 0018 9443     		lw	a3,0(a5)
 609 001a B7370140 		li	a5,1073819648
 610 001e 1167     		li	a4,16384
 611 0020 558F     		or	a4,a3,a4
 612 0022 98C3     		sw	a4,0(a5)
 267:../Firmware/GD32VW55x_standard_peripheral/Source/gd32vw55x_spi.c ****     }else{
 268:../Firmware/GD32VW55x_standard_peripheral/Source/gd32vw55x_spi.c ****         /* set the receive only mode */
 269:../Firmware/GD32VW55x_standard_peripheral/Source/gd32vw55x_spi.c ****         SPI_CTL0 &= SPI_BIDIRECTIONAL_RECEIVE;
 270:../Firmware/GD32VW55x_standard_peripheral/Source/gd32vw55x_spi.c ****     }
 271:../Firmware/GD32VW55x_standard_peripheral/Source/gd32vw55x_spi.c **** }
 613              		.loc 1 271 1
 614 0024 11A8     		j	.L25
 615              	.L23:
 269:../Firmware/GD32VW55x_standard_peripheral/Source/gd32vw55x_spi.c ****     }
 616              		.loc 1 269 18
 617 0026 B7370140 		li	a5,1073819648
 618 002a 9443     		lw	a3,0(a5)
 619 002c B7370140 		li	a5,1073819648
 620 0030 7177     		li	a4,-16384
 621 0032 7D17     		addi	a4,a4,-1
 622 0034 758F     		and	a4,a3,a4
 623 0036 98C3     		sw	a4,0(a5)
 624              	.L25:
 625              		.loc 1 271 1
 626 0038 0100     		nop
 627 003a 7244     		lw	s0,28(sp)
 628              		.cfi_restore 8
 629              		.cfi_def_cfa 2, 32
 630 003c 0561     		addi	sp,sp,32
 631              		.cfi_def_cfa_offset 0
 632 003e 8280     		jr	ra
 633              		.cfi_endproc
 634              	.LFE361:
 636              		.section	.text.spi_format_error_clear,"ax",@progbits
 637              		.align	1
 638              		.globl	spi_format_error_clear
 640              	spi_format_error_clear:
 641              	.LFB362:
 272:../Firmware/GD32VW55x_standard_peripheral/Source/gd32vw55x_spi.c **** 
 273:../Firmware/GD32VW55x_standard_peripheral/Source/gd32vw55x_spi.c **** /*!
 274:../Firmware/GD32VW55x_standard_peripheral/Source/gd32vw55x_spi.c ****     \brief      clear TI mode format error flag status
 275:../Firmware/GD32VW55x_standard_peripheral/Source/gd32vw55x_spi.c ****     \param[in]  none
 276:../Firmware/GD32VW55x_standard_peripheral/Source/gd32vw55x_spi.c ****     \param[out] none
 277:../Firmware/GD32VW55x_standard_peripheral/Source/gd32vw55x_spi.c ****     \retval     none
 278:../Firmware/GD32VW55x_standard_peripheral/Source/gd32vw55x_spi.c **** */
 279:../Firmware/GD32VW55x_standard_peripheral/Source/gd32vw55x_spi.c **** void spi_format_error_clear(void)
 280:../Firmware/GD32VW55x_standard_peripheral/Source/gd32vw55x_spi.c **** {
 642              		.loc 1 280 1
 643              		.cfi_startproc
 644 0000 4111     		addi	sp,sp,-16
 645              		.cfi_def_cfa_offset 16
 646 0002 22C6     		sw	s0,12(sp)
 647              		.cfi_offset 8, -4
 648 0004 0008     		addi	s0,sp,16
 649              		.cfi_def_cfa 8, 0
 281:../Firmware/GD32VW55x_standard_peripheral/Source/gd32vw55x_spi.c ****     SPI_STAT = (uint32_t)(~SPI_FLAG_FERR);
 650              		.loc 1 281 5
 651 0006 B7370140 		li	a5,1073819648
 652 000a A107     		addi	a5,a5,8
 653              		.loc 1 281 14
 654 000c 1307F0EF 		li	a4,-257
 655 0010 98C3     		sw	a4,0(a5)
 282:../Firmware/GD32VW55x_standard_peripheral/Source/gd32vw55x_spi.c **** }
 656              		.loc 1 282 1
 657 0012 0100     		nop
 658 0014 3244     		lw	s0,12(sp)
 659              		.cfi_restore 8
 660              		.cfi_def_cfa 2, 16
 661 0016 4101     		addi	sp,sp,16
 662              		.cfi_def_cfa_offset 0
 663 0018 8280     		jr	ra
 664              		.cfi_endproc
 665              	.LFE362:
 667              		.section	.text.spi_crc_polynomial_set,"ax",@progbits
 668              		.align	1
 669              		.globl	spi_crc_polynomial_set
 671              	spi_crc_polynomial_set:
 672              	.LFB363:
 283:../Firmware/GD32VW55x_standard_peripheral/Source/gd32vw55x_spi.c **** 
 284:../Firmware/GD32VW55x_standard_peripheral/Source/gd32vw55x_spi.c **** /*!
 285:../Firmware/GD32VW55x_standard_peripheral/Source/gd32vw55x_spi.c ****     \brief      set SPI CRC polynomial
 286:../Firmware/GD32VW55x_standard_peripheral/Source/gd32vw55x_spi.c ****     \param[in]  crc_poly: CRC polynomial value
 287:../Firmware/GD32VW55x_standard_peripheral/Source/gd32vw55x_spi.c ****     \param[out] none
 288:../Firmware/GD32VW55x_standard_peripheral/Source/gd32vw55x_spi.c ****     \retval     none
 289:../Firmware/GD32VW55x_standard_peripheral/Source/gd32vw55x_spi.c **** */
 290:../Firmware/GD32VW55x_standard_peripheral/Source/gd32vw55x_spi.c **** void spi_crc_polynomial_set(uint16_t crc_poly)
 291:../Firmware/GD32VW55x_standard_peripheral/Source/gd32vw55x_spi.c **** {
 673              		.loc 1 291 1
 674              		.cfi_startproc
 675 0000 0111     		addi	sp,sp,-32
 676              		.cfi_def_cfa_offset 32
 677 0002 22CE     		sw	s0,28(sp)
 678              		.cfi_offset 8, -4
 679 0004 0010     		addi	s0,sp,32
 680              		.cfi_def_cfa 8, 0
 681 0006 AA87     		mv	a5,a0
 682 0008 2317F4FE 		sh	a5,-18(s0)
 292:../Firmware/GD32VW55x_standard_peripheral/Source/gd32vw55x_spi.c ****     /* set SPI CRC polynomial */
 293:../Firmware/GD32VW55x_standard_peripheral/Source/gd32vw55x_spi.c ****     SPI_CRCPOLY = (uint32_t)crc_poly;
 683              		.loc 1 293 5
 684 000c B7370140 		li	a5,1073819648
 685 0010 C107     		addi	a5,a5,16
 686              		.loc 1 293 19
 687 0012 0357E4FE 		lhu	a4,-18(s0)
 688              		.loc 1 293 17
 689 0016 98C3     		sw	a4,0(a5)
 294:../Firmware/GD32VW55x_standard_peripheral/Source/gd32vw55x_spi.c **** }
 690              		.loc 1 294 1
 691 0018 0100     		nop
 692 001a 7244     		lw	s0,28(sp)
 693              		.cfi_restore 8
 694              		.cfi_def_cfa 2, 32
 695 001c 0561     		addi	sp,sp,32
 696              		.cfi_def_cfa_offset 0
 697 001e 8280     		jr	ra
 698              		.cfi_endproc
 699              	.LFE363:
 701              		.section	.text.spi_crc_polynomial_get,"ax",@progbits
 702              		.align	1
 703              		.globl	spi_crc_polynomial_get
 705              	spi_crc_polynomial_get:
 706              	.LFB364:
 295:../Firmware/GD32VW55x_standard_peripheral/Source/gd32vw55x_spi.c **** 
 296:../Firmware/GD32VW55x_standard_peripheral/Source/gd32vw55x_spi.c **** /*!
 297:../Firmware/GD32VW55x_standard_peripheral/Source/gd32vw55x_spi.c ****     \brief      get SPI CRC polynomial
 298:../Firmware/GD32VW55x_standard_peripheral/Source/gd32vw55x_spi.c ****     \param[in]  none
 299:../Firmware/GD32VW55x_standard_peripheral/Source/gd32vw55x_spi.c ****     \param[out] none
 300:../Firmware/GD32VW55x_standard_peripheral/Source/gd32vw55x_spi.c ****     \retval     16-bit CRC polynomial
 301:../Firmware/GD32VW55x_standard_peripheral/Source/gd32vw55x_spi.c **** */
 302:../Firmware/GD32VW55x_standard_peripheral/Source/gd32vw55x_spi.c **** uint16_t spi_crc_polynomial_get(void)
 303:../Firmware/GD32VW55x_standard_peripheral/Source/gd32vw55x_spi.c **** {
 707              		.loc 1 303 1
 708              		.cfi_startproc
 709 0000 4111     		addi	sp,sp,-16
 710              		.cfi_def_cfa_offset 16
 711 0002 22C6     		sw	s0,12(sp)
 712              		.cfi_offset 8, -4
 713 0004 0008     		addi	s0,sp,16
 714              		.cfi_def_cfa 8, 0
 304:../Firmware/GD32VW55x_standard_peripheral/Source/gd32vw55x_spi.c ****     return ((uint16_t)SPI_CRCPOLY);
 715              		.loc 1 304 23
 716 0006 B7370140 		li	a5,1073819648
 717 000a C107     		addi	a5,a5,16
 718 000c 9C43     		lw	a5,0(a5)
 719              		.loc 1 304 13
 720 000e C207     		slli	a5,a5,16
 721 0010 C183     		srli	a5,a5,16
 305:../Firmware/GD32VW55x_standard_peripheral/Source/gd32vw55x_spi.c **** }
 722              		.loc 1 305 1
 723 0012 3E85     		mv	a0,a5
 724 0014 3244     		lw	s0,12(sp)
 725              		.cfi_restore 8
 726              		.cfi_def_cfa 2, 16
 727 0016 4101     		addi	sp,sp,16
 728              		.cfi_def_cfa_offset 0
 729 0018 8280     		jr	ra
 730              		.cfi_endproc
 731              	.LFE364:
 733              		.section	.text.spi_crc_on,"ax",@progbits
 734              		.align	1
 735              		.globl	spi_crc_on
 737              	spi_crc_on:
 738              	.LFB365:
 306:../Firmware/GD32VW55x_standard_peripheral/Source/gd32vw55x_spi.c **** 
 307:../Firmware/GD32VW55x_standard_peripheral/Source/gd32vw55x_spi.c **** /*!
 308:../Firmware/GD32VW55x_standard_peripheral/Source/gd32vw55x_spi.c ****     \brief      turn on CRC function
 309:../Firmware/GD32VW55x_standard_peripheral/Source/gd32vw55x_spi.c ****     \param[in]  none
 310:../Firmware/GD32VW55x_standard_peripheral/Source/gd32vw55x_spi.c ****     \param[out] none
 311:../Firmware/GD32VW55x_standard_peripheral/Source/gd32vw55x_spi.c ****     \retval     none
 312:../Firmware/GD32VW55x_standard_peripheral/Source/gd32vw55x_spi.c **** */
 313:../Firmware/GD32VW55x_standard_peripheral/Source/gd32vw55x_spi.c **** void spi_crc_on(void)
 314:../Firmware/GD32VW55x_standard_peripheral/Source/gd32vw55x_spi.c **** {
 739              		.loc 1 314 1
 740              		.cfi_startproc
 741 0000 4111     		addi	sp,sp,-16
 742              		.cfi_def_cfa_offset 16
 743 0002 22C6     		sw	s0,12(sp)
 744              		.cfi_offset 8, -4
 745 0004 0008     		addi	s0,sp,16
 746              		.cfi_def_cfa 8, 0
 315:../Firmware/GD32VW55x_standard_peripheral/Source/gd32vw55x_spi.c ****     SPI_CTL0 |= (uint32_t)SPI_CTL0_CRCEN;
 747              		.loc 1 315 14
 748 0006 B7370140 		li	a5,1073819648
 749 000a 9443     		lw	a3,0(a5)
 750 000c B7370140 		li	a5,1073819648
 751 0010 0967     		li	a4,8192
 752 0012 558F     		or	a4,a3,a4
 753 0014 98C3     		sw	a4,0(a5)
 316:../Firmware/GD32VW55x_standard_peripheral/Source/gd32vw55x_spi.c **** }
 754              		.loc 1 316 1
 755 0016 0100     		nop
 756 0018 3244     		lw	s0,12(sp)
 757              		.cfi_restore 8
 758              		.cfi_def_cfa 2, 16
 759 001a 4101     		addi	sp,sp,16
 760              		.cfi_def_cfa_offset 0
 761 001c 8280     		jr	ra
 762              		.cfi_endproc
 763              	.LFE365:
 765              		.section	.text.spi_crc_off,"ax",@progbits
 766              		.align	1
 767              		.globl	spi_crc_off
 769              	spi_crc_off:
 770              	.LFB366:
 317:../Firmware/GD32VW55x_standard_peripheral/Source/gd32vw55x_spi.c **** 
 318:../Firmware/GD32VW55x_standard_peripheral/Source/gd32vw55x_spi.c **** /*!
 319:../Firmware/GD32VW55x_standard_peripheral/Source/gd32vw55x_spi.c ****     \brief      turn off CRC function
 320:../Firmware/GD32VW55x_standard_peripheral/Source/gd32vw55x_spi.c ****     \param[in]  none
 321:../Firmware/GD32VW55x_standard_peripheral/Source/gd32vw55x_spi.c ****     \param[out] none
 322:../Firmware/GD32VW55x_standard_peripheral/Source/gd32vw55x_spi.c ****     \retval     none
 323:../Firmware/GD32VW55x_standard_peripheral/Source/gd32vw55x_spi.c **** */
 324:../Firmware/GD32VW55x_standard_peripheral/Source/gd32vw55x_spi.c **** void spi_crc_off(void)
 325:../Firmware/GD32VW55x_standard_peripheral/Source/gd32vw55x_spi.c **** {
 771              		.loc 1 325 1
 772              		.cfi_startproc
 773 0000 4111     		addi	sp,sp,-16
 774              		.cfi_def_cfa_offset 16
 775 0002 22C6     		sw	s0,12(sp)
 776              		.cfi_offset 8, -4
 777 0004 0008     		addi	s0,sp,16
 778              		.cfi_def_cfa 8, 0
 326:../Firmware/GD32VW55x_standard_peripheral/Source/gd32vw55x_spi.c ****     SPI_CTL0 &= (uint32_t)(~SPI_CTL0_CRCEN);
 779              		.loc 1 326 14
 780 0006 B7370140 		li	a5,1073819648
 781 000a 9443     		lw	a3,0(a5)
 782 000c B7370140 		li	a5,1073819648
 783 0010 7977     		li	a4,-8192
 784 0012 7D17     		addi	a4,a4,-1
 785 0014 758F     		and	a4,a3,a4
 786 0016 98C3     		sw	a4,0(a5)
 327:../Firmware/GD32VW55x_standard_peripheral/Source/gd32vw55x_spi.c **** }
 787              		.loc 1 327 1
 788 0018 0100     		nop
 789 001a 3244     		lw	s0,12(sp)
 790              		.cfi_restore 8
 791              		.cfi_def_cfa 2, 16
 792 001c 4101     		addi	sp,sp,16
 793              		.cfi_def_cfa_offset 0
 794 001e 8280     		jr	ra
 795              		.cfi_endproc
 796              	.LFE366:
 798              		.section	.text.spi_crc_next,"ax",@progbits
 799              		.align	1
 800              		.globl	spi_crc_next
 802              	spi_crc_next:
 803              	.LFB367:
 328:../Firmware/GD32VW55x_standard_peripheral/Source/gd32vw55x_spi.c **** 
 329:../Firmware/GD32VW55x_standard_peripheral/Source/gd32vw55x_spi.c **** /*!
 330:../Firmware/GD32VW55x_standard_peripheral/Source/gd32vw55x_spi.c ****     \brief      SPI next data is CRC value
 331:../Firmware/GD32VW55x_standard_peripheral/Source/gd32vw55x_spi.c ****     \param[in]  none
 332:../Firmware/GD32VW55x_standard_peripheral/Source/gd32vw55x_spi.c ****     \param[out] none
 333:../Firmware/GD32VW55x_standard_peripheral/Source/gd32vw55x_spi.c ****     \retval     none
 334:../Firmware/GD32VW55x_standard_peripheral/Source/gd32vw55x_spi.c **** */
 335:../Firmware/GD32VW55x_standard_peripheral/Source/gd32vw55x_spi.c **** void spi_crc_next(void)
 336:../Firmware/GD32VW55x_standard_peripheral/Source/gd32vw55x_spi.c **** {
 804              		.loc 1 336 1
 805              		.cfi_startproc
 806 0000 4111     		addi	sp,sp,-16
 807              		.cfi_def_cfa_offset 16
 808 0002 22C6     		sw	s0,12(sp)
 809              		.cfi_offset 8, -4
 810 0004 0008     		addi	s0,sp,16
 811              		.cfi_def_cfa 8, 0
 337:../Firmware/GD32VW55x_standard_peripheral/Source/gd32vw55x_spi.c ****     SPI_CTL0 |= (uint32_t)SPI_CTL0_CRCNT;
 812              		.loc 1 337 14
 813 0006 B7370140 		li	a5,1073819648
 814 000a 9443     		lw	a3,0(a5)
 815 000c B7370140 		li	a5,1073819648
 816 0010 0567     		li	a4,4096
 817 0012 558F     		or	a4,a3,a4
 818 0014 98C3     		sw	a4,0(a5)
 338:../Firmware/GD32VW55x_standard_peripheral/Source/gd32vw55x_spi.c **** }
 819              		.loc 1 338 1
 820 0016 0100     		nop
 821 0018 3244     		lw	s0,12(sp)
 822              		.cfi_restore 8
 823              		.cfi_def_cfa 2, 16
 824 001a 4101     		addi	sp,sp,16
 825              		.cfi_def_cfa_offset 0
 826 001c 8280     		jr	ra
 827              		.cfi_endproc
 828              	.LFE367:
 830              		.section	.text.spi_crc_get,"ax",@progbits
 831              		.align	1
 832              		.globl	spi_crc_get
 834              	spi_crc_get:
 835              	.LFB368:
 339:../Firmware/GD32VW55x_standard_peripheral/Source/gd32vw55x_spi.c **** 
 340:../Firmware/GD32VW55x_standard_peripheral/Source/gd32vw55x_spi.c **** /*!
 341:../Firmware/GD32VW55x_standard_peripheral/Source/gd32vw55x_spi.c ****     \brief      get SPI CRC send value or receive value
 342:../Firmware/GD32VW55x_standard_peripheral/Source/gd32vw55x_spi.c ****     \param[in]  crc: SPI crc value
 343:../Firmware/GD32VW55x_standard_peripheral/Source/gd32vw55x_spi.c ****                 only one parameter can be selected which is shown as below:
 344:../Firmware/GD32VW55x_standard_peripheral/Source/gd32vw55x_spi.c ****       \arg        SPI_CRC_TX: get transmit crc value
 345:../Firmware/GD32VW55x_standard_peripheral/Source/gd32vw55x_spi.c ****       \arg        SPI_CRC_RX: get receive crc value
 346:../Firmware/GD32VW55x_standard_peripheral/Source/gd32vw55x_spi.c ****     \param[out] none
 347:../Firmware/GD32VW55x_standard_peripheral/Source/gd32vw55x_spi.c ****     \retval     16-bit CRC value
 348:../Firmware/GD32VW55x_standard_peripheral/Source/gd32vw55x_spi.c **** */
 349:../Firmware/GD32VW55x_standard_peripheral/Source/gd32vw55x_spi.c **** uint16_t spi_crc_get(uint8_t crc)
 350:../Firmware/GD32VW55x_standard_peripheral/Source/gd32vw55x_spi.c **** {
 836              		.loc 1 350 1
 837              		.cfi_startproc
 838 0000 0111     		addi	sp,sp,-32
 839              		.cfi_def_cfa_offset 32
 840 0002 22CE     		sw	s0,28(sp)
 841              		.cfi_offset 8, -4
 842 0004 0010     		addi	s0,sp,32
 843              		.cfi_def_cfa 8, 0
 844 0006 AA87     		mv	a5,a0
 845 0008 A307F4FE 		sb	a5,-17(s0)
 351:../Firmware/GD32VW55x_standard_peripheral/Source/gd32vw55x_spi.c ****     if(SPI_CRC_TX == crc){
 846              		.loc 1 351 7
 847 000c 8347F4FE 		lbu	a5,-17(s0)
 848 0010 81EB     		bne	a5,zero,.L34
 352:../Firmware/GD32VW55x_standard_peripheral/Source/gd32vw55x_spi.c ****         return ((uint16_t)(SPI_TCRC));
 849              		.loc 1 352 28
 850 0012 B7370140 		li	a5,1073819648
 851 0016 E107     		addi	a5,a5,24
 852 0018 9C43     		lw	a5,0(a5)
 853              		.loc 1 352 17
 854 001a C207     		slli	a5,a5,16
 855 001c C183     		srli	a5,a5,16
 856 001e 39A0     		j	.L35
 857              	.L34:
 353:../Firmware/GD32VW55x_standard_peripheral/Source/gd32vw55x_spi.c ****     }else{
 354:../Firmware/GD32VW55x_standard_peripheral/Source/gd32vw55x_spi.c ****         return ((uint16_t)(SPI_RCRC));
 858              		.loc 1 354 28
 859 0020 B7370140 		li	a5,1073819648
 860 0024 D107     		addi	a5,a5,20
 861 0026 9C43     		lw	a5,0(a5)
 862              		.loc 1 354 17
 863 0028 C207     		slli	a5,a5,16
 864 002a C183     		srli	a5,a5,16
 865              	.L35:
 355:../Firmware/GD32VW55x_standard_peripheral/Source/gd32vw55x_spi.c ****     }
 356:../Firmware/GD32VW55x_standard_peripheral/Source/gd32vw55x_spi.c **** }
 866              		.loc 1 356 1
 867 002c 3E85     		mv	a0,a5
 868 002e 7244     		lw	s0,28(sp)
 869              		.cfi_restore 8
 870              		.cfi_def_cfa 2, 32
 871 0030 0561     		addi	sp,sp,32
 872              		.cfi_def_cfa_offset 0
 873 0032 8280     		jr	ra
 874              		.cfi_endproc
 875              	.LFE368:
 877              		.section	.text.spi_crc_error_clear,"ax",@progbits
 878              		.align	1
 879              		.globl	spi_crc_error_clear
 881              	spi_crc_error_clear:
 882              	.LFB369:
 357:../Firmware/GD32VW55x_standard_peripheral/Source/gd32vw55x_spi.c **** 
 358:../Firmware/GD32VW55x_standard_peripheral/Source/gd32vw55x_spi.c **** /*!
 359:../Firmware/GD32VW55x_standard_peripheral/Source/gd32vw55x_spi.c ****     \brief      clear SPI CRC error flag status
 360:../Firmware/GD32VW55x_standard_peripheral/Source/gd32vw55x_spi.c ****     \param[in]  none
 361:../Firmware/GD32VW55x_standard_peripheral/Source/gd32vw55x_spi.c ****     \param[out] none
 362:../Firmware/GD32VW55x_standard_peripheral/Source/gd32vw55x_spi.c ****     \retval     none
 363:../Firmware/GD32VW55x_standard_peripheral/Source/gd32vw55x_spi.c **** */
 364:../Firmware/GD32VW55x_standard_peripheral/Source/gd32vw55x_spi.c **** void spi_crc_error_clear(void)
 365:../Firmware/GD32VW55x_standard_peripheral/Source/gd32vw55x_spi.c **** {
 883              		.loc 1 365 1
 884              		.cfi_startproc
 885 0000 4111     		addi	sp,sp,-16
 886              		.cfi_def_cfa_offset 16
 887 0002 22C6     		sw	s0,12(sp)
 888              		.cfi_offset 8, -4
 889 0004 0008     		addi	s0,sp,16
 890              		.cfi_def_cfa 8, 0
 366:../Firmware/GD32VW55x_standard_peripheral/Source/gd32vw55x_spi.c ****     SPI_STAT = (uint32_t)(~SPI_FLAG_CRCERR);
 891              		.loc 1 366 5
 892 0006 B7370140 		li	a5,1073819648
 893 000a A107     		addi	a5,a5,8
 894              		.loc 1 366 14
 895 000c 3D57     		li	a4,-17
 896 000e 98C3     		sw	a4,0(a5)
 367:../Firmware/GD32VW55x_standard_peripheral/Source/gd32vw55x_spi.c **** }
 897              		.loc 1 367 1
 898 0010 0100     		nop
 899 0012 3244     		lw	s0,12(sp)
 900              		.cfi_restore 8
 901              		.cfi_def_cfa 2, 16
 902 0014 4101     		addi	sp,sp,16
 903              		.cfi_def_cfa_offset 0
 904 0016 8280     		jr	ra
 905              		.cfi_endproc
 906              	.LFE369:
 908              		.section	.text.spi_ti_mode_enable,"ax",@progbits
 909              		.align	1
 910              		.globl	spi_ti_mode_enable
 912              	spi_ti_mode_enable:
 913              	.LFB370:
 368:../Firmware/GD32VW55x_standard_peripheral/Source/gd32vw55x_spi.c **** 
 369:../Firmware/GD32VW55x_standard_peripheral/Source/gd32vw55x_spi.c **** /*!
 370:../Firmware/GD32VW55x_standard_peripheral/Source/gd32vw55x_spi.c ****     \brief      enable SPI TI mode
 371:../Firmware/GD32VW55x_standard_peripheral/Source/gd32vw55x_spi.c ****     \param[in]  none
 372:../Firmware/GD32VW55x_standard_peripheral/Source/gd32vw55x_spi.c ****     \param[out] none
 373:../Firmware/GD32VW55x_standard_peripheral/Source/gd32vw55x_spi.c ****     \retval     none
 374:../Firmware/GD32VW55x_standard_peripheral/Source/gd32vw55x_spi.c **** */
 375:../Firmware/GD32VW55x_standard_peripheral/Source/gd32vw55x_spi.c **** void spi_ti_mode_enable(void)
 376:../Firmware/GD32VW55x_standard_peripheral/Source/gd32vw55x_spi.c **** {
 914              		.loc 1 376 1
 915              		.cfi_startproc
 916 0000 4111     		addi	sp,sp,-16
 917              		.cfi_def_cfa_offset 16
 918 0002 22C6     		sw	s0,12(sp)
 919              		.cfi_offset 8, -4
 920 0004 0008     		addi	s0,sp,16
 921              		.cfi_def_cfa 8, 0
 377:../Firmware/GD32VW55x_standard_peripheral/Source/gd32vw55x_spi.c ****     SPI_CTL1 |= (uint32_t)SPI_CTL1_TMOD;
 922              		.loc 1 377 14
 923 0006 B7370140 		li	a5,1073819648
 924 000a 9107     		addi	a5,a5,4
 925 000c 9843     		lw	a4,0(a5)
 926 000e B7370140 		li	a5,1073819648
 927 0012 9107     		addi	a5,a5,4
 928 0014 13670701 		ori	a4,a4,16
 929 0018 98C3     		sw	a4,0(a5)
 378:../Firmware/GD32VW55x_standard_peripheral/Source/gd32vw55x_spi.c **** }
 930              		.loc 1 378 1
 931 001a 0100     		nop
 932 001c 3244     		lw	s0,12(sp)
 933              		.cfi_restore 8
 934              		.cfi_def_cfa 2, 16
 935 001e 4101     		addi	sp,sp,16
 936              		.cfi_def_cfa_offset 0
 937 0020 8280     		jr	ra
 938              		.cfi_endproc
 939              	.LFE370:
 941              		.section	.text.spi_ti_mode_disable,"ax",@progbits
 942              		.align	1
 943              		.globl	spi_ti_mode_disable
 945              	spi_ti_mode_disable:
 946              	.LFB371:
 379:../Firmware/GD32VW55x_standard_peripheral/Source/gd32vw55x_spi.c **** 
 380:../Firmware/GD32VW55x_standard_peripheral/Source/gd32vw55x_spi.c **** /*!
 381:../Firmware/GD32VW55x_standard_peripheral/Source/gd32vw55x_spi.c ****     \brief      disable SPI TI mode
 382:../Firmware/GD32VW55x_standard_peripheral/Source/gd32vw55x_spi.c ****     \param[in]  none
 383:../Firmware/GD32VW55x_standard_peripheral/Source/gd32vw55x_spi.c ****     \param[out] none
 384:../Firmware/GD32VW55x_standard_peripheral/Source/gd32vw55x_spi.c ****     \retval     none
 385:../Firmware/GD32VW55x_standard_peripheral/Source/gd32vw55x_spi.c **** */
 386:../Firmware/GD32VW55x_standard_peripheral/Source/gd32vw55x_spi.c **** void spi_ti_mode_disable(void)
 387:../Firmware/GD32VW55x_standard_peripheral/Source/gd32vw55x_spi.c **** {
 947              		.loc 1 387 1
 948              		.cfi_startproc
 949 0000 4111     		addi	sp,sp,-16
 950              		.cfi_def_cfa_offset 16
 951 0002 22C6     		sw	s0,12(sp)
 952              		.cfi_offset 8, -4
 953 0004 0008     		addi	s0,sp,16
 954              		.cfi_def_cfa 8, 0
 388:../Firmware/GD32VW55x_standard_peripheral/Source/gd32vw55x_spi.c ****     SPI_CTL1 &= (uint32_t)(~SPI_CTL1_TMOD);
 955              		.loc 1 388 14
 956 0006 B7370140 		li	a5,1073819648
 957 000a 9107     		addi	a5,a5,4
 958 000c 9843     		lw	a4,0(a5)
 959 000e B7370140 		li	a5,1073819648
 960 0012 9107     		addi	a5,a5,4
 961 0014 3D9B     		andi	a4,a4,-17
 962 0016 98C3     		sw	a4,0(a5)
 389:../Firmware/GD32VW55x_standard_peripheral/Source/gd32vw55x_spi.c **** }
 963              		.loc 1 389 1
 964 0018 0100     		nop
 965 001a 3244     		lw	s0,12(sp)
 966              		.cfi_restore 8
 967              		.cfi_def_cfa 2, 16
 968 001c 4101     		addi	sp,sp,16
 969              		.cfi_def_cfa_offset 0
 970 001e 8280     		jr	ra
 971              		.cfi_endproc
 972              	.LFE371:
 974              		.section	.text.spi_interrupt_enable,"ax",@progbits
 975              		.align	1
 976              		.globl	spi_interrupt_enable
 978              	spi_interrupt_enable:
 979              	.LFB372:
 390:../Firmware/GD32VW55x_standard_peripheral/Source/gd32vw55x_spi.c **** 
 391:../Firmware/GD32VW55x_standard_peripheral/Source/gd32vw55x_spi.c **** /*!
 392:../Firmware/GD32VW55x_standard_peripheral/Source/gd32vw55x_spi.c ****     \brief      enable SPI interrupt
 393:../Firmware/GD32VW55x_standard_peripheral/Source/gd32vw55x_spi.c ****     \param[in]  interrupt: SPI interrupt
 394:../Firmware/GD32VW55x_standard_peripheral/Source/gd32vw55x_spi.c ****                 only one parameter can be selected which is shown as below:
 395:../Firmware/GD32VW55x_standard_peripheral/Source/gd32vw55x_spi.c ****       \arg        SPI_INT_TBE: transmit buffer empty interrupt
 396:../Firmware/GD32VW55x_standard_peripheral/Source/gd32vw55x_spi.c ****       \arg        SPI_INT_RBNE: receive buffer not empty interrupt
 397:../Firmware/GD32VW55x_standard_peripheral/Source/gd32vw55x_spi.c ****       \arg        SPI_INT_ERR: CRC error,configuration error,reception overrun error
 398:../Firmware/GD32VW55x_standard_peripheral/Source/gd32vw55x_spi.c ****                                     and format error interrupt
 399:../Firmware/GD32VW55x_standard_peripheral/Source/gd32vw55x_spi.c ****     \param[out] none
 400:../Firmware/GD32VW55x_standard_peripheral/Source/gd32vw55x_spi.c ****     \retval     none
 401:../Firmware/GD32VW55x_standard_peripheral/Source/gd32vw55x_spi.c **** */
 402:../Firmware/GD32VW55x_standard_peripheral/Source/gd32vw55x_spi.c **** void spi_interrupt_enable(uint8_t interrupt)
 403:../Firmware/GD32VW55x_standard_peripheral/Source/gd32vw55x_spi.c **** {
 980              		.loc 1 403 1
 981              		.cfi_startproc
 982 0000 0111     		addi	sp,sp,-32
 983              		.cfi_def_cfa_offset 32
 984 0002 22CE     		sw	s0,28(sp)
 985              		.cfi_offset 8, -4
 986 0004 0010     		addi	s0,sp,32
 987              		.cfi_def_cfa 8, 0
 988 0006 AA87     		mv	a5,a0
 989 0008 A307F4FE 		sb	a5,-17(s0)
 404:../Firmware/GD32VW55x_standard_peripheral/Source/gd32vw55x_spi.c ****     switch(interrupt){
 990              		.loc 1 404 5
 991 000c 8347F4FE 		lbu	a5,-17(s0)
 992 0010 0947     		li	a4,2
 993 0012 6380E704 		beq	a5,a4,.L40
 994 0016 0947     		li	a4,2
 995 0018 6348F704 		bgt	a5,a4,.L45
 996 001c 89C7     		beq	a5,zero,.L42
 997 001e 0547     		li	a4,1
 998 0020 638EE700 		beq	a5,a4,.L43
 405:../Firmware/GD32VW55x_standard_peripheral/Source/gd32vw55x_spi.c ****     /* SPI transmit buffer empty interrupt */
 406:../Firmware/GD32VW55x_standard_peripheral/Source/gd32vw55x_spi.c ****     case SPI_INT_TBE:
 407:../Firmware/GD32VW55x_standard_peripheral/Source/gd32vw55x_spi.c ****         SPI_CTL1 |= (uint32_t)SPI_CTL1_TBEIE;
 408:../Firmware/GD32VW55x_standard_peripheral/Source/gd32vw55x_spi.c ****         break;
 409:../Firmware/GD32VW55x_standard_peripheral/Source/gd32vw55x_spi.c ****     /* SPI receive buffer not empty interrupt */
 410:../Firmware/GD32VW55x_standard_peripheral/Source/gd32vw55x_spi.c ****     case SPI_INT_RBNE:
 411:../Firmware/GD32VW55x_standard_peripheral/Source/gd32vw55x_spi.c ****         SPI_CTL1 |= (uint32_t)SPI_CTL1_RBNEIE;
 412:../Firmware/GD32VW55x_standard_peripheral/Source/gd32vw55x_spi.c ****         break;
 413:../Firmware/GD32VW55x_standard_peripheral/Source/gd32vw55x_spi.c ****     /* SPI error */
 414:../Firmware/GD32VW55x_standard_peripheral/Source/gd32vw55x_spi.c ****     case SPI_INT_ERR:
 415:../Firmware/GD32VW55x_standard_peripheral/Source/gd32vw55x_spi.c ****         SPI_CTL1 |= (uint32_t)SPI_CTL1_ERRIE;
 416:../Firmware/GD32VW55x_standard_peripheral/Source/gd32vw55x_spi.c ****         break;
 417:../Firmware/GD32VW55x_standard_peripheral/Source/gd32vw55x_spi.c ****     default:
 418:../Firmware/GD32VW55x_standard_peripheral/Source/gd32vw55x_spi.c ****         break;
 999              		.loc 1 418 9
 1000 0024 91A0     		j	.L45
 1001              	.L42:
 407:../Firmware/GD32VW55x_standard_peripheral/Source/gd32vw55x_spi.c ****         break;
 1002              		.loc 1 407 18
 1003 0026 B7370140 		li	a5,1073819648
 1004 002a 9107     		addi	a5,a5,4
 1005 002c 9843     		lw	a4,0(a5)
 1006 002e B7370140 		li	a5,1073819648
 1007 0032 9107     		addi	a5,a5,4
 1008 0034 13670708 		ori	a4,a4,128
 1009 0038 98C3     		sw	a4,0(a5)
 408:../Firmware/GD32VW55x_standard_peripheral/Source/gd32vw55x_spi.c ****     /* SPI receive buffer not empty interrupt */
 1010              		.loc 1 408 9
 1011 003a 05A8     		j	.L44
 1012              	.L43:
 411:../Firmware/GD32VW55x_standard_peripheral/Source/gd32vw55x_spi.c ****         break;
 1013              		.loc 1 411 18
 1014 003c B7370140 		li	a5,1073819648
 1015 0040 9107     		addi	a5,a5,4
 1016 0042 9843     		lw	a4,0(a5)
 1017 0044 B7370140 		li	a5,1073819648
 1018 0048 9107     		addi	a5,a5,4
 1019 004a 13670704 		ori	a4,a4,64
 1020 004e 98C3     		sw	a4,0(a5)
 412:../Firmware/GD32VW55x_standard_peripheral/Source/gd32vw55x_spi.c ****     /* SPI error */
 1021              		.loc 1 412 9
 1022 0050 29A8     		j	.L44
 1023              	.L40:
 415:../Firmware/GD32VW55x_standard_peripheral/Source/gd32vw55x_spi.c ****         break;
 1024              		.loc 1 415 18
 1025 0052 B7370140 		li	a5,1073819648
 1026 0056 9107     		addi	a5,a5,4
 1027 0058 9843     		lw	a4,0(a5)
 1028 005a B7370140 		li	a5,1073819648
 1029 005e 9107     		addi	a5,a5,4
 1030 0060 13670702 		ori	a4,a4,32
 1031 0064 98C3     		sw	a4,0(a5)
 416:../Firmware/GD32VW55x_standard_peripheral/Source/gd32vw55x_spi.c ****     default:
 1032              		.loc 1 416 9
 1033 0066 11A0     		j	.L44
 1034              	.L45:
 1035              		.loc 1 418 9
 1036 0068 0100     		nop
 1037              	.L44:
 419:../Firmware/GD32VW55x_standard_peripheral/Source/gd32vw55x_spi.c ****     }
 420:../Firmware/GD32VW55x_standard_peripheral/Source/gd32vw55x_spi.c **** }
 1038              		.loc 1 420 1
 1039 006a 0100     		nop
 1040 006c 7244     		lw	s0,28(sp)
 1041              		.cfi_restore 8
 1042              		.cfi_def_cfa 2, 32
 1043 006e 0561     		addi	sp,sp,32
 1044              		.cfi_def_cfa_offset 0
 1045 0070 8280     		jr	ra
 1046              		.cfi_endproc
 1047              	.LFE372:
 1049              		.section	.text.spi_interrupt_disable,"ax",@progbits
 1050              		.align	1
 1051              		.globl	spi_interrupt_disable
 1053              	spi_interrupt_disable:
 1054              	.LFB373:
 421:../Firmware/GD32VW55x_standard_peripheral/Source/gd32vw55x_spi.c **** 
 422:../Firmware/GD32VW55x_standard_peripheral/Source/gd32vw55x_spi.c **** /*!
 423:../Firmware/GD32VW55x_standard_peripheral/Source/gd32vw55x_spi.c ****     \brief      disable SPI interrupt
 424:../Firmware/GD32VW55x_standard_peripheral/Source/gd32vw55x_spi.c ****     \param[in]  interrupt: SPI interrupt
 425:../Firmware/GD32VW55x_standard_peripheral/Source/gd32vw55x_spi.c ****                 only one parameter can be selected which is shown as below:
 426:../Firmware/GD32VW55x_standard_peripheral/Source/gd32vw55x_spi.c ****       \arg        SPI_INT_TBE: transmit buffer empty interrupt
 427:../Firmware/GD32VW55x_standard_peripheral/Source/gd32vw55x_spi.c ****       \arg        SPI_INT_RBNE: receive buffer not empty interrupt
 428:../Firmware/GD32VW55x_standard_peripheral/Source/gd32vw55x_spi.c ****       \arg        SPI_INT_ERR: CRC error,configuration error,reception overrun error
 429:../Firmware/GD32VW55x_standard_peripheral/Source/gd32vw55x_spi.c ****                                     and format error interrupt
 430:../Firmware/GD32VW55x_standard_peripheral/Source/gd32vw55x_spi.c ****     \param[out] none
 431:../Firmware/GD32VW55x_standard_peripheral/Source/gd32vw55x_spi.c ****     \retval     none
 432:../Firmware/GD32VW55x_standard_peripheral/Source/gd32vw55x_spi.c **** */
 433:../Firmware/GD32VW55x_standard_peripheral/Source/gd32vw55x_spi.c **** void spi_interrupt_disable(uint8_t interrupt)
 434:../Firmware/GD32VW55x_standard_peripheral/Source/gd32vw55x_spi.c **** {
 1055              		.loc 1 434 1
 1056              		.cfi_startproc
 1057 0000 0111     		addi	sp,sp,-32
 1058              		.cfi_def_cfa_offset 32
 1059 0002 22CE     		sw	s0,28(sp)
 1060              		.cfi_offset 8, -4
 1061 0004 0010     		addi	s0,sp,32
 1062              		.cfi_def_cfa 8, 0
 1063 0006 AA87     		mv	a5,a0
 1064 0008 A307F4FE 		sb	a5,-17(s0)
 435:../Firmware/GD32VW55x_standard_peripheral/Source/gd32vw55x_spi.c ****     switch(interrupt){
 1065              		.loc 1 435 5
 1066 000c 8347F4FE 		lbu	a5,-17(s0)
 1067 0010 0947     		li	a4,2
 1068 0012 6380E704 		beq	a5,a4,.L47
 1069 0016 0947     		li	a4,2
 1070 0018 6348F704 		bgt	a5,a4,.L52
 1071 001c 89C7     		beq	a5,zero,.L49
 1072 001e 0547     		li	a4,1
 1073 0020 638EE700 		beq	a5,a4,.L50
 436:../Firmware/GD32VW55x_standard_peripheral/Source/gd32vw55x_spi.c ****     /* SPI transmit buffer empty interrupt */
 437:../Firmware/GD32VW55x_standard_peripheral/Source/gd32vw55x_spi.c ****     case SPI_INT_TBE:
 438:../Firmware/GD32VW55x_standard_peripheral/Source/gd32vw55x_spi.c ****         SPI_CTL1 &= (uint32_t)(~SPI_CTL1_TBEIE);
 439:../Firmware/GD32VW55x_standard_peripheral/Source/gd32vw55x_spi.c ****         break;
 440:../Firmware/GD32VW55x_standard_peripheral/Source/gd32vw55x_spi.c ****     /* SPI receive buffer not empty interrupt */
 441:../Firmware/GD32VW55x_standard_peripheral/Source/gd32vw55x_spi.c ****     case SPI_INT_RBNE:
 442:../Firmware/GD32VW55x_standard_peripheral/Source/gd32vw55x_spi.c ****         SPI_CTL1 &= (uint32_t)(~SPI_CTL1_RBNEIE);
 443:../Firmware/GD32VW55x_standard_peripheral/Source/gd32vw55x_spi.c ****         break;
 444:../Firmware/GD32VW55x_standard_peripheral/Source/gd32vw55x_spi.c ****     /* SPI error */
 445:../Firmware/GD32VW55x_standard_peripheral/Source/gd32vw55x_spi.c ****     case SPI_INT_ERR:
 446:../Firmware/GD32VW55x_standard_peripheral/Source/gd32vw55x_spi.c ****         SPI_CTL1 &= (uint32_t)(~SPI_CTL1_ERRIE);
 447:../Firmware/GD32VW55x_standard_peripheral/Source/gd32vw55x_spi.c ****         break;
 448:../Firmware/GD32VW55x_standard_peripheral/Source/gd32vw55x_spi.c ****     default :
 449:../Firmware/GD32VW55x_standard_peripheral/Source/gd32vw55x_spi.c ****         break;
 1074              		.loc 1 449 9
 1075 0024 91A0     		j	.L52
 1076              	.L49:
 438:../Firmware/GD32VW55x_standard_peripheral/Source/gd32vw55x_spi.c ****         break;
 1077              		.loc 1 438 18
 1078 0026 B7370140 		li	a5,1073819648
 1079 002a 9107     		addi	a5,a5,4
 1080 002c 9843     		lw	a4,0(a5)
 1081 002e B7370140 		li	a5,1073819648
 1082 0032 9107     		addi	a5,a5,4
 1083 0034 1377F7F7 		andi	a4,a4,-129
 1084 0038 98C3     		sw	a4,0(a5)
 439:../Firmware/GD32VW55x_standard_peripheral/Source/gd32vw55x_spi.c ****     /* SPI receive buffer not empty interrupt */
 1085              		.loc 1 439 9
 1086 003a 05A8     		j	.L51
 1087              	.L50:
 442:../Firmware/GD32VW55x_standard_peripheral/Source/gd32vw55x_spi.c ****         break;
 1088              		.loc 1 442 18
 1089 003c B7370140 		li	a5,1073819648
 1090 0040 9107     		addi	a5,a5,4
 1091 0042 9843     		lw	a4,0(a5)
 1092 0044 B7370140 		li	a5,1073819648
 1093 0048 9107     		addi	a5,a5,4
 1094 004a 1377F7FB 		andi	a4,a4,-65
 1095 004e 98C3     		sw	a4,0(a5)
 443:../Firmware/GD32VW55x_standard_peripheral/Source/gd32vw55x_spi.c ****     /* SPI error */
 1096              		.loc 1 443 9
 1097 0050 29A8     		j	.L51
 1098              	.L47:
 446:../Firmware/GD32VW55x_standard_peripheral/Source/gd32vw55x_spi.c ****         break;
 1099              		.loc 1 446 18
 1100 0052 B7370140 		li	a5,1073819648
 1101 0056 9107     		addi	a5,a5,4
 1102 0058 9843     		lw	a4,0(a5)
 1103 005a B7370140 		li	a5,1073819648
 1104 005e 9107     		addi	a5,a5,4
 1105 0060 1377F7FD 		andi	a4,a4,-33
 1106 0064 98C3     		sw	a4,0(a5)
 447:../Firmware/GD32VW55x_standard_peripheral/Source/gd32vw55x_spi.c ****     default :
 1107              		.loc 1 447 9
 1108 0066 11A0     		j	.L51
 1109              	.L52:
 1110              		.loc 1 449 9
 1111 0068 0100     		nop
 1112              	.L51:
 450:../Firmware/GD32VW55x_standard_peripheral/Source/gd32vw55x_spi.c ****     }
 451:../Firmware/GD32VW55x_standard_peripheral/Source/gd32vw55x_spi.c **** }
 1113              		.loc 1 451 1
 1114 006a 0100     		nop
 1115 006c 7244     		lw	s0,28(sp)
 1116              		.cfi_restore 8
 1117              		.cfi_def_cfa 2, 32
 1118 006e 0561     		addi	sp,sp,32
 1119              		.cfi_def_cfa_offset 0
 1120 0070 8280     		jr	ra
 1121              		.cfi_endproc
 1122              	.LFE373:
 1124              		.section	.text.spi_interrupt_flag_get,"ax",@progbits
 1125              		.align	1
 1126              		.globl	spi_interrupt_flag_get
 1128              	spi_interrupt_flag_get:
 1129              	.LFB374:
 452:../Firmware/GD32VW55x_standard_peripheral/Source/gd32vw55x_spi.c **** 
 453:../Firmware/GD32VW55x_standard_peripheral/Source/gd32vw55x_spi.c **** /*!
 454:../Firmware/GD32VW55x_standard_peripheral/Source/gd32vw55x_spi.c ****     \brief      get SPI interrupt flag status
 455:../Firmware/GD32VW55x_standard_peripheral/Source/gd32vw55x_spi.c ****     \param[in]  interrupt: SPI interrupt flag status
 456:../Firmware/GD32VW55x_standard_peripheral/Source/gd32vw55x_spi.c ****                 only one parameter can be selected which is shown as below:
 457:../Firmware/GD32VW55x_standard_peripheral/Source/gd32vw55x_spi.c ****       \arg        SPI_INT_FLAG_TBE: transmit buffer empty interrupt flag
 458:../Firmware/GD32VW55x_standard_peripheral/Source/gd32vw55x_spi.c ****       \arg        SPI_INT_FLAG_RBNE: receive buffer not empty interrupt flag
 459:../Firmware/GD32VW55x_standard_peripheral/Source/gd32vw55x_spi.c ****       \arg        SPI_INT_FLAG_RXORERR: overrun interrupt flag
 460:../Firmware/GD32VW55x_standard_peripheral/Source/gd32vw55x_spi.c ****       \arg        SPI_INT_FLAG_CONFERR: configuration error interrupt flag
 461:../Firmware/GD32VW55x_standard_peripheral/Source/gd32vw55x_spi.c ****       \arg        SPI_INT_FLAG_CRCERR: CRC error interrupt flag
 462:../Firmware/GD32VW55x_standard_peripheral/Source/gd32vw55x_spi.c ****       \arg        SPI_INT_FLAG_FERR: format error interrupt flag
 463:../Firmware/GD32VW55x_standard_peripheral/Source/gd32vw55x_spi.c ****     \param[out] none
 464:../Firmware/GD32VW55x_standard_peripheral/Source/gd32vw55x_spi.c ****     \retval     FlagStatus: SET or RESET
 465:../Firmware/GD32VW55x_standard_peripheral/Source/gd32vw55x_spi.c **** */
 466:../Firmware/GD32VW55x_standard_peripheral/Source/gd32vw55x_spi.c **** FlagStatus spi_interrupt_flag_get(uint8_t interrupt)
 467:../Firmware/GD32VW55x_standard_peripheral/Source/gd32vw55x_spi.c **** {
 1130              		.loc 1 467 1
 1131              		.cfi_startproc
 1132 0000 7971     		addi	sp,sp,-48
 1133              		.cfi_def_cfa_offset 48
 1134 0002 22D6     		sw	s0,44(sp)
 1135              		.cfi_offset 8, -4
 1136 0004 0018     		addi	s0,sp,48
 1137              		.cfi_def_cfa 8, 0
 1138 0006 AA87     		mv	a5,a0
 1139 0008 A30FF4FC 		sb	a5,-33(s0)
 468:../Firmware/GD32VW55x_standard_peripheral/Source/gd32vw55x_spi.c ****     uint32_t reg1 = SPI_STAT;
 1140              		.loc 1 468 21
 1141 000c B7370140 		li	a5,1073819648
 1142 0010 A107     		addi	a5,a5,8
 1143              		.loc 1 468 14
 1144 0012 9C43     		lw	a5,0(a5)
 1145 0014 2326F4FE 		sw	a5,-20(s0)
 469:../Firmware/GD32VW55x_standard_peripheral/Source/gd32vw55x_spi.c ****     uint32_t reg2 = SPI_CTL1;
 1146              		.loc 1 469 21
 1147 0018 B7370140 		li	a5,1073819648
 1148 001c 9107     		addi	a5,a5,4
 1149              		.loc 1 469 14
 1150 001e 9C43     		lw	a5,0(a5)
 1151 0020 2324F4FE 		sw	a5,-24(s0)
 470:../Firmware/GD32VW55x_standard_peripheral/Source/gd32vw55x_spi.c **** 
 471:../Firmware/GD32VW55x_standard_peripheral/Source/gd32vw55x_spi.c ****     switch(interrupt){
 1152              		.loc 1 471 5
 1153 0024 8347F4FD 		lbu	a5,-33(s0)
 1154 0028 1947     		li	a4,6
 1155 002a 636BF70A 		bgtu	a5,a4,.L65
 1156 002e 13972700 		slli	a4,a5,2
 1157 0032 97070000 		lla	a5,.L56
 1157      93870700 
 1158 003a BA97     		add	a5,a4,a5
 1159 003c 9843     		lw	a4,0(a5)
 1160 003e 97070000 		lla	a5,.L56
 1160      93870700 
 1161 0046 BA97     		add	a5,a4,a5
 1162 0048 8287     		jr	a5
 1163              		.section	.rodata.spi_interrupt_flag_get,"a",@progbits
 1164              		.align	2
 1165              		.align	2
 1166              	.L56:
 1167 0000 00000000 		.word	.L61-.L56
 1168 0004 00000000 		.word	.L60-.L56
 1169 0008 00000000 		.word	.L59-.L56
 1170 000c 00000000 		.word	.L58-.L56
 1171 0010 00000000 		.word	.L57-.L56
 1172 0014 00000000 		.word	.L65-.L56
 1173 0018 00000000 		.word	.L55-.L56
 1174              		.section	.text.spi_interrupt_flag_get
 1175              	.L61:
 472:../Firmware/GD32VW55x_standard_peripheral/Source/gd32vw55x_spi.c ****     /* SPI transmit buffer empty interrupt */
 473:../Firmware/GD32VW55x_standard_peripheral/Source/gd32vw55x_spi.c ****     case SPI_INT_FLAG_TBE:
 474:../Firmware/GD32VW55x_standard_peripheral/Source/gd32vw55x_spi.c ****         reg1 = reg1 & SPI_STAT_TBE;
 1176              		.loc 1 474 14
 1177 004a 8327C4FE 		lw	a5,-20(s0)
 1178 004e 898B     		andi	a5,a5,2
 1179 0050 2326F4FE 		sw	a5,-20(s0)
 475:../Firmware/GD32VW55x_standard_peripheral/Source/gd32vw55x_spi.c ****         reg2 = reg2 & SPI_CTL1_TBEIE;
 1180              		.loc 1 475 14
 1181 0054 832784FE 		lw	a5,-24(s0)
 1182 0058 93F70708 		andi	a5,a5,128
 1183 005c 2324F4FE 		sw	a5,-24(s0)
 476:../Firmware/GD32VW55x_standard_peripheral/Source/gd32vw55x_spi.c ****         break;
 1184              		.loc 1 476 9
 1185 0060 49A0     		j	.L62
 1186              	.L60:
 477:../Firmware/GD32VW55x_standard_peripheral/Source/gd32vw55x_spi.c ****     /* SPI receive buffer not empty interrupt */
 478:../Firmware/GD32VW55x_standard_peripheral/Source/gd32vw55x_spi.c ****     case SPI_INT_FLAG_RBNE:
 479:../Firmware/GD32VW55x_standard_peripheral/Source/gd32vw55x_spi.c ****         reg1 = reg1 & SPI_STAT_RBNE;
 1187              		.loc 1 479 14
 1188 0062 8327C4FE 		lw	a5,-20(s0)
 1189 0066 858B     		andi	a5,a5,1
 1190 0068 2326F4FE 		sw	a5,-20(s0)
 480:../Firmware/GD32VW55x_standard_peripheral/Source/gd32vw55x_spi.c ****         reg2 = reg2 & SPI_CTL1_RBNEIE;
 1191              		.loc 1 480 14
 1192 006c 832784FE 		lw	a5,-24(s0)
 1193 0070 93F70704 		andi	a5,a5,64
 1194 0074 2324F4FE 		sw	a5,-24(s0)
 481:../Firmware/GD32VW55x_standard_peripheral/Source/gd32vw55x_spi.c ****         break;
 1195              		.loc 1 481 9
 1196 0078 ADA0     		j	.L62
 1197              	.L59:
 482:../Firmware/GD32VW55x_standard_peripheral/Source/gd32vw55x_spi.c ****     /* SPI overrun interrupt */
 483:../Firmware/GD32VW55x_standard_peripheral/Source/gd32vw55x_spi.c ****     case SPI_INT_FLAG_RXORERR:
 484:../Firmware/GD32VW55x_standard_peripheral/Source/gd32vw55x_spi.c ****         reg1 = reg1 & SPI_STAT_RXORERR;
 1198              		.loc 1 484 14
 1199 007a 8327C4FE 		lw	a5,-20(s0)
 1200 007e 93F70704 		andi	a5,a5,64
 1201 0082 2326F4FE 		sw	a5,-20(s0)
 485:../Firmware/GD32VW55x_standard_peripheral/Source/gd32vw55x_spi.c ****         reg2 = reg2 & SPI_CTL1_ERRIE;
 1202              		.loc 1 485 14
 1203 0086 832784FE 		lw	a5,-24(s0)
 1204 008a 93F70702 		andi	a5,a5,32
 1205 008e 2324F4FE 		sw	a5,-24(s0)
 486:../Firmware/GD32VW55x_standard_peripheral/Source/gd32vw55x_spi.c ****         break;
 1206              		.loc 1 486 9
 1207 0092 81A8     		j	.L62
 1208              	.L58:
 487:../Firmware/GD32VW55x_standard_peripheral/Source/gd32vw55x_spi.c ****     /* SPI configuration error interrupt */
 488:../Firmware/GD32VW55x_standard_peripheral/Source/gd32vw55x_spi.c ****     case SPI_INT_FLAG_CONFERR:
 489:../Firmware/GD32VW55x_standard_peripheral/Source/gd32vw55x_spi.c ****         reg1 = reg1 & SPI_STAT_CONFERR;
 1209              		.loc 1 489 14
 1210 0094 8327C4FE 		lw	a5,-20(s0)
 1211 0098 93F70702 		andi	a5,a5,32
 1212 009c 2326F4FE 		sw	a5,-20(s0)
 490:../Firmware/GD32VW55x_standard_peripheral/Source/gd32vw55x_spi.c ****         reg2 = reg2 & SPI_CTL1_ERRIE;
 1213              		.loc 1 490 14
 1214 00a0 832784FE 		lw	a5,-24(s0)
 1215 00a4 93F70702 		andi	a5,a5,32
 1216 00a8 2324F4FE 		sw	a5,-24(s0)
 491:../Firmware/GD32VW55x_standard_peripheral/Source/gd32vw55x_spi.c ****         break;
 1217              		.loc 1 491 9
 1218 00ac 1DA8     		j	.L62
 1219              	.L57:
 492:../Firmware/GD32VW55x_standard_peripheral/Source/gd32vw55x_spi.c ****     /* SPI CRC error interrupt */
 493:../Firmware/GD32VW55x_standard_peripheral/Source/gd32vw55x_spi.c ****     case SPI_INT_FLAG_CRCERR:
 494:../Firmware/GD32VW55x_standard_peripheral/Source/gd32vw55x_spi.c ****         reg1 = reg1 & SPI_STAT_CRCERR;
 1220              		.loc 1 494 14
 1221 00ae 8327C4FE 		lw	a5,-20(s0)
 1222 00b2 C18B     		andi	a5,a5,16
 1223 00b4 2326F4FE 		sw	a5,-20(s0)
 495:../Firmware/GD32VW55x_standard_peripheral/Source/gd32vw55x_spi.c ****         reg2 = reg2 & SPI_CTL1_ERRIE;
 1224              		.loc 1 495 14
 1225 00b8 832784FE 		lw	a5,-24(s0)
 1226 00bc 93F70702 		andi	a5,a5,32
 1227 00c0 2324F4FE 		sw	a5,-24(s0)
 496:../Firmware/GD32VW55x_standard_peripheral/Source/gd32vw55x_spi.c ****         break;
 1228              		.loc 1 496 9
 1229 00c4 39A8     		j	.L62
 1230              	.L55:
 497:../Firmware/GD32VW55x_standard_peripheral/Source/gd32vw55x_spi.c ****     /* SPI format error interrupt */
 498:../Firmware/GD32VW55x_standard_peripheral/Source/gd32vw55x_spi.c ****     case SPI_INT_FLAG_FERR:
 499:../Firmware/GD32VW55x_standard_peripheral/Source/gd32vw55x_spi.c ****         reg1 = reg1 & SPI_STAT_FERR;
 1231              		.loc 1 499 14
 1232 00c6 8327C4FE 		lw	a5,-20(s0)
 1233 00ca 93F70710 		andi	a5,a5,256
 1234 00ce 2326F4FE 		sw	a5,-20(s0)
 500:../Firmware/GD32VW55x_standard_peripheral/Source/gd32vw55x_spi.c ****         reg2 = reg2 & SPI_CTL1_ERRIE;
 1235              		.loc 1 500 14
 1236 00d2 832784FE 		lw	a5,-24(s0)
 1237 00d6 93F70702 		andi	a5,a5,32
 1238 00da 2324F4FE 		sw	a5,-24(s0)
 501:../Firmware/GD32VW55x_standard_peripheral/Source/gd32vw55x_spi.c ****         break;
 1239              		.loc 1 501 9
 1240 00de 11A0     		j	.L62
 1241              	.L65:
 502:../Firmware/GD32VW55x_standard_peripheral/Source/gd32vw55x_spi.c ****     default :
 503:../Firmware/GD32VW55x_standard_peripheral/Source/gd32vw55x_spi.c ****         break;
 1242              		.loc 1 503 9
 1243 00e0 0100     		nop
 1244              	.L62:
 504:../Firmware/GD32VW55x_standard_peripheral/Source/gd32vw55x_spi.c ****     }
 505:../Firmware/GD32VW55x_standard_peripheral/Source/gd32vw55x_spi.c ****     /*get SPI interrupt flag status */
 506:../Firmware/GD32VW55x_standard_peripheral/Source/gd32vw55x_spi.c ****     if((0U != reg1) && (0U != reg2)){
 1245              		.loc 1 506 7
 1246 00e2 8327C4FE 		lw	a5,-20(s0)
 1247 00e6 91C7     		beq	a5,zero,.L63
 1248              		.loc 1 506 21 discriminator 1
 1249 00e8 832784FE 		lw	a5,-24(s0)
 1250 00ec 99C3     		beq	a5,zero,.L63
 507:../Firmware/GD32VW55x_standard_peripheral/Source/gd32vw55x_spi.c ****         return SET;
 1251              		.loc 1 507 16
 1252 00ee 8547     		li	a5,1
 1253 00f0 11A0     		j	.L64
 1254              	.L63:
 508:../Firmware/GD32VW55x_standard_peripheral/Source/gd32vw55x_spi.c ****     }else{
 509:../Firmware/GD32VW55x_standard_peripheral/Source/gd32vw55x_spi.c ****         return RESET;
 1255              		.loc 1 509 16
 1256 00f2 8147     		li	a5,0
 1257              	.L64:
 510:../Firmware/GD32VW55x_standard_peripheral/Source/gd32vw55x_spi.c ****     }
 511:../Firmware/GD32VW55x_standard_peripheral/Source/gd32vw55x_spi.c **** }
 1258              		.loc 1 511 1
 1259 00f4 3E85     		mv	a0,a5
 1260 00f6 3254     		lw	s0,44(sp)
 1261              		.cfi_restore 8
 1262              		.cfi_def_cfa 2, 48
 1263 00f8 4561     		addi	sp,sp,48
 1264              		.cfi_def_cfa_offset 0
 1265 00fa 8280     		jr	ra
 1266              		.cfi_endproc
 1267              	.LFE374:
 1269              		.section	.text.spi_flag_get,"ax",@progbits
 1270              		.align	1
 1271              		.globl	spi_flag_get
 1273              	spi_flag_get:
 1274              	.LFB375:
 512:../Firmware/GD32VW55x_standard_peripheral/Source/gd32vw55x_spi.c **** 
 513:../Firmware/GD32VW55x_standard_peripheral/Source/gd32vw55x_spi.c **** /*!
 514:../Firmware/GD32VW55x_standard_peripheral/Source/gd32vw55x_spi.c ****     \brief      get SPI flag status
 515:../Firmware/GD32VW55x_standard_peripheral/Source/gd32vw55x_spi.c ****     \param[in]  flag: SPI flag status
 516:../Firmware/GD32VW55x_standard_peripheral/Source/gd32vw55x_spi.c ****                 only one parameter can be selected which is shown as below:
 517:../Firmware/GD32VW55x_standard_peripheral/Source/gd32vw55x_spi.c ****       \arg        SPI_FLAG_TBE: transmit buffer empty flag
 518:../Firmware/GD32VW55x_standard_peripheral/Source/gd32vw55x_spi.c ****       \arg        SPI_FLAG_RBNE: receive buffer not empty flag
 519:../Firmware/GD32VW55x_standard_peripheral/Source/gd32vw55x_spi.c ****       \arg        SPI_FLAG_TRANS: transmit on-going flag
 520:../Firmware/GD32VW55x_standard_peripheral/Source/gd32vw55x_spi.c ****       \arg        SPI_FLAG_RXORERR: receive overrun error flag
 521:../Firmware/GD32VW55x_standard_peripheral/Source/gd32vw55x_spi.c ****       \arg        SPI_FLAG_CONFERR: mode configuration error flag
 522:../Firmware/GD32VW55x_standard_peripheral/Source/gd32vw55x_spi.c ****       \arg        SPI_FLAG_CRCERR: CRC error flag
 523:../Firmware/GD32VW55x_standard_peripheral/Source/gd32vw55x_spi.c ****       \arg        SPI_FLAG_FERR: format error flag
 524:../Firmware/GD32VW55x_standard_peripheral/Source/gd32vw55x_spi.c ****     \param[out] none
 525:../Firmware/GD32VW55x_standard_peripheral/Source/gd32vw55x_spi.c ****     \retval     FlagStatus: SET or RESET
 526:../Firmware/GD32VW55x_standard_peripheral/Source/gd32vw55x_spi.c **** */
 527:../Firmware/GD32VW55x_standard_peripheral/Source/gd32vw55x_spi.c **** FlagStatus spi_flag_get(uint32_t flag)
 528:../Firmware/GD32VW55x_standard_peripheral/Source/gd32vw55x_spi.c **** {
 1275              		.loc 1 528 1
 1276              		.cfi_startproc
 1277 0000 0111     		addi	sp,sp,-32
 1278              		.cfi_def_cfa_offset 32
 1279 0002 22CE     		sw	s0,28(sp)
 1280              		.cfi_offset 8, -4
 1281 0004 0010     		addi	s0,sp,32
 1282              		.cfi_def_cfa 8, 0
 1283 0006 2326A4FE 		sw	a0,-20(s0)
 529:../Firmware/GD32VW55x_standard_peripheral/Source/gd32vw55x_spi.c ****     if(0U != (SPI_STAT & flag)){
 1284              		.loc 1 529 15
 1285 000a B7370140 		li	a5,1073819648
 1286 000e A107     		addi	a5,a5,8
 1287 0010 9843     		lw	a4,0(a5)
 1288              		.loc 1 529 24
 1289 0012 8327C4FE 		lw	a5,-20(s0)
 1290 0016 F98F     		and	a5,a4,a5
 1291              		.loc 1 529 7
 1292 0018 99C3     		beq	a5,zero,.L67
 530:../Firmware/GD32VW55x_standard_peripheral/Source/gd32vw55x_spi.c ****         return SET;
 1293              		.loc 1 530 16
 1294 001a 8547     		li	a5,1
 1295 001c 11A0     		j	.L68
 1296              	.L67:
 531:../Firmware/GD32VW55x_standard_peripheral/Source/gd32vw55x_spi.c ****     }else{
 532:../Firmware/GD32VW55x_standard_peripheral/Source/gd32vw55x_spi.c ****         return RESET;
 1297              		.loc 1 532 16
 1298 001e 8147     		li	a5,0
 1299              	.L68:
 533:../Firmware/GD32VW55x_standard_peripheral/Source/gd32vw55x_spi.c ****     }
 534:../Firmware/GD32VW55x_standard_peripheral/Source/gd32vw55x_spi.c **** }
 1300              		.loc 1 534 1
 1301 0020 3E85     		mv	a0,a5
 1302 0022 7244     		lw	s0,28(sp)
 1303              		.cfi_restore 8
 1304              		.cfi_def_cfa 2, 32
 1305 0024 0561     		addi	sp,sp,32
 1306              		.cfi_def_cfa_offset 0
 1307 0026 8280     		jr	ra
 1308              		.cfi_endproc
 1309              	.LFE375:
 1311              		.text
 1312              	.Letext0:
 1313              		.file 2 "e:\\gd32\\gd32embeddedbuilder_v1.5.2.30854\\tools\\nuclei_riscv_newlibc_prebuilt_win32_20
 1314              		.file 3 "e:\\gd32\\gd32embeddedbuilder_v1.5.2.30854\\tools\\nuclei_riscv_newlibc_prebuilt_win32_20
 1315              		.file 4 "../Firmware/GD32VW55x_standard_peripheral/gd32vw55x.h"
 1316              		.file 5 "../Firmware/GD32VW55x_standard_peripheral/Include/gd32vw55x_rcu.h"
 1317              		.file 6 "../Firmware/GD32VW55x_standard_peripheral/Include/gd32vw55x_spi.h"
DEFINED SYMBOLS
                            *ABS*:0000000000000000 gd32vw55x_spi.c
C:\Users\CYMR90~1\AppData\Local\Temp\ccNmN5zT.s:13     .text.spi_deinit:0000000000000000 spi_deinit
C:\Users\CYMR90~1\AppData\Local\Temp\ccNmN5zT.s:17     .text.spi_deinit:0000000000000000 .L0 
C:\Users\CYMR90~1\AppData\Local\Temp\ccNmN5zT.s:18     .text.spi_deinit:0000000000000000 .L0 
C:\Users\CYMR90~1\AppData\Local\Temp\ccNmN5zT.s:19     .text.spi_deinit:0000000000000002 .L0 
C:\Users\CYMR90~1\AppData\Local\Temp\ccNmN5zT.s:22     .text.spi_deinit:0000000000000006 .L0 
C:\Users\CYMR90~1\AppData\Local\Temp\ccNmN5zT.s:23     .text.spi_deinit:0000000000000006 .L0 
C:\Users\CYMR90~1\AppData\Local\Temp\ccNmN5zT.s:25     .text.spi_deinit:0000000000000008 .L0 
C:\Users\CYMR90~1\AppData\Local\Temp\ccNmN5zT.s:27     .text.spi_deinit:0000000000000008 .L0 
C:\Users\CYMR90~1\AppData\Local\Temp\ccNmN5zT.s:31     .text.spi_deinit:0000000000000016 .L0 
C:\Users\CYMR90~1\AppData\Local\Temp\ccNmN5zT.s:35     .text.spi_deinit:0000000000000024 .L0 
C:\Users\CYMR90~1\AppData\Local\Temp\ccNmN5zT.s:37     .text.spi_deinit:0000000000000028 .L0 
C:\Users\CYMR90~1\AppData\Local\Temp\ccNmN5zT.s:39     .text.spi_deinit:000000000000002a .L0 
C:\Users\CYMR90~1\AppData\Local\Temp\ccNmN5zT.s:40     .text.spi_deinit:000000000000002a .L0 
C:\Users\CYMR90~1\AppData\Local\Temp\ccNmN5zT.s:42     .text.spi_deinit:000000000000002c .L0 
C:\Users\CYMR90~1\AppData\Local\Temp\ccNmN5zT.s:44     .text.spi_deinit:000000000000002e .L0 
C:\Users\CYMR90~1\AppData\Local\Temp\ccNmN5zT.s:51     .text.spi_struct_para_init:0000000000000000 spi_struct_para_init
C:\Users\CYMR90~1\AppData\Local\Temp\ccNmN5zT.s:54     .text.spi_struct_para_init:0000000000000000 .L0 
C:\Users\CYMR90~1\AppData\Local\Temp\ccNmN5zT.s:55     .text.spi_struct_para_init:0000000000000000 .L0 
C:\Users\CYMR90~1\AppData\Local\Temp\ccNmN5zT.s:56     .text.spi_struct_para_init:0000000000000002 .L0 
C:\Users\CYMR90~1\AppData\Local\Temp\ccNmN5zT.s:58     .text.spi_struct_para_init:0000000000000004 .L0 
C:\Users\CYMR90~1\AppData\Local\Temp\ccNmN5zT.s:60     .text.spi_struct_para_init:0000000000000006 .L0 
C:\Users\CYMR90~1\AppData\Local\Temp\ccNmN5zT.s:63     .text.spi_struct_para_init:000000000000000a .L0 
C:\Users\CYMR90~1\AppData\Local\Temp\ccNmN5zT.s:66     .text.spi_struct_para_init:0000000000000012 .L0 
C:\Users\CYMR90~1\AppData\Local\Temp\ccNmN5zT.s:69     .text.spi_struct_para_init:000000000000001a .L0 
C:\Users\CYMR90~1\AppData\Local\Temp\ccNmN5zT.s:72     .text.spi_struct_para_init:0000000000000022 .L0 
C:\Users\CYMR90~1\AppData\Local\Temp\ccNmN5zT.s:75     .text.spi_struct_para_init:000000000000002a .L0 
C:\Users\CYMR90~1\AppData\Local\Temp\ccNmN5zT.s:78     .text.spi_struct_para_init:0000000000000032 .L0 
C:\Users\CYMR90~1\AppData\Local\Temp\ccNmN5zT.s:81     .text.spi_struct_para_init:000000000000003a .L0 
C:\Users\CYMR90~1\AppData\Local\Temp\ccNmN5zT.s:84     .text.spi_struct_para_init:0000000000000042 .L0 
C:\Users\CYMR90~1\AppData\Local\Temp\ccNmN5zT.s:86     .text.spi_struct_para_init:0000000000000046 .L0 
C:\Users\CYMR90~1\AppData\Local\Temp\ccNmN5zT.s:87     .text.spi_struct_para_init:0000000000000046 .L0 
C:\Users\CYMR90~1\AppData\Local\Temp\ccNmN5zT.s:89     .text.spi_struct_para_init:0000000000000048 .L0 
C:\Users\CYMR90~1\AppData\Local\Temp\ccNmN5zT.s:91     .text.spi_struct_para_init:000000000000004a .L0 
C:\Users\CYMR90~1\AppData\Local\Temp\ccNmN5zT.s:98     .text.spi_init:0000000000000000 spi_init
C:\Users\CYMR90~1\AppData\Local\Temp\ccNmN5zT.s:101    .text.spi_init:0000000000000000 .L0 
C:\Users\CYMR90~1\AppData\Local\Temp\ccNmN5zT.s:102    .text.spi_init:0000000000000000 .L0 
C:\Users\CYMR90~1\AppData\Local\Temp\ccNmN5zT.s:103    .text.spi_init:0000000000000002 .L0 
C:\Users\CYMR90~1\AppData\Local\Temp\ccNmN5zT.s:105    .text.spi_init:0000000000000004 .L0 
C:\Users\CYMR90~1\AppData\Local\Temp\ccNmN5zT.s:107    .text.spi_init:0000000000000006 .L0 
C:\Users\CYMR90~1\AppData\Local\Temp\ccNmN5zT.s:110    .text.spi_init:000000000000000a .L0 
C:\Users\CYMR90~1\AppData\Local\Temp\ccNmN5zT.s:112    .text.spi_init:000000000000000e .L0 
C:\Users\CYMR90~1\AppData\Local\Temp\ccNmN5zT.s:114    .text.spi_init:0000000000000012 .L0 
C:\Users\CYMR90~1\AppData\Local\Temp\ccNmN5zT.s:117    .text.spi_init:0000000000000018 .L0 
C:\Users\CYMR90~1\AppData\Local\Temp\ccNmN5zT.s:123    .text.spi_init:0000000000000028 .L0 
C:\Users\CYMR90~1\AppData\Local\Temp\ccNmN5zT.s:126    .text.spi_init:000000000000002e .L0 
C:\Users\CYMR90~1\AppData\Local\Temp\ccNmN5zT.s:130    .text.spi_init:0000000000000038 .L0 
C:\Users\CYMR90~1\AppData\Local\Temp\ccNmN5zT.s:133    .text.spi_init:000000000000003e .L0 
C:\Users\CYMR90~1\AppData\Local\Temp\ccNmN5zT.s:137    .text.spi_init:0000000000000048 .L0 
C:\Users\CYMR90~1\AppData\Local\Temp\ccNmN5zT.s:140    .text.spi_init:000000000000004e .L0 
C:\Users\CYMR90~1\AppData\Local\Temp\ccNmN5zT.s:144    .text.spi_init:0000000000000058 .L0 
C:\Users\CYMR90~1\AppData\Local\Temp\ccNmN5zT.s:147    .text.spi_init:000000000000005e .L0 
C:\Users\CYMR90~1\AppData\Local\Temp\ccNmN5zT.s:151    .text.spi_init:0000000000000068 .L0 
C:\Users\CYMR90~1\AppData\Local\Temp\ccNmN5zT.s:154    .text.spi_init:000000000000006e .L0 
C:\Users\CYMR90~1\AppData\Local\Temp\ccNmN5zT.s:158    .text.spi_init:0000000000000078 .L0 
C:\Users\CYMR90~1\AppData\Local\Temp\ccNmN5zT.s:161    .text.spi_init:000000000000007e .L0 
C:\Users\CYMR90~1\AppData\Local\Temp\ccNmN5zT.s:165    .text.spi_init:0000000000000088 .L0 
C:\Users\CYMR90~1\AppData\Local\Temp\ccNmN5zT.s:168    .text.spi_init:000000000000008e .L0 
C:\Users\CYMR90~1\AppData\Local\Temp\ccNmN5zT.s:172    .text.spi_init:0000000000000098 .L0 
C:\Users\CYMR90~1\AppData\Local\Temp\ccNmN5zT.s:174    .text.spi_init:000000000000009c .L0 
C:\Users\CYMR90~1\AppData\Local\Temp\ccNmN5zT.s:177    .text.spi_init:00000000000000a2 .L0 
C:\Users\CYMR90~1\AppData\Local\Temp\ccNmN5zT.s:179    .text.spi_init:00000000000000a6 .L0 
C:\Users\CYMR90~1\AppData\Local\Temp\ccNmN5zT.s:180    .text.spi_init:00000000000000a6 .L0 
C:\Users\CYMR90~1\AppData\Local\Temp\ccNmN5zT.s:182    .text.spi_init:00000000000000a8 .L0 
C:\Users\CYMR90~1\AppData\Local\Temp\ccNmN5zT.s:184    .text.spi_init:00000000000000aa .L0 
C:\Users\CYMR90~1\AppData\Local\Temp\ccNmN5zT.s:191    .text.spi_enable:0000000000000000 spi_enable
C:\Users\CYMR90~1\AppData\Local\Temp\ccNmN5zT.s:194    .text.spi_enable:0000000000000000 .L0 
C:\Users\CYMR90~1\AppData\Local\Temp\ccNmN5zT.s:195    .text.spi_enable:0000000000000000 .L0 
C:\Users\CYMR90~1\AppData\Local\Temp\ccNmN5zT.s:196    .text.spi_enable:0000000000000002 .L0 
C:\Users\CYMR90~1\AppData\Local\Temp\ccNmN5zT.s:198    .text.spi_enable:0000000000000004 .L0 
C:\Users\CYMR90~1\AppData\Local\Temp\ccNmN5zT.s:200    .text.spi_enable:0000000000000006 .L0 
C:\Users\CYMR90~1\AppData\Local\Temp\ccNmN5zT.s:202    .text.spi_enable:0000000000000006 .L0 
C:\Users\CYMR90~1\AppData\Local\Temp\ccNmN5zT.s:208    .text.spi_enable:0000000000000016 .L0 
C:\Users\CYMR90~1\AppData\Local\Temp\ccNmN5zT.s:210    .text.spi_enable:000000000000001a .L0 
C:\Users\CYMR90~1\AppData\Local\Temp\ccNmN5zT.s:211    .text.spi_enable:000000000000001a .L0 
C:\Users\CYMR90~1\AppData\Local\Temp\ccNmN5zT.s:213    .text.spi_enable:000000000000001c .L0 
C:\Users\CYMR90~1\AppData\Local\Temp\ccNmN5zT.s:215    .text.spi_enable:000000000000001e .L0 
C:\Users\CYMR90~1\AppData\Local\Temp\ccNmN5zT.s:222    .text.spi_disable:0000000000000000 spi_disable
C:\Users\CYMR90~1\AppData\Local\Temp\ccNmN5zT.s:225    .text.spi_disable:0000000000000000 .L0 
C:\Users\CYMR90~1\AppData\Local\Temp\ccNmN5zT.s:226    .text.spi_disable:0000000000000000 .L0 
C:\Users\CYMR90~1\AppData\Local\Temp\ccNmN5zT.s:227    .text.spi_disable:0000000000000002 .L0 
C:\Users\CYMR90~1\AppData\Local\Temp\ccNmN5zT.s:229    .text.spi_disable:0000000000000004 .L0 
C:\Users\CYMR90~1\AppData\Local\Temp\ccNmN5zT.s:231    .text.spi_disable:0000000000000006 .L0 
C:\Users\CYMR90~1\AppData\Local\Temp\ccNmN5zT.s:233    .text.spi_disable:0000000000000006 .L0 
C:\Users\CYMR90~1\AppData\Local\Temp\ccNmN5zT.s:239    .text.spi_disable:0000000000000016 .L0 
C:\Users\CYMR90~1\AppData\Local\Temp\ccNmN5zT.s:241    .text.spi_disable:000000000000001a .L0 
C:\Users\CYMR90~1\AppData\Local\Temp\ccNmN5zT.s:242    .text.spi_disable:000000000000001a .L0 
C:\Users\CYMR90~1\AppData\Local\Temp\ccNmN5zT.s:244    .text.spi_disable:000000000000001c .L0 
C:\Users\CYMR90~1\AppData\Local\Temp\ccNmN5zT.s:246    .text.spi_disable:000000000000001e .L0 
C:\Users\CYMR90~1\AppData\Local\Temp\ccNmN5zT.s:253    .text.spi_nss_output_enable:0000000000000000 spi_nss_output_enable
C:\Users\CYMR90~1\AppData\Local\Temp\ccNmN5zT.s:256    .text.spi_nss_output_enable:0000000000000000 .L0 
C:\Users\CYMR90~1\AppData\Local\Temp\ccNmN5zT.s:257    .text.spi_nss_output_enable:0000000000000000 .L0 
C:\Users\CYMR90~1\AppData\Local\Temp\ccNmN5zT.s:258    .text.spi_nss_output_enable:0000000000000002 .L0 
C:\Users\CYMR90~1\AppData\Local\Temp\ccNmN5zT.s:260    .text.spi_nss_output_enable:0000000000000004 .L0 
C:\Users\CYMR90~1\AppData\Local\Temp\ccNmN5zT.s:262    .text.spi_nss_output_enable:0000000000000006 .L0 
C:\Users\CYMR90~1\AppData\Local\Temp\ccNmN5zT.s:264    .text.spi_nss_output_enable:0000000000000006 .L0 
C:\Users\CYMR90~1\AppData\Local\Temp\ccNmN5zT.s:272    .text.spi_nss_output_enable:000000000000001a .L0 
C:\Users\CYMR90~1\AppData\Local\Temp\ccNmN5zT.s:274    .text.spi_nss_output_enable:000000000000001e .L0 
C:\Users\CYMR90~1\AppData\Local\Temp\ccNmN5zT.s:275    .text.spi_nss_output_enable:000000000000001e .L0 
C:\Users\CYMR90~1\AppData\Local\Temp\ccNmN5zT.s:277    .text.spi_nss_output_enable:0000000000000020 .L0 
C:\Users\CYMR90~1\AppData\Local\Temp\ccNmN5zT.s:279    .text.spi_nss_output_enable:0000000000000022 .L0 
C:\Users\CYMR90~1\AppData\Local\Temp\ccNmN5zT.s:286    .text.spi_nss_output_disable:0000000000000000 spi_nss_output_disable
C:\Users\CYMR90~1\AppData\Local\Temp\ccNmN5zT.s:289    .text.spi_nss_output_disable:0000000000000000 .L0 
C:\Users\CYMR90~1\AppData\Local\Temp\ccNmN5zT.s:290    .text.spi_nss_output_disable:0000000000000000 .L0 
C:\Users\CYMR90~1\AppData\Local\Temp\ccNmN5zT.s:291    .text.spi_nss_output_disable:0000000000000002 .L0 
C:\Users\CYMR90~1\AppData\Local\Temp\ccNmN5zT.s:293    .text.spi_nss_output_disable:0000000000000004 .L0 
C:\Users\CYMR90~1\AppData\Local\Temp\ccNmN5zT.s:295    .text.spi_nss_output_disable:0000000000000006 .L0 
C:\Users\CYMR90~1\AppData\Local\Temp\ccNmN5zT.s:297    .text.spi_nss_output_disable:0000000000000006 .L0 
C:\Users\CYMR90~1\AppData\Local\Temp\ccNmN5zT.s:305    .text.spi_nss_output_disable:0000000000000018 .L0 
C:\Users\CYMR90~1\AppData\Local\Temp\ccNmN5zT.s:307    .text.spi_nss_output_disable:000000000000001c .L0 
C:\Users\CYMR90~1\AppData\Local\Temp\ccNmN5zT.s:308    .text.spi_nss_output_disable:000000000000001c .L0 
C:\Users\CYMR90~1\AppData\Local\Temp\ccNmN5zT.s:310    .text.spi_nss_output_disable:000000000000001e .L0 
C:\Users\CYMR90~1\AppData\Local\Temp\ccNmN5zT.s:312    .text.spi_nss_output_disable:0000000000000020 .L0 
C:\Users\CYMR90~1\AppData\Local\Temp\ccNmN5zT.s:319    .text.spi_nss_internal_high:0000000000000000 spi_nss_internal_high
C:\Users\CYMR90~1\AppData\Local\Temp\ccNmN5zT.s:322    .text.spi_nss_internal_high:0000000000000000 .L0 
C:\Users\CYMR90~1\AppData\Local\Temp\ccNmN5zT.s:323    .text.spi_nss_internal_high:0000000000000000 .L0 
C:\Users\CYMR90~1\AppData\Local\Temp\ccNmN5zT.s:324    .text.spi_nss_internal_high:0000000000000002 .L0 
C:\Users\CYMR90~1\AppData\Local\Temp\ccNmN5zT.s:326    .text.spi_nss_internal_high:0000000000000004 .L0 
C:\Users\CYMR90~1\AppData\Local\Temp\ccNmN5zT.s:328    .text.spi_nss_internal_high:0000000000000006 .L0 
C:\Users\CYMR90~1\AppData\Local\Temp\ccNmN5zT.s:330    .text.spi_nss_internal_high:0000000000000006 .L0 
C:\Users\CYMR90~1\AppData\Local\Temp\ccNmN5zT.s:336    .text.spi_nss_internal_high:0000000000000016 .L0 
C:\Users\CYMR90~1\AppData\Local\Temp\ccNmN5zT.s:338    .text.spi_nss_internal_high:000000000000001a .L0 
C:\Users\CYMR90~1\AppData\Local\Temp\ccNmN5zT.s:339    .text.spi_nss_internal_high:000000000000001a .L0 
C:\Users\CYMR90~1\AppData\Local\Temp\ccNmN5zT.s:341    .text.spi_nss_internal_high:000000000000001c .L0 
C:\Users\CYMR90~1\AppData\Local\Temp\ccNmN5zT.s:343    .text.spi_nss_internal_high:000000000000001e .L0 
C:\Users\CYMR90~1\AppData\Local\Temp\ccNmN5zT.s:350    .text.spi_nss_internal_low:0000000000000000 spi_nss_internal_low
C:\Users\CYMR90~1\AppData\Local\Temp\ccNmN5zT.s:353    .text.spi_nss_internal_low:0000000000000000 .L0 
C:\Users\CYMR90~1\AppData\Local\Temp\ccNmN5zT.s:354    .text.spi_nss_internal_low:0000000000000000 .L0 
C:\Users\CYMR90~1\AppData\Local\Temp\ccNmN5zT.s:355    .text.spi_nss_internal_low:0000000000000002 .L0 
C:\Users\CYMR90~1\AppData\Local\Temp\ccNmN5zT.s:357    .text.spi_nss_internal_low:0000000000000004 .L0 
C:\Users\CYMR90~1\AppData\Local\Temp\ccNmN5zT.s:359    .text.spi_nss_internal_low:0000000000000006 .L0 
C:\Users\CYMR90~1\AppData\Local\Temp\ccNmN5zT.s:361    .text.spi_nss_internal_low:0000000000000006 .L0 
C:\Users\CYMR90~1\AppData\Local\Temp\ccNmN5zT.s:367    .text.spi_nss_internal_low:0000000000000016 .L0 
C:\Users\CYMR90~1\AppData\Local\Temp\ccNmN5zT.s:369    .text.spi_nss_internal_low:000000000000001a .L0 
C:\Users\CYMR90~1\AppData\Local\Temp\ccNmN5zT.s:370    .text.spi_nss_internal_low:000000000000001a .L0 
C:\Users\CYMR90~1\AppData\Local\Temp\ccNmN5zT.s:372    .text.spi_nss_internal_low:000000000000001c .L0 
C:\Users\CYMR90~1\AppData\Local\Temp\ccNmN5zT.s:374    .text.spi_nss_internal_low:000000000000001e .L0 
C:\Users\CYMR90~1\AppData\Local\Temp\ccNmN5zT.s:381    .text.spi_dma_enable:0000000000000000 spi_dma_enable
C:\Users\CYMR90~1\AppData\Local\Temp\ccNmN5zT.s:384    .text.spi_dma_enable:0000000000000000 .L0 
C:\Users\CYMR90~1\AppData\Local\Temp\ccNmN5zT.s:385    .text.spi_dma_enable:0000000000000000 .L0 
C:\Users\CYMR90~1\AppData\Local\Temp\ccNmN5zT.s:386    .text.spi_dma_enable:0000000000000002 .L0 
C:\Users\CYMR90~1\AppData\Local\Temp\ccNmN5zT.s:388    .text.spi_dma_enable:0000000000000004 .L0 
C:\Users\CYMR90~1\AppData\Local\Temp\ccNmN5zT.s:390    .text.spi_dma_enable:0000000000000006 .L0 
C:\Users\CYMR90~1\AppData\Local\Temp\ccNmN5zT.s:394    .text.spi_dma_enable:000000000000000c .L0 
C:\Users\CYMR90~1\AppData\Local\Temp\ccNmN5zT.s:397    .text.spi_dma_enable:0000000000000012 .L0 
C:\Users\CYMR90~1\AppData\Local\Temp\ccNmN5zT.s:405    .text.spi_dma_enable:0000000000000026 .L0 
C:\Users\CYMR90~1\AppData\Local\Temp\ccNmN5zT.s:408    .text.spi_dma_enable:0000000000000028 .L0 
C:\Users\CYMR90~1\AppData\Local\Temp\ccNmN5zT.s:417    .text.spi_dma_enable:000000000000003c .L0 
C:\Users\CYMR90~1\AppData\Local\Temp\ccNmN5zT.s:419    .text.spi_dma_enable:0000000000000040 .L0 
C:\Users\CYMR90~1\AppData\Local\Temp\ccNmN5zT.s:420    .text.spi_dma_enable:0000000000000040 .L0 
C:\Users\CYMR90~1\AppData\Local\Temp\ccNmN5zT.s:422    .text.spi_dma_enable:0000000000000042 .L0 
C:\Users\CYMR90~1\AppData\Local\Temp\ccNmN5zT.s:424    .text.spi_dma_enable:0000000000000044 .L0 
C:\Users\CYMR90~1\AppData\Local\Temp\ccNmN5zT.s:431    .text.spi_dma_disable:0000000000000000 spi_dma_disable
C:\Users\CYMR90~1\AppData\Local\Temp\ccNmN5zT.s:434    .text.spi_dma_disable:0000000000000000 .L0 
C:\Users\CYMR90~1\AppData\Local\Temp\ccNmN5zT.s:435    .text.spi_dma_disable:0000000000000000 .L0 
C:\Users\CYMR90~1\AppData\Local\Temp\ccNmN5zT.s:436    .text.spi_dma_disable:0000000000000002 .L0 
C:\Users\CYMR90~1\AppData\Local\Temp\ccNmN5zT.s:438    .text.spi_dma_disable:0000000000000004 .L0 
C:\Users\CYMR90~1\AppData\Local\Temp\ccNmN5zT.s:440    .text.spi_dma_disable:0000000000000006 .L0 
C:\Users\CYMR90~1\AppData\Local\Temp\ccNmN5zT.s:444    .text.spi_dma_disable:000000000000000c .L0 
C:\Users\CYMR90~1\AppData\Local\Temp\ccNmN5zT.s:447    .text.spi_dma_disable:0000000000000012 .L0 
C:\Users\CYMR90~1\AppData\Local\Temp\ccNmN5zT.s:455    .text.spi_dma_disable:0000000000000024 .L0 
C:\Users\CYMR90~1\AppData\Local\Temp\ccNmN5zT.s:458    .text.spi_dma_disable:0000000000000026 .L0 
C:\Users\CYMR90~1\AppData\Local\Temp\ccNmN5zT.s:467    .text.spi_dma_disable:0000000000000038 .L0 
C:\Users\CYMR90~1\AppData\Local\Temp\ccNmN5zT.s:469    .text.spi_dma_disable:000000000000003c .L0 
C:\Users\CYMR90~1\AppData\Local\Temp\ccNmN5zT.s:470    .text.spi_dma_disable:000000000000003c .L0 
C:\Users\CYMR90~1\AppData\Local\Temp\ccNmN5zT.s:472    .text.spi_dma_disable:000000000000003e .L0 
C:\Users\CYMR90~1\AppData\Local\Temp\ccNmN5zT.s:474    .text.spi_dma_disable:0000000000000040 .L0 
C:\Users\CYMR90~1\AppData\Local\Temp\ccNmN5zT.s:481    .text.spi_data_frame_format_config:0000000000000000 spi_data_frame_format_config
C:\Users\CYMR90~1\AppData\Local\Temp\ccNmN5zT.s:484    .text.spi_data_frame_format_config:0000000000000000 .L0 
C:\Users\CYMR90~1\AppData\Local\Temp\ccNmN5zT.s:485    .text.spi_data_frame_format_config:0000000000000000 .L0 
C:\Users\CYMR90~1\AppData\Local\Temp\ccNmN5zT.s:486    .text.spi_data_frame_format_config:0000000000000002 .L0 
C:\Users\CYMR90~1\AppData\Local\Temp\ccNmN5zT.s:488    .text.spi_data_frame_format_config:0000000000000004 .L0 
C:\Users\CYMR90~1\AppData\Local\Temp\ccNmN5zT.s:490    .text.spi_data_frame_format_config:0000000000000006 .L0 
C:\Users\CYMR90~1\AppData\Local\Temp\ccNmN5zT.s:494    .text.spi_data_frame_format_config:000000000000000c .L0 
C:\Users\CYMR90~1\AppData\Local\Temp\ccNmN5zT.s:502    .text.spi_data_frame_format_config:0000000000000020 .L0 
C:\Users\CYMR90~1\AppData\Local\Temp\ccNmN5zT.s:505    .text.spi_data_frame_format_config:0000000000000026 .L0 
C:\Users\CYMR90~1\AppData\Local\Temp\ccNmN5zT.s:507    .text.spi_data_frame_format_config:000000000000002a .L0 
C:\Users\CYMR90~1\AppData\Local\Temp\ccNmN5zT.s:511    .text.spi_data_frame_format_config:0000000000000032 .L0 
C:\Users\CYMR90~1\AppData\Local\Temp\ccNmN5zT.s:513    .text.spi_data_frame_format_config:0000000000000036 .L0 
C:\Users\CYMR90~1\AppData\Local\Temp\ccNmN5zT.s:514    .text.spi_data_frame_format_config:0000000000000036 .L0 
C:\Users\CYMR90~1\AppData\Local\Temp\ccNmN5zT.s:516    .text.spi_data_frame_format_config:0000000000000038 .L0 
C:\Users\CYMR90~1\AppData\Local\Temp\ccNmN5zT.s:518    .text.spi_data_frame_format_config:000000000000003a .L0 
C:\Users\CYMR90~1\AppData\Local\Temp\ccNmN5zT.s:525    .text.spi_data_transmit:0000000000000000 spi_data_transmit
C:\Users\CYMR90~1\AppData\Local\Temp\ccNmN5zT.s:528    .text.spi_data_transmit:0000000000000000 .L0 
C:\Users\CYMR90~1\AppData\Local\Temp\ccNmN5zT.s:529    .text.spi_data_transmit:0000000000000000 .L0 
C:\Users\CYMR90~1\AppData\Local\Temp\ccNmN5zT.s:530    .text.spi_data_transmit:0000000000000002 .L0 
C:\Users\CYMR90~1\AppData\Local\Temp\ccNmN5zT.s:532    .text.spi_data_transmit:0000000000000004 .L0 
C:\Users\CYMR90~1\AppData\Local\Temp\ccNmN5zT.s:534    .text.spi_data_transmit:0000000000000006 .L0 
C:\Users\CYMR90~1\AppData\Local\Temp\ccNmN5zT.s:538    .text.spi_data_transmit:000000000000000c .L0 
C:\Users\CYMR90~1\AppData\Local\Temp\ccNmN5zT.s:541    .text.spi_data_transmit:0000000000000012 .L0 
C:\Users\CYMR90~1\AppData\Local\Temp\ccNmN5zT.s:543    .text.spi_data_transmit:0000000000000016 .L0 
C:\Users\CYMR90~1\AppData\Local\Temp\ccNmN5zT.s:545    .text.spi_data_transmit:0000000000000018 .L0 
C:\Users\CYMR90~1\AppData\Local\Temp\ccNmN5zT.s:547    .text.spi_data_transmit:000000000000001c .L0 
C:\Users\CYMR90~1\AppData\Local\Temp\ccNmN5zT.s:548    .text.spi_data_transmit:000000000000001c .L0 
C:\Users\CYMR90~1\AppData\Local\Temp\ccNmN5zT.s:550    .text.spi_data_transmit:000000000000001e .L0 
C:\Users\CYMR90~1\AppData\Local\Temp\ccNmN5zT.s:552    .text.spi_data_transmit:0000000000000020 .L0 
C:\Users\CYMR90~1\AppData\Local\Temp\ccNmN5zT.s:559    .text.spi_data_receive:0000000000000000 spi_data_receive
C:\Users\CYMR90~1\AppData\Local\Temp\ccNmN5zT.s:562    .text.spi_data_receive:0000000000000000 .L0 
C:\Users\CYMR90~1\AppData\Local\Temp\ccNmN5zT.s:563    .text.spi_data_receive:0000000000000000 .L0 
C:\Users\CYMR90~1\AppData\Local\Temp\ccNmN5zT.s:564    .text.spi_data_receive:0000000000000002 .L0 
C:\Users\CYMR90~1\AppData\Local\Temp\ccNmN5zT.s:566    .text.spi_data_receive:0000000000000004 .L0 
C:\Users\CYMR90~1\AppData\Local\Temp\ccNmN5zT.s:568    .text.spi_data_receive:0000000000000006 .L0 
C:\Users\CYMR90~1\AppData\Local\Temp\ccNmN5zT.s:570    .text.spi_data_receive:0000000000000006 .L0 
C:\Users\CYMR90~1\AppData\Local\Temp\ccNmN5zT.s:574    .text.spi_data_receive:000000000000000e .L0 
C:\Users\CYMR90~1\AppData\Local\Temp\ccNmN5zT.s:577    .text.spi_data_receive:0000000000000012 .L0 
C:\Users\CYMR90~1\AppData\Local\Temp\ccNmN5zT.s:579    .text.spi_data_receive:0000000000000016 .L0 
C:\Users\CYMR90~1\AppData\Local\Temp\ccNmN5zT.s:580    .text.spi_data_receive:0000000000000016 .L0 
C:\Users\CYMR90~1\AppData\Local\Temp\ccNmN5zT.s:582    .text.spi_data_receive:0000000000000018 .L0 
C:\Users\CYMR90~1\AppData\Local\Temp\ccNmN5zT.s:584    .text.spi_data_receive:000000000000001a .L0 
C:\Users\CYMR90~1\AppData\Local\Temp\ccNmN5zT.s:591    .text.spi_bidirectional_transfer_config:0000000000000000 spi_bidirectional_transfer_config
C:\Users\CYMR90~1\AppData\Local\Temp\ccNmN5zT.s:594    .text.spi_bidirectional_transfer_config:0000000000000000 .L0 
C:\Users\CYMR90~1\AppData\Local\Temp\ccNmN5zT.s:595    .text.spi_bidirectional_transfer_config:0000000000000000 .L0 
C:\Users\CYMR90~1\AppData\Local\Temp\ccNmN5zT.s:596    .text.spi_bidirectional_transfer_config:0000000000000002 .L0 
C:\Users\CYMR90~1\AppData\Local\Temp\ccNmN5zT.s:598    .text.spi_bidirectional_transfer_config:0000000000000004 .L0 
C:\Users\CYMR90~1\AppData\Local\Temp\ccNmN5zT.s:600    .text.spi_bidirectional_transfer_config:0000000000000006 .L0 
C:\Users\CYMR90~1\AppData\Local\Temp\ccNmN5zT.s:603    .text.spi_bidirectional_transfer_config:000000000000000a .L0 
C:\Users\CYMR90~1\AppData\Local\Temp\ccNmN5zT.s:607    .text.spi_bidirectional_transfer_config:0000000000000014 .L0 
C:\Users\CYMR90~1\AppData\Local\Temp\ccNmN5zT.s:614    .text.spi_bidirectional_transfer_config:0000000000000024 .L0 
C:\Users\CYMR90~1\AppData\Local\Temp\ccNmN5zT.s:617    .text.spi_bidirectional_transfer_config:0000000000000026 .L0 
C:\Users\CYMR90~1\AppData\Local\Temp\ccNmN5zT.s:626    .text.spi_bidirectional_transfer_config:0000000000000038 .L0 
C:\Users\CYMR90~1\AppData\Local\Temp\ccNmN5zT.s:628    .text.spi_bidirectional_transfer_config:000000000000003c .L0 
C:\Users\CYMR90~1\AppData\Local\Temp\ccNmN5zT.s:629    .text.spi_bidirectional_transfer_config:000000000000003c .L0 
C:\Users\CYMR90~1\AppData\Local\Temp\ccNmN5zT.s:631    .text.spi_bidirectional_transfer_config:000000000000003e .L0 
C:\Users\CYMR90~1\AppData\Local\Temp\ccNmN5zT.s:633    .text.spi_bidirectional_transfer_config:0000000000000040 .L0 
C:\Users\CYMR90~1\AppData\Local\Temp\ccNmN5zT.s:640    .text.spi_format_error_clear:0000000000000000 spi_format_error_clear
C:\Users\CYMR90~1\AppData\Local\Temp\ccNmN5zT.s:643    .text.spi_format_error_clear:0000000000000000 .L0 
C:\Users\CYMR90~1\AppData\Local\Temp\ccNmN5zT.s:644    .text.spi_format_error_clear:0000000000000000 .L0 
C:\Users\CYMR90~1\AppData\Local\Temp\ccNmN5zT.s:645    .text.spi_format_error_clear:0000000000000002 .L0 
C:\Users\CYMR90~1\AppData\Local\Temp\ccNmN5zT.s:647    .text.spi_format_error_clear:0000000000000004 .L0 
C:\Users\CYMR90~1\AppData\Local\Temp\ccNmN5zT.s:649    .text.spi_format_error_clear:0000000000000006 .L0 
C:\Users\CYMR90~1\AppData\Local\Temp\ccNmN5zT.s:651    .text.spi_format_error_clear:0000000000000006 .L0 
C:\Users\CYMR90~1\AppData\Local\Temp\ccNmN5zT.s:654    .text.spi_format_error_clear:000000000000000c .L0 
C:\Users\CYMR90~1\AppData\Local\Temp\ccNmN5zT.s:657    .text.spi_format_error_clear:0000000000000012 .L0 
C:\Users\CYMR90~1\AppData\Local\Temp\ccNmN5zT.s:659    .text.spi_format_error_clear:0000000000000016 .L0 
C:\Users\CYMR90~1\AppData\Local\Temp\ccNmN5zT.s:660    .text.spi_format_error_clear:0000000000000016 .L0 
C:\Users\CYMR90~1\AppData\Local\Temp\ccNmN5zT.s:662    .text.spi_format_error_clear:0000000000000018 .L0 
C:\Users\CYMR90~1\AppData\Local\Temp\ccNmN5zT.s:664    .text.spi_format_error_clear:000000000000001a .L0 
C:\Users\CYMR90~1\AppData\Local\Temp\ccNmN5zT.s:671    .text.spi_crc_polynomial_set:0000000000000000 spi_crc_polynomial_set
C:\Users\CYMR90~1\AppData\Local\Temp\ccNmN5zT.s:674    .text.spi_crc_polynomial_set:0000000000000000 .L0 
C:\Users\CYMR90~1\AppData\Local\Temp\ccNmN5zT.s:675    .text.spi_crc_polynomial_set:0000000000000000 .L0 
C:\Users\CYMR90~1\AppData\Local\Temp\ccNmN5zT.s:676    .text.spi_crc_polynomial_set:0000000000000002 .L0 
C:\Users\CYMR90~1\AppData\Local\Temp\ccNmN5zT.s:678    .text.spi_crc_polynomial_set:0000000000000004 .L0 
C:\Users\CYMR90~1\AppData\Local\Temp\ccNmN5zT.s:680    .text.spi_crc_polynomial_set:0000000000000006 .L0 
C:\Users\CYMR90~1\AppData\Local\Temp\ccNmN5zT.s:684    .text.spi_crc_polynomial_set:000000000000000c .L0 
C:\Users\CYMR90~1\AppData\Local\Temp\ccNmN5zT.s:687    .text.spi_crc_polynomial_set:0000000000000012 .L0 
C:\Users\CYMR90~1\AppData\Local\Temp\ccNmN5zT.s:689    .text.spi_crc_polynomial_set:0000000000000016 .L0 
C:\Users\CYMR90~1\AppData\Local\Temp\ccNmN5zT.s:691    .text.spi_crc_polynomial_set:0000000000000018 .L0 
C:\Users\CYMR90~1\AppData\Local\Temp\ccNmN5zT.s:693    .text.spi_crc_polynomial_set:000000000000001c .L0 
C:\Users\CYMR90~1\AppData\Local\Temp\ccNmN5zT.s:694    .text.spi_crc_polynomial_set:000000000000001c .L0 
C:\Users\CYMR90~1\AppData\Local\Temp\ccNmN5zT.s:696    .text.spi_crc_polynomial_set:000000000000001e .L0 
C:\Users\CYMR90~1\AppData\Local\Temp\ccNmN5zT.s:698    .text.spi_crc_polynomial_set:0000000000000020 .L0 
C:\Users\CYMR90~1\AppData\Local\Temp\ccNmN5zT.s:705    .text.spi_crc_polynomial_get:0000000000000000 spi_crc_polynomial_get
C:\Users\CYMR90~1\AppData\Local\Temp\ccNmN5zT.s:708    .text.spi_crc_polynomial_get:0000000000000000 .L0 
C:\Users\CYMR90~1\AppData\Local\Temp\ccNmN5zT.s:709    .text.spi_crc_polynomial_get:0000000000000000 .L0 
C:\Users\CYMR90~1\AppData\Local\Temp\ccNmN5zT.s:710    .text.spi_crc_polynomial_get:0000000000000002 .L0 
C:\Users\CYMR90~1\AppData\Local\Temp\ccNmN5zT.s:712    .text.spi_crc_polynomial_get:0000000000000004 .L0 
C:\Users\CYMR90~1\AppData\Local\Temp\ccNmN5zT.s:714    .text.spi_crc_polynomial_get:0000000000000006 .L0 
C:\Users\CYMR90~1\AppData\Local\Temp\ccNmN5zT.s:716    .text.spi_crc_polynomial_get:0000000000000006 .L0 
C:\Users\CYMR90~1\AppData\Local\Temp\ccNmN5zT.s:720    .text.spi_crc_polynomial_get:000000000000000e .L0 
C:\Users\CYMR90~1\AppData\Local\Temp\ccNmN5zT.s:723    .text.spi_crc_polynomial_get:0000000000000012 .L0 
C:\Users\CYMR90~1\AppData\Local\Temp\ccNmN5zT.s:725    .text.spi_crc_polynomial_get:0000000000000016 .L0 
C:\Users\CYMR90~1\AppData\Local\Temp\ccNmN5zT.s:726    .text.spi_crc_polynomial_get:0000000000000016 .L0 
C:\Users\CYMR90~1\AppData\Local\Temp\ccNmN5zT.s:728    .text.spi_crc_polynomial_get:0000000000000018 .L0 
C:\Users\CYMR90~1\AppData\Local\Temp\ccNmN5zT.s:730    .text.spi_crc_polynomial_get:000000000000001a .L0 
C:\Users\CYMR90~1\AppData\Local\Temp\ccNmN5zT.s:737    .text.spi_crc_on:0000000000000000 spi_crc_on
C:\Users\CYMR90~1\AppData\Local\Temp\ccNmN5zT.s:740    .text.spi_crc_on:0000000000000000 .L0 
C:\Users\CYMR90~1\AppData\Local\Temp\ccNmN5zT.s:741    .text.spi_crc_on:0000000000000000 .L0 
C:\Users\CYMR90~1\AppData\Local\Temp\ccNmN5zT.s:742    .text.spi_crc_on:0000000000000002 .L0 
C:\Users\CYMR90~1\AppData\Local\Temp\ccNmN5zT.s:744    .text.spi_crc_on:0000000000000004 .L0 
C:\Users\CYMR90~1\AppData\Local\Temp\ccNmN5zT.s:746    .text.spi_crc_on:0000000000000006 .L0 
C:\Users\CYMR90~1\AppData\Local\Temp\ccNmN5zT.s:748    .text.spi_crc_on:0000000000000006 .L0 
C:\Users\CYMR90~1\AppData\Local\Temp\ccNmN5zT.s:755    .text.spi_crc_on:0000000000000016 .L0 
C:\Users\CYMR90~1\AppData\Local\Temp\ccNmN5zT.s:757    .text.spi_crc_on:000000000000001a .L0 
C:\Users\CYMR90~1\AppData\Local\Temp\ccNmN5zT.s:758    .text.spi_crc_on:000000000000001a .L0 
C:\Users\CYMR90~1\AppData\Local\Temp\ccNmN5zT.s:760    .text.spi_crc_on:000000000000001c .L0 
C:\Users\CYMR90~1\AppData\Local\Temp\ccNmN5zT.s:762    .text.spi_crc_on:000000000000001e .L0 
C:\Users\CYMR90~1\AppData\Local\Temp\ccNmN5zT.s:769    .text.spi_crc_off:0000000000000000 spi_crc_off
C:\Users\CYMR90~1\AppData\Local\Temp\ccNmN5zT.s:772    .text.spi_crc_off:0000000000000000 .L0 
C:\Users\CYMR90~1\AppData\Local\Temp\ccNmN5zT.s:773    .text.spi_crc_off:0000000000000000 .L0 
C:\Users\CYMR90~1\AppData\Local\Temp\ccNmN5zT.s:774    .text.spi_crc_off:0000000000000002 .L0 
C:\Users\CYMR90~1\AppData\Local\Temp\ccNmN5zT.s:776    .text.spi_crc_off:0000000000000004 .L0 
C:\Users\CYMR90~1\AppData\Local\Temp\ccNmN5zT.s:778    .text.spi_crc_off:0000000000000006 .L0 
C:\Users\CYMR90~1\AppData\Local\Temp\ccNmN5zT.s:780    .text.spi_crc_off:0000000000000006 .L0 
C:\Users\CYMR90~1\AppData\Local\Temp\ccNmN5zT.s:788    .text.spi_crc_off:0000000000000018 .L0 
C:\Users\CYMR90~1\AppData\Local\Temp\ccNmN5zT.s:790    .text.spi_crc_off:000000000000001c .L0 
C:\Users\CYMR90~1\AppData\Local\Temp\ccNmN5zT.s:791    .text.spi_crc_off:000000000000001c .L0 
C:\Users\CYMR90~1\AppData\Local\Temp\ccNmN5zT.s:793    .text.spi_crc_off:000000000000001e .L0 
C:\Users\CYMR90~1\AppData\Local\Temp\ccNmN5zT.s:795    .text.spi_crc_off:0000000000000020 .L0 
C:\Users\CYMR90~1\AppData\Local\Temp\ccNmN5zT.s:802    .text.spi_crc_next:0000000000000000 spi_crc_next
C:\Users\CYMR90~1\AppData\Local\Temp\ccNmN5zT.s:805    .text.spi_crc_next:0000000000000000 .L0 
C:\Users\CYMR90~1\AppData\Local\Temp\ccNmN5zT.s:806    .text.spi_crc_next:0000000000000000 .L0 
C:\Users\CYMR90~1\AppData\Local\Temp\ccNmN5zT.s:807    .text.spi_crc_next:0000000000000002 .L0 
C:\Users\CYMR90~1\AppData\Local\Temp\ccNmN5zT.s:809    .text.spi_crc_next:0000000000000004 .L0 
C:\Users\CYMR90~1\AppData\Local\Temp\ccNmN5zT.s:811    .text.spi_crc_next:0000000000000006 .L0 
C:\Users\CYMR90~1\AppData\Local\Temp\ccNmN5zT.s:813    .text.spi_crc_next:0000000000000006 .L0 
C:\Users\CYMR90~1\AppData\Local\Temp\ccNmN5zT.s:820    .text.spi_crc_next:0000000000000016 .L0 
C:\Users\CYMR90~1\AppData\Local\Temp\ccNmN5zT.s:822    .text.spi_crc_next:000000000000001a .L0 
C:\Users\CYMR90~1\AppData\Local\Temp\ccNmN5zT.s:823    .text.spi_crc_next:000000000000001a .L0 
C:\Users\CYMR90~1\AppData\Local\Temp\ccNmN5zT.s:825    .text.spi_crc_next:000000000000001c .L0 
C:\Users\CYMR90~1\AppData\Local\Temp\ccNmN5zT.s:827    .text.spi_crc_next:000000000000001e .L0 
C:\Users\CYMR90~1\AppData\Local\Temp\ccNmN5zT.s:834    .text.spi_crc_get:0000000000000000 spi_crc_get
C:\Users\CYMR90~1\AppData\Local\Temp\ccNmN5zT.s:837    .text.spi_crc_get:0000000000000000 .L0 
C:\Users\CYMR90~1\AppData\Local\Temp\ccNmN5zT.s:838    .text.spi_crc_get:0000000000000000 .L0 
C:\Users\CYMR90~1\AppData\Local\Temp\ccNmN5zT.s:839    .text.spi_crc_get:0000000000000002 .L0 
C:\Users\CYMR90~1\AppData\Local\Temp\ccNmN5zT.s:841    .text.spi_crc_get:0000000000000004 .L0 
C:\Users\CYMR90~1\AppData\Local\Temp\ccNmN5zT.s:843    .text.spi_crc_get:0000000000000006 .L0 
C:\Users\CYMR90~1\AppData\Local\Temp\ccNmN5zT.s:847    .text.spi_crc_get:000000000000000c .L0 
C:\Users\CYMR90~1\AppData\Local\Temp\ccNmN5zT.s:850    .text.spi_crc_get:0000000000000012 .L0 
C:\Users\CYMR90~1\AppData\Local\Temp\ccNmN5zT.s:854    .text.spi_crc_get:000000000000001a .L0 
C:\Users\CYMR90~1\AppData\Local\Temp\ccNmN5zT.s:859    .text.spi_crc_get:0000000000000020 .L0 
C:\Users\CYMR90~1\AppData\Local\Temp\ccNmN5zT.s:863    .text.spi_crc_get:0000000000000028 .L0 
C:\Users\CYMR90~1\AppData\Local\Temp\ccNmN5zT.s:867    .text.spi_crc_get:000000000000002c .L0 
C:\Users\CYMR90~1\AppData\Local\Temp\ccNmN5zT.s:869    .text.spi_crc_get:0000000000000030 .L0 
C:\Users\CYMR90~1\AppData\Local\Temp\ccNmN5zT.s:870    .text.spi_crc_get:0000000000000030 .L0 
C:\Users\CYMR90~1\AppData\Local\Temp\ccNmN5zT.s:872    .text.spi_crc_get:0000000000000032 .L0 
C:\Users\CYMR90~1\AppData\Local\Temp\ccNmN5zT.s:874    .text.spi_crc_get:0000000000000034 .L0 
C:\Users\CYMR90~1\AppData\Local\Temp\ccNmN5zT.s:881    .text.spi_crc_error_clear:0000000000000000 spi_crc_error_clear
C:\Users\CYMR90~1\AppData\Local\Temp\ccNmN5zT.s:884    .text.spi_crc_error_clear:0000000000000000 .L0 
C:\Users\CYMR90~1\AppData\Local\Temp\ccNmN5zT.s:885    .text.spi_crc_error_clear:0000000000000000 .L0 
C:\Users\CYMR90~1\AppData\Local\Temp\ccNmN5zT.s:886    .text.spi_crc_error_clear:0000000000000002 .L0 
C:\Users\CYMR90~1\AppData\Local\Temp\ccNmN5zT.s:888    .text.spi_crc_error_clear:0000000000000004 .L0 
C:\Users\CYMR90~1\AppData\Local\Temp\ccNmN5zT.s:890    .text.spi_crc_error_clear:0000000000000006 .L0 
C:\Users\CYMR90~1\AppData\Local\Temp\ccNmN5zT.s:892    .text.spi_crc_error_clear:0000000000000006 .L0 
C:\Users\CYMR90~1\AppData\Local\Temp\ccNmN5zT.s:895    .text.spi_crc_error_clear:000000000000000c .L0 
C:\Users\CYMR90~1\AppData\Local\Temp\ccNmN5zT.s:898    .text.spi_crc_error_clear:0000000000000010 .L0 
C:\Users\CYMR90~1\AppData\Local\Temp\ccNmN5zT.s:900    .text.spi_crc_error_clear:0000000000000014 .L0 
C:\Users\CYMR90~1\AppData\Local\Temp\ccNmN5zT.s:901    .text.spi_crc_error_clear:0000000000000014 .L0 
C:\Users\CYMR90~1\AppData\Local\Temp\ccNmN5zT.s:903    .text.spi_crc_error_clear:0000000000000016 .L0 
C:\Users\CYMR90~1\AppData\Local\Temp\ccNmN5zT.s:905    .text.spi_crc_error_clear:0000000000000018 .L0 
C:\Users\CYMR90~1\AppData\Local\Temp\ccNmN5zT.s:912    .text.spi_ti_mode_enable:0000000000000000 spi_ti_mode_enable
C:\Users\CYMR90~1\AppData\Local\Temp\ccNmN5zT.s:915    .text.spi_ti_mode_enable:0000000000000000 .L0 
C:\Users\CYMR90~1\AppData\Local\Temp\ccNmN5zT.s:916    .text.spi_ti_mode_enable:0000000000000000 .L0 
C:\Users\CYMR90~1\AppData\Local\Temp\ccNmN5zT.s:917    .text.spi_ti_mode_enable:0000000000000002 .L0 
C:\Users\CYMR90~1\AppData\Local\Temp\ccNmN5zT.s:919    .text.spi_ti_mode_enable:0000000000000004 .L0 
C:\Users\CYMR90~1\AppData\Local\Temp\ccNmN5zT.s:921    .text.spi_ti_mode_enable:0000000000000006 .L0 
C:\Users\CYMR90~1\AppData\Local\Temp\ccNmN5zT.s:923    .text.spi_ti_mode_enable:0000000000000006 .L0 
C:\Users\CYMR90~1\AppData\Local\Temp\ccNmN5zT.s:931    .text.spi_ti_mode_enable:000000000000001a .L0 
C:\Users\CYMR90~1\AppData\Local\Temp\ccNmN5zT.s:933    .text.spi_ti_mode_enable:000000000000001e .L0 
C:\Users\CYMR90~1\AppData\Local\Temp\ccNmN5zT.s:934    .text.spi_ti_mode_enable:000000000000001e .L0 
C:\Users\CYMR90~1\AppData\Local\Temp\ccNmN5zT.s:936    .text.spi_ti_mode_enable:0000000000000020 .L0 
C:\Users\CYMR90~1\AppData\Local\Temp\ccNmN5zT.s:938    .text.spi_ti_mode_enable:0000000000000022 .L0 
C:\Users\CYMR90~1\AppData\Local\Temp\ccNmN5zT.s:945    .text.spi_ti_mode_disable:0000000000000000 spi_ti_mode_disable
C:\Users\CYMR90~1\AppData\Local\Temp\ccNmN5zT.s:948    .text.spi_ti_mode_disable:0000000000000000 .L0 
C:\Users\CYMR90~1\AppData\Local\Temp\ccNmN5zT.s:949    .text.spi_ti_mode_disable:0000000000000000 .L0 
C:\Users\CYMR90~1\AppData\Local\Temp\ccNmN5zT.s:950    .text.spi_ti_mode_disable:0000000000000002 .L0 
C:\Users\CYMR90~1\AppData\Local\Temp\ccNmN5zT.s:952    .text.spi_ti_mode_disable:0000000000000004 .L0 
C:\Users\CYMR90~1\AppData\Local\Temp\ccNmN5zT.s:954    .text.spi_ti_mode_disable:0000000000000006 .L0 
C:\Users\CYMR90~1\AppData\Local\Temp\ccNmN5zT.s:956    .text.spi_ti_mode_disable:0000000000000006 .L0 
C:\Users\CYMR90~1\AppData\Local\Temp\ccNmN5zT.s:964    .text.spi_ti_mode_disable:0000000000000018 .L0 
C:\Users\CYMR90~1\AppData\Local\Temp\ccNmN5zT.s:966    .text.spi_ti_mode_disable:000000000000001c .L0 
C:\Users\CYMR90~1\AppData\Local\Temp\ccNmN5zT.s:967    .text.spi_ti_mode_disable:000000000000001c .L0 
C:\Users\CYMR90~1\AppData\Local\Temp\ccNmN5zT.s:969    .text.spi_ti_mode_disable:000000000000001e .L0 
C:\Users\CYMR90~1\AppData\Local\Temp\ccNmN5zT.s:971    .text.spi_ti_mode_disable:0000000000000020 .L0 
C:\Users\CYMR90~1\AppData\Local\Temp\ccNmN5zT.s:978    .text.spi_interrupt_enable:0000000000000000 spi_interrupt_enable
C:\Users\CYMR90~1\AppData\Local\Temp\ccNmN5zT.s:981    .text.spi_interrupt_enable:0000000000000000 .L0 
C:\Users\CYMR90~1\AppData\Local\Temp\ccNmN5zT.s:982    .text.spi_interrupt_enable:0000000000000000 .L0 
C:\Users\CYMR90~1\AppData\Local\Temp\ccNmN5zT.s:983    .text.spi_interrupt_enable:0000000000000002 .L0 
C:\Users\CYMR90~1\AppData\Local\Temp\ccNmN5zT.s:985    .text.spi_interrupt_enable:0000000000000004 .L0 
C:\Users\CYMR90~1\AppData\Local\Temp\ccNmN5zT.s:987    .text.spi_interrupt_enable:0000000000000006 .L0 
C:\Users\CYMR90~1\AppData\Local\Temp\ccNmN5zT.s:991    .text.spi_interrupt_enable:000000000000000c .L0 
C:\Users\CYMR90~1\AppData\Local\Temp\ccNmN5zT.s:1000   .text.spi_interrupt_enable:0000000000000024 .L0 
C:\Users\CYMR90~1\AppData\Local\Temp\ccNmN5zT.s:1003   .text.spi_interrupt_enable:0000000000000026 .L0 
C:\Users\CYMR90~1\AppData\Local\Temp\ccNmN5zT.s:1011   .text.spi_interrupt_enable:000000000000003a .L0 
C:\Users\CYMR90~1\AppData\Local\Temp\ccNmN5zT.s:1014   .text.spi_interrupt_enable:000000000000003c .L0 
C:\Users\CYMR90~1\AppData\Local\Temp\ccNmN5zT.s:1022   .text.spi_interrupt_enable:0000000000000050 .L0 
C:\Users\CYMR90~1\AppData\Local\Temp\ccNmN5zT.s:1025   .text.spi_interrupt_enable:0000000000000052 .L0 
C:\Users\CYMR90~1\AppData\Local\Temp\ccNmN5zT.s:1033   .text.spi_interrupt_enable:0000000000000066 .L0 
C:\Users\CYMR90~1\AppData\Local\Temp\ccNmN5zT.s:1036   .text.spi_interrupt_enable:0000000000000068 .L0 
C:\Users\CYMR90~1\AppData\Local\Temp\ccNmN5zT.s:1039   .text.spi_interrupt_enable:000000000000006a .L0 
C:\Users\CYMR90~1\AppData\Local\Temp\ccNmN5zT.s:1041   .text.spi_interrupt_enable:000000000000006e .L0 
C:\Users\CYMR90~1\AppData\Local\Temp\ccNmN5zT.s:1042   .text.spi_interrupt_enable:000000000000006e .L0 
C:\Users\CYMR90~1\AppData\Local\Temp\ccNmN5zT.s:1044   .text.spi_interrupt_enable:0000000000000070 .L0 
C:\Users\CYMR90~1\AppData\Local\Temp\ccNmN5zT.s:1046   .text.spi_interrupt_enable:0000000000000072 .L0 
C:\Users\CYMR90~1\AppData\Local\Temp\ccNmN5zT.s:1053   .text.spi_interrupt_disable:0000000000000000 spi_interrupt_disable
C:\Users\CYMR90~1\AppData\Local\Temp\ccNmN5zT.s:1056   .text.spi_interrupt_disable:0000000000000000 .L0 
C:\Users\CYMR90~1\AppData\Local\Temp\ccNmN5zT.s:1057   .text.spi_interrupt_disable:0000000000000000 .L0 
C:\Users\CYMR90~1\AppData\Local\Temp\ccNmN5zT.s:1058   .text.spi_interrupt_disable:0000000000000002 .L0 
C:\Users\CYMR90~1\AppData\Local\Temp\ccNmN5zT.s:1060   .text.spi_interrupt_disable:0000000000000004 .L0 
C:\Users\CYMR90~1\AppData\Local\Temp\ccNmN5zT.s:1062   .text.spi_interrupt_disable:0000000000000006 .L0 
C:\Users\CYMR90~1\AppData\Local\Temp\ccNmN5zT.s:1066   .text.spi_interrupt_disable:000000000000000c .L0 
C:\Users\CYMR90~1\AppData\Local\Temp\ccNmN5zT.s:1075   .text.spi_interrupt_disable:0000000000000024 .L0 
C:\Users\CYMR90~1\AppData\Local\Temp\ccNmN5zT.s:1078   .text.spi_interrupt_disable:0000000000000026 .L0 
C:\Users\CYMR90~1\AppData\Local\Temp\ccNmN5zT.s:1086   .text.spi_interrupt_disable:000000000000003a .L0 
C:\Users\CYMR90~1\AppData\Local\Temp\ccNmN5zT.s:1089   .text.spi_interrupt_disable:000000000000003c .L0 
C:\Users\CYMR90~1\AppData\Local\Temp\ccNmN5zT.s:1097   .text.spi_interrupt_disable:0000000000000050 .L0 
C:\Users\CYMR90~1\AppData\Local\Temp\ccNmN5zT.s:1100   .text.spi_interrupt_disable:0000000000000052 .L0 
C:\Users\CYMR90~1\AppData\Local\Temp\ccNmN5zT.s:1108   .text.spi_interrupt_disable:0000000000000066 .L0 
C:\Users\CYMR90~1\AppData\Local\Temp\ccNmN5zT.s:1111   .text.spi_interrupt_disable:0000000000000068 .L0 
C:\Users\CYMR90~1\AppData\Local\Temp\ccNmN5zT.s:1114   .text.spi_interrupt_disable:000000000000006a .L0 
C:\Users\CYMR90~1\AppData\Local\Temp\ccNmN5zT.s:1116   .text.spi_interrupt_disable:000000000000006e .L0 
C:\Users\CYMR90~1\AppData\Local\Temp\ccNmN5zT.s:1117   .text.spi_interrupt_disable:000000000000006e .L0 
C:\Users\CYMR90~1\AppData\Local\Temp\ccNmN5zT.s:1119   .text.spi_interrupt_disable:0000000000000070 .L0 
C:\Users\CYMR90~1\AppData\Local\Temp\ccNmN5zT.s:1121   .text.spi_interrupt_disable:0000000000000072 .L0 
C:\Users\CYMR90~1\AppData\Local\Temp\ccNmN5zT.s:1128   .text.spi_interrupt_flag_get:0000000000000000 spi_interrupt_flag_get
C:\Users\CYMR90~1\AppData\Local\Temp\ccNmN5zT.s:1131   .text.spi_interrupt_flag_get:0000000000000000 .L0 
C:\Users\CYMR90~1\AppData\Local\Temp\ccNmN5zT.s:1132   .text.spi_interrupt_flag_get:0000000000000000 .L0 
C:\Users\CYMR90~1\AppData\Local\Temp\ccNmN5zT.s:1133   .text.spi_interrupt_flag_get:0000000000000002 .L0 
C:\Users\CYMR90~1\AppData\Local\Temp\ccNmN5zT.s:1135   .text.spi_interrupt_flag_get:0000000000000004 .L0 
C:\Users\CYMR90~1\AppData\Local\Temp\ccNmN5zT.s:1137   .text.spi_interrupt_flag_get:0000000000000006 .L0 
C:\Users\CYMR90~1\AppData\Local\Temp\ccNmN5zT.s:1141   .text.spi_interrupt_flag_get:000000000000000c .L0 
C:\Users\CYMR90~1\AppData\Local\Temp\ccNmN5zT.s:1144   .text.spi_interrupt_flag_get:0000000000000012 .L0 
C:\Users\CYMR90~1\AppData\Local\Temp\ccNmN5zT.s:1147   .text.spi_interrupt_flag_get:0000000000000018 .L0 
C:\Users\CYMR90~1\AppData\Local\Temp\ccNmN5zT.s:1150   .text.spi_interrupt_flag_get:000000000000001e .L0 
C:\Users\CYMR90~1\AppData\Local\Temp\ccNmN5zT.s:1153   .text.spi_interrupt_flag_get:0000000000000024 .L0 
C:\Users\CYMR90~1\AppData\Local\Temp\ccNmN5zT.s:1177   .text.spi_interrupt_flag_get:000000000000004a .L0 
C:\Users\CYMR90~1\AppData\Local\Temp\ccNmN5zT.s:1181   .text.spi_interrupt_flag_get:0000000000000054 .L0 
C:\Users\CYMR90~1\AppData\Local\Temp\ccNmN5zT.s:1185   .text.spi_interrupt_flag_get:0000000000000060 .L0 
C:\Users\CYMR90~1\AppData\Local\Temp\ccNmN5zT.s:1188   .text.spi_interrupt_flag_get:0000000000000062 .L0 
C:\Users\CYMR90~1\AppData\Local\Temp\ccNmN5zT.s:1192   .text.spi_interrupt_flag_get:000000000000006c .L0 
C:\Users\CYMR90~1\AppData\Local\Temp\ccNmN5zT.s:1196   .text.spi_interrupt_flag_get:0000000000000078 .L0 
C:\Users\CYMR90~1\AppData\Local\Temp\ccNmN5zT.s:1199   .text.spi_interrupt_flag_get:000000000000007a .L0 
C:\Users\CYMR90~1\AppData\Local\Temp\ccNmN5zT.s:1203   .text.spi_interrupt_flag_get:0000000000000086 .L0 
C:\Users\CYMR90~1\AppData\Local\Temp\ccNmN5zT.s:1207   .text.spi_interrupt_flag_get:0000000000000092 .L0 
C:\Users\CYMR90~1\AppData\Local\Temp\ccNmN5zT.s:1210   .text.spi_interrupt_flag_get:0000000000000094 .L0 
C:\Users\CYMR90~1\AppData\Local\Temp\ccNmN5zT.s:1214   .text.spi_interrupt_flag_get:00000000000000a0 .L0 
C:\Users\CYMR90~1\AppData\Local\Temp\ccNmN5zT.s:1218   .text.spi_interrupt_flag_get:00000000000000ac .L0 
C:\Users\CYMR90~1\AppData\Local\Temp\ccNmN5zT.s:1221   .text.spi_interrupt_flag_get:00000000000000ae .L0 
C:\Users\CYMR90~1\AppData\Local\Temp\ccNmN5zT.s:1225   .text.spi_interrupt_flag_get:00000000000000b8 .L0 
C:\Users\CYMR90~1\AppData\Local\Temp\ccNmN5zT.s:1229   .text.spi_interrupt_flag_get:00000000000000c4 .L0 
C:\Users\CYMR90~1\AppData\Local\Temp\ccNmN5zT.s:1232   .text.spi_interrupt_flag_get:00000000000000c6 .L0 
C:\Users\CYMR90~1\AppData\Local\Temp\ccNmN5zT.s:1236   .text.spi_interrupt_flag_get:00000000000000d2 .L0 
C:\Users\CYMR90~1\AppData\Local\Temp\ccNmN5zT.s:1240   .text.spi_interrupt_flag_get:00000000000000de .L0 
C:\Users\CYMR90~1\AppData\Local\Temp\ccNmN5zT.s:1243   .text.spi_interrupt_flag_get:00000000000000e0 .L0 
C:\Users\CYMR90~1\AppData\Local\Temp\ccNmN5zT.s:1246   .text.spi_interrupt_flag_get:00000000000000e2 .L0 
C:\Users\CYMR90~1\AppData\Local\Temp\ccNmN5zT.s:1249   .text.spi_interrupt_flag_get:00000000000000e8 .L0 
C:\Users\CYMR90~1\AppData\Local\Temp\ccNmN5zT.s:1252   .text.spi_interrupt_flag_get:00000000000000ee .L0 
C:\Users\CYMR90~1\AppData\Local\Temp\ccNmN5zT.s:1256   .text.spi_interrupt_flag_get:00000000000000f2 .L0 
C:\Users\CYMR90~1\AppData\Local\Temp\ccNmN5zT.s:1259   .text.spi_interrupt_flag_get:00000000000000f4 .L0 
C:\Users\CYMR90~1\AppData\Local\Temp\ccNmN5zT.s:1261   .text.spi_interrupt_flag_get:00000000000000f8 .L0 
C:\Users\CYMR90~1\AppData\Local\Temp\ccNmN5zT.s:1262   .text.spi_interrupt_flag_get:00000000000000f8 .L0 
C:\Users\CYMR90~1\AppData\Local\Temp\ccNmN5zT.s:1264   .text.spi_interrupt_flag_get:00000000000000fa .L0 
C:\Users\CYMR90~1\AppData\Local\Temp\ccNmN5zT.s:1266   .text.spi_interrupt_flag_get:00000000000000fc .L0 
C:\Users\CYMR90~1\AppData\Local\Temp\ccNmN5zT.s:1273   .text.spi_flag_get:0000000000000000 spi_flag_get
C:\Users\CYMR90~1\AppData\Local\Temp\ccNmN5zT.s:1276   .text.spi_flag_get:0000000000000000 .L0 
C:\Users\CYMR90~1\AppData\Local\Temp\ccNmN5zT.s:1277   .text.spi_flag_get:0000000000000000 .L0 
C:\Users\CYMR90~1\AppData\Local\Temp\ccNmN5zT.s:1278   .text.spi_flag_get:0000000000000002 .L0 
C:\Users\CYMR90~1\AppData\Local\Temp\ccNmN5zT.s:1280   .text.spi_flag_get:0000000000000004 .L0 
C:\Users\CYMR90~1\AppData\Local\Temp\ccNmN5zT.s:1282   .text.spi_flag_get:0000000000000006 .L0 
C:\Users\CYMR90~1\AppData\Local\Temp\ccNmN5zT.s:1285   .text.spi_flag_get:000000000000000a .L0 
C:\Users\CYMR90~1\AppData\Local\Temp\ccNmN5zT.s:1289   .text.spi_flag_get:0000000000000012 .L0 
C:\Users\CYMR90~1\AppData\Local\Temp\ccNmN5zT.s:1292   .text.spi_flag_get:0000000000000018 .L0 
C:\Users\CYMR90~1\AppData\Local\Temp\ccNmN5zT.s:1294   .text.spi_flag_get:000000000000001a .L0 
C:\Users\CYMR90~1\AppData\Local\Temp\ccNmN5zT.s:1298   .text.spi_flag_get:000000000000001e .L0 
C:\Users\CYMR90~1\AppData\Local\Temp\ccNmN5zT.s:1301   .text.spi_flag_get:0000000000000020 .L0 
C:\Users\CYMR90~1\AppData\Local\Temp\ccNmN5zT.s:1303   .text.spi_flag_get:0000000000000024 .L0 
C:\Users\CYMR90~1\AppData\Local\Temp\ccNmN5zT.s:1304   .text.spi_flag_get:0000000000000024 .L0 
C:\Users\CYMR90~1\AppData\Local\Temp\ccNmN5zT.s:1306   .text.spi_flag_get:0000000000000026 .L0 
C:\Users\CYMR90~1\AppData\Local\Temp\ccNmN5zT.s:1308   .text.spi_flag_get:0000000000000028 .L0 
C:\Users\CYMR90~1\AppData\Local\Temp\ccNmN5zT.s:47     .text.spi_deinit:000000000000002e .L0 
C:\Users\CYMR90~1\AppData\Local\Temp\ccNmN5zT.s:94     .text.spi_struct_para_init:000000000000004a .L0 
C:\Users\CYMR90~1\AppData\Local\Temp\ccNmN5zT.s:187    .text.spi_init:00000000000000aa .L0 
C:\Users\CYMR90~1\AppData\Local\Temp\ccNmN5zT.s:218    .text.spi_enable:000000000000001e .L0 
C:\Users\CYMR90~1\AppData\Local\Temp\ccNmN5zT.s:249    .text.spi_disable:000000000000001e .L0 
C:\Users\CYMR90~1\AppData\Local\Temp\ccNmN5zT.s:282    .text.spi_nss_output_enable:0000000000000022 .L0 
C:\Users\CYMR90~1\AppData\Local\Temp\ccNmN5zT.s:315    .text.spi_nss_output_disable:0000000000000020 .L0 
C:\Users\CYMR90~1\AppData\Local\Temp\ccNmN5zT.s:346    .text.spi_nss_internal_high:000000000000001e .L0 
C:\Users\CYMR90~1\AppData\Local\Temp\ccNmN5zT.s:377    .text.spi_nss_internal_low:000000000000001e .L0 
C:\Users\CYMR90~1\AppData\Local\Temp\ccNmN5zT.s:427    .text.spi_dma_enable:0000000000000044 .L0 
C:\Users\CYMR90~1\AppData\Local\Temp\ccNmN5zT.s:477    .text.spi_dma_disable:0000000000000040 .L0 
C:\Users\CYMR90~1\AppData\Local\Temp\ccNmN5zT.s:521    .text.spi_data_frame_format_config:000000000000003a .L0 
C:\Users\CYMR90~1\AppData\Local\Temp\ccNmN5zT.s:555    .text.spi_data_transmit:0000000000000020 .L0 
C:\Users\CYMR90~1\AppData\Local\Temp\ccNmN5zT.s:587    .text.spi_data_receive:000000000000001a .L0 
C:\Users\CYMR90~1\AppData\Local\Temp\ccNmN5zT.s:636    .text.spi_bidirectional_transfer_config:0000000000000040 .L0 
C:\Users\CYMR90~1\AppData\Local\Temp\ccNmN5zT.s:667    .text.spi_format_error_clear:000000000000001a .L0 
C:\Users\CYMR90~1\AppData\Local\Temp\ccNmN5zT.s:701    .text.spi_crc_polynomial_set:0000000000000020 .L0 
C:\Users\CYMR90~1\AppData\Local\Temp\ccNmN5zT.s:733    .text.spi_crc_polynomial_get:000000000000001a .L0 
C:\Users\CYMR90~1\AppData\Local\Temp\ccNmN5zT.s:765    .text.spi_crc_on:000000000000001e .L0 
C:\Users\CYMR90~1\AppData\Local\Temp\ccNmN5zT.s:798    .text.spi_crc_off:0000000000000020 .L0 
C:\Users\CYMR90~1\AppData\Local\Temp\ccNmN5zT.s:830    .text.spi_crc_next:000000000000001e .L0 
C:\Users\CYMR90~1\AppData\Local\Temp\ccNmN5zT.s:877    .text.spi_crc_get:0000000000000034 .L0 
C:\Users\CYMR90~1\AppData\Local\Temp\ccNmN5zT.s:908    .text.spi_crc_error_clear:0000000000000018 .L0 
C:\Users\CYMR90~1\AppData\Local\Temp\ccNmN5zT.s:941    .text.spi_ti_mode_enable:0000000000000022 .L0 
C:\Users\CYMR90~1\AppData\Local\Temp\ccNmN5zT.s:974    .text.spi_ti_mode_disable:0000000000000020 .L0 
C:\Users\CYMR90~1\AppData\Local\Temp\ccNmN5zT.s:1049   .text.spi_interrupt_enable:0000000000000072 .L0 
C:\Users\CYMR90~1\AppData\Local\Temp\ccNmN5zT.s:1124   .text.spi_interrupt_disable:0000000000000072 .L0 
C:\Users\CYMR90~1\AppData\Local\Temp\ccNmN5zT.s:1269   .text.spi_interrupt_flag_get:00000000000000fc .L0 
C:\Users\CYMR90~1\AppData\Local\Temp\ccNmN5zT.s:1311   .text.spi_flag_get:0000000000000028 .L0 
                     .debug_frame:0000000000000000 .L0 
C:\Users\CYMR90~1\AppData\Local\Temp\ccNmN5zT.s:406    .text.spi_dma_enable:0000000000000028 .L11
C:\Users\CYMR90~1\AppData\Local\Temp\ccNmN5zT.s:415    .text.spi_dma_enable:000000000000003c .L13
C:\Users\CYMR90~1\AppData\Local\Temp\ccNmN5zT.s:456    .text.spi_dma_disable:0000000000000026 .L15
C:\Users\CYMR90~1\AppData\Local\Temp\ccNmN5zT.s:465    .text.spi_dma_disable:0000000000000038 .L17
C:\Users\CYMR90~1\AppData\Local\Temp\ccNmN5zT.s:615    .text.spi_bidirectional_transfer_config:0000000000000026 .L23
C:\Users\CYMR90~1\AppData\Local\Temp\ccNmN5zT.s:624    .text.spi_bidirectional_transfer_config:0000000000000038 .L25
C:\Users\CYMR90~1\AppData\Local\Temp\ccNmN5zT.s:857    .text.spi_crc_get:0000000000000020 .L34
C:\Users\CYMR90~1\AppData\Local\Temp\ccNmN5zT.s:865    .text.spi_crc_get:000000000000002c .L35
C:\Users\CYMR90~1\AppData\Local\Temp\ccNmN5zT.s:1023   .text.spi_interrupt_enable:0000000000000052 .L40
C:\Users\CYMR90~1\AppData\Local\Temp\ccNmN5zT.s:1034   .text.spi_interrupt_enable:0000000000000068 .L45
C:\Users\CYMR90~1\AppData\Local\Temp\ccNmN5zT.s:1001   .text.spi_interrupt_enable:0000000000000026 .L42
C:\Users\CYMR90~1\AppData\Local\Temp\ccNmN5zT.s:1012   .text.spi_interrupt_enable:000000000000003c .L43
C:\Users\CYMR90~1\AppData\Local\Temp\ccNmN5zT.s:1037   .text.spi_interrupt_enable:000000000000006a .L44
C:\Users\CYMR90~1\AppData\Local\Temp\ccNmN5zT.s:1098   .text.spi_interrupt_disable:0000000000000052 .L47
C:\Users\CYMR90~1\AppData\Local\Temp\ccNmN5zT.s:1109   .text.spi_interrupt_disable:0000000000000068 .L52
C:\Users\CYMR90~1\AppData\Local\Temp\ccNmN5zT.s:1076   .text.spi_interrupt_disable:0000000000000026 .L49
C:\Users\CYMR90~1\AppData\Local\Temp\ccNmN5zT.s:1087   .text.spi_interrupt_disable:000000000000003c .L50
C:\Users\CYMR90~1\AppData\Local\Temp\ccNmN5zT.s:1112   .text.spi_interrupt_disable:000000000000006a .L51
C:\Users\CYMR90~1\AppData\Local\Temp\ccNmN5zT.s:1166   .rodata.spi_interrupt_flag_get:0000000000000000 .L56
C:\Users\CYMR90~1\AppData\Local\Temp\ccNmN5zT.s:1157   .text.spi_interrupt_flag_get:0000000000000032 .L0 
C:\Users\CYMR90~1\AppData\Local\Temp\ccNmN5zT.s:1160   .text.spi_interrupt_flag_get:000000000000003e .L0 
C:\Users\CYMR90~1\AppData\Local\Temp\ccNmN5zT.s:1241   .text.spi_interrupt_flag_get:00000000000000e0 .L65
C:\Users\CYMR90~1\AppData\Local\Temp\ccNmN5zT.s:1244   .text.spi_interrupt_flag_get:00000000000000e2 .L62
C:\Users\CYMR90~1\AppData\Local\Temp\ccNmN5zT.s:1254   .text.spi_interrupt_flag_get:00000000000000f2 .L63
C:\Users\CYMR90~1\AppData\Local\Temp\ccNmN5zT.s:1257   .text.spi_interrupt_flag_get:00000000000000f4 .L64
C:\Users\CYMR90~1\AppData\Local\Temp\ccNmN5zT.s:1175   .text.spi_interrupt_flag_get:000000000000004a .L61
C:\Users\CYMR90~1\AppData\Local\Temp\ccNmN5zT.s:1186   .text.spi_interrupt_flag_get:0000000000000062 .L60
C:\Users\CYMR90~1\AppData\Local\Temp\ccNmN5zT.s:1197   .text.spi_interrupt_flag_get:000000000000007a .L59
C:\Users\CYMR90~1\AppData\Local\Temp\ccNmN5zT.s:1208   .text.spi_interrupt_flag_get:0000000000000094 .L58
C:\Users\CYMR90~1\AppData\Local\Temp\ccNmN5zT.s:1219   .text.spi_interrupt_flag_get:00000000000000ae .L57
C:\Users\CYMR90~1\AppData\Local\Temp\ccNmN5zT.s:1230   .text.spi_interrupt_flag_get:00000000000000c6 .L55
C:\Users\CYMR90~1\AppData\Local\Temp\ccNmN5zT.s:1296   .text.spi_flag_get:000000000000001e .L67
C:\Users\CYMR90~1\AppData\Local\Temp\ccNmN5zT.s:1299   .text.spi_flag_get:0000000000000020 .L68
C:\Users\CYMR90~1\AppData\Local\Temp\ccNmN5zT.s:2040   .debug_abbrev:0000000000000000 .Ldebug_abbrev0
C:\Users\CYMR90~1\AppData\Local\Temp\ccNmN5zT.s:23051  .debug_str:000000000000af24 .LASF5651
C:\Users\CYMR90~1\AppData\Local\Temp\ccNmN5zT.s:26224  .debug_str:0000000000017c3f .LASF5652
C:\Users\CYMR90~1\AppData\Local\Temp\ccNmN5zT.s:23355  .debug_str:000000000000c3d2 .LASF5653
C:\Users\CYMR90~1\AppData\Local\Temp\ccNmN5zT.s:2589   .debug_ranges:0000000000000000 .Ldebug_ranges0
C:\Users\CYMR90~1\AppData\Local\Temp\ccNmN5zT.s:20289  .debug_line:0000000000000000 .Ldebug_line0
C:\Users\CYMR90~1\AppData\Local\Temp\ccNmN5zT.s:2651   .debug_macro:0000000000000000 .Ldebug_macro0
C:\Users\CYMR90~1\AppData\Local\Temp\ccNmN5zT.s:31556  .debug_str:000000000002cf46 .LASF5557
C:\Users\CYMR90~1\AppData\Local\Temp\ccNmN5zT.s:20307  .debug_str:000000000000011c .LASF5558
C:\Users\CYMR90~1\AppData\Local\Temp\ccNmN5zT.s:21237  .debug_str:0000000000003aba .LASF5559
C:\Users\CYMR90~1\AppData\Local\Temp\ccNmN5zT.s:26420  .debug_str:000000000001884e .LASF5560
C:\Users\CYMR90~1\AppData\Local\Temp\ccNmN5zT.s:22539  .debug_str:0000000000008ec6 .LASF5563
C:\Users\CYMR90~1\AppData\Local\Temp\ccNmN5zT.s:25879  .debug_str:0000000000016468 .LASF5561
C:\Users\CYMR90~1\AppData\Local\Temp\ccNmN5zT.s:27746  .debug_str:000000000001e042 .LASF5562
C:\Users\CYMR90~1\AppData\Local\Temp\ccNmN5zT.s:23859  .debug_str:000000000000e3e6 .LASF5564
C:\Users\CYMR90~1\AppData\Local\Temp\ccNmN5zT.s:29360  .debug_str:00000000000241eb .LASF5565
C:\Users\CYMR90~1\AppData\Local\Temp\ccNmN5zT.s:28148  .debug_str:000000000001f82a .LASF5566
C:\Users\CYMR90~1\AppData\Local\Temp\ccNmN5zT.s:26632  .debug_str:0000000000019692 .LASF5567
C:\Users\CYMR90~1\AppData\Local\Temp\ccNmN5zT.s:20427  .debug_str:0000000000000861 .LASF5568
C:\Users\CYMR90~1\AppData\Local\Temp\ccNmN5zT.s:29708  .debug_str:0000000000025a92 .LASF5569
C:\Users\CYMR90~1\AppData\Local\Temp\ccNmN5zT.s:28170  .debug_str:000000000001f98a .LASF855
C:\Users\CYMR90~1\AppData\Local\Temp\ccNmN5zT.s:25645  .debug_str:00000000000155bf .LASF5570
C:\Users\CYMR90~1\AppData\Local\Temp\ccNmN5zT.s:29640  .debug_str:0000000000025587 .LASF5571
C:\Users\CYMR90~1\AppData\Local\Temp\ccNmN5zT.s:21107  .debug_str:0000000000003260 .LASF5572
C:\Users\CYMR90~1\AppData\Local\Temp\ccNmN5zT.s:29402  .debug_str:00000000000244f1 .LASF5573
C:\Users\CYMR90~1\AppData\Local\Temp\ccNmN5zT.s:22905  .debug_str:000000000000a53d .LASF5574
C:\Users\CYMR90~1\AppData\Local\Temp\ccNmN5zT.s:23061  .debug_str:000000000000b05c .LASF5575
C:\Users\CYMR90~1\AppData\Local\Temp\ccNmN5zT.s:30572  .debug_str:0000000000029227 .LASF5576
C:\Users\CYMR90~1\AppData\Local\Temp\ccNmN5zT.s:27940  .debug_str:000000000001ebb3 .LASF5577
C:\Users\CYMR90~1\AppData\Local\Temp\ccNmN5zT.s:28762  .debug_str:0000000000021e37 .LASF5578
C:\Users\CYMR90~1\AppData\Local\Temp\ccNmN5zT.s:31536  .debug_str:000000000002ce2a .LASF5579
C:\Users\CYMR90~1\AppData\Local\Temp\ccNmN5zT.s:29996  .debug_str:0000000000026c3b .LASF5580
C:\Users\CYMR90~1\AppData\Local\Temp\ccNmN5zT.s:22239  .debug_str:0000000000007a6f .LASF5581
C:\Users\CYMR90~1\AppData\Local\Temp\ccNmN5zT.s:25793  .debug_str:0000000000015ef7 .LASF5582
C:\Users\CYMR90~1\AppData\Local\Temp\ccNmN5zT.s:21079  .debug_str:000000000000305b .LASF5583
C:\Users\CYMR90~1\AppData\Local\Temp\ccNmN5zT.s:24447  .debug_str:000000000001086a .LASF5584
C:\Users\CYMR90~1\AppData\Local\Temp\ccNmN5zT.s:29894  .debug_str:0000000000026604 .LASF5585
C:\Users\CYMR90~1\AppData\Local\Temp\ccNmN5zT.s:22145  .debug_str:0000000000007470 .LASF5586
C:\Users\CYMR90~1\AppData\Local\Temp\ccNmN5zT.s:23393  .debug_str:000000000000c62d .LASF5587
C:\Users\CYMR90~1\AppData\Local\Temp\ccNmN5zT.s:31528  .debug_str:000000000002cd1a .LASF5588
C:\Users\CYMR90~1\AppData\Local\Temp\ccNmN5zT.s:21943  .debug_str:00000000000066ec .LASF5589
C:\Users\CYMR90~1\AppData\Local\Temp\ccNmN5zT.s:30498  .debug_str:0000000000028d7a .LASF5590
C:\Users\CYMR90~1\AppData\Local\Temp\ccNmN5zT.s:30430  .debug_str:00000000000289aa .LASF5591
C:\Users\CYMR90~1\AppData\Local\Temp\ccNmN5zT.s:25347  .debug_str:000000000001431b .LASF5592
C:\Users\CYMR90~1\AppData\Local\Temp\ccNmN5zT.s:21439  .debug_str:0000000000004826 .LASF5593
C:\Users\CYMR90~1\AppData\Local\Temp\ccNmN5zT.s:26860  .debug_str:000000000001a67b .LASF5594
C:\Users\CYMR90~1\AppData\Local\Temp\ccNmN5zT.s:23681  .debug_str:000000000000d953 .LASF5595
C:\Users\CYMR90~1\AppData\Local\Temp\ccNmN5zT.s:31368  .debug_str:000000000002c2ca .LASF5596
C:\Users\CYMR90~1\AppData\Local\Temp\ccNmN5zT.s:26568  .debug_str:00000000000192f2 .LASF5597
C:\Users\CYMR90~1\AppData\Local\Temp\ccNmN5zT.s:22169  .debug_str:00000000000075d3 .LASF5598
C:\Users\CYMR90~1\AppData\Local\Temp\ccNmN5zT.s:21299  .debug_str:0000000000003e67 .LASF5599
C:\Users\CYMR90~1\AppData\Local\Temp\ccNmN5zT.s:28748  .debug_str:0000000000021d5e .LASF5600
C:\Users\CYMR90~1\AppData\Local\Temp\ccNmN5zT.s:21325  .debug_str:0000000000004025 .LASF5601
C:\Users\CYMR90~1\AppData\Local\Temp\ccNmN5zT.s:29356  .debug_str:00000000000241c1 .LASF5602
C:\Users\CYMR90~1\AppData\Local\Temp\ccNmN5zT.s:23133  .debug_str:000000000000b46b .LASF5603
C:\Users\CYMR90~1\AppData\Local\Temp\ccNmN5zT.s:27048  .debug_str:000000000001b2fe .LASF5604
C:\Users\CYMR90~1\AppData\Local\Temp\ccNmN5zT.s:31442  .debug_str:000000000002c7ba .LASF5605
C:\Users\CYMR90~1\AppData\Local\Temp\ccNmN5zT.s:30570  .debug_str:000000000002921c .LASF5606
C:\Users\CYMR90~1\AppData\Local\Temp\ccNmN5zT.s:29314  .debug_str:0000000000023ec4 .LASF5607
C:\Users\CYMR90~1\AppData\Local\Temp\ccNmN5zT.s:30868  .debug_str:000000000002a35b .LASF5608
C:\Users\CYMR90~1\AppData\Local\Temp\ccNmN5zT.s:25487  .debug_str:0000000000014bab .LASF5609
C:\Users\CYMR90~1\AppData\Local\Temp\ccNmN5zT.s:24041  .debug_str:000000000000eedb .LASF5610
C:\Users\CYMR90~1\AppData\Local\Temp\ccNmN5zT.s:29792  .debug_str:0000000000025f96 .LASF5611
C:\Users\CYMR90~1\AppData\Local\Temp\ccNmN5zT.s:27530  .debug_str:000000000001d238 .LASF5612
C:\Users\CYMR90~1\AppData\Local\Temp\ccNmN5zT.s:1274   .text.spi_flag_get:0000000000000000 .LFB375
C:\Users\CYMR90~1\AppData\Local\Temp\ccNmN5zT.s:1309   .text.spi_flag_get:0000000000000028 .LFE375
C:\Users\CYMR90~1\AppData\Local\Temp\ccNmN5zT.s:22893  .debug_str:000000000000a47e .LASF5614
C:\Users\CYMR90~1\AppData\Local\Temp\ccNmN5zT.s:29032  .debug_str:0000000000022e40 .LASF5613
C:\Users\CYMR90~1\AppData\Local\Temp\ccNmN5zT.s:1129   .text.spi_interrupt_flag_get:0000000000000000 .LFB374
C:\Users\CYMR90~1\AppData\Local\Temp\ccNmN5zT.s:1267   .text.spi_interrupt_flag_get:00000000000000fc .LFE374
C:\Users\CYMR90~1\AppData\Local\Temp\ccNmN5zT.s:26986  .debug_str:000000000001ae8b .LASF5615
C:\Users\CYMR90~1\AppData\Local\Temp\ccNmN5zT.s:20857  .debug_str:000000000000228b .LASF5616
C:\Users\CYMR90~1\AppData\Local\Temp\ccNmN5zT.s:20859  .debug_str:0000000000002290 .LASF5617
C:\Users\CYMR90~1\AppData\Local\Temp\ccNmN5zT.s:31014  .debug_str:000000000002ac3b .LASF5618
C:\Users\CYMR90~1\AppData\Local\Temp\ccNmN5zT.s:1054   .text.spi_interrupt_disable:0000000000000000 .LFB373
C:\Users\CYMR90~1\AppData\Local\Temp\ccNmN5zT.s:1122   .text.spi_interrupt_disable:0000000000000072 .LFE373
C:\Users\CYMR90~1\AppData\Local\Temp\ccNmN5zT.s:23191  .debug_str:000000000000b8ba .LASF5619
C:\Users\CYMR90~1\AppData\Local\Temp\ccNmN5zT.s:979    .text.spi_interrupt_enable:0000000000000000 .LFB372
C:\Users\CYMR90~1\AppData\Local\Temp\ccNmN5zT.s:1047   .text.spi_interrupt_enable:0000000000000072 .LFE372
C:\Users\CYMR90~1\AppData\Local\Temp\ccNmN5zT.s:22203  .debug_str:00000000000077f5 .LASF5620
C:\Users\CYMR90~1\AppData\Local\Temp\ccNmN5zT.s:946    .text.spi_ti_mode_disable:0000000000000000 .LFB371
C:\Users\CYMR90~1\AppData\Local\Temp\ccNmN5zT.s:972    .text.spi_ti_mode_disable:0000000000000020 .LFE371
C:\Users\CYMR90~1\AppData\Local\Temp\ccNmN5zT.s:31314  .debug_str:000000000002bfce .LASF5621
C:\Users\CYMR90~1\AppData\Local\Temp\ccNmN5zT.s:913    .text.spi_ti_mode_enable:0000000000000000 .LFB370
C:\Users\CYMR90~1\AppData\Local\Temp\ccNmN5zT.s:939    .text.spi_ti_mode_enable:0000000000000022 .LFE370
C:\Users\CYMR90~1\AppData\Local\Temp\ccNmN5zT.s:23147  .debug_str:000000000000b5d1 .LASF5622
C:\Users\CYMR90~1\AppData\Local\Temp\ccNmN5zT.s:882    .text.spi_crc_error_clear:0000000000000000 .LFB369
C:\Users\CYMR90~1\AppData\Local\Temp\ccNmN5zT.s:906    .text.spi_crc_error_clear:0000000000000018 .LFE369
C:\Users\CYMR90~1\AppData\Local\Temp\ccNmN5zT.s:31274  .debug_str:000000000002bcb5 .LASF5623
C:\Users\CYMR90~1\AppData\Local\Temp\ccNmN5zT.s:835    .text.spi_crc_get:0000000000000000 .LFB368
C:\Users\CYMR90~1\AppData\Local\Temp\ccNmN5zT.s:875    .text.spi_crc_get:0000000000000034 .LFE368
C:\Users\CYMR90~1\AppData\Local\Temp\ccNmN5zT.s:26424  .debug_str:0000000000018884 .LASF5624
C:\Users\CYMR90~1\AppData\Local\Temp\ccNmN5zT.s:803    .text.spi_crc_next:0000000000000000 .LFB367
C:\Users\CYMR90~1\AppData\Local\Temp\ccNmN5zT.s:828    .text.spi_crc_next:000000000000001e .LFE367
C:\Users\CYMR90~1\AppData\Local\Temp\ccNmN5zT.s:24381  .debug_str:00000000000103fc .LASF5625
C:\Users\CYMR90~1\AppData\Local\Temp\ccNmN5zT.s:770    .text.spi_crc_off:0000000000000000 .LFB366
C:\Users\CYMR90~1\AppData\Local\Temp\ccNmN5zT.s:796    .text.spi_crc_off:0000000000000020 .LFE366
C:\Users\CYMR90~1\AppData\Local\Temp\ccNmN5zT.s:24293  .debug_str:000000000000feb7 .LASF5626
C:\Users\CYMR90~1\AppData\Local\Temp\ccNmN5zT.s:738    .text.spi_crc_on:0000000000000000 .LFB365
C:\Users\CYMR90~1\AppData\Local\Temp\ccNmN5zT.s:763    .text.spi_crc_on:000000000000001e .LFE365
C:\Users\CYMR90~1\AppData\Local\Temp\ccNmN5zT.s:26766  .debug_str:0000000000019f90 .LASF5632
C:\Users\CYMR90~1\AppData\Local\Temp\ccNmN5zT.s:706    .text.spi_crc_polynomial_get:0000000000000000 .LFB364
C:\Users\CYMR90~1\AppData\Local\Temp\ccNmN5zT.s:731    .text.spi_crc_polynomial_get:000000000000001a .LFE364
C:\Users\CYMR90~1\AppData\Local\Temp\ccNmN5zT.s:21957  .debug_str:00000000000067a2 .LASF5627
C:\Users\CYMR90~1\AppData\Local\Temp\ccNmN5zT.s:672    .text.spi_crc_polynomial_set:0000000000000000 .LFB363
C:\Users\CYMR90~1\AppData\Local\Temp\ccNmN5zT.s:699    .text.spi_crc_polynomial_set:0000000000000020 .LFE363
C:\Users\CYMR90~1\AppData\Local\Temp\ccNmN5zT.s:21171  .debug_str:0000000000003660 .LASF5628
C:\Users\CYMR90~1\AppData\Local\Temp\ccNmN5zT.s:29956  .debug_str:00000000000269c2 .LASF5629
C:\Users\CYMR90~1\AppData\Local\Temp\ccNmN5zT.s:641    .text.spi_format_error_clear:0000000000000000 .LFB362
C:\Users\CYMR90~1\AppData\Local\Temp\ccNmN5zT.s:665    .text.spi_format_error_clear:000000000000001a .LFE362
C:\Users\CYMR90~1\AppData\Local\Temp\ccNmN5zT.s:22875  .debug_str:000000000000a33d .LASF5630
C:\Users\CYMR90~1\AppData\Local\Temp\ccNmN5zT.s:592    .text.spi_bidirectional_transfer_config:0000000000000000 .LFB361
C:\Users\CYMR90~1\AppData\Local\Temp\ccNmN5zT.s:634    .text.spi_bidirectional_transfer_config:0000000000000040 .LFE361
C:\Users\CYMR90~1\AppData\Local\Temp\ccNmN5zT.s:20309  .debug_str:000000000000012a .LASF5631
C:\Users\CYMR90~1\AppData\Local\Temp\ccNmN5zT.s:26200  .debug_str:0000000000017aff .LASF5633
C:\Users\CYMR90~1\AppData\Local\Temp\ccNmN5zT.s:560    .text.spi_data_receive:0000000000000000 .LFB360
C:\Users\CYMR90~1\AppData\Local\Temp\ccNmN5zT.s:585    .text.spi_data_receive:000000000000001a .LFE360
C:\Users\CYMR90~1\AppData\Local\Temp\ccNmN5zT.s:26012  .debug_str:0000000000016f61 .LASF5634
C:\Users\CYMR90~1\AppData\Local\Temp\ccNmN5zT.s:526    .text.spi_data_transmit:0000000000000000 .LFB359
C:\Users\CYMR90~1\AppData\Local\Temp\ccNmN5zT.s:553    .text.spi_data_transmit:0000000000000020 .LFE359
C:\Users\CYMR90~1\AppData\Local\Temp\ccNmN5zT.s:30674  .debug_str:0000000000029858 .LASF5635
C:\Users\CYMR90~1\AppData\Local\Temp\ccNmN5zT.s:29170  .debug_str:0000000000023609 .LASF5636
C:\Users\CYMR90~1\AppData\Local\Temp\ccNmN5zT.s:482    .text.spi_data_frame_format_config:0000000000000000 .LFB358
C:\Users\CYMR90~1\AppData\Local\Temp\ccNmN5zT.s:519    .text.spi_data_frame_format_config:000000000000003a .LFE358
C:\Users\CYMR90~1\AppData\Local\Temp\ccNmN5zT.s:22749  .debug_str:0000000000009b9a .LASF5637
C:\Users\CYMR90~1\AppData\Local\Temp\ccNmN5zT.s:27330  .debug_str:000000000001c415 .LASF5638
C:\Users\CYMR90~1\AppData\Local\Temp\ccNmN5zT.s:432    .text.spi_dma_disable:0000000000000000 .LFB357
C:\Users\CYMR90~1\AppData\Local\Temp\ccNmN5zT.s:475    .text.spi_dma_disable:0000000000000040 .LFE357
C:\Users\CYMR90~1\AppData\Local\Temp\ccNmN5zT.s:31326  .debug_str:000000000002c07c .LASF5639
C:\Users\CYMR90~1\AppData\Local\Temp\ccNmN5zT.s:25217  .debug_str:0000000000013aff .LASF5640
C:\Users\CYMR90~1\AppData\Local\Temp\ccNmN5zT.s:382    .text.spi_dma_enable:0000000000000000 .LFB356
C:\Users\CYMR90~1\AppData\Local\Temp\ccNmN5zT.s:425    .text.spi_dma_enable:0000000000000044 .LFE356
C:\Users\CYMR90~1\AppData\Local\Temp\ccNmN5zT.s:28910  .debug_str:00000000000226ab .LASF5641
C:\Users\CYMR90~1\AppData\Local\Temp\ccNmN5zT.s:351    .text.spi_nss_internal_low:0000000000000000 .LFB355
C:\Users\CYMR90~1\AppData\Local\Temp\ccNmN5zT.s:375    .text.spi_nss_internal_low:000000000000001e .LFE355
C:\Users\CYMR90~1\AppData\Local\Temp\ccNmN5zT.s:22891  .debug_str:000000000000a468 .LASF5642
C:\Users\CYMR90~1\AppData\Local\Temp\ccNmN5zT.s:320    .text.spi_nss_internal_high:0000000000000000 .LFB354
C:\Users\CYMR90~1\AppData\Local\Temp\ccNmN5zT.s:344    .text.spi_nss_internal_high:000000000000001e .LFE354
C:\Users\CYMR90~1\AppData\Local\Temp\ccNmN5zT.s:21701  .debug_str:000000000000583f .LASF5643
C:\Users\CYMR90~1\AppData\Local\Temp\ccNmN5zT.s:287    .text.spi_nss_output_disable:0000000000000000 .LFB353
C:\Users\CYMR90~1\AppData\Local\Temp\ccNmN5zT.s:313    .text.spi_nss_output_disable:0000000000000020 .LFE353
C:\Users\CYMR90~1\AppData\Local\Temp\ccNmN5zT.s:29920  .debug_str:00000000000267ac .LASF5644
C:\Users\CYMR90~1\AppData\Local\Temp\ccNmN5zT.s:254    .text.spi_nss_output_enable:0000000000000000 .LFB352
C:\Users\CYMR90~1\AppData\Local\Temp\ccNmN5zT.s:280    .text.spi_nss_output_enable:0000000000000022 .LFE352
C:\Users\CYMR90~1\AppData\Local\Temp\ccNmN5zT.s:23531  .debug_str:000000000000cf33 .LASF5645
C:\Users\CYMR90~1\AppData\Local\Temp\ccNmN5zT.s:223    .text.spi_disable:0000000000000000 .LFB351
C:\Users\CYMR90~1\AppData\Local\Temp\ccNmN5zT.s:247    .text.spi_disable:000000000000001e .LFE351
C:\Users\CYMR90~1\AppData\Local\Temp\ccNmN5zT.s:26470  .debug_str:0000000000018b61 .LASF5646
C:\Users\CYMR90~1\AppData\Local\Temp\ccNmN5zT.s:192    .text.spi_enable:0000000000000000 .LFB350
C:\Users\CYMR90~1\AppData\Local\Temp\ccNmN5zT.s:216    .text.spi_enable:000000000000001e .LFE350
C:\Users\CYMR90~1\AppData\Local\Temp\ccNmN5zT.s:30614  .debug_str:0000000000029476 .LASF5647
C:\Users\CYMR90~1\AppData\Local\Temp\ccNmN5zT.s:99     .text.spi_init:0000000000000000 .LFB349
C:\Users\CYMR90~1\AppData\Local\Temp\ccNmN5zT.s:185    .text.spi_init:00000000000000aa .LFE349
C:\Users\CYMR90~1\AppData\Local\Temp\ccNmN5zT.s:24765  .debug_str:0000000000011d2f .LASF5648
C:\Users\CYMR90~1\AppData\Local\Temp\ccNmN5zT.s:22549  .debug_str:0000000000008f51 .LASF5649
C:\Users\CYMR90~1\AppData\Local\Temp\ccNmN5zT.s:52     .text.spi_struct_para_init:0000000000000000 .LFB348
C:\Users\CYMR90~1\AppData\Local\Temp\ccNmN5zT.s:92     .text.spi_struct_para_init:000000000000004a .LFE348
C:\Users\CYMR90~1\AppData\Local\Temp\ccNmN5zT.s:29830  .debug_str:000000000002625a .LASF5650
C:\Users\CYMR90~1\AppData\Local\Temp\ccNmN5zT.s:14     .text.spi_deinit:0000000000000000 .LFB347
C:\Users\CYMR90~1\AppData\Local\Temp\ccNmN5zT.s:45     .text.spi_deinit:000000000000002e .LFE347
C:\Users\CYMR90~1\AppData\Local\Temp\ccNmN5zT.s:1319   .debug_info:0000000000000000 .Ldebug_info0
C:\Users\CYMR90~1\AppData\Local\Temp\ccNmN5zT.s:3274   .debug_macro:0000000000000000 .Ldebug_macro2
C:\Users\CYMR90~1\AppData\Local\Temp\ccNmN5zT.s:23109  .debug_str:000000000000b33a .LASF314
C:\Users\CYMR90~1\AppData\Local\Temp\ccNmN5zT.s:26052  .debug_str:00000000000171c5 .LASF315
C:\Users\CYMR90~1\AppData\Local\Temp\ccNmN5zT.s:4221   .debug_macro:0000000000000000 .Ldebug_macro3
C:\Users\CYMR90~1\AppData\Local\Temp\ccNmN5zT.s:22487  .debug_str:0000000000008b24 .LASF369
C:\Users\CYMR90~1\AppData\Local\Temp\ccNmN5zT.s:22051  .debug_str:0000000000006d99 .LASF370
C:\Users\CYMR90~1\AppData\Local\Temp\ccNmN5zT.s:26294  .debug_str:0000000000018097 .LASF371
C:\Users\CYMR90~1\AppData\Local\Temp\ccNmN5zT.s:4385   .debug_macro:0000000000000000 .Ldebug_macro4
C:\Users\CYMR90~1\AppData\Local\Temp\ccNmN5zT.s:4405   .debug_macro:0000000000000000 .Ldebug_macro5
C:\Users\CYMR90~1\AppData\Local\Temp\ccNmN5zT.s:24953  .debug_str:000000000001297d .LASF390
C:\Users\CYMR90~1\AppData\Local\Temp\ccNmN5zT.s:4449   .debug_macro:0000000000000000 .Ldebug_macro6
C:\Users\CYMR90~1\AppData\Local\Temp\ccNmN5zT.s:4463   .debug_macro:0000000000000000 .Ldebug_macro7
C:\Users\CYMR90~1\AppData\Local\Temp\ccNmN5zT.s:4531   .debug_macro:0000000000000000 .Ldebug_macro8
C:\Users\CYMR90~1\AppData\Local\Temp\ccNmN5zT.s:4557   .debug_macro:0000000000000000 .Ldebug_macro9
C:\Users\CYMR90~1\AppData\Local\Temp\ccNmN5zT.s:4586   .debug_macro:0000000000000000 .Ldebug_macro10
C:\Users\CYMR90~1\AppData\Local\Temp\ccNmN5zT.s:26432  .debug_str:00000000000188eb .LASF433
C:\Users\CYMR90~1\AppData\Local\Temp\ccNmN5zT.s:4600   .debug_macro:0000000000000000 .Ldebug_macro11
C:\Users\CYMR90~1\AppData\Local\Temp\ccNmN5zT.s:4644   .debug_macro:0000000000000000 .Ldebug_macro12
C:\Users\CYMR90~1\AppData\Local\Temp\ccNmN5zT.s:4670   .debug_macro:0000000000000000 .Ldebug_macro13
C:\Users\CYMR90~1\AppData\Local\Temp\ccNmN5zT.s:20609  .debug_str:0000000000001388 .LASF569
C:\Users\CYMR90~1\AppData\Local\Temp\ccNmN5zT.s:5041   .debug_macro:0000000000000000 .Ldebug_macro14
C:\Users\CYMR90~1\AppData\Local\Temp\ccNmN5zT.s:24473  .debug_str:00000000000109d8 .LASF572
C:\Users\CYMR90~1\AppData\Local\Temp\ccNmN5zT.s:29326  .debug_str:0000000000023f56 .LASF573
C:\Users\CYMR90~1\AppData\Local\Temp\ccNmN5zT.s:5052   .debug_macro:0000000000000000 .Ldebug_macro15
C:\Users\CYMR90~1\AppData\Local\Temp\ccNmN5zT.s:5066   .debug_macro:0000000000000000 .Ldebug_macro16
C:\Users\CYMR90~1\AppData\Local\Temp\ccNmN5zT.s:22217  .debug_str:00000000000078bc .LASF578
C:\Users\CYMR90~1\AppData\Local\Temp\ccNmN5zT.s:5098   .debug_macro:0000000000000000 .Ldebug_macro17
C:\Users\CYMR90~1\AppData\Local\Temp\ccNmN5zT.s:5124   .debug_macro:0000000000000000 .Ldebug_macro18
C:\Users\CYMR90~1\AppData\Local\Temp\ccNmN5zT.s:5135   .debug_macro:0000000000000000 .Ldebug_macro19
C:\Users\CYMR90~1\AppData\Local\Temp\ccNmN5zT.s:5179   .debug_macro:0000000000000000 .Ldebug_macro20
C:\Users\CYMR90~1\AppData\Local\Temp\ccNmN5zT.s:5349   .debug_macro:0000000000000000 .Ldebug_macro21
C:\Users\CYMR90~1\AppData\Local\Temp\ccNmN5zT.s:5360   .debug_macro:0000000000000000 .Ldebug_macro22
C:\Users\CYMR90~1\AppData\Local\Temp\ccNmN5zT.s:24959  .debug_str:00000000000129d6 .LASF675
C:\Users\CYMR90~1\AppData\Local\Temp\ccNmN5zT.s:5416   .debug_macro:0000000000000000 .Ldebug_macro23
C:\Users\CYMR90~1\AppData\Local\Temp\ccNmN5zT.s:5433   .debug_macro:0000000000000000 .Ldebug_macro24
C:\Users\CYMR90~1\AppData\Local\Temp\ccNmN5zT.s:28140  .debug_str:000000000001f7ba .LASF693
C:\Users\CYMR90~1\AppData\Local\Temp\ccNmN5zT.s:26300  .debug_str:00000000000180c8 .LASF694
C:\Users\CYMR90~1\AppData\Local\Temp\ccNmN5zT.s:5477   .debug_macro:0000000000000000 .Ldebug_macro25
C:\Users\CYMR90~1\AppData\Local\Temp\ccNmN5zT.s:21509  .debug_str:0000000000004d01 .LASF700
C:\Users\CYMR90~1\AppData\Local\Temp\ccNmN5zT.s:22627  .debug_str:00000000000093b8 .LASF701
C:\Users\CYMR90~1\AppData\Local\Temp\ccNmN5zT.s:5497   .debug_macro:0000000000000000 .Ldebug_macro26
C:\Users\CYMR90~1\AppData\Local\Temp\ccNmN5zT.s:5508   .debug_macro:0000000000000000 .Ldebug_macro27
C:\Users\CYMR90~1\AppData\Local\Temp\ccNmN5zT.s:5552   .debug_macro:0000000000000000 .Ldebug_macro28
C:\Users\CYMR90~1\AppData\Local\Temp\ccNmN5zT.s:21873  .debug_str:00000000000062ba .LASF749
C:\Users\CYMR90~1\AppData\Local\Temp\ccNmN5zT.s:5653   .debug_macro:0000000000000000 .Ldebug_macro29
C:\Users\CYMR90~1\AppData\Local\Temp\ccNmN5zT.s:5670   .debug_macro:0000000000000000 .Ldebug_macro30
C:\Users\CYMR90~1\AppData\Local\Temp\ccNmN5zT.s:20361  .debug_str:0000000000000461 .LASF763
C:\Users\CYMR90~1\AppData\Local\Temp\ccNmN5zT.s:21687  .debug_str:0000000000005779 .LASF764
C:\Users\CYMR90~1\AppData\Local\Temp\ccNmN5zT.s:5702   .debug_macro:0000000000000000 .Ldebug_macro31
C:\Users\CYMR90~1\AppData\Local\Temp\ccNmN5zT.s:5716   .debug_macro:0000000000000000 .Ldebug_macro32
C:\Users\CYMR90~1\AppData\Local\Temp\ccNmN5zT.s:5886   .debug_macro:0000000000000000 .Ldebug_macro33
C:\Users\CYMR90~1\AppData\Local\Temp\ccNmN5zT.s:24139  .debug_str:000000000000f4d5 .LASF850
C:\Users\CYMR90~1\AppData\Local\Temp\ccNmN5zT.s:26518  .debug_str:0000000000018f27 .LASF851
C:\Users\CYMR90~1\AppData\Local\Temp\ccNmN5zT.s:5972   .debug_macro:0000000000000000 .Ldebug_macro34
C:\Users\CYMR90~1\AppData\Local\Temp\ccNmN5zT.s:6097   .debug_macro:0000000000000000 .Ldebug_macro35
C:\Users\CYMR90~1\AppData\Local\Temp\ccNmN5zT.s:20639  .debug_str:0000000000001508 .LASF951
C:\Users\CYMR90~1\AppData\Local\Temp\ccNmN5zT.s:6309   .debug_macro:0000000000000000 .Ldebug_macro36
C:\Users\CYMR90~1\AppData\Local\Temp\ccNmN5zT.s:22375  .debug_str:0000000000008463 .LASF957
C:\Users\CYMR90~1\AppData\Local\Temp\ccNmN5zT.s:21927  .debug_str:00000000000065f1 .LASF958
C:\Users\CYMR90~1\AppData\Local\Temp\ccNmN5zT.s:20807  .debug_str:0000000000001fe1 .LASF959
C:\Users\CYMR90~1\AppData\Local\Temp\ccNmN5zT.s:6329   .debug_macro:0000000000000000 .Ldebug_macro37
C:\Users\CYMR90~1\AppData\Local\Temp\ccNmN5zT.s:6421   .debug_macro:0000000000000000 .Ldebug_macro38
C:\Users\CYMR90~1\AppData\Local\Temp\ccNmN5zT.s:8067   .debug_macro:0000000000000000 .Ldebug_macro39
C:\Users\CYMR90~1\AppData\Local\Temp\ccNmN5zT.s:8159   .debug_macro:0000000000000000 .Ldebug_macro40
C:\Users\CYMR90~1\AppData\Local\Temp\ccNmN5zT.s:8215   .debug_macro:0000000000000000 .Ldebug_macro41
C:\Users\CYMR90~1\AppData\Local\Temp\ccNmN5zT.s:8229   .debug_macro:0000000000000000 .Ldebug_macro42
C:\Users\CYMR90~1\AppData\Local\Temp\ccNmN5zT.s:25839  .debug_str:0000000000016219 .LASF1655
C:\Users\CYMR90~1\AppData\Local\Temp\ccNmN5zT.s:22751  .debug_str:0000000000009ba7 .LASF1656
C:\Users\CYMR90~1\AppData\Local\Temp\ccNmN5zT.s:8453   .debug_macro:0000000000000000 .Ldebug_macro43
C:\Users\CYMR90~1\AppData\Local\Temp\ccNmN5zT.s:8500   .debug_macro:0000000000000000 .Ldebug_macro44
C:\Users\CYMR90~1\AppData\Local\Temp\ccNmN5zT.s:8655   .debug_macro:0000000000000000 .Ldebug_macro45
C:\Users\CYMR90~1\AppData\Local\Temp\ccNmN5zT.s:8711   .debug_macro:0000000000000000 .Ldebug_macro46
C:\Users\CYMR90~1\AppData\Local\Temp\ccNmN5zT.s:8722   .debug_macro:0000000000000000 .Ldebug_macro47
C:\Users\CYMR90~1\AppData\Local\Temp\ccNmN5zT.s:30776  .debug_str:0000000000029e44 .LASF1782
C:\Users\CYMR90~1\AppData\Local\Temp\ccNmN5zT.s:25605  .debug_str:00000000000153a3 .LASF1783
C:\Users\CYMR90~1\AppData\Local\Temp\ccNmN5zT.s:8853   .debug_macro:0000000000000000 .Ldebug_macro48
C:\Users\CYMR90~1\AppData\Local\Temp\ccNmN5zT.s:9425   .debug_macro:0000000000000000 .Ldebug_macro49
C:\Users\CYMR90~1\AppData\Local\Temp\ccNmN5zT.s:9712   .debug_macro:0000000000000000 .Ldebug_macro50
C:\Users\CYMR90~1\AppData\Local\Temp\ccNmN5zT.s:9741   .debug_macro:0000000000000000 .Ldebug_macro51
C:\Users\CYMR90~1\AppData\Local\Temp\ccNmN5zT.s:9818   .debug_macro:0000000000000000 .Ldebug_macro52
C:\Users\CYMR90~1\AppData\Local\Temp\ccNmN5zT.s:10351  .debug_macro:0000000000000000 .Ldebug_macro53
C:\Users\CYMR90~1\AppData\Local\Temp\ccNmN5zT.s:10374  .debug_macro:0000000000000000 .Ldebug_macro54
C:\Users\CYMR90~1\AppData\Local\Temp\ccNmN5zT.s:10640  .debug_macro:0000000000000000 .Ldebug_macro55
C:\Users\CYMR90~1\AppData\Local\Temp\ccNmN5zT.s:11119  .debug_macro:0000000000000000 .Ldebug_macro56
C:\Users\CYMR90~1\AppData\Local\Temp\ccNmN5zT.s:11448  .debug_macro:0000000000000000 .Ldebug_macro57
C:\Users\CYMR90~1\AppData\Local\Temp\ccNmN5zT.s:11537  .debug_macro:0000000000000000 .Ldebug_macro58
C:\Users\CYMR90~1\AppData\Local\Temp\ccNmN5zT.s:12352  .debug_macro:0000000000000000 .Ldebug_macro59
C:\Users\CYMR90~1\AppData\Local\Temp\ccNmN5zT.s:12543  .debug_macro:0000000000000000 .Ldebug_macro60
C:\Users\CYMR90~1\AppData\Local\Temp\ccNmN5zT.s:13046  .debug_macro:0000000000000000 .Ldebug_macro61
C:\Users\CYMR90~1\AppData\Local\Temp\ccNmN5zT.s:13192  .debug_macro:0000000000000000 .Ldebug_macro62
C:\Users\CYMR90~1\AppData\Local\Temp\ccNmN5zT.s:13722  .debug_macro:0000000000000000 .Ldebug_macro63
C:\Users\CYMR90~1\AppData\Local\Temp\ccNmN5zT.s:14144  .debug_macro:0000000000000000 .Ldebug_macro64
C:\Users\CYMR90~1\AppData\Local\Temp\ccNmN5zT.s:16918  .debug_macro:0000000000000000 .Ldebug_macro65
C:\Users\CYMR90~1\AppData\Local\Temp\ccNmN5zT.s:17994  .debug_macro:0000000000000000 .Ldebug_macro66
C:\Users\CYMR90~1\AppData\Local\Temp\ccNmN5zT.s:18266  .debug_macro:0000000000000000 .Ldebug_macro67
C:\Users\CYMR90~1\AppData\Local\Temp\ccNmN5zT.s:19294  .debug_macro:0000000000000000 .Ldebug_macro68
C:\Users\CYMR90~1\AppData\Local\Temp\ccNmN5zT.s:19338  .debug_macro:0000000000000000 .Ldebug_macro69
C:\Users\CYMR90~1\AppData\Local\Temp\ccNmN5zT.s:19964  .debug_macro:0000000000000000 .Ldebug_macro70
C:\Users\CYMR90~1\AppData\Local\Temp\ccNmN5zT.s:20023  .debug_macro:0000000000000000 .Ldebug_macro71
C:\Users\CYMR90~1\AppData\Local\Temp\ccNmN5zT.s:24671  .debug_str:0000000000011671 .LASF5556
C:\Users\CYMR90~1\AppData\Local\Temp\ccNmN5zT.s:21669  .debug_str:0000000000005676 .LASF0
C:\Users\CYMR90~1\AppData\Local\Temp\ccNmN5zT.s:26036  .debug_str:00000000000170de .LASF1
C:\Users\CYMR90~1\AppData\Local\Temp\ccNmN5zT.s:24305  .debug_str:000000000000ff8a .LASF2
C:\Users\CYMR90~1\AppData\Local\Temp\ccNmN5zT.s:24363  .debug_str:000000000001030a .LASF3
C:\Users\CYMR90~1\AppData\Local\Temp\ccNmN5zT.s:25649  .debug_str:00000000000155dd .LASF4
C:\Users\CYMR90~1\AppData\Local\Temp\ccNmN5zT.s:31174  .debug_str:000000000002b668 .LASF5
C:\Users\CYMR90~1\AppData\Local\Temp\ccNmN5zT.s:21899  .debug_str:0000000000006462 .LASF6
C:\Users\CYMR90~1\AppData\Local\Temp\ccNmN5zT.s:30488  .debug_str:0000000000028d03 .LASF7
C:\Users\CYMR90~1\AppData\Local\Temp\ccNmN5zT.s:29440  .debug_str:000000000002474c .LASF8
C:\Users\CYMR90~1\AppData\Local\Temp\ccNmN5zT.s:27364  .debug_str:000000000001c5d2 .LASF9
C:\Users\CYMR90~1\AppData\Local\Temp\ccNmN5zT.s:26718  .debug_str:0000000000019cd3 .LASF10
C:\Users\CYMR90~1\AppData\Local\Temp\ccNmN5zT.s:26574  .debug_str:000000000001932a .LASF11
C:\Users\CYMR90~1\AppData\Local\Temp\ccNmN5zT.s:31016  .debug_str:000000000002ac51 .LASF12
C:\Users\CYMR90~1\AppData\Local\Temp\ccNmN5zT.s:26586  .debug_str:00000000000193de .LASF13
C:\Users\CYMR90~1\AppData\Local\Temp\ccNmN5zT.s:22909  .debug_str:000000000000a567 .LASF14
C:\Users\CYMR90~1\AppData\Local\Temp\ccNmN5zT.s:27938  .debug_str:000000000001eb9c .LASF15
C:\Users\CYMR90~1\AppData\Local\Temp\ccNmN5zT.s:28682  .debug_str:000000000002195d .LASF16
C:\Users\CYMR90~1\AppData\Local\Temp\ccNmN5zT.s:22955  .debug_str:000000000000a833 .LASF17
C:\Users\CYMR90~1\AppData\Local\Temp\ccNmN5zT.s:29722  .debug_str:0000000000025b6f .LASF18
C:\Users\CYMR90~1\AppData\Local\Temp\ccNmN5zT.s:23915  .debug_str:000000000000e772 .LASF19
C:\Users\CYMR90~1\AppData\Local\Temp\ccNmN5zT.s:20975  .debug_str:00000000000029e7 .LASF20
C:\Users\CYMR90~1\AppData\Local\Temp\ccNmN5zT.s:26384  .debug_str:0000000000018626 .LASF21
C:\Users\CYMR90~1\AppData\Local\Temp\ccNmN5zT.s:26382  .debug_str:000000000001860c .LASF22
C:\Users\CYMR90~1\AppData\Local\Temp\ccNmN5zT.s:28996  .debug_str:0000000000022c54 .LASF23
C:\Users\CYMR90~1\AppData\Local\Temp\ccNmN5zT.s:27314  .debug_str:000000000001c320 .LASF24
C:\Users\CYMR90~1\AppData\Local\Temp\ccNmN5zT.s:21207  .debug_str:00000000000038bb .LASF25
C:\Users\CYMR90~1\AppData\Local\Temp\ccNmN5zT.s:25775  .debug_str:0000000000015db8 .LASF26
C:\Users\CYMR90~1\AppData\Local\Temp\ccNmN5zT.s:29000  .debug_str:0000000000022c80 .LASF27
C:\Users\CYMR90~1\AppData\Local\Temp\ccNmN5zT.s:28690  .debug_str:00000000000219ba .LASF28
C:\Users\CYMR90~1\AppData\Local\Temp\ccNmN5zT.s:21621  .debug_str:00000000000053a4 .LASF29
C:\Users\CYMR90~1\AppData\Local\Temp\ccNmN5zT.s:27720  .debug_str:000000000001de6c .LASF30
C:\Users\CYMR90~1\AppData\Local\Temp\ccNmN5zT.s:20587  .debug_str:0000000000001262 .LASF31
C:\Users\CYMR90~1\AppData\Local\Temp\ccNmN5zT.s:28174  .debug_str:000000000001f9a9 .LASF32
C:\Users\CYMR90~1\AppData\Local\Temp\ccNmN5zT.s:22791  .debug_str:0000000000009df4 .LASF33
C:\Users\CYMR90~1\AppData\Local\Temp\ccNmN5zT.s:22643  .debug_str:00000000000094a3 .LASF34
C:\Users\CYMR90~1\AppData\Local\Temp\ccNmN5zT.s:23947  .debug_str:000000000000e956 .LASF35
C:\Users\CYMR90~1\AppData\Local\Temp\ccNmN5zT.s:26830  .debug_str:000000000001a346 .LASF36
C:\Users\CYMR90~1\AppData\Local\Temp\ccNmN5zT.s:22143  .debug_str:0000000000007448 .LASF37
C:\Users\CYMR90~1\AppData\Local\Temp\ccNmN5zT.s:24303  .debug_str:000000000000ff67 .LASF38
C:\Users\CYMR90~1\AppData\Local\Temp\ccNmN5zT.s:21169  .debug_str:000000000000363e .LASF39
C:\Users\CYMR90~1\AppData\Local\Temp\ccNmN5zT.s:20967  .debug_str:0000000000002955 .LASF40
C:\Users\CYMR90~1\AppData\Local\Temp\ccNmN5zT.s:24463  .debug_str:000000000001094b .LASF41
C:\Users\CYMR90~1\AppData\Local\Temp\ccNmN5zT.s:24891  .debug_str:0000000000012554 .LASF42
C:\Users\CYMR90~1\AppData\Local\Temp\ccNmN5zT.s:25153  .debug_str:000000000001373a .LASF43
C:\Users\CYMR90~1\AppData\Local\Temp\ccNmN5zT.s:26820  .debug_str:000000000001a2b4 .LASF44
C:\Users\CYMR90~1\AppData\Local\Temp\ccNmN5zT.s:24751  .debug_str:0000000000011c80 .LASF45
C:\Users\CYMR90~1\AppData\Local\Temp\ccNmN5zT.s:21445  .debug_str:0000000000004880 .LASF46
C:\Users\CYMR90~1\AppData\Local\Temp\ccNmN5zT.s:27726  .debug_str:000000000001ded1 .LASF47
C:\Users\CYMR90~1\AppData\Local\Temp\ccNmN5zT.s:29442  .debug_str:0000000000024761 .LASF48
C:\Users\CYMR90~1\AppData\Local\Temp\ccNmN5zT.s:23693  .debug_str:000000000000d9cf .LASF49
C:\Users\CYMR90~1\AppData\Local\Temp\ccNmN5zT.s:20803  .debug_str:0000000000001fae .LASF50
C:\Users\CYMR90~1\AppData\Local\Temp\ccNmN5zT.s:20311  .debug_str:000000000000013d .LASF51
C:\Users\CYMR90~1\AppData\Local\Temp\ccNmN5zT.s:30788  .debug_str:0000000000029ed9 .LASF52
C:\Users\CYMR90~1\AppData\Local\Temp\ccNmN5zT.s:23507  .debug_str:000000000000cdde .LASF53
C:\Users\CYMR90~1\AppData\Local\Temp\ccNmN5zT.s:25231  .debug_str:0000000000013bd4 .LASF54
C:\Users\CYMR90~1\AppData\Local\Temp\ccNmN5zT.s:24267  .debug_str:000000000000fd1c .LASF55
C:\Users\CYMR90~1\AppData\Local\Temp\ccNmN5zT.s:22229  .debug_str:000000000000797a .LASF56
C:\Users\CYMR90~1\AppData\Local\Temp\ccNmN5zT.s:25627  .debug_str:00000000000154b2 .LASF57
C:\Users\CYMR90~1\AppData\Local\Temp\ccNmN5zT.s:20541  .debug_str:0000000000000fc9 .LASF58
C:\Users\CYMR90~1\AppData\Local\Temp\ccNmN5zT.s:29726  .debug_str:0000000000025baf .LASF59
C:\Users\CYMR90~1\AppData\Local\Temp\ccNmN5zT.s:25161  .debug_str:0000000000013795 .LASF60
C:\Users\CYMR90~1\AppData\Local\Temp\ccNmN5zT.s:27100  .debug_str:000000000001b612 .LASF61
C:\Users\CYMR90~1\AppData\Local\Temp\ccNmN5zT.s:21035  .debug_str:0000000000002dc2 .LASF62
C:\Users\CYMR90~1\AppData\Local\Temp\ccNmN5zT.s:23687  .debug_str:000000000000d98b .LASF63
C:\Users\CYMR90~1\AppData\Local\Temp\ccNmN5zT.s:23419  .debug_str:000000000000c7bd .LASF64
C:\Users\CYMR90~1\AppData\Local\Temp\ccNmN5zT.s:26806  .debug_str:000000000001a1eb .LASF65
C:\Users\CYMR90~1\AppData\Local\Temp\ccNmN5zT.s:25463  .debug_str:0000000000014a10 .LASF66
C:\Users\CYMR90~1\AppData\Local\Temp\ccNmN5zT.s:30562  .debug_str:000000000002918d .LASF67
C:\Users\CYMR90~1\AppData\Local\Temp\ccNmN5zT.s:31018  .debug_str:000000000002ac64 .LASF68
C:\Users\CYMR90~1\AppData\Local\Temp\ccNmN5zT.s:24705  .debug_str:0000000000011943 .LASF69
C:\Users\CYMR90~1\AppData\Local\Temp\ccNmN5zT.s:23843  .debug_str:000000000000e2ee .LASF70
C:\Users\CYMR90~1\AppData\Local\Temp\ccNmN5zT.s:21457  .debug_str:00000000000049d3 .LASF71
C:\Users\CYMR90~1\AppData\Local\Temp\ccNmN5zT.s:24739  .debug_str:0000000000011bbd .LASF72
C:\Users\CYMR90~1\AppData\Local\Temp\ccNmN5zT.s:24371  .debug_str:000000000001037b .LASF73
C:\Users\CYMR90~1\AppData\Local\Temp\ccNmN5zT.s:24971  .debug_str:0000000000012ac7 .LASF74
C:\Users\CYMR90~1\AppData\Local\Temp\ccNmN5zT.s:24811  .debug_str:0000000000012036 .LASF75
C:\Users\CYMR90~1\AppData\Local\Temp\ccNmN5zT.s:24911  .debug_str:00000000000126b2 .LASF76
C:\Users\CYMR90~1\AppData\Local\Temp\ccNmN5zT.s:29358  .debug_str:00000000000241d0 .LASF77
C:\Users\CYMR90~1\AppData\Local\Temp\ccNmN5zT.s:27288  .debug_str:000000000001c18b .LASF78
C:\Users\CYMR90~1\AppData\Local\Temp\ccNmN5zT.s:27690  .debug_str:000000000001dc26 .LASF79
C:\Users\CYMR90~1\AppData\Local\Temp\ccNmN5zT.s:30542  .debug_str:000000000002903e .LASF80
C:\Users\CYMR90~1\AppData\Local\Temp\ccNmN5zT.s:22743  .debug_str:0000000000009b26 .LASF81
C:\Users\CYMR90~1\AppData\Local\Temp\ccNmN5zT.s:22941  .debug_str:000000000000a6ff .LASF82
C:\Users\CYMR90~1\AppData\Local\Temp\ccNmN5zT.s:30682  .debug_str:00000000000298d4 .LASF83
C:\Users\CYMR90~1\AppData\Local\Temp\ccNmN5zT.s:22683  .debug_str:0000000000009745 .LASF84
C:\Users\CYMR90~1\AppData\Local\Temp\ccNmN5zT.s:21963  .debug_str:00000000000067e4 .LASF85
C:\Users\CYMR90~1\AppData\Local\Temp\ccNmN5zT.s:27008  .debug_str:000000000001b028 .LASF86
C:\Users\CYMR90~1\AppData\Local\Temp\ccNmN5zT.s:30710  .debug_str:0000000000029a38 .LASF87
C:\Users\CYMR90~1\AppData\Local\Temp\ccNmN5zT.s:28116  .debug_str:000000000001f645 .LASF88
C:\Users\CYMR90~1\AppData\Local\Temp\ccNmN5zT.s:26924  .debug_str:000000000001aad1 .LASF89
C:\Users\CYMR90~1\AppData\Local\Temp\ccNmN5zT.s:28144  .debug_str:000000000001f7ed .LASF90
C:\Users\CYMR90~1\AppData\Local\Temp\ccNmN5zT.s:30922  .debug_str:000000000002a6c8 .LASF91
C:\Users\CYMR90~1\AppData\Local\Temp\ccNmN5zT.s:29734  .debug_str:0000000000025c27 .LASF92
C:\Users\CYMR90~1\AppData\Local\Temp\ccNmN5zT.s:22819  .debug_str:0000000000009fcd .LASF93
C:\Users\CYMR90~1\AppData\Local\Temp\ccNmN5zT.s:27568  .debug_str:000000000001d44e .LASF94
C:\Users\CYMR90~1\AppData\Local\Temp\ccNmN5zT.s:25191  .debug_str:000000000001396f .LASF95
C:\Users\CYMR90~1\AppData\Local\Temp\ccNmN5zT.s:25173  .debug_str:000000000001385e .LASF96
C:\Users\CYMR90~1\AppData\Local\Temp\ccNmN5zT.s:31222  .debug_str:000000000002b98f .LASF97
C:\Users\CYMR90~1\AppData\Local\Temp\ccNmN5zT.s:24825  .debug_str:0000000000012139 .LASF98
C:\Users\CYMR90~1\AppData\Local\Temp\ccNmN5zT.s:28708  .debug_str:0000000000021ae1 .LASF99
C:\Users\CYMR90~1\AppData\Local\Temp\ccNmN5zT.s:22177  .debug_str:0000000000007645 .LASF100
C:\Users\CYMR90~1\AppData\Local\Temp\ccNmN5zT.s:24317  .debug_str:0000000000010015 .LASF101
C:\Users\CYMR90~1\AppData\Local\Temp\ccNmN5zT.s:25691  .debug_str:0000000000015834 .LASF102
C:\Users\CYMR90~1\AppData\Local\Temp\ccNmN5zT.s:24591  .debug_str:0000000000011157 .LASF103
C:\Users\CYMR90~1\AppData\Local\Temp\ccNmN5zT.s:23603  .debug_str:000000000000d3fa .LASF104
C:\Users\CYMR90~1\AppData\Local\Temp\ccNmN5zT.s:24761  .debug_str:0000000000011d17 .LASF105
C:\Users\CYMR90~1\AppData\Local\Temp\ccNmN5zT.s:27388  .debug_str:000000000001c774 .LASF106
C:\Users\CYMR90~1\AppData\Local\Temp\ccNmN5zT.s:24585  .debug_str:00000000000110f2 .LASF107
C:\Users\CYMR90~1\AppData\Local\Temp\ccNmN5zT.s:23599  .debug_str:000000000000d3d6 .LASF108
C:\Users\CYMR90~1\AppData\Local\Temp\ccNmN5zT.s:25025  .debug_str:0000000000012e30 .LASF109
C:\Users\CYMR90~1\AppData\Local\Temp\ccNmN5zT.s:23973  .debug_str:000000000000eb10 .LASF110
C:\Users\CYMR90~1\AppData\Local\Temp\ccNmN5zT.s:26438  .debug_str:0000000000018947 .LASF111
C:\Users\CYMR90~1\AppData\Local\Temp\ccNmN5zT.s:23077  .debug_str:000000000000b14e .LASF112
C:\Users\CYMR90~1\AppData\Local\Temp\ccNmN5zT.s:22817  .debug_str:0000000000009fa4 .LASF113
C:\Users\CYMR90~1\AppData\Local\Temp\ccNmN5zT.s:25725  .debug_str:0000000000015a59 .LASF114
C:\Users\CYMR90~1\AppData\Local\Temp\ccNmN5zT.s:30604  .debug_str:00000000000293d0 .LASF115
C:\Users\CYMR90~1\AppData\Local\Temp\ccNmN5zT.s:29246  .debug_str:0000000000023ae9 .LASF116
C:\Users\CYMR90~1\AppData\Local\Temp\ccNmN5zT.s:22577  .debug_str:00000000000090d0 .LASF117
C:\Users\CYMR90~1\AppData\Local\Temp\ccNmN5zT.s:27158  .debug_str:000000000001b989 .LASF118
C:\Users\CYMR90~1\AppData\Local\Temp\ccNmN5zT.s:31334  .debug_str:000000000002c0e8 .LASF119
C:\Users\CYMR90~1\AppData\Local\Temp\ccNmN5zT.s:23889  .debug_str:000000000000e587 .LASF120
C:\Users\CYMR90~1\AppData\Local\Temp\ccNmN5zT.s:29342  .debug_str:0000000000024025 .LASF121
C:\Users\CYMR90~1\AppData\Local\Temp\ccNmN5zT.s:23381  .debug_str:000000000000c566 .LASF122
C:\Users\CYMR90~1\AppData\Local\Temp\ccNmN5zT.s:23491  .debug_str:000000000000ccf0 .LASF123
C:\Users\CYMR90~1\AppData\Local\Temp\ccNmN5zT.s:21139  .debug_str:0000000000003475 .LASF124
C:\Users\CYMR90~1\AppData\Local\Temp\ccNmN5zT.s:21421  .debug_str:00000000000046ca .LASF125
C:\Users\CYMR90~1\AppData\Local\Temp\ccNmN5zT.s:30278  .debug_str:0000000000027e6a .LASF126
C:\Users\CYMR90~1\AppData\Local\Temp\ccNmN5zT.s:24767  .debug_str:0000000000011d3a .LASF127
C:\Users\CYMR90~1\AppData\Local\Temp\ccNmN5zT.s:27544  .debug_str:000000000001d2f0 .LASF128
C:\Users\CYMR90~1\AppData\Local\Temp\ccNmN5zT.s:22651  .debug_str:000000000000951b .LASF129
C:\Users\CYMR90~1\AppData\Local\Temp\ccNmN5zT.s:29850  .debug_str:0000000000026352 .LASF130
C:\Users\CYMR90~1\AppData\Local\Temp\ccNmN5zT.s:30160  .debug_str:00000000000276dc .LASF131
C:\Users\CYMR90~1\AppData\Local\Temp\ccNmN5zT.s:29966  .debug_str:0000000000026a4e .LASF132
C:\Users\CYMR90~1\AppData\Local\Temp\ccNmN5zT.s:23865  .debug_str:000000000000e421 .LASF133
C:\Users\CYMR90~1\AppData\Local\Temp\ccNmN5zT.s:29262  .debug_str:0000000000023bcd .LASF134
C:\Users\CYMR90~1\AppData\Local\Temp\ccNmN5zT.s:21413  .debug_str:000000000000464b .LASF135
C:\Users\CYMR90~1\AppData\Local\Temp\ccNmN5zT.s:22277  .debug_str:0000000000007c93 .LASF136
C:\Users\CYMR90~1\AppData\Local\Temp\ccNmN5zT.s:31010  .debug_str:000000000002ac0f .LASF137
C:\Users\CYMR90~1\AppData\Local\Temp\ccNmN5zT.s:29100  .debug_str:00000000000231cb .LASF138
C:\Users\CYMR90~1\AppData\Local\Temp\ccNmN5zT.s:30486  .debug_str:0000000000028cf3 .LASF139
C:\Users\CYMR90~1\AppData\Local\Temp\ccNmN5zT.s:29618  .debug_str:00000000000253f6 .LASF140
C:\Users\CYMR90~1\AppData\Local\Temp\ccNmN5zT.s:27246  .debug_str:000000000001bee1 .LASF141
C:\Users\CYMR90~1\AppData\Local\Temp\ccNmN5zT.s:22781  .debug_str:0000000000009d53 .LASF142
C:\Users\CYMR90~1\AppData\Local\Temp\ccNmN5zT.s:31082  .debug_str:000000000002b034 .LASF143
C:\Users\CYMR90~1\AppData\Local\Temp\ccNmN5zT.s:26408  .debug_str:000000000001878d .LASF144
C:\Users\CYMR90~1\AppData\Local\Temp\ccNmN5zT.s:25475  .debug_str:0000000000014af5 .LASF145
C:\Users\CYMR90~1\AppData\Local\Temp\ccNmN5zT.s:23453  .debug_str:000000000000ca99 .LASF146
C:\Users\CYMR90~1\AppData\Local\Temp\ccNmN5zT.s:21455  .debug_str:00000000000049bc .LASF147
C:\Users\CYMR90~1\AppData\Local\Temp\ccNmN5zT.s:24015  .debug_str:000000000000ed92 .LASF148
C:\Users\CYMR90~1\AppData\Local\Temp\ccNmN5zT.s:26386  .debug_str:000000000001863a .LASF149
C:\Users\CYMR90~1\AppData\Local\Temp\ccNmN5zT.s:20389  .debug_str:00000000000005f9 .LASF150
C:\Users\CYMR90~1\AppData\Local\Temp\ccNmN5zT.s:28692  .debug_str:00000000000219d4 .LASF151
C:\Users\CYMR90~1\AppData\Local\Temp\ccNmN5zT.s:25015  .debug_str:0000000000012d7c .LASF152
C:\Users\CYMR90~1\AppData\Local\Temp\ccNmN5zT.s:29624  .debug_str:0000000000025449 .LASF153
C:\Users\CYMR90~1\AppData\Local\Temp\ccNmN5zT.s:27448  .debug_str:000000000001cba5 .LASF154
C:\Users\CYMR90~1\AppData\Local\Temp\ccNmN5zT.s:24425  .debug_str:0000000000010721 .LASF155
C:\Users\CYMR90~1\AppData\Local\Temp\ccNmN5zT.s:27460  .debug_str:000000000001cc84 .LASF156
C:\Users\CYMR90~1\AppData\Local\Temp\ccNmN5zT.s:27574  .debug_str:000000000001d4b6 .LASF157
C:\Users\CYMR90~1\AppData\Local\Temp\ccNmN5zT.s:23309  .debug_str:000000000000c0df .LASF158
C:\Users\CYMR90~1\AppData\Local\Temp\ccNmN5zT.s:22379  .debug_str:0000000000008485 .LASF159
C:\Users\CYMR90~1\AppData\Local\Temp\ccNmN5zT.s:27106  .debug_str:000000000001b666 .LASF160
C:\Users\CYMR90~1\AppData\Local\Temp\ccNmN5zT.s:28518  .debug_str:0000000000020f1a .LASF161
C:\Users\CYMR90~1\AppData\Local\Temp\ccNmN5zT.s:26710  .debug_str:0000000000019c41 .LASF162
C:\Users\CYMR90~1\AppData\Local\Temp\ccNmN5zT.s:29254  .debug_str:0000000000023b5b .LASF163
C:\Users\CYMR90~1\AppData\Local\Temp\ccNmN5zT.s:30908  .debug_str:000000000002a5fa .LASF164
C:\Users\CYMR90~1\AppData\Local\Temp\ccNmN5zT.s:22133  .debug_str:00000000000073c4 .LASF165
C:\Users\CYMR90~1\AppData\Local\Temp\ccNmN5zT.s:30592  .debug_str:0000000000029341 .LASF166
C:\Users\CYMR90~1\AppData\Local\Temp\ccNmN5zT.s:30410  .debug_str:0000000000028848 .LASF167
C:\Users\CYMR90~1\AppData\Local\Temp\ccNmN5zT.s:29172  .debug_str:0000000000023626 .LASF168
C:\Users\CYMR90~1\AppData\Local\Temp\ccNmN5zT.s:26172  .debug_str:00000000000178fe .LASF169
C:\Users\CYMR90~1\AppData\Local\Temp\ccNmN5zT.s:30028  .debug_str:0000000000026e0a .LASF170
C:\Users\CYMR90~1\AppData\Local\Temp\ccNmN5zT.s:25801  .debug_str:0000000000015f55 .LASF171
C:\Users\CYMR90~1\AppData\Local\Temp\ccNmN5zT.s:27370  .debug_str:000000000001c631 .LASF172
C:\Users\CYMR90~1\AppData\Local\Temp\ccNmN5zT.s:22773  .debug_str:0000000000009cdf .LASF173
C:\Users\CYMR90~1\AppData\Local\Temp\ccNmN5zT.s:29062  .debug_str:0000000000022ff6 .LASF174
C:\Users\CYMR90~1\AppData\Local\Temp\ccNmN5zT.s:21795  .debug_str:0000000000005e02 .LASF175
C:\Users\CYMR90~1\AppData\Local\Temp\ccNmN5zT.s:22619  .debug_str:000000000000934f .LASF176
C:\Users\CYMR90~1\AppData\Local\Temp\ccNmN5zT.s:21287  .debug_str:0000000000003dc8 .LASF177
C:\Users\CYMR90~1\AppData\Local\Temp\ccNmN5zT.s:26582  .debug_str:000000000001939c .LASF178
C:\Users\CYMR90~1\AppData\Local\Temp\ccNmN5zT.s:23545  .debug_str:000000000000d04b .LASF179
C:\Users\CYMR90~1\AppData\Local\Temp\ccNmN5zT.s:20797  .debug_str:0000000000001f42 .LASF180
C:\Users\CYMR90~1\AppData\Local\Temp\ccNmN5zT.s:31218  .debug_str:000000000002b964 .LASF181
C:\Users\CYMR90~1\AppData\Local\Temp\ccNmN5zT.s:20571  .debug_str:0000000000001191 .LASF182
C:\Users\CYMR90~1\AppData\Local\Temp\ccNmN5zT.s:25131  .debug_str:00000000000135af .LASF183
C:\Users\CYMR90~1\AppData\Local\Temp\ccNmN5zT.s:25539  .debug_str:0000000000014f2c .LASF184
C:\Users\CYMR90~1\AppData\Local\Temp\ccNmN5zT.s:30420  .debug_str:00000000000288f7 .LASF185
C:\Users\CYMR90~1\AppData\Local\Temp\ccNmN5zT.s:23643  .debug_str:000000000000d728 .LASF186
C:\Users\CYMR90~1\AppData\Local\Temp\ccNmN5zT.s:22117  .debug_str:0000000000007263 .LASF187
C:\Users\CYMR90~1\AppData\Local\Temp\ccNmN5zT.s:28094  .debug_str:000000000001f52b .LASF188
C:\Users\CYMR90~1\AppData\Local\Temp\ccNmN5zT.s:23909  .debug_str:000000000000e718 .LASF189
C:\Users\CYMR90~1\AppData\Local\Temp\ccNmN5zT.s:25237  .debug_str:0000000000013c33 .LASF190
C:\Users\CYMR90~1\AppData\Local\Temp\ccNmN5zT.s:28576  .debug_str:000000000002124f .LASF191
C:\Users\CYMR90~1\AppData\Local\Temp\ccNmN5zT.s:25961  .debug_str:0000000000016a24 .LASF192
C:\Users\CYMR90~1\AppData\Local\Temp\ccNmN5zT.s:28810  .debug_str:0000000000022109 .LASF193
C:\Users\CYMR90~1\AppData\Local\Temp\ccNmN5zT.s:21749  .debug_str:0000000000005b59 .LASF194
C:\Users\CYMR90~1\AppData\Local\Temp\ccNmN5zT.s:21109  .debug_str:0000000000003269 .LASF195
C:\Users\CYMR90~1\AppData\Local\Temp\ccNmN5zT.s:23739  .debug_str:000000000000dc6d .LASF196
C:\Users\CYMR90~1\AppData\Local\Temp\ccNmN5zT.s:24647  .debug_str:00000000000114e0 .LASF197
C:\Users\CYMR90~1\AppData\Local\Temp\ccNmN5zT.s:21605  .debug_str:0000000000005299 .LASF198
C:\Users\CYMR90~1\AppData\Local\Temp\ccNmN5zT.s:30310  .debug_str:00000000000280b1 .LASF199
C:\Users\CYMR90~1\AppData\Local\Temp\ccNmN5zT.s:28460  .debug_str:0000000000020b9b .LASF200
C:\Users\CYMR90~1\AppData\Local\Temp\ccNmN5zT.s:27582  .debug_str:000000000001d514 .LASF201
C:\Users\CYMR90~1\AppData\Local\Temp\ccNmN5zT.s:22747  .debug_str:0000000000009b59 .LASF202
C:\Users\CYMR90~1\AppData\Local\Temp\ccNmN5zT.s:30768  .debug_str:0000000000029db3 .LASF203
C:\Users\CYMR90~1\AppData\Local\Temp\ccNmN5zT.s:21121  .debug_str:000000000000333a .LASF204
C:\Users\CYMR90~1\AppData\Local\Temp\ccNmN5zT.s:24145  .debug_str:000000000000f52f .LASF205
C:\Users\CYMR90~1\AppData\Local\Temp\ccNmN5zT.s:30496  .debug_str:0000000000028d64 .LASF206
C:\Users\CYMR90~1\AppData\Local\Temp\ccNmN5zT.s:25355  .debug_str:0000000000014396 .LASF207
C:\Users\CYMR90~1\AppData\Local\Temp\ccNmN5zT.s:28132  .debug_str:000000000001f74b .LASF208
C:\Users\CYMR90~1\AppData\Local\Temp\ccNmN5zT.s:23375  .debug_str:000000000000c515 .LASF209
C:\Users\CYMR90~1\AppData\Local\Temp\ccNmN5zT.s:31432  .debug_str:000000000002c712 .LASF210
C:\Users\CYMR90~1\AppData\Local\Temp\ccNmN5zT.s:25327  .debug_str:00000000000141ee .LASF211
C:\Users\CYMR90~1\AppData\Local\Temp\ccNmN5zT.s:27976  .debug_str:000000000001edb9 .LASF212
C:\Users\CYMR90~1\AppData\Local\Temp\ccNmN5zT.s:26602  .debug_str:00000000000194ca .LASF213
C:\Users\CYMR90~1\AppData\Local\Temp\ccNmN5zT.s:21835  .debug_str:000000000000604e .LASF214
C:\Users\CYMR90~1\AppData\Local\Temp\ccNmN5zT.s:25335  .debug_str:000000000001425e .LASF215
C:\Users\CYMR90~1\AppData\Local\Temp\ccNmN5zT.s:27284  .debug_str:000000000001c13b .LASF216
C:\Users\CYMR90~1\AppData\Local\Temp\ccNmN5zT.s:28242  .debug_str:000000000001fde1 .LASF217
C:\Users\CYMR90~1\AppData\Local\Temp\ccNmN5zT.s:24219  .debug_str:000000000000fa16 .LASF218
C:\Users\CYMR90~1\AppData\Local\Temp\ccNmN5zT.s:29626  .debug_str:0000000000025485 .LASF219
C:\Users\CYMR90~1\AppData\Local\Temp\ccNmN5zT.s:29434  .debug_str:00000000000246e8 .LASF220
C:\Users\CYMR90~1\AppData\Local\Temp\ccNmN5zT.s:28956  .debug_str:0000000000022988 .LASF221
C:\Users\CYMR90~1\AppData\Local\Temp\ccNmN5zT.s:25613  .debug_str:0000000000015401 .LASF222
C:\Users\CYMR90~1\AppData\Local\Temp\ccNmN5zT.s:21805  .debug_str:0000000000005e84 .LASF223
C:\Users\CYMR90~1\AppData\Local\Temp\ccNmN5zT.s:22479  .debug_str:0000000000008a9b .LASF224
C:\Users\CYMR90~1\AppData\Local\Temp\ccNmN5zT.s:31092  .debug_str:000000000002b0b8 .LASF225
C:\Users\CYMR90~1\AppData\Local\Temp\ccNmN5zT.s:23807  .debug_str:000000000000e0d5 .LASF226
C:\Users\CYMR90~1\AppData\Local\Temp\ccNmN5zT.s:27444  .debug_str:000000000001cb77 .LASF227
C:\Users\CYMR90~1\AppData\Local\Temp\ccNmN5zT.s:27294  .debug_str:000000000001c1e1 .LASF228
C:\Users\CYMR90~1\AppData\Local\Temp\ccNmN5zT.s:23753  .debug_str:000000000000dd4a .LASF229
C:\Users\CYMR90~1\AppData\Local\Temp\ccNmN5zT.s:28016  .debug_str:000000000001f024 .LASF230
C:\Users\CYMR90~1\AppData\Local\Temp\ccNmN5zT.s:22533  .debug_str:0000000000008e25 .LASF231
C:\Users\CYMR90~1\AppData\Local\Temp\ccNmN5zT.s:21847  .debug_str:0000000000006123 .LASF232
C:\Users\CYMR90~1\AppData\Local\Temp\ccNmN5zT.s:22431  .debug_str:0000000000008771 .LASF233
C:\Users\CYMR90~1\AppData\Local\Temp\ccNmN5zT.s:24417  .debug_str:000000000001060c .LASF234
C:\Users\CYMR90~1\AppData\Local\Temp\ccNmN5zT.s:24141  .debug_str:000000000000f4e7 .LASF235
C:\Users\CYMR90~1\AppData\Local\Temp\ccNmN5zT.s:29180  .debug_str:00000000000236d2 .LASF236
C:\Users\CYMR90~1\AppData\Local\Temp\ccNmN5zT.s:24163  .debug_str:000000000000f638 .LASF237
C:\Users\CYMR90~1\AppData\Local\Temp\ccNmN5zT.s:29846  .debug_str:0000000000026316 .LASF238
C:\Users\CYMR90~1\AppData\Local\Temp\ccNmN5zT.s:29162  .debug_str:000000000002358a .LASF239
C:\Users\CYMR90~1\AppData\Local\Temp\ccNmN5zT.s:29400  .debug_str:00000000000244d8 .LASF240
C:\Users\CYMR90~1\AppData\Local\Temp\ccNmN5zT.s:22243  .debug_str:0000000000007a90 .LASF241
C:\Users\CYMR90~1\AppData\Local\Temp\ccNmN5zT.s:23829  .debug_str:000000000000e20d .LASF242
C:\Users\CYMR90~1\AppData\Local\Temp\ccNmN5zT.s:24807  .debug_str:0000000000011fce .LASF243
C:\Users\CYMR90~1\AppData\Local\Temp\ccNmN5zT.s:29192  .debug_str:000000000002377c .LASF244
C:\Users\CYMR90~1\AppData\Local\Temp\ccNmN5zT.s:24999  .debug_str:0000000000012c5c .LASF245
C:\Users\CYMR90~1\AppData\Local\Temp\ccNmN5zT.s:28028  .debug_str:000000000001f109 .LASF246
C:\Users\CYMR90~1\AppData\Local\Temp\ccNmN5zT.s:26370  .debug_str:0000000000018526 .LASF247
C:\Users\CYMR90~1\AppData\Local\Temp\ccNmN5zT.s:25891  .debug_str:000000000001650f .LASF248
C:\Users\CYMR90~1\AppData\Local\Temp\ccNmN5zT.s:27384  .debug_str:000000000001c744 .LASF249
C:\Users\CYMR90~1\AppData\Local\Temp\ccNmN5zT.s:26768  .debug_str:0000000000019fa7 .LASF250
C:\Users\CYMR90~1\AppData\Local\Temp\ccNmN5zT.s:27316  .debug_str:000000000001c32f .LASF251
C:\Users\CYMR90~1\AppData\Local\Temp\ccNmN5zT.s:29008  .debug_str:0000000000022d05 .LASF252
C:\Users\CYMR90~1\AppData\Local\Temp\ccNmN5zT.s:23721  .debug_str:000000000000db88 .LASF253
C:\Users\CYMR90~1\AppData\Local\Temp\ccNmN5zT.s:29698  .debug_str:00000000000259ff .LASF254
C:\Users\CYMR90~1\AppData\Local\Temp\ccNmN5zT.s:23585  .debug_str:000000000000d2cc .LASF255
C:\Users\CYMR90~1\AppData\Local\Temp\ccNmN5zT.s:26674  .debug_str:00000000000199f0 .LASF256
C:\Users\CYMR90~1\AppData\Local\Temp\ccNmN5zT.s:23825  .debug_str:000000000000e1db .LASF257
C:\Users\CYMR90~1\AppData\Local\Temp\ccNmN5zT.s:27962  .debug_str:000000000001ecd4 .LASF258
C:\Users\CYMR90~1\AppData\Local\Temp\ccNmN5zT.s:23039  .debug_str:000000000000ae25 .LASF259
C:\Users\CYMR90~1\AppData\Local\Temp\ccNmN5zT.s:20463  .debug_str:0000000000000a99 .LASF260
C:\Users\CYMR90~1\AppData\Local\Temp\ccNmN5zT.s:30826  .debug_str:000000000002a112 .LASF261
C:\Users\CYMR90~1\AppData\Local\Temp\ccNmN5zT.s:30290  .debug_str:0000000000027f10 .LASF262
C:\Users\CYMR90~1\AppData\Local\Temp\ccNmN5zT.s:25307  .debug_str:0000000000014070 .LASF263
C:\Users\CYMR90~1\AppData\Local\Temp\ccNmN5zT.s:27268  .debug_str:000000000001c04e .LASF264
C:\Users\CYMR90~1\AppData\Local\Temp\ccNmN5zT.s:24271  .debug_str:000000000000fd63 .LASF265
C:\Users\CYMR90~1\AppData\Local\Temp\ccNmN5zT.s:23755  .debug_str:000000000000dd8b .LASF266
C:\Users\CYMR90~1\AppData\Local\Temp\ccNmN5zT.s:23089  .debug_str:000000000000b213 .LASF267
C:\Users\CYMR90~1\AppData\Local\Temp\ccNmN5zT.s:27372  .debug_str:000000000001c646 .LASF268
C:\Users\CYMR90~1\AppData\Local\Temp\ccNmN5zT.s:23399  .debug_str:000000000000c698 .LASF269
C:\Users\CYMR90~1\AppData\Local\Temp\ccNmN5zT.s:24337  .debug_str:0000000000010182 .LASF270
C:\Users\CYMR90~1\AppData\Local\Temp\ccNmN5zT.s:25585  .debug_str:0000000000015219 .LASF271
C:\Users\CYMR90~1\AppData\Local\Temp\ccNmN5zT.s:29946  .debug_str:000000000002693d .LASF272
C:\Users\CYMR90~1\AppData\Local\Temp\ccNmN5zT.s:22007  .debug_str:0000000000006a83 .LASF273
C:\Users\CYMR90~1\AppData\Local\Temp\ccNmN5zT.s:20917  .debug_str:00000000000025cc .LASF274
C:\Users\CYMR90~1\AppData\Local\Temp\ccNmN5zT.s:22101  .debug_str:000000000000714c .LASF275
C:\Users\CYMR90~1\AppData\Local\Temp\ccNmN5zT.s:23461  .debug_str:000000000000cafc .LASF276
C:\Users\CYMR90~1\AppData\Local\Temp\ccNmN5zT.s:23289  .debug_str:000000000000bf9b .LASF277
C:\Users\CYMR90~1\AppData\Local\Temp\ccNmN5zT.s:20597  .debug_str:00000000000012d6 .LASF278
C:\Users\CYMR90~1\AppData\Local\Temp\ccNmN5zT.s:21931  .debug_str:000000000000661b .LASF279
C:\Users\CYMR90~1\AppData\Local\Temp\ccNmN5zT.s:30620  .debug_str:00000000000294b9 .LASF280
C:\Users\CYMR90~1\AppData\Local\Temp\ccNmN5zT.s:22795  .debug_str:0000000000009e2c .LASF281
C:\Users\CYMR90~1\AppData\Local\Temp\ccNmN5zT.s:21895  .debug_str:0000000000006425 .LASF282
C:\Users\CYMR90~1\AppData\Local\Temp\ccNmN5zT.s:21799  .debug_str:0000000000005e32 .LASF283
C:\Users\CYMR90~1\AppData\Local\Temp\ccNmN5zT.s:21559  .debug_str:0000000000004ff9 .LASF284
C:\Users\CYMR90~1\AppData\Local\Temp\ccNmN5zT.s:29502  .debug_str:0000000000024b82 .LASF285
C:\Users\CYMR90~1\AppData\Local\Temp\ccNmN5zT.s:30322  .debug_str:00000000000281a7 .LASF286
C:\Users\CYMR90~1\AppData\Local\Temp\ccNmN5zT.s:30600  .debug_str:000000000002939e .LASF287
C:\Users\CYMR90~1\AppData\Local\Temp\ccNmN5zT.s:30512  .debug_str:0000000000028e4d .LASF288
C:\Users\CYMR90~1\AppData\Local\Temp\ccNmN5zT.s:31362  .debug_str:000000000002c283 .LASF289
C:\Users\CYMR90~1\AppData\Local\Temp\ccNmN5zT.s:26314  .debug_str:00000000000181c1 .LASF290
C:\Users\CYMR90~1\AppData\Local\Temp\ccNmN5zT.s:25359  .debug_str:00000000000143bc .LASF291
C:\Users\CYMR90~1\AppData\Local\Temp\ccNmN5zT.s:24289  .debug_str:000000000000fe7d .LASF292
C:\Users\CYMR90~1\AppData\Local\Temp\ccNmN5zT.s:21201  .debug_str:0000000000003853 .LASF293
C:\Users\CYMR90~1\AppData\Local\Temp\ccNmN5zT.s:28472  .debug_str:0000000000020c63 .LASF294
C:\Users\CYMR90~1\AppData\Local\Temp\ccNmN5zT.s:21481  .debug_str:0000000000004b34 .LASF295
C:\Users\CYMR90~1\AppData\Local\Temp\ccNmN5zT.s:30950  .debug_str:000000000002a883 .LASF296
C:\Users\CYMR90~1\AppData\Local\Temp\ccNmN5zT.s:31140  .debug_str:000000000002b3fe .LASF297
C:\Users\CYMR90~1\AppData\Local\Temp\ccNmN5zT.s:26192  .debug_str:0000000000017a77 .LASF298
C:\Users\CYMR90~1\AppData\Local\Temp\ccNmN5zT.s:20447  .debug_str:0000000000000993 .LASF299
C:\Users\CYMR90~1\AppData\Local\Temp\ccNmN5zT.s:24239  .debug_str:000000000000fb57 .LASF300
C:\Users\CYMR90~1\AppData\Local\Temp\ccNmN5zT.s:26948  .debug_str:000000000001ac49 .LASF301
C:\Users\CYMR90~1\AppData\Local\Temp\ccNmN5zT.s:25469  .debug_str:0000000000014a67 .LASF302
C:\Users\CYMR90~1\AppData\Local\Temp\ccNmN5zT.s:24947  .debug_str:0000000000012919 .LASF303
C:\Users\CYMR90~1\AppData\Local\Temp\ccNmN5zT.s:20837  .debug_str:000000000000214c .LASF304
C:\Users\CYMR90~1\AppData\Local\Temp\ccNmN5zT.s:23407  .debug_str:000000000000c71c .LASF305
C:\Users\CYMR90~1\AppData\Local\Temp\ccNmN5zT.s:28674  .debug_str:00000000000218f7 .LASF306
C:\Users\CYMR90~1\AppData\Local\Temp\ccNmN5zT.s:24257  .debug_str:000000000000fc84 .LASF307
C:\Users\CYMR90~1\AppData\Local\Temp\ccNmN5zT.s:29522  .debug_str:0000000000024cd8 .LASF308
C:\Users\CYMR90~1\AppData\Local\Temp\ccNmN5zT.s:29128  .debug_str:0000000000023382 .LASF309
C:\Users\CYMR90~1\AppData\Local\Temp\ccNmN5zT.s:23809  .debug_str:000000000000e0ee .LASF310
C:\Users\CYMR90~1\AppData\Local\Temp\ccNmN5zT.s:29842  .debug_str:00000000000262eb .LASF311
C:\Users\CYMR90~1\AppData\Local\Temp\ccNmN5zT.s:29352  .debug_str:0000000000024199 .LASF312
C:\Users\CYMR90~1\AppData\Local\Temp\ccNmN5zT.s:23527  .debug_str:000000000000cefc .LASF313
C:\Users\CYMR90~1\AppData\Local\Temp\ccNmN5zT.s:26458  .debug_str:0000000000018abc .LASF316
C:\Users\CYMR90~1\AppData\Local\Temp\ccNmN5zT.s:26822  .debug_str:000000000001a2d1 .LASF317
C:\Users\CYMR90~1\AppData\Local\Temp\ccNmN5zT.s:27164  .debug_str:000000000001b9c7 .LASF318
C:\Users\CYMR90~1\AppData\Local\Temp\ccNmN5zT.s:24247  .debug_str:000000000000fbf4 .LASF319
C:\Users\CYMR90~1\AppData\Local\Temp\ccNmN5zT.s:23159  .debug_str:000000000000b699 .LASF320
C:\Users\CYMR90~1\AppData\Local\Temp\ccNmN5zT.s:30560  .debug_str:0000000000029181 .LASF321
C:\Users\CYMR90~1\AppData\Local\Temp\ccNmN5zT.s:23719  .debug_str:000000000000db7b .LASF322
C:\Users\CYMR90~1\AppData\Local\Temp\ccNmN5zT.s:25421  .debug_str:00000000000147c2 .LASF323
C:\Users\CYMR90~1\AppData\Local\Temp\ccNmN5zT.s:20327  .debug_str:0000000000000238 .LASF324
C:\Users\CYMR90~1\AppData\Local\Temp\ccNmN5zT.s:30974  .debug_str:000000000002a9e4 .LASF325
C:\Users\CYMR90~1\AppData\Local\Temp\ccNmN5zT.s:21259  .debug_str:0000000000003bed .LASF326
C:\Users\CYMR90~1\AppData\Local\Temp\ccNmN5zT.s:25295  .debug_str:0000000000013fb3 .LASF327
C:\Users\CYMR90~1\AppData\Local\Temp\ccNmN5zT.s:24949  .debug_str:000000000001292e .LASF328
C:\Users\CYMR90~1\AppData\Local\Temp\ccNmN5zT.s:27816  .debug_str:000000000001e421 .LASF329
C:\Users\CYMR90~1\AppData\Local\Temp\ccNmN5zT.s:27808  .debug_str:000000000001e3d0 .LASF330
C:\Users\CYMR90~1\AppData\Local\Temp\ccNmN5zT.s:29988  .debug_str:0000000000026bcb .LASF331
C:\Users\CYMR90~1\AppData\Local\Temp\ccNmN5zT.s:30540  .debug_str:000000000002902f .LASF332
C:\Users\CYMR90~1\AppData\Local\Temp\ccNmN5zT.s:30732  .debug_str:0000000000029b8c .LASF333
C:\Users\CYMR90~1\AppData\Local\Temp\ccNmN5zT.s:26796  .debug_str:000000000001a156 .LASF334
C:\Users\CYMR90~1\AppData\Local\Temp\ccNmN5zT.s:26238  .debug_str:0000000000017d39 .LASF335
C:\Users\CYMR90~1\AppData\Local\Temp\ccNmN5zT.s:30580  .debug_str:000000000002929b .LASF336
C:\Users\CYMR90~1\AppData\Local\Temp\ccNmN5zT.s:24873  .debug_str:0000000000012436 .LASF337
C:\Users\CYMR90~1\AppData\Local\Temp\ccNmN5zT.s:28526  .debug_str:0000000000020f86 .LASF338
C:\Users\CYMR90~1\AppData\Local\Temp\ccNmN5zT.s:22913  .debug_str:000000000000a590 .LASF339
C:\Users\CYMR90~1\AppData\Local\Temp\ccNmN5zT.s:25085  .debug_str:000000000001323b .LASF340
C:\Users\CYMR90~1\AppData\Local\Temp\ccNmN5zT.s:27000  .debug_str:000000000001af71 .LASF341
C:\Users\CYMR90~1\AppData\Local\Temp\ccNmN5zT.s:23221  .debug_str:000000000000babf .LASF342
C:\Users\CYMR90~1\AppData\Local\Temp\ccNmN5zT.s:20579  .debug_str:0000000000001202 .LASF343
C:\Users\CYMR90~1\AppData\Local\Temp\ccNmN5zT.s:30700  .debug_str:00000000000299a7 .LASF344
C:\Users\CYMR90~1\AppData\Local\Temp\ccNmN5zT.s:31302  .debug_str:000000000002beac .LASF345
C:\Users\CYMR90~1\AppData\Local\Temp\ccNmN5zT.s:24131  .debug_str:000000000000f45f .LASF346
C:\Users\CYMR90~1\AppData\Local\Temp\ccNmN5zT.s:20435  .debug_str:00000000000008dc .LASF347
C:\Users\CYMR90~1\AppData\Local\Temp\ccNmN5zT.s:28324  .debug_str:00000000000202db .LASF348
C:\Users\CYMR90~1\AppData\Local\Temp\ccNmN5zT.s:30300  .debug_str:0000000000027fdf .LASF349
C:\Users\CYMR90~1\AppData\Local\Temp\ccNmN5zT.s:27810  .debug_str:000000000001e3dc .LASF350
C:\Users\CYMR90~1\AppData\Local\Temp\ccNmN5zT.s:20369  .debug_str:00000000000004f5 .LASF351
C:\Users\CYMR90~1\AppData\Local\Temp\ccNmN5zT.s:28098  .debug_str:000000000001f55b .LASF352
C:\Users\CYMR90~1\AppData\Local\Temp\ccNmN5zT.s:29784  .debug_str:0000000000025f2c .LASF353
C:\Users\CYMR90~1\AppData\Local\Temp\ccNmN5zT.s:27430  .debug_str:000000000001cacf .LASF354
C:\Users\CYMR90~1\AppData\Local\Temp\ccNmN5zT.s:27596  .debug_str:000000000001d60a .LASF355
C:\Users\CYMR90~1\AppData\Local\Temp\ccNmN5zT.s:23609  .debug_str:000000000000d4f0 .LASF356
C:\Users\CYMR90~1\AppData\Local\Temp\ccNmN5zT.s:26750  .debug_str:0000000000019ebe .LASF357
C:\Users\CYMR90~1\AppData\Local\Temp\ccNmN5zT.s:30214  .debug_str:00000000000279f7 .LASF358
C:\Users\CYMR90~1\AppData\Local\Temp\ccNmN5zT.s:24939  .debug_str:000000000001286e .LASF359
C:\Users\CYMR90~1\AppData\Local\Temp\ccNmN5zT.s:23009  .debug_str:000000000000ac5d .LASF360
C:\Users\CYMR90~1\AppData\Local\Temp\ccNmN5zT.s:27978  .debug_str:000000000001edd1 .LASF361
C:\Users\CYMR90~1\AppData\Local\Temp\ccNmN5zT.s:24675  .debug_str:00000000000116bd .LASF362
C:\Users\CYMR90~1\AppData\Local\Temp\ccNmN5zT.s:30476  .debug_str:0000000000028c5c .LASF363
C:\Users\CYMR90~1\AppData\Local\Temp\ccNmN5zT.s:22561  .debug_str:0000000000008ffc .LASF364
C:\Users\CYMR90~1\AppData\Local\Temp\ccNmN5zT.s:30372  .debug_str:0000000000028587 .LASF365
C:\Users\CYMR90~1\AppData\Local\Temp\ccNmN5zT.s:21967  .debug_str:0000000000006849 .LASF366
C:\Users\CYMR90~1\AppData\Local\Temp\ccNmN5zT.s:25075  .debug_str:0000000000013177 .LASF367
C:\Users\CYMR90~1\AppData\Local\Temp\ccNmN5zT.s:22251  .debug_str:0000000000007b0e .LASF368
C:\Users\CYMR90~1\AppData\Local\Temp\ccNmN5zT.s:26282  .debug_str:0000000000017fe4 .LASF372
C:\Users\CYMR90~1\AppData\Local\Temp\ccNmN5zT.s:30030  .debug_str:0000000000026e4f .LASF373
C:\Users\CYMR90~1\AppData\Local\Temp\ccNmN5zT.s:22991  .debug_str:000000000000ab2b .LASF374
C:\Users\CYMR90~1\AppData\Local\Temp\ccNmN5zT.s:26074  .debug_str:000000000001730c .LASF375
C:\Users\CYMR90~1\AppData\Local\Temp\ccNmN5zT.s:26268  .debug_str:0000000000017f1c .LASF376
C:\Users\CYMR90~1\AppData\Local\Temp\ccNmN5zT.s:28774  .debug_str:0000000000021ef2 .LASF377
C:\Users\CYMR90~1\AppData\Local\Temp\ccNmN5zT.s:27446  .debug_str:000000000001cb90 .LASF378
C:\Users\CYMR90~1\AppData\Local\Temp\ccNmN5zT.s:31132  .debug_str:000000000002b38b .LASF379
C:\Users\CYMR90~1\AppData\Local\Temp\ccNmN5zT.s:20933  .debug_str:0000000000002703 .LASF380
C:\Users\CYMR90~1\AppData\Local\Temp\ccNmN5zT.s:31074  .debug_str:000000000002afcc .LASF381
C:\Users\CYMR90~1\AppData\Local\Temp\ccNmN5zT.s:27172  .debug_str:000000000001ba18 .LASF382
C:\Users\CYMR90~1\AppData\Local\Temp\ccNmN5zT.s:22027  .debug_str:0000000000006bdb .LASF383
C:\Users\CYMR90~1\AppData\Local\Temp\ccNmN5zT.s:23377  .debug_str:000000000000c530 .LASF384
C:\Users\CYMR90~1\AppData\Local\Temp\ccNmN5zT.s:26692  .debug_str:0000000000019b24 .LASF385
C:\Users\CYMR90~1\AppData\Local\Temp\ccNmN5zT.s:24367  .debug_str:000000000001034c .LASF386
C:\Users\CYMR90~1\AppData\Local\Temp\ccNmN5zT.s:20865  .debug_str:00000000000022d0 .LASF387
C:\Users\CYMR90~1\AppData\Local\Temp\ccNmN5zT.s:23975  .debug_str:000000000000eb30 .LASF388
C:\Users\CYMR90~1\AppData\Local\Temp\ccNmN5zT.s:22531  .debug_str:0000000000008e11 .LASF389
C:\Users\CYMR90~1\AppData\Local\Temp\ccNmN5zT.s:21349  .debug_str:000000000000421d .LASF391
C:\Users\CYMR90~1\AppData\Local\Temp\ccNmN5zT.s:24375  .debug_str:00000000000103b8 .LASF392
C:\Users\CYMR90~1\AppData\Local\Temp\ccNmN5zT.s:28422  .debug_str:0000000000020952 .LASF393
C:\Users\CYMR90~1\AppData\Local\Temp\ccNmN5zT.s:30174  .debug_str:00000000000277a8 .LASF394
C:\Users\CYMR90~1\AppData\Local\Temp\ccNmN5zT.s:20891  .debug_str:000000000000242e .LASF395
C:\Users\CYMR90~1\AppData\Local\Temp\ccNmN5zT.s:23033  .debug_str:000000000000adc1 .LASF396
C:\Users\CYMR90~1\AppData\Local\Temp\ccNmN5zT.s:26802  .debug_str:000000000001a1b6 .LASF397
C:\Users\CYMR90~1\AppData\Local\Temp\ccNmN5zT.s:30948  .debug_str:000000000002a871 .LASF398
C:\Users\CYMR90~1\AppData\Local\Temp\ccNmN5zT.s:25639  .debug_str:000000000001557b .LASF399
C:\Users\CYMR90~1\AppData\Local\Temp\ccNmN5zT.s:28058  .debug_str:000000000001f2d4 .LASF400
C:\Users\CYMR90~1\AppData\Local\Temp\ccNmN5zT.s:22519  .debug_str:0000000000008cfa .LASF401
C:\Users\CYMR90~1\AppData\Local\Temp\ccNmN5zT.s:26124  .debug_str:00000000000175fa .LASF402
C:\Users\CYMR90~1\AppData\Local\Temp\ccNmN5zT.s:21863  .debug_str:0000000000006224 .LASF403
C:\Users\CYMR90~1\AppData\Local\Temp\ccNmN5zT.s:22967  .debug_str:000000000000a99f .LASF404
C:\Users\CYMR90~1\AppData\Local\Temp\ccNmN5zT.s:24031  .debug_str:000000000000ee61 .LASF405
C:\Users\CYMR90~1\AppData\Local\Temp\ccNmN5zT.s:27356  .debug_str:000000000001c566 .LASF406
C:\Users\CYMR90~1\AppData\Local\Temp\ccNmN5zT.s:25563  .debug_str:00000000000150d9 .LASF407
C:\Users\CYMR90~1\AppData\Local\Temp\ccNmN5zT.s:26534  .debug_str:0000000000018fe6 .LASF408
C:\Users\CYMR90~1\AppData\Local\Temp\ccNmN5zT.s:28718  .debug_str:0000000000021b9f .LASF409
C:\Users\CYMR90~1\AppData\Local\Temp\ccNmN5zT.s:21817  .debug_str:0000000000005f3f .LASF410
C:\Users\CYMR90~1\AppData\Local\Temp\ccNmN5zT.s:25749  .debug_str:0000000000015bd0 .LASF411
C:\Users\CYMR90~1\AppData\Local\Temp\ccNmN5zT.s:28844  .debug_str:000000000002230d .LASF412
C:\Users\CYMR90~1\AppData\Local\Temp\ccNmN5zT.s:21999  .debug_str:0000000000006a2a .LASF413
C:\Users\CYMR90~1\AppData\Local\Temp\ccNmN5zT.s:30574  .debug_str:0000000000029234 .LASF414
C:\Users\CYMR90~1\AppData\Local\Temp\ccNmN5zT.s:24133  .debug_str:000000000000f46d .LASF415
C:\Users\CYMR90~1\AppData\Local\Temp\ccNmN5zT.s:29902  .debug_str:0000000000026687 .LASF416
C:\Users\CYMR90~1\AppData\Local\Temp\ccNmN5zT.s:31430  .debug_str:000000000002c707 .LASF417
C:\Users\CYMR90~1\AppData\Local\Temp\ccNmN5zT.s:22449  .debug_str:000000000000889a .LASF418
C:\Users\CYMR90~1\AppData\Local\Temp\ccNmN5zT.s:30794  .debug_str:0000000000029f30 .LASF419
C:\Users\CYMR90~1\AppData\Local\Temp\ccNmN5zT.s:22071  .debug_str:0000000000006ef1 .LASF420
C:\Users\CYMR90~1\AppData\Local\Temp\ccNmN5zT.s:30994  .debug_str:000000000002aafa .LASF421
C:\Users\CYMR90~1\AppData\Local\Temp\ccNmN5zT.s:23303  .debug_str:000000000000c08f .LASF422
C:\Users\CYMR90~1\AppData\Local\Temp\ccNmN5zT.s:23505  .debug_str:000000000000cdd2 .LASF423
C:\Users\CYMR90~1\AppData\Local\Temp\ccNmN5zT.s:27956  .debug_str:000000000001ec95 .LASF424
C:\Users\CYMR90~1\AppData\Local\Temp\ccNmN5zT.s:26572  .debug_str:0000000000019311 .LASF425
C:\Users\CYMR90~1\AppData\Local\Temp\ccNmN5zT.s:20339  .debug_str:0000000000000301 .LASF426
C:\Users\CYMR90~1\AppData\Local\Temp\ccNmN5zT.s:30484  .debug_str:0000000000028cd0 .LASF427
C:\Users\CYMR90~1\AppData\Local\Temp\ccNmN5zT.s:25831  .debug_str:0000000000016195 .LASF428
C:\Users\CYMR90~1\AppData\Local\Temp\ccNmN5zT.s:27738  .debug_str:000000000001dfbe .LASF429
C:\Users\CYMR90~1\AppData\Local\Temp\ccNmN5zT.s:24315  .debug_str:000000000001000c .LASF430
C:\Users\CYMR90~1\AppData\Local\Temp\ccNmN5zT.s:26030  .debug_str:000000000001707b .LASF431
C:\Users\CYMR90~1\AppData\Local\Temp\ccNmN5zT.s:30880  .debug_str:000000000002a3fd .LASF432
C:\Users\CYMR90~1\AppData\Local\Temp\ccNmN5zT.s:23487  .debug_str:000000000000ccb1 .LASF434
C:\Users\CYMR90~1\AppData\Local\Temp\ccNmN5zT.s:21535  .debug_str:0000000000004e8e .LASF435
C:\Users\CYMR90~1\AppData\Local\Temp\ccNmN5zT.s:26210  .debug_str:0000000000017b7e .LASF436
C:\Users\CYMR90~1\AppData\Local\Temp\ccNmN5zT.s:22089  .debug_str:0000000000007071 .LASF437
C:\Users\CYMR90~1\AppData\Local\Temp\ccNmN5zT.s:30502  .debug_str:0000000000028db8 .LASF438
C:\Users\CYMR90~1\AppData\Local\Temp\ccNmN5zT.s:20301  .debug_str:00000000000000c7 .LASF439
C:\Users\CYMR90~1\AppData\Local\Temp\ccNmN5zT.s:27994  .debug_str:000000000001eed2 .LASF440
C:\Users\CYMR90~1\AppData\Local\Temp\ccNmN5zT.s:23729  .debug_str:000000000000dc03 .LASF441
C:\Users\CYMR90~1\AppData\Local\Temp\ccNmN5zT.s:29036  .debug_str:0000000000022e77 .LASF442
C:\Users\CYMR90~1\AppData\Local\Temp\ccNmN5zT.s:27932  .debug_str:000000000001eb43 .LASF443
C:\Users\CYMR90~1\AppData\Local\Temp\ccNmN5zT.s:24445  .debug_str:000000000001084f .LASF444
C:\Users\CYMR90~1\AppData\Local\Temp\ccNmN5zT.s:31424  .debug_str:000000000002c6bb .LASF445
C:\Users\CYMR90~1\AppData\Local\Temp\ccNmN5zT.s:31360  .debug_str:000000000002c27d .LASF446
C:\Users\CYMR90~1\AppData\Local\Temp\ccNmN5zT.s:24793  .debug_str:0000000000011ee9 .LASF447
C:\Users\CYMR90~1\AppData\Local\Temp\ccNmN5zT.s:29010  .debug_str:0000000000022d17 .LASF448
C:\Users\CYMR90~1\AppData\Local\Temp\ccNmN5zT.s:21361  .debug_str:00000000000042d5 .LASF449
C:\Users\CYMR90~1\AppData\Local\Temp\ccNmN5zT.s:22109  .debug_str:00000000000071da .LASF450
C:\Users\CYMR90~1\AppData\Local\Temp\ccNmN5zT.s:22717  .debug_str:0000000000009997 .LASF451
C:\Users\CYMR90~1\AppData\Local\Temp\ccNmN5zT.s:25477  .debug_str:0000000000014b09 .LASF452
C:\Users\CYMR90~1\AppData\Local\Temp\ccNmN5zT.s:20809  .debug_str:0000000000001ff7 .LASF453
C:\Users\CYMR90~1\AppData\Local\Temp\ccNmN5zT.s:31366  .debug_str:000000000002c2b6 .LASF454
C:\Users\CYMR90~1\AppData\Local\Temp\ccNmN5zT.s:23895  .debug_str:000000000000e5ee .LASF455
C:\Users\CYMR90~1\AppData\Local\Temp\ccNmN5zT.s:28620  .debug_str:0000000000021599 .LASF456
C:\Users\CYMR90~1\AppData\Local\Temp\ccNmN5zT.s:23581  .debug_str:000000000000d2aa .LASF457
C:\Users\CYMR90~1\AppData\Local\Temp\ccNmN5zT.s:21875  .debug_str:00000000000062d1 .LASF458
C:\Users\CYMR90~1\AppData\Local\Temp\ccNmN5zT.s:24511  .debug_str:0000000000010d16 .LASF459
C:\Users\CYMR90~1\AppData\Local\Temp\ccNmN5zT.s:28376  .debug_str:000000000002068f .LASF460
C:\Users\CYMR90~1\AppData\Local\Temp\ccNmN5zT.s:29526  .debug_str:0000000000024d0e .LASF461
C:\Users\CYMR90~1\AppData\Local\Temp\ccNmN5zT.s:25993  .debug_str:0000000000016c7c .LASF462
C:\Users\CYMR90~1\AppData\Local\Temp\ccNmN5zT.s:26852  .debug_str:000000000001a62d .LASF463
C:\Users\CYMR90~1\AppData\Local\Temp\ccNmN5zT.s:23745  .debug_str:000000000000dccf .LASF464
C:\Users\CYMR90~1\AppData\Local\Temp\ccNmN5zT.s:24885  .debug_str:00000000000124f9 .LASF465
C:\Users\CYMR90~1\AppData\Local\Temp\ccNmN5zT.s:22021  .debug_str:0000000000006b95 .LASF466
C:\Users\CYMR90~1\AppData\Local\Temp\ccNmN5zT.s:22579  .debug_str:00000000000090df .LASF467
C:\Users\CYMR90~1\AppData\Local\Temp\ccNmN5zT.s:30590  .debug_str:000000000002932a .LASF468
C:\Users\CYMR90~1\AppData\Local\Temp\ccNmN5zT.s:21153  .debug_str:0000000000003562 .LASF469
C:\Users\CYMR90~1\AppData\Local\Temp\ccNmN5zT.s:24409  .debug_str:0000000000010587 .LASF470
C:\Users\CYMR90~1\AppData\Local\Temp\ccNmN5zT.s:24291  .debug_str:000000000000fe9a .LASF471
C:\Users\CYMR90~1\AppData\Local\Temp\ccNmN5zT.s:23869  .debug_str:000000000000e462 .LASF472
C:\Users\CYMR90~1\AppData\Local\Temp\ccNmN5zT.s:20519  .debug_str:0000000000000e11 .LASF473
C:\Users\CYMR90~1\AppData\Local\Temp\ccNmN5zT.s:22135  .debug_str:00000000000073db .LASF474
C:\Users\CYMR90~1\AppData\Local\Temp\ccNmN5zT.s:20465  .debug_str:0000000000000ad7 .LASF475
C:\Users\CYMR90~1\AppData\Local\Temp\ccNmN5zT.s:21327  .debug_str:0000000000004033 .LASF476
C:\Users\CYMR90~1\AppData\Local\Temp\ccNmN5zT.s:20687  .debug_str:00000000000018af .LASF477
C:\Users\CYMR90~1\AppData\Local\Temp\ccNmN5zT.s:25777  .debug_str:0000000000015dd5 .LASF478
C:\Users\CYMR90~1\AppData\Local\Temp\ccNmN5zT.s:23177  .debug_str:000000000000b7fd .LASF479
C:\Users\CYMR90~1\AppData\Local\Temp\ccNmN5zT.s:30990  .debug_str:000000000002aaca .LASF480
C:\Users\CYMR90~1\AppData\Local\Temp\ccNmN5zT.s:26364  .debug_str:00000000000184cc .LASF481
C:\Users\CYMR90~1\AppData\Local\Temp\ccNmN5zT.s:23099  .debug_str:000000000000b2a8 .LASF482
C:\Users\CYMR90~1\AppData\Local\Temp\ccNmN5zT.s:21917  .debug_str:000000000000655b .LASF483
C:\Users\CYMR90~1\AppData\Local\Temp\ccNmN5zT.s:20431  .debug_str:0000000000000895 .LASF484
C:\Users\CYMR90~1\AppData\Local\Temp\ccNmN5zT.s:26312  .debug_str:000000000001819e .LASF485
C:\Users\CYMR90~1\AppData\Local\Temp\ccNmN5zT.s:21543  .debug_str:0000000000004efa .LASF486
C:\Users\CYMR90~1\AppData\Local\Temp\ccNmN5zT.s:25235  .debug_str:0000000000013c1d .LASF487
C:\Users\CYMR90~1\AppData\Local\Temp\ccNmN5zT.s:24433  .debug_str:00000000000107ab .LASF488
C:\Users\CYMR90~1\AppData\Local\Temp\ccNmN5zT.s:25003  .debug_str:0000000000012cbe .LASF489
C:\Users\CYMR90~1\AppData\Local\Temp\ccNmN5zT.s:23463  .debug_str:000000000000cb3d .LASF490
C:\Users\CYMR90~1\AppData\Local\Temp\ccNmN5zT.s:22447  .debug_str:000000000000888c .LASF491
C:\Users\CYMR90~1\AppData\Local\Temp\ccNmN5zT.s:24091  .debug_str:000000000000f1de .LASF492
C:\Users\CYMR90~1\AppData\Local\Temp\ccNmN5zT.s:24399  .debug_str:000000000001050b .LASF493
C:\Users\CYMR90~1\AppData\Local\Temp\ccNmN5zT.s:24297  .debug_str:000000000000fef5 .LASF494
C:\Users\CYMR90~1\AppData\Local\Temp\ccNmN5zT.s:26562  .debug_str:000000000001928e .LASF495
C:\Users\CYMR90~1\AppData\Local\Temp\ccNmN5zT.s:31450  .debug_str:000000000002c820 .LASF496
C:\Users\CYMR90~1\AppData\Local\Temp\ccNmN5zT.s:31384  .debug_str:000000000002c41b .LASF497
C:\Users\CYMR90~1\AppData\Local\Temp\ccNmN5zT.s:24137  .debug_str:000000000000f4b4 .LASF498
C:\Users\CYMR90~1\AppData\Local\Temp\ccNmN5zT.s:30598  .debug_str:0000000000029379 .LASF499
C:\Users\CYMR90~1\AppData\Local\Temp\ccNmN5zT.s:30704  .debug_str:00000000000299ca .LASF500
C:\Users\CYMR90~1\AppData\Local\Temp\ccNmN5zT.s:25441  .debug_str:00000000000148cf .LASF501
C:\Users\CYMR90~1\AppData\Local\Temp\ccNmN5zT.s:30658  .debug_str:0000000000029739 .LASF502
C:\Users\CYMR90~1\AppData\Local\Temp\ccNmN5zT.s:25389  .debug_str:0000000000014552 .LASF503
C:\Users\CYMR90~1\AppData\Local\Temp\ccNmN5zT.s:21021  .debug_str:0000000000002ce3 .LASF504
C:\Users\CYMR90~1\AppData\Local\Temp\ccNmN5zT.s:29294  .debug_str:0000000000023d8a .LASF505
C:\Users\CYMR90~1\AppData\Local\Temp\ccNmN5zT.s:30170  .debug_str:000000000002776d .LASF506
C:\Users\CYMR90~1\AppData\Local\Temp\ccNmN5zT.s:29740  .debug_str:0000000000025c91 .LASF507
C:\Users\CYMR90~1\AppData\Local\Temp\ccNmN5zT.s:26480  .debug_str:0000000000018c04 .LASF508
C:\Users\CYMR90~1\AppData\Local\Temp\ccNmN5zT.s:28706  .debug_str:0000000000021aa3 .LASF509
C:\Users\CYMR90~1\AppData\Local\Temp\ccNmN5zT.s:30392  .debug_str:00000000000286eb .LASF510
C:\Users\CYMR90~1\AppData\Local\Temp\ccNmN5zT.s:26258  .debug_str:0000000000017e4d .LASF511
C:\Users\CYMR90~1\AppData\Local\Temp\ccNmN5zT.s:30018  .debug_str:0000000000026d5a .LASF512
C:\Users\CYMR90~1\AppData\Local\Temp\ccNmN5zT.s:30142  .debug_str:00000000000275d9 .LASF513
C:\Users\CYMR90~1\AppData\Local\Temp\ccNmN5zT.s:30578  .debug_str:0000000000029260 .LASF514
C:\Users\CYMR90~1\AppData\Local\Temp\ccNmN5zT.s:25165  .debug_str:00000000000137e1 .LASF515
C:\Users\CYMR90~1\AppData\Local\Temp\ccNmN5zT.s:30452  .debug_str:0000000000028af2 .LASF516
C:\Users\CYMR90~1\AppData\Local\Temp\ccNmN5zT.s:26630  .debug_str:000000000001967e .LASF517
C:\Users\CYMR90~1\AppData\Local\Temp\ccNmN5zT.s:30400  .debug_str:000000000002879f .LASF518
C:\Users\CYMR90~1\AppData\Local\Temp\ccNmN5zT.s:27276  .debug_str:000000000001c0b6 .LASF519
C:\Users\CYMR90~1\AppData\Local\Temp\ccNmN5zT.s:31354  .debug_str:000000000002c21b .LASF520
C:\Users\CYMR90~1\AppData\Local\Temp\ccNmN5zT.s:27540  .debug_str:000000000001d2a7 .LASF521
C:\Users\CYMR90~1\AppData\Local\Temp\ccNmN5zT.s:29648  .debug_str:00000000000255e0 .LASF522
C:\Users\CYMR90~1\AppData\Local\Temp\ccNmN5zT.s:25047  .debug_str:0000000000012f8f .LASF523
C:\Users\CYMR90~1\AppData\Local\Temp\ccNmN5zT.s:29206  .debug_str:0000000000023887 .LASF524
C:\Users\CYMR90~1\AppData\Local\Temp\ccNmN5zT.s:22659  .debug_str:0000000000009587 .LASF525
C:\Users\CYMR90~1\AppData\Local\Temp\ccNmN5zT.s:31376  .debug_str:000000000002c32f .LASF526
C:\Users\CYMR90~1\AppData\Local\Temp\ccNmN5zT.s:23903  .debug_str:000000000000e66c .LASF527
C:\Users\CYMR90~1\AppData\Local\Temp\ccNmN5zT.s:24909  .debug_str:0000000000012674 .LASF528
C:\Users\CYMR90~1\AppData\Local\Temp\ccNmN5zT.s:25755  .debug_str:0000000000015c2d .LASF529
C:\Users\CYMR90~1\AppData\Local\Temp\ccNmN5zT.s:25787  .debug_str:0000000000015e66 .LASF530
C:\Users\CYMR90~1\AppData\Local\Temp\ccNmN5zT.s:24833  .debug_str:00000000000121be .LASF531
C:\Users\CYMR90~1\AppData\Local\Temp\ccNmN5zT.s:21081  .debug_str:0000000000003066 .LASF532
C:\Users\CYMR90~1\AppData\Local\Temp\ccNmN5zT.s:23587  .debug_str:000000000000d2e4 .LASF533
C:\Users\CYMR90~1\AppData\Local\Temp\ccNmN5zT.s:31212  .debug_str:000000000002b8a7 .LASF534
C:\Users\CYMR90~1\AppData\Local\Temp\ccNmN5zT.s:24089  .debug_str:000000000000f192 .LASF535
C:\Users\CYMR90~1\AppData\Local\Temp\ccNmN5zT.s:29388  .debug_str:00000000000243f8 .LASF536
C:\Users\CYMR90~1\AppData\Local\Temp\ccNmN5zT.s:30860  .debug_str:000000000002a2fa .LASF537
C:\Users\CYMR90~1\AppData\Local\Temp\ccNmN5zT.s:24661  .debug_str:00000000000115b8 .LASF538
C:\Users\CYMR90~1\AppData\Local\Temp\ccNmN5zT.s:29568  .debug_str:0000000000024fcd .LASF539
C:\Users\CYMR90~1\AppData\Local\Temp\ccNmN5zT.s:27336  .debug_str:000000000001c454 .LASF540
C:\Users\CYMR90~1\AppData\Local\Temp\ccNmN5zT.s:28916  .debug_str:0000000000022719 .LASF541
C:\Users\CYMR90~1\AppData\Local\Temp\ccNmN5zT.s:27628  .debug_str:000000000001d81f .LASF542
C:\Users\CYMR90~1\AppData\Local\Temp\ccNmN5zT.s:21435  .debug_str:00000000000047c4 .LASF543
C:\Users\CYMR90~1\AppData\Local\Temp\ccNmN5zT.s:23837  .debug_str:000000000000e275 .LASF544
C:\Users\CYMR90~1\AppData\Local\Temp\ccNmN5zT.s:30644  .debug_str:0000000000029655 .LASF545
C:\Users\CYMR90~1\AppData\Local\Temp\ccNmN5zT.s:25175  .debug_str:0000000000013870 .LASF546
C:\Users\CYMR90~1\AppData\Local\Temp\ccNmN5zT.s:28898  .debug_str:0000000000022605 .LASF547
C:\Users\CYMR90~1\AppData\Local\Temp\ccNmN5zT.s:31128  .debug_str:000000000002b34a .LASF548
C:\Users\CYMR90~1\AppData\Local\Temp\ccNmN5zT.s:21127  .debug_str:00000000000033a0 .LASF549
C:\Users\CYMR90~1\AppData\Local\Temp\ccNmN5zT.s:22281  .debug_str:0000000000007cd3 .LASF550
C:\Users\CYMR90~1\AppData\Local\Temp\ccNmN5zT.s:29910  .debug_str:00000000000266ea .LASF551
C:\Users\CYMR90~1\AppData\Local\Temp\ccNmN5zT.s:21843  .debug_str:00000000000060da .LASF552
C:\Users\CYMR90~1\AppData\Local\Temp\ccNmN5zT.s:30882  .debug_str:000000000002a40a .LASF553
C:\Users\CYMR90~1\AppData\Local\Temp\ccNmN5zT.s:23251  .debug_str:000000000000bc9c .LASF554
C:\Users\CYMR90~1\AppData\Local\Temp\ccNmN5zT.s:23439  .debug_str:000000000000c97a .LASF555
C:\Users\CYMR90~1\AppData\Local\Temp\ccNmN5zT.s:21965  .debug_str:00000000000067f6 .LASF556
C:\Users\CYMR90~1\AppData\Local\Temp\ccNmN5zT.s:30332  .debug_str:0000000000028238 .LASF557
C:\Users\CYMR90~1\AppData\Local\Temp\ccNmN5zT.s:24779  .debug_str:0000000000011e0e .LASF558
C:\Users\CYMR90~1\AppData\Local\Temp\ccNmN5zT.s:26508  .debug_str:0000000000018e5a .LASF559
C:\Users\CYMR90~1\AppData\Local\Temp\ccNmN5zT.s:30442  .debug_str:0000000000028a4a .LASF560
C:\Users\CYMR90~1\AppData\Local\Temp\ccNmN5zT.s:23247  .debug_str:000000000000bc38 .LASF561
C:\Users\CYMR90~1\AppData\Local\Temp\ccNmN5zT.s:24245  .debug_str:000000000000fba9 .LASF562
C:\Users\CYMR90~1\AppData\Local\Temp\ccNmN5zT.s:23629  .debug_str:000000000000d616 .LASF563
C:\Users\CYMR90~1\AppData\Local\Temp\ccNmN5zT.s:22951  .debug_str:000000000000a7b6 .LASF564
C:\Users\CYMR90~1\AppData\Local\Temp\ccNmN5zT.s:28646  .debug_str:000000000002170f .LASF565
C:\Users\CYMR90~1\AppData\Local\Temp\ccNmN5zT.s:27876  .debug_str:000000000001e7b5 .LASF566
C:\Users\CYMR90~1\AppData\Local\Temp\ccNmN5zT.s:24775  .debug_str:0000000000011dc6 .LASF567
C:\Users\CYMR90~1\AppData\Local\Temp\ccNmN5zT.s:21845  .debug_str:00000000000060ee .LASF568
C:\Users\CYMR90~1\AppData\Local\Temp\ccNmN5zT.s:20491  .debug_str:0000000000000c9d .LASF570
C:\Users\CYMR90~1\AppData\Local\Temp\ccNmN5zT.s:26140  .debug_str:00000000000176eb .LASF571
C:\Users\CYMR90~1\AppData\Local\Temp\ccNmN5zT.s:27272  .debug_str:000000000001c090 .LASF574
C:\Users\CYMR90~1\AppData\Local\Temp\ccNmN5zT.s:21403  .debug_str:00000000000045b0 .LASF575
C:\Users\CYMR90~1\AppData\Local\Temp\ccNmN5zT.s:25395  .debug_str:00000000000145dc .LASF576
C:\Users\CYMR90~1\AppData\Local\Temp\ccNmN5zT.s:22377  .debug_str:0000000000008477 .LASF577
C:\Users\CYMR90~1\AppData\Local\Temp\ccNmN5zT.s:28548  .debug_str:00000000000210b7 .LASF579
C:\Users\CYMR90~1\AppData\Local\Temp\ccNmN5zT.s:27752  .debug_str:000000000001e096 .LASF580
C:\Users\CYMR90~1\AppData\Local\Temp\ccNmN5zT.s:29292  .debug_str:0000000000023d81 .LASF581
C:\Users\CYMR90~1\AppData\Local\Temp\ccNmN5zT.s:21801  .debug_str:0000000000005e49 .LASF582
C:\Users\CYMR90~1\AppData\Local\Temp\ccNmN5zT.s:24393  .debug_str:00000000000104a1 .LASF583
C:\Users\CYMR90~1\AppData\Local\Temp\ccNmN5zT.s:20973  .debug_str:00000000000029cd .LASF584
C:\Users\CYMR90~1\AppData\Local\Temp\ccNmN5zT.s:30738  .debug_str:0000000000029beb .LASF585
C:\Users\CYMR90~1\AppData\Local\Temp\ccNmN5zT.s:28946  .debug_str:0000000000022909 .LASF586
C:\Users\CYMR90~1\AppData\Local\Temp\ccNmN5zT.s:27160  .debug_str:000000000001b9a5 .LASF587
C:\Users\CYMR90~1\AppData\Local\Temp\ccNmN5zT.s:22035  .debug_str:0000000000006c96 .LASF588
C:\Users\CYMR90~1\AppData\Local\Temp\ccNmN5zT.s:26418  .debug_str:0000000000018821 .LASF589
C:\Users\CYMR90~1\AppData\Local\Temp\ccNmN5zT.s:26798  .debug_str:000000000001a15f .LASF590
C:\Users\CYMR90~1\AppData\Local\Temp\ccNmN5zT.s:27620  .debug_str:000000000001d7b3 .LASF591
C:\Users\CYMR90~1\AppData\Local\Temp\ccNmN5zT.s:27412  .debug_str:000000000001c9aa .LASF592
C:\Users\CYMR90~1\AppData\Local\Temp\ccNmN5zT.s:29280  .debug_str:0000000000023cde .LASF593
C:\Users\CYMR90~1\AppData\Local\Temp\ccNmN5zT.s:24357  .debug_str:00000000000102b2 .LASF594
C:\Users\CYMR90~1\AppData\Local\Temp\ccNmN5zT.s:25233  .debug_str:0000000000013bfd .LASF595
C:\Users\CYMR90~1\AppData\Local\Temp\ccNmN5zT.s:24963  .debug_str:0000000000012a19 .LASF596
C:\Users\CYMR90~1\AppData\Local\Temp\ccNmN5zT.s:22137  .debug_str:00000000000073fa .LASF597
C:\Users\CYMR90~1\AppData\Local\Temp\ccNmN5zT.s:30262  .debug_str:0000000000027d7a .LASF598
C:\Users\CYMR90~1\AppData\Local\Temp\ccNmN5zT.s:25123  .debug_str:0000000000013533 .LASF599
C:\Users\CYMR90~1\AppData\Local\Temp\ccNmN5zT.s:28078  .debug_str:000000000001f405 .LASF600
C:\Users\CYMR90~1\AppData\Local\Temp\ccNmN5zT.s:27344  .debug_str:000000000001c4c0 .LASF601
C:\Users\CYMR90~1\AppData\Local\Temp\ccNmN5zT.s:29746  .debug_str:0000000000025ce4 .LASF602
C:\Users\CYMR90~1\AppData\Local\Temp\ccNmN5zT.s:30458  .debug_str:0000000000028b54 .LASF603
C:\Users\CYMR90~1\AppData\Local\Temp\ccNmN5zT.s:30348  .debug_str:000000000002840a .LASF604
C:\Users\CYMR90~1\AppData\Local\Temp\ccNmN5zT.s:25073  .debug_str:000000000001315f .LASF605
C:\Users\CYMR90~1\AppData\Local\Temp\ccNmN5zT.s:29088  .debug_str:0000000000023142 .LASF606
C:\Users\CYMR90~1\AppData\Local\Temp\ccNmN5zT.s:22727  .debug_str:0000000000009a36 .LASF607
C:\Users\CYMR90~1\AppData\Local\Temp\ccNmN5zT.s:22233  .debug_str:00000000000079c3 .LASF608
C:\Users\CYMR90~1\AppData\Local\Temp\ccNmN5zT.s:23011  .debug_str:000000000000ac6b .LASF609
C:\Users\CYMR90~1\AppData\Local\Temp\ccNmN5zT.s:27196  .debug_str:000000000001bb6a .LASF610
C:\Users\CYMR90~1\AppData\Local\Temp\ccNmN5zT.s:21769  .debug_str:0000000000005c90 .LASF611
C:\Users\CYMR90~1\AppData\Local\Temp\ccNmN5zT.s:28868  .debug_str:0000000000022456 .LASF612
C:\Users\CYMR90~1\AppData\Local\Temp\ccNmN5zT.s:25621  .debug_str:000000000001545a .LASF613
C:\Users\CYMR90~1\AppData\Local\Temp\ccNmN5zT.s:22301  .debug_str:0000000000007ecd .LASF614
C:\Users\CYMR90~1\AppData\Local\Temp\ccNmN5zT.s:20393  .debug_str:0000000000000626 .LASF615
C:\Users\CYMR90~1\AppData\Local\Temp\ccNmN5zT.s:25859  .debug_str:000000000001631a .LASF616
C:\Users\CYMR90~1\AppData\Local\Temp\ccNmN5zT.s:26834  .debug_str:000000000001a38d .LASF617
C:\Users\CYMR90~1\AppData\Local\Temp\ccNmN5zT.s:25995  .debug_str:0000000000016c8b .LASF618
C:\Users\CYMR90~1\AppData\Local\Temp\ccNmN5zT.s:28954  .debug_str:000000000002296e .LASF619
C:\Users\CYMR90~1\AppData\Local\Temp\ccNmN5zT.s:23267  .debug_str:000000000000be34 .LASF620
C:\Users\CYMR90~1\AppData\Local\Temp\ccNmN5zT.s:22049  .debug_str:0000000000006d83 .LASF621
C:\Users\CYMR90~1\AppData\Local\Temp\ccNmN5zT.s:29148  .debug_str:000000000002349b .LASF622
C:\Users\CYMR90~1\AppData\Local\Temp\ccNmN5zT.s:28254  .debug_str:000000000001fed2 .LASF623
C:\Users\CYMR90~1\AppData\Local\Temp\ccNmN5zT.s:30222  .debug_str:0000000000027a6c .LASF624
C:\Users\CYMR90~1\AppData\Local\Temp\ccNmN5zT.s:30834  .debug_str:000000000002a197 .LASF625
C:\Users\CYMR90~1\AppData\Local\Temp\ccNmN5zT.s:25303  .debug_str:000000000001400f .LASF626
C:\Users\CYMR90~1\AppData\Local\Temp\ccNmN5zT.s:31094  .debug_str:000000000002b0cf .LASF627
C:\Users\CYMR90~1\AppData\Local\Temp\ccNmN5zT.s:25711  .debug_str:0000000000015979 .LASF628
C:\Users\CYMR90~1\AppData\Local\Temp\ccNmN5zT.s:28896  .debug_str:00000000000225cd .LASF629
C:\Users\CYMR90~1\AppData\Local\Temp\ccNmN5zT.s:22455  .debug_str:0000000000008911 .LASF630
C:\Users\CYMR90~1\AppData\Local\Temp\ccNmN5zT.s:23667  .debug_str:000000000000d86c .LASF631
C:\Users\CYMR90~1\AppData\Local\Temp\ccNmN5zT.s:28858  .debug_str:00000000000223b6 .LASF632
C:\Users\CYMR90~1\AppData\Local\Temp\ccNmN5zT.s:23383  .debug_str:000000000000c591 .LASF633
C:\Users\CYMR90~1\AppData\Local\Temp\ccNmN5zT.s:20481  .debug_str:0000000000000c0a .LASF634
C:\Users\CYMR90~1\AppData\Local\Temp\ccNmN5zT.s:26740  .debug_str:0000000000019e1a .LASF635
C:\Users\CYMR90~1\AppData\Local\Temp\ccNmN5zT.s:25917  .debug_str:00000000000166fe .LASF636
C:\Users\CYMR90~1\AppData\Local\Temp\ccNmN5zT.s:27508  .debug_str:000000000001d0d8 .LASF637
C:\Users\CYMR90~1\AppData\Local\Temp\ccNmN5zT.s:21193  .debug_str:00000000000037ac .LASF638
C:\Users\CYMR90~1\AppData\Local\Temp\ccNmN5zT.s:24727  .debug_str:0000000000011b0f .LASF639
C:\Users\CYMR90~1\AppData\Local\Temp\ccNmN5zT.s:22313  .debug_str:0000000000007f75 .LASF640
C:\Users\CYMR90~1\AppData\Local\Temp\ccNmN5zT.s:24945  .debug_str:00000000000128dd .LASF641
C:\Users\CYMR90~1\AppData\Local\Temp\ccNmN5zT.s:23167  .debug_str:000000000000b713 .LASF642
C:\Users\CYMR90~1\AppData\Local\Temp\ccNmN5zT.s:30206  .debug_str:000000000002795c .LASF643
C:\Users\CYMR90~1\AppData\Local\Temp\ccNmN5zT.s:23543  .debug_str:000000000000d009 .LASF644
C:\Users\CYMR90~1\AppData\Local\Temp\ccNmN5zT.s:21373  .debug_str:000000000000436d .LASF645
C:\Users\CYMR90~1\AppData\Local\Temp\ccNmN5zT.s:22195  .debug_str:000000000000775e .LASF646
C:\Users\CYMR90~1\AppData\Local\Temp\ccNmN5zT.s:21119  .debug_str:0000000000003306 .LASF647
C:\Users\CYMR90~1\AppData\Local\Temp\ccNmN5zT.s:21491  .debug_str:0000000000004bbe .LASF648
C:\Users\CYMR90~1\AppData\Local\Temp\ccNmN5zT.s:30736  .debug_str:0000000000029bac .LASF649
C:\Users\CYMR90~1\AppData\Local\Temp\ccNmN5zT.s:24641  .debug_str:0000000000011447 .LASF650
C:\Users\CYMR90~1\AppData\Local\Temp\ccNmN5zT.s:30850  .debug_str:000000000002a271 .LASF651
C:\Users\CYMR90~1\AppData\Local\Temp\ccNmN5zT.s:24255  .debug_str:000000000000fc6a .LASF652
C:\Users\CYMR90~1\AppData\Local\Temp\ccNmN5zT.s:20373  .debug_str:0000000000000515 .LASF653
C:\Users\CYMR90~1\AppData\Local\Temp\ccNmN5zT.s:31078  .debug_str:000000000002aff7 .LASF654
C:\Users\CYMR90~1\AppData\Local\Temp\ccNmN5zT.s:22551  .debug_str:0000000000008f66 .LASF655
C:\Users\CYMR90~1\AppData\Local\Temp\ccNmN5zT.s:30276  .debug_str:0000000000027e52 .LASF656
C:\Users\CYMR90~1\AppData\Local\Temp\ccNmN5zT.s:20425  .debug_str:0000000000000853 .LASF657
C:\Users\CYMR90~1\AppData\Local\Temp\ccNmN5zT.s:30904  .debug_str:000000000002a582 .LASF658
C:\Users\CYMR90~1\AppData\Local\Temp\ccNmN5zT.s:25041  .debug_str:0000000000012f41 .LASF659
C:\Users\CYMR90~1\AppData\Local\Temp\ccNmN5zT.s:27442  .debug_str:000000000001cb64 .LASF660
C:\Users\CYMR90~1\AppData\Local\Temp\ccNmN5zT.s:23939  .debug_str:000000000000e8ed .LASF661
C:\Users\CYMR90~1\AppData\Local\Temp\ccNmN5zT.s:28104  .debug_str:000000000001f5a6 .LASF662
C:\Users\CYMR90~1\AppData\Local\Temp\ccNmN5zT.s:30060  .debug_str:000000000002701d .LASF663
C:\Users\CYMR90~1\AppData\Local\Temp\ccNmN5zT.s:24619  .debug_str:0000000000011308 .LASF664
C:\Users\CYMR90~1\AppData\Local\Temp\ccNmN5zT.s:24611  .debug_str:00000000000112aa .LASF665
C:\Users\CYMR90~1\AppData\Local\Temp\ccNmN5zT.s:26516  .debug_str:0000000000018f13 .LASF666
C:\Users\CYMR90~1\AppData\Local\Temp\ccNmN5zT.s:21781  .debug_str:0000000000005d28 .LASF667
C:\Users\CYMR90~1\AppData\Local\Temp\ccNmN5zT.s:31582  .debug_str:000000000002d0e7 .LASF668
C:\Users\CYMR90~1\AppData\Local\Temp\ccNmN5zT.s:22161  .debug_str:0000000000007554 .LASF669
C:\Users\CYMR90~1\AppData\Local\Temp\ccNmN5zT.s:28740  .debug_str:0000000000021ceb .LASF670
C:\Users\CYMR90~1\AppData\Local\Temp\ccNmN5zT.s:25023  .debug_str:0000000000012e1c .LASF671
C:\Users\CYMR90~1\AppData\Local\Temp\ccNmN5zT.s:28154  .debug_str:000000000001f86c .LASF672
C:\Users\CYMR90~1\AppData\Local\Temp\ccNmN5zT.s:28872  .debug_str:0000000000022487 .LASF673
C:\Users\CYMR90~1\AppData\Local\Temp\ccNmN5zT.s:20755  .debug_str:0000000000001ccc .LASF674
C:\Users\CYMR90~1\AppData\Local\Temp\ccNmN5zT.s:25697  .debug_str:000000000001589a .LASF676
C:\Users\CYMR90~1\AppData\Local\Temp\ccNmN5zT.s:29310  .debug_str:0000000000023ea1 .LASF677
C:\Users\CYMR90~1\AppData\Local\Temp\ccNmN5zT.s:26752  .debug_str:0000000000019eca .LASF678
C:\Users\CYMR90~1\AppData\Local\Temp\ccNmN5zT.s:29408  .debug_str:0000000000024563 .LASF679
C:\Users\CYMR90~1\AppData\Local\Temp\ccNmN5zT.s:27872  .debug_str:000000000001e789 .LASF680
C:\Users\CYMR90~1\AppData\Local\Temp\ccNmN5zT.s:30750  .debug_str:0000000000029ca9 .LASF681
C:\Users\CYMR90~1\AppData\Local\Temp\ccNmN5zT.s:21375  .debug_str:00000000000043ab .LASF682
C:\Users\CYMR90~1\AppData\Local\Temp\ccNmN5zT.s:21295  .debug_str:0000000000003e39 .LASF683
C:\Users\CYMR90~1\AppData\Local\Temp\ccNmN5zT.s:22685  .debug_str:0000000000009758 .LASF684
C:\Users\CYMR90~1\AppData\Local\Temp\ccNmN5zT.s:27200  .debug_str:000000000001bb97 .LASF685
C:\Users\CYMR90~1\AppData\Local\Temp\ccNmN5zT.s:28604  .debug_str:0000000000021491 .LASF686
C:\Users\CYMR90~1\AppData\Local\Temp\ccNmN5zT.s:25973  .debug_str:0000000000016abc .LASF687
C:\Users\CYMR90~1\AppData\Local\Temp\ccNmN5zT.s:24547  .debug_str:0000000000010ed4 .LASF688
C:\Users\CYMR90~1\AppData\Local\Temp\ccNmN5zT.s:21175  .debug_str:000000000000367f .LASF689
C:\Users\CYMR90~1\AppData\Local\Temp\ccNmN5zT.s:22055  .debug_str:0000000000006e02 .LASF690
C:\Users\CYMR90~1\AppData\Local\Temp\ccNmN5zT.s:24893  .debug_str:000000000001256d .LASF691
C:\Users\CYMR90~1\AppData\Local\Temp\ccNmN5zT.s:25737  .debug_str:0000000000015b08 .LASF692
C:\Users\CYMR90~1\AppData\Local\Temp\ccNmN5zT.s:21747  .debug_str:0000000000005b47 .LASF695
C:\Users\CYMR90~1\AppData\Local\Temp\ccNmN5zT.s:26138  .debug_str:00000000000176d4 .LASF696
C:\Users\CYMR90~1\AppData\Local\Temp\ccNmN5zT.s:23571  .debug_str:000000000000d1e2 .LASF697
C:\Users\CYMR90~1\AppData\Local\Temp\ccNmN5zT.s:27170  .debug_str:000000000001ba06 .LASF698
C:\Users\CYMR90~1\AppData\Local\Temp\ccNmN5zT.s:29346  .debug_str:0000000000024058 .LASF699
C:\Users\CYMR90~1\AppData\Local\Temp\ccNmN5zT.s:25473  .debug_str:0000000000014a86 .LASF702
C:\Users\CYMR90~1\AppData\Local\Temp\ccNmN5zT.s:22707  .debug_str:00000000000098af .LASF703
C:\Users\CYMR90~1\AppData\Local\Temp\ccNmN5zT.s:28048  .debug_str:000000000001f244 .LASF704
C:\Users\CYMR90~1\AppData\Local\Temp\ccNmN5zT.s:21567  .debug_str:0000000000005056 .LASF705
C:\Users\CYMR90~1\AppData\Local\Temp\ccNmN5zT.s:25799  .debug_str:0000000000015f47 .LASF706
C:\Users\CYMR90~1\AppData\Local\Temp\ccNmN5zT.s:24135  .debug_str:000000000000f48e .LASF707
C:\Users\CYMR90~1\AppData\Local\Temp\ccNmN5zT.s:30472  .debug_str:0000000000028c30 .LASF708
C:\Users\CYMR90~1\AppData\Local\Temp\ccNmN5zT.s:29716  .debug_str:0000000000025b04 .LASF709
C:\Users\CYMR90~1\AppData\Local\Temp\ccNmN5zT.s:23781  .debug_str:000000000000df6c .LASF710
C:\Users\CYMR90~1\AppData\Local\Temp\ccNmN5zT.s:24295  .debug_str:000000000000fec2 .LASF711
C:\Users\CYMR90~1\AppData\Local\Temp\ccNmN5zT.s:25947  .debug_str:00000000000168ca .LASF712
C:\Users\CYMR90~1\AppData\Local\Temp\ccNmN5zT.s:22945  .debug_str:000000000000a744 .LASF713
C:\Users\CYMR90~1\AppData\Local\Temp\ccNmN5zT.s:31296  .debug_str:000000000002be2d .LASF714
C:\Users\CYMR90~1\AppData\Local\Temp\ccNmN5zT.s:22297  .debug_str:0000000000007e68 .LASF715
C:\Users\CYMR90~1\AppData\Local\Temp\ccNmN5zT.s:23205  .debug_str:000000000000b97c .LASF716
C:\Users\CYMR90~1\AppData\Local\Temp\ccNmN5zT.s:28270  .debug_str:000000000001fff0 .LASF717
C:\Users\CYMR90~1\AppData\Local\Temp\ccNmN5zT.s:29674  .debug_str:0000000000025800 .LASF718
C:\Users\CYMR90~1\AppData\Local\Temp\ccNmN5zT.s:29450  .debug_str:00000000000247e5 .LASF719
C:\Users\CYMR90~1\AppData\Local\Temp\ccNmN5zT.s:26452  .debug_str:0000000000018a6a .LASF720
C:\Users\CYMR90~1\AppData\Local\Temp\ccNmN5zT.s:20813  .debug_str:000000000000202c .LASF721
C:\Users\CYMR90~1\AppData\Local\Temp\ccNmN5zT.s:28380  .debug_str:00000000000206c3 .LASF722
C:\Users\CYMR90~1\AppData\Local\Temp\ccNmN5zT.s:27358  .debug_str:000000000001c576 .LASF723
C:\Users\CYMR90~1\AppData\Local\Temp\ccNmN5zT.s:27924  .debug_str:000000000001eada .LASF724
C:\Users\CYMR90~1\AppData\Local\Temp\ccNmN5zT.s:28850  .debug_str:0000000000022364 .LASF725
C:\Users\CYMR90~1\AppData\Local\Temp\ccNmN5zT.s:25139  .debug_str:000000000001363f .LASF726
C:\Users\CYMR90~1\AppData\Local\Temp\ccNmN5zT.s:22939  .debug_str:000000000000a6ea .LASF727
C:\Users\CYMR90~1\AppData\Local\Temp\ccNmN5zT.s:29810  .debug_str:0000000000026109 .LASF728
C:\Users\CYMR90~1\AppData\Local\Temp\ccNmN5zT.s:28160  .debug_str:000000000001f8e1 .LASF729
C:\Users\CYMR90~1\AppData\Local\Temp\ccNmN5zT.s:26640  .debug_str:0000000000019719 .LASF730
C:\Users\CYMR90~1\AppData\Local\Temp\ccNmN5zT.s:25111  .debug_str:000000000001346b .LASF731
C:\Users\CYMR90~1\AppData\Local\Temp\ccNmN5zT.s:29748  .debug_str:0000000000025d1f .LASF732
C:\Users\CYMR90~1\AppData\Local\Temp\ccNmN5zT.s:31506  .debug_str:000000000002cc07 .LASF733
C:\Users\CYMR90~1\AppData\Local\Temp\ccNmN5zT.s:24599  .debug_str:00000000000111d2 .LASF734
C:\Users\CYMR90~1\AppData\Local\Temp\ccNmN5zT.s:24523  .debug_str:0000000000010da4 .LASF735
C:\Users\CYMR90~1\AppData\Local\Temp\ccNmN5zT.s:31434  .debug_str:000000000002c728 .LASF736
C:\Users\CYMR90~1\AppData\Local\Temp\ccNmN5zT.s:23513  .debug_str:000000000000ce31 .LASF737
C:\Users\CYMR90~1\AppData\Local\Temp\ccNmN5zT.s:31364  .debug_str:000000000002c2a5 .LASF738
C:\Users\CYMR90~1\AppData\Local\Temp\ccNmN5zT.s:31180  .debug_str:000000000002b6ad .LASF739
C:\Users\CYMR90~1\AppData\Local\Temp\ccNmN5zT.s:20721  .debug_str:0000000000001aaf .LASF740
C:\Users\CYMR90~1\AppData\Local\Temp\ccNmN5zT.s:23445  .debug_str:000000000000c9ea .LASF741
C:\Users\CYMR90~1\AppData\Local\Temp\ccNmN5zT.s:20697  .debug_str:0000000000001950 .LASF742
C:\Users\CYMR90~1\AppData\Local\Temp\ccNmN5zT.s:24557  .debug_str:0000000000010f44 .LASF743
C:\Users\CYMR90~1\AppData\Local\Temp\ccNmN5zT.s:21157  .debug_str:000000000000359f .LASF744
C:\Users\CYMR90~1\AppData\Local\Temp\ccNmN5zT.s:22559  .debug_str:0000000000008fe7 .LASF745
C:\Users\CYMR90~1\AppData\Local\Temp\ccNmN5zT.s:28862  .debug_str:0000000000022405 .LASF746
C:\Users\CYMR90~1\AppData\Local\Temp\ccNmN5zT.s:20593  .debug_str:00000000000012a7 .LASF747
C:\Users\CYMR90~1\AppData\Local\Temp\ccNmN5zT.s:20583  .debug_str:0000000000001225 .LASF748
C:\Users\CYMR90~1\AppData\Local\Temp\ccNmN5zT.s:21727  .debug_str:00000000000059ce .LASF750
C:\Users\CYMR90~1\AppData\Local\Temp\ccNmN5zT.s:24475  .debug_str:00000000000109ea .LASF751
C:\Users\CYMR90~1\AppData\Local\Temp\ccNmN5zT.s:30640  .debug_str:0000000000029613 .LASF752
C:\Users\CYMR90~1\AppData\Local\Temp\ccNmN5zT.s:24415  .debug_str:0000000000010601 .LASF753
C:\Users\CYMR90~1\AppData\Local\Temp\ccNmN5zT.s:21611  .debug_str:000000000000530b .LASF754
C:\Users\CYMR90~1\AppData\Local\Temp\ccNmN5zT.s:23189  .debug_str:000000000000b8a3 .LASF755
C:\Users\CYMR90~1\AppData\Local\Temp\ccNmN5zT.s:26716  .debug_str:0000000000019cbb .LASF756
C:\Users\CYMR90~1\AppData\Local\Temp\ccNmN5zT.s:22695  .debug_str:0000000000009807 .LASF757
C:\Users\CYMR90~1\AppData\Local\Temp\ccNmN5zT.s:29700  .debug_str:0000000000025a1c .LASF758
C:\Users\CYMR90~1\AppData\Local\Temp\ccNmN5zT.s:31542  .debug_str:000000000002ce7f .LASF759
C:\Users\CYMR90~1\AppData\Local\Temp\ccNmN5zT.s:27086  .debug_str:000000000001b526 .LASF760
C:\Users\CYMR90~1\AppData\Local\Temp\ccNmN5zT.s:31278  .debug_str:000000000002bce7 .LASF761
C:\Users\CYMR90~1\AppData\Local\Temp\ccNmN5zT.s:23117  .debug_str:000000000000b389 .LASF762
C:\Users\CYMR90~1\AppData\Local\Temp\ccNmN5zT.s:27094  .debug_str:000000000001b5ba .LASF765
C:\Users\CYMR90~1\AppData\Local\Temp\ccNmN5zT.s:25771  .debug_str:0000000000015d36 .LASF766
C:\Users\CYMR90~1\AppData\Local\Temp\ccNmN5zT.s:28750  .debug_str:0000000000021d69 .LASF767
C:\Users\CYMR90~1\AppData\Local\Temp\ccNmN5zT.s:25761  .debug_str:0000000000015cc6 .LASF768
C:\Users\CYMR90~1\AppData\Local\Temp\ccNmN5zT.s:20961  .debug_str:000000000000290c .LASF769
C:\Users\CYMR90~1\AppData\Local\Temp\ccNmN5zT.s:27214  .debug_str:000000000001bcbb .LASF770
C:\Users\CYMR90~1\AppData\Local\Temp\ccNmN5zT.s:25855  .debug_str:00000000000162f4 .LASF771
C:\Users\CYMR90~1\AppData\Local\Temp\ccNmN5zT.s:29416  .debug_str:00000000000245d1 .LASF772
C:\Users\CYMR90~1\AppData\Local\Temp\ccNmN5zT.s:29048  .debug_str:0000000000022f1a .LASF773
C:\Users\CYMR90~1\AppData\Local\Temp\ccNmN5zT.s:27524  .debug_str:000000000001d1da .LASF774
C:\Users\CYMR90~1\AppData\Local\Temp\ccNmN5zT.s:29750  .debug_str:0000000000025d35 .LASF775
C:\Users\CYMR90~1\AppData\Local\Temp\ccNmN5zT.s:22837  .debug_str:000000000000a0f8 .LASF776
C:\Users\CYMR90~1\AppData\Local\Temp\ccNmN5zT.s:22853  .debug_str:000000000000a1fc .LASF777
C:\Users\CYMR90~1\AppData\Local\Temp\ccNmN5zT.s:27862  .debug_str:000000000001e6e8 .LASF778
C:\Users\CYMR90~1\AppData\Local\Temp\ccNmN5zT.s:24359  .debug_str:00000000000102da .LASF779
C:\Users\CYMR90~1\AppData\Local\Temp\ccNmN5zT.s:28112  .debug_str:000000000001f61b .LASF780
C:\Users\CYMR90~1\AppData\Local\Temp\ccNmN5zT.s:28746  .debug_str:0000000000021d50 .LASF781
C:\Users\CYMR90~1\AppData\Local\Temp\ccNmN5zT.s:24843  .debug_str:0000000000012265 .LASF782
C:\Users\CYMR90~1\AppData\Local\Temp\ccNmN5zT.s:25981  .debug_str:0000000000016bdf .LASF783
C:\Users\CYMR90~1\AppData\Local\Temp\ccNmN5zT.s:24743  .debug_str:0000000000011c0d .LASF784
C:\Users\CYMR90~1\AppData\Local\Temp\ccNmN5zT.s:24039  .debug_str:000000000000eed2 .LASF785
C:\Users\CYMR90~1\AppData\Local\Temp\ccNmN5zT.s:29116  .debug_str:00000000000232c9 .LASF786
C:\Users\CYMR90~1\AppData\Local\Temp\ccNmN5zT.s:27078  .debug_str:000000000001b4d2 .LASF787
C:\Users\CYMR90~1\AppData\Local\Temp\ccNmN5zT.s:27796  .debug_str:000000000001e317 .LASF788
C:\Users\CYMR90~1\AppData\Local\Temp\ccNmN5zT.s:24213  .debug_str:000000000000f9c4 .LASF789
C:\Users\CYMR90~1\AppData\Local\Temp\ccNmN5zT.s:21661  .debug_str:0000000000005611 .LASF790
C:\Users\CYMR90~1\AppData\Local\Temp\ccNmN5zT.s:30106  .debug_str:0000000000027395 .LASF791
C:\Users\CYMR90~1\AppData\Local\Temp\ccNmN5zT.s:22421  .debug_str:00000000000086df .LASF792
C:\Users\CYMR90~1\AppData\Local\Temp\ccNmN5zT.s:31512  .debug_str:000000000002cc55 .LASF793
C:\Users\CYMR90~1\AppData\Local\Temp\ccNmN5zT.s:22205  .debug_str:0000000000007809 .LASF794
C:\Users\CYMR90~1\AppData\Local\Temp\ccNmN5zT.s:30354  .debug_str:0000000000028469 .LASF795
C:\Users\CYMR90~1\AppData\Local\Temp\ccNmN5zT.s:28354  .debug_str:00000000000204cf .LASF796
C:\Users\CYMR90~1\AppData\Local\Temp\ccNmN5zT.s:31070  .debug_str:000000000002afa6 .LASF797
C:\Users\CYMR90~1\AppData\Local\Temp\ccNmN5zT.s:22039  .debug_str:0000000000006ce0 .LASF798
C:\Users\CYMR90~1\AppData\Local\Temp\ccNmN5zT.s:30416  .debug_str:00000000000288c7 .LASF799
C:\Users\CYMR90~1\AppData\Local\Temp\ccNmN5zT.s:21627  .debug_str:0000000000005402 .LASF800
C:\Users\CYMR90~1\AppData\Local\Temp\ccNmN5zT.s:26854  .debug_str:000000000001a63a .LASF801
C:\Users\CYMR90~1\AppData\Local\Temp\ccNmN5zT.s:26886  .debug_str:000000000001a80a .LASF802
C:\Users\CYMR90~1\AppData\Local\Temp\ccNmN5zT.s:22759  .debug_str:0000000000009c1b .LASF803
C:\Users\CYMR90~1\AppData\Local\Temp\ccNmN5zT.s:25241  .debug_str:0000000000013c63 .LASF804
C:\Users\CYMR90~1\AppData\Local\Temp\ccNmN5zT.s:22053  .debug_str:0000000000006da7 .LASF805
C:\Users\CYMR90~1\AppData\Local\Temp\ccNmN5zT.s:24699  .debug_str:00000000000118ab .LASF806
C:\Users\CYMR90~1\AppData\Local\Temp\ccNmN5zT.s:27818  .debug_str:000000000001e42d .LASF807
C:\Users\CYMR90~1\AppData\Local\Temp\ccNmN5zT.s:27408  .debug_str:000000000001c95a .LASF808
C:\Users\CYMR90~1\AppData\Local\Temp\ccNmN5zT.s:29820  .debug_str:00000000000261a0 .LASF809
C:\Users\CYMR90~1\AppData\Local\Temp\ccNmN5zT.s:31282  .debug_str:000000000002bd3c .LASF810
C:\Users\CYMR90~1\AppData\Local\Temp\ccNmN5zT.s:22445  .debug_str:0000000000008853 .LASF811
C:\Users\CYMR90~1\AppData\Local\Temp\ccNmN5zT.s:21357  .debug_str:0000000000004295 .LASF812
C:\Users\CYMR90~1\AppData\Local\Temp\ccNmN5zT.s:31316  .debug_str:000000000002bfe1 .LASF813
C:\Users\CYMR90~1\AppData\Local\Temp\ccNmN5zT.s:21723  .debug_str:00000000000059a7 .LASF814
C:\Users\CYMR90~1\AppData\Local\Temp\ccNmN5zT.s:21947  .debug_str:000000000000671e .LASF815
C:\Users\CYMR90~1\AppData\Local\Temp\ccNmN5zT.s:27184  .debug_str:000000000001bac4 .LASF816
C:\Users\CYMR90~1\AppData\Local\Temp\ccNmN5zT.s:22623  .debug_str:0000000000009380 .LASF817
C:\Users\CYMR90~1\AppData\Local\Temp\ccNmN5zT.s:27324  .debug_str:000000000001c3b5 .LASF818
C:\Users\CYMR90~1\AppData\Local\Temp\ccNmN5zT.s:27218  .debug_str:000000000001bcd3 .LASF819
C:\Users\CYMR90~1\AppData\Local\Temp\ccNmN5zT.s:20467  .debug_str:0000000000000b10 .LASF820
C:\Users\CYMR90~1\AppData\Local\Temp\ccNmN5zT.s:30906  .debug_str:000000000002a592 .LASF821
C:\Users\CYMR90~1\AppData\Local\Temp\ccNmN5zT.s:29412  .debug_str:00000000000245a1 .LASF822
C:\Users\CYMR90~1\AppData\Local\Temp\ccNmN5zT.s:22589  .debug_str:0000000000009162 .LASF823
C:\Users\CYMR90~1\AppData\Local\Temp\ccNmN5zT.s:25903  .debug_str:0000000000016635 .LASF824
C:\Users\CYMR90~1\AppData\Local\Temp\ccNmN5zT.s:27510  .debug_str:000000000001d102 .LASF825
C:\Users\CYMR90~1\AppData\Local\Temp\ccNmN5zT.s:25695  .debug_str:0000000000015879 .LASF826
C:\Users\CYMR90~1\AppData\Local\Temp\ccNmN5zT.s:21245  .debug_str:0000000000003b1d .LASF827
C:\Users\CYMR90~1\AppData\Local\Temp\ccNmN5zT.s:24019  .debug_str:000000000000edc5 .LASF828
C:\Users\CYMR90~1\AppData\Local\Temp\ccNmN5zT.s:29520  .debug_str:0000000000024cad .LASF829
C:\Users\CYMR90~1\AppData\Local\Temp\ccNmN5zT.s:29690  .debug_str:000000000002595c .LASF830
C:\Users\CYMR90~1\AppData\Local\Temp\ccNmN5zT.s:23195  .debug_str:000000000000b8f1 .LASF831
C:\Users\CYMR90~1\AppData\Local\Temp\ccNmN5zT.s:23965  .debug_str:000000000000ea97 .LASF832
C:\Users\CYMR90~1\AppData\Local\Temp\ccNmN5zT.s:21809  .debug_str:0000000000005eb5 .LASF833
C:\Users\CYMR90~1\AppData\Local\Temp\ccNmN5zT.s:24601  .debug_str:00000000000111e3 .LASF834
C:\Users\CYMR90~1\AppData\Local\Temp\ccNmN5zT.s:26374  .debug_str:0000000000018592 .LASF835
C:\Users\CYMR90~1\AppData\Local\Temp\ccNmN5zT.s:24505  .debug_str:0000000000010c31 .LASF836
C:\Users\CYMR90~1\AppData\Local\Temp\ccNmN5zT.s:28262  .debug_str:000000000001ff74 .LASF837
C:\Users\CYMR90~1\AppData\Local\Temp\ccNmN5zT.s:22491  .debug_str:0000000000008b72 .LASF838
C:\Users\CYMR90~1\AppData\Local\Temp\ccNmN5zT.s:21649  .debug_str:0000000000005572 .LASF839
C:\Users\CYMR90~1\AppData\Local\Temp\ccNmN5zT.s:24405  .debug_str:0000000000010550 .LASF840
C:\Users\CYMR90~1\AppData\Local\Temp\ccNmN5zT.s:23331  .debug_str:000000000000c259 .LASF841
C:\Users\CYMR90~1\AppData\Local\Temp\ccNmN5zT.s:27424  .debug_str:000000000001ca68 .LASF842
C:\Users\CYMR90~1\AppData\Local\Temp\ccNmN5zT.s:20537  .debug_str:0000000000000fa4 .LASF843
C:\Users\CYMR90~1\AppData\Local\Temp\ccNmN5zT.s:20899  .debug_str:00000000000024d8 .LASF844
C:\Users\CYMR90~1\AppData\Local\Temp\ccNmN5zT.s:29272  .debug_str:0000000000023c74 .LASF845
C:\Users\CYMR90~1\AppData\Local\Temp\ccNmN5zT.s:20297  .debug_str:0000000000000096 .LASF846
C:\Users\CYMR90~1\AppData\Local\Temp\ccNmN5zT.s:22287  .debug_str:0000000000007ddb .LASF847
C:\Users\CYMR90~1\AppData\Local\Temp\ccNmN5zT.s:28118  .debug_str:000000000001f669 .LASF848
C:\Users\CYMR90~1\AppData\Local\Temp\ccNmN5zT.s:22253  .debug_str:0000000000007b20 .LASF849
C:\Users\CYMR90~1\AppData\Local\Temp\ccNmN5zT.s:23625  .debug_str:000000000000d5e8 .LASF852
C:\Users\CYMR90~1\AppData\Local\Temp\ccNmN5zT.s:30466  .debug_str:0000000000028bd8 .LASF853
C:\Users\CYMR90~1\AppData\Local\Temp\ccNmN5zT.s:25545  .debug_str:0000000000014fba .LASF854
C:\Users\CYMR90~1\AppData\Local\Temp\ccNmN5zT.s:28756  .debug_str:0000000000021dfe .LASF856
C:\Users\CYMR90~1\AppData\Local\Temp\ccNmN5zT.s:27648  .debug_str:000000000001d9ad .LASF857
C:\Users\CYMR90~1\AppData\Local\Temp\ccNmN5zT.s:30288  .debug_str:0000000000027f06 .LASF858
C:\Users\CYMR90~1\AppData\Local\Temp\ccNmN5zT.s:23613  .debug_str:000000000000d519 .LASF859
C:\Users\CYMR90~1\AppData\Local\Temp\ccNmN5zT.s:24555  .debug_str:0000000000010f3a .LASF860
C:\Users\CYMR90~1\AppData\Local\Temp\ccNmN5zT.s:28686  .debug_str:000000000002198b .LASF861
C:\Users\CYMR90~1\AppData\Local\Temp\ccNmN5zT.s:27854  .debug_str:000000000001e698 .LASF862
C:\Users\CYMR90~1\AppData\Local\Temp\ccNmN5zT.s:20633  .debug_str:00000000000014c7 .LASF863
C:\Users\CYMR90~1\AppData\Local\Temp\ccNmN5zT.s:21301  .debug_str:0000000000003e72 .LASF864
C:\Users\CYMR90~1\AppData\Local\Temp\ccNmN5zT.s:21695  .debug_str:000000000000580d .LASF865
C:\Users\CYMR90~1\AppData\Local\Temp\ccNmN5zT.s:22887  .debug_str:000000000000a435 .LASF866
C:\Users\CYMR90~1\AppData\Local\Temp\ccNmN5zT.s:22359  .debug_str:000000000000832d .LASF867
C:\Users\CYMR90~1\AppData\Local\Temp\ccNmN5zT.s:27578  .debug_str:000000000001d4e6 .LASF868
C:\Users\CYMR90~1\AppData\Local\Temp\ccNmN5zT.s:28202  .debug_str:000000000001fb9d .LASF869
C:\Users\CYMR90~1\AppData\Local\Temp\ccNmN5zT.s:29286  .debug_str:0000000000023d3a .LASF870
C:\Users\CYMR90~1\AppData\Local\Temp\ccNmN5zT.s:22529  .debug_str:0000000000008e05 .LASF871
C:\Users\CYMR90~1\AppData\Local\Temp\ccNmN5zT.s:22963  .debug_str:000000000000a97d .LASF872
C:\Users\CYMR90~1\AppData\Local\Temp\ccNmN5zT.s:27416  .debug_str:000000000001c9f6 .LASF873
C:\Users\CYMR90~1\AppData\Local\Temp\ccNmN5zT.s:29990  .debug_str:0000000000026bd4 .LASF874
C:\Users\CYMR90~1\AppData\Local\Temp\ccNmN5zT.s:24763  .debug_str:0000000000011d25 .LASF875
C:\Users\CYMR90~1\AppData\Local\Temp\ccNmN5zT.s:25451  .debug_str:0000000000014989 .LASF876
C:\Users\CYMR90~1\AppData\Local\Temp\ccNmN5zT.s:22765  .debug_str:0000000000009c70 .LASF877
C:\Users\CYMR90~1\AppData\Local\Temp\ccNmN5zT.s:27124  .debug_str:000000000001b78d .LASF878
C:\Users\CYMR90~1\AppData\Local\Temp\ccNmN5zT.s:30758  .debug_str:0000000000029d2c .LASF879
C:\Users\CYMR90~1\AppData\Local\Temp\ccNmN5zT.s:26088  .debug_str:00000000000173d8 .LASF880
C:\Users\CYMR90~1\AppData\Local\Temp\ccNmN5zT.s:21629  .debug_str:000000000000541b .LASF881
C:\Users\CYMR90~1\AppData\Local\Temp\ccNmN5zT.s:24983  .debug_str:0000000000012b91 .LASF882
C:\Users\CYMR90~1\AppData\Local\Temp\ccNmN5zT.s:28090  .debug_str:000000000001f4ed .LASF883
C:\Users\CYMR90~1\AppData\Local\Temp\ccNmN5zT.s:28274  .debug_str:000000000002001d .LASF884
C:\Users\CYMR90~1\AppData\Local\Temp\ccNmN5zT.s:31566  .debug_str:000000000002cfc5 .LASF885
C:\Users\CYMR90~1\AppData\Local\Temp\ccNmN5zT.s:27130  .debug_str:000000000001b7e5 .LASF886
C:\Users\CYMR90~1\AppData\Local\Temp\ccNmN5zT.s:22635  .debug_str:0000000000009427 .LASF887
C:\Users\CYMR90~1\AppData\Local\Temp\ccNmN5zT.s:29236  .debug_str:0000000000023a69 .LASF888
C:\Users\CYMR90~1\AppData\Local\Temp\ccNmN5zT.s:24921  .debug_str:000000000001275b .LASF889
C:\Users\CYMR90~1\AppData\Local\Temp\ccNmN5zT.s:29166  .debug_str:00000000000235c1 .LASF890
C:\Users\CYMR90~1\AppData\Local\Temp\ccNmN5zT.s:21451  .debug_str:000000000000496f .LASF891
C:\Users\CYMR90~1\AppData\Local\Temp\ccNmN5zT.s:23911  .debug_str:000000000000e730 .LASF892
C:\Users\CYMR90~1\AppData\Local\Temp\ccNmN5zT.s:29934  .debug_str:0000000000026889 .LASF893
C:\Users\CYMR90~1\AppData\Local\Temp\ccNmN5zT.s:29328  .debug_str:0000000000023f65 .LASF894
C:\Users\CYMR90~1\AppData\Local\Temp\ccNmN5zT.s:20605  .debug_str:0000000000001351 .LASF895
C:\Users\CYMR90~1\AppData\Local\Temp\ccNmN5zT.s:25305  .debug_str:0000000000014047 .LASF896
C:\Users\CYMR90~1\AppData\Local\Temp\ccNmN5zT.s:21539  .debug_str:0000000000004eb9 .LASF897
C:\Users\CYMR90~1\AppData\Local\Temp\ccNmN5zT.s:22755  .debug_str:0000000000009bdc .LASF898
C:\Users\CYMR90~1\AppData\Local\Temp\ccNmN5zT.s:30234  .debug_str:0000000000027b7c .LASF899
C:\Users\CYMR90~1\AppData\Local\Temp\ccNmN5zT.s:23075  .debug_str:000000000000b134 .LASF900
C:\Users\CYMR90~1\AppData\Local\Temp\ccNmN5zT.s:27176  .debug_str:000000000001ba3c .LASF901
C:\Users\CYMR90~1\AppData\Local\Temp\ccNmN5zT.s:30774  .debug_str:0000000000029e19 .LASF902
C:\Users\CYMR90~1\AppData\Local\Temp\ccNmN5zT.s:29518  .debug_str:0000000000024c87 .LASF903
C:\Users\CYMR90~1\AppData\Local\Temp\ccNmN5zT.s:30376  .debug_str:00000000000285d4 .LASF904
C:\Users\CYMR90~1\AppData\Local\Temp\ccNmN5zT.s:24967  .debug_str:0000000000012a83 .LASF905
C:\Users\CYMR90~1\AppData\Local\Temp\ccNmN5zT.s:22409  .debug_str:0000000000008645 .LASF906
C:\Users\CYMR90~1\AppData\Local\Temp\ccNmN5zT.s:30946  .debug_str:000000000002a855 .LASF907
C:\Users\CYMR90~1\AppData\Local\Temp\ccNmN5zT.s:23907  .debug_str:000000000000e6ed .LASF908
C:\Users\CYMR90~1\AppData\Local\Temp\ccNmN5zT.s:30210  .debug_str:00000000000279bc .LASF909
C:\Users\CYMR90~1\AppData\Local\Temp\ccNmN5zT.s:24525  .debug_str:0000000000010db5 .LASF910
C:\Users\CYMR90~1\AppData\Local\Temp\ccNmN5zT.s:20995  .debug_str:0000000000002b41 .LASF911
C:\Users\CYMR90~1\AppData\Local\Temp\ccNmN5zT.s:20577  .debug_str:00000000000011e8 .LASF912
C:\Users\CYMR90~1\AppData\Local\Temp\ccNmN5zT.s:28606  .debug_str:00000000000214b5 .LASF913
C:\Users\CYMR90~1\AppData\Local\Temp\ccNmN5zT.s:29500  .debug_str:0000000000024b57 .LASF914
C:\Users\CYMR90~1\AppData\Local\Temp\ccNmN5zT.s:23457  .debug_str:000000000000cabc .LASF915
C:\Users\CYMR90~1\AppData\Local\Temp\ccNmN5zT.s:23771  .debug_str:000000000000dead .LASF916
C:\Users\CYMR90~1\AppData\Local\Temp\ccNmN5zT.s:24341  .debug_str:00000000000101ac .LASF917
C:\Users\CYMR90~1\AppData\Local\Temp\ccNmN5zT.s:31022  .debug_str:000000000002ac8d .LASF918
C:\Users\CYMR90~1\AppData\Local\Temp\ccNmN5zT.s:20561  .debug_str:00000000000010e3 .LASF919
C:\Users\CYMR90~1\AppData\Local\Temp\ccNmN5zT.s:23063  .debug_str:000000000000b069 .LASF920
C:\Users\CYMR90~1\AppData\Local\Temp\ccNmN5zT.s:29452  .debug_str:00000000000247fa .LASF921
C:\Users\CYMR90~1\AppData\Local\Temp\ccNmN5zT.s:26880  .debug_str:000000000001a798 .LASF922
C:\Users\CYMR90~1\AppData\Local\Temp\ccNmN5zT.s:29970  .debug_str:0000000000026a95 .LASF923
C:\Users\CYMR90~1\AppData\Local\Temp\ccNmN5zT.s:26020  .debug_str:0000000000016fe1 .LASF924
C:\Users\CYMR90~1\AppData\Local\Temp\ccNmN5zT.s:20953  .debug_str:0000000000002879 .LASF925
C:\Users\CYMR90~1\AppData\Local\Temp\ccNmN5zT.s:27088  .debug_str:000000000001b560 .LASF926
C:\Users\CYMR90~1\AppData\Local\Temp\ccNmN5zT.s:20675  .debug_str:00000000000017de .LASF927
C:\Users\CYMR90~1\AppData\Local\Temp\ccNmN5zT.s:25479  .debug_str:0000000000014b25 .LASF928
C:\Users\CYMR90~1\AppData\Local\Temp\ccNmN5zT.s:28150  .debug_str:000000000001f833 .LASF929
C:\Users\CYMR90~1\AppData\Local\Temp\ccNmN5zT.s:31280  .debug_str:000000000002bd1f .LASF930
C:\Users\CYMR90~1\AppData\Local\Temp\ccNmN5zT.s:31504  .debug_str:000000000002cbe9 .LASF931
C:\Users\CYMR90~1\AppData\Local\Temp\ccNmN5zT.s:28050  .debug_str:000000000001f258 .LASF932
C:\Users\CYMR90~1\AppData\Local\Temp\ccNmN5zT.s:30752  .debug_str:0000000000029cb9 .LASF933
C:\Users\CYMR90~1\AppData\Local\Temp\ccNmN5zT.s:25819  .debug_str:00000000000160cf .LASF934
C:\Users\CYMR90~1\AppData\Local\Temp\ccNmN5zT.s:26648  .debug_str:0000000000019793 .LASF935
C:\Users\CYMR90~1\AppData\Local\Temp\ccNmN5zT.s:25699  .debug_str:00000000000158ae .LASF936
C:\Users\CYMR90~1\AppData\Local\Temp\ccNmN5zT.s:29590  .debug_str:000000000002519f .LASF937
C:\Users\CYMR90~1\AppData\Local\Temp\ccNmN5zT.s:20485  .debug_str:0000000000000c43 .LASF938
C:\Users\CYMR90~1\AppData\Local\Temp\ccNmN5zT.s:28418  .debug_str:0000000000020923 .LASF939
C:\Users\CYMR90~1\AppData\Local\Temp\ccNmN5zT.s:29676  .debug_str:000000000002580c .LASF940
C:\Users\CYMR90~1\AppData\Local\Temp\ccNmN5zT.s:23197  .debug_str:000000000000b90f .LASF941
C:\Users\CYMR90~1\AppData\Local\Temp\ccNmN5zT.s:26868  .debug_str:000000000001a6df .LASF942
C:\Users\CYMR90~1\AppData\Local\Temp\ccNmN5zT.s:23951  .debug_str:000000000000e985 .LASF943
C:\Users\CYMR90~1\AppData\Local\Temp\ccNmN5zT.s:29798  .debug_str:0000000000026031 .LASF944
C:\Users\CYMR90~1\AppData\Local\Temp\ccNmN5zT.s:27266  .debug_str:000000000001c036 .LASF945
C:\Users\CYMR90~1\AppData\Local\Temp\ccNmN5zT.s:24157  .debug_str:000000000000f5dc .LASF946
C:\Users\CYMR90~1\AppData\Local\Temp\ccNmN5zT.s:26164  .debug_str:000000000001787c .LASF947
C:\Users\CYMR90~1\AppData\Local\Temp\ccNmN5zT.s:27780  .debug_str:000000000001e231 .LASF948
C:\Users\CYMR90~1\AppData\Local\Temp\ccNmN5zT.s:24501  .debug_str:0000000000010bf3 .LASF949
C:\Users\CYMR90~1\AppData\Local\Temp\ccNmN5zT.s:23519  .debug_str:000000000000ce87 .LASF950
C:\Users\CYMR90~1\AppData\Local\Temp\ccNmN5zT.s:22113  .debug_str:0000000000007237 .LASF952
C:\Users\CYMR90~1\AppData\Local\Temp\ccNmN5zT.s:25623  .debug_str:0000000000015471 .LASF953
C:\Users\CYMR90~1\AppData\Local\Temp\ccNmN5zT.s:23553  .debug_str:000000000000d0c1 .LASF954
C:\Users\CYMR90~1\AppData\Local\Temp\ccNmN5zT.s:31496  .debug_str:000000000002cb74 .LASF955
C:\Users\CYMR90~1\AppData\Local\Temp\ccNmN5zT.s:30654  .debug_str:00000000000296bc .LASF956
C:\Users\CYMR90~1\AppData\Local\Temp\ccNmN5zT.s:30742  .debug_str:0000000000029c23 .LASF960
C:\Users\CYMR90~1\AppData\Local\Temp\ccNmN5zT.s:22661  .debug_str:0000000000009613 .LASF961
C:\Users\CYMR90~1\AppData\Local\Temp\ccNmN5zT.s:30000  .debug_str:0000000000026c6a .LASF962
C:\Users\CYMR90~1\AppData\Local\Temp\ccNmN5zT.s:24735  .debug_str:0000000000011b91 .LASF963
C:\Users\CYMR90~1\AppData\Local\Temp\ccNmN5zT.s:22139  .debug_str:000000000000741e .LASF964
C:\Users\CYMR90~1\AppData\Local\Temp\ccNmN5zT.s:28790  .debug_str:0000000000021fd2 .LASF965
C:\Users\CYMR90~1\AppData\Local\Temp\ccNmN5zT.s:27082  .debug_str:000000000001b4f4 .LASF966
C:\Users\CYMR90~1\AppData\Local\Temp\ccNmN5zT.s:29940  .debug_str:00000000000268e5 .LASF967
C:\Users\CYMR90~1\AppData\Local\Temp\ccNmN5zT.s:31064  .debug_str:000000000002af38 .LASF968
C:\Users\CYMR90~1\AppData\Local\Temp\ccNmN5zT.s:21867  .debug_str:0000000000006253 .LASF969
C:\Users\CYMR90~1\AppData\Local\Temp\ccNmN5zT.s:25345  .debug_str:00000000000142f9 .LASF970
C:\Users\CYMR90~1\AppData\Local\Temp\ccNmN5zT.s:31152  .debug_str:000000000002b4da .LASF971
C:\Users\CYMR90~1\AppData\Local\Temp\ccNmN5zT.s:23961  .debug_str:000000000000ea51 .LASF972
C:\Users\CYMR90~1\AppData\Local\Temp\ccNmN5zT.s:23929  .debug_str:000000000000e856 .LASF973
C:\Users\CYMR90~1\AppData\Local\Temp\ccNmN5zT.s:23577  .debug_str:000000000000d23b .LASF974
C:\Users\CYMR90~1\AppData\Local\Temp\ccNmN5zT.s:25953  .debug_str:0000000000016944 .LASF975
C:\Users\CYMR90~1\AppData\Local\Temp\ccNmN5zT.s:31530  .debug_str:000000000002cd28 .LASF976
C:\Users\CYMR90~1\AppData\Local\Temp\ccNmN5zT.s:23515  .debug_str:000000000000ce42 .LASF977
C:\Users\CYMR90~1\AppData\Local\Temp\ccNmN5zT.s:31554  .debug_str:000000000002cf34 .LASF978
C:\Users\CYMR90~1\AppData\Local\Temp\ccNmN5zT.s:29780  .debug_str:0000000000025ef0 .LASF979
C:\Users\CYMR90~1\AppData\Local\Temp\ccNmN5zT.s:29840  .debug_str:00000000000262d5 .LASF980
C:\Users\CYMR90~1\AppData\Local\Temp\ccNmN5zT.s:24017  .debug_str:000000000000edab .LASF981
C:\Users\CYMR90~1\AppData\Local\Temp\ccNmN5zT.s:21577  .debug_str:0000000000005100 .LASF982
C:\Users\CYMR90~1\AppData\Local\Temp\ccNmN5zT.s:24759  .debug_str:0000000000011d08 .LASF983
C:\Users\CYMR90~1\AppData\Local\Temp\ccNmN5zT.s:27488  .debug_str:000000000001cf04 .LASF984
C:\Users\CYMR90~1\AppData\Local\Temp\ccNmN5zT.s:27502  .debug_str:000000000001cff0 .LASF985
C:\Users\CYMR90~1\AppData\Local\Temp\ccNmN5zT.s:29080  .debug_str:00000000000230f0 .LASF986
C:\Users\CYMR90~1\AppData\Local\Temp\ccNmN5zT.s:25767  .debug_str:0000000000015d12 .LASF987
C:\Users\CYMR90~1\AppData\Local\Temp\ccNmN5zT.s:21013  .debug_str:0000000000002c54 .LASF988
C:\Users\CYMR90~1\AppData\Local\Temp\ccNmN5zT.s:28994  .debug_str:0000000000022c3d .LASF989
C:\Users\CYMR90~1\AppData\Local\Temp\ccNmN5zT.s:26466  .debug_str:0000000000018b2b .LASF990
C:\Users\CYMR90~1\AppData\Local\Temp\ccNmN5zT.s:23511  .debug_str:000000000000ce1a .LASF991
C:\Users\CYMR90~1\AppData\Local\Temp\ccNmN5zT.s:29942  .debug_str:000000000002690d .LASF992
C:\Users\CYMR90~1\AppData\Local\Temp\ccNmN5zT.s:22157  .debug_str:000000000000751b .LASF993
C:\Users\CYMR90~1\AppData\Local\Temp\ccNmN5zT.s:29760  .debug_str:0000000000025d9f .LASF994
C:\Users\CYMR90~1\AppData\Local\Temp\ccNmN5zT.s:26550  .debug_str:00000000000191cd .LASF995
C:\Users\CYMR90~1\AppData\Local\Temp\ccNmN5zT.s:30554  .debug_str:000000000002912c .LASF996
C:\Users\CYMR90~1\AppData\Local\Temp\ccNmN5zT.s:27692  .debug_str:000000000001dc38 .LASF997
C:\Users\CYMR90~1\AppData\Local\Temp\ccNmN5zT.s:27762  .debug_str:000000000001e117 .LASF998
C:\Users\CYMR90~1\AppData\Local\Temp\ccNmN5zT.s:20911  .debug_str:000000000000256c .LASF999
C:\Users\CYMR90~1\AppData\Local\Temp\ccNmN5zT.s:21251  .debug_str:0000000000003b77 .LASF1000
C:\Users\CYMR90~1\AppData\Local\Temp\ccNmN5zT.s:29428  .debug_str:000000000002468f .LASF1001
C:\Users\CYMR90~1\AppData\Local\Temp\ccNmN5zT.s:24349  .debug_str:0000000000010234 .LASF1002
C:\Users\CYMR90~1\AppData\Local\Temp\ccNmN5zT.s:21531  .debug_str:0000000000004e60 .LASF1003
C:\Users\CYMR90~1\AppData\Local\Temp\ccNmN5zT.s:27308  .debug_str:000000000001c2ce .LASF1004
C:\Users\CYMR90~1\AppData\Local\Temp\ccNmN5zT.s:24713  .debug_str:00000000000119ac .LASF1005
C:\Users\CYMR90~1\AppData\Local\Temp\ccNmN5zT.s:23475  .debug_str:000000000000cbf4 .LASF1006
C:\Users\CYMR90~1\AppData\Local\Temp\ccNmN5zT.s:21841  .debug_str:00000000000060bc .LASF1007
C:\Users\CYMR90~1\AppData\Local\Temp\ccNmN5zT.s:28786  .debug_str:0000000000021f9a .LASF1008
C:\Users\CYMR90~1\AppData\Local\Temp\ccNmN5zT.s:26244  .debug_str:0000000000017d7d .LASF1009
C:\Users\CYMR90~1\AppData\Local\Temp\ccNmN5zT.s:26398  .debug_str:00000000000186de .LASF1010
C:\Users\CYMR90~1\AppData\Local\Temp\ccNmN5zT.s:23787  .debug_str:000000000000dfb1 .LASF1011
C:\Users\CYMR90~1\AppData\Local\Temp\ccNmN5zT.s:27548  .debug_str:000000000001d325 .LASF1012
C:\Users\CYMR90~1\AppData\Local\Temp\ccNmN5zT.s:28998  .debug_str:0000000000022c68 .LASF1013
C:\Users\CYMR90~1\AppData\Local\Temp\ccNmN5zT.s:26666  .debug_str:000000000001991d .LASF1014
C:\Users\CYMR90~1\AppData\Local\Temp\ccNmN5zT.s:23395  .debug_str:000000000000c63b .LASF1015
C:\Users\CYMR90~1\AppData\Local\Temp\ccNmN5zT.s:21731  .debug_str:0000000000005a04 .LASF1016
C:\Users\CYMR90~1\AppData\Local\Temp\ccNmN5zT.s:21685  .debug_str:0000000000005762 .LASF1017
C:\Users\CYMR90~1\AppData\Local\Temp\ccNmN5zT.s:30096  .debug_str:0000000000027255 .LASF1018
C:\Users\CYMR90~1\AppData\Local\Temp\ccNmN5zT.s:24027  .debug_str:000000000000ee2d .LASF1019
C:\Users\CYMR90~1\AppData\Local\Temp\ccNmN5zT.s:20905  .debug_str:0000000000002523 .LASF1020
C:\Users\CYMR90~1\AppData\Local\Temp\ccNmN5zT.s:26280  .debug_str:0000000000017fc7 .LASF1021
C:\Users\CYMR90~1\AppData\Local\Temp\ccNmN5zT.s:23329  .debug_str:000000000000c241 .LASF1022
C:\Users\CYMR90~1\AppData\Local\Temp\ccNmN5zT.s:30020  .debug_str:0000000000026d85 .LASF1023
C:\Users\CYMR90~1\AppData\Local\Temp\ccNmN5zT.s:22571  .debug_str:000000000000908a .LASF1024
C:\Users\CYMR90~1\AppData\Local\Temp\ccNmN5zT.s:26856  .debug_str:000000000001a654 .LASF1025
C:\Users\CYMR90~1\AppData\Local\Temp\ccNmN5zT.s:24529  .debug_str:0000000000010df6 .LASF1026
C:\Users\CYMR90~1\AppData\Local\Temp\ccNmN5zT.s:25471  .debug_str:0000000000014a71 .LASF1027
C:\Users\CYMR90~1\AppData\Local\Temp\ccNmN5zT.s:27626  .debug_str:000000000001d80a .LASF1028
C:\Users\CYMR90~1\AppData\Local\Temp\ccNmN5zT.s:28008  .debug_str:000000000001efb2 .LASF1029
C:\Users\CYMR90~1\AppData\Local\Temp\ccNmN5zT.s:29304  .debug_str:0000000000023e4f .LASF1030
C:\Users\CYMR90~1\AppData\Local\Temp\ccNmN5zT.s:28374  .debug_str:000000000002067d .LASF1031
C:\Users\CYMR90~1\AppData\Local\Temp\ccNmN5zT.s:30656  .debug_str:0000000000029724 .LASF1032
C:\Users\CYMR90~1\AppData\Local\Temp\ccNmN5zT.s:22715  .debug_str:0000000000009986 .LASF1033
C:\Users\CYMR90~1\AppData\Local\Temp\ccNmN5zT.s:21585  .debug_str:0000000000005182 .LASF1034
C:\Users\CYMR90~1\AppData\Local\Temp\ccNmN5zT.s:26594  .debug_str:0000000000019454 .LASF1035
C:\Users\CYMR90~1\AppData\Local\Temp\ccNmN5zT.s:26858  .debug_str:000000000001a669 .LASF1036
C:\Users\CYMR90~1\AppData\Local\Temp\ccNmN5zT.s:29094  .debug_str:0000000000023187 .LASF1037
C:\Users\CYMR90~1\AppData\Local\Temp\ccNmN5zT.s:24195  .debug_str:000000000000f8d9 .LASF1038
C:\Users\CYMR90~1\AppData\Local\Temp\ccNmN5zT.s:27734  .debug_str:000000000001df6e .LASF1039
C:\Users\CYMR90~1\AppData\Local\Temp\ccNmN5zT.s:25637  .debug_str:0000000000015569 .LASF1040
C:\Users\CYMR90~1\AppData\Local\Temp\ccNmN5zT.s:24105  .debug_str:000000000000f2b9 .LASF1041
C:\Users\CYMR90~1\AppData\Local\Temp\ccNmN5zT.s:25927  .debug_str:0000000000016796 .LASF1042
C:\Users\CYMR90~1\AppData\Local\Temp\ccNmN5zT.s:24351  .debug_str:000000000001024b .LASF1043
C:\Users\CYMR90~1\AppData\Local\Temp\ccNmN5zT.s:20317  .debug_str:00000000000001a2 .LASF1044
C:\Users\CYMR90~1\AppData\Local\Temp\ccNmN5zT.s:22583  .debug_str:0000000000009111 .LASF1045
C:\Users\CYMR90~1\AppData\Local\Temp\ccNmN5zT.s:26788  .debug_str:000000000001a0e6 .LASF1046
C:\Users\CYMR90~1\AppData\Local\Temp\ccNmN5zT.s:25887  .debug_str:00000000000164c9 .LASF1047
C:\Users\CYMR90~1\AppData\Local\Temp\ccNmN5zT.s:29138  .debug_str:0000000000023409 .LASF1048
C:\Users\CYMR90~1\AppData\Local\Temp\ccNmN5zT.s:27974  .debug_str:000000000001eda1 .LASF1049
C:\Users\CYMR90~1\AppData\Local\Temp\ccNmN5zT.s:21087  .debug_str:0000000000003118 .LASF1050
C:\Users\CYMR90~1\AppData\Local\Temp\ccNmN5zT.s:27984  .debug_str:000000000001ee2c .LASF1051
C:\Users\CYMR90~1\AppData\Local\Temp\ccNmN5zT.s:28184  .debug_str:000000000001fa69 .LASF1052
C:\Users\CYMR90~1\AppData\Local\Temp\ccNmN5zT.s:23073  .debug_str:000000000000b122 .LASF1053
C:\Users\CYMR90~1\AppData\Local\Temp\ccNmN5zT.s:29038  .debug_str:0000000000022e91 .LASF1054
C:\Users\CYMR90~1\AppData\Local\Temp\ccNmN5zT.s:25009  .debug_str:0000000000012d27 .LASF1055
C:\Users\CYMR90~1\AppData\Local\Temp\ccNmN5zT.s:23957  .debug_str:000000000000e9ff .LASF1056
C:\Users\CYMR90~1\AppData\Local\Temp\ccNmN5zT.s:30268  .debug_str:0000000000027dda .LASF1057
C:\Users\CYMR90~1\AppData\Local\Temp\ccNmN5zT.s:30864  .debug_str:000000000002a31f .LASF1058
C:\Users\CYMR90~1\AppData\Local\Temp\ccNmN5zT.s:29588  .debug_str:000000000002517d .LASF1059
C:\Users\CYMR90~1\AppData\Local\Temp\ccNmN5zT.s:22903  .debug_str:000000000000a520 .LASF1060
C:\Users\CYMR90~1\AppData\Local\Temp\ccNmN5zT.s:22389  .debug_str:0000000000008523 .LASF1061
C:\Users\CYMR90~1\AppData\Local\Temp\ccNmN5zT.s:20449  .debug_str:00000000000009a8 .LASF1062
C:\Users\CYMR90~1\AppData\Local\Temp\ccNmN5zT.s:25381  .debug_str:00000000000144de .LASF1063
C:\Users\CYMR90~1\AppData\Local\Temp\ccNmN5zT.s:21297  .debug_str:0000000000003e50 .LASF1064
C:\Users\CYMR90~1\AppData\Local\Temp\ccNmN5zT.s:20391  .debug_str:000000000000060f .LASF1065
C:\Users\CYMR90~1\AppData\Local\Temp\ccNmN5zT.s:31560  .debug_str:000000000002cf7d .LASF1066
C:\Users\CYMR90~1\AppData\Local\Temp\ccNmN5zT.s:29430  .debug_str:00000000000246a7 .LASF1067
C:\Users\CYMR90~1\AppData\Local\Temp\ccNmN5zT.s:25951  .debug_str:000000000001692a .LASF1068
C:\Users\CYMR90~1\AppData\Local\Temp\ccNmN5zT.s:27518  .debug_str:000000000001d175 .LASF1069
C:\Users\CYMR90~1\AppData\Local\Temp\ccNmN5zT.s:20503  .debug_str:0000000000000d35 .LASF1070
C:\Users\CYMR90~1\AppData\Local\Temp\ccNmN5zT.s:22843  .debug_str:000000000000a14c .LASF1071
C:\Users\CYMR90~1\AppData\Local\Temp\ccNmN5zT.s:28940  .debug_str:00000000000228ab .LASF1072
C:\Users\CYMR90~1\AppData\Local\Temp\ccNmN5zT.s:27484  .debug_str:000000000001cec2 .LASF1073
C:\Users\CYMR90~1\AppData\Local\Temp\ccNmN5zT.s:30518  .debug_str:0000000000028ec2 .LASF1074
C:\Users\CYMR90~1\AppData\Local\Temp\ccNmN5zT.s:26096  .debug_str:0000000000017439 .LASF1075
C:\Users\CYMR90~1\AppData\Local\Temp\ccNmN5zT.s:20947  .debug_str:0000000000002829 .LASF1076
C:\Users\CYMR90~1\AppData\Local\Temp\ccNmN5zT.s:30952  .debug_str:000000000002a8a4 .LASF1077
C:\Users\CYMR90~1\AppData\Local\Temp\ccNmN5zT.s:21903  .debug_str:000000000000648c .LASF1078
C:\Users\CYMR90~1\AppData\Local\Temp\ccNmN5zT.s:28416  .debug_str:0000000000020911 .LASF1079
C:\Users\CYMR90~1\AppData\Local\Temp\ccNmN5zT.s:23799  .debug_str:000000000000e065 .LASF1080
C:\Users\CYMR90~1\AppData\Local\Temp\ccNmN5zT.s:27286  .debug_str:000000000001c179 .LASF1081
C:\Users\CYMR90~1\AppData\Local\Temp\ccNmN5zT.s:30128  .debug_str:0000000000027500 .LASF1082
C:\Users\CYMR90~1\AppData\Local\Temp\ccNmN5zT.s:25579  .debug_str:00000000000151da .LASF1083
C:\Users\CYMR90~1\AppData\Local\Temp\ccNmN5zT.s:28628  .debug_str:000000000002161b .LASF1084
C:\Users\CYMR90~1\AppData\Local\Temp\ccNmN5zT.s:21607  .debug_str:00000000000052d3 .LASF1085
C:\Users\CYMR90~1\AppData\Local\Temp\ccNmN5zT.s:20709  .debug_str:0000000000001a02 .LASF1086
C:\Users\CYMR90~1\AppData\Local\Temp\ccNmN5zT.s:23833  .debug_str:000000000000e24a .LASF1087
C:\Users\CYMR90~1\AppData\Local\Temp\ccNmN5zT.s:29838  .debug_str:00000000000262c6 .LASF1088
C:\Users\CYMR90~1\AppData\Local\Temp\ccNmN5zT.s:28934  .debug_str:0000000000022853 .LASF1089
C:\Users\CYMR90~1\AppData\Local\Temp\ccNmN5zT.s:20555  .debug_str:0000000000001087 .LASF1090
C:\Users\CYMR90~1\AppData\Local\Temp\ccNmN5zT.s:31492  .debug_str:000000000002cb1c .LASF1091
C:\Users\CYMR90~1\AppData\Local\Temp\ccNmN5zT.s:30232  .debug_str:0000000000027b64 .LASF1092
C:\Users\CYMR90~1\AppData\Local\Temp\ccNmN5zT.s:21417  .debug_str:000000000000469b .LASF1093
C:\Users\CYMR90~1\AppData\Local\Temp\ccNmN5zT.s:29882  .debug_str:000000000002653a .LASF1094
C:\Users\CYMR90~1\AppData\Local\Temp\ccNmN5zT.s:25653  .debug_str:0000000000015614 .LASF1095
C:\Users\CYMR90~1\AppData\Local\Temp\ccNmN5zT.s:27104  .debug_str:000000000001b646 .LASF1096
C:\Users\CYMR90~1\AppData\Local\Temp\ccNmN5zT.s:27630  .debug_str:000000000001d85c .LASF1097
C:\Users\CYMR90~1\AppData\Local\Temp\ccNmN5zT.s:21891  .debug_str:00000000000063e7 .LASF1098
C:\Users\CYMR90~1\AppData\Local\Temp\ccNmN5zT.s:25029  .debug_str:0000000000012e60 .LASF1099
C:\Users\CYMR90~1\AppData\Local\Temp\ccNmN5zT.s:24345  .debug_str:0000000000010203 .LASF1100
C:\Users\CYMR90~1\AppData\Local\Temp\ccNmN5zT.s:29220  .debug_str:000000000002396d .LASF1101
C:\Users\CYMR90~1\AppData\Local\Temp\ccNmN5zT.s:23525  .debug_str:000000000000cee1 .LASF1102
C:\Users\CYMR90~1\AppData\Local\Temp\ccNmN5zT.s:28878  .debug_str:00000000000224c8 .LASF1103
C:\Users\CYMR90~1\AppData\Local\Temp\ccNmN5zT.s:30462  .debug_str:0000000000028ba2 .LASF1104
C:\Users\CYMR90~1\AppData\Local\Temp\ccNmN5zT.s:28308  .debug_str:00000000000201f8 .LASF1105
C:\Users\CYMR90~1\AppData\Local\Temp\ccNmN5zT.s:25207  .debug_str:0000000000013a5b .LASF1106
C:\Users\CYMR90~1\AppData\Local\Temp\ccNmN5zT.s:29134  .debug_str:00000000000233d3 .LASF1107
C:\Users\CYMR90~1\AppData\Local\Temp\ccNmN5zT.s:27026  .debug_str:000000000001b175 .LASF1108
C:\Users\CYMR90~1\AppData\Local\Temp\ccNmN5zT.s:21907  .debug_str:00000000000064c8 .LASF1109
C:\Users\CYMR90~1\AppData\Local\Temp\ccNmN5zT.s:22873  .debug_str:000000000000a325 .LASF1110
C:\Users\CYMR90~1\AppData\Local\Temp\ccNmN5zT.s:20773  .debug_str:0000000000001df1 .LASF1111
C:\Users\CYMR90~1\AppData\Local\Temp\ccNmN5zT.s:21993  .debug_str:00000000000069d3 .LASF1112
C:\Users\CYMR90~1\AppData\Local\Temp\ccNmN5zT.s:23097  .debug_str:000000000000b287 .LASF1113
C:\Users\CYMR90~1\AppData\Local\Temp\ccNmN5zT.s:21653  .debug_str:000000000000559a .LASF1114
C:\Users\CYMR90~1\AppData\Local\Temp\ccNmN5zT.s:22665  .debug_str:000000000000963a .LASF1115
C:\Users\CYMR90~1\AppData\Local\Temp\ccNmN5zT.s:30308  .debug_str:0000000000028098 .LASF1116
C:\Users\CYMR90~1\AppData\Local\Temp\ccNmN5zT.s:30816  .debug_str:000000000002a060 .LASF1117
C:\Users\CYMR90~1\AppData\Local\Temp\ccNmN5zT.s:21811  .debug_str:0000000000005edf .LASF1118
C:\Users\CYMR90~1\AppData\Local\Temp\ccNmN5zT.s:26260  .debug_str:0000000000017e79 .LASF1119
C:\Users\CYMR90~1\AppData\Local\Temp\ccNmN5zT.s:22357  .debug_str:0000000000008310 .LASF1120
C:\Users\CYMR90~1\AppData\Local\Temp\ccNmN5zT.s:22565  .debug_str:0000000000009029 .LASF1121
C:\Users\CYMR90~1\AppData\Local\Temp\ccNmN5zT.s:25143  .debug_str:000000000001366e .LASF1122
C:\Users\CYMR90~1\AppData\Local\Temp\ccNmN5zT.s:24785  .debug_str:0000000000011e78 .LASF1123
C:\Users\CYMR90~1\AppData\Local\Temp\ccNmN5zT.s:28392  .debug_str:000000000002078b .LASF1124
C:\Users\CYMR90~1\AppData\Local\Temp\ccNmN5zT.s:25583  .debug_str:0000000000015203 .LASF1125
C:\Users\CYMR90~1\AppData\Local\Temp\ccNmN5zT.s:25673  .debug_str:000000000001574d .LASF1126
C:\Users\CYMR90~1\AppData\Local\Temp\ccNmN5zT.s:29028  .debug_str:0000000000022e0f .LASF1127
C:\Users\CYMR90~1\AppData\Local\Temp\ccNmN5zT.s:30126  .debug_str:00000000000274eb .LASF1128
C:\Users\CYMR90~1\AppData\Local\Temp\ccNmN5zT.s:21697  .debug_str:000000000000581a .LASF1129
C:\Users\CYMR90~1\AppData\Local\Temp\ccNmN5zT.s:25671  .debug_str:0000000000015738 .LASF1130
C:\Users\CYMR90~1\AppData\Local\Temp\ccNmN5zT.s:30652  .debug_str:00000000000296a7 .LASF1131
C:\Users\CYMR90~1\AppData\Local\Temp\ccNmN5zT.s:31054  .debug_str:000000000002aeaa .LASF1132
C:\Users\CYMR90~1\AppData\Local\Temp\ccNmN5zT.s:26368  .debug_str:000000000001850d .LASF1133
C:\Users\CYMR90~1\AppData\Local\Temp\ccNmN5zT.s:29190  .debug_str:0000000000023766 .LASF1134
C:\Users\CYMR90~1\AppData\Local\Temp\ccNmN5zT.s:22241  .debug_str:0000000000007a7a .LASF1135
C:\Users\CYMR90~1\AppData\Local\Temp\ccNmN5zT.s:21475  .debug_str:0000000000004ae2 .LASF1136
C:\Users\CYMR90~1\AppData\Local\Temp\ccNmN5zT.s:21303  .debug_str:0000000000003e7d .LASF1137
C:\Users\CYMR90~1\AppData\Local\Temp\ccNmN5zT.s:30662  .debug_str:0000000000029783 .LASF1138
C:\Users\CYMR90~1\AppData\Local\Temp\ccNmN5zT.s:27766  .debug_str:000000000001e150 .LASF1139
C:\Users\CYMR90~1\AppData\Local\Temp\ccNmN5zT.s:30648  .debug_str:000000000002967a .LASF1140
C:\Users\CYMR90~1\AppData\Local\Temp\ccNmN5zT.s:20365  .debug_str:00000000000004b1 .LASF1141
C:\Users\CYMR90~1\AppData\Local\Temp\ccNmN5zT.s:24577  .debug_str:0000000000011087 .LASF1142
C:\Users\CYMR90~1\AppData\Local\Temp\ccNmN5zT.s:23839  .debug_str:000000000000e2bd .LASF1143
C:\Users\CYMR90~1\AppData\Local\Temp\ccNmN5zT.s:30182  .debug_str:0000000000027808 .LASF1144
C:\Users\CYMR90~1\AppData\Local\Temp\ccNmN5zT.s:28352  .debug_str:00000000000204b5 .LASF1145
C:\Users\CYMR90~1\AppData\Local\Temp\ccNmN5zT.s:23365  .debug_str:000000000000c47f .LASF1146
C:\Users\CYMR90~1\AppData\Local\Temp\ccNmN5zT.s:31488  .debug_str:000000000002cada .LASF1147
C:\Users\CYMR90~1\AppData\Local\Temp\ccNmN5zT.s:26120  .debug_str:0000000000017599 .LASF1148
C:\Users\CYMR90~1\AppData\Local\Temp\ccNmN5zT.s:26376  .debug_str:00000000000185ba .LASF1149
C:\Users\CYMR90~1\AppData\Local\Temp\ccNmN5zT.s:27122  .debug_str:000000000001b752 .LASF1150
C:\Users\CYMR90~1\AppData\Local\Temp\ccNmN5zT.s:20775  .debug_str:0000000000001e0f .LASF1151
C:\Users\CYMR90~1\AppData\Local\Temp\ccNmN5zT.s:27538  .debug_str:000000000001d290 .LASF1152
C:\Users\CYMR90~1\AppData\Local\Temp\ccNmN5zT.s:22689  .debug_str:0000000000009779 .LASF1153
C:\Users\CYMR90~1\AppData\Local\Temp\ccNmN5zT.s:28642  .debug_str:00000000000216cd .LASF1154
C:\Users\CYMR90~1\AppData\Local\Temp\ccNmN5zT.s:27892  .debug_str:000000000001e900 .LASF1155
C:\Users\CYMR90~1\AppData\Local\Temp\ccNmN5zT.s:21589  .debug_str:00000000000051ae .LASF1156
C:\Users\CYMR90~1\AppData\Local\Temp\ccNmN5zT.s:27728  .debug_str:000000000001def3 .LASF1157
C:\Users\CYMR90~1\AppData\Local\Temp\ccNmN5zT.s:23115  .debug_str:000000000000b377 .LASF1158
C:\Users\CYMR90~1\AppData\Local\Temp\ccNmN5zT.s:30832  .debug_str:000000000002a185 .LASF1159
C:\Users\CYMR90~1\AppData\Local\Temp\ccNmN5zT.s:20659  .debug_str:000000000000165c .LASF1160
C:\Users\CYMR90~1\AppData\Local\Temp\ccNmN5zT.s:30916  .debug_str:000000000002a671 .LASF1161
C:\Users\CYMR90~1\AppData\Local\Temp\ccNmN5zT.s:30596  .debug_str:0000000000029371 .LASF1162
C:\Users\CYMR90~1\AppData\Local\Temp\ccNmN5zT.s:27616  .debug_str:000000000001d785 .LASF1163
C:\Users\CYMR90~1\AppData\Local\Temp\ccNmN5zT.s:26754  .debug_str:0000000000019edb .LASF1164
C:\Users\CYMR90~1\AppData\Local\Temp\ccNmN5zT.s:23657  .debug_str:000000000000d7f6 .LASF1165
C:\Users\CYMR90~1\AppData\Local\Temp\ccNmN5zT.s:28278  .debug_str:0000000000020059 .LASF1166
C:\Users\CYMR90~1\AppData\Local\Temp\ccNmN5zT.s:24537  .debug_str:0000000000010e5f .LASF1167
C:\Users\CYMR90~1\AppData\Local\Temp\ccNmN5zT.s:22687  .debug_str:000000000000976f .LASF1168
C:\Users\CYMR90~1\AppData\Local\Temp\ccNmN5zT.s:25615  .debug_str:0000000000015412 .LASF1169
C:\Users\CYMR90~1\AppData\Local\Temp\ccNmN5zT.s:26966  .debug_str:000000000001ad64 .LASF1170
C:\Users\CYMR90~1\AppData\Local\Temp\ccNmN5zT.s:26668  .debug_str:0000000000019934 .LASF1171
C:\Users\CYMR90~1\AppData\Local\Temp\ccNmN5zT.s:30858  .debug_str:000000000002a2ed .LASF1172
C:\Users\CYMR90~1\AppData\Local\Temp\ccNmN5zT.s:25897  .debug_str:0000000000016552 .LASF1173
C:\Users\CYMR90~1\AppData\Local\Temp\ccNmN5zT.s:20483  .debug_str:0000000000000c35 .LASF1174
C:\Users\CYMR90~1\AppData\Local\Temp\ccNmN5zT.s:20885  .debug_str:00000000000023e4 .LASF1175
C:\Users\CYMR90~1\AppData\Local\Temp\ccNmN5zT.s:25115  .debug_str:00000000000134be .LASF1176
C:\Users\CYMR90~1\AppData\Local\Temp\ccNmN5zT.s:23469  .debug_str:000000000000cbaf .LASF1177
C:\Users\CYMR90~1\AppData\Local\Temp\ccNmN5zT.s:27678  .debug_str:000000000001db91 .LASF1178
C:\Users\CYMR90~1\AppData\Local\Temp\ccNmN5zT.s:24073  .debug_str:000000000000f0ac .LASF1179
C:\Users\CYMR90~1\AppData\Local\Temp\ccNmN5zT.s:23645  .debug_str:000000000000d764 .LASF1180
C:\Users\CYMR90~1\AppData\Local\Temp\ccNmN5zT.s:29392  .debug_str:000000000002445f .LASF1181
C:\Users\CYMR90~1\AppData\Local\Temp\ccNmN5zT.s:30602  .debug_str:00000000000293bc .LASF1182
C:\Users\CYMR90~1\AppData\Local\Temp\ccNmN5zT.s:21053  .debug_str:0000000000002ed5 .LASF1183
C:\Users\CYMR90~1\AppData\Local\Temp\ccNmN5zT.s:27996  .debug_str:000000000001eee7 .LASF1184
C:\Users\CYMR90~1\AppData\Local\Temp\ccNmN5zT.s:28446  .debug_str:0000000000020ab5 .LASF1185
C:\Users\CYMR90~1\AppData\Local\Temp\ccNmN5zT.s:29628  .debug_str:000000000002549e .LASF1186
C:\Users\CYMR90~1\AppData\Local\Temp\ccNmN5zT.s:20777  .debug_str:0000000000001e28 .LASF1187
C:\Users\CYMR90~1\AppData\Local\Temp\ccNmN5zT.s:21707  .debug_str:000000000000589d .LASF1188
C:\Users\CYMR90~1\AppData\Local\Temp\ccNmN5zT.s:28992  .debug_str:0000000000022c29 .LASF1189
C:\Users\CYMR90~1\AppData\Local\Temp\ccNmN5zT.s:22245  .debug_str:0000000000007aab .LASF1190
C:\Users\CYMR90~1\AppData\Local\Temp\ccNmN5zT.s:28970  .debug_str:0000000000022a7d .LASF1191
C:\Users\CYMR90~1\AppData\Local\Temp\ccNmN5zT.s:23443  .debug_str:000000000000c9d8 .LASF1192
C:\Users\CYMR90~1\AppData\Local\Temp\ccNmN5zT.s:28630  .debug_str:000000000002162d .LASF1193
C:\Users\CYMR90~1\AppData\Local\Temp\ccNmN5zT.s:23689  .debug_str:000000000000d9ad .LASF1194
C:\Users\CYMR90~1\AppData\Local\Temp\ccNmN5zT.s:27216  .debug_str:000000000001bcc8 .LASF1195
C:\Users\CYMR90~1\AppData\Local\Temp\ccNmN5zT.s:25259  .debug_str:0000000000013d77 .LASF1196
C:\Users\CYMR90~1\AppData\Local\Temp\ccNmN5zT.s:28664  .debug_str:0000000000021855 .LASF1197
C:\Users\CYMR90~1\AppData\Local\Temp\ccNmN5zT.s:30856  .debug_str:000000000002a2de .LASF1198
C:\Users\CYMR90~1\AppData\Local\Temp\ccNmN5zT.s:25921  .debug_str:0000000000016748 .LASF1199
C:\Users\CYMR90~1\AppData\Local\Temp\ccNmN5zT.s:30862  .debug_str:000000000002a314 .LASF1200
C:\Users\CYMR90~1\AppData\Local\Temp\ccNmN5zT.s:22937  .debug_str:000000000000a6de .LASF1201
C:\Users\CYMR90~1\AppData\Local\Temp\ccNmN5zT.s:22599  .debug_str:0000000000009221 .LASF1202
C:\Users\CYMR90~1\AppData\Local\Temp\ccNmN5zT.s:26108  .debug_str:00000000000174f8 .LASF1203
C:\Users\CYMR90~1\AppData\Local\Temp\ccNmN5zT.s:29954  .debug_str:00000000000269b6 .LASF1204
C:\Users\CYMR90~1\AppData\Local\Temp\ccNmN5zT.s:25169  .debug_str:000000000001382e .LASF1205
C:\Users\CYMR90~1\AppData\Local\Temp\ccNmN5zT.s:24237  .debug_str:000000000000fb4b .LASF1206
C:\Users\CYMR90~1\AppData\Local\Temp\ccNmN5zT.s:30828  .debug_str:000000000002a153 .LASF1207
C:\Users\CYMR90~1\AppData\Local\Temp\ccNmN5zT.s:29482  .debug_str:0000000000024a42 .LASF1208
C:\Users\CYMR90~1\AppData\Local\Temp\ccNmN5zT.s:24169  .debug_str:000000000000f69e .LASF1209
C:\Users\CYMR90~1\AppData\Local\Temp\ccNmN5zT.s:21601  .debug_str:000000000000526b .LASF1210
C:\Users\CYMR90~1\AppData\Local\Temp\ccNmN5zT.s:21699  .debug_str:0000000000005830 .LASF1211
C:\Users\CYMR90~1\AppData\Local\Temp\ccNmN5zT.s:22393  .debug_str:000000000000855c .LASF1212
C:\Users\CYMR90~1\AppData\Local\Temp\ccNmN5zT.s:21987  .debug_str:0000000000006953 .LASF1213
C:\Users\CYMR90~1\AppData\Local\Temp\ccNmN5zT.s:20895  .debug_str:00000000000024a0 .LASF1214
C:\Users\CYMR90~1\AppData\Local\Temp\ccNmN5zT.s:22731  .debug_str:0000000000009a78 .LASF1215
C:\Users\CYMR90~1\AppData\Local\Temp\ccNmN5zT.s:20835  .debug_str:0000000000002136 .LASF1216
C:\Users\CYMR90~1\AppData\Local\Temp\ccNmN5zT.s:29090  .debug_str:000000000002315a .LASF1217
C:\Users\CYMR90~1\AppData\Local\Temp\ccNmN5zT.s:29104  .debug_str:000000000002320b .LASF1218
C:\Users\CYMR90~1\AppData\Local\Temp\ccNmN5zT.s:29536  .debug_str:0000000000024ddd .LASF1219
C:\Users\CYMR90~1\AppData\Local\Temp\ccNmN5zT.s:27108  .debug_str:000000000001b67a .LASF1220
C:\Users\CYMR90~1\AppData\Local\Temp\ccNmN5zT.s:23731  .debug_str:000000000000dc18 .LASF1221
C:\Users\CYMR90~1\AppData\Local\Temp\ccNmN5zT.s:25435  .debug_str:000000000001487d .LASF1222
C:\Users\CYMR90~1\AppData\Local\Temp\ccNmN5zT.s:21071  .debug_str:0000000000002ff0 .LASF1223
C:\Users\CYMR90~1\AppData\Local\Temp\ccNmN5zT.s:26850  .debug_str:000000000001a61e .LASF1224
C:\Users\CYMR90~1\AppData\Local\Temp\ccNmN5zT.s:30146  .debug_str:000000000002761b .LASF1225
C:\Users\CYMR90~1\AppData\Local\Temp\ccNmN5zT.s:23201  .debug_str:000000000000b949 .LASF1226
C:\Users\CYMR90~1\AppData\Local\Temp\ccNmN5zT.s:22129  .debug_str:0000000000007374 .LASF1227
C:\Users\CYMR90~1\AppData\Local\Temp\ccNmN5zT.s:21165  .debug_str:0000000000003610 .LASF1228
C:\Users\CYMR90~1\AppData\Local\Temp\ccNmN5zT.s:31544  .debug_str:000000000002ce99 .LASF1229
C:\Users\CYMR90~1\AppData\Local\Temp\ccNmN5zT.s:30576  .debug_str:000000000002924a .LASF1230
C:\Users\CYMR90~1\AppData\Local\Temp\ccNmN5zT.s:29596  .debug_str:00000000000251f4 .LASF1231
C:\Users\CYMR90~1\AppData\Local\Temp\ccNmN5zT.s:28618  .debug_str:0000000000021583 .LASF1232
C:\Users\CYMR90~1\AppData\Local\Temp\ccNmN5zT.s:28504  .debug_str:0000000000020e57 .LASF1233
C:\Users\CYMR90~1\AppData\Local\Temp\ccNmN5zT.s:27556  .debug_str:000000000001d388 .LASF1234
C:\Users\CYMR90~1\AppData\Local\Temp\ccNmN5zT.s:26624  .debug_str:000000000001963d .LASF1235
C:\Users\CYMR90~1\AppData\Local\Temp\ccNmN5zT.s:25329  .debug_str:0000000000014206 .LASF1236
C:\Users\CYMR90~1\AppData\Local\Temp\ccNmN5zT.s:24703  .debug_str:000000000001192c .LASF1237
C:\Users\CYMR90~1\AppData\Local\Temp\ccNmN5zT.s:27144  .debug_str:000000000001b8bb .LASF1238
C:\Users\CYMR90~1\AppData\Local\Temp\ccNmN5zT.s:22803  .debug_str:0000000000009ea0 .LASF1239
C:\Users\CYMR90~1\AppData\Local\Temp\ccNmN5zT.s:21807  .debug_str:0000000000005e9e .LASF1240
C:\Users\CYMR90~1\AppData\Local\Temp\ccNmN5zT.s:20851  .debug_str:0000000000002222 .LASF1241
C:\Users\CYMR90~1\AppData\Local\Temp\ccNmN5zT.s:31250  .debug_str:000000000002bb6f .LASF1242
C:\Users\CYMR90~1\AppData\Local\Temp\ccNmN5zT.s:20379  .debug_str:0000000000000565 .LASF1243
C:\Users\CYMR90~1\AppData\Local\Temp\ccNmN5zT.s:30726  .debug_str:0000000000029b38 .LASF1244
C:\Users\CYMR90~1\AppData\Local\Temp\ccNmN5zT.s:29742  .debug_str:0000000000025cbb .LASF1245
C:\Users\CYMR90~1\AppData\Local\Temp\ccNmN5zT.s:28776  .debug_str:0000000000021f09 .LASF1246
C:\Users\CYMR90~1\AppData\Local\Temp\ccNmN5zT.s:27802  .debug_str:000000000001e35f .LASF1247
C:\Users\CYMR90~1\AppData\Local\Temp\ccNmN5zT.s:26910  .debug_str:000000000001a9eb .LASF1248
C:\Users\CYMR90~1\AppData\Local\Temp\ccNmN5zT.s:25965  .debug_str:0000000000016a4b .LASF1249
C:\Users\CYMR90~1\AppData\Local\Temp\ccNmN5zT.s:25035  .debug_str:0000000000012ed9 .LASF1250
C:\Users\CYMR90~1\AppData\Local\Temp\ccNmN5zT.s:24079  .debug_str:000000000000f0f1 .LASF1251
C:\Users\CYMR90~1\AppData\Local\Temp\ccNmN5zT.s:26220  .debug_str:0000000000017c15 .LASF1252
C:\Users\CYMR90~1\AppData\Local\Temp\ccNmN5zT.s:23583  .debug_str:000000000000d2b5 .LASF1253
C:\Users\CYMR90~1\AppData\Local\Temp\ccNmN5zT.s:22613  .debug_str:00000000000092f0 .LASF1254
C:\Users\CYMR90~1\AppData\Local\Temp\ccNmN5zT.s:20619  .debug_str:0000000000001408 .LASF1255
C:\Users\CYMR90~1\AppData\Local\Temp\ccNmN5zT.s:23503  .debug_str:000000000000cdc4 .LASF1256
C:\Users\CYMR90~1\AppData\Local\Temp\ccNmN5zT.s:21763  .debug_str:0000000000005c45 .LASF1257
C:\Users\CYMR90~1\AppData\Local\Temp\ccNmN5zT.s:26494  .debug_str:0000000000018d99 .LASF1258
C:\Users\CYMR90~1\AppData\Local\Temp\ccNmN5zT.s:26496  .debug_str:0000000000018dac .LASF1259
C:\Users\CYMR90~1\AppData\Local\Temp\ccNmN5zT.s:28974  .debug_str:0000000000022aad .LASF1260
C:\Users\CYMR90~1\AppData\Local\Temp\ccNmN5zT.s:27102  .debug_str:000000000001b633 .LASF1261
C:\Users\CYMR90~1\AppData\Local\Temp\ccNmN5zT.s:24507  .debug_str:0000000000010cf7 .LASF1262
C:\Users\CYMR90~1\AppData\Local\Temp\ccNmN5zT.s:21657  .debug_str:00000000000055dd .LASF1263
C:\Users\CYMR90~1\AppData\Local\Temp\ccNmN5zT.s:23815  .debug_str:000000000000e13c .LASF1264
C:\Users\CYMR90~1\AppData\Local\Temp\ccNmN5zT.s:25989  .debug_str:0000000000016c58 .LASF1265
C:\Users\CYMR90~1\AppData\Local\Temp\ccNmN5zT.s:23863  .debug_str:000000000000e40f .LASF1266
C:\Users\CYMR90~1\AppData\Local\Temp\ccNmN5zT.s:29004  .debug_str:0000000000022ccc .LASF1267
C:\Users\CYMR90~1\AppData\Local\Temp\ccNmN5zT.s:29184  .debug_str:000000000002371c .LASF1268
C:\Users\CYMR90~1\AppData\Local\Temp\ccNmN5zT.s:24635  .debug_str:00000000000113ff .LASF1269
C:\Users\CYMR90~1\AppData\Local\Temp\ccNmN5zT.s:31304  .debug_str:000000000002beb6 .LASF1270
C:\Users\CYMR90~1\AppData\Local\Temp\ccNmN5zT.s:26222  .debug_str:0000000000017c2c .LASF1271
C:\Users\CYMR90~1\AppData\Local\Temp\ccNmN5zT.s:30690  .debug_str:000000000002992c .LASF1272
C:\Users\CYMR90~1\AppData\Local\Temp\ccNmN5zT.s:27680  .debug_str:000000000001db9e .LASF1273
C:\Users\CYMR90~1\AppData\Local\Temp\ccNmN5zT.s:20439  .debug_str:000000000000091a .LASF1274
C:\Users\CYMR90~1\AppData\Local\Temp\ccNmN5zT.s:26504  .debug_str:0000000000018e2f .LASF1275
C:\Users\CYMR90~1\AppData\Local\Temp\ccNmN5zT.s:20545  .debug_str:0000000000001003 .LASF1276
C:\Users\CYMR90~1\AppData\Local\Temp\ccNmN5zT.s:22825  .debug_str:000000000000a028 .LASF1277
C:\Users\CYMR90~1\AppData\Local\Temp\ccNmN5zT.s:21825  .debug_str:0000000000005fb9 .LASF1278
C:\Users\CYMR90~1\AppData\Local\Temp\ccNmN5zT.s:20883  .debug_str:00000000000023d2 .LASF1279
C:\Users\CYMR90~1\AppData\Local\Temp\ccNmN5zT.s:31270  .debug_str:000000000002bc8c .LASF1280
C:\Users\CYMR90~1\AppData\Local\Temp\ccNmN5zT.s:21719  .debug_str:0000000000005968 .LASF1281
C:\Users\CYMR90~1\AppData\Local\Temp\ccNmN5zT.s:20765  .debug_str:0000000000001d6d .LASF1282
C:\Users\CYMR90~1\AppData\Local\Temp\ccNmN5zT.s:27844  .debug_str:000000000001e5f2 .LASF1283
C:\Users\CYMR90~1\AppData\Local\Temp\ccNmN5zT.s:20511  .debug_str:0000000000000da5 .LASF1284
C:\Users\CYMR90~1\AppData\Local\Temp\ccNmN5zT.s:29210  .debug_str:00000000000238e7 .LASF1285
C:\Users\CYMR90~1\AppData\Local\Temp\ccNmN5zT.s:28228  .debug_str:000000000001fd18 .LASF1286
C:\Users\CYMR90~1\AppData\Local\Temp\ccNmN5zT.s:27280  .debug_str:000000000001c0fa .LASF1287
C:\Users\CYMR90~1\AppData\Local\Temp\ccNmN5zT.s:26330  .debug_str:00000000000182bb .LASF1288
C:\Users\CYMR90~1\AppData\Local\Temp\ccNmN5zT.s:25369  .debug_str:0000000000014450 .LASF1289
C:\Users\CYMR90~1\AppData\Local\Temp\ccNmN5zT.s:24437  .debug_str:00000000000107dc .LASF1290
C:\Users\CYMR90~1\AppData\Local\Temp\ccNmN5zT.s:28722  .debug_str:0000000000021bdc .LASF1291
C:\Users\CYMR90~1\AppData\Local\Temp\ccNmN5zT.s:27754  .debug_str:000000000001e0a6 .LASF1292
C:\Users\CYMR90~1\AppData\Local\Temp\ccNmN5zT.s:26848  .debug_str:000000000001a60a .LASF1293
C:\Users\CYMR90~1\AppData\Local\Temp\ccNmN5zT.s:25851  .debug_str:00000000000162c8 .LASF1294
C:\Users\CYMR90~1\AppData\Local\Temp\ccNmN5zT.s:24929  .debug_str:00000000000127df .LASF1295
C:\Users\CYMR90~1\AppData\Local\Temp\ccNmN5zT.s:23971  .debug_str:000000000000eafc .LASF1296
C:\Users\CYMR90~1\AppData\Local\Temp\ccNmN5zT.s:23343  .debug_str:000000000000c329 .LASF1297
C:\Users\CYMR90~1\AppData\Local\Temp\ccNmN5zT.s:28194  .debug_str:000000000001faf4 .LASF1298
C:\Users\CYMR90~1\AppData\Local\Temp\ccNmN5zT.s:27254  .debug_str:000000000001bf66 .LASF1299
C:\Users\CYMR90~1\AppData\Local\Temp\ccNmN5zT.s:26298  .debug_str:00000000000180b7 .LASF1300
C:\Users\CYMR90~1\AppData\Local\Temp\ccNmN5zT.s:27228  .debug_str:000000000001bd9c .LASF1301
C:\Users\CYMR90~1\AppData\Local\Temp\ccNmN5zT.s:28442  .debug_str:0000000000020a92 .LASF1302
C:\Users\CYMR90~1\AppData\Local\Temp\ccNmN5zT.s:25895  .debug_str:000000000001653f .LASF1303
C:\Users\CYMR90~1\AppData\Local\Temp\ccNmN5zT.s:26764  .debug_str:0000000000019f7f .LASF1304
C:\Users\CYMR90~1\AppData\Local\Temp\ccNmN5zT.s:26736  .debug_str:0000000000019deb .LASF1305
C:\Users\CYMR90~1\AppData\Local\Temp\ccNmN5zT.s:22505  .debug_str:0000000000008c44 .LASF1306
C:\Users\CYMR90~1\AppData\Local\Temp\ccNmN5zT.s:21505  .debug_str:0000000000004ccf .LASF1307
C:\Users\CYMR90~1\AppData\Local\Temp\ccNmN5zT.s:20557  .debug_str:0000000000001099 .LASF1308
C:\Users\CYMR90~1\AppData\Local\Temp\ccNmN5zT.s:30932  .debug_str:000000000002a770 .LASF1309
C:\Users\CYMR90~1\AppData\Local\Temp\ccNmN5zT.s:29950  .debug_str:000000000002697b .LASF1310
C:\Users\CYMR90~1\AppData\Local\Temp\ccNmN5zT.s:28980  .debug_str:0000000000022af3 .LASF1311
C:\Users\CYMR90~1\AppData\Local\Temp\ccNmN5zT.s:25239  .debug_str:0000000000013c4c .LASF1312
C:\Users\CYMR90~1\AppData\Local\Temp\ccNmN5zT.s:23827  .debug_str:000000000000e1f5 .LASF1313
C:\Users\CYMR90~1\AppData\Local\Temp\ccNmN5zT.s:25089  .debug_str:000000000001326a .LASF1314
C:\Users\CYMR90~1\AppData\Local\Temp\ccNmN5zT.s:31150  .debug_str:000000000002b4c2 .LASF1315
C:\Users\CYMR90~1\AppData\Local\Temp\ccNmN5zT.s:29670  .debug_str:00000000000257b1 .LASF1316
C:\Users\CYMR90~1\AppData\Local\Temp\ccNmN5zT.s:29202  .debug_str:000000000002384b .LASF1317
C:\Users\CYMR90~1\AppData\Local\Temp\ccNmN5zT.s:28220  .debug_str:000000000001fcab .LASF1318
C:\Users\CYMR90~1\AppData\Local\Temp\ccNmN5zT.s:27290  .debug_str:000000000001c1a4 .LASF1319
C:\Users\CYMR90~1\AppData\Local\Temp\ccNmN5zT.s:26340  .debug_str:0000000000018369 .LASF1320
C:\Users\CYMR90~1\AppData\Local\Temp\ccNmN5zT.s:25379  .debug_str:00000000000144c6 .LASF1321
C:\Users\CYMR90~1\AppData\Local\Temp\ccNmN5zT.s:24443  .debug_str:0000000000010837 .LASF1322
C:\Users\CYMR90~1\AppData\Local\Temp\ccNmN5zT.s:24903  .debug_str:000000000001261d .LASF1323
C:\Users\CYMR90~1\AppData\Local\Temp\ccNmN5zT.s:23347  .debug_str:000000000000c34e .LASF1324
C:\Users\CYMR90~1\AppData\Local\Temp\ccNmN5zT.s:22987  .debug_str:000000000000aade .LASF1325
C:\Users\CYMR90~1\AppData\Local\Temp\ccNmN5zT.s:21995  .debug_str:00000000000069ef .LASF1326
C:\Users\CYMR90~1\AppData\Local\Temp\ccNmN5zT.s:21031  .debug_str:0000000000002d85 .LASF1327
C:\Users\CYMR90~1\AppData\Local\Temp\ccNmN5zT.s:31426  .debug_str:000000000002c6d6 .LASF1328
C:\Users\CYMR90~1\AppData\Local\Temp\ccNmN5zT.s:30492  .debug_str:0000000000028d32 .LASF1329
C:\Users\CYMR90~1\AppData\Local\Temp\ccNmN5zT.s:29516  .debug_str:0000000000024c6f .LASF1330
C:\Users\CYMR90~1\AppData\Local\Temp\ccNmN5zT.s:28542  .debug_str:0000000000021061 .LASF1331
C:\Users\CYMR90~1\AppData\Local\Temp\ccNmN5zT.s:27588  .debug_str:000000000001d592 .LASF1332
C:\Users\CYMR90~1\AppData\Local\Temp\ccNmN5zT.s:28018  .debug_str:000000000001f060 .LASF1333
C:\Users\CYMR90~1\AppData\Local\Temp\ccNmN5zT.s:27116  .debug_str:000000000001b6f6 .LASF1334
C:\Users\CYMR90~1\AppData\Local\Temp\ccNmN5zT.s:25813  .debug_str:0000000000016065 .LASF1335
C:\Users\CYMR90~1\AppData\Local\Temp\ccNmN5zT.s:23499  .debug_str:000000000000cd99 .LASF1336
C:\Users\CYMR90~1\AppData\Local\Temp\ccNmN5zT.s:28236  .debug_str:000000000001fd77 .LASF1337
C:\Users\CYMR90~1\AppData\Local\Temp\ccNmN5zT.s:24783  .debug_str:0000000000011e63 .LASF1338
C:\Users\CYMR90~1\AppData\Local\Temp\ccNmN5zT.s:20663  .debug_str:0000000000001694 .LASF1339
C:\Users\CYMR90~1\AppData\Local\Temp\ccNmN5zT.s:22777  .debug_str:0000000000009d1a .LASF1340
C:\Users\CYMR90~1\AppData\Local\Temp\ccNmN5zT.s:21779  .debug_str:0000000000005d13 .LASF1341
C:\Users\CYMR90~1\AppData\Local\Temp\ccNmN5zT.s:20821  .debug_str:000000000000207f .LASF1342
C:\Users\CYMR90~1\AppData\Local\Temp\ccNmN5zT.s:31228  .debug_str:000000000002b9e5 .LASF1343
C:\Users\CYMR90~1\AppData\Local\Temp\ccNmN5zT.s:31020  .debug_str:000000000002ac77 .LASF1344
C:\Users\CYMR90~1\AppData\Local\Temp\ccNmN5zT.s:30036  .debug_str:0000000000026eb3 .LASF1345
C:\Users\CYMR90~1\AppData\Local\Temp\ccNmN5zT.s:29070  .debug_str:0000000000023063 .LASF1346
C:\Users\CYMR90~1\AppData\Local\Temp\ccNmN5zT.s:30446  .debug_str:0000000000028aad .LASF1347
C:\Users\CYMR90~1\AppData\Local\Temp\ccNmN5zT.s:27162  .debug_str:000000000001b9b1 .LASF1348
C:\Users\CYMR90~1\AppData\Local\Temp\ccNmN5zT.s:27668  .debug_str:000000000001dae8 .LASF1349
C:\Users\CYMR90~1\AppData\Local\Temp\ccNmN5zT.s:25251  .debug_str:0000000000013d09 .LASF1350
C:\Users\CYMR90~1\AppData\Local\Temp\ccNmN5zT.s:28378  .debug_str:00000000000206ad .LASF1351
C:\Users\CYMR90~1\AppData\Local\Temp\ccNmN5zT.s:23361  .debug_str:000000000000c454 .LASF1352
C:\Users\CYMR90~1\AppData\Local\Temp\ccNmN5zT.s:22289  .debug_str:0000000000007ded .LASF1353
C:\Users\CYMR90~1\AppData\Local\Temp\ccNmN5zT.s:22857  .debug_str:000000000000a231 .LASF1354
C:\Users\CYMR90~1\AppData\Local\Temp\ccNmN5zT.s:21857  .debug_str:00000000000061d7 .LASF1355
C:\Users\CYMR90~1\AppData\Local\Temp\ccNmN5zT.s:20907  .debug_str:0000000000002540 .LASF1356
C:\Users\CYMR90~1\AppData\Local\Temp\ccNmN5zT.s:31300  .debug_str:000000000002be96 .LASF1357
C:\Users\CYMR90~1\AppData\Local\Temp\ccNmN5zT.s:25341  .debug_str:00000000000142ce .LASF1358
C:\Users\CYMR90~1\AppData\Local\Temp\ccNmN5zT.s:21989  .debug_str:0000000000006997 .LASF1359
C:\Users\CYMR90~1\AppData\Local\Temp\ccNmN5zT.s:28424  .debug_str:000000000002097a .LASF1360
C:\Users\CYMR90~1\AppData\Local\Temp\ccNmN5zT.s:27386  .debug_str:000000000001c75e .LASF1361
C:\Users\CYMR90~1\AppData\Local\Temp\ccNmN5zT.s:26436  .debug_str:0000000000018931 .LASF1362
C:\Users\CYMR90~1\AppData\Local\Temp\ccNmN5zT.s:30456  .debug_str:0000000000028b3e .LASF1363
C:\Users\CYMR90~1\AppData\Local\Temp\ccNmN5zT.s:25739  .debug_str:0000000000015b22 .LASF1364
C:\Users\CYMR90~1\AppData\Local\Temp\ccNmN5zT.s:22411  .debug_str:000000000000865f .LASF1365
C:\Users\CYMR90~1\AppData\Local\Temp\ccNmN5zT.s:30064  .debug_str:000000000002705e .LASF1366
C:\Users\CYMR90~1\AppData\Local\Temp\ccNmN5zT.s:29312  .debug_str:0000000000023eb2 .LASF1367
C:\Users\CYMR90~1\AppData\Local\Temp\ccNmN5zT.s:28318  .debug_str:0000000000020285 .LASF1368
C:\Users\CYMR90~1\AppData\Local\Temp\ccNmN5zT.s:26598  .debug_str:0000000000019480 .LASF1369
C:\Users\CYMR90~1\AppData\Local\Temp\ccNmN5zT.s:31188  .debug_str:000000000002b723 .LASF1370
C:\Users\CYMR90~1\AppData\Local\Temp\ccNmN5zT.s:27598  .debug_str:000000000001d61d .LASF1371
C:\Users\CYMR90~1\AppData\Local\Temp\ccNmN5zT.s:20951  .debug_str:0000000000002866 .LASF1372
C:\Users\CYMR90~1\AppData\Local\Temp\ccNmN5zT.s:23541  .debug_str:000000000000cff2 .LASF1373
C:\Users\CYMR90~1\AppData\Local\Temp\ccNmN5zT.s:26644  .debug_str:0000000000019752 .LASF1374
C:\Users\CYMR90~1\AppData\Local\Temp\ccNmN5zT.s:29732  .debug_str:0000000000025c10 .LASF1375
C:\Users\CYMR90~1\AppData\Local\Temp\ccNmN5zT.s:21533  .debug_str:0000000000004e77 .LASF1376
C:\Users\CYMR90~1\AppData\Local\Temp\ccNmN5zT.s:24691  .debug_str:00000000000117c0 .LASF1377
C:\Users\CYMR90~1\AppData\Local\Temp\ccNmN5zT.s:27760  .debug_str:000000000001e100 .LASF1378
C:\Users\CYMR90~1\AppData\Local\Temp\ccNmN5zT.s:30928  .debug_str:000000000002a733 .LASF1379
C:\Users\CYMR90~1\AppData\Local\Temp\ccNmN5zT.s:30896  .debug_str:000000000002a512 .LASF1380
C:\Users\CYMR90~1\AppData\Local\Temp\ccNmN5zT.s:22625  .debug_str:00000000000093a0 .LASF1381
C:\Users\CYMR90~1\AppData\Local\Temp\ccNmN5zT.s:25709  .debug_str:0000000000015961 .LASF1382
C:\Users\CYMR90~1\AppData\Local\Temp\ccNmN5zT.s:28822  .debug_str:00000000000221c8 .LASF1383
C:\Users\CYMR90~1\AppData\Local\Temp\ccNmN5zT.s:20635  .debug_str:00000000000014d0 .LASF1384
C:\Users\CYMR90~1\AppData\Local\Temp\ccNmN5zT.s:25155  .debug_str:0000000000013752 .LASF1385
C:\Users\CYMR90~1\AppData\Local\Temp\ccNmN5zT.s:26944  .debug_str:000000000001ac15 .LASF1386
C:\Users\CYMR90~1\AppData\Local\Temp\ccNmN5zT.s:30026  .debug_str:0000000000026df2 .LASF1387
C:\Users\CYMR90~1\AppData\Local\Temp\ccNmN5zT.s:21813  .debug_str:0000000000005f01 .LASF1388
C:\Users\CYMR90~1\AppData\Local\Temp\ccNmN5zT.s:24887  .debug_str:000000000001251c .LASF1389
C:\Users\CYMR90~1\AppData\Local\Temp\ccNmN5zT.s:24243  .debug_str:000000000000fb91 .LASF1390
C:\Users\CYMR90~1\AppData\Local\Temp\ccNmN5zT.s:27238  .debug_str:000000000001be52 .LASF1391
C:\Users\CYMR90~1\AppData\Local\Temp\ccNmN5zT.s:30362  .debug_str:00000000000284f0 .LASF1392
C:\Users\CYMR90~1\AppData\Local\Temp\ccNmN5zT.s:22167  .debug_str:00000000000075bb .LASF1393
C:\Users\CYMR90~1\AppData\Local\Temp\ccNmN5zT.s:25279  .debug_str:0000000000013eb9 .LASF1394
C:\Users\CYMR90~1\AppData\Local\Temp\ccNmN5zT.s:21249  .debug_str:0000000000003b5f .LASF1395
C:\Users\CYMR90~1\AppData\Local\Temp\ccNmN5zT.s:31604  .debug_str:000000000002d236 .LASF1396
C:\Users\CYMR90~1\AppData\Local\Temp\ccNmN5zT.s:23417  .debug_str:000000000000c7a5 .LASF1397
C:\Users\CYMR90~1\AppData\Local\Temp\ccNmN5zT.s:27968  .debug_str:000000000001ed4c .LASF1398
C:\Users\CYMR90~1\AppData\Local\Temp\ccNmN5zT.s:24593  .debug_str:000000000001117c .LASF1399
C:\Users\CYMR90~1\AppData\Local\Temp\ccNmN5zT.s:25877  .debug_str:0000000000016450 .LASF1400
C:\Users\CYMR90~1\AppData\Local\Temp\ccNmN5zT.s:20591  .debug_str:000000000000128f .LASF1401
C:\Users\CYMR90~1\AppData\Local\Temp\ccNmN5zT.s:28300  .debug_str:00000000000201a1 .LASF1402
C:\Users\CYMR90~1\AppData\Local\Temp\ccNmN5zT.s:23241  .debug_str:000000000000bbea .LASF1403
C:\Users\CYMR90~1\AppData\Local\Temp\ccNmN5zT.s:28068  .debug_str:000000000001f37d .LASF1404
C:\Users\CYMR90~1\AppData\Local\Temp\ccNmN5zT.s:21317  .debug_str:0000000000003fd0 .LASF1405
C:\Users\CYMR90~1\AppData\Local\Temp\ccNmN5zT.s:30852  .debug_str:000000000002a28e .LASF1406
C:\Users\CYMR90~1\AppData\Local\Temp\ccNmN5zT.s:29026  .debug_str:0000000000022df7 .LASF1407
C:\Users\CYMR90~1\AppData\Local\Temp\ccNmN5zT.s:29188  .debug_str:000000000002374e .LASF1408
C:\Users\CYMR90~1\AppData\Local\Temp\ccNmN5zT.s:20983  .debug_str:0000000000002a61 .LASF1409
C:\Users\CYMR90~1\AppData\Local\Temp\ccNmN5zT.s:24151  .debug_str:000000000000f58a .LASF1410
C:\Users\CYMR90~1\AppData\Local\Temp\ccNmN5zT.s:30594  .debug_str:0000000000029358 .LASF1411
C:\Users\CYMR90~1\AppData\Local\Temp\ccNmN5zT.s:22399  .debug_str:00000000000085b1 .LASF1412
C:\Users\CYMR90~1\AppData\Local\Temp\ccNmN5zT.s:25499  .debug_str:0000000000014c67 .LASF1413
C:\Users\CYMR90~1\AppData\Local\Temp\ccNmN5zT.s:28600  .debug_str:000000000002145a .LASF1414
C:\Users\CYMR90~1\AppData\Local\Temp\ccNmN5zT.s:20441  .debug_str:000000000000092d .LASF1415
C:\Users\CYMR90~1\AppData\Local\Temp\ccNmN5zT.s:23509  .debug_str:000000000000ce01 .LASF1416
C:\Users\CYMR90~1\AppData\Local\Temp\ccNmN5zT.s:26622  .debug_str:0000000000019624 .LASF1417
C:\Users\CYMR90~1\AppData\Local\Temp\ccNmN5zT.s:28128  .debug_str:000000000001f706 .LASF1418
C:\Users\CYMR90~1\AppData\Local\Temp\ccNmN5zT.s:21513  .debug_str:0000000000004d39 .LASF1419
C:\Users\CYMR90~1\AppData\Local\Temp\ccNmN5zT.s:24579  .debug_str:000000000001109d .LASF1420
C:\Users\CYMR90~1\AppData\Local\Temp\ccNmN5zT.s:23925  .debug_str:000000000000e815 .LASF1421
C:\Users\CYMR90~1\AppData\Local\Temp\ccNmN5zT.s:27058  .debug_str:000000000001b3a5 .LASF1422
C:\Users\CYMR90~1\AppData\Local\Temp\ccNmN5zT.s:30144  .debug_str:0000000000027602 .LASF1423
C:\Users\CYMR90~1\AppData\Local\Temp\ccNmN5zT.s:21057  .debug_str:0000000000002f0e .LASF1424
C:\Users\CYMR90~1\AppData\Local\Temp\ccNmN5zT.s:25093  .debug_str:0000000000013298 .LASF1425
C:\Users\CYMR90~1\AppData\Local\Temp\ccNmN5zT.s:28060  .debug_str:000000000001f2e4 .LASF1426
C:\Users\CYMR90~1\AppData\Local\Temp\ccNmN5zT.s:31310  .debug_str:000000000002bf89 .LASF1427
C:\Users\CYMR90~1\AppData\Local\Temp\ccNmN5zT.s:23113  .debug_str:000000000000b35e .LASF1428
C:\Users\CYMR90~1\AppData\Local\Temp\ccNmN5zT.s:26198  .debug_str:0000000000017ae6 .LASF1429
C:\Users\CYMR90~1\AppData\Local\Temp\ccNmN5zT.s:29322  .debug_str:0000000000023f26 .LASF1430
C:\Users\CYMR90~1\AppData\Local\Temp\ccNmN5zT.s:28070  .debug_str:000000000001f395 .LASF1431
C:\Users\CYMR90~1\AppData\Local\Temp\ccNmN5zT.s:20403  .debug_str:00000000000006de .LASF1432
C:\Users\CYMR90~1\AppData\Local\Temp\ccNmN5zT.s:24617  .debug_str:00000000000112f5 .LASF1433
C:\Users\CYMR90~1\AppData\Local\Temp\ccNmN5zT.s:28304  .debug_str:00000000000201cb .LASF1434
C:\Users\CYMR90~1\AppData\Local\Temp\ccNmN5zT.s:27352  .debug_str:000000000001c532 .LASF1435
C:\Users\CYMR90~1\AppData\Local\Temp\ccNmN5zT.s:26404  .debug_str:0000000000018754 .LASF1436
C:\Users\CYMR90~1\AppData\Local\Temp\ccNmN5zT.s:25835  .debug_str:00000000000161e7 .LASF1437
C:\Users\CYMR90~1\AppData\Local\Temp\ccNmN5zT.s:30176  .debug_str:00000000000277b9 .LASF1438
C:\Users\CYMR90~1\AppData\Local\Temp\ccNmN5zT.s:29208  .debug_str:00000000000238d3 .LASF1439
C:\Users\CYMR90~1\AppData\Local\Temp\ccNmN5zT.s:28226  .debug_str:000000000001fd04 .LASF1440
C:\Users\CYMR90~1\AppData\Local\Temp\ccNmN5zT.s:27278  .debug_str:000000000001c0e6 .LASF1441
C:\Users\CYMR90~1\AppData\Local\Temp\ccNmN5zT.s:26328  .debug_str:00000000000182a7 .LASF1442
C:\Users\CYMR90~1\AppData\Local\Temp\ccNmN5zT.s:25367  .debug_str:000000000001443c .LASF1443
C:\Users\CYMR90~1\AppData\Local\Temp\ccNmN5zT.s:24435  .debug_str:00000000000107c8 .LASF1444
C:\Users\CYMR90~1\AppData\Local\Temp\ccNmN5zT.s:31266  .debug_str:000000000002bc54 .LASF1445
C:\Users\CYMR90~1\AppData\Local\Temp\ccNmN5zT.s:22513  .debug_str:0000000000008cb2 .LASF1446
C:\Users\CYMR90~1\AppData\Local\Temp\ccNmN5zT.s:24063  .debug_str:000000000000f014 .LASF1447
C:\Users\CYMR90~1\AppData\Local\Temp\ccNmN5zT.s:29552  .debug_str:0000000000024ed9 .LASF1448
C:\Users\CYMR90~1\AppData\Local\Temp\ccNmN5zT.s:28578  .debug_str:0000000000021265 .LASF1449
C:\Users\CYMR90~1\AppData\Local\Temp\ccNmN5zT.s:27608  .debug_str:000000000001d71c .LASF1450
C:\Users\CYMR90~1\AppData\Local\Temp\ccNmN5zT.s:26690  .debug_str:0000000000019b0f .LASF1451
C:\Users\CYMR90~1\AppData\Local\Temp\ccNmN5zT.s:25707  .debug_str:000000000001594c .LASF1452
C:\Users\CYMR90~1\AppData\Local\Temp\ccNmN5zT.s:23111  .debug_str:000000000000b34b .LASF1453
C:\Users\CYMR90~1\AppData\Local\Temp\ccNmN5zT.s:21725  .debug_str:00000000000059be .LASF1454
C:\Users\CYMR90~1\AppData\Local\Temp\ccNmN5zT.s:22919  .debug_str:000000000000a5e0 .LASF1455
C:\Users\CYMR90~1\AppData\Local\Temp\ccNmN5zT.s:27972  .debug_str:000000000001ed8e .LASF1456
C:\Users\CYMR90~1\AppData\Local\Temp\ccNmN5zT.s:29604  .debug_str:0000000000025283 .LASF1457
C:\Users\CYMR90~1\AppData\Local\Temp\ccNmN5zT.s:21479  .debug_str:0000000000004b24 .LASF1458
C:\Users\CYMR90~1\AppData\Local\Temp\ccNmN5zT.s:28054  .debug_str:000000000001f296 .LASF1459
C:\Users\CYMR90~1\AppData\Local\Temp\ccNmN5zT.s:24907  .debug_str:000000000001265e .LASF1460
C:\Users\CYMR90~1\AppData\Local\Temp\ccNmN5zT.s:23023  .debug_str:000000000000ad2c .LASF1461
C:\Users\CYMR90~1\AppData\Local\Temp\ccNmN5zT.s:24203  .debug_str:000000000000f947 .LASF1462
C:\Users\CYMR90~1\AppData\Local\Temp\ccNmN5zT.s:24697  .debug_str:000000000001189b .LASF1463
C:\Users\CYMR90~1\AppData\Local\Temp\ccNmN5zT.s:25769  .debug_str:0000000000015d1e .LASF1464
C:\Users\CYMR90~1\AppData\Local\Temp\ccNmN5zT.s:31044  .debug_str:000000000002ae14 .LASF1465
C:\Users\CYMR90~1\AppData\Local\Temp\ccNmN5zT.s:26956  .debug_str:000000000001acda .LASF1466
C:\Users\CYMR90~1\AppData\Local\Temp\ccNmN5zT.s:25371  .debug_str:0000000000014463 .LASF1467
C:\Users\CYMR90~1\AppData\Local\Temp\ccNmN5zT.s:30056  .debug_str:0000000000026fe7 .LASF1468
C:\Users\CYMR90~1\AppData\Local\Temp\ccNmN5zT.s:24379  .debug_str:00000000000103ec .LASF1469
C:\Users\CYMR90~1\AppData\Local\Temp\ccNmN5zT.s:22471  .debug_str:0000000000008a2c .LASF1470
C:\Users\CYMR90~1\AppData\Local\Temp\ccNmN5zT.s:24665  .debug_str:0000000000011610 .LASF1471
C:\Users\CYMR90~1\AppData\Local\Temp\ccNmN5zT.s:26226  .debug_str:0000000000017c80 .LASF1472
C:\Users\CYMR90~1\AppData\Local\Temp\ccNmN5zT.s:29506  .debug_str:0000000000024bcd .LASF1473
C:\Users\CYMR90~1\AppData\Local\Temp\ccNmN5zT.s:30150  .debug_str:0000000000027653 .LASF1474
C:\Users\CYMR90~1\AppData\Local\Temp\ccNmN5zT.s:20493  .debug_str:0000000000000cae .LASF1475
C:\Users\CYMR90~1\AppData\Local\Temp\ccNmN5zT.s:22401  .debug_str:00000000000085ca .LASF1476
C:\Users\CYMR90~1\AppData\Local\Temp\ccNmN5zT.s:21009  .debug_str:0000000000002c24 .LASF1477
C:\Users\CYMR90~1\AppData\Local\Temp\ccNmN5zT.s:30328  .debug_str:00000000000281fb .LASF1478
C:\Users\CYMR90~1\AppData\Local\Temp\ccNmN5zT.s:29354  .debug_str:00000000000241aa .LASF1479
C:\Users\CYMR90~1\AppData\Local\Temp\ccNmN5zT.s:21131  .debug_str:00000000000033e5 .LASF1480
C:\Users\CYMR90~1\AppData\Local\Temp\ccNmN5zT.s:23369  .debug_str:000000000000c4b0 .LASF1481
C:\Users\CYMR90~1\AppData\Local\Temp\ccNmN5zT.s:29474  .debug_str:00000000000249d9 .LASF1482
C:\Users\CYMR90~1\AppData\Local\Temp\ccNmN5zT.s:22709  .debug_str:000000000000991e .LASF1483
C:\Users\CYMR90~1\AppData\Local\Temp\ccNmN5zT.s:21519  .debug_str:0000000000004d92 .LASF1484
C:\Users\CYMR90~1\AppData\Local\Temp\ccNmN5zT.s:23935  .debug_str:000000000000e8b7 .LASF1485
C:\Users\CYMR90~1\AppData\Local\Temp\ccNmN5zT.s:25339  .debug_str:00000000000142bb .LASF1486
C:\Users\CYMR90~1\AppData\Local\Temp\ccNmN5zT.s:26940  .debug_str:000000000001abe6 .LASF1487
C:\Users\CYMR90~1\AppData\Local\Temp\ccNmN5zT.s:20325  .debug_str:0000000000000225 .LASF1488
C:\Users\CYMR90~1\AppData\Local\Temp\ccNmN5zT.s:25727  .debug_str:0000000000015a6e .LASF1489
C:\Users\CYMR90~1\AppData\Local\Temp\ccNmN5zT.s:23737  .debug_str:000000000000dc56 .LASF1490
C:\Users\CYMR90~1\AppData\Local\Temp\ccNmN5zT.s:30558  .debug_str:000000000002916a .LASF1491
C:\Users\CYMR90~1\AppData\Local\Temp\ccNmN5zT.s:20977  .debug_str:00000000000029fa .LASF1492
C:\Users\CYMR90~1\AppData\Local\Temp\ccNmN5zT.s:28532  .debug_str:0000000000020fe2 .LASF1493
C:\Users\CYMR90~1\AppData\Local\Temp\ccNmN5zT.s:30782  .debug_str:0000000000029e90 .LASF1494
C:\Users\CYMR90~1\AppData\Local\Temp\ccNmN5zT.s:22153  .debug_str:00000000000074f0 .LASF1495
C:\Users\CYMR90~1\AppData\Local\Temp\ccNmN5zT.s:29826  .debug_str:0000000000026218 .LASF1496
C:\Users\CYMR90~1\AppData\Local\Temp\ccNmN5zT.s:30530  .debug_str:0000000000028f9d .LASF1497
C:\Users\CYMR90~1\AppData\Local\Temp\ccNmN5zT.s:21949  .debug_str:0000000000006739 .LASF1498
C:\Users\CYMR90~1\AppData\Local\Temp\ccNmN5zT.s:22799  .debug_str:0000000000009e67 .LASF1499
C:\Users\CYMR90~1\AppData\Local\Temp\ccNmN5zT.s:31478  .debug_str:000000000002ca2c .LASF1500
C:\Users\CYMR90~1\AppData\Local\Temp\ccNmN5zT.s:30698  .debug_str:0000000000029993 .LASF1501
C:\Users\CYMR90~1\AppData\Local\Temp\ccNmN5zT.s:28434  .debug_str:0000000000020a22 .LASF1502
C:\Users\CYMR90~1\AppData\Local\Temp\ccNmN5zT.s:21929  .debug_str:0000000000006602 .LASF1503
C:\Users\CYMR90~1\AppData\Local\Temp\ccNmN5zT.s:30784  .debug_str:0000000000029e9e .LASF1504
C:\Users\CYMR90~1\AppData\Local\Temp\ccNmN5zT.s:27814  .debug_str:000000000001e40d .LASF1505
C:\Users\CYMR90~1\AppData\Local\Temp\ccNmN5zT.s:27138  .debug_str:000000000001b85b .LASF1506
C:\Users\CYMR90~1\AppData\Local\Temp\ccNmN5zT.s:24057  .debug_str:000000000000efc5 .LASF1507
C:\Users\CYMR90~1\AppData\Local\Temp\ccNmN5zT.s:28632  .debug_str:0000000000021638 .LASF1508
C:\Users\CYMR90~1\AppData\Local\Temp\ccNmN5zT.s:24851  .debug_str:00000000000122bb .LASF1509
C:\Users\CYMR90~1\AppData\Local\Temp\ccNmN5zT.s:30432  .debug_str:00000000000289b5 .LASF1510
C:\Users\CYMR90~1\AppData\Local\Temp\ccNmN5zT.s:29222  .debug_str:000000000002398d .LASF1511
C:\Users\CYMR90~1\AppData\Local\Temp\ccNmN5zT.s:21177  .debug_str:0000000000003699 .LASF1512
C:\Users\CYMR90~1\AppData\Local\Temp\ccNmN5zT.s:25789  .debug_str:0000000000015ec9 .LASF1513
C:\Users\CYMR90~1\AppData\Local\Temp\ccNmN5zT.s:29630  .debug_str:00000000000254b2 .LASF1514
C:\Users\CYMR90~1\AppData\Local\Temp\ccNmN5zT.s:28030  .debug_str:000000000001f14a .LASF1515
C:\Users\CYMR90~1\AppData\Local\Temp\ccNmN5zT.s:31208  .debug_str:000000000002b873 .LASF1516
C:\Users\CYMR90~1\AppData\Local\Temp\ccNmN5zT.s:27864  .debug_str:000000000001e6f6 .LASF1517
C:\Users\CYMR90~1\AppData\Local\Temp\ccNmN5zT.s:29862  .debug_str:0000000000026405 .LASF1518
C:\Users\CYMR90~1\AppData\Local\Temp\ccNmN5zT.s:24841  .debug_str:000000000001224a .LASF1519
C:\Users\CYMR90~1\AppData\Local\Temp\ccNmN5zT.s:28252  .debug_str:000000000001feb7 .LASF1520
C:\Users\CYMR90~1\AppData\Local\Temp\ccNmN5zT.s:27310  .debug_str:000000000001c2e4 .LASF1521
C:\Users\CYMR90~1\AppData\Local\Temp\ccNmN5zT.s:28570  .debug_str:00000000000211f6 .LASF1522
C:\Users\CYMR90~1\AppData\Local\Temp\ccNmN5zT.s:26596  .debug_str:0000000000019464 .LASF1523
C:\Users\CYMR90~1\AppData\Local\Temp\ccNmN5zT.s:29224  .debug_str:00000000000239a3 .LASF1524
C:\Users\CYMR90~1\AppData\Local\Temp\ccNmN5zT.s:21591  .debug_str:00000000000051c5 .LASF1525
C:\Users\CYMR90~1\AppData\Local\Temp\ccNmN5zT.s:27252  .debug_str:000000000001bf4b .LASF1526
C:\Users\CYMR90~1\AppData\Local\Temp\ccNmN5zT.s:23391  .debug_str:000000000000c612 .LASF1527
C:\Users\CYMR90~1\AppData\Local\Temp\ccNmN5zT.s:28972  .debug_str:0000000000022a91 .LASF1528
C:\Users\CYMR90~1\AppData\Local\Temp\ccNmN5zT.s:30228  .debug_str:0000000000027ad4 .LASF1529
C:\Users\CYMR90~1\AppData\Local\Temp\ccNmN5zT.s:29466  .debug_str:00000000000248d4 .LASF1530
C:\Users\CYMR90~1\AppData\Local\Temp\ccNmN5zT.s:29530  .debug_str:0000000000024d51 .LASF1531
C:\Users\CYMR90~1\AppData\Local\Temp\ccNmN5zT.s:21339  .debug_str:00000000000040ea .LASF1532
C:\Users\CYMR90~1\AppData\Local\Temp\ccNmN5zT.s:26546  .debug_str:00000000000190b9 .LASF1533
C:\Users\CYMR90~1\AppData\Local\Temp\ccNmN5zT.s:29348  .debug_str:000000000002406a .LASF1534
C:\Users\CYMR90~1\AppData\Local\Temp\ccNmN5zT.s:22957  .debug_str:000000000000a845 .LASF1535
C:\Users\CYMR90~1\AppData\Local\Temp\ccNmN5zT.s:29534  .debug_str:0000000000024dd1 .LASF1536
C:\Users\CYMR90~1\AppData\Local\Temp\ccNmN5zT.s:28876  .debug_str:00000000000224b8 .LASF1537
C:\Users\CYMR90~1\AppData\Local\Temp\ccNmN5zT.s:30102  .debug_str:00000000000272b7 .LASF1538
C:\Users\CYMR90~1\AppData\Local\Temp\ccNmN5zT.s:29992  .debug_str:0000000000026bdd .LASF1539
C:\Users\CYMR90~1\AppData\Local\Temp\ccNmN5zT.s:24721  .debug_str:0000000000011aa8 .LASF1540
C:\Users\CYMR90~1\AppData\Local\Temp\ccNmN5zT.s:30724  .debug_str:0000000000029b1b .LASF1541
C:\Users\CYMR90~1\AppData\Local\Temp\ccNmN5zT.s:23713  .debug_str:000000000000db1f .LASF1542
C:\Users\CYMR90~1\AppData\Local\Temp\ccNmN5zT.s:21097  .debug_str:000000000000318a .LASF1543
C:\Users\CYMR90~1\AppData\Local\Temp\ccNmN5zT.s:31192  .debug_str:000000000002b75b .LASF1544
C:\Users\CYMR90~1\AppData\Local\Temp\ccNmN5zT.s:22333  .debug_str:000000000000815d .LASF1545
C:\Users\CYMR90~1\AppData\Local\Temp\ccNmN5zT.s:22807  .debug_str:0000000000009eda .LASF1546
C:\Users\CYMR90~1\AppData\Local\Temp\ccNmN5zT.s:23447  .debug_str:000000000000c9fd .LASF1547
C:\Users\CYMR90~1\AppData\Local\Temp\ccNmN5zT.s:30304  .debug_str:000000000002801a .LASF1548
C:\Users\CYMR90~1\AppData\Local\Temp\ccNmN5zT.s:29796  .debug_str:0000000000025fcf .LASF1549
C:\Users\CYMR90~1\AppData\Local\Temp\ccNmN5zT.s:27204  .debug_str:000000000001bbd4 .LASF1550
C:\Users\CYMR90~1\AppData\Local\Temp\ccNmN5zT.s:24589  .debug_str:000000000001112e .LASF1551
C:\Users\CYMR90~1\AppData\Local\Temp\ccNmN5zT.s:27174  .debug_str:000000000001ba26 .LASF1552
C:\Users\CYMR90~1\AppData\Local\Temp\ccNmN5zT.s:20559  .debug_str:00000000000010b0 .LASF1553
C:\Users\CYMR90~1\AppData\Local\Temp\ccNmN5zT.s:20877  .debug_str:0000000000002367 .LASF1554
C:\Users\CYMR90~1\AppData\Local\Temp\ccNmN5zT.s:27898  .debug_str:000000000001e94a .LASF1555
C:\Users\CYMR90~1\AppData\Local\Temp\ccNmN5zT.s:26498  .debug_str:0000000000018dbb .LASF1556
C:\Users\CYMR90~1\AppData\Local\Temp\ccNmN5zT.s:26522  .debug_str:0000000000018f49 .LASF1557
C:\Users\CYMR90~1\AppData\Local\Temp\ccNmN5zT.s:30810  .debug_str:000000000002a011 .LASF1558
C:\Users\CYMR90~1\AppData\Local\Temp\ccNmN5zT.s:24431  .debug_str:000000000001079c .LASF1559
C:\Users\CYMR90~1\AppData\Local\Temp\ccNmN5zT.s:29234  .debug_str:0000000000023a1c .LASF1560
C:\Users\CYMR90~1\AppData\Local\Temp\ccNmN5zT.s:29658  .debug_str:00000000000256b3 .LASF1561
C:\Users\CYMR90~1\AppData\Local\Temp\ccNmN5zT.s:24541  .debug_str:0000000000010e8d .LASF1562
C:\Users\CYMR90~1\AppData\Local\Temp\ccNmN5zT.s:21773  .debug_str:0000000000005cc3 .LASF1563
C:\Users\CYMR90~1\AppData\Local\Temp\ccNmN5zT.s:31308  .debug_str:000000000002bee3 .LASF1564
C:\Users\CYMR90~1\AppData\Local\Temp\ccNmN5zT.s:22087  .debug_str:0000000000006ff7 .LASF1565
C:\Users\CYMR90~1\AppData\Local\Temp\ccNmN5zT.s:27606  .debug_str:000000000001d68e .LASF1566
C:\Users\CYMR90~1\AppData\Local\Temp\ccNmN5zT.s:26894  .debug_str:000000000001a896 .LASF1567
C:\Users\CYMR90~1\AppData\Local\Temp\ccNmN5zT.s:28370  .debug_str:00000000000205d8 .LASF1568
C:\Users\CYMR90~1\AppData\Local\Temp\ccNmN5zT.s:24719  .debug_str:0000000000011a01 .LASF1569
C:\Users\CYMR90~1\AppData\Local\Temp\ccNmN5zT.s:29684  .debug_str:0000000000025889 .LASF1570
C:\Users\CYMR90~1\AppData\Local\Temp\ccNmN5zT.s:25113  .debug_str:000000000001347e .LASF1571
C:\Users\CYMR90~1\AppData\Local\Temp\ccNmN5zT.s:21641  .debug_str:00000000000054e6 .LASF1572
C:\Users\CYMR90~1\AppData\Local\Temp\ccNmN5zT.s:25531  .debug_str:0000000000014eb8 .LASF1573
C:\Users\CYMR90~1\AppData\Local\Temp\ccNmN5zT.s:30418  .debug_str:00000000000288e0 .LASF1574
C:\Users\CYMR90~1\AppData\Local\Temp\ccNmN5zT.s:26002  .debug_str:0000000000016eb5 .LASF1575
C:\Users\CYMR90~1\AppData\Local\Temp\ccNmN5zT.s:24093  .debug_str:000000000000f1ee .LASF1576
C:\Users\CYMR90~1\AppData\Local\Temp\ccNmN5zT.s:27902  .debug_str:000000000001e98c .LASF1577
C:\Users\CYMR90~1\AppData\Local\Temp\ccNmN5zT.s:30920  .debug_str:000000000002a697 .LASF1578
C:\Users\CYMR90~1\AppData\Local\Temp\ccNmN5zT.s:20887  .debug_str:00000000000023f2 .LASF1579
C:\Users\CYMR90~1\AppData\Local\Temp\ccNmN5zT.s:27452  .debug_str:000000000001cc13 .LASF1580
C:\Users\CYMR90~1\AppData\Local\Temp\ccNmN5zT.s:22925  .debug_str:000000000000a633 .LASF1581
C:\Users\CYMR90~1\AppData\Local\Temp\ccNmN5zT.s:23631  .debug_str:000000000000d65c .LASF1582
C:\Users\CYMR90~1\AppData\Local\Temp\ccNmN5zT.s:22323  .debug_str:0000000000008031 .LASF1583
C:\Users\CYMR90~1\AppData\Local\Temp\ccNmN5zT.s:30104  .debug_str:00000000000272d5 .LASF1584
C:\Users\CYMR90~1\AppData\Local\Temp\ccNmN5zT.s:27710  .debug_str:000000000001dd60 .LASF1585
C:\Users\CYMR90~1\AppData\Local\Temp\ccNmN5zT.s:31532  .debug_str:000000000002cd3a .LASF1586
C:\Users\CYMR90~1\AppData\Local\Temp\ccNmN5zT.s:23605  .debug_str:000000000000d412 .LASF1587
C:\Users\CYMR90~1\AppData\Local\Temp\ccNmN5zT.s:22283  .debug_str:0000000000007d02 .LASF1588
C:\Users\CYMR90~1\AppData\Local\Temp\ccNmN5zT.s:25977  .debug_str:0000000000016b06 .LASF1589
C:\Users\CYMR90~1\AppData\Local\Temp\ccNmN5zT.s:23139  .debug_str:000000000000b4d2 .LASF1590
C:\Users\CYMR90~1\AppData\Local\Temp\ccNmN5zT.s:25901  .debug_str:0000000000016581 .LASF1591
C:\Users\CYMR90~1\AppData\Local\Temp\ccNmN5zT.s:22525  .debug_str:0000000000008d42 .LASF1592
C:\Users\CYMR90~1\AppData\Local\Temp\ccNmN5zT.s:25105  .debug_str:0000000000013399 .LASF1593
C:\Users\CYMR90~1\AppData\Local\Temp\ccNmN5zT.s:24423  .debug_str:000000000001066d .LASF1594
C:\Users\CYMR90~1\AppData\Local\Temp\ccNmN5zT.s:30336  .debug_str:00000000000282b1 .LASF1595
C:\Users\CYMR90~1\AppData\Local\Temp\ccNmN5zT.s:20527  .debug_str:0000000000000e82 .LASF1596
C:\Users\CYMR90~1\AppData\Local\Temp\ccNmN5zT.s:27480  .debug_str:000000000001cdef .LASF1597
C:\Users\CYMR90~1\AppData\Local\Temp\ccNmN5zT.s:21449  .debug_str:00000000000048bb .LASF1598
C:\Users\CYMR90~1\AppData\Local\Temp\ccNmN5zT.s:29606  .debug_str:0000000000025292 .LASF1599
C:\Users\CYMR90~1\AppData\Local\Temp\ccNmN5zT.s:20669  .debug_str:00000000000016ed .LASF1600
C:\Users\CYMR90~1\AppData\Local\Temp\ccNmN5zT.s:24177  .debug_str:000000000000f6fb .LASF1601
C:\Users\CYMR90~1\AppData\Local\Temp\ccNmN5zT.s:28594  .debug_str:000000000002135d .LASF1602
C:\Users\CYMR90~1\AppData\Local\Temp\ccNmN5zT.s:27504  .debug_str:000000000001cfff .LASF1603
C:\Users\CYMR90~1\AppData\Local\Temp\ccNmN5zT.s:27398  .debug_str:000000000001c815 .LASF1604
C:\Users\CYMR90~1\AppData\Local\Temp\ccNmN5zT.s:29586  .debug_str:00000000000250d1 .LASF1605
C:\Users\CYMR90~1\AppData\Local\Temp\ccNmN5zT.s:29508  .debug_str:0000000000024be3 .LASF1606
C:\Users\CYMR90~1\AppData\Local\Temp\ccNmN5zT.s:29458  .debug_str:000000000002486c .LASF1607
C:\Users\CYMR90~1\AppData\Local\Temp\ccNmN5zT.s:26442  .debug_str:0000000000018983 .LASF1608
C:\Users\CYMR90~1\AppData\Local\Temp\ccNmN5zT.s:21427  .debug_str:0000000000004734 .LASF1609
C:\Users\CYMR90~1\AppData\Local\Temp\ccNmN5zT.s:28806  .debug_str:00000000000220cd .LASF1610
C:\Users\CYMR90~1\AppData\Local\Temp\ccNmN5zT.s:31436  .debug_str:000000000002c739 .LASF1611
C:\Users\CYMR90~1\AppData\Local\Temp\ccNmN5zT.s:27348  .debug_str:000000000001c4f6 .LASF1612
C:\Users\CYMR90~1\AppData\Local\Temp\ccNmN5zT.s:25417  .debug_str:000000000001477c .LASF1613
C:\Users\CYMR90~1\AppData\Local\Temp\ccNmN5zT.s:22793  .debug_str:0000000000009e09 .LASF1614
C:\Users\CYMR90~1\AppData\Local\Temp\ccNmN5zT.s:27042  .debug_str:000000000001b27a .LASF1615
C:\Users\CYMR90~1\AppData\Local\Temp\ccNmN5zT.s:28688  .debug_str:0000000000021997 .LASF1616
C:\Users\CYMR90~1\AppData\Local\Temp\ccNmN5zT.s:25505  .debug_str:0000000000014cbf .LASF1617
C:\Users\CYMR90~1\AppData\Local\Temp\ccNmN5zT.s:27410  .debug_str:000000000001c989 .LASF1618
C:\Users\CYMR90~1\AppData\Local\Temp\ccNmN5zT.s:21473  .debug_str:0000000000004ac4 .LASF1619
C:\Users\CYMR90~1\AppData\Local\Temp\ccNmN5zT.s:23175  .debug_str:000000000000b7b7 .LASF1620
C:\Users\CYMR90~1\AppData\Local\Temp\ccNmN5zT.s:24011  .debug_str:000000000000ed5b .LASF1621
C:\Users\CYMR90~1\AppData\Local\Temp\ccNmN5zT.s:21037  .debug_str:0000000000002de4 .LASF1622
C:\Users\CYMR90~1\AppData\Local\Temp\ccNmN5zT.s:28400  .debug_str:00000000000207ec .LASF1623
C:\Users\CYMR90~1\AppData\Local\Temp\ccNmN5zT.s:25107  .debug_str:0000000000013434 .LASF1624
C:\Users\CYMR90~1\AppData\Local\Temp\ccNmN5zT.s:23273  .debug_str:000000000000be91 .LASF1625
C:\Users\CYMR90~1\AppData\Local\Temp\ccNmN5zT.s:29098  .debug_str:00000000000231b6 .LASF1626
C:\Users\CYMR90~1\AppData\Local\Temp\ccNmN5zT.s:21953  .debug_str:0000000000006774 .LASF1627
C:\Users\CYMR90~1\AppData\Local\Temp\ccNmN5zT.s:28146  .debug_str:000000000001f813 .LASF1628
C:\Users\CYMR90~1\AppData\Local\Temp\ccNmN5zT.s:23035  .debug_str:000000000000adee .LASF1629
C:\Users\CYMR90~1\AppData\Local\Temp\ccNmN5zT.s:28886  .debug_str:0000000000022524 .LASF1630
C:\Users\CYMR90~1\AppData\Local\Temp\ccNmN5zT.s:22507  .debug_str:0000000000008c5b .LASF1631
C:\Users\CYMR90~1\AppData\Local\Temp\ccNmN5zT.s:20625  .debug_str:0000000000001464 .LASF1632
C:\Users\CYMR90~1\AppData\Local\Temp\ccNmN5zT.s:27152  .debug_str:000000000001b93e .LASF1633
C:\Users\CYMR90~1\AppData\Local\Temp\ccNmN5zT.s:26134  .debug_str:0000000000017699 .LASF1634
C:\Users\CYMR90~1\AppData\Local\Temp\ccNmN5zT.s:23255  .debug_str:000000000000bd16 .LASF1635
C:\Users\CYMR90~1\AppData\Local\Temp\ccNmN5zT.s:23363  .debug_str:000000000000c46a .LASF1636
C:\Users\CYMR90~1\AppData\Local\Temp\ccNmN5zT.s:27014  .debug_str:000000000001b0c4 .LASF1637
C:\Users\CYMR90~1\AppData\Local\Temp\ccNmN5zT.s:23431  .debug_str:000000000000c8ea .LASF1638
C:\Users\CYMR90~1\AppData\Local\Temp\ccNmN5zT.s:23151  .debug_str:000000000000b60b .LASF1639
C:\Users\CYMR90~1\AppData\Local\Temp\ccNmN5zT.s:26344  .debug_str:000000000001839a .LASF1640
C:\Users\CYMR90~1\AppData\Local\Temp\ccNmN5zT.s:24385  .debug_str:000000000001042c .LASF1641
C:\Users\CYMR90~1\AppData\Local\Temp\ccNmN5zT.s:29448  .debug_str:00000000000247d0 .LASF1642
C:\Users\CYMR90~1\AppData\Local\Temp\ccNmN5zT.s:24729  .debug_str:0000000000011b49 .LASF1643
C:\Users\CYMR90~1\AppData\Local\Temp\ccNmN5zT.s:28288  .debug_str:00000000000200f3 .LASF1644
C:\Users\CYMR90~1\AppData\Local\Temp\ccNmN5zT.s:31402  .debug_str:000000000002c56b .LASF1645
C:\Users\CYMR90~1\AppData\Local\Temp\ccNmN5zT.s:21027  .debug_str:0000000000002d5c .LASF1646
C:\Users\CYMR90~1\AppData\Local\Temp\ccNmN5zT.s:25939  .debug_str:000000000001685c .LASF1647
C:\Users\CYMR90~1\AppData\Local\Temp\ccNmN5zT.s:26046  .debug_str:0000000000017184 .LASF1648
C:\Users\CYMR90~1\AppData\Local\Temp\ccNmN5zT.s:20825  .debug_str:00000000000020b3 .LASF1649
C:\Users\CYMR90~1\AppData\Local\Temp\ccNmN5zT.s:22351  .debug_str:00000000000082aa .LASF1650
C:\Users\CYMR90~1\AppData\Local\Temp\ccNmN5zT.s:29114  .debug_str:00000000000232b3 .LASF1651
C:\Users\CYMR90~1\AppData\Local\Temp\ccNmN5zT.s:24477  .debug_str:00000000000109f8 .LASF1652
C:\Users\CYMR90~1\AppData\Local\Temp\ccNmN5zT.s:22237  .debug_str:00000000000079fa .LASF1653
C:\Users\CYMR90~1\AppData\Local\Temp\ccNmN5zT.s:20563  .debug_str:0000000000001107 .LASF1654
C:\Users\CYMR90~1\AppData\Local\Temp\ccNmN5zT.s:26240  .debug_str:0000000000017d43 .LASF1657
C:\Users\CYMR90~1\AppData\Local\Temp\ccNmN5zT.s:30968  .debug_str:000000000002a992 .LASF1658
C:\Users\CYMR90~1\AppData\Local\Temp\ccNmN5zT.s:24509  .debug_str:0000000000010d05 .LASF1659
C:\Users\CYMR90~1\AppData\Local\Temp\ccNmN5zT.s:26570  .debug_str:0000000000019300 .LASF1660
C:\Users\CYMR90~1\AppData\Local\Temp\ccNmN5zT.s:31204  .debug_str:000000000002b834 .LASF1661
C:\Users\CYMR90~1\AppData\Local\Temp\ccNmN5zT.s:31238  .debug_str:000000000002ba90 .LASF1662
C:\Users\CYMR90~1\AppData\Local\Temp\ccNmN5zT.s:28484  .debug_str:0000000000020d35 .LASF1663
C:\Users\CYMR90~1\AppData\Local\Temp\ccNmN5zT.s:25467  .debug_str:0000000000014a43 .LASF1664
C:\Users\CYMR90~1\AppData\Local\Temp\ccNmN5zT.s:27654  .debug_str:000000000001d9fd .LASF1665
C:\Users\CYMR90~1\AppData\Local\Temp\ccNmN5zT.s:28572  .debug_str:0000000000021211 .LASF1666
C:\Users\CYMR90~1\AppData\Local\Temp\ccNmN5zT.s:24215  .debug_str:000000000000f9d0 .LASF1667
C:\Users\CYMR90~1\AppData\Local\Temp\ccNmN5zT.s:23919  .debug_str:000000000000e79f .LASF1668
C:\Users\CYMR90~1\AppData\Local\Temp\ccNmN5zT.s:21265  .debug_str:0000000000003c3a .LASF1669
C:\Users\CYMR90~1\AppData\Local\Temp\ccNmN5zT.s:22545  .debug_str:0000000000008f0e .LASF1670
C:\Users\CYMR90~1\AppData\Local\Temp\ccNmN5zT.s:21487  .debug_str:0000000000004b90 .LASF1671
C:\Users\CYMR90~1\AppData\Local\Temp\ccNmN5zT.s:20377  .debug_str:000000000000054b .LASF1672
C:\Users\CYMR90~1\AppData\Local\Temp\ccNmN5zT.s:25393  .debug_str:00000000000145a3 .LASF1673
C:\Users\CYMR90~1\AppData\Local\Temp\ccNmN5zT.s:24801  .debug_str:0000000000011f58 .LASF1674
C:\Users\CYMR90~1\AppData\Local\Temp\ccNmN5zT.s:23959  .debug_str:000000000000ea14 .LASF1675
C:\Users\CYMR90~1\AppData\Local\Temp\ccNmN5zT.s:29472  .debug_str:00000000000249bf .LASF1676
C:\Users\CYMR90~1\AppData\Local\Temp\ccNmN5zT.s:24933  .debug_str:0000000000012808 .LASF1677
C:\Users\CYMR90~1\AppData\Local\Temp\ccNmN5zT.s:31404  .debug_str:000000000002c580 .LASF1678
C:\Users\CYMR90~1\AppData\Local\Temp\ccNmN5zT.s:20935  .debug_str:000000000000271a .LASF1679
C:\Users\CYMR90~1\AppData\Local\Temp\ccNmN5zT.s:28832  .debug_str:0000000000022251 .LASF1680
C:\Users\CYMR90~1\AppData\Local\Temp\ccNmN5zT.s:25635  .debug_str:000000000001553a .LASF1681
C:\Users\CYMR90~1\AppData\Local\Temp\ccNmN5zT.s:24309  .debug_str:000000000000ffb9 .LASF1682
C:\Users\CYMR90~1\AppData\Local\Temp\ccNmN5zT.s:26998  .debug_str:000000000001af42 .LASF1683
C:\Users\CYMR90~1\AppData\Local\Temp\ccNmN5zT.s:29064  .debug_str:000000000002300e .LASF1684
C:\Users\CYMR90~1\AppData\Local\Temp\ccNmN5zT.s:29984  .debug_str:0000000000026b72 .LASF1685
C:\Users\CYMR90~1\AppData\Local\Temp\ccNmN5zT.s:24457  .debug_str:0000000000010906 .LASF1686
C:\Users\CYMR90~1\AppData\Local\Temp\ccNmN5zT.s:28382  .debug_str:00000000000206d6 .LASF1687
C:\Users\CYMR90~1\AppData\Local\Temp\ccNmN5zT.s:30714  .debug_str:0000000000029a70 .LASF1688
C:\Users\CYMR90~1\AppData\Local\Temp\ccNmN5zT.s:29250  .debug_str:0000000000023b26 .LASF1689
C:\Users\CYMR90~1\AppData\Local\Temp\ccNmN5zT.s:27112  .debug_str:000000000001b6a8 .LASF1690
C:\Users\CYMR90~1\AppData\Local\Temp\ccNmN5zT.s:25195  .debug_str:00000000000139b6 .LASF1691
C:\Users\CYMR90~1\AppData\Local\Temp\ccNmN5zT.s:28788  .debug_str:0000000000021fb6 .LASF1692
C:\Users\CYMR90~1\AppData\Local\Temp\ccNmN5zT.s:26430  .debug_str:00000000000188ca .LASF1693
C:\Users\CYMR90~1\AppData\Local\Temp\ccNmN5zT.s:22345  .debug_str:0000000000008236 .LASF1694
C:\Users\CYMR90~1\AppData\Local\Temp\ccNmN5zT.s:27672  .debug_str:000000000001db22 .LASF1695
C:\Users\CYMR90~1\AppData\Local\Temp\ccNmN5zT.s:26208  .debug_str:0000000000017b5a .LASF1696
C:\Users\CYMR90~1\AppData\Local\Temp\ccNmN5zT.s:25513  .debug_str:0000000000014d52 .LASF1697
C:\Users\CYMR90~1\AppData\Local\Temp\ccNmN5zT.s:28044  .debug_str:000000000001f203 .LASF1698
C:\Users\CYMR90~1\AppData\Local\Temp\ccNmN5zT.s:26606  .debug_str:000000000001952b .LASF1699
C:\Users\CYMR90~1\AppData\Local\Temp\ccNmN5zT.s:28496  .debug_str:0000000000020de9 .LASF1700
C:\Users\CYMR90~1\AppData\Local\Temp\ccNmN5zT.s:28040  .debug_str:000000000001f1c6 .LASF1701
C:\Users\CYMR90~1\AppData\Local\Temp\ccNmN5zT.s:29296  .debug_str:0000000000023dc7 .LASF1702
C:\Users\CYMR90~1\AppData\Local\Temp\ccNmN5zT.s:29256  .debug_str:0000000000023b75 .LASF1703
C:\Users\CYMR90~1\AppData\Local\Temp\ccNmN5zT.s:28778  .debug_str:0000000000021f20 .LASF1704
C:\Users\CYMR90~1\AppData\Local\Temp\ccNmN5zT.s:27234  .debug_str:000000000001bdf7 .LASF1705
C:\Users\CYMR90~1\AppData\Local\Temp\ccNmN5zT.s:28634  .debug_str:000000000002164c .LASF1706
C:\Users\CYMR90~1\AppData\Local\Temp\ccNmN5zT.s:26118  .debug_str:0000000000017575 .LASF1707
C:\Users\CYMR90~1\AppData\Local\Temp\ccNmN5zT.s:25109  .debug_str:0000000000013447 .LASF1708
C:\Users\CYMR90~1\AppData\Local\Temp\ccNmN5zT.s:27794  .debug_str:000000000001e2f5 .LASF1709
C:\Users\CYMR90~1\AppData\Local\Temp\ccNmN5zT.s:26346  .debug_str:00000000000183af .LASF1710
C:\Users\CYMR90~1\AppData\Local\Temp\ccNmN5zT.s:30184  .debug_str:000000000002781f .LASF1711
C:\Users\CYMR90~1\AppData\Local\Temp\ccNmN5zT.s:24749  .debug_str:0000000000011c5c .LASF1712
C:\Users\CYMR90~1\AppData\Local\Temp\ccNmN5zT.s:21879  .debug_str:0000000000006305 .LASF1713
C:\Users\CYMR90~1\AppData\Local\Temp\ccNmN5zT.s:24221  .debug_str:000000000000fa2d .LASF1714
C:\Users\CYMR90~1\AppData\Local\Temp\ccNmN5zT.s:21151  .debug_str:0000000000003536 .LASF1715
C:\Users\CYMR90~1\AppData\Local\Temp\ccNmN5zT.s:24455  .debug_str:00000000000108da .LASF1716
C:\Users\CYMR90~1\AppData\Local\Temp\ccNmN5zT.s:27764  .debug_str:000000000001e12e .LASF1717
C:\Users\CYMR90~1\AppData\Local\Temp\ccNmN5zT.s:26310  .debug_str:000000000001817c .LASF1718
C:\Users\CYMR90~1\AppData\Local\Temp\ccNmN5zT.s:24695  .debug_str:00000000000117ed .LASF1719
C:\Users\CYMR90~1\AppData\Local\Temp\ccNmN5zT.s:26670  .debug_str:0000000000019941 .LASF1720
C:\Users\CYMR90~1\AppData\Local\Temp\ccNmN5zT.s:25187  .debug_str:0000000000013933 .LASF1721
C:\Users\CYMR90~1\AppData\Local\Temp\ccNmN5zT.s:20863  .debug_str:00000000000022ae .LASF1722
C:\Users\CYMR90~1\AppData\Local\Temp\ccNmN5zT.s:27006  .debug_str:000000000001afe1 .LASF1723
C:\Users\CYMR90~1\AppData\Local\Temp\ccNmN5zT.s:20927  .debug_str:00000000000026a4 .LASF1724
C:\Users\CYMR90~1\AppData\Local\Temp\ccNmN5zT.s:25703  .debug_str:00000000000158ef .LASF1725
C:\Users\CYMR90~1\AppData\Local\Temp\ccNmN5zT.s:30506  .debug_str:0000000000028df2 .LASF1726
C:\Users\CYMR90~1\AppData\Local\Temp\ccNmN5zT.s:28924  .debug_str:0000000000022787 .LASF1727
C:\Users\CYMR90~1\AppData\Local\Temp\ccNmN5zT.s:30152  .debug_str:0000000000027667 .LASF1728
C:\Users\CYMR90~1\AppData\Local\Temp\ccNmN5zT.s:27450  .debug_str:000000000001cbdc .LASF1729
C:\Users\CYMR90~1\AppData\Local\Temp\ccNmN5zT.s:31312  .debug_str:000000000002bfa2 .LASF1730
C:\Users\CYMR90~1\AppData\Local\Temp\ccNmN5zT.s:29974  .debug_str:0000000000026ad7 .LASF1731
C:\Users\CYMR90~1\AppData\Local\Temp\ccNmN5zT.s:24623  .debug_str:0000000000011337 .LASF1732
C:\Users\CYMR90~1\AppData\Local\Temp\ccNmN5zT.s:22655  .debug_str:0000000000009542 .LASF1733
C:\Users\CYMR90~1\AppData\Local\Temp\ccNmN5zT.s:20627  .debug_str:0000000000001477 .LASF1734
C:\Users\CYMR90~1\AppData\Local\Temp\ccNmN5zT.s:26076  .debug_str:000000000001731f .LASF1735
C:\Users\CYMR90~1\AppData\Local\Temp\ccNmN5zT.s:28214  .debug_str:000000000001fc4f .LASF1736
C:\Users\CYMR90~1\AppData\Local\Temp\ccNmN5zT.s:22647  .debug_str:00000000000094cc .LASF1737
C:\Users\CYMR90~1\AppData\Local\Temp\ccNmN5zT.s:22365  .debug_str:000000000000838d .LASF1738
C:\Users\CYMR90~1\AppData\Local\Temp\ccNmN5zT.s:29980  .debug_str:0000000000026b43 .LASF1739
C:\Users\CYMR90~1\AppData\Local\Temp\ccNmN5zT.s:23985  .debug_str:000000000000ebce .LASF1740
C:\Users\CYMR90~1\AppData\Local\Temp\ccNmN5zT.s:22989  .debug_str:000000000000aaf6 .LASF1741
C:\Users\CYMR90~1\AppData\Local\Temp\ccNmN5zT.s:28066  .debug_str:000000000001f34a .LASF1742
C:\Users\CYMR90~1\AppData\Local\Temp\ccNmN5zT.s:23481  .debug_str:000000000000cc46 .LASF1743
C:\Users\CYMR90~1\AppData\Local\Temp\ccNmN5zT.s:30260  .debug_str:0000000000027d22 .LASF1744
C:\Users\CYMR90~1\AppData\Local\Temp\ccNmN5zT.s:22371  .debug_str:00000000000083ff .LASF1745
C:\Users\CYMR90~1\AppData\Local\Temp\ccNmN5zT.s:24281  .debug_str:000000000000fdf4 .LASF1746
C:\Users\CYMR90~1\AppData\Local\Temp\ccNmN5zT.s:29300  .debug_str:0000000000023e0d .LASF1747
C:\Users\CYMR90~1\AppData\Local\Temp\ccNmN5zT.s:28894  .debug_str:00000000000225aa .LASF1748
C:\Users\CYMR90~1\AppData\Local\Temp\ccNmN5zT.s:24453  .debug_str:00000000000108b7 .LASF1749
C:\Users\CYMR90~1\AppData\Local\Temp\ccNmN5zT.s:23145  .debug_str:000000000000b5ae .LASF1750
C:\Users\CYMR90~1\AppData\Local\Temp\ccNmN5zT.s:26246  .debug_str:0000000000017d99 .LASF1751
C:\Users\CYMR90~1\AppData\Local\Temp\ccNmN5zT.s:21521  .debug_str:0000000000004da6 .LASF1752
C:\Users\CYMR90~1\AppData\Local\Temp\ccNmN5zT.s:26980  .debug_str:000000000001ae3a .LASF1753
C:\Users\CYMR90~1\AppData\Local\Temp\ccNmN5zT.s:26878  .debug_str:000000000001a772 .LASF1754
C:\Users\CYMR90~1\AppData\Local\Temp\ccNmN5zT.s:23421  .debug_str:000000000000c7e9 .LASF1755
C:\Users\CYMR90~1\AppData\Local\Temp\ccNmN5zT.s:25001  .debug_str:0000000000012c9b .LASF1756
C:\Users\CYMR90~1\AppData\Local\Temp\ccNmN5zT.s:27072  .debug_str:000000000001b476 .LASF1757
C:\Users\CYMR90~1\AppData\Local\Temp\ccNmN5zT.s:24081  .debug_str:000000000000f108 .LASF1758
C:\Users\CYMR90~1\AppData\Local\Temp\ccNmN5zT.s:22183  .debug_str:00000000000076ac .LASF1759
C:\Users\CYMR90~1\AppData\Local\Temp\ccNmN5zT.s:26818  .debug_str:000000000001a28b .LASF1760
C:\Users\CYMR90~1\AppData\Local\Temp\ccNmN5zT.s:22473  .debug_str:0000000000008a3e .LASF1761
C:\Users\CYMR90~1\AppData\Local\Temp\ccNmN5zT.s:20691  .debug_str:00000000000018f7 .LASF1762
C:\Users\CYMR90~1\AppData\Local\Temp\ccNmN5zT.s:29488  .debug_str:0000000000024a8e .LASF1763
C:\Users\CYMR90~1\AppData\Local\Temp\ccNmN5zT.s:22211  .debug_str:000000000000785e .LASF1764
C:\Users\CYMR90~1\AppData\Local\Temp\ccNmN5zT.s:21893  .debug_str:00000000000063fe .LASF1765
C:\Users\CYMR90~1\AppData\Local\Temp\ccNmN5zT.s:20671  .debug_str:00000000000017a3 .LASF1766
C:\Users\CYMR90~1\AppData\Local\Temp\ccNmN5zT.s:27180  .debug_str:000000000001ba7f .LASF1767
C:\Users\CYMR90~1\AppData\Local\Temp\ccNmN5zT.s:20731  .debug_str:0000000000001b57 .LASF1768
C:\Users\CYMR90~1\AppData\Local\Temp\ccNmN5zT.s:29686  .debug_str:0000000000025917 .LASF1769
C:\Users\CYMR90~1\AppData\Local\Temp\ccNmN5zT.s:31388  .debug_str:000000000002c47a .LASF1770
C:\Users\CYMR90~1\AppData\Local\Temp\ccNmN5zT.s:23311  .debug_str:000000000000c0f6 .LASF1771
C:\Users\CYMR90~1\AppData\Local\Temp\ccNmN5zT.s:22897  .debug_str:000000000000a49a .LASF1772
C:\Users\CYMR90~1\AppData\Local\Temp\ccNmN5zT.s:31454  .debug_str:000000000002c863 .LASF1773
C:\Users\CYMR90~1\AppData\Local\Temp\ccNmN5zT.s:20457  .debug_str:0000000000000a17 .LASF1774
C:\Users\CYMR90~1\AppData\Local\Temp\ccNmN5zT.s:30408  .debug_str:0000000000028821 .LASF1775
C:\Users\CYMR90~1\AppData\Local\Temp\ccNmN5zT.s:25409  .debug_str:00000000000146e8 .LASF1776
C:\Users\CYMR90~1\AppData\Local\Temp\ccNmN5zT.s:24161  .debug_str:000000000000f611 .LASF1777
C:\Users\CYMR90~1\AppData\Local\Temp\ccNmN5zT.s:26236  .debug_str:0000000000017d12 .LASF1778
C:\Users\CYMR90~1\AppData\Local\Temp\ccNmN5zT.s:21617  .debug_str:0000000000005367 .LASF1779
C:\Users\CYMR90~1\AppData\Local\Temp\ccNmN5zT.s:29724  .debug_str:0000000000025b86 .LASF1780
C:\Users\CYMR90~1\AppData\Local\Temp\ccNmN5zT.s:28928  .debug_str:00000000000227f0 .LASF1781
C:\Users\CYMR90~1\AppData\Local\Temp\ccNmN5zT.s:27458  .debug_str:000000000001cc77 .LASF1784
C:\Users\CYMR90~1\AppData\Local\Temp\ccNmN5zT.s:26618  .debug_str:00000000000195de .LASF1785
C:\Users\CYMR90~1\AppData\Local\Temp\ccNmN5zT.s:26464  .debug_str:0000000000018b09 .LASF1786
C:\Users\CYMR90~1\AppData\Local\Temp\ccNmN5zT.s:25453  .debug_str:0000000000014993 .LASF1787
C:\Users\CYMR90~1\AppData\Local\Temp\ccNmN5zT.s:30844  .debug_str:000000000002a20f .LASF1788
C:\Users\CYMR90~1\AppData\Local\Temp\ccNmN5zT.s:31154  .debug_str:000000000002b500 .LASF1789
C:\Users\CYMR90~1\AppData\Local\Temp\ccNmN5zT.s:21199  .debug_str:0000000000003830 .LASF1790
C:\Users\CYMR90~1\AppData\Local\Temp\ccNmN5zT.s:20321  .debug_str:00000000000001ef .LASF1791
C:\Users\CYMR90~1\AppData\Local\Temp\ccNmN5zT.s:30066  .debug_str:0000000000027072 .LASF1792
C:\Users\CYMR90~1\AppData\Local\Temp\ccNmN5zT.s:29144  .debug_str:0000000000023454 .LASF1793
C:\Users\CYMR90~1\AppData\Local\Temp\ccNmN5zT.s:31036  .debug_str:000000000002ad6b .LASF1794
C:\Users\CYMR90~1\AppData\Local\Temp\ccNmN5zT.s:30340  .debug_str:0000000000028382 .LASF1795
C:\Users\CYMR90~1\AppData\Local\Temp\ccNmN5zT.s:25121  .debug_str:0000000000013511 .LASF1796
C:\Users\CYMR90~1\AppData\Local\Temp\ccNmN5zT.s:25397  .debug_str:00000000000145e5 .LASF1797
C:\Users\CYMR90~1\AppData\Local\Temp\ccNmN5zT.s:24513  .debug_str:0000000000010d22 .LASF1798
C:\Users\CYMR90~1\AppData\Local\Temp\ccNmN5zT.s:23337  .debug_str:000000000000c2c2 .LASF1799
C:\Users\CYMR90~1\AppData\Local\Temp\ccNmN5zT.s:26150  .debug_str:0000000000017798 .LASF1800
C:\Users\CYMR90~1\AppData\Local\Temp\ccNmN5zT.s:26456  .debug_str:0000000000018a98 .LASF1801
C:\Users\CYMR90~1\AppData\Local\Temp\ccNmN5zT.s:25535  .debug_str:0000000000014ef2 .LASF1802
C:\Users\CYMR90~1\AppData\Local\Temp\ccNmN5zT.s:24573  .debug_str:000000000001104c .LASF1803
C:\Users\CYMR90~1\AppData\Local\Temp\ccNmN5zT.s:24059  .debug_str:000000000000efdc .LASF1804
C:\Users\CYMR90~1\AppData\Local\Temp\ccNmN5zT.s:28720  .debug_str:0000000000021bb5 .LASF1805
C:\Users\CYMR90~1\AppData\Local\Temp\ccNmN5zT.s:25419  .debug_str:00000000000147a0 .LASF1806
C:\Users\CYMR90~1\AppData\Local\Temp\ccNmN5zT.s:28328  .debug_str:0000000000020302 .LASF1807
C:\Users\CYMR90~1\AppData\Local\Temp\ccNmN5zT.s:25559  .debug_str:0000000000015088 .LASF1808
C:\Users\CYMR90~1\AppData\Local\Temp\ccNmN5zT.s:23239  .debug_str:000000000000bbd5 .LASF1809
C:\Users\CYMR90~1\AppData\Local\Temp\ccNmN5zT.s:27552  .debug_str:000000000001d357 .LASF1810
C:\Users\CYMR90~1\AppData\Local\Temp\ccNmN5zT.s:26252  .debug_str:0000000000017e0e .LASF1811
C:\Users\CYMR90~1\AppData\Local\Temp\ccNmN5zT.s:20649  .debug_str:00000000000015ab .LASF1812
C:\Users\CYMR90~1\AppData\Local\Temp\ccNmN5zT.s:24465  .debug_str:0000000000010965 .LASF1813
C:\Users\CYMR90~1\AppData\Local\Temp\ccNmN5zT.s:24733  .debug_str:0000000000011b7b .LASF1814
C:\Users\CYMR90~1\AppData\Local\Temp\ccNmN5zT.s:27534  .debug_str:000000000001d25f .LASF1815
C:\Users\CYMR90~1\AppData\Local\Temp\ccNmN5zT.s:26214  .debug_str:0000000000017bcc .LASF1816
C:\Users\CYMR90~1\AppData\Local\Temp\ccNmN5zT.s:27542  .debug_str:000000000001d2dd .LASF1817
C:\Users\CYMR90~1\AppData\Local\Temp\ccNmN5zT.s:27988  .debug_str:000000000001ee7a .LASF1818
C:\Users\CYMR90~1\AppData\Local\Temp\ccNmN5zT.s:24277  .debug_str:000000000000fdbc .LASF1819
C:\Users\CYMR90~1\AppData\Local\Temp\ccNmN5zT.s:28466  .debug_str:0000000000020c10 .LASF1820
C:\Users\CYMR90~1\AppData\Local\Temp\ccNmN5zT.s:21921  .debug_str:0000000000006596 .LASF1821
C:\Users\CYMR90~1\AppData\Local\Temp\ccNmN5zT.s:22303  .debug_str:0000000000007ee3 .LASF1822
C:\Users\CYMR90~1\AppData\Local\Temp\ccNmN5zT.s:27922  .debug_str:000000000001eac3 .LASF1823
C:\Users\CYMR90~1\AppData\Local\Temp\ccNmN5zT.s:30624  .debug_str:00000000000294fa .LASF1824
C:\Users\CYMR90~1\AppData\Local\Temp\ccNmN5zT.s:23209  .debug_str:000000000000ba24 .LASF1825
C:\Users\CYMR90~1\AppData\Local\Temp\ccNmN5zT.s:28560  .debug_str:000000000002115b .LASF1826
C:\Users\CYMR90~1\AppData\Local\Temp\ccNmN5zT.s:30976  .debug_str:000000000002a9f8 .LASF1827
C:\Users\CYMR90~1\AppData\Local\Temp\ccNmN5zT.s:24029  .debug_str:000000000000ee4d .LASF1828
C:\Users\CYMR90~1\AppData\Local\Temp\ccNmN5zT.s:24101  .debug_str:000000000000f27d .LASF1829
C:\Users\CYMR90~1\AppData\Local\Temp\ccNmN5zT.s:24879  .debug_str:0000000000012491 .LASF1830
C:\Users\CYMR90~1\AppData\Local\Temp\ccNmN5zT.s:22675  .debug_str:00000000000096d9 .LASF1831
C:\Users\CYMR90~1\AppData\Local\Temp\ccNmN5zT.s:30010  .debug_str:0000000000026cdc .LASF1832
C:\Users\CYMR90~1\AppData\Local\Temp\ccNmN5zT.s:23479  .debug_str:000000000000cc2b .LASF1833
C:\Users\CYMR90~1\AppData\Local\Temp\ccNmN5zT.s:22125  .debug_str:0000000000007335 .LASF1834
C:\Users\CYMR90~1\AppData\Local\Temp\ccNmN5zT.s:25853  .debug_str:00000000000162dc .LASF1835
C:\Users\CYMR90~1\AppData\Local\Temp\ccNmN5zT.s:29876  .debug_str:00000000000264d4 .LASF1836
C:\Users\CYMR90~1\AppData\Local\Temp\ccNmN5zT.s:25823  .debug_str:000000000001611c .LASF1837
C:\Users\CYMR90~1\AppData\Local\Temp\ccNmN5zT.s:26544  .debug_str:00000000000190a1 .LASF1838
C:\Users\CYMR90~1\AppData\Local\Temp\ccNmN5zT.s:24517  .debug_str:0000000000010d5a .LASF1839
C:\Users\CYMR90~1\AppData\Local\Temp\ccNmN5zT.s:27490  .debug_str:000000000001cf15 .LASF1840
C:\Users\CYMR90~1\AppData\Local\Temp\ccNmN5zT.s:26780  .debug_str:000000000001a06e .LASF1841
C:\Users\CYMR90~1\AppData\Local\Temp\ccNmN5zT.s:29566  .debug_str:0000000000024fb4 .LASF1842
C:\Users\CYMR90~1\AppData\Local\Temp\ccNmN5zT.s:29964  .debug_str:0000000000026a36 .LASF1843
C:\Users\CYMR90~1\AppData\Local\Temp\ccNmN5zT.s:31172  .debug_str:000000000002b650 .LASF1844
C:\Users\CYMR90~1\AppData\Local\Temp\ccNmN5zT.s:31030  .debug_str:000000000002ad18 .LASF1845
C:\Users\CYMR90~1\AppData\Local\Temp\ccNmN5zT.s:22407  .debug_str:000000000000862e .LASF1846
C:\Users\CYMR90~1\AppData\Local\Temp\ccNmN5zT.s:27694  .debug_str:000000000001dc4f .LASF1847
C:\Users\CYMR90~1\AppData\Local\Temp\ccNmN5zT.s:20567  .debug_str:0000000000001158 .LASF1848
C:\Users\CYMR90~1\AppData\Local\Temp\ccNmN5zT.s:28846  .debug_str:000000000002231e .LASF1849
C:\Users\CYMR90~1\AppData\Local\Temp\ccNmN5zT.s:28076  .debug_str:000000000001f3e8 .LASF1850
C:\Users\CYMR90~1\AppData\Local\Temp\ccNmN5zT.s:22465  .debug_str:00000000000089bb .LASF1851
C:\Users\CYMR90~1\AppData\Local\Temp\ccNmN5zT.s:29916  .debug_str:0000000000026758 .LASF1852
C:\Users\CYMR90~1\AppData\Local\Temp\ccNmN5zT.s:23715  .debug_str:000000000000db3c .LASF1853
C:\Users\CYMR90~1\AppData\Local\Temp\ccNmN5zT.s:21103  .debug_str:000000000000321e .LASF1854
C:\Users\CYMR90~1\AppData\Local\Temp\ccNmN5zT.s:27572  .debug_str:000000000001d49c .LASF1855
C:\Users\CYMR90~1\AppData\Local\Temp\ccNmN5zT.s:30190  .debug_str:000000000002788d .LASF1856
C:\Users\CYMR90~1\AppData\Local\Temp\ccNmN5zT.s:22553  .debug_str:0000000000008f8e .LASF1857
C:\Users\CYMR90~1\AppData\Local\Temp\ccNmN5zT.s:23403  .debug_str:000000000000c6dc .LASF1858
C:\Users\CYMR90~1\AppData\Local\Temp\ccNmN5zT.s:30280  .debug_str:0000000000027e88 .LASF1859
C:\Users\CYMR90~1\AppData\Local\Temp\ccNmN5zT.s:25565  .debug_str:00000000000150e9 .LASF1860
C:\Users\CYMR90~1\AppData\Local\Temp\ccNmN5zT.s:26486  .debug_str:0000000000018cec .LASF1861
C:\Users\CYMR90~1\AppData\Local\Temp\ccNmN5zT.s:24327  .debug_str:00000000000100b1 .LASF1862
C:\Users\CYMR90~1\AppData\Local\Temp\ccNmN5zT.s:22079  .debug_str:0000000000006f54 .LASF1863
C:\Users\CYMR90~1\AppData\Local\Temp\ccNmN5zT.s:26396  .debug_str:00000000000186bd .LASF1864
C:\Users\CYMR90~1\AppData\Local\Temp\ccNmN5zT.s:21721  .debug_str:000000000000597b .LASF1865
C:\Users\CYMR90~1\AppData\Local\Temp\ccNmN5zT.s:29034  .debug_str:0000000000022e57 .LASF1866
C:\Users\CYMR90~1\AppData\Local\Temp\ccNmN5zT.s:28258  .debug_str:000000000001ff1d .LASF1867
C:\Users\CYMR90~1\AppData\Local\Temp\ccNmN5zT.s:23335  .debug_str:000000000000c292 .LASF1868
C:\Users\CYMR90~1\AppData\Local\Temp\ccNmN5zT.s:20437  .debug_str:00000000000008e9 .LASF1869
C:\Users\CYMR90~1\AppData\Local\Temp\ccNmN5zT.s:20801  .debug_str:0000000000001f76 .LASF1870
C:\Users\CYMR90~1\AppData\Local\Temp\ccNmN5zT.s:30566  .debug_str:00000000000291bd .LASF1871
C:\Users\CYMR90~1\AppData\Local\Temp\ccNmN5zT.s:29664  .debug_str:0000000000025735 .LASF1872
C:\Users\CYMR90~1\AppData\Local\Temp\ccNmN5zT.s:25693  .debug_str:0000000000015850 .LASF1873
C:\Users\CYMR90~1\AppData\Local\Temp\ccNmN5zT.s:22247  .debug_str:0000000000007abf .LASF1874
C:\Users\CYMR90~1\AppData\Local\Temp\ccNmN5zT.s:23125  .debug_str:000000000000b403 .LASF1875
C:\Users\CYMR90~1\AppData\Local\Temp\ccNmN5zT.s:30748  .debug_str:0000000000029c80 .LASF1876
C:\Users\CYMR90~1\AppData\Local\Temp\ccNmN5zT.s:27016  .debug_str:000000000001b0d9 .LASF1877
C:\Users\CYMR90~1\AppData\Local\Temp\ccNmN5zT.s:27756  .debug_str:000000000001e0ba .LASF1878
C:\Users\CYMR90~1\AppData\Local\Temp\ccNmN5zT.s:24165  .debug_str:000000000000f64a .LASF1879
C:\Users\CYMR90~1\AppData\Local\Temp\ccNmN5zT.s:22509  .debug_str:0000000000008c72 .LASF1880
C:\Users\CYMR90~1\AppData\Local\Temp\ccNmN5zT.s:28056  .debug_str:000000000001f2ab .LASF1881
C:\Users\CYMR90~1\AppData\Local\Temp\ccNmN5zT.s:20547  .debug_str:0000000000001011 .LASF1882
C:\Users\CYMR90~1\AppData\Local\Temp\ccNmN5zT.s:28456  .debug_str:0000000000020b4b .LASF1883
C:\Users\CYMR90~1\AppData\Local\Temp\ccNmN5zT.s:31168  .debug_str:000000000002b608 .LASF1884
C:\Users\CYMR90~1\AppData\Local\Temp\ccNmN5zT.s:28164  .debug_str:000000000001f91a .LASF1885
C:\Users\CYMR90~1\AppData\Local\Temp\ccNmN5zT.s:30296  .debug_str:0000000000027f88 .LASF1886
C:\Users\CYMR90~1\AppData\Local\Temp\ccNmN5zT.s:22729  .debug_str:0000000000009a4e .LASF1887
C:\Users\CYMR90~1\AppData\Local\Temp\ccNmN5zT.s:22541  .debug_str:0000000000008ed0 .LASF1888
C:\Users\CYMR90~1\AppData\Local\Temp\ccNmN5zT.s:31200  .debug_str:000000000002b7f2 .LASF1889
C:\Users\CYMR90~1\AppData\Local\Temp\ccNmN5zT.s:26634  .debug_str:000000000001969d .LASF1890
C:\Users\CYMR90~1\AppData\Local\Temp\ccNmN5zT.s:22721  .debug_str:00000000000099c3 .LASF1891
C:\Users\CYMR90~1\AppData\Local\Temp\ccNmN5zT.s:22813  .debug_str:0000000000009f5e .LASF1892
C:\Users\CYMR90~1\AppData\Local\Temp\ccNmN5zT.s:27380  .debug_str:000000000001c6e8 .LASF1893
C:\Users\CYMR90~1\AppData\Local\Temp\ccNmN5zT.s:22535  .debug_str:0000000000008e64 .LASF1894
C:\Users\CYMR90~1\AppData\Local\Temp\ccNmN5zT.s:21233  .debug_str:0000000000003a76 .LASF1895
C:\Users\CYMR90~1\AppData\Local\Temp\ccNmN5zT.s:26086  .debug_str:00000000000173b3 .LASF1896
C:\Users\CYMR90~1\AppData\Local\Temp\ccNmN5zT.s:20751  .debug_str:0000000000001c80 .LASF1897
C:\Users\CYMR90~1\AppData\Local\Temp\ccNmN5zT.s:30034  .debug_str:0000000000026e8d .LASF1898
C:\Users\CYMR90~1\AppData\Local\Temp\ccNmN5zT.s:26884  .debug_str:000000000001a7e4 .LASF1899
C:\Users\CYMR90~1\AppData\Local\Temp\ccNmN5zT.s:23607  .debug_str:000000000000d4ca .LASF1900
C:\Users\CYMR90~1\AppData\Local\Temp\ccNmN5zT.s:20359  .debug_str:000000000000043a .LASF1901
C:\Users\CYMR90~1\AppData\Local\Temp\ccNmN5zT.s:21183  .debug_str:0000000000003708 .LASF1902
C:\Users\CYMR90~1\AppData\Local\Temp\ccNmN5zT.s:23233  .debug_str:000000000000bb56 .LASF1903
C:\Users\CYMR90~1\AppData\Local\Temp\ccNmN5zT.s:31456  .debug_str:000000000002c88a .LASF1904
C:\Users\CYMR90~1\AppData\Local\Temp\ccNmN5zT.s:25957  .debug_str:00000000000169c5 .LASF1905
C:\Users\CYMR90~1\AppData\Local\Temp\ccNmN5zT.s:22691  .debug_str:0000000000009794 .LASF1906
C:\Users\CYMR90~1\AppData\Local\Temp\ccNmN5zT.s:30374  .debug_str:0000000000028598 .LASF1907
C:\Users\CYMR90~1\AppData\Local\Temp\ccNmN5zT.s:27418  .debug_str:000000000001ca03 .LASF1908
C:\Users\CYMR90~1\AppData\Local\Temp\ccNmN5zT.s:21709  .debug_str:00000000000058b1 .LASF1909
C:\Users\CYMR90~1\AppData\Local\Temp\ccNmN5zT.s:30740  .debug_str:0000000000029c03 .LASF1910
C:\Users\CYMR90~1\AppData\Local\Temp\ccNmN5zT.s:27060  .debug_str:000000000001b3be .LASF1911
C:\Users\CYMR90~1\AppData\Local\Temp\ccNmN5zT.s:26734  .debug_str:0000000000019dcc .LASF1912
C:\Users\CYMR90~1\AppData\Local\Temp\ccNmN5zT.s:23143  .debug_str:000000000000b58f .LASF1913
C:\Users\CYMR90~1\AppData\Local\Temp\ccNmN5zT.s:22985  .debug_str:000000000000aa9e .LASF1914
C:\Users\CYMR90~1\AppData\Local\Temp\ccNmN5zT.s:28360  .debug_str:000000000002051f .LASF1915
C:\Users\CYMR90~1\AppData\Local\Temp\ccNmN5zT.s:29638  .debug_str:000000000002555b .LASF1916
C:\Users\CYMR90~1\AppData\Local\Temp\ccNmN5zT.s:26250  .debug_str:0000000000017de2 .LASF1917
C:\Users\CYMR90~1\AppData\Local\Temp\ccNmN5zT.s:22889  .debug_str:000000000000a43c .LASF1918
C:\Users\CYMR90~1\AppData\Local\Temp\ccNmN5zT.s:30796  .debug_str:0000000000029f3a .LASF1919
C:\Users\CYMR90~1\AppData\Local\Temp\ccNmN5zT.s:27390  .debug_str:000000000001c78b .LASF1920
C:\Users\CYMR90~1\AppData\Local\Temp\ccNmN5zT.s:23183  .debug_str:000000000000b843 .LASF1921
C:\Users\CYMR90~1\AppData\Local\Temp\ccNmN5zT.s:22099  .debug_str:0000000000007120 .LASF1922
C:\Users\CYMR90~1\AppData\Local\Temp\ccNmN5zT.s:28428  .debug_str:00000000000209a6 .LASF1923
C:\Users\CYMR90~1\AppData\Local\Temp\ccNmN5zT.s:30520  .debug_str:0000000000028ede .LASF1924
C:\Users\CYMR90~1\AppData\Local\Temp\ccNmN5zT.s:23005  .debug_str:000000000000ac09 .LASF1925
C:\Users\CYMR90~1\AppData\Local\Temp\ccNmN5zT.s:28256  .debug_str:000000000001feef .LASF1926
C:\Users\CYMR90~1\AppData\Local\Temp\ccNmN5zT.s:27282  .debug_str:000000000001c10d .LASF1927
C:\Users\CYMR90~1\AppData\Local\Temp\ccNmN5zT.s:21221  .debug_str:000000000000397a .LASF1928
C:\Users\CYMR90~1\AppData\Local\Temp\ccNmN5zT.s:22149  .debug_str:0000000000007494 .LASF1929
C:\Users\CYMR90~1\AppData\Local\Temp\ccNmN5zT.s:28182  .debug_str:000000000001fa3a .LASF1930
C:\Users\CYMR90~1\AppData\Local\Temp\ccNmN5zT.s:31484  .debug_str:000000000002ca83 .LASF1931
C:\Users\CYMR90~1\AppData\Local\Temp\ccNmN5zT.s:31160  .debug_str:000000000002b56e .LASF1932
C:\Users\CYMR90~1\AppData\Local\Temp\ccNmN5zT.s:22259  .debug_str:0000000000007b69 .LASF1933
C:\Users\CYMR90~1\AppData\Local\Temp\ccNmN5zT.s:23315  .debug_str:000000000000c151 .LASF1934
C:\Users\CYMR90~1\AppData\Local\Temp\ccNmN5zT.s:27362  .debug_str:000000000001c5ad .LASF1935
C:\Users\CYMR90~1\AppData\Local\Temp\ccNmN5zT.s:21751  .debug_str:0000000000005b73 .LASF1936
C:\Users\CYMR90~1\AppData\Local\Temp\ccNmN5zT.s:27220  .debug_str:000000000001bcfa .LASF1937
C:\Users\CYMR90~1\AppData\Local\Temp\ccNmN5zT.s:26196  .debug_str:0000000000017aba .LASF1938
C:\Users\CYMR90~1\AppData\Local\Temp\ccNmN5zT.s:25515  .debug_str:0000000000014d7e .LASF1939
C:\Users\CYMR90~1\AppData\Local\Temp\ccNmN5zT.s:22451  .debug_str:00000000000088b0 .LASF1940
C:\Users\CYMR90~1\AppData\Local\Temp\ccNmN5zT.s:30584  .debug_str:00000000000292cb .LASF1941
C:\Users\CYMR90~1\AppData\Local\Temp\ccNmN5zT.s:27472  .debug_str:000000000001cd58 .LASF1942
C:\Users\CYMR90~1\AppData\Local\Temp\ccNmN5zT.s:23373  .debug_str:000000000000c4f6 .LASF1943
C:\Users\CYMR90~1\AppData\Local\Temp\ccNmN5zT.s:24499  .debug_str:0000000000010bd4 .LASF1944
C:\Users\CYMR90~1\AppData\Local\Temp\ccNmN5zT.s:28292  .debug_str:000000000002012f .LASF1945
C:\Users\CYMR90~1\AppData\Local\Temp\ccNmN5zT.s:25229  .debug_str:0000000000013bb5 .LASF1946
C:\Users\CYMR90~1\AppData\Local\Temp\ccNmN5zT.s:22045  .debug_str:0000000000006d3e .LASF1947
C:\Users\CYMR90~1\AppData\Local\Temp\ccNmN5zT.s:20957  .debug_str:00000000000028c3 .LASF1948
C:\Users\CYMR90~1\AppData\Local\Temp\ccNmN5zT.s:27110  .debug_str:000000000001b689 .LASF1949
C:\Users\CYMR90~1\AppData\Local\Temp\ccNmN5zT.s:24047  .debug_str:000000000000ef1f .LASF1950
C:\Users\CYMR90~1\AppData\Local\Temp\ccNmN5zT.s:20823  .debug_str:0000000000002094 .LASF1951
C:\Users\CYMR90~1\AppData\Local\Temp\ccNmN5zT.s:29050  .debug_str:0000000000022f28 .LASF1952
C:\Users\CYMR90~1\AppData\Local\Temp\ccNmN5zT.s:29772  .debug_str:0000000000025e66 .LASF1953
C:\Users\CYMR90~1\AppData\Local\Temp\ccNmN5zT.s:25353  .debug_str:000000000001437b .LASF1954
C:\Users\CYMR90~1\AppData\Local\Temp\ccNmN5zT.s:28574  .debug_str:0000000000021234 .LASF1955
C:\Users\CYMR90~1\AppData\Local\Temp\ccNmN5zT.s:29252  .debug_str:0000000000023b3e .LASF1956
C:\Users\CYMR90~1\AppData\Local\Temp\ccNmN5zT.s:20879  .debug_str:0000000000002391 .LASF1957
C:\Users\CYMR90~1\AppData\Local\Temp\ccNmN5zT.s:31002  .debug_str:000000000002ab7f .LASF1958
C:\Users\CYMR90~1\AppData\Local\Temp\ccNmN5zT.s:22265  .debug_str:0000000000007bda .LASF1959
C:\Users\CYMR90~1\AppData\Local\Temp\ccNmN5zT.s:30568  .debug_str:00000000000291fc .LASF1960
C:\Users\CYMR90~1\AppData\Local\Temp\ccNmN5zT.s:27426  .debug_str:000000000001ca89 .LASF1961
C:\Users\CYMR90~1\AppData\Local\Temp\ccNmN5zT.s:20401  .debug_str:000000000000069f .LASF1962
C:\Users\CYMR90~1\AppData\Local\Temp\ccNmN5zT.s:25741  .debug_str:0000000000015b38 .LASF1963
C:\Users\CYMR90~1\AppData\Local\Temp\ccNmN5zT.s:29620  .debug_str:000000000002540e .LASF1964
C:\Users\CYMR90~1\AppData\Local\Temp\ccNmN5zT.s:22103  .debug_str:000000000000718b .LASF1965
C:\Users\CYMR90~1\AppData\Local\Temp\ccNmN5zT.s:27562  .debug_str:000000000001d3e0 .LASF1966
C:\Users\CYMR90~1\AppData\Local\Temp\ccNmN5zT.s:31100  .debug_str:000000000002b136 .LASF1967
C:\Users\CYMR90~1\AppData\Local\Temp\ccNmN5zT.s:27404  .debug_str:000000000001c91a .LASF1968
C:\Users\CYMR90~1\AppData\Local\Temp\ccNmN5zT.s:28932  .debug_str:0000000000022830 .LASF1969
C:\Users\CYMR90~1\AppData\Local\Temp\ccNmN5zT.s:20779  .debug_str:0000000000001e3c .LASF1970
C:\Users\CYMR90~1\AppData\Local\Temp\ccNmN5zT.s:28936  .debug_str:0000000000022861 .LASF1971
C:\Users\CYMR90~1\AppData\Local\Temp\ccNmN5zT.s:29656  .debug_str:000000000002568b .LASF1972
C:\Users\CYMR90~1\AppData\Local\Temp\ccNmN5zT.s:26722  .debug_str:0000000000019d0c .LASF1973
C:\Users\CYMR90~1\AppData\Local\Temp\ccNmN5zT.s:26528  .debug_str:0000000000018fab .LASF1974
C:\Users\CYMR90~1\AppData\Local\Temp\ccNmN5zT.s:31050  .debug_str:000000000002ae63 .LASF1975
C:\Users\CYMR90~1\AppData\Local\Temp\ccNmN5zT.s:22285  .debug_str:0000000000007db8 .LASF1976
C:\Users\CYMR90~1\AppData\Local\Temp\ccNmN5zT.s:22641  .debug_str:0000000000009483 .LASF1977
C:\Users\CYMR90~1\AppData\Local\Temp\ccNmN5zT.s:28796  .debug_str:000000000002201c .LASF1978
C:\Users\CYMR90~1\AppData\Local\Temp\ccNmN5zT.s:21573  .debug_str:00000000000050b4 .LASF1979
C:\Users\CYMR90~1\AppData\Local\Temp\ccNmN5zT.s:29556  .debug_str:0000000000024f0c .LASF1980
C:\Users\CYMR90~1\AppData\Local\Temp\ccNmN5zT.s:29414  .debug_str:00000000000245ae .LASF1981
C:\Users\CYMR90~1\AppData\Local\Temp\ccNmN5zT.s:29258  .debug_str:0000000000023b99 .LASF1982
C:\Users\CYMR90~1\AppData\Local\Temp\ccNmN5zT.s:30084  .debug_str:0000000000027162 .LASF1983
C:\Users\CYMR90~1\AppData\Local\Temp\ccNmN5zT.s:31006  .debug_str:000000000002abd5 .LASF1984
C:\Users\CYMR90~1\AppData\Local\Temp\ccNmN5zT.s:27948  .debug_str:000000000001ec07 .LASF1985
C:\Users\CYMR90~1\AppData\Local\Temp\ccNmN5zT.s:27140  .debug_str:000000000001b874 .LASF1986
C:\Users\CYMR90~1\AppData\Local\Temp\ccNmN5zT.s:25433  .debug_str:000000000001485a .LASF1987
C:\Users\CYMR90~1\AppData\Local\Temp\ccNmN5zT.s:26426  .debug_str:0000000000018891 .LASF1988
C:\Users\CYMR90~1\AppData\Local\Temp\ccNmN5zT.s:23473  .debug_str:000000000000cbd1 .LASF1989
C:\Users\CYMR90~1\AppData\Local\Temp\ccNmN5zT.s:22501  .debug_str:0000000000008c01 .LASF1990
C:\Users\CYMR90~1\AppData\Local\Temp\ccNmN5zT.s:23533  .debug_str:000000000000cf3f .LASF1991
C:\Users\CYMR90~1\AppData\Local\Temp\ccNmN5zT.s:26774  .debug_str:0000000000019fff .LASF1992
C:\Users\CYMR90~1\AppData\Local\Temp\ccNmN5zT.s:27146  .debug_str:000000000001b8d2 .LASF1993
C:\Users\CYMR90~1\AppData\Local\Temp\ccNmN5zT.s:20543  .debug_str:0000000000000fe1 .LASF1994
C:\Users\CYMR90~1\AppData\Local\Temp\ccNmN5zT.s:29672  .debug_str:00000000000257c9 .LASF1995
C:\Users\CYMR90~1\AppData\Local\Temp\ccNmN5zT.s:21181  .debug_str:00000000000036d4 .LASF1996
C:\Users\CYMR90~1\AppData\Local\Temp\ccNmN5zT.s:30138  .debug_str:0000000000027597 .LASF1997
C:\Users\CYMR90~1\AppData\Local\Temp\ccNmN5zT.s:22423  .debug_str:00000000000086f5 .LASF1998
C:\Users\CYMR90~1\AppData\Local\Temp\ccNmN5zT.s:26352  .debug_str:0000000000018419 .LASF1999
C:\Users\CYMR90~1\AppData\Local\Temp\ccNmN5zT.s:25841  .debug_str:0000000000016231 .LASF2000
C:\Users\CYMR90~1\AppData\Local\Temp\ccNmN5zT.s:24657  .debug_str:000000000001157b .LASF2001
C:\Users\CYMR90~1\AppData\Local\Temp\ccNmN5zT.s:28944  .debug_str:00000000000228f3 .LASF2002
C:\Users\CYMR90~1\AppData\Local\Temp\ccNmN5zT.s:30352  .debug_str:000000000002844b .LASF2003
C:\Users\CYMR90~1\AppData\Local\Temp\ccNmN5zT.s:25383  .debug_str:00000000000144fb .LASF2004
C:\Users\CYMR90~1\AppData\Local\Temp\ccNmN5zT.s:28834  .debug_str:0000000000022266 .LASF2005
C:\Users\CYMR90~1\AppData\Local\Temp\ccNmN5zT.s:26048  .debug_str:0000000000017198 .LASF2006
C:\Users\CYMR90~1\AppData\Local\Temp\ccNmN5zT.s:31252  .debug_str:000000000002bb86 .LASF2007
C:\Users\CYMR90~1\AppData\Local\Temp\ccNmN5zT.s:21619  .debug_str:000000000000538f .LASF2008
C:\Users\CYMR90~1\AppData\Local\Temp\ccNmN5zT.s:25157  .debug_str:000000000001376a .LASF2009
C:\Users\CYMR90~1\AppData\Local\Temp\ccNmN5zT.s:27846  .debug_str:000000000001e605 .LASF2010
C:\Users\CYMR90~1\AppData\Local\Temp\ccNmN5zT.s:23501  .debug_str:000000000000cdaf .LASF2011
C:\Users\CYMR90~1\AppData\Local\Temp\ccNmN5zT.s:20733  .debug_str:0000000000001b82 .LASF2012
C:\Users\CYMR90~1\AppData\Local\Temp\ccNmN5zT.s:29130  .debug_str:000000000002339b .LASF2013
C:\Users\CYMR90~1\AppData\Local\Temp\ccNmN5zT.s:28884  .debug_str:000000000002250c .LASF2014
C:\Users\CYMR90~1\AppData\Local\Temp\ccNmN5zT.s:26862  .debug_str:000000000001a687 .LASF2015
C:\Users\CYMR90~1\AppData\Local\Temp\ccNmN5zT.s:30728  .debug_str:0000000000029b4f .LASF2016
C:\Users\CYMR90~1\AppData\Local\Temp\ccNmN5zT.s:29042  .debug_str:0000000000022ed1 .LASF2017
C:\Users\CYMR90~1\AppData\Local\Temp\ccNmN5zT.s:31162  .debug_str:000000000002b59e .LASF2018
C:\Users\CYMR90~1\AppData\Local\Temp\ccNmN5zT.s:27602  .debug_str:000000000001d658 .LASF2019
C:\Users\CYMR90~1\AppData\Local\Temp\ccNmN5zT.s:21981  .debug_str:0000000000006907 .LASF2020
C:\Users\CYMR90~1\AppData\Local\Temp\ccNmN5zT.s:29084  .debug_str:0000000000023112 .LASF2021
C:\Users\CYMR90~1\AppData\Local\Temp\ccNmN5zT.s:30074  .debug_str:00000000000270e4 .LASF2022
C:\Users\CYMR90~1\AppData\Local\Temp\ccNmN5zT.s:24543  .debug_str:0000000000010ea4 .LASF2023
C:\Users\CYMR90~1\AppData\Local\Temp\ccNmN5zT.s:30012  .debug_str:0000000000026cf1 .LASF2024
C:\Users\CYMR90~1\AppData\Local\Temp\ccNmN5zT.s:23207  .debug_str:000000000000ba09 .LASF2025
C:\Users\CYMR90~1\AppData\Local\Temp\ccNmN5zT.s:31114  .debug_str:000000000002b205 .LASF2026
C:\Users\CYMR90~1\AppData\Local\Temp\ccNmN5zT.s:21143  .debug_str:00000000000034b4 .LASF2027
C:\Users\CYMR90~1\AppData\Local\Temp\ccNmN5zT.s:29142  .debug_str:0000000000023436 .LASF2028
C:\Users\CYMR90~1\AppData\Local\Temp\ccNmN5zT.s:28152  .debug_str:000000000001f84f .LASF2029
C:\Users\CYMR90~1\AppData\Local\Temp\ccNmN5zT.s:20305  .debug_str:00000000000000ff .LASF2030
C:\Users\CYMR90~1\AppData\Local\Temp\ccNmN5zT.s:26254  .debug_str:0000000000017e23 .LASF2031
C:\Users\CYMR90~1\AppData\Local\Temp\ccNmN5zT.s:22979  .debug_str:000000000000aa59 .LASF2032
C:\Users\CYMR90~1\AppData\Local\Temp\ccNmN5zT.s:24181  .debug_str:000000000000f7e7 .LASF2033
C:\Users\CYMR90~1\AppData\Local\Temp\ccNmN5zT.s:23187  .debug_str:000000000000b886 .LASF2034
C:\Users\CYMR90~1\AppData\Local\Temp\ccNmN5zT.s:24731  .debug_str:0000000000011b5e .LASF2035
C:\Users\CYMR90~1\AppData\Local\Temp\ccNmN5zT.s:28608  .debug_str:00000000000214d1 .LASF2036
C:\Users\CYMR90~1\AppData\Local\Temp\ccNmN5zT.s:29020  .debug_str:0000000000022da6 .LASF2037
C:\Users\CYMR90~1\AppData\Local\Temp\ccNmN5zT.s:29600  .debug_str:0000000000025228 .LASF2038
C:\Users\CYMR90~1\AppData\Local\Temp\ccNmN5zT.s:24827  .debug_str:0000000000012153 .LASF2039
C:\Users\CYMR90~1\AppData\Local\Temp\ccNmN5zT.s:26800  .debug_str:000000000001a196 .LASF2040
C:\Users\CYMR90~1\AppData\Local\Temp\ccNmN5zT.s:23529  .debug_str:000000000000cf13 .LASF2041
C:\Users\CYMR90~1\AppData\Local\Temp\ccNmN5zT.s:20965  .debug_str:0000000000002936 .LASF2042
C:\Users\CYMR90~1\AppData\Local\Temp\ccNmN5zT.s:21711  .debug_str:00000000000058ef .LASF2043
C:\Users\CYMR90~1\AppData\Local\Temp\ccNmN5zT.s:31534  .debug_str:000000000002cdf0 .LASF2044
C:\Users\CYMR90~1\AppData\Local\Temp\ccNmN5zT.s:25127  .debug_str:000000000001356a .LASF2045
C:\Users\CYMR90~1\AppData\Local\Temp\ccNmN5zT.s:28900  .debug_str:0000000000022618 .LASF2046
C:\Users\CYMR90~1\AppData\Local\Temp\ccNmN5zT.s:30532  .debug_str:0000000000028fb1 .LASF2047
C:\Users\CYMR90~1\AppData\Local\Temp\ccNmN5zT.s:27264  .debug_str:000000000001bff4 .LASF2048
C:\Users\CYMR90~1\AppData\Local\Temp\ccNmN5zT.s:27804  .debug_str:000000000001e376 .LASF2049
C:\Users\CYMR90~1\AppData\Local\Temp\ccNmN5zT.s:21775  .debug_str:0000000000005cdd .LASF2050
C:\Users\CYMR90~1\AppData\Local\Temp\ccNmN5zT.s:21129  .debug_str:00000000000033ba .LASF2051
C:\Users\CYMR90~1\AppData\Local\Temp\ccNmN5zT.s:23091  .debug_str:000000000000b225 .LASF2052
C:\Users\CYMR90~1\AppData\Local\Temp\ccNmN5zT.s:29636  .debug_str:0000000000025514 .LASF2053
C:\Users\CYMR90~1\AppData\Local\Temp\ccNmN5zT.s:30958  .debug_str:000000000002a8f2 .LASF2054
C:\Users\CYMR90~1\AppData\Local\Temp\ccNmN5zT.s:21583  .debug_str:000000000000515c .LASF2055
C:\Users\CYMR90~1\AppData\Local\Temp\ccNmN5zT.s:29968  .debug_str:0000000000026a6d .LASF2056
C:\Users\CYMR90~1\AppData\Local\Temp\ccNmN5zT.s:27966  .debug_str:000000000001ed28 .LASF2057
C:\Users\CYMR90~1\AppData\Local\Temp\ccNmN5zT.s:26104  .debug_str:00000000000174bd .LASF2058
C:\Users\CYMR90~1\AppData\Local\Temp\ccNmN5zT.s:22969  .debug_str:000000000000a9b0 .LASF2059
C:\Users\CYMR90~1\AppData\Local\Temp\ccNmN5zT.s:23775  .debug_str:000000000000df00 .LASF2060
C:\Users\CYMR90~1\AppData\Local\Temp\ccNmN5zT.s:28414  .debug_str:00000000000208f1 .LASF2061
C:\Users\CYMR90~1\AppData\Local\Temp\ccNmN5zT.s:25257  .debug_str:0000000000013d56 .LASF2062
C:\Users\CYMR90~1\AppData\Local\Temp\ccNmN5zT.s:20937  .debug_str:0000000000002753 .LASF2063
C:\Users\CYMR90~1\AppData\Local\Temp\ccNmN5zT.s:27004  .debug_str:000000000001afb5 .LASF2064
C:\Users\CYMR90~1\AppData\Local\Temp\ccNmN5zT.s:25873  .debug_str:0000000000016416 .LASF2065
C:\Users\CYMR90~1\AppData\Local\Temp\ccNmN5zT.s:22657  .debug_str:0000000000009563 .LASF2066
C:\Users\CYMR90~1\AppData\Local\Temp\ccNmN5zT.s:23119  .debug_str:000000000000b3a5 .LASF2067
C:\Users\CYMR90~1\AppData\Local\Temp\ccNmN5zT.s:26202  .debug_str:0000000000017b10 .LASF2068
C:\Users\CYMR90~1\AppData\Local\Temp\ccNmN5zT.s:25815  .debug_str:000000000001607b .LASF2069
C:\Users\CYMR90~1\AppData\Local\Temp\ccNmN5zT.s:23663  .debug_str:000000000000d829 .LASF2070
C:\Users\CYMR90~1\AppData\Local\Temp\ccNmN5zT.s:21745  .debug_str:0000000000005b2c .LASF2071
C:\Users\CYMR90~1\AppData\Local\Temp\ccNmN5zT.s:24985  .debug_str:0000000000012baa .LASF2072
C:\Users\CYMR90~1\AppData\Local\Temp\ccNmN5zT.s:24007  .debug_str:000000000000ed2e .LASF2073
C:\Users\CYMR90~1\AppData\Local\Temp\ccNmN5zT.s:23249  .debug_str:000000000000bc89 .LASF2074
C:\Users\CYMR90~1\AppData\Local\Temp\ccNmN5zT.s:31336  .debug_str:000000000002c0f8 .LASF2075
C:\Users\CYMR90~1\AppData\Local\Temp\ccNmN5zT.s:22527  .debug_str:0000000000008df8 .LASF2076
C:\Users\CYMR90~1\AppData\Local\Temp\ccNmN5zT.s:30616  .debug_str:000000000002947f .LASF2077
C:\Users\CYMR90~1\AppData\Local\Temp\ccNmN5zT.s:21597  .debug_str:000000000000522d .LASF2078
C:\Users\CYMR90~1\AppData\Local\Temp\ccNmN5zT.s:20701  .debug_str:0000000000001979 .LASF2079
C:\Users\CYMR90~1\AppData\Local\Temp\ccNmN5zT.s:29174  .debug_str:000000000002366d .LASF2080
C:\Users\CYMR90~1\AppData\Local\Temp\ccNmN5zT.s:30494  .debug_str:0000000000028d4a .LASF2081
C:\Users\CYMR90~1\AppData\Local\Temp\ccNmN5zT.s:30586  .debug_str:00000000000292f3 .LASF2082
C:\Users\CYMR90~1\AppData\Local\Temp\ccNmN5zT.s:24853  .debug_str:00000000000122cf .LASF2083
C:\Users\CYMR90~1\AppData\Local\Temp\ccNmN5zT.s:22307  .debug_str:0000000000007f23 .LASF2084
C:\Users\CYMR90~1\AppData\Local\Temp\ccNmN5zT.s:29056  .debug_str:0000000000022f86 .LASF2085
C:\Users\CYMR90~1\AppData\Local\Temp\ccNmN5zT.s:20595  .debug_str:00000000000012ba .LASF2086
C:\Users\CYMR90~1\AppData\Local\Temp\ccNmN5zT.s:20451  .debug_str:00000000000009c5 .LASF2087
C:\Users\CYMR90~1\AppData\Local\Temp\ccNmN5zT.s:27064  .debug_str:000000000001b404 .LASF2088
C:\Users\CYMR90~1\AppData\Local\Temp\ccNmN5zT.s:28122  .debug_str:000000000001f6ae .LASF2089
C:\Users\CYMR90~1\AppData\Local\Temp\ccNmN5zT.s:26038  .debug_str:00000000000170f7 .LASF2090
C:\Users\CYMR90~1\AppData\Local\Temp\ccNmN5zT.s:24787  .debug_str:0000000000011e8d .LASF2091
C:\Users\CYMR90~1\AppData\Local\Temp\ccNmN5zT.s:26130  .debug_str:000000000001765a .LASF2092
C:\Users\CYMR90~1\AppData\Local\Temp\ccNmN5zT.s:25287  .debug_str:0000000000013f3e .LASF2093
C:\Users\CYMR90~1\AppData\Local\Temp\ccNmN5zT.s:31330  .debug_str:000000000002c0a4 .LASF2094
C:\Users\CYMR90~1\AppData\Local\Temp\ccNmN5zT.s:21347  .debug_str:00000000000041ff .LASF2095
C:\Users\CYMR90~1\AppData\Local\Temp\ccNmN5zT.s:22769  .debug_str:0000000000009c93 .LASF2096
C:\Users\CYMR90~1\AppData\Local\Temp\ccNmN5zT.s:21099  .debug_str:00000000000031bb .LASF2097
C:\Users\CYMR90~1\AppData\Local\Temp\ccNmN5zT.s:29782  .debug_str:0000000000025f04 .LASF2098
C:\Users\CYMR90~1\AppData\Local\Temp\ccNmN5zT.s:24339  .debug_str:000000000001019b .LASF2099
C:\Users\CYMR90~1\AppData\Local\Temp\ccNmN5zT.s:23127  .debug_str:000000000000b42c .LASF2100
C:\Users\CYMR90~1\AppData\Local\Temp\ccNmN5zT.s:21919  .debug_str:0000000000006573 .LASF2101
C:\Users\CYMR90~1\AppData\Local\Temp\ccNmN5zT.s:21015  .debug_str:0000000000002c6a .LASF2102
C:\Users\CYMR90~1\AppData\Local\Temp\ccNmN5zT.s:22805  .debug_str:0000000000009eb7 .LASF2103
C:\Users\CYMR90~1\AppData\Local\Temp\ccNmN5zT.s:31284  .debug_str:000000000002bd6e .LASF2104
C:\Users\CYMR90~1\AppData\Local\Temp\ccNmN5zT.s:26128  .debug_str:0000000000017636 .LASF2105
C:\Users\CYMR90~1\AppData\Local\Temp\ccNmN5zT.s:21117  .debug_str:00000000000032e2 .LASF2106
C:\Users\CYMR90~1\AppData\Local\Temp\ccNmN5zT.s:30556  .debug_str:0000000000029144 .LASF2107
C:\Users\CYMR90~1\AppData\Local\Temp\ccNmN5zT.s:24821  .debug_str:00000000000120d9 .LASF2108
C:\Users\CYMR90~1\AppData\Local\Temp\ccNmN5zT.s:21133  .debug_str:00000000000033f8 .LASF2109
C:\Users\CYMR90~1\AppData\Local\Temp\ccNmN5zT.s:23573  .debug_str:000000000000d1f4 .LASF2110
C:\Users\CYMR90~1\AppData\Local\Temp\ccNmN5zT.s:26080  .debug_str:0000000000017357 .LASF2111
C:\Users\CYMR90~1\AppData\Local\Temp\ccNmN5zT.s:28142  .debug_str:000000000001f7c9 .LASF2112
C:\Users\CYMR90~1\AppData\Local\Temp\ccNmN5zT.s:30722  .debug_str:0000000000029af5 .LASF2113
C:\Users\CYMR90~1\AppData\Local\Temp\ccNmN5zT.s:30120  .debug_str:0000000000027478 .LASF2114
C:\Users\CYMR90~1\AppData\Local\Temp\ccNmN5zT.s:25181  .debug_str:00000000000138c3 .LASF2115
C:\Users\CYMR90~1\AppData\Local\Temp\ccNmN5zT.s:26992  .debug_str:000000000001aed7 .LASF2116
C:\Users\CYMR90~1\AppData\Local\Temp\ccNmN5zT.s:25365  .debug_str:0000000000014418 .LASF2117
C:\Users\CYMR90~1\AppData\Local\Temp\ccNmN5zT.s:29406  .debug_str:000000000002453f .LASF2118
C:\Users\CYMR90~1\AppData\Local\Temp\ccNmN5zT.s:28086  .debug_str:000000000001f487 .LASF2119
C:\Users\CYMR90~1\AppData\Local\Temp\ccNmN5zT.s:20969  .debug_str:000000000000296d .LASF2120
C:\Users\CYMR90~1\AppData\Local\Temp\ccNmN5zT.s:28514  .debug_str:0000000000020ee4 .LASF2121
C:\Users\CYMR90~1\AppData\Local\Temp\ccNmN5zT.s:22381  .debug_str:000000000000849d .LASF2122
C:\Users\CYMR90~1\AppData\Local\Temp\ccNmN5zT.s:25227  .debug_str:0000000000013b91 .LASF2123
C:\Users\CYMR90~1\AppData\Local\Temp\ccNmN5zT.s:27830  .debug_str:000000000001e508 .LASF2124
C:\Users\CYMR90~1\AppData\Local\Temp\ccNmN5zT.s:25081  .debug_str:00000000000131f1 .LASF2125
C:\Users\CYMR90~1\AppData\Local\Temp\ccNmN5zT.s:26194  .debug_str:0000000000017a93 .LASF2126
C:\Users\CYMR90~1\AppData\Local\Temp\ccNmN5zT.s:30098  .debug_str:000000000002726d .LASF2127
C:\Users\CYMR90~1\AppData\Local\Temp\ccNmN5zT.s:28622  .debug_str:00000000000215a7 .LASF2128
C:\Users\CYMR90~1\AppData\Local\Temp\ccNmN5zT.s:24539  .debug_str:0000000000010e69 .LASF2129
C:\Users\CYMR90~1\AppData\Local\Temp\ccNmN5zT.s:28530  .debug_str:0000000000020fbe .LASF2130
C:\Users\CYMR90~1\AppData\Local\Temp\ccNmN5zT.s:26416  .debug_str:00000000000187fb .LASF2131
C:\Users\CYMR90~1\AppData\Local\Temp\ccNmN5zT.s:28356  .debug_str:00000000000204da .LASF2132
C:\Users\CYMR90~1\AppData\Local\Temp\ccNmN5zT.s:24725  .debug_str:0000000000011ae8 .LASF2133
C:\Users\CYMR90~1\AppData\Local\Temp\ccNmN5zT.s:27414  .debug_str:000000000001c9d1 .LASF2134
C:\Users\CYMR90~1\AppData\Local\Temp\ccNmN5zT.s:20847  .debug_str:00000000000021e3 .LASF2135
C:\Users\CYMR90~1\AppData\Local\Temp\ccNmN5zT.s:26576  .debug_str:000000000001933d .LASF2136
C:\Users\CYMR90~1\AppData\Local\Temp\ccNmN5zT.s:30824  .debug_str:000000000002a0ec .LASF2137
C:\Users\CYMR90~1\AppData\Local\Temp\ccNmN5zT.s:22383  .debug_str:00000000000084c2 .LASF2138
C:\Users\CYMR90~1\AppData\Local\Temp\ccNmN5zT.s:28714  .debug_str:0000000000021b57 .LASF2139
C:\Users\CYMR90~1\AppData\Local\Temp\ccNmN5zT.s:24633  .debug_str:00000000000113da .LASF2140
C:\Users\CYMR90~1\AppData\Local\Temp\ccNmN5zT.s:24125  .debug_str:000000000000f407 .LASF2141
C:\Users\CYMR90~1\AppData\Local\Temp\ccNmN5zT.s:28102  .debug_str:000000000001f582 .LASF2142
C:\Users\CYMR90~1\AppData\Local\Temp\ccNmN5zT.s:28644  .debug_str:00000000000216e9 .LASF2143
C:\Users\CYMR90~1\AppData\Local\Temp\ccNmN5zT.s:24919  .debug_str:0000000000012734 .LASF2144
C:\Users\CYMR90~1\AppData\Local\Temp\ccNmN5zT.s:21135  .debug_str:000000000000341f .LASF2145
C:\Users\CYMR90~1\AppData\Local\Temp\ccNmN5zT.s:20313  .debug_str:000000000000015b .LASF2146
C:\Users\CYMR90~1\AppData\Local\Temp\ccNmN5zT.s:23979  .debug_str:000000000000eb64 .LASF2147
C:\Users\CYMR90~1\AppData\Local\Temp\ccNmN5zT.s:26136  .debug_str:00000000000176b0 .LASF2148
C:\Users\CYMR90~1\AppData\Local\Temp\ccNmN5zT.s:30522  .debug_str:0000000000028f1e .LASF2149
C:\Users\CYMR90~1\AppData\Local\Temp\ccNmN5zT.s:30122  .debug_str:000000000002749f .LASF2150
C:\Users\CYMR90~1\AppData\Local\Temp\ccNmN5zT.s:25183  .debug_str:00000000000138ea .LASF2151
C:\Users\CYMR90~1\AppData\Local\Temp\ccNmN5zT.s:23743  .debug_str:000000000000dcaa .LASF2152
C:\Users\CYMR90~1\AppData\Local\Temp\ccNmN5zT.s:30680  .debug_str:00000000000298be .LASF2153
C:\Users\CYMR90~1\AppData\Local\Temp\ccNmN5zT.s:25919  .debug_str:0000000000016732 .LASF2154
C:\Users\CYMR90~1\AppData\Local\Temp\ccNmN5zT.s:20653  .debug_str:00000000000015fb .LASF2155
C:\Users\CYMR90~1\AppData\Local\Temp\ccNmN5zT.s:21209  .debug_str:00000000000038d4 .LASF2156
C:\Users\CYMR90~1\AppData\Local\Temp\ccNmN5zT.s:30086  .debug_str:0000000000027185 .LASF2157
C:\Users\CYMR90~1\AppData\Local\Temp\ccNmN5zT.s:24575  .debug_str:0000000000011070 .LASF2158
C:\Users\CYMR90~1\AppData\Local\Temp\ccNmN5zT.s:26478  .debug_str:0000000000018bed .LASF2159
C:\Users\CYMR90~1\AppData\Local\Temp\ccNmN5zT.s:29886  .debug_str:0000000000026595 .LASF2160
C:\Users\CYMR90~1\AppData\Local\Temp\ccNmN5zT.s:22557  .debug_str:0000000000008fd0 .LASF2161
C:\Users\CYMR90~1\AppData\Local\Temp\ccNmN5zT.s:30806  .debug_str:0000000000029fe0 .LASF2162
C:\Users\CYMR90~1\AppData\Local\Temp\ccNmN5zT.s:31522  .debug_str:000000000002ccce .LASF2163
C:\Users\CYMR90~1\AppData\Local\Temp\ccNmN5zT.s:21247  .debug_str:0000000000003b47 .LASF2164
C:\Users\CYMR90~1\AppData\Local\Temp\ccNmN5zT.s:29152  .debug_str:00000000000234d2 .LASF2165
C:\Users\CYMR90~1\AppData\Local\Temp\ccNmN5zT.s:26560  .debug_str:0000000000019276 .LASF2166
C:\Users\CYMR90~1\AppData\Local\Temp\ccNmN5zT.s:24119  .debug_str:000000000000f3b0 .LASF2167
C:\Users\CYMR90~1\AppData\Local\Temp\ccNmN5zT.s:22415  .debug_str:0000000000008689 .LASF2168
C:\Users\CYMR90~1\AppData\Local\Temp\ccNmN5zT.s:27656  .debug_str:000000000001da21 .LASF2169
C:\Users\CYMR90~1\AppData\Local\Temp\ccNmN5zT.s:25863  .debug_str:000000000001637e .LASF2170
C:\Users\CYMR90~1\AppData\Local\Temp\ccNmN5zT.s:23893  .debug_str:000000000000e5d6 .LASF2171
C:\Users\CYMR90~1\AppData\Local\Temp\ccNmN5zT.s:24035  .debug_str:000000000000ee8f .LASF2172
C:\Users\CYMR90~1\AppData\Local\Temp\ccNmN5zT.s:28106  .debug_str:000000000001f5b9 .LASF2173
C:\Users\CYMR90~1\AppData\Local\Temp\ccNmN5zT.s:25803  .debug_str:0000000000015f9e .LASF2174
C:\Users\CYMR90~1\AppData\Local\Temp\ccNmN5zT.s:24781  .debug_str:0000000000011e4b .LASF2175
C:\Users\CYMR90~1\AppData\Local\Temp\ccNmN5zT.s:27896  .debug_str:000000000001e92e .LASF2176
C:\Users\CYMR90~1\AppData\Local\Temp\ccNmN5zT.s:23129  .debug_str:000000000000b43b .LASF2177
C:\Users\CYMR90~1\AppData\Local\Temp\ccNmN5zT.s:28794  .debug_str:0000000000022005 .LASF2178
C:\Users\CYMR90~1\AppData\Local\Temp\ccNmN5zT.s:23757  .debug_str:000000000000dda3 .LASF2179
C:\Users\CYMR90~1\AppData\Local\Temp\ccNmN5zT.s:22255  .debug_str:0000000000007b33 .LASF2180
C:\Users\CYMR90~1\AppData\Local\Temp\ccNmN5zT.s:25021  .debug_str:0000000000012dfe .LASF2181
C:\Users\CYMR90~1\AppData\Local\Temp\ccNmN5zT.s:23923  .debug_str:000000000000e7fb .LASF2182
C:\Users\CYMR90~1\AppData\Local\Temp\ccNmN5zT.s:25837  .debug_str:00000000000161fb .LASF2183
C:\Users\CYMR90~1\AppData\Local\Temp\ccNmN5zT.s:21367  .debug_str:000000000000431f .LASF2184
C:\Users\CYMR90~1\AppData\Local\Temp\ccNmN5zT.s:24207  .debug_str:000000000000f974 .LASF2185
C:\Users\CYMR90~1\AppData\Local\Temp\ccNmN5zT.s:31072  .debug_str:000000000002afb1 .LASF2186
C:\Users\CYMR90~1\AppData\Local\Temp\ccNmN5zT.s:27906  .debug_str:000000000001e9ce .LASF2187
C:\Users\CYMR90~1\AppData\Local\Temp\ccNmN5zT.s:22753  .debug_str:0000000000009bc1 .LASF2188
C:\Users\CYMR90~1\AppData\Local\Temp\ccNmN5zT.s:26898  .debug_str:000000000001a950 .LASF2189
C:\Users\CYMR90~1\AppData\Local\Temp\ccNmN5zT.s:21305  .debug_str:0000000000003e94 .LASF2190
C:\Users\CYMR90~1\AppData\Local\Temp\ccNmN5zT.s:22851  .debug_str:000000000000a1c0 .LASF2191
C:\Users\CYMR90~1\AppData\Local\Temp\ccNmN5zT.s:27986  .debug_str:000000000001ee3e .LASF2192
C:\Users\CYMR90~1\AppData\Local\Temp\ccNmN5zT.s:21225  .debug_str:00000000000039c7 .LASF2193
C:\Users\CYMR90~1\AppData\Local\Temp\ccNmN5zT.s:24663  .debug_str:00000000000115d1 .LASF2194
C:\Users\CYMR90~1\AppData\Local\Temp\ccNmN5zT.s:20993  .debug_str:0000000000002b02 .LASF2195
C:\Users\CYMR90~1\AppData\Local\Temp\ccNmN5zT.s:26450  .debug_str:0000000000018a2d .LASF2196
C:\Users\CYMR90~1\AppData\Local\Temp\ccNmN5zT.s:25529  .debug_str:0000000000014e77 .LASF2197
C:\Users\CYMR90~1\AppData\Local\Temp\ccNmN5zT.s:22481  .debug_str:0000000000008ab7 .LASF2198
C:\Users\CYMR90~1\AppData\Local\Temp\ccNmN5zT.s:28350  .debug_str:0000000000020491 .LASF2199
C:\Users\CYMR90~1\AppData\Local\Temp\ccNmN5zT.s:22993  .debug_str:000000000000ab38 .LASF2200
C:\Users\CYMR90~1\AppData\Local\Temp\ccNmN5zT.s:28860  .debug_str:00000000000223e1 .LASF2201
C:\Users\CYMR90~1\AppData\Local\Temp\ccNmN5zT.s:28186  .debug_str:000000000001fa7b .LASF2202
C:\Users\CYMR90~1\AppData\Local\Temp\ccNmN5zT.s:29372  .debug_str:00000000000242c9 .LASF2203
C:\Users\CYMR90~1\AppData\Local\Temp\ccNmN5zT.s:29952  .debug_str:0000000000026992 .LASF2204
C:\Users\CYMR90~1\AppData\Local\Temp\ccNmN5zT.s:29786  .debug_str:0000000000025f37 .LASF2205
C:\Users\CYMR90~1\AppData\Local\Temp\ccNmN5zT.s:29422  .debug_str:0000000000024615 .LASF2206
C:\Users\CYMR90~1\AppData\Local\Temp\ccNmN5zT.s:28480  .debug_str:0000000000020cf4 .LASF2207
C:\Users\CYMR90~1\AppData\Local\Temp\ccNmN5zT.s:24387  .debug_str:0000000000010441 .LASF2208
C:\Users\CYMR90~1\AppData\Local\Temp\ccNmN5zT.s:26524  .debug_str:0000000000018f5d .LASF2209
C:\Users\CYMR90~1\AppData\Local\Temp\ccNmN5zT.s:28330  .debug_str:0000000000020316 .LASF2210
C:\Users\CYMR90~1\AppData\Local\Temp\ccNmN5zT.s:23261  .debug_str:000000000000bd92 .LASF2211
C:\Users\CYMR90~1\AppData\Local\Temp\ccNmN5zT.s:21979  .debug_str:00000000000068df .LASF2212
C:\Users\CYMR90~1\AppData\Local\Temp\ccNmN5zT.s:24563  .debug_str:0000000000010f99 .LASF2213
C:\Users\CYMR90~1\AppData\Local\Temp\ccNmN5zT.s:31338  .debug_str:000000000002c109 .LASF2214
C:\Users\CYMR90~1\AppData\Local\Temp\ccNmN5zT.s:25273  .debug_str:0000000000013e53 .LASF2215
C:\Users\CYMR90~1\AppData\Local\Temp\ccNmN5zT.s:22953  .debug_str:000000000000a7f4 .LASF2216
C:\Users\CYMR90~1\AppData\Local\Temp\ccNmN5zT.s:27136  .debug_str:000000000001b83c .LASF2217
C:\Users\CYMR90~1\AppData\Local\Temp\ccNmN5zT.s:29986  .debug_str:0000000000026ba9 .LASF2218
C:\Users\CYMR90~1\AppData\Local\Temp\ccNmN5zT.s:31104  .debug_str:000000000002b173 .LASF2219
C:\Users\CYMR90~1\AppData\Local\Temp\ccNmN5zT.s:27684  .debug_str:000000000001dbd1 .LASF2220
C:\Users\CYMR90~1\AppData\Local\Temp\ccNmN5zT.s:26538  .debug_str:0000000000019022 .LASF2221
C:\Users\CYMR90~1\AppData\Local\Temp\ccNmN5zT.s:24955  .debug_str:000000000001298f .LASF2222
C:\Users\CYMR90~1\AppData\Local\Temp\ccNmN5zT.s:27178  .debug_str:000000000001ba58 .LASF2223
C:\Users\CYMR90~1\AppData\Local\Temp\ccNmN5zT.s:29778  .debug_str:0000000000025ec9 .LASF2224
C:\Users\CYMR90~1\AppData\Local\Temp\ccNmN5zT.s:20335  .debug_str:00000000000002a5 .LASF2225
C:\Users\CYMR90~1\AppData\Local\Temp\ccNmN5zT.s:21443  .debug_str:000000000000485a .LASF2226
C:\Users\CYMR90~1\AppData\Local\Temp\ccNmN5zT.s:26724  .debug_str:0000000000019d1d .LASF2227
C:\Users\CYMR90~1\AppData\Local\Temp\ccNmN5zT.s:26008  .debug_str:0000000000016f16 .LASF2228
C:\Users\CYMR90~1\AppData\Local\Temp\ccNmN5zT.s:27736  .debug_str:000000000001df84 .LASF2229
C:\Users\CYMR90~1\AppData\Local\Temp\ccNmN5zT.s:21411  .debug_str:000000000000462a .LASF2230
C:\Users\CYMR90~1\AppData\Local\Temp\ccNmN5zT.s:27958  .debug_str:000000000001ec9f .LASF2231
C:\Users\CYMR90~1\AppData\Local\Temp\ccNmN5zT.s:20711  .debug_str:0000000000001a14 .LASF2232
C:\Users\CYMR90~1\AppData\Local\Temp\ccNmN5zT.s:26712  .debug_str:0000000000019c59 .LASF2233
C:\Users\CYMR90~1\AppData\Local\Temp\ccNmN5zT.s:23435  .debug_str:000000000000c92e .LASF2234
C:\Users\CYMR90~1\AppData\Local\Temp\ccNmN5zT.s:21647  .debug_str:0000000000005553 .LASF2235
C:\Users\CYMR90~1\AppData\Local\Temp\ccNmN5zT.s:31290  .debug_str:000000000002bdcb .LASF2236
C:\Users\CYMR90~1\AppData\Local\Temp\ccNmN5zT.s:23897  .debug_str:000000000000e611 .LASF2237
C:\Users\CYMR90~1\AppData\Local\Temp\ccNmN5zT.s:28598  .debug_str:0000000000021435 .LASF2238
C:\Users\CYMR90~1\AppData\Local\Temp\ccNmN5zT.s:27636  .debug_str:000000000001d8af .LASF2239
C:\Users\CYMR90~1\AppData\Local\Temp\ccNmN5zT.s:27566  .debug_str:000000000001d41d .LASF2240
C:\Users\CYMR90~1\AppData\Local\Temp\ccNmN5zT.s:20771  .debug_str:0000000000001dbf .LASF2241
C:\Users\CYMR90~1\AppData\Local\Temp\ccNmN5zT.s:28616  .debug_str:0000000000021553 .LASF2242
C:\Users\CYMR90~1\AppData\Local\Temp\ccNmN5zT.s:30166  .debug_str:0000000000027721 .LASF2243
C:\Users\CYMR90~1\AppData\Local\Temp\ccNmN5zT.s:24803  .debug_str:0000000000011f75 .LASF2244
C:\Users\CYMR90~1\AppData\Local\Temp\ccNmN5zT.s:26018  .debug_str:0000000000016fad .LASF2245
C:\Users\CYMR90~1\AppData\Local\Temp\ccNmN5zT.s:22943  .debug_str:000000000000a711 .LASF2246
C:\Users\CYMR90~1\AppData\Local\Temp\ccNmN5zT.s:25595  .debug_str:00000000000152c2 .LASF2247
C:\Users\CYMR90~1\AppData\Local\Temp\ccNmN5zT.s:21137  .debug_str:0000000000003446 .LASF2248
C:\Users\CYMR90~1\AppData\Local\Temp\ccNmN5zT.s:27980  .debug_str:000000000001ede4 .LASF2249
C:\Users\CYMR90~1\AppData\Local\Temp\ccNmN5zT.s:27114  .debug_str:000000000001b6c7 .LASF2250
C:\Users\CYMR90~1\AppData\Local\Temp\ccNmN5zT.s:26170  .debug_str:00000000000178cf .LASF2251
C:\Users\CYMR90~1\AppData\Local\Temp\ccNmN5zT.s:29380  .debug_str:0000000000024363 .LASF2252
C:\Users\CYMR90~1\AppData\Local\Temp\ccNmN5zT.s:24961  .debug_str:00000000000129ec .LASF2253
C:\Users\CYMR90~1\AppData\Local\Temp\ccNmN5zT.s:23705  .debug_str:000000000000da96 .LASF2254
C:\Users\CYMR90~1\AppData\Local\Temp\ccNmN5zT.s:22467  .debug_str:00000000000089d8 .LASF2255
C:\Users\CYMR90~1\AppData\Local\Temp\ccNmN5zT.s:24365  .debug_str:000000000001031c .LASF2256
C:\Users\CYMR90~1\AppData\Local\Temp\ccNmN5zT.s:27382  .debug_str:000000000001c714 .LASF2257
C:\Users\CYMR90~1\AppData\Local\Temp\ccNmN5zT.s:24653  .debug_str:000000000001152f .LASF2258
C:\Users\CYMR90~1\AppData\Local\Temp\ccNmN5zT.s:24881  .debug_str:00000000000124a5 .LASF2259
C:\Users\CYMR90~1\AppData\Local\Temp\ccNmN5zT.s:24559  .debug_str:0000000000010f57 .LASF2260
C:\Users\CYMR90~1\AppData\Local\Temp\ccNmN5zT.s:25643  .debug_str:00000000000155a3 .LASF2261
C:\Users\CYMR90~1\AppData\Local\Temp\ccNmN5zT.s:20831  .debug_str:0000000000002105 .LASF2262
C:\Users\CYMR90~1\AppData\Local\Temp\ccNmN5zT.s:23945  .debug_str:000000000000e93a .LASF2263
C:\Users\CYMR90~1\AppData\Local\Temp\ccNmN5zT.s:27758  .debug_str:000000000001e0e4 .LASF2264
C:\Users\CYMR90~1\AppData\Local\Temp\ccNmN5zT.s:26814  .debug_str:000000000001a24f .LASF2265
C:\Users\CYMR90~1\AppData\Local\Temp\ccNmN5zT.s:23791  .debug_str:000000000000dfe6 .LASF2266
C:\Users\CYMR90~1\AppData\Local\Temp\ccNmN5zT.s:23141  .debug_str:000000000000b56f .LASF2267
C:\Users\CYMR90~1\AppData\Local\Temp\ccNmN5zT.s:26178  .debug_str:0000000000017989 .LASF2268
C:\Users\CYMR90~1\AppData\Local\Temp\ccNmN5zT.s:31024  .debug_str:000000000002acaf .LASF2269
C:\Users\CYMR90~1\AppData\Local\Temp\ccNmN5zT.s:21465  .debug_str:0000000000004a3e .LASF2270
C:\Users\CYMR90~1\AppData\Local\Temp\ccNmN5zT.s:27260  .debug_str:000000000001bfb4 .LASF2271
C:\Users\CYMR90~1\AppData\Local\Temp\ccNmN5zT.s:27658  .debug_str:000000000001da39 .LASF2272
C:\Users\CYMR90~1\AppData\Local\Temp\ccNmN5zT.s:25485  .debug_str:0000000000014b8e .LASF2273
C:\Users\CYMR90~1\AppData\Local\Temp\ccNmN5zT.s:30368  .debug_str:0000000000028548 .LASF2274
C:\Users\CYMR90~1\AppData\Local\Temp\ccNmN5zT.s:27022  .debug_str:000000000001b13c .LASF2275
C:\Users\CYMR90~1\AppData\Local\Temp\ccNmN5zT.s:23711  .debug_str:000000000000db01 .LASF2276
C:\Users\CYMR90~1\AppData\Local\Temp\ccNmN5zT.s:21241  .debug_str:0000000000003ae1 .LASF2277
C:\Users\CYMR90~1\AppData\Local\Temp\ccNmN5zT.s:20507  .debug_str:0000000000000d70 .LASF2278
C:\Users\CYMR90~1\AppData\Local\Temp\ccNmN5zT.s:30226  .debug_str:0000000000027ab6 .LASF2279
C:\Users\CYMR90~1\AppData\Local\Temp\ccNmN5zT.s:28602  .debug_str:0000000000021473 .LASF2280
C:\Users\CYMR90~1\AppData\Local\Temp\ccNmN5zT.s:21651  .debug_str:0000000000005587 .LASF2281
C:\Users\CYMR90~1\AppData\Local\Temp\ccNmN5zT.s:26746  .debug_str:0000000000019e8d .LASF2282
C:\Users\CYMR90~1\AppData\Local\Temp\ccNmN5zT.s:26068  .debug_str:00000000000172a0 .LASF2283
C:\Users\CYMR90~1\AppData\Local\Temp\ccNmN5zT.s:27438  .debug_str:000000000001cb28 .LASF2284
C:\Users\CYMR90~1\AppData\Local\Temp\ccNmN5zT.s:26978  .debug_str:000000000001ae14 .LASF2285
C:\Users\CYMR90~1\AppData\Local\Temp\ccNmN5zT.s:30148  .debug_str:000000000002762d .LASF2286
C:\Users\CYMR90~1\AppData\Local\Temp\ccNmN5zT.s:24565  .debug_str:0000000000010fc1 .LASF2287
C:\Users\CYMR90~1\AppData\Local\Temp\ccNmN5zT.s:28754  .debug_str:0000000000021dd5 .LASF2288
C:\Users\CYMR90~1\AppData\Local\Temp\ccNmN5zT.s:24645  .debug_str:00000000000114ba .LASF2289
C:\Users\CYMR90~1\AppData\Local\Temp\ccNmN5zT.s:24773  .debug_str:0000000000011da0 .LASF2290
C:\Users\CYMR90~1\AppData\Local\Temp\ccNmN5zT.s:31156  .debug_str:000000000002b524 .LASF2291
C:\Users\CYMR90~1\AppData\Local\Temp\ccNmN5zT.s:27850  .debug_str:000000000001e652 .LASF2292
C:\Users\CYMR90~1\AppData\Local\Temp\ccNmN5zT.s:21545  .debug_str:0000000000004f0d .LASF2293
C:\Users\CYMR90~1\AppData\Local\Temp\ccNmN5zT.s:30546  .debug_str:0000000000029082 .LASF2294
C:\Users\CYMR90~1\AppData\Local\Temp\ccNmN5zT.s:31120  .debug_str:000000000002b29c .LASF2295
C:\Users\CYMR90~1\AppData\Local\Temp\ccNmN5zT.s:23773  .debug_str:000000000000ded5 .LASF2296
C:\Users\CYMR90~1\AppData\Local\Temp\ccNmN5zT.s:23747  .debug_str:000000000000dce0 .LASF2297
C:\Users\CYMR90~1\AppData\Local\Temp\ccNmN5zT.s:23121  .debug_str:000000000000b3b6 .LASF2298
C:\Users\CYMR90~1\AppData\Local\Temp\ccNmN5zT.s:25285  .debug_str:0000000000013f13 .LASF2299
C:\Users\CYMR90~1\AppData\Local\Temp\ccNmN5zT.s:30382  .debug_str:000000000002863d .LASF2300
C:\Users\CYMR90~1\AppData\Local\Temp\ccNmN5zT.s:24097  .debug_str:000000000000f22a .LASF2301
C:\Users\CYMR90~1\AppData\Local\Temp\ccNmN5zT.s:27210  .debug_str:000000000001bc74 .LASF2302
C:\Users\CYMR90~1\AppData\Local\Temp\ccNmN5zT.s:29512  .debug_str:0000000000024c27 .LASF2303
C:\Users\CYMR90~1\AppData\Local\Temp\ccNmN5zT.s:23703  .debug_str:000000000000da6f .LASF2304
C:\Users\CYMR90~1\AppData\Local\Temp\ccNmN5zT.s:28648  .debug_str:0000000000021724 .LASF2305
C:\Users\CYMR90~1\AppData\Local\Temp\ccNmN5zT.s:20585  .debug_str:000000000000123b .LASF2306
C:\Users\CYMR90~1\AppData\Local\Temp\ccNmN5zT.s:26922  .debug_str:000000000001aaaa .LASF2307
C:\Users\CYMR90~1\AppData\Local\Temp\ccNmN5zT.s:27402  .debug_str:000000000001c8f1 .LASF2308
C:\Users\CYMR90~1\AppData\Local\Temp\ccNmN5zT.s:21085  .debug_str:00000000000030ef .LASF2309
C:\Users\CYMR90~1\AppData\Local\Temp\ccNmN5zT.s:29800  .debug_str:000000000002604b .LASF2310
C:\Users\CYMR90~1\AppData\Local\Temp\ccNmN5zT.s:30628  .debug_str:0000000000029532 .LASF2311
C:\Users\CYMR90~1\AppData\Local\Temp\ccNmN5zT.s:25323  .debug_str:0000000000014193 .LASF2312
C:\Users\CYMR90~1\AppData\Local\Temp\ccNmN5zT.s:30334  .debug_str:0000000000028285 .LASF2313
C:\Users\CYMR90~1\AppData\Local\Temp\ccNmN5zT.s:22165  .debug_str:000000000000758f .LASF2314
C:\Users\CYMR90~1\AppData\Local\Temp\ccNmN5zT.s:28432  .debug_str:00000000000209f6 .LASF2315
C:\Users\CYMR90~1\AppData\Local\Temp\ccNmN5zT.s:22223  .debug_str:0000000000007906 .LASF2316
C:\Users\CYMR90~1\AppData\Local\Temp\ccNmN5zT.s:27226  .debug_str:000000000001bd70 .LASF2317
C:\Users\CYMR90~1\AppData\Local\Temp\ccNmN5zT.s:30378  .debug_str:00000000000285fc .LASF2318
C:\Users\CYMR90~1\AppData\Local\Temp\ccNmN5zT.s:23983  .debug_str:000000000000eba2 .LASF2319
C:\Users\CYMR90~1\AppData\Local\Temp\ccNmN5zT.s:21477  .debug_str:0000000000004afa .LASF2320
C:\Users\CYMR90~1\AppData\Local\Temp\ccNmN5zT.s:21007  .debug_str:0000000000002c0e .LASF2321
C:\Users\CYMR90~1\AppData\Local\Temp\ccNmN5zT.s:31606  .debug_str:000000000002d24e .LASF2322
C:\Users\CYMR90~1\AppData\Local\Temp\ccNmN5zT.s:21837  .debug_str:000000000000608e .LASF2323
C:\Users\CYMR90~1\AppData\Local\Temp\ccNmN5zT.s:25447  .debug_str:000000000001494d .LASF2324
C:\Users\CYMR90~1\AppData\Local\Temp\ccNmN5zT.s:31182  .debug_str:000000000002b6be .LASF2325
C:\Users\CYMR90~1\AppData\Local\Temp\ccNmN5zT.s:22921  .debug_str:000000000000a5f5 .LASF2326
C:\Users\CYMR90~1\AppData\Local\Temp\ccNmN5zT.s:26410  .debug_str:000000000001879d .LASF2327
C:\Users\CYMR90~1\AppData\Local\Temp\ccNmN5zT.s:20867  .debug_str:00000000000022e6 .LASF2328
C:\Users\CYMR90~1\AppData\Local\Temp\ccNmN5zT.s:25357  .debug_str:00000000000143a6 .LASF2329
C:\Users\CYMR90~1\AppData\Local\Temp\ccNmN5zT.s:24459  .debug_str:000000000001091e .LASF2330
C:\Users\CYMR90~1\AppData\Local\Temp\ccNmN5zT.s:23367  .debug_str:000000000000c497 .LASF2331
C:\Users\CYMR90~1\AppData\Local\Temp\ccNmN5zT.s:24407  .debug_str:000000000001056b .LASF2332
C:\Users\CYMR90~1\AppData\Local\Temp\ccNmN5zT.s:28558  .debug_str:000000000002113e .LASF2333
C:\Users\CYMR90~1\AppData\Local\Temp\ccNmN5zT.s:29978  .debug_str:0000000000026b2c .LASF2334
C:\Users\CYMR90~1\AppData\Local\Temp\ccNmN5zT.s:24419  .debug_str:0000000000010625 .LASF2335
C:\Users\CYMR90~1\AppData\Local\Temp\ccNmN5zT.s:24813  .debug_str:000000000001204f .LASF2336
C:\Users\CYMR90~1\AppData\Local\Temp\ccNmN5zT.s:23873  .debug_str:000000000000e4a3 .LASF2337
C:\Users\CYMR90~1\AppData\Local\Temp\ccNmN5zT.s:21851  .debug_str:0000000000006189 .LASF2338
C:\Users\CYMR90~1\AppData\Local\Temp\ccNmN5zT.s:20913  .debug_str:0000000000002582 .LASF2339
C:\Users\CYMR90~1\AppData\Local\Temp\ccNmN5zT.s:27622  .debug_str:000000000001d7d0 .LASF2340
C:\Users\CYMR90~1\AppData\Local\Temp\ccNmN5zT.s:29860  .debug_str:00000000000263ed .LASF2341
C:\Users\CYMR90~1\AppData\Local\Temp\ccNmN5zT.s:28216  .debug_str:000000000001fc71 .LASF2342
C:\Users\CYMR90~1\AppData\Local\Temp\ccNmN5zT.s:28232  .debug_str:000000000001fd49 .LASF2343
C:\Users\CYMR90~1\AppData\Local\Temp\ccNmN5zT.s:29278  .debug_str:0000000000023cc5 .LASF2344
C:\Users\CYMR90~1\AppData\Local\Temp\ccNmN5zT.s:30088  .debug_str:000000000002719b .LASF2345
C:\Users\CYMR90~1\AppData\Local\Temp\ccNmN5zT.s:27326  .debug_str:000000000001c3d9 .LASF2346
C:\Users\CYMR90~1\AppData\Local\Temp\ccNmN5zT.s:27494  .debug_str:000000000001cf53 .LASF2347
C:\Users\CYMR90~1\AppData\Local\Temp\ccNmN5zT.s:22437  .debug_str:00000000000087d6 .LASF2348
C:\Users\CYMR90~1\AppData\Local\Temp\ccNmN5zT.s:25167  .debug_str:0000000000013814 .LASF2349
C:\Users\CYMR90~1\AppData\Local\Temp\ccNmN5zT.s:28698  .debug_str:0000000000021a26 .LASF2350
C:\Users\CYMR90~1\AppData\Local\Temp\ccNmN5zT.s:30988  .debug_str:000000000002aaab .LASF2351
C:\Users\CYMR90~1\AppData\Local\Temp\ccNmN5zT.s:29498  .debug_str:0000000000024b38 .LASF2352
C:\Users\CYMR90~1\AppData\Local\Temp\ccNmN5zT.s:22005  .debug_str:0000000000006a69 .LASF2353
C:\Users\CYMR90~1\AppData\Local\Temp\ccNmN5zT.s:24319  .debug_str:000000000001002b .LASF2354
C:\Users\CYMR90~1\AppData\Local\Temp\ccNmN5zT.s:21951  .debug_str:0000000000006750 .LASF2355
C:\Users\CYMR90~1\AppData\Local\Temp\ccNmN5zT.s:31396  .debug_str:000000000002c4f8 .LASF2356
C:\Users\CYMR90~1\AppData\Local\Temp\ccNmN5zT.s:30812  .debug_str:000000000002a01f .LASF2357
C:\Users\CYMR90~1\AppData\Local\Temp\ccNmN5zT.s:23621  .debug_str:000000000000d5a9 .LASF2358
C:\Users\CYMR90~1\AppData\Local\Temp\ccNmN5zT.s:22667  .debug_str:0000000000009656 .LASF2359
C:\Users\CYMR90~1\AppData\Local\Temp\ccNmN5zT.s:21231  .debug_str:0000000000003a50 .LASF2360
C:\Users\CYMR90~1\AppData\Local\Temp\ccNmN5zT.s:24331  .debug_str:0000000000010104 .LASF2361
C:\Users\CYMR90~1\AppData\Local\Temp\ccNmN5zT.s:23101  .debug_str:000000000000b2c1 .LASF2362
C:\Users\CYMR90~1\AppData\Local\Temp\ccNmN5zT.s:21881  .debug_str:000000000000632b .LASF2363
C:\Users\CYMR90~1\AppData\Local\Temp\ccNmN5zT.s:29284  .debug_str:0000000000023d15 .LASF2364
C:\Users\CYMR90~1\AppData\Local\Temp\ccNmN5zT.s:28440  .debug_str:0000000000020a71 .LASF2365
C:\Users\CYMR90~1\AppData\Local\Temp\ccNmN5zT.s:24875  .debug_str:0000000000012444 .LASF2366
C:\Users\CYMR90~1\AppData\Local\Temp\ccNmN5zT.s:29532  .debug_str:0000000000024db0 .LASF2367
C:\Users\CYMR90~1\AppData\Local\Temp\ccNmN5zT.s:30162  .debug_str:00000000000276f4 .LASF2368
C:\Users\CYMR90~1\AppData\Local\Temp\ccNmN5zT.s:22653  .debug_str:0000000000009533 .LASF2369
C:\Users\CYMR90~1\AppData\Local\Temp\ccNmN5zT.s:23977  .debug_str:000000000000eb3f .LASF2370
C:\Users\CYMR90~1\AppData\Local\Temp\ccNmN5zT.s:22019  .debug_str:0000000000006b71 .LASF2371
C:\Users\CYMR90~1\AppData\Local\Temp\ccNmN5zT.s:24383  .debug_str:0000000000010408 .LASF2372
C:\Users\CYMR90~1\AppData\Local\Temp\ccNmN5zT.s:31268  .debug_str:000000000002bc68 .LASF2373
C:\Users\CYMR90~1\AppData\Local\Temp\ccNmN5zT.s:29928  .debug_str:000000000002682e .LASF2374
C:\Users\CYMR90~1\AppData\Local\Temp\ccNmN5zT.s:20445  .debug_str:0000000000000971 .LASF2375
C:\Users\CYMR90~1\AppData\Local\Temp\ccNmN5zT.s:24777  .debug_str:0000000000011df5 .LASF2376
C:\Users\CYMR90~1\AppData\Local\Temp\ccNmN5zT.s:27928  .debug_str:000000000001eb12 .LASF2377
C:\Users\CYMR90~1\AppData\Local\Temp\ccNmN5zT.s:31214  .debug_str:000000000002b91e .LASF2378
C:\Users\CYMR90~1\AppData\Local\Temp\ccNmN5zT.s:23103  .debug_str:000000000000b2e6 .LASF2379
C:\Users\CYMR90~1\AppData\Local\Temp\ccNmN5zT.s:22061  .debug_str:0000000000006e51 .LASF2380
C:\Users\CYMR90~1\AppData\Local\Temp\ccNmN5zT.s:29490  .debug_str:0000000000024ab5 .LASF2381
C:\Users\CYMR90~1\AppData\Local\Temp\ccNmN5zT.s:29240  .debug_str:0000000000023a9d .LASF2382
C:\Users\CYMR90~1\AppData\Local\Temp\ccNmN5zT.s:24549  .debug_str:0000000000010ef8 .LASF2383
C:\Users\CYMR90~1\AppData\Local\Temp\ccNmN5zT.s:27704  .debug_str:000000000001dd10 .LASF2384
C:\Users\CYMR90~1\AppData\Local\Temp\ccNmN5zT.s:30956  .debug_str:000000000002a8d9 .LASF2385
C:\Users\CYMR90~1\AppData\Local\Temp\ccNmN5zT.s:20745  .debug_str:0000000000001c3a .LASF2386
C:\Users\CYMR90~1\AppData\Local\Temp\ccNmN5zT.s:25455  .debug_str:00000000000149b5 .LASF2387
C:\Users\CYMR90~1\AppData\Local\Temp\ccNmN5zT.s:30164  .debug_str:0000000000027706 .LASF2388
C:\Users\CYMR90~1\AppData\Local\Temp\ccNmN5zT.s:27076  .debug_str:000000000001b4b7 .LASF2389
C:\Users\CYMR90~1\AppData\Local\Temp\ccNmN5zT.s:28224  .debug_str:000000000001fce9 .LASF2390
C:\Users\CYMR90~1\AppData\Local\Temp\ccNmN5zT.s:21623  .debug_str:00000000000053cb .LASF2391
C:\Users\CYMR90~1\AppData\Local\Temp\ccNmN5zT.s:26334  .debug_str:00000000000182ef .LASF2392
C:\Users\CYMR90~1\AppData\Local\Temp\ccNmN5zT.s:31058  .debug_str:000000000002aed7 .LASF2393
C:\Users\CYMR90~1\AppData\Local\Temp\ccNmN5zT.s:27186  .debug_str:000000000001bae0 .LASF2394
C:\Users\CYMR90~1\AppData\Local\Temp\ccNmN5zT.s:30220  .debug_str:0000000000027a51 .LASF2395
C:\Users\CYMR90~1\AppData\Local\Temp\ccNmN5zT.s:23635  .debug_str:000000000000d68c .LASF2396
C:\Users\CYMR90~1\AppData\Local\Temp\ccNmN5zT.s:28280  .debug_str:0000000000020064 .LASF2397
C:\Users\CYMR90~1\AppData\Local\Temp\ccNmN5zT.s:21671  .debug_str:0000000000005681 .LASF2398
C:\Users\CYMR90~1\AppData\Local\Temp\ccNmN5zT.s:26388  .debug_str:000000000001864e .LASF2399
C:\Users\CYMR90~1\AppData\Local\Temp\ccNmN5zT.s:31116  .debug_str:000000000002b26b .LASF2400
C:\Users\CYMR90~1\AppData\Local\Temp\ccNmN5zT.s:30992  .debug_str:000000000002aae3 .LASF2401
C:\Users\CYMR90~1\AppData\Local\Temp\ccNmN5zT.s:22895  .debug_str:000000000000a483 .LASF2402
C:\Users\CYMR90~1\AppData\Local\Temp\ccNmN5zT.s:26084  .debug_str:000000000001739c .LASF2403
C:\Users\CYMR90~1\AppData\Local\Temp\ccNmN5zT.s:29288  .debug_str:0000000000023d46 .LASF2404
C:\Users\CYMR90~1\AppData\Local\Temp\ccNmN5zT.s:21263  .debug_str:0000000000003c23 .LASF2405
C:\Users\CYMR90~1\AppData\Local\Temp\ccNmN5zT.s:24427  .debug_str:000000000001075b .LASF2406
C:\Users\CYMR90~1\AppData\Local\Temp\ccNmN5zT.s:27594  .debug_str:000000000001d5f3 .LASF2407
C:\Users\CYMR90~1\AppData\Local\Temp\ccNmN5zT.s:30836  .debug_str:000000000002a1b5 .LASF2408
C:\Users\CYMR90~1\AppData\Local\Temp\ccNmN5zT.s:25213  .debug_str:0000000000013ab9 .LASF2409
C:\Users\CYMR90~1\AppData\Local\Temp\ccNmN5zT.s:23611  .debug_str:000000000000d502 .LASF2410
C:\Users\CYMR90~1\AppData\Local\Temp\ccNmN5zT.s:26968  .debug_str:000000000001ad71 .LASF2411
C:\Users\CYMR90~1\AppData\Local\Temp\ccNmN5zT.s:20329  .debug_str:0000000000000249 .LASF2412
C:\Users\CYMR90~1\AppData\Local\Temp\ccNmN5zT.s:26996  .debug_str:000000000001af29 .LASF2413
C:\Users\CYMR90~1\AppData\Local\Temp\ccNmN5zT.s:29702  .debug_str:0000000000025a36 .LASF2414
C:\Users\CYMR90~1\AppData\Local\Temp\ccNmN5zT.s:23137  .debug_str:000000000000b4b9 .LASF2415
C:\Users\CYMR90~1\AppData\Local\Temp\ccNmN5zT.s:27774  .debug_str:000000000001e1d5 .LASF2416
C:\Users\CYMR90~1\AppData\Local\Temp\ccNmN5zT.s:23465  .debug_str:000000000000cb56 .LASF2417
C:\Users\CYMR90~1\AppData\Local\Temp\ccNmN5zT.s:25881  .debug_str:0000000000016476 .LASF2418
C:\Users\CYMR90~1\AppData\Local\Temp\ccNmN5zT.s:27982  .debug_str:000000000001ee13 .LASF2419
C:\Users\CYMR90~1\AppData\Local\Temp\ccNmN5zT.s:25087  .debug_str:0000000000013251 .LASF2420
C:\Users\CYMR90~1\AppData\Local\Temp\ccNmN5zT.s:29754  .debug_str:0000000000025d59 .LASF2421
C:\Users\CYMR90~1\AppData\Local\Temp\ccNmN5zT.s:23179  .debug_str:000000000000b814 .LASF2422
C:\Users\CYMR90~1\AppData\Local\Temp\ccNmN5zT.s:27822  .debug_str:000000000001e49f .LASF2423
C:\Users\CYMR90~1\AppData\Local\Temp\ccNmN5zT.s:21227  .debug_str:0000000000003a05 .LASF2424
C:\Users\CYMR90~1\AppData\Local\Temp\ccNmN5zT.s:25941  .debug_str:0000000000016871 .LASF2425
C:\Users\CYMR90~1\AppData\Local\Temp\ccNmN5zT.s:23019  .debug_str:000000000000acf3 .LASF2426
C:\Users\CYMR90~1\AppData\Local\Temp\ccNmN5zT.s:26110  .debug_str:0000000000017504 .LASF2427
C:\Users\CYMR90~1\AppData\Local\Temp\ccNmN5zT.s:29324  .debug_str:0000000000023f3f .LASF2428
C:\Users\CYMR90~1\AppData\Local\Temp\ccNmN5zT.s:21211  .debug_str:00000000000038ea .LASF2429
C:\Users\CYMR90~1\AppData\Local\Temp\ccNmN5zT.s:24461  .debug_str:0000000000010934 .LASF2430
C:\Users\CYMR90~1\AppData\Local\Temp\ccNmN5zT.s:24707  .debug_str:0000000000011957 .LASF2431
C:\Users\CYMR90~1\AppData\Local\Temp\ccNmN5zT.s:30878  .debug_str:000000000002a3e6 .LASF2432
C:\Users\CYMR90~1\AppData\Local\Temp\ccNmN5zT.s:21419  .debug_str:00000000000046b3 .LASF2433
C:\Users\CYMR90~1\AppData\Local\Temp\ccNmN5zT.s:30132  .debug_str:000000000002754b .LASF2434
C:\Users\CYMR90~1\AppData\Local\Temp\ccNmN5zT.s:29082  .debug_str:00000000000230fb .LASF2435
C:\Users\CYMR90~1\AppData\Local\Temp\ccNmN5zT.s:30438  .debug_str:0000000000028a02 .LASF2436
C:\Users\CYMR90~1\AppData\Local\Temp\ccNmN5zT.s:23847  .debug_str:000000000000e32b .LASF2437
C:\Users\CYMR90~1\AppData\Local\Temp\ccNmN5zT.s:28500  .debug_str:0000000000020e18 .LASF2438
C:\Users\CYMR90~1\AppData\Local\Temp\ccNmN5zT.s:21901  .debug_str:0000000000006473 .LASF2439
C:\Users\CYMR90~1\AppData\Local\Temp\ccNmN5zT.s:26628  .debug_str:0000000000019665 .LASF2440
C:\Users\CYMR90~1\AppData\Local\Temp\ccNmN5zT.s:31340  .debug_str:000000000002c131 .LASF2441
C:\Users\CYMR90~1\AppData\Local\Temp\ccNmN5zT.s:24715  .debug_str:00000000000119c4 .LASF2442
C:\Users\CYMR90~1\AppData\Local\Temp\ccNmN5zT.s:29390  .debug_str:0000000000024446 .LASF2443
C:\Users\CYMR90~1\AppData\Local\Temp\ccNmN5zT.s:27470  .debug_str:000000000001cd3f .LASF2444
C:\Users\CYMR90~1\AppData\Local\Temp\ccNmN5zT.s:28552  .debug_str:00000000000210d3 .LASF2445
C:\Users\CYMR90~1\AppData\Local\Temp\ccNmN5zT.s:21955  .debug_str:0000000000006789 .LASF2446
C:\Users\CYMR90~1\AppData\Local\Temp\ccNmN5zT.s:26676  .debug_str:0000000000019a0a .LASF2447
C:\Users\CYMR90~1\AppData\Local\Temp\ccNmN5zT.s:31392  .debug_str:000000000002c4b9 .LASF2448
C:\Users\CYMR90~1\AppData\Local\Temp\ccNmN5zT.s:24769  .debug_str:0000000000011d52 .LASF2449
C:\Users\CYMR90~1\AppData\Local\Temp\ccNmN5zT.s:24689  .debug_str:00000000000117a7 .LASF2450
C:\Users\CYMR90~1\AppData\Local\Temp\ccNmN5zT.s:28246  .debug_str:000000000001fe4a .LASF2451
C:\Users\CYMR90~1\AppData\Local\Temp\ccNmN5zT.s:29550  .debug_str:0000000000024ec2 .LASF2452
C:\Users\CYMR90~1\AppData\Local\Temp\ccNmN5zT.s:27894  .debug_str:000000000001e917 .LASF2453
C:\Users\CYMR90~1\AppData\Local\Temp\ccNmN5zT.s:26520  .debug_str:0000000000018f32 .LASF2454
C:\Users\CYMR90~1\AppData\Local\Temp\ccNmN5zT.s:29704  .debug_str:0000000000025a4f .LASF2455
C:\Users\CYMR90~1\AppData\Local\Temp\ccNmN5zT.s:23081  .debug_str:000000000000b1a9 .LASF2456
C:\Users\CYMR90~1\AppData\Local\Temp\ccNmN5zT.s:24847  .debug_str:000000000001228c .LASF2457
C:\Users\CYMR90~1\AppData\Local\Temp\ccNmN5zT.s:27990  .debug_str:000000000001ee8f .LASF2458
C:\Users\CYMR90~1\AppData\Local\Temp\ccNmN5zT.s:29480  .debug_str:0000000000024a2b .LASF2459
C:\Users\CYMR90~1\AppData\Local\Temp\ccNmN5zT.s:23085  .debug_str:000000000000b1e6 .LASF2460
C:\Users\CYMR90~1\AppData\Local\Temp\ccNmN5zT.s:29118  .debug_str:00000000000232d2 .LASF2461
C:\Users\CYMR90~1\AppData\Local\Temp\ccNmN5zT.s:31210  .debug_str:000000000002b88e .LASF2462
C:\Users\CYMR90~1\AppData\Local\Temp\ccNmN5zT.s:27482  .debug_str:000000000001cea9 .LASF2463
C:\Users\CYMR90~1\AppData\Local\Temp\ccNmN5zT.s:20873  .debug_str:0000000000002332 .LASF2464
C:\Users\CYMR90~1\AppData\Local\Temp\ccNmN5zT.s:25575  .debug_str:0000000000015185 .LASF2465
C:\Users\CYMR90~1\AppData\Local\Temp\ccNmN5zT.s:30284  .debug_str:0000000000027ece .LASF2466
C:\Users\CYMR90~1\AppData\Local\Temp\ccNmN5zT.s:23695  .debug_str:000000000000d9ef .LASF2467
C:\Users\CYMR90~1\AppData\Local\Temp\ccNmN5zT.s:28346  .debug_str:0000000000020449 .LASF2468
C:\Users\CYMR90~1\AppData\Local\Temp\ccNmN5zT.s:26462  .debug_str:0000000000018af0 .LASF2469
C:\Users\CYMR90~1\AppData\Local\Temp\ccNmN5zT.s:21291  .debug_str:0000000000003dfc .LASF2470
C:\Users\CYMR90~1\AppData\Local\Temp\ccNmN5zT.s:20929  .debug_str:00000000000026c6 .LASF2471
C:\Users\CYMR90~1\AppData\Local\Temp\ccNmN5zT.s:25137  .debug_str:0000000000013626 .LASF2472
C:\Users\CYMR90~1\AppData\Local\Temp\ccNmN5zT.s:30338  .debug_str:0000000000028369 .LASF2473
C:\Users\CYMR90~1\AppData\Local\Temp\ccNmN5zT.s:23751  .debug_str:000000000000dd31 .LASF2474
C:\Users\CYMR90~1\AppData\Local\Temp\ccNmN5zT.s:28402  .debug_str:0000000000020803 .LASF2475
C:\Users\CYMR90~1\AppData\Local\Temp\ccNmN5zT.s:30564  .debug_str:00000000000291a4 .LASF2476
C:\Users\CYMR90~1\AppData\Local\Temp\ccNmN5zT.s:21069  .debug_str:0000000000002fd7 .LASF2477
C:\Users\CYMR90~1\AppData\Local\Temp\ccNmN5zT.s:25655  .debug_str:000000000001562e .LASF2478
C:\Users\CYMR90~1\AppData\Local\Temp\ccNmN5zT.s:30324  .debug_str:00000000000281c5 .LASF2479
C:\Users\CYMR90~1\AppData\Local\Temp\ccNmN5zT.s:28666  .debug_str:0000000000021864 .LASF2480
C:\Users\CYMR90~1\AppData\Local\Temp\ccNmN5zT.s:27080  .debug_str:000000000001b4db .LASF2481
C:\Users\CYMR90~1\AppData\Local\Temp\ccNmN5zT.s:27192  .debug_str:000000000001bb2b .LASF2482
C:\Users\CYMR90~1\AppData\Local\Temp\ccNmN5zT.s:30412  .debug_str:000000000002888a .LASF2483
C:\Users\CYMR90~1\AppData\Local\Temp\ccNmN5zT.s:22311  .debug_str:0000000000007f5c .LASF2484
C:\Users\CYMR90~1\AppData\Local\Temp\ccNmN5zT.s:25429  .debug_str:000000000001482a .LASF2485
C:\Users\CYMR90~1\AppData\Local\Temp\ccNmN5zT.s:25141  .debug_str:0000000000013653 .LASF2486
C:\Users\CYMR90~1\AppData\Local\Temp\ccNmN5zT.s:29814  .debug_str:0000000000026140 .LASF2487
C:\Users\CYMR90~1\AppData\Local\Temp\ccNmN5zT.s:23229  .debug_str:000000000000bb24 .LASF2488
C:\Users\CYMR90~1\AppData\Local\Temp\ccNmN5zT.s:27874  .debug_str:000000000001e79a .LASF2489
C:\Users\CYMR90~1\AppData\Local\Temp\ccNmN5zT.s:21281  .debug_str:0000000000003d69 .LASF2490
C:\Users\CYMR90~1\AppData\Local\Temp\ccNmN5zT.s:26004  .debug_str:0000000000016ed1 .LASF2491
C:\Users\CYMR90~1\AppData\Local\Temp\ccNmN5zT.s:30708  .debug_str:0000000000029a1d .LASF2492
C:\Users\CYMR90~1\AppData\Local\Temp\ccNmN5zT.s:24109  .debug_str:000000000000f2e0 .LASF2493
C:\Users\CYMR90~1\AppData\Local\Temp\ccNmN5zT.s:22171  .debug_str:00000000000075e0 .LASF2494
C:\Users\CYMR90~1\AppData\Local\Temp\ccNmN5zT.s:23283  .debug_str:000000000000bf37 .LASF2495
C:\Users\CYMR90~1\AppData\Local\Temp\ccNmN5zT.s:27918  .debug_str:000000000001ea8d .LASF2496
C:\Users\CYMR90~1\AppData\Local\Temp\ccNmN5zT.s:21331  .debug_str:000000000000406c .LASF2497
C:\Users\CYMR90~1\AppData\Local\Temp\ccNmN5zT.s:20713  .debug_str:0000000000001a35 .LASF2498
C:\Users\CYMR90~1\AppData\Local\Temp\ccNmN5zT.s:30760  .debug_str:0000000000029d3a .LASF2499
C:\Users\CYMR90~1\AppData\Local\Temp\ccNmN5zT.s:24171  .debug_str:000000000000f6aa .LASF2500
C:\Users\CYMR90~1\AppData\Local\Temp\ccNmN5zT.s:23887  .debug_str:000000000000e574 .LASF2501
C:\Users\CYMR90~1\AppData\Local\Temp\ccNmN5zT.s:27090  .debug_str:000000000001b589 .LASF2502
C:\Users\CYMR90~1\AppData\Local\Temp\ccNmN5zT.s:30294  .debug_str:0000000000027f75 .LASF2503
C:\Users\CYMR90~1\AppData\Local\Temp\ccNmN5zT.s:22187  .debug_str:00000000000076fb .LASF2504
C:\Users\CYMR90~1\AppData\Local\Temp\ccNmN5zT.s:25309  .debug_str:0000000000014088 .LASF2505
C:\Users\CYMR90~1\AppData\Local\Temp\ccNmN5zT.s:28498  .debug_str:0000000000020e05 .LASF2506
C:\Users\CYMR90~1\AppData\Local\Temp\ccNmN5zT.s:30694  .debug_str:000000000002995a .LASF2507
C:\Users\CYMR90~1\AppData\Local\Temp\ccNmN5zT.s:23661  .debug_str:000000000000d816 .LASF2508
C:\Users\CYMR90~1\AppData\Local\Temp\ccNmN5zT.s:26874  .debug_str:000000000001a739 .LASF2509
C:\Users\CYMR90~1\AppData\Local\Temp\ccNmN5zT.s:30054  .debug_str:0000000000026fd4 .LASF2510
C:\Users\CYMR90~1\AppData\Local\Temp\ccNmN5zT.s:30380  .debug_str:0000000000028628 .LASF2511
C:\Users\CYMR90~1\AppData\Local\Temp\ccNmN5zT.s:23793  .debug_str:000000000000e006 .LASF2512
C:\Users\CYMR90~1\AppData\Local\Temp\ccNmN5zT.s:28444  .debug_str:0000000000020aa0 .LASF2513
C:\Users\CYMR90~1\AppData\Local\Temp\ccNmN5zT.s:21829  .debug_str:0000000000005ff7 .LASF2514
C:\Users\CYMR90~1\AppData\Local\Temp\ccNmN5zT.s:26566  .debug_str:00000000000192dd .LASF2515
C:\Users\CYMR90~1\AppData\Local\Temp\ccNmN5zT.s:23471  .debug_str:000000000000cbbc .LASF2516
C:\Users\CYMR90~1\AppData\Local\Temp\ccNmN5zT.s:24651  .debug_str:000000000001151a .LASF2517
C:\Users\CYMR90~1\AppData\Local\Temp\ccNmN5zT.s:29334  .debug_str:0000000000023faf .LASF2518
C:\Users\CYMR90~1\AppData\Local\Temp\ccNmN5zT.s:27420  .debug_str:000000000001ca3e .LASF2519
C:\Users\CYMR90~1\AppData\Local\Temp\ccNmN5zT.s:28586  .debug_str:00000000000212da .LASF2520
C:\Users\CYMR90~1\AppData\Local\Temp\ccNmN5zT.s:21985  .debug_str:000000000000693e .LASF2521
C:\Users\CYMR90~1\AppData\Local\Temp\ccNmN5zT.s:26702  .debug_str:0000000000019bc1 .LASF2522
C:\Users\CYMR90~1\AppData\Local\Temp\ccNmN5zT.s:31422  .debug_str:000000000002c6a6 .LASF2523
C:\Users\CYMR90~1\AppData\Local\Temp\ccNmN5zT.s:24795  .debug_str:0000000000011efa .LASF2524
C:\Users\CYMR90~1\AppData\Local\Temp\ccNmN5zT.s:29462  .debug_str:00000000000248a2 .LASF2525
C:\Users\CYMR90~1\AppData\Local\Temp\ccNmN5zT.s:24995  .debug_str:0000000000012c25 .LASF2526
C:\Users\CYMR90~1\AppData\Local\Temp\ccNmN5zT.s:21161  .debug_str:00000000000035dd .LASF2527
C:\Users\CYMR90~1\AppData\Local\Temp\ccNmN5zT.s:26358  .debug_str:0000000000018475 .LASF2528
C:\Users\CYMR90~1\AppData\Local\Temp\ccNmN5zT.s:22725  .debug_str:0000000000009a13 .LASF2529
C:\Users\CYMR90~1\AppData\Local\Temp\ccNmN5zT.s:21501  .debug_str:0000000000004c81 .LASF2530
C:\Users\CYMR90~1\AppData\Local\Temp\ccNmN5zT.s:29774  .debug_str:0000000000025e86 .LASF2531
C:\Users\CYMR90~1\AppData\Local\Temp\ccNmN5zT.s:25781  .debug_str:0000000000015e08 .LASF2532
C:\Users\CYMR90~1\AppData\Local\Temp\ccNmN5zT.s:25543  .debug_str:0000000000014f96 .LASF2533
C:\Users\CYMR90~1\AppData\Local\Temp\ccNmN5zT.s:25925  .debug_str:0000000000016775 .LASF2534
C:\Users\CYMR90~1\AppData\Local\Temp\ccNmN5zT.s:22789  .debug_str:0000000000009dd0 .LASF2535
C:\Users\CYMR90~1\AppData\Local\Temp\ccNmN5zT.s:29438  .debug_str:0000000000024728 .LASF2536
C:\Users\CYMR90~1\AppData\Local\Temp\ccNmN5zT.s:30514  .debug_str:0000000000028e6f .LASF2537
C:\Users\CYMR90~1\AppData\Local\Temp\ccNmN5zT.s:20411  .debug_str:0000000000000756 .LASF2538
C:\Users\CYMR90~1\AppData\Local\Temp\ccNmN5zT.s:22207  .debug_str:0000000000007814 .LASF2539
C:\Users\CYMR90~1\AppData\Local\Temp\ccNmN5zT.s:21205  .debug_str:0000000000003897 .LASF2540
C:\Users\CYMR90~1\AppData\Local\Temp\ccNmN5zT.s:29668  .debug_str:000000000002578d .LASF2541
C:\Users\CYMR90~1\AppData\Local\Temp\ccNmN5zT.s:24797  .debug_str:0000000000011f0f .LASF2542
C:\Users\CYMR90~1\AppData\Local\Temp\ccNmN5zT.s:23575  .debug_str:000000000000d219 .LASF2543
C:\Users\CYMR90~1\AppData\Local\Temp\ccNmN5zT.s:28178  .debug_str:000000000001f9f2 .LASF2544
C:\Users\CYMR90~1\AppData\Local\Temp\ccNmN5zT.s:27298  .debug_str:000000000001c243 .LASF2545
C:\Users\CYMR90~1\AppData\Local\Temp\ccNmN5zT.s:21255  .debug_str:0000000000003ba4 .LASF2546
C:\Users\CYMR90~1\AppData\Local\Temp\ccNmN5zT.s:29822  .debug_str:00000000000261d0 .LASF2547
C:\Users\CYMR90~1\AppData\Local\Temp\ccNmN5zT.s:23549  .debug_str:000000000000d079 .LASF2548
C:\Users\CYMR90~1\AppData\Local\Temp\ccNmN5zT.s:22631  .debug_str:00000000000093eb .LASF2549
C:\Users\CYMR90~1\AppData\Local\Temp\ccNmN5zT.s:21593  .debug_str:00000000000051e0 .LASF2550
C:\Users\CYMR90~1\AppData\Local\Temp\ccNmN5zT.s:30172  .debug_str:0000000000027786 .LASF2551
C:\Users\CYMR90~1\AppData\Local\Temp\ccNmN5zT.s:30464  .debug_str:0000000000028bb6 .LASF2552
C:\Users\CYMR90~1\AppData\Local\Temp\ccNmN5zT.s:24649  .debug_str:00000000000114f8 .LASF2553
C:\Users\CYMR90~1\AppData\Local\Temp\ccNmN5zT.s:28536  .debug_str:000000000002100b .LASF2554
C:\Users\CYMR90~1\AppData\Local\Temp\ccNmN5zT.s:25701  .debug_str:00000000000158cd .LASF2555
C:\Users\CYMR90~1\AppData\Local\Temp\ccNmN5zT.s:26262  .debug_str:0000000000017e96 .LASF2556
C:\Users\CYMR90~1\AppData\Local\Temp\ccNmN5zT.s:25119  .debug_str:00000000000134ef .LASF2557
C:\Users\CYMR90~1\AppData\Local\Temp\ccNmN5zT.s:25603  .debug_str:0000000000015380 .LASF2558
C:\Users\CYMR90~1\AppData\Local\Temp\ccNmN5zT.s:24323  .debug_str:000000000001006a .LASF2559
C:\Users\CYMR90~1\AppData\Local\Temp\ccNmN5zT.s:24603  .debug_str:000000000001120d .LASF2560
C:\Users\CYMR90~1\AppData\Local\Temp\ccNmN5zT.s:23699  .debug_str:000000000000da34 .LASF2561
C:\Users\CYMR90~1\AppData\Local\Temp\ccNmN5zT.s:22705  .debug_str:000000000000988c .LASF2562
C:\Users\CYMR90~1\AppData\Local\Temp\ccNmN5zT.s:31176  .debug_str:000000000002b674 .LASF2563
C:\Users\CYMR90~1\AppData\Local\Temp\ccNmN5zT.s:24347  .debug_str:000000000001021d .LASF2564
C:\Users\CYMR90~1\AppData\Local\Temp\ccNmN5zT.s:30508  .debug_str:0000000000028e12 .LASF2565
C:\Users\CYMR90~1\AppData\Local\Temp\ccNmN5zT.s:29228  .debug_str:00000000000239d6 .LASF2566
C:\Users\CYMR90~1\AppData\Local\Temp\ccNmN5zT.s:26092  .debug_str:000000000001740b .LASF2567
C:\Users\CYMR90~1\AppData\Local\Temp\ccNmN5zT.s:25721  .debug_str:0000000000015a28 .LASF2568
C:\Users\CYMR90~1\AppData\Local\Temp\ccNmN5zT.s:25849  .debug_str:00000000000162b6 .LASF2569
C:\Users\CYMR90~1\AppData\Local\Temp\ccNmN5zT.s:30194  .debug_str:00000000000278c4 .LASF2570
C:\Users\CYMR90~1\AppData\Local\Temp\ccNmN5zT.s:23565  .debug_str:000000000000d17d .LASF2571
C:\Users\CYMR90~1\AppData\Local\Temp\ccNmN5zT.s:27960  .debug_str:000000000001ecc0 .LASF2572
C:\Users\CYMR90~1\AppData\Local\Temp\ccNmN5zT.s:22107  .debug_str:00000000000071c5 .LASF2573
C:\Users\CYMR90~1\AppData\Local\Temp\ccNmN5zT.s:20549  .debug_str:000000000000103c .LASF2574
C:\Users\CYMR90~1\AppData\Local\Temp\ccNmN5zT.s:26958  .debug_str:000000000001aced .LASF2575
C:\Users\CYMR90~1\AppData\Local\Temp\ccNmN5zT.s:22965  .debug_str:000000000000a989 .LASF2576
C:\Users\CYMR90~1\AppData\Local\Temp\ccNmN5zT.s:25829  .debug_str:000000000001617f .LASF2577
C:\Users\CYMR90~1\AppData\Local\Temp\ccNmN5zT.s:23281  .debug_str:000000000000bf1f .LASF2578
C:\Users\CYMR90~1\AppData\Local\Temp\ccNmN5zT.s:23413  .debug_str:000000000000c769 .LASF2579
C:\Users\CYMR90~1\AppData\Local\Temp\ccNmN5zT.s:27340  .debug_str:000000000001c489 .LASF2580
C:\Users\CYMR90~1\AppData\Local\Temp\ccNmN5zT.s:21537  .debug_str:0000000000004ea3 .LASF2581
C:\Users\CYMR90~1\AppData\Local\Temp\ccNmN5zT.s:27198  .debug_str:000000000001bb82 .LASF2582
C:\Users\CYMR90~1\AppData\Local\Temp\ccNmN5zT.s:25705  .debug_str:0000000000015936 .LASF2583
C:\Users\CYMR90~1\AppData\Local\Temp\ccNmN5zT.s:30660  .debug_str:000000000002976c .LASF2584
C:\Users\CYMR90~1\AppData\Local\Temp\ccNmN5zT.s:28824  .debug_str:00000000000221e0 .LASF2585
C:\Users\CYMR90~1\AppData\Local\Temp\ccNmN5zT.s:21507  .debug_str:0000000000004ce6 .LASF2586
C:\Users\CYMR90~1\AppData\Local\Temp\ccNmN5zT.s:28562  .debug_str:0000000000021173 .LASF2587
C:\Users\CYMR90~1\AppData\Local\Temp\ccNmN5zT.s:30938  .debug_str:000000000002a7c3 .LASF2588
C:\Users\CYMR90~1\AppData\Local\Temp\ccNmN5zT.s:20505  .debug_str:0000000000000d50 .LASF2589
C:\Users\CYMR90~1\AppData\Local\Temp\ccNmN5zT.s:22227  .debug_str:0000000000007958 .LASF2590
C:\Users\CYMR90~1\AppData\Local\Temp\ccNmN5zT.s:22703  .debug_str:000000000000986c .LASF2591
C:\Users\CYMR90~1\AppData\Local\Temp\ccNmN5zT.s:24975  .debug_str:0000000000012b03 .LASF2592
C:\Users\CYMR90~1\AppData\Local\Temp\ccNmN5zT.s:22761  .debug_str:0000000000009c37 .LASF2593
C:\Users\CYMR90~1\AppData\Local\Temp\ccNmN5zT.s:21293  .debug_str:0000000000003e15 .LASF2594
C:\Users\CYMR90~1\AppData\Local\Temp\ccNmN5zT.s:27208  .debug_str:000000000001bc52 .LASF2595
C:\Users\CYMR90~1\AppData\Local\Temp\ccNmN5zT.s:26350  .debug_str:00000000000183f5 .LASF2596
C:\Users\CYMR90~1\AppData\Local\Temp\ccNmN5zT.s:22821  .debug_str:0000000000009feb .LASF2597
C:\Users\CYMR90~1\AppData\Local\Temp\ccNmN5zT.s:31514  .debug_str:000000000002cc65 .LASF2598
C:\Users\CYMR90~1\AppData\Local\Temp\ccNmN5zT.s:20741  .debug_str:0000000000001c00 .LASF2599
C:\Users\CYMR90~1\AppData\Local\Temp\ccNmN5zT.s:25225  .debug_str:0000000000013b6d .LASF2600
C:\Users\CYMR90~1\AppData\Local\Temp\ccNmN5zT.s:28800  .debug_str:0000000000022060 .LASF2601
C:\Users\CYMR90~1\AppData\Local\Temp\ccNmN5zT.s:31288  .debug_str:000000000002bdad .LASF2602
C:\Users\CYMR90~1\AppData\Local\Temp\ccNmN5zT.s:24655  .debug_str:000000000001155e .LASF2603
C:\Users\CYMR90~1\AppData\Local\Temp\ccNmN5zT.s:23999  .debug_str:000000000000eccc .LASF2604
C:\Users\CYMR90~1\AppData\Local\Temp\ccNmN5zT.s:27464  .debug_str:000000000001cce9 .LASF2605
C:\Users\CYMR90~1\AppData\Local\Temp\ccNmN5zT.s:26738  .debug_str:0000000000019dfe .LASF2606
C:\Users\CYMR90~1\AppData\Local\Temp\ccNmN5zT.s:21553  .debug_str:0000000000004f8e .LASF2607
C:\Users\CYMR90~1\AppData\Local\Temp\ccNmN5zT.s:21471  .debug_str:0000000000004aa9 .LASF2608
C:\Users\CYMR90~1\AppData\Local\Temp\ccNmN5zT.s:31546  .debug_str:000000000002ceaf .LASF2609
C:\Users\CYMR90~1\AppData\Local\Temp\ccNmN5zT.s:28084  .debug_str:000000000001f469 .LASF2610
C:\Users\CYMR90~1\AppData\Local\Temp\ccNmN5zT.s:22385  .debug_str:00000000000084e9 .LASF2611
C:\Users\CYMR90~1\AppData\Local\Temp\ccNmN5zT.s:22373  .debug_str:0000000000008448 .LASF2612
C:\Users\CYMR90~1\AppData\Local\Temp\ccNmN5zT.s:29710  .debug_str:0000000000025aa9 .LASF2613
C:\Users\CYMR90~1\AppData\Local\Temp\ccNmN5zT.s:24613  .debug_str:00000000000112bd .LASF2614
C:\Users\CYMR90~1\AppData\Local\Temp\ccNmN5zT.s:25847  .debug_str:0000000000016292 .LASF2615
C:\Users\CYMR90~1\AppData\Local\Temp\ccNmN5zT.s:27156  .debug_str:000000000001b96f .LASF2616
C:\Users\CYMR90~1\AppData\Local\Temp\ccNmN5zT.s:30444  .debug_str:0000000000028a91 .LASF2617
C:\Users\CYMR90~1\AppData\Local\Temp\ccNmN5zT.s:28672  .debug_str:00000000000218d2 .LASF2618
C:\Users\CYMR90~1\AppData\Local\Temp\ccNmN5zT.s:27708  .debug_str:000000000001dd3b .LASF2619
C:\Users\CYMR90~1\AppData\Local\Temp\ccNmN5zT.s:26714  .debug_str:0000000000019c96 .LASF2620
C:\Users\CYMR90~1\AppData\Local\Temp\ccNmN5zT.s:25805  .debug_str:0000000000015fbc .LASF2621
C:\Users\CYMR90~1\AppData\Local\Temp\ccNmN5zT.s:24883  .debug_str:00000000000124d4 .LASF2622
C:\Users\CYMR90~1\AppData\Local\Temp\ccNmN5zT.s:29068  .debug_str:000000000002303e .LASF2623
C:\Users\CYMR90~1\AppData\Local\Temp\ccNmN5zT.s:25633  .debug_str:0000000000015515 .LASF2624
C:\Users\CYMR90~1\AppData\Local\Temp\ccNmN5zT.s:23783  .debug_str:000000000000df80 .LASF2625
C:\Users\CYMR90~1\AppData\Local\Temp\ccNmN5zT.s:21095  .debug_str:0000000000003170 .LASF2626
C:\Users\CYMR90~1\AppData\Local\Temp\ccNmN5zT.s:22633  .debug_str:000000000000940d .LASF2627
C:\Users\CYMR90~1\AppData\Local\Temp\ccNmN5zT.s:20501  .debug_str:0000000000000d19 .LASF2628
C:\Users\CYMR90~1\AppData\Local\Temp\ccNmN5zT.s:23789  .debug_str:000000000000dfc8 .LASF2629
C:\Users\CYMR90~1\AppData\Local\Temp\ccNmN5zT.s:22443  .debug_str:0000000000008838 .LASF2630
C:\Users\CYMR90~1\AppData\Local\Temp\ccNmN5zT.s:20791  .debug_str:0000000000001efd .LASF2631
C:\Users\CYMR90~1\AppData\Local\Temp\ccNmN5zT.s:23245  .debug_str:000000000000bc19 .LASF2632
C:\Users\CYMR90~1\AppData\Local\Temp\ccNmN5zT.s:20601  .debug_str:000000000000130c .LASF2633
C:\Users\CYMR90~1\AppData\Local\Temp\ccNmN5zT.s:26842  .debug_str:000000000001a5b5 .LASF2634
C:\Users\CYMR90~1\AppData\Local\Temp\ccNmN5zT.s:26626  .debug_str:0000000000019654 .LASF2635
C:\Users\CYMR90~1\AppData\Local\Temp\ccNmN5zT.s:25147  .debug_str:00000000000136c0 .LASF2636
C:\Users\CYMR90~1\AppData\Local\Temp\ccNmN5zT.s:30346  .debug_str:00000000000283e3 .LASF2637
C:\Users\CYMR90~1\AppData\Local\Temp\ccNmN5zT.s:22829  .debug_str:000000000000a06c .LASF2638
C:\Users\CYMR90~1\AppData\Local\Temp\ccNmN5zT.s:26888  .debug_str:000000000001a826 .LASF2639
C:\Users\CYMR90~1\AppData\Local\Temp\ccNmN5zT.s:27512  .debug_str:000000000001d110 .LASF2640
C:\Users\CYMR90~1\AppData\Local\Temp\ccNmN5zT.s:26032  .debug_str:000000000001708a .LASF2641
C:\Users\CYMR90~1\AppData\Local\Temp\ccNmN5zT.s:29938  .debug_str:00000000000268cc .LASF2642
C:\Users\CYMR90~1\AppData\Local\Temp\ccNmN5zT.s:25091  .debug_str:0000000000013282 .LASF2643
C:\Users\CYMR90~1\AppData\Local\Temp\ccNmN5zT.s:20371  .debug_str:00000000000004ff .LASF2644
C:\Users\CYMR90~1\AppData\Local\Temp\ccNmN5zT.s:20855  .debug_str:0000000000002252 .LASF2645
C:\Users\CYMR90~1\AppData\Local\Temp\ccNmN5zT.s:25663  .debug_str:000000000001569e .LASF2646
C:\Users\CYMR90~1\AppData\Local\Temp\ccNmN5zT.s:20489  .debug_str:0000000000000c78 .LASF2647
C:\Users\CYMR90~1\AppData\Local\Temp\ccNmN5zT.s:27610  .debug_str:000000000001d731 .LASF2648
C:\Users\CYMR90~1\AppData\Local\Temp\ccNmN5zT.s:28180  .debug_str:000000000001fa14 .LASF2649
C:\Users\CYMR90~1\AppData\Local\Temp\ccNmN5zT.s:29510  .debug_str:0000000000024c01 .LASF2650
C:\Users\CYMR90~1\AppData\Local\Temp\ccNmN5zT.s:21655  .debug_str:00000000000055b6 .LASF2651
C:\Users\CYMR90~1\AppData\Local\Temp\ccNmN5zT.s:21257  .debug_str:0000000000003bc6 .LASF2652
C:\Users\CYMR90~1\AppData\Local\Temp\ccNmN5zT.s:25351  .debug_str:000000000001434e .LASF2653
C:\Users\CYMR90~1\AppData\Local\Temp\ccNmN5zT.s:23321  .debug_str:000000000000c1c1 .LASF2654
C:\Users\CYMR90~1\AppData\Local\Temp\ccNmN5zT.s:28072  .debug_str:000000000001f3ae .LASF2655
C:\Users\CYMR90~1\AppData\Local\Temp\ccNmN5zT.s:23871  .debug_str:000000000000e47e .LASF2656
C:\Users\CYMR90~1\AppData\Local\Temp\ccNmN5zT.s:28968  .debug_str:0000000000022a53 .LASF2657
C:\Users\CYMR90~1\AppData\Local\Temp\ccNmN5zT.s:31498  .debug_str:000000000002cb8f .LASF2658
C:\Users\CYMR90~1\AppData\Local\Temp\ccNmN5zT.s:21771  .debug_str:0000000000005ca5 .LASF2659
C:\Users\CYMR90~1\AppData\Local\Temp\ccNmN5zT.s:26872  .debug_str:000000000001a71b .LASF2660
C:\Users\CYMR90~1\AppData\Local\Temp\ccNmN5zT.s:23041  .debug_str:000000000000ae68 .LASF2661
C:\Users\CYMR90~1\AppData\Local\Temp\ccNmN5zT.s:29646  .debug_str:00000000000255ce .LASF2662
C:\Users\CYMR90~1\AppData\Local\Temp\ccNmN5zT.s:21045  .debug_str:0000000000002e53 .LASF2663
C:\Users\CYMR90~1\AppData\Local\Temp\ccNmN5zT.s:31378  .debug_str:000000000002c38e .LASF2664
C:\Users\CYMR90~1\AppData\Local\Temp\ccNmN5zT.s:20637  .debug_str:00000000000014e8 .LASF2665
C:\Users\CYMR90~1\AppData\Local\Temp\ccNmN5zT.s:20409  .debug_str:0000000000000729 .LASF2666
C:\Users\CYMR90~1\AppData\Local\Temp\ccNmN5zT.s:28840  .debug_str:00000000000222c4 .LASF2667
C:\Users\CYMR90~1\AppData\Local\Temp\ccNmN5zT.s:25245  .debug_str:0000000000013cad .LASF2668
C:\Users\CYMR90~1\AppData\Local\Temp\ccNmN5zT.s:25039  .debug_str:0000000000012f14 .LASF2669
C:\Users\CYMR90~1\AppData\Local\Temp\ccNmN5zT.s:27880  .debug_str:000000000001e810 .LASF2670
C:\Users\CYMR90~1\AppData\Local\Temp\ccNmN5zT.s:23169  .debug_str:000000000000b74f .LASF2671
C:\Users\CYMR90~1\AppData\Local\Temp\ccNmN5zT.s:22043  .debug_str:0000000000006d11 .LASF2672
C:\Users\CYMR90~1\AppData\Local\Temp\ccNmN5zT.s:28176  .debug_str:000000000001f9c4 .LASF2673
C:\Users\CYMR90~1\AppData\Local\Temp\ccNmN5zT.s:30716  .debug_str:0000000000029a84 .LASF2674
C:\Users\CYMR90~1\AppData\Local\Temp\ccNmN5zT.s:26176  .debug_str:0000000000017959 .LASF2675
C:\Users\CYMR90~1\AppData\Local\Temp\ccNmN5zT.s:27526  .debug_str:000000000001d1e8 .LASF2676
C:\Users\CYMR90~1\AppData\Local\Temp\ccNmN5zT.s:25413  .debug_str:0000000000014737 .LASF2677
C:\Users\CYMR90~1\AppData\Local\Temp\ccNmN5zT.s:23701  .debug_str:000000000000da57 .LASF2678
C:\Users\CYMR90~1\AppData\Local\Temp\ccNmN5zT.s:27050  .debug_str:000000000001b308 .LASF2679
C:\Users\CYMR90~1\AppData\Local\Temp\ccNmN5zT.s:31096  .debug_str:000000000002b105 .LASF2680
C:\Users\CYMR90~1\AppData\Local\Temp\ccNmN5zT.s:21565  .debug_str:000000000000503e .LASF2681
C:\Users\CYMR90~1\AppData\Local\Temp\ccNmN5zT.s:22199  .debug_str:00000000000077b7 .LASF2682
C:\Users\CYMR90~1\AppData\Local\Temp\ccNmN5zT.s:30524  .debug_str:0000000000028f44 .LASF2683
C:\Users\CYMR90~1\AppData\Local\Temp\ccNmN5zT.s:26552  .debug_str:00000000000191e5 .LASF2684
C:\Users\CYMR90~1\AppData\Local\Temp\ccNmN5zT.s:29584  .debug_str:00000000000250b7 .LASF2685
C:\Users\CYMR90~1\AppData\Local\Temp\ccNmN5zT.s:23557  .debug_str:000000000000d0ef .LASF2686
C:\Users\CYMR90~1\AppData\Local\Temp\ccNmN5zT.s:28730  .debug_str:0000000000021c45 .LASF2687
C:\Users\CYMR90~1\AppData\Local\Temp\ccNmN5zT.s:28988  .debug_str:0000000000022b70 .LASF2688
C:\Users\CYMR90~1\AppData\Local\Temp\ccNmN5zT.s:24643  .debug_str:000000000001149f .LASF2689
C:\Users\CYMR90~1\AppData\Local\Temp\ccNmN5zT.s:21239  .debug_str:0000000000003ac6 .LASF2690
C:\Users\CYMR90~1\AppData\Local\Temp\ccNmN5zT.s:26506  .debug_str:0000000000018e3f .LASF2691
C:\Users\CYMR90~1\AppData\Local\Temp\ccNmN5zT.s:20421  .debug_str:00000000000007ff .LASF2692
C:\Users\CYMR90~1\AppData\Local\Temp\ccNmN5zT.s:28272  .debug_str:0000000000020002 .LASF2693
C:\Users\CYMR90~1\AppData\Local\Temp\ccNmN5zT.s:30434  .debug_str:00000000000289d0 .LASF2694
C:\Users\CYMR90~1\AppData\Local\Temp\ccNmN5zT.s:22339  .debug_str:00000000000081e4 .LASF2695
C:\Users\CYMR90~1\AppData\Local\Temp\ccNmN5zT.s:22977  .debug_str:000000000000aa43 .LASF2696
C:\Users\CYMR90~1\AppData\Local\Temp\ccNmN5zT.s:28726  .debug_str:0000000000021c0b .LASF2697
C:\Users\CYMR90~1\AppData\Local\Temp\ccNmN5zT.s:20551  .debug_str:000000000000104e .LASF2698
C:\Users\CYMR90~1\AppData\Local\Temp\ccNmN5zT.s:23801  .debug_str:000000000000e077 .LASF2699
C:\Users\CYMR90~1\AppData\Local\Temp\ccNmN5zT.s:27018  .debug_str:000000000001b102 .LASF2700
C:\Users\CYMR90~1\AppData\Local\Temp\ccNmN5zT.s:30196  .debug_str:00000000000278d7 .LASF2701
C:\Users\CYMR90~1\AppData\Local\Temp\ccNmN5zT.s:22085  .debug_str:0000000000006fe1 .LASF2702
C:\Users\CYMR90~1\AppData\Local\Temp\ccNmN5zT.s:25301  .debug_str:0000000000013ff9 .LASF2703
C:\Users\CYMR90~1\AppData\Local\Temp\ccNmN5zT.s:21765  .debug_str:0000000000005c55 .LASF2704
C:\Users\CYMR90~1\AppData\Local\Temp\ccNmN5zT.s:26500  .debug_str:0000000000018de2 .LASF2705
C:\Users\CYMR90~1\AppData\Local\Temp\ccNmN5zT.s:31220  .debug_str:000000000002b977 .LASF2706
C:\Users\CYMR90~1\AppData\Local\Temp\ccNmN5zT.s:24595  .debug_str:0000000000011194 .LASF2707
C:\Users\CYMR90~1\AppData\Local\Temp\ccNmN5zT.s:29264  .debug_str:0000000000023bed .LASF2708
C:\Users\CYMR90~1\AppData\Local\Temp\ccNmN5zT.s:22681  .debug_str:000000000000972d .LASF2709
C:\Users\CYMR90~1\AppData\Local\Temp\ccNmN5zT.s:23053  .debug_str:000000000000aff1 .LASF2710
C:\Users\CYMR90~1\AppData\Local\Temp\ccNmN5zT.s:23709  .debug_str:000000000000dae7 .LASF2711
C:\Users\CYMR90~1\AppData\Local\Temp\ccNmN5zT.s:28982  .debug_str:0000000000022b0a .LASF2712
C:\Users\CYMR90~1\AppData\Local\Temp\ccNmN5zT.s:26230  .debug_str:0000000000017cb7 .LASF2713
C:\Users\CYMR90~1\AppData\Local\Temp\ccNmN5zT.s:21485  .debug_str:0000000000004b76 .LASF2714
C:\Users\CYMR90~1\AppData\Local\Temp\ccNmN5zT.s:22927  .debug_str:000000000000a64a .LASF2715
C:\Users\CYMR90~1\AppData\Local\Temp\ccNmN5zT.s:28100  .debug_str:000000000001f566 .LASF2716
C:\Users\CYMR90~1\AppData\Local\Temp\ccNmN5zT.s:22057  .debug_str:0000000000006e1c .LASF2717
C:\Users\CYMR90~1\AppData\Local\Temp\ccNmN5zT.s:27212  .debug_str:000000000001bc9f .LASF2718
C:\Users\CYMR90~1\AppData\Local\Temp\ccNmN5zT.s:23411  .debug_str:000000000000c74d .LASF2719
C:\Users\CYMR90~1\AppData\Local\Temp\ccNmN5zT.s:23153  .debug_str:000000000000b61e .LASF2720
C:\Users\CYMR90~1\AppData\Local\Temp\ccNmN5zT.s:28342  .debug_str:0000000000020408 .LASF2721
C:\Users\CYMR90~1\AppData\Local\Temp\ccNmN5zT.s:22293  .debug_str:0000000000007e27 .LASF2722
C:\Users\CYMR90~1\AppData\Local\Temp\ccNmN5zT.s:27432  .debug_str:000000000001cade .LASF2723
C:\Users\CYMR90~1\AppData\Local\Temp\ccNmN5zT.s:21353  .debug_str:000000000000425f .LASF2724
C:\Users\CYMR90~1\AppData\Local\Temp\ccNmN5zT.s:29242  .debug_str:0000000000023ab6 .LASF2725
C:\Users\CYMR90~1\AppData\Local\Temp\ccNmN5zT.s:26532  .debug_str:0000000000018fce .LASF2726
C:\Users\CYMR90~1\AppData\Local\Temp\ccNmN5zT.s:20817  .debug_str:0000000000002052 .LASF2727
C:\Users\CYMR90~1\AppData\Local\Temp\ccNmN5zT.s:21167  .debug_str:0000000000003626 .LASF2728
C:\Users\CYMR90~1\AppData\Local\Temp\ccNmN5zT.s:29714  .debug_str:0000000000025aec .LASF2729
C:\Users\CYMR90~1\AppData\Local\Temp\ccNmN5zT.s:27074  .debug_str:000000000001b49f .LASF2730
C:\Users\CYMR90~1\AppData\Local\Temp\ccNmN5zT.s:26216  .debug_str:0000000000017be3 .LASF2731
C:\Users\CYMR90~1\AppData\Local\Temp\ccNmN5zT.s:31406  .debug_str:000000000002c599 .LASF2732
C:\Users\CYMR90~1\AppData\Local\Temp\ccNmN5zT.s:25299  .debug_str:0000000000013fdf .LASF2733
C:\Users\CYMR90~1\AppData\Local\Temp\ccNmN5zT.s:30548  .debug_str:00000000000290ab .LASF2734
C:\Users\CYMR90~1\AppData\Local\Temp\ccNmN5zT.s:24403  .debug_str:0000000000010536 .LASF2735
C:\Users\CYMR90~1\AppData\Local\Temp\ccNmN5zT.s:26974  .debug_str:000000000001addc .LASF2736
C:\Users\CYMR90~1\AppData\Local\Temp\ccNmN5zT.s:20849  .debug_str:0000000000002207 .LASF2737
C:\Users\CYMR90~1\AppData\Local\Temp\ccNmN5zT.s:26022  .debug_str:0000000000017005 .LASF2738
C:\Users\CYMR90~1\AppData\Local\Temp\ccNmN5zT.s:25333  .debug_str:0000000000014243 .LASF2739
C:\Users\CYMR90~1\AppData\Local\Temp\ccNmN5zT.s:25103  .debug_str:000000000001337e .LASF2740
C:\Users\CYMR90~1\AppData\Local\Temp\ccNmN5zT.s:24003  .debug_str:000000000000ecfd .LASF2741
C:\Users\CYMR90~1\AppData\Local\Temp\ccNmN5zT.s:31098  .debug_str:000000000002b11d .LASF2742
C:\Users\CYMR90~1\AppData\Local\Temp\ccNmN5zT.s:22995  .debug_str:000000000000ab5c .LASF2743
C:\Users\CYMR90~1\AppData\Local\Temp\ccNmN5zT.s:26174  .debug_str:0000000000017940 .LASF2744
C:\Users\CYMR90~1\AppData\Local\Temp\ccNmN5zT.s:29386  .debug_str:00000000000243df .LASF2745
C:\Users\CYMR90~1\AppData\Local\Temp\ccNmN5zT.s:21279  .debug_str:0000000000003d50 .LASF2746
C:\Users\CYMR90~1\AppData\Local\Temp\ccNmN5zT.s:24527  .debug_str:0000000000010ddd .LASF2747
C:\Users\CYMR90~1\AppData\Local\Temp\ccNmN5zT.s:27686  .debug_str:000000000001dbf7 .LASF2748
C:\Users\CYMR90~1\AppData\Local\Temp\ccNmN5zT.s:30846  .debug_str:000000000002a233 .LASF2749
C:\Users\CYMR90~1\AppData\Local\Temp\ccNmN5zT.s:22757  .debug_str:0000000000009c02 .LASF2750
C:\Users\CYMR90~1\AppData\Local\Temp\ccNmN5zT.s:25943  .debug_str:000000000001688a .LASF2751
C:\Users\CYMR90~1\AppData\Local\Temp\ccNmN5zT.s:27920  .debug_str:000000000001eaa8 .LASF2752
C:\Users\CYMR90~1\AppData\Local\Temp\ccNmN5zT.s:21333  .debug_str:0000000000004087 .LASF2753
C:\Users\CYMR90~1\AppData\Local\Temp\ccNmN5zT.s:26054  .debug_str:00000000000171d2 .LASF2754
C:\Users\CYMR90~1\AppData\Local\Temp\ccNmN5zT.s:30762  .debug_str:0000000000029d55 .LASF2755
C:\Users\CYMR90~1\AppData\Local\Temp\ccNmN5zT.s:24173  .debug_str:000000000000f6c5 .LASF2756
C:\Users\CYMR90~1\AppData\Local\Temp\ccNmN5zT.s:28818  .debug_str:0000000000022196 .LASF2757
C:\Users\CYMR90~1\AppData\Local\Temp\ccNmN5zT.s:22213  .debug_str:0000000000007885 .LASF2758
C:\Users\CYMR90~1\AppData\Local\Temp\ccNmN5zT.s:25431  .debug_str:0000000000014843 .LASF2759
C:\Users\CYMR90~1\AppData\Local\Temp\ccNmN5zT.s:28524  .debug_str:0000000000020f6f .LASF2760
C:\Users\CYMR90~1\AppData\Local\Temp\ccNmN5zT.s:20453  .debug_str:00000000000009e1 .LASF2761
C:\Users\CYMR90~1\AppData\Local\Temp\ccNmN5zT.s:23691  .debug_str:000000000000d9b8 .LASF2762
C:\Users\CYMR90~1\AppData\Local\Temp\ccNmN5zT.s:26904  .debug_str:000000000001a9a1 .LASF2763
C:\Users\CYMR90~1\AppData\Local\Temp\ccNmN5zT.s:30080  .debug_str:0000000000027137 .LASF2764
C:\Users\CYMR90~1\AppData\Local\Temp\ccNmN5zT.s:21973  .debug_str:000000000000688b .LASF2765
C:\Users\CYMR90~1\AppData\Local\Temp\ccNmN5zT.s:25201  .debug_str:0000000000013a0d .LASF2766
C:\Users\CYMR90~1\AppData\Local\Temp\ccNmN5zT.s:28388  .debug_str:0000000000020750 .LASF2767
C:\Users\CYMR90~1\AppData\Local\Temp\ccNmN5zT.s:25735  .debug_str:0000000000015aef .LASF2768
C:\Users\CYMR90~1\AppData\Local\Temp\ccNmN5zT.s:30448  .debug_str:0000000000028ac3 .LASF2769
C:\Users\CYMR90~1\AppData\Local\Temp\ccNmN5zT.s:23855  .debug_str:000000000000e3b5 .LASF2770
C:\Users\CYMR90~1\AppData\Local\Temp\ccNmN5zT.s:21909  .debug_str:00000000000064dd .LASF2771
C:\Users\CYMR90~1\AppData\Local\Temp\ccNmN5zT.s:26638  .debug_str:0000000000019700 .LASF2772
C:\Users\CYMR90~1\AppData\Local\Temp\ccNmN5zT.s:25159  .debug_str:0000000000013780 .LASF2773
C:\Users\CYMR90~1\AppData\Local\Temp\ccNmN5zT.s:28332  .debug_str:000000000002033f .LASF2774
C:\Users\CYMR90~1\AppData\Local\Temp\ccNmN5zT.s:31590  .debug_str:000000000002d161 .LASF2775
C:\Users\CYMR90~1\AppData\Local\Temp\ccNmN5zT.s:27300  .debug_str:000000000001c265 .LASF2776
C:\Users\CYMR90~1\AppData\Local\Temp\ccNmN5zT.s:29368  .debug_str:0000000000024292 .LASF2777
C:\Users\CYMR90~1\AppData\Local\Temp\ccNmN5zT.s:29788  .debug_str:0000000000025f5b .LASF2778
C:\Users\CYMR90~1\AppData\Local\Temp\ccNmN5zT.s:21675  .debug_str:00000000000056c2 .LASF2779
C:\Users\CYMR90~1\AppData\Local\Temp\ccNmN5zT.s:24931  .debug_str:00000000000127f3 .LASF2780
C:\Users\CYMR90~1\AppData\Local\Temp\ccNmN5zT.s:28074  .debug_str:000000000001f3d3 .LASF2781
C:\Users\CYMR90~1\AppData\Local\Temp\ccNmN5zT.s:31356  .debug_str:000000000002c249 .LASF2782
C:\Users\CYMR90~1\AppData\Local\Temp\ccNmN5zT.s:28820  .debug_str:00000000000221b1 .LASF2783
C:\Users\CYMR90~1\AppData\Local\Temp\ccNmN5zT.s:30820  .debug_str:000000000002a0af .LASF2784
C:\Users\CYMR90~1\AppData\Local\Temp\ccNmN5zT.s:21253  .debug_str:0000000000003b8d .LASF2785
C:\Users\CYMR90~1\AppData\Local\Temp\ccNmN5zT.s:25967  .debug_str:0000000000016a62 .LASF2786
C:\Users\CYMR90~1\AppData\Local\Temp\ccNmN5zT.s:30684  .debug_str:00000000000298eb .LASF2787
C:\Users\CYMR90~1\AppData\Local\Temp\ccNmN5zT.s:24087  .debug_str:000000000000f17b .LASF2788
C:\Users\CYMR90~1\AppData\Local\Temp\ccNmN5zT.s:25933  .debug_str:0000000000016805 .LASF2789
C:\Users\CYMR90~1\AppData\Local\Temp\ccNmN5zT.s:30650  .debug_str:0000000000029692 .LASF2790
C:\Users\CYMR90~1\AppData\Local\Temp\ccNmN5zT.s:24061  .debug_str:000000000000efff .LASF2791
C:\Users\CYMR90~1\AppData\Local\Temp\ccNmN5zT.s:28702  .debug_str:0000000000021a67 .LASF2792
C:\Users\CYMR90~1\AppData\Local\Temp\ccNmN5zT.s:25211  .debug_str:0000000000013aa4 .LASF2793
C:\Users\CYMR90~1\AppData\Local\Temp\ccNmN5zT.s:20757  .debug_str:0000000000001ce1 .LASF2794
C:\Users\CYMR90~1\AppData\Local\Temp\ccNmN5zT.s:25465  .debug_str:0000000000014a2e .LASF2795
C:\Users\CYMR90~1\AppData\Local\Temp\ccNmN5zT.s:30178  .debug_str:00000000000277cd .LASF2796
C:\Users\CYMR90~1\AppData\Local\Temp\ccNmN5zT.s:23593  .debug_str:000000000000d38d .LASF2797
C:\Users\CYMR90~1\AppData\Local\Temp\ccNmN5zT.s:28234  .debug_str:000000000001fd62 .LASF2798
C:\Users\CYMR90~1\AppData\Local\Temp\ccNmN5zT.s:23215  .debug_str:000000000000ba6f .LASF2799
C:\Users\CYMR90~1\AppData\Local\Temp\ccNmN5zT.s:27866  .debug_str:000000000001e70c .LASF2800
C:\Users\CYMR90~1\AppData\Local\Temp\ccNmN5zT.s:21269  .debug_str:0000000000003c85 .LASF2801
C:\Users\CYMR90~1\AppData\Local\Temp\ccNmN5zT.s:25983  .debug_str:0000000000016bed .LASF2802
C:\Users\CYMR90~1\AppData\Local\Temp\ccNmN5zT.s:22601  .debug_str:000000000000922e .LASF2803
C:\Users\CYMR90~1\AppData\Local\Temp\ccNmN5zT.s:29340  .debug_str:000000000002400f .LASF2804
C:\Users\CYMR90~1\AppData\Local\Temp\ccNmN5zT.s:20767  .debug_str:0000000000001d80 .LASF2805
C:\Users\CYMR90~1\AppData\Local\Temp\ccNmN5zT.s:24025  .debug_str:000000000000ee18 .LASF2806
C:\Users\CYMR90~1\AppData\Local\Temp\ccNmN5zT.s:30136  .debug_str:0000000000027582 .LASF2807
C:\Users\CYMR90~1\AppData\Local\Temp\ccNmN5zT.s:30422  .debug_str:0000000000028931 .LASF2808
C:\Users\CYMR90~1\AppData\Local\Temp\ccNmN5zT.s:22221  .debug_str:00000000000078f1 .LASF2809
C:\Users\CYMR90~1\AppData\Local\Temp\ccNmN5zT.s:25437  .debug_str:000000000001488a .LASF2810
C:\Users\CYMR90~1\AppData\Local\Temp\ccNmN5zT.s:22767  .debug_str:0000000000009c7e .LASF2811
C:\Users\CYMR90~1\AppData\Local\Temp\ccNmN5zT.s:20539  .debug_str:0000000000000fb4 .LASF2812
C:\Users\CYMR90~1\AppData\Local\Temp\ccNmN5zT.s:23785  .debug_str:000000000000df9c .LASF2813
C:\Users\CYMR90~1\AppData\Local\Temp\ccNmN5zT.s:22317  .debug_str:0000000000007fd7 .LASF2814
C:\Users\CYMR90~1\AppData\Local\Temp\ccNmN5zT.s:26276  .debug_str:0000000000017f9e .LASF2815
C:\Users\CYMR90~1\AppData\Local\Temp\ccNmN5zT.s:31008  .debug_str:000000000002abf8 .LASF2816
C:\Users\CYMR90~1\AppData\Local\Temp\ccNmN5zT.s:24401  .debug_str:000000000001051f .LASF2817
C:\Users\CYMR90~1\AppData\Local\Temp\ccNmN5zT.s:29066  .debug_str:0000000000023027 .LASF2818
C:\Users\CYMR90~1\AppData\Local\Temp\ccNmN5zT.s:29680  .debug_str:000000000002585b .LASF2819
C:\Users\CYMR90~1\AppData\Local\Temp\ccNmN5zT.s:27166  .debug_str:000000000001b9d7 .LASF2820
C:\Users\CYMR90~1\AppData\Local\Temp\ccNmN5zT.s:24581  .debug_str:00000000000110b6 .LASF2821
C:\Users\CYMR90~1\AppData\Local\Temp\ccNmN5zT.s:30872  .debug_str:000000000002a37a .LASF2822
C:\Users\CYMR90~1\AppData\Local\Temp\ccNmN5zT.s:26794  .debug_str:000000000001a13b .LASF2823
C:\Users\CYMR90~1\AppData\Local\Temp\ccNmN5zT.s:22417  .debug_str:00000000000086a0 .LASF2824
C:\Users\CYMR90~1\AppData\Local\Temp\ccNmN5zT.s:23387  .debug_str:000000000000c5c6 .LASF2825
C:\Users\CYMR90~1\AppData\Local\Temp\ccNmN5zT.s:30890  .debug_str:000000000002a496 .LASF2826
C:\Users\CYMR90~1\AppData\Local\Temp\ccNmN5zT.s:21179  .debug_str:00000000000036b7 .LASF2827
C:\Users\CYMR90~1\AppData\Local\Temp\ccNmN5zT.s:26116  .debug_str:0000000000017558 .LASF2828
C:\Users\CYMR90~1\AppData\Local\Temp\ccNmN5zT.s:21541  .debug_str:0000000000004edd .LASF2829
C:\Users\CYMR90~1\AppData\Local\Temp\ccNmN5zT.s:24925  .debug_str:0000000000012790 .LASF2830
C:\Users\CYMR90~1\AppData\Local\Temp\ccNmN5zT.s:21587  .debug_str:0000000000005193 .LASF2831
C:\Users\CYMR90~1\AppData\Local\Temp\ccNmN5zT.s:28398  .debug_str:00000000000207cf .LASF2832
C:\Users\CYMR90~1\AppData\Local\Temp\ccNmN5zT.s:25197  .debug_str:00000000000139d1 .LASF2833
C:\Users\CYMR90~1\AppData\Local\Temp\ccNmN5zT.s:23993  .debug_str:000000000000ec61 .LASF2834
C:\Users\CYMR90~1\AppData\Local\Temp\ccNmN5zT.s:23045  .debug_str:000000000000aebd .LASF2835
C:\Users\CYMR90~1\AppData\Local\Temp\ccNmN5zT.s:20599  .debug_str:00000000000012ee .LASF2836
C:\Users\CYMR90~1\AppData\Local\Temp\ccNmN5zT.s:23423  .debug_str:000000000000c80f .LASF2837
C:\Users\CYMR90~1\AppData\Local\Temp\ccNmN5zT.s:25205  .debug_str:0000000000013a48 .LASF2838
C:\Users\CYMR90~1\AppData\Local\Temp\ccNmN5zT.s:28394  .debug_str:00000000000207a0 .LASF2839
C:\Users\CYMR90~1\AppData\Local\Temp\ccNmN5zT.s:20323  .debug_str:0000000000000212 .LASF2840
C:\Users\CYMR90~1\AppData\Local\Temp\ccNmN5zT.s:23555  .debug_str:000000000000d0dc .LASF2841
C:\Users\CYMR90~1\AppData\Local\Temp\ccNmN5zT.s:26742  .debug_str:0000000000019e54 .LASF2842
C:\Users\CYMR90~1\AppData\Local\Temp\ccNmN5zT.s:20517  .debug_str:0000000000000dfe .LASF2843
C:\Users\CYMR90~1\AppData\Local\Temp\ccNmN5zT.s:30202  .debug_str:000000000002792f .LASF2844
C:\Users\CYMR90~1\AppData\Local\Temp\ccNmN5zT.s:28550  .debug_str:00000000000210c0 .LASF2845
C:\Users\CYMR90~1\AppData\Local\Temp\ccNmN5zT.s:26982  .debug_str:000000000001ae60 .LASF2846
C:\Users\CYMR90~1\AppData\Local\Temp\ccNmN5zT.s:31416  .debug_str:000000000002c64b .LASF2847
C:\Users\CYMR90~1\AppData\Local\Temp\ccNmN5zT.s:20631  .debug_str:00000000000014b2 .LASF2848
C:\Users\CYMR90~1\AppData\Local\Temp\ccNmN5zT.s:25343  .debug_str:00000000000142e4 .LASF2849
C:\Users\CYMR90~1\AppData\Local\Temp\ccNmN5zT.s:30046  .debug_str:0000000000026f54 .LASF2850
C:\Users\CYMR90~1\AppData\Local\Temp\ccNmN5zT.s:31090  .debug_str:000000000002b0a3 .LASF2851
C:\Users\CYMR90~1\AppData\Local\Temp\ccNmN5zT.s:27304  .debug_str:000000000001c293 .LASF2852
C:\Users\CYMR90~1\AppData\Local\Temp\ccNmN5zT.s:23601  .debug_str:000000000000d3e5 .LASF2853
C:\Users\CYMR90~1\AppData\Local\Temp\ccNmN5zT.s:28854  .debug_str:000000000002238c .LASF2854
C:\Users\CYMR90~1\AppData\Local\Temp\ccNmN5zT.s:20749  .debug_str:0000000000001c6d .LASF2855
C:\Users\CYMR90~1\AppData\Local\Temp\ccNmN5zT.s:24009  .debug_str:000000000000ed48 .LASF2856
C:\Users\CYMR90~1\AppData\Local\Temp\ccNmN5zT.s:27188  .debug_str:000000000001bafb .LASF2857
C:\Users\CYMR90~1\AppData\Local\Temp\ccNmN5zT.s:30316  .debug_str:000000000002813d .LASF2858
C:\Users\CYMR90~1\AppData\Local\Temp\ccNmN5zT.s:23931  .debug_str:000000000000e87e .LASF2859
C:\Users\CYMR90~1\AppData\Local\Temp\ccNmN5zT.s:25423  .debug_str:00000000000147cf .LASF2860
C:\Users\CYMR90~1\AppData\Local\Temp\ccNmN5zT.s:25459  .debug_str:00000000000149e9 .LASF2861
C:\Users\CYMR90~1\AppData\Local\Temp\ccNmN5zT.s:20531  .debug_str:0000000000000f55 .LASF2862
C:\Users\CYMR90~1\AppData\Local\Temp\ccNmN5zT.s:20673  .debug_str:00000000000017cb .LASF2863
C:\Users\CYMR90~1\AppData\Local\Temp\ccNmN5zT.s:25991  .debug_str:0000000000016c67 .LASF2864
C:\Users\CYMR90~1\AppData\Local\Temp\ccNmN5zT.s:28852  .debug_str:0000000000022377 .LASF2865
C:\Users\CYMR90~1\AppData\Local\Temp\ccNmN5zT.s:24107  .debug_str:000000000000f2cb .LASF2866
C:\Users\CYMR90~1\AppData\Local\Temp\ccNmN5zT.s:28752  .debug_str:0000000000021dc0 .LASF2867
C:\Users\CYMR90~1\AppData\Local\Temp\ccNmN5zT.s:28922  .debug_str:0000000000022772 .LASF2868
C:\Users\CYMR90~1\AppData\Local\Temp\ccNmN5zT.s:26896  .debug_str:000000000001a93b .LASF2869
C:\Users\CYMR90~1\AppData\Local\Temp\ccNmN5zT.s:26144  .debug_str:000000000001771d .LASF2870
C:\Users\CYMR90~1\AppData\Local\Temp\ccNmN5zT.s:23875  .debug_str:000000000000e4bd .LASF2871
C:\Users\CYMR90~1\AppData\Local\Temp\ccNmN5zT.s:25049  .debug_str:0000000000012fbc .LASF2872
C:\Users\CYMR90~1\AppData\Local\Temp\ccNmN5zT.s:25013  .debug_str:0000000000012d63 .LASF2873
C:\Users\CYMR90~1\AppData\Local\Temp\ccNmN5zT.s:21089  .debug_str:000000000000312a .LASF2874
C:\Users\CYMR90~1\AppData\Local\Temp\ccNmN5zT.s:20971  .debug_str:0000000000002994 .LASF2875
C:\Users\CYMR90~1\AppData\Local\Temp\ccNmN5zT.s:28512  .debug_str:0000000000020ec9 .LASF2876
C:\Users\CYMR90~1\AppData\Local\Temp\ccNmN5zT.s:29514  .debug_str:0000000000024c52 .LASF2877
C:\Users\CYMR90~1\AppData\Local\Temp\ccNmN5zT.s:29194  .debug_str:00000000000237c0 .LASF2878
C:\Users\CYMR90~1\AppData\Local\Temp\ccNmN5zT.s:23105  .debug_str:000000000000b2ff .LASF2879
C:\Users\CYMR90~1\AppData\Local\Temp\ccNmN5zT.s:26278  .debug_str:0000000000017fb5 .LASF2880
C:\Users\CYMR90~1\AppData\Local\Temp\ccNmN5zT.s:29492  .debug_str:0000000000024ace .LASF2881
C:\Users\CYMR90~1\AppData\Local\Temp\ccNmN5zT.s:21385  .debug_str:000000000000445d .LASF2882
C:\Users\CYMR90~1\AppData\Local\Temp\ccNmN5zT.s:24551  .debug_str:0000000000010f11 .LASF2883
C:\Users\CYMR90~1\AppData\Local\Temp\ccNmN5zT.s:27706  .debug_str:000000000001dd29 .LASF2884
C:\Users\CYMR90~1\AppData\Local\Temp\ccNmN5zT.s:31518  .debug_str:000000000002ccaf .LASF2885
C:\Users\CYMR90~1\AppData\Local\Temp\ccNmN5zT.s:22867  .debug_str:000000000000a2cb .LASF2886
C:\Users\CYMR90~1\AppData\Local\Temp\ccNmN5zT.s:26060  .debug_str:000000000001722f .LASF2887
C:\Users\CYMR90~1\AppData\Local\Temp\ccNmN5zT.s:29260  .debug_str:0000000000023bbb .LASF2888
C:\Users\CYMR90~1\AppData\Local\Temp\ccNmN5zT.s:27436  .debug_str:000000000001cb14 .LASF2889
C:\Users\CYMR90~1\AppData\Local\Temp\ccNmN5zT.s:20815  .debug_str:000000000000203e .LASF2890
C:\Users\CYMR90~1\AppData\Local\Temp\ccNmN5zT.s:25521  .debug_str:0000000000014df5 .LASF2891
C:\Users\CYMR90~1\AppData\Local\Temp\ccNmN5zT.s:30236  .debug_str:0000000000027b9b .LASF2892
C:\Users\CYMR90~1\AppData\Local\Temp\ccNmN5zT.s:23651  .debug_str:000000000000d7af .LASF2893
C:\Users\CYMR90~1\AppData\Local\Temp\ccNmN5zT.s:28298  .debug_str:000000000002018d .LASF2894
C:\Users\CYMR90~1\AppData\Local\Temp\ccNmN5zT.s:30914  .debug_str:000000000002a659 .LASF2895
C:\Users\CYMR90~1\AppData\Local\Temp\ccNmN5zT.s:31126  .debug_str:000000000002b307 .LASF2896
C:\Users\CYMR90~1\AppData\Local\Temp\ccNmN5zT.s:26932  .debug_str:000000000001ab3a .LASF2897
C:\Users\CYMR90~1\AppData\Local\Temp\ccNmN5zT.s:22119  .debug_str:00000000000072a4 .LASF2898
C:\Users\CYMR90~1\AppData\Local\Temp\ccNmN5zT.s:22425  .debug_str:0000000000008718 .LASF2899
C:\Users\CYMR90~1\AppData\Local\Temp\ccNmN5zT.s:26338  .debug_str:0000000000018322 .LASF2900
C:\Users\CYMR90~1\AppData\Local\Temp\ccNmN5zT.s:31224  .debug_str:000000000002b9a4 .LASF2901
C:\Users\CYMR90~1\AppData\Local\Temp\ccNmN5zT.s:24791  .debug_str:0000000000011ec8 .LASF2902
C:\Users\CYMR90~1\AppData\Local\Temp\ccNmN5zT.s:25619  .debug_str:0000000000015439 .LASF2903
C:\Users\CYMR90~1\AppData\Local\Temp\ccNmN5zT.s:21819  .debug_str:0000000000005f50 .LASF2904
C:\Users\CYMR90~1\AppData\Local\Temp\ccNmN5zT.s:28538  .debug_str:000000000002102d .LASF2905
C:\Users\CYMR90~1\AppData\Local\Temp\ccNmN5zT.s:29926  .debug_str:000000000002680e .LASF2906
C:\Users\CYMR90~1\AppData\Local\Temp\ccNmN5zT.s:31328  .debug_str:000000000002c084 .LASF2907
C:\Users\CYMR90~1\AppData\Local\Temp\ccNmN5zT.s:21343  .debug_str:00000000000041b9 .LASF2908
C:\Users\CYMR90~1\AppData\Local\Temp\ccNmN5zT.s:25057  .debug_str:000000000001304a .LASF2909
C:\Users\CYMR90~1\AppData\Local\Temp\ccNmN5zT.s:30426  .debug_str:000000000002895f .LASF2910
C:\Users\CYMR90~1\AppData\Local\Temp\ccNmN5zT.s:28362  .debug_str:000000000002054d .LASF2911
C:\Users\CYMR90~1\AppData\Local\Temp\ccNmN5zT.s:27262  .debug_str:000000000001bfd1 .LASF2912
C:\Users\CYMR90~1\AppData\Local\Temp\ccNmN5zT.s:26840  .debug_str:000000000001a577 .LASF2913
C:\Users\CYMR90~1\AppData\Local\Temp\ccNmN5zT.s:26760  .debug_str:0000000000019f33 .LASF2914
C:\Users\CYMR90~1\AppData\Local\Temp\ccNmN5zT.s:28962  .debug_str:00000000000229df .LASF2915
C:\Users\CYMR90~1\AppData\Local\Temp\ccNmN5zT.s:27258  .debug_str:000000000001bfa4 .LASF2916
C:\Users\CYMR90~1\AppData\Local\Temp\ccNmN5zT.s:26402  .debug_str:0000000000018744 .LASF2917
C:\Users\CYMR90~1\AppData\Local\Temp\ccNmN5zT.s:27784  .debug_str:000000000001e271 .LASF2918
C:\Users\CYMR90~1\AppData\Local\Temp\ccNmN5zT.s:24991  .debug_str:0000000000012bf7 .LASF2919
C:\Users\CYMR90~1\AppData\Local\Temp\ccNmN5zT.s:23735  .debug_str:000000000000dc46 .LASF2920
C:\Users\CYMR90~1\AppData\Local\Temp\ccNmN5zT.s:22861  .debug_str:000000000000a268 .LASF2921
C:\Users\CYMR90~1\AppData\Local\Temp\ccNmN5zT.s:21959  .debug_str:00000000000067b9 .LASF2922
C:\Users\CYMR90~1\AppData\Local\Temp\ccNmN5zT.s:21093  .debug_str:0000000000003160 .LASF2923
C:\Users\CYMR90~1\AppData\Local\Temp\ccNmN5zT.s:31562  .debug_str:000000000002cf91 .LASF2924
C:\Users\CYMR90~1\AppData\Local\Temp\ccNmN5zT.s:30688  .debug_str:000000000002991c .LASF2925
C:\Users\CYMR90~1\AppData\Local\Temp\ccNmN5zT.s:29420  .debug_str:0000000000024603 .LASF2926
C:\Users\CYMR90~1\AppData\Local\Temp\ccNmN5zT.s:21307  .debug_str:0000000000003f31 .LASF2927
C:\Users\CYMR90~1\AppData\Local\Temp\ccNmN5zT.s:24567  .debug_str:0000000000010fe8 .LASF2928
C:\Users\CYMR90~1\AppData\Local\Temp\ccNmN5zT.s:27724  .debug_str:000000000001debf .LASF2929
C:\Users\CYMR90~1\AppData\Local\Temp\ccNmN5zT.s:30978  .debug_str:000000000002aa0e .LASF2930
C:\Users\CYMR90~1\AppData\Local\Temp\ccNmN5zT.s:22881  .debug_str:000000000000a3d6 .LASF2931
C:\Users\CYMR90~1\AppData\Local\Temp\ccNmN5zT.s:29046  .debug_str:0000000000022f09 .LASF2932
C:\Users\CYMR90~1\AppData\Local\Temp\ccNmN5zT.s:31520  .debug_str:000000000002ccc1 .LASF2933
C:\Users\CYMR90~1\AppData\Local\Temp\ccNmN5zT.s:24817  .debug_str:0000000000012092 .LASF2934
C:\Users\CYMR90~1\AppData\Local\Temp\ccNmN5zT.s:25677  .debug_str:0000000000015778 .LASF2935
C:\Users\CYMR90~1\AppData\Local\Temp\ccNmN5zT.s:20901  .debug_str:00000000000024e8 .LASF2936
C:\Users\CYMR90~1\AppData\Local\Temp\ccNmN5zT.s:27506  .debug_str:000000000001d0b7 .LASF2937
C:\Users\CYMR90~1\AppData\Local\Temp\ccNmN5zT.s:26900  .debug_str:000000000001a969 .LASF2938
C:\Users\CYMR90~1\AppData\Local\Temp\ccNmN5zT.s:26938  .debug_str:000000000001abc5 .LASF2939
C:\Users\CYMR90~1\AppData\Local\Temp\ccNmN5zT.s:25899  .debug_str:0000000000016560 .LASF2940
C:\Users\CYMR90~1\AppData\Local\Temp\ccNmN5zT.s:23171  .debug_str:000000000000b77d .LASF2941
C:\Users\CYMR90~1\AppData\Local\Temp\ccNmN5zT.s:25293  .debug_str:0000000000013f92 .LASF2942
C:\Users\CYMR90~1\AppData\Local\Temp\ccNmN5zT.s:29844  .debug_str:00000000000262f5 .LASF2943
C:\Users\CYMR90~1\AppData\Local\Temp\ccNmN5zT.s:27096  .debug_str:000000000001b5cb .LASF2944
C:\Users\CYMR90~1\AppData\Local\Temp\ccNmN5zT.s:21803  .debug_str:0000000000005e61 .LASF2945
C:\Users\CYMR90~1\AppData\Local\Temp\ccNmN5zT.s:23733  .debug_str:000000000000dc24 .LASF2946
C:\Users\CYMR90~1\AppData\Local\Temp\ccNmN5zT.s:25601  .debug_str:0000000000015343 .LASF2947
C:\Users\CYMR90~1\AppData\Local\Temp\ccNmN5zT.s:30212  .debug_str:00000000000279e2 .LASF2948
C:\Users\CYMR90~1\AppData\Local\Temp\ccNmN5zT.s:23301  .debug_str:000000000000c07b .LASF2949
C:\Users\CYMR90~1\AppData\Local\Temp\ccNmN5zT.s:23857  .debug_str:000000000000e3ce .LASF2950
C:\Users\CYMR90~1\AppData\Local\Temp\ccNmN5zT.s:27828  .debug_str:000000000001e4f5 .LASF2951
C:\Users\CYMR90~1\AppData\Local\Temp\ccNmN5zT.s:21563  .debug_str:0000000000005028 .LASF2952
C:\Users\CYMR90~1\AppData\Local\Temp\ccNmN5zT.s:31084  .debug_str:000000000002b04a .LASF2953
C:\Users\CYMR90~1\AppData\Local\Temp\ccNmN5zT.s:29276  .debug_str:0000000000023cb0 .LASF2954
C:\Users\CYMR90~1\AppData\Local\Temp\ccNmN5zT.s:30082  .debug_str:000000000002714e .LASF2955
C:\Users\CYMR90~1\AppData\Local\Temp\ccNmN5zT.s:22001  .debug_str:0000000000006a3a .LASF2956
C:\Users\CYMR90~1\AppData\Local\Temp\ccNmN5zT.s:31594  .debug_str:000000000002d195 .LASF2957
C:\Users\CYMR90~1\AppData\Local\Temp\ccNmN5zT.s:21065  .debug_str:0000000000002f9c .LASF2958
C:\Users\CYMR90~1\AppData\Local\Temp\ccNmN5zT.s:20793  .debug_str:0000000000001f1f .LASF2959
C:\Users\CYMR90~1\AppData\Local\Temp\ccNmN5zT.s:27856  .debug_str:000000000001e6a0 .LASF2960
C:\Users\CYMR90~1\AppData\Local\Temp\ccNmN5zT.s:21043  .debug_str:0000000000002e3c .LASF2961
C:\Users\CYMR90~1\AppData\Local\Temp\ccNmN5zT.s:20343  .debug_str:000000000000034f .LASF2962
C:\Users\CYMR90~1\AppData\Local\Temp\ccNmN5zT.s:31374  .debug_str:000000000002c319 .LASF2963
C:\Users\CYMR90~1\AppData\Local\Temp\ccNmN5zT.s:29982  .debug_str:0000000000026b5e .LASF2964
C:\Users\CYMR90~1\AppData\Local\Temp\ccNmN5zT.s:21789  .debug_str:0000000000005d9c .LASF2965
C:\Users\CYMR90~1\AppData\Local\Temp\ccNmN5zT.s:31056  .debug_str:000000000002aec2 .LASF2966
C:\Users\CYMR90~1\AppData\Local\Temp\ccNmN5zT.s:27422  .debug_str:000000000001ca53 .LASF2967
C:\Users\CYMR90~1\AppData\Local\Temp\ccNmN5zT.s:28412  .debug_str:00000000000208cb .LASF2968
C:\Users\CYMR90~1\AppData\Local\Temp\ccNmN5zT.s:24227  .debug_str:000000000000fa9b .LASF2969
C:\Users\CYMR90~1\AppData\Local\Temp\ccNmN5zT.s:23371  .debug_str:000000000000c4c4 .LASF2970
C:\Users\CYMR90~1\AppData\Local\Temp\ccNmN5zT.s:27154  .debug_str:000000000001b953 .LASF2971
C:\Users\CYMR90~1\AppData\Local\Temp\ccNmN5zT.s:30386  .debug_str:0000000000028688 .LASF2972
C:\Users\CYMR90~1\AppData\Local\Temp\ccNmN5zT.s:28812  .debug_str:0000000000022121 .LASF2973
C:\Users\CYMR90~1\AppData\Local\Temp\ccNmN5zT.s:29738  .debug_str:0000000000025c54 .LASF2974
C:\Users\CYMR90~1\AppData\Local\Temp\ccNmN5zT.s:21395  .debug_str:0000000000004504 .LASF2975
C:\Users\CYMR90~1\AppData\Local\Temp\ccNmN5zT.s:26242  .debug_str:0000000000017d5b .LASF2976
C:\Users\CYMR90~1\AppData\Local\Temp\ccNmN5zT.s:28716  .debug_str:0000000000021b7e .LASF2977
C:\Users\CYMR90~1\AppData\Local\Temp\ccNmN5zT.s:22273  .debug_str:0000000000007c4e .LASF2978
C:\Users\CYMR90~1\AppData\Local\Temp\ccNmN5zT.s:27600  .debug_str:000000000001d62d .LASF2979
C:\Users\CYMR90~1\AppData\Local\Temp\ccNmN5zT.s:23675  .debug_str:000000000000d8f1 .LASF2980
C:\Users\CYMR90~1\AppData\Local\Temp\ccNmN5zT.s:31148  .debug_str:000000000002b495 .LASF2981
C:\Users\CYMR90~1\AppData\Local\Temp\ccNmN5zT.s:26272  .debug_str:0000000000017f4c .LASF2982
C:\Users\CYMR90~1\AppData\Local\Temp\ccNmN5zT.s:21267  .debug_str:0000000000003c62 .LASF2983
C:\Users\CYMR90~1\AppData\Local\Temp\ccNmN5zT.s:26502  .debug_str:0000000000018dfa .LASF2984
C:\Users\CYMR90~1\AppData\Local\Temp\ccNmN5zT.s:20315  .debug_str:0000000000000180 .LASF2985
C:\Users\CYMR90~1\AppData\Local\Temp\ccNmN5zT.s:24051  .debug_str:000000000000ef58 .LASF2986
C:\Users\CYMR90~1\AppData\Local\Temp\ccNmN5zT.s:25503  .debug_str:0000000000014c9e .LASF2987
C:\Users\CYMR90~1\AppData\Local\Temp\ccNmN5zT.s:25405  .debug_str:00000000000146a6 .LASF2988
C:\Users\CYMR90~1\AppData\Local\Temp\ccNmN5zT.s:24077  .debug_str:000000000000f0d6 .LASF2989
C:\Users\CYMR90~1\AppData\Local\Temp\ccNmN5zT.s:23759  .debug_str:000000000000ddc1 .LASF2990
C:\Users\CYMR90~1\AppData\Local\Temp\ccNmN5zT.s:29212  .debug_str:00000000000238fa .LASF2991
C:\Users\CYMR90~1\AppData\Local\Temp\ccNmN5zT.s:26090  .debug_str:00000000000173e6 .LASF2992
C:\Users\CYMR90~1\AppData\Local\Temp\ccNmN5zT.s:25193  .debug_str:0000000000013987 .LASF2993
C:\Users\CYMR90~1\AppData\Local\Temp\ccNmN5zT.s:22493  .debug_str:0000000000008b90 .LASF2994
C:\Users\CYMR90~1\AppData\Local\Temp\ccNmN5zT.s:30900  .debug_str:000000000002a54e .LASF2995
C:\Users\CYMR90~1\AppData\Local\Temp\ccNmN5zT.s:25501  .debug_str:0000000000014c80 .LASF2996
C:\Users\CYMR90~1\AppData\Local\Temp\ccNmN5zT.s:25591  .debug_str:000000000001527e .LASF2997
C:\Users\CYMR90~1\AppData\Local\Temp\ccNmN5zT.s:21637  .debug_str:000000000000548d .LASF2998
C:\Users\CYMR90~1\AppData\Local\Temp\ccNmN5zT.s:25773  .debug_str:0000000000015d8b .LASF2999
C:\Users\CYMR90~1\AppData\Local\Temp\ccNmN5zT.s:28942  .debug_str:00000000000228c6 .LASF3000
C:\Users\CYMR90~1\AppData\Local\Temp\ccNmN5zT.s:24421  .debug_str:0000000000010640 .LASF3001
C:\Users\CYMR90~1\AppData\Local\Temp\ccNmN5zT.s:25751  .debug_str:0000000000015be7 .LASF3002
C:\Users\CYMR90~1\AppData\Local\Temp\ccNmN5zT.s:20443  .debug_str:0000000000000946 .LASF3003
C:\Users\CYMR90~1\AppData\Local\Temp\ccNmN5zT.s:28406  .debug_str:000000000002084c .LASF3004
C:\Users\CYMR90~1\AppData\Local\Temp\ccNmN5zT.s:31438  .debug_str:000000000002c75e .LASF3005
C:\Users\CYMR90~1\AppData\Local\Temp\ccNmN5zT.s:29336  .debug_str:0000000000023fc4 .LASF3006
C:\Users\CYMR90~1\AppData\Local\Temp\ccNmN5zT.s:28712  .debug_str:0000000000021b2b .LASF3007
C:\Users\CYMR90~1\AppData\Local\Temp\ccNmN5zT.s:21595  .debug_str:0000000000005202 .LASF3008
C:\Users\CYMR90~1\AppData\Local\Temp\ccNmN5zT.s:31568  .debug_str:000000000002cfdf .LASF3009
C:\Users\CYMR90~1\AppData\Local\Temp\ccNmN5zT.s:23949  .debug_str:000000000000e971 .LASF3010
C:\Users\CYMR90~1\AppData\Local\Temp\ccNmN5zT.s:27274  .debug_str:000000000001c09f .LASF3011
C:\Users\CYMR90~1\AppData\Local\Temp\ccNmN5zT.s:20629  .debug_str:000000000000149b .LASF3012
C:\Users\CYMR90~1\AppData\Local\Temp\ccNmN5zT.s:24545  .debug_str:0000000000010ebd .LASF3013
C:\Users\CYMR90~1\AppData\Local\Temp\ccNmN5zT.s:23673  .debug_str:000000000000d8d8 .LASF3014
C:\Users\CYMR90~1\AppData\Local\Temp\ccNmN5zT.s:20819  .debug_str:000000000000206a .LASF3015
C:\Users\CYMR90~1\AppData\Local\Temp\ccNmN5zT.s:27964  .debug_str:000000000001ed12 .LASF3016
C:\Users\CYMR90~1\AppData\Local\Temp\ccNmN5zT.s:23323  .debug_str:000000000000c1ef .LASF3017
C:\Users\CYMR90~1\AppData\Local\Temp\ccNmN5zT.s:22105  .debug_str:00000000000071ae .LASF3018
C:\Users\CYMR90~1\AppData\Local\Temp\ccNmN5zT.s:26428  .debug_str:00000000000188b4 .LASF3019
C:\Users\CYMR90~1\AppData\Local\Temp\ccNmN5zT.s:24273  .debug_str:000000000000fd7e .LASF3020
C:\Users\CYMR90~1\AppData\Local\Temp\ccNmN5zT.s:21051  .debug_str:0000000000002ebe .LASF3021
C:\Users\CYMR90~1\AppData\Local\Temp\ccNmN5zT.s:23385  .debug_str:000000000000c5b2 .LASF3022
C:\Users\CYMR90~1\AppData\Local\Temp\ccNmN5zT.s:23881  .debug_str:000000000000e51f .LASF3023
C:\Users\CYMR90~1\AppData\Local\Temp\ccNmN5zT.s:31178  .debug_str:000000000002b697 .LASF3024
C:\Users\CYMR90~1\AppData\Local\Temp\ccNmN5zT.s:22075  .debug_str:0000000000006f15 .LASF3025
C:\Users\CYMR90~1\AppData\Local\Temp\ccNmN5zT.s:28294  .debug_str:000000000002014e .LASF3026
C:\Users\CYMR90~1\AppData\Local\Temp\ccNmN5zT.s:24261  .debug_str:000000000000fcab .LASF3027
C:\Users\CYMR90~1\AppData\Local\Temp\ccNmN5zT.s:26102  .debug_str:00000000000174a6 .LASF3028
C:\Users\CYMR90~1\AppData\Local\Temp\ccNmN5zT.s:21549  .debug_str:0000000000004f50 .LASF3029
C:\Users\CYMR90~1\AppData\Local\Temp\ccNmN5zT.s:31106  .debug_str:000000000002b193 .LASF3030
C:\Users\CYMR90~1\AppData\Local\Temp\ccNmN5zT.s:23835  .debug_str:000000000000e25c .LASF3031
C:\Users\CYMR90~1\AppData\Local\Temp\ccNmN5zT.s:22935  .debug_str:000000000000a6c5 .LASF3032
C:\Users\CYMR90~1\AppData\Local\Temp\ccNmN5zT.s:29560  .debug_str:0000000000024f55 .LASF3033
C:\Users\CYMR90~1\AppData\Local\Temp\ccNmN5zT.s:24005  .debug_str:000000000000ed18 .LASF3034
C:\Users\CYMR90~1\AppData\Local\Temp\ccNmN5zT.s:23805  .debug_str:000000000000e0bd .LASF3035
C:\Users\CYMR90~1\AppData\Local\Temp\ccNmN5zT.s:30312  .debug_str:00000000000280f0 .LASF3036
C:\Users\CYMR90~1\AppData\Local\Temp\ccNmN5zT.s:22461  .debug_str:0000000000008981 .LASF3037
C:\Users\CYMR90~1\AppData\Local\Temp\ccNmN5zT.s:31254  .debug_str:000000000002bb9b .LASF3038
C:\Users\CYMR90~1\AppData\Local\Temp\ccNmN5zT.s:30406  .debug_str:0000000000028807 .LASF3039
C:\Users\CYMR90~1\AppData\Local\Temp\ccNmN5zT.s:20331  .debug_str:0000000000000262 .LASF3040
C:\Users\CYMR90~1\AppData\Local\Temp\ccNmN5zT.s:21315  .debug_str:0000000000003fb3 .LASF3041
C:\Users\CYMR90~1\AppData\Local\Temp\ccNmN5zT.s:27328  .debug_str:000000000001c3f6 .LASF3042
C:\Users\CYMR90~1\AppData\Local\Temp\ccNmN5zT.s:27134  .debug_str:000000000001b81f .LASF3043
C:\Users\CYMR90~1\AppData\Local\Temp\ccNmN5zT.s:29576  .debug_str:0000000000025041 .LASF3044
C:\Users\CYMR90~1\AppData\Local\Temp\ccNmN5zT.s:23679  .debug_str:000000000000d935 .LASF3045
C:\Users\CYMR90~1\AppData\Local\Temp\ccNmN5zT.s:26748  .debug_str:0000000000019ea0 .LASF3046
C:\Users\CYMR90~1\AppData\Local\Temp\ccNmN5zT.s:20569  .debug_str:0000000000001173 .LASF3047
C:\Users\CYMR90~1\AppData\Local\Temp\ccNmN5zT.s:24049  .debug_str:000000000000ef3e .LASF3048
C:\Users\CYMR90~1\AppData\Local\Temp\ccNmN5zT.s:27332  .debug_str:000000000001c425 .LASF3049
C:\Users\CYMR90~1\AppData\Local\Temp\ccNmN5zT.s:30692  .debug_str:000000000002993b .LASF3050
C:\Users\CYMR90~1\AppData\Local\Temp\ccNmN5zT.s:20705  .debug_str:00000000000019ba .LASF3051
C:\Users\CYMR90~1\AppData\Local\Temp\ccNmN5zT.s:22787  .debug_str:0000000000009db5 .LASF3052
C:\Users\CYMR90~1\AppData\Local\Temp\ccNmN5zT.s:30112  .debug_str:00000000000273f9 .LASF3053
C:\Users\CYMR90~1\AppData\Local\Temp\ccNmN5zT.s:22349  .debug_str:000000000000828f .LASF3054
C:\Users\CYMR90~1\AppData\Local\Temp\ccNmN5zT.s:23841  .debug_str:000000000000e2d5 .LASF3055
C:\Users\CYMR90~1\AppData\Local\Temp\ccNmN5zT.s:29338  .debug_str:0000000000023ff0 .LASF3056
C:\Users\CYMR90~1\AppData\Local\Temp\ccNmN5zT.s:26678  .debug_str:0000000000019a23 .LASF3057
C:\Users\CYMR90~1\AppData\Local\Temp\ccNmN5zT.s:22739  .debug_str:0000000000009aec .LASF3058
C:\Users\CYMR90~1\AppData\Local\Temp\ccNmN5zT.s:28082  .debug_str:000000000001f456 .LASF3059
C:\Users\CYMR90~1\AppData\Local\Temp\ccNmN5zT.s:22321  .debug_str:000000000000801c .LASF3060
C:\Users\CYMR90~1\AppData\Local\Temp\ccNmN5zT.s:30298  .debug_str:0000000000027fc7 .LASF3061
C:\Users\CYMR90~1\AppData\Local\Temp\ccNmN5zT.s:29962  .debug_str:0000000000026a21 .LASF3062
C:\Users\CYMR90~1\AppData\Local\Temp\ccNmN5zT.s:24639  .debug_str:0000000000011430 .LASF3063
C:\Users\CYMR90~1\AppData\Local\Temp\ccNmN5zT.s:29468  .debug_str:0000000000024994 .LASF3064
C:\Users\CYMR90~1\AppData\Local\Temp\ccNmN5zT.s:28540  .debug_str:000000000002104d .LASF3065
C:\Users\CYMR90~1\AppData\Local\Temp\ccNmN5zT.s:24531  .debug_str:0000000000010e0b .LASF3066
C:\Users\CYMR90~1\AppData\Local\Temp\ccNmN5zT.s:30052  .debug_str:0000000000026fbc .LASF3067
C:\Users\CYMR90~1\AppData\Local\Temp\ccNmN5zT.s:29216  .debug_str:0000000000023937 .LASF3068
C:\Users\CYMR90~1\AppData\Local\Temp\ccNmN5zT.s:26050  .debug_str:00000000000171ad .LASF3069
C:\Users\CYMR90~1\AppData\Local\Temp\ccNmN5zT.s:25791  .debug_str:0000000000015ede .LASF3070
C:\Users\CYMR90~1\AppData\Local\Temp\ccNmN5zT.s:28038  .debug_str:000000000001f1ae .LASF3071
C:\Users\CYMR90~1\AppData\Local\Temp\ccNmN5zT.s:24491  .debug_str:0000000000010b51 .LASF3072
C:\Users\CYMR90~1\AppData\Local\Temp\ccNmN5zT.s:24615  .debug_str:00000000000112e1 .LASF3073
C:\Users\CYMR90~1\AppData\Local\Temp\ccNmN5zT.s:24021  .debug_str:000000000000ede7 .LASF3074
C:\Users\CYMR90~1\AppData\Local\Temp\ccNmN5zT.s:24155  .debug_str:000000000000f5c2 .LASF3075
C:\Users\CYMR90~1\AppData\Local\Temp\ccNmN5zT.s:27772  .debug_str:000000000001e1be .LASF3076
C:\Users\CYMR90~1\AppData\Local\Temp\ccNmN5zT.s:30424  .debug_str:0000000000028946 .LASF3077
C:\Users\CYMR90~1\AppData\Local\Temp\ccNmN5zT.s:25913  .debug_str:00000000000166c4 .LASF3078
C:\Users\CYMR90~1\AppData\Local\Temp\ccNmN5zT.s:29332  .debug_str:0000000000023f95 .LASF3079
C:\Users\CYMR90~1\AppData\Local\Temp\ccNmN5zT.s:20853  .debug_str:0000000000002239 .LASF3080
C:\Users\CYMR90~1\AppData\Local\Temp\ccNmN5zT.s:22097  .debug_str:0000000000007106 .LASF3081
C:\Users\CYMR90~1\AppData\Local\Temp\ccNmN5zT.s:30474  .debug_str:0000000000028c41 .LASF3082
C:\Users\CYMR90~1\AppData\Local\Temp\ccNmN5zT.s:22839  .debug_str:000000000000a106 .LASF3083
C:\Users\CYMR90~1\AppData\Local\Temp\ccNmN5zT.s:25297  .debug_str:0000000000013fc8 .LASF3084
C:\Users\CYMR90~1\AppData\Local\Temp\ccNmN5zT.s:23981  .debug_str:000000000000eb88 .LASF3085
C:\Users\CYMR90~1\AppData\Local\Temp\ccNmN5zT.s:25641  .debug_str:0000000000015589 .LASF3086
C:\Users\CYMR90~1\AppData\Local\Temp\ccNmN5zT.s:28482  .debug_str:0000000000020d1c .LASF3087
C:\Users\CYMR90~1\AppData\Local\Temp\ccNmN5zT.s:26400  .debug_str:00000000000186f5 .LASF3088
C:\Users\CYMR90~1\AppData\Local\Temp\ccNmN5zT.s:28340  .debug_str:00000000000203b3 .LASF3089
C:\Users\CYMR90~1\AppData\Local\Temp\ccNmN5zT.s:30500  .debug_str:0000000000028d87 .LASF3090
C:\Users\CYMR90~1\AppData\Local\Temp\ccNmN5zT.s:28990  .debug_str:0000000000022b8b .LASF3091
C:\Users\CYMR90~1\AppData\Local\Temp\ccNmN5zT.s:23397  .debug_str:000000000000c651 .LASF3092
C:\Users\CYMR90~1\AppData\Local\Temp\ccNmN5zT.s:31386  .debug_str:000000000002c440 .LASF3093
C:\Users\CYMR90~1\AppData\Local\Temp\ccNmN5zT.s:28130  .debug_str:000000000001f71f .LASF3094
C:\Users\CYMR90~1\AppData\Local\Temp\ccNmN5zT.s:30094  .debug_str:0000000000027229 .LASF3095
C:\Users\CYMR90~1\AppData\Local\Temp\ccNmN5zT.s:29832  .debug_str:0000000000026265 .LASF3096
C:\Users\CYMR90~1\AppData\Local\Temp\ccNmN5zT.s:23299  .debug_str:000000000000c053 .LASF3097
C:\Users\CYMR90~1\AppData\Local\Temp\ccNmN5zT.s:25689  .debug_str:0000000000015819 .LASF3098
C:\Users\CYMR90~1\AppData\Local\Temp\ccNmN5zT.s:25593  .debug_str:00000000000152a9 .LASF3099
C:\Users\CYMR90~1\AppData\Local\Temp\ccNmN5zT.s:26492  .debug_str:0000000000018d78 .LASF3100
C:\Users\CYMR90~1\AppData\Local\Temp\ccNmN5zT.s:28166  .debug_str:000000000001f945 .LASF3101
C:\Users\CYMR90~1\AppData\Local\Temp\ccNmN5zT.s:28678  .debug_str:000000000002191a .LASF3102
C:\Users\CYMR90~1\AppData\Local\Temp\ccNmN5zT.s:31524  .debug_str:000000000002cce5 .LASF3103
C:\Users\CYMR90~1\AppData\Local\Temp\ccNmN5zT.s:24209  .debug_str:000000000000f994 .LASF3104
C:\Users\CYMR90~1\AppData\Local\Temp\ccNmN5zT.s:21063  .debug_str:0000000000002f70 .LASF3105
C:\Users\CYMR90~1\AppData\Local\Temp\ccNmN5zT.s:24067  .debug_str:000000000000f04f .LASF3106
C:\Users\CYMR90~1\AppData\Local\Temp\ccNmN5zT.s:28364  .debug_str:0000000000020572 .LASF3107
C:\Users\CYMR90~1\AppData\Local\Temp\ccNmN5zT.s:25665  .debug_str:00000000000156c3 .LASF3108
C:\Users\CYMR90~1\AppData\Local\Temp\ccNmN5zT.s:24685  .debug_str:000000000001174f .LASF3109
C:\Users\CYMR90~1\AppData\Local\Temp\ccNmN5zT.s:27270  .debug_str:000000000001c068 .LASF3110
C:\Users\CYMR90~1\AppData\Local\Temp\ccNmN5zT.s:26306  .debug_str:0000000000018122 .LASF3111
C:\Users\CYMR90~1\AppData\Local\Temp\ccNmN5zT.s:28200  .debug_str:000000000001fb75 .LASF3112
C:\Users\CYMR90~1\AppData\Local\Temp\ccNmN5zT.s:24493  .debug_str:0000000000010b69 .LASF3113
C:\Users\CYMR90~1\AppData\Local\Temp\ccNmN5zT.s:30356  .debug_str:0000000000028474 .LASF3114
C:\Users\CYMR90~1\AppData\Local\Temp\ccNmN5zT.s:22563  .debug_str:0000000000009001 .LASF3115
C:\Users\CYMR90~1\AppData\Local\Temp\ccNmN5zT.s:21645  .debug_str:000000000000552b .LASF3116
C:\Users\CYMR90~1\AppData\Local\Temp\ccNmN5zT.s:20689  .debug_str:00000000000018cf .LASF3117
C:\Users\CYMR90~1\AppData\Local\Temp\ccNmN5zT.s:31068  .debug_str:000000000002af7e .LASF3118
C:\Users\CYMR90~1\AppData\Local\Temp\ccNmN5zT.s:28626  .debug_str:00000000000215f2 .LASF3119
C:\Users\CYMR90~1\AppData\Local\Temp\ccNmN5zT.s:27662  .debug_str:000000000001da7d .LASF3120
C:\Users\CYMR90~1\AppData\Local\Temp\ccNmN5zT.s:26832  .debug_str:000000000001a364 .LASF3121
C:\Users\CYMR90~1\AppData\Local\Temp\ccNmN5zT.s:25833  .debug_str:00000000000161be .LASF3122
C:\Users\CYMR90~1\AppData\Local\Temp\ccNmN5zT.s:24905  .debug_str:0000000000012635 .LASF3123
C:\Users\CYMR90~1\AppData\Local\Temp\ccNmN5zT.s:23941  .debug_str:000000000000e900 .LASF3124
C:\Users\CYMR90~1\AppData\Local\Temp\ccNmN5zT.s:24083  .debug_str:000000000000f12f .LASF3125
C:\Users\CYMR90~1\AppData\Local\Temp\ccNmN5zT.s:30044  .debug_str:0000000000026f27 .LASF3126
C:\Users\CYMR90~1\AppData\Local\Temp\ccNmN5zT.s:29828  .debug_str:000000000002622d .LASF3127
C:\Users\CYMR90~1\AppData\Local\Temp\ccNmN5zT.s:24397  .debug_str:00000000000104de .LASF3128
C:\Users\CYMR90~1\AppData\Local\Temp\ccNmN5zT.s:23253  .debug_str:000000000000bce9 .LASF3129
C:\Users\CYMR90~1\AppData\Local\Temp\ccNmN5zT.s:22151  .debug_str:00000000000074c3 .LASF3130
C:\Users\CYMR90~1\AppData\Local\Temp\ccNmN5zT.s:27498  .debug_str:000000000001cf9e .LASF3131
C:\Users\CYMR90~1\AppData\Local\Temp\ccNmN5zT.s:29108  .debug_str:0000000000023247 .LASF3132
C:\Users\CYMR90~1\AppData\Local\Temp\ccNmN5zT.s:23433  .debug_str:000000000000c8fd .LASF3133
C:\Users\CYMR90~1\AppData\Local\Temp\ccNmN5zT.s:21713  .debug_str:000000000000590e .LASF3134
C:\Users\CYMR90~1\AppData\Local\Temp\ccNmN5zT.s:21497  .debug_str:0000000000004c34 .LASF3135
C:\Users\CYMR90~1\AppData\Local\Temp\ccNmN5zT.s:20655  .debug_str:0000000000001611 .LASF3136
C:\Users\CYMR90~1\AppData\Local\Temp\ccNmN5zT.s:25929  .debug_str:00000000000167bf .LASF3137
C:\Users\CYMR90~1\AppData\Local\Temp\ccNmN5zT.s:20997  .debug_str:0000000000002b60 .LASF3138
C:\Users\CYMR90~1\AppData\Local\Temp\ccNmN5zT.s:31464  .debug_str:000000000002c937 .LASF3139
C:\Users\CYMR90~1\AppData\Local\Temp\ccNmN5zT.s:30396  .debug_str:0000000000028739 .LASF3140
C:\Users\CYMR90~1\AppData\Local\Temp\ccNmN5zT.s:21467  .debug_str:0000000000004a5b .LASF3141
C:\Users\CYMR90~1\AppData\Local\Temp\ccNmN5zT.s:27250  .debug_str:000000000001bf1d .LASF3142
C:\Users\CYMR90~1\AppData\Local\Temp\ccNmN5zT.s:24497  .debug_str:0000000000010bae .LASF3143
C:\Users\CYMR90~1\AppData\Local\Temp\ccNmN5zT.s:27550  .debug_str:000000000001d33d .LASF3144
C:\Users\CYMR90~1\AppData\Local\Temp\ccNmN5zT.s:20385  .debug_str:00000000000005cc .LASF3145
C:\Users\CYMR90~1\AppData\Local\Temp\ccNmN5zT.s:25079  .debug_str:00000000000131d5 .LASF3146
C:\Users\CYMR90~1\AppData\Local\Temp\ccNmN5zT.s:29776  .debug_str:0000000000025ea7 .LASF3147
C:\Users\CYMR90~1\AppData\Local\Temp\ccNmN5zT.s:24987  .debug_str:0000000000012bc3 .LASF3148
C:\Users\CYMR90~1\AppData\Local\Temp\ccNmN5zT.s:21865  .debug_str:0000000000006233 .LASF3149
C:\Users\CYMR90~1\AppData\Local\Temp\ccNmN5zT.s:26270  .debug_str:0000000000017f34 .LASF3150
C:\Users\CYMR90~1\AppData\Local\Temp\ccNmN5zT.s:24745  .debug_str:0000000000011c1b .LASF3151
C:\Users\CYMR90~1\AppData\Local\Temp\ccNmN5zT.s:23295  .debug_str:000000000000c011 .LASF3152
C:\Users\CYMR90~1\AppData\Local\Temp\ccNmN5zT.s:27120  .debug_str:000000000001b730 .LASF3153
C:\Users\CYMR90~1\AppData\Local\Temp\ccNmN5zT.s:23649  .debug_str:000000000000d791 .LASF3154
C:\Users\CYMR90~1\AppData\Local\Temp\ccNmN5zT.s:22629  .debug_str:00000000000093cb .LASF3155
C:\Users\CYMR90~1\AppData\Local\Temp\ccNmN5zT.s:29478  .debug_str:0000000000024a09 .LASF3156
C:\Users\CYMR90~1\AppData\Local\Temp\ccNmN5zT.s:24789  .debug_str:0000000000011ea8 .LASF3157
C:\Users\CYMR90~1\AppData\Local\Temp\ccNmN5zT.s:29078  .debug_str:00000000000230d0 .LASF3158
C:\Users\CYMR90~1\AppData\Local\Temp\ccNmN5zT.s:22961  .debug_str:000000000000a965 .LASF3159
C:\Users\CYMR90~1\AppData\Local\Temp\ccNmN5zT.s:26694  .debug_str:0000000000019b47 .LASF3160
C:\Users\CYMR90~1\AppData\Local\Temp\ccNmN5zT.s:30006  .debug_str:0000000000026cac .LASF3161
C:\Users\CYMR90~1\AppData\Local\Temp\ccNmN5zT.s:23677  .debug_str:000000000000d910 .LASF3162
C:\Users\CYMR90~1\AppData\Local\Temp\ccNmN5zT.s:21761  .debug_str:0000000000005c1f .LASF3163
C:\Users\CYMR90~1\AppData\Local\Temp\ccNmN5zT.s:23277  .debug_str:000000000000bece .LASF3164
C:\Users\CYMR90~1\AppData\Local\Temp\ccNmN5zT.s:22059  .debug_str:0000000000006e38 .LASF3165
C:\Users\CYMR90~1\AppData\Local\Temp\ccNmN5zT.s:23969  .debug_str:000000000000eae5 .LASF3166
C:\Users\CYMR90~1\AppData\Local\Temp\ccNmN5zT.s:20529  .debug_str:0000000000000f38 .LASF3167
C:\Users\CYMR90~1\AppData\Local\Temp\ccNmN5zT.s:31202  .debug_str:000000000002b81c .LASF3168
C:\Users\CYMR90~1\AppData\Local\Temp\ccNmN5zT.s:30798  .debug_str:0000000000029f66 .LASF3169
C:\Users\CYMR90~1\AppData\Local\Temp\ccNmN5zT.s:28212  .debug_str:000000000001fc33 .LASF3170
C:\Users\CYMR90~1\AppData\Local\Temp\ccNmN5zT.s:29330  .debug_str:0000000000023f7d .LASF3171
C:\Users\CYMR90~1\AppData\Local\Temp\ccNmN5zT.s:27788  .debug_str:000000000001e2a7 .LASF3172
C:\Users\CYMR90~1\AppData\Local\Temp\ccNmN5zT.s:28172  .debug_str:000000000001f98f .LASF3173
C:\Users\CYMR90~1\AppData\Local\Temp\ccNmN5zT.s:30154  .debug_str:0000000000027681 .LASF3174
C:\Users\CYMR90~1\AppData\Local\Temp\ccNmN5zT.s:25373  .debug_str:0000000000014477 .LASF3175
C:\Users\CYMR90~1\AppData\Local\Temp\ccNmN5zT.s:25935  .debug_str:000000000001681a .LASF3176
C:\Users\CYMR90~1\AppData\Local\Temp\ccNmN5zT.s:20785  .debug_str:0000000000001ea2 .LASF3177
C:\Users\CYMR90~1\AppData\Local\Temp\ccNmN5zT.s:28158  .debug_str:000000000001f8a7 .LASF3178
C:\Users\CYMR90~1\AppData\Local\Temp\ccNmN5zT.s:28108  .debug_str:000000000001f5d7 .LASF3179
C:\Users\CYMR90~1\AppData\Local\Temp\ccNmN5zT.s:27224  .debug_str:000000000001bd4e .LASF3180
C:\Users\CYMR90~1\AppData\Local\Temp\ccNmN5zT.s:20955  .debug_str:000000000000289f .LASF3181
C:\Users\CYMR90~1\AppData\Local\Temp\ccNmN5zT.s:29644  .debug_str:00000000000255af .LASF3182
C:\Users\CYMR90~1\AppData\Local\Temp\ccNmN5zT.s:23567  .debug_str:000000000000d190 .LASF3183
C:\Users\CYMR90~1\AppData\Local\Temp\ccNmN5zT.s:21313  .debug_str:0000000000003f8d .LASF3184
C:\Users\CYMR90~1\AppData\Local\Temp\ccNmN5zT.s:21047  .debug_str:0000000000002e73 .LASF3185
C:\Users\CYMR90~1\AppData\Local\Temp\ccNmN5zT.s:22457  .debug_str:0000000000008947 .LASF3186
C:\Users\CYMR90~1\AppData\Local\Temp\ccNmN5zT.s:27778  .debug_str:000000000001e209 .LASF3187
C:\Users\CYMR90~1\AppData\Local\Temp\ccNmN5zT.s:28914  .debug_str:00000000000226f3 .LASF3188
C:\Users\CYMR90~1\AppData\Local\Temp\ccNmN5zT.s:22831  .debug_str:000000000000a093 .LASF3189
C:\Users\CYMR90~1\AppData\Local\Temp\ccNmN5zT.s:23765  .debug_str:000000000000de12 .LASF3190
C:\Users\CYMR90~1\AppData\Local\Temp\ccNmN5zT.s:25731  .debug_str:0000000000015ab7 .LASF3191
C:\Users\CYMR90~1\AppData\Local\Temp\ccNmN5zT.s:21877  .debug_str:00000000000062de .LASF3192
C:\Users\CYMR90~1\AppData\Local\Temp\ccNmN5zT.s:27012  .debug_str:000000000001b098 .LASF3193
C:\Users\CYMR90~1\AppData\Local\Temp\ccNmN5zT.s:26652  .debug_str:00000000000197ed .LASF3194
C:\Users\CYMR90~1\AppData\Local\Temp\ccNmN5zT.s:23285  .debug_str:000000000000bf52 .LASF3195
C:\Users\CYMR90~1\AppData\Local\Temp\ccNmN5zT.s:28368  .debug_str:00000000000205b4 .LASF3196
C:\Users\CYMR90~1\AppData\Local\Temp\ccNmN5zT.s:26204  .debug_str:0000000000017b1d .LASF3197
C:\Users\CYMR90~1\AppData\Local\Temp\ccNmN5zT.s:30390  .debug_str:00000000000286c7 .LASF3198
C:\Users\CYMR90~1\AppData\Local\Temp\ccNmN5zT.s:27882  .debug_str:000000000001e83f .LASF3199
C:\Users\CYMR90~1\AppData\Local\Temp\ccNmN5zT.s:27202  .debug_str:000000000001bbae .LASF3200
C:\Users\CYMR90~1\AppData\Local\Temp\ccNmN5zT.s:30270  .debug_str:0000000000027def .LASF3201
C:\Users\CYMR90~1\AppData\Local\Temp\ccNmN5zT.s:20811  .debug_str:000000000000200d .LASF3202
C:\Users\CYMR90~1\AppData\Local\Temp\ccNmN5zT.s:23995  .debug_str:000000000000ec7f .LASF3203
C:\Users\CYMR90~1\AppData\Local\Temp\ccNmN5zT.s:24037  .debug_str:000000000000eea8 .LASF3204
C:\Users\CYMR90~1\AppData\Local\Temp\ccNmN5zT.s:29914  .debug_str:0000000000026730 .LASF3205
C:\Users\CYMR90~1\AppData\Local\Temp\ccNmN5zT.s:30274  .debug_str:0000000000027e2e .LASF3206
C:\Users\CYMR90~1\AppData\Local\Temp\ccNmN5zT.s:26296  .debug_str:00000000000180a6 .LASF3207
C:\Users\CYMR90~1\AppData\Local\Temp\ccNmN5zT.s:29024  .debug_str:0000000000022dea .LASF3208
C:\Users\CYMR90~1\AppData\Local\Temp\ccNmN5zT.s:20645  .debug_str:0000000000001556 .LASF3209
C:\Users\CYMR90~1\AppData\Local\Temp\ccNmN5zT.s:20949  .debug_str:0000000000002843 .LASF3210
C:\Users\CYMR90~1\AppData\Local\Temp\ccNmN5zT.s:30874  .debug_str:000000000002a395 .LASF3211
C:\Users\CYMR90~1\AppData\Local\Temp\ccNmN5zT.s:21849  .debug_str:0000000000006166 .LASF3212
C:\Users\CYMR90~1\AppData\Local\Temp\ccNmN5zT.s:25083  .debug_str:0000000000013217 .LASF3213
C:\Users\CYMR90~1\AppData\Local\Temp\ccNmN5zT.s:23639  .debug_str:000000000000d6d9 .LASF3214
C:\Users\CYMR90~1\AppData\Local\Temp\ccNmN5zT.s:28588  .debug_str:00000000000212ef .LASF3215
C:\Users\CYMR90~1\AppData\Local\Temp\ccNmN5zT.s:26662  .debug_str:00000000000198d2 .LASF3216
C:\Users\CYMR90~1\AppData\Local\Temp\ccNmN5zT.s:22809  .debug_str:0000000000009f13 .LASF3217
C:\Users\CYMR90~1\AppData\Local\Temp\ccNmN5zT.s:22567  .debug_str:000000000000903e .LASF3218
C:\Users\CYMR90~1\AppData\Local\Temp\ccNmN5zT.s:23155  .debug_str:000000000000b63b .LASF3219
C:\Users\CYMR90~1\AppData\Local\Temp\ccNmN5zT.s:21389  .debug_str:0000000000004495 .LASF3220
C:\Users\CYMR90~1\AppData\Local\Temp\ccNmN5zT.s:24515  .debug_str:0000000000010d44 .LASF3221
C:\Users\CYMR90~1\AppData\Local\Temp\ccNmN5zT.s:26188  .debug_str:0000000000017a3c .LASF3222
C:\Users\CYMR90~1\AppData\Local\Temp\ccNmN5zT.s:22433  .debug_str:0000000000008788 .LASF3223
C:\Users\CYMR90~1\AppData\Local\Temp\ccNmN5zT.s:23231  .debug_str:000000000000bb3f .LASF3224
C:\Users\CYMR90~1\AppData\Local\Temp\ccNmN5zT.s:23181  .debug_str:000000000000b82d .LASF3225
C:\Users\CYMR90~1\AppData\Local\Temp\ccNmN5zT.s:26094  .debug_str:0000000000017421 .LASF3226
C:\Users\CYMR90~1\AppData\Local\Temp\ccNmN5zT.s:30002  .debug_str:0000000000026c73 .LASF3227
C:\Users\CYMR90~1\AppData\Local\Temp\ccNmN5zT.s:22911  .debug_str:000000000000a57a .LASF3228
C:\Users\CYMR90~1\AppData\Local\Temp\ccNmN5zT.s:20925  .debug_str:000000000000268e .LASF3229
C:\Users\CYMR90~1\AppData\Local\Temp\ccNmN5zT.s:27910  .debug_str:000000000001e9ff .LASF3230
C:\Users\CYMR90~1\AppData\Local\Temp\ccNmN5zT.s:20611  .debug_str:000000000000139a .LASF3231
C:\Users\CYMR90~1\AppData\Local\Temp\ccNmN5zT.s:26476  .debug_str:0000000000018bd9 .LASF3232
C:\Users\CYMR90~1\AppData\Local\Temp\ccNmN5zT.s:20717  .debug_str:0000000000001a76 .LASF3233
C:\Users\CYMR90~1\AppData\Local\Temp\ccNmN5zT.s:31476  .debug_str:000000000002ca16 .LASF3234
C:\Users\CYMR90~1\AppData\Local\Temp\ccNmN5zT.s:25647  .debug_str:00000000000155c7 .LASF3235
C:\Users\CYMR90~1\AppData\Local\Temp\ccNmN5zT.s:29426  .debug_str:0000000000024678 .LASF3236
C:\Users\CYMR90~1\AppData\Local\Temp\ccNmN5zT.s:22845  .debug_str:000000000000a167 .LASF3237
C:\Users\CYMR90~1\AppData\Local\Temp\ccNmN5zT.s:20743  .debug_str:0000000000001c22 .LASF3238
C:\Users\CYMR90~1\AppData\Local\Temp\ccNmN5zT.s:21871  .debug_str:00000000000062a1 .LASF3239
C:\Users\CYMR90~1\AppData\Local\Temp\ccNmN5zT.s:27084  .debug_str:000000000001b511 .LASF3240
C:\Users\CYMR90~1\AppData\Local\Temp\ccNmN5zT.s:21321  .debug_str:0000000000003ffc .LASF3241
C:\Users\CYMR90~1\AppData\Local\Temp\ccNmN5zT.s:22573  .debug_str:00000000000090a1 .LASF3242
C:\Users\CYMR90~1\AppData\Local\Temp\ccNmN5zT.s:21625  .debug_str:00000000000053e6 .LASF3243
C:\Users\CYMR90~1\AppData\Local\Temp\ccNmN5zT.s:30964  .debug_str:000000000002a951 .LASF3244
C:\Users\CYMR90~1\AppData\Local\Temp\ccNmN5zT.s:23307  .debug_str:000000000000c0c3 .LASF3245
C:\Users\CYMR90~1\AppData\Local\Temp\ccNmN5zT.s:20963  .debug_str:000000000000291a .LASF3246
C:\Users\CYMR90~1\AppData\Local\Temp\ccNmN5zT.s:28874  .debug_str:000000000002249b .LASF3247
C:\Users\CYMR90~1\AppData\Local\Temp\ccNmN5zT.s:25555  .debug_str:0000000000015048 .LASF3248
C:\Users\CYMR90~1\AppData\Local\Temp\ccNmN5zT.s:22147  .debug_str:000000000000747c .LASF3249
C:\Users\CYMR90~1\AppData\Local\Temp\ccNmN5zT.s:27066  .debug_str:000000000001b41e .LASF3250
C:\Users\CYMR90~1\AppData\Local\Temp\ccNmN5zT.s:21759  .debug_str:0000000000005c00 .LASF3251
C:\Users\CYMR90~1\AppData\Local\Temp\ccNmN5zT.s:22663  .debug_str:000000000000961d .LASF3252
C:\Users\CYMR90~1\AppData\Local\Temp\ccNmN5zT.s:24923  .debug_str:0000000000012774 .LASF3253
C:\Users\CYMR90~1\AppData\Local\Temp\ccNmN5zT.s:28892  .debug_str:000000000002258c .LASF3254
C:\Users\CYMR90~1\AppData\Local\Temp\ccNmN5zT.s:30258  .debug_str:0000000000027d07 .LASF3255
C:\Users\CYMR90~1\AppData\Local\Temp\ccNmN5zT.s:26286  .debug_str:000000000001801a .LASF3256
C:\Users\CYMR90~1\AppData\Local\Temp\ccNmN5zT.s:24153  .debug_str:000000000000f5a2 .LASF3257
C:\Users\CYMR90~1\AppData\Local\Temp\ccNmN5zT.s:28890  .debug_str:0000000000022573 .LASF3258
C:\Users\CYMR90~1\AppData\Local\Temp\ccNmN5zT.s:30702  .debug_str:00000000000299b0 .LASF3259
C:\Users\CYMR90~1\AppData\Local\Temp\ccNmN5zT.s:26926  .debug_str:000000000001aae7 .LASF3260
C:\Users\CYMR90~1\AppData\Local\Temp\ccNmN5zT.s:22013  .debug_str:0000000000006b09 .LASF3261
C:\Users\CYMR90~1\AppData\Local\Temp\ccNmN5zT.s:21631  .debug_str:000000000000542a .LASF3262
C:\Users\CYMR90~1\AppData\Local\Temp\ccNmN5zT.s:27826  .debug_str:000000000001e4d8 .LASF3263
C:\Users\CYMR90~1\AppData\Local\Temp\ccNmN5zT.s:23861  .debug_str:000000000000e3f1 .LASF3264
C:\Users\CYMR90~1\AppData\Local\Temp\ccNmN5zT.s:29096  .debug_str:0000000000023199 .LASF3265
C:\Users\CYMR90~1\AppData\Local\Temp\ccNmN5zT.s:26146  .debug_str:0000000000017756 .LASF3266
C:\Users\CYMR90~1\AppData\Local\Temp\ccNmN5zT.s:29542  .debug_str:0000000000024e29 .LASF3267
C:\Users\CYMR90~1\AppData\Local\Temp\ccNmN5zT.s:28930  .debug_str:0000000000022811 .LASF3268
C:\Users\CYMR90~1\AppData\Local\Temp\ccNmN5zT.s:31350  .debug_str:000000000002c1d9 .LASF3269
C:\Users\CYMR90~1\AppData\Local\Temp\ccNmN5zT.s:31138  .debug_str:000000000002b3e1 .LASF3270
C:\Users\CYMR90~1\AppData\Local\Temp\ccNmN5zT.s:31444  .debug_str:000000000002c7c6 .LASF3271
C:\Users\CYMR90~1\AppData\Local\Temp\ccNmN5zT.s:29848  .debug_str:0000000000026332 .LASF3272
C:\Users\CYMR90~1\AppData\Local\Temp\ccNmN5zT.s:21273  .debug_str:0000000000003cd5 .LASF3273
C:\Users\CYMR90~1\AppData\Local\Temp\ccNmN5zT.s:24085  .debug_str:000000000000f15e .LASF3274
C:\Users\CYMR90~1\AppData\Local\Temp\ccNmN5zT.s:21243  .debug_str:0000000000003aff .LASF3275
C:\Users\CYMR90~1\AppData\Local\Temp\ccNmN5zT.s:24627  .debug_str:0000000000011381 .LASF3276
C:\Users\CYMR90~1\AppData\Local\Temp\ccNmN5zT.s:24451  .debug_str:000000000001089b .LASF3277
C:\Users\CYMR90~1\AppData\Local\Temp\ccNmN5zT.s:21983  .debug_str:0000000000006922 .LASF3278
C:\Users\CYMR90~1\AppData\Local\Temp\ccNmN5zT.s:24839  .debug_str:000000000001222e .LASF3279
C:\Users\CYMR90~1\AppData\Local\Temp\ccNmN5zT.s:24495  .debug_str:0000000000010b91 .LASF3280
C:\Users\CYMR90~1\AppData\Local\Temp\ccNmN5zT.s:22231  .debug_str:00000000000079a7 .LASF3281
C:\Users\CYMR90~1\AppData\Local\Temp\ccNmN5zT.s:22917  .debug_str:000000000000a5c4 .LASF3282
C:\Users\CYMR90~1\AppData\Local\Temp\ccNmN5zT.s:25317  .debug_str:000000000001412b .LASF3283
C:\Users\CYMR90~1\AppData\Local\Temp\ccNmN5zT.s:27834  .debug_str:000000000001e547 .LASF3284
C:\Users\CYMR90~1\AppData\Local\Temp\ccNmN5zT.s:21431  .debug_str:000000000000478a .LASF3285
C:\Users\CYMR90~1\AppData\Local\Temp\ccNmN5zT.s:28366  .debug_str:000000000002059e .LASF3286
C:\Users\CYMR90~1\AppData\Local\Temp\ccNmN5zT.s:28724  .debug_str:0000000000021bf0 .LASF3287
C:\Users\CYMR90~1\AppData\Local\Temp\ccNmN5zT.s:22719  .debug_str:00000000000099a6 .LASF3288
C:\Users\CYMR90~1\AppData\Local\Temp\ccNmN5zT.s:22063  .debug_str:0000000000006e6a .LASF3289
C:\Users\CYMR90~1\AppData\Local\Temp\ccNmN5zT.s:22585  .debug_str:0000000000009129 .LASF3290
C:\Users\CYMR90~1\AppData\Local\Temp\ccNmN5zT.s:21025  .debug_str:0000000000002d3c .LASF3291
C:\Users\CYMR90~1\AppData\Local\Temp\ccNmN5zT.s:31292  .debug_str:000000000002bdea .LASF3292
C:\Users\CYMR90~1\AppData\Local\Temp\ccNmN5zT.s:21855  .debug_str:00000000000061b9 .LASF3293
C:\Users\CYMR90~1\AppData\Local\Temp\ccNmN5zT.s:20417  .debug_str:00000000000007ba .LASF3294
C:\Users\CYMR90~1\AppData\Local\Temp\ccNmN5zT.s:21437  .debug_str:0000000000004807 .LASF3295
C:\Users\CYMR90~1\AppData\Local\Temp\ccNmN5zT.s:28830  .debug_str:0000000000022232 .LASF3296
C:\Users\CYMR90~1\AppData\Local\Temp\ccNmN5zT.s:24913  .debug_str:00000000000126c2 .LASF3297
C:\Users\CYMR90~1\AppData\Local\Temp\ccNmN5zT.s:28450  .debug_str:0000000000020ae2 .LASF3298
C:\Users\CYMR90~1\AppData\Local\Temp\ccNmN5zT.s:20355  .debug_str:0000000000000407 .LASF3299
C:\Users\CYMR90~1\AppData\Local\Temp\ccNmN5zT.s:28046  .debug_str:000000000001f227 .LASF3300
C:\Users\CYMR90~1\AppData\Local\Temp\ccNmN5zT.s:26914  .debug_str:000000000001aa25 .LASF3301
C:\Users\CYMR90~1\AppData\Local\Temp\ccNmN5zT.s:27824  .debug_str:000000000001e4b8 .LASF3302
C:\Users\CYMR90~1\AppData\Local\Temp\ccNmN5zT.s:27406  .debug_str:000000000001c93c .LASF3303
C:\Users\CYMR90~1\AppData\Local\Temp\ccNmN5zT.s:26266  .debug_str:0000000000017efe .LASF3304
C:\Users\CYMR90~1\AppData\Local\Temp\ccNmN5zT.s:24799  .debug_str:0000000000011f31 .LASF3305
C:\Users\CYMR90~1\AppData\Local\Temp\ccNmN5zT.s:22801  .debug_str:0000000000009e80 .LASF3306
C:\Users\CYMR90~1\AppData\Local\Temp\ccNmN5zT.s:27696  .debug_str:000000000001dc6c .LASF3307
C:\Users\CYMR90~1\AppData\Local\Temp\ccNmN5zT.s:31390  .debug_str:000000000002c4a1 .LASF3308
C:\Users\CYMR90~1\AppData\Local\Temp\ccNmN5zT.s:26672  .debug_str:00000000000199d8 .LASF3309
C:\Users\CYMR90~1\AppData\Local\Temp\ccNmN5zT.s:26984  .debug_str:000000000001ae73 .LASF3310
C:\Users\CYMR90~1\AppData\Local\Temp\ccNmN5zT.s:29470  .debug_str:00000000000249a7 .LASF3311
C:\Users\CYMR90~1\AppData\Local\Temp\ccNmN5zT.s:30870  .debug_str:000000000002a362 .LASF3312
C:\Users\CYMR90~1\AppData\Local\Temp\ccNmN5zT.s:24677  .debug_str:00000000000116cb .LASF3313
C:\Users\CYMR90~1\AppData\Local\Temp\ccNmN5zT.s:27644  .debug_str:000000000001d957 .LASF3314
C:\Users\CYMR90~1\AppData\Local\Temp\ccNmN5zT.s:23763  .debug_str:000000000000ddfa .LASF3315
C:\Users\CYMR90~1\AppData\Local\Temp\ccNmN5zT.s:30642  .debug_str:0000000000029620 .LASF3316
C:\Users\CYMR90~1\AppData\Local\Temp\ccNmN5zT.s:22159  .debug_str:0000000000007533 .LASF3317
C:\Users\CYMR90~1\AppData\Local\Temp\ccNmN5zT.s:30918  .debug_str:000000000002a679 .LASF3318
C:\Users\CYMR90~1\AppData\Local\Temp\ccNmN5zT.s:29692  .debug_str:000000000002597b .LASF3319
C:\Users\CYMR90~1\AppData\Local\Temp\ccNmN5zT.s:21197  .debug_str:000000000000380c .LASF3320
C:\Users\CYMR90~1\AppData\Local\Temp\ccNmN5zT.s:24391  .debug_str:0000000000010480 .LASF3321
C:\Users\CYMR90~1\AppData\Local\Temp\ccNmN5zT.s:30360  .debug_str:00000000000284c2 .LASF3322
C:\Users\CYMR90~1\AppData\Local\Temp\ccNmN5zT.s:24863  .debug_str:000000000001239a .LASF3323
C:\Users\CYMR90~1\AppData\Local\Temp\ccNmN5zT.s:22975  .debug_str:000000000000aa24 .LASF3324
C:\Users\CYMR90~1\AppData\Local\Temp\ccNmN5zT.s:31194  .debug_str:000000000002b788 .LASF3325
C:\Users\CYMR90~1\AppData\Local\Temp\ccNmN5zT.s:23059  .debug_str:000000000000b03d .LASF3326
C:\Users\CYMR90~1\AppData\Local\Temp\ccNmN5zT.s:26726  .debug_str:0000000000019d44 .LASF3327
C:\Users\CYMR90~1\AppData\Local\Temp\ccNmN5zT.s:30944  .debug_str:000000000002a81d .LASF3328
C:\Users\CYMR90~1\AppData\Local\Temp\ccNmN5zT.s:21939  .debug_str:00000000000066a0 .LASF3329
C:\Users\CYMR90~1\AppData\Local\Temp\ccNmN5zT.s:30986  .debug_str:000000000002aa8c .LASF3330
C:\Users\CYMR90~1\AppData\Local\Temp\ccNmN5zT.s:28554  .debug_str:00000000000210ec .LASF3331
C:\Users\CYMR90~1\AppData\Local\Temp\ccNmN5zT.s:29932  .debug_str:000000000002686b .LASF3332
C:\Users\CYMR90~1\AppData\Local\Temp\ccNmN5zT.s:23615  .debug_str:000000000000d51e .LASF3333
C:\Users\CYMR90~1\AppData\Local\Temp\ccNmN5zT.s:29320  .debug_str:0000000000023f03 .LASF3334
C:\Users\CYMR90~1\AppData\Local\Temp\ccNmN5zT.s:25443  .debug_str:00000000000148fc .LASF3335
C:\Users\CYMR90~1\AppData\Local\Temp\ccNmN5zT.s:24285  .debug_str:000000000000fe36 .LASF3336
C:\Users\CYMR90~1\AppData\Local\Temp\ccNmN5zT.s:27394  .debug_str:000000000001c7d2 .LASF3337
C:\Users\CYMR90~1\AppData\Local\Temp\ccNmN5zT.s:30198  .debug_str:00000000000278ed .LASF3338
C:\Users\CYMR90~1\AppData\Local\Temp\ccNmN5zT.s:21219  .debug_str:0000000000003955 .LASF3339
C:\Users\CYMR90~1\AppData\Local\Temp\ccNmN5zT.s:27624  .debug_str:000000000001d7e7 .LASF3340
C:\Users\CYMR90~1\AppData\Local\Temp\ccNmN5zT.s:30370  .debug_str:0000000000028566 .LASF3341
C:\Users\CYMR90~1\AppData\Local\Temp\ccNmN5zT.s:22477  .debug_str:0000000000008a7c .LASF3342
C:\Users\CYMR90~1\AppData\Local\Temp\ccNmN5zT.s:28802  .debug_str:000000000002207d .LASF3343
C:\Users\CYMR90~1\AppData\Local\Temp\ccNmN5zT.s:25625  .debug_str:000000000001548c .LASF3344
C:\Users\CYMR90~1\AppData\Local\Temp\ccNmN5zT.s:22569  .debug_str:0000000000009062 .LASF3345
C:\Users\CYMR90~1\AppData\Local\Temp\ccNmN5zT.s:23867  .debug_str:000000000000e441 .LASF3346
C:\Users\CYMR90~1\AppData\Local\Temp\ccNmN5zT.s:25007  .debug_str:0000000000012d06 .LASF3347
C:\Users\CYMR90~1\AppData\Local\Temp\ccNmN5zT.s:23037  .debug_str:000000000000ae03 .LASF3348
C:\Users\CYMR90~1\AppData\Local\Temp\ccNmN5zT.s:27462  .debug_str:000000000001ccc2 .LASF3349
C:\Users\CYMR90~1\AppData\Local\Temp\ccNmN5zT.s:29564  .debug_str:0000000000024f8a .LASF3350
C:\Users\CYMR90~1\AppData\Local\Temp\ccNmN5zT.s:21515  .debug_str:0000000000004d52 .LASF3351
C:\Users\CYMR90~1\AppData\Local\Temp\ccNmN5zT.s:30886  .debug_str:000000000002a45c .LASF3352
C:\Users\CYMR90~1\AppData\Local\Temp\ccNmN5zT.s:29758  .debug_str:0000000000025d85 .LASF3353
C:\Users\CYMR90~1\AppData\Local\Temp\ccNmN5zT.s:26770  .debug_str:0000000000019fc2 .LASF3354
C:\Users\CYMR90~1\AppData\Local\Temp\ccNmN5zT.s:26778  .debug_str:000000000001a053 .LASF3355
C:\Users\CYMR90~1\AppData\Local\Temp\ccNmN5zT.s:30048  .debug_str:0000000000026f69 .LASF3356
C:\Users\CYMR90~1\AppData\Local\Temp\ccNmN5zT.s:24895  .debug_str:0000000000012587 .LASF3357
C:\Users\CYMR90~1\AppData\Local\Temp\ccNmN5zT.s:30854  .debug_str:000000000002a2a6 .LASF3358
C:\Users\CYMR90~1\AppData\Local\Temp\ccNmN5zT.s:26434  .debug_str:00000000000188fa .LASF3359
C:\Users\CYMR90~1\AppData\Local\Temp\ccNmN5zT.s:30130  .debug_str:0000000000027512 .LASF3360
C:\Users\CYMR90~1\AppData\Local\Temp\ccNmN5zT.s:21409  .debug_str:00000000000045f3 .LASF3361
C:\Users\CYMR90~1\AppData\Local\Temp\ccNmN5zT.s:24485  .debug_str:0000000000010ab7 .LASF3362
C:\Users\CYMR90~1\AppData\Local\Temp\ccNmN5zT.s:27806  .debug_str:000000000001e399 .LASF3363
C:\Users\CYMR90~1\AppData\Local\Temp\ccNmN5zT.s:24823  .debug_str:0000000000012100 .LASF3364
C:\Users\CYMR90~1\AppData\Local\Temp\ccNmN5zT.s:24235  .debug_str:000000000000fb14 .LASF3365
C:\Users\CYMR90~1\AppData\Local\Temp\ccNmN5zT.s:25005  .debug_str:0000000000012ccd .LASF3366
C:\Users\CYMR90~1\AppData\Local\Temp\ccNmN5zT.s:29268  .debug_str:0000000000023c1d .LASF3367
C:\Users\CYMR90~1\AppData\Local\Temp\ccNmN5zT.s:25811  .debug_str:0000000000016030 .LASF3368
C:\Users\CYMR90~1\AppData\Local\Temp\ccNmN5zT.s:27376  .debug_str:000000000001c688 .LASF3369
C:\Users\CYMR90~1\AppData\Local\Temp\ccNmN5zT.s:23257  .debug_str:000000000000bd2b .LASF3370
C:\Users\CYMR90~1\AppData\Local\Temp\ccNmN5zT.s:22263  .debug_str:0000000000007bb5 .LASF3371
C:\Users\CYMR90~1\AppData\Local\Temp\ccNmN5zT.s:21569  .debug_str:0000000000005069 .LASF3372
C:\Users\CYMR90~1\AppData\Local\Temp\ccNmN5zT.s:24957  .debug_str:00000000000129b5 .LASF3373
C:\Users\CYMR90~1\AppData\Local\Temp\ccNmN5zT.s:22319  .debug_str:0000000000007fec .LASF3374
C:\Users\CYMR90~1\AppData\Local\Temp\ccNmN5zT.s:20661  .debug_str:0000000000001664 .LASF3375
C:\Users\CYMR90~1\AppData\Local\Temp\ccNmN5zT.s:30320  .debug_str:0000000000028175 .LASF3376
C:\Users\CYMR90~1\AppData\Local\Temp\ccNmN5zT.s:27052  .debug_str:000000000001b320 .LASF3377
C:\Users\CYMR90~1\AppData\Local\Temp\ccNmN5zT.s:23535  .debug_str:000000000000cf61 .LASF3378
C:\Users\CYMR90~1\AppData\Local\Temp\ccNmN5zT.s:25403  .debug_str:000000000001466d .LASF3379
C:\Users\CYMR90~1\AppData\Local\Temp\ccNmN5zT.s:26378  .debug_str:00000000000185da .LASF3380
C:\Users\CYMR90~1\AppData\Local\Temp\ccNmN5zT.s:24233  .debug_str:000000000000fafb .LASF3381
C:\Users\CYMR90~1\AppData\Local\Temp\ccNmN5zT.s:27860  .debug_str:000000000001e6d6 .LASF3382
C:\Users\CYMR90~1\AppData\Local\Temp\ccNmN5zT.s:23345  .debug_str:000000000000c33b .LASF3383
C:\Users\CYMR90~1\AppData\Local\Temp\ccNmN5zT.s:22915  .debug_str:000000000000a5a1 .LASF3384
C:\Users\CYMR90~1\AppData\Local\Temp\ccNmN5zT.s:25871  .debug_str:00000000000163f2 .LASF3385
C:\Users\CYMR90~1\AppData\Local\Temp\ccNmN5zT.s:26828  .debug_str:000000000001a322 .LASF3386
C:\Users\CYMR90~1\AppData\Local\Temp\ccNmN5zT.s:28110  .debug_str:000000000001f5f6 .LASF3387
C:\Users\CYMR90~1\AppData\Local\Temp\ccNmN5zT.s:24313  .debug_str:000000000000ffe7 .LASF3388
C:\Users\CYMR90~1\AppData\Local\Temp\ccNmN5zT.s:31470  .debug_str:000000000002c9b0 .LASF3389
C:\Users\CYMR90~1\AppData\Local\Temp\ccNmN5zT.s:26190  .debug_str:0000000000017a53 .LASF3390
C:\Users\CYMR90~1\AppData\Local\Temp\ccNmN5zT.s:28828  .debug_str:000000000002220e .LASF3391
C:\Users\CYMR90~1\AppData\Local\Temp\ccNmN5zT.s:23219  .debug_str:000000000000ba9b .LASF3392
C:\Users\CYMR90~1\AppData\Local\Temp\ccNmN5zT.s:29110  .debug_str:0000000000023274 .LASF3393
C:\Users\CYMR90~1\AppData\Local\Temp\ccNmN5zT.s:25281  .debug_str:0000000000013ed1 .LASF3394
C:\Users\CYMR90~1\AppData\Local\Temp\ccNmN5zT.s:28002  .debug_str:000000000001ef38 .LASF3395
C:\Users\CYMR90~1\AppData\Local\Temp\ccNmN5zT.s:24069  .debug_str:000000000000f071 .LASF3396
C:\Users\CYMR90~1\AppData\Local\Temp\ccNmN5zT.s:30848  .debug_str:000000000002a24c .LASF3397
C:\Users\CYMR90~1\AppData\Local\Temp\ccNmN5zT.s:24389  .debug_str:0000000000010469 .LASF3398
C:\Users\CYMR90~1\AppData\Local\Temp\ccNmN5zT.s:30450  .debug_str:0000000000028adc .LASF3399
C:\Users\CYMR90~1\AppData\Local\Temp\ccNmN5zT.s:25571  .debug_str:0000000000015158 .LASF3400
C:\Users\CYMR90~1\AppData\Local\Temp\ccNmN5zT.s:24709  .debug_str:000000000001196e .LASF3401
C:\Users\CYMR90~1\AppData\Local\Temp\ccNmN5zT.s:22609  .debug_str:00000000000092af .LASF3402
C:\Users\CYMR90~1\AppData\Local\Temp\ccNmN5zT.s:22189  .debug_str:000000000000770e .LASF3403
C:\Users\CYMR90~1\AppData\Local\Temp\ccNmN5zT.s:31588  .debug_str:000000000002d149 .LASF3404
C:\Users\CYMR90~1\AppData\Local\Temp\ccNmN5zT.s:21363  .debug_str:00000000000042de .LASF3405
C:\Users\CYMR90~1\AppData\Local\Temp\ccNmN5zT.s:31112  .debug_str:000000000002b1ed .LASF3406
C:\Users\CYMR90~1\AppData\Local\Temp\ccNmN5zT.s:23685  .debug_str:000000000000d975 .LASF3407
C:\Users\CYMR90~1\AppData\Local\Temp\ccNmN5zT.s:26356  .debug_str:000000000001845f .LASF3408
C:\Users\CYMR90~1\AppData\Local\Temp\ccNmN5zT.s:25809  .debug_str:0000000000016018 .LASF3409
C:\Users\CYMR90~1\AppData\Local\Temp\ccNmN5zT.s:29122  .debug_str:000000000002330b .LASF3410
C:\Users\CYMR90~1\AppData\Local\Temp\ccNmN5zT.s:20581  .debug_str:000000000000120f .LASF3411
C:\Users\CYMR90~1\AppData\Local\Temp\ccNmN5zT.s:21529  .debug_str:0000000000004e4a .LASF3412
C:\Users\CYMR90~1\AppData\Local\Temp\ccNmN5zT.s:28984  .debug_str:0000000000022b24 .LASF3413
C:\Users\CYMR90~1\AppData\Local\Temp\ccNmN5zT.s:21777  .debug_str:0000000000005cfc .LASF3414
C:\Users\CYMR90~1\AppData\Local\Temp\ccNmN5zT.s:29306  .debug_str:0000000000023e64 .LASF3415
C:\Users\CYMR90~1\AppData\Local\Temp\ccNmN5zT.s:29720  .debug_str:0000000000025b54 .LASF3416
C:\Users\CYMR90~1\AppData\Local\Temp\ccNmN5zT.s:28438  .debug_str:0000000000020a5b .LASF3417
C:\Users\CYMR90~1\AppData\Local\Temp\ccNmN5zT.s:25715  .debug_str:00000000000159d6 .LASF3418
C:\Users\CYMR90~1\AppData\Local\Temp\ccNmN5zT.s:25461  .debug_str:00000000000149fc .LASF3419
C:\Users\CYMR90~1\AppData\Local\Temp\ccNmN5zT.s:26180  .debug_str:00000000000179a9 .LASF3420
C:\Users\CYMR90~1\AppData\Local\Temp\ccNmN5zT.s:28334  .debug_str:0000000000020354 .LASF3421
C:\Users\CYMR90~1\AppData\Local\Temp\ccNmN5zT.s:22155  .debug_str:0000000000007505 .LASF3422
C:\Users\CYMR90~1\AppData\Local\Temp\ccNmN5zT.s:20347  .debug_str:0000000000000388 .LASF3423
C:\Users\CYMR90~1\AppData\Local\Temp\ccNmN5zT.s:30470  .debug_str:0000000000028c18 .LASF3424
C:\Users\CYMR90~1\AppData\Local\Temp\ccNmN5zT.s:20479  .debug_str:0000000000000bf4 .LASF3425
C:\Users\CYMR90~1\AppData\Local\Temp\ccNmN5zT.s:28808  .debug_str:00000000000220f1 .LASF3426
C:\Users\CYMR90~1\AppData\Local\Temp\ccNmN5zT.s:25609  .debug_str:00000000000153cb .LASF3427
C:\Users\CYMR90~1\AppData\Local\Temp\ccNmN5zT.s:25261  .debug_str:0000000000013d82 .LASF3428
C:\Users\CYMR90~1\AppData\Local\Temp\ccNmN5zT.s:23559  .debug_str:000000000000d109 .LASF3429
C:\Users\CYMR90~1\AppData\Local\Temp\ccNmN5zT.s:29112  .debug_str:000000000002329a .LASF3430
C:\Users\CYMR90~1\AppData\Local\Temp\ccNmN5zT.s:27092  .debug_str:000000000001b59c .LASF3431
C:\Users\CYMR90~1\AppData\Local\Temp\ccNmN5zT.s:25869  .debug_str:00000000000163d5 .LASF3432
C:\Users\CYMR90~1\AppData\Local\Temp\ccNmN5zT.s:29562  .debug_str:0000000000024f6c .LASF3433
C:\Users\CYMR90~1\AppData\Local\Temp\ccNmN5zT.s:24201  .debug_str:000000000000f92a .LASF3434
C:\Users\CYMR90~1\AppData\Local\Temp\ccNmN5zT.s:29030  .debug_str:0000000000022e24 .LASF3435
C:\Users\CYMR90~1\AppData\Local\Temp\ccNmN5zT.s:25101  .debug_str:0000000000013360 .LASF3436
C:\Users\CYMR90~1\AppData\Local\Temp\ccNmN5zT.s:27576  .debug_str:000000000001d4cb .LASF3437
C:\Users\CYMR90~1\AppData\Local\Temp\ccNmN5zT.s:30240  .debug_str:0000000000027bd3 .LASF3438
C:\Users\CYMR90~1\AppData\Local\Temp\ccNmN5zT.s:31508  .debug_str:000000000002cc17 .LASF3439
C:\Users\CYMR90~1\AppData\Local\Temp\ccNmN5zT.s:20725  .debug_str:0000000000001af0 .LASF3440
C:\Users\CYMR90~1\AppData\Local\Temp\ccNmN5zT.s:21289  .debug_str:0000000000003de2 .LASF3441
C:\Users\CYMR90~1\AppData\Local\Temp\ccNmN5zT.s:31184  .debug_str:000000000002b6d7 .LASF3442
C:\Users\CYMR90~1\AppData\Local\Temp\ccNmN5zT.s:29538  .debug_str:0000000000024ded .LASF3443
C:\Users\CYMR90~1\AppData\Local\Temp\ccNmN5zT.s:25255  .debug_str:0000000000013d34 .LASF3444
C:\Users\CYMR90~1\AppData\Local\Temp\ccNmN5zT.s:21561  .debug_str:0000000000005009 .LASF3445
C:\Users\CYMR90~1\AppData\Local\Temp\ccNmN5zT.s:22949  .debug_str:000000000000a79e .LASF3446
C:\Users\CYMR90~1\AppData\Local\Temp\ccNmN5zT.s:21755  .debug_str:0000000000005bb4 .LASF3447
C:\Users\CYMR90~1\AppData\Local\Temp\ccNmN5zT.s:23163  .debug_str:000000000000b6cb .LASF3448
C:\Users\CYMR90~1\AppData\Local\Temp\ccNmN5zT.s:21691  .debug_str:00000000000057ad .LASF3449
C:\Users\CYMR90~1\AppData\Local\Temp\ccNmN5zT.s:24815  .debug_str:0000000000012069 .LASF3450
C:\Users\CYMR90~1\AppData\Local\Temp\ccNmN5zT.s:30230  .debug_str:0000000000027b36 .LASF3451
C:\Users\CYMR90~1\AppData\Local\Temp\ccNmN5zT.s:26614  .debug_str:0000000000019599 .LASF3452
C:\Users\CYMR90~1\AppData\Local\Temp\ccNmN5zT.s:25401  .debug_str:0000000000014632 .LASF3453
C:\Users\CYMR90~1\AppData\Local\Temp\ccNmN5zT.s:31538  .debug_str:000000000002ce36 .LASF3454
C:\Users\CYMR90~1\AppData\Local\Temp\ccNmN5zT.s:28080  .debug_str:000000000001f42f .LASF3455
C:\Users\CYMR90~1\AppData\Local\Temp\ccNmN5zT.s:24747  .debug_str:0000000000011c35 .LASF3456
C:\Users\CYMR90~1\AppData\Local\Temp\ccNmN5zT.s:22163  .debug_str:0000000000007568 .LASF3457
C:\Users\CYMR90~1\AppData\Local\Temp\ccNmN5zT.s:29168  .debug_str:00000000000235e2 .LASF3458
C:\Users\CYMR90~1\AppData\Local\Temp\ccNmN5zT.s:25765  .debug_str:0000000000015ceb .LASF3459
C:\Users\CYMR90~1\AppData\Local\Temp\ccNmN5zT.s:22395  .debug_str:000000000000856d .LASF3460
C:\Users\CYMR90~1\AppData\Local\Temp\ccNmN5zT.s:26302  .debug_str:00000000000180d9 .LASF3461
C:\Users\CYMR90~1\AppData\Local\Temp\ccNmN5zT.s:31246  .debug_str:000000000002bb0e .LASF3462
C:\Users\CYMR90~1\AppData\Local\Temp\ccNmN5zT.s:29794  .debug_str:0000000000025fab .LASF3463
C:\Users\CYMR90~1\AppData\Local\Temp\ccNmN5zT.s:20681  .debug_str:0000000000001849 .LASF3464
C:\Users\CYMR90~1\AppData\Local\Temp\ccNmN5zT.s:21729  .debug_str:00000000000059dd .LASF3465
C:\Users\CYMR90~1\AppData\Local\Temp\ccNmN5zT.s:27868  .debug_str:000000000001e722 .LASF3466
C:\Users\CYMR90~1\AppData\Local\Temp\ccNmN5zT.s:28088  .debug_str:000000000001f4ad .LASF3467
C:\Users\CYMR90~1\AppData\Local\Temp\ccNmN5zT.s:29218  .debug_str:000000000002394e .LASF3468
C:\Users\CYMR90~1\AppData\Local\Temp\ccNmN5zT.s:20677  .debug_str:0000000000001802 .LASF3469
C:\Users\CYMR90~1\AppData\Local\Temp\ccNmN5zT.s:26414  .debug_str:00000000000187d9 .LASF3470
C:\Users\CYMR90~1\AppData\Local\Temp\ccNmN5zT.s:31490  .debug_str:000000000002cafa .LASF3471
C:\Users\CYMR90~1\AppData\Local\Temp\ccNmN5zT.s:23135  .debug_str:000000000000b47a .LASF3472
C:\Users\CYMR90~1\AppData\Local\Temp\ccNmN5zT.s:26284  .debug_str:0000000000017ffa .LASF3473
C:\Users\CYMR90~1\AppData\Local\Temp\ccNmN5zT.s:20613  .debug_str:00000000000013ad .LASF3474
C:\Users\CYMR90~1\AppData\Local\Temp\ccNmN5zT.s:27354  .debug_str:000000000001c545 .LASF3475
C:\Users\CYMR90~1\AppData\Local\Temp\ccNmN5zT.s:23353  .debug_str:000000000000c3b1 .LASF3476
C:\Users\CYMR90~1\AppData\Local\Temp\ccNmN5zT.s:23619  .debug_str:000000000000d569 .LASF3477
C:\Users\CYMR90~1\AppData\Local\Temp\ccNmN5zT.s:31242  .debug_str:000000000002bac3 .LASF3478
C:\Users\CYMR90~1\AppData\Local\Temp\ccNmN5zT.s:28284  .debug_str:00000000000200a6 .LASF3479
C:\Users\CYMR90~1\AppData\Local\Temp\ccNmN5zT.s:24099  .debug_str:000000000000f255 .LASF3480
C:\Users\CYMR90~1\AppData\Local\Temp\ccNmN5zT.s:29718  .debug_str:0000000000025b2c .LASF3481
C:\Users\CYMR90~1\AppData\Local\Temp\ccNmN5zT.s:28654  .debug_str:0000000000021795 .LASF3482
C:\Users\CYMR90~1\AppData\Local\Temp\ccNmN5zT.s:24355  .debug_str:000000000001028c .LASF3483
C:\Users\CYMR90~1\AppData\Local\Temp\ccNmN5zT.s:28282  .debug_str:000000000002007f .LASF3484
C:\Users\CYMR90~1\AppData\Local\Temp\ccNmN5zT.s:25411  .debug_str:0000000000014710 .LASF3485
C:\Users\CYMR90~1\AppData\Local\Temp\ccNmN5zT.s:31122  .debug_str:000000000002b2c5 .LASF3486
C:\Users\CYMR90~1\AppData\Local\Temp\ccNmN5zT.s:20363  .debug_str:0000000000000471 .LASF3487
C:\Users\CYMR90~1\AppData\Local\Temp\ccNmN5zT.s:28314  .debug_str:0000000000020240 .LASF3488
C:\Users\CYMR90~1\AppData\Local\Temp\ccNmN5zT.s:29854  .debug_str:0000000000026391 .LASF3489
C:\Users\CYMR90~1\AppData\Local\Temp\ccNmN5zT.s:31540  .debug_str:000000000002ce5d .LASF3490
C:\Users\CYMR90~1\AppData\Local\Temp\ccNmN5zT.s:22783  .debug_str:0000000000009d74 .LASF3491
C:\Users\CYMR90~1\AppData\Local\Temp\ccNmN5zT.s:26654  .debug_str:0000000000019810 .LASF3492
C:\Users\CYMR90~1\AppData\Local\Temp\ccNmN5zT.s:24075  .debug_str:000000000000f0b7 .LASF3493
C:\Users\CYMR90~1\AppData\Local\Temp\ccNmN5zT.s:28000  .debug_str:000000000001ef1a .LASF3494
C:\Users\CYMR90~1\AppData\Local\Temp\ccNmN5zT.s:26468  .debug_str:0000000000018b42 .LASF3495
C:\Users\CYMR90~1\AppData\Local\Temp\ccNmN5zT.s:31048  .debug_str:000000000002ae43 .LASF3496
C:\Users\CYMR90~1\AppData\Local\Temp\ccNmN5zT.s:27236  .debug_str:000000000001be21 .LASF3497
C:\Users\CYMR90~1\AppData\Local\Temp\ccNmN5zT.s:21277  .debug_str:0000000000003d23 .LASF3498
C:\Users\CYMR90~1\AppData\Local\Temp\ccNmN5zT.s:23049  .debug_str:000000000000aef9 .LASF3499
C:\Users\CYMR90~1\AppData\Local\Temp\ccNmN5zT.s:24095  .debug_str:000000000000f207 .LASF3500
C:\Users\CYMR90~1\AppData\Local\Temp\ccNmN5zT.s:28734  .debug_str:0000000000021c83 .LASF3501
C:\Users\CYMR90~1\AppData\Local\Temp\ccNmN5zT.s:25979  .debug_str:0000000000016bbe .LASF3502
C:\Users\CYMR90~1\AppData\Local\Temp\ccNmN5zT.s:27768  .debug_str:000000000001e16a .LASF3503
C:\Users\CYMR90~1\AppData\Local\Temp\ccNmN5zT.s:27660  .debug_str:000000000001da56 .LASF3504
C:\Users\CYMR90~1\AppData\Local\Temp\ccNmN5zT.s:28758  .debug_str:0000000000021e04 .LASF3505
C:\Users\CYMR90~1\AppData\Local\Temp\ccNmN5zT.s:23015  .debug_str:000000000000acb5 .LASF3506
C:\Users\CYMR90~1\AppData\Local\Temp\ccNmN5zT.s:25375  .debug_str:0000000000014491 .LASF3507
C:\Users\CYMR90~1\AppData\Local\Temp\ccNmN5zT.s:21823  .debug_str:0000000000005f9b .LASF3508
C:\Users\CYMR90~1\AppData\Local\Temp\ccNmN5zT.s:28494  .debug_str:0000000000020dc9 .LASF3509
C:\Users\CYMR90~1\AppData\Local\Temp\ccNmN5zT.s:24993  .debug_str:0000000000012c07 .LASF3510
C:\Users\CYMR90~1\AppData\Local\Temp\ccNmN5zT.s:27070  .debug_str:000000000001b458 .LASF3511
C:\Users\CYMR90~1\AppData\Local\Temp\ccNmN5zT.s:26942  .debug_str:000000000001abfb .LASF3512
C:\Users\CYMR90~1\AppData\Local\Temp\ccNmN5zT.s:21581  .debug_str:0000000000005142 .LASF3513
C:\Users\CYMR90~1\AppData\Local\Temp\ccNmN5zT.s:28358  .debug_str:0000000000020501 .LASF3514
C:\Users\CYMR90~1\AppData\Local\Temp\ccNmN5zT.s:25067  .debug_str:00000000000130fa .LASF3515
C:\Users\CYMR90~1\AppData\Local\Temp\ccNmN5zT.s:27934  .debug_str:000000000001eb5e .LASF3516
C:\Users\CYMR90~1\AppData\Local\Temp\ccNmN5zT.s:27396  .debug_str:000000000001c7f7 .LASF3517
C:\Users\CYMR90~1\AppData\Local\Temp\ccNmN5zT.s:22093  .debug_str:00000000000070a5 .LASF3518
C:\Users\CYMR90~1\AppData\Local\Temp\ccNmN5zT.s:30042  .debug_str:0000000000026f05 .LASF3519
C:\Users\CYMR90~1\AppData\Local\Temp\ccNmN5zT.s:21495  .debug_str:0000000000004c10 .LASF3520
C:\Users\CYMR90~1\AppData\Local\Temp\ccNmN5zT.s:21821  .debug_str:0000000000005f8a .LASF3521
C:\Users\CYMR90~1\AppData\Local\Temp\ccNmN5zT.s:20795  .debug_str:0000000000001f35 .LASF3522
C:\Users\CYMR90~1\AppData\Local\Temp\ccNmN5zT.s:26360  .debug_str:0000000000018496 .LASF3523
C:\Users\CYMR90~1\AppData\Local\Temp\ccNmN5zT.s:26082  .debug_str:000000000001737b .LASF3524
C:\Users\CYMR90~1\AppData\Local\Temp\ccNmN5zT.s:27118  .debug_str:000000000001b70e .LASF3525
C:\Users\CYMR90~1\AppData\Local\Temp\ccNmN5zT.s:23777  .debug_str:000000000000df21 .LASF3526
C:\Users\CYMR90~1\AppData\Local\Temp\ccNmN5zT.s:28488  .debug_str:0000000000020d73 .LASF3527
C:\Users\CYMR90~1\AppData\Local\Temp\ccNmN5zT.s:29366  .debug_str:000000000002426d .LASF3528
C:\Users\CYMR90~1\AppData\Local\Temp\ccNmN5zT.s:30242  .debug_str:0000000000027bea .LASF3529
C:\Users\CYMR90~1\AppData\Local\Temp\ccNmN5zT.s:28610  .debug_str:00000000000214ee .LASF3530
C:\Users\CYMR90~1\AppData\Local\Temp\ccNmN5zT.s:29878  .debug_str:00000000000264ef .LASF3531
C:\Users\CYMR90~1\AppData\Local\Temp\ccNmN5zT.s:22111  .debug_str:0000000000007213 .LASF3532
C:\Users\CYMR90~1\AppData\Local\Temp\ccNmN5zT.s:27126  .debug_str:000000000001b79b .LASF3533
C:\Users\CYMR90~1\AppData\Local\Temp\ccNmN5zT.s:20889  .debug_str:000000000000240a .LASF3534
C:\Users\CYMR90~1\AppData\Local\Temp\ccNmN5zT.s:29634  .debug_str:00000000000254f0 .LASF3535
C:\Users\CYMR90~1\AppData\Local\Temp\ccNmN5zT.s:23359  .debug_str:000000000000c430 .LASF3536
C:\Users\CYMR90~1\AppData\Local\Temp\ccNmN5zT.s:25843  .debug_str:0000000000016248 .LASF3537
C:\Users\CYMR90~1\AppData\Local\Temp\ccNmN5zT.s:30078  .debug_str:0000000000027114 .LASF3538
C:\Users\CYMR90~1\AppData\Local\Temp\ccNmN5zT.s:23003  .debug_str:000000000000abe5 .LASF3539
C:\Users\CYMR90~1\AppData\Local\Temp\ccNmN5zT.s:23851  .debug_str:000000000000e36b .LASF3540
C:\Users\CYMR90~1\AppData\Local\Temp\ccNmN5zT.s:21499  .debug_str:0000000000004c5f .LASF3541
C:\Users\CYMR90~1\AppData\Local\Temp\ccNmN5zT.s:20473  .debug_str:0000000000000b7a .LASF3542
C:\Users\CYMR90~1\AppData\Local\Temp\ccNmN5zT.s:28770  .debug_str:0000000000021eb3 .LASF3543
C:\Users\CYMR90~1\AppData\Local\Temp\ccNmN5zT.s:23021  .debug_str:000000000000ad0a .LASF3544
C:\Users\CYMR90~1\AppData\Local\Temp\ccNmN5zT.s:21189  .debug_str:000000000000376c .LASF3545
C:\Users\CYMR90~1\AppData\Local\Temp\ccNmN5zT.s:20641  .debug_str:000000000000151c .LASF3546
C:\Users\CYMR90~1\AppData\Local\Temp\ccNmN5zT.s:26380  .debug_str:00000000000185f3 .LASF3547
C:\Users\CYMR90~1\AppData\Local\Temp\ccNmN5zT.s:25865  .debug_str:0000000000016395 .LASF3548
C:\Users\CYMR90~1\AppData\Local\Temp\ccNmN5zT.s:25055  .debug_str:000000000001302e .LASF3549
C:\Users\CYMR90~1\AppData\Local\Temp\ccNmN5zT.s:26732  .debug_str:0000000000019dad .LASF3550
C:\Users\CYMR90~1\AppData\Local\Temp\ccNmN5zT.s:31012  .debug_str:000000000002ac23 .LASF3551
C:\Users\CYMR90~1\AppData\Local\Temp\ccNmN5zT.s:25931  .debug_str:00000000000167ec .LASF3552
C:\Users\CYMR90~1\AppData\Local\Temp\ccNmN5zT.s:24973  .debug_str:0000000000012aea .LASF3553
C:\Users\CYMR90~1\AppData\Local\Temp\ccNmN5zT.s:27028  .debug_str:000000000001b18f .LASF3554
C:\Users\CYMR90~1\AppData\Local\Temp\ccNmN5zT.s:29908  .debug_str:00000000000266d1 .LASF3555
C:\Users\CYMR90~1\AppData\Local\Temp\ccNmN5zT.s:22329  .debug_str:0000000000008128 .LASF3556
C:\Users\CYMR90~1\AppData\Local\Temp\ccNmN5zT.s:21011  .debug_str:0000000000002c3a .LASF3557
C:\Users\CYMR90~1\AppData\Local\Temp\ccNmN5zT.s:28694  .debug_str:00000000000219ea .LASF3558
C:\Users\CYMR90~1\AppData\Local\Temp\ccNmN5zT.s:28036  .debug_str:000000000001f193 .LASF3559
C:\Users\CYMR90~1\AppData\Local\Temp\ccNmN5zT.s:28326  .debug_str:00000000000202e8 .LASF3560
C:\Users\CYMR90~1\AppData\Local\Temp\ccNmN5zT.s:28856  .debug_str:000000000002239f .LASF3561
C:\Users\CYMR90~1\AppData\Local\Temp\ccNmN5zT.s:24483  .debug_str:0000000000010a9f .LASF3562
C:\Users\CYMR90~1\AppData\Local\Temp\ccNmN5zT.s:22041  .debug_str:0000000000006cf7 .LASF3563
C:\Users\CYMR90~1\AppData\Local\Temp\ccNmN5zT.s:31170  .debug_str:000000000002b633 .LASF3564
C:\Users\CYMR90~1\AppData\Local\Temp\ccNmN5zT.s:31000  .debug_str:000000000002ab62 .LASF3565
C:\Users\CYMR90~1\AppData\Local\Temp\ccNmN5zT.s:27718  .debug_str:000000000001de50 .LASF3566
C:\Users\CYMR90~1\AppData\Local\Temp\ccNmN5zT.s:20455  .debug_str:00000000000009f8 .LASF3567
C:\Users\CYMR90~1\AppData\Local\Temp\ccNmN5zT.s:30008  .debug_str:0000000000026cbd .LASF3568
C:\Users\CYMR90~1\AppData\Local\Temp\ccNmN5zT.s:24269  .debug_str:000000000000fd44 .LASF3569
C:\Users\CYMR90~1\AppData\Local\Temp\ccNmN5zT.s:31480  .debug_str:000000000002ca43 .LASF3570
C:\Users\CYMR90~1\AppData\Local\Temp\ccNmN5zT.s:26548  .debug_str:00000000000191b2 .LASF3571
C:\Users\CYMR90~1\AppData\Local\Temp\ccNmN5zT.s:31108  .debug_str:000000000002b1aa .LASF3572
C:\Users\CYMR90~1\AppData\Local\Temp\ccNmN5zT.s:26590  .debug_str:0000000000019413 .LASF3573
C:\Users\CYMR90~1\AppData\Local\Temp\ccNmN5zT.s:28842  .debug_str:00000000000222f3 .LASF3574
C:\Users\CYMR90~1\AppData\Local\Temp\ccNmN5zT.s:25311  .debug_str:000000000001409b .LASF3575
C:\Users\CYMR90~1\AppData\Local\Temp\ccNmN5zT.s:23455  .debug_str:000000000000caa7 .LASF3576
C:\Users\CYMR90~1\AppData\Local\Temp\ccNmN5zT.s:21073  .debug_str:0000000000003000 .LASF3577
C:\Users\CYMR90~1\AppData\Local\Temp\ccNmN5zT.s:26908  .debug_str:000000000001a9d1 .LASF3578
C:\Users\CYMR90~1\AppData\Local\Temp\ccNmN5zT.s:28114  .debug_str:000000000001f629 .LASF3579
C:\Users\CYMR90~1\AppData\Local\Temp\ccNmN5zT.s:30802  .debug_str:0000000000029fa3 .LASF3580
C:\Users\CYMR90~1\AppData\Local\Temp\ccNmN5zT.s:29994  .debug_str:0000000000026c1f .LASF3581
C:\Users\CYMR90~1\AppData\Local\Temp\ccNmN5zT.s:28904  .debug_str:000000000002265c .LASF3582
C:\Users\CYMR90~1\AppData\Local\Temp\ccNmN5zT.s:29580  .debug_str:0000000000025082 .LASF3583
C:\Users\CYMR90~1\AppData\Local\Temp\ccNmN5zT.s:27716  .debug_str:000000000001de34 .LASF3584
C:\Users\CYMR90~1\AppData\Local\Temp\ccNmN5zT.s:27776  .debug_str:000000000001e1ee .LASF3585
C:\Users\CYMR90~1\AppData\Local\Temp\ccNmN5zT.s:26816  .debug_str:000000000001a26f .LASF3586
C:\Users\CYMR90~1\AppData\Local\Temp\ccNmN5zT.s:20357  .debug_str:0000000000000424 .LASF3587
C:\Users\CYMR90~1\AppData\Local\Temp\ccNmN5zT.s:26168  .debug_str:00000000000178b6 .LASF3588
C:\Users\CYMR90~1\AppData\Local\Temp\ccNmN5zT.s:29764  .debug_str:0000000000025ddb .LASF3589
C:\Users\CYMR90~1\AppData\Local\Temp\ccNmN5zT.s:21613  .debug_str:0000000000005323 .LASF3590
C:\Users\CYMR90~1\AppData\Local\Temp\ccNmN5zT.s:20693  .debug_str:000000000000191e .LASF3591
C:\Users\CYMR90~1\AppData\Local\Temp\ccNmN5zT.s:25723  .debug_str:0000000000015a3d .LASF3592
C:\Users\CYMR90~1\AppData\Local\Temp\ccNmN5zT.s:24175  .debug_str:000000000000f6e0 .LASF3593
C:\Users\CYMR90~1\AppData\Local\Temp\ccNmN5zT.s:22697  .debug_str:0000000000009820 .LASF3594
C:\Users\CYMR90~1\AppData\Local\Temp\ccNmN5zT.s:27792  .debug_str:000000000001e2d9 .LASF3595
C:\Users\CYMR90~1\AppData\Local\Temp\ccNmN5zT.s:20787  .debug_str:0000000000001ebf .LASF3596
C:\Users\CYMR90~1\AppData\Local\Temp\ccNmN5zT.s:28096  .debug_str:000000000001f541 .LASF3597
C:\Users\CYMR90~1\AppData\Local\Temp\ccNmN5zT.s:22673  .debug_str:00000000000096be .LASF3598
C:\Users\CYMR90~1\AppData\Local\Temp\ccNmN5zT.s:26292  .debug_str:000000000001807c .LASF3599
C:\Users\CYMR90~1\AppData\Local\Temp\ccNmN5zT.s:29866  .debug_str:0000000000026437 .LASF3600
C:\Users\CYMR90~1\AppData\Local\Temp\ccNmN5zT.s:23813  .debug_str:000000000000e11f .LASF3601
C:\Users\CYMR90~1\AppData\Local\Temp\ccNmN5zT.s:27852  .debug_str:000000000001e67b .LASF3602
C:\Users\CYMR90~1\AppData\Local\Temp\ccNmN5zT.s:31372  .debug_str:000000000002c2fc .LASF3603
C:\Users\CYMR90~1\AppData\Local\Temp\ccNmN5zT.s:24123  .debug_str:000000000000f3ec .LASF3604
C:\Users\CYMR90~1\AppData\Local\Temp\ccNmN5zT.s:28136  .debug_str:000000000001f782 .LASF3605
C:\Users\CYMR90~1\AppData\Local\Temp\ccNmN5zT.s:21483  .debug_str:0000000000004b58 .LASF3606
C:\Users\CYMR90~1\AppData\Local\Temp\ccNmN5zT.s:28032  .debug_str:000000000001f15f .LASF3607
C:\Users\CYMR90~1\AppData\Local\Temp\ccNmN5zT.s:23823  .debug_str:000000000000e1bf .LASF3608
C:\Users\CYMR90~1\AppData\Local\Temp\ccNmN5zT.s:31124  .debug_str:000000000002b2ec .LASF3609
C:\Users\CYMR90~1\AppData\Local\Temp\ccNmN5zT.s:28684  .debug_str:000000000002196e .LASF3610
C:\Users\CYMR90~1\AppData\Local\Temp\ccNmN5zT.s:26064  .debug_str:000000000001725e .LASF3611
C:\Users\CYMR90~1\AppData\Local\Temp\ccNmN5zT.s:27586  .debug_str:000000000001d578 .LASF3612
C:\Users\CYMR90~1\AppData\Local\Temp\ccNmN5zT.s:26112  .debug_str:000000000001751b .LASF3613
C:\Users\CYMR90~1\AppData\Local\Temp\ccNmN5zT.s:29598  .debug_str:000000000002520a .LASF3614
C:\Users\CYMR90~1\AppData\Local\Temp\ccNmN5zT.s:27740  .debug_str:000000000001dfe0 .LASF3615
C:\Users\CYMR90~1\AppData\Local\Temp\ccNmN5zT.s:28656  .debug_str:00000000000217d4 .LASF3616
C:\Users\CYMR90~1\AppData\Local\Temp\ccNmN5zT.s:24377  .debug_str:00000000000103d2 .LASF3617
C:\Users\CYMR90~1\AppData\Local\Temp\ccNmN5zT.s:25509  .debug_str:0000000000014d05 .LASF3618
C:\Users\CYMR90~1\AppData\Local\Temp\ccNmN5zT.s:31500  .debug_str:000000000002cbb9 .LASF3619
C:\Users\CYMR90~1\AppData\Local\Temp\ccNmN5zT.s:23547  .debug_str:000000000000d062 .LASF3620
C:\Users\CYMR90~1\AppData\Local\Temp\ccNmN5zT.s:26342  .debug_str:0000000000018381 .LASF3621
C:\Users\CYMR90~1\AppData\Local\Temp\ccNmN5zT.s:22701  .debug_str:0000000000009852 .LASF3622
C:\Users\CYMR90~1\AppData\Local\Temp\ccNmN5zT.s:29864  .debug_str:000000000002641a .LASF3623
C:\Users\CYMR90~1\AppData\Local\Temp\ccNmN5zT.s:30942  .debug_str:000000000002a802 .LASF3624
C:\Users\CYMR90~1\AppData\Local\Temp\ccNmN5zT.s:23243  .debug_str:000000000000bbfe .LASF3625
C:\Users\CYMR90~1\AppData\Local\Temp\ccNmN5zT.s:30344  .debug_str:00000000000283c8 .LASF3626
C:\Users\CYMR90~1\AppData\Local\Temp\ccNmN5zT.s:27242  .debug_str:000000000001be99 .LASF3627
C:\Users\CYMR90~1\AppData\Local\Temp\ccNmN5zT.s:30814  .debug_str:000000000002a047 .LASF3628
C:\Users\CYMR90~1\AppData\Local\Temp\ccNmN5zT.s:20861  .debug_str:0000000000002295 .LASF3629
C:\Users\CYMR90~1\AppData\Local\Temp\ccNmN5zT.s:23633  .debug_str:000000000000d672 .LASF3630
C:\Users\CYMR90~1\AppData\Local\Temp\ccNmN5zT.s:26684  .debug_str:0000000000019ab4 .LASF3631
C:\Users\CYMR90~1\AppData\Local\Temp\ccNmN5zT.s:26608  .debug_str:0000000000019547 .LASF3632
C:\Users\CYMR90~1\AppData\Local\Temp\ccNmN5zT.s:27032  .debug_str:000000000001b1cf .LASF3633
C:\Users\CYMR90~1\AppData\Local\Temp\ccNmN5zT.s:20869  .debug_str:00000000000022ff .LASF3634
C:\Users\CYMR90~1\AppData\Local\Temp\ccNmN5zT.s:30266  .debug_str:0000000000027dbf .LASF3635
C:\Users\CYMR90~1\AppData\Local\Temp\ccNmN5zT.s:27676  .debug_str:000000000001db76 .LASF3636
C:\Users\CYMR90~1\AppData\Local\Temp\ccNmN5zT.s:29616  .debug_str:00000000000253db .LASF3637
C:\Users\CYMR90~1\AppData\Local\Temp\ccNmN5zT.s:28906  .debug_str:0000000000022678 .LASF3638
C:\Users\CYMR90~1\AppData\Local\Temp\ccNmN5zT.s:28448  .debug_str:0000000000020ac9 .LASF3639
C:\Users\CYMR90~1\AppData\Local\Temp\ccNmN5zT.s:22391  .debug_str:0000000000008541 .LASF3640
C:\Users\CYMR90~1\AppData\Local\Temp\ccNmN5zT.s:31066  .debug_str:000000000002af62 .LASF3641
C:\Users\CYMR90~1\AppData\Local\Temp\ccNmN5zT.s:20415  .debug_str:00000000000007a0 .LASF3642
C:\Users\CYMR90~1\AppData\Local\Temp\ccNmN5zT.s:28958  .debug_str:000000000002299e .LASF3643
C:\Users\CYMR90~1\AppData\Local\Temp\ccNmN5zT.s:25415  .debug_str:0000000000014763 .LASF3644
C:\Users\CYMR90~1\AppData\Local\Temp\ccNmN5zT.s:29230  .debug_str:00000000000239eb .LASF3645
C:\Users\CYMR90~1\AppData\Local\Temp\ccNmN5zT.s:26864  .debug_str:000000000001a69f .LASF3646
C:\Users\CYMR90~1\AppData\Local\Temp\ccNmN5zT.s:26014  .debug_str:0000000000016f73 .LASF3647
C:\Users\CYMR90~1\AppData\Local\Temp\ccNmN5zT.s:26454  .debug_str:0000000000018a7f .LASF3648
C:\Users\CYMR90~1\AppData\Local\Temp\ccNmN5zT.s:30888  .debug_str:000000000002a47a .LASF3649
C:\Users\CYMR90~1\AppData\Local\Temp\ccNmN5zT.s:23595  .debug_str:000000000000d3a2 .LASF3650
C:\Users\CYMR90~1\AppData\Local\Temp\ccNmN5zT.s:26062  .debug_str:0000000000017241 .LASF3651
C:\Users\CYMR90~1\AppData\Local\Temp\ccNmN5zT.s:25391  .debug_str:000000000001458b .LASF3652
C:\Users\CYMR90~1\AppData\Local\Temp\ccNmN5zT.s:25483  .debug_str:0000000000014b71 .LASF3653
C:\Users\CYMR90~1\AppData\Local\Temp\ccNmN5zT.s:27820  .debug_str:000000000001e486 .LASF3654
C:\Users\CYMR90~1\AppData\Local\Temp\ccNmN5zT.s:30686  .debug_str:0000000000029902 .LASF3655
C:\Users\CYMR90~1\AppData\Local\Temp\ccNmN5zT.s:21005  .debug_str:0000000000002bf4 .LASF3656
C:\Users\CYMR90~1\AppData\Local\Temp\ccNmN5zT.s:28014  .debug_str:000000000001f007 .LASF3657
C:\Users\CYMR90~1\AppData\Local\Temp\ccNmN5zT.s:22823  .debug_str:000000000000a00d .LASF3658
C:\Users\CYMR90~1\AppData\Local\Temp\ccNmN5zT.s:21125  .debug_str:0000000000003388 .LASF3659
C:\Users\CYMR90~1\AppData\Local\Temp\ccNmN5zT.s:23065  .debug_str:000000000000b092 .LASF3660
C:\Users\CYMR90~1\AppData\Local\Temp\ccNmN5zT.s:22003  .debug_str:0000000000006a4e .LASF3661
C:\Users\CYMR90~1\AppData\Local\Temp\ccNmN5zT.s:29540  .debug_str:0000000000024e0d .LASF3662
C:\Users\CYMR90~1\AppData\Local\Temp\ccNmN5zT.s:26928  .debug_str:000000000001ab06 .LASF3663
C:\Users\CYMR90~1\AppData\Local\Temp\ccNmN5zT.s:26786  .debug_str:000000000001a0cc .LASF3664
C:\Users\CYMR90~1\AppData\Local\Temp\ccNmN5zT.s:21961  .debug_str:00000000000067c9 .LASF3665
C:\Users\CYMR90~1\AppData\Local\Temp\ccNmN5zT.s:23917  .debug_str:000000000000e785 .LASF3666
C:\Users\CYMR90~1\AppData\Local\Temp\ccNmN5zT.s:23761  .debug_str:000000000000dddd .LASF3667
C:\Users\CYMR90~1\AppData\Local\Temp\ccNmN5zT.s:22397  .debug_str:0000000000008594 .LASF3668
C:\Users\CYMR90~1\AppData\Local\Temp\ccNmN5zT.s:22587  .debug_str:0000000000009148 .LASF3669
C:\Users\CYMR90~1\AppData\Local\Temp\ccNmN5zT.s:23165  .debug_str:000000000000b6ed .LASF3670
C:\Users\CYMR90~1\AppData\Local\Temp\ccNmN5zT.s:21149  .debug_str:000000000000350d .LASF3671
C:\Users\CYMR90~1\AppData\Local\Temp\ccNmN5zT.s:22515  .debug_str:0000000000008cc6 .LASF3672
C:\Users\CYMR90~1\AppData\Local\Temp\ccNmN5zT.s:20337  .debug_str:00000000000002e6 .LASF3673
C:\Users\CYMR90~1\AppData\Local\Temp\ccNmN5zT.s:26058  .debug_str:0000000000017213 .LASF3674
C:\Users\CYMR90~1\AppData\Local\Temp\ccNmN5zT.s:23319  .debug_str:000000000000c1a6 .LASF3675
C:\Users\CYMR90~1\AppData\Local\Temp\ccNmN5zT.s:29164  .debug_str:00000000000235a8 .LASF3676
C:\Users\CYMR90~1\AppData\Local\Temp\ccNmN5zT.s:31240  .debug_str:000000000002baa9 .LASF3677
C:\Users\CYMR90~1\AppData\Local\Temp\ccNmN5zT.s:24869  .debug_str:00000000000123f6 .LASF3678
C:\Users\CYMR90~1\AppData\Local\Temp\ccNmN5zT.s:24723  .debug_str:0000000000011ad2 .LASF3679
C:\Users\CYMR90~1\AppData\Local\Temp\ccNmN5zT.s:27046  .debug_str:000000000001b2e1 .LASF3680
C:\Users\CYMR90~1\AppData\Local\Temp\ccNmN5zT.s:29178  .debug_str:00000000000236b5 .LASF3681
C:\Users\CYMR90~1\AppData\Local\Temp\ccNmN5zT.s:30618  .debug_str:000000000002949f .LASF3682
C:\Users\CYMR90~1\AppData\Local\Temp\ccNmN5zT.s:26700  .debug_str:0000000000019ba4 .LASF3683
C:\Users\CYMR90~1\AppData\Local\Temp\ccNmN5zT.s:27998  .debug_str:000000000001eefb .LASF3684
C:\Users\CYMR90~1\AppData\Local\Temp\ccNmN5zT.s:27744  .debug_str:000000000001e023 .LASF3685
C:\Users\CYMR90~1\AppData\Local\Temp\ccNmN5zT.s:29948  .debug_str:0000000000026957 .LASF3686
C:\Users\CYMR90~1\AppData\Local\Temp\ccNmN5zT.s:20515  .debug_str:0000000000000dda .LASF3687
C:\Users\CYMR90~1\AppData\Local\Temp\ccNmN5zT.s:23987  .debug_str:000000000000ec03 .LASF3688
C:\Users\CYMR90~1\AppData\Local\Temp\ccNmN5zT.s:31322  .debug_str:000000000002c04b .LASF3689
C:\Users\CYMR90~1\AppData\Local\Temp\ccNmN5zT.s:30092  .debug_str:00000000000271d9 .LASF3690
C:\Users\CYMR90~1\AppData\Local\Temp\ccNmN5zT.s:20991  .debug_str:0000000000002ac4 .LASF3691
C:\Users\CYMR90~1\AppData\Local\Temp\ccNmN5zT.s:20665  .debug_str:00000000000016a9 .LASF3692
C:\Users\CYMR90~1\AppData\Local\Temp\ccNmN5zT.s:22121  .debug_str:00000000000072e7 .LASF3693
C:\Users\CYMR90~1\AppData\Local\Temp\ccNmN5zT.s:23521  .debug_str:000000000000cea3 .LASF3694
C:\Users\CYMR90~1\AppData\Local\Temp\ccNmN5zT.s:21861  .debug_str:000000000000620c .LASF3695
C:\Users\CYMR90~1\AppData\Local\Temp\ccNmN5zT.s:28546  .debug_str:000000000002109f .LASF3696
C:\Users\CYMR90~1\AppData\Local\Temp\ccNmN5zT.s:28814  .debug_str:000000000002213b .LASF3697
C:\Users\CYMR90~1\AppData\Local\Temp\ccNmN5zT.s:22679  .debug_str:0000000000009715 .LASF3698
C:\Users\CYMR90~1\AppData\Local\Temp\ccNmN5zT.s:29226  .debug_str:00000000000239bd .LASF3699
C:\Users\CYMR90~1\AppData\Local\Temp\ccNmN5zT.s:31448  .debug_str:000000000002c807 .LASF3700
C:\Users\CYMR90~1\AppData\Local\Temp\ccNmN5zT.s:24311  .debug_str:000000000000ffce .LASF3701
C:\Users\CYMR90~1\AppData\Local\Temp\ccNmN5zT.s:23811  .debug_str:000000000000e106 .LASF3702
C:\Users\CYMR90~1\AppData\Local\Temp\ccNmN5zT.s:27942  .debug_str:000000000001ebc0 .LASF3703
C:\Users\CYMR90~1\AppData\Local\Temp\ccNmN5zT.s:21447  .debug_str:00000000000048a3 .LASF3704
C:\Users\CYMR90~1\AppData\Local\Temp\ccNmN5zT.s:20737  .debug_str:0000000000001bbe .LASF3705
C:\Users\CYMR90~1\AppData\Local\Temp\ccNmN5zT.s:22763  .debug_str:0000000000009c59 .LASF3706
C:\Users\CYMR90~1\AppData\Local\Temp\ccNmN5zT.s:29076  .debug_str:00000000000230b8 .LASF3707
C:\Users\CYMR90~1\AppData\Local\Temp\ccNmN5zT.s:24755  .debug_str:0000000000011ccf .LASF3708
C:\Users\CYMR90~1\AppData\Local\Temp\ccNmN5zT.s:25291  .debug_str:0000000000013f7d .LASF3709
C:\Users\CYMR90~1\AppData\Local\Temp\ccNmN5zT.s:22645  .debug_str:00000000000094b6 .LASF3710
C:\Users\CYMR90~1\AppData\Local\Temp\ccNmN5zT.s:26946  .debug_str:000000000001ac2d .LASF3711
C:\Users\CYMR90~1\AppData\Local\Temp\ccNmN5zT.s:26530  .debug_str:0000000000018fb8 .LASF3712
C:\Users\CYMR90~1\AppData\Local\Temp\ccNmN5zT.s:28396  .debug_str:00000000000207b3 .LASF3713
C:\Users\CYMR90~1\AppData\Local\Temp\ccNmN5zT.s:26212  .debug_str:0000000000017b92 .LASF3714
C:\Users\CYMR90~1\AppData\Local\Temp\ccNmN5zT.s:30384  .debug_str:0000000000028668 .LASF3715
C:\Users\CYMR90~1\AppData\Local\Temp\ccNmN5zT.s:23821  .debug_str:000000000000e1a0 .LASF3716
C:\Users\CYMR90~1\AppData\Local\Temp\ccNmN5zT.s:22309  .debug_str:0000000000007f3c .LASF3717
C:\Users\CYMR90~1\AppData\Local\Temp\ccNmN5zT.s:31380  .debug_str:000000000002c3ae .LASF3718
C:\Users\CYMR90~1\AppData\Local\Temp\ccNmN5zT.s:25611  .debug_str:00000000000153e4 .LASF3719
C:\Users\CYMR90~1\AppData\Local\Temp\ccNmN5zT.s:27318  .debug_str:000000000001c346 .LASF3720
C:\Users\CYMR90~1\AppData\Local\Temp\ccNmN5zT.s:26758  .debug_str:0000000000019f16 .LASF3721
C:\Users\CYMR90~1\AppData\Local\Temp\ccNmN5zT.s:29364  .debug_str:0000000000024230 .LASF3722
C:\Users\CYMR90~1\AppData\Local\Temp\ccNmN5zT.s:28596  .debug_str:0000000000021413 .LASF3723
C:\Users\CYMR90~1\AppData\Local\Temp\ccNmN5zT.s:23193  .debug_str:000000000000b8cf .LASF3724
C:\Users\CYMR90~1\AppData\Local\Temp\ccNmN5zT.s:26808  .debug_str:000000000001a1ff .LASF3725
C:\Users\CYMR90~1\AppData\Local\Temp\ccNmN5zT.s:20303  .debug_str:00000000000000dc .LASF3726
C:\Users\CYMR90~1\AppData\Local\Temp\ccNmN5zT.s:24717  .debug_str:00000000000119dd .LASF3727
C:\Users\CYMR90~1\AppData\Local\Temp\ccNmN5zT.s:28636  .debug_str:000000000002167a .LASF3728
C:\Users\CYMR90~1\AppData\Local\Temp\ccNmN5zT.s:28902  .debug_str:0000000000022637 .LASF3729
C:\Users\CYMR90~1\AppData\Local\Temp\ccNmN5zT.s:25797  .debug_str:0000000000015f22 .LASF3730
C:\Users\CYMR90~1\AppData\Local\Temp\ccNmN5zT.s:30746  .debug_str:0000000000029c5b .LASF3731
C:\Users\CYMR90~1\AppData\Local\Temp\ccNmN5zT.s:23425  .debug_str:000000000000c82d .LASF3732
C:\Users\CYMR90~1\AppData\Local\Temp\ccNmN5zT.s:31564  .debug_str:000000000002cfa1 .LASF3733
C:\Users\CYMR90~1\AppData\Local\Temp\ccNmN5zT.s:29204  .debug_str:0000000000023863 .LASF3734
C:\Users\CYMR90~1\AppData\Local\Temp\ccNmN5zT.s:29632  .debug_str:00000000000254cc .LASF3735
C:\Users\CYMR90~1\AppData\Local\Temp\ccNmN5zT.s:24757  .debug_str:0000000000011ce4 .LASF3736
C:\Users\CYMR90~1\AppData\Local\Temp\ccNmN5zT.s:25117  .debug_str:00000000000134ca .LASF3737
C:\Users\CYMR90~1\AppData\Local\Temp\ccNmN5zT.s:20761  .debug_str:0000000000001d0e .LASF3738
C:\Users\CYMR90~1\AppData\Local\Temp\ccNmN5zT.s:22091  .debug_str:0000000000007081 .LASF3739
C:\Users\CYMR90~1\AppData\Local\Temp\ccNmN5zT.s:31196  .debug_str:000000000002b7a7 .LASF3740
C:\Users\CYMR90~1\AppData\Local\Temp\ccNmN5zT.s:25827  .debug_str:000000000001615b .LASF3741
C:\Users\CYMR90~1\AppData\Local\Temp\ccNmN5zT.s:26620  .debug_str:0000000000019600 .LASF3742
C:\Users\CYMR90~1\AppData\Local\Temp\ccNmN5zT.s:23317  .debug_str:000000000000c181 .LASF3743
C:\Users\CYMR90~1\AppData\Local\Temp\ccNmN5zT.s:24965  .debug_str:0000000000012a43 .LASF3744
C:\Users\CYMR90~1\AppData\Local\Temp\ccNmN5zT.s:20535  .debug_str:0000000000000f82 .LASF3745
C:\Users\CYMR90~1\AppData\Local\Temp\ccNmN5zT.s:26892  .debug_str:000000000001a874 .LASF3746
C:\Users\CYMR90~1\AppData\Local\Temp\ccNmN5zT.s:21365  .debug_str:00000000000042fd .LASF3747
C:\Users\CYMR90~1\AppData\Local\Temp\ccNmN5zT.s:27132  .debug_str:000000000001b7fd .LASF3748
C:\Users\CYMR90~1\AppData\Local\Temp\ccNmN5zT.s:21635  .debug_str:000000000000546b .LASF3749
C:\Users\CYMR90~1\AppData\Local\Temp\ccNmN5zT.s:22745  .debug_str:0000000000009b37 .LASF3750
C:\Users\CYMR90~1\AppData\Local\Temp\ccNmN5zT.s:21905  .debug_str:00000000000064a6 .LASF3751
C:\Users\CYMR90~1\AppData\Local\Temp\ccNmN5zT.s:27634  .debug_str:000000000001d88d .LASF3752
C:\Users\CYMR90~1\AppData\Local\Temp\ccNmN5zT.s:30118  .debug_str:0000000000027456 .LASF3753
C:\Users\CYMR90~1\AppData\Local\Temp\ccNmN5zT.s:28836  .debug_str:000000000002227b .LASF3754
C:\Users\CYMR90~1\AppData\Local\Temp\ccNmN5zT.s:21945  .debug_str:00000000000066fa .LASF3755
C:\Users\CYMR90~1\AppData\Local\Temp\ccNmN5zT.s:30756  .debug_str:0000000000029d08 .LASF3756
C:\Users\CYMR90~1\AppData\Local\Temp\ccNmN5zT.s:28092  .debug_str:000000000001f507 .LASF3757
C:\Users\CYMR90~1\AppData\Local\Temp\ccNmN5zT.s:24013  .debug_str:000000000000ed6e .LASF3758
C:\Users\CYMR90~1\AppData\Local\Temp\ccNmN5zT.s:23017  .debug_str:000000000000accf .LASF3759
C:\Users\CYMR90~1\AppData\Local\Temp\ccNmN5zT.s:20399  .debug_str:000000000000067b .LASF3760
C:\Users\CYMR90~1\AppData\Local\Temp\ccNmN5zT.s:24253  .debug_str:000000000000fc46 .LASF3761
C:\Users\CYMR90~1\AppData\Local\Temp\ccNmN5zT.s:23199  .debug_str:000000000000b925 .LASF3762
C:\Users\CYMR90~1\AppData\Local\Temp\ccNmN5zT.s:23967  .debug_str:000000000000eac1 .LASF3763
C:\Users\CYMR90~1\AppData\Local\Temp\ccNmN5zT.s:22127  .debug_str:0000000000007350 .LASF3764
C:\Users\CYMR90~1\AppData\Local\Temp\ccNmN5zT.s:30186  .debug_str:0000000000027843 .LASF3765
C:\Users\CYMR90~1\AppData\Local\Temp\ccNmN5zT.s:27558  .debug_str:000000000001d39f .LASF3766
C:\Users\CYMR90~1\AppData\Local\Temp\ccNmN5zT.s:25061  .debug_str:000000000001308e .LASF3767
C:\Users\CYMR90~1\AppData\Local\Temp\ccNmN5zT.s:27148  .debug_str:000000000001b8f4 .LASF3768
C:\Users\CYMR90~1\AppData\Local\Temp\ccNmN5zT.s:31158  .debug_str:000000000002b54a .LASF3769
C:\Users\CYMR90~1\AppData\Local\Temp\ccNmN5zT.s:24395  .debug_str:00000000000104ba .LASF3770
C:\Users\CYMR90~1\AppData\Local\Temp\ccNmN5zT.s:30414  .debug_str:00000000000288a3 .LASF3771
C:\Users\CYMR90~1\AppData\Local\Temp\ccNmN5zT.s:23405  .debug_str:000000000000c6f8 .LASF3772
C:\Users\CYMR90~1\AppData\Local\Temp\ccNmN5zT.s:20843  .debug_str:000000000000219d .LASF3773
C:\Users\CYMR90~1\AppData\Local\Temp\ccNmN5zT.s:24373  .debug_str:0000000000010394 .LASF3774
C:\Users\CYMR90~1\AppData\Local\Temp\ccNmN5zT.s:25427  .debug_str:0000000000014806 .LASF3775
C:\Users\CYMR90~1\AppData\Local\Temp\ccNmN5zT.s:24503  .debug_str:0000000000010c0d .LASF3776
C:\Users\CYMR90~1\AppData\Local\Temp\ccNmN5zT.s:28816  .debug_str:0000000000022153 .LASF3777
C:\Users\CYMR90~1\AppData\Local\Temp\ccNmN5zT.s:25177  .debug_str:000000000001387b .LASF3778
C:\Users\CYMR90~1\AppData\Local\Temp\ccNmN5zT.s:22299  .debug_str:0000000000007ea7 .LASF3779
C:\Users\CYMR90~1\AppData\Local\Temp\ccNmN5zT.s:29052  .debug_str:0000000000022f47 .LASF3780
C:\Users\CYMR90~1\AppData\Local\Temp\ccNmN5zT.s:31198  .debug_str:000000000002b7cb .LASF3781
C:\Users\CYMR90~1\AppData\Local\Temp\ccNmN5zT.s:30730  .debug_str:0000000000029b65 .LASF3782
C:\Users\CYMR90~1\AppData\Local\Temp\ccNmN5zT.s:27232  .debug_str:000000000001bdd1 .LASF3783
C:\Users\CYMR90~1\AppData\Local\Temp\ccNmN5zT.s:22095  .debug_str:00000000000070c3 .LASF3784
C:\Users\CYMR90~1\AppData\Local\Temp\ccNmN5zT.s:21681  .debug_str:000000000000571a .LASF3785
C:\Users\CYMR90~1\AppData\Local\Temp\ccNmN5zT.s:22181  .debug_str:000000000000768a .LASF3786
C:\Users\CYMR90~1\AppData\Local\Temp\ccNmN5zT.s:21141  .debug_str:0000000000003492 .LASF3787
C:\Users\CYMR90~1\AppData\Local\Temp\ccNmN5zT.s:29444  .debug_str:0000000000024788 .LASF3788
C:\Users\CYMR90~1\AppData\Local\Temp\ccNmN5zT.s:24321  .debug_str:0000000000010048 .LASF3789
C:\Users\CYMR90~1\AppData\Local\Temp\ccNmN5zT.s:22489  .debug_str:0000000000008b2f .LASF3790
C:\Users\CYMR90~1\AppData\Local\Temp\ccNmN5zT.s:22597  .debug_str:00000000000091fb .LASF3791
C:\Users\CYMR90~1\AppData\Local\Temp\ccNmN5zT.s:28704  .debug_str:0000000000021a7c .LASF3792
C:\Users\CYMR90~1\AppData\Local\Temp\ccNmN5zT.s:30666  .debug_str:00000000000297c4 .LASF3793
C:\Users\CYMR90~1\AppData\Local\Temp\ccNmN5zT.s:28960  .debug_str:00000000000229b8 .LASF3794
C:\Users\CYMR90~1\AppData\Local\Temp\ccNmN5zT.s:30552  .debug_str:00000000000290e9 .LASF3795
C:\Users\CYMR90~1\AppData\Local\Temp\ccNmN5zT.s:20429  .debug_str:0000000000000873 .LASF3796
C:\Users\CYMR90~1\AppData\Local\Temp\ccNmN5zT.s:28784  .debug_str:0000000000021f78 .LASF3797
C:\Users\CYMR90~1\AppData\Local\Temp\ccNmN5zT.s:26016  .debug_str:0000000000016f8b .LASF3798
C:\Users\CYMR90~1\AppData\Local\Temp\ccNmN5zT.s:23025  .debug_str:000000000000ad43 .LASF3799
C:\Users\CYMR90~1\AppData\Local\Temp\ccNmN5zT.s:23579  .debug_str:000000000000d288 .LASF3800
C:\Users\CYMR90~1\AppData\Local\Temp\ccNmN5zT.s:22081  .debug_str:0000000000006f7b .LASF3801
C:\Users\CYMR90~1\AppData\Local\Temp\ccNmN5zT.s:25629  .debug_str:00000000000154c9 .LASF3802
C:\Users\CYMR90~1\AppData\Local\Temp\ccNmN5zT.s:23451  .debug_str:000000000000ca77 .LASF3803
C:\Users\CYMR90~1\AppData\Local\Temp\ccNmN5zT.s:29072  .debug_str:0000000000023079 .LASF3804
C:\Users\CYMR90~1\AppData\Local\Temp\ccNmN5zT.s:27044  .debug_str:000000000001b29e .LASF3805
C:\Users\CYMR90~1\AppData\Local\Temp\ccNmN5zT.s:29006  .debug_str:0000000000022cde .LASF3806
C:\Users\CYMR90~1\AppData\Local\Temp\ccNmN5zT.s:26154  .debug_str:00000000000177da .LASF3807
C:\Users\CYMR90~1\AppData\Local\Temp\ccNmN5zT.s:23883  .debug_str:000000000000e535 .LASF3808
C:\Users\CYMR90~1\AppData\Local\Temp\ccNmN5zT.s:28062  .debug_str:000000000001f2fd .LASF3809
C:\Users\CYMR90~1\AppData\Local\Temp\ccNmN5zT.s:23079  .debug_str:000000000000b167 .LASF3810
C:\Users\CYMR90~1\AppData\Local\Temp\ccNmN5zT.s:25337  .debug_str:0000000000014299 .LASF3811
C:\Users\CYMR90~1\AppData\Local\Temp\ccNmN5zT.s:26290  .debug_str:000000000001805a .LASF3812
C:\Users\CYMR90~1\AppData\Local\Temp\ccNmN5zT.s:30004  .debug_str:0000000000026c8a .LASF3813
C:\Users\CYMR90~1\AppData\Local\Temp\ccNmN5zT.s:22869  .debug_str:000000000000a2dd .LASF3814
C:\Users\CYMR90~1\AppData\Local\Temp\ccNmN5zT.s:21603  .debug_str:0000000000005277 .LASF3815
C:\Users\CYMR90~1\AppData\Local\Temp\ccNmN5zT.s:26588  .debug_str:00000000000193f1 .LASF3816
C:\Users\CYMR90~1\AppData\Local\Temp\ccNmN5zT.s:23123  .debug_str:000000000000b3e1 .LASF3817
C:\Users\CYMR90~1\AppData\Local\Temp\ccNmN5zT.s:23853  .debug_str:000000000000e393 .LASF3818
C:\Users\CYMR90~1\AppData\Local\Temp\ccNmN5zT.s:31298  .debug_str:000000000002be74 .LASF3819
C:\Users\CYMR90~1\AppData\Local\Temp\ccNmN5zT.s:31144  .debug_str:000000000002b44c .LASF3820
C:\Users\CYMR90~1\AppData\Local\Temp\ccNmN5zT.s:23717  .debug_str:000000000000db57 .LASF3821
C:\Users\CYMR90~1\AppData\Local\Temp\ccNmN5zT.s:21689  .debug_str:0000000000005789 .LASF3822
C:\Users\CYMR90~1\AppData\Local\Temp\ccNmN5zT.s:30786  .debug_str:0000000000029eb5 .LASF3823
C:\Users\CYMR90~1\AppData\Local\Temp\ccNmN5zT.s:28508  .debug_str:0000000000020e87 .LASF3824
C:\Users\CYMR90~1\AppData\Local\Temp\ccNmN5zT.s:21693  .debug_str:00000000000057e9 .LASF3825
C:\Users\CYMR90~1\AppData\Local\Temp\ccNmN5zT.s:25747  .debug_str:0000000000015bac .LASF3826
C:\Users\CYMR90~1\AppData\Local\Temp\ccNmN5zT.s:21787  .debug_str:0000000000005d78 .LASF3827
C:\Users\CYMR90~1\AppData\Local\Temp\ccNmN5zT.s:25223  .debug_str:0000000000013b49 .LASF3828
C:\Users\CYMR90~1\AppData\Local\Temp\ccNmN5zT.s:28696  .debug_str:0000000000021a02 .LASF3829
C:\Users\CYMR90~1\AppData\Local\Temp\ccNmN5zT.s:29812  .debug_str:000000000002611c .LASF3830
C:\Users\CYMR90~1\AppData\Local\Temp\ccNmN5zT.s:21517  .debug_str:0000000000004d6e .LASF3831
C:\Users\CYMR90~1\AppData\Local\Temp\ccNmN5zT.s:29290  .debug_str:0000000000023d5d .LASF3832
C:\Users\CYMR90~1\AppData\Local\Temp\ccNmN5zT.s:28430  .debug_str:00000000000209d2 .LASF3833
C:\Users\CYMR90~1\AppData\Local\Temp\ccNmN5zT.s:30940  .debug_str:000000000002a7de .LASF3834
C:\Users\CYMR90~1\AppData\Local\Temp\ccNmN5zT.s:23989  .debug_str:000000000000ec1b .LASF3835
C:\Users\CYMR90~1\AppData\Local\Temp\ccNmN5zT.s:21217  .debug_str:0000000000003931 .LASF3836
C:\Users\CYMR90~1\AppData\Local\Temp\ccNmN5zT.s:23357  .debug_str:000000000000c40c .LASF3837
C:\Users\CYMR90~1\AppData\Local\Temp\ccNmN5zT.s:28520  .debug_str:0000000000020f29 .LASF3838
C:\Users\CYMR90~1\AppData\Local\Temp\ccNmN5zT.s:26392  .debug_str:0000000000018681 .LASF3839
C:\Users\CYMR90~1\AppData\Local\Temp\ccNmN5zT.s:27476  .debug_str:000000000001cda0 .LASF3840
C:\Users\CYMR90~1\AppData\Local\Temp\ccNmN5zT.s:30526  .debug_str:0000000000028f5e .LASF3841
C:\Users\CYMR90~1\AppData\Local\Temp\ccNmN5zT.s:28344  .debug_str:0000000000020425 .LASF3842
C:\Users\CYMR90~1\AppData\Local\Temp\ccNmN5zT.s:31474  .debug_str:000000000002c9f0 .LASF3843
C:\Users\CYMR90~1\AppData\Local\Temp\ccNmN5zT.s:21185  .debug_str:000000000000372f .LASF3844
C:\Users\CYMR90~1\AppData\Local\Temp\ccNmN5zT.s:29614  .debug_str:00000000000253b1 .LASF3845
C:\Users\CYMR90~1\AppData\Local\Temp\ccNmN5zT.s:20553  .debug_str:0000000000001064 .LASF3846
C:\Users\CYMR90~1\AppData\Local\Temp\ccNmN5zT.s:27638  .debug_str:000000000001d8d4 .LASF3847
C:\Users\CYMR90~1\AppData\Local\Temp\ccNmN5zT.s:25095  .debug_str:00000000000132b1 .LASF3848
C:\Users\CYMR90~1\AppData\Local\Temp\ccNmN5zT.s:31558  .debug_str:000000000002cf53 .LASF3849
C:\Users\CYMR90~1\AppData\Local\Temp\ccNmN5zT.s:20979  .debug_str:0000000000002a0f .LASF3850
C:\Users\CYMR90~1\AppData\Local\Temp\ccNmN5zT.s:30062  .debug_str:0000000000027031 .LASF3851
C:\Users\CYMR90~1\AppData\Local\Temp\ccNmN5zT.s:24951  .debug_str:000000000001293f .LASF3852
C:\Users\CYMR90~1\AppData\Local\Temp\ccNmN5zT.s:28336  .debug_str:000000000002036b .LASF3853
C:\Users\CYMR90~1\AppData\Local\Temp\ccNmN5zT.s:28474  .debug_str:0000000000020c82 .LASF3854
C:\Users\CYMR90~1\AppData\Local\Temp\ccNmN5zT.s:20513  .debug_str:0000000000000db8 .LASF3855
C:\Users\CYMR90~1\AppData\Local\Temp\ccNmN5zT.s:27702  .debug_str:000000000001dce4 .LASF3856
C:\Users\CYMR90~1\AppData\Local\Temp\ccNmN5zT.s:22031  .debug_str:0000000000006c17 .LASF3857
C:\Users\CYMR90~1\AppData\Local\Temp\ccNmN5zT.s:30314  .debug_str:000000000002810d .LASF3858
C:\Users\CYMR90~1\AppData\Local\Temp\ccNmN5zT.s:24855  .debug_str:00000000000122e9 .LASF3859
C:\Users\CYMR90~1\AppData\Local\Temp\ccNmN5zT.s:27840  .debug_str:000000000001e59c .LASF3860
C:\Users\CYMR90~1\AppData\Local\Temp\ccNmN5zT.s:26756  .debug_str:0000000000019ee6 .LASF3861
C:\Users\CYMR90~1\AppData\Local\Temp\ccNmN5zT.s:25517  .debug_str:0000000000014da6 .LASF3862
C:\Users\CYMR90~1\AppData\Local\Temp\ccNmN5zT.s:24343  .debug_str:00000000000101d3 .LASF3863
C:\Users\CYMR90~1\AppData\Local\Temp\ccNmN5zT.s:31186  .debug_str:000000000002b6f3 .LASF3864
C:\Users\CYMR90~1\AppData\Local\Temp\ccNmN5zT.s:29528  .debug_str:0000000000024d21 .LASF3865
C:\Users\CYMR90~1\AppData\Local\Temp\ccNmN5zT.s:20723  .debug_str:0000000000001ac0 .LASF3866
C:\Users\CYMR90~1\AppData\Local\Temp\ccNmN5zT.s:30302  .debug_str:0000000000027fe9 .LASF3867
C:\Users\CYMR90~1\AppData\Local\Temp\ccNmN5zT.s:30544  .debug_str:0000000000029050 .LASF3868
C:\Users\CYMR90~1\AppData\Local\Temp\ccNmN5zT.s:23537  .debug_str:000000000000cf9a .LASF3869
C:\Users\CYMR90~1\AppData\Local\Temp\ccNmN5zT.s:31420  .debug_str:000000000002c674 .LASF3870
C:\Users\CYMR90~1\AppData\Local\Temp\ccNmN5zT.s:22971  .debug_str:000000000000a9d0 .LASF3871
C:\Users\CYMR90~1\AppData\Local\Temp\ccNmN5zT.s:29544  .debug_str:0000000000024e47 .LASF3872
C:\Users\CYMR90~1\AppData\Local\Temp\ccNmN5zT.s:22827  .debug_str:000000000000a03a .LASF3873
C:\Users\CYMR90~1\AppData\Local\Temp\ccNmN5zT.s:28580  .debug_str:000000000002127a .LASF3874
C:\Users\CYMR90~1\AppData\Local\Temp\ccNmN5zT.s:21017  .debug_str:0000000000002c8d .LASF3875
C:\Users\CYMR90~1\AppData\Local\Temp\ccNmN5zT.s:26776  .debug_str:000000000001a021 .LASF3876
C:\Users\CYMR90~1\AppData\Local\Temp\ccNmN5zT.s:23637  .debug_str:000000000000d6a7 .LASF3877
C:\Users\CYMR90~1\AppData\Local\Temp\ccNmN5zT.s:21739  .debug_str:0000000000005a98 .LASF3878
C:\Users\CYMR90~1\AppData\Local\Temp\ccNmN5zT.s:30224  .debug_str:0000000000027a84 .LASF3879
C:\Users\CYMR90~1\AppData\Local\Temp\ccNmN5zT.s:24117  .debug_str:000000000000f37e .LASF3880
C:\Users\CYMR90~1\AppData\Local\Temp\ccNmN5zT.s:23313  .debug_str:000000000000c11f .LASF3881
C:\Users\CYMR90~1\AppData\Local\Temp\ccNmN5zT.s:29182  .debug_str:00000000000236ea .LASF3882
C:\Users\CYMR90~1\AppData\Local\Temp\ccNmN5zT.s:20459  .debug_str:0000000000000a43 .LASF3883
C:\Users\CYMR90~1\AppData\Local\Temp\ccNmN5zT.s:24753  .debug_str:0000000000011c9d .LASF3884
C:\Users\CYMR90~1\AppData\Local\Temp\ccNmN5zT.s:29002  .debug_str:0000000000022c9a .LASF3885
C:\Users\CYMR90~1\AppData\Local\Temp\ccNmN5zT.s:21887  .debug_str:000000000000637e .LASF3886
C:\Users\CYMR90~1\AppData\Local\Temp\ccNmN5zT.s:23237  .debug_str:000000000000bba3 .LASF3887
C:\Users\CYMR90~1\AppData\Local\Temp\ccNmN5zT.s:24333  .debug_str:000000000001012a .LASF3888
C:\Users\CYMR90~1\AppData\Local\Temp\ccNmN5zT.s:28556  .debug_str:000000000002110c .LASF3889
C:\Users\CYMR90~1\AppData\Local\Temp\ccNmN5zT.s:21527  .debug_str:0000000000004e18 .LASF3890
C:\Users\CYMR90~1\AppData\Local\Temp\ccNmN5zT.s:25729  .debug_str:0000000000015a85 .LASF3891
C:\Users\CYMR90~1\AppData\Local\Temp\ccNmN5zT.s:30022  .debug_str:0000000000026d9a .LASF3892
C:\Users\CYMR90~1\AppData\Local\Temp\ccNmN5zT.s:23013  .debug_str:000000000000ac83 .LASF3893
C:\Users\CYMR90~1\AppData\Local\Temp\ccNmN5zT.s:25313  .debug_str:00000000000140b6 .LASF3894
C:\Users\CYMR90~1\AppData\Local\Temp\ccNmN5zT.s:27730  .debug_str:000000000001df11 .LASF3895
C:\Users\CYMR90~1\AppData\Local\Temp\ccNmN5zT.s:23517  .debug_str:000000000000ce55 .LASF3896
C:\Users\CYMR90~1\AppData\Local\Temp\ccNmN5zT.s:28742  .debug_str:0000000000021cff .LASF3897
C:\Users\CYMR90~1\AppData\Local\Temp\ccNmN5zT.s:21735  .debug_str:0000000000005a40 .LASF3898
C:\Users\CYMR90~1\AppData\Local\Temp\ccNmN5zT.s:31142  .debug_str:000000000002b41a .LASF3899
C:\Users\CYMR90~1\AppData\Local\Temp\ccNmN5zT.s:24111  .debug_str:000000000000f2fb .LASF3900
C:\Users\CYMR90~1\AppData\Local\Temp\ccNmN5zT.s:28248  .debug_str:000000000001fe61 .LASF3901
C:\Users\CYMR90~1\AppData\Local\Temp\ccNmN5zT.s:21229  .debug_str:0000000000003a1e .LASF3902
C:\Users\CYMR90~1\AppData\Local\Temp\ccNmN5zT.s:24185  .debug_str:000000000000f828 .LASF3903
C:\Users\CYMR90~1\AppData\Local\Temp\ccNmN5zT.s:29802  .debug_str:0000000000026074 .LASF3904
C:\Users\CYMR90~1\AppData\Local\Temp\ccNmN5zT.s:22713  .debug_str:0000000000009954 .LASF3905
C:\Users\CYMR90~1\AppData\Local\Temp\ccNmN5zT.s:27002  .debug_str:000000000001af83 .LASF3906
C:\Users\CYMR90~1\AppData\Local\Temp\ccNmN5zT.s:21335  .debug_str:00000000000040a2 .LASF3907
C:\Users\CYMR90~1\AppData\Local\Temp\ccNmN5zT.s:29362  .debug_str:00000000000241fe .LASF3908
C:\Users\CYMR90~1\AppData\Local\Temp\ccNmN5zT.s:22355  .debug_str:00000000000082de .LASF3909
C:\Users\CYMR90~1\AppData\Local\Temp\ccNmN5zT.s:23955  .debug_str:000000000000e9cd .LASF3910
C:\Users\CYMR90~1\AppData\Local\Temp\ccNmN5zT.s:30818  .debug_str:000000000002a07d .LASF3911
C:\Users\CYMR90~1\AppData\Local\Temp\ccNmN5zT.s:22179  .debug_str:0000000000007658 .LASF3912
C:\Users\CYMR90~1\AppData\Local\Temp\ccNmN5zT.s:28120  .debug_str:000000000001f67c .LASF3913
C:\Users\CYMR90~1\AppData\Local\Temp\ccNmN5zT.s:20939  .debug_str:000000000000277e .LASF3914
C:\Users\CYMR90~1\AppData\Local\Temp\ccNmN5zT.s:26324  .debug_str:0000000000018256 .LASF3915
C:\Users\CYMR90~1\AppData\Local\Temp\ccNmN5zT.s:29496  .debug_str:0000000000024b06 .LASF3916
C:\Users\CYMR90~1\AppData\Local\Temp\ccNmN5zT.s:22363  .debug_str:000000000000835b .LASF3917
C:\Users\CYMR90~1\AppData\Local\Temp\ccNmN5zT.s:29768  .debug_str:0000000000025e1a .LASF3918
C:\Users\CYMR90~1\AppData\Local\Temp\ccNmN5zT.s:24897  .debug_str:00000000000125bb .LASF3919
C:\Users\CYMR90~1\AppData\Local\Temp\ccNmN5zT.s:29058  .debug_str:0000000000022fa2 .LASF3920
C:\Users\CYMR90~1\AppData\Local\Temp\ccNmN5zT.s:22033  .debug_str:0000000000006c64 .LASF3921
C:\Users\CYMR90~1\AppData\Local\Temp\ccNmN5zT.s:24941  .debug_str:000000000001287f .LASF3922
C:\Users\CYMR90~1\AppData\Local\Temp\ccNmN5zT.s:28250  .debug_str:000000000001fe93 .LASF3923
C:\Users\CYMR90~1\AppData\Local\Temp\ccNmN5zT.s:24861  .debug_str:0000000000012376 .LASF3924
C:\Users\CYMR90~1\AppData\Local\Temp\ccNmN5zT.s:29804  .debug_str:00000000000260a6 .LASF3925
C:\Users\CYMR90~1\AppData\Local\Temp\ccNmN5zT.s:28728  .debug_str:0000000000021c21 .LASF3926
C:\Users\CYMR90~1\AppData\Local\Temp\ccNmN5zT.s:23467  .debug_str:000000000000cb6f .LASF3927
C:\Users\CYMR90~1\AppData\Local\Temp\ccNmN5zT.s:23901  .debug_str:000000000000e64a .LASF3928
C:\Users\CYMR90~1\AppData\Local\Temp\ccNmN5zT.s:29370  .debug_str:00000000000242a7 .LASF3929
C:\Users\CYMR90~1\AppData\Local\Temp\ccNmN5zT.s:25743  .debug_str:0000000000015b5b .LASF3930
C:\Users\CYMR90~1\AppData\Local\Temp\ccNmN5zT.s:26166  .debug_str:0000000000017894 .LASF3931
C:\Users\CYMR90~1\AppData\Local\Temp\ccNmN5zT.s:25599  .debug_str:0000000000015321 .LASF3932
C:\Users\CYMR90~1\AppData\Local\Temp\ccNmN5zT.s:25525  .debug_str:0000000000014e2f .LASF3933
C:\Users\CYMR90~1\AppData\Local\Temp\ccNmN5zT.s:28454  .debug_str:0000000000020b29 .LASF3934
C:\Users\CYMR90~1\AppData\Local\Temp\ccNmN5zT.s:25549  .debug_str:0000000000014fe4 .LASF3935
C:\Users\CYMR90~1\AppData\Local\Temp\ccNmN5zT.s:29836  .debug_str:00000000000262a4 .LASF3936
C:\Users\CYMR90~1\AppData\Local\Temp\ccNmN5zT.s:26612  .debug_str:0000000000019576 .LASF3937
C:\Users\CYMR90~1\AppData\Local\Temp\ccNmN5zT.s:24605  .debug_str:0000000000011230 .LASF3938
C:\Users\CYMR90~1\AppData\Local\Temp\ccNmN5zT.s:22275  .debug_str:0000000000007c6f .LASF3939
C:\Users\CYMR90~1\AppData\Local\Temp\ccNmN5zT.s:20621  .debug_str:000000000000141a .LASF3940
C:\Users\CYMR90~1\AppData\Local\Temp\ccNmN5zT.s:24249  .debug_str:000000000000fc00 .LASF3941
C:\Users\CYMR90~1\AppData\Local\Temp\ccNmN5zT.s:25171  .debug_str:000000000001383a .LASF3942
C:\Users\CYMR90~1\AppData\Local\Temp\ccNmN5zT.s:21659  .debug_str:00000000000055ed .LASF3943
C:\Users\CYMR90~1\AppData\Local\Temp\ccNmN5zT.s:23263  .debug_str:000000000000bdd3 .LASF3944
C:\Users\CYMR90~1\AppData\Local\Temp\ccNmN5zT.s:23797  .debug_str:000000000000e041 .LASF3945
C:\Users\CYMR90~1\AppData\Local\Temp\ccNmN5zT.s:22835  .debug_str:000000000000a0d4 .LASF3946
C:\Users\CYMR90~1\AppData\Local\Temp\ccNmN5zT.s:24287  .debug_str:000000000000fe59 .LASF3947
C:\Users\CYMR90~1\AppData\Local\Temp\ccNmN5zT.s:26132  .debug_str:0000000000017675 .LASF3948
C:\Users\CYMR90~1\AppData\Local\Temp\ccNmN5zT.s:25587  .debug_str:0000000000015234 .LASF3949
C:\Users\CYMR90~1\AppData\Local\Temp\ccNmN5zT.s:24979  .debug_str:0000000000012b4e .LASF3950
C:\Users\CYMR90~1\AppData\Local\Temp\ccNmN5zT.s:27312  .debug_str:000000000001c2fc .LASF3951
C:\Users\CYMR90~1\AppData\Local\Temp\ccNmN5zT.s:23905  .debug_str:000000000000e6c9 .LASF3952
C:\Users\CYMR90~1\AppData\Local\Temp\ccNmN5zT.s:20497  .debug_str:0000000000000cdc .LASF3953
C:\Users\CYMR90~1\AppData\Local\Temp\ccNmN5zT.s:30550  .debug_str:00000000000290c5 .LASF3954
C:\Users\CYMR90~1\AppData\Local\Temp\ccNmN5zT.s:25043  .debug_str:0000000000012f53 .LASF3955
C:\Users\CYMR90~1\AppData\Local\Temp\ccNmN5zT.s:27650  .debug_str:000000000001d9b5 .LASF3956
C:\Users\CYMR90~1\AppData\Local\Temp\ccNmN5zT.s:20881  .debug_str:00000000000023ae .LASF3957
C:\Users\CYMR90~1\AppData\Local\Temp\ccNmN5zT.s:20789  .debug_str:0000000000001ed9 .LASF3958
C:\Users\CYMR90~1\AppData\Local\Temp\ccNmN5zT.s:29608  .debug_str:000000000002534a .LASF3959
C:\Users\CYMR90~1\AppData\Local\Temp\ccNmN5zT.s:29384  .debug_str:00000000000243bb .LASF3960
C:\Users\CYMR90~1\AppData\Local\Temp\ccNmN5zT.s:26010  .debug_str:0000000000016f3d .LASF3961
C:\Users\CYMR90~1\AppData\Local\Temp\ccNmN5zT.s:25319  .debug_str:0000000000014145 .LASF3962
C:\Users\CYMR90~1\AppData\Local\Temp\ccNmN5zT.s:30538  .debug_str:000000000002900b .LASF3963
C:\Users\CYMR90~1\AppData\Local\Temp\ccNmN5zT.s:27142  .debug_str:000000000001b897 .LASF3964
C:\Users\CYMR90~1\AppData\Local\Temp\ccNmN5zT.s:21019  .debug_str:0000000000002cbf .LASF3965
C:\Users\CYMR90~1\AppData\Local\Temp\ccNmN5zT.s:30924  .debug_str:000000000002a6e0 .LASF3966
C:\Users\CYMR90~1\AppData\Local\Temp\ccNmN5zT.s:31230  .debug_str:000000000002b9fa .LASF3967
C:\Users\CYMR90~1\AppData\Local\Temp\ccNmN5zT.s:22997  .debug_str:000000000000ab75 .LASF3968
C:\Users\CYMR90~1\AppData\Local\Temp\ccNmN5zT.s:21525  .debug_str:0000000000004df4 .LASF3969
C:\Users\CYMR90~1\AppData\Local\Temp\ccNmN5zT.s:31458  .debug_str:000000000002c8c7 .LASF3970
C:\Users\CYMR90~1\AppData\Local\Temp\ccNmN5zT.s:24737  .debug_str:0000000000011b99 .LASF3971
C:\Users\CYMR90~1\AppData\Local\Temp\ccNmN5zT.s:21309  .debug_str:0000000000003f43 .LASF3972
C:\Users\CYMR90~1\AppData\Local\Temp\ccNmN5zT.s:29248  .debug_str:0000000000023b02 .LASF3973
C:\Users\CYMR90~1\AppData\Local\Temp\ccNmN5zT.s:25845  .debug_str:000000000001626e .LASF3974
C:\Users\CYMR90~1\AppData\Local\Temp\ccNmN5zT.s:24301  .debug_str:000000000000ff43 .LASF3975
C:\Users\CYMR90~1\AppData\Local\Temp\ccNmN5zT.s:30394  .debug_str:0000000000028715 .LASF3976
C:\Users\CYMR90~1\AppData\Local\Temp\ccNmN5zT.s:28390  .debug_str:0000000000020767 .LASF3977
C:\Users\CYMR90~1\AppData\Local\Temp\ccNmN5zT.s:30114  .debug_str:0000000000027417 .LASF3978
C:\Users\CYMR90~1\AppData\Local\Temp\ccNmN5zT.s:30238  .debug_str:0000000000027baf .LASF3979
C:\Users\CYMR90~1\AppData\Local\Temp\ccNmN5zT.s:26870  .debug_str:000000000001a6f7 .LASF3980
C:\Users\CYMR90~1\AppData\Local\Temp\ccNmN5zT.s:23485  .debug_str:000000000000cc8d .LASF3981
C:\Users\CYMR90~1\AppData\Local\Temp\ccNmN5zT.s:31398  .debug_str:000000000002c51f .LASF3982
C:\Users\CYMR90~1\AppData\Local\Temp\ccNmN5zT.s:21425  .debug_str:0000000000004710 .LASF3983
C:\Users\CYMR90~1\AppData\Local\Temp\ccNmN5zT.s:24609  .debug_str:0000000000011286 .LASF3984
C:\Users\CYMR90~1\AppData\Local\Temp\ccNmN5zT.s:27492  .debug_str:000000000001cf2f .LASF3985
C:\Users\CYMR90~1\AppData\Local\Temp\ccNmN5zT.s:29102  .debug_str:00000000000231e7 .LASF3986
C:\Users\CYMR90~1\AppData\Local\Temp\ccNmN5zT.s:30468  .debug_str:0000000000028bf4 .LASF3987
C:\Users\CYMR90~1\AppData\Local\Temp\ccNmN5zT.s:21023  .debug_str:0000000000002d18 .LASF3988
C:\Users\CYMR90~1\AppData\Local\Temp\ccNmN5zT.s:26126  .debug_str:0000000000017612 .LASF3989
C:\Users\CYMR90~1\AppData\Local\Temp\ccNmN5zT.s:25557  .debug_str:0000000000015064 .LASF3990
C:\Users\CYMR90~1\AppData\Local\Temp\ccNmN5zT.s:22173  .debug_str:00000000000075fb .LASF3991
C:\Users\CYMR90~1\AppData\Local\Temp\ccNmN5zT.s:22295  .debug_str:0000000000007e44 .LASF3992
C:\Users\CYMR90~1\AppData\Local\Temp\ccNmN5zT.s:22291  .debug_str:0000000000007e03 .LASF3993
C:\Users\CYMR90~1\AppData\Local\Temp\ccNmN5zT.s:23333  .debug_str:000000000000c26e .LASF3994
C:\Users\CYMR90~1\AppData\Local\Temp\ccNmN5zT.s:31258  .debug_str:000000000002bbcc .LASF3995
C:\Users\CYMR90~1\AppData\Local\Temp\ccNmN5zT.s:20931  .debug_str:00000000000026df .LASF3996
C:\Users\CYMR90~1\AppData\Local\Temp\ccNmN5zT.s:29270  .debug_str:0000000000023c50 .LASF3997
C:\Users\CYMR90~1\AppData\Local\Temp\ccNmN5zT.s:24679  .debug_str:00000000000116e3 .LASF3998
C:\Users\CYMR90~1\AppData\Local\Temp\ccNmN5zT.s:27652  .debug_str:000000000001d9d9 .LASF3999
C:\Users\CYMR90~1\AppData\Local\Temp\ccNmN5zT.s:24325  .debug_str:000000000001008d .LASF4000
C:\Users\CYMR90~1\AppData\Local\Temp\ccNmN5zT.s:20727  .debug_str:0000000000001b0a .LASF4001
C:\Users\CYMR90~1\AppData\Local\Temp\ccNmN5zT.s:28798  .debug_str:000000000002203c .LASF4002
C:\Users\CYMR90~1\AppData\Local\Temp\ccNmN5zT.s:25425  .debug_str:00000000000147e2 .LASF4003
C:\Users\CYMR90~1\AppData\Local\Temp\ccNmN5zT.s:24121  .debug_str:000000000000f3c8 .LASF4004
C:\Users\CYMR90~1\AppData\Local\Temp\ccNmN5zT.s:26696  .debug_str:0000000000019b5a .LASF4005
C:\Users\CYMR90~1\AppData\Local\Temp\ccNmN5zT.s:26578  .debug_str:0000000000019361 .LASF4006
C:\Users\CYMR90~1\AppData\Local\Temp\ccNmN5zT.s:27952  .debug_str:000000000001ec55 .LASF4007
C:\Users\CYMR90~1\AppData\Local\Temp\ccNmN5zT.s:29884  .debug_str:0000000000026571 .LASF4008
C:\Users\CYMR90~1\AppData\Local\Temp\ccNmN5zT.s:28020  .debug_str:000000000001f078 .LASF4009
C:\Users\CYMR90~1\AppData\Local\Temp\ccNmN5zT.s:22649  .debug_str:00000000000094f7 .LASF4010
C:\Users\CYMR90~1\AppData\Local\Temp\ccNmN5zT.s:31042  .debug_str:000000000002adf0 .LASF4011
C:\Users\CYMR90~1\AppData\Local\Temp\ccNmN5zT.s:27528  .debug_str:000000000001d214 .LASF4012
C:\Users\CYMR90~1\AppData\Local\Temp\ccNmN5zT.s:28732  .debug_str:0000000000021c5f .LASF4013
C:\Users\CYMR90~1\AppData\Local\Temp\ccNmN5zT.s:20735  .debug_str:0000000000001b9a .LASF4014
C:\Users\CYMR90~1\AppData\Local\Temp\ccNmN5zT.s:28650  .debug_str:000000000002174b .LASF4015
C:\Users\CYMR90~1\AppData\Local\Temp\ccNmN5zT.s:25275  .debug_str:0000000000013e7c .LASF4016
C:\Users\CYMR90~1\AppData\Local\Temp\ccNmN5zT.s:30936  .debug_str:000000000002a79f .LASF4017
C:\Users\CYMR90~1\AppData\Local\Temp\ccNmN5zT.s:28590  .debug_str:0000000000021313 .LASF4018
C:\Users\CYMR90~1\AppData\Local\Temp\ccNmN5zT.s:25219  .debug_str:0000000000013b0e .LASF4019
C:\Users\CYMR90~1\AppData\Local\Temp\ccNmN5zT.s:29900  .debug_str:0000000000026663 .LASF4020
C:\Users\CYMR90~1\AppData\Local\Temp\ccNmN5zT.s:29730  .debug_str:0000000000025bec .LASF4021
C:\Users\CYMR90~1\AppData\Local\Temp\ccNmN5zT.s:26348  .debug_str:00000000000183d1 .LASF4022
C:\Users\CYMR90~1\AppData\Local\Temp\ccNmN5zT.s:31510  .debug_str:000000000002cc31 .LASF4023
C:\Users\CYMR90~1\AppData\Local\Temp\ccNmN5zT.s:30892  .debug_str:000000000002a4b3 .LASF4024
C:\Users\CYMR90~1\AppData\Local\Temp\ccNmN5zT.s:28804  .debug_str:00000000000220a9 .LASF4025
C:\Users\CYMR90~1\AppData\Local\Temp\ccNmN5zT.s:27670  .debug_str:000000000001dafe .LASF4026
C:\Users\CYMR90~1\AppData\Local\Temp\ccNmN5zT.s:22083  .debug_str:0000000000006fbc .LASF4027
C:\Users\CYMR90~1\AppData\Local\Temp\ccNmN5zT.s:22225  .debug_str:0000000000007932 .LASF4028
C:\Users\CYMR90~1\AppData\Local\Temp\ccNmN5zT.s:26234  .debug_str:0000000000017cec .LASF4029
C:\Users\CYMR90~1\AppData\Local\Temp\ccNmN5zT.s:30180  .debug_str:00000000000277e2 .LASF4030
C:\Users\CYMR90~1\AppData\Local\Temp\ccNmN5zT.s:22811  .debug_str:0000000000009f38 .LASF4031
C:\Users\CYMR90~1\AppData\Local\Temp\ccNmN5zT.s:31332  .debug_str:000000000002c0c2 .LASF4032
C:\Users\CYMR90~1\AppData\Local\Temp\ccNmN5zT.s:22335  .debug_str:0000000000008198 .LASF4033
C:\Users\CYMR90~1\AppData\Local\Temp\ccNmN5zT.s:24669  .debug_str:000000000001164b .LASF4034
C:\Users\CYMR90~1\AppData\Local\Temp\ccNmN5zT.s:27194  .debug_str:000000000001bb44 .LASF4035
C:\Users\CYMR90~1\AppData\Local\Temp\ccNmN5zT.s:31248  .debug_str:000000000002bb49 .LASF4036
C:\Users\CYMR90~1\AppData\Local\Temp\ccNmN5zT.s:25361  .debug_str:00000000000143db .LASF4037
C:\Users\CYMR90~1\AppData\Local\Temp\ccNmN5zT.s:27786  .debug_str:000000000001e281 .LASF4038
C:\Users\CYMR90~1\AppData\Local\Temp\ccNmN5zT.s:30108  .debug_str:00000000000273a7 .LASF4039
C:\Users\CYMR90~1\AppData\Local\Temp\ccNmN5zT.s:21163  .debug_str:00000000000035ea .LASF4040
C:\Users\CYMR90~1\AppData\Local\Temp\ccNmN5zT.s:28486  .debug_str:0000000000020d4d .LASF4041
C:\Users\CYMR90~1\AppData\Local\Temp\ccNmN5zT.s:21075  .debug_str:000000000000301b .LASF4042
C:\Users\CYMR90~1\AppData\Local\Temp\ccNmN5zT.s:28126  .debug_str:000000000001f6e0 .LASF4043
C:\Users\CYMR90~1\AppData\Local\Temp\ccNmN5zT.s:30504  .debug_str:0000000000028dcc .LASF4044
C:\Users\CYMR90~1\AppData\Local\Temp\ccNmN5zT.s:24997  .debug_str:0000000000012c36 .LASF4045
C:\Users\CYMR90~1\AppData\Local\Temp\ccNmN5zT.s:23795  .debug_str:000000000000e01b .LASF4046
C:\Users\CYMR90~1\AppData\Local\Temp\ccNmN5zT.s:20827  .debug_str:00000000000020c6 .LASF4047
C:\Users\CYMR90~1\AppData\Local\Temp\ccNmN5zT.s:22361  .debug_str:0000000000008335 .LASF4048
C:\Users\CYMR90~1\AppData\Local\Temp\ccNmN5zT.s:24701  .debug_str:0000000000011906 .LASF4049
C:\Users\CYMR90~1\AppData\Local\Temp\ccNmN5zT.s:26604  .debug_str:0000000000019505 .LASF4050
C:\Users\CYMR90~1\AppData\Local\Temp\ccNmN5zT.s:24659  .debug_str:0000000000011592 .LASF4051
C:\Users\CYMR90~1\AppData\Local\Temp\ccNmN5zT.s:20383  .debug_str:00000000000005a6 .LASF4052
C:\Users\CYMR90~1\AppData\Local\Temp\ccNmN5zT.s:22723  .debug_str:00000000000099ed .LASF4053
C:\Users\CYMR90~1\AppData\Local\Temp\ccNmN5zT.s:25909  .debug_str:0000000000016686 .LASF4054
C:\Users\CYMR90~1\AppData\Local\Temp\ccNmN5zT.s:23727  .debug_str:000000000000dbdd .LASF4055
C:\Users\CYMR90~1\AppData\Local\Temp\ccNmN5zT.s:22741  .debug_str:0000000000009b00 .LASF4056
C:\Users\CYMR90~1\AppData\Local\Temp\ccNmN5zT.s:26642  .debug_str:000000000001972c .LASF4057
C:\Users\CYMR90~1\AppData\Local\Temp\ccNmN5zT.s:22617  .debug_str:0000000000009329 .LASF4058
C:\Users\CYMR90~1\AppData\Local\Temp\ccNmN5zT.s:26540  .debug_str:0000000000019063 .LASF4059
C:\Users\CYMR90~1\AppData\Local\Temp\ccNmN5zT.s:30460  .debug_str:0000000000028b7c .LASF4060
C:\Users\CYMR90~1\AppData\Local\Temp\ccNmN5zT.s:25491  .debug_str:0000000000014bd8 .LASF4061
C:\Users\CYMR90~1\AppData\Local\Temp\ccNmN5zT.s:27036  .debug_str:000000000001b20e .LASF4062
C:\Users\CYMR90~1\AppData\Local\Temp\ccNmN5zT.s:31040  .debug_str:000000000002adca .LASF4063
C:\Users\CYMR90~1\AppData\Local\Temp\ccNmN5zT.s:23665  .debug_str:000000000000d846 .LASF4064
C:\Users\CYMR90~1\AppData\Local\Temp\ccNmN5zT.s:22797  .debug_str:0000000000009e41 .LASF4065
C:\Users\CYMR90~1\AppData\Local\Temp\ccNmN5zT.s:25129  .debug_str:0000000000013589 .LASF4066
C:\Users\CYMR90~1\AppData\Local\Temp\ccNmN5zT.s:28544  .debug_str:0000000000021079 .LASF4067
C:\Users\CYMR90~1\AppData\Local\Temp\ccNmN5zT.s:30306  .debug_str:0000000000028072 .LASF4068
C:\Users\CYMR90~1\AppData\Local\Temp\ccNmN5zT.s:27618  .debug_str:000000000001d78d .LASF4069
C:\Users\CYMR90~1\AppData\Local\Temp\ccNmN5zT.s:23031  .debug_str:000000000000ad9b .LASF4070
C:\Users\CYMR90~1\AppData\Local\Temp\ccNmN5zT.s:26972  .debug_str:000000000001adb6 .LASF4071
C:\Users\CYMR90~1\AppData\Local\Temp\ccNmN5zT.s:30966  .debug_str:000000000002a96c .LASF4072
C:\Users\CYMR90~1\AppData\Local\Temp\ccNmN5zT.s:26288  .debug_str:0000000000018034 .LASF4073
C:\Users\CYMR90~1\AppData\Local\Temp\ccNmN5zT.s:25099  .debug_str:000000000001333a .LASF4074
C:\Users\CYMR90~1\AppData\Local\Temp\ccNmN5zT.s:31460  .debug_str:000000000002c8eb .LASF4075
C:\Users\CYMR90~1\AppData\Local\Temp\ccNmN5zT.s:24667  .debug_str:0000000000011625 .LASF4076
C:\Users\CYMR90~1\AppData\Local\Temp\ccNmN5zT.s:21111  .debug_str:000000000000327e .LASF4077
C:\Users\CYMR90~1\AppData\Local\Temp\ccNmN5zT.s:30330  .debug_str:0000000000028212 .LASF4078
C:\Users\CYMR90~1\AppData\Local\Temp\ccNmN5zT.s:30912  .debug_str:000000000002a633 .LASF4079
C:\Users\CYMR90~1\AppData\Local\Temp\ccNmN5zT.s:21911  .debug_str:00000000000064f6 .LASF4080
C:\Users\CYMR90~1\AppData\Local\Temp\ccNmN5zT.s:30902  .debug_str:000000000002a55c .LASF4081
C:\Users\CYMR90~1\AppData\Local\Temp\ccNmN5zT.s:23539  .debug_str:000000000000cfcc .LASF4082
C:\Users\CYMR90~1\AppData\Local\Temp\ccNmN5zT.s:27428  .debug_str:000000000001caa9 .LASF4083
C:\Users\CYMR90~1\AppData\Local\Temp\ccNmN5zT.s:31394  .debug_str:000000000002c4d2 .LASF4084
C:\Users\CYMR90~1\AppData\Local\Temp\ccNmN5zT.s:22337  .debug_str:00000000000081be .LASF4085
C:\Users\CYMR90~1\AppData\Local\Temp\ccNmN5zT.s:25481  .debug_str:0000000000014b4b .LASF4086
C:\Users\CYMR90~1\AppData\Local\Temp\ccNmN5zT.s:25011  .debug_str:0000000000012d3d .LASF4087
C:\Users\CYMR90~1\AppData\Local\Temp\ccNmN5zT.s:22901  .debug_str:000000000000a4fa .LASF4088
C:\Users\CYMR90~1\AppData\Local\Temp\ccNmN5zT.s:26826  .debug_str:000000000001a2fc .LASF4089
C:\Users\CYMR90~1\AppData\Local\Temp\ccNmN5zT.s:24335  .debug_str:000000000001015c .LASF4090
C:\Users\CYMR90~1\AppData\Local\Temp\ccNmN5zT.s:27206  .debug_str:000000000001bc2c .LASF4091
C:\Users\CYMR90~1\AppData\Local\Temp\ccNmN5zT.s:27360  .debug_str:000000000001c587 .LASF4092
C:\Users\CYMR90~1\AppData\Local\Temp\ccNmN5zT.s:28652  .debug_str:000000000002176f .LASF4093
C:\Users\CYMR90~1\AppData\Local\Temp\ccNmN5zT.s:23937  .debug_str:000000000000e8c7 .LASF4094
C:\Users\CYMR90~1\AppData\Local\Temp\ccNmN5zT.s:27812  .debug_str:000000000001e3e7 .LASF4095
C:\Users\CYMR90~1\AppData\Local\Temp\ccNmN5zT.s:20471  .debug_str:0000000000000b54 .LASF4096
C:\Users\CYMR90~1\AppData\Local\Temp\ccNmN5zT.s:27366  .debug_str:000000000001c5e5 .LASF4097
C:\Users\CYMR90~1\AppData\Local\Temp\ccNmN5zT.s:28926  .debug_str:00000000000227ca .LASF4098
C:\Users\CYMR90~1\AppData\Local\Temp\ccNmN5zT.s:30770  .debug_str:0000000000029dca .LASF4099
C:\Users\CYMR90~1\AppData\Local\Temp\ccNmN5zT.s:23401  .debug_str:000000000000c6b6 .LASF4100
C:\Users\CYMR90~1\AppData\Local\Temp\ccNmN5zT.s:21915  .debug_str:0000000000006535 .LASF4101
C:\Users\CYMR90~1\AppData\Local\Temp\ccNmN5zT.s:31262  .debug_str:000000000002bc08 .LASF4102
C:\Users\CYMR90~1\AppData\Local\Temp\ccNmN5zT.s:27838  .debug_str:000000000001e576 .LASF4103
C:\Users\CYMR90~1\AppData\Local\Temp\ccNmN5zT.s:27748  .debug_str:000000000001e04c .LASF4104
C:\Users\CYMR90~1\AppData\Local\Temp\ccNmN5zT.s:20413  .debug_str:000000000000077a .LASF4105
C:\Users\CYMR90~1\AppData\Local\Temp\ccNmN5zT.s:31446  .debug_str:000000000002c7e1 .LASF4106
C:\Users\CYMR90~1\AppData\Local\Temp\ccNmN5zT.s:21387  .debug_str:000000000000446f .LASF4107
C:\Users\CYMR90~1\AppData\Local\Temp\ccNmN5zT.s:30706  .debug_str:00000000000299f7 .LASF4108
C:\Users\CYMR90~1\AppData\Local\Temp\ccNmN5zT.s:26704  .debug_str:0000000000019bd6 .LASF4109
C:\Users\CYMR90~1\AppData\Local\Temp\ccNmN5zT.s:29014  .debug_str:0000000000022d3c .LASF4110
C:\Users\CYMR90~1\AppData\Local\Temp\ccNmN5zT.s:31206  .debug_str:000000000002b84d .LASF4111
C:\Users\CYMR90~1\AppData\Local\Temp\ccNmN5zT.s:23817  .debug_str:000000000000e14e .LASF4112
C:\Users\CYMR90~1\AppData\Local\Temp\ccNmN5zT.s:21683  .debug_str:000000000000573c .LASF4113
C:\Users\CYMR90~1\AppData\Local\Temp\ccNmN5zT.s:20341  .debug_str:0000000000000329 .LASF4114
C:\Users\CYMR90~1\AppData\Local\Temp\ccNmN5zT.s:24877  .debug_str:000000000001246b .LASF4115
C:\Users\CYMR90~1\AppData\Local\Temp\ccNmN5zT.s:21261  .debug_str:0000000000003bfd .LASF4116
C:\Users\CYMR90~1\AppData\Local\Temp\ccNmN5zT.s:25349  .debug_str:0000000000014328 .LASF4117
C:\Users\CYMR90~1\AppData\Local\Temp\ccNmN5zT.s:23269  .debug_str:000000000000be4a .LASF4118
C:\Users\CYMR90~1\AppData\Local\Temp\ccNmN5zT.s:20623  .debug_str:000000000000143e .LASF4119
C:\Users\CYMR90~1\AppData\Local\Temp\ccNmN5zT.s:31130  .debug_str:000000000002b365 .LASF4120
C:\Users\CYMR90~1\AppData\Local\Temp\ccNmN5zT.s:28006  .debug_str:000000000001ef8c .LASF4121
C:\Users\CYMR90~1\AppData\Local\Temp\ccNmN5zT.s:28188  .debug_str:000000000001fa9f .LASF4122
C:\Users\CYMR90~1\AppData\Local\Temp\ccNmN5zT.s:31602  .debug_str:000000000002d210 .LASF4123
C:\Users\CYMR90~1\AppData\Local\Temp\ccNmN5zT.s:20617  .debug_str:00000000000013e2 .LASF4124
C:\Users\CYMR90~1\AppData\Local\Temp\ccNmN5zT.s:24805  .debug_str:0000000000011fa8 .LASF4125
C:\Users\CYMR90~1\AppData\Local\Temp\ccNmN5zT.s:27128  .debug_str:000000000001b7bf .LASF4126
C:\Users\CYMR90~1\AppData\Local\Temp\ccNmN5zT.s:29790  .debug_str:0000000000025f70 .LASF4127
C:\Users\CYMR90~1\AppData\Local\Temp\ccNmN5zT.s:25527  .debug_str:0000000000014e51 .LASF4128
C:\Users\CYMR90~1\AppData\Local\Temp\ccNmN5zT.s:20349  .debug_str:00000000000003a0 .LASF4129
C:\Users\CYMR90~1\AppData\Local\Temp\ccNmN5zT.s:21067  .debug_str:0000000000002fb1 .LASF4130
C:\Users\CYMR90~1\AppData\Local\Temp\ccNmN5zT.s:22403  .debug_str:00000000000085de .LASF4131
C:\Users\CYMR90~1\AppData\Local\Temp\ccNmN5zT.s:26318  .debug_str:00000000000181f9 .LASF4132
C:\Users\CYMR90~1\AppData\Local\Temp\ccNmN5zT.s:30256  .debug_str:0000000000027ce1 .LASF4133
C:\Users\CYMR90~1\AppData\Local\Temp\ccNmN5zT.s:30248  .debug_str:0000000000027c57 .LASF4134
C:\Users\CYMR90~1\AppData\Local\Temp\ccNmN5zT.s:31462  .debug_str:000000000002c911 .LASF4135
C:\Users\CYMR90~1\AppData\Local\Temp\ccNmN5zT.s:30822  .debug_str:000000000002a0c6 .LASF4136
C:\Users\CYMR90~1\AppData\Local\Temp\ccNmN5zT.s:26526  .debug_str:0000000000018f85 .LASF4137
C:\Users\CYMR90~1\AppData\Local\Temp\ccNmN5zT.s:20945  .debug_str:0000000000002803 .LASF4138
C:\Users\CYMR90~1\AppData\Local\Temp\ccNmN5zT.s:29696  .debug_str:00000000000259d9 .LASF4139
C:\Users\CYMR90~1\AppData\Local\Temp\ccNmN5zT.s:22343  .debug_str:0000000000008210 .LASF4140
C:\Users\CYMR90~1\AppData\Local\Temp\ccNmN5zT.s:26248  .debug_str:0000000000017dbc .LASF4141
C:\Users\CYMR90~1\AppData\Local\Temp\ccNmN5zT.s:31032  .debug_str:000000000002ad2f .LASF4142
C:\Users\CYMR90~1\AppData\Local\Temp\ccNmN5zT.s:21283  .debug_str:0000000000003d84 .LASF4143
C:\Users\CYMR90~1\AppData\Local\Temp\ccNmN5zT.s:26744  .debug_str:0000000000019e67 .LASF4144
C:\Users\CYMR90~1\AppData\Local\Temp\ccNmN5zT.s:30764  .debug_str:0000000000029d70 .LASF4145
C:\Users\CYMR90~1\AppData\Local\Temp\ccNmN5zT.s:29176  .debug_str:000000000002368f .LASF4146
C:\Users\CYMR90~1\AppData\Local\Temp\ccNmN5zT.s:28222  .debug_str:000000000001fcc3 .LASF4147
C:\Users\CYMR90~1\AppData\Local\Temp\ccNmN5zT.s:29524  .debug_str:0000000000024ce8 .LASF4148
C:\Users\CYMR90~1\AppData\Local\Temp\ccNmN5zT.s:31550  .debug_str:000000000002cef7 .LASF4149
C:\Users\CYMR90~1\AppData\Local\Temp\ccNmN5zT.s:26186  .debug_str:0000000000017a16 .LASF4150
C:\Users\CYMR90~1\AppData\Local\Temp\ccNmN5zT.s:22495  .debug_str:0000000000008ba1 .LASF4151
C:\Users\CYMR90~1\AppData\Local\Temp\ccNmN5zT.s:26916  .debug_str:000000000001aa45 .LASF4152
C:\Users\CYMR90~1\AppData\Local\Temp\ccNmN5zT.s:27150  .debug_str:000000000001b918 .LASF4153
C:\Users\CYMR90~1\AppData\Local\Temp\ccNmN5zT.s:30696  .debug_str:000000000002996d .LASF4154
C:\Users\CYMR90~1\AppData\Local\Temp\ccNmN5zT.s:23327  .debug_str:000000000000c21b .LASF4155
C:\Users\CYMR90~1\AppData\Local\Temp\ccNmN5zT.s:23741  .debug_str:000000000000dc84 .LASF4156
C:\Users\CYMR90~1\AppData\Local\Temp\ccNmN5zT.s:24197  .debug_str:000000000000f8eb .LASF4157
C:\Users\CYMR90~1\AppData\Local\Temp\ccNmN5zT.s:22201  .debug_str:00000000000077cf .LASF4158
C:\Users\CYMR90~1\AppData\Local\Temp\ccNmN5zT.s:26122  .debug_str:00000000000175d4 .LASF4159
C:\Users\CYMR90~1\AppData\Local\Temp\ccNmN5zT.s:29154  .debug_str:00000000000234ea .LASF4160
C:\Users\CYMR90~1\AppData\Local\Temp\ccNmN5zT.s:22677  .debug_str:00000000000096ef .LASF4161
C:\Users\CYMR90~1\AppData\Local\Temp\ccNmN5zT.s:31516  .debug_str:000000000002cc89 .LASF4162
C:\Users\CYMR90~1\AppData\Local\Temp\ccNmN5zT.s:30636  .debug_str:00000000000295cd .LASF4163
C:\Users\CYMR90~1\AppData\Local\Temp\ccNmN5zT.s:28156  .debug_str:000000000001f881 .LASF4164
C:\Users\CYMR90~1\AppData\Local\Temp\ccNmN5zT.s:27222  .debug_str:000000000001bd28 .LASF4165
C:\Users\CYMR90~1\AppData\Local\Temp\ccNmN5zT.s:29546  .debug_str:0000000000024e79 .LASF4166
C:\Users\CYMR90~1\AppData\Local\Temp\ccNmN5zT.s:25589  .debug_str:0000000000015258 .LASF4167
C:\Users\CYMR90~1\AppData\Local\Temp\ccNmN5zT.s:26066  .debug_str:000000000001727a .LASF4168
C:\Users\CYMR90~1\AppData\Local\Temp\ccNmN5zT.s:27514  .debug_str:000000000001d129 .LASF4169
C:\Users\CYMR90~1\AppData\Local\Temp\ccNmN5zT.s:20523  .debug_str:0000000000000e46 .LASF4170
C:\Users\CYMR90~1\AppData\Local\Temp\ccNmN5zT.s:26556  .debug_str:000000000001922c .LASF4171
C:\Users\CYMR90~1\AppData\Local\Temp\ccNmN5zT.s:26072  .debug_str:00000000000172e6 .LASF4172
C:\Users\CYMR90~1\AppData\Local\Temp\ccNmN5zT.s:28386  .debug_str:000000000002072a .LASF4173
C:\Users\CYMR90~1\AppData\Local\Temp\ccNmN5zT.s:30744  .debug_str:0000000000029c35 .LASF4174
C:\Users\CYMR90~1\AppData\Local\Temp\ccNmN5zT.s:31052  .debug_str:000000000002ae84 .LASF4175
C:\Users\CYMR90~1\AppData\Local\Temp\ccNmN5zT.s:24115  .debug_str:000000000000f358 .LASF4176
C:\Users\CYMR90~1\AppData\Local\Temp\ccNmN5zT.s:31468  .debug_str:000000000002c98a .LASF4177
C:\Users\CYMR90~1\AppData\Local\Temp\ccNmN5zT.s:29922  .debug_str:00000000000267c2 .LASF4178
C:\Users\CYMR90~1\AppData\Local\Temp\ccNmN5zT.s:24065  .debug_str:000000000000f029 .LASF4179
C:\Users\CYMR90~1\AppData\Local\Temp\ccNmN5zT.s:26488  .debug_str:0000000000018d2c .LASF4180
C:\Users\CYMR90~1\AppData\Local\Temp\ccNmN5zT.s:29570  .debug_str:0000000000024fed .LASF4181
C:\Users\CYMR90~1\AppData\Local\Temp\ccNmN5zT.s:29398  .debug_str:00000000000244b2 .LASF4182
C:\Users\CYMR90~1\AppData\Local\Temp\ccNmN5zT.s:27062  .debug_str:000000000001b3de .LASF4183
C:\Users\CYMR90~1\AppData\Local\Temp\ccNmN5zT.s:30982  .debug_str:000000000002aa46 .LASF4184
C:\Users\CYMR90~1\AppData\Local\Temp\ccNmN5zT.s:23617  .debug_str:000000000000d543 .LASF4185
C:\Users\CYMR90~1\AppData\Local\Temp\ccNmN5zT.s:29924  .debug_str:00000000000267e8 .LASF4186
C:\Users\CYMR90~1\AppData\Local\Temp\ccNmN5zT.s:25971  .debug_str:0000000000016a96 .LASF4187
C:\Users\CYMR90~1\AppData\Local\Temp\ccNmN5zT.s:22499  .debug_str:0000000000008bdb .LASF4188
C:\Users\CYMR90~1\AppData\Local\Temp\ccNmN5zT.s:26412  .debug_str:00000000000187b3 .LASF4189
C:\Users\CYMR90~1\AppData\Local\Temp\ccNmN5zT.s:24467  .debug_str:0000000000010980 .LASF4190
C:\Users\CYMR90~1\AppData\Local\Temp\ccNmN5zT.s:23069  .debug_str:000000000000b0d1 .LASF4191
C:\Users\CYMR90~1\AppData\Local\Temp\ccNmN5zT.s:26448  .debug_str:0000000000018a07 .LASF4192
C:\Users\CYMR90~1\AppData\Local\Temp\ccNmN5zT.s:26664  .debug_str:00000000000198f7 .LASF4193
C:\Users\CYMR90~1\AppData\Local\Temp\ccNmN5zT.s:31136  .debug_str:000000000002b3bb .LASF4194
C:\Users\CYMR90~1\AppData\Local\Temp\ccNmN5zT.s:22123  .debug_str:000000000000730f .LASF4195
C:\Users\CYMR90~1\AppData\Local\Temp\ccNmN5zT.s:31410  .debug_str:000000000002c5e2 .LASF4196
C:\Users\CYMR90~1\AppData\Local\Temp\ccNmN5zT.s:28436  .debug_str:0000000000020a35 .LASF4197
C:\Users\CYMR90~1\AppData\Local\Temp\ccNmN5zT.s:22067  .debug_str:0000000000006ea5 .LASF4198
C:\Users\CYMR90~1\AppData\Local\Temp\ccNmN5zT.s:30366  .debug_str:0000000000028522 .LASF4199
C:\Users\CYMR90~1\AppData\Local\Temp\ccNmN5zT.s:23001  .debug_str:000000000000abbf .LASF4200
C:\Users\CYMR90~1\AppData\Local\Temp\ccNmN5zT.s:21673  .debug_str:000000000000569c .LASF4201
C:\Users\CYMR90~1\AppData\Local\Temp\ccNmN5zT.s:22441  .debug_str:0000000000008812 .LASF4202
C:\Users\CYMR90~1\AppData\Local\Temp\ccNmN5zT.s:23493  .debug_str:000000000000cd07 .LASF4203
C:\Users\CYMR90~1\AppData\Local\Temp\ccNmN5zT.s:27378  .debug_str:000000000001c6c2 .LASF4204
C:\Users\CYMR90~1\AppData\Local\Temp\ccNmN5zT.s:31342  .debug_str:000000000002c14a .LASF4205
C:\Users\CYMR90~1\AppData\Local\Temp\ccNmN5zT.s:24053  .debug_str:000000000000ef84 .LASF4206
C:\Users\CYMR90~1\AppData\Local\Temp\ccNmN5zT.s:28162  .debug_str:000000000001f8f4 .LASF4207
C:\Users\CYMR90~1\AppData\Local\Temp\ccNmN5zT.s:27296  .debug_str:000000000001c21d .LASF4208
C:\Users\CYMR90~1\AppData\Local\Temp\ccNmN5zT.s:31164  .debug_str:000000000002b5b4 .LASF4209
C:\Users\CYMR90~1\AppData\Local\Temp\ccNmN5zT.s:26876  .debug_str:000000000001a74c .LASF4210
C:\Users\CYMR90~1\AppData\Local\Temp\ccNmN5zT.s:29504  .debug_str:0000000000024ba7 .LASF4211
C:\Users\CYMR90~1\AppData\Local\Temp\ccNmN5zT.s:26844  .debug_str:000000000001a5c8 .LASF4212
C:\Users\CYMR90~1\AppData\Local\Temp\ccNmN5zT.s:27306  .debug_str:000000000001c2a8 .LASF4213
C:\Users\CYMR90~1\AppData\Local\Temp\ccNmN5zT.s:20419  .debug_str:00000000000007d9 .LASF4214
C:\Users\CYMR90~1\AppData\Local\Temp\ccNmN5zT.s:23415  .debug_str:000000000000c77f .LASF4215
C:\Users\CYMR90~1\AppData\Local\Temp\ccNmN5zT.s:23589  .debug_str:000000000000d33c .LASF4216
C:\Users\CYMR90~1\AppData\Local\Temp\ccNmN5zT.s:21743  .debug_str:0000000000005b06 .LASF4217
C:\Users\CYMR90~1\AppData\Local\Temp\ccNmN5zT.s:22871  .debug_str:000000000000a2ff .LASF4218
C:\Users\CYMR90~1\AppData\Local\Temp\ccNmN5zT.s:26790  .debug_str:000000000001a0fe .LASF4219
C:\Users\CYMR90~1\AppData\Local\Temp\ccNmN5zT.s:30718  .debug_str:0000000000029ab4 .LASF4220
C:\Users\CYMR90~1\AppData\Local\Temp\ccNmN5zT.s:23351  .debug_str:000000000000c38b .LASF4221
C:\Users\CYMR90~1\AppData\Local\Temp\ccNmN5zT.s:27248  .debug_str:000000000001bef7 .LASF4222
C:\Users\CYMR90~1\AppData\Local\Temp\ccNmN5zT.s:27486  .debug_str:000000000001cede .LASF4223
C:\Users\CYMR90~1\AppData\Local\Temp\ccNmN5zT.s:26936  .debug_str:000000000001ab9f .LASF4224
C:\Users\CYMR90~1\AppData\Local\Temp\ccNmN5zT.s:27782  .debug_str:000000000001e24b .LASF4225
C:\Users\CYMR90~1\AppData\Local\Temp\ccNmN5zT.s:31412  .debug_str:000000000002c608 .LASF4226
C:\Users\CYMR90~1\AppData\Local\Temp\ccNmN5zT.s:22959  .debug_str:000000000000a93f .LASF4227
C:\Users\CYMR90~1\AppData\Local\Temp\ccNmN5zT.s:21415  .debug_str:0000000000004675 .LASF4228
C:\Users\CYMR90~1\AppData\Local\Temp\ccNmN5zT.s:25449  .debug_str:0000000000014963 .LASF4229
C:\Users\CYMR90~1\AppData\Local\Temp\ccNmN5zT.s:29374  .debug_str:00000000000242ed .LASF4230
C:\Users\CYMR90~1\AppData\Local\Temp\ccNmN5zT.s:21991  .debug_str:00000000000069ad .LASF4231
C:\Users\CYMR90~1\AppData\Local\Temp\ccNmN5zT.s:28864  .debug_str:0000000000022418 .LASF4232
C:\Users\CYMR90~1\AppData\Local\Temp\ccNmN5zT.s:31244  .debug_str:000000000002bae8 .LASF4233
C:\Users\CYMR90~1\AppData\Local\Temp\ccNmN5zT.s:21975  .debug_str:00000000000068a2 .LASF4234
C:\Users\CYMR90~1\AppData\Local\Temp\ccNmN5zT.s:26406  .debug_str:0000000000018767 .LASF4235
C:\Users\CYMR90~1\AppData\Local\Temp\ccNmN5zT.s:30428  .debug_str:0000000000028984 .LASF4236
C:\Users\CYMR90~1\AppData\Local\Temp\ccNmN5zT.s:29766  .debug_str:0000000000025df4 .LASF4237
C:\Users\CYMR90~1\AppData\Local\Temp\ccNmN5zT.s:25385  .debug_str:0000000000014516 .LASF4238
C:\Users\CYMR90~1\AppData\Local\Temp\ccNmN5zT.s:29456  .debug_str:0000000000024846 .LASF4239
C:\Users\CYMR90~1\AppData\Local\Temp\ccNmN5zT.s:30058  .debug_str:0000000000026ff7 .LASF4240
C:\Users\CYMR90~1\AppData\Local\Temp\ccNmN5zT.s:27584  .debug_str:000000000001d552 .LASF4241
C:\Users\CYMR90~1\AppData\Local\Temp\ccNmN5zT.s:28316  .debug_str:000000000002025f .LASF4242
C:\Users\CYMR90~1\AppData\Local\Temp\ccNmN5zT.s:24449  .debug_str:0000000000010875 .LASF4243
C:\Users\CYMR90~1\AppData\Local\Temp\ccNmN5zT.s:28022  .debug_str:000000000001f09c .LASF4244
C:\Users\CYMR90~1\AppData\Local\Temp\ccNmN5zT.s:23749  .debug_str:000000000000dd0b .LASF4245
C:\Users\CYMR90~1\AppData\Local\Temp\ccNmN5zT.s:22315  .debug_str:0000000000007fb1 .LASF4246
C:\Users\CYMR90~1\AppData\Local\Temp\ccNmN5zT.s:29654  .debug_str:0000000000025665 .LASF4247
C:\Users\CYMR90~1\AppData\Local\Temp\ccNmN5zT.s:31264  .debug_str:000000000002bc2e .LASF4248
C:\Users\CYMR90~1\AppData\Local\Temp\ccNmN5zT.s:22669  .debug_str:0000000000009676 .LASF4249
C:\Users\CYMR90~1\AppData\Local\Temp\ccNmN5zT.s:25785  .debug_str:0000000000015e40 .LASF4250
C:\Users\CYMR90~1\AppData\Local\Temp\ccNmN5zT.s:29712  .debug_str:0000000000025ac6 .LASF4251
C:\Users\CYMR90~1\AppData\Local\Temp\ccNmN5zT.s:24871  .debug_str:0000000000012410 .LASF4252
C:\Users\CYMR90~1\AppData\Local\Temp\ccNmN5zT.s:24915  .debug_str:00000000000126e2 .LASF4253
C:\Users\CYMR90~1\AppData\Local\Temp\ccNmN5zT.s:23523  .debug_str:000000000000cebb .LASF4254
C:\Users\CYMR90~1\AppData\Local\Temp\ccNmN5zT.s:22931  .debug_str:000000000000a67e .LASF4255
C:\Users\CYMR90~1\AppData\Local\Temp\ccNmN5zT.s:26866  .debug_str:000000000001a6b9 .LASF4256
C:\Users\CYMR90~1\AppData\Local\Temp\ccNmN5zT.s:23933  .debug_str:000000000000e891 .LASF4257
C:\Users\CYMR90~1\AppData\Local\Temp\ccNmN5zT.s:21785  .debug_str:0000000000005d52 .LASF4258
C:\Users\CYMR90~1\AppData\Local\Temp\ccNmN5zT.s:28052  .debug_str:000000000001f270 .LASF4259
C:\Users\CYMR90~1\AppData\Local\Temp\ccNmN5zT.s:29650  .debug_str:0000000000025613 .LASF4260
C:\Users\CYMR90~1\AppData\Local\Temp\ccNmN5zT.s:29436  .debug_str:0000000000024702 .LASF4261
C:\Users\CYMR90~1\AppData\Local\Temp\ccNmN5zT.s:21345  .debug_str:00000000000041d9 .LASF4262
C:\Users\CYMR90~1\AppData\Local\Temp\ccNmN5zT.s:27034  .debug_str:000000000001b1e8 .LASF4263
C:\Users\CYMR90~1\AppData\Local\Temp\ccNmN5zT.s:24533  .debug_str:0000000000010e20 .LASF4264
C:\Users\CYMR90~1\AppData\Local\Temp\ccNmN5zT.s:26782  .debug_str:000000000001a087 .LASF4265
C:\Users\CYMR90~1\AppData\Local\Temp\ccNmN5zT.s:30712  .debug_str:0000000000029a4a .LASF4266
C:\Users\CYMR90~1\AppData\Local\Temp\ccNmN5zT.s:30040  .debug_str:0000000000026edf .LASF4267
C:\Users\CYMR90~1\AppData\Local\Temp\ccNmN5zT.s:25659  .debug_str:0000000000015660 .LASF4268
C:\Users\CYMR90~1\AppData\Local\Temp\ccNmN5zT.s:31352  .debug_str:000000000002c1f5 .LASF4269
C:\Users\CYMR90~1\AppData\Local\Temp\ccNmN5zT.s:22209  .debug_str:0000000000007838 .LASF4270
C:\Users\CYMR90~1\AppData\Local\Temp\ccNmN5zT.s:29594  .debug_str:00000000000251ce .LASF4271
C:\Users\CYMR90~1\AppData\Local\Temp\ccNmN5zT.s:31596  .debug_str:000000000002d1ac .LASF4272
C:\Users\CYMR90~1\AppData\Local\Temp\ccNmN5zT.s:21511  .debug_str:0000000000004d13 .LASF4273
C:\Users\CYMR90~1\AppData\Local\Temp\ccNmN5zT.s:26720  .debug_str:0000000000019ce6 .LASF4274
C:\Users\CYMR90~1\AppData\Local\Temp\ccNmN5zT.s:21737  .debug_str:0000000000005a72 .LASF4275
C:\Users\CYMR90~1\AppData\Local\Temp\ccNmN5zT.s:23275  .debug_str:000000000000bea8 .LASF4276
C:\Users\CYMR90~1\AppData\Local\Temp\ccNmN5zT.s:24597  .debug_str:00000000000111ac .LASF4277
C:\Users\CYMR90~1\AppData\Local\Temp\ccNmN5zT.s:22771  .debug_str:0000000000009cb9 .LASF4278
C:\Users\CYMR90~1\AppData\Local\Temp\ccNmN5zT.s:29808  .debug_str:00000000000260e3 .LASF4279
C:\Users\CYMR90~1\AppData\Local\Temp\ccNmN5zT.s:26158  .debug_str:0000000000017819 .LASF4280
C:\Users\CYMR90~1\AppData\Local\Temp\ccNmN5zT.s:26656  .debug_str:000000000001984d .LASF4281
C:\Users\CYMR90~1\AppData\Local\Temp\ccNmN5zT.s:27368  .debug_str:000000000001c60b .LASF4282
C:\Users\CYMR90~1\AppData\Local\Temp\ccNmN5zT.s:26660  .debug_str:00000000000198ac .LASF4283
C:\Users\CYMR90~1\AppData\Local\Temp\ccNmN5zT.s:30582  .debug_str:00000000000292a5 .LASF4284
C:\Users\CYMR90~1\AppData\Local\Temp\ccNmN5zT.s:20715  .debug_str:0000000000001a50 .LASF4285
C:\Users\CYMR90~1\AppData\Local\Temp\ccNmN5zT.s:23083  .debug_str:000000000000b1c0 .LASF4286
C:\Users\CYMR90~1\AppData\Local\Temp\ccNmN5zT.s:24225  .debug_str:000000000000fa75 .LASF4287
C:\Users\CYMR90~1\AppData\Local\Temp\ccNmN5zT.s:22077  .debug_str:0000000000006f2e .LASF4288
C:\Users\CYMR90~1\AppData\Local\Temp\ccNmN5zT.s:26100  .debug_str:0000000000017480 .LASF4289
C:\Users\CYMR90~1\AppData\Local\Temp\ccNmN5zT.s:30032  .debug_str:0000000000026e67 .LASF4290
C:\Users\CYMR90~1\AppData\Local\Temp\ccNmN5zT.s:28528  .debug_str:0000000000020f98 .LASF4291
C:\Users\CYMR90~1\AppData\Local\Temp\ccNmN5zT.s:26592  .debug_str:000000000001942e .LASF4292
C:\Users\CYMR90~1\AppData\Local\Temp\ccNmN5zT.s:21897  .debug_str:000000000000643c .LASF4293
C:\Users\CYMR90~1\AppData\Local\Temp\ccNmN5zT.s:23149  .debug_str:000000000000b5e5 .LASF4294
C:\Users\CYMR90~1\AppData\Local\Temp\ccNmN5zT.s:26584  .debug_str:00000000000193b8 .LASF4295
C:\Users\CYMR90~1\AppData\Local\Temp\ccNmN5zT.s:20575  .debug_str:00000000000011c2 .LASF4296
C:\Users\CYMR90~1\AppData\Local\Temp\ccNmN5zT.s:21815  .debug_str:0000000000005f19 .LASF4297
C:\Users\CYMR90~1\AppData\Local\Temp\ccNmN5zT.s:26040  .debug_str:0000000000017113 .LASF4298
C:\Users\CYMR90~1\AppData\Local\Temp\ccNmN5zT.s:29960  .debug_str:00000000000269fb .LASF4299
C:\Users\CYMR90~1\AppData\Local\Temp\ccNmN5zT.s:22603  .debug_str:0000000000009244 .LASF4300
C:\Users\CYMR90~1\AppData\Local\Temp\ccNmN5zT.s:20679  .debug_str:0000000000001823 .LASF4301
C:\Users\CYMR90~1\AppData\Local\Temp\ccNmN5zT.s:26698  .debug_str:0000000000019b7e .LASF4302
C:\Users\CYMR90~1\AppData\Local\Temp\ccNmN5zT.s:27722  .debug_str:000000000001de99 .LASF4303
C:\Users\CYMR90~1\AppData\Local\Temp\ccNmN5zT.s:27024  .debug_str:000000000001b14f .LASF4304
C:\Users\CYMR90~1\AppData\Local\Temp\ccNmN5zT.s:30930  .debug_str:000000000002a74a .LASF4305
C:\Users\CYMR90~1\AppData\Local\Temp\ccNmN5zT.s:23655  .debug_str:000000000000d7d0 .LASF4306
C:\Users\CYMR90~1\AppData\Local\Temp\ccNmN5zT.s:20685  .debug_str:0000000000001889 .LASF4307
C:\Users\CYMR90~1\AppData\Local\Temp\ccNmN5zT.s:29898  .debug_str:000000000002663d .LASF4308
C:\Users\CYMR90~1\AppData\Local\Temp\ccNmN5zT.s:24299  .debug_str:000000000000ff1d .LASF4309
C:\Users\CYMR90~1\AppData\Local\Temp\ccNmN5zT.s:26762  .debug_str:0000000000019f59 .LASF4310
C:\Users\CYMR90~1\AppData\Local\Temp\ccNmN5zT.s:28920  .debug_str:000000000002274c .LASF4311
C:\Users\CYMR90~1\AppData\Local\Temp\ccNmN5zT.s:31294  .debug_str:000000000002be07 .LASF4312
C:\Users\CYMR90~1\AppData\Local\Temp\ccNmN5zT.s:26962  .debug_str:000000000001ad18 .LASF4313
C:\Users\CYMR90~1\AppData\Local\Temp\ccNmN5zT.s:30866  .debug_str:000000000002a335 .LASF4314
C:\Users\CYMR90~1\AppData\Local\Temp\ccNmN5zT.s:27798  .debug_str:000000000001e320 .LASF4315
C:\Users\CYMR90~1\AppData\Local\Temp\ccNmN5zT.s:24241  .debug_str:000000000000fb6b .LASF4316
C:\Users\CYMR90~1\AppData\Local\Temp\ccNmN5zT.s:24583  .debug_str:00000000000110cc .LASF4317
C:\Users\CYMR90~1\AppData\Local\Temp\ccNmN5zT.s:22469  .debug_str:0000000000008a06 .LASF4318
C:\Users\CYMR90~1\AppData\Local\Temp\ccNmN5zT.s:22547  .debug_str:0000000000008f2b .LASF4319
C:\Users\CYMR90~1\AppData\Local\Temp\ccNmN5zT.s:27516  .debug_str:000000000001d14f .LASF4320
C:\Users\CYMR90~1\AppData\Local\Temp\ccNmN5zT.s:24561  .debug_str:0000000000010f73 .LASF4321
C:\Users\CYMR90~1\AppData\Local\Temp\ccNmN5zT.s:26890  .debug_str:000000000001a84e .LASF4322
C:\Users\CYMR90~1\AppData\Local\Temp\ccNmN5zT.s:25269  .debug_str:0000000000013e18 .LASF4323
C:\Users\CYMR90~1\AppData\Local\Temp\ccNmN5zT.s:27842  .debug_str:000000000001e5cc .LASF4324
C:\Users\CYMR90~1\AppData\Local\Temp\ccNmN5zT.s:28592  .debug_str:0000000000021337 .LASF4325
C:\Users\CYMR90~1\AppData\Local\Temp\ccNmN5zT.s:24711  .debug_str:0000000000011986 .LASF4326
C:\Users\CYMR90~1\AppData\Local\Temp\ccNmN5zT.s:22999  .debug_str:000000000000ab99 .LASF4327
C:\Users\CYMR90~1\AppData\Local\Temp\ccNmN5zT.s:21115  .debug_str:00000000000032bc .LASF4328
C:\Users\CYMR90~1\AppData\Local\Temp\ccNmN5zT.s:25071  .debug_str:0000000000013139 .LASF4329
C:\Users\CYMR90~1\AppData\Local\Temp\ccNmN5zT.s:28624  .debug_str:00000000000215cc .LASF4330
C:\Users\CYMR90~1\AppData\Local\Temp\ccNmN5zT.s:21579  .debug_str:000000000000511c .LASF4331
C:\Users\CYMR90~1\AppData\Local\Temp\ccNmN5zT.s:25523  .debug_str:0000000000014e09 .LASF4332
C:\Users\CYMR90~1\AppData\Local\Temp\ccNmN5zT.s:29446  .debug_str:00000000000247aa .LASF4333
C:\Users\CYMR90~1\AppData\Local\Temp\ccNmN5zT.s:22069  .debug_str:0000000000006ecb .LASF4334
C:\Users\CYMR90~1\AppData\Local\Temp\ccNmN5zT.s:21359  .debug_str:00000000000042af .LASF4335
C:\Users\CYMR90~1\AppData\Local\Temp\ccNmN5zT.s:30024  .debug_str:0000000000026dcc .LASF4336
C:\Users\CYMR90~1\AppData\Local\Temp\ccNmN5zT.s:28240  .debug_str:000000000001fdbb .LASF4337
C:\Users\CYMR90~1\AppData\Local\Temp\ccNmN5zT.s:25019  .debug_str:0000000000012dd8 .LASF4338
C:\Users\CYMR90~1\AppData\Local\Temp\ccNmN5zT.s:30610  .debug_str:0000000000029438 .LASF4339
C:\Users\CYMR90~1\AppData\Local\Temp\ccNmN5zT.s:24857  .debug_str:0000000000012319 .LASF4340
C:\Users\CYMR90~1\AppData\Local\Temp\ccNmN5zT.s:25567  .debug_str:0000000000015105 .LASF4341
C:\Users\CYMR90~1\AppData\Local\Temp\ccNmN5zT.s:31466  .debug_str:000000000002c964 .LASF4342
C:\Users\CYMR90~1\AppData\Local\Temp\ccNmN5zT.s:30188  .debug_str:0000000000027867 .LASF4343
C:\Users\CYMR90~1\AppData\Local\Temp\ccNmN5zT.s:25937  .debug_str:0000000000016836 .LASF4344
C:\Users\CYMR90~1\AppData\Local\Temp\ccNmN5zT.s:24441  .debug_str:0000000000010811 .LASF4345
C:\Users\CYMR90~1\AppData\Local\Temp\ccNmN5zT.s:22595  .debug_str:00000000000091d5 .LASF4346
C:\Users\CYMR90~1\AppData\Local\Temp\ccNmN5zT.s:30980  .debug_str:000000000002aa20 .LASF4347
C:\Users\CYMR90~1\AppData\Local\Temp\ccNmN5zT.s:28838  .debug_str:000000000002229e .LASF4348
C:\Users\CYMR90~1\AppData\Local\Temp\ccNmN5zT.s:25821  .debug_str:00000000000160f6 .LASF4349
C:\Users\CYMR90~1\AppData\Local\Temp\ccNmN5zT.s:29022  .debug_str:0000000000022dc4 .LASF4350
C:\Users\CYMR90~1\AppData\Local\Temp\ccNmN5zT.s:24149  .debug_str:000000000000f564 .LASF4351
C:\Users\CYMR90~1\AppData\Local\Temp\ccNmN5zT.s:21935  .debug_str:0000000000006658 .LASF4352
C:\Users\CYMR90~1\AppData\Local\Temp\ccNmN5zT.s:25867  .debug_str:00000000000163af .LASF4353
C:\Users\CYMR90~1\AppData\Local\Temp\ccNmN5zT.s:29890  .debug_str:00000000000265c3 .LASF4354
C:\Users\CYMR90~1\AppData\Local\Temp\ccNmN5zT.s:22537  .debug_str:0000000000008ea0 .LASF4355
C:\Users\CYMR90~1\AppData\Local\Temp\ccNmN5zT.s:26444  .debug_str:00000000000189a7 .LASF4356
C:\Users\CYMR90~1\AppData\Local\Temp\ccNmN5zT.s:23551  .debug_str:000000000000d09b .LASF4357
C:\Users\CYMR90~1\AppData\Local\Temp\ccNmN5zT.s:21391  .debug_str:00000000000044b9 .LASF4358
C:\Users\CYMR90~1\AppData\Local\Temp\ccNmN5zT.s:25331  .debug_str:000000000001421d .LASF4359
C:\Users\CYMR90~1\AppData\Local\Temp\ccNmN5zT.s:23297  .debug_str:000000000000c02d .LASF4360
C:\Users\CYMR90~1\AppData\Local\Temp\ccNmN5zT.s:21869  .debug_str:000000000000627b .LASF4361
C:\Users\CYMR90~1\AppData\Local\Temp\ccNmN5zT.s:20999  .debug_str:0000000000002b8d .LASF4362
C:\Users\CYMR90~1\AppData\Local\Temp\ccNmN5zT.s:29824  .debug_str:00000000000261f2 .LASF4363
C:\Users\CYMR90~1\AppData\Local\Temp\ccNmN5zT.s:22483  .debug_str:0000000000008adb .LASF4364
C:\Users\CYMR90~1\AppData\Local\Temp\ccNmN5zT.s:26372  .debug_str:000000000001856c .LASF4365
C:\Users\CYMR90~1\AppData\Local\Temp\ccNmN5zT.s:20753  .debug_str:0000000000001ca6 .LASF4366
C:\Users\CYMR90~1\AppData\Local\Temp\ccNmN5zT.s:27374  .debug_str:000000000001c662 .LASF4367
C:\Users\CYMR90~1\AppData\Local\Temp\ccNmN5zT.s:25263  .debug_str:0000000000013d9e .LASF4368
C:\Users\CYMR90~1\AppData\Local\Temp\ccNmN5zT.s:29196  .debug_str:00000000000237df .LASF4369
C:\Users\CYMR90~1\AppData\Local\Temp\ccNmN5zT.s:25669  .debug_str:0000000000015712 .LASF4370
C:\Users\CYMR90~1\AppData\Local\Temp\ccNmN5zT.s:30358  .debug_str:000000000002849c .LASF4371
C:\Users\CYMR90~1\AppData\Local\Temp\ccNmN5zT.s:23671  .debug_str:000000000000d8b2 .LASF4372
C:\Users\CYMR90~1\AppData\Local\Temp\ccNmN5zT.s:29558  .debug_str:0000000000024f2f .LASF4373
C:\Users\CYMR90~1\AppData\Local\Temp\ccNmN5zT.s:28286  .debug_str:00000000000200cd .LASF4374
C:\Users\CYMR90~1\AppData\Local\Temp\ccNmN5zT.s:30244  .debug_str:0000000000027c0f .LASF4375
C:\Users\CYMR90~1\AppData\Local\Temp\ccNmN5zT.s:22877  .debug_str:000000000000a35f .LASF4376
C:\Users\CYMR90~1\AppData\Local\Temp\ccNmN5zT.s:31276  .debug_str:000000000002bcc1 .LASF4377
C:\Users\CYMR90~1\AppData\Local\Temp\ccNmN5zT.s:22175  .debug_str:000000000000761f .LASF4378
C:\Users\CYMR90~1\AppData\Local\Temp\ccNmN5zT.s:21733  .debug_str:0000000000005a1a .LASF4379
C:\Users\CYMR90~1\AppData\Local\Temp\ccNmN5zT.s:24837  .debug_str:0000000000012208 .LASF4380
C:\Users\CYMR90~1\AppData\Local\Temp\ccNmN5zT.s:25719  .debug_str:0000000000015a02 .LASF4381
C:\Users\CYMR90~1\AppData\Local\Temp\ccNmN5zT.s:22327  .debug_str:0000000000008102 .LASF4382
C:\Users\CYMR90~1\AppData\Local\Temp\ccNmN5zT.s:25905  .debug_str:0000000000016642 .LASF4383
C:\Users\CYMR90~1\AppData\Local\Temp\ccNmN5zT.s:22863  .debug_str:000000000000a278 .LASF4384
C:\Users\CYMR90~1\AppData\Local\Temp\ccNmN5zT.s:20981  .debug_str:0000000000002a3b .LASF4385
C:\Users\CYMR90~1\AppData\Local\Temp\ccNmN5zT.s:28260  .debug_str:000000000001ff4e .LASF4386
C:\Users\CYMR90~1\AppData\Local\Temp\ccNmN5zT.s:23067  .debug_str:000000000000b0ab .LASF4387
C:\Users\CYMR90~1\AppData\Local\Temp\ccNmN5zT.s:21667  .debug_str:0000000000005650 .LASF4388
C:\Users\CYMR90~1\AppData\Local\Temp\ccNmN5zT.s:22279  .debug_str:0000000000007cad .LASF4389
C:\Users\CYMR90~1\AppData\Local\Temp\ccNmN5zT.s:30678  .debug_str:0000000000029898 .LASF4390
C:\Users\CYMR90~1\AppData\Local\Temp\ccNmN5zT.s:22249  .debug_str:0000000000007ae8 .LASF4391
C:\Users\CYMR90~1\AppData\Local\Temp\ccNmN5zT.s:21831  .debug_str:000000000000600c .LASF4392
C:\Users\CYMR90~1\AppData\Local\Temp\ccNmN5zT.s:22611  .debug_str:00000000000092ca .LASF4393
C:\Users\CYMR90~1\AppData\Local\Temp\ccNmN5zT.s:29274  .debug_str:0000000000023c8a .LASF4394
C:\Users\CYMR90~1\AppData\Local\Temp\ccNmN5zT.s:21441  .debug_str:0000000000004834 .LASF4395
C:\Users\CYMR90~1\AppData\Local\Temp\ccNmN5zT.s:22029  .debug_str:0000000000006bf1 .LASF4396
C:\Users\CYMR90~1\AppData\Local\Temp\ccNmN5zT.s:31146  .debug_str:000000000002b46f .LASF4397
C:\Users\CYMR90~1\AppData\Local\Temp\ccNmN5zT.s:21609  .debug_str:00000000000052e5 .LASF4398
C:\Users\CYMR90~1\AppData\Local\Temp\ccNmN5zT.s:22885  .debug_str:000000000000a40f .LASF4399
C:\Users\CYMR90~1\AppData\Local\Temp\ccNmN5zT.s:22185  .debug_str:00000000000076d5 .LASF4400
C:\Users\CYMR90~1\AppData\Local\Temp\ccNmN5zT.s:27522  .debug_str:000000000001d1b4 .LASF4401
C:\Users\CYMR90~1\AppData\Local\Temp\ccNmN5zT.s:29856  .debug_str:00000000000263b2 .LASF4402
C:\Users\CYMR90~1\AppData\Local\Temp\ccNmN5zT.s:26882  .debug_str:000000000001a7be .LASF4403
C:\Users\CYMR90~1\AppData\Local\Temp\ccNmN5zT.s:23235  .debug_str:000000000000bb7d .LASF4404
C:\Users\CYMR90~1\AppData\Local\Temp\ccNmN5zT.s:30622  .debug_str:00000000000294d4 .LASF4405
C:\Users\CYMR90~1\AppData\Local\Temp\ccNmN5zT.s:23007  .debug_str:000000000000ac37 .LASF4406
C:\Users\CYMR90~1\AppData\Local\Temp\ccNmN5zT.s:24819  .debug_str:00000000000120b3 .LASF4407
C:\Users\CYMR90~1\AppData\Local\Temp\ccNmN5zT.s:29494  .debug_str:0000000000024ae0 .LASF4408
C:\Users\CYMR90~1\AppData\Local\Temp\ccNmN5zT.s:28680  .debug_str:0000000000021937 .LASF4409
C:\Users\CYMR90~1\AppData\Local\Temp\ccNmN5zT.s:26056  .debug_str:00000000000171ed .LASF4410
C:\Users\CYMR90~1\AppData\Local\Temp\ccNmN5zT.s:29976  .debug_str:0000000000026b06 .LASF4411
C:\Users\CYMR90~1\AppData\Local\Temp\ccNmN5zT.s:26182  .debug_str:00000000000179bf .LASF4412
C:\Users\CYMR90~1\AppData\Local\Temp\ccNmN5zT.s:26964  .debug_str:000000000001ad3e .LASF4413
C:\Users\CYMR90~1\AppData\Local\Temp\ccNmN5zT.s:29936  .debug_str:00000000000268a6 .LASF4414
C:\Users\CYMR90~1\AppData\Local\Temp\ccNmN5zT.s:30070  .debug_str:00000000000270a7 .LASF4415
C:\Users\CYMR90~1\AppData\Local\Temp\ccNmN5zT.s:27098  .debug_str:000000000001b5ec .LASF4416
C:\Users\CYMR90~1\AppData\Local\Temp\ccNmN5zT.s:29126  .debug_str:000000000002335c .LASF4417
C:\Users\CYMR90~1\AppData\Local\Temp\ccNmN5zT.s:22047  .debug_str:0000000000006d5d .LASF4418
C:\Users\CYMR90~1\AppData\Local\Temp\ccNmN5zT.s:25985  .debug_str:0000000000016c03 .LASF4419
C:\Users\CYMR90~1\AppData\Local\Temp\ccNmN5zT.s:29912  .debug_str:000000000002670a .LASF4420
C:\Users\CYMR90~1\AppData\Local\Temp\ccNmN5zT.s:21381  .debug_str:0000000000004411 .LASF4421
C:\Users\CYMR90~1\AppData\Local\Temp\ccNmN5zT.s:26490  .debug_str:0000000000018d52 .LASF4422
C:\Users\CYMR90~1\AppData\Local\Temp\ccNmN5zT.s:25133  .debug_str:00000000000135e9 .LASF4423
C:\Users\CYMR90~1\AppData\Local\Temp\ccNmN5zT.s:27230  .debug_str:000000000001bdab .LASF4424
C:\Users\CYMR90~1\AppData\Local\Temp\ccNmN5zT.s:27054  .debug_str:000000000001b352 .LASF4425
C:\Users\CYMR90~1\AppData\Local\Temp\ccNmN5zT.s:25495  .debug_str:0000000000014c12 .LASF4426
C:\Users\CYMR90~1\AppData\Local\Temp\ccNmN5zT.s:21383  .debug_str:0000000000004437 .LASF4427
C:\Users\CYMR90~1\AppData\Local\Temp\ccNmN5zT.s:29880  .debug_str:0000000000026514 .LASF4428
C:\Users\CYMR90~1\AppData\Local\Temp\ccNmN5zT.s:24673  .debug_str:0000000000011697 .LASF4429
C:\Users\CYMR90~1\AppData\Local\Temp\ccNmN5zT.s:28568  .debug_str:00000000000211d0 .LASF4430
C:\Users\CYMR90~1\AppData\Local\Temp\ccNmN5zT.s:21195  .debug_str:00000000000037e6 .LASF4431
C:\Users\CYMR90~1\AppData\Local\Temp\ccNmN5zT.s:25151  .debug_str:0000000000013714 .LASF4432
C:\Users\CYMR90~1\AppData\Local\Temp\ccNmN5zT.s:28476  .debug_str:0000000000020ca3 .LASF4433
C:\Users\CYMR90~1\AppData\Local\Temp\ccNmN5zT.s:27346  .debug_str:000000000001c4d0 .LASF4434
C:\Users\CYMR90~1\AppData\Local\Temp\ccNmN5zT.s:26510  .debug_str:0000000000018ea7 .LASF4435
C:\Users\CYMR90~1\AppData\Local\Temp\ccNmN5zT.s:28064  .debug_str:000000000001f324 .LASF4436
C:\Users\CYMR90~1\AppData\Local\Temp\ccNmN5zT.s:21379  .debug_str:00000000000043eb .LASF4437
C:\Users\CYMR90~1\AppData\Local\Temp\ccNmN5zT.s:21311  .debug_str:0000000000003f67 .LASF4438
C:\Users\CYMR90~1\AppData\Local\Temp\ccNmN5zT.s:28502  .debug_str:0000000000020e31 .LASF4439
C:\Users\CYMR90~1\AppData\Local\Temp\ccNmN5zT.s:26472  .debug_str:0000000000018b6c .LASF4440
C:\Users\CYMR90~1\AppData\Local\Temp\ccNmN5zT.s:25185  .debug_str:0000000000013911 .LASF4441
C:\Users\CYMR90~1\AppData\Local\Temp\ccNmN5zT.s:29016  .debug_str:0000000000022d62 .LASF4442
C:\Users\CYMR90~1\AppData\Local\Temp\ccNmN5zT.s:31572  .debug_str:000000000002d015 .LASF4443
C:\Users\CYMR90~1\AppData\Local\Temp\ccNmN5zT.s:22983  .debug_str:000000000000aa8d .LASF4444
C:\Users\CYMR90~1\AppData\Local\Temp\ccNmN5zT.s:23653  .debug_str:000000000000d7c3 .LASF4445
C:\Users\CYMR90~1\AppData\Local\Temp\ccNmN5zT.s:29146  .debug_str:0000000000023477 .LASF4446
C:\Users\CYMR90~1\AppData\Local\Temp\ccNmN5zT.s:27698  .debug_str:000000000001dca2 .LASF4447
C:\Users\CYMR90~1\AppData\Local\Temp\ccNmN5zT.s:20375  .debug_str:0000000000000528 .LASF4448
C:\Users\CYMR90~1\AppData\Local\Temp\ccNmN5zT.s:21433  .debug_str:00000000000047a0 .LASF4449
C:\Users\CYMR90~1\AppData\Local\Temp\ccNmN5zT.s:23831  .debug_str:000000000000e227 .LASF4450
C:\Users\CYMR90~1\AppData\Local\Temp\ccNmN5zT.s:21997  .debug_str:0000000000006a07 .LASF4451
C:\Users\CYMR90~1\AppData\Local\Temp\ccNmN5zT.s:25203  .debug_str:0000000000013a24 .LASF4452
C:\Users\CYMR90~1\AppData\Local\Temp\ccNmN5zT.s:24835  .debug_str:00000000000121e1 .LASF4453
C:\Users\CYMR90~1\AppData\Local\Temp\ccNmN5zT.s:21059  .debug_str:0000000000002f27 .LASF4454
C:\Users\CYMR90~1\AppData\Local\Temp\ccNmN5zT.s:21633  .debug_str:0000000000005448 .LASF4455
C:\Users\CYMR90~1\AppData\Local\Temp\ccNmN5zT.s:21145  .debug_str:00000000000034d2 .LASF4456
C:\Users\CYMR90~1\AppData\Local\Temp\ccNmN5zT.s:20333  .debug_str:000000000000027d .LASF4457
C:\Users\CYMR90~1\AppData\Local\Temp\ccNmN5zT.s:22605  .debug_str:000000000000926a .LASF4458
C:\Users\CYMR90~1\AppData\Local\Temp\ccNmN5zT.s:25959  .debug_str:0000000000016a01 .LASF4459
C:\Users\CYMR90~1\AppData\Local\Temp\ccNmN5zT.s:21049  .debug_str:0000000000002e9a .LASF4460
C:\Users\CYMR90~1\AppData\Local\Temp\ccNmN5zT.s:29998  .debug_str:0000000000026c46 .LASF4461
C:\Users\CYMR90~1\AppData\Local\Temp\ccNmN5zT.s:25825  .debug_str:0000000000016137 .LASF4462
C:\Users\CYMR90~1\AppData\Local\Temp\ccNmN5zT.s:26484  .debug_str:0000000000018cc5 .LASF4463
C:\Users\CYMR90~1\AppData\Local\Temp\ccNmN5zT.s:29158  .debug_str:0000000000023547 .LASF4464
C:\Users\CYMR90~1\AppData\Local\Temp\ccNmN5zT.s:28938  .debug_str:0000000000022887 .LASF4465
C:\Users\CYMR90~1\AppData\Local\Temp\ccNmN5zT.s:25037  .debug_str:0000000000012ef0 .LASF4466
C:\Users\CYMR90~1\AppData\Local\Temp\ccNmN5zT.s:30670  .debug_str:000000000002981c .LASF4467
C:\Users\CYMR90~1\AppData\Local\Temp\ccNmN5zT.s:30898  .debug_str:000000000002a52a .LASF4468
C:\Users\CYMR90~1\AppData\Local\Temp\ccNmN5zT.s:27592  .debug_str:000000000001d5cf .LASF4469
C:\Users\CYMR90~1\AppData\Local\Temp\ccNmN5zT.s:29762  .debug_str:0000000000025db7 .LASF4470
C:\Users\CYMR90~1\AppData\Local\Temp\ccNmN5zT.s:24569  .debug_str:0000000000010ffa .LASF4471
C:\Users\CYMR90~1\AppData\Local\Temp\ccNmN5zT.s:27750  .debug_str:000000000001e072 .LASF4472
C:\Users\CYMR90~1\AppData\Local\Temp\ccNmN5zT.s:22775  .debug_str:0000000000009cf6 .LASF4473
C:\Users\CYMR90~1\AppData\Local\Temp\ccNmN5zT.s:27020  .debug_str:000000000001b118 .LASF4474
C:\Users\CYMR90~1\AppData\Local\Temp\ccNmN5zT.s:27590  .debug_str:000000000001d5aa .LASF4475
C:\Users\CYMR90~1\AppData\Local\Temp\ccNmN5zT.s:23161  .debug_str:000000000000b6a6 .LASF4476
C:\Users\CYMR90~1\AppData\Local\Temp\ccNmN5zT.s:26162  .debug_str:0000000000017857 .LASF4477
C:\Users\CYMR90~1\AppData\Local\Temp\ccNmN5zT.s:27292  .debug_str:000000000001c1bc .LASF4478
C:\Users\CYMR90~1\AppData\Local\Temp\ccNmN5zT.s:24969  .debug_str:0000000000012aa2 .LASF4479
C:\Users\CYMR90~1\AppData\Local\Temp\ccNmN5zT.s:28458  .debug_str:0000000000020b76 .LASF4480
C:\Users\CYMR90~1\AppData\Local\Temp\ccNmN5zT.s:23093  .debug_str:000000000000b244 .LASF4481
C:\Users\CYMR90~1\AppData\Local\Temp\ccNmN5zT.s:20719  .debug_str:0000000000001a8a .LASF4482
C:\Users\CYMR90~1\AppData\Local\Temp\ccNmN5zT.s:25667  .debug_str:00000000000156ed .LASF4483
C:\Users\CYMR90~1\AppData\Local\Temp\ccNmN5zT.s:25017  .debug_str:0000000000012db3 .LASF4484
C:\Users\CYMR90~1\AppData\Local\Temp\ccNmN5zT.s:31272  .debug_str:000000000002bc9e .LASF4485
C:\Users\CYMR90~1\AppData\Local\Temp\ccNmN5zT.s:26610  .debug_str:000000000001955f .LASF4486
C:\Users\CYMR90~1\AppData\Local\Temp\ccNmN5zT.s:26160  .debug_str:000000000001783f .LASF4487
C:\Users\CYMR90~1\AppData\Local\Temp\ccNmN5zT.s:27614  .debug_str:000000000001d76c .LASF4488
C:\Users\CYMR90~1\AppData\Local\Temp\ccNmN5zT.s:29282  .debug_str:0000000000023cfc .LASF4489
C:\Users\CYMR90~1\AppData\Local\Temp\ccNmN5zT.s:21665  .debug_str:0000000000005637 .LASF4490
C:\Users\CYMR90~1\AppData\Local\Temp\ccNmN5zT.s:20615  .debug_str:00000000000013ce .LASF4491
C:\Users\CYMR90~1\AppData\Local\Temp\ccNmN5zT.s:27930  .debug_str:000000000001eb2b .LASF4492
C:\Users\CYMR90~1\AppData\Local\Temp\ccNmN5zT.s:28640  .debug_str:00000000000216b5 .LASF4493
C:\Users\CYMR90~1\AppData\Local\Temp\ccNmN5zT.s:30840  .debug_str:000000000002a1e3 .LASF4494
C:\Users\CYMR90~1\AppData\Local\Temp\ccNmN5zT.s:24693  .debug_str:00000000000117d7 .LASF4495
C:\Users\CYMR90~1\AppData\Local\Temp\ccNmN5zT.s:30490  .debug_str:0000000000028d19 .LASF4496
C:\Users\CYMR90~1\AppData\Local\Temp\ccNmN5zT.s:25457  .debug_str:00000000000149d0 .LASF4497
C:\Users\CYMR90~1\AppData\Local\Temp\ccNmN5zT.s:23055  .debug_str:000000000000b00b .LASF4498
C:\Users\CYMR90~1\AppData\Local\Temp\ccNmN5zT.s:28420  .debug_str:000000000002093b .LASF4499
C:\Users\CYMR90~1\AppData\Local\Temp\ccNmN5zT.s:22497  .debug_str:0000000000008bc7 .LASF4500
C:\Users\CYMR90~1\AppData\Local\Temp\ccNmN5zT.s:26078  .debug_str:0000000000017342 .LASF4501
C:\Users\CYMR90~1\AppData\Local\Temp\ccNmN5zT.s:29244  .debug_str:0000000000023ad3 .LASF4502
C:\Users\CYMR90~1\AppData\Local\Temp\ccNmN5zT.s:30068  .debug_str:0000000000027095 .LASF4503
C:\Users\CYMR90~1\AppData\Local\Temp\ccNmN5zT.s:25493  .debug_str:0000000000014bfe .LASF4504
C:\Users\CYMR90~1\AppData\Local\Temp\ccNmN5zT.s:27836  .debug_str:000000000001e55f .LASF4505
C:\Users\CYMR90~1\AppData\Local\Temp\ccNmN5zT.s:23477  .debug_str:000000000000cc14 .LASF4506
C:\Users\CYMR90~1\AppData\Local\Temp\ccNmN5zT.s:25271  .debug_str:0000000000013e3e .LASF4507
C:\Users\CYMR90~1\AppData\Local\Temp\ccNmN5zT.s:27664  .debug_str:000000000001daa6 .LASF4508
C:\Users\CYMR90~1\AppData\Local\Temp\ccNmN5zT.s:25045  .debug_str:0000000000012f77 .LASF4509
C:\Users\CYMR90~1\AppData\Local\Temp\ccNmN5zT.s:28490  .debug_str:0000000000020d98 .LASF4510
C:\Users\CYMR90~1\AppData\Local\Temp\ccNmN5zT.s:24023  .debug_str:000000000000ee03 .LASF4511
C:\Users\CYMR90~1\AppData\Local\Temp\ccNmN5zT.s:27612  .debug_str:000000000001d757 .LASF4512
C:\Users\CYMR90~1\AppData\Local\Temp\ccNmN5zT.s:21029  .debug_str:0000000000002d71 .LASF4513
C:\Users\CYMR90~1\AppData\Local\Temp\ccNmN5zT.s:20805  .debug_str:0000000000001fcd .LASF4514
C:\Users\CYMR90~1\AppData\Local\Temp\ccNmN5zT.s:27334  .debug_str:000000000001c440 .LASF4515
C:\Users\CYMR90~1\AppData\Local\Temp\ccNmN5zT.s:22413  .debug_str:0000000000008675 .LASF4516
C:\Users\CYMR90~1\AppData\Local\Temp\ccNmN5zT.s:30972  .debug_str:000000000002a9cf .LASF4517
C:\Users\CYMR90~1\AppData\Local\Temp\ccNmN5zT.s:22261  .debug_str:0000000000007b9e .LASF4518
C:\Users\CYMR90~1\AppData\Local\Temp\ccNmN5zT.s:20387  .debug_str:00000000000005e4 .LASF4519
C:\Users\CYMR90~1\AppData\Local\Temp\ccNmN5zT.s:29486  .debug_str:0000000000024a77 .LASF4520
C:\Users\CYMR90~1\AppData\Local\Temp\ccNmN5zT.s:26390  .debug_str:0000000000018669 .LASF4521
C:\Users\CYMR90~1\AppData\Local\Temp\ccNmN5zT.s:24129  .debug_str:000000000000f447 .LASF4522
C:\Users\CYMR90~1\AppData\Local\Temp\ccNmN5zT.s:29086  .debug_str:000000000002312d .LASF4523
C:\Users\CYMR90~1\AppData\Local\Temp\ccNmN5zT.s:30792  .debug_str:0000000000029f1b .LASF4524
C:\Users\CYMR90~1\AppData\Local\Temp\ccNmN5zT.s:23325  .debug_str:000000000000c207 .LASF4525
C:\Users\CYMR90~1\AppData\Local\Temp\ccNmN5zT.s:21853  .debug_str:00000000000061a3 .LASF4526
C:\Users\CYMR90~1\AppData\Local\Temp\ccNmN5zT.s:21489  .debug_str:0000000000004ba8 .LASF4527
C:\Users\CYMR90~1\AppData\Local\Temp\ccNmN5zT.s:29834  .debug_str:000000000002628e .LASF4528
C:\Users\CYMR90~1\AppData\Local\Temp\ccNmN5zT.s:23723  .debug_str:000000000000dba3 .LASF4529
C:\Users\CYMR90~1\AppData\Local\Temp\ccNmN5zT.s:25125  .debug_str:0000000000013553 .LASF4530
C:\Users\CYMR90~1\AppData\Local\Temp\ccNmN5zT.s:22475  .debug_str:0000000000008a67 .LASF4531
C:\Users\CYMR90~1\AppData\Local\Temp\ccNmN5zT.s:25675  .debug_str:0000000000015763 .LASF4532
C:\Users\CYMR90~1\AppData\Local\Temp\ccNmN5zT.s:29622  .debug_str:0000000000025431 .LASF4533
C:\Users\CYMR90~1\AppData\Local\Temp\ccNmN5zT.s:20909  .debug_str:0000000000002556 .LASF4534
C:\Users\CYMR90~1\AppData\Local\Temp\ccNmN5zT.s:24071  .debug_str:000000000000f096 .LASF4535
C:\Users\CYMR90~1\AppData\Local\Temp\ccNmN5zT.s:20525  .debug_str:0000000000000e6c .LASF4536
C:\Users\CYMR90~1\AppData\Local\Temp\ccNmN5zT.s:24521  .debug_str:0000000000010d88 .LASF4537
C:\Users\CYMR90~1\AppData\Local\Temp\ccNmN5zT.s:23203  .debug_str:000000000000b95f .LASF4538
C:\Users\CYMR90~1\AppData\Local\Temp\ccNmN5zT.s:28190  .debug_str:000000000001fac5 .LASF4539
C:\Users\CYMR90~1\AppData\Local\Temp\ccNmN5zT.s:27168  .debug_str:000000000001b9ee .LASF4540
C:\Users\CYMR90~1\AppData\Local\Temp\ccNmN5zT.s:24935  .debug_str:0000000000012841 .LASF4541
C:\Users\CYMR90~1\AppData\Local\Temp\ccNmN5zT.s:20903  .debug_str:0000000000002509 .LASF4542
C:\Users\CYMR90~1\AppData\Local\Temp\ccNmN5zT.s:27564  .debug_str:000000000001d403 .LASF4543
C:\Users\CYMR90~1\AppData\Local\Temp\ccNmN5zT.s:23449  .debug_str:000000000000ca5f .LASF4544
C:\Users\CYMR90~1\AppData\Local\Temp\ccNmN5zT.s:30954  .debug_str:000000000002a8be .LASF4545
C:\Users\CYMR90~1\AppData\Local\Temp\ccNmN5zT.s:26846  .debug_str:000000000001a5ee .LASF4546
C:\Users\CYMR90~1\AppData\Local\Temp\ccNmN5zT.s:29054  .debug_str:0000000000022f6d .LASF4547
C:\Users\CYMR90~1\AppData\Local\Temp\ccNmN5zT.s:30630  .debug_str:000000000002955b .LASF4548
C:\Users\CYMR90~1\AppData\Local\Temp\ccNmN5zT.s:25923  .debug_str:0000000000016759 .LASF4549
C:\Users\CYMR90~1\AppData\Local\Temp\ccNmN5zT.s:26580  .debug_str:0000000000019385 .LASF4550
C:\Users\CYMR90~1\AppData\Local\Temp\ccNmN5zT.s:21663  .debug_str:000000000000561e .LASF4551
C:\Users\CYMR90~1\AppData\Local\Temp\ccNmN5zT.s:30766  .debug_str:0000000000029d96 .LASF4552
C:\Users\CYMR90~1\AppData\Local\Temp\ccNmN5zT.s:24307  .debug_str:000000000000ff9c .LASF4553
C:\Users\CYMR90~1\AppData\Local\Temp\ccNmN5zT.s:27468  .debug_str:000000000001cd26 .LASF4554
C:\Users\CYMR90~1\AppData\Local\Temp\ccNmN5zT.s:28760  .debug_str:0000000000021e1e .LASF4555
C:\Users\CYMR90~1\AppData\Local\Temp\ccNmN5zT.s:23683  .debug_str:000000000000d95f .LASF4556
C:\Users\CYMR90~1\AppData\Local\Temp\ccNmN5zT.s:31118  .debug_str:000000000002b286 .LASF4557
C:\Users\CYMR90~1\AppData\Local\Temp\ccNmN5zT.s:23223  .debug_str:000000000000bad0 .LASF4558
C:\Users\CYMR90~1\AppData\Local\Temp\ccNmN5zT.s:28372  .debug_str:0000000000020664 .LASF4559
C:\Users\CYMR90~1\AppData\Local\Temp\ccNmN5zT.s:25783  .debug_str:0000000000015e2a .LASF4560
C:\Users\CYMR90~1\AppData\Local\Temp\ccNmN5zT.s:29232  .debug_str:0000000000023a06 .LASF4561
C:\Users\CYMR90~1\AppData\Local\Temp\ccNmN5zT.s:31088  .debug_str:000000000002b08c .LASF4562
C:\Users\CYMR90~1\AppData\Local\Temp\ccNmN5zT.s:28564  .debug_str:000000000002118d .LASF4563
C:\Users\CYMR90~1\AppData\Local\Temp\ccNmN5zT.s:28908  .debug_str:0000000000022693 .LASF4564
C:\Users\CYMR90~1\AppData\Local\Temp\ccNmN5zT.s:25911  .debug_str:00000000000166ac .LASF4565
C:\Users\CYMR90~1\AppData\Local\Temp\ccNmN5zT.s:22459  .debug_str:000000000000896e .LASF4566
C:\Users\CYMR90~1\AppData\Local\Temp\ccNmN5zT.s:29660  .debug_str:0000000000025700 .LASF4567
C:\Users\CYMR90~1\AppData\Local\Temp\ccNmN5zT.s:26902  .debug_str:000000000001a98a .LASF4568
C:\Users\CYMR90~1\AppData\Local\Temp\ccNmN5zT.s:20521  .debug_str:0000000000000e2e .LASF4569
C:\Users\CYMR90~1\AppData\Local\Temp\ccNmN5zT.s:28882  .debug_str:00000000000224f7 .LASF4570
C:\Users\CYMR90~1\AppData\Local\Temp\ccNmN5zT.s:30612  .debug_str:000000000002945e .LASF4571
C:\Users\CYMR90~1\AppData\Local\Temp\ccNmN5zT.s:20989  .debug_str:0000000000002aac .LASF4572
C:\Users\CYMR90~1\AppData\Local\Temp\ccNmN5zT.s:24001  .debug_str:000000000000ece5 .LASF4573
C:\Users\CYMR90~1\AppData\Local\Temp\ccNmN5zT.s:27908  .debug_str:000000000001e9e7 .LASF4574
C:\Users\CYMR90~1\AppData\Local\Temp\ccNmN5zT.s:21213  .debug_str:0000000000003901 .LASF4575
C:\Users\CYMR90~1\AppData\Local\Temp\ccNmN5zT.s:25247  .debug_str:0000000000013cdb .LASF4576
C:\Users\CYMR90~1\AppData\Local\Temp\ccNmN5zT.s:29574  .debug_str:000000000002502b .LASF4577
C:\Users\CYMR90~1\AppData\Local\Temp\ccNmN5zT.s:24259  .debug_str:000000000000fc95 .LASF4578
C:\Users\CYMR90~1\AppData\Local\Temp\ccNmN5zT.s:25253  .debug_str:0000000000013d1f .LASF4579
C:\Users\CYMR90~1\AppData\Local\Temp\ccNmN5zT.s:21783  .debug_str:0000000000005d3c .LASF4580
C:\Users\CYMR90~1\AppData\Local\Temp\ccNmN5zT.s:21371  .debug_str:0000000000004357 .LASF4581
C:\Users\CYMR90~1\AppData\Local\Temp\ccNmN5zT.s:28676  .debug_str:0000000000021905 .LASF4582
C:\Users\CYMR90~1\AppData\Local\Temp\ccNmN5zT.s:28206  .debug_str:000000000001fbc3 .LASF4583
C:\Users\CYMR90~1\AppData\Local\Temp\ccNmN5zT.s:21463  .debug_str:0000000000004a25 .LASF4584
C:\Users\CYMR90~1\AppData\Local\Temp\ccNmN5zT.s:28470  .debug_str:0000000000020c49 .LASF4585
C:\Users\CYMR90~1\AppData\Local\Temp\ccNmN5zT.s:29888  .debug_str:00000000000265ac .LASF4586
C:\Users\CYMR90~1\AppData\Local\Temp\ccNmN5zT.s:31076  .debug_str:000000000002afe2 .LASF4587
C:\Users\CYMR90~1\AppData\Local\Temp\ccNmN5zT.s:29806  .debug_str:00000000000260ca .LASF4588
C:\Users\CYMR90~1\AppData\Local\Temp\ccNmN5zT.s:20667  .debug_str:00000000000016d4 .LASF4589
C:\Users\CYMR90~1\AppData\Local\Temp\ccNmN5zT.s:27800  .debug_str:000000000001e346 .LASF4590
C:\Users\CYMR90~1\AppData\Local\Temp\ccNmN5zT.s:30116  .debug_str:000000000002743b .LASF4591
C:\Users\CYMR90~1\AppData\Local\Temp\ccNmN5zT.s:22907  .debug_str:000000000000a548 .LASF4592
C:\Users\CYMR90~1\AppData\Local\Temp\ccNmN5zT.s:31428  .debug_str:000000000002c6ee .LASF4593
C:\Users\CYMR90~1\AppData\Local\Temp\ccNmN5zT.s:30780  .debug_str:0000000000029e77 .LASF4594
C:\Users\CYMR90~1\AppData\Local\Temp\ccNmN5zT.s:22267  .debug_str:0000000000007bf8 .LASF4595
C:\Users\CYMR90~1\AppData\Local\Temp\ccNmN5zT.s:21355  .debug_str:000000000000427c .LASF4596
C:\Users\CYMR90~1\AppData\Local\Temp\ccNmN5zT.s:29972  .debug_str:0000000000026abe .LASF4597
C:\Users\CYMR90~1\AppData\Local\Temp\ccNmN5zT.s:27350  .debug_str:000000000001c519 .LASF4598
C:\Users\CYMR90~1\AppData\Local\Temp\ccNmN5zT.s:29944  .debug_str:0000000000026924 .LASF4599
C:\Users\CYMR90~1\AppData\Local\Temp\ccNmN5zT.s:25283  .debug_str:0000000000013efa .LASF4600
C:\Users\CYMR90~1\AppData\Local\Temp\ccNmN5zT.s:24199  .debug_str:000000000000f911 .LASF4601
C:\Users\CYMR90~1\AppData\Local\Temp\ccNmN5zT.s:27900  .debug_str:000000000001e973 .LASF4602
C:\Users\CYMR90~1\AppData\Local\Temp\ccNmN5zT.s:21717  .debug_str:000000000000594e .LASF4603
C:\Users\CYMR90~1\AppData\Local\Temp\ccNmN5zT.s:29106  .debug_str:000000000002322d .LASF4604
C:\Users\CYMR90~1\AppData\Local\Temp\ccNmN5zT.s:26512  .debug_str:0000000000018ecd .LASF4605
C:\Users\CYMR90~1\AppData\Local\Temp\ccNmN5zT.s:20871  .debug_str:0000000000002318 .LASF4606
C:\Users\CYMR90~1\AppData\Local\Temp\ccNmN5zT.s:21077  .debug_str:0000000000003041 .LASF4607
C:\Users\CYMR90~1\AppData\Local\Temp\ccNmN5zT.s:29770  .debug_str:0000000000025e4c .LASF4608
C:\Users\CYMR90~1\AppData\Local\Temp\ccNmN5zT.s:25683  .debug_str:00000000000157cf .LASF4609
C:\Users\CYMR90~1\AppData\Local\Temp\ccNmN5zT.s:31580  .debug_str:000000000002d0cd .LASF4610
C:\Users\CYMR90~1\AppData\Local\Temp\ccNmN5zT.s:22581  .debug_str:00000000000090f7 .LASF4611
C:\Users\CYMR90~1\AppData\Local\Temp\ccNmN5zT.s:30364  .debug_str:0000000000028508 .LASF4612
C:\Users\CYMR90~1\AppData\Local\Temp\ccNmN5zT.s:31578  .debug_str:000000000002d094 .LASF4613
C:\Users\CYMR90~1\AppData\Local\Temp\ccNmN5zT.s:27732  .debug_str:000000000001df43 .LASF4614
C:\Users\CYMR90~1\AppData\Local\Temp\ccNmN5zT.s:22037  .debug_str:0000000000006ca6 .LASF4615
C:\Users\CYMR90~1\AppData\Local\Temp\ccNmN5zT.s:21503  .debug_str:0000000000004ca3 .LASF4616
C:\Users\CYMR90~1\AppData\Local\Temp\ccNmN5zT.s:26034  .debug_str:00000000000170a2 .LASF4617
C:\Users\CYMR90~1\AppData\Local\Temp\ccNmN5zT.s:31216  .debug_str:000000000002b937 .LASF4618
C:\Users\CYMR90~1\AppData\Local\Temp\ccNmN5zT.s:25069  .debug_str:000000000001311a .LASF4619
C:\Users\CYMR90~1\AppData\Local\Temp\ccNmN5zT.s:30842  .debug_str:000000000002a1fc .LASF4620
C:\Users\CYMR90~1\AppData\Local\Temp\ccNmN5zT.s:29918  .debug_str:0000000000026772 .LASF4621
C:\Users\CYMR90~1\AppData\Local\Temp\ccNmN5zT.s:30140  .debug_str:00000000000275ad .LASF4622
C:\Users\CYMR90~1\AppData\Local\Temp\ccNmN5zT.s:30676  .debug_str:000000000002985d .LASF4623
C:\Users\CYMR90~1\AppData\Local\Temp\ccNmN5zT.s:27256  .debug_str:000000000001bf77 .LASF4624
C:\Users\CYMR90~1\AppData\Local\Temp\ccNmN5zT.s:26728  .debug_str:0000000000019d63 .LASF4625
C:\Users\CYMR90~1\AppData\Local\Temp\ccNmN5zT.s:22325  .debug_str:00000000000080e9 .LASF4626
C:\Users\CYMR90~1\AppData\Local\Temp\ccNmN5zT.s:27434  .debug_str:000000000001cafb .LASF4627
C:\Users\CYMR90~1\AppData\Local\Temp\ccNmN5zT.s:27038  .debug_str:000000000001b234 .LASF4628
C:\Users\CYMR90~1\AppData\Local\Temp\ccNmN5zT.s:28950  .debug_str:000000000002292f .LASF4629
C:\Users\CYMR90~1\AppData\Local\Temp\ccNmN5zT.s:29874  .debug_str:00000000000264bb .LASF4630
C:\Users\CYMR90~1\AppData\Local\Temp\ccNmN5zT.s:20781  .debug_str:0000000000001e5f .LASF4631
C:\Users\CYMR90~1\AppData\Local\Temp\ccNmN5zT.s:25857  .debug_str:0000000000016301 .LASF4632
C:\Users\CYMR90~1\AppData\Local\Temp\ccNmN5zT.s:21091  .debug_str:0000000000003147 .LASF4633
C:\Users\CYMR90~1\AppData\Local\Temp\ccNmN5zT.s:23291  .debug_str:000000000000bfe1 .LASF4634
C:\Users\CYMR90~1\AppData\Local\Temp\ccNmN5zT.s:27912  .debug_str:000000000001ea19 .LASF4635
C:\Users\CYMR90~1\AppData\Local\Temp\ccNmN5zT.s:20573  .debug_str:00000000000011a9 .LASF4636
C:\Users\CYMR90~1\AppData\Local\Temp\ccNmN5zT.s:29602  .debug_str:0000000000025246 .LASF4637
C:\Users\CYMR90~1\AppData\Local\Temp\ccNmN5zT.s:22435  .debug_str:000000000000879e .LASF4638
C:\Users\CYMR90~1\AppData\Local\Temp\ccNmN5zT.s:27536  .debug_str:000000000001d275 .LASF4639
C:\Users\CYMR90~1\AppData\Local\Temp\ccNmN5zT.s:27554  .debug_str:000000000001d36c .LASF4640
C:\Users\CYMR90~1\AppData\Local\Temp\ccNmN5zT.s:28510  .debug_str:0000000000020eab .LASF4641
C:\Users\CYMR90~1\AppData\Local\Temp\ccNmN5zT.s:26976  .debug_str:000000000001adf7 .LASF4642
C:\Users\CYMR90~1\AppData\Local\Temp\ccNmN5zT.s:21753  .debug_str:0000000000005b99 .LASF4643
C:\Users\CYMR90~1\AppData\Local\Temp\ccNmN5zT.s:30326  .debug_str:00000000000281de .LASF4644
C:\Users\CYMR90~1\AppData\Local\Temp\ccNmN5zT.s:29238  .debug_str:0000000000023a82 .LASF4645
C:\Users\CYMR90~1\AppData\Local\Temp\ccNmN5zT.s:25577  .debug_str:000000000001519e .LASF4646
C:\Users\CYMR90~1\AppData\Local\Temp\ccNmN5zT.s:27666  .debug_str:000000000001dabb .LASF4647
C:\Users\CYMR90~1\AppData\Local\Temp\ccNmN5zT.s:21055  .debug_str:0000000000002ee9 .LASF4648
C:\Users\CYMR90~1\AppData\Local\Temp\ccNmN5zT.s:20319  .debug_str:00000000000001d0 .LASF4649
C:\Users\CYMR90~1\AppData\Local\Temp\ccNmN5zT.s:26680  .debug_str:0000000000019a3e .LASF4650
C:\Users\CYMR90~1\AppData\Local\Temp\ccNmN5zT.s:24469  .debug_str:00000000000109a6 .LASF4651
C:\Users\CYMR90~1\AppData\Local\Temp\ccNmN5zT.s:21369  .debug_str:000000000000433f .LASF4652
C:\Users\CYMR90~1\AppData\Local\Temp\ccNmN5zT.s:26616  .debug_str:00000000000195c6 .LASF4653
C:\Users\CYMR90~1\AppData\Local\Temp\ccNmN5zT.s:29930  .debug_str:0000000000026853 .LASF4654
C:\Users\CYMR90~1\AppData\Local\Temp\ccNmN5zT.s:20345  .debug_str:0000000000000365 .LASF4655
C:\Users\CYMR90~1\AppData\Local\Temp\ccNmN5zT.s:20395  .debug_str:0000000000000632 .LASF4656
C:\Users\CYMR90~1\AppData\Local\Temp\ccNmN5zT.s:30588  .debug_str:000000000002930c .LASF4657
C:\Users\CYMR90~1\AppData\Local\Temp\ccNmN5zT.s:21401  .debug_str:0000000000004582 .LASF4658
C:\Users\CYMR90~1\AppData\Local\Temp\ccNmN5zT.s:23047  .debug_str:000000000000aedb .LASF4659
C:\Users\CYMR90~1\AppData\Local\Temp\ccNmN5zT.s:20367  .debug_str:00000000000004c7 .LASF4660
C:\Users\CYMR90~1\AppData\Local\Temp\ccNmN5zT.s:27888  .debug_str:000000000001e8b1 .LASF4661
C:\Users\CYMR90~1\AppData\Local\Temp\ccNmN5zT.s:26042  .debug_str:0000000000017139 .LASF4662
C:\Users\CYMR90~1\AppData\Local\Temp\ccNmN5zT.s:20921  .debug_str:0000000000002632 .LASF4663
C:\Users\CYMR90~1\AppData\Local\Temp\ccNmN5zT.s:30038  .debug_str:0000000000026ec9 .LASF4664
C:\Users\CYMR90~1\AppData\Local\Temp\ccNmN5zT.s:31382  .debug_str:000000000002c3e9 .LASF4665
C:\Users\CYMR90~1\AppData\Local\Temp\ccNmN5zT.s:28338  .debug_str:000000000002038b .LASF4666
C:\Users\CYMR90~1\AppData\Local\Temp\ccNmN5zT.s:23389  .debug_str:000000000000c5e3 .LASF4667
C:\Users\CYMR90~1\AppData\Local\Temp\ccNmN5zT.s:21235  .debug_str:0000000000003a9b .LASF4668
C:\Users\CYMR90~1\AppData\Local\Temp\ccNmN5zT.s:23287  .debug_str:000000000000bf7d .LASF4669
C:\Users\CYMR90~1\AppData\Local\Temp\ccNmN5zT.s:28948  .debug_str:0000000000022911 .LASF4670
C:\Users\CYMR90~1\AppData\Local\Temp\ccNmN5zT.s:30480  .debug_str:0000000000028c82 .LASF4671
C:\Users\CYMR90~1\AppData\Local\Temp\ccNmN5zT.s:21797  .debug_str:0000000000005e18 .LASF4672
C:\Users\CYMR90~1\AppData\Local\Temp\ccNmN5zT.s:24587  .debug_str:000000000001110d .LASF4673
C:\Users\CYMR90~1\AppData\Local\Temp\ccNmN5zT.s:23769  .debug_str:000000000000de6e .LASF4674
C:\Users\CYMR90~1\AppData\Local\Temp\ccNmN5zT.s:21453  .debug_str:000000000000498b .LASF4675
C:\Users\CYMR90~1\AppData\Local\Temp\ccNmN5zT.s:23497  .debug_str:000000000000cd58 .LASF4676
C:\Users\CYMR90~1\AppData\Local\Temp\ccNmN5zT.s:25243  .debug_str:0000000000013c7b .LASF4677
C:\Users\CYMR90~1\AppData\Local\Temp\ccNmN5zT.s:21271  .debug_str:0000000000003c9b .LASF4678
C:\Users\CYMR90~1\AppData\Local\Temp\ccNmN5zT.s:25569  .debug_str:000000000001512b .LASF4679
C:\Users\CYMR90~1\AppData\Local\Temp\ccNmN5zT.s:20293  .debug_str:000000000000002e .LASF4680
C:\Users\CYMR90~1\AppData\Local\Temp\ccNmN5zT.s:24571  .debug_str:000000000001101e .LASF4681
C:\Users\CYMR90~1\AppData\Local\Temp\ccNmN5zT.s:26934  .debug_str:000000000001ab61 .LASF4682
C:\Users\CYMR90~1\AppData\Local\Temp\ccNmN5zT.s:25987  .debug_str:0000000000016c29 .LASF4683
C:\Users\CYMR90~1\AppData\Local\Temp\ccNmN5zT.s:31320  .debug_str:000000000002c00c .LASF4684
C:\Users\CYMR90~1\AppData\Local\Temp\ccNmN5zT.s:29376  .debug_str:0000000000024313 .LASF4685
C:\Users\CYMR90~1\AppData\Local\Temp\ccNmN5zT.s:22017  .debug_str:0000000000006b45 .LASF4686
C:\Users\CYMR90~1\AppData\Local\Temp\ccNmN5zT.s:28010  .debug_str:000000000001efc9 .LASF4687
C:\Users\CYMR90~1\AppData\Local\Temp\ccNmN5zT.s:25507  .debug_str:0000000000014ce0 .LASF4688
C:\Users\CYMR90~1\AppData\Local\Temp\ccNmN5zT.s:30664  .debug_str:000000000002979d .LASF4689
C:\Users\CYMR90~1\AppData\Local\Temp\ccNmN5zT.s:26536  .debug_str:0000000000018ffb .LASF4690
C:\Users\CYMR90~1\AppData\Local\Temp\ccNmN5zT.s:25097  .debug_str:00000000000132e1 .LASF4691
C:\Users\CYMR90~1\AppData\Local\Temp\ccNmN5zT.s:20915  .debug_str:000000000000259c .LASF4692
C:\Users\CYMR90~1\AppData\Local\Temp\ccNmN5zT.s:27992  .debug_str:000000000001eea6 .LASF4693
C:\Users\CYMR90~1\AppData\Local\Temp\ccNmN5zT.s:22899  .debug_str:000000000000a4c1 .LASF4694
C:\Users\CYMR90~1\AppData\Local\Temp\ccNmN5zT.s:20423  .debug_str:000000000000081a .LASF4695
C:\Users\CYMR90~1\AppData\Local\Temp\ccNmN5zT.s:26950  .debug_str:000000000001ac60 .LASF4696
C:\Users\CYMR90~1\AppData\Local\Temp\ccNmN5zT.s:30250  .debug_str:0000000000027c7d .LASF4697
C:\Users\CYMR90~1\AppData\Local\Temp\ccNmN5zT.s:25651  .debug_str:00000000000155ef .LASF4698
C:\Users\CYMR90~1\AppData\Local\Temp\ccNmN5zT.s:26600  .debug_str:0000000000019492 .LASF4699
C:\Users\CYMR90~1\AppData\Local\Temp\ccNmN5zT.s:23279  .debug_str:000000000000bef5 .LASF4700
C:\Users\CYMR90~1\AppData\Local\Temp\ccNmN5zT.s:26658  .debug_str:0000000000019873 .LASF4701
C:\Users\CYMR90~1\AppData\Local\Temp\ccNmN5zT.s:28566  .debug_str:00000000000211a5 .LASF4702
C:\Users\CYMR90~1\AppData\Local\Temp\ccNmN5zT.s:26682  .debug_str:0000000000019a79 .LASF4703
C:\Users\CYMR90~1\AppData\Local\Temp\ccNmN5zT.s:21351  .debug_str:0000000000004233 .LASF4704
C:\Users\CYMR90~1\AppData\Local\Temp\ccNmN5zT.s:22947  .debug_str:000000000000a765 .LASF4705
C:\Users\CYMR90~1\AppData\Local\Temp\ccNmN5zT.s:23641  .debug_str:000000000000d6fd .LASF4706
C:\Users\CYMR90~1\AppData\Local\Temp\ccNmN5zT.s:28408  .debug_str:0000000000020878 .LASF4707
C:\Users\CYMR90~1\AppData\Local\Temp\ccNmN5zT.s:28004  .debug_str:000000000001ef60 .LASF4708
C:\Users\CYMR90~1\AppData\Local\Temp\ccNmN5zT.s:23767  .debug_str:000000000000de32 .LASF4709
C:\Users\CYMR90~1\AppData\Local\Temp\ccNmN5zT.s:27056  .debug_str:000000000001b378 .LASF4710
C:\Users\CYMR90~1\AppData\Local\Temp\ccNmN5zT.s:30894  .debug_str:000000000002a4d7 .LASF4711
C:\Users\CYMR90~1\AppData\Local\Temp\ccNmN5zT.s:24489  .debug_str:0000000000010b16 .LASF4712
C:\Users\CYMR90~1\AppData\Local\Temp\ccNmN5zT.s:25209  .debug_str:0000000000013a71 .LASF4713
C:\Users\CYMR90~1\AppData\Local\Temp\ccNmN5zT.s:28848  .debug_str:0000000000022339 .LASF4714
C:\Users\CYMR90~1\AppData\Local\Temp\ccNmN5zT.s:30998  .debug_str:000000000002ab39 .LASF4715
C:\Users\CYMR90~1\AppData\Local\Temp\ccNmN5zT.s:24275  .debug_str:000000000000fd94 .LASF4716
C:\Users\CYMR90~1\AppData\Local\Temp\ccNmN5zT.s:28912  .debug_str:00000000000226c0 .LASF4717
C:\Users\CYMR90~1\AppData\Local\Temp\ccNmN5zT.s:31234  .debug_str:000000000002ba35 .LASF4718
C:\Users\CYMR90~1\AppData\Local\Temp\ccNmN5zT.s:29418  .debug_str:00000000000245de .LASF4719
C:\Users\CYMR90~1\AppData\Local\Temp\ccNmN5zT.s:27466  .debug_str:000000000001cd02 .LASF4720
C:\Users\CYMR90~1\AppData\Local\Temp\ccNmN5zT.s:27400  .debug_str:000000000001c8cd .LASF4721
C:\Users\CYMR90~1\AppData\Local\Temp\ccNmN5zT.s:26708  .debug_str:0000000000019c19 .LASF4722
C:\Users\CYMR90~1\AppData\Local\Temp\ccNmN5zT.s:24411  .debug_str:00000000000105a7 .LASF4723
C:\Users\CYMR90~1\AppData\Local\Temp\ccNmN5zT.s:24845  .debug_str:0000000000012273 .LASF4724
C:\Users\CYMR90~1\AppData\Local\Temp\ccNmN5zT.s:21147  .debug_str:00000000000034f4 .LASF4725
C:\Users\CYMR90~1\AppData\Local\Temp\ccNmN5zT.s:22023  .debug_str:0000000000006bab .LASF4726
C:\Users\CYMR90~1\AppData\Local\Temp\ccNmN5zT.s:24901  .debug_str:0000000000012604 .LASF4727
C:\Users\CYMR90~1\AppData\Local\Temp\ccNmN5zT.s:31038  .debug_str:000000000002ad8d .LASF4728
C:\Users\CYMR90~1\AppData\Local\Temp\ccNmN5zT.s:23885  .debug_str:000000000000e55b .LASF4729
C:\Users\CYMR90~1\AppData\Local\Temp\ccNmN5zT.s:26810  .debug_str:000000000001a221 .LASF4730
C:\Users\CYMR90~1\AppData\Local\Temp\ccNmN5zT.s:20509  .debug_str:0000000000000d8e .LASF4731
C:\Users\CYMR90~1\AppData\Local\Temp\ccNmN5zT.s:30254  .debug_str:0000000000027cca .LASF4732
C:\Users\CYMR90~1\AppData\Local\Temp\ccNmN5zT.s:31494  .debug_str:000000000002cb38 .LASF4733
C:\Users\CYMR90~1\AppData\Local\Temp\ccNmN5zT.s:23669  .debug_str:000000000000d893 .LASF4734
C:\Users\CYMR90~1\AppData\Local\Temp\ccNmN5zT.s:26326  .debug_str:0000000000018288 .LASF4735
C:\Users\CYMR90~1\AppData\Local\Temp\ccNmN5zT.s:20657  .debug_str:000000000000163e .LASF4736
C:\Users\CYMR90~1\AppData\Local\Temp\ccNmN5zT.s:29298  .debug_str:0000000000023def .LASF4737
C:\Users\CYMR90~1\AppData\Local\Temp\ccNmN5zT.s:25795  .debug_str:0000000000015f04 .LASF4738
C:\Users\CYMR90~1\AppData\Local\Temp\ccNmN5zT.s:30960  .debug_str:000000000002a916 .LASF4739
C:\Users\CYMR90~1\AppData\Local\Temp\ccNmN5zT.s:29904  .debug_str:0000000000026699 .LASF4740
C:\Users\CYMR90~1\AppData\Local\Temp\ccNmN5zT.s:30962  .debug_str:000000000002a934 .LASF4741
C:\Users\CYMR90~1\AppData\Local\Temp\ccNmN5zT.s:27338  .debug_str:000000000001c46e .LASF4742
C:\Users\CYMR90~1\AppData\Local\Temp\ccNmN5zT.s:20603  .debug_str:0000000000001336 .LASF4743
C:\Users\CYMR90~1\AppData\Local\Temp\ccNmN5zT.s:29678  .debug_str:0000000000025824 .LASF4744
C:\Users\CYMR90~1\AppData\Local\Temp\ccNmN5zT.s:27240  .debug_str:000000000001be6a .LASF4745
C:\Users\CYMR90~1\AppData\Local\Temp\ccNmN5zT.s:21791  .debug_str:0000000000005db0 .LASF4746
C:\Users\CYMR90~1\AppData\Local\Temp\ccNmN5zT.s:23891  .debug_str:000000000000e5a9 .LASF4747
C:\Users\CYMR90~1\AppData\Local\Temp\ccNmN5zT.s:28348  .debug_str:0000000000020462 .LASF4748
C:\Users\CYMR90~1\AppData\Local\Temp\ccNmN5zT.s:25033  .debug_str:0000000000012ead .LASF4749
C:\Users\CYMR90~1\AppData\Local\Temp\ccNmN5zT.s:30050  .debug_str:0000000000026f9b .LASF4750
C:\Users\CYMR90~1\AppData\Local\Temp\ccNmN5zT.s:25561  .debug_str:000000000001509c .LASF4751
C:\Users\CYMR90~1\AppData\Local\Temp\ccNmN5zT.s:25315  .debug_str:00000000000140e8 .LASF4752
C:\Users\CYMR90~1\AppData\Local\Temp\ccNmN5zT.s:23379  .debug_str:000000000000c544 .LASF4753
C:\Users\CYMR90~1\AppData\Local\Temp\ccNmN5zT.s:28218  .debug_str:000000000001fc89 .LASF4754
C:\Users\CYMR90~1\AppData\Local\Temp\ccNmN5zT.s:23991  .debug_str:000000000000ec3f .LASF4755
C:\Users\CYMR90~1\AppData\Local\Temp\ccNmN5zT.s:21703  .debug_str:0000000000005856 .LASF4756
C:\Users\CYMR90~1\AppData\Local\Temp\ccNmN5zT.s:30800  .debug_str:0000000000029f81 .LASF4757
C:\Users\CYMR90~1\AppData\Local\Temp\ccNmN5zT.s:28522  .debug_str:0000000000020f4d .LASF4758
C:\Users\CYMR90~1\AppData\Local\Temp\ccNmN5zT.s:21757  .debug_str:0000000000005bde .LASF4759
C:\Users\CYMR90~1\AppData\Local\Temp\ccNmN5zT.s:24191  .debug_str:000000000000f89c .LASF4760
C:\Users\CYMR90~1\AppData\Local\Temp\ccNmN5zT.s:22615  .debug_str:0000000000009307 .LASF4761
C:\Users\CYMR90~1\AppData\Local\Temp\ccNmN5zT.s:30996  .debug_str:000000000002ab17 .LASF4762
C:\Users\CYMR90~1\AppData\Local\Temp\ccNmN5zT.s:28612  .debug_str:0000000000021513 .LASF4763
C:\Users\CYMR90~1\AppData\Local\Temp\ccNmN5zT.s:30454  .debug_str:0000000000028b1a .LASF4764
C:\Users\CYMR90~1\AppData\Local\Temp\ccNmN5zT.s:22009  .debug_str:0000000000006ac2 .LASF4765
C:\Users\CYMR90~1\AppData\Local\Temp\ccNmN5zT.s:28764  .debug_str:0000000000021e42 .LASF4766
C:\Users\CYMR90~1\AppData\Local\Temp\ccNmN5zT.s:30626  .debug_str:0000000000029511 .LASF4767
C:\Users\CYMR90~1\AppData\Local\Temp\ccNmN5zT.s:30350  .debug_str:0000000000028428 .LASF4768
C:\Users\CYMR90~1\AppData\Local\Temp\ccNmN5zT.s:29642  .debug_str:0000000000025590 .LASF4769
C:\Users\CYMR90~1\AppData\Local\Temp\ccNmN5zT.s:26784  .debug_str:000000000001a0ad .LASF4770
C:\Users\CYMR90~1\AppData\Local\Temp\ccNmN5zT.s:22785  .debug_str:0000000000009d96 .LASF4771
C:\Users\CYMR90~1\AppData\Local\Temp\ccNmN5zT.s:24193  .debug_str:000000000000f8be .LASF4772
C:\Users\CYMR90~1\AppData\Local\Temp\ccNmN5zT.s:20875  .debug_str:000000000000234b .LASF4773
C:\Users\CYMR90~1\AppData\Local\Temp\ccNmN5zT.s:22933  .debug_str:000000000000a6a4 .LASF4774
C:\Users\CYMR90~1\AppData\Local\Temp\ccNmN5zT.s:27858  .debug_str:000000000001e6b5 .LASF4775
C:\Users\CYMR90~1\AppData\Local\Temp\ccNmN5zT.s:26106  .debug_str:00000000000174da .LASF4776
C:\Users\CYMR90~1\AppData\Local\Temp\ccNmN5zT.s:23591  .debug_str:000000000000d362 .LASF4777
C:\Users\CYMR90~1\AppData\Local\Temp\ccNmN5zT.s:31370  .debug_str:000000000002c2d5 .LASF4778
C:\Users\CYMR90~1\AppData\Local\Temp\ccNmN5zT.s:25945  .debug_str:00000000000168a3 .LASF4779
C:\Users\CYMR90~1\AppData\Local\Temp\ccNmN5zT.s:31026  .debug_str:000000000002accf .LASF4780
C:\Users\CYMR90~1\AppData\Local\Temp\ccNmN5zT.s:21083  .debug_str:00000000000030c9 .LASF4781
C:\Users\CYMR90~1\AppData\Local\Temp\ccNmN5zT.s:29394  .debug_str:0000000000024473 .LASF4782
C:\Users\CYMR90~1\AppData\Local\Temp\ccNmN5zT.s:25955  .debug_str:00000000000169a9 .LASF4783
C:\Users\CYMR90~1\AppData\Local\Temp\ccNmN5zT.s:22503  .debug_str:0000000000008c24 .LASF4784
C:\Users\CYMR90~1\AppData\Local\Temp\ccNmN5zT.s:30134  .debug_str:0000000000027562 .LASF4785
C:\Users\CYMR90~1\AppData\Local\Temp\ccNmN5zT.s:29060  .debug_str:0000000000022fd4 .LASF4786
C:\Users\CYMR90~1\AppData\Local\Temp\ccNmN5zT.s:20845  .debug_str:00000000000021c1 .LASF4787
C:\Users\CYMR90~1\AppData\Local\Temp\ccNmN5zT.s:21969  .debug_str:0000000000006855 .LASF4788
C:\Users\CYMR90~1\AppData\Local\Temp\ccNmN5zT.s:30272  .debug_str:0000000000027e13 .LASF4789
C:\Users\CYMR90~1\AppData\Local\Temp\ccNmN5zT.s:27790  .debug_str:000000000001e2bf .LASF4790
C:\Users\CYMR90~1\AppData\Local\Temp\ccNmN5zT.s:22331  .debug_str:0000000000008140 .LASF4791
C:\Users\CYMR90~1\AppData\Local\Temp\ccNmN5zT.s:30192  .debug_str:00000000000278a7 .LASF4792
C:\Users\CYMR90~1\AppData\Local\Temp\ccNmN5zT.s:24055  .debug_str:000000000000efaa .LASF4793
C:\Users\CYMR90~1\AppData\Local\Temp\ccNmN5zT.s:27474  .debug_str:000000000001cd80 .LASF4794
C:\Users\CYMR90~1\AppData\Local\Temp\ccNmN5zT.s:27604  .debug_str:000000000001d66e .LASF4795
C:\Users\CYMR90~1\AppData\Local\Temp\ccNmN5zT.s:20829  .debug_str:00000000000020ec .LASF4796
C:\Users\CYMR90~1\AppData\Local\Temp\ccNmN5zT.s:24217  .debug_str:000000000000f9fd .LASF4797
C:\Users\CYMR90~1\AppData\Local\Temp\ccNmN5zT.s:30778  .debug_str:0000000000029e58 .LASF4798
C:\Users\CYMR90~1\AppData\Local\Temp\ccNmN5zT.s:24033  .debug_str:000000000000ee74 .LASF4799
C:\Users\CYMR90~1\AppData\Local\Temp\ccNmN5zT.s:27392  .debug_str:000000000001c7b7 .LASF4800
C:\Users\CYMR90~1\AppData\Local\Temp\ccNmN5zT.s:21319  .debug_str:0000000000003fe8 .LASF4801
C:\Users\CYMR90~1\AppData\Local\Temp\ccNmN5zT.s:29756  .debug_str:0000000000025d72 .LASF4802
C:\Users\CYMR90~1\AppData\Local\Temp\ccNmN5zT.s:23927  .debug_str:000000000000e82e .LASF4803
C:\Users\CYMR90~1\AppData\Local\Temp\ccNmN5zT.s:28658  .debug_str:00000000000217f3 .LASF4804
C:\Users\CYMR90~1\AppData\Local\Temp\ccNmN5zT.s:25399  .debug_str:0000000000014607 .LASF4805
C:\Users\CYMR90~1\AppData\Local\Temp\ccNmN5zT.s:23071  .debug_str:000000000000b0f7 .LASF4806
C:\Users\CYMR90~1\AppData\Local\Temp\ccNmN5zT.s:28478  .debug_str:0000000000020cc9 .LASF4807
C:\Users\CYMR90~1\AppData\Local\Temp\ccNmN5zT.s:29870  .debug_str:000000000002646b .LASF4808
C:\Users\CYMR90~1\AppData\Local\Temp\ccNmN5zT.s:28168  .debug_str:000000000001f962 .LASF4809
C:\Users\CYMR90~1\AppData\Local\Temp\ccNmN5zT.s:28766  .debug_str:0000000000021e66 .LASF4810
C:\Users\CYMR90~1\AppData\Local\Temp\ccNmN5zT.s:27040  .debug_str:000000000001b24d .LASF4811
C:\Users\CYMR90~1\AppData\Local\Temp\ccNmN5zT.s:28320  .debug_str:0000000000020296 .LASF4812
C:\Users\CYMR90~1\AppData\Local\Temp\ccNmN5zT.s:29818  .debug_str:0000000000026173 .LASF4813
C:\Users\CYMR90~1\AppData\Local\Temp\ccNmN5zT.s:29302  .debug_str:0000000000023e2f .LASF4814
C:\Users\CYMR90~1\AppData\Local\Temp\ccNmN5zT.s:22523  .debug_str:0000000000008d20 .LASF4815
C:\Users\CYMR90~1\AppData\Local\Temp\ccNmN5zT.s:31584  .debug_str:000000000002d0fa .LASF4816
C:\Users\CYMR90~1\AppData\Local\Temp\ccNmN5zT.s:21933  .debug_str:0000000000006635 .LASF4817
C:\Users\CYMR90~1\AppData\Local\Temp\ccNmN5zT.s:21571  .debug_str:0000000000005090 .LASF4818
C:\Users\CYMR90~1\AppData\Local\Temp\ccNmN5zT.s:29018  .debug_str:0000000000022d84 .LASF4819
C:\Users\CYMR90~1\AppData\Local\Temp\ccNmN5zT.s:28966  .debug_str:0000000000022a31 .LASF4820
C:\Users\CYMR90~1\AppData\Local\Temp\ccNmN5zT.s:28264  .debug_str:000000000001ff86 .LASF4821
C:\Users\CYMR90~1\AppData\Local\Temp\ccNmN5zT.s:20461  .debug_str:0000000000000a75 .LASF4822
C:\Users\CYMR90~1\AppData\Local\Temp\ccNmN5zT.s:25189  .debug_str:000000000001394d .LASF4823
C:\Users\CYMR90~1\AppData\Local\Temp\ccNmN5zT.s:26304  .debug_str:0000000000018100 .LASF4824
C:\Users\CYMR90~1\AppData\Local\Temp\ccNmN5zT.s:23913  .debug_str:000000000000e74e .LASF4825
C:\Users\CYMR90~1\AppData\Local\Temp\ccNmN5zT.s:27500  .debug_str:000000000001cfcb .LASF4826
C:\Users\CYMR90~1\AppData\Local\Temp\ccNmN5zT.s:25533  .debug_str:0000000000014ecf .LASF4827
C:\Users\CYMR90~1\AppData\Local\Temp\ccNmN5zT.s:20841  .debug_str:000000000000217a .LASF4828
C:\Users\CYMR90~1\AppData\Local\Temp\ccNmN5zT.s:22305  .debug_str:0000000000007eff .LASF4829
C:\Users\CYMR90~1\AppData\Local\Temp\ccNmN5zT.s:23349  .debug_str:000000000000c366 .LASF4830
C:\Users\CYMR90~1\AppData\Local\Temp\ccNmN5zT.s:25679  .debug_str:0000000000015798 .LASF4831
C:\Users\CYMR90~1\AppData\Local\Temp\ccNmN5zT.s:27190  .debug_str:000000000001bb0e .LASF4832
C:\Users\CYMR90~1\AppData\Local\Temp\ccNmN5zT.s:21407  .debug_str:00000000000045d7 .LASF4833
C:\Users\CYMR90~1\AppData\Local\Temp\ccNmN5zT.s:22429  .debug_str:0000000000008756 .LASF4834
C:\Users\CYMR90~1\AppData\Local\Temp\ccNmN5zT.s:21459  .debug_str:00000000000049ec .LASF4835
C:\Users\CYMR90~1\AppData\Local\Temp\ccNmN5zT.s:27770  .debug_str:000000000001e19c .LASF4836
C:\Users\CYMR90~1\AppData\Local\Temp\ccNmN5zT.s:29396  .debug_str:000000000002448f .LASF4837
C:\Users\CYMR90~1\AppData\Local\Temp\ccNmN5zT.s:30910  .debug_str:000000000002a60f .LASF4838
C:\Users\CYMR90~1\AppData\Local\Temp\ccNmN5zT.s:24263  .debug_str:000000000000fcc5 .LASF4839
C:\Users\CYMR90~1\AppData\Local\Temp\ccNmN5zT.s:28792  .debug_str:0000000000021fe1 .LASF4840
C:\Users\CYMR90~1\AppData\Local\Temp\ccNmN5zT.s:30342  .debug_str:00000000000283a4 .LASF4841
C:\Users\CYMR90~1\AppData\Local\Temp\ccNmN5zT.s:29186  .debug_str:000000000002372a .LASF4842
C:\Users\CYMR90~1\AppData\Local\Temp\ccNmN5zT.s:25553  .debug_str:000000000001501f .LASF4843
C:\Users\CYMR90~1\AppData\Local\Temp\ccNmN5zT.s:31110  .debug_str:000000000002b1c4 .LASF4844
C:\Users\CYMR90~1\AppData\Local\Temp\ccNmN5zT.s:23107  .debug_str:000000000000b311 .LASF4845
C:\Users\CYMR90~1\AppData\Local\Temp\ccNmN5zT.s:30608  .debug_str:000000000002940f .LASF4846
C:\Users\CYMR90~1\AppData\Local\Temp\ccNmN5zT.s:25631  .debug_str:00000000000154ec .LASF4847
C:\Users\CYMR90~1\AppData\Local\Temp\ccNmN5zT.s:28668  .debug_str:000000000002187d .LASF4848
C:\Users\CYMR90~1\AppData\Local\Temp\ccNmN5zT.s:25597  .debug_str:00000000000152f6 .LASF4849
C:\Users\CYMR90~1\AppData\Local\Temp\ccNmN5zT.s:20433  .debug_str:00000000000008b1 .LASF4850
C:\Users\CYMR90~1\AppData\Local\Temp\ccNmN5zT.s:20381  .debug_str:000000000000057c .LASF4851
C:\Users\CYMR90~1\AppData\Local\Temp\ccNmN5zT.s:27970  .debug_str:000000000001ed64 .LASF4852
C:\Users\CYMR90~1\AppData\Local\Temp\ccNmN5zT.s:22849  .debug_str:000000000000a196 .LASF4853
C:\Users\CYMR90~1\AppData\Local\Temp\ccNmN5zT.s:21679  .debug_str:00000000000056f0 .LASF4854
C:\Users\CYMR90~1\AppData\Local\Temp\ccNmN5zT.s:24189  .debug_str:000000000000f872 .LASF4855
C:\Users\CYMR90~1\AppData\Local\Temp\ccNmN5zT.s:26440  .debug_str:000000000001895b .LASF4856
C:\Users\CYMR90~1\AppData\Local\Temp\ccNmN5zT.s:20941  .debug_str:00000000000027b0 .LASF4857
C:\Users\CYMR90~1\AppData\Local\Temp\ccNmN5zT.s:26686  .debug_str:0000000000019acc .LASF4858
C:\Users\CYMR90~1\AppData\Local\Temp\ccNmN5zT.s:28026  .debug_str:000000000001f0df .LASF4859
C:\Users\CYMR90~1\AppData\Local\Temp\ccNmN5zT.s:20469  .debug_str:0000000000000b3b .LASF4860
C:\Users\CYMR90~1\AppData\Local\Temp\ccNmN5zT.s:21913  .debug_str:000000000000651c .LASF4861
C:\Users\CYMR90~1\AppData\Local\Temp\ccNmN5zT.s:24943  .debug_str:00000000000128c4 .LASF4862
C:\Users\CYMR90~1\AppData\Local\Temp\ccNmN5zT.s:27302  .debug_str:000000000001c27a .LASF4863
C:\Users\CYMR90~1\AppData\Local\Temp\ccNmN5zT.s:26688  .debug_str:0000000000019af8 .LASF4864
C:\Users\CYMR90~1\AppData\Local\Temp\ccNmN5zT.s:31062  .debug_str:000000000002af17 .LASF4865
C:\Users\CYMR90~1\AppData\Local\Temp\ccNmN5zT.s:23265  .debug_str:000000000000bdf7 .LASF4866
C:\Users\CYMR90~1\AppData\Local\Temp\ccNmN5zT.s:26274  .debug_str:0000000000017f7b .LASF4867
C:\Users\CYMR90~1\AppData\Local\Temp\ccNmN5zT.s:25289  .debug_str:0000000000013f5a .LASF4868
C:\Users\CYMR90~1\AppData\Local\Temp\ccNmN5zT.s:27916  .debug_str:000000000001ea6a .LASF4869
C:\Users\CYMR90~1\AppData\Local\Temp\ccNmN5zT.s:28464  .debug_str:0000000000020bee .LASF4870
C:\Users\CYMR90~1\AppData\Local\Temp\ccNmN5zT.s:28468  .debug_str:0000000000020c27 .LASF4871
C:\Users\CYMR90~1\AppData\Local\Temp\ccNmN5zT.s:21061  .debug_str:0000000000002f4e .LASF4872
C:\Users\CYMR90~1\AppData\Local\Temp\ccNmN5zT.s:24361  .debug_str:00000000000102e8 .LASF4873
C:\Users\CYMR90~1\AppData\Local\Temp\ccNmN5zT.s:30804  .debug_str:0000000000029fbe .LASF4874
C:\Users\CYMR90~1\AppData\Local\Temp\ccNmN5zT.s:22463  .debug_str:0000000000008999 .LASF4875
C:\Users\CYMR90~1\AppData\Local\Temp\ccNmN5zT.s:24223  .debug_str:000000000000fa53 .LASF4876
C:\Users\CYMR90~1\AppData\Local\Temp\ccNmN5zT.s:21003  .debug_str:0000000000002bd2 .LASF4877
C:\Users\CYMR90~1\AppData\Local\Temp\ccNmN5zT.s:24251  .debug_str:000000000000fc24 .LASF4878
C:\Users\CYMR90~1\AppData\Local\Temp\ccNmN5zT.s:26070  .debug_str:00000000000172c4 .LASF4879
C:\Users\CYMR90~1\AppData\Local\Temp\ccNmN5zT.s:23707  .debug_str:000000000000dac4 .LASF4880
C:\Users\CYMR90~1\AppData\Local\Temp\ccNmN5zT.s:26148  .debug_str:0000000000017775 .LASF4881
C:\Users\CYMR90~1\AppData\Local\Temp\ccNmN5zT.s:22735  .debug_str:0000000000009ab1 .LASF4882
C:\Users\CYMR90~1\AppData\Local\Temp\ccNmN5zT.s:25547  .debug_str:0000000000014fc1 .LASF4883
C:\Users\CYMR90~1\AppData\Local\Temp\ccNmN5zT.s:22485  .debug_str:0000000000008b01 .LASF4884
C:\Users\CYMR90~1\AppData\Local\Temp\ccNmN5zT.s:22419  .debug_str:00000000000086bc .LASF4885
C:\Users\CYMR90~1\AppData\Local\Temp\ccNmN5zT.s:31060  .debug_str:000000000002aef2 .LASF4886
C:\Users\CYMR90~1\AppData\Local\Temp\ccNmN5zT.s:29350  .debug_str:0000000000024162 .LASF4887
C:\Users\CYMR90~1\AppData\Local\Temp\ccNmN5zT.s:31046  .debug_str:000000000002ae27 .LASF4888
C:\Users\CYMR90~1\AppData\Local\Temp\ccNmN5zT.s:26336  .debug_str:000000000001830a .LASF4889
C:\Users\CYMR90~1\AppData\Local\Temp\ccNmN5zT.s:30534  .debug_str:0000000000028fd0 .LASF4890
C:\Users\CYMR90~1\AppData\Local\Temp\ccNmN5zT.s:30216  .debug_str:0000000000027a09 .LASF4891
C:\Users\CYMR90~1\AppData\Local\Temp\ccNmN5zT.s:22711  .debug_str:0000000000009932 .LASF4892
C:\Users\CYMR90~1\AppData\Local\Temp\ccNmN5zT.s:29958  .debug_str:00000000000269d9 .LASF4893
C:\Users\CYMR90~1\AppData\Local\Temp\ccNmN5zT.s:26320  .debug_str:000000000001821f .LASF4894
C:\Users\CYMR90~1\AppData\Local\Temp\ccNmN5zT.s:26228  .debug_str:0000000000017c94 .LASF4895
C:\Users\CYMR90~1\AppData\Local\Temp\ccNmN5zT.s:30090  .debug_str:00000000000271b6 .LASF4896
C:\Users\CYMR90~1\AppData\Local\Temp\ccNmN5zT.s:24113  .debug_str:000000000000f32d .LASF4897
C:\Users\CYMR90~1\AppData\Local\Temp\ccNmN5zT.s:27478  .debug_str:000000000001cdc4 .LASF4898
C:\Users\CYMR90~1\AppData\Local\Temp\ccNmN5zT.s:26514  .debug_str:0000000000018ee7 .LASF4899
C:\Users\CYMR90~1\AppData\Local\Temp\ccNmN5zT.s:23429  .debug_str:000000000000c8bb .LASF4900
C:\Users\CYMR90~1\AppData\Local\Temp\ccNmN5zT.s:29610  .debug_str:000000000002536e .LASF4901
C:\Users\CYMR90~1\AppData\Local\Temp\ccNmN5zT.s:22841  .debug_str:000000000000a120 .LASF4902
C:\Users\CYMR90~1\AppData\Local\Temp\ccNmN5zT.s:29432  .debug_str:00000000000246bb .LASF4903
C:\Users\CYMR90~1\AppData\Local\Temp\ccNmN5zT.s:27244  .debug_str:000000000001beb4 .LASF4904
C:\Users\CYMR90~1\AppData\Local\Temp\ccNmN5zT.s:23569  .debug_str:000000000000d1b5 .LASF4905
C:\Users\CYMR90~1\AppData\Local\Temp\ccNmN5zT.s:24429  .debug_str:0000000000010772 .LASF4906
C:\Users\CYMR90~1\AppData\Local\Temp\ccNmN5zT.s:20783  .debug_str:0000000000001e78 .LASF4907
C:\Users\CYMR90~1\AppData\Local\Temp\ccNmN5zT.s:26024  .debug_str:0000000000017020 .LASF4908
C:\Users\CYMR90~1\AppData\Local\Temp\ccNmN5zT.s:27322  .debug_str:000000000001c38a .LASF4909
C:\Users\CYMR90~1\AppData\Local\Temp\ccNmN5zT.s:25445  .debug_str:0000000000014921 .LASF4910
C:\Users\CYMR90~1\AppData\Local\Temp\ccNmN5zT.s:21399  .debug_str:0000000000004556 .LASF4911
C:\Users\CYMR90~1\AppData\Local\Temp\ccNmN5zT.s:26970  .debug_str:000000000001ad8a .LASF4912
C:\Users\CYMR90~1\AppData\Local\Temp\ccNmN5zT.s:29706  .debug_str:0000000000025a66 .LASF4913
C:\Users\CYMR90~1\AppData\Local\Temp\ccNmN5zT.s:24167  .debug_str:000000000000f673 .LASF4914
C:\Users\CYMR90~1\AppData\Local\Temp\ccNmN5zT.s:23259  .debug_str:000000000000bd65 .LASF4915
C:\Users\CYMR90~1\AppData\Local\Temp\ccNmN5zT.s:20295  .debug_str:000000000000006a .LASF4916
C:\Users\CYMR90~1\AppData\Local\Temp\ccNmN5zT.s:23339  .debug_str:000000000000c2e3 .LASF4917
C:\Users\CYMR90~1\AppData\Local\Temp\ccNmN5zT.s:29140  .debug_str:0000000000023420 .LASF4918
C:\Users\CYMR90~1\AppData\Local\Temp\ccNmN5zT.s:31256  .debug_str:000000000002bbb4 .LASF4919
C:\Users\CYMR90~1\AppData\Local\Temp\ccNmN5zT.s:25685  .debug_str:00000000000157e9 .LASF4920
C:\Users\CYMR90~1\AppData\Local\Temp\ccNmN5zT.s:23217  .debug_str:000000000000ba85 .LASF4921
C:\Users\CYMR90~1\AppData\Local\Temp\ccNmN5zT.s:25537  .debug_str:0000000000014f16 .LASF4922
C:\Users\CYMR90~1\AppData\Local\Temp\ccNmN5zT.s:23173  .debug_str:000000000000b79e .LASF4923
C:\Users\CYMR90~1\AppData\Local\Temp\ccNmN5zT.s:25733  .debug_str:0000000000015ad8 .LASF4924
C:\Users\CYMR90~1\AppData\Local\Temp\ccNmN5zT.s:24621  .debug_str:000000000001131c .LASF4925
C:\Users\CYMR90~1\AppData\Local\Temp\ccNmN5zT.s:24553  .debug_str:0000000000010f23 .LASF4926
C:\Users\CYMR90~1\AppData\Local\Temp\ccNmN5zT.s:24867  .debug_str:00000000000123df .LASF4927
C:\Users\CYMR90~1\AppData\Local\Temp\ccNmN5zT.s:25607  .debug_str:00000000000153b4 .LASF4928
C:\Users\CYMR90~1\AppData\Local\Temp\ccNmN5zT.s:24535  .debug_str:0000000000010e46 .LASF4929
C:\Users\CYMR90~1\AppData\Local\Temp\ccNmN5zT.s:30404  .debug_str:00000000000287f0 .LASF4930
C:\Users\CYMR90~1\AppData\Local\Temp\ccNmN5zT.s:22193  .debug_str:0000000000007747 .LASF4931
C:\Users\CYMR90~1\AppData\Local\Temp\ccNmN5zT.s:31306  .debug_str:000000000002becb .LASF4932
C:\Users\CYMR90~1\AppData\Local\Temp\ccNmN5zT.s:31324  .debug_str:000000000002c064 .LASF4933
C:\Users\CYMR90~1\AppData\Local\Temp\ccNmN5zT.s:28492  .debug_str:0000000000020db0 .LASF4934
C:\Users\CYMR90~1\AppData\Local\Temp\ccNmN5zT.s:20495  .debug_str:0000000000000cc4 .LASF4935
C:\Users\CYMR90~1\AppData\Local\Temp\ccNmN5zT.s:23213  .debug_str:000000000000ba56 .LASF4936
C:\Users\CYMR90~1\AppData\Local\Temp\ccNmN5zT.s:26394  .debug_str:00000000000186a5 .LASF4937
C:\Users\CYMR90~1\AppData\Local\Temp\ccNmN5zT.s:21923  .debug_str:00000000000065ad .LASF4938
C:\Users\CYMR90~1\AppData\Local\Temp\ccNmN5zT.s:22387  .debug_str:0000000000008507 .LASF4939
C:\Users\CYMR90~1\AppData\Local\Temp\ccNmN5zT.s:25053  .debug_str:0000000000013010 .LASF4940
C:\Users\CYMR90~1\AppData\Local\Temp\ccNmN5zT.s:24471  .debug_str:00000000000109bf .LASF4941
C:\Users\CYMR90~1\AppData\Local\Temp\ccNmN5zT.s:28780  .debug_str:0000000000021f4a .LASF4942
C:\Users\CYMR90~1\AppData\Local\Temp\ccNmN5zT.s:27832  .debug_str:000000000001e52c .LASF4943
C:\Users\CYMR90~1\AppData\Local\Temp\ccNmN5zT.s:21599  .debug_str:000000000000524f .LASF4944
C:\Users\CYMR90~1\AppData\Local\Temp\ccNmN5zT.s:28614  .debug_str:0000000000021537 .LASF4945
C:\Users\CYMR90~1\AppData\Local\Temp\ccNmN5zT.s:31472  .debug_str:000000000002c9d4 .LASF4946
C:\Users\CYMR90~1\AppData\Local\Temp\ccNmN5zT.s:21833  .debug_str:0000000000006032 .LASF4947
C:\Users\CYMR90~1\AppData\Local\Temp\ccNmN5zT.s:26772  .debug_str:0000000000019fe3 .LASF4948
C:\Users\CYMR90~1\AppData\Local\Temp\ccNmN5zT.s:25617  .debug_str:000000000001541d .LASF4949
C:\Users\CYMR90~1\AppData\Local\Temp\ccNmN5zT.s:28268  .debug_str:000000000001ffd4 .LASF4950
C:\Users\CYMR90~1\AppData\Local\Temp\ccNmN5zT.s:30436  .debug_str:00000000000289e6 .LASF4951
C:\Users\CYMR90~1\AppData\Local\Temp\ccNmN5zT.s:25267  .debug_str:0000000000013dfb .LASF4952
C:\Users\CYMR90~1\AppData\Local\Temp\ccNmN5zT.s:25199  .debug_str:00000000000139ef .LASF4953
C:\Users\CYMR90~1\AppData\Local\Temp\ccNmN5zT.s:20893  .debug_str:0000000000002482 .LASF4954
C:\Users\CYMR90~1\AppData\Local\Temp\ccNmN5zT.s:27884  .debug_str:000000000001e85d .LASF4955
C:\Users\CYMR90~1\AppData\Local\Temp\ccNmN5zT.s:27342  .debug_str:000000000001c4a2 .LASF4956
C:\Users\CYMR90~1\AppData\Local\Temp\ccNmN5zT.s:29662  .debug_str:0000000000025717 .LASF4957
C:\Users\CYMR90~1\AppData\Local\Temp\ccNmN5zT.s:21977  .debug_str:00000000000068c8 .LASF4958
C:\Users\CYMR90~1\AppData\Local\Temp\ccNmN5zT.s:20747  .debug_str:0000000000001c55 .LASF4959
C:\Users\CYMR90~1\AppData\Local\Temp\ccNmN5zT.s:22575  .debug_str:00000000000090b8 .LASF4960
C:\Users\CYMR90~1\AppData\Local\Temp\ccNmN5zT.s:22737  .debug_str:0000000000009ad4 .LASF4961
C:\Users\CYMR90~1\AppData\Local\Temp\ccNmN5zT.s:20759  .debug_str:0000000000001cf6 .LASF4962
C:\Users\CYMR90~1\AppData\Local\Temp\ccNmN5zT.s:31348  .debug_str:000000000002c1c1 .LASF4963
C:\Users\CYMR90~1\AppData\Local\Temp\ccNmN5zT.s:25489  .debug_str:0000000000014bc0 .LASF4964
C:\Users\CYMR90~1\AppData\Local\Temp\ccNmN5zT.s:25893  .debug_str:0000000000016527 .LASF4965
C:\Users\CYMR90~1\AppData\Local\Temp\ccNmN5zT.s:24989  .debug_str:0000000000012bdf .LASF4966
C:\Users\CYMR90~1\AppData\Local\Temp\ccNmN5zT.s:23057  .debug_str:000000000000b024 .LASF4967
C:\Users\CYMR90~1\AppData\Local\Temp\ccNmN5zT.s:25551  .debug_str:0000000000015006 .LASF4968
C:\Users\CYMR90~1\AppData\Local\Temp\ccNmN5zT.s:22115  .debug_str:000000000000724a .LASF4969
C:\Users\CYMR90~1\AppData\Local\Temp\ccNmN5zT.s:26316  .debug_str:00000000000181e2 .LASF4970
C:\Users\CYMR90~1\AppData\Local\Temp\ccNmN5zT.s:24211  .debug_str:000000000000f9ac .LASF4971
C:\Users\CYMR90~1\AppData\Local\Temp\ccNmN5zT.s:25717  .debug_str:00000000000159ea .LASF4972
C:\Users\CYMR90~1\AppData\Local\Temp\ccNmN5zT.s:22257  .debug_str:0000000000007b51 .LASF4973
C:\Users\CYMR90~1\AppData\Local\Temp\ccNmN5zT.s:26990  .debug_str:000000000001aebf .LASF4974
C:\Users\CYMR90~1\AppData\Local\Temp\ccNmN5zT.s:31600  .debug_str:000000000002d1f8 .LASF4975
C:\Users\CYMR90~1\AppData\Local\Temp\ccNmN5zT.s:21187  .debug_str:0000000000003754 .LASF4976
C:\Users\CYMR90~1\AppData\Local\Temp\ccNmN5zT.s:24849  .debug_str:00000000000122a3 .LASF4977
C:\Users\CYMR90~1\AppData\Local\Temp\ccNmN5zT.s:28978  .debug_str:0000000000022ad6 .LASF4978
C:\Users\CYMR90~1\AppData\Local\Temp\ccNmN5zT.s:21555  .debug_str:0000000000004faa .LASF4979
C:\Users\CYMR90~1\AppData\Local\Temp\ccNmN5zT.s:20763  .debug_str:0000000000001d4f .LASF4980
C:\Users\CYMR90~1\AppData\Local\Temp\ccNmN5zT.s:22733  .debug_str:0000000000009a90 .LASF4981
C:\Users\CYMR90~1\AppData\Local\Temp\ccNmN5zT.s:23627  .debug_str:000000000000d5f8 .LASF4982
C:\Users\CYMR90~1\AppData\Local\Temp\ccNmN5zT.s:20839  .debug_str:000000000000215d .LASF4983
C:\Users\CYMR90~1\AppData\Local\Temp\ccNmN5zT.s:28744  .debug_str:0000000000021d31 .LASF4984
C:\Users\CYMR90~1\AppData\Local\Temp\ccNmN5zT.s:28384  .debug_str:000000000002070b .LASF4985
C:\Users\CYMR90~1\AppData\Local\Temp\ccNmN5zT.s:30100  .debug_str:0000000000027294 .LASF4986
C:\Users\CYMR90~1\AppData\Local\Temp\ccNmN5zT.s:20703  .debug_str:000000000000199b .LASF4987
C:\Users\CYMR90~1\AppData\Local\Temp\ccNmN5zT.s:24231  .debug_str:000000000000fada .LASF4988
C:\Users\CYMR90~1\AppData\Local\Temp\ccNmN5zT.s:22621  .debug_str:000000000000935f .LASF4989
C:\Users\CYMR90~1\AppData\Local\Temp\ccNmN5zT.s:29548  .debug_str:0000000000024e9f .LASF4990
C:\Users\CYMR90~1\AppData\Local\Temp\ccNmN5zT.s:31028  .debug_str:000000000002acf5 .LASF4991
C:\Users\CYMR90~1\AppData\Local\Temp\ccNmN5zT.s:26044  .debug_str:0000000000017167 .LASF4992
C:\Users\CYMR90~1\AppData\Local\Temp\ccNmN5zT.s:26152  .debug_str:00000000000177bc .LASF4993
C:\Users\CYMR90~1\AppData\Local\Temp\ccNmN5zT.s:27700  .debug_str:000000000001dcc6 .LASF4994
C:\Users\CYMR90~1\AppData\Local\Temp\ccNmN5zT.s:22859  .debug_str:000000000000a247 .LASF4995
C:\Users\CYMR90~1\AppData\Local\Temp\ccNmN5zT.s:28134  .debug_str:000000000001f764 .LASF4996
C:\Users\CYMR90~1\AppData\Local\Temp\ccNmN5zT.s:29316  .debug_str:0000000000023ecf .LASF4997
C:\Users\CYMR90~1\AppData\Local\Temp\ccNmN5zT.s:24981  .debug_str:0000000000012b72 .LASF4998
C:\Users\CYMR90~1\AppData\Local\Temp\ccNmN5zT.s:21191  .debug_str:000000000000378d .LASF4999
C:\Users\CYMR90~1\AppData\Local\Temp\ccNmN5zT.s:21377  .debug_str:00000000000043c8 .LASF5000
C:\Users\CYMR90~1\AppData\Local\Temp\ccNmN5zT.s:30252  .debug_str:0000000000027cab .LASF5001
C:\Users\CYMR90~1\AppData\Local\Temp\ccNmN5zT.s:24637  .debug_str:000000000001140f .LASF5002
C:\Users\CYMR90~1\AppData\Local\Temp\ccNmN5zT.s:23225  .debug_str:000000000000baec .LASF5003
C:\Users\CYMR90~1\AppData\Local\Temp\ccNmN5zT.s:29308  .debug_str:0000000000023e7e .LASF5004
C:\Users\CYMR90~1\AppData\Local\Temp\ccNmN5zT.s:29410  .debug_str:000000000002457e .LASF5005
C:\Users\CYMR90~1\AppData\Local\Temp\ccNmN5zT.s:25687  .debug_str:00000000000157ff .LASF5006
C:\Users\CYMR90~1\AppData\Local\Temp\ccNmN5zT.s:21215  .debug_str:0000000000003918 .LASF5007
C:\Users\CYMR90~1\AppData\Local\Temp\ccNmN5zT.s:26026  .debug_str:000000000001704a .LASF5008
C:\Users\CYMR90~1\AppData\Local\Temp\ccNmN5zT.s:21155  .debug_str:0000000000003585 .LASF5009
C:\Users\CYMR90~1\AppData\Local\Temp\ccNmN5zT.s:21493  .debug_str:0000000000004bf6 .LASF5010
C:\Users\CYMR90~1\AppData\Local\Temp\ccNmN5zT.s:21885  .debug_str:0000000000006365 .LASF5011
C:\Users\CYMR90~1\AppData\Local\Temp\ccNmN5zT.s:29892  .debug_str:00000000000265e9 .LASF5012
C:\Users\CYMR90~1\AppData\Local\Temp\ccNmN5zT.s:30808  .debug_str:0000000000029ff7 .LASF5013
C:\Users\CYMR90~1\AppData\Local\Temp\ccNmN5zT.s:20407  .debug_str:000000000000070f .LASF5014
C:\Users\CYMR90~1\AppData\Local\Temp\ccNmN5zT.s:26906  .debug_str:000000000001a9b8 .LASF5015
C:\Users\CYMR90~1\AppData\Local\Temp\ccNmN5zT.s:31286  .debug_str:000000000002bd91 .LASF5016
C:\Users\CYMR90~1\AppData\Local\Temp\ccNmN5zT.s:23043  .debug_str:000000000000aea2 .LASF5017
C:\Users\CYMR90~1\AppData\Local\Temp\ccNmN5zT.s:21971  .debug_str:0000000000006870 .LASF5018
C:\Users\CYMR90~1\AppData\Local\Temp\ccNmN5zT.s:30204  .debug_str:0000000000027942 .LASF5019
C:\Users\CYMR90~1\AppData\Local\Temp\ccNmN5zT.s:26930  .debug_str:000000000001ab1f .LASF5020
C:\Users\CYMR90~1\AppData\Local\Temp\ccNmN5zT.s:28042  .debug_str:000000000001f1e8 .LASF5021
C:\Users\CYMR90~1\AppData\Local\Temp\ccNmN5zT.s:27182  .debug_str:000000000001baa9 .LASF5022
C:\Users\CYMR90~1\AppData\Local\Temp\ccNmN5zT.s:21677  .debug_str:00000000000056d7 .LASF5023
C:\Users\CYMR90~1\AppData\Local\Temp\ccNmN5zT.s:29074  .debug_str:000000000002309c .LASF5024
C:\Users\CYMR90~1\AppData\Local\Temp\ccNmN5zT.s:29092  .debug_str:000000000002316b .LASF5025
C:\Users\CYMR90~1\AppData\Local\Temp\ccNmN5zT.s:29582  .debug_str:000000000002509d .LASF5026
C:\Users\CYMR90~1\AppData\Local\Temp\ccNmN5zT.s:30510  .debug_str:0000000000028e2d .LASF5027
C:\Users\CYMR90~1\AppData\Local\Temp\ccNmN5zT.s:29132  .debug_str:00000000000233b3 .LASF5028
C:\Users\CYMR90~1\AppData\Local\Temp\ccNmN5zT.s:30638  .debug_str:00000000000295f3 .LASF5029
C:\Users\CYMR90~1\AppData\Local\Temp\ccNmN5zT.s:25059  .debug_str:000000000001306e .LASF5030
C:\Users\CYMR90~1\AppData\Local\Temp\ccNmN5zT.s:24889  .debug_str:0000000000012534 .LASF5031
C:\Users\CYMR90~1\AppData\Local\Temp\ccNmN5zT.s:29378  .debug_str:0000000000024343 .LASF5032
C:\Users\CYMR90~1\AppData\Local\Temp\ccNmN5zT.s:31570  .debug_str:000000000002cff5 .LASF5033
C:\Users\CYMR90~1\AppData\Local\Temp\ccNmN5zT.s:25063  .debug_str:00000000000130b2 .LASF5034
C:\Users\CYMR90~1\AppData\Local\Temp\ccNmN5zT.s:26232  .debug_str:0000000000017cd1 .LASF5035
C:\Users\CYMR90~1\AppData\Local\Temp\ccNmN5zT.s:21547  .debug_str:0000000000004f36 .LASF5036
C:\Users\CYMR90~1\AppData\Local\Temp\ccNmN5zT.s:28638  .debug_str:000000000002169e .LASF5037
C:\Users\CYMR90~1\AppData\Local\Temp\ccNmN5zT.s:25963  .debug_str:0000000000016a34 .LASF5038
C:\Users\CYMR90~1\AppData\Local\Temp\ccNmN5zT.s:28462  .debug_str:0000000000020bd5 .LASF5039
C:\Users\CYMR90~1\AppData\Local\Temp\ccNmN5zT.s:27946  .debug_str:000000000001ebef .LASF5040
C:\Users\CYMR90~1\AppData\Local\Temp\ccNmN5zT.s:28880  .debug_str:00000000000224df .LASF5041
C:\Users\CYMR90~1\AppData\Local\Temp\ccNmN5zT.s:21839  .debug_str:00000000000060a4 .LASF5042
C:\Users\CYMR90~1\AppData\Local\Temp\ccNmN5zT.s:29344  .debug_str:000000000002403b .LASF5043
C:\Users\CYMR90~1\AppData\Local\Temp\ccNmN5zT.s:27580  .debug_str:000000000001d4f6 .LASF5044
C:\Users\CYMR90~1\AppData\Local\Temp\ccNmN5zT.s:27560  .debug_str:000000000001d3c3 .LASF5045
C:\Users\CYMR90~1\AppData\Local\Temp\ccNmN5zT.s:28660  .debug_str:000000000002181e .LASF5046
C:\Users\CYMR90~1\AppData\Local\Temp\ccNmN5zT.s:24937  .debug_str:0000000000012856 .LASF5047
C:\Users\CYMR90~1\AppData\Local\Temp\ccNmN5zT.s:26332  .debug_str:00000000000182ce .LASF5048
C:\Users\CYMR90~1\AppData\Local\Temp\ccNmN5zT.s:22141  .debug_str:0000000000007425 .LASF5049
C:\Users\CYMR90~1\AppData\Local\Temp\ccNmN5zT.s:26912  .debug_str:000000000001aa02 .LASF5050
C:\Users\CYMR90~1\AppData\Local\Temp\ccNmN5zT.s:30754  .debug_str:0000000000029ce5 .LASF5051
C:\Users\CYMR90~1\AppData\Local\Temp\ccNmN5zT.s:23409  .debug_str:000000000000c72a .LASF5052
C:\Users\CYMR90~1\AppData\Local\Temp\ccNmN5zT.s:23027  .debug_str:000000000000ad65 .LASF5053
C:\Users\CYMR90~1\AppData\Local\Temp\ccNmN5zT.s:24043  .debug_str:000000000000eee4 .LASF5054
C:\Users\CYMR90~1\AppData\Local\Temp\ccNmN5zT.s:22011  .debug_str:0000000000006ae6 .LASF5055
C:\Users\CYMR90~1\AppData\Local\Temp\ccNmN5zT.s:28310  .debug_str:000000000002020b .LASF5056
C:\Users\CYMR90~1\AppData\Local\Temp\ccNmN5zT.s:20897  .debug_str:00000000000024b8 .LASF5057
C:\Users\CYMR90~1\AppData\Local\Temp\ccNmN5zT.s:29120  .debug_str:00000000000232eb .LASF5058
C:\Users\CYMR90~1\AppData\Local\Temp\ccNmN5zT.s:25949  .debug_str:000000000001690a .LASF5059
C:\Users\CYMR90~1\AppData\Local\Temp\ccNmN5zT.s:30984  .debug_str:000000000002aa6c .LASF5060
C:\Users\CYMR90~1\AppData\Local\Temp\ccNmN5zT.s:24229  .debug_str:000000000000faba .LASF5061
C:\Users\CYMR90~1\AppData\Local\Temp\ccNmN5zT.s:30292  .debug_str:0000000000027f55 .LASF5062
C:\Users\CYMR90~1\AppData\Local\Temp\ccNmN5zT.s:22215  .debug_str:000000000000789c .LASF5063
C:\Users\CYMR90~1\AppData\Local\Temp\ccNmN5zT.s:23647  .debug_str:000000000000d770 .LASF5064
C:\Users\CYMR90~1\AppData\Local\Temp\ccNmN5zT.s:31482  .debug_str:000000000002ca62 .LASF5065
C:\Users\CYMR90~1\AppData\Local\Temp\ccNmN5zT.s:23271  .debug_str:000000000000be70 .LASF5066
C:\Users\CYMR90~1\AppData\Local\Temp\ccNmN5zT.s:22833  .debug_str:000000000000a0b3 .LASF5067
C:\Users\CYMR90~1\AppData\Local\Temp\ccNmN5zT.s:30208  .debug_str:000000000002799a .LASF5068
C:\Users\CYMR90~1\AppData\Local\Temp\ccNmN5zT.s:24681  .debug_str:0000000000011707 .LASF5069
C:\Users\CYMR90~1\AppData\Local\Temp\ccNmN5zT.s:21469  .debug_str:0000000000004a85 .LASF5070
C:\Users\CYMR90~1\AppData\Local\Temp\ccNmN5zT.s:22779  .debug_str:0000000000009d2f .LASF5071
C:\Users\CYMR90~1\AppData\Local\Temp\ccNmN5zT.s:26558  .debug_str:0000000000019252 .LASF5072
C:\Users\CYMR90~1\AppData\Local\Temp\ccNmN5zT.s:27520  .debug_str:000000000001d190 .LASF5073
C:\Users\CYMR90~1\AppData\Local\Temp\ccNmN5zT.s:27742  .debug_str:000000000001dfff .LASF5074
C:\Users\CYMR90~1\AppData\Local\Temp\ccNmN5zT.s:23489  .debug_str:000000000000cccc .LASF5075
C:\Users\CYMR90~1\AppData\Local\Temp\ccNmN5zT.s:25745  .debug_str:0000000000015b7d .LASF5076
C:\Users\CYMR90~1\AppData\Local\Temp\ccNmN5zT.s:23879  .debug_str:000000000000e4ee .LASF5077
C:\Users\CYMR90~1\AppData\Local\Temp\ccNmN5zT.s:26730  .debug_str:0000000000019d7c .LASF5078
C:\Users\CYMR90~1\AppData\Local\Temp\ccNmN5zT.s:26474  .debug_str:0000000000018ba8 .LASF5079
C:\Users\CYMR90~1\AppData\Local\Temp\ccNmN5zT.s:29200  .debug_str:000000000002381a .LASF5080
C:\Users\CYMR90~1\AppData\Local\Temp\ccNmN5zT.s:21429  .debug_str:0000000000004759 .LASF5081
C:\Users\CYMR90~1\AppData\Local\Temp\ccNmN5zT.s:20475  .debug_str:0000000000000b9e .LASF5082
C:\Users\CYMR90~1\AppData\Local\Temp\ccNmN5zT.s:24771  .debug_str:0000000000011d6b .LASF5083
C:\Users\CYMR90~1\AppData\Local\Temp\ccNmN5zT.s:25511  .debug_str:0000000000014d1c .LASF5084
C:\Users\CYMR90~1\AppData\Local\Temp\ccNmN5zT.s:27646  .debug_str:000000000001d96f .LASF5085
C:\Users\CYMR90~1\AppData\Local\Temp\ccNmN5zT.s:22367  .debug_str:00000000000083a1 .LASF5086
C:\Users\CYMR90~1\AppData\Local\Temp\ccNmN5zT.s:22923  .debug_str:000000000000a60b .LASF5087
C:\Users\CYMR90~1\AppData\Local\Temp\ccNmN5zT.s:26564  .debug_str:00000000000192b4 .LASF5088
C:\Users\CYMR90~1\AppData\Local\Temp\ccNmN5zT.s:23819  .debug_str:000000000000e174 .LASF5089
C:\Users\CYMR90~1\AppData\Local\Temp\ccNmN5zT.s:31400  .debug_str:000000000002c543 .LASF5090
C:\Users\CYMR90~1\AppData\Local\Temp\ccNmN5zT.s:20707  .debug_str:00000000000019d9 .LASF5091
C:\Users\CYMR90~1\AppData\Local\Temp\ccNmN5zT.s:30282  .debug_str:0000000000027ea4 .LASF5092
C:\Users\CYMR90~1\AppData\Local\Temp\ccNmN5zT.s:27640  .debug_str:000000000001d914 .LASF5093
C:\Users\CYMR90~1\AppData\Local\Temp\ccNmN5zT.s:26006  .debug_str:0000000000016eec .LASF5094
C:\Users\CYMR90~1\AppData\Local\Temp\ccNmN5zT.s:22883  .debug_str:000000000000a3e8 .LASF5095
C:\Users\CYMR90~1\AppData\Local\Temp\ccNmN5zT.s:28700  .debug_str:0000000000021a3f .LASF5096
C:\Users\CYMR90~1\AppData\Local\Temp\ccNmN5zT.s:25065  .debug_str:00000000000130d2 .LASF5097
C:\Users\CYMR90~1\AppData\Local\Temp\ccNmN5zT.s:26460  .debug_str:0000000000018ac7 .LASF5098
C:\Users\CYMR90~1\AppData\Local\Temp\ccNmN5zT.s:25163  .debug_str:00000000000137b7 .LASF5099
C:\Users\CYMR90~1\AppData\Local\Temp\ccNmN5zT.s:29382  .debug_str:0000000000024391 .LASF5100
C:\Users\CYMR90~1\AppData\Local\Temp\ccNmN5zT.s:22405  .debug_str:0000000000008604 .LASF5101
C:\Users\CYMR90~1\AppData\Local\Temp\ccNmN5zT.s:20959  .debug_str:00000000000028e2 .LASF5102
C:\Users\CYMR90~1\AppData\Local\Temp\ccNmN5zT.s:24741  .debug_str:0000000000011be4 .LASF5103
C:\Users\CYMR90~1\AppData\Local\Temp\ccNmN5zT.s:28266  .debug_str:000000000001ffa9 .LASF5104
C:\Users\CYMR90~1\AppData\Local\Temp\ccNmN5zT.s:21105  .debug_str:0000000000003236 .LASF5105
C:\Users\CYMR90~1\AppData\Local\Temp\ccNmN5zT.s:28198  .debug_str:000000000001fb36 .LASF5106
C:\Users\CYMR90~1\AppData\Local\Temp\ccNmN5zT.s:25149  .debug_str:00000000000136e7 .LASF5107
C:\Users\CYMR90~1\AppData\Local\Temp\ccNmN5zT.s:30632  .debug_str:0000000000029577 .LASF5108
C:\Users\CYMR90~1\AppData\Local\Temp\ccNmN5zT.s:22865  .debug_str:000000000000a29e .LASF5109
C:\Users\CYMR90~1\AppData\Local\Temp\ccNmN5zT.s:26554  .debug_str:00000000000191ff .LASF5110
C:\Users\CYMR90~1\AppData\Local\Temp\ccNmN5zT.s:30884  .debug_str:000000000002a42f .LASF5111
C:\Users\CYMR90~1\AppData\Local\Temp\ccNmN5zT.s:21925  .debug_str:00000000000065c4 .LASF5112
C:\Users\CYMR90~1\AppData\Local\Temp\ccNmN5zT.s:30876  .debug_str:000000000002a3b9 .LASF5113
C:\Users\CYMR90~1\AppData\Local\Temp\ccNmN5zT.s:21039  .debug_str:0000000000002df9 .LASF5114
C:\Users\CYMR90~1\AppData\Local\Temp\ccNmN5zT.s:26994  .debug_str:000000000001aefc .LASF5115
C:\Users\CYMR90~1\AppData\Local\Temp\ccNmN5zT.s:24143  .debug_str:000000000000f501 .LASF5116
C:\Users\CYMR90~1\AppData\Local\Temp\ccNmN5zT.s:25325  .debug_str:00000000000141bf .LASF5117
C:\Users\CYMR90~1\AppData\Local\Temp\ccNmN5zT.s:30516  .debug_str:0000000000028e93 .LASF5118
C:\Users\CYMR90~1\AppData\Local\Temp\ccNmN5zT.s:22593  .debug_str:00000000000091a6 .LASF5119
C:\Users\CYMR90~1\AppData\Local\Temp\ccNmN5zT.s:27496  .debug_str:000000000001cf6f .LASF5120
C:\Users\CYMR90~1\AppData\Local\Temp\ccNmN5zT.s:30926  .debug_str:000000000002a704 .LASF5121
C:\Users\CYMR90~1\AppData\Local\Temp\ccNmN5zT.s:21423  .debug_str:00000000000046e1 .LASF5122
C:\Users\CYMR90~1\AppData\Local\Temp\ccNmN5zT.s:29666  .debug_str:000000000002575e .LASF5123
C:\Users\CYMR90~1\AppData\Local\Temp\ccNmN5zT.s:31408  .debug_str:000000000002c5b3 .LASF5124
C:\Users\CYMR90~1\AppData\Local\Temp\ccNmN5zT.s:27320  .debug_str:000000000001c362 .LASF5125
C:\Users\CYMR90~1\AppData\Local\Temp\ccNmN5zT.s:28290  .debug_str:0000000000020106 .LASF5126
C:\Users\CYMR90~1\AppData\Local\Temp\ccNmN5zT.s:31548  .debug_str:000000000002cece .LASF5127
C:\Users\CYMR90~1\AppData\Local\Temp\ccNmN5zT.s:21159  .debug_str:00000000000035b4 .LASF5128
C:\Users\CYMR90~1\AppData\Local\Temp\ccNmN5zT.s:27904  .debug_str:000000000001e9a5 .LASF5129
C:\Users\CYMR90~1\AppData\Local\Temp\ccNmN5zT.s:28670  .debug_str:00000000000218a9 .LASF5130
C:\Users\CYMR90~1\AppData\Local\Temp\ccNmN5zT.s:20729  .debug_str:0000000000001b2e .LASF5131
C:\Users\CYMR90~1\AppData\Local\Temp\ccNmN5zT.s:24977  .debug_str:0000000000012b25 .LASF5132
C:\Users\CYMR90~1\AppData\Local\Temp\ccNmN5zT.s:26264  .debug_str:0000000000017eb8 .LASF5133
C:\Users\CYMR90~1\AppData\Local\Temp\ccNmN5zT.s:24479  .debug_str:0000000000010a6d .LASF5134
C:\Users\CYMR90~1\AppData\Local\Temp\ccNmN5zT.s:26366  .debug_str:00000000000184e7 .LASF5135
C:\Users\CYMR90~1\AppData\Local\Temp\ccNmN5zT.s:26952  .debug_str:000000000001ac9f .LASF5136
C:\Users\CYMR90~1\AppData\Local\Temp\ccNmN5zT.s:28296  .debug_str:0000000000020167 .LASF5137
C:\Users\CYMR90~1\AppData\Local\Temp\ccNmN5zT.s:31586  .debug_str:000000000002d11c .LASF5138
C:\Users\CYMR90~1\AppData\Local\Temp\ccNmN5zT.s:25439  .debug_str:000000000001489f .LASF5139
C:\Users\CYMR90~1\AppData\Local\Temp\ccNmN5zT.s:26804  .debug_str:000000000001a1c6 .LASF5140
C:\Users\CYMR90~1\AppData\Local\Temp\ccNmN5zT.s:21639  .debug_str:00000000000054b8 .LASF5141
C:\Users\CYMR90~1\AppData\Local\Temp\ccNmN5zT.s:29404  .debug_str:00000000000244f7 .LASF5142
C:\Users\CYMR90~1\AppData\Local\Temp\ccNmN5zT.s:30286  .debug_str:0000000000027ee7 .LASF5143
C:\Users\CYMR90~1\AppData\Local\Temp\ccNmN5zT.s:22235  .debug_str:00000000000079db .LASF5144
C:\Users\CYMR90~1\AppData\Local\Temp\ccNmN5zT.s:31358  .debug_str:000000000002c25e .LASF5145
C:\Users\CYMR90~1\AppData\Local\Temp\ccNmN5zT.s:23997  .debug_str:000000000000ec9f .LASF5146
C:\Users\CYMR90~1\AppData\Local\Temp\ccNmN5zT.s:26184  .debug_str:00000000000179e5 .LASF5147
C:\Users\CYMR90~1\AppData\Local\Temp\ccNmN5zT.s:22347  .debug_str:000000000000825e .LASF5148
C:\Users\CYMR90~1\AppData\Local\Temp\ccNmN5zT.s:21941  .debug_str:00000000000066bc .LASF5149
C:\Users\CYMR90~1\AppData\Local\Temp\ccNmN5zT.s:24607  .debug_str:0000000000011254 .LASF5150
C:\Users\CYMR90~1\AppData\Local\Temp\ccNmN5zT.s:30110  .debug_str:00000000000273cd .LASF5151
C:\Users\CYMR90~1\AppData\Local\Temp\ccNmN5zT.s:26308  .debug_str:000000000001814a .LASF5152
C:\Users\CYMR90~1\AppData\Local\Temp\ccNmN5zT.s:24917  .debug_str:0000000000012708 .LASF5153
C:\Users\CYMR90~1\AppData\Local\Temp\ccNmN5zT.s:23437  .debug_str:000000000000c94d .LASF5154
C:\Users\CYMR90~1\AppData\Local\Temp\ccNmN5zT.s:27886  .debug_str:000000000001e87b .LASF5155
C:\Users\CYMR90~1\AppData\Local\Temp\ccNmN5zT.s:22591  .debug_str:0000000000009175 .LASF5156
C:\Users\CYMR90~1\AppData\Local\Temp\ccNmN5zT.s:31086  .debug_str:000000000002b062 .LASF5157
C:\Users\CYMR90~1\AppData\Local\Temp\ccNmN5zT.s:27878  .debug_str:000000000001e7c9 .LASF5158
C:\Users\CYMR90~1\AppData\Local\Temp\ccNmN5zT.s:22439  .debug_str:00000000000087f1 .LASF5159
C:\Users\CYMR90~1\AppData\Local\Temp\ccNmN5zT.s:30200  .debug_str:0000000000027910 .LASF5160
C:\Users\CYMR90~1\AppData\Local\Temp\ccNmN5zT.s:31592  .debug_str:000000000002d176 .LASF5161
C:\Users\CYMR90~1\AppData\Local\Temp\ccNmN5zT.s:28208  .debug_str:000000000001fbdc .LASF5162
C:\Users\CYMR90~1\AppData\Local\Temp\ccNmN5zT.s:30482  .debug_str:0000000000028ca0 .LASF5163
C:\Users\CYMR90~1\AppData\Local\Temp\ccNmN5zT.s:21523  .debug_str:0000000000004dcc .LASF5164
C:\Users\CYMR90~1\AppData\Local\Temp\ccNmN5zT.s:21859  .debug_str:00000000000061ed .LASF5165
C:\Users\CYMR90~1\AppData\Local\Temp\ccNmN5zT.s:26824  .debug_str:000000000001a2dd .LASF5166
C:\Users\CYMR90~1\AppData\Local\Temp\ccNmN5zT.s:25519  .debug_str:0000000000014dd6 .LASF5167
C:\Users\CYMR90~1\AppData\Local\Temp\ccNmN5zT.s:24283  .debug_str:000000000000fe17 .LASF5168
C:\Users\CYMR90~1\AppData\Local\Temp\ccNmN5zT.s:21393  .debug_str:00000000000044df .LASF5169
C:\Users\CYMR90~1\AppData\Local\Temp\ccNmN5zT.s:27926  .debug_str:000000000001eaec .LASF5170
C:\Users\CYMR90~1\AppData\Local\Temp\ccNmN5zT.s:28736  .debug_str:0000000000021caf .LASF5171
C:\Users\CYMR90~1\AppData\Local\Temp\ccNmN5zT.s:27030  .debug_str:000000000001b1a8 .LASF5172
C:\Users\CYMR90~1\AppData\Local\Temp\ccNmN5zT.s:22639  .debug_str:0000000000009458 .LASF5173
C:\Users\CYMR90~1\AppData\Local\Temp\ccNmN5zT.s:20351  .debug_str:00000000000003c6 .LASF5174
C:\Users\CYMR90~1\AppData\Local\Temp\ccNmN5zT.s:23697  .debug_str:000000000000da08 .LASF5175
C:\Users\CYMR90~1\AppData\Local\Temp\ccNmN5zT.s:20943  .debug_str:00000000000027d8 .LASF5176
C:\Users\CYMR90~1\AppData\Local\Temp\ccNmN5zT.s:30970  .debug_str:000000000002a9a3 .LASF5177
C:\Users\CYMR90~1\AppData\Local\Temp\ccNmN5zT.s:25541  .debug_str:0000000000014f6b .LASF5178
C:\Users\CYMR90~1\AppData\Local\Temp\ccNmN5zT.s:20291  .debug_str:0000000000000000 .LASF5179
C:\Users\CYMR90~1\AppData\Local\Temp\ccNmN5zT.s:20739  .debug_str:0000000000001bd3 .LASF5180
C:\Users\CYMR90~1\AppData\Local\Temp\ccNmN5zT.s:30634  .debug_str:00000000000295a4 .LASF5181
C:\Users\CYMR90~1\AppData\Local\Temp\ccNmN5zT.s:29484  .debug_str:0000000000024a4e .LASF5182
C:\Users\CYMR90~1\AppData\Local\Temp\ccNmN5zT.s:27950  .debug_str:000000000001ec2a .LASF5183
C:\Users\CYMR90~1\AppData\Local\Temp\ccNmN5zT.s:21643  .debug_str:0000000000005502 .LASF5184
C:\Users\CYMR90~1\AppData\Local\Temp\ccNmN5zT.s:25975  .debug_str:0000000000016ae0 .LASF5185
C:\Users\CYMR90~1\AppData\Local\Temp\ccNmN5zT.s:28244  .debug_str:000000000001fe23 .LASF5186
C:\Users\CYMR90~1\AppData\Local\Temp\ccNmN5zT.s:26918  .debug_str:000000000001aa6b .LASF5187
C:\Users\CYMR90~1\AppData\Local\Temp\ccNmN5zT.s:31574  .debug_str:000000000002d037 .LASF5188
C:\Users\CYMR90~1\AppData\Local\Temp\ccNmN5zT.s:26098  .debug_str:0000000000017455 .LASF5189
C:\Users\CYMR90~1\AppData\Local\Temp\ccNmN5zT.s:21827  .debug_str:0000000000005fcb .LASF5190
C:\Users\CYMR90~1\AppData\Local\Temp\ccNmN5zT.s:24103  .debug_str:000000000000f291 .LASF5191
C:\Users\CYMR90~1\AppData\Local\Temp\ccNmN5zT.s:24809  .debug_str:000000000001200d .LASF5192
C:\Users\CYMR90~1\AppData\Local\Temp\ccNmN5zT.s:26422  .debug_str:000000000001885a .LASF5193
C:\Users\CYMR90~1\AppData\Local\Temp\ccNmN5zT.s:21615  .debug_str:000000000000533c .LASF5194
C:\Users\CYMR90~1\AppData\Local\Temp\ccNmN5zT.s:29652  .debug_str:0000000000025639 .LASF5195
C:\Users\CYMR90~1\AppData\Local\Temp\ccNmN5zT.s:30440  .debug_str:0000000000028a1b .LASF5196
C:\Users\CYMR90~1\AppData\Local\Temp\ccNmN5zT.s:29896  .debug_str:0000000000026610 .LASF5197
C:\Users\CYMR90~1\AppData\Local\Temp\ccNmN5zT.s:26354  .debug_str:0000000000018431 .LASF5198
C:\Users\CYMR90~1\AppData\Local\Temp\ccNmN5zT.s:21397  .debug_str:0000000000004526 .LASF5199
C:\Users\CYMR90~1\AppData\Local\Temp\ccNmN5zT.s:28404  .debug_str:000000000002081c .LASF5200
C:\Users\CYMR90~1\AppData\Local\Temp\ccNmN5zT.s:24179  .debug_str:000000000000f7b5 .LASF5201
C:\Users\CYMR90~1\AppData\Local\Temp\ccNmN5zT.s:23495  .debug_str:000000000000cd2d .LASF5202
C:\Users\CYMR90~1\AppData\Local\Temp\ccNmN5zT.s:29872  .debug_str:0000000000026495 .LASF5203
C:\Users\CYMR90~1\AppData\Local\Temp\ccNmN5zT.s:25077  .debug_str:00000000000131af .LASF5204
C:\Users\CYMR90~1\AppData\Local\Temp\ccNmN5zT.s:23305  .debug_str:000000000000c09d .LASF5205
C:\Users\CYMR90~1\AppData\Local\Temp\ccNmN5zT.s:21203  .debug_str:0000000000003871 .LASF5206
C:\Users\CYMR90~1\AppData\Local\Temp\ccNmN5zT.s:22131  .debug_str:000000000000738a .LASF5207
C:\Users\CYMR90~1\AppData\Local\Temp\ccNmN5zT.s:24183  .debug_str:000000000000f804 .LASF5208
C:\Users\CYMR90~1\AppData\Local\Temp\ccNmN5zT.s:21705  .debug_str:0000000000005878 .LASF5209
C:\Users\CYMR90~1\AppData\Local\Temp\ccNmN5zT.s:30318  .debug_str:0000000000028150 .LASF5210
C:\Users\CYMR90~1\AppData\Local\Temp\ccNmN5zT.s:24865  .debug_str:00000000000123bd .LASF5211
C:\Users\CYMR90~1\AppData\Local\Temp\ccNmN5zT.s:21033  .debug_str:0000000000002d9d .LASF5212
C:\Users\CYMR90~1\AppData\Local\Temp\ccNmN5zT.s:29728  .debug_str:0000000000025bc7 .LASF5213
C:\Users\CYMR90~1\AppData\Local\Temp\ccNmN5zT.s:30124  .debug_str:00000000000274c6 .LASF5214
C:\Users\CYMR90~1\AppData\Local\Temp\ccNmN5zT.s:24625  .debug_str:000000000001135c .LASF5215
C:\Users\CYMR90~1\AppData\Local\Temp\ccNmN5zT.s:25807  .debug_str:0000000000015fe1 .LASF5216
C:\Users\CYMR90~1\AppData\Local\Temp\ccNmN5zT.s:29124  .debug_str:0000000000023324 .LASF5217
C:\Users\CYMR90~1\AppData\Local\Temp\ccNmN5zT.s:27870  .debug_str:000000000001e749 .LASF5218
C:\Users\CYMR90~1\AppData\Local\Temp\ccNmN5zT.s:28768  .debug_str:0000000000021e8e .LASF5219
C:\Users\CYMR90~1\AppData\Local\Temp\ccNmN5zT.s:31598  .debug_str:000000000002d1d2 .LASF5220
C:\Users\CYMR90~1\AppData\Local\Temp\ccNmN5zT.s:28952  .debug_str:0000000000022948 .LASF5221
C:\Users\CYMR90~1\AppData\Local\Temp\ccNmN5zT.s:22271  .debug_str:0000000000007c28 .LASF5222
C:\Users\CYMR90~1\AppData\Local\Temp\ccNmN5zT.s:22219  .debug_str:00000000000078cf .LASF5223
C:\Users\CYMR90~1\AppData\Local\Temp\ccNmN5zT.s:21575  .debug_str:00000000000050d7 .LASF5224
C:\Users\CYMR90~1\AppData\Local\Temp\ccNmN5zT.s:28986  .debug_str:0000000000022b3d .LASF5225
C:\Users\CYMR90~1\AppData\Local\Temp\ccNmN5zT.s:24927  .debug_str:00000000000127ab .LASF5226
C:\Users\CYMR90~1\AppData\Local\Temp\ccNmN5zT.s:29454  .debug_str:000000000002481e .LASF5227
C:\Users\CYMR90~1\AppData\Local\Temp\ccNmN5zT.s:30772  .debug_str:0000000000029df0 .LASF5228
C:\Users\CYMR90~1\AppData\Local\Temp\ccNmN5zT.s:29040  .debug_str:0000000000022ea9 .LASF5229
C:\Users\CYMR90~1\AppData\Local\Temp\ccNmN5zT.s:29694  .debug_str:00000000000259b0 .LASF5230
C:\Users\CYMR90~1\AppData\Local\Temp\ccNmN5zT.s:29744  .debug_str:0000000000025cd2 .LASF5231
C:\Users\CYMR90~1\AppData\Local\Temp\ccNmN5zT.s:28516  .debug_str:0000000000020f0b .LASF5232
C:\Users\CYMR90~1\AppData\Local\Temp\ccNmN5zT.s:24279  .debug_str:000000000000fdd1 .LASF5233
C:\Users\CYMR90~1\AppData\Local\Temp\ccNmN5zT.s:24683  .debug_str:000000000001172b .LASF5234
C:\Users\CYMR90~1\AppData\Local\Temp\ccNmN5zT.s:29578  .debug_str:000000000002505e .LASF5235
C:\Users\CYMR90~1\AppData\Local\Temp\ccNmN5zT.s:22981  .debug_str:000000000000aa76 .LASF5236
C:\Users\CYMR90~1\AppData\Local\Temp\ccNmN5zT.s:24481  .debug_str:0000000000010a8c .LASF5237
C:\Users\CYMR90~1\AppData\Local\Temp\ccNmN5zT.s:31034  .debug_str:000000000002ad55 .LASF5238
C:\Users\CYMR90~1\AppData\Local\Temp\ccNmN5zT.s:22511  .debug_str:0000000000008c9c .LASF5239
C:\Users\CYMR90~1\AppData\Local\Temp\ccNmN5zT.s:23087  .debug_str:000000000000b1fd .LASF5240
C:\Users\CYMR90~1\AppData\Local\Temp\ccNmN5zT.s:29752  .debug_str:0000000000025d43 .LASF5241
C:\Users\CYMR90~1\AppData\Local\Temp\ccNmN5zT.s:20565  .debug_str:0000000000001142 .LASF5242
C:\Users\CYMR90~1\AppData\Local\Temp\ccNmN5zT.s:25885  .debug_str:00000000000164ac .LASF5243
C:\Users\CYMR90~1\AppData\Local\Temp\ccNmN5zT.s:28826  .debug_str:00000000000221fb .LASF5244
C:\Users\CYMR90~1\AppData\Local\Temp\ccNmN5zT.s:30246  .debug_str:0000000000027c35 .LASF5245
C:\Users\CYMR90~1\AppData\Local\Temp\ccNmN5zT.s:23943  .debug_str:000000000000e929 .LASF5246
C:\Users\CYMR90~1\AppData\Local\Temp\ccNmN5zT.s:22353  .debug_str:00000000000082bd .LASF5247
C:\Users\CYMR90~1\AppData\Local\Temp\ccNmN5zT.s:27890  .debug_str:000000000001e8cf .LASF5248
C:\Users\CYMR90~1\AppData\Local\Temp\ccNmN5zT.s:24687  .debug_str:0000000000011776 .LASF5249
C:\Users\CYMR90~1\AppData\Local\Temp\ccNmN5zT.s:28196  .debug_str:000000000001fb05 .LASF5250
C:\Users\CYMR90~1\AppData\Local\Temp\ccNmN5zT.s:21557  .debug_str:0000000000004fc8 .LASF5251
C:\Users\CYMR90~1\AppData\Local\Temp\ccNmN5zT.s:25215  .debug_str:0000000000013ad0 .LASF5252
C:\Users\CYMR90~1\AppData\Local\Temp\ccNmN5zT.s:28238  .debug_str:000000000001fd8c .LASF5253
C:\Users\CYMR90~1\AppData\Local\Temp\ccNmN5zT.s:23803  .debug_str:000000000000e08d .LASF5254
C:\Users\CYMR90~1\AppData\Local\Temp\ccNmN5zT.s:27456  .debug_str:000000000001cc46 .LASF5255
C:\Users\CYMR90~1\AppData\Local\Temp\ccNmN5zT.s:23921  .debug_str:000000000000e7ca .LASF5256
C:\Users\CYMR90~1\AppData\Local\Temp\ccNmN5zT.s:30668  .debug_str:00000000000297ea .LASF5257
C:\Users\CYMR90~1\AppData\Local\Temp\ccNmN5zT.s:31440  .debug_str:000000000002c788 .LASF5258
C:\Users\CYMR90~1\AppData\Local\Temp\ccNmN5zT.s:23953  .debug_str:000000000000e99d .LASF5259
C:\Users\CYMR90~1\AppData\Local\Temp\ccNmN5zT.s:20647  .debug_str:000000000000157a .LASF5260
C:\Users\CYMR90~1\AppData\Local\Temp\ccNmN5zT.s:27440  .debug_str:000000000001cb4e .LASF5261
C:\Users\CYMR90~1\AppData\Local\Temp\ccNmN5zT.s:30076  .debug_str:00000000000270fd .LASF5262
C:\Users\CYMR90~1\AppData\Local\Temp\ccNmN5zT.s:26960  .debug_str:000000000001ad02 .LASF5263
C:\Users\CYMR90~1\AppData\Local\Temp\ccNmN5zT.s:27944  .debug_str:000000000001ebd9 .LASF5264
C:\Users\CYMR90~1\AppData\Local\Temp\ccNmN5zT.s:20499  .debug_str:0000000000000d00 .LASF5265
C:\Users\CYMR90~1\AppData\Local\Temp\ccNmN5zT.s:28534  .debug_str:0000000000020ff2 .LASF5266
C:\Users\CYMR90~1\AppData\Local\Temp\ccNmN5zT.s:23441  .debug_str:000000000000c9c1 .LASF5267
C:\Users\CYMR90~1\AppData\Local\Temp\ccNmN5zT.s:25753  .debug_str:0000000000015c15 .LASF5268
C:\Users\CYMR90~1\AppData\Local\Temp\ccNmN5zT.s:24205  .debug_str:000000000000f95b .LASF5269
C:\Users\CYMR90~1\AppData\Local\Temp\ccNmN5zT.s:26362  .debug_str:00000000000184b7 .LASF5270
C:\Users\CYMR90~1\AppData\Local\Temp\ccNmN5zT.s:30934  .debug_str:000000000002a787 .LASF5271
C:\Users\CYMR90~1\AppData\Local\Temp\ccNmN5zT.s:25145  .debug_str:00000000000136aa .LASF5272
C:\Users\CYMR90~1\AppData\Local\Temp\ccNmN5zT.s:28124  .debug_str:000000000001f6ca .LASF5273
C:\Users\CYMR90~1\AppData\Local\Temp\ccNmN5zT.s:22197  .debug_str:00000000000077a0 .LASF5274
C:\Users\CYMR90~1\AppData\Local\Temp\ccNmN5zT.s:29612  .debug_str:0000000000025399 .LASF5275
C:\Users\CYMR90~1\AppData\Local\Temp\ccNmN5zT.s:22073  .debug_str:0000000000006efb .LASF5276
C:\Users\CYMR90~1\AppData\Local\Temp\ccNmN5zT.s:30158  .debug_str:00000000000276c1 .LASF5277
C:\Users\CYMR90~1\AppData\Local\Temp\ccNmN5zT.s:30646  .debug_str:000000000002965f .LASF5278
C:\Users\CYMR90~1\AppData\Local\Temp\ccNmN5zT.s:28866  .debug_str:000000000002243e .LASF5279
C:\Users\CYMR90~1\AppData\Local\Temp\ccNmN5zT.s:25661  .debug_str:0000000000015686 .LASF5280
C:\Users\CYMR90~1\AppData\Local\Temp\ccNmN5zT.s:22517  .debug_str:0000000000008ce3 .LASF5281
C:\Users\CYMR90~1\AppData\Local\Temp\ccNmN5zT.s:21113  .debug_str:00000000000032a4 .LASF5282
C:\Users\CYMR90~1\AppData\Local\Temp\ccNmN5zT.s:31346  .debug_str:000000000002c1a9 .LASF5283
C:\Users\CYMR90~1\AppData\Local\Temp\ccNmN5zT.s:22699  .debug_str:000000000000983b .LASF5284
C:\Users\CYMR90~1\AppData\Local\Temp\ccNmN5zT.s:22521  .debug_str:0000000000008d0a .LASF5285
C:\Users\CYMR90~1\AppData\Local\Temp\ccNmN5zT.s:30838  .debug_str:000000000002a1cc .LASF5286
C:\Users\CYMR90~1\AppData\Local\Temp\ccNmN5zT.s:24045  .debug_str:000000000000ef07 .LASF5287
C:\Users\CYMR90~1\AppData\Local\Temp\ccNmN5zT.s:30528  .debug_str:0000000000028f82 .LASF5288
C:\Users\CYMR90~1\AppData\Local\Temp\ccNmN5zT.s:22637  .debug_str:0000000000009440 .LASF5289
C:\Users\CYMR90~1\AppData\Local\Temp\ccNmN5zT.s:31236  .debug_str:000000000002ba78 .LASF5290
C:\Users\CYMR90~1\AppData\Local\Temp\ccNmN5zT.s:26218  .debug_str:0000000000017bfd .LASF5291
C:\Users\CYMR90~1\AppData\Local\Temp\ccNmN5zT.s:24187  .debug_str:000000000000f85a .LASF5292
C:\Users\CYMR90~1\AppData\Local\Temp\ccNmN5zT.s:21405  .debug_str:00000000000045bf .LASF5293
C:\Users\CYMR90~1\AppData\Local\Temp\ccNmN5zT.s:26920  .debug_str:000000000001aa92 .LASF5294
C:\Users\CYMR90~1\AppData\Local\Temp\ccNmN5zT.s:29572  .debug_str:0000000000025013 .LASF5295
C:\Users\CYMR90~1\AppData\Local\Temp\ccNmN5zT.s:24127  .debug_str:000000000000f42b .LASF5296
C:\Users\CYMR90~1\AppData\Local\Temp\ccNmN5zT.s:20405  .debug_str:00000000000006f7 .LASF5297
C:\Users\CYMR90~1\AppData\Local\Temp\ccNmN5zT.s:20353  .debug_str:00000000000003f0 .LASF5298
C:\Users\CYMR90~1\AppData\Local\Temp\ccNmN5zT.s:20699  .debug_str:0000000000001962 .LASF5299
C:\Users\CYMR90~1\AppData\Local\Temp\ccNmN5zT.s:29214  .debug_str:0000000000023920 .LASF5300
C:\Users\CYMR90~1\AppData\Local\Temp\ccNmN5zT.s:29868  .debug_str:0000000000026454 .LASF5301
C:\Users\CYMR90~1\AppData\Local\Temp\ccNmN5zT.s:25027  .debug_str:0000000000012e49 .LASF5302
C:\Users\CYMR90~1\AppData\Local\Temp\ccNmN5zT.s:26954  .debug_str:000000000001acc3 .LASF5303
C:\Users\CYMR90~1\AppData\Local\Temp\ccNmN5zT.s:20987  .debug_str:0000000000002a95 .LASF5304
C:\Users\CYMR90~1\AppData\Local\Temp\ccNmN5zT.s:25759  .debug_str:0000000000015cae .LASF5305
C:\Users\CYMR90~1\AppData\Local\Temp\ccNmN5zT.s:28322  .debug_str:00000000000202c3 .LASF5306
C:\Users\CYMR90~1\AppData\Local\Temp\ccNmN5zT.s:27642  .debug_str:000000000001d93e .LASF5307
C:\Users\CYMR90~1\AppData\Local\Temp\ccNmN5zT.s:22427  .debug_str:000000000000873f .LASF5308
C:\Users\CYMR90~1\AppData\Local\Temp\ccNmN5zT.s:29012  .debug_str:0000000000022d24 .LASF5309
C:\Users\CYMR90~1\AppData\Local\Temp\ccNmN5zT.s:28302  .debug_str:00000000000201b3 .LASF5310
C:\Users\CYMR90~1\AppData\Local\Temp\ccNmN5zT.s:21461  .debug_str:0000000000004a0e .LASF5311
C:\Users\CYMR90~1\AppData\Local\Temp\ccNmN5zT.s:21883  .debug_str:000000000000634e .LASF5312
C:\Users\CYMR90~1\AppData\Local\Temp\ccNmN5zT.s:28964  .debug_str:0000000000022a12 .LASF5313
C:\Users\CYMR90~1\AppData\Local\Temp\ccNmN5zT.s:30720  .debug_str:0000000000029ada .LASF5314
C:\Users\CYMR90~1\AppData\Local\Temp\ccNmN5zT.s:26542  .debug_str:0000000000019089 .LASF5315
C:\Users\CYMR90~1\AppData\Local\Temp\ccNmN5zT.s:23341  .debug_str:000000000000c30d .LASF5316
C:\Users\CYMR90~1\AppData\Local\Temp\ccNmN5zT.s:28024  .debug_str:000000000001f0c2 .LASF5317
C:\Users\CYMR90~1\AppData\Local\Temp\ccNmN5zT.s:24899  .debug_str:00000000000125ed .LASF5318
C:\Users\CYMR90~1\AppData\Local\Temp\ccNmN5zT.s:28410  .debug_str:00000000000208b2 .LASF5319
C:\Users\CYMR90~1\AppData\Local\Temp\ccNmN5zT.s:25221  .debug_str:0000000000013b32 .LASF5320
C:\Users\CYMR90~1\AppData\Local\Temp\ccNmN5zT.s:30672  .debug_str:0000000000029840 .LASF5321
C:\Users\CYMR90~1\AppData\Local\Temp\ccNmN5zT.s:24369  .debug_str:0000000000010363 .LASF5322
C:\Users\CYMR90~1\AppData\Local\Temp\ccNmN5zT.s:23597  .debug_str:000000000000d3bf .LASF5323
C:\Users\CYMR90~1\AppData\Local\Temp\ccNmN5zT.s:28034  .debug_str:000000000001f17b .LASF5324
C:\Users\CYMR90~1\AppData\Local\Temp\ccNmN5zT.s:31260  .debug_str:000000000002bbf0 .LASF5325
C:\Users\CYMR90~1\AppData\Local\Temp\ccNmN5zT.s:30072  .debug_str:00000000000270cd .LASF5326
C:\Users\CYMR90~1\AppData\Local\Temp\ccNmN5zT.s:29136  .debug_str:00000000000233f2 .LASF5327
C:\Users\CYMR90~1\AppData\Local\Temp\ccNmN5zT.s:23131  .debug_str:000000000000b454 .LASF5328
C:\Users\CYMR90~1\AppData\Local\Temp\ccNmN5zT.s:29266  .debug_str:0000000000023c05 .LASF5329
C:\Users\CYMR90~1\AppData\Local\Temp\ccNmN5zT.s:28870  .debug_str:000000000002246f .LASF5330
C:\Users\CYMR90~1\AppData\Local\Temp\ccNmN5zT.s:26792  .debug_str:000000000001a124 .LASF5331
C:\Users\CYMR90~1\AppData\Local\Temp\ccNmN5zT.s:26322  .debug_str:0000000000018241 .LASF5332
C:\Users\CYMR90~1\AppData\Local\Temp\ccNmN5zT.s:28738  .debug_str:0000000000021cd5 .LASF5333
C:\Users\CYMR90~1\AppData\Local\Temp\ccNmN5zT.s:31232  .debug_str:000000000002ba1e .LASF5334
C:\Users\CYMR90~1\AppData\Local\Temp\ccNmN5zT.s:22269  .debug_str:0000000000007c11 .LASF5335
C:\Users\CYMR90~1\AppData\Local\Temp\ccNmN5zT.s:21715  .debug_str:0000000000005937 .LASF5336
C:\Users\CYMR90~1\AppData\Local\Temp\ccNmN5zT.s:22025  .debug_str:0000000000006bc4 .LASF5337
C:\Users\CYMR90~1\AppData\Local\Temp\ccNmN5zT.s:23483  .debug_str:000000000000cc76 .LASF5338
C:\Users\CYMR90~1\AppData\Local\Temp\ccNmN5zT.s:24831  .debug_str:00000000000121a7 .LASF5339
C:\Users\CYMR90~1\AppData\Local\Temp\ccNmN5zT.s:23227  .debug_str:000000000000bb0d .LASF5340
C:\Users\CYMR90~1\AppData\Local\Temp\ccNmN5zT.s:30264  .debug_str:0000000000027da8 .LASF5341
C:\Users\CYMR90~1\AppData\Local\Temp\ccNmN5zT.s:29852  .debug_str:000000000002637a .LASF5342
C:\Users\CYMR90~1\AppData\Local\Temp\ccNmN5zT.s:25573  .debug_str:000000000001516e .LASF5343
C:\Users\CYMR90~1\AppData\Local\Temp\ccNmN5zT.s:28192  .debug_str:000000000001fadd .LASF5344
C:\Users\CYMR90~1\AppData\Local\Temp\ccNmN5zT.s:25135  .debug_str:000000000001360f .LASF5345
C:\Users\CYMR90~1\AppData\Local\Temp\ccNmN5zT.s:31418  .debug_str:000000000002c65e .LASF5346
C:\Users\CYMR90~1\AppData\Local\Temp\ccNmN5zT.s:27688  .debug_str:000000000001dc10 .LASF5347
C:\Users\CYMR90~1\AppData\Local\Temp\ccNmN5zT.s:28426  .debug_str:0000000000020990 .LASF5348
C:\Users\CYMR90~1\AppData\Local\Temp\ccNmN5zT.s:28584  .debug_str:00000000000212c3 .LASF5349
C:\Users\CYMR90~1\AppData\Local\Temp\ccNmN5zT.s:23561  .debug_str:000000000000d129 .LASF5350
C:\Users\CYMR90~1\AppData\Local\Temp\ccNmN5zT.s:27632  .debug_str:000000000001d877 .LASF5351
C:\Users\CYMR90~1\AppData\Local\Temp\ccNmN5zT.s:26206  .debug_str:0000000000017b43 .LASF5352
C:\Users\CYMR90~1\AppData\Local\Temp\ccNmN5zT.s:25377  .debug_str:00000000000144af .LASF5353
C:\Users\CYMR90~1\AppData\Local\Temp\ccNmN5zT.s:25407  .debug_str:00000000000146d1 .LASF5354
C:\Users\CYMR90~1\AppData\Local\Temp\ccNmN5zT.s:25581  .debug_str:00000000000151ec .LASF5355
C:\Users\CYMR90~1\AppData\Local\Temp\ccNmN5zT.s:23623  .debug_str:000000000000d5d1 .LASF5356
C:\Users\CYMR90~1\AppData\Local\Temp\ccNmN5zT.s:25249  .debug_str:0000000000013cf2 .LASF5357
C:\Users\CYMR90~1\AppData\Local\Temp\ccNmN5zT.s:20985  .debug_str:0000000000002a79 .LASF5358
C:\Users\CYMR90~1\AppData\Local\Temp\ccNmN5zT.s:22815  .debug_str:0000000000009f88 .LASF5359
C:\Users\CYMR90~1\AppData\Local\Temp\ccNmN5zT.s:29592  .debug_str:00000000000251b9 .LASF5360
C:\Users\CYMR90~1\AppData\Local\Temp\ccNmN5zT.s:27546  .debug_str:000000000001d30e .LASF5361
C:\Users\CYMR90~1\AppData\Local\Temp\ccNmN5zT.s:31502  .debug_str:000000000002cbd0 .LASF5362
C:\Users\CYMR90~1\AppData\Local\Temp\ccNmN5zT.s:25763  .debug_str:0000000000015cd4 .LASF5363
C:\Users\CYMR90~1\AppData\Local\Temp\ccNmN5zT.s:22847  .debug_str:000000000000a17e .LASF5364
C:\Users\CYMR90~1\AppData\Local\Temp\ccNmN5zT.s:23659  .debug_str:000000000000d7ff .LASF5365
C:\Users\CYMR90~1\AppData\Local\Temp\ccNmN5zT.s:28312  .debug_str:0000000000020229 .LASF5366
C:\Users\CYMR90~1\AppData\Local\Temp\ccNmN5zT.s:29688  .debug_str:000000000002593f .LASF5367
C:\Users\CYMR90~1\AppData\Local\Temp\ccNmN5zT.s:23459  .debug_str:000000000000cae2 .LASF5368
C:\Users\CYMR90~1\AppData\Local\Temp\ccNmN5zT.s:22879  .debug_str:000000000000a385 .LASF5369
C:\Users\CYMR90~1\AppData\Local\Temp\ccNmN5zT.s:27010  .debug_str:000000000001b03d .LASF5370
C:\Users\CYMR90~1\AppData\Local\Temp\ccNmN5zT.s:24265  .debug_str:000000000000fce9 .LASF5371
C:\Users\CYMR90~1\AppData\Local\Temp\ccNmN5zT.s:26482  .debug_str:0000000000018c25 .LASF5372
C:\Users\CYMR90~1\AppData\Local\Temp\ccNmN5zT.s:23427  .debug_str:000000000000c86e .LASF5373
C:\Users\CYMR90~1\AppData\Local\Temp\ccNmN5zT.s:23563  .debug_str:000000000000d141 .LASF5374
C:\Users\CYMR90~1\AppData\Local\Temp\ccNmN5zT.s:24629  .debug_str:00000000000113a0 .LASF5375
C:\Users\CYMR90~1\AppData\Local\Temp\ccNmN5zT.s:27682  .debug_str:000000000001dbaf .LASF5376
C:\Users\CYMR90~1\AppData\Local\Temp\ccNmN5zT.s:22607  .debug_str:000000000000928d .LASF5377
C:\Users\CYMR90~1\AppData\Local\Temp\ccNmN5zT.s:22671  .debug_str:000000000000969c .LASF5378
C:\Users\CYMR90~1\AppData\Local\Temp\ccNmN5zT.s:27570  .debug_str:000000000001d47b .LASF5379
C:\Users\CYMR90~1\AppData\Local\Temp\ccNmN5zT.s:26142  .debug_str:00000000000176fb .LASF5380
C:\Users\CYMR90~1\AppData\Local\Temp\ccNmN5zT.s:28888  .debug_str:000000000002253d .LASF5381
C:\Users\CYMR90~1\AppData\Local\Temp\ccNmN5zT.s:20299  .debug_str:00000000000000a6 .LASF5382
C:\Users\CYMR90~1\AppData\Local\Temp\ccNmN5zT.s:28276  .debug_str:0000000000020037 .LASF5383
C:\Users\CYMR90~1\AppData\Local\Temp\ccNmN5zT.s:31576  .debug_str:000000000002d05e .LASF5384
C:\Users\CYMR90~1\AppData\Local\Temp\ccNmN5zT.s:27712  .debug_str:000000000001ddfb .LASF5385
C:\Users\CYMR90~1\AppData\Local\Temp\ccNmN5zT.s:21767  .debug_str:0000000000005c6d .LASF5386
C:\Users\CYMR90~1\AppData\Local\Temp\ccNmN5zT.s:20923  .debug_str:0000000000002655 .LASF5387
C:\Users\CYMR90~1\AppData\Local\Temp\ccNmN5zT.s:28506  .debug_str:0000000000020e6e .LASF5388
C:\Users\CYMR90~1\AppData\Local\Temp\ccNmN5zT.s:30388  .debug_str:00000000000286ae .LASF5389
C:\Users\CYMR90~1\AppData\Local\Temp\ccNmN5zT.s:20397  .debug_str:0000000000000663 .LASF5390
C:\Users\CYMR90~1\AppData\Local\Temp\ccNmN5zT.s:24859  .debug_str:000000000001233f .LASF5391
C:\Users\CYMR90~1\AppData\Local\Temp\ccNmN5zT.s:25277  .debug_str:0000000000013ea0 .LASF5392
C:\Users\CYMR90~1\AppData\Local\Temp\ccNmN5zT.s:24829  .debug_str:000000000001218e .LASF5393
C:\Users\CYMR90~1\AppData\Local\Temp\ccNmN5zT.s:21889  .debug_str:00000000000063b0 .LASF5394
C:\Users\CYMR90~1\AppData\Local\Temp\ccNmN5zT.s:28012  .debug_str:000000000001efee .LASF5395
C:\Users\CYMR90~1\AppData\Local\Temp\ccNmN5zT.s:26156  .debug_str:0000000000017800 .LASF5396
C:\Users\CYMR90~1\AppData\Local\Temp\ccNmN5zT.s:20651  .debug_str:00000000000015c0 .LASF5397
C:\Users\CYMR90~1\AppData\Local\Temp\ccNmN5zT.s:28230  .debug_str:000000000001fd2b .LASF5398
C:\Users\CYMR90~1\AppData\Local\Temp\ccNmN5zT.s:21001  .debug_str:0000000000002bb3 .LASF5399
C:\Users\CYMR90~1\AppData\Local\Temp\ccNmN5zT.s:29156  .debug_str:0000000000023510 .LASF5400
C:\Users\CYMR90~1\AppData\Local\Temp\ccNmN5zT.s:20607  .debug_str:000000000000136b .LASF5401
C:\Users\CYMR90~1\AppData\Local\Temp\ccNmN5zT.s:30016  .debug_str:0000000000026d3a .LASF5402
C:\Users\CYMR90~1\AppData\Local\Temp\ccNmN5zT.s:25817  .debug_str:0000000000016097 .LASF5403
C:\Users\CYMR90~1\AppData\Local\Temp\ccNmN5zT.s:21223  .debug_str:00000000000039a9 .LASF5404
C:\Users\CYMR90~1\AppData\Local\Temp\ccNmN5zT.s:23095  .debug_str:000000000000b269 .LASF5405
C:\Users\CYMR90~1\AppData\Local\Temp\ccNmN5zT.s:25265  .debug_str:0000000000013dc4 .LASF5406
C:\Users\CYMR90~1\AppData\Local\Temp\ccNmN5zT.s:21793  .debug_str:0000000000005de5 .LASF5407
C:\Users\CYMR90~1\AppData\Local\Temp\ccNmN5zT.s:30168  .debug_str:0000000000027752 .LASF5408
C:\Users\CYMR90~1\AppData\Local\Temp\ccNmN5zT.s:22369  .debug_str:00000000000083c9 .LASF5409
C:\Users\CYMR90~1\AppData\Local\Temp\ccNmN5zT.s:31134  .debug_str:000000000002b3a1 .LASF5410
C:\Users\CYMR90~1\AppData\Local\Temp\ccNmN5zT.s:28306  .debug_str:00000000000201de .LASF5411
C:\Users\CYMR90~1\AppData\Local\Temp\ccNmN5zT.s:26636  .debug_str:00000000000196c8 .LASF5412
C:\Users\CYMR90~1\AppData\Local\Temp\ccNmN5zT.s:20533  .debug_str:0000000000000f68 .LASF5413
C:\Users\CYMR90~1\AppData\Local\Temp\ccNmN5zT.s:28138  .debug_str:000000000001f79f .LASF5414
C:\Users\CYMR90~1\AppData\Local\Temp\ccNmN5zT.s:21741  .debug_str:0000000000005aca .LASF5415
C:\Users\CYMR90~1\AppData\Local\Temp\ccNmN5zT.s:31102  .debug_str:000000000002b158 .LASF5416
C:\Users\CYMR90~1\AppData\Local\Temp\ccNmN5zT.s:25883  .debug_str:000000000001648f .LASF5417
C:\Users\CYMR90~1\AppData\Local\Temp\ccNmN5zT.s:25681  .debug_str:00000000000157b4 .LASF5418
C:\Users\CYMR90~1\AppData\Local\Temp\ccNmN5zT.s:26706  .debug_str:0000000000019bfc .LASF5419
C:\Users\CYMR90~1\AppData\Local\Temp\ccNmN5zT.s:23157  .debug_str:000000000000b660 .LASF5420
C:\Users\CYMR90~1\AppData\Local\Temp\ccNmN5zT.s:29476  .debug_str:00000000000249ed .LASF5421
C:\Users\CYMR90~1\AppData\Local\Temp\ccNmN5zT.s:31080  .debug_str:000000000002b018 .LASF5422
C:\Users\CYMR90~1\AppData\Local\Temp\ccNmN5zT.s:21275  .debug_str:0000000000003cec .LASF5423
C:\Users\CYMR90~1\AppData\Local\Temp\ccNmN5zT.s:27936  .debug_str:000000000001eb80 .LASF5424
C:\Users\CYMR90~1\AppData\Local\Temp\ccNmN5zT.s:27454  .debug_str:000000000001cc27 .LASF5425
C:\Users\CYMR90~1\AppData\Local\Temp\ccNmN5zT.s:25051  .debug_str:0000000000012fd9 .LASF5426
C:\Users\CYMR90~1\AppData\Local\Temp\ccNmN5zT.s:30830  .debug_str:000000000002a15f .LASF5427
C:\Users\CYMR90~1\AppData\Local\Temp\ccNmN5zT.s:28710  .debug_str:0000000000021b04 .LASF5428
C:\Users\CYMR90~1\AppData\Local\Temp\ccNmN5zT.s:22693  .debug_str:00000000000097d0 .LASF5429
C:\Users\CYMR90~1\AppData\Local\Temp\ccNmN5zT.s:31486  .debug_str:000000000002cab3 .LASF5430
C:\Users\CYMR90~1\AppData\Local\Temp\ccNmN5zT.s:30536  .debug_str:0000000000028fe3 .LASF5431
C:\Users\CYMR90~1\AppData\Local\Temp\ccNmN5zT.s:21101  .debug_str:00000000000031e6 .LASF5432
C:\Users\CYMR90~1\AppData\Local\Temp\ccNmN5zT.s:28662  .debug_str:0000000000021836 .LASF5433
C:\Users\CYMR90~1\AppData\Local\Temp\ccNmN5zT.s:31452  .debug_str:000000000002c843 .LASF5434
C:\Users\CYMR90~1\AppData\Local\Temp\ccNmN5zT.s:27914  .debug_str:000000000001ea32 .LASF5435
C:\Users\CYMR90~1\AppData\Local\Temp\ccNmN5zT.s:30790  .debug_str:0000000000029efc .LASF5436
C:\Users\CYMR90~1\AppData\Local\Temp\ccNmN5zT.s:25757  .debug_str:0000000000015c8e .LASF5437
C:\Users\CYMR90~1\AppData\Local\Temp\ccNmN5zT.s:27848  .debug_str:000000000001e61a .LASF5438
C:\Users\CYMR90~1\AppData\Local\Temp\ccNmN5zT.s:24159  .debug_str:000000000000f5f6 .LASF5439
C:\Users\CYMR90~1\AppData\Local\Temp\ccNmN5zT.s:24147  .debug_str:000000000000f549 .LASF5440
C:\Users\CYMR90~1\AppData\Local\Temp\ccNmN5zT.s:28210  .debug_str:000000000001fbfb .LASF5441
C:\Users\CYMR90~1\AppData\Local\Temp\ccNmN5zT.s:29906  .debug_str:00000000000266b6 .LASF5442
C:\Users\CYMR90~1\AppData\Local\Temp\ccNmN5zT.s:20683  .debug_str:000000000000186f .LASF5443
C:\Users\CYMR90~1\AppData\Local\Temp\ccNmN5zT.s:26650  .debug_str:00000000000197b1 .LASF5444
C:\Users\CYMR90~1\AppData\Local\Temp\ccNmN5zT.s:20487  .debug_str:0000000000000c5d .LASF5445
C:\Users\CYMR90~1\AppData\Local\Temp\ccNmN5zT.s:25969  .debug_str:0000000000016a79 .LASF5446
C:\Users\CYMR90~1\AppData\Local\Temp\ccNmN5zT.s:20799  .debug_str:0000000000001f5b .LASF5447
C:\Users\CYMR90~1\AppData\Local\Temp\ccNmN5zT.s:21123  .debug_str:0000000000003353 .LASF5448
C:\Users\CYMR90~1\AppData\Local\Temp\ccNmN5zT.s:23899  .debug_str:000000000000e630 .LASF5449
C:\Users\CYMR90~1\AppData\Local\Temp\ccNmN5zT.s:24631  .debug_str:00000000000113c2 .LASF5450
C:\Users\CYMR90~1\AppData\Local\Temp\ccNmN5zT.s:23029  .debug_str:000000000000ad88 .LASF5451
C:\Users\CYMR90~1\AppData\Local\Temp\ccNmN5zT.s:21323  .debug_str:0000000000004014 .LASF5452
C:\Users\CYMR90~1\AppData\Local\Temp\ccNmN5zT.s:31190  .debug_str:000000000002b734 .LASF5453
C:\Users\CYMR90~1\AppData\Local\Temp\ccNmN5zT.s:22855  .debug_str:000000000000a20a .LASF5454
C:\Users\CYMR90~1\AppData\Local\Temp\ccNmN5zT.s:28452  .debug_str:0000000000020b01 .LASF5455
C:\Users\CYMR90~1\AppData\Local\Temp\ccNmN5zT.s:29150  .debug_str:00000000000234ba .LASF5456
C:\Users\CYMR90~1\AppData\Local\Temp\ccNmN5zT.s:31226  .debug_str:000000000002b9cd .LASF5457
C:\Users\CYMR90~1\AppData\Local\Temp\ccNmN5zT.s:20589  .debug_str:0000000000001277 .LASF5458
C:\Users\CYMR90~1\AppData\Local\Temp\ccNmN5zT.s:29816  .debug_str:000000000002615b .LASF5459
C:\Users\CYMR90~1\AppData\Local\Temp\ccNmN5zT.s:28782  .debug_str:0000000000021f62 .LASF5460
C:\Users\CYMR90~1\AppData\Local\Temp\ccNmN5zT.s:27714  .debug_str:000000000001de1d .LASF5461
C:\Users\CYMR90~1\AppData\Local\Temp\ccNmN5zT.s:24329  .debug_str:00000000000100cb .LASF5462
C:\Users\CYMR90~1\AppData\Local\Temp\ccNmN5zT.s:20769  .debug_str:0000000000001d95 .LASF5463
C:\Users\CYMR90~1\AppData\Local\Temp\ccNmN5zT.s:26988  .debug_str:000000000001ae95 .LASF5464
C:\Users\CYMR90~1\AppData\Local\Temp\ccNmN5zT.s:23779  .debug_str:000000000000df42 .LASF5465
C:\Users\CYMR90~1\AppData\Local\Temp\ccNmN5zT.s:25321  .debug_str:0000000000014169 .LASF5466
C:\Users\CYMR90~1\AppData\Local\Temp\ccNmN5zT.s:30398  .debug_str:0000000000028766 .LASF5467
C:\Users\CYMR90~1\AppData\Local\Temp\ccNmN5zT.s:31344  .debug_str:000000000002c170 .LASF5468
C:\Users\CYMR90~1\AppData\Local\Temp\ccNmN5zT.s:26256  .debug_str:0000000000017e40 .LASF5469
C:\Users\CYMR90~1\AppData\Local\Temp\ccNmN5zT.s:24439  .debug_str:00000000000107ef .LASF5470
C:\Users\CYMR90~1\AppData\Local\Temp\ccNmN5zT.s:20919  .debug_str:0000000000002610 .LASF5471
C:\Users\CYMR90~1\AppData\Local\Temp\ccNmN5zT.s:29044  .debug_str:0000000000022ee7 .LASF5472
C:\Users\CYMR90~1\AppData\Local\Temp\ccNmN5zT.s:20643  .debug_str:0000000000001534 .LASF5473
C:\Users\CYMR90~1\AppData\Local\Temp\ccNmN5zT.s:20477  .debug_str:0000000000000bcf .LASF5474
C:\Users\CYMR90~1\AppData\Local\Temp\ccNmN5zT.s:21551  .debug_str:0000000000004f6c .LASF5475
C:\Users\CYMR90~1\AppData\Local\Temp\ccNmN5zT.s:22191  .debug_str:0000000000007725 .LASF5476
C:\Users\CYMR90~1\AppData\Local\Temp\ccNmN5zT.s:29858  .debug_str:00000000000263d8 .LASF5477
C:\Users\CYMR90~1\AppData\Local\Temp\ccNmN5zT.s:20833  .debug_str:0000000000002121 .LASF5478
C:\Users\CYMR90~1\AppData\Local\Temp\ccNmN5zT.s:28582  .debug_str:00000000000212ac .LASF5479
C:\Users\CYMR90~1\AppData\Local\Temp\ccNmN5zT.s:23185  .debug_str:000000000000b86f .LASF5480
C:\Users\CYMR90~1\AppData\Local\Temp\ccNmN5zT.s:26028  .debug_str:0000000000017065 .LASF5481
C:\Users\CYMR90~1\AppData\Local\Temp\ccNmN5zT.s:22543  .debug_str:0000000000008efb .LASF5482
C:\Users\CYMR90~1\AppData\Local\Temp\ccNmN5zT.s:28204  .debug_str:000000000001fbad .LASF5483
C:\Users\CYMR90~1\AppData\Local\Temp\ccNmN5zT.s:28976  .debug_str:0000000000022abe .LASF5484
C:\Users\CYMR90~1\AppData\Local\Temp\ccNmN5zT.s:29460  .debug_str:000000000002488e .LASF5485
C:\Users\CYMR90~1\AppData\Local\Temp\ccNmN5zT.s:28918  .debug_str:0000000000022736 .LASF5486
C:\Users\CYMR90~1\AppData\Local\Temp\ccNmN5zT.s:25875  .debug_str:0000000000016439 .LASF5487
C:\Users\CYMR90~1\AppData\Local\Temp\ccNmN5zT.s:25779  .debug_str:0000000000015df1 .LASF5488
C:\Users\CYMR90~1\AppData\Local\Temp\ccNmN5zT.s:25363  .debug_str:0000000000014401 .LASF5489
C:\Users\CYMR90~1\AppData\Local\Temp\ccNmN5zT.s:22341  .debug_str:00000000000081fa .LASF5490
C:\Users\CYMR90~1\AppData\Local\Temp\ccNmN5zT.s:28772  .debug_str:0000000000021edb .LASF5491
C:\Users\CYMR90~1\AppData\Local\Temp\ccNmN5zT.s:30478  .debug_str:0000000000028c6b .LASF5492
C:\Users\CYMR90~1\AppData\Local\Temp\ccNmN5zT.s:31552  .debug_str:000000000002cf1d .LASF5493
C:\Users\CYMR90~1\AppData\Local\Temp\ccNmN5zT.s:23877  .debug_str:000000000000e4d9 .LASF5494
C:\Users\CYMR90~1\AppData\Local\Temp\ccNmN5zT.s:25387  .debug_str:000000000001453c .LASF5495
C:\Users\CYMR90~1\AppData\Local\Temp\ccNmN5zT.s:20695  .debug_str:0000000000001939 .LASF5496
C:\Users\CYMR90~1\AppData\Local\Temp\ccNmN5zT.s:21337  .debug_str:00000000000040d4 .LASF5497
C:\Users\CYMR90~1\AppData\Local\Temp\ccNmN5zT.s:21341  .debug_str:00000000000041a4 .LASF5498
C:\Users\CYMR90~1\AppData\Local\Temp\ccNmN5zT.s:24519  .debug_str:0000000000010d74 .LASF5499
C:\Users\CYMR90~1\AppData\Local\Temp\ccNmN5zT.s:29318  .debug_str:0000000000023eec .LASF5500
C:\Users\CYMR90~1\AppData\Local\Temp\ccNmN5zT.s:23211  .debug_str:000000000000ba3e .LASF5501
C:\Users\CYMR90~1\AppData\Local\Temp\ccNmN5zT.s:22929  .debug_str:000000000000a666 .LASF5502
C:\Users\CYMR90~1\AppData\Local\Temp\ccNmN5zT.s:21173  .debug_str:0000000000003669 .LASF5503
C:\Users\CYMR90~1\AppData\Local\Temp\ccNmN5zT.s:29198  .debug_str:0000000000023805 .LASF5504
C:\Users\CYMR90~1\AppData\Local\Temp\ccNmN5zT.s:29736  .debug_str:0000000000025c3b .LASF5505
C:\Users\CYMR90~1\AppData\Local\Temp\ccNmN5zT.s:22015  .debug_str:0000000000006b26 .LASF5506
C:\Users\CYMR90~1\AppData\Local\Temp\ccNmN5zT.s:24353  .debug_str:0000000000010273 .LASF5507
C:\Users\CYMR90~1\AppData\Local\Temp\ccNmN5zT.s:25657  .debug_str:0000000000015647 .LASF5508
C:\Users\CYMR90~1\AppData\Local\Temp\ccNmN5zT.s:31166  .debug_str:000000000002b5da .LASF5509
C:\Users\CYMR90~1\AppData\Local\Temp\ccNmN5zT.s:29424  .debug_str:0000000000024656 .LASF5510
C:\Users\CYMR90~1\AppData\Local\Temp\ccNmN5zT.s:26646  .debug_str:0000000000019769 .LASF5511
C:\Users\CYMR90~1\AppData\Local\Temp\ccNmN5zT.s:27674  .debug_str:000000000001db4a .LASF5512
C:\Users\CYMR90~1\AppData\Local\Temp\ccNmN5zT.s:25861  .debug_str:000000000001634d .LASF5513
C:\Users\CYMR90~1\AppData\Local\Temp\ccNmN5zT.s:22555  .debug_str:0000000000008faa .LASF5514
C:\Users\CYMR90~1\AppData\Local\Temp\ccNmN5zT.s:24487  .debug_str:0000000000010af0 .LASF5515
C:\Users\CYMR90~1\AppData\Local\Temp\ccNmN5zT.s:26446  .debug_str:00000000000189cd .LASF5516
C:\Users\CYMR90~1\AppData\Local\Temp\ccNmN5zT.s:26114  .debug_str:0000000000017536 .LASF5517
C:\Users\CYMR90~1\AppData\Local\Temp\ccNmN5zT.s:25889  .debug_str:00000000000164e4 .LASF5518
C:\Users\CYMR90~1\AppData\Local\Temp\ccNmN5zT.s:21285  .debug_str:0000000000003daa .LASF5519
C:\Users\CYMR90~1\AppData\Local\Temp\ccNmN5zT.s:30156  .debug_str:000000000002769c .LASF5520
C:\Users\CYMR90~1\AppData\Local\Temp\ccNmN5zT.s:23849  .debug_str:000000000000e344 .LASF5521
C:\Users\CYMR90~1\AppData\Local\Temp\ccNmN5zT.s:21329  .debug_str:0000000000004051 .LASF5522
C:\Users\CYMR90~1\AppData\Local\Temp\ccNmN5zT.s:25497  .debug_str:0000000000014c38 .LASF5523
C:\Users\CYMR90~1\AppData\Local\Temp\ccNmN5zT.s:23845  .debug_str:000000000000e305 .LASF5524
C:\Users\CYMR90~1\AppData\Local\Temp\ccNmN5zT.s:25713  .debug_str:00000000000159b1 .LASF5525
C:\Users\CYMR90~1\AppData\Local\Temp\ccNmN5zT.s:31004  .debug_str:000000000002ab9d .LASF5526
C:\Users\CYMR90~1\AppData\Local\Temp\ccNmN5zT.s:22453  .debug_str:00000000000088d8 .LASF5527
C:\Users\CYMR90~1\AppData\Local\Temp\ccNmN5zT.s:21041  .debug_str:0000000000002e26 .LASF5528
C:\Users\CYMR90~1\AppData\Local\Temp\ccNmN5zT.s:25031  .debug_str:0000000000012e97 .LASF5529
C:\Users\CYMR90~1\AppData\Local\Temp\ccNmN5zT.s:30734  .debug_str:0000000000029b96 .LASF5530
C:\Users\CYMR90~1\AppData\Local\Temp\ccNmN5zT.s:23293  .debug_str:000000000000bffa .LASF5531
C:\Users\CYMR90~1\AppData\Local\Temp\ccNmN5zT.s:26812  .debug_str:000000000001a238 .LASF5532
C:\Users\CYMR90~1\AppData\Local\Temp\ccNmN5zT.s:29682  .debug_str:0000000000025872 .LASF5533
C:\Users\CYMR90~1\AppData\Local\Temp\ccNmN5zT.s:31318  .debug_str:000000000002bff4 .LASF5534
C:\Users\CYMR90~1\AppData\Local\Temp\ccNmN5zT.s:31526  .debug_str:000000000002cd02 .LASF5535
C:\Users\CYMR90~1\AppData\Local\Temp\ccNmN5zT.s:30402  .debug_str:00000000000287ce .LASF5536
C:\Users\CYMR90~1\AppData\Local\Temp\ccNmN5zT.s:25179  .debug_str:00000000000138a2 .LASF5537
C:\Users\CYMR90~1\AppData\Local\Temp\ccNmN5zT.s:27954  .debug_str:000000000001ec79 .LASF5538
C:\Users\CYMR90~1\AppData\Local\Temp\ccNmN5zT.s:24413  .debug_str:00000000000105e5 .LASF5539
C:\Users\CYMR90~1\AppData\Local\Temp\ccNmN5zT.s:31414  .debug_str:000000000002c62e .LASF5540
C:\Users\CYMR90~1\AppData\Local\Temp\ccNmN5zT.s:29554  .debug_str:0000000000024eee .LASF5541
C:\Users\CYMR90~1\AppData\Local\Temp\ccNmN5zT.s:29464  .debug_str:00000000000248b7 .LASF5542
C:\Users\CYMR90~1\AppData\Local\Temp\ccNmN5zT.s:22065  .debug_str:0000000000006e83 .LASF5543
C:\Users\CYMR90~1\AppData\Local\Temp\ccNmN5zT.s:25915  .debug_str:00000000000166db .LASF5544
C:\Users\CYMR90~1\AppData\Local\Temp\ccNmN5zT.s:30218  .debug_str:0000000000027a2b .LASF5545
C:\Users\CYMR90~1\AppData\Local\Temp\ccNmN5zT.s:30606  .debug_str:00000000000293e9 .LASF5546
C:\Users\CYMR90~1\AppData\Local\Temp\ccNmN5zT.s:30014  .debug_str:0000000000026d15 .LASF5547
C:\Users\CYMR90~1\AppData\Local\Temp\ccNmN5zT.s:23725  .debug_str:000000000000dbba .LASF5548
C:\Users\CYMR90~1\AppData\Local\Temp\ccNmN5zT.s:29160  .debug_str:000000000002356e .LASF5549
C:\Users\CYMR90~1\AppData\Local\Temp\ccNmN5zT.s:27532  .debug_str:000000000001d245 .LASF5550
C:\Users\CYMR90~1\AppData\Local\Temp\ccNmN5zT.s:23963  .debug_str:000000000000ea77 .LASF5551
C:\Users\CYMR90~1\AppData\Local\Temp\ccNmN5zT.s:22973  .debug_str:000000000000aa02 .LASF5552
C:\Users\CYMR90~1\AppData\Local\Temp\ccNmN5zT.s:21937  .debug_str:000000000000667e .LASF5553
C:\Users\CYMR90~1\AppData\Local\Temp\ccNmN5zT.s:25907  .debug_str:0000000000016668 .LASF5554
C:\Users\CYMR90~1\AppData\Local\Temp\ccNmN5zT.s:27068  .debug_str:000000000001b43c .LASF5555
                           .group:0000000000000000 wm4.0.10abbef32179bc1260444192115bdf5e
                           .group:0000000000000000 wm4.stddef.h.39.144cf5ddcd53cbfdac30259dc1a6c87f
                           .group:0000000000000000 wm4._newlib_version.h.4.bfdf54b0af045d4a71376ae00f63a22c
                           .group:0000000000000000 wm4.newlib.h.18.08a2ecba46890ca2aa56bbe21686e6c3
                           .group:0000000000000000 wm4.ieeefp.h.202.4f2759f5758fd82153cfbf98692f2ced
                           .group:0000000000000000 wm4.features.h.22.fad1cec3bc7ff06488171438dbdcfd02
                           .group:0000000000000000 wm4.config.h.83.13bbc8852bfac55b724c9822481355b5
                           .group:0000000000000000 wm4._ansi.h.31.de524f58584151836e90d8620a16f8e8
                           .group:0000000000000000 wm4.stdio.h.31.7c0e28c411445f3f9c5b11accf882760
                           .group:0000000000000000 wm4._default_types.h.6.959254cf5f09734ea7516c89e8bb21bd
                           .group:0000000000000000 wm4.stddef.h.155.ba788add86a0e365f264484f110c3c29
                           .group:0000000000000000 wm4.cdefs.h.49.39045112216f6a021dbdffe3bf5accce
                           .group:0000000000000000 wm4.stdarg.h.34.3a23a216c0c293b3d2ea2e89281481e6
                           .group:0000000000000000 wm4._types.h.20.dd0d04dca3800a0d2a6129b87f3adbb2
                           .group:0000000000000000 wm4.stddef.h.155.3588ebfdd1e8c7ede80509bb9c3b8009
                           .group:0000000000000000 wm4._types.h.127.34941de1b2539d59d5cac00e0dd27a45
                           .group:0000000000000000 wm4.reent.h.17.e292bf8b0bec6c96e131a54347145a30
                           .group:0000000000000000 wm4.lock.h.2.c0958401bd0ce484d507ee19aacab817
                           .group:0000000000000000 wm4.reent.h.77.dcd6129ff07fe81bd5636db29abe53b2
                           .group:0000000000000000 wm4.types.h.40.8b6acba56cefbb11746718204edc8f5e
                           .group:0000000000000000 wm4._stdint.h.10.c24fa3af3bc1706662bb5593a907e841
                           .group:0000000000000000 wm4._endian.h.18.1bf9649e8e5bbc91042012680270b9ed
                           .group:0000000000000000 wm4.endian.h.9.49f3a4695c1b61e8a0808de3c4a106cb
                           .group:0000000000000000 wm4._timeval.h.32.bec3221fa7a9bb0bdde696c9c57e47d2
                           .group:0000000000000000 wm4.timespec.h.41.d855182eb0e690443ab8651bcedca6e1
                           .group:0000000000000000 wm4.select.h.19.40cd3f2bfc456b193b790c2754690ebf
                           .group:0000000000000000 wm4.types.h.51.5571ec98f267d17d3c670b7a3ba33afa
                           .group:0000000000000000 wm4.sched.h.22.c60982713a5c428609783c78f9c78d95
                           .group:0000000000000000 wm4._pthreadtypes.h.36.fcee9961c35163dde6267ef772ad1972
                           .group:0000000000000000 wm4.stdio.h.2.4aa87247282eca6c8f36f9de33d8df1a
                           .group:0000000000000000 wm4.stdio.h.81.932d0c162786b883f622b8d05c120c78
                           .group:0000000000000000 wm4.gd32vw55x.h.47.379378190858578060a317909b2c8d8a
                           .group:0000000000000000 wm4._intsup.h.10.48bafbb683905c4daa4565a85aeeb264
                           .group:0000000000000000 wm4.stdint.h.23.d53047a68f4a85177f80b422d52785ed
                           .group:0000000000000000 wm4.nmsis_version.h.19.ffa173da8efb17b1050904994d6f500e
                           .group:0000000000000000 wm4.riscv_bits.h.19.ee94eb3d39937793d4cd0a62363e5d00
                           .group:0000000000000000 wm4.riscv_encoding.h.35.f5d37fad7abbab8278b4bb6f1e32fa65
                           .group:0000000000000000 wm4.nmsis_gcc.h.61.5d70d7598ffc79c3c991d847a574cf23
                           .group:0000000000000000 wm4.core_feature_base.h.20.e99d3e75c26a8f3341d35bf20d0e1d20
                           .group:0000000000000000 wm4.core_feature_fpu.h.19.695f2200274659b530cb97cda749ff4f
                           .group:0000000000000000 wm4.core_feature_dsp.h.19.e8f8d7aa42f197807aefedb6584486cd
                           .group:0000000000000000 wm4.core_compatiable.h.19.5b8282d61b1f6889a82895616b730084
                           .group:0000000000000000 wm4.core_feature_eclic.h.19.e0c091d0cbda79e8b3b031b979ebd5a1
                           .group:0000000000000000 wm4.core_feature_timer.h.19.21a5151282de34c37dfa6d84e262aa54
                           .group:0000000000000000 wm4.system_gd32vw55x.h.32.f1fcb1212d387c35ac955b0e96ada468
                           .group:0000000000000000 wm4.gd32vw55x.h.231.3529c650aff38c9372f7e03177fd2c8a
                           .group:0000000000000000 wm4.gd32vw55x_adc.h.42.ae73acec1704ef509ccecb41a875b50e
                           .group:0000000000000000 wm4.gd32vw55x_cau.h.36.c98428fe1eae7edb4721da5c8078c974
                           .group:0000000000000000 wm4.gd32vw55x_crc.h.37.c58f296814c2300a4b067c08bd88d54e
                           .group:0000000000000000 wm4.gd32vw55x_dbg.h.36.311650c8545549d482ceca8befc5a232
                           .group:0000000000000000 wm4.gd32vw55x_dma.h.36.f4adc751172b2a7b1533dda72e948737
                           .group:0000000000000000 wm4.gd32vw55x_eclic.h.36.0411499f2b2493c67246e32ccae096c1
                           .group:0000000000000000 wm4.gd32vw55x_efuse.h.36.091404cecbab70359dfd93faec5fdb62
                           .group:0000000000000000 wm4.gd32vw55x_exti.h.36.de7508334dd12f1a6a673521a1a835f5
                           .group:0000000000000000 wm4.gd32vw55x_fmc.h.36.a4b0b94c47ffe23a2fa09260c5ed4850
                           .group:0000000000000000 wm4.gd32vw55x_fwdgt.h.36.4846b6900fd24b5bfce4986c9a8ce677
                           .group:0000000000000000 wm4.gd32vw55x_gpio.h.36.adfee1371bb58d3d9043c47bdb25a90f
                           .group:0000000000000000 wm4.gd32vw55x_hau.h.36.f3cbcbd7b67c9e5bdc7a1100b1bf3458
                           .group:0000000000000000 wm4.gd32vw55x_i2c.h.36.3848990933925e084eb427083790c53f
                           .group:0000000000000000 wm4.gd32vw55x_pkcau.h.36.bb2235f4cf4967063a51bfa9aca5ef27
                           .group:0000000000000000 wm4.gd32vw55x_pmu.h.36.4c76091f1415551526d489ccf2c42052
                           .group:0000000000000000 wm4.gd32vw55x_qspi.h.36.2d2c181cfe19b935a9641008fc786613
                           .group:0000000000000000 wm4.gd32vw55x_rcu.h.36.780a8a45c00d563711cceb445027ef47
                           .group:0000000000000000 wm4.gd32vw55x_rtc.h.36.3172855e8715659e080e0eab46fdf175
                           .group:0000000000000000 wm4.gd32vw55x_syscfg.h.36.010551f05591f5e34051d2e15df0352b
                           .group:0000000000000000 wm4.gd32vw55x_timer.h.38.2cbee78ea60d47145be361b2d2c55070
                           .group:0000000000000000 wm4.gd32vw55x_trng.h.36.c9e7807af1b1ab68d3bbb54f4ed5cd73
                           .group:0000000000000000 wm4.gd32vw55x_usart.h.36.f5c497cca17945a34f154b0e17017d02
                           .group:0000000000000000 wm4.gd32vw55x_wwdgt.h.36.f7a443b7302efc0e5c335888582ee197
                           .group:0000000000000000 wm4.gd32vw55x_spi.h.40.5cac3a0af8bca3ed9cba060a464bc571

UNDEFINED SYMBOLS
rcu_periph_reset_enable
rcu_periph_reset_disable
