   1              		.file	"gd32vw55x_cau_tdes.c"
   2              		.option nopic
   3              		.attribute arch, "rv32i2p0_m2p0_a2p0_c2p0"
   4              		.attribute unaligned_access, 0
   5              		.attribute stack_align, 16
   6              		.text
   7              	.Ltext0:
   8              		.cfi_sections	.debug_frame
   9              		.section	.text.cau_tdes_ecb,"ax",@progbits
  10              		.align	1
  11              		.globl	cau_tdes_ecb
  13              	cau_tdes_ecb:
  14              	.LFB347:
  15              		.file 1 "../Firmware/GD32VW55x_standard_peripheral/Source/gd32vw55x_cau_tdes.c"
   1:../Firmware/GD32VW55x_standard_peripheral/Source/gd32vw55x_cau_tdes.c **** /*!
   2:../Firmware/GD32VW55x_standard_peripheral/Source/gd32vw55x_cau_tdes.c ****     \file    gd32vw55x_cau_tdes.c
   3:../Firmware/GD32VW55x_standard_peripheral/Source/gd32vw55x_cau_tdes.c ****     \brief   CAU TDES driver
   4:../Firmware/GD32VW55x_standard_peripheral/Source/gd32vw55x_cau_tdes.c **** 
   5:../Firmware/GD32VW55x_standard_peripheral/Source/gd32vw55x_cau_tdes.c ****     \version 2025-01-16, V1.4.0, firmware for GD32VW55x
   6:../Firmware/GD32VW55x_standard_peripheral/Source/gd32vw55x_cau_tdes.c **** */
   7:../Firmware/GD32VW55x_standard_peripheral/Source/gd32vw55x_cau_tdes.c **** 
   8:../Firmware/GD32VW55x_standard_peripheral/Source/gd32vw55x_cau_tdes.c **** /*
   9:../Firmware/GD32VW55x_standard_peripheral/Source/gd32vw55x_cau_tdes.c ****     Copyright (c) 2025, GigaDevice Semiconductor Inc.
  10:../Firmware/GD32VW55x_standard_peripheral/Source/gd32vw55x_cau_tdes.c **** 
  11:../Firmware/GD32VW55x_standard_peripheral/Source/gd32vw55x_cau_tdes.c ****     Redistribution and use in source and binary forms, with or without modification,
  12:../Firmware/GD32VW55x_standard_peripheral/Source/gd32vw55x_cau_tdes.c **** are permitted provided that the following conditions are met:
  13:../Firmware/GD32VW55x_standard_peripheral/Source/gd32vw55x_cau_tdes.c **** 
  14:../Firmware/GD32VW55x_standard_peripheral/Source/gd32vw55x_cau_tdes.c ****     1. Redistributions of source code must retain the above copyright notice, this
  15:../Firmware/GD32VW55x_standard_peripheral/Source/gd32vw55x_cau_tdes.c ****        list of conditions and the following disclaimer.
  16:../Firmware/GD32VW55x_standard_peripheral/Source/gd32vw55x_cau_tdes.c ****     2. Redistributions in binary form must reproduce the above copyright notice,
  17:../Firmware/GD32VW55x_standard_peripheral/Source/gd32vw55x_cau_tdes.c ****        this list of conditions and the following disclaimer in the documentation
  18:../Firmware/GD32VW55x_standard_peripheral/Source/gd32vw55x_cau_tdes.c ****        and/or other materials provided with the distribution.
  19:../Firmware/GD32VW55x_standard_peripheral/Source/gd32vw55x_cau_tdes.c ****     3. Neither the name of the copyright holder nor the names of its contributors
  20:../Firmware/GD32VW55x_standard_peripheral/Source/gd32vw55x_cau_tdes.c ****        may be used to endorse or promote products derived from this software without
  21:../Firmware/GD32VW55x_standard_peripheral/Source/gd32vw55x_cau_tdes.c ****        specific prior written permission.
  22:../Firmware/GD32VW55x_standard_peripheral/Source/gd32vw55x_cau_tdes.c **** 
  23:../Firmware/GD32VW55x_standard_peripheral/Source/gd32vw55x_cau_tdes.c ****     THIS SOFTWARE IS PROVIDED BY THE COPYRIGHT HOLDERS AND CONTRIBUTORS "AS IS"
  24:../Firmware/GD32VW55x_standard_peripheral/Source/gd32vw55x_cau_tdes.c **** AND ANY EXPRESS OR IMPLIED WARRANTIES, INCLUDING, BUT NOT LIMITED TO, THE IMPLIED
  25:../Firmware/GD32VW55x_standard_peripheral/Source/gd32vw55x_cau_tdes.c **** WARRANTIES OF MERCHANTABILITY AND FITNESS FOR A PARTICULAR PURPOSE ARE DISCLAIMED.
  26:../Firmware/GD32VW55x_standard_peripheral/Source/gd32vw55x_cau_tdes.c **** IN NO EVENT SHALL THE COPYRIGHT HOLDER OR CONTRIBUTORS BE LIABLE FOR ANY DIRECT,
  27:../Firmware/GD32VW55x_standard_peripheral/Source/gd32vw55x_cau_tdes.c **** INDIRECT, INCIDENTAL, SPECIAL, EXEMPLARY, OR CONSEQUENTIAL DAMAGES (INCLUDING, BUT
  28:../Firmware/GD32VW55x_standard_peripheral/Source/gd32vw55x_cau_tdes.c **** NOT LIMITED TO, PROCUREMENT OF SUBSTITUTE GOODS OR SERVICES; LOSS OF USE, DATA, OR
  29:../Firmware/GD32VW55x_standard_peripheral/Source/gd32vw55x_cau_tdes.c **** PROFITS; OR BUSINESS INTERRUPTION) HOWEVER CAUSED AND ON ANY THEORY OF LIABILITY,
  30:../Firmware/GD32VW55x_standard_peripheral/Source/gd32vw55x_cau_tdes.c **** WHETHER IN CONTRACT, STRICT LIABILITY, OR TORT (INCLUDING NEGLIGENCE OR OTHERWISE)
  31:../Firmware/GD32VW55x_standard_peripheral/Source/gd32vw55x_cau_tdes.c **** ARISING IN ANY WAY OUT OF THE USE OF THIS SOFTWARE, EVEN IF ADVISED OF THE POSSIBILITY
  32:../Firmware/GD32VW55x_standard_peripheral/Source/gd32vw55x_cau_tdes.c **** OF SUCH DAMAGE.
  33:../Firmware/GD32VW55x_standard_peripheral/Source/gd32vw55x_cau_tdes.c **** */
  34:../Firmware/GD32VW55x_standard_peripheral/Source/gd32vw55x_cau_tdes.c **** 
  35:../Firmware/GD32VW55x_standard_peripheral/Source/gd32vw55x_cau_tdes.c **** #include "gd32vw55x_cau.h"
  36:../Firmware/GD32VW55x_standard_peripheral/Source/gd32vw55x_cau_tdes.c **** 
  37:../Firmware/GD32VW55x_standard_peripheral/Source/gd32vw55x_cau_tdes.c **** #define TDESBSY_TIMEOUT    ((uint32_t)0x00010000U)
  38:../Firmware/GD32VW55x_standard_peripheral/Source/gd32vw55x_cau_tdes.c **** 
  39:../Firmware/GD32VW55x_standard_peripheral/Source/gd32vw55x_cau_tdes.c **** /* TDES calculate process */
  40:../Firmware/GD32VW55x_standard_peripheral/Source/gd32vw55x_cau_tdes.c **** static ErrStatus cau_tdes_calculate(uint8_t *input, uint32_t in_length, uint8_t *output);
  41:../Firmware/GD32VW55x_standard_peripheral/Source/gd32vw55x_cau_tdes.c **** 
  42:../Firmware/GD32VW55x_standard_peripheral/Source/gd32vw55x_cau_tdes.c **** /*!
  43:../Firmware/GD32VW55x_standard_peripheral/Source/gd32vw55x_cau_tdes.c ****     \brief      encrypt and decrypt using TDES in ECB mode
  44:../Firmware/GD32VW55x_standard_peripheral/Source/gd32vw55x_cau_tdes.c ****     \param[in]  cau_parameter: pointer to the input structure
  45:../Firmware/GD32VW55x_standard_peripheral/Source/gd32vw55x_cau_tdes.c ****                   alg_dir: algorithm direction
  46:../Firmware/GD32VW55x_standard_peripheral/Source/gd32vw55x_cau_tdes.c ****                     CAU_ENCRYPT, CAU_DECRYPT
  47:../Firmware/GD32VW55x_standard_peripheral/Source/gd32vw55x_cau_tdes.c ****                   key: key, 24 bytes
  48:../Firmware/GD32VW55x_standard_peripheral/Source/gd32vw55x_cau_tdes.c ****                   input: input data
  49:../Firmware/GD32VW55x_standard_peripheral/Source/gd32vw55x_cau_tdes.c ****                   in_length: input data length in bytes, must be a multiple of 8 bytes
  50:../Firmware/GD32VW55x_standard_peripheral/Source/gd32vw55x_cau_tdes.c ****     \param[out] output: pointer to the output structure
  51:../Firmware/GD32VW55x_standard_peripheral/Source/gd32vw55x_cau_tdes.c ****     \retval     ErrStatus: SUCCESS or ERROR
  52:../Firmware/GD32VW55x_standard_peripheral/Source/gd32vw55x_cau_tdes.c **** */
  53:../Firmware/GD32VW55x_standard_peripheral/Source/gd32vw55x_cau_tdes.c **** ErrStatus cau_tdes_ecb(cau_parameter_struct *cau_parameter, uint8_t *output)
  54:../Firmware/GD32VW55x_standard_peripheral/Source/gd32vw55x_cau_tdes.c **** {
  16              		.loc 1 54 1
  17              		.cfi_startproc
  18 0000 1971     		addi	sp,sp,-128
  19              		.cfi_def_cfa_offset 128
  20 0002 86DE     		sw	ra,124(sp)
  21 0004 A2DC     		sw	s0,120(sp)
  22              		.cfi_offset 1, -4
  23              		.cfi_offset 8, -8
  24 0006 0001     		addi	s0,sp,128
  25              		.cfi_def_cfa 8, 0
  26 0008 2326A4F8 		sw	a0,-116(s0)
  27 000c 2324B4F8 		sw	a1,-120(s0)
  55:../Firmware/GD32VW55x_standard_peripheral/Source/gd32vw55x_cau_tdes.c ****     ErrStatus ret = ERROR;
  28              		.loc 1 55 15
  29 0010 232604FE 		sw	zero,-20(s0)
  56:../Firmware/GD32VW55x_standard_peripheral/Source/gd32vw55x_cau_tdes.c ****     cau_key_parameter_struct key_initpara;
  57:../Firmware/GD32VW55x_standard_peripheral/Source/gd32vw55x_cau_tdes.c ****     uint32_t keyaddr    = (uint32_t)(cau_parameter->key);
  30              		.loc 1 57 51
  31 0014 8327C4F8 		lw	a5,-116(s0)
  32 0018 DC43     		lw	a5,4(a5)
  33              		.loc 1 57 14
  34 001a 2324F4FE 		sw	a5,-24(s0)
  58:../Firmware/GD32VW55x_standard_peripheral/Source/gd32vw55x_cau_tdes.c ****     uint32_t inputaddr  = (uint32_t)(cau_parameter->input);
  35              		.loc 1 58 51
  36 001e 8327C4F8 		lw	a5,-116(s0)
  37 0022 DC4B     		lw	a5,20(a5)
  38              		.loc 1 58 14
  39 0024 2322F4FE 		sw	a5,-28(s0)
  59:../Firmware/GD32VW55x_standard_peripheral/Source/gd32vw55x_cau_tdes.c ****     uint32_t outputaddr = (uint32_t)output;
  40              		.loc 1 59 14
  41 0028 832784F8 		lw	a5,-120(s0)
  42 002c 2320F4FE 		sw	a5,-32(s0)
  60:../Firmware/GD32VW55x_standard_peripheral/Source/gd32vw55x_cau_tdes.c **** 
  61:../Firmware/GD32VW55x_standard_peripheral/Source/gd32vw55x_cau_tdes.c ****     /* key structure initialization */
  62:../Firmware/GD32VW55x_standard_peripheral/Source/gd32vw55x_cau_tdes.c ****     cau_key_struct_para_init(&key_initpara);
  43              		.loc 1 62 5
  44 0030 930704F9 		addi	a5,s0,-112
  45 0034 3E85     		mv	a0,a5
  46 0036 97000000 		call	cau_key_struct_para_init
  46      E7800000 
  63:../Firmware/GD32VW55x_standard_peripheral/Source/gd32vw55x_cau_tdes.c ****     /* initialize the CAU peripheral */
  64:../Firmware/GD32VW55x_standard_peripheral/Source/gd32vw55x_cau_tdes.c ****     cau_init(cau_parameter->alg_dir, CAU_MODE_TDES_ECB, CAU_SWAPPING_8BIT);
  47              		.loc 1 64 5
  48 003e 8327C4F8 		lw	a5,-116(s0)
  49 0042 9C43     		lw	a5,0(a5)
  50 0044 13060008 		li	a2,128
  51 0048 8145     		li	a1,0
  52 004a 3E85     		mv	a0,a5
  53 004c 97000000 		call	cau_init
  53      E7800000 
  65:../Firmware/GD32VW55x_standard_peripheral/Source/gd32vw55x_cau_tdes.c **** 
  66:../Firmware/GD32VW55x_standard_peripheral/Source/gd32vw55x_cau_tdes.c ****     /* key initialization */
  67:../Firmware/GD32VW55x_standard_peripheral/Source/gd32vw55x_cau_tdes.c ****     key_initpara.key_1_high = __REV(*(uint32_t *)(keyaddr));
  54              		.loc 1 67 38
  55 0054 832784FE 		lw	a5,-24(s0)
  56              		.loc 1 67 31
  57 0058 9C43     		lw	a5,0(a5)
  58 005a 232AF4FA 		sw	a5,-76(s0)
  59              	.LBB30:
  60              	.LBB31:
  61              		.file 2 "../Firmware/RISCV/drivers/core_compatiable.h"
   1:../Firmware/RISCV/drivers/core_compatiable.h **** /*
   2:../Firmware/RISCV/drivers/core_compatiable.h ****  * Copyright (c) 2019 Nuclei Limited. All rights reserved.
   3:../Firmware/RISCV/drivers/core_compatiable.h ****  *
   4:../Firmware/RISCV/drivers/core_compatiable.h ****  * SPDX-License-Identifier: Apache-2.0
   5:../Firmware/RISCV/drivers/core_compatiable.h ****  *
   6:../Firmware/RISCV/drivers/core_compatiable.h ****  * Licensed under the Apache License, Version 2.0 (the License); you may
   7:../Firmware/RISCV/drivers/core_compatiable.h ****  * not use this file except in compliance with the License.
   8:../Firmware/RISCV/drivers/core_compatiable.h ****  * You may obtain a copy of the License at
   9:../Firmware/RISCV/drivers/core_compatiable.h ****  *
  10:../Firmware/RISCV/drivers/core_compatiable.h ****  * www.apache.org/licenses/LICENSE-2.0
  11:../Firmware/RISCV/drivers/core_compatiable.h ****  *
  12:../Firmware/RISCV/drivers/core_compatiable.h ****  * Unless required by applicable law or agreed to in writing, software
  13:../Firmware/RISCV/drivers/core_compatiable.h ****  * distributed under the License is distributed on an AS IS BASIS, WITHOUT
  14:../Firmware/RISCV/drivers/core_compatiable.h ****  * WARRANTIES OR CONDITIONS OF ANY KIND, either express or implied.
  15:../Firmware/RISCV/drivers/core_compatiable.h ****  * See the License for the specific language governing permissions and
  16:../Firmware/RISCV/drivers/core_compatiable.h ****  * limitations under the License.
  17:../Firmware/RISCV/drivers/core_compatiable.h ****  */
  18:../Firmware/RISCV/drivers/core_compatiable.h **** #ifndef __CORE_COMPATIABLE_H__
  19:../Firmware/RISCV/drivers/core_compatiable.h **** #define __CORE_COMPATIABLE_H__
  20:../Firmware/RISCV/drivers/core_compatiable.h **** /*!
  21:../Firmware/RISCV/drivers/core_compatiable.h ****  * @file     core_compatiable.h
  22:../Firmware/RISCV/drivers/core_compatiable.h ****  * @brief    ARM compatiable function definitions header file
  23:../Firmware/RISCV/drivers/core_compatiable.h ****  */
  24:../Firmware/RISCV/drivers/core_compatiable.h **** #ifdef __cplusplus
  25:../Firmware/RISCV/drivers/core_compatiable.h ****  extern "C" {
  26:../Firmware/RISCV/drivers/core_compatiable.h **** #endif
  27:../Firmware/RISCV/drivers/core_compatiable.h **** 
  28:../Firmware/RISCV/drivers/core_compatiable.h **** /* ===== ARM Compatiable Functions ===== */
  29:../Firmware/RISCV/drivers/core_compatiable.h **** /**
  30:../Firmware/RISCV/drivers/core_compatiable.h ****  * \defgroup NMSIS_Core_ARMCompatiable_Functions   ARM Compatiable Functions
  31:../Firmware/RISCV/drivers/core_compatiable.h ****  * \ingroup  NMSIS_Core
  32:../Firmware/RISCV/drivers/core_compatiable.h ****  * \brief    A few functions that compatiable with ARM CMSIS-Core.
  33:../Firmware/RISCV/drivers/core_compatiable.h ****  * \details
  34:../Firmware/RISCV/drivers/core_compatiable.h ****  *
  35:../Firmware/RISCV/drivers/core_compatiable.h ****  * Here we provided a few functions that compatiable with ARM CMSIS-Core,
  36:../Firmware/RISCV/drivers/core_compatiable.h ****  * mostly used in the DSP and NN library.
  37:../Firmware/RISCV/drivers/core_compatiable.h ****  * @{
  38:../Firmware/RISCV/drivers/core_compatiable.h ****  */
  39:../Firmware/RISCV/drivers/core_compatiable.h **** /** \brief Instruction Synchronization Barrier, compatiable with ARM */
  40:../Firmware/RISCV/drivers/core_compatiable.h **** #define __ISB()                             __RWMB()
  41:../Firmware/RISCV/drivers/core_compatiable.h **** 
  42:../Firmware/RISCV/drivers/core_compatiable.h **** /** \brief Data Synchronization Barrier, compatiable with ARM */
  43:../Firmware/RISCV/drivers/core_compatiable.h **** #define __DSB()                             __RWMB()
  44:../Firmware/RISCV/drivers/core_compatiable.h **** 
  45:../Firmware/RISCV/drivers/core_compatiable.h **** /** \brief Data Memory Barrier, compatiable with ARM */
  46:../Firmware/RISCV/drivers/core_compatiable.h **** #define __DMB()                             __RWMB()
  47:../Firmware/RISCV/drivers/core_compatiable.h **** 
  48:../Firmware/RISCV/drivers/core_compatiable.h **** /** \brief LDRT Unprivileged (8 bit), ARM Compatiable */
  49:../Firmware/RISCV/drivers/core_compatiable.h **** #define __LDRBT(ptr)                        __LB((ptr))
  50:../Firmware/RISCV/drivers/core_compatiable.h **** /** \brief LDRT Unprivileged (16 bit), ARM Compatiable */
  51:../Firmware/RISCV/drivers/core_compatiable.h **** #define __LDRHT(ptr)                        __LH((ptr))
  52:../Firmware/RISCV/drivers/core_compatiable.h **** /** \brief LDRT Unprivileged (32 bit), ARM Compatiable */
  53:../Firmware/RISCV/drivers/core_compatiable.h **** #define __LDRT(ptr)                         __LW((ptr))
  54:../Firmware/RISCV/drivers/core_compatiable.h **** 
  55:../Firmware/RISCV/drivers/core_compatiable.h **** /** \brief STRT Unprivileged (8 bit), ARM Compatiable */
  56:../Firmware/RISCV/drivers/core_compatiable.h **** #define __STRBT(val, ptr)                   __SB((ptr), (val))
  57:../Firmware/RISCV/drivers/core_compatiable.h **** /** \brief STRT Unprivileged (16 bit), ARM Compatiable */
  58:../Firmware/RISCV/drivers/core_compatiable.h **** #define __STRHT(val, ptr)                   __SH((ptr), (val))
  59:../Firmware/RISCV/drivers/core_compatiable.h **** /** \brief STRT Unprivileged (32 bit), ARM Compatiable */
  60:../Firmware/RISCV/drivers/core_compatiable.h **** #define __STRT(val, ptr)                    __SW((ptr), (val))
  61:../Firmware/RISCV/drivers/core_compatiable.h **** 
  62:../Firmware/RISCV/drivers/core_compatiable.h **** /* ===== Saturation Operations ===== */
  63:../Firmware/RISCV/drivers/core_compatiable.h **** /**
  64:../Firmware/RISCV/drivers/core_compatiable.h ****  * \brief   Signed Saturate
  65:../Firmware/RISCV/drivers/core_compatiable.h ****  * \details Saturates a signed value.
  66:../Firmware/RISCV/drivers/core_compatiable.h ****  * \param [in]  value  Value to be saturated
  67:../Firmware/RISCV/drivers/core_compatiable.h ****  * \param [in]    sat  Bit position to saturate to (1..32)
  68:../Firmware/RISCV/drivers/core_compatiable.h ****  * \return             Saturated value
  69:../Firmware/RISCV/drivers/core_compatiable.h ****  */
  70:../Firmware/RISCV/drivers/core_compatiable.h **** #if defined(__DSP_PRESENT) && (__DSP_PRESENT == 1)
  71:../Firmware/RISCV/drivers/core_compatiable.h **** #define __SSAT(val, sat)          __RV_SCLIP32((val), (sat-1))
  72:../Firmware/RISCV/drivers/core_compatiable.h **** #else
  73:../Firmware/RISCV/drivers/core_compatiable.h **** __STATIC_FORCEINLINE int32_t __SSAT(int32_t val, uint32_t sat)
  74:../Firmware/RISCV/drivers/core_compatiable.h **** {
  75:../Firmware/RISCV/drivers/core_compatiable.h ****     if ((sat >= 1U) && (sat <= 32U)) {
  76:../Firmware/RISCV/drivers/core_compatiable.h ****         const int32_t max = (int32_t)((1U << (sat - 1U)) - 1U);
  77:../Firmware/RISCV/drivers/core_compatiable.h ****         const int32_t min = -1 - max ;
  78:../Firmware/RISCV/drivers/core_compatiable.h ****         if (val > max) {
  79:../Firmware/RISCV/drivers/core_compatiable.h ****             return max;
  80:../Firmware/RISCV/drivers/core_compatiable.h ****         } else if (val < min) {
  81:../Firmware/RISCV/drivers/core_compatiable.h ****             return min;
  82:../Firmware/RISCV/drivers/core_compatiable.h ****         }
  83:../Firmware/RISCV/drivers/core_compatiable.h ****     }
  84:../Firmware/RISCV/drivers/core_compatiable.h ****     return val;
  85:../Firmware/RISCV/drivers/core_compatiable.h **** }
  86:../Firmware/RISCV/drivers/core_compatiable.h **** #endif
  87:../Firmware/RISCV/drivers/core_compatiable.h **** 
  88:../Firmware/RISCV/drivers/core_compatiable.h **** /**
  89:../Firmware/RISCV/drivers/core_compatiable.h ****  * \brief   Unsigned Saturate
  90:../Firmware/RISCV/drivers/core_compatiable.h ****  * \details Saturates an unsigned value.
  91:../Firmware/RISCV/drivers/core_compatiable.h ****  * \param [in]  value  Value to be saturated
  92:../Firmware/RISCV/drivers/core_compatiable.h ****  * \param [in]    sat  Bit position to saturate to (0..31)
  93:../Firmware/RISCV/drivers/core_compatiable.h ****  * \return             Saturated value
  94:../Firmware/RISCV/drivers/core_compatiable.h ****  */
  95:../Firmware/RISCV/drivers/core_compatiable.h **** #if defined(__DSP_PRESENT) && (__DSP_PRESENT == 1)
  96:../Firmware/RISCV/drivers/core_compatiable.h **** #define __USAT(val, sat)        __RV_UCLIP32((val), (sat))
  97:../Firmware/RISCV/drivers/core_compatiable.h **** #else
  98:../Firmware/RISCV/drivers/core_compatiable.h **** __STATIC_FORCEINLINE uint32_t __USAT(int32_t val, uint32_t sat)
  99:../Firmware/RISCV/drivers/core_compatiable.h **** {
 100:../Firmware/RISCV/drivers/core_compatiable.h ****     if (sat <= 31U) {
 101:../Firmware/RISCV/drivers/core_compatiable.h ****         const uint32_t max = ((1U << sat) - 1U);
 102:../Firmware/RISCV/drivers/core_compatiable.h ****         if (val > (int32_t)max) {
 103:../Firmware/RISCV/drivers/core_compatiable.h ****             return max;
 104:../Firmware/RISCV/drivers/core_compatiable.h ****         } else if (val < 0) {
 105:../Firmware/RISCV/drivers/core_compatiable.h ****             return 0U;
 106:../Firmware/RISCV/drivers/core_compatiable.h ****         }
 107:../Firmware/RISCV/drivers/core_compatiable.h ****     }
 108:../Firmware/RISCV/drivers/core_compatiable.h ****     return (uint32_t)val;
 109:../Firmware/RISCV/drivers/core_compatiable.h **** }
 110:../Firmware/RISCV/drivers/core_compatiable.h **** #endif
 111:../Firmware/RISCV/drivers/core_compatiable.h **** 
 112:../Firmware/RISCV/drivers/core_compatiable.h **** /* ===== Data Processing Operations ===== */
 113:../Firmware/RISCV/drivers/core_compatiable.h **** /**
 114:../Firmware/RISCV/drivers/core_compatiable.h ****  * \brief   Reverse byte order (32 bit)
 115:../Firmware/RISCV/drivers/core_compatiable.h ****  * \details Reverses the byte order in unsigned integer value.
 116:../Firmware/RISCV/drivers/core_compatiable.h ****  * For example, 0x12345678 becomes 0x78563412.
 117:../Firmware/RISCV/drivers/core_compatiable.h ****  * \param [in]    value  Value to reverse
 118:../Firmware/RISCV/drivers/core_compatiable.h ****  * \return               Reversed value
 119:../Firmware/RISCV/drivers/core_compatiable.h ****  */
 120:../Firmware/RISCV/drivers/core_compatiable.h **** __STATIC_FORCEINLINE uint32_t __REV(uint32_t value)
 121:../Firmware/RISCV/drivers/core_compatiable.h **** {
 122:../Firmware/RISCV/drivers/core_compatiable.h ****     uint32_t result;
 123:../Firmware/RISCV/drivers/core_compatiable.h **** 
 124:../Firmware/RISCV/drivers/core_compatiable.h ****     result =  ((value & 0xff000000) >> 24)
  62              		.loc 2 124 37
  63 005e 832744FB 		lw	a5,-76(s0)
  64 0062 13D78701 		srli	a4,a5,24
 125:../Firmware/RISCV/drivers/core_compatiable.h ****         | ((value & 0x00ff0000) >> 8 )
  65              		.loc 2 125 33
  66 0066 832744FB 		lw	a5,-76(s0)
  67 006a 93D68700 		srli	a3,a5,8
  68 006e C167     		li	a5,65536
  69 0070 938707F0 		addi	a5,a5,-256
  70 0074 F58F     		and	a5,a3,a5
  71              		.loc 2 125 9
  72 0076 5D8F     		or	a4,a4,a5
 126:../Firmware/RISCV/drivers/core_compatiable.h ****         | ((value & 0x0000ff00) << 8 )
  73              		.loc 2 126 33
  74 0078 832744FB 		lw	a5,-76(s0)
  75 007c 93968700 		slli	a3,a5,8
  76 0080 B707FF00 		li	a5,16711680
  77 0084 F58F     		and	a5,a3,a5
  78              		.loc 2 126 9
  79 0086 5D8F     		or	a4,a4,a5
 127:../Firmware/RISCV/drivers/core_compatiable.h ****         | ((value & 0x000000ff) << 24);
  80              		.loc 2 127 33
  81 0088 832744FB 		lw	a5,-76(s0)
  82 008c E207     		slli	a5,a5,24
 124:../Firmware/RISCV/drivers/core_compatiable.h ****         | ((value & 0x00ff0000) >> 8 )
  83              		.loc 2 124 12
  84 008e D98F     		or	a5,a4,a5
  85 0090 2328F4FA 		sw	a5,-80(s0)
 128:../Firmware/RISCV/drivers/core_compatiable.h ****     return result;
  86              		.loc 2 128 12
  87 0094 832704FB 		lw	a5,-80(s0)
  88              	.LBE31:
  89              	.LBE30:
  90              		.loc 1 67 29
  91 0098 232CF4F8 		sw	a5,-104(s0)
  68:../Firmware/GD32VW55x_standard_peripheral/Source/gd32vw55x_cau_tdes.c ****     keyaddr += 4U;
  92              		.loc 1 68 13
  93 009c 832784FE 		lw	a5,-24(s0)
  94 00a0 9107     		addi	a5,a5,4
  95 00a2 2324F4FE 		sw	a5,-24(s0)
  69:../Firmware/GD32VW55x_standard_peripheral/Source/gd32vw55x_cau_tdes.c ****     key_initpara.key_1_low  = __REV(*(uint32_t *)(keyaddr));
  96              		.loc 1 69 38
  97 00a6 832784FE 		lw	a5,-24(s0)
  98              		.loc 1 69 31
  99 00aa 9C43     		lw	a5,0(a5)
 100 00ac 232EF4FA 		sw	a5,-68(s0)
 101              	.LBB32:
 102              	.LBB33:
 124:../Firmware/RISCV/drivers/core_compatiable.h ****         | ((value & 0x00ff0000) >> 8 )
 103              		.loc 2 124 37
 104 00b0 8327C4FB 		lw	a5,-68(s0)
 105 00b4 13D78701 		srli	a4,a5,24
 125:../Firmware/RISCV/drivers/core_compatiable.h ****         | ((value & 0x0000ff00) << 8 )
 106              		.loc 2 125 33
 107 00b8 8327C4FB 		lw	a5,-68(s0)
 108 00bc 93D68700 		srli	a3,a5,8
 109 00c0 C167     		li	a5,65536
 110 00c2 938707F0 		addi	a5,a5,-256
 111 00c6 F58F     		and	a5,a3,a5
 125:../Firmware/RISCV/drivers/core_compatiable.h ****         | ((value & 0x0000ff00) << 8 )
 112              		.loc 2 125 9
 113 00c8 5D8F     		or	a4,a4,a5
 126:../Firmware/RISCV/drivers/core_compatiable.h ****         | ((value & 0x000000ff) << 24);
 114              		.loc 2 126 33
 115 00ca 8327C4FB 		lw	a5,-68(s0)
 116 00ce 93968700 		slli	a3,a5,8
 117 00d2 B707FF00 		li	a5,16711680
 118 00d6 F58F     		and	a5,a3,a5
 126:../Firmware/RISCV/drivers/core_compatiable.h ****         | ((value & 0x000000ff) << 24);
 119              		.loc 2 126 9
 120 00d8 5D8F     		or	a4,a4,a5
 127:../Firmware/RISCV/drivers/core_compatiable.h ****     return result;
 121              		.loc 2 127 33
 122 00da 8327C4FB 		lw	a5,-68(s0)
 123 00de E207     		slli	a5,a5,24
 124:../Firmware/RISCV/drivers/core_compatiable.h ****         | ((value & 0x00ff0000) >> 8 )
 124              		.loc 2 124 12
 125 00e0 D98F     		or	a5,a4,a5
 126 00e2 232CF4FA 		sw	a5,-72(s0)
 127              		.loc 2 128 12
 128 00e6 832784FB 		lw	a5,-72(s0)
 129              	.LBE33:
 130              	.LBE32:
 131              		.loc 1 69 29
 132 00ea 232EF4F8 		sw	a5,-100(s0)
  70:../Firmware/GD32VW55x_standard_peripheral/Source/gd32vw55x_cau_tdes.c ****     keyaddr += 4U;
 133              		.loc 1 70 13
 134 00ee 832784FE 		lw	a5,-24(s0)
 135 00f2 9107     		addi	a5,a5,4
 136 00f4 2324F4FE 		sw	a5,-24(s0)
  71:../Firmware/GD32VW55x_standard_peripheral/Source/gd32vw55x_cau_tdes.c ****     key_initpara.key_2_high = __REV(*(uint32_t *)(keyaddr));
 137              		.loc 1 71 38
 138 00f8 832784FE 		lw	a5,-24(s0)
 139              		.loc 1 71 31
 140 00fc 9C43     		lw	a5,0(a5)
 141 00fe 2322F4FC 		sw	a5,-60(s0)
 142              	.LBB34:
 143              	.LBB35:
 124:../Firmware/RISCV/drivers/core_compatiable.h ****         | ((value & 0x00ff0000) >> 8 )
 144              		.loc 2 124 37
 145 0102 832744FC 		lw	a5,-60(s0)
 146 0106 13D78701 		srli	a4,a5,24
 125:../Firmware/RISCV/drivers/core_compatiable.h ****         | ((value & 0x0000ff00) << 8 )
 147              		.loc 2 125 33
 148 010a 832744FC 		lw	a5,-60(s0)
 149 010e 93D68700 		srli	a3,a5,8
 150 0112 C167     		li	a5,65536
 151 0114 938707F0 		addi	a5,a5,-256
 152 0118 F58F     		and	a5,a3,a5
 125:../Firmware/RISCV/drivers/core_compatiable.h ****         | ((value & 0x0000ff00) << 8 )
 153              		.loc 2 125 9
 154 011a 5D8F     		or	a4,a4,a5
 126:../Firmware/RISCV/drivers/core_compatiable.h ****         | ((value & 0x000000ff) << 24);
 155              		.loc 2 126 33
 156 011c 832744FC 		lw	a5,-60(s0)
 157 0120 93968700 		slli	a3,a5,8
 158 0124 B707FF00 		li	a5,16711680
 159 0128 F58F     		and	a5,a3,a5
 126:../Firmware/RISCV/drivers/core_compatiable.h ****         | ((value & 0x000000ff) << 24);
 160              		.loc 2 126 9
 161 012a 5D8F     		or	a4,a4,a5
 127:../Firmware/RISCV/drivers/core_compatiable.h ****     return result;
 162              		.loc 2 127 33
 163 012c 832744FC 		lw	a5,-60(s0)
 164 0130 E207     		slli	a5,a5,24
 124:../Firmware/RISCV/drivers/core_compatiable.h ****         | ((value & 0x00ff0000) >> 8 )
 165              		.loc 2 124 12
 166 0132 D98F     		or	a5,a4,a5
 167 0134 2320F4FC 		sw	a5,-64(s0)
 168              		.loc 2 128 12
 169 0138 832704FC 		lw	a5,-64(s0)
 170              	.LBE35:
 171              	.LBE34:
 172              		.loc 1 71 29
 173 013c 2320F4FA 		sw	a5,-96(s0)
  72:../Firmware/GD32VW55x_standard_peripheral/Source/gd32vw55x_cau_tdes.c ****     keyaddr += 4U;
 174              		.loc 1 72 13
 175 0140 832784FE 		lw	a5,-24(s0)
 176 0144 9107     		addi	a5,a5,4
 177 0146 2324F4FE 		sw	a5,-24(s0)
  73:../Firmware/GD32VW55x_standard_peripheral/Source/gd32vw55x_cau_tdes.c ****     key_initpara.key_2_low  = __REV(*(uint32_t *)(keyaddr));
 178              		.loc 1 73 38
 179 014a 832784FE 		lw	a5,-24(s0)
 180              		.loc 1 73 31
 181 014e 9C43     		lw	a5,0(a5)
 182 0150 2326F4FC 		sw	a5,-52(s0)
 183              	.LBB36:
 184              	.LBB37:
 124:../Firmware/RISCV/drivers/core_compatiable.h ****         | ((value & 0x00ff0000) >> 8 )
 185              		.loc 2 124 37
 186 0154 8327C4FC 		lw	a5,-52(s0)
 187 0158 13D78701 		srli	a4,a5,24
 125:../Firmware/RISCV/drivers/core_compatiable.h ****         | ((value & 0x0000ff00) << 8 )
 188              		.loc 2 125 33
 189 015c 8327C4FC 		lw	a5,-52(s0)
 190 0160 93D68700 		srli	a3,a5,8
 191 0164 C167     		li	a5,65536
 192 0166 938707F0 		addi	a5,a5,-256
 193 016a F58F     		and	a5,a3,a5
 125:../Firmware/RISCV/drivers/core_compatiable.h ****         | ((value & 0x0000ff00) << 8 )
 194              		.loc 2 125 9
 195 016c 5D8F     		or	a4,a4,a5
 126:../Firmware/RISCV/drivers/core_compatiable.h ****         | ((value & 0x000000ff) << 24);
 196              		.loc 2 126 33
 197 016e 8327C4FC 		lw	a5,-52(s0)
 198 0172 93968700 		slli	a3,a5,8
 199 0176 B707FF00 		li	a5,16711680
 200 017a F58F     		and	a5,a3,a5
 126:../Firmware/RISCV/drivers/core_compatiable.h ****         | ((value & 0x000000ff) << 24);
 201              		.loc 2 126 9
 202 017c 5D8F     		or	a4,a4,a5
 127:../Firmware/RISCV/drivers/core_compatiable.h ****     return result;
 203              		.loc 2 127 33
 204 017e 8327C4FC 		lw	a5,-52(s0)
 205 0182 E207     		slli	a5,a5,24
 124:../Firmware/RISCV/drivers/core_compatiable.h ****         | ((value & 0x00ff0000) >> 8 )
 206              		.loc 2 124 12
 207 0184 D98F     		or	a5,a4,a5
 208 0186 2324F4FC 		sw	a5,-56(s0)
 209              		.loc 2 128 12
 210 018a 832784FC 		lw	a5,-56(s0)
 211              	.LBE37:
 212              	.LBE36:
 213              		.loc 1 73 29
 214 018e 2322F4FA 		sw	a5,-92(s0)
  74:../Firmware/GD32VW55x_standard_peripheral/Source/gd32vw55x_cau_tdes.c ****     keyaddr += 4U;
 215              		.loc 1 74 13
 216 0192 832784FE 		lw	a5,-24(s0)
 217 0196 9107     		addi	a5,a5,4
 218 0198 2324F4FE 		sw	a5,-24(s0)
  75:../Firmware/GD32VW55x_standard_peripheral/Source/gd32vw55x_cau_tdes.c ****     key_initpara.key_3_high = __REV(*(uint32_t *)(keyaddr));
 219              		.loc 1 75 38
 220 019c 832784FE 		lw	a5,-24(s0)
 221              		.loc 1 75 31
 222 01a0 9C43     		lw	a5,0(a5)
 223 01a2 232AF4FC 		sw	a5,-44(s0)
 224              	.LBB38:
 225              	.LBB39:
 124:../Firmware/RISCV/drivers/core_compatiable.h ****         | ((value & 0x00ff0000) >> 8 )
 226              		.loc 2 124 37
 227 01a6 832744FD 		lw	a5,-44(s0)
 228 01aa 13D78701 		srli	a4,a5,24
 125:../Firmware/RISCV/drivers/core_compatiable.h ****         | ((value & 0x0000ff00) << 8 )
 229              		.loc 2 125 33
 230 01ae 832744FD 		lw	a5,-44(s0)
 231 01b2 93D68700 		srli	a3,a5,8
 232 01b6 C167     		li	a5,65536
 233 01b8 938707F0 		addi	a5,a5,-256
 234 01bc F58F     		and	a5,a3,a5
 125:../Firmware/RISCV/drivers/core_compatiable.h ****         | ((value & 0x0000ff00) << 8 )
 235              		.loc 2 125 9
 236 01be 5D8F     		or	a4,a4,a5
 126:../Firmware/RISCV/drivers/core_compatiable.h ****         | ((value & 0x000000ff) << 24);
 237              		.loc 2 126 33
 238 01c0 832744FD 		lw	a5,-44(s0)
 239 01c4 93968700 		slli	a3,a5,8
 240 01c8 B707FF00 		li	a5,16711680
 241 01cc F58F     		and	a5,a3,a5
 126:../Firmware/RISCV/drivers/core_compatiable.h ****         | ((value & 0x000000ff) << 24);
 242              		.loc 2 126 9
 243 01ce 5D8F     		or	a4,a4,a5
 127:../Firmware/RISCV/drivers/core_compatiable.h ****     return result;
 244              		.loc 2 127 33
 245 01d0 832744FD 		lw	a5,-44(s0)
 246 01d4 E207     		slli	a5,a5,24
 124:../Firmware/RISCV/drivers/core_compatiable.h ****         | ((value & 0x00ff0000) >> 8 )
 247              		.loc 2 124 12
 248 01d6 D98F     		or	a5,a4,a5
 249 01d8 2328F4FC 		sw	a5,-48(s0)
 250              		.loc 2 128 12
 251 01dc 832704FD 		lw	a5,-48(s0)
 252              	.LBE39:
 253              	.LBE38:
 254              		.loc 1 75 29
 255 01e0 2324F4FA 		sw	a5,-88(s0)
  76:../Firmware/GD32VW55x_standard_peripheral/Source/gd32vw55x_cau_tdes.c ****     keyaddr += 4U;
 256              		.loc 1 76 13
 257 01e4 832784FE 		lw	a5,-24(s0)
 258 01e8 9107     		addi	a5,a5,4
 259 01ea 2324F4FE 		sw	a5,-24(s0)
  77:../Firmware/GD32VW55x_standard_peripheral/Source/gd32vw55x_cau_tdes.c ****     key_initpara.key_3_low  = __REV(*(uint32_t *)(keyaddr));
 260              		.loc 1 77 38
 261 01ee 832784FE 		lw	a5,-24(s0)
 262              		.loc 1 77 31
 263 01f2 9C43     		lw	a5,0(a5)
 264 01f4 232EF4FC 		sw	a5,-36(s0)
 265              	.LBB40:
 266              	.LBB41:
 124:../Firmware/RISCV/drivers/core_compatiable.h ****         | ((value & 0x00ff0000) >> 8 )
 267              		.loc 2 124 37
 268 01f8 8327C4FD 		lw	a5,-36(s0)
 269 01fc 13D78701 		srli	a4,a5,24
 125:../Firmware/RISCV/drivers/core_compatiable.h ****         | ((value & 0x0000ff00) << 8 )
 270              		.loc 2 125 33
 271 0200 8327C4FD 		lw	a5,-36(s0)
 272 0204 93D68700 		srli	a3,a5,8
 273 0208 C167     		li	a5,65536
 274 020a 938707F0 		addi	a5,a5,-256
 275 020e F58F     		and	a5,a3,a5
 125:../Firmware/RISCV/drivers/core_compatiable.h ****         | ((value & 0x0000ff00) << 8 )
 276              		.loc 2 125 9
 277 0210 5D8F     		or	a4,a4,a5
 126:../Firmware/RISCV/drivers/core_compatiable.h ****         | ((value & 0x000000ff) << 24);
 278              		.loc 2 126 33
 279 0212 8327C4FD 		lw	a5,-36(s0)
 280 0216 93968700 		slli	a3,a5,8
 281 021a B707FF00 		li	a5,16711680
 282 021e F58F     		and	a5,a3,a5
 126:../Firmware/RISCV/drivers/core_compatiable.h ****         | ((value & 0x000000ff) << 24);
 283              		.loc 2 126 9
 284 0220 5D8F     		or	a4,a4,a5
 127:../Firmware/RISCV/drivers/core_compatiable.h ****     return result;
 285              		.loc 2 127 33
 286 0222 8327C4FD 		lw	a5,-36(s0)
 287 0226 E207     		slli	a5,a5,24
 124:../Firmware/RISCV/drivers/core_compatiable.h ****         | ((value & 0x00ff0000) >> 8 )
 288              		.loc 2 124 12
 289 0228 D98F     		or	a5,a4,a5
 290 022a 232CF4FC 		sw	a5,-40(s0)
 291              		.loc 2 128 12
 292 022e 832784FD 		lw	a5,-40(s0)
 293              	.LBE41:
 294              	.LBE40:
 295              		.loc 1 77 29
 296 0232 2326F4FA 		sw	a5,-84(s0)
  78:../Firmware/GD32VW55x_standard_peripheral/Source/gd32vw55x_cau_tdes.c ****     cau_key_init(&key_initpara);
 297              		.loc 1 78 5
 298 0236 930704F9 		addi	a5,s0,-112
 299 023a 3E85     		mv	a0,a5
 300 023c 97000000 		call	cau_key_init
 300      E7800000 
  79:../Firmware/GD32VW55x_standard_peripheral/Source/gd32vw55x_cau_tdes.c **** 
  80:../Firmware/GD32VW55x_standard_peripheral/Source/gd32vw55x_cau_tdes.c ****     /* flush the IN and OUT FIFOs */
  81:../Firmware/GD32VW55x_standard_peripheral/Source/gd32vw55x_cau_tdes.c ****     cau_fifo_flush();
 301              		.loc 1 81 5
 302 0244 97000000 		call	cau_fifo_flush
 302      E7800000 
  82:../Firmware/GD32VW55x_standard_peripheral/Source/gd32vw55x_cau_tdes.c **** 
  83:../Firmware/GD32VW55x_standard_peripheral/Source/gd32vw55x_cau_tdes.c ****     /* enable the CAU peripheral */
  84:../Firmware/GD32VW55x_standard_peripheral/Source/gd32vw55x_cau_tdes.c ****     cau_enable();
 303              		.loc 1 84 5
 304 024c 97000000 		call	cau_enable
 304      E7800000 
  85:../Firmware/GD32VW55x_standard_peripheral/Source/gd32vw55x_cau_tdes.c ****     /* TDES calculate process */
  86:../Firmware/GD32VW55x_standard_peripheral/Source/gd32vw55x_cau_tdes.c ****     ret = cau_tdes_calculate((uint8_t *)inputaddr, cau_parameter->in_length, (uint8_t *)outputaddr)
 305              		.loc 1 86 11
 306 0254 032744FE 		lw	a4,-28(s0)
 307 0258 8327C4F8 		lw	a5,-116(s0)
 308 025c 9C4F     		lw	a5,24(a5)
 309 025e 832604FE 		lw	a3,-32(s0)
 310 0262 3686     		mv	a2,a3
 311 0264 BE85     		mv	a1,a5
 312 0266 3A85     		mv	a0,a4
 313 0268 97000000 		call	cau_tdes_calculate
 313      E7800000 
 314 0270 2326A4FE 		sw	a0,-20(s0)
  87:../Firmware/GD32VW55x_standard_peripheral/Source/gd32vw55x_cau_tdes.c ****     /* disable the CAU peripheral */
  88:../Firmware/GD32VW55x_standard_peripheral/Source/gd32vw55x_cau_tdes.c ****     cau_disable();
 315              		.loc 1 88 5
 316 0274 97000000 		call	cau_disable
 316      E7800000 
  89:../Firmware/GD32VW55x_standard_peripheral/Source/gd32vw55x_cau_tdes.c **** 
  90:../Firmware/GD32VW55x_standard_peripheral/Source/gd32vw55x_cau_tdes.c ****     return ret;
 317              		.loc 1 90 12
 318 027c 8327C4FE 		lw	a5,-20(s0)
  91:../Firmware/GD32VW55x_standard_peripheral/Source/gd32vw55x_cau_tdes.c **** }
 319              		.loc 1 91 1
 320 0280 3E85     		mv	a0,a5
 321 0282 F650     		lw	ra,124(sp)
 322              		.cfi_restore 1
 323 0284 6654     		lw	s0,120(sp)
 324              		.cfi_restore 8
 325              		.cfi_def_cfa 2, 128
 326 0286 0961     		addi	sp,sp,128
 327              		.cfi_def_cfa_offset 0
 328 0288 8280     		jr	ra
 329              		.cfi_endproc
 330              	.LFE347:
 332              		.section	.text.cau_tdes_cbc,"ax",@progbits
 333              		.align	1
 334              		.globl	cau_tdes_cbc
 336              	cau_tdes_cbc:
 337              	.LFB348:
  92:../Firmware/GD32VW55x_standard_peripheral/Source/gd32vw55x_cau_tdes.c **** 
  93:../Firmware/GD32VW55x_standard_peripheral/Source/gd32vw55x_cau_tdes.c **** /*!
  94:../Firmware/GD32VW55x_standard_peripheral/Source/gd32vw55x_cau_tdes.c ****     \brief      encrypt and decrypt using TDES in CBC mode
  95:../Firmware/GD32VW55x_standard_peripheral/Source/gd32vw55x_cau_tdes.c ****     \param[in]  cau_parameter: pointer to the input structure
  96:../Firmware/GD32VW55x_standard_peripheral/Source/gd32vw55x_cau_tdes.c ****                   alg_dir: algorithm direction
  97:../Firmware/GD32VW55x_standard_peripheral/Source/gd32vw55x_cau_tdes.c ****                     CAU_ENCRYPT, CAU_DECRYPT
  98:../Firmware/GD32VW55x_standard_peripheral/Source/gd32vw55x_cau_tdes.c ****                   key: key, 24 bytes
  99:../Firmware/GD32VW55x_standard_peripheral/Source/gd32vw55x_cau_tdes.c ****                   iv: initialization vector, 8 bytes
 100:../Firmware/GD32VW55x_standard_peripheral/Source/gd32vw55x_cau_tdes.c ****                   input: input data
 101:../Firmware/GD32VW55x_standard_peripheral/Source/gd32vw55x_cau_tdes.c ****                   in_length: input data length in bytes, must be a multiple of 8 bytes
 102:../Firmware/GD32VW55x_standard_peripheral/Source/gd32vw55x_cau_tdes.c ****     \param[out] output: pointer to the output structure
 103:../Firmware/GD32VW55x_standard_peripheral/Source/gd32vw55x_cau_tdes.c ****     \retval     ErrStatus: SUCCESS or ERROR
 104:../Firmware/GD32VW55x_standard_peripheral/Source/gd32vw55x_cau_tdes.c **** */
 105:../Firmware/GD32VW55x_standard_peripheral/Source/gd32vw55x_cau_tdes.c **** ErrStatus cau_tdes_cbc(cau_parameter_struct *cau_parameter, uint8_t *output)
 106:../Firmware/GD32VW55x_standard_peripheral/Source/gd32vw55x_cau_tdes.c **** {
 338              		.loc 1 106 1
 339              		.cfi_startproc
 340 0000 7171     		addi	sp,sp,-176
 341              		.cfi_def_cfa_offset 176
 342 0002 06D7     		sw	ra,172(sp)
 343 0004 22D5     		sw	s0,168(sp)
 344              		.cfi_offset 1, -4
 345              		.cfi_offset 8, -8
 346 0006 0019     		addi	s0,sp,176
 347              		.cfi_def_cfa 8, 0
 348 0008 232EA4F4 		sw	a0,-164(s0)
 349 000c 232CB4F4 		sw	a1,-168(s0)
 107:../Firmware/GD32VW55x_standard_peripheral/Source/gd32vw55x_cau_tdes.c ****     ErrStatus ret = ERROR;
 350              		.loc 1 107 15
 351 0010 232604FE 		sw	zero,-20(s0)
 108:../Firmware/GD32VW55x_standard_peripheral/Source/gd32vw55x_cau_tdes.c ****     cau_key_parameter_struct key_initpara;
 109:../Firmware/GD32VW55x_standard_peripheral/Source/gd32vw55x_cau_tdes.c ****     cau_iv_parameter_struct iv_initpara;
 110:../Firmware/GD32VW55x_standard_peripheral/Source/gd32vw55x_cau_tdes.c ****     uint32_t keyaddr    = (uint32_t)(cau_parameter->key);
 352              		.loc 1 110 51
 353 0014 8327C4F5 		lw	a5,-164(s0)
 354 0018 DC43     		lw	a5,4(a5)
 355              		.loc 1 110 14
 356 001a 2324F4FE 		sw	a5,-24(s0)
 111:../Firmware/GD32VW55x_standard_peripheral/Source/gd32vw55x_cau_tdes.c ****     uint32_t inputaddr  = (uint32_t)(cau_parameter->input);
 357              		.loc 1 111 51
 358 001e 8327C4F5 		lw	a5,-164(s0)
 359 0022 DC4B     		lw	a5,20(a5)
 360              		.loc 1 111 14
 361 0024 2322F4FE 		sw	a5,-28(s0)
 112:../Firmware/GD32VW55x_standard_peripheral/Source/gd32vw55x_cau_tdes.c ****     uint32_t outputaddr = (uint32_t)output;
 362              		.loc 1 112 14
 363 0028 832784F5 		lw	a5,-168(s0)
 364 002c 2320F4FE 		sw	a5,-32(s0)
 113:../Firmware/GD32VW55x_standard_peripheral/Source/gd32vw55x_cau_tdes.c ****     uint32_t ivaddr     = (uint32_t)(cau_parameter->iv);
 365              		.loc 1 113 51
 366 0030 8327C4F5 		lw	a5,-164(s0)
 367 0034 DC47     		lw	a5,12(a5)
 368              		.loc 1 113 14
 369 0036 232EF4FC 		sw	a5,-36(s0)
 114:../Firmware/GD32VW55x_standard_peripheral/Source/gd32vw55x_cau_tdes.c **** 
 115:../Firmware/GD32VW55x_standard_peripheral/Source/gd32vw55x_cau_tdes.c ****     /* key structure initialization */
 116:../Firmware/GD32VW55x_standard_peripheral/Source/gd32vw55x_cau_tdes.c ****     cau_key_struct_para_init(&key_initpara);
 370              		.loc 1 116 5
 371 003a 9307C4F7 		addi	a5,s0,-132
 372 003e 3E85     		mv	a0,a5
 373 0040 97000000 		call	cau_key_struct_para_init
 373      E7800000 
 117:../Firmware/GD32VW55x_standard_peripheral/Source/gd32vw55x_cau_tdes.c ****     /* initialize the CAU peripheral */
 118:../Firmware/GD32VW55x_standard_peripheral/Source/gd32vw55x_cau_tdes.c ****     cau_init(cau_parameter->alg_dir, CAU_MODE_TDES_CBC, CAU_SWAPPING_8BIT);
 374              		.loc 1 118 5
 375 0048 8327C4F5 		lw	a5,-164(s0)
 376 004c 9C43     		lw	a5,0(a5)
 377 004e 13060008 		li	a2,128
 378 0052 A145     		li	a1,8
 379 0054 3E85     		mv	a0,a5
 380 0056 97000000 		call	cau_init
 380      E7800000 
 119:../Firmware/GD32VW55x_standard_peripheral/Source/gd32vw55x_cau_tdes.c **** 
 120:../Firmware/GD32VW55x_standard_peripheral/Source/gd32vw55x_cau_tdes.c ****     /* key initialization */
 121:../Firmware/GD32VW55x_standard_peripheral/Source/gd32vw55x_cau_tdes.c ****     key_initpara.key_1_high = __REV(*(uint32_t *)(keyaddr));
 381              		.loc 1 121 38
 382 005e 832784FE 		lw	a5,-24(s0)
 383              		.loc 1 121 31
 384 0062 9C43     		lw	a5,0(a5)
 385 0064 2320F4FA 		sw	a5,-96(s0)
 386              	.LBB42:
 387              	.LBB43:
 124:../Firmware/RISCV/drivers/core_compatiable.h ****         | ((value & 0x00ff0000) >> 8 )
 388              		.loc 2 124 37
 389 0068 832704FA 		lw	a5,-96(s0)
 390 006c 13D78701 		srli	a4,a5,24
 125:../Firmware/RISCV/drivers/core_compatiable.h ****         | ((value & 0x0000ff00) << 8 )
 391              		.loc 2 125 33
 392 0070 832704FA 		lw	a5,-96(s0)
 393 0074 93D68700 		srli	a3,a5,8
 394 0078 C167     		li	a5,65536
 395 007a 938707F0 		addi	a5,a5,-256
 396 007e F58F     		and	a5,a3,a5
 125:../Firmware/RISCV/drivers/core_compatiable.h ****         | ((value & 0x0000ff00) << 8 )
 397              		.loc 2 125 9
 398 0080 5D8F     		or	a4,a4,a5
 126:../Firmware/RISCV/drivers/core_compatiable.h ****         | ((value & 0x000000ff) << 24);
 399              		.loc 2 126 33
 400 0082 832704FA 		lw	a5,-96(s0)
 401 0086 93968700 		slli	a3,a5,8
 402 008a B707FF00 		li	a5,16711680
 403 008e F58F     		and	a5,a3,a5
 126:../Firmware/RISCV/drivers/core_compatiable.h ****         | ((value & 0x000000ff) << 24);
 404              		.loc 2 126 9
 405 0090 5D8F     		or	a4,a4,a5
 127:../Firmware/RISCV/drivers/core_compatiable.h ****     return result;
 406              		.loc 2 127 33
 407 0092 832704FA 		lw	a5,-96(s0)
 408 0096 E207     		slli	a5,a5,24
 124:../Firmware/RISCV/drivers/core_compatiable.h ****         | ((value & 0x00ff0000) >> 8 )
 409              		.loc 2 124 12
 410 0098 D98F     		or	a5,a4,a5
 411 009a 232EF4F8 		sw	a5,-100(s0)
 412              		.loc 2 128 12
 413 009e 8327C4F9 		lw	a5,-100(s0)
 414              	.LBE43:
 415              	.LBE42:
 416              		.loc 1 121 29
 417 00a2 2322F4F8 		sw	a5,-124(s0)
 122:../Firmware/GD32VW55x_standard_peripheral/Source/gd32vw55x_cau_tdes.c ****     keyaddr += 4U;
 418              		.loc 1 122 13
 419 00a6 832784FE 		lw	a5,-24(s0)
 420 00aa 9107     		addi	a5,a5,4
 421 00ac 2324F4FE 		sw	a5,-24(s0)
 123:../Firmware/GD32VW55x_standard_peripheral/Source/gd32vw55x_cau_tdes.c ****     key_initpara.key_1_low  = __REV(*(uint32_t *)(keyaddr));
 422              		.loc 1 123 38
 423 00b0 832784FE 		lw	a5,-24(s0)
 424              		.loc 1 123 31
 425 00b4 9C43     		lw	a5,0(a5)
 426 00b6 2324F4FA 		sw	a5,-88(s0)
 427              	.LBB44:
 428              	.LBB45:
 124:../Firmware/RISCV/drivers/core_compatiable.h ****         | ((value & 0x00ff0000) >> 8 )
 429              		.loc 2 124 37
 430 00ba 832784FA 		lw	a5,-88(s0)
 431 00be 13D78701 		srli	a4,a5,24
 125:../Firmware/RISCV/drivers/core_compatiable.h ****         | ((value & 0x0000ff00) << 8 )
 432              		.loc 2 125 33
 433 00c2 832784FA 		lw	a5,-88(s0)
 434 00c6 93D68700 		srli	a3,a5,8
 435 00ca C167     		li	a5,65536
 436 00cc 938707F0 		addi	a5,a5,-256
 437 00d0 F58F     		and	a5,a3,a5
 125:../Firmware/RISCV/drivers/core_compatiable.h ****         | ((value & 0x0000ff00) << 8 )
 438              		.loc 2 125 9
 439 00d2 5D8F     		or	a4,a4,a5
 126:../Firmware/RISCV/drivers/core_compatiable.h ****         | ((value & 0x000000ff) << 24);
 440              		.loc 2 126 33
 441 00d4 832784FA 		lw	a5,-88(s0)
 442 00d8 93968700 		slli	a3,a5,8
 443 00dc B707FF00 		li	a5,16711680
 444 00e0 F58F     		and	a5,a3,a5
 126:../Firmware/RISCV/drivers/core_compatiable.h ****         | ((value & 0x000000ff) << 24);
 445              		.loc 2 126 9
 446 00e2 5D8F     		or	a4,a4,a5
 127:../Firmware/RISCV/drivers/core_compatiable.h ****     return result;
 447              		.loc 2 127 33
 448 00e4 832784FA 		lw	a5,-88(s0)
 449 00e8 E207     		slli	a5,a5,24
 124:../Firmware/RISCV/drivers/core_compatiable.h ****         | ((value & 0x00ff0000) >> 8 )
 450              		.loc 2 124 12
 451 00ea D98F     		or	a5,a4,a5
 452 00ec 2322F4FA 		sw	a5,-92(s0)
 453              		.loc 2 128 12
 454 00f0 832744FA 		lw	a5,-92(s0)
 455              	.LBE45:
 456              	.LBE44:
 457              		.loc 1 123 29
 458 00f4 2324F4F8 		sw	a5,-120(s0)
 124:../Firmware/GD32VW55x_standard_peripheral/Source/gd32vw55x_cau_tdes.c ****     keyaddr += 4U;
 459              		.loc 1 124 13
 460 00f8 832784FE 		lw	a5,-24(s0)
 461 00fc 9107     		addi	a5,a5,4
 462 00fe 2324F4FE 		sw	a5,-24(s0)
 125:../Firmware/GD32VW55x_standard_peripheral/Source/gd32vw55x_cau_tdes.c ****     key_initpara.key_2_high = __REV(*(uint32_t *)(keyaddr));
 463              		.loc 1 125 38
 464 0102 832784FE 		lw	a5,-24(s0)
 465              		.loc 1 125 31
 466 0106 9C43     		lw	a5,0(a5)
 467 0108 2328F4FA 		sw	a5,-80(s0)
 468              	.LBB46:
 469              	.LBB47:
 124:../Firmware/RISCV/drivers/core_compatiable.h ****         | ((value & 0x00ff0000) >> 8 )
 470              		.loc 2 124 37
 471 010c 832704FB 		lw	a5,-80(s0)
 472 0110 13D78701 		srli	a4,a5,24
 125:../Firmware/RISCV/drivers/core_compatiable.h ****         | ((value & 0x0000ff00) << 8 )
 473              		.loc 2 125 33
 474 0114 832704FB 		lw	a5,-80(s0)
 475 0118 93D68700 		srli	a3,a5,8
 476 011c C167     		li	a5,65536
 477 011e 938707F0 		addi	a5,a5,-256
 478 0122 F58F     		and	a5,a3,a5
 125:../Firmware/RISCV/drivers/core_compatiable.h ****         | ((value & 0x0000ff00) << 8 )
 479              		.loc 2 125 9
 480 0124 5D8F     		or	a4,a4,a5
 126:../Firmware/RISCV/drivers/core_compatiable.h ****         | ((value & 0x000000ff) << 24);
 481              		.loc 2 126 33
 482 0126 832704FB 		lw	a5,-80(s0)
 483 012a 93968700 		slli	a3,a5,8
 484 012e B707FF00 		li	a5,16711680
 485 0132 F58F     		and	a5,a3,a5
 126:../Firmware/RISCV/drivers/core_compatiable.h ****         | ((value & 0x000000ff) << 24);
 486              		.loc 2 126 9
 487 0134 5D8F     		or	a4,a4,a5
 127:../Firmware/RISCV/drivers/core_compatiable.h ****     return result;
 488              		.loc 2 127 33
 489 0136 832704FB 		lw	a5,-80(s0)
 490 013a E207     		slli	a5,a5,24
 124:../Firmware/RISCV/drivers/core_compatiable.h ****         | ((value & 0x00ff0000) >> 8 )
 491              		.loc 2 124 12
 492 013c D98F     		or	a5,a4,a5
 493 013e 2326F4FA 		sw	a5,-84(s0)
 494              		.loc 2 128 12
 495 0142 8327C4FA 		lw	a5,-84(s0)
 496              	.LBE47:
 497              	.LBE46:
 498              		.loc 1 125 29
 499 0146 2326F4F8 		sw	a5,-116(s0)
 126:../Firmware/GD32VW55x_standard_peripheral/Source/gd32vw55x_cau_tdes.c ****     keyaddr += 4U;
 500              		.loc 1 126 13
 501 014a 832784FE 		lw	a5,-24(s0)
 502 014e 9107     		addi	a5,a5,4
 503 0150 2324F4FE 		sw	a5,-24(s0)
 127:../Firmware/GD32VW55x_standard_peripheral/Source/gd32vw55x_cau_tdes.c ****     key_initpara.key_2_low  = __REV(*(uint32_t *)(keyaddr));
 504              		.loc 1 127 38
 505 0154 832784FE 		lw	a5,-24(s0)
 506              		.loc 1 127 31
 507 0158 9C43     		lw	a5,0(a5)
 508 015a 232CF4FA 		sw	a5,-72(s0)
 509              	.LBB48:
 510              	.LBB49:
 124:../Firmware/RISCV/drivers/core_compatiable.h ****         | ((value & 0x00ff0000) >> 8 )
 511              		.loc 2 124 37
 512 015e 832784FB 		lw	a5,-72(s0)
 513 0162 13D78701 		srli	a4,a5,24
 125:../Firmware/RISCV/drivers/core_compatiable.h ****         | ((value & 0x0000ff00) << 8 )
 514              		.loc 2 125 33
 515 0166 832784FB 		lw	a5,-72(s0)
 516 016a 93D68700 		srli	a3,a5,8
 517 016e C167     		li	a5,65536
 518 0170 938707F0 		addi	a5,a5,-256
 519 0174 F58F     		and	a5,a3,a5
 125:../Firmware/RISCV/drivers/core_compatiable.h ****         | ((value & 0x0000ff00) << 8 )
 520              		.loc 2 125 9
 521 0176 5D8F     		or	a4,a4,a5
 126:../Firmware/RISCV/drivers/core_compatiable.h ****         | ((value & 0x000000ff) << 24);
 522              		.loc 2 126 33
 523 0178 832784FB 		lw	a5,-72(s0)
 524 017c 93968700 		slli	a3,a5,8
 525 0180 B707FF00 		li	a5,16711680
 526 0184 F58F     		and	a5,a3,a5
 126:../Firmware/RISCV/drivers/core_compatiable.h ****         | ((value & 0x000000ff) << 24);
 527              		.loc 2 126 9
 528 0186 5D8F     		or	a4,a4,a5
 127:../Firmware/RISCV/drivers/core_compatiable.h ****     return result;
 529              		.loc 2 127 33
 530 0188 832784FB 		lw	a5,-72(s0)
 531 018c E207     		slli	a5,a5,24
 124:../Firmware/RISCV/drivers/core_compatiable.h ****         | ((value & 0x00ff0000) >> 8 )
 532              		.loc 2 124 12
 533 018e D98F     		or	a5,a4,a5
 534 0190 232AF4FA 		sw	a5,-76(s0)
 535              		.loc 2 128 12
 536 0194 832744FB 		lw	a5,-76(s0)
 537              	.LBE49:
 538              	.LBE48:
 539              		.loc 1 127 29
 540 0198 2328F4F8 		sw	a5,-112(s0)
 128:../Firmware/GD32VW55x_standard_peripheral/Source/gd32vw55x_cau_tdes.c ****     keyaddr += 4U;
 541              		.loc 1 128 13
 542 019c 832784FE 		lw	a5,-24(s0)
 543 01a0 9107     		addi	a5,a5,4
 544 01a2 2324F4FE 		sw	a5,-24(s0)
 129:../Firmware/GD32VW55x_standard_peripheral/Source/gd32vw55x_cau_tdes.c ****     key_initpara.key_3_high = __REV(*(uint32_t *)(keyaddr));
 545              		.loc 1 129 38
 546 01a6 832784FE 		lw	a5,-24(s0)
 547              		.loc 1 129 31
 548 01aa 9C43     		lw	a5,0(a5)
 549 01ac 2320F4FC 		sw	a5,-64(s0)
 550              	.LBB50:
 551              	.LBB51:
 124:../Firmware/RISCV/drivers/core_compatiable.h ****         | ((value & 0x00ff0000) >> 8 )
 552              		.loc 2 124 37
 553 01b0 832704FC 		lw	a5,-64(s0)
 554 01b4 13D78701 		srli	a4,a5,24
 125:../Firmware/RISCV/drivers/core_compatiable.h ****         | ((value & 0x0000ff00) << 8 )
 555              		.loc 2 125 33
 556 01b8 832704FC 		lw	a5,-64(s0)
 557 01bc 93D68700 		srli	a3,a5,8
 558 01c0 C167     		li	a5,65536
 559 01c2 938707F0 		addi	a5,a5,-256
 560 01c6 F58F     		and	a5,a3,a5
 125:../Firmware/RISCV/drivers/core_compatiable.h ****         | ((value & 0x0000ff00) << 8 )
 561              		.loc 2 125 9
 562 01c8 5D8F     		or	a4,a4,a5
 126:../Firmware/RISCV/drivers/core_compatiable.h ****         | ((value & 0x000000ff) << 24);
 563              		.loc 2 126 33
 564 01ca 832704FC 		lw	a5,-64(s0)
 565 01ce 93968700 		slli	a3,a5,8
 566 01d2 B707FF00 		li	a5,16711680
 567 01d6 F58F     		and	a5,a3,a5
 126:../Firmware/RISCV/drivers/core_compatiable.h ****         | ((value & 0x000000ff) << 24);
 568              		.loc 2 126 9
 569 01d8 5D8F     		or	a4,a4,a5
 127:../Firmware/RISCV/drivers/core_compatiable.h ****     return result;
 570              		.loc 2 127 33
 571 01da 832704FC 		lw	a5,-64(s0)
 572 01de E207     		slli	a5,a5,24
 124:../Firmware/RISCV/drivers/core_compatiable.h ****         | ((value & 0x00ff0000) >> 8 )
 573              		.loc 2 124 12
 574 01e0 D98F     		or	a5,a4,a5
 575 01e2 232EF4FA 		sw	a5,-68(s0)
 576              		.loc 2 128 12
 577 01e6 8327C4FB 		lw	a5,-68(s0)
 578              	.LBE51:
 579              	.LBE50:
 580              		.loc 1 129 29
 581 01ea 232AF4F8 		sw	a5,-108(s0)
 130:../Firmware/GD32VW55x_standard_peripheral/Source/gd32vw55x_cau_tdes.c ****     keyaddr += 4U;
 582              		.loc 1 130 13
 583 01ee 832784FE 		lw	a5,-24(s0)
 584 01f2 9107     		addi	a5,a5,4
 585 01f4 2324F4FE 		sw	a5,-24(s0)
 131:../Firmware/GD32VW55x_standard_peripheral/Source/gd32vw55x_cau_tdes.c ****     key_initpara.key_3_low  = __REV(*(uint32_t *)(keyaddr));
 586              		.loc 1 131 38
 587 01f8 832784FE 		lw	a5,-24(s0)
 588              		.loc 1 131 31
 589 01fc 9C43     		lw	a5,0(a5)
 590 01fe 2324F4FC 		sw	a5,-56(s0)
 591              	.LBB52:
 592              	.LBB53:
 124:../Firmware/RISCV/drivers/core_compatiable.h ****         | ((value & 0x00ff0000) >> 8 )
 593              		.loc 2 124 37
 594 0202 832784FC 		lw	a5,-56(s0)
 595 0206 13D78701 		srli	a4,a5,24
 125:../Firmware/RISCV/drivers/core_compatiable.h ****         | ((value & 0x0000ff00) << 8 )
 596              		.loc 2 125 33
 597 020a 832784FC 		lw	a5,-56(s0)
 598 020e 93D68700 		srli	a3,a5,8
 599 0212 C167     		li	a5,65536
 600 0214 938707F0 		addi	a5,a5,-256
 601 0218 F58F     		and	a5,a3,a5
 125:../Firmware/RISCV/drivers/core_compatiable.h ****         | ((value & 0x0000ff00) << 8 )
 602              		.loc 2 125 9
 603 021a 5D8F     		or	a4,a4,a5
 126:../Firmware/RISCV/drivers/core_compatiable.h ****         | ((value & 0x000000ff) << 24);
 604              		.loc 2 126 33
 605 021c 832784FC 		lw	a5,-56(s0)
 606 0220 93968700 		slli	a3,a5,8
 607 0224 B707FF00 		li	a5,16711680
 608 0228 F58F     		and	a5,a3,a5
 126:../Firmware/RISCV/drivers/core_compatiable.h ****         | ((value & 0x000000ff) << 24);
 609              		.loc 2 126 9
 610 022a 5D8F     		or	a4,a4,a5
 127:../Firmware/RISCV/drivers/core_compatiable.h ****     return result;
 611              		.loc 2 127 33
 612 022c 832784FC 		lw	a5,-56(s0)
 613 0230 E207     		slli	a5,a5,24
 124:../Firmware/RISCV/drivers/core_compatiable.h ****         | ((value & 0x00ff0000) >> 8 )
 614              		.loc 2 124 12
 615 0232 D98F     		or	a5,a4,a5
 616 0234 2322F4FC 		sw	a5,-60(s0)
 617              		.loc 2 128 12
 618 0238 832744FC 		lw	a5,-60(s0)
 619              	.LBE53:
 620              	.LBE52:
 621              		.loc 1 131 29
 622 023c 232CF4F8 		sw	a5,-104(s0)
 132:../Firmware/GD32VW55x_standard_peripheral/Source/gd32vw55x_cau_tdes.c ****     cau_key_init(&key_initpara);
 623              		.loc 1 132 5
 624 0240 9307C4F7 		addi	a5,s0,-132
 625 0244 3E85     		mv	a0,a5
 626 0246 97000000 		call	cau_key_init
 626      E7800000 
 133:../Firmware/GD32VW55x_standard_peripheral/Source/gd32vw55x_cau_tdes.c **** 
 134:../Firmware/GD32VW55x_standard_peripheral/Source/gd32vw55x_cau_tdes.c ****     /* vectors initialization */
 135:../Firmware/GD32VW55x_standard_peripheral/Source/gd32vw55x_cau_tdes.c ****     iv_initpara.iv_0_high = __REV(*(uint32_t *)(ivaddr));
 627              		.loc 1 135 36
 628 024e 8327C4FD 		lw	a5,-36(s0)
 629              		.loc 1 135 29
 630 0252 9C43     		lw	a5,0(a5)
 631 0254 2328F4FC 		sw	a5,-48(s0)
 632              	.LBB54:
 633              	.LBB55:
 124:../Firmware/RISCV/drivers/core_compatiable.h ****         | ((value & 0x00ff0000) >> 8 )
 634              		.loc 2 124 37
 635 0258 832704FD 		lw	a5,-48(s0)
 636 025c 13D78701 		srli	a4,a5,24
 125:../Firmware/RISCV/drivers/core_compatiable.h ****         | ((value & 0x0000ff00) << 8 )
 637              		.loc 2 125 33
 638 0260 832704FD 		lw	a5,-48(s0)
 639 0264 93D68700 		srli	a3,a5,8
 640 0268 C167     		li	a5,65536
 641 026a 938707F0 		addi	a5,a5,-256
 642 026e F58F     		and	a5,a3,a5
 125:../Firmware/RISCV/drivers/core_compatiable.h ****         | ((value & 0x0000ff00) << 8 )
 643              		.loc 2 125 9
 644 0270 5D8F     		or	a4,a4,a5
 126:../Firmware/RISCV/drivers/core_compatiable.h ****         | ((value & 0x000000ff) << 24);
 645              		.loc 2 126 33
 646 0272 832704FD 		lw	a5,-48(s0)
 647 0276 93968700 		slli	a3,a5,8
 648 027a B707FF00 		li	a5,16711680
 649 027e F58F     		and	a5,a3,a5
 126:../Firmware/RISCV/drivers/core_compatiable.h ****         | ((value & 0x000000ff) << 24);
 650              		.loc 2 126 9
 651 0280 5D8F     		or	a4,a4,a5
 127:../Firmware/RISCV/drivers/core_compatiable.h ****     return result;
 652              		.loc 2 127 33
 653 0282 832704FD 		lw	a5,-48(s0)
 654 0286 E207     		slli	a5,a5,24
 124:../Firmware/RISCV/drivers/core_compatiable.h ****         | ((value & 0x00ff0000) >> 8 )
 655              		.loc 2 124 12
 656 0288 D98F     		or	a5,a4,a5
 657 028a 2326F4FC 		sw	a5,-52(s0)
 658              		.loc 2 128 12
 659 028e 8327C4FC 		lw	a5,-52(s0)
 660              	.LBE55:
 661              	.LBE54:
 662              		.loc 1 135 27
 663 0292 2326F4F6 		sw	a5,-148(s0)
 136:../Firmware/GD32VW55x_standard_peripheral/Source/gd32vw55x_cau_tdes.c ****     ivaddr += 4U;
 664              		.loc 1 136 12
 665 0296 8327C4FD 		lw	a5,-36(s0)
 666 029a 9107     		addi	a5,a5,4
 667 029c 232EF4FC 		sw	a5,-36(s0)
 137:../Firmware/GD32VW55x_standard_peripheral/Source/gd32vw55x_cau_tdes.c ****     iv_initpara.iv_0_low  = __REV(*(uint32_t *)(ivaddr));
 668              		.loc 1 137 36
 669 02a0 8327C4FD 		lw	a5,-36(s0)
 670              		.loc 1 137 29
 671 02a4 9C43     		lw	a5,0(a5)
 672 02a6 232CF4FC 		sw	a5,-40(s0)
 673              	.LBB56:
 674              	.LBB57:
 124:../Firmware/RISCV/drivers/core_compatiable.h ****         | ((value & 0x00ff0000) >> 8 )
 675              		.loc 2 124 37
 676 02aa 832784FD 		lw	a5,-40(s0)
 677 02ae 13D78701 		srli	a4,a5,24
 125:../Firmware/RISCV/drivers/core_compatiable.h ****         | ((value & 0x0000ff00) << 8 )
 678              		.loc 2 125 33
 679 02b2 832784FD 		lw	a5,-40(s0)
 680 02b6 93D68700 		srli	a3,a5,8
 681 02ba C167     		li	a5,65536
 682 02bc 938707F0 		addi	a5,a5,-256
 683 02c0 F58F     		and	a5,a3,a5
 125:../Firmware/RISCV/drivers/core_compatiable.h ****         | ((value & 0x0000ff00) << 8 )
 684              		.loc 2 125 9
 685 02c2 5D8F     		or	a4,a4,a5
 126:../Firmware/RISCV/drivers/core_compatiable.h ****         | ((value & 0x000000ff) << 24);
 686              		.loc 2 126 33
 687 02c4 832784FD 		lw	a5,-40(s0)
 688 02c8 93968700 		slli	a3,a5,8
 689 02cc B707FF00 		li	a5,16711680
 690 02d0 F58F     		and	a5,a3,a5
 126:../Firmware/RISCV/drivers/core_compatiable.h ****         | ((value & 0x000000ff) << 24);
 691              		.loc 2 126 9
 692 02d2 5D8F     		or	a4,a4,a5
 127:../Firmware/RISCV/drivers/core_compatiable.h ****     return result;
 693              		.loc 2 127 33
 694 02d4 832784FD 		lw	a5,-40(s0)
 695 02d8 E207     		slli	a5,a5,24
 124:../Firmware/RISCV/drivers/core_compatiable.h ****         | ((value & 0x00ff0000) >> 8 )
 696              		.loc 2 124 12
 697 02da D98F     		or	a5,a4,a5
 698 02dc 232AF4FC 		sw	a5,-44(s0)
 699              		.loc 2 128 12
 700 02e0 832744FD 		lw	a5,-44(s0)
 701              	.LBE57:
 702              	.LBE56:
 703              		.loc 1 137 27
 704 02e4 2328F4F6 		sw	a5,-144(s0)
 138:../Firmware/GD32VW55x_standard_peripheral/Source/gd32vw55x_cau_tdes.c ****     cau_iv_init(&iv_initpara);
 705              		.loc 1 138 5
 706 02e8 9307C4F6 		addi	a5,s0,-148
 707 02ec 3E85     		mv	a0,a5
 708 02ee 97000000 		call	cau_iv_init
 708      E7800000 
 139:../Firmware/GD32VW55x_standard_peripheral/Source/gd32vw55x_cau_tdes.c **** 
 140:../Firmware/GD32VW55x_standard_peripheral/Source/gd32vw55x_cau_tdes.c ****     /* flush the IN and OUT FIFOs */
 141:../Firmware/GD32VW55x_standard_peripheral/Source/gd32vw55x_cau_tdes.c ****     cau_fifo_flush();
 709              		.loc 1 141 5
 710 02f6 97000000 		call	cau_fifo_flush
 710      E7800000 
 142:../Firmware/GD32VW55x_standard_peripheral/Source/gd32vw55x_cau_tdes.c ****     /* enable the CAU peripheral */
 143:../Firmware/GD32VW55x_standard_peripheral/Source/gd32vw55x_cau_tdes.c ****     cau_enable();
 711              		.loc 1 143 5
 712 02fe 97000000 		call	cau_enable
 712      E7800000 
 144:../Firmware/GD32VW55x_standard_peripheral/Source/gd32vw55x_cau_tdes.c ****     /* TDES calculate process */
 145:../Firmware/GD32VW55x_standard_peripheral/Source/gd32vw55x_cau_tdes.c ****     ret = cau_tdes_calculate((uint8_t *)inputaddr, cau_parameter->in_length, (uint8_t *)outputaddr)
 713              		.loc 1 145 11
 714 0306 032744FE 		lw	a4,-28(s0)
 715 030a 8327C4F5 		lw	a5,-164(s0)
 716 030e 9C4F     		lw	a5,24(a5)
 717 0310 832604FE 		lw	a3,-32(s0)
 718 0314 3686     		mv	a2,a3
 719 0316 BE85     		mv	a1,a5
 720 0318 3A85     		mv	a0,a4
 721 031a 97000000 		call	cau_tdes_calculate
 721      E7800000 
 722 0322 2326A4FE 		sw	a0,-20(s0)
 146:../Firmware/GD32VW55x_standard_peripheral/Source/gd32vw55x_cau_tdes.c ****     /* disable the CAU peripheral */
 147:../Firmware/GD32VW55x_standard_peripheral/Source/gd32vw55x_cau_tdes.c ****     cau_disable();
 723              		.loc 1 147 5
 724 0326 97000000 		call	cau_disable
 724      E7800000 
 148:../Firmware/GD32VW55x_standard_peripheral/Source/gd32vw55x_cau_tdes.c **** 
 149:../Firmware/GD32VW55x_standard_peripheral/Source/gd32vw55x_cau_tdes.c ****     return ret;
 725              		.loc 1 149 12
 726 032e 8327C4FE 		lw	a5,-20(s0)
 150:../Firmware/GD32VW55x_standard_peripheral/Source/gd32vw55x_cau_tdes.c **** }
 727              		.loc 1 150 1
 728 0332 3E85     		mv	a0,a5
 729 0334 BA50     		lw	ra,172(sp)
 730              		.cfi_restore 1
 731 0336 2A54     		lw	s0,168(sp)
 732              		.cfi_restore 8
 733              		.cfi_def_cfa 2, 176
 734 0338 4D61     		addi	sp,sp,176
 735              		.cfi_def_cfa_offset 0
 736 033a 8280     		jr	ra
 737              		.cfi_endproc
 738              	.LFE348:
 740              		.section	.text.cau_tdes_calculate,"ax",@progbits
 741              		.align	1
 743              	cau_tdes_calculate:
 744              	.LFB349:
 151:../Firmware/GD32VW55x_standard_peripheral/Source/gd32vw55x_cau_tdes.c **** 
 152:../Firmware/GD32VW55x_standard_peripheral/Source/gd32vw55x_cau_tdes.c **** /*!
 153:../Firmware/GD32VW55x_standard_peripheral/Source/gd32vw55x_cau_tdes.c ****     \brief      TDES calculate process
 154:../Firmware/GD32VW55x_standard_peripheral/Source/gd32vw55x_cau_tdes.c ****     \param[in]  input: pointer to the input buffer
 155:../Firmware/GD32VW55x_standard_peripheral/Source/gd32vw55x_cau_tdes.c ****     \param[in]  in_length: length of the input buffer in bytes, must be a multiple of 8 bytes
 156:../Firmware/GD32VW55x_standard_peripheral/Source/gd32vw55x_cau_tdes.c ****     \param[out] output: pointer to the returned buffer
 157:../Firmware/GD32VW55x_standard_peripheral/Source/gd32vw55x_cau_tdes.c ****     \retval     ErrStatus: SUCCESS or ERROR
 158:../Firmware/GD32VW55x_standard_peripheral/Source/gd32vw55x_cau_tdes.c **** */
 159:../Firmware/GD32VW55x_standard_peripheral/Source/gd32vw55x_cau_tdes.c **** static ErrStatus cau_tdes_calculate(uint8_t *input, uint32_t in_length, uint8_t *output)
 160:../Firmware/GD32VW55x_standard_peripheral/Source/gd32vw55x_cau_tdes.c **** {
 745              		.loc 1 160 1
 746              		.cfi_startproc
 747 0000 3971     		addi	sp,sp,-64
 748              		.cfi_def_cfa_offset 64
 749 0002 06DE     		sw	ra,60(sp)
 750 0004 22DC     		sw	s0,56(sp)
 751 0006 26DA     		sw	s1,52(sp)
 752              		.cfi_offset 1, -4
 753              		.cfi_offset 8, -8
 754              		.cfi_offset 9, -12
 755 0008 8000     		addi	s0,sp,64
 756              		.cfi_def_cfa 8, 0
 757 000a 2326A4FC 		sw	a0,-52(s0)
 758 000e 2324B4FC 		sw	a1,-56(s0)
 759 0012 2322C4FC 		sw	a2,-60(s0)
 161:../Firmware/GD32VW55x_standard_peripheral/Source/gd32vw55x_cau_tdes.c ****     uint32_t inputaddr  = (uint32_t)input;
 760              		.loc 1 161 14
 761 0016 8327C4FC 		lw	a5,-52(s0)
 762 001a 2326F4FE 		sw	a5,-20(s0)
 162:../Firmware/GD32VW55x_standard_peripheral/Source/gd32vw55x_cau_tdes.c ****     uint32_t outputaddr = (uint32_t)output;
 763              		.loc 1 162 14
 764 001e 832744FC 		lw	a5,-60(s0)
 765 0022 2324F4FE 		sw	a5,-24(s0)
 163:../Firmware/GD32VW55x_standard_peripheral/Source/gd32vw55x_cau_tdes.c ****     uint32_t i = 0U;
 766              		.loc 1 163 14
 767 0026 232204FE 		sw	zero,-28(s0)
 164:../Firmware/GD32VW55x_standard_peripheral/Source/gd32vw55x_cau_tdes.c ****     __IO uint32_t counter = 0U;
 768              		.loc 1 164 19
 769 002a 232E04FC 		sw	zero,-36(s0)
 165:../Firmware/GD32VW55x_standard_peripheral/Source/gd32vw55x_cau_tdes.c ****     uint32_t busystatus = 0U;
 770              		.loc 1 165 14
 771 002e 232004FE 		sw	zero,-32(s0)
 166:../Firmware/GD32VW55x_standard_peripheral/Source/gd32vw55x_cau_tdes.c **** 
 167:../Firmware/GD32VW55x_standard_peripheral/Source/gd32vw55x_cau_tdes.c ****     /* the clock is not enabled or there is no embedded CAU peripheral */
 168:../Firmware/GD32VW55x_standard_peripheral/Source/gd32vw55x_cau_tdes.c ****     if(DISABLE == cau_enable_state_get()) {
 772              		.loc 1 168 19
 773 0032 97000000 		call	cau_enable_state_get
 773      E7800000 
 774 003a AA87     		mv	a5,a0
 775              		.loc 1 168 7
 776 003c 99E3     		bne	a5,zero,.L20
 169:../Firmware/GD32VW55x_standard_peripheral/Source/gd32vw55x_cau_tdes.c ****         return ERROR;
 777              		.loc 1 169 16
 778 003e 8147     		li	a5,0
 779 0040 7DA8     		j	.L21
 780              	.L20:
 170:../Firmware/GD32VW55x_standard_peripheral/Source/gd32vw55x_cau_tdes.c ****     }
 171:../Firmware/GD32VW55x_standard_peripheral/Source/gd32vw55x_cau_tdes.c **** 
 172:../Firmware/GD32VW55x_standard_peripheral/Source/gd32vw55x_cau_tdes.c ****     for(i = 0U; i < in_length; i += 8U) {
 781              		.loc 1 172 11
 782 0042 232204FE 		sw	zero,-28(s0)
 783              		.loc 1 172 5
 784 0046 6DA0     		j	.L22
 785              	.L26:
 173:../Firmware/GD32VW55x_standard_peripheral/Source/gd32vw55x_cau_tdes.c ****         /* write data to the IN FIFO */
 174:../Firmware/GD32VW55x_standard_peripheral/Source/gd32vw55x_cau_tdes.c ****         cau_data_write(*(uint32_t *)(inputaddr));
 786              		.loc 1 174 25
 787 0048 8327C4FE 		lw	a5,-20(s0)
 788              		.loc 1 174 9
 789 004c 9C43     		lw	a5,0(a5)
 790 004e 3E85     		mv	a0,a5
 791 0050 97000000 		call	cau_data_write
 791      E7800000 
 175:../Firmware/GD32VW55x_standard_peripheral/Source/gd32vw55x_cau_tdes.c ****         inputaddr += 4U;
 792              		.loc 1 175 19
 793 0058 8327C4FE 		lw	a5,-20(s0)
 794 005c 9107     		addi	a5,a5,4
 795 005e 2326F4FE 		sw	a5,-20(s0)
 176:../Firmware/GD32VW55x_standard_peripheral/Source/gd32vw55x_cau_tdes.c ****         cau_data_write(*(uint32_t *)(inputaddr));
 796              		.loc 1 176 25
 797 0062 8327C4FE 		lw	a5,-20(s0)
 798              		.loc 1 176 9
 799 0066 9C43     		lw	a5,0(a5)
 800 0068 3E85     		mv	a0,a5
 801 006a 97000000 		call	cau_data_write
 801      E7800000 
 177:../Firmware/GD32VW55x_standard_peripheral/Source/gd32vw55x_cau_tdes.c ****         inputaddr += 4U;
 802              		.loc 1 177 19
 803 0072 8327C4FE 		lw	a5,-20(s0)
 804 0076 9107     		addi	a5,a5,4
 805 0078 2326F4FE 		sw	a5,-20(s0)
 178:../Firmware/GD32VW55x_standard_peripheral/Source/gd32vw55x_cau_tdes.c **** 
 179:../Firmware/GD32VW55x_standard_peripheral/Source/gd32vw55x_cau_tdes.c ****         /* wait until the complete message has been processed */
 180:../Firmware/GD32VW55x_standard_peripheral/Source/gd32vw55x_cau_tdes.c ****         counter = 0U;
 806              		.loc 1 180 17
 807 007c 232E04FC 		sw	zero,-36(s0)
 808              	.L24:
 181:../Firmware/GD32VW55x_standard_peripheral/Source/gd32vw55x_cau_tdes.c ****         do {
 182:../Firmware/GD32VW55x_standard_peripheral/Source/gd32vw55x_cau_tdes.c ****             busystatus = cau_flag_get(CAU_FLAG_BUSY);
 809              		.loc 1 182 26 discriminator 2
 810 0080 4145     		li	a0,16
 811 0082 97000000 		call	cau_flag_get
 811      E7800000 
 812 008a 2320A4FE 		sw	a0,-32(s0)
 183:../Firmware/GD32VW55x_standard_peripheral/Source/gd32vw55x_cau_tdes.c ****             counter++;
 813              		.loc 1 183 20 discriminator 2
 814 008e 8327C4FD 		lw	a5,-36(s0)
 815 0092 8507     		addi	a5,a5,1
 816 0094 232EF4FC 		sw	a5,-36(s0)
 184:../Firmware/GD32VW55x_standard_peripheral/Source/gd32vw55x_cau_tdes.c ****         } while((TDESBSY_TIMEOUT != counter) && (RESET != busystatus));
 817              		.loc 1 184 34 discriminator 2
 818 0098 0327C4FD 		lw	a4,-36(s0)
 819              		.loc 1 184 9 discriminator 2
 820 009c C167     		li	a5,65536
 821 009e 6305F700 		beq	a4,a5,.L23
 822              		.loc 1 184 46 discriminator 1
 823 00a2 832704FE 		lw	a5,-32(s0)
 824 00a6 E9FF     		bne	a5,zero,.L24
 825              	.L23:
 185:../Firmware/GD32VW55x_standard_peripheral/Source/gd32vw55x_cau_tdes.c **** 
 186:../Firmware/GD32VW55x_standard_peripheral/Source/gd32vw55x_cau_tdes.c ****         if(RESET != busystatus) {
 826              		.loc 1 186 11
 827 00a8 832704FE 		lw	a5,-32(s0)
 828 00ac 99C3     		beq	a5,zero,.L25
 187:../Firmware/GD32VW55x_standard_peripheral/Source/gd32vw55x_cau_tdes.c ****             return ERROR;
 829              		.loc 1 187 20
 830 00ae 8147     		li	a5,0
 831 00b0 B9A0     		j	.L21
 832              	.L25:
 188:../Firmware/GD32VW55x_standard_peripheral/Source/gd32vw55x_cau_tdes.c ****         } else {
 189:../Firmware/GD32VW55x_standard_peripheral/Source/gd32vw55x_cau_tdes.c ****             /* read the output block from the output FIFO */
 190:../Firmware/GD32VW55x_standard_peripheral/Source/gd32vw55x_cau_tdes.c ****             *(uint32_t *)(outputaddr) = cau_data_read();
 833              		.loc 1 190 14 discriminator 2
 834 00b2 832484FE 		lw	s1,-24(s0)
 835              		.loc 1 190 41 discriminator 2
 836 00b6 97000000 		call	cau_data_read
 836      E7800000 
 837 00be AA87     		mv	a5,a0
 838              		.loc 1 190 39 discriminator 2
 839 00c0 9CC0     		sw	a5,0(s1)
 191:../Firmware/GD32VW55x_standard_peripheral/Source/gd32vw55x_cau_tdes.c ****             outputaddr += 4U;
 840              		.loc 1 191 24 discriminator 2
 841 00c2 832784FE 		lw	a5,-24(s0)
 842 00c6 9107     		addi	a5,a5,4
 843 00c8 2324F4FE 		sw	a5,-24(s0)
 192:../Firmware/GD32VW55x_standard_peripheral/Source/gd32vw55x_cau_tdes.c ****             *(uint32_t *)(outputaddr) = cau_data_read();
 844              		.loc 1 192 14 discriminator 2
 845 00cc 832484FE 		lw	s1,-24(s0)
 846              		.loc 1 192 41 discriminator 2
 847 00d0 97000000 		call	cau_data_read
 847      E7800000 
 848 00d8 AA87     		mv	a5,a0
 849              		.loc 1 192 39 discriminator 2
 850 00da 9CC0     		sw	a5,0(s1)
 193:../Firmware/GD32VW55x_standard_peripheral/Source/gd32vw55x_cau_tdes.c ****             outputaddr += 4U;
 851              		.loc 1 193 24 discriminator 2
 852 00dc 832784FE 		lw	a5,-24(s0)
 853 00e0 9107     		addi	a5,a5,4
 854 00e2 2324F4FE 		sw	a5,-24(s0)
 172:../Firmware/GD32VW55x_standard_peripheral/Source/gd32vw55x_cau_tdes.c ****         /* write data to the IN FIFO */
 855              		.loc 1 172 34 discriminator 2
 856 00e6 832744FE 		lw	a5,-28(s0)
 857 00ea A107     		addi	a5,a5,8
 858 00ec 2322F4FE 		sw	a5,-28(s0)
 859              	.L22:
 172:../Firmware/GD32VW55x_standard_peripheral/Source/gd32vw55x_cau_tdes.c ****         /* write data to the IN FIFO */
 860              		.loc 1 172 5 discriminator 1
 861 00f0 032744FE 		lw	a4,-28(s0)
 862 00f4 832784FC 		lw	a5,-56(s0)
 863 00f8 E368F7F4 		bltu	a4,a5,.L26
 194:../Firmware/GD32VW55x_standard_peripheral/Source/gd32vw55x_cau_tdes.c ****         }
 195:../Firmware/GD32VW55x_standard_peripheral/Source/gd32vw55x_cau_tdes.c ****     }
 196:../Firmware/GD32VW55x_standard_peripheral/Source/gd32vw55x_cau_tdes.c **** 
 197:../Firmware/GD32VW55x_standard_peripheral/Source/gd32vw55x_cau_tdes.c ****     return SUCCESS;
 864              		.loc 1 197 12
 865 00fc 8547     		li	a5,1
 866              	.L21:
 198:../Firmware/GD32VW55x_standard_peripheral/Source/gd32vw55x_cau_tdes.c **** }
 867              		.loc 1 198 1
 868 00fe 3E85     		mv	a0,a5
 869 0100 F250     		lw	ra,60(sp)
 870              		.cfi_restore 1
 871 0102 6254     		lw	s0,56(sp)
 872              		.cfi_restore 8
 873              		.cfi_def_cfa 2, 64
 874 0104 D254     		lw	s1,52(sp)
 875              		.cfi_restore 9
 876 0106 2161     		addi	sp,sp,64
 877              		.cfi_def_cfa_offset 0
 878 0108 8280     		jr	ra
 879              		.cfi_endproc
 880              	.LFE349:
 882              		.text
 883              	.Letext0:
 884              		.file 3 "e:\\gd32\\gd32embeddedbuilder_v1.5.2.30854\\tools\\nuclei_riscv_newlibc_prebuilt_win32_20
 885              		.file 4 "e:\\gd32\\gd32embeddedbuilder_v1.5.2.30854\\tools\\nuclei_riscv_newlibc_prebuilt_win32_20
 886              		.file 5 "../Firmware/GD32VW55x_standard_peripheral/gd32vw55x.h"
 887              		.file 6 "../Firmware/GD32VW55x_standard_peripheral/Include/gd32vw55x_cau.h"