   1              		.file	"gd32vw55x_i2c.c"
   2              		.option nopic
   3              		.attribute arch, "rv32i2p0_m2p0_a2p0_c2p0"
   4              		.attribute unaligned_access, 0
   5              		.attribute stack_align, 16
   6              		.text
   7              	.Ltext0:
   8              		.cfi_sections	.debug_frame
   9              		.section	.text.i2c_deinit,"ax",@progbits
  10              		.align	1
  11              		.globl	i2c_deinit
  13              	i2c_deinit:
  14              	.LFB347:
  15              		.file 1 "../Firmware/GD32VW55x_standard_peripheral/Source/gd32vw55x_i2c.c"
   1:../Firmware/GD32VW55x_standard_peripheral/Source/gd32vw55x_i2c.c **** /*!
   2:../Firmware/GD32VW55x_standard_peripheral/Source/gd32vw55x_i2c.c ****     \file    gd32vw55x_i2c.c
   3:../Firmware/GD32VW55x_standard_peripheral/Source/gd32vw55x_i2c.c ****     \brief   I2C driver
   4:../Firmware/GD32VW55x_standard_peripheral/Source/gd32vw55x_i2c.c **** 
   5:../Firmware/GD32VW55x_standard_peripheral/Source/gd32vw55x_i2c.c ****     \version 2025-01-16, V1.4.0, firmware for GD32VW55x
   6:../Firmware/GD32VW55x_standard_peripheral/Source/gd32vw55x_i2c.c **** */
   7:../Firmware/GD32VW55x_standard_peripheral/Source/gd32vw55x_i2c.c **** 
   8:../Firmware/GD32VW55x_standard_peripheral/Source/gd32vw55x_i2c.c **** /*
   9:../Firmware/GD32VW55x_standard_peripheral/Source/gd32vw55x_i2c.c ****     Copyright (c) 2025, GigaDevice Semiconductor Inc.
  10:../Firmware/GD32VW55x_standard_peripheral/Source/gd32vw55x_i2c.c **** 
  11:../Firmware/GD32VW55x_standard_peripheral/Source/gd32vw55x_i2c.c ****     Redistribution and use in source and binary forms, with or without modification,
  12:../Firmware/GD32VW55x_standard_peripheral/Source/gd32vw55x_i2c.c **** are permitted provided that the following conditions are met:
  13:../Firmware/GD32VW55x_standard_peripheral/Source/gd32vw55x_i2c.c **** 
  14:../Firmware/GD32VW55x_standard_peripheral/Source/gd32vw55x_i2c.c ****     1. Redistributions of source code must retain the above copyright notice, this
  15:../Firmware/GD32VW55x_standard_peripheral/Source/gd32vw55x_i2c.c ****        list of conditions and the following disclaimer.
  16:../Firmware/GD32VW55x_standard_peripheral/Source/gd32vw55x_i2c.c ****     2. Redistributions in binary form must reproduce the above copyright notice,
  17:../Firmware/GD32VW55x_standard_peripheral/Source/gd32vw55x_i2c.c ****        this list of conditions and the following disclaimer in the documentation
  18:../Firmware/GD32VW55x_standard_peripheral/Source/gd32vw55x_i2c.c ****        and/or other materials provided with the distribution.
  19:../Firmware/GD32VW55x_standard_peripheral/Source/gd32vw55x_i2c.c ****     3. Neither the name of the copyright holder nor the names of its contributors
  20:../Firmware/GD32VW55x_standard_peripheral/Source/gd32vw55x_i2c.c ****        may be used to endorse or promote products derived from this software without
  21:../Firmware/GD32VW55x_standard_peripheral/Source/gd32vw55x_i2c.c ****        specific prior written permission.
  22:../Firmware/GD32VW55x_standard_peripheral/Source/gd32vw55x_i2c.c **** 
  23:../Firmware/GD32VW55x_standard_peripheral/Source/gd32vw55x_i2c.c ****     THIS SOFTWARE IS PROVIDED BY THE COPYRIGHT HOLDERS AND CONTRIBUTORS "AS IS"
  24:../Firmware/GD32VW55x_standard_peripheral/Source/gd32vw55x_i2c.c **** AND ANY EXPRESS OR IMPLIED WARRANTIES, INCLUDING, BUT NOT LIMITED TO, THE IMPLIED
  25:../Firmware/GD32VW55x_standard_peripheral/Source/gd32vw55x_i2c.c **** WARRANTIES OF MERCHANTABILITY AND FITNESS FOR A PARTICULAR PURPOSE ARE DISCLAIMED.
  26:../Firmware/GD32VW55x_standard_peripheral/Source/gd32vw55x_i2c.c **** IN NO EVENT SHALL THE COPYRIGHT HOLDER OR CONTRIBUTORS BE LIABLE FOR ANY DIRECT,
  27:../Firmware/GD32VW55x_standard_peripheral/Source/gd32vw55x_i2c.c **** INDIRECT, INCIDENTAL, SPECIAL, EXEMPLARY, OR CONSEQUENTIAL DAMAGES (INCLUDING, BUT
  28:../Firmware/GD32VW55x_standard_peripheral/Source/gd32vw55x_i2c.c **** NOT LIMITED TO, PROCUREMENT OF SUBSTITUTE GOODS OR SERVICES; LOSS OF USE, DATA, OR
  29:../Firmware/GD32VW55x_standard_peripheral/Source/gd32vw55x_i2c.c **** PROFITS; OR BUSINESS INTERRUPTION) HOWEVER CAUSED AND ON ANY THEORY OF LIABILITY,
  30:../Firmware/GD32VW55x_standard_peripheral/Source/gd32vw55x_i2c.c **** WHETHER IN CONTRACT, STRICT LIABILITY, OR TORT (INCLUDING NEGLIGENCE OR OTHERWISE)
  31:../Firmware/GD32VW55x_standard_peripheral/Source/gd32vw55x_i2c.c **** ARISING IN ANY WAY OUT OF THE USE OF THIS SOFTWARE, EVEN IF ADVISED OF THE POSSIBILITY
  32:../Firmware/GD32VW55x_standard_peripheral/Source/gd32vw55x_i2c.c **** OF SUCH DAMAGE.
  33:../Firmware/GD32VW55x_standard_peripheral/Source/gd32vw55x_i2c.c **** */
  34:../Firmware/GD32VW55x_standard_peripheral/Source/gd32vw55x_i2c.c **** 
  35:../Firmware/GD32VW55x_standard_peripheral/Source/gd32vw55x_i2c.c **** #include "gd32vw55x_i2c.h"
  36:../Firmware/GD32VW55x_standard_peripheral/Source/gd32vw55x_i2c.c **** 
  37:../Firmware/GD32VW55x_standard_peripheral/Source/gd32vw55x_i2c.c **** /* I2C register bit mask */
  38:../Firmware/GD32VW55x_standard_peripheral/Source/gd32vw55x_i2c.c **** #define I2C_ADDRESS_MASK              ((uint32_t)0x000003FFU)               /*!< i2c address mask *
  39:../Firmware/GD32VW55x_standard_peripheral/Source/gd32vw55x_i2c.c **** #define I2C_ADDRESS2_MASK             ((uint32_t)0x000000FEU)               /*!< the second i2c add
  40:../Firmware/GD32VW55x_standard_peripheral/Source/gd32vw55x_i2c.c **** 
  41:../Firmware/GD32VW55x_standard_peripheral/Source/gd32vw55x_i2c.c **** /* I2C register bit offset */
  42:../Firmware/GD32VW55x_standard_peripheral/Source/gd32vw55x_i2c.c **** #define CTL0_DNF_OFFSET               ((uint32_t)0x00000008U)               /*!< bit offset of DNF 
  43:../Firmware/GD32VW55x_standard_peripheral/Source/gd32vw55x_i2c.c **** #define CTL1_BYTENUM_OFFSET           ((uint32_t)0x00000010U)               /*!< bit offset of BYTE
  44:../Firmware/GD32VW55x_standard_peripheral/Source/gd32vw55x_i2c.c **** #define STAT_READDR_OFFSET            ((uint32_t)0x00000011U)               /*!< bit offset of READ
  45:../Firmware/GD32VW55x_standard_peripheral/Source/gd32vw55x_i2c.c **** #define TIMING_SCLL_OFFSET            ((uint32_t)0x00000000U)               /*!< bit offset of SCLL
  46:../Firmware/GD32VW55x_standard_peripheral/Source/gd32vw55x_i2c.c **** #define TIMING_SCLH_OFFSET            ((uint32_t)0x00000008U)               /*!< bit offset of SCLH
  47:../Firmware/GD32VW55x_standard_peripheral/Source/gd32vw55x_i2c.c **** #define TIMING_SDADELY_OFFSET         ((uint32_t)0x00000010U)               /*!< bit offset of SDAD
  48:../Firmware/GD32VW55x_standard_peripheral/Source/gd32vw55x_i2c.c **** #define TIMING_SCLDELY_OFFSET         ((uint32_t)0x00000014U)               /*!< bit offset of SCLD
  49:../Firmware/GD32VW55x_standard_peripheral/Source/gd32vw55x_i2c.c **** #define TIMING_PSC_OFFSET             ((uint32_t)0x0000001CU)               /*!< bit offset of PSC 
  50:../Firmware/GD32VW55x_standard_peripheral/Source/gd32vw55x_i2c.c **** #define SADDR1_ADDMSK_OFFSET          ((uint32_t)0x00000008U)               /*!< bit offset of ADDM
  51:../Firmware/GD32VW55x_standard_peripheral/Source/gd32vw55x_i2c.c **** #define TIMEOUT_BUSTOB_OFFSET         ((uint32_t)0x00000010U)               /*!< bit offset of BUST
  52:../Firmware/GD32VW55x_standard_peripheral/Source/gd32vw55x_i2c.c **** 
  53:../Firmware/GD32VW55x_standard_peripheral/Source/gd32vw55x_i2c.c **** /*!
  54:../Firmware/GD32VW55x_standard_peripheral/Source/gd32vw55x_i2c.c ****     \brief      reset I2C
  55:../Firmware/GD32VW55x_standard_peripheral/Source/gd32vw55x_i2c.c ****     \param[in]  i2c_periph: I2Cx(x=0,1)
  56:../Firmware/GD32VW55x_standard_peripheral/Source/gd32vw55x_i2c.c ****     \param[out] none
  57:../Firmware/GD32VW55x_standard_peripheral/Source/gd32vw55x_i2c.c ****     \retval     none
  58:../Firmware/GD32VW55x_standard_peripheral/Source/gd32vw55x_i2c.c **** */
  59:../Firmware/GD32VW55x_standard_peripheral/Source/gd32vw55x_i2c.c **** void i2c_deinit(uint32_t i2c_periph)
  60:../Firmware/GD32VW55x_standard_peripheral/Source/gd32vw55x_i2c.c **** {
  16              		.loc 1 60 1
  17              		.cfi_startproc
  18 0000 0111     		addi	sp,sp,-32
  19              		.cfi_def_cfa_offset 32
  20 0002 06CE     		sw	ra,28(sp)
  21 0004 22CC     		sw	s0,24(sp)
  22              		.cfi_offset 1, -4
  23              		.cfi_offset 8, -8
  24 0006 0010     		addi	s0,sp,32
  25              		.cfi_def_cfa 8, 0
  26 0008 2326A4FE 		sw	a0,-20(s0)
  61:../Firmware/GD32VW55x_standard_peripheral/Source/gd32vw55x_i2c.c ****     switch(i2c_periph){
  27              		.loc 1 61 5
  28 000c 0327C4FE 		lw	a4,-20(s0)
  29 0010 B7570040 		li	a5,1073762304
  30 0014 93870740 		addi	a5,a5,1024
  31 0018 630BF700 		beq	a4,a5,.L2
  32 001c 0327C4FE 		lw	a4,-20(s0)
  33 0020 B7670040 		li	a5,1073766400
  34 0024 93870780 		addi	a5,a5,-2048
  35 0028 6302F702 		beq	a4,a5,.L3
  62:../Firmware/GD32VW55x_standard_peripheral/Source/gd32vw55x_i2c.c ****     case I2C0:
  63:../Firmware/GD32VW55x_standard_peripheral/Source/gd32vw55x_i2c.c ****         /* reset I2C0 */
  64:../Firmware/GD32VW55x_standard_peripheral/Source/gd32vw55x_i2c.c ****         rcu_periph_reset_enable(RCU_I2C0RST);
  65:../Firmware/GD32VW55x_standard_peripheral/Source/gd32vw55x_i2c.c ****         rcu_periph_reset_disable(RCU_I2C0RST);
  66:../Firmware/GD32VW55x_standard_peripheral/Source/gd32vw55x_i2c.c ****         break;
  67:../Firmware/GD32VW55x_standard_peripheral/Source/gd32vw55x_i2c.c ****     case I2C1:
  68:../Firmware/GD32VW55x_standard_peripheral/Source/gd32vw55x_i2c.c ****         /* reset I2C1 */
  69:../Firmware/GD32VW55x_standard_peripheral/Source/gd32vw55x_i2c.c ****         rcu_periph_reset_enable(RCU_I2C1RST);
  70:../Firmware/GD32VW55x_standard_peripheral/Source/gd32vw55x_i2c.c ****         rcu_periph_reset_disable(RCU_I2C1RST);
  71:../Firmware/GD32VW55x_standard_peripheral/Source/gd32vw55x_i2c.c ****         break;
  72:../Firmware/GD32VW55x_standard_peripheral/Source/gd32vw55x_i2c.c ****     default:
  73:../Firmware/GD32VW55x_standard_peripheral/Source/gd32vw55x_i2c.c ****         break;
  36              		.loc 1 73 9
  37 002c 3DA8     		j	.L5
  38              	.L2:
  64:../Firmware/GD32VW55x_standard_peripheral/Source/gd32vw55x_i2c.c ****         rcu_periph_reset_disable(RCU_I2C0RST);
  39              		.loc 1 64 9
  40 002e 8567     		li	a5,4096
  41 0030 13855781 		addi	a0,a5,-2027
  42 0034 97000000 		call	rcu_periph_reset_enable
  42      E7800000 
  65:../Firmware/GD32VW55x_standard_peripheral/Source/gd32vw55x_i2c.c ****         break;
  43              		.loc 1 65 9
  44 003c 8567     		li	a5,4096
  45 003e 13855781 		addi	a0,a5,-2027
  46 0042 97000000 		call	rcu_periph_reset_disable
  46      E7800000 
  66:../Firmware/GD32VW55x_standard_peripheral/Source/gd32vw55x_i2c.c ****     case I2C1:
  47              		.loc 1 66 9
  48 004a 05A0     		j	.L5
  49              	.L3:
  69:../Firmware/GD32VW55x_standard_peripheral/Source/gd32vw55x_i2c.c ****         rcu_periph_reset_disable(RCU_I2C1RST);
  50              		.loc 1 69 9
  51 004c 8567     		li	a5,4096
  52 004e 13856781 		addi	a0,a5,-2026
  53 0052 97000000 		call	rcu_periph_reset_enable
  53      E7800000 
  70:../Firmware/GD32VW55x_standard_peripheral/Source/gd32vw55x_i2c.c ****         break;
  54              		.loc 1 70 9
  55 005a 8567     		li	a5,4096
  56 005c 13856781 		addi	a0,a5,-2026
  57 0060 97000000 		call	rcu_periph_reset_disable
  57      E7800000 
  71:../Firmware/GD32VW55x_standard_peripheral/Source/gd32vw55x_i2c.c ****     default:
  58              		.loc 1 71 9
  59 0068 0100     		nop
  60              	.L5:
  74:../Firmware/GD32VW55x_standard_peripheral/Source/gd32vw55x_i2c.c ****     }
  75:../Firmware/GD32VW55x_standard_peripheral/Source/gd32vw55x_i2c.c **** }
  61              		.loc 1 75 1
  62 006a 0100     		nop
  63 006c F240     		lw	ra,28(sp)
  64              		.cfi_restore 1
  65 006e 6244     		lw	s0,24(sp)
  66              		.cfi_restore 8
  67              		.cfi_def_cfa 2, 32
  68 0070 0561     		addi	sp,sp,32
  69              		.cfi_def_cfa_offset 0
  70 0072 8280     		jr	ra
  71              		.cfi_endproc
  72              	.LFE347:
  74              		.section	.text.i2c_timing_config,"ax",@progbits
  75              		.align	1
  76              		.globl	i2c_timing_config
  78              	i2c_timing_config:
  79              	.LFB348:
  76:../Firmware/GD32VW55x_standard_peripheral/Source/gd32vw55x_i2c.c **** 
  77:../Firmware/GD32VW55x_standard_peripheral/Source/gd32vw55x_i2c.c **** /*!
  78:../Firmware/GD32VW55x_standard_peripheral/Source/gd32vw55x_i2c.c ****     \brief      configure the timing parameters
  79:../Firmware/GD32VW55x_standard_peripheral/Source/gd32vw55x_i2c.c ****     \param[in]  i2c_periph: I2Cx(x=0,1)
  80:../Firmware/GD32VW55x_standard_peripheral/Source/gd32vw55x_i2c.c ****     \param[in]  psc: 0-0x0000000F, timing prescaler
  81:../Firmware/GD32VW55x_standard_peripheral/Source/gd32vw55x_i2c.c ****     \param[in]  scl_dely: 0-0x0000000F, data setup time
  82:../Firmware/GD32VW55x_standard_peripheral/Source/gd32vw55x_i2c.c ****     \param[in]  sda_dely: 0-0x0000000F, data hold time
  83:../Firmware/GD32VW55x_standard_peripheral/Source/gd32vw55x_i2c.c ****     \param[out] none
  84:../Firmware/GD32VW55x_standard_peripheral/Source/gd32vw55x_i2c.c ****     \retval     none
  85:../Firmware/GD32VW55x_standard_peripheral/Source/gd32vw55x_i2c.c **** */
  86:../Firmware/GD32VW55x_standard_peripheral/Source/gd32vw55x_i2c.c **** void i2c_timing_config(uint32_t i2c_periph, uint32_t psc, uint32_t scl_dely, uint32_t sda_dely)
  87:../Firmware/GD32VW55x_standard_peripheral/Source/gd32vw55x_i2c.c **** {
  80              		.loc 1 87 1
  81              		.cfi_startproc
  82 0000 0111     		addi	sp,sp,-32
  83              		.cfi_def_cfa_offset 32
  84 0002 22CE     		sw	s0,28(sp)
  85              		.cfi_offset 8, -4
  86 0004 0010     		addi	s0,sp,32
  87              		.cfi_def_cfa 8, 0
  88 0006 2326A4FE 		sw	a0,-20(s0)
  89 000a 2324B4FE 		sw	a1,-24(s0)
  90 000e 2322C4FE 		sw	a2,-28(s0)
  91 0012 2320D4FE 		sw	a3,-32(s0)
  88:../Firmware/GD32VW55x_standard_peripheral/Source/gd32vw55x_i2c.c ****     /* clear PSC, SCLDELY, SDADELY bits in I2C_TIMING register */
  89:../Firmware/GD32VW55x_standard_peripheral/Source/gd32vw55x_i2c.c ****     I2C_TIMING(i2c_periph) &= ~I2C_TIMING_PSC;
  92              		.loc 1 89 28
  93 0016 8327C4FE 		lw	a5,-20(s0)
  94 001a C107     		addi	a5,a5,16
  95 001c 9843     		lw	a4,0(a5)
  96 001e 8327C4FE 		lw	a5,-20(s0)
  97 0022 C107     		addi	a5,a5,16
  98 0024 BE86     		mv	a3,a5
  99 0026 B7070010 		li	a5,268435456
 100 002a FD17     		addi	a5,a5,-1
 101 002c F98F     		and	a5,a4,a5
 102 002e 9CC2     		sw	a5,0(a3)
  90:../Firmware/GD32VW55x_standard_peripheral/Source/gd32vw55x_i2c.c ****     I2C_TIMING(i2c_periph) &= ~I2C_TIMING_SCLDELY;
 103              		.loc 1 90 28
 104 0030 8327C4FE 		lw	a5,-20(s0)
 105 0034 C107     		addi	a5,a5,16
 106 0036 9843     		lw	a4,0(a5)
 107 0038 8327C4FE 		lw	a5,-20(s0)
 108 003c C107     		addi	a5,a5,16
 109 003e BE86     		mv	a3,a5
 110 0040 B70710FF 		li	a5,-15728640
 111 0044 FD17     		addi	a5,a5,-1
 112 0046 F98F     		and	a5,a4,a5
 113 0048 9CC2     		sw	a5,0(a3)
  91:../Firmware/GD32VW55x_standard_peripheral/Source/gd32vw55x_i2c.c ****     I2C_TIMING(i2c_periph) &= ~I2C_TIMING_SDADELY;
 114              		.loc 1 91 28
 115 004a 8327C4FE 		lw	a5,-20(s0)
 116 004e C107     		addi	a5,a5,16
 117 0050 9843     		lw	a4,0(a5)
 118 0052 8327C4FE 		lw	a5,-20(s0)
 119 0056 C107     		addi	a5,a5,16
 120 0058 BE86     		mv	a3,a5
 121 005a B707F1FF 		li	a5,-983040
 122 005e FD17     		addi	a5,a5,-1
 123 0060 F98F     		and	a5,a4,a5
 124 0062 9CC2     		sw	a5,0(a3)
  92:../Firmware/GD32VW55x_standard_peripheral/Source/gd32vw55x_i2c.c ****     /* mask PSC, SCLDELY, SDADELY bits in I2C_TIMING register */
  93:../Firmware/GD32VW55x_standard_peripheral/Source/gd32vw55x_i2c.c ****     psc = (uint32_t)(psc << TIMING_PSC_OFFSET) & I2C_TIMING_PSC;
 125              		.loc 1 93 9
 126 0064 832784FE 		lw	a5,-24(s0)
 127 0068 F207     		slli	a5,a5,28
 128 006a 2324F4FE 		sw	a5,-24(s0)
  94:../Firmware/GD32VW55x_standard_peripheral/Source/gd32vw55x_i2c.c ****     scl_dely = (uint32_t)(scl_dely << TIMING_SCLDELY_OFFSET) & I2C_TIMING_SCLDELY;
 129              		.loc 1 94 36
 130 006e 832744FE 		lw	a5,-28(s0)
 131 0072 13974701 		slli	a4,a5,20
 132              		.loc 1 94 14
 133 0076 B707F000 		li	a5,15728640
 134 007a F98F     		and	a5,a4,a5
 135 007c 2322F4FE 		sw	a5,-28(s0)
  95:../Firmware/GD32VW55x_standard_peripheral/Source/gd32vw55x_i2c.c ****     sda_dely = (uint32_t)(sda_dely << TIMING_SDADELY_OFFSET) & I2C_TIMING_SDADELY;
 136              		.loc 1 95 36
 137 0080 832704FE 		lw	a5,-32(s0)
 138 0084 13970701 		slli	a4,a5,16
 139              		.loc 1 95 14
 140 0088 B7070F00 		li	a5,983040
 141 008c F98F     		and	a5,a4,a5
 142 008e 2320F4FE 		sw	a5,-32(s0)
  96:../Firmware/GD32VW55x_standard_peripheral/Source/gd32vw55x_i2c.c ****     /* write PSC, SCLDELY, SDADELY bits in I2C_TIMING register */
  97:../Firmware/GD32VW55x_standard_peripheral/Source/gd32vw55x_i2c.c ****     I2C_TIMING(i2c_periph) |= (psc | scl_dely |sda_dely);
 143              		.loc 1 97 28
 144 0092 8327C4FE 		lw	a5,-20(s0)
 145 0096 C107     		addi	a5,a5,16
 146 0098 9843     		lw	a4,0(a5)
 147              		.loc 1 97 36
 148 009a 832684FE 		lw	a3,-24(s0)
 149 009e 832744FE 		lw	a5,-28(s0)
 150 00a2 DD8E     		or	a3,a3,a5
 151              		.loc 1 97 47
 152 00a4 832704FE 		lw	a5,-32(s0)
 153 00a8 D58F     		or	a5,a3,a5
 154              		.loc 1 97 28
 155 00aa 8326C4FE 		lw	a3,-20(s0)
 156 00ae C106     		addi	a3,a3,16
 157 00b0 D98F     		or	a5,a4,a5
 158 00b2 9CC2     		sw	a5,0(a3)
  98:../Firmware/GD32VW55x_standard_peripheral/Source/gd32vw55x_i2c.c **** }
 159              		.loc 1 98 1
 160 00b4 0100     		nop
 161 00b6 7244     		lw	s0,28(sp)
 162              		.cfi_restore 8
 163              		.cfi_def_cfa 2, 32
 164 00b8 0561     		addi	sp,sp,32
 165              		.cfi_def_cfa_offset 0
 166 00ba 8280     		jr	ra
 167              		.cfi_endproc
 168              	.LFE348:
 170              		.section	.text.i2c_digital_noise_filter_config,"ax",@progbits
 171              		.align	1
 172              		.globl	i2c_digital_noise_filter_config
 174              	i2c_digital_noise_filter_config:
 175              	.LFB349:
  99:../Firmware/GD32VW55x_standard_peripheral/Source/gd32vw55x_i2c.c **** 
 100:../Firmware/GD32VW55x_standard_peripheral/Source/gd32vw55x_i2c.c **** /*!
 101:../Firmware/GD32VW55x_standard_peripheral/Source/gd32vw55x_i2c.c ****     \brief      configure digital noise filter
 102:../Firmware/GD32VW55x_standard_peripheral/Source/gd32vw55x_i2c.c ****     \param[in]  i2c_periph: I2Cx(x=0,1)
 103:../Firmware/GD32VW55x_standard_peripheral/Source/gd32vw55x_i2c.c ****     \param[in]  filter_length: the length of filter spikes
 104:../Firmware/GD32VW55x_standard_peripheral/Source/gd32vw55x_i2c.c ****                 only one parameter can be selected which is shown as below:
 105:../Firmware/GD32VW55x_standard_peripheral/Source/gd32vw55x_i2c.c ****       \arg        FILTER_DISABLE: digital filter is disabled
 106:../Firmware/GD32VW55x_standard_peripheral/Source/gd32vw55x_i2c.c ****       \arg        FILTER_LENGTH_1: digital filter is enabled and filter spikes with a length of up 
 107:../Firmware/GD32VW55x_standard_peripheral/Source/gd32vw55x_i2c.c ****       \arg        FILTER_LENGTH_2: digital filter is enabled and filter spikes with a length of up 
 108:../Firmware/GD32VW55x_standard_peripheral/Source/gd32vw55x_i2c.c ****       \arg        FILTER_LENGTH_3: digital filter is enabled and filter spikes with a length of up 
 109:../Firmware/GD32VW55x_standard_peripheral/Source/gd32vw55x_i2c.c ****       \arg        FILTER_LENGTH_4: digital filter is enabled and filter spikes with a length of up 
 110:../Firmware/GD32VW55x_standard_peripheral/Source/gd32vw55x_i2c.c ****       \arg        FILTER_LENGTH_5: digital filter is enabled and filter spikes with a length of up 
 111:../Firmware/GD32VW55x_standard_peripheral/Source/gd32vw55x_i2c.c ****       \arg        FILTER_LENGTH_6: digital filter is enabled and filter spikes with a length of up 
 112:../Firmware/GD32VW55x_standard_peripheral/Source/gd32vw55x_i2c.c ****       \arg        FILTER_LENGTH_7: digital filter is enabled and filter spikes with a length of up 
 113:../Firmware/GD32VW55x_standard_peripheral/Source/gd32vw55x_i2c.c ****       \arg        FILTER_LENGTH_8: digital filter is enabled and filter spikes with a length of up 
 114:../Firmware/GD32VW55x_standard_peripheral/Source/gd32vw55x_i2c.c ****       \arg        FILTER_LENGTH_9: digital filter is enabled and filter spikes with a length of up 
 115:../Firmware/GD32VW55x_standard_peripheral/Source/gd32vw55x_i2c.c ****       \arg        FILTER_LENGTH_10: digital filter is enabled and filter spikes with a length of up
 116:../Firmware/GD32VW55x_standard_peripheral/Source/gd32vw55x_i2c.c ****       \arg        FILTER_LENGTH_11: digital filter is enabled and filter spikes with a length of up
 117:../Firmware/GD32VW55x_standard_peripheral/Source/gd32vw55x_i2c.c ****       \arg        FILTER_LENGTH_12: digital filter is enabled and filter spikes with a length of up
 118:../Firmware/GD32VW55x_standard_peripheral/Source/gd32vw55x_i2c.c ****       \arg        FILTER_LENGTH_13: digital filter is enabled and filter spikes with a length of up
 119:../Firmware/GD32VW55x_standard_peripheral/Source/gd32vw55x_i2c.c ****       \arg        FILTER_LENGTH_14: digital filter is enabled and filter spikes with a length of up
 120:../Firmware/GD32VW55x_standard_peripheral/Source/gd32vw55x_i2c.c ****       \arg        FILTER_LENGTH_15: digital filter is enabled and filter spikes with a length of up
 121:../Firmware/GD32VW55x_standard_peripheral/Source/gd32vw55x_i2c.c ****     \param[out] none
 122:../Firmware/GD32VW55x_standard_peripheral/Source/gd32vw55x_i2c.c ****     \retval     none
 123:../Firmware/GD32VW55x_standard_peripheral/Source/gd32vw55x_i2c.c **** */
 124:../Firmware/GD32VW55x_standard_peripheral/Source/gd32vw55x_i2c.c **** void i2c_digital_noise_filter_config(uint32_t i2c_periph, uint32_t filter_length)
 125:../Firmware/GD32VW55x_standard_peripheral/Source/gd32vw55x_i2c.c **** {
 176              		.loc 1 125 1
 177              		.cfi_startproc
 178 0000 0111     		addi	sp,sp,-32
 179              		.cfi_def_cfa_offset 32
 180 0002 22CE     		sw	s0,28(sp)
 181              		.cfi_offset 8, -4
 182 0004 0010     		addi	s0,sp,32
 183              		.cfi_def_cfa 8, 0
 184 0006 2326A4FE 		sw	a0,-20(s0)
 185 000a 2324B4FE 		sw	a1,-24(s0)
 126:../Firmware/GD32VW55x_standard_peripheral/Source/gd32vw55x_i2c.c ****     I2C_CTL0(i2c_periph) &= (uint32_t)(~I2C_CTL0_DNF);
 186              		.loc 1 126 26
 187 000e 8327C4FE 		lw	a5,-20(s0)
 188 0012 9443     		lw	a3,0(a5)
 189 0014 8327C4FE 		lw	a5,-20(s0)
 190 0018 7D77     		li	a4,-4096
 191 001a 1307F70F 		addi	a4,a4,255
 192 001e 758F     		and	a4,a3,a4
 193 0020 98C3     		sw	a4,0(a5)
 127:../Firmware/GD32VW55x_standard_peripheral/Source/gd32vw55x_i2c.c ****     I2C_CTL0(i2c_periph) |= (uint32_t)(filter_length << CTL0_DNF_OFFSET);
 194              		.loc 1 127 26
 195 0022 8327C4FE 		lw	a5,-20(s0)
 196 0026 9443     		lw	a3,0(a5)
 197              		.loc 1 127 54
 198 0028 832784FE 		lw	a5,-24(s0)
 199 002c 13978700 		slli	a4,a5,8
 200              		.loc 1 127 26
 201 0030 8327C4FE 		lw	a5,-20(s0)
 202 0034 558F     		or	a4,a3,a4
 203 0036 98C3     		sw	a4,0(a5)
 128:../Firmware/GD32VW55x_standard_peripheral/Source/gd32vw55x_i2c.c **** }
 204              		.loc 1 128 1
 205 0038 0100     		nop
 206 003a 7244     		lw	s0,28(sp)
 207              		.cfi_restore 8
 208              		.cfi_def_cfa 2, 32
 209 003c 0561     		addi	sp,sp,32
 210              		.cfi_def_cfa_offset 0
 211 003e 8280     		jr	ra
 212              		.cfi_endproc
 213              	.LFE349:
 215              		.section	.text.i2c_analog_noise_filter_enable,"ax",@progbits
 216              		.align	1
 217              		.globl	i2c_analog_noise_filter_enable
 219              	i2c_analog_noise_filter_enable:
 220              	.LFB350:
 129:../Firmware/GD32VW55x_standard_peripheral/Source/gd32vw55x_i2c.c **** 
 130:../Firmware/GD32VW55x_standard_peripheral/Source/gd32vw55x_i2c.c **** /*!
 131:../Firmware/GD32VW55x_standard_peripheral/Source/gd32vw55x_i2c.c ****     \brief      enable analog noise filter
 132:../Firmware/GD32VW55x_standard_peripheral/Source/gd32vw55x_i2c.c ****     \param[in]  i2c_periph: I2Cx(x=0,1)
 133:../Firmware/GD32VW55x_standard_peripheral/Source/gd32vw55x_i2c.c ****     \param[out] none
 134:../Firmware/GD32VW55x_standard_peripheral/Source/gd32vw55x_i2c.c ****     \retval     none
 135:../Firmware/GD32VW55x_standard_peripheral/Source/gd32vw55x_i2c.c **** */
 136:../Firmware/GD32VW55x_standard_peripheral/Source/gd32vw55x_i2c.c **** void i2c_analog_noise_filter_enable(uint32_t i2c_periph)
 137:../Firmware/GD32VW55x_standard_peripheral/Source/gd32vw55x_i2c.c **** {
 221              		.loc 1 137 1
 222              		.cfi_startproc
 223 0000 0111     		addi	sp,sp,-32
 224              		.cfi_def_cfa_offset 32
 225 0002 22CE     		sw	s0,28(sp)
 226              		.cfi_offset 8, -4
 227 0004 0010     		addi	s0,sp,32
 228              		.cfi_def_cfa 8, 0
 229 0006 2326A4FE 		sw	a0,-20(s0)
 138:../Firmware/GD32VW55x_standard_peripheral/Source/gd32vw55x_i2c.c ****     I2C_CTL0(i2c_periph) &= ~I2C_CTL0_ANOFF;
 230              		.loc 1 138 26
 231 000a 8327C4FE 		lw	a5,-20(s0)
 232 000e 9443     		lw	a3,0(a5)
 233 0010 8327C4FE 		lw	a5,-20(s0)
 234 0014 7D77     		li	a4,-4096
 235 0016 7D17     		addi	a4,a4,-1
 236 0018 758F     		and	a4,a3,a4
 237 001a 98C3     		sw	a4,0(a5)
 139:../Firmware/GD32VW55x_standard_peripheral/Source/gd32vw55x_i2c.c **** }
 238              		.loc 1 139 1
 239 001c 0100     		nop
 240 001e 7244     		lw	s0,28(sp)
 241              		.cfi_restore 8
 242              		.cfi_def_cfa 2, 32
 243 0020 0561     		addi	sp,sp,32
 244              		.cfi_def_cfa_offset 0
 245 0022 8280     		jr	ra
 246              		.cfi_endproc
 247              	.LFE350:
 249              		.section	.text.i2c_analog_noise_filter_disable,"ax",@progbits
 250              		.align	1
 251              		.globl	i2c_analog_noise_filter_disable
 253              	i2c_analog_noise_filter_disable:
 254              	.LFB351:
 140:../Firmware/GD32VW55x_standard_peripheral/Source/gd32vw55x_i2c.c **** 
 141:../Firmware/GD32VW55x_standard_peripheral/Source/gd32vw55x_i2c.c **** /*!
 142:../Firmware/GD32VW55x_standard_peripheral/Source/gd32vw55x_i2c.c ****     \brief      disable analog noise filter
 143:../Firmware/GD32VW55x_standard_peripheral/Source/gd32vw55x_i2c.c ****     \param[in]  i2c_periph: I2Cx(x=0,1)
 144:../Firmware/GD32VW55x_standard_peripheral/Source/gd32vw55x_i2c.c ****     \param[out] none
 145:../Firmware/GD32VW55x_standard_peripheral/Source/gd32vw55x_i2c.c ****     \retval     none
 146:../Firmware/GD32VW55x_standard_peripheral/Source/gd32vw55x_i2c.c **** */
 147:../Firmware/GD32VW55x_standard_peripheral/Source/gd32vw55x_i2c.c **** void i2c_analog_noise_filter_disable(uint32_t i2c_periph)
 148:../Firmware/GD32VW55x_standard_peripheral/Source/gd32vw55x_i2c.c **** {
 255              		.loc 1 148 1
 256              		.cfi_startproc
 257 0000 0111     		addi	sp,sp,-32
 258              		.cfi_def_cfa_offset 32
 259 0002 22CE     		sw	s0,28(sp)
 260              		.cfi_offset 8, -4
 261 0004 0010     		addi	s0,sp,32
 262              		.cfi_def_cfa 8, 0
 263 0006 2326A4FE 		sw	a0,-20(s0)
 149:../Firmware/GD32VW55x_standard_peripheral/Source/gd32vw55x_i2c.c ****     I2C_CTL0(i2c_periph) |= I2C_CTL0_ANOFF;
 264              		.loc 1 149 26
 265 000a 8327C4FE 		lw	a5,-20(s0)
 266 000e 9443     		lw	a3,0(a5)
 267 0010 8327C4FE 		lw	a5,-20(s0)
 268 0014 0567     		li	a4,4096
 269 0016 558F     		or	a4,a3,a4
 270 0018 98C3     		sw	a4,0(a5)
 150:../Firmware/GD32VW55x_standard_peripheral/Source/gd32vw55x_i2c.c **** }
 271              		.loc 1 150 1
 272 001a 0100     		nop
 273 001c 7244     		lw	s0,28(sp)
 274              		.cfi_restore 8
 275              		.cfi_def_cfa 2, 32
 276 001e 0561     		addi	sp,sp,32
 277              		.cfi_def_cfa_offset 0
 278 0020 8280     		jr	ra
 279              		.cfi_endproc
 280              	.LFE351:
 282              		.section	.text.i2c_master_clock_config,"ax",@progbits
 283              		.align	1
 284              		.globl	i2c_master_clock_config
 286              	i2c_master_clock_config:
 287              	.LFB352:
 151:../Firmware/GD32VW55x_standard_peripheral/Source/gd32vw55x_i2c.c **** 
 152:../Firmware/GD32VW55x_standard_peripheral/Source/gd32vw55x_i2c.c **** /*!
 153:../Firmware/GD32VW55x_standard_peripheral/Source/gd32vw55x_i2c.c ****     \brief      configure the SCL high and low period of clock in master mode
 154:../Firmware/GD32VW55x_standard_peripheral/Source/gd32vw55x_i2c.c ****     \param[in]  i2c_periph: I2Cx(x=0,1)
 155:../Firmware/GD32VW55x_standard_peripheral/Source/gd32vw55x_i2c.c ****     \param[in]  sclh: 0-0x000000FF, SCL high period
 156:../Firmware/GD32VW55x_standard_peripheral/Source/gd32vw55x_i2c.c ****     \param[in]  scll: 0-0x000000FF, SCL low period
 157:../Firmware/GD32VW55x_standard_peripheral/Source/gd32vw55x_i2c.c ****     \param[out] none
 158:../Firmware/GD32VW55x_standard_peripheral/Source/gd32vw55x_i2c.c ****     \retval     none
 159:../Firmware/GD32VW55x_standard_peripheral/Source/gd32vw55x_i2c.c **** */
 160:../Firmware/GD32VW55x_standard_peripheral/Source/gd32vw55x_i2c.c **** void i2c_master_clock_config(uint32_t i2c_periph, uint32_t sclh, uint32_t scll)
 161:../Firmware/GD32VW55x_standard_peripheral/Source/gd32vw55x_i2c.c **** {
 288              		.loc 1 161 1
 289              		.cfi_startproc
 290 0000 0111     		addi	sp,sp,-32
 291              		.cfi_def_cfa_offset 32
 292 0002 22CE     		sw	s0,28(sp)
 293              		.cfi_offset 8, -4
 294 0004 0010     		addi	s0,sp,32
 295              		.cfi_def_cfa 8, 0
 296 0006 2326A4FE 		sw	a0,-20(s0)
 297 000a 2324B4FE 		sw	a1,-24(s0)
 298 000e 2322C4FE 		sw	a2,-28(s0)
 162:../Firmware/GD32VW55x_standard_peripheral/Source/gd32vw55x_i2c.c ****     /* clear SCLH, SCLL bits in I2C_TIMING register */
 163:../Firmware/GD32VW55x_standard_peripheral/Source/gd32vw55x_i2c.c ****     I2C_TIMING(i2c_periph) &= ~I2C_TIMING_SCLH;
 299              		.loc 1 163 28
 300 0012 8327C4FE 		lw	a5,-20(s0)
 301 0016 C107     		addi	a5,a5,16
 302 0018 9843     		lw	a4,0(a5)
 303 001a 8327C4FE 		lw	a5,-20(s0)
 304 001e C107     		addi	a5,a5,16
 305 0020 BE86     		mv	a3,a5
 306 0022 C177     		li	a5,-65536
 307 0024 9387F70F 		addi	a5,a5,255
 308 0028 F98F     		and	a5,a4,a5
 309 002a 9CC2     		sw	a5,0(a3)
 164:../Firmware/GD32VW55x_standard_peripheral/Source/gd32vw55x_i2c.c ****     I2C_TIMING(i2c_periph) &= ~I2C_TIMING_SCLL;
 310              		.loc 1 164 28
 311 002c 8327C4FE 		lw	a5,-20(s0)
 312 0030 C107     		addi	a5,a5,16
 313 0032 9C43     		lw	a5,0(a5)
 314 0034 0327C4FE 		lw	a4,-20(s0)
 315 0038 4107     		addi	a4,a4,16
 316 003a 93F707F0 		andi	a5,a5,-256
 317 003e 1CC3     		sw	a5,0(a4)
 165:../Firmware/GD32VW55x_standard_peripheral/Source/gd32vw55x_i2c.c ****     /* mask SCLH, SCLL bits in I2C_TIMING register */
 166:../Firmware/GD32VW55x_standard_peripheral/Source/gd32vw55x_i2c.c ****     sclh = (uint32_t)(sclh << TIMING_SCLH_OFFSET) & I2C_TIMING_SCLH;
 318              		.loc 1 166 28
 319 0040 832784FE 		lw	a5,-24(s0)
 320 0044 13978700 		slli	a4,a5,8
 321              		.loc 1 166 10
 322 0048 C167     		li	a5,65536
 323 004a FD17     		addi	a5,a5,-1
 324 004c F98F     		and	a5,a4,a5
 325 004e 2324F4FE 		sw	a5,-24(s0)
 167:../Firmware/GD32VW55x_standard_peripheral/Source/gd32vw55x_i2c.c ****     scll = (uint32_t)(scll << TIMING_SCLL_OFFSET) & I2C_TIMING_SCLL;
 326              		.loc 1 167 10
 327 0052 832744FE 		lw	a5,-28(s0)
 328 0056 93F7F70F 		andi	a5,a5,255
 329 005a 2322F4FE 		sw	a5,-28(s0)
 168:../Firmware/GD32VW55x_standard_peripheral/Source/gd32vw55x_i2c.c ****     /* write SCLH, SCLL bits in I2C_TIMING register */
 169:../Firmware/GD32VW55x_standard_peripheral/Source/gd32vw55x_i2c.c ****     I2C_TIMING(i2c_periph) |= (sclh | scll);
 330              		.loc 1 169 28
 331 005e 8327C4FE 		lw	a5,-20(s0)
 332 0062 C107     		addi	a5,a5,16
 333 0064 9843     		lw	a4,0(a5)
 334              		.loc 1 169 37
 335 0066 832684FE 		lw	a3,-24(s0)
 336 006a 832744FE 		lw	a5,-28(s0)
 337 006e D58F     		or	a5,a3,a5
 338              		.loc 1 169 28
 339 0070 8326C4FE 		lw	a3,-20(s0)
 340 0074 C106     		addi	a3,a3,16
 341 0076 D98F     		or	a5,a4,a5
 342 0078 9CC2     		sw	a5,0(a3)
 170:../Firmware/GD32VW55x_standard_peripheral/Source/gd32vw55x_i2c.c **** }
 343              		.loc 1 170 1
 344 007a 0100     		nop
 345 007c 7244     		lw	s0,28(sp)
 346              		.cfi_restore 8
 347              		.cfi_def_cfa 2, 32
 348 007e 0561     		addi	sp,sp,32
 349              		.cfi_def_cfa_offset 0
 350 0080 8280     		jr	ra
 351              		.cfi_endproc
 352              	.LFE352:
 354              		.section	.text.i2c_master_addressing,"ax",@progbits
 355              		.align	1
 356              		.globl	i2c_master_addressing
 358              	i2c_master_addressing:
 359              	.LFB353:
 171:../Firmware/GD32VW55x_standard_peripheral/Source/gd32vw55x_i2c.c **** 
 172:../Firmware/GD32VW55x_standard_peripheral/Source/gd32vw55x_i2c.c **** /*!
 173:../Firmware/GD32VW55x_standard_peripheral/Source/gd32vw55x_i2c.c ****     \brief      configure I2C slave address and transfer direction in master mode
 174:../Firmware/GD32VW55x_standard_peripheral/Source/gd32vw55x_i2c.c ****     \param[in]  i2c_periph: I2Cx(x=0,1)
 175:../Firmware/GD32VW55x_standard_peripheral/Source/gd32vw55x_i2c.c ****     \param[in]  address: 0-0x3FF except reserved address, I2C slave address to be sent
 176:../Firmware/GD32VW55x_standard_peripheral/Source/gd32vw55x_i2c.c ****     \param[in]  trans_direction: I2C transfer direction in master mode
 177:../Firmware/GD32VW55x_standard_peripheral/Source/gd32vw55x_i2c.c ****                 only one parameter can be selected which is shown as below:
 178:../Firmware/GD32VW55x_standard_peripheral/Source/gd32vw55x_i2c.c ****       \arg        I2C_MASTER_TRANSMIT: master transmit
 179:../Firmware/GD32VW55x_standard_peripheral/Source/gd32vw55x_i2c.c ****       \arg        I2C_MASTER_RECEIVE: master receive
 180:../Firmware/GD32VW55x_standard_peripheral/Source/gd32vw55x_i2c.c ****     \param[out] none
 181:../Firmware/GD32VW55x_standard_peripheral/Source/gd32vw55x_i2c.c ****     \retval     none
 182:../Firmware/GD32VW55x_standard_peripheral/Source/gd32vw55x_i2c.c **** */
 183:../Firmware/GD32VW55x_standard_peripheral/Source/gd32vw55x_i2c.c **** void i2c_master_addressing(uint32_t i2c_periph, uint32_t address, uint32_t trans_direction)
 184:../Firmware/GD32VW55x_standard_peripheral/Source/gd32vw55x_i2c.c **** {
 360              		.loc 1 184 1
 361              		.cfi_startproc
 362 0000 0111     		addi	sp,sp,-32
 363              		.cfi_def_cfa_offset 32
 364 0002 22CE     		sw	s0,28(sp)
 365              		.cfi_offset 8, -4
 366 0004 0010     		addi	s0,sp,32
 367              		.cfi_def_cfa 8, 0
 368 0006 2326A4FE 		sw	a0,-20(s0)
 369 000a 2324B4FE 		sw	a1,-24(s0)
 370 000e 2322C4FE 		sw	a2,-28(s0)
 185:../Firmware/GD32VW55x_standard_peripheral/Source/gd32vw55x_i2c.c ****     /* configure slave address */
 186:../Firmware/GD32VW55x_standard_peripheral/Source/gd32vw55x_i2c.c ****     I2C_CTL1(i2c_periph) &= ~I2C_CTL1_SADDRESS;
 371              		.loc 1 186 26
 372 0012 8327C4FE 		lw	a5,-20(s0)
 373 0016 9107     		addi	a5,a5,4
 374 0018 9C43     		lw	a5,0(a5)
 375 001a 0327C4FE 		lw	a4,-20(s0)
 376 001e 1107     		addi	a4,a4,4
 377 0020 93F707C0 		andi	a5,a5,-1024
 378 0024 1CC3     		sw	a5,0(a4)
 187:../Firmware/GD32VW55x_standard_peripheral/Source/gd32vw55x_i2c.c ****     I2C_CTL1(i2c_periph) |= address;
 379              		.loc 1 187 26
 380 0026 8327C4FE 		lw	a5,-20(s0)
 381 002a 9107     		addi	a5,a5,4
 382 002c 9843     		lw	a4,0(a5)
 383 002e 8327C4FE 		lw	a5,-20(s0)
 384 0032 9107     		addi	a5,a5,4
 385 0034 BE86     		mv	a3,a5
 386 0036 832784FE 		lw	a5,-24(s0)
 387 003a D98F     		or	a5,a4,a5
 388 003c 9CC2     		sw	a5,0(a3)
 188:../Firmware/GD32VW55x_standard_peripheral/Source/gd32vw55x_i2c.c ****     /* configure transfer direction */
 189:../Firmware/GD32VW55x_standard_peripheral/Source/gd32vw55x_i2c.c ****     I2C_CTL1(i2c_periph) &= ~I2C_CTL1_TRDIR;
 389              		.loc 1 189 26
 390 003e 8327C4FE 		lw	a5,-20(s0)
 391 0042 9107     		addi	a5,a5,4
 392 0044 9C43     		lw	a5,0(a5)
 393 0046 0327C4FE 		lw	a4,-20(s0)
 394 004a 1107     		addi	a4,a4,4
 395 004c 93F7F7BF 		andi	a5,a5,-1025
 396 0050 1CC3     		sw	a5,0(a4)
 190:../Firmware/GD32VW55x_standard_peripheral/Source/gd32vw55x_i2c.c ****     I2C_CTL1(i2c_periph) |= trans_direction;
 397              		.loc 1 190 26
 398 0052 8327C4FE 		lw	a5,-20(s0)
 399 0056 9107     		addi	a5,a5,4
 400 0058 9843     		lw	a4,0(a5)
 401 005a 8327C4FE 		lw	a5,-20(s0)
 402 005e 9107     		addi	a5,a5,4
 403 0060 BE86     		mv	a3,a5
 404 0062 832744FE 		lw	a5,-28(s0)
 405 0066 D98F     		or	a5,a4,a5
 406 0068 9CC2     		sw	a5,0(a3)
 191:../Firmware/GD32VW55x_standard_peripheral/Source/gd32vw55x_i2c.c **** }
 407              		.loc 1 191 1
 408 006a 0100     		nop
 409 006c 7244     		lw	s0,28(sp)
 410              		.cfi_restore 8
 411              		.cfi_def_cfa 2, 32
 412 006e 0561     		addi	sp,sp,32
 413              		.cfi_def_cfa_offset 0
 414 0070 8280     		jr	ra
 415              		.cfi_endproc
 416              	.LFE353:
 418              		.section	.text.i2c_address10_header_enable,"ax",@progbits
 419              		.align	1
 420              		.globl	i2c_address10_header_enable
 422              	i2c_address10_header_enable:
 423              	.LFB354:
 192:../Firmware/GD32VW55x_standard_peripheral/Source/gd32vw55x_i2c.c **** 
 193:../Firmware/GD32VW55x_standard_peripheral/Source/gd32vw55x_i2c.c **** /*!
 194:../Firmware/GD32VW55x_standard_peripheral/Source/gd32vw55x_i2c.c ****     \brief      10-bit address header executes read direction only in master receive mode
 195:../Firmware/GD32VW55x_standard_peripheral/Source/gd32vw55x_i2c.c ****     \param[in]  i2c_periph: I2Cx(x=0,1)
 196:../Firmware/GD32VW55x_standard_peripheral/Source/gd32vw55x_i2c.c ****     \param[out] none
 197:../Firmware/GD32VW55x_standard_peripheral/Source/gd32vw55x_i2c.c ****     \retval     none
 198:../Firmware/GD32VW55x_standard_peripheral/Source/gd32vw55x_i2c.c **** */
 199:../Firmware/GD32VW55x_standard_peripheral/Source/gd32vw55x_i2c.c **** void i2c_address10_header_enable(uint32_t i2c_periph)
 200:../Firmware/GD32VW55x_standard_peripheral/Source/gd32vw55x_i2c.c **** {
 424              		.loc 1 200 1
 425              		.cfi_startproc
 426 0000 0111     		addi	sp,sp,-32
 427              		.cfi_def_cfa_offset 32
 428 0002 22CE     		sw	s0,28(sp)
 429              		.cfi_offset 8, -4
 430 0004 0010     		addi	s0,sp,32
 431              		.cfi_def_cfa 8, 0
 432 0006 2326A4FE 		sw	a0,-20(s0)
 201:../Firmware/GD32VW55x_standard_peripheral/Source/gd32vw55x_i2c.c ****     I2C_CTL1(i2c_periph) |= I2C_CTL1_HEAD10R;
 433              		.loc 1 201 26
 434 000a 8327C4FE 		lw	a5,-20(s0)
 435 000e 9107     		addi	a5,a5,4
 436 0010 9843     		lw	a4,0(a5)
 437 0012 8327C4FE 		lw	a5,-20(s0)
 438 0016 9107     		addi	a5,a5,4
 439 0018 BE86     		mv	a3,a5
 440 001a 8567     		li	a5,4096
 441 001c D98F     		or	a5,a4,a5
 442 001e 9CC2     		sw	a5,0(a3)
 202:../Firmware/GD32VW55x_standard_peripheral/Source/gd32vw55x_i2c.c **** }
 443              		.loc 1 202 1
 444 0020 0100     		nop
 445 0022 7244     		lw	s0,28(sp)
 446              		.cfi_restore 8
 447              		.cfi_def_cfa 2, 32
 448 0024 0561     		addi	sp,sp,32
 449              		.cfi_def_cfa_offset 0
 450 0026 8280     		jr	ra
 451              		.cfi_endproc
 452              	.LFE354:
 454              		.section	.text.i2c_address10_header_disable,"ax",@progbits
 455              		.align	1
 456              		.globl	i2c_address10_header_disable
 458              	i2c_address10_header_disable:
 459              	.LFB355:
 203:../Firmware/GD32VW55x_standard_peripheral/Source/gd32vw55x_i2c.c **** 
 204:../Firmware/GD32VW55x_standard_peripheral/Source/gd32vw55x_i2c.c **** /*!
 205:../Firmware/GD32VW55x_standard_peripheral/Source/gd32vw55x_i2c.c ****     \brief      10-bit address header executes complete sequence in master receive mode
 206:../Firmware/GD32VW55x_standard_peripheral/Source/gd32vw55x_i2c.c ****     \param[in]  i2c_periph: I2Cx(x=0,1)
 207:../Firmware/GD32VW55x_standard_peripheral/Source/gd32vw55x_i2c.c ****     \param[out] none
 208:../Firmware/GD32VW55x_standard_peripheral/Source/gd32vw55x_i2c.c ****     \retval     none
 209:../Firmware/GD32VW55x_standard_peripheral/Source/gd32vw55x_i2c.c **** */
 210:../Firmware/GD32VW55x_standard_peripheral/Source/gd32vw55x_i2c.c **** void i2c_address10_header_disable(uint32_t i2c_periph)
 211:../Firmware/GD32VW55x_standard_peripheral/Source/gd32vw55x_i2c.c **** {
 460              		.loc 1 211 1
 461              		.cfi_startproc
 462 0000 0111     		addi	sp,sp,-32
 463              		.cfi_def_cfa_offset 32
 464 0002 22CE     		sw	s0,28(sp)
 465              		.cfi_offset 8, -4
 466 0004 0010     		addi	s0,sp,32
 467              		.cfi_def_cfa 8, 0
 468 0006 2326A4FE 		sw	a0,-20(s0)
 212:../Firmware/GD32VW55x_standard_peripheral/Source/gd32vw55x_i2c.c ****     I2C_CTL1(i2c_periph) &= ~I2C_CTL1_HEAD10R;
 469              		.loc 1 212 26
 470 000a 8327C4FE 		lw	a5,-20(s0)
 471 000e 9107     		addi	a5,a5,4
 472 0010 9843     		lw	a4,0(a5)
 473 0012 8327C4FE 		lw	a5,-20(s0)
 474 0016 9107     		addi	a5,a5,4
 475 0018 BE86     		mv	a3,a5
 476 001a FD77     		li	a5,-4096
 477 001c FD17     		addi	a5,a5,-1
 478 001e F98F     		and	a5,a4,a5
 479 0020 9CC2     		sw	a5,0(a3)
 213:../Firmware/GD32VW55x_standard_peripheral/Source/gd32vw55x_i2c.c **** }
 480              		.loc 1 213 1
 481 0022 0100     		nop
 482 0024 7244     		lw	s0,28(sp)
 483              		.cfi_restore 8
 484              		.cfi_def_cfa 2, 32
 485 0026 0561     		addi	sp,sp,32
 486              		.cfi_def_cfa_offset 0
 487 0028 8280     		jr	ra
 488              		.cfi_endproc
 489              	.LFE355:
 491              		.section	.text.i2c_address10_enable,"ax",@progbits
 492              		.align	1
 493              		.globl	i2c_address10_enable
 495              	i2c_address10_enable:
 496              	.LFB356:
 214:../Firmware/GD32VW55x_standard_peripheral/Source/gd32vw55x_i2c.c **** 
 215:../Firmware/GD32VW55x_standard_peripheral/Source/gd32vw55x_i2c.c **** /*!
 216:../Firmware/GD32VW55x_standard_peripheral/Source/gd32vw55x_i2c.c ****     \brief      enable 10-bit addressing mode in master mode
 217:../Firmware/GD32VW55x_standard_peripheral/Source/gd32vw55x_i2c.c ****     \param[in]  i2c_periph: I2Cx(x=0,1)
 218:../Firmware/GD32VW55x_standard_peripheral/Source/gd32vw55x_i2c.c ****     \param[out] none
 219:../Firmware/GD32VW55x_standard_peripheral/Source/gd32vw55x_i2c.c ****     \retval     none
 220:../Firmware/GD32VW55x_standard_peripheral/Source/gd32vw55x_i2c.c **** */
 221:../Firmware/GD32VW55x_standard_peripheral/Source/gd32vw55x_i2c.c **** void i2c_address10_enable(uint32_t i2c_periph)
 222:../Firmware/GD32VW55x_standard_peripheral/Source/gd32vw55x_i2c.c **** {
 497              		.loc 1 222 1
 498              		.cfi_startproc
 499 0000 0111     		addi	sp,sp,-32
 500              		.cfi_def_cfa_offset 32
 501 0002 22CE     		sw	s0,28(sp)
 502              		.cfi_offset 8, -4
 503 0004 0010     		addi	s0,sp,32
 504              		.cfi_def_cfa 8, 0
 505 0006 2326A4FE 		sw	a0,-20(s0)
 223:../Firmware/GD32VW55x_standard_peripheral/Source/gd32vw55x_i2c.c ****     I2C_CTL1(i2c_periph) |= I2C_CTL1_ADD10EN;
 506              		.loc 1 223 26
 507 000a 8327C4FE 		lw	a5,-20(s0)
 508 000e 9107     		addi	a5,a5,4
 509 0010 9843     		lw	a4,0(a5)
 510 0012 8327C4FE 		lw	a5,-20(s0)
 511 0016 9107     		addi	a5,a5,4
 512 0018 BE86     		mv	a3,a5
 513 001a 8567     		li	a5,4096
 514 001c 93870780 		addi	a5,a5,-2048
 515 0020 D98F     		or	a5,a4,a5
 516 0022 9CC2     		sw	a5,0(a3)
 224:../Firmware/GD32VW55x_standard_peripheral/Source/gd32vw55x_i2c.c **** }
 517              		.loc 1 224 1
 518 0024 0100     		nop
 519 0026 7244     		lw	s0,28(sp)
 520              		.cfi_restore 8
 521              		.cfi_def_cfa 2, 32
 522 0028 0561     		addi	sp,sp,32
 523              		.cfi_def_cfa_offset 0
 524 002a 8280     		jr	ra
 525              		.cfi_endproc
 526              	.LFE356:
 528              		.section	.text.i2c_address10_disable,"ax",@progbits
 529              		.align	1
 530              		.globl	i2c_address10_disable
 532              	i2c_address10_disable:
 533              	.LFB357:
 225:../Firmware/GD32VW55x_standard_peripheral/Source/gd32vw55x_i2c.c **** 
 226:../Firmware/GD32VW55x_standard_peripheral/Source/gd32vw55x_i2c.c **** /*!
 227:../Firmware/GD32VW55x_standard_peripheral/Source/gd32vw55x_i2c.c ****     \brief      disable 10-bit addressing mode in master mode
 228:../Firmware/GD32VW55x_standard_peripheral/Source/gd32vw55x_i2c.c ****     \param[in]  i2c_periph: I2Cx(x=0,1)
 229:../Firmware/GD32VW55x_standard_peripheral/Source/gd32vw55x_i2c.c ****     \param[out] none
 230:../Firmware/GD32VW55x_standard_peripheral/Source/gd32vw55x_i2c.c ****     \retval     none
 231:../Firmware/GD32VW55x_standard_peripheral/Source/gd32vw55x_i2c.c **** */
 232:../Firmware/GD32VW55x_standard_peripheral/Source/gd32vw55x_i2c.c **** void i2c_address10_disable(uint32_t i2c_periph)
 233:../Firmware/GD32VW55x_standard_peripheral/Source/gd32vw55x_i2c.c **** {
 534              		.loc 1 233 1
 535              		.cfi_startproc
 536 0000 0111     		addi	sp,sp,-32
 537              		.cfi_def_cfa_offset 32
 538 0002 22CE     		sw	s0,28(sp)
 539              		.cfi_offset 8, -4
 540 0004 0010     		addi	s0,sp,32
 541              		.cfi_def_cfa 8, 0
 542 0006 2326A4FE 		sw	a0,-20(s0)
 234:../Firmware/GD32VW55x_standard_peripheral/Source/gd32vw55x_i2c.c ****     I2C_CTL1(i2c_periph) &= ~I2C_CTL1_ADD10EN;
 543              		.loc 1 234 26
 544 000a 8327C4FE 		lw	a5,-20(s0)
 545 000e 9107     		addi	a5,a5,4
 546 0010 9843     		lw	a4,0(a5)
 547 0012 8327C4FE 		lw	a5,-20(s0)
 548 0016 9107     		addi	a5,a5,4
 549 0018 BE86     		mv	a3,a5
 550 001a FD77     		li	a5,-4096
 551 001c 9387F77F 		addi	a5,a5,2047
 552 0020 F98F     		and	a5,a4,a5
 553 0022 9CC2     		sw	a5,0(a3)
 235:../Firmware/GD32VW55x_standard_peripheral/Source/gd32vw55x_i2c.c **** }
 554              		.loc 1 235 1
 555 0024 0100     		nop
 556 0026 7244     		lw	s0,28(sp)
 557              		.cfi_restore 8
 558              		.cfi_def_cfa 2, 32
 559 0028 0561     		addi	sp,sp,32
 560              		.cfi_def_cfa_offset 0
 561 002a 8280     		jr	ra
 562              		.cfi_endproc
 563              	.LFE357:
 565              		.section	.text.i2c_automatic_end_enable,"ax",@progbits
 566              		.align	1
 567              		.globl	i2c_automatic_end_enable
 569              	i2c_automatic_end_enable:
 570              	.LFB358:
 236:../Firmware/GD32VW55x_standard_peripheral/Source/gd32vw55x_i2c.c **** 
 237:../Firmware/GD32VW55x_standard_peripheral/Source/gd32vw55x_i2c.c **** /*!
 238:../Firmware/GD32VW55x_standard_peripheral/Source/gd32vw55x_i2c.c ****     \brief      enable I2C automatic end mode in master mode
 239:../Firmware/GD32VW55x_standard_peripheral/Source/gd32vw55x_i2c.c ****     \param[in]  i2c_periph: I2Cx(x=0,1)
 240:../Firmware/GD32VW55x_standard_peripheral/Source/gd32vw55x_i2c.c ****     \param[out] none
 241:../Firmware/GD32VW55x_standard_peripheral/Source/gd32vw55x_i2c.c ****     \retval     none
 242:../Firmware/GD32VW55x_standard_peripheral/Source/gd32vw55x_i2c.c **** */
 243:../Firmware/GD32VW55x_standard_peripheral/Source/gd32vw55x_i2c.c **** void i2c_automatic_end_enable(uint32_t i2c_periph)
 244:../Firmware/GD32VW55x_standard_peripheral/Source/gd32vw55x_i2c.c **** {
 571              		.loc 1 244 1
 572              		.cfi_startproc
 573 0000 0111     		addi	sp,sp,-32
 574              		.cfi_def_cfa_offset 32
 575 0002 22CE     		sw	s0,28(sp)
 576              		.cfi_offset 8, -4
 577 0004 0010     		addi	s0,sp,32
 578              		.cfi_def_cfa 8, 0
 579 0006 2326A4FE 		sw	a0,-20(s0)
 245:../Firmware/GD32VW55x_standard_peripheral/Source/gd32vw55x_i2c.c ****     I2C_CTL1(i2c_periph) |= I2C_CTL1_AUTOEND;
 580              		.loc 1 245 26
 581 000a 8327C4FE 		lw	a5,-20(s0)
 582 000e 9107     		addi	a5,a5,4
 583 0010 9843     		lw	a4,0(a5)
 584 0012 8327C4FE 		lw	a5,-20(s0)
 585 0016 9107     		addi	a5,a5,4
 586 0018 BE86     		mv	a3,a5
 587 001a B7070002 		li	a5,33554432
 588 001e D98F     		or	a5,a4,a5
 589 0020 9CC2     		sw	a5,0(a3)
 246:../Firmware/GD32VW55x_standard_peripheral/Source/gd32vw55x_i2c.c **** }
 590              		.loc 1 246 1
 591 0022 0100     		nop
 592 0024 7244     		lw	s0,28(sp)
 593              		.cfi_restore 8
 594              		.cfi_def_cfa 2, 32
 595 0026 0561     		addi	sp,sp,32
 596              		.cfi_def_cfa_offset 0
 597 0028 8280     		jr	ra
 598              		.cfi_endproc
 599              	.LFE358:
 601              		.section	.text.i2c_automatic_end_disable,"ax",@progbits
 602              		.align	1
 603              		.globl	i2c_automatic_end_disable
 605              	i2c_automatic_end_disable:
 606              	.LFB359:
 247:../Firmware/GD32VW55x_standard_peripheral/Source/gd32vw55x_i2c.c **** 
 248:../Firmware/GD32VW55x_standard_peripheral/Source/gd32vw55x_i2c.c **** /*!
 249:../Firmware/GD32VW55x_standard_peripheral/Source/gd32vw55x_i2c.c ****     \brief      disable I2C automatic end mode in master mode
 250:../Firmware/GD32VW55x_standard_peripheral/Source/gd32vw55x_i2c.c ****     \param[in]  i2c_periph: I2Cx(x=0,1)
 251:../Firmware/GD32VW55x_standard_peripheral/Source/gd32vw55x_i2c.c ****     \param[out] none
 252:../Firmware/GD32VW55x_standard_peripheral/Source/gd32vw55x_i2c.c ****     \retval     none
 253:../Firmware/GD32VW55x_standard_peripheral/Source/gd32vw55x_i2c.c **** */
 254:../Firmware/GD32VW55x_standard_peripheral/Source/gd32vw55x_i2c.c **** void i2c_automatic_end_disable(uint32_t i2c_periph)
 255:../Firmware/GD32VW55x_standard_peripheral/Source/gd32vw55x_i2c.c **** {
 607              		.loc 1 255 1
 608              		.cfi_startproc
 609 0000 0111     		addi	sp,sp,-32
 610              		.cfi_def_cfa_offset 32
 611 0002 22CE     		sw	s0,28(sp)
 612              		.cfi_offset 8, -4
 613 0004 0010     		addi	s0,sp,32
 614              		.cfi_def_cfa 8, 0
 615 0006 2326A4FE 		sw	a0,-20(s0)
 256:../Firmware/GD32VW55x_standard_peripheral/Source/gd32vw55x_i2c.c ****     I2C_CTL1(i2c_periph) &= ~I2C_CTL1_AUTOEND;
 616              		.loc 1 256 26
 617 000a 8327C4FE 		lw	a5,-20(s0)
 618 000e 9107     		addi	a5,a5,4
 619 0010 9843     		lw	a4,0(a5)
 620 0012 8327C4FE 		lw	a5,-20(s0)
 621 0016 9107     		addi	a5,a5,4
 622 0018 BE86     		mv	a3,a5
 623 001a B70700FE 		li	a5,-33554432
 624 001e FD17     		addi	a5,a5,-1
 625 0020 F98F     		and	a5,a4,a5
 626 0022 9CC2     		sw	a5,0(a3)
 257:../Firmware/GD32VW55x_standard_peripheral/Source/gd32vw55x_i2c.c **** }
 627              		.loc 1 257 1
 628 0024 0100     		nop
 629 0026 7244     		lw	s0,28(sp)
 630              		.cfi_restore 8
 631              		.cfi_def_cfa 2, 32
 632 0028 0561     		addi	sp,sp,32
 633              		.cfi_def_cfa_offset 0
 634 002a 8280     		jr	ra
 635              		.cfi_endproc
 636              	.LFE359:
 638              		.section	.text.i2c_slave_response_to_gcall_enable,"ax",@progbits
 639              		.align	1
 640              		.globl	i2c_slave_response_to_gcall_enable
 642              	i2c_slave_response_to_gcall_enable:
 643              	.LFB360:
 258:../Firmware/GD32VW55x_standard_peripheral/Source/gd32vw55x_i2c.c **** 
 259:../Firmware/GD32VW55x_standard_peripheral/Source/gd32vw55x_i2c.c **** /*!
 260:../Firmware/GD32VW55x_standard_peripheral/Source/gd32vw55x_i2c.c ****     \brief      enable the response to a general call
 261:../Firmware/GD32VW55x_standard_peripheral/Source/gd32vw55x_i2c.c ****     \param[in]  i2c_periph: I2Cx(x=0,1)
 262:../Firmware/GD32VW55x_standard_peripheral/Source/gd32vw55x_i2c.c ****     \param[out] none
 263:../Firmware/GD32VW55x_standard_peripheral/Source/gd32vw55x_i2c.c ****     \retval     none
 264:../Firmware/GD32VW55x_standard_peripheral/Source/gd32vw55x_i2c.c **** */
 265:../Firmware/GD32VW55x_standard_peripheral/Source/gd32vw55x_i2c.c **** void i2c_slave_response_to_gcall_enable(uint32_t i2c_periph)
 266:../Firmware/GD32VW55x_standard_peripheral/Source/gd32vw55x_i2c.c **** {
 644              		.loc 1 266 1
 645              		.cfi_startproc
 646 0000 0111     		addi	sp,sp,-32
 647              		.cfi_def_cfa_offset 32
 648 0002 22CE     		sw	s0,28(sp)
 649              		.cfi_offset 8, -4
 650 0004 0010     		addi	s0,sp,32
 651              		.cfi_def_cfa 8, 0
 652 0006 2326A4FE 		sw	a0,-20(s0)
 267:../Firmware/GD32VW55x_standard_peripheral/Source/gd32vw55x_i2c.c ****     I2C_CTL0(i2c_periph) |= I2C_CTL0_GCEN;
 653              		.loc 1 267 26
 654 000a 8327C4FE 		lw	a5,-20(s0)
 655 000e 9443     		lw	a3,0(a5)
 656 0010 8327C4FE 		lw	a5,-20(s0)
 657 0014 37070800 		li	a4,524288
 658 0018 558F     		or	a4,a3,a4
 659 001a 98C3     		sw	a4,0(a5)
 268:../Firmware/GD32VW55x_standard_peripheral/Source/gd32vw55x_i2c.c **** }
 660              		.loc 1 268 1
 661 001c 0100     		nop
 662 001e 7244     		lw	s0,28(sp)
 663              		.cfi_restore 8
 664              		.cfi_def_cfa 2, 32
 665 0020 0561     		addi	sp,sp,32
 666              		.cfi_def_cfa_offset 0
 667 0022 8280     		jr	ra
 668              		.cfi_endproc
 669              	.LFE360:
 671              		.section	.text.i2c_slave_response_to_gcall_disable,"ax",@progbits
 672              		.align	1
 673              		.globl	i2c_slave_response_to_gcall_disable
 675              	i2c_slave_response_to_gcall_disable:
 676              	.LFB361:
 269:../Firmware/GD32VW55x_standard_peripheral/Source/gd32vw55x_i2c.c **** 
 270:../Firmware/GD32VW55x_standard_peripheral/Source/gd32vw55x_i2c.c **** /*!
 271:../Firmware/GD32VW55x_standard_peripheral/Source/gd32vw55x_i2c.c ****     \brief      disable the response to a general call
 272:../Firmware/GD32VW55x_standard_peripheral/Source/gd32vw55x_i2c.c ****     \param[in]  i2c_periph: I2Cx(x=0,1)
 273:../Firmware/GD32VW55x_standard_peripheral/Source/gd32vw55x_i2c.c ****     \param[out] none
 274:../Firmware/GD32VW55x_standard_peripheral/Source/gd32vw55x_i2c.c ****     \retval     none
 275:../Firmware/GD32VW55x_standard_peripheral/Source/gd32vw55x_i2c.c **** */
 276:../Firmware/GD32VW55x_standard_peripheral/Source/gd32vw55x_i2c.c **** void i2c_slave_response_to_gcall_disable(uint32_t i2c_periph)
 277:../Firmware/GD32VW55x_standard_peripheral/Source/gd32vw55x_i2c.c **** {
 677              		.loc 1 277 1
 678              		.cfi_startproc
 679 0000 0111     		addi	sp,sp,-32
 680              		.cfi_def_cfa_offset 32
 681 0002 22CE     		sw	s0,28(sp)
 682              		.cfi_offset 8, -4
 683 0004 0010     		addi	s0,sp,32
 684              		.cfi_def_cfa 8, 0
 685 0006 2326A4FE 		sw	a0,-20(s0)
 278:../Firmware/GD32VW55x_standard_peripheral/Source/gd32vw55x_i2c.c ****     I2C_CTL0(i2c_periph) &= ~I2C_CTL0_GCEN;
 686              		.loc 1 278 26
 687 000a 8327C4FE 		lw	a5,-20(s0)
 688 000e 9443     		lw	a3,0(a5)
 689 0010 8327C4FE 		lw	a5,-20(s0)
 690 0014 3707F8FF 		li	a4,-524288
 691 0018 7D17     		addi	a4,a4,-1
 692 001a 758F     		and	a4,a3,a4
 693 001c 98C3     		sw	a4,0(a5)
 279:../Firmware/GD32VW55x_standard_peripheral/Source/gd32vw55x_i2c.c **** }
 694              		.loc 1 279 1
 695 001e 0100     		nop
 696 0020 7244     		lw	s0,28(sp)
 697              		.cfi_restore 8
 698              		.cfi_def_cfa 2, 32
 699 0022 0561     		addi	sp,sp,32
 700              		.cfi_def_cfa_offset 0
 701 0024 8280     		jr	ra
 702              		.cfi_endproc
 703              	.LFE361:
 705              		.section	.text.i2c_stretch_scl_low_enable,"ax",@progbits
 706              		.align	1
 707              		.globl	i2c_stretch_scl_low_enable
 709              	i2c_stretch_scl_low_enable:
 710              	.LFB362:
 280:../Firmware/GD32VW55x_standard_peripheral/Source/gd32vw55x_i2c.c **** 
 281:../Firmware/GD32VW55x_standard_peripheral/Source/gd32vw55x_i2c.c **** /*!
 282:../Firmware/GD32VW55x_standard_peripheral/Source/gd32vw55x_i2c.c ****     \brief      enable to stretch SCL low when data is not ready in slave mode
 283:../Firmware/GD32VW55x_standard_peripheral/Source/gd32vw55x_i2c.c ****     \param[in]  i2c_periph: I2Cx(x=0,1)
 284:../Firmware/GD32VW55x_standard_peripheral/Source/gd32vw55x_i2c.c ****     \param[out] none
 285:../Firmware/GD32VW55x_standard_peripheral/Source/gd32vw55x_i2c.c ****     \retval     none
 286:../Firmware/GD32VW55x_standard_peripheral/Source/gd32vw55x_i2c.c **** */
 287:../Firmware/GD32VW55x_standard_peripheral/Source/gd32vw55x_i2c.c **** void i2c_stretch_scl_low_enable(uint32_t i2c_periph)
 288:../Firmware/GD32VW55x_standard_peripheral/Source/gd32vw55x_i2c.c **** {
 711              		.loc 1 288 1
 712              		.cfi_startproc
 713 0000 0111     		addi	sp,sp,-32
 714              		.cfi_def_cfa_offset 32
 715 0002 22CE     		sw	s0,28(sp)
 716              		.cfi_offset 8, -4
 717 0004 0010     		addi	s0,sp,32
 718              		.cfi_def_cfa 8, 0
 719 0006 2326A4FE 		sw	a0,-20(s0)
 289:../Firmware/GD32VW55x_standard_peripheral/Source/gd32vw55x_i2c.c ****     I2C_CTL0(i2c_periph) &= ~I2C_CTL0_SS;
 720              		.loc 1 289 26
 721 000a 8327C4FE 		lw	a5,-20(s0)
 722 000e 9443     		lw	a3,0(a5)
 723 0010 8327C4FE 		lw	a5,-20(s0)
 724 0014 0177     		li	a4,-131072
 725 0016 7D17     		addi	a4,a4,-1
 726 0018 758F     		and	a4,a3,a4
 727 001a 98C3     		sw	a4,0(a5)
 290:../Firmware/GD32VW55x_standard_peripheral/Source/gd32vw55x_i2c.c **** }
 728              		.loc 1 290 1
 729 001c 0100     		nop
 730 001e 7244     		lw	s0,28(sp)
 731              		.cfi_restore 8
 732              		.cfi_def_cfa 2, 32
 733 0020 0561     		addi	sp,sp,32
 734              		.cfi_def_cfa_offset 0
 735 0022 8280     		jr	ra
 736              		.cfi_endproc
 737              	.LFE362:
 739              		.section	.text.i2c_stretch_scl_low_disable,"ax",@progbits
 740              		.align	1
 741              		.globl	i2c_stretch_scl_low_disable
 743              	i2c_stretch_scl_low_disable:
 744              	.LFB363:
 291:../Firmware/GD32VW55x_standard_peripheral/Source/gd32vw55x_i2c.c **** 
 292:../Firmware/GD32VW55x_standard_peripheral/Source/gd32vw55x_i2c.c **** /*!
 293:../Firmware/GD32VW55x_standard_peripheral/Source/gd32vw55x_i2c.c ****     \brief      disable to stretch SCL low when data is not ready in slave mode
 294:../Firmware/GD32VW55x_standard_peripheral/Source/gd32vw55x_i2c.c ****     \param[in]  i2c_periph: I2Cx(x=0,1)
 295:../Firmware/GD32VW55x_standard_peripheral/Source/gd32vw55x_i2c.c ****     \param[out] none
 296:../Firmware/GD32VW55x_standard_peripheral/Source/gd32vw55x_i2c.c ****     \retval     none
 297:../Firmware/GD32VW55x_standard_peripheral/Source/gd32vw55x_i2c.c **** */
 298:../Firmware/GD32VW55x_standard_peripheral/Source/gd32vw55x_i2c.c **** void i2c_stretch_scl_low_disable(uint32_t i2c_periph)
 299:../Firmware/GD32VW55x_standard_peripheral/Source/gd32vw55x_i2c.c **** {
 745              		.loc 1 299 1
 746              		.cfi_startproc
 747 0000 0111     		addi	sp,sp,-32
 748              		.cfi_def_cfa_offset 32
 749 0002 22CE     		sw	s0,28(sp)
 750              		.cfi_offset 8, -4
 751 0004 0010     		addi	s0,sp,32
 752              		.cfi_def_cfa 8, 0
 753 0006 2326A4FE 		sw	a0,-20(s0)
 300:../Firmware/GD32VW55x_standard_peripheral/Source/gd32vw55x_i2c.c ****     I2C_CTL0(i2c_periph) |= I2C_CTL0_SS;
 754              		.loc 1 300 26
 755 000a 8327C4FE 		lw	a5,-20(s0)
 756 000e 9443     		lw	a3,0(a5)
 757 0010 8327C4FE 		lw	a5,-20(s0)
 758 0014 37070200 		li	a4,131072
 759 0018 558F     		or	a4,a3,a4
 760 001a 98C3     		sw	a4,0(a5)
 301:../Firmware/GD32VW55x_standard_peripheral/Source/gd32vw55x_i2c.c **** }
 761              		.loc 1 301 1
 762 001c 0100     		nop
 763 001e 7244     		lw	s0,28(sp)
 764              		.cfi_restore 8
 765              		.cfi_def_cfa 2, 32
 766 0020 0561     		addi	sp,sp,32
 767              		.cfi_def_cfa_offset 0
 768 0022 8280     		jr	ra
 769              		.cfi_endproc
 770              	.LFE363:
 772              		.section	.text.i2c_address_config,"ax",@progbits
 773              		.align	1
 774              		.globl	i2c_address_config
 776              	i2c_address_config:
 777              	.LFB364:
 302:../Firmware/GD32VW55x_standard_peripheral/Source/gd32vw55x_i2c.c **** 
 303:../Firmware/GD32VW55x_standard_peripheral/Source/gd32vw55x_i2c.c **** /*!
 304:../Firmware/GD32VW55x_standard_peripheral/Source/gd32vw55x_i2c.c ****     \brief      configure I2C slave address
 305:../Firmware/GD32VW55x_standard_peripheral/Source/gd32vw55x_i2c.c ****     \param[in]  i2c_periph: I2Cx(x=0,1)
 306:../Firmware/GD32VW55x_standard_peripheral/Source/gd32vw55x_i2c.c ****     \param[in]  address: I2C address
 307:../Firmware/GD32VW55x_standard_peripheral/Source/gd32vw55x_i2c.c ****     \param[in]  addr_format: 7bits or 10bits
 308:../Firmware/GD32VW55x_standard_peripheral/Source/gd32vw55x_i2c.c ****                 only one parameter can be selected which is shown as below:
 309:../Firmware/GD32VW55x_standard_peripheral/Source/gd32vw55x_i2c.c ****       \arg        I2C_ADDFORMAT_7BITS: address format is 7 bits
 310:../Firmware/GD32VW55x_standard_peripheral/Source/gd32vw55x_i2c.c ****       \arg        I2C_ADDFORMAT_10BITS: address format is 10 bits
 311:../Firmware/GD32VW55x_standard_peripheral/Source/gd32vw55x_i2c.c ****     \param[out] none
 312:../Firmware/GD32VW55x_standard_peripheral/Source/gd32vw55x_i2c.c ****     \retval     none
 313:../Firmware/GD32VW55x_standard_peripheral/Source/gd32vw55x_i2c.c **** */
 314:../Firmware/GD32VW55x_standard_peripheral/Source/gd32vw55x_i2c.c **** void i2c_address_config(uint32_t i2c_periph, uint32_t address, uint32_t addr_format)
 315:../Firmware/GD32VW55x_standard_peripheral/Source/gd32vw55x_i2c.c **** {
 778              		.loc 1 315 1
 779              		.cfi_startproc
 780 0000 0111     		addi	sp,sp,-32
 781              		.cfi_def_cfa_offset 32
 782 0002 22CE     		sw	s0,28(sp)
 783              		.cfi_offset 8, -4
 784 0004 0010     		addi	s0,sp,32
 785              		.cfi_def_cfa 8, 0
 786 0006 2326A4FE 		sw	a0,-20(s0)
 787 000a 2324B4FE 		sw	a1,-24(s0)
 788 000e 2322C4FE 		sw	a2,-28(s0)
 316:../Firmware/GD32VW55x_standard_peripheral/Source/gd32vw55x_i2c.c ****     /* configure ADDRESS[7:1] and address format */
 317:../Firmware/GD32VW55x_standard_peripheral/Source/gd32vw55x_i2c.c ****     address = address & I2C_ADDRESS_MASK;
 789              		.loc 1 317 13
 790 0012 832784FE 		lw	a5,-24(s0)
 791 0016 93F7F73F 		andi	a5,a5,1023
 792 001a 2324F4FE 		sw	a5,-24(s0)
 318:../Firmware/GD32VW55x_standard_peripheral/Source/gd32vw55x_i2c.c ****     I2C_SADDR0(i2c_periph) = (addr_format | address);
 793              		.loc 1 318 5
 794 001e 8327C4FE 		lw	a5,-20(s0)
 795 0022 A107     		addi	a5,a5,8
 796 0024 BE86     		mv	a3,a5
 797              		.loc 1 318 43
 798 0026 032744FE 		lw	a4,-28(s0)
 799 002a 832784FE 		lw	a5,-24(s0)
 800 002e D98F     		or	a5,a4,a5
 801              		.loc 1 318 28
 802 0030 9CC2     		sw	a5,0(a3)
 319:../Firmware/GD32VW55x_standard_peripheral/Source/gd32vw55x_i2c.c ****     /* enable I2C address in slave mode */
 320:../Firmware/GD32VW55x_standard_peripheral/Source/gd32vw55x_i2c.c ****     I2C_SADDR0(i2c_periph) |= I2C_SADDR0_ADDRESSEN;
 803              		.loc 1 320 28
 804 0032 8327C4FE 		lw	a5,-20(s0)
 805 0036 A107     		addi	a5,a5,8
 806 0038 9843     		lw	a4,0(a5)
 807 003a 8327C4FE 		lw	a5,-20(s0)
 808 003e A107     		addi	a5,a5,8
 809 0040 BE86     		mv	a3,a5
 810 0042 A167     		li	a5,32768
 811 0044 D98F     		or	a5,a4,a5
 812 0046 9CC2     		sw	a5,0(a3)
 321:../Firmware/GD32VW55x_standard_peripheral/Source/gd32vw55x_i2c.c **** }
 813              		.loc 1 321 1
 814 0048 0100     		nop
 815 004a 7244     		lw	s0,28(sp)
 816              		.cfi_restore 8
 817              		.cfi_def_cfa 2, 32
 818 004c 0561     		addi	sp,sp,32
 819              		.cfi_def_cfa_offset 0
 820 004e 8280     		jr	ra
 821              		.cfi_endproc
 822              	.LFE364:
 824              		.section	.text.i2c_address_bit_compare_config,"ax",@progbits
 825              		.align	1
 826              		.globl	i2c_address_bit_compare_config
 828              	i2c_address_bit_compare_config:
 829              	.LFB365:
 322:../Firmware/GD32VW55x_standard_peripheral/Source/gd32vw55x_i2c.c **** 
 323:../Firmware/GD32VW55x_standard_peripheral/Source/gd32vw55x_i2c.c **** /*!
 324:../Firmware/GD32VW55x_standard_peripheral/Source/gd32vw55x_i2c.c ****     \brief      define which bits of ADDRESS[7:1] need to compare with the incoming address byte
 325:../Firmware/GD32VW55x_standard_peripheral/Source/gd32vw55x_i2c.c ****     \param[in]  i2c_periph: I2Cx(x=0,1)
 326:../Firmware/GD32VW55x_standard_peripheral/Source/gd32vw55x_i2c.c ****     \param[in]  compare_bits: the bits need to compare
 327:../Firmware/GD32VW55x_standard_peripheral/Source/gd32vw55x_i2c.c ****                 one or more parameters can be selected which are shown as below:
 328:../Firmware/GD32VW55x_standard_peripheral/Source/gd32vw55x_i2c.c ****                 ADDRESS_NO_BIT_COMPARE: all the address bits are masked
 329:../Firmware/GD32VW55x_standard_peripheral/Source/gd32vw55x_i2c.c ****                 ADDRESS_BIT1_COMPARE: address bit1 needs compare
 330:../Firmware/GD32VW55x_standard_peripheral/Source/gd32vw55x_i2c.c ****                 ADDRESS_BIT2_COMPARE: address bit2 needs compare
 331:../Firmware/GD32VW55x_standard_peripheral/Source/gd32vw55x_i2c.c ****                 ADDRESS_BIT3_COMPARE: address bit3 needs compare
 332:../Firmware/GD32VW55x_standard_peripheral/Source/gd32vw55x_i2c.c ****                 ADDRESS_BIT4_COMPARE: address bit4 needs compare
 333:../Firmware/GD32VW55x_standard_peripheral/Source/gd32vw55x_i2c.c ****                 ADDRESS_BIT5_COMPARE: address bit5 needs compare
 334:../Firmware/GD32VW55x_standard_peripheral/Source/gd32vw55x_i2c.c ****                 ADDRESS_BIT6_COMPARE: address bit6 needs compare
 335:../Firmware/GD32VW55x_standard_peripheral/Source/gd32vw55x_i2c.c ****                 ADDRESS_BIT7_COMPARE: address bit7 needs compare
 336:../Firmware/GD32VW55x_standard_peripheral/Source/gd32vw55x_i2c.c ****                 ADDRESS_ALL_BITS_COMPARE: all the bits must be compared
 337:../Firmware/GD32VW55x_standard_peripheral/Source/gd32vw55x_i2c.c ****     \param[out] none
 338:../Firmware/GD32VW55x_standard_peripheral/Source/gd32vw55x_i2c.c ****     \retval     none
 339:../Firmware/GD32VW55x_standard_peripheral/Source/gd32vw55x_i2c.c **** */
 340:../Firmware/GD32VW55x_standard_peripheral/Source/gd32vw55x_i2c.c **** void i2c_address_bit_compare_config(uint32_t i2c_periph, uint32_t compare_bits)
 341:../Firmware/GD32VW55x_standard_peripheral/Source/gd32vw55x_i2c.c **** {
 830              		.loc 1 341 1
 831              		.cfi_startproc
 832 0000 0111     		addi	sp,sp,-32
 833              		.cfi_def_cfa_offset 32
 834 0002 22CE     		sw	s0,28(sp)
 835              		.cfi_offset 8, -4
 836 0004 0010     		addi	s0,sp,32
 837              		.cfi_def_cfa 8, 0
 838 0006 2326A4FE 		sw	a0,-20(s0)
 839 000a 2324B4FE 		sw	a1,-24(s0)
 342:../Firmware/GD32VW55x_standard_peripheral/Source/gd32vw55x_i2c.c ****     I2C_CTL2(i2c_periph) &= ~I2C_CTL2_ADDM;
 840              		.loc 1 342 26
 841 000e 8327C4FE 		lw	a5,-20(s0)
 842 0012 93870709 		addi	a5,a5,144
 843 0016 9843     		lw	a4,0(a5)
 844 0018 8327C4FE 		lw	a5,-20(s0)
 845 001c 93870709 		addi	a5,a5,144
 846 0020 BE86     		mv	a3,a5
 847 0022 C177     		li	a5,-65536
 848 0024 9387F71F 		addi	a5,a5,511
 849 0028 F98F     		and	a5,a4,a5
 850 002a 9CC2     		sw	a5,0(a3)
 343:../Firmware/GD32VW55x_standard_peripheral/Source/gd32vw55x_i2c.c ****     I2C_CTL2(i2c_periph) |= compare_bits;
 851              		.loc 1 343 26
 852 002c 8327C4FE 		lw	a5,-20(s0)
 853 0030 93870709 		addi	a5,a5,144
 854 0034 9843     		lw	a4,0(a5)
 855 0036 8327C4FE 		lw	a5,-20(s0)
 856 003a 93870709 		addi	a5,a5,144
 857 003e BE86     		mv	a3,a5
 858 0040 832784FE 		lw	a5,-24(s0)
 859 0044 D98F     		or	a5,a4,a5
 860 0046 9CC2     		sw	a5,0(a3)
 344:../Firmware/GD32VW55x_standard_peripheral/Source/gd32vw55x_i2c.c **** }
 861              		.loc 1 344 1
 862 0048 0100     		nop
 863 004a 7244     		lw	s0,28(sp)
 864              		.cfi_restore 8
 865              		.cfi_def_cfa 2, 32
 866 004c 0561     		addi	sp,sp,32
 867              		.cfi_def_cfa_offset 0
 868 004e 8280     		jr	ra
 869              		.cfi_endproc
 870              	.LFE365:
 872              		.section	.text.i2c_address_disable,"ax",@progbits
 873              		.align	1
 874              		.globl	i2c_address_disable
 876              	i2c_address_disable:
 877              	.LFB366:
 345:../Firmware/GD32VW55x_standard_peripheral/Source/gd32vw55x_i2c.c **** 
 346:../Firmware/GD32VW55x_standard_peripheral/Source/gd32vw55x_i2c.c **** /*!
 347:../Firmware/GD32VW55x_standard_peripheral/Source/gd32vw55x_i2c.c ****     \brief      disable I2C address in slave mode
 348:../Firmware/GD32VW55x_standard_peripheral/Source/gd32vw55x_i2c.c ****     \param[in]  i2c_periph: I2Cx(x=0,1)
 349:../Firmware/GD32VW55x_standard_peripheral/Source/gd32vw55x_i2c.c ****     \param[out] none
 350:../Firmware/GD32VW55x_standard_peripheral/Source/gd32vw55x_i2c.c ****     \retval     none
 351:../Firmware/GD32VW55x_standard_peripheral/Source/gd32vw55x_i2c.c **** */
 352:../Firmware/GD32VW55x_standard_peripheral/Source/gd32vw55x_i2c.c **** void i2c_address_disable(uint32_t i2c_periph)
 353:../Firmware/GD32VW55x_standard_peripheral/Source/gd32vw55x_i2c.c **** {
 878              		.loc 1 353 1
 879              		.cfi_startproc
 880 0000 0111     		addi	sp,sp,-32
 881              		.cfi_def_cfa_offset 32
 882 0002 22CE     		sw	s0,28(sp)
 883              		.cfi_offset 8, -4
 884 0004 0010     		addi	s0,sp,32
 885              		.cfi_def_cfa 8, 0
 886 0006 2326A4FE 		sw	a0,-20(s0)
 354:../Firmware/GD32VW55x_standard_peripheral/Source/gd32vw55x_i2c.c ****     I2C_SADDR0(i2c_periph) &= ~I2C_SADDR0_ADDRESSEN;
 887              		.loc 1 354 28
 888 000a 8327C4FE 		lw	a5,-20(s0)
 889 000e A107     		addi	a5,a5,8
 890 0010 9843     		lw	a4,0(a5)
 891 0012 8327C4FE 		lw	a5,-20(s0)
 892 0016 A107     		addi	a5,a5,8
 893 0018 BE86     		mv	a3,a5
 894 001a E177     		li	a5,-32768
 895 001c FD17     		addi	a5,a5,-1
 896 001e F98F     		and	a5,a4,a5
 897 0020 9CC2     		sw	a5,0(a3)
 355:../Firmware/GD32VW55x_standard_peripheral/Source/gd32vw55x_i2c.c **** }
 898              		.loc 1 355 1
 899 0022 0100     		nop
 900 0024 7244     		lw	s0,28(sp)
 901              		.cfi_restore 8
 902              		.cfi_def_cfa 2, 32
 903 0026 0561     		addi	sp,sp,32
 904              		.cfi_def_cfa_offset 0
 905 0028 8280     		jr	ra
 906              		.cfi_endproc
 907              	.LFE366:
 909              		.section	.text.i2c_second_address_config,"ax",@progbits
 910              		.align	1
 911              		.globl	i2c_second_address_config
 913              	i2c_second_address_config:
 914              	.LFB367:
 356:../Firmware/GD32VW55x_standard_peripheral/Source/gd32vw55x_i2c.c **** 
 357:../Firmware/GD32VW55x_standard_peripheral/Source/gd32vw55x_i2c.c **** /*!
 358:../Firmware/GD32VW55x_standard_peripheral/Source/gd32vw55x_i2c.c ****     \brief      configure I2C second slave address
 359:../Firmware/GD32VW55x_standard_peripheral/Source/gd32vw55x_i2c.c ****     \param[in]  i2c_periph: I2Cx(x=0,1)
 360:../Firmware/GD32VW55x_standard_peripheral/Source/gd32vw55x_i2c.c ****     \param[in]  address: I2C address
 361:../Firmware/GD32VW55x_standard_peripheral/Source/gd32vw55x_i2c.c ****     \param[in]  addr_mask: the bits not need to compare
 362:../Firmware/GD32VW55x_standard_peripheral/Source/gd32vw55x_i2c.c ****                 one or more parameters can be selected which are shown as below:
 363:../Firmware/GD32VW55x_standard_peripheral/Source/gd32vw55x_i2c.c ****       \arg        ADDRESS2_NO_MASK: no mask, all the bits must be compared
 364:../Firmware/GD32VW55x_standard_peripheral/Source/gd32vw55x_i2c.c ****       \arg        ADDRESS2_MASK_BIT1: ADDRESS2[1] is masked, only ADDRESS2[7:2] are compared
 365:../Firmware/GD32VW55x_standard_peripheral/Source/gd32vw55x_i2c.c ****       \arg        ADDRESS2_MASK_BIT1_2: ADDRESS2[2:1] is masked, only ADDRESS2[7:3] are compared
 366:../Firmware/GD32VW55x_standard_peripheral/Source/gd32vw55x_i2c.c ****       \arg        ADDRESS2_MASK_BIT1_3: ADDRESS2[3:1] is masked, only ADDRESS2[7:4] are compared
 367:../Firmware/GD32VW55x_standard_peripheral/Source/gd32vw55x_i2c.c ****       \arg        ADDRESS2_MASK_BIT1_4: ADDRESS2[4:1] is masked, only ADDRESS2[7:5] are compared
 368:../Firmware/GD32VW55x_standard_peripheral/Source/gd32vw55x_i2c.c ****       \arg        ADDRESS2_MASK_BIT1_5: ADDRESS2[5:1] is masked, only ADDRESS2[7:6] are compared
 369:../Firmware/GD32VW55x_standard_peripheral/Source/gd32vw55x_i2c.c ****       \arg        ADDRESS2_MASK_BIT1_6: ADDRESS2[6:1] is masked, only ADDRESS2[7] are compared
 370:../Firmware/GD32VW55x_standard_peripheral/Source/gd32vw55x_i2c.c ****       \arg        ADDRESS2_MASK_ALL: all the ADDRESS2[7:1] bits are masked
 371:../Firmware/GD32VW55x_standard_peripheral/Source/gd32vw55x_i2c.c ****     \param[out] none
 372:../Firmware/GD32VW55x_standard_peripheral/Source/gd32vw55x_i2c.c ****     \retval     none
 373:../Firmware/GD32VW55x_standard_peripheral/Source/gd32vw55x_i2c.c **** */
 374:../Firmware/GD32VW55x_standard_peripheral/Source/gd32vw55x_i2c.c **** void i2c_second_address_config(uint32_t i2c_periph, uint32_t address, uint32_t addr_mask)
 375:../Firmware/GD32VW55x_standard_peripheral/Source/gd32vw55x_i2c.c **** {
 915              		.loc 1 375 1
 916              		.cfi_startproc
 917 0000 0111     		addi	sp,sp,-32
 918              		.cfi_def_cfa_offset 32
 919 0002 22CE     		sw	s0,28(sp)
 920              		.cfi_offset 8, -4
 921 0004 0010     		addi	s0,sp,32
 922              		.cfi_def_cfa 8, 0
 923 0006 2326A4FE 		sw	a0,-20(s0)
 924 000a 2324B4FE 		sw	a1,-24(s0)
 925 000e 2322C4FE 		sw	a2,-28(s0)
 376:../Firmware/GD32VW55x_standard_peripheral/Source/gd32vw55x_i2c.c ****     /* configure ADDRESS2[7:1] */
 377:../Firmware/GD32VW55x_standard_peripheral/Source/gd32vw55x_i2c.c ****     address = address & I2C_ADDRESS2_MASK;
 926              		.loc 1 377 13
 927 0012 832784FE 		lw	a5,-24(s0)
 928 0016 93F7E70F 		andi	a5,a5,254
 929 001a 2324F4FE 		sw	a5,-24(s0)
 378:../Firmware/GD32VW55x_standard_peripheral/Source/gd32vw55x_i2c.c ****     I2C_SADDR1(i2c_periph) |= address;
 930              		.loc 1 378 28
 931 001e 8327C4FE 		lw	a5,-20(s0)
 932 0022 B107     		addi	a5,a5,12
 933 0024 9843     		lw	a4,0(a5)
 934 0026 8327C4FE 		lw	a5,-20(s0)
 935 002a B107     		addi	a5,a5,12
 936 002c BE86     		mv	a3,a5
 937 002e 832784FE 		lw	a5,-24(s0)
 938 0032 D98F     		or	a5,a4,a5
 939 0034 9CC2     		sw	a5,0(a3)
 379:../Firmware/GD32VW55x_standard_peripheral/Source/gd32vw55x_i2c.c ****     /* configure ADDRESS2[7:1] mask */
 380:../Firmware/GD32VW55x_standard_peripheral/Source/gd32vw55x_i2c.c ****     I2C_SADDR1(i2c_periph) &= ~I2C_SADDR1_ADDMSK2;
 940              		.loc 1 380 28
 941 0036 8327C4FE 		lw	a5,-20(s0)
 942 003a B107     		addi	a5,a5,12
 943 003c 9C43     		lw	a5,0(a5)
 944 003e 0327C4FE 		lw	a4,-20(s0)
 945 0042 3107     		addi	a4,a4,12
 946 0044 93F7F78F 		andi	a5,a5,-1793
 947 0048 1CC3     		sw	a5,0(a4)
 381:../Firmware/GD32VW55x_standard_peripheral/Source/gd32vw55x_i2c.c ****     I2C_SADDR1(i2c_periph) |= (uint32_t)(addr_mask << SADDR1_ADDMSK_OFFSET);
 948              		.loc 1 381 28
 949 004a 8327C4FE 		lw	a5,-20(s0)
 950 004e B107     		addi	a5,a5,12
 951 0050 9843     		lw	a4,0(a5)
 952              		.loc 1 381 52
 953 0052 832744FE 		lw	a5,-28(s0)
 954 0056 A207     		slli	a5,a5,8
 955              		.loc 1 381 28
 956 0058 8326C4FE 		lw	a3,-20(s0)
 957 005c B106     		addi	a3,a3,12
 958 005e D98F     		or	a5,a4,a5
 959 0060 9CC2     		sw	a5,0(a3)
 382:../Firmware/GD32VW55x_standard_peripheral/Source/gd32vw55x_i2c.c ****     /* enable i2c second address in slave mode */
 383:../Firmware/GD32VW55x_standard_peripheral/Source/gd32vw55x_i2c.c ****     I2C_SADDR1(i2c_periph) |= I2C_SADDR1_ADDRESS2EN;
 960              		.loc 1 383 28
 961 0062 8327C4FE 		lw	a5,-20(s0)
 962 0066 B107     		addi	a5,a5,12
 963 0068 9843     		lw	a4,0(a5)
 964 006a 8327C4FE 		lw	a5,-20(s0)
 965 006e B107     		addi	a5,a5,12
 966 0070 BE86     		mv	a3,a5
 967 0072 A167     		li	a5,32768
 968 0074 D98F     		or	a5,a4,a5
 969 0076 9CC2     		sw	a5,0(a3)
 384:../Firmware/GD32VW55x_standard_peripheral/Source/gd32vw55x_i2c.c **** }
 970              		.loc 1 384 1
 971 0078 0100     		nop
 972 007a 7244     		lw	s0,28(sp)
 973              		.cfi_restore 8
 974              		.cfi_def_cfa 2, 32
 975 007c 0561     		addi	sp,sp,32
 976              		.cfi_def_cfa_offset 0
 977 007e 8280     		jr	ra
 978              		.cfi_endproc
 979              	.LFE367:
 981              		.section	.text.i2c_second_address_disable,"ax",@progbits
 982              		.align	1
 983              		.globl	i2c_second_address_disable
 985              	i2c_second_address_disable:
 986              	.LFB368:
 385:../Firmware/GD32VW55x_standard_peripheral/Source/gd32vw55x_i2c.c **** 
 386:../Firmware/GD32VW55x_standard_peripheral/Source/gd32vw55x_i2c.c **** /*!
 387:../Firmware/GD32VW55x_standard_peripheral/Source/gd32vw55x_i2c.c ****     \brief      disable I2C second address in slave mode
 388:../Firmware/GD32VW55x_standard_peripheral/Source/gd32vw55x_i2c.c ****     \param[in]  i2c_periph: I2Cx(x=0,1)
 389:../Firmware/GD32VW55x_standard_peripheral/Source/gd32vw55x_i2c.c ****     \param[out] none
 390:../Firmware/GD32VW55x_standard_peripheral/Source/gd32vw55x_i2c.c ****     \retval     none
 391:../Firmware/GD32VW55x_standard_peripheral/Source/gd32vw55x_i2c.c **** */
 392:../Firmware/GD32VW55x_standard_peripheral/Source/gd32vw55x_i2c.c **** void i2c_second_address_disable(uint32_t i2c_periph)
 393:../Firmware/GD32VW55x_standard_peripheral/Source/gd32vw55x_i2c.c **** {
 987              		.loc 1 393 1
 988              		.cfi_startproc
 989 0000 0111     		addi	sp,sp,-32
 990              		.cfi_def_cfa_offset 32
 991 0002 22CE     		sw	s0,28(sp)
 992              		.cfi_offset 8, -4
 993 0004 0010     		addi	s0,sp,32
 994              		.cfi_def_cfa 8, 0
 995 0006 2326A4FE 		sw	a0,-20(s0)
 394:../Firmware/GD32VW55x_standard_peripheral/Source/gd32vw55x_i2c.c ****     I2C_SADDR1(i2c_periph) &= ~I2C_SADDR1_ADDRESS2EN;
 996              		.loc 1 394 28
 997 000a 8327C4FE 		lw	a5,-20(s0)
 998 000e B107     		addi	a5,a5,12
 999 0010 9843     		lw	a4,0(a5)
 1000 0012 8327C4FE 		lw	a5,-20(s0)
 1001 0016 B107     		addi	a5,a5,12
 1002 0018 BE86     		mv	a3,a5
 1003 001a E177     		li	a5,-32768
 1004 001c FD17     		addi	a5,a5,-1
 1005 001e F98F     		and	a5,a4,a5
 1006 0020 9CC2     		sw	a5,0(a3)
 395:../Firmware/GD32VW55x_standard_peripheral/Source/gd32vw55x_i2c.c **** }
 1007              		.loc 1 395 1
 1008 0022 0100     		nop
 1009 0024 7244     		lw	s0,28(sp)
 1010              		.cfi_restore 8
 1011              		.cfi_def_cfa 2, 32
 1012 0026 0561     		addi	sp,sp,32
 1013              		.cfi_def_cfa_offset 0
 1014 0028 8280     		jr	ra
 1015              		.cfi_endproc
 1016              	.LFE368:
 1018              		.section	.text.i2c_recevied_address_get,"ax",@progbits
 1019              		.align	1
 1020              		.globl	i2c_recevied_address_get
 1022              	i2c_recevied_address_get:
 1023              	.LFB369:
 396:../Firmware/GD32VW55x_standard_peripheral/Source/gd32vw55x_i2c.c **** 
 397:../Firmware/GD32VW55x_standard_peripheral/Source/gd32vw55x_i2c.c **** /*!
 398:../Firmware/GD32VW55x_standard_peripheral/Source/gd32vw55x_i2c.c ****     \brief      get received match address in slave mode
 399:../Firmware/GD32VW55x_standard_peripheral/Source/gd32vw55x_i2c.c ****     \param[in]  i2c_periph: I2Cx(x=0,1)
 400:../Firmware/GD32VW55x_standard_peripheral/Source/gd32vw55x_i2c.c ****     \param[out] none
 401:../Firmware/GD32VW55x_standard_peripheral/Source/gd32vw55x_i2c.c ****     \retval     received match address
 402:../Firmware/GD32VW55x_standard_peripheral/Source/gd32vw55x_i2c.c **** */
 403:../Firmware/GD32VW55x_standard_peripheral/Source/gd32vw55x_i2c.c **** uint32_t i2c_recevied_address_get(uint32_t i2c_periph)
 404:../Firmware/GD32VW55x_standard_peripheral/Source/gd32vw55x_i2c.c **** {
 1024              		.loc 1 404 1
 1025              		.cfi_startproc
 1026 0000 0111     		addi	sp,sp,-32
 1027              		.cfi_def_cfa_offset 32
 1028 0002 22CE     		sw	s0,28(sp)
 1029              		.cfi_offset 8, -4
 1030 0004 0010     		addi	s0,sp,32
 1031              		.cfi_def_cfa 8, 0
 1032 0006 2326A4FE 		sw	a0,-20(s0)
 405:../Firmware/GD32VW55x_standard_peripheral/Source/gd32vw55x_i2c.c ****     return (uint32_t)((I2C_STAT(i2c_periph) & I2C_STAT_READDR) >> STAT_READDR_OFFSET);
 1033              		.loc 1 405 24
 1034 000a 8327C4FE 		lw	a5,-20(s0)
 1035 000e E107     		addi	a5,a5,24
 1036 0010 9C43     		lw	a5,0(a5)
 1037              		.loc 1 405 12
 1038 0012 C583     		srli	a5,a5,17
 1039 0014 93F7F707 		andi	a5,a5,127
 406:../Firmware/GD32VW55x_standard_peripheral/Source/gd32vw55x_i2c.c **** }
 1040              		.loc 1 406 1
 1041 0018 3E85     		mv	a0,a5
 1042 001a 7244     		lw	s0,28(sp)
 1043              		.cfi_restore 8
 1044              		.cfi_def_cfa 2, 32
 1045 001c 0561     		addi	sp,sp,32
 1046              		.cfi_def_cfa_offset 0
 1047 001e 8280     		jr	ra
 1048              		.cfi_endproc
 1049              	.LFE369:
 1051              		.section	.text.i2c_slave_byte_control_enable,"ax",@progbits
 1052              		.align	1
 1053              		.globl	i2c_slave_byte_control_enable
 1055              	i2c_slave_byte_control_enable:
 1056              	.LFB370:
 407:../Firmware/GD32VW55x_standard_peripheral/Source/gd32vw55x_i2c.c **** 
 408:../Firmware/GD32VW55x_standard_peripheral/Source/gd32vw55x_i2c.c **** /*!
 409:../Firmware/GD32VW55x_standard_peripheral/Source/gd32vw55x_i2c.c ****     \brief      enable slave byte control
 410:../Firmware/GD32VW55x_standard_peripheral/Source/gd32vw55x_i2c.c ****     \param[in]  i2c_periph: I2Cx(x=0,1)
 411:../Firmware/GD32VW55x_standard_peripheral/Source/gd32vw55x_i2c.c ****     \param[out] none
 412:../Firmware/GD32VW55x_standard_peripheral/Source/gd32vw55x_i2c.c ****     \retval     none
 413:../Firmware/GD32VW55x_standard_peripheral/Source/gd32vw55x_i2c.c **** */
 414:../Firmware/GD32VW55x_standard_peripheral/Source/gd32vw55x_i2c.c **** void i2c_slave_byte_control_enable(uint32_t i2c_periph)
 415:../Firmware/GD32VW55x_standard_peripheral/Source/gd32vw55x_i2c.c **** {
 1057              		.loc 1 415 1
 1058              		.cfi_startproc
 1059 0000 0111     		addi	sp,sp,-32
 1060              		.cfi_def_cfa_offset 32
 1061 0002 22CE     		sw	s0,28(sp)
 1062              		.cfi_offset 8, -4
 1063 0004 0010     		addi	s0,sp,32
 1064              		.cfi_def_cfa 8, 0
 1065 0006 2326A4FE 		sw	a0,-20(s0)
 416:../Firmware/GD32VW55x_standard_peripheral/Source/gd32vw55x_i2c.c ****     I2C_CTL0(i2c_periph) |= I2C_CTL0_SBCTL;
 1066              		.loc 1 416 26
 1067 000a 8327C4FE 		lw	a5,-20(s0)
 1068 000e 9443     		lw	a3,0(a5)
 1069 0010 8327C4FE 		lw	a5,-20(s0)
 1070 0014 4167     		li	a4,65536
 1071 0016 558F     		or	a4,a3,a4
 1072 0018 98C3     		sw	a4,0(a5)
 417:../Firmware/GD32VW55x_standard_peripheral/Source/gd32vw55x_i2c.c **** }
 1073              		.loc 1 417 1
 1074 001a 0100     		nop
 1075 001c 7244     		lw	s0,28(sp)
 1076              		.cfi_restore 8
 1077              		.cfi_def_cfa 2, 32
 1078 001e 0561     		addi	sp,sp,32
 1079              		.cfi_def_cfa_offset 0
 1080 0020 8280     		jr	ra
 1081              		.cfi_endproc
 1082              	.LFE370:
 1084              		.section	.text.i2c_slave_byte_control_disable,"ax",@progbits
 1085              		.align	1
 1086              		.globl	i2c_slave_byte_control_disable
 1088              	i2c_slave_byte_control_disable:
 1089              	.LFB371:
 418:../Firmware/GD32VW55x_standard_peripheral/Source/gd32vw55x_i2c.c **** 
 419:../Firmware/GD32VW55x_standard_peripheral/Source/gd32vw55x_i2c.c **** /*!
 420:../Firmware/GD32VW55x_standard_peripheral/Source/gd32vw55x_i2c.c ****     \brief      disable slave byte control
 421:../Firmware/GD32VW55x_standard_peripheral/Source/gd32vw55x_i2c.c ****     \param[in]  i2c_periph: I2Cx(x=0,1)
 422:../Firmware/GD32VW55x_standard_peripheral/Source/gd32vw55x_i2c.c ****     \param[out] none
 423:../Firmware/GD32VW55x_standard_peripheral/Source/gd32vw55x_i2c.c ****     \retval     none
 424:../Firmware/GD32VW55x_standard_peripheral/Source/gd32vw55x_i2c.c **** */
 425:../Firmware/GD32VW55x_standard_peripheral/Source/gd32vw55x_i2c.c **** void i2c_slave_byte_control_disable(uint32_t i2c_periph)
 426:../Firmware/GD32VW55x_standard_peripheral/Source/gd32vw55x_i2c.c **** {
 1090              		.loc 1 426 1
 1091              		.cfi_startproc
 1092 0000 0111     		addi	sp,sp,-32
 1093              		.cfi_def_cfa_offset 32
 1094 0002 22CE     		sw	s0,28(sp)
 1095              		.cfi_offset 8, -4
 1096 0004 0010     		addi	s0,sp,32
 1097              		.cfi_def_cfa 8, 0
 1098 0006 2326A4FE 		sw	a0,-20(s0)
 427:../Firmware/GD32VW55x_standard_peripheral/Source/gd32vw55x_i2c.c ****     I2C_CTL0(i2c_periph) &= ~I2C_CTL0_SBCTL;
 1099              		.loc 1 427 26
 1100 000a 8327C4FE 		lw	a5,-20(s0)
 1101 000e 9443     		lw	a3,0(a5)
 1102 0010 8327C4FE 		lw	a5,-20(s0)
 1103 0014 4177     		li	a4,-65536
 1104 0016 7D17     		addi	a4,a4,-1
 1105 0018 758F     		and	a4,a3,a4
 1106 001a 98C3     		sw	a4,0(a5)
 428:../Firmware/GD32VW55x_standard_peripheral/Source/gd32vw55x_i2c.c **** }
 1107              		.loc 1 428 1
 1108 001c 0100     		nop
 1109 001e 7244     		lw	s0,28(sp)
 1110              		.cfi_restore 8
 1111              		.cfi_def_cfa 2, 32
 1112 0020 0561     		addi	sp,sp,32
 1113              		.cfi_def_cfa_offset 0
 1114 0022 8280     		jr	ra
 1115              		.cfi_endproc
 1116              	.LFE371:
 1118              		.section	.text.i2c_nack_enable,"ax",@progbits
 1119              		.align	1
 1120              		.globl	i2c_nack_enable
 1122              	i2c_nack_enable:
 1123              	.LFB372:
 429:../Firmware/GD32VW55x_standard_peripheral/Source/gd32vw55x_i2c.c **** 
 430:../Firmware/GD32VW55x_standard_peripheral/Source/gd32vw55x_i2c.c **** /*!
 431:../Firmware/GD32VW55x_standard_peripheral/Source/gd32vw55x_i2c.c ****     \brief      generate a NACK in slave mode
 432:../Firmware/GD32VW55x_standard_peripheral/Source/gd32vw55x_i2c.c ****     \param[in]  i2c_periph: I2Cx(x=0,1)
 433:../Firmware/GD32VW55x_standard_peripheral/Source/gd32vw55x_i2c.c ****     \param[out] none
 434:../Firmware/GD32VW55x_standard_peripheral/Source/gd32vw55x_i2c.c ****     \retval     none
 435:../Firmware/GD32VW55x_standard_peripheral/Source/gd32vw55x_i2c.c **** */
 436:../Firmware/GD32VW55x_standard_peripheral/Source/gd32vw55x_i2c.c **** void i2c_nack_enable(uint32_t i2c_periph)
 437:../Firmware/GD32VW55x_standard_peripheral/Source/gd32vw55x_i2c.c **** {
 1124              		.loc 1 437 1
 1125              		.cfi_startproc
 1126 0000 0111     		addi	sp,sp,-32
 1127              		.cfi_def_cfa_offset 32
 1128 0002 22CE     		sw	s0,28(sp)
 1129              		.cfi_offset 8, -4
 1130 0004 0010     		addi	s0,sp,32
 1131              		.cfi_def_cfa 8, 0
 1132 0006 2326A4FE 		sw	a0,-20(s0)
 438:../Firmware/GD32VW55x_standard_peripheral/Source/gd32vw55x_i2c.c ****     I2C_CTL1(i2c_periph) |= I2C_CTL1_NACKEN;
 1133              		.loc 1 438 26
 1134 000a 8327C4FE 		lw	a5,-20(s0)
 1135 000e 9107     		addi	a5,a5,4
 1136 0010 9843     		lw	a4,0(a5)
 1137 0012 8327C4FE 		lw	a5,-20(s0)
 1138 0016 9107     		addi	a5,a5,4
 1139 0018 BE86     		mv	a3,a5
 1140 001a A167     		li	a5,32768
 1141 001c D98F     		or	a5,a4,a5
 1142 001e 9CC2     		sw	a5,0(a3)
 439:../Firmware/GD32VW55x_standard_peripheral/Source/gd32vw55x_i2c.c **** }
 1143              		.loc 1 439 1
 1144 0020 0100     		nop
 1145 0022 7244     		lw	s0,28(sp)
 1146              		.cfi_restore 8
 1147              		.cfi_def_cfa 2, 32
 1148 0024 0561     		addi	sp,sp,32
 1149              		.cfi_def_cfa_offset 0
 1150 0026 8280     		jr	ra
 1151              		.cfi_endproc
 1152              	.LFE372:
 1154              		.section	.text.i2c_nack_disable,"ax",@progbits
 1155              		.align	1
 1156              		.globl	i2c_nack_disable
 1158              	i2c_nack_disable:
 1159              	.LFB373:
 440:../Firmware/GD32VW55x_standard_peripheral/Source/gd32vw55x_i2c.c **** 
 441:../Firmware/GD32VW55x_standard_peripheral/Source/gd32vw55x_i2c.c **** /*!
 442:../Firmware/GD32VW55x_standard_peripheral/Source/gd32vw55x_i2c.c ****     \brief      generate an ACK in slave mode
 443:../Firmware/GD32VW55x_standard_peripheral/Source/gd32vw55x_i2c.c ****     \param[in]  i2c_periph: I2Cx(x=0,1)
 444:../Firmware/GD32VW55x_standard_peripheral/Source/gd32vw55x_i2c.c ****     \param[out] none
 445:../Firmware/GD32VW55x_standard_peripheral/Source/gd32vw55x_i2c.c ****     \retval     none
 446:../Firmware/GD32VW55x_standard_peripheral/Source/gd32vw55x_i2c.c **** */
 447:../Firmware/GD32VW55x_standard_peripheral/Source/gd32vw55x_i2c.c **** void i2c_nack_disable(uint32_t i2c_periph)
 448:../Firmware/GD32VW55x_standard_peripheral/Source/gd32vw55x_i2c.c **** {
 1160              		.loc 1 448 1
 1161              		.cfi_startproc
 1162 0000 0111     		addi	sp,sp,-32
 1163              		.cfi_def_cfa_offset 32
 1164 0002 22CE     		sw	s0,28(sp)
 1165              		.cfi_offset 8, -4
 1166 0004 0010     		addi	s0,sp,32
 1167              		.cfi_def_cfa 8, 0
 1168 0006 2326A4FE 		sw	a0,-20(s0)
 449:../Firmware/GD32VW55x_standard_peripheral/Source/gd32vw55x_i2c.c ****     I2C_CTL1(i2c_periph) &= ~I2C_CTL1_NACKEN;
 1169              		.loc 1 449 26
 1170 000a 8327C4FE 		lw	a5,-20(s0)
 1171 000e 9107     		addi	a5,a5,4
 1172 0010 9843     		lw	a4,0(a5)
 1173 0012 8327C4FE 		lw	a5,-20(s0)
 1174 0016 9107     		addi	a5,a5,4
 1175 0018 BE86     		mv	a3,a5
 1176 001a E177     		li	a5,-32768
 1177 001c FD17     		addi	a5,a5,-1
 1178 001e F98F     		and	a5,a4,a5
 1179 0020 9CC2     		sw	a5,0(a3)
 450:../Firmware/GD32VW55x_standard_peripheral/Source/gd32vw55x_i2c.c **** }
 1180              		.loc 1 450 1
 1181 0022 0100     		nop
 1182 0024 7244     		lw	s0,28(sp)
 1183              		.cfi_restore 8
 1184              		.cfi_def_cfa 2, 32
 1185 0026 0561     		addi	sp,sp,32
 1186              		.cfi_def_cfa_offset 0
 1187 0028 8280     		jr	ra
 1188              		.cfi_endproc
 1189              	.LFE373:
 1191              		.section	.text.i2c_wakeup_from_deepsleep_enable,"ax",@progbits
 1192              		.align	1
 1193              		.globl	i2c_wakeup_from_deepsleep_enable
 1195              	i2c_wakeup_from_deepsleep_enable:
 1196              	.LFB374:
 451:../Firmware/GD32VW55x_standard_peripheral/Source/gd32vw55x_i2c.c **** 
 452:../Firmware/GD32VW55x_standard_peripheral/Source/gd32vw55x_i2c.c **** /*!
 453:../Firmware/GD32VW55x_standard_peripheral/Source/gd32vw55x_i2c.c ****     \brief      enable wakeup from deep-sleep mode
 454:../Firmware/GD32VW55x_standard_peripheral/Source/gd32vw55x_i2c.c ****     \param[in]  i2c_periph: I2Cx(x=0)
 455:../Firmware/GD32VW55x_standard_peripheral/Source/gd32vw55x_i2c.c ****     \param[out] none
 456:../Firmware/GD32VW55x_standard_peripheral/Source/gd32vw55x_i2c.c ****     \retval     none
 457:../Firmware/GD32VW55x_standard_peripheral/Source/gd32vw55x_i2c.c **** */
 458:../Firmware/GD32VW55x_standard_peripheral/Source/gd32vw55x_i2c.c **** void i2c_wakeup_from_deepsleep_enable(uint32_t i2c_periph)
 459:../Firmware/GD32VW55x_standard_peripheral/Source/gd32vw55x_i2c.c **** {
 1197              		.loc 1 459 1
 1198              		.cfi_startproc
 1199 0000 0111     		addi	sp,sp,-32
 1200              		.cfi_def_cfa_offset 32
 1201 0002 22CE     		sw	s0,28(sp)
 1202              		.cfi_offset 8, -4
 1203 0004 0010     		addi	s0,sp,32
 1204              		.cfi_def_cfa 8, 0
 1205 0006 2326A4FE 		sw	a0,-20(s0)
 460:../Firmware/GD32VW55x_standard_peripheral/Source/gd32vw55x_i2c.c ****     I2C_CTL0(i2c_periph) |= I2C_CTL0_WUEN;
 1206              		.loc 1 460 26
 1207 000a 8327C4FE 		lw	a5,-20(s0)
 1208 000e 9443     		lw	a3,0(a5)
 1209 0010 8327C4FE 		lw	a5,-20(s0)
 1210 0014 37070400 		li	a4,262144
 1211 0018 558F     		or	a4,a3,a4
 1212 001a 98C3     		sw	a4,0(a5)
 461:../Firmware/GD32VW55x_standard_peripheral/Source/gd32vw55x_i2c.c **** }
 1213              		.loc 1 461 1
 1214 001c 0100     		nop
 1215 001e 7244     		lw	s0,28(sp)
 1216              		.cfi_restore 8
 1217              		.cfi_def_cfa 2, 32
 1218 0020 0561     		addi	sp,sp,32
 1219              		.cfi_def_cfa_offset 0
 1220 0022 8280     		jr	ra
 1221              		.cfi_endproc
 1222              	.LFE374:
 1224              		.section	.text.i2c_wakeup_from_deepsleep_disable,"ax",@progbits
 1225              		.align	1
 1226              		.globl	i2c_wakeup_from_deepsleep_disable
 1228              	i2c_wakeup_from_deepsleep_disable:
 1229              	.LFB375:
 462:../Firmware/GD32VW55x_standard_peripheral/Source/gd32vw55x_i2c.c **** 
 463:../Firmware/GD32VW55x_standard_peripheral/Source/gd32vw55x_i2c.c **** /*!
 464:../Firmware/GD32VW55x_standard_peripheral/Source/gd32vw55x_i2c.c ****     \brief      disable wakeup from deep-sleep mode
 465:../Firmware/GD32VW55x_standard_peripheral/Source/gd32vw55x_i2c.c ****     \param[in]  i2c_periph: I2Cx(x=0)
 466:../Firmware/GD32VW55x_standard_peripheral/Source/gd32vw55x_i2c.c ****     \param[out] none
 467:../Firmware/GD32VW55x_standard_peripheral/Source/gd32vw55x_i2c.c ****     \retval     none
 468:../Firmware/GD32VW55x_standard_peripheral/Source/gd32vw55x_i2c.c **** */
 469:../Firmware/GD32VW55x_standard_peripheral/Source/gd32vw55x_i2c.c **** void i2c_wakeup_from_deepsleep_disable(uint32_t i2c_periph)
 470:../Firmware/GD32VW55x_standard_peripheral/Source/gd32vw55x_i2c.c **** {
 1230              		.loc 1 470 1
 1231              		.cfi_startproc
 1232 0000 0111     		addi	sp,sp,-32
 1233              		.cfi_def_cfa_offset 32
 1234 0002 22CE     		sw	s0,28(sp)
 1235              		.cfi_offset 8, -4
 1236 0004 0010     		addi	s0,sp,32
 1237              		.cfi_def_cfa 8, 0
 1238 0006 2326A4FE 		sw	a0,-20(s0)
 471:../Firmware/GD32VW55x_standard_peripheral/Source/gd32vw55x_i2c.c ****     I2C_CTL0(i2c_periph) &= ~I2C_CTL0_WUEN;
 1239              		.loc 1 471 26
 1240 000a 8327C4FE 		lw	a5,-20(s0)
 1241 000e 9443     		lw	a3,0(a5)
 1242 0010 8327C4FE 		lw	a5,-20(s0)
 1243 0014 3707FCFF 		li	a4,-262144
 1244 0018 7D17     		addi	a4,a4,-1
 1245 001a 758F     		and	a4,a3,a4
 1246 001c 98C3     		sw	a4,0(a5)
 472:../Firmware/GD32VW55x_standard_peripheral/Source/gd32vw55x_i2c.c **** }
 1247              		.loc 1 472 1
 1248 001e 0100     		nop
 1249 0020 7244     		lw	s0,28(sp)
 1250              		.cfi_restore 8
 1251              		.cfi_def_cfa 2, 32
 1252 0022 0561     		addi	sp,sp,32
 1253              		.cfi_def_cfa_offset 0
 1254 0024 8280     		jr	ra
 1255              		.cfi_endproc
 1256              	.LFE375:
 1258              		.section	.text.i2c_enable,"ax",@progbits
 1259              		.align	1
 1260              		.globl	i2c_enable
 1262              	i2c_enable:
 1263              	.LFB376:
 473:../Firmware/GD32VW55x_standard_peripheral/Source/gd32vw55x_i2c.c **** 
 474:../Firmware/GD32VW55x_standard_peripheral/Source/gd32vw55x_i2c.c **** /*!
 475:../Firmware/GD32VW55x_standard_peripheral/Source/gd32vw55x_i2c.c ****     \brief      enable I2C
 476:../Firmware/GD32VW55x_standard_peripheral/Source/gd32vw55x_i2c.c ****     \param[in]  i2c_periph: I2Cx(x=0,1)
 477:../Firmware/GD32VW55x_standard_peripheral/Source/gd32vw55x_i2c.c ****     \param[out] none
 478:../Firmware/GD32VW55x_standard_peripheral/Source/gd32vw55x_i2c.c ****     \retval     none
 479:../Firmware/GD32VW55x_standard_peripheral/Source/gd32vw55x_i2c.c **** */
 480:../Firmware/GD32VW55x_standard_peripheral/Source/gd32vw55x_i2c.c **** void i2c_enable(uint32_t i2c_periph)
 481:../Firmware/GD32VW55x_standard_peripheral/Source/gd32vw55x_i2c.c **** {
 1264              		.loc 1 481 1
 1265              		.cfi_startproc
 1266 0000 0111     		addi	sp,sp,-32
 1267              		.cfi_def_cfa_offset 32
 1268 0002 22CE     		sw	s0,28(sp)
 1269              		.cfi_offset 8, -4
 1270 0004 0010     		addi	s0,sp,32
 1271              		.cfi_def_cfa 8, 0
 1272 0006 2326A4FE 		sw	a0,-20(s0)
 482:../Firmware/GD32VW55x_standard_peripheral/Source/gd32vw55x_i2c.c ****     I2C_CTL0(i2c_periph) |= I2C_CTL0_I2CEN;
 1273              		.loc 1 482 26
 1274 000a 8327C4FE 		lw	a5,-20(s0)
 1275 000e 9843     		lw	a4,0(a5)
 1276 0010 8327C4FE 		lw	a5,-20(s0)
 1277 0014 13671700 		ori	a4,a4,1
 1278 0018 98C3     		sw	a4,0(a5)
 483:../Firmware/GD32VW55x_standard_peripheral/Source/gd32vw55x_i2c.c **** }
 1279              		.loc 1 483 1
 1280 001a 0100     		nop
 1281 001c 7244     		lw	s0,28(sp)
 1282              		.cfi_restore 8
 1283              		.cfi_def_cfa 2, 32
 1284 001e 0561     		addi	sp,sp,32
 1285              		.cfi_def_cfa_offset 0
 1286 0020 8280     		jr	ra
 1287              		.cfi_endproc
 1288              	.LFE376:
 1290              		.section	.text.i2c_disable,"ax",@progbits
 1291              		.align	1
 1292              		.globl	i2c_disable
 1294              	i2c_disable:
 1295              	.LFB377:
 484:../Firmware/GD32VW55x_standard_peripheral/Source/gd32vw55x_i2c.c **** 
 485:../Firmware/GD32VW55x_standard_peripheral/Source/gd32vw55x_i2c.c **** /*!
 486:../Firmware/GD32VW55x_standard_peripheral/Source/gd32vw55x_i2c.c ****     \brief      disable I2C
 487:../Firmware/GD32VW55x_standard_peripheral/Source/gd32vw55x_i2c.c ****     \param[in]  i2c_periph: I2Cx(x=0,1)
 488:../Firmware/GD32VW55x_standard_peripheral/Source/gd32vw55x_i2c.c ****     \param[out] none
 489:../Firmware/GD32VW55x_standard_peripheral/Source/gd32vw55x_i2c.c ****     \retval     none
 490:../Firmware/GD32VW55x_standard_peripheral/Source/gd32vw55x_i2c.c **** */
 491:../Firmware/GD32VW55x_standard_peripheral/Source/gd32vw55x_i2c.c **** void i2c_disable(uint32_t i2c_periph)
 492:../Firmware/GD32VW55x_standard_peripheral/Source/gd32vw55x_i2c.c **** {
 1296              		.loc 1 492 1
 1297              		.cfi_startproc
 1298 0000 0111     		addi	sp,sp,-32
 1299              		.cfi_def_cfa_offset 32
 1300 0002 22CE     		sw	s0,28(sp)
 1301              		.cfi_offset 8, -4
 1302 0004 0010     		addi	s0,sp,32
 1303              		.cfi_def_cfa 8, 0
 1304 0006 2326A4FE 		sw	a0,-20(s0)
 493:../Firmware/GD32VW55x_standard_peripheral/Source/gd32vw55x_i2c.c ****     I2C_CTL0(i2c_periph) &= ~I2C_CTL0_I2CEN;
 1305              		.loc 1 493 26
 1306 000a 8327C4FE 		lw	a5,-20(s0)
 1307 000e 9843     		lw	a4,0(a5)
 1308 0010 8327C4FE 		lw	a5,-20(s0)
 1309 0014 799B     		andi	a4,a4,-2
 1310 0016 98C3     		sw	a4,0(a5)
 494:../Firmware/GD32VW55x_standard_peripheral/Source/gd32vw55x_i2c.c **** }
 1311              		.loc 1 494 1
 1312 0018 0100     		nop
 1313 001a 7244     		lw	s0,28(sp)
 1314              		.cfi_restore 8
 1315              		.cfi_def_cfa 2, 32
 1316 001c 0561     		addi	sp,sp,32
 1317              		.cfi_def_cfa_offset 0
 1318 001e 8280     		jr	ra
 1319              		.cfi_endproc
 1320              	.LFE377:
 1322              		.section	.text.i2c_start_on_bus,"ax",@progbits
 1323              		.align	1
 1324              		.globl	i2c_start_on_bus
 1326              	i2c_start_on_bus:
 1327              	.LFB378:
 495:../Firmware/GD32VW55x_standard_peripheral/Source/gd32vw55x_i2c.c **** 
 496:../Firmware/GD32VW55x_standard_peripheral/Source/gd32vw55x_i2c.c **** /*!
 497:../Firmware/GD32VW55x_standard_peripheral/Source/gd32vw55x_i2c.c ****     \brief      generate a START condition on I2C bus
 498:../Firmware/GD32VW55x_standard_peripheral/Source/gd32vw55x_i2c.c ****     \param[in]  i2c_periph: I2Cx(x=0,1)
 499:../Firmware/GD32VW55x_standard_peripheral/Source/gd32vw55x_i2c.c ****     \param[out] none
 500:../Firmware/GD32VW55x_standard_peripheral/Source/gd32vw55x_i2c.c ****     \retval     none
 501:../Firmware/GD32VW55x_standard_peripheral/Source/gd32vw55x_i2c.c **** */
 502:../Firmware/GD32VW55x_standard_peripheral/Source/gd32vw55x_i2c.c **** void i2c_start_on_bus(uint32_t i2c_periph)
 503:../Firmware/GD32VW55x_standard_peripheral/Source/gd32vw55x_i2c.c **** {
 1328              		.loc 1 503 1
 1329              		.cfi_startproc
 1330 0000 0111     		addi	sp,sp,-32
 1331              		.cfi_def_cfa_offset 32
 1332 0002 22CE     		sw	s0,28(sp)
 1333              		.cfi_offset 8, -4
 1334 0004 0010     		addi	s0,sp,32
 1335              		.cfi_def_cfa 8, 0
 1336 0006 2326A4FE 		sw	a0,-20(s0)
 504:../Firmware/GD32VW55x_standard_peripheral/Source/gd32vw55x_i2c.c ****     I2C_CTL1(i2c_periph) |= I2C_CTL1_START;
 1337              		.loc 1 504 26
 1338 000a 8327C4FE 		lw	a5,-20(s0)
 1339 000e 9107     		addi	a5,a5,4
 1340 0010 9843     		lw	a4,0(a5)
 1341 0012 8327C4FE 		lw	a5,-20(s0)
 1342 0016 9107     		addi	a5,a5,4
 1343 0018 BE86     		mv	a3,a5
 1344 001a 8967     		li	a5,8192
 1345 001c D98F     		or	a5,a4,a5
 1346 001e 9CC2     		sw	a5,0(a3)
 505:../Firmware/GD32VW55x_standard_peripheral/Source/gd32vw55x_i2c.c **** }
 1347              		.loc 1 505 1
 1348 0020 0100     		nop
 1349 0022 7244     		lw	s0,28(sp)
 1350              		.cfi_restore 8
 1351              		.cfi_def_cfa 2, 32
 1352 0024 0561     		addi	sp,sp,32
 1353              		.cfi_def_cfa_offset 0
 1354 0026 8280     		jr	ra
 1355              		.cfi_endproc
 1356              	.LFE378:
 1358              		.section	.text.i2c_stop_on_bus,"ax",@progbits
 1359              		.align	1
 1360              		.globl	i2c_stop_on_bus
 1362              	i2c_stop_on_bus:
 1363              	.LFB379:
 506:../Firmware/GD32VW55x_standard_peripheral/Source/gd32vw55x_i2c.c **** 
 507:../Firmware/GD32VW55x_standard_peripheral/Source/gd32vw55x_i2c.c **** /*!
 508:../Firmware/GD32VW55x_standard_peripheral/Source/gd32vw55x_i2c.c ****     \brief      generate a STOP condition on I2C bus
 509:../Firmware/GD32VW55x_standard_peripheral/Source/gd32vw55x_i2c.c ****     \param[in]  i2c_periph: I2Cx(x=0,1)
 510:../Firmware/GD32VW55x_standard_peripheral/Source/gd32vw55x_i2c.c ****     \param[out] none
 511:../Firmware/GD32VW55x_standard_peripheral/Source/gd32vw55x_i2c.c ****     \retval     none
 512:../Firmware/GD32VW55x_standard_peripheral/Source/gd32vw55x_i2c.c **** */
 513:../Firmware/GD32VW55x_standard_peripheral/Source/gd32vw55x_i2c.c **** void i2c_stop_on_bus(uint32_t i2c_periph)
 514:../Firmware/GD32VW55x_standard_peripheral/Source/gd32vw55x_i2c.c **** {
 1364              		.loc 1 514 1
 1365              		.cfi_startproc
 1366 0000 0111     		addi	sp,sp,-32
 1367              		.cfi_def_cfa_offset 32
 1368 0002 22CE     		sw	s0,28(sp)
 1369              		.cfi_offset 8, -4
 1370 0004 0010     		addi	s0,sp,32
 1371              		.cfi_def_cfa 8, 0
 1372 0006 2326A4FE 		sw	a0,-20(s0)
 515:../Firmware/GD32VW55x_standard_peripheral/Source/gd32vw55x_i2c.c ****     I2C_CTL1(i2c_periph) |= I2C_CTL1_STOP;
 1373              		.loc 1 515 26
 1374 000a 8327C4FE 		lw	a5,-20(s0)
 1375 000e 9107     		addi	a5,a5,4
 1376 0010 9843     		lw	a4,0(a5)
 1377 0012 8327C4FE 		lw	a5,-20(s0)
 1378 0016 9107     		addi	a5,a5,4
 1379 0018 BE86     		mv	a3,a5
 1380 001a 9167     		li	a5,16384
 1381 001c D98F     		or	a5,a4,a5
 1382 001e 9CC2     		sw	a5,0(a3)
 516:../Firmware/GD32VW55x_standard_peripheral/Source/gd32vw55x_i2c.c **** }
 1383              		.loc 1 516 1
 1384 0020 0100     		nop
 1385 0022 7244     		lw	s0,28(sp)
 1386              		.cfi_restore 8
 1387              		.cfi_def_cfa 2, 32
 1388 0024 0561     		addi	sp,sp,32
 1389              		.cfi_def_cfa_offset 0
 1390 0026 8280     		jr	ra
 1391              		.cfi_endproc
 1392              	.LFE379:
 1394              		.section	.text.i2c_data_transmit,"ax",@progbits
 1395              		.align	1
 1396              		.globl	i2c_data_transmit
 1398              	i2c_data_transmit:
 1399              	.LFB380:
 517:../Firmware/GD32VW55x_standard_peripheral/Source/gd32vw55x_i2c.c **** 
 518:../Firmware/GD32VW55x_standard_peripheral/Source/gd32vw55x_i2c.c **** /*!
 519:../Firmware/GD32VW55x_standard_peripheral/Source/gd32vw55x_i2c.c ****     \brief      I2C transmit data
 520:../Firmware/GD32VW55x_standard_peripheral/Source/gd32vw55x_i2c.c ****     \param[in]  i2c_periph: I2Cx(x=0,1)
 521:../Firmware/GD32VW55x_standard_peripheral/Source/gd32vw55x_i2c.c ****     \param[in]  data: data to be transmitted
 522:../Firmware/GD32VW55x_standard_peripheral/Source/gd32vw55x_i2c.c ****     \param[out] none
 523:../Firmware/GD32VW55x_standard_peripheral/Source/gd32vw55x_i2c.c ****     \retval     none
 524:../Firmware/GD32VW55x_standard_peripheral/Source/gd32vw55x_i2c.c **** */
 525:../Firmware/GD32VW55x_standard_peripheral/Source/gd32vw55x_i2c.c **** void i2c_data_transmit(uint32_t i2c_periph, uint32_t data)
 526:../Firmware/GD32VW55x_standard_peripheral/Source/gd32vw55x_i2c.c **** {
 1400              		.loc 1 526 1
 1401              		.cfi_startproc
 1402 0000 0111     		addi	sp,sp,-32
 1403              		.cfi_def_cfa_offset 32
 1404 0002 22CE     		sw	s0,28(sp)
 1405              		.cfi_offset 8, -4
 1406 0004 0010     		addi	s0,sp,32
 1407              		.cfi_def_cfa 8, 0
 1408 0006 2326A4FE 		sw	a0,-20(s0)
 1409 000a 2324B4FE 		sw	a1,-24(s0)
 527:../Firmware/GD32VW55x_standard_peripheral/Source/gd32vw55x_i2c.c ****     I2C_TDATA(i2c_periph) = (I2C_TDATA_TDATA & data);
 1410              		.loc 1 527 5
 1411 000e 8327C4FE 		lw	a5,-20(s0)
 1412 0012 93878702 		addi	a5,a5,40
 1413 0016 3E87     		mv	a4,a5
 1414              		.loc 1 527 46
 1415 0018 832784FE 		lw	a5,-24(s0)
 1416 001c 93F7F70F 		andi	a5,a5,255
 1417              		.loc 1 527 27
 1418 0020 1CC3     		sw	a5,0(a4)
 528:../Firmware/GD32VW55x_standard_peripheral/Source/gd32vw55x_i2c.c **** }
 1419              		.loc 1 528 1
 1420 0022 0100     		nop
 1421 0024 7244     		lw	s0,28(sp)
 1422              		.cfi_restore 8
 1423              		.cfi_def_cfa 2, 32
 1424 0026 0561     		addi	sp,sp,32
 1425              		.cfi_def_cfa_offset 0
 1426 0028 8280     		jr	ra
 1427              		.cfi_endproc
 1428              	.LFE380:
 1430              		.section	.text.i2c_data_receive,"ax",@progbits
 1431              		.align	1
 1432              		.globl	i2c_data_receive
 1434              	i2c_data_receive:
 1435              	.LFB381:
 529:../Firmware/GD32VW55x_standard_peripheral/Source/gd32vw55x_i2c.c **** 
 530:../Firmware/GD32VW55x_standard_peripheral/Source/gd32vw55x_i2c.c **** /*!
 531:../Firmware/GD32VW55x_standard_peripheral/Source/gd32vw55x_i2c.c ****     \brief      I2C receive data
 532:../Firmware/GD32VW55x_standard_peripheral/Source/gd32vw55x_i2c.c ****     \param[in]  i2c_periph: I2Cx(x=0,1)
 533:../Firmware/GD32VW55x_standard_peripheral/Source/gd32vw55x_i2c.c ****     \param[out] none
 534:../Firmware/GD32VW55x_standard_peripheral/Source/gd32vw55x_i2c.c ****     \retval     received data
 535:../Firmware/GD32VW55x_standard_peripheral/Source/gd32vw55x_i2c.c **** */
 536:../Firmware/GD32VW55x_standard_peripheral/Source/gd32vw55x_i2c.c **** uint32_t i2c_data_receive(uint32_t i2c_periph)
 537:../Firmware/GD32VW55x_standard_peripheral/Source/gd32vw55x_i2c.c **** {
 1436              		.loc 1 537 1
 1437              		.cfi_startproc
 1438 0000 0111     		addi	sp,sp,-32
 1439              		.cfi_def_cfa_offset 32
 1440 0002 22CE     		sw	s0,28(sp)
 1441              		.cfi_offset 8, -4
 1442 0004 0010     		addi	s0,sp,32
 1443              		.cfi_def_cfa 8, 0
 1444 0006 2326A4FE 		sw	a0,-20(s0)
 538:../Firmware/GD32VW55x_standard_peripheral/Source/gd32vw55x_i2c.c ****     return (I2C_RDATA(i2c_periph) & I2C_RDATA_RDATA);
 1445              		.loc 1 538 13
 1446 000a 8327C4FE 		lw	a5,-20(s0)
 1447 000e 93874702 		addi	a5,a5,36
 1448              		.loc 1 538 35
 1449 0012 9C43     		lw	a5,0(a5)
 1450 0014 93F7F70F 		andi	a5,a5,255
 539:../Firmware/GD32VW55x_standard_peripheral/Source/gd32vw55x_i2c.c **** }
 1451              		.loc 1 539 1
 1452 0018 3E85     		mv	a0,a5
 1453 001a 7244     		lw	s0,28(sp)
 1454              		.cfi_restore 8
 1455              		.cfi_def_cfa 2, 32
 1456 001c 0561     		addi	sp,sp,32
 1457              		.cfi_def_cfa_offset 0
 1458 001e 8280     		jr	ra
 1459              		.cfi_endproc
 1460              	.LFE381:
 1462              		.section	.text.i2c_reload_enable,"ax",@progbits
 1463              		.align	1
 1464              		.globl	i2c_reload_enable
 1466              	i2c_reload_enable:
 1467              	.LFB382:
 540:../Firmware/GD32VW55x_standard_peripheral/Source/gd32vw55x_i2c.c **** 
 541:../Firmware/GD32VW55x_standard_peripheral/Source/gd32vw55x_i2c.c **** /*!
 542:../Firmware/GD32VW55x_standard_peripheral/Source/gd32vw55x_i2c.c ****     \brief      enable I2C reload mode
 543:../Firmware/GD32VW55x_standard_peripheral/Source/gd32vw55x_i2c.c ****     \param[in]  i2c_periph: I2Cx(x=0,1)
 544:../Firmware/GD32VW55x_standard_peripheral/Source/gd32vw55x_i2c.c ****     \param[out] none
 545:../Firmware/GD32VW55x_standard_peripheral/Source/gd32vw55x_i2c.c ****     \retval     none
 546:../Firmware/GD32VW55x_standard_peripheral/Source/gd32vw55x_i2c.c **** */
 547:../Firmware/GD32VW55x_standard_peripheral/Source/gd32vw55x_i2c.c **** void i2c_reload_enable(uint32_t i2c_periph)
 548:../Firmware/GD32VW55x_standard_peripheral/Source/gd32vw55x_i2c.c **** {
 1468              		.loc 1 548 1
 1469              		.cfi_startproc
 1470 0000 0111     		addi	sp,sp,-32
 1471              		.cfi_def_cfa_offset 32
 1472 0002 22CE     		sw	s0,28(sp)
 1473              		.cfi_offset 8, -4
 1474 0004 0010     		addi	s0,sp,32
 1475              		.cfi_def_cfa 8, 0
 1476 0006 2326A4FE 		sw	a0,-20(s0)
 549:../Firmware/GD32VW55x_standard_peripheral/Source/gd32vw55x_i2c.c ****     I2C_CTL1(i2c_periph) |= I2C_CTL1_RELOAD;
 1477              		.loc 1 549 26
 1478 000a 8327C4FE 		lw	a5,-20(s0)
 1479 000e 9107     		addi	a5,a5,4
 1480 0010 9843     		lw	a4,0(a5)
 1481 0012 8327C4FE 		lw	a5,-20(s0)
 1482 0016 9107     		addi	a5,a5,4
 1483 0018 BE86     		mv	a3,a5
 1484 001a B7070001 		li	a5,16777216
 1485 001e D98F     		or	a5,a4,a5
 1486 0020 9CC2     		sw	a5,0(a3)
 550:../Firmware/GD32VW55x_standard_peripheral/Source/gd32vw55x_i2c.c **** }
 1487              		.loc 1 550 1
 1488 0022 0100     		nop
 1489 0024 7244     		lw	s0,28(sp)
 1490              		.cfi_restore 8
 1491              		.cfi_def_cfa 2, 32
 1492 0026 0561     		addi	sp,sp,32
 1493              		.cfi_def_cfa_offset 0
 1494 0028 8280     		jr	ra
 1495              		.cfi_endproc
 1496              	.LFE382:
 1498              		.section	.text.i2c_reload_disable,"ax",@progbits
 1499              		.align	1
 1500              		.globl	i2c_reload_disable
 1502              	i2c_reload_disable:
 1503              	.LFB383:
 551:../Firmware/GD32VW55x_standard_peripheral/Source/gd32vw55x_i2c.c **** 
 552:../Firmware/GD32VW55x_standard_peripheral/Source/gd32vw55x_i2c.c **** /*!
 553:../Firmware/GD32VW55x_standard_peripheral/Source/gd32vw55x_i2c.c ****     \brief      disable I2C reload mode
 554:../Firmware/GD32VW55x_standard_peripheral/Source/gd32vw55x_i2c.c ****     \param[in]  i2c_periph: I2Cx(x=0,1)
 555:../Firmware/GD32VW55x_standard_peripheral/Source/gd32vw55x_i2c.c ****     \param[out] none
 556:../Firmware/GD32VW55x_standard_peripheral/Source/gd32vw55x_i2c.c ****     \retval     none
 557:../Firmware/GD32VW55x_standard_peripheral/Source/gd32vw55x_i2c.c **** */
 558:../Firmware/GD32VW55x_standard_peripheral/Source/gd32vw55x_i2c.c **** void i2c_reload_disable(uint32_t i2c_periph)
 559:../Firmware/GD32VW55x_standard_peripheral/Source/gd32vw55x_i2c.c **** {
 1504              		.loc 1 559 1
 1505              		.cfi_startproc
 1506 0000 0111     		addi	sp,sp,-32
 1507              		.cfi_def_cfa_offset 32
 1508 0002 22CE     		sw	s0,28(sp)
 1509              		.cfi_offset 8, -4
 1510 0004 0010     		addi	s0,sp,32
 1511              		.cfi_def_cfa 8, 0
 1512 0006 2326A4FE 		sw	a0,-20(s0)
 560:../Firmware/GD32VW55x_standard_peripheral/Source/gd32vw55x_i2c.c ****     I2C_CTL1(i2c_periph) &= ~I2C_CTL1_RELOAD;
 1513              		.loc 1 560 26
 1514 000a 8327C4FE 		lw	a5,-20(s0)
 1515 000e 9107     		addi	a5,a5,4
 1516 0010 9843     		lw	a4,0(a5)
 1517 0012 8327C4FE 		lw	a5,-20(s0)
 1518 0016 9107     		addi	a5,a5,4
 1519 0018 BE86     		mv	a3,a5
 1520 001a B70700FF 		li	a5,-16777216
 1521 001e FD17     		addi	a5,a5,-1
 1522 0020 F98F     		and	a5,a4,a5
 1523 0022 9CC2     		sw	a5,0(a3)
 561:../Firmware/GD32VW55x_standard_peripheral/Source/gd32vw55x_i2c.c **** }
 1524              		.loc 1 561 1
 1525 0024 0100     		nop
 1526 0026 7244     		lw	s0,28(sp)
 1527              		.cfi_restore 8
 1528              		.cfi_def_cfa 2, 32
 1529 0028 0561     		addi	sp,sp,32
 1530              		.cfi_def_cfa_offset 0
 1531 002a 8280     		jr	ra
 1532              		.cfi_endproc
 1533              	.LFE383:
 1535              		.section	.text.i2c_transfer_byte_number_config,"ax",@progbits
 1536              		.align	1
 1537              		.globl	i2c_transfer_byte_number_config
 1539              	i2c_transfer_byte_number_config:
 1540              	.LFB384:
 562:../Firmware/GD32VW55x_standard_peripheral/Source/gd32vw55x_i2c.c **** 
 563:../Firmware/GD32VW55x_standard_peripheral/Source/gd32vw55x_i2c.c **** /*!
 564:../Firmware/GD32VW55x_standard_peripheral/Source/gd32vw55x_i2c.c ****     \brief      configure number of bytes to be transferred
 565:../Firmware/GD32VW55x_standard_peripheral/Source/gd32vw55x_i2c.c ****     \param[in]  i2c_periph: I2Cx(x=0,1)
 566:../Firmware/GD32VW55x_standard_peripheral/Source/gd32vw55x_i2c.c ****     \param[in]  byte_number: 0x0-0xFF, number of bytes to be transferred
 567:../Firmware/GD32VW55x_standard_peripheral/Source/gd32vw55x_i2c.c ****     \param[out] none
 568:../Firmware/GD32VW55x_standard_peripheral/Source/gd32vw55x_i2c.c ****     \retval     none
 569:../Firmware/GD32VW55x_standard_peripheral/Source/gd32vw55x_i2c.c **** */
 570:../Firmware/GD32VW55x_standard_peripheral/Source/gd32vw55x_i2c.c **** void i2c_transfer_byte_number_config(uint32_t i2c_periph, uint32_t byte_number)
 571:../Firmware/GD32VW55x_standard_peripheral/Source/gd32vw55x_i2c.c **** {
 1541              		.loc 1 571 1
 1542              		.cfi_startproc
 1543 0000 0111     		addi	sp,sp,-32
 1544              		.cfi_def_cfa_offset 32
 1545 0002 22CE     		sw	s0,28(sp)
 1546              		.cfi_offset 8, -4
 1547 0004 0010     		addi	s0,sp,32
 1548              		.cfi_def_cfa 8, 0
 1549 0006 2326A4FE 		sw	a0,-20(s0)
 1550 000a 2324B4FE 		sw	a1,-24(s0)
 572:../Firmware/GD32VW55x_standard_peripheral/Source/gd32vw55x_i2c.c ****     I2C_CTL1(i2c_periph) &= (uint32_t)(~I2C_CTL1_BYTENUM);
 1551              		.loc 1 572 26
 1552 000e 8327C4FE 		lw	a5,-20(s0)
 1553 0012 9107     		addi	a5,a5,4
 1554 0014 9843     		lw	a4,0(a5)
 1555 0016 8327C4FE 		lw	a5,-20(s0)
 1556 001a 9107     		addi	a5,a5,4
 1557 001c BE86     		mv	a3,a5
 1558 001e B70701FF 		li	a5,-16711680
 1559 0022 FD17     		addi	a5,a5,-1
 1560 0024 F98F     		and	a5,a4,a5
 1561 0026 9CC2     		sw	a5,0(a3)
 573:../Firmware/GD32VW55x_standard_peripheral/Source/gd32vw55x_i2c.c ****     I2C_CTL1(i2c_periph) |= (uint32_t)(byte_number << CTL1_BYTENUM_OFFSET);
 1562              		.loc 1 573 26
 1563 0028 8327C4FE 		lw	a5,-20(s0)
 1564 002c 9107     		addi	a5,a5,4
 1565 002e 9843     		lw	a4,0(a5)
 1566              		.loc 1 573 52
 1567 0030 832784FE 		lw	a5,-24(s0)
 1568 0034 C207     		slli	a5,a5,16
 1569              		.loc 1 573 26
 1570 0036 8326C4FE 		lw	a3,-20(s0)
 1571 003a 9106     		addi	a3,a3,4
 1572 003c D98F     		or	a5,a4,a5
 1573 003e 9CC2     		sw	a5,0(a3)
 574:../Firmware/GD32VW55x_standard_peripheral/Source/gd32vw55x_i2c.c **** }
 1574              		.loc 1 574 1
 1575 0040 0100     		nop
 1576 0042 7244     		lw	s0,28(sp)
 1577              		.cfi_restore 8
 1578              		.cfi_def_cfa 2, 32
 1579 0044 0561     		addi	sp,sp,32
 1580              		.cfi_def_cfa_offset 0
 1581 0046 8280     		jr	ra
 1582              		.cfi_endproc
 1583              	.LFE384:
 1585              		.section	.text.i2c_dma_enable,"ax",@progbits
 1586              		.align	1
 1587              		.globl	i2c_dma_enable
 1589              	i2c_dma_enable:
 1590              	.LFB385:
 575:../Firmware/GD32VW55x_standard_peripheral/Source/gd32vw55x_i2c.c **** 
 576:../Firmware/GD32VW55x_standard_peripheral/Source/gd32vw55x_i2c.c **** /*!
 577:../Firmware/GD32VW55x_standard_peripheral/Source/gd32vw55x_i2c.c ****     \brief      enable I2C DMA for transmission or reception
 578:../Firmware/GD32VW55x_standard_peripheral/Source/gd32vw55x_i2c.c ****     \param[in]  i2c_periph: I2Cx(x=0,1)
 579:../Firmware/GD32VW55x_standard_peripheral/Source/gd32vw55x_i2c.c ****     \param[in]  dma: I2C DMA
 580:../Firmware/GD32VW55x_standard_peripheral/Source/gd32vw55x_i2c.c ****                 only one parameter can be selected which is shown as below:
 581:../Firmware/GD32VW55x_standard_peripheral/Source/gd32vw55x_i2c.c ****       \arg        I2C_DMA_TRANSMIT: transmit data using DMA
 582:../Firmware/GD32VW55x_standard_peripheral/Source/gd32vw55x_i2c.c ****       \arg        I2C_DMA_RECEIVE: receive data using DMA
 583:../Firmware/GD32VW55x_standard_peripheral/Source/gd32vw55x_i2c.c ****     \param[out] none
 584:../Firmware/GD32VW55x_standard_peripheral/Source/gd32vw55x_i2c.c ****     \retval     none
 585:../Firmware/GD32VW55x_standard_peripheral/Source/gd32vw55x_i2c.c **** */
 586:../Firmware/GD32VW55x_standard_peripheral/Source/gd32vw55x_i2c.c **** void i2c_dma_enable(uint32_t i2c_periph, uint8_t dma)
 587:../Firmware/GD32VW55x_standard_peripheral/Source/gd32vw55x_i2c.c **** {
 1591              		.loc 1 587 1
 1592              		.cfi_startproc
 1593 0000 0111     		addi	sp,sp,-32
 1594              		.cfi_def_cfa_offset 32
 1595 0002 22CE     		sw	s0,28(sp)
 1596              		.cfi_offset 8, -4
 1597 0004 0010     		addi	s0,sp,32
 1598              		.cfi_def_cfa 8, 0
 1599 0006 2326A4FE 		sw	a0,-20(s0)
 1600 000a AE87     		mv	a5,a1
 1601 000c A305F4FE 		sb	a5,-21(s0)
 588:../Firmware/GD32VW55x_standard_peripheral/Source/gd32vw55x_i2c.c ****     if(I2C_DMA_TRANSMIT == dma){
 1602              		.loc 1 588 7
 1603 0010 8347B4FE 		lbu	a5,-21(s0)
 1604 0014 91EB     		bne	a5,zero,.L46
 589:../Firmware/GD32VW55x_standard_peripheral/Source/gd32vw55x_i2c.c ****         I2C_CTL0(i2c_periph) |= I2C_CTL0_DENT;
 1605              		.loc 1 589 30
 1606 0016 8327C4FE 		lw	a5,-20(s0)
 1607 001a 9443     		lw	a3,0(a5)
 1608 001c 8327C4FE 		lw	a5,-20(s0)
 1609 0020 1167     		li	a4,16384
 1610 0022 558F     		or	a4,a3,a4
 1611 0024 98C3     		sw	a4,0(a5)
 590:../Firmware/GD32VW55x_standard_peripheral/Source/gd32vw55x_i2c.c ****     }else{
 591:../Firmware/GD32VW55x_standard_peripheral/Source/gd32vw55x_i2c.c ****         I2C_CTL0(i2c_periph) |= I2C_CTL0_DENR;
 592:../Firmware/GD32VW55x_standard_peripheral/Source/gd32vw55x_i2c.c ****     }
 593:../Firmware/GD32VW55x_standard_peripheral/Source/gd32vw55x_i2c.c **** }
 1612              		.loc 1 593 1
 1613 0026 09A8     		j	.L48
 1614              	.L46:
 591:../Firmware/GD32VW55x_standard_peripheral/Source/gd32vw55x_i2c.c ****     }
 1615              		.loc 1 591 30
 1616 0028 8327C4FE 		lw	a5,-20(s0)
 1617 002c 9443     		lw	a3,0(a5)
 1618 002e 8327C4FE 		lw	a5,-20(s0)
 1619 0032 2167     		li	a4,32768
 1620 0034 558F     		or	a4,a3,a4
 1621 0036 98C3     		sw	a4,0(a5)
 1622              	.L48:
 1623              		.loc 1 593 1
 1624 0038 0100     		nop
 1625 003a 7244     		lw	s0,28(sp)
 1626              		.cfi_restore 8
 1627              		.cfi_def_cfa 2, 32
 1628 003c 0561     		addi	sp,sp,32
 1629              		.cfi_def_cfa_offset 0
 1630 003e 8280     		jr	ra
 1631              		.cfi_endproc
 1632              	.LFE385:
 1634              		.section	.text.i2c_dma_disable,"ax",@progbits
 1635              		.align	1
 1636              		.globl	i2c_dma_disable
 1638              	i2c_dma_disable:
 1639              	.LFB386:
 594:../Firmware/GD32VW55x_standard_peripheral/Source/gd32vw55x_i2c.c **** 
 595:../Firmware/GD32VW55x_standard_peripheral/Source/gd32vw55x_i2c.c **** /*!
 596:../Firmware/GD32VW55x_standard_peripheral/Source/gd32vw55x_i2c.c ****     \brief      disable I2C DMA for transmission or reception
 597:../Firmware/GD32VW55x_standard_peripheral/Source/gd32vw55x_i2c.c ****     \param[in]  i2c_periph: I2Cx(x=0,1)
 598:../Firmware/GD32VW55x_standard_peripheral/Source/gd32vw55x_i2c.c ****     \param[in]  dma: I2C DMA
 599:../Firmware/GD32VW55x_standard_peripheral/Source/gd32vw55x_i2c.c ****                 only one parameter can be selected which is shown as below:
 600:../Firmware/GD32VW55x_standard_peripheral/Source/gd32vw55x_i2c.c ****       \arg        I2C_DMA_TRANSMIT: transmit data using DMA
 601:../Firmware/GD32VW55x_standard_peripheral/Source/gd32vw55x_i2c.c ****       \arg        I2C_DMA_RECEIVE: receive data using DMA
 602:../Firmware/GD32VW55x_standard_peripheral/Source/gd32vw55x_i2c.c ****     \param[out] none
 603:../Firmware/GD32VW55x_standard_peripheral/Source/gd32vw55x_i2c.c ****     \retval     none
 604:../Firmware/GD32VW55x_standard_peripheral/Source/gd32vw55x_i2c.c **** */
 605:../Firmware/GD32VW55x_standard_peripheral/Source/gd32vw55x_i2c.c **** void i2c_dma_disable(uint32_t i2c_periph, uint8_t dma)
 606:../Firmware/GD32VW55x_standard_peripheral/Source/gd32vw55x_i2c.c **** {
 1640              		.loc 1 606 1
 1641              		.cfi_startproc
 1642 0000 0111     		addi	sp,sp,-32
 1643              		.cfi_def_cfa_offset 32
 1644 0002 22CE     		sw	s0,28(sp)
 1645              		.cfi_offset 8, -4
 1646 0004 0010     		addi	s0,sp,32
 1647              		.cfi_def_cfa 8, 0
 1648 0006 2326A4FE 		sw	a0,-20(s0)
 1649 000a AE87     		mv	a5,a1
 1650 000c A305F4FE 		sb	a5,-21(s0)
 607:../Firmware/GD32VW55x_standard_peripheral/Source/gd32vw55x_i2c.c ****     if(I2C_DMA_TRANSMIT == dma){
 1651              		.loc 1 607 7
 1652 0010 8347B4FE 		lbu	a5,-21(s0)
 1653 0014 99EB     		bne	a5,zero,.L50
 608:../Firmware/GD32VW55x_standard_peripheral/Source/gd32vw55x_i2c.c ****         I2C_CTL0(i2c_periph) &= ~I2C_CTL0_DENT;
 1654              		.loc 1 608 30
 1655 0016 8327C4FE 		lw	a5,-20(s0)
 1656 001a 9443     		lw	a3,0(a5)
 1657 001c 8327C4FE 		lw	a5,-20(s0)
 1658 0020 7177     		li	a4,-16384
 1659 0022 7D17     		addi	a4,a4,-1
 1660 0024 758F     		and	a4,a3,a4
 1661 0026 98C3     		sw	a4,0(a5)
 609:../Firmware/GD32VW55x_standard_peripheral/Source/gd32vw55x_i2c.c ****     }else{
 610:../Firmware/GD32VW55x_standard_peripheral/Source/gd32vw55x_i2c.c ****         I2C_CTL0(i2c_periph) &= ~I2C_CTL0_DENR;
 611:../Firmware/GD32VW55x_standard_peripheral/Source/gd32vw55x_i2c.c ****     }
 612:../Firmware/GD32VW55x_standard_peripheral/Source/gd32vw55x_i2c.c **** }
 1662              		.loc 1 612 1
 1663 0028 11A8     		j	.L52
 1664              	.L50:
 610:../Firmware/GD32VW55x_standard_peripheral/Source/gd32vw55x_i2c.c ****     }
 1665              		.loc 1 610 30
 1666 002a 8327C4FE 		lw	a5,-20(s0)
 1667 002e 9443     		lw	a3,0(a5)
 1668 0030 8327C4FE 		lw	a5,-20(s0)
 1669 0034 6177     		li	a4,-32768
 1670 0036 7D17     		addi	a4,a4,-1
 1671 0038 758F     		and	a4,a3,a4
 1672 003a 98C3     		sw	a4,0(a5)
 1673              	.L52:
 1674              		.loc 1 612 1
 1675 003c 0100     		nop
 1676 003e 7244     		lw	s0,28(sp)
 1677              		.cfi_restore 8
 1678              		.cfi_def_cfa 2, 32
 1679 0040 0561     		addi	sp,sp,32
 1680              		.cfi_def_cfa_offset 0
 1681 0042 8280     		jr	ra
 1682              		.cfi_endproc
 1683              	.LFE386:
 1685              		.section	.text.i2c_pec_transfer,"ax",@progbits
 1686              		.align	1
 1687              		.globl	i2c_pec_transfer
 1689              	i2c_pec_transfer:
 1690              	.LFB387:
 613:../Firmware/GD32VW55x_standard_peripheral/Source/gd32vw55x_i2c.c **** 
 614:../Firmware/GD32VW55x_standard_peripheral/Source/gd32vw55x_i2c.c **** /*!
 615:../Firmware/GD32VW55x_standard_peripheral/Source/gd32vw55x_i2c.c ****     \brief      I2C transfers PEC value
 616:../Firmware/GD32VW55x_standard_peripheral/Source/gd32vw55x_i2c.c ****     \param[in]  i2c_periph: I2Cx(x=0,1)
 617:../Firmware/GD32VW55x_standard_peripheral/Source/gd32vw55x_i2c.c ****     \param[out] none
 618:../Firmware/GD32VW55x_standard_peripheral/Source/gd32vw55x_i2c.c ****     \retval     none
 619:../Firmware/GD32VW55x_standard_peripheral/Source/gd32vw55x_i2c.c **** */
 620:../Firmware/GD32VW55x_standard_peripheral/Source/gd32vw55x_i2c.c **** void i2c_pec_transfer(uint32_t i2c_periph)
 621:../Firmware/GD32VW55x_standard_peripheral/Source/gd32vw55x_i2c.c **** {
 1691              		.loc 1 621 1
 1692              		.cfi_startproc
 1693 0000 0111     		addi	sp,sp,-32
 1694              		.cfi_def_cfa_offset 32
 1695 0002 22CE     		sw	s0,28(sp)
 1696              		.cfi_offset 8, -4
 1697 0004 0010     		addi	s0,sp,32
 1698              		.cfi_def_cfa 8, 0
 1699 0006 2326A4FE 		sw	a0,-20(s0)
 622:../Firmware/GD32VW55x_standard_peripheral/Source/gd32vw55x_i2c.c ****     I2C_CTL1(i2c_periph) |= I2C_CTL1_PECTRANS;
 1700              		.loc 1 622 26
 1701 000a 8327C4FE 		lw	a5,-20(s0)
 1702 000e 9107     		addi	a5,a5,4
 1703 0010 9843     		lw	a4,0(a5)
 1704 0012 8327C4FE 		lw	a5,-20(s0)
 1705 0016 9107     		addi	a5,a5,4
 1706 0018 BE86     		mv	a3,a5
 1707 001a B7070004 		li	a5,67108864
 1708 001e D98F     		or	a5,a4,a5
 1709 0020 9CC2     		sw	a5,0(a3)
 623:../Firmware/GD32VW55x_standard_peripheral/Source/gd32vw55x_i2c.c **** }
 1710              		.loc 1 623 1
 1711 0022 0100     		nop
 1712 0024 7244     		lw	s0,28(sp)
 1713              		.cfi_restore 8
 1714              		.cfi_def_cfa 2, 32
 1715 0026 0561     		addi	sp,sp,32
 1716              		.cfi_def_cfa_offset 0
 1717 0028 8280     		jr	ra
 1718              		.cfi_endproc
 1719              	.LFE387:
 1721              		.section	.text.i2c_pec_enable,"ax",@progbits
 1722              		.align	1
 1723              		.globl	i2c_pec_enable
 1725              	i2c_pec_enable:
 1726              	.LFB388:
 624:../Firmware/GD32VW55x_standard_peripheral/Source/gd32vw55x_i2c.c **** 
 625:../Firmware/GD32VW55x_standard_peripheral/Source/gd32vw55x_i2c.c **** /*!
 626:../Firmware/GD32VW55x_standard_peripheral/Source/gd32vw55x_i2c.c ****     \brief      enable I2C PEC calculation
 627:../Firmware/GD32VW55x_standard_peripheral/Source/gd32vw55x_i2c.c ****     \param[in]  i2c_periph: I2Cx(x=0,1)
 628:../Firmware/GD32VW55x_standard_peripheral/Source/gd32vw55x_i2c.c ****     \param[out] none
 629:../Firmware/GD32VW55x_standard_peripheral/Source/gd32vw55x_i2c.c ****     \retval     none
 630:../Firmware/GD32VW55x_standard_peripheral/Source/gd32vw55x_i2c.c **** */
 631:../Firmware/GD32VW55x_standard_peripheral/Source/gd32vw55x_i2c.c **** void i2c_pec_enable(uint32_t i2c_periph)
 632:../Firmware/GD32VW55x_standard_peripheral/Source/gd32vw55x_i2c.c **** {
 1727              		.loc 1 632 1
 1728              		.cfi_startproc
 1729 0000 0111     		addi	sp,sp,-32
 1730              		.cfi_def_cfa_offset 32
 1731 0002 22CE     		sw	s0,28(sp)
 1732              		.cfi_offset 8, -4
 1733 0004 0010     		addi	s0,sp,32
 1734              		.cfi_def_cfa 8, 0
 1735 0006 2326A4FE 		sw	a0,-20(s0)
 633:../Firmware/GD32VW55x_standard_peripheral/Source/gd32vw55x_i2c.c ****     I2C_CTL0(i2c_periph) |= I2C_CTL0_PECEN;
 1736              		.loc 1 633 26
 1737 000a 8327C4FE 		lw	a5,-20(s0)
 1738 000e 9443     		lw	a3,0(a5)
 1739 0010 8327C4FE 		lw	a5,-20(s0)
 1740 0014 37078000 		li	a4,8388608
 1741 0018 558F     		or	a4,a3,a4
 1742 001a 98C3     		sw	a4,0(a5)
 634:../Firmware/GD32VW55x_standard_peripheral/Source/gd32vw55x_i2c.c **** }
 1743              		.loc 1 634 1
 1744 001c 0100     		nop
 1745 001e 7244     		lw	s0,28(sp)
 1746              		.cfi_restore 8
 1747              		.cfi_def_cfa 2, 32
 1748 0020 0561     		addi	sp,sp,32
 1749              		.cfi_def_cfa_offset 0
 1750 0022 8280     		jr	ra
 1751              		.cfi_endproc
 1752              	.LFE388:
 1754              		.section	.text.i2c_pec_disable,"ax",@progbits
 1755              		.align	1
 1756              		.globl	i2c_pec_disable
 1758              	i2c_pec_disable:
 1759              	.LFB389:
 635:../Firmware/GD32VW55x_standard_peripheral/Source/gd32vw55x_i2c.c **** 
 636:../Firmware/GD32VW55x_standard_peripheral/Source/gd32vw55x_i2c.c **** /*!
 637:../Firmware/GD32VW55x_standard_peripheral/Source/gd32vw55x_i2c.c ****     \brief      disable I2C PEC calculation
 638:../Firmware/GD32VW55x_standard_peripheral/Source/gd32vw55x_i2c.c ****     \param[in]  i2c_periph: I2Cx(x=0,1)
 639:../Firmware/GD32VW55x_standard_peripheral/Source/gd32vw55x_i2c.c ****     \param[out] none
 640:../Firmware/GD32VW55x_standard_peripheral/Source/gd32vw55x_i2c.c ****     \retval     none
 641:../Firmware/GD32VW55x_standard_peripheral/Source/gd32vw55x_i2c.c **** */
 642:../Firmware/GD32VW55x_standard_peripheral/Source/gd32vw55x_i2c.c **** void i2c_pec_disable(uint32_t i2c_periph)
 643:../Firmware/GD32VW55x_standard_peripheral/Source/gd32vw55x_i2c.c **** {
 1760              		.loc 1 643 1
 1761              		.cfi_startproc
 1762 0000 0111     		addi	sp,sp,-32
 1763              		.cfi_def_cfa_offset 32
 1764 0002 22CE     		sw	s0,28(sp)
 1765              		.cfi_offset 8, -4
 1766 0004 0010     		addi	s0,sp,32
 1767              		.cfi_def_cfa 8, 0
 1768 0006 2326A4FE 		sw	a0,-20(s0)
 644:../Firmware/GD32VW55x_standard_peripheral/Source/gd32vw55x_i2c.c ****     I2C_CTL0(i2c_periph) &= ~I2C_CTL0_PECEN;
 1769              		.loc 1 644 26
 1770 000a 8327C4FE 		lw	a5,-20(s0)
 1771 000e 9443     		lw	a3,0(a5)
 1772 0010 8327C4FE 		lw	a5,-20(s0)
 1773 0014 370780FF 		li	a4,-8388608
 1774 0018 7D17     		addi	a4,a4,-1
 1775 001a 758F     		and	a4,a3,a4
 1776 001c 98C3     		sw	a4,0(a5)
 645:../Firmware/GD32VW55x_standard_peripheral/Source/gd32vw55x_i2c.c **** }
 1777              		.loc 1 645 1
 1778 001e 0100     		nop
 1779 0020 7244     		lw	s0,28(sp)
 1780              		.cfi_restore 8
 1781              		.cfi_def_cfa 2, 32
 1782 0022 0561     		addi	sp,sp,32
 1783              		.cfi_def_cfa_offset 0
 1784 0024 8280     		jr	ra
 1785              		.cfi_endproc
 1786              	.LFE389:
 1788              		.section	.text.i2c_pec_value_get,"ax",@progbits
 1789              		.align	1
 1790              		.globl	i2c_pec_value_get
 1792              	i2c_pec_value_get:
 1793              	.LFB390:
 646:../Firmware/GD32VW55x_standard_peripheral/Source/gd32vw55x_i2c.c **** 
 647:../Firmware/GD32VW55x_standard_peripheral/Source/gd32vw55x_i2c.c **** /*!
 648:../Firmware/GD32VW55x_standard_peripheral/Source/gd32vw55x_i2c.c ****     \brief      get packet error checking value
 649:../Firmware/GD32VW55x_standard_peripheral/Source/gd32vw55x_i2c.c ****     \param[in]  i2c_periph: I2Cx(x=0,1)
 650:../Firmware/GD32VW55x_standard_peripheral/Source/gd32vw55x_i2c.c ****     \param[out] none
 651:../Firmware/GD32VW55x_standard_peripheral/Source/gd32vw55x_i2c.c ****     \retval     PEC value
 652:../Firmware/GD32VW55x_standard_peripheral/Source/gd32vw55x_i2c.c **** */
 653:../Firmware/GD32VW55x_standard_peripheral/Source/gd32vw55x_i2c.c **** uint32_t i2c_pec_value_get(uint32_t i2c_periph)
 654:../Firmware/GD32VW55x_standard_peripheral/Source/gd32vw55x_i2c.c **** {
 1794              		.loc 1 654 1
 1795              		.cfi_startproc
 1796 0000 0111     		addi	sp,sp,-32
 1797              		.cfi_def_cfa_offset 32
 1798 0002 22CE     		sw	s0,28(sp)
 1799              		.cfi_offset 8, -4
 1800 0004 0010     		addi	s0,sp,32
 1801              		.cfi_def_cfa 8, 0
 1802 0006 2326A4FE 		sw	a0,-20(s0)
 655:../Firmware/GD32VW55x_standard_peripheral/Source/gd32vw55x_i2c.c ****     return (I2C_PEC(i2c_periph) & I2C_PEC_PECV);
 1803              		.loc 1 655 13
 1804 000a 8327C4FE 		lw	a5,-20(s0)
 1805 000e 93870702 		addi	a5,a5,32
 1806              		.loc 1 655 33
 1807 0012 9C43     		lw	a5,0(a5)
 1808 0014 93F7F70F 		andi	a5,a5,255
 656:../Firmware/GD32VW55x_standard_peripheral/Source/gd32vw55x_i2c.c **** }
 1809              		.loc 1 656 1
 1810 0018 3E85     		mv	a0,a5
 1811 001a 7244     		lw	s0,28(sp)
 1812              		.cfi_restore 8
 1813              		.cfi_def_cfa 2, 32
 1814 001c 0561     		addi	sp,sp,32
 1815              		.cfi_def_cfa_offset 0
 1816 001e 8280     		jr	ra
 1817              		.cfi_endproc
 1818              	.LFE390:
 1820              		.section	.text.i2c_smbus_alert_enable,"ax",@progbits
 1821              		.align	1
 1822              		.globl	i2c_smbus_alert_enable
 1824              	i2c_smbus_alert_enable:
 1825              	.LFB391:
 657:../Firmware/GD32VW55x_standard_peripheral/Source/gd32vw55x_i2c.c **** 
 658:../Firmware/GD32VW55x_standard_peripheral/Source/gd32vw55x_i2c.c **** /*!
 659:../Firmware/GD32VW55x_standard_peripheral/Source/gd32vw55x_i2c.c ****     \brief      enable SMBus alert
 660:../Firmware/GD32VW55x_standard_peripheral/Source/gd32vw55x_i2c.c ****     \param[in]  i2c_periph: I2Cx(x=0,1)
 661:../Firmware/GD32VW55x_standard_peripheral/Source/gd32vw55x_i2c.c ****     \param[out] none
 662:../Firmware/GD32VW55x_standard_peripheral/Source/gd32vw55x_i2c.c ****     \retval     none
 663:../Firmware/GD32VW55x_standard_peripheral/Source/gd32vw55x_i2c.c **** */
 664:../Firmware/GD32VW55x_standard_peripheral/Source/gd32vw55x_i2c.c **** void i2c_smbus_alert_enable(uint32_t i2c_periph)
 665:../Firmware/GD32VW55x_standard_peripheral/Source/gd32vw55x_i2c.c **** {
 1826              		.loc 1 665 1
 1827              		.cfi_startproc
 1828 0000 0111     		addi	sp,sp,-32
 1829              		.cfi_def_cfa_offset 32
 1830 0002 22CE     		sw	s0,28(sp)
 1831              		.cfi_offset 8, -4
 1832 0004 0010     		addi	s0,sp,32
 1833              		.cfi_def_cfa 8, 0
 1834 0006 2326A4FE 		sw	a0,-20(s0)
 666:../Firmware/GD32VW55x_standard_peripheral/Source/gd32vw55x_i2c.c ****     I2C_CTL0(i2c_periph) |= I2C_CTL0_SMBALTEN;
 1835              		.loc 1 666 26
 1836 000a 8327C4FE 		lw	a5,-20(s0)
 1837 000e 9443     		lw	a3,0(a5)
 1838 0010 8327C4FE 		lw	a5,-20(s0)
 1839 0014 37074000 		li	a4,4194304
 1840 0018 558F     		or	a4,a3,a4
 1841 001a 98C3     		sw	a4,0(a5)
 667:../Firmware/GD32VW55x_standard_peripheral/Source/gd32vw55x_i2c.c **** }
 1842              		.loc 1 667 1
 1843 001c 0100     		nop
 1844 001e 7244     		lw	s0,28(sp)
 1845              		.cfi_restore 8
 1846              		.cfi_def_cfa 2, 32
 1847 0020 0561     		addi	sp,sp,32
 1848              		.cfi_def_cfa_offset 0
 1849 0022 8280     		jr	ra
 1850              		.cfi_endproc
 1851              	.LFE391:
 1853              		.section	.text.i2c_smbus_alert_disable,"ax",@progbits
 1854              		.align	1
 1855              		.globl	i2c_smbus_alert_disable
 1857              	i2c_smbus_alert_disable:
 1858              	.LFB392:
 668:../Firmware/GD32VW55x_standard_peripheral/Source/gd32vw55x_i2c.c **** 
 669:../Firmware/GD32VW55x_standard_peripheral/Source/gd32vw55x_i2c.c **** /*!
 670:../Firmware/GD32VW55x_standard_peripheral/Source/gd32vw55x_i2c.c ****     \brief      disable SMBus alert
 671:../Firmware/GD32VW55x_standard_peripheral/Source/gd32vw55x_i2c.c ****     \param[in]  i2c_periph: I2Cx(x=0,1)
 672:../Firmware/GD32VW55x_standard_peripheral/Source/gd32vw55x_i2c.c ****     \param[out] none
 673:../Firmware/GD32VW55x_standard_peripheral/Source/gd32vw55x_i2c.c ****     \retval     none
 674:../Firmware/GD32VW55x_standard_peripheral/Source/gd32vw55x_i2c.c **** */
 675:../Firmware/GD32VW55x_standard_peripheral/Source/gd32vw55x_i2c.c **** void i2c_smbus_alert_disable(uint32_t i2c_periph)
 676:../Firmware/GD32VW55x_standard_peripheral/Source/gd32vw55x_i2c.c **** {
 1859              		.loc 1 676 1
 1860              		.cfi_startproc
 1861 0000 0111     		addi	sp,sp,-32
 1862              		.cfi_def_cfa_offset 32
 1863 0002 22CE     		sw	s0,28(sp)
 1864              		.cfi_offset 8, -4
 1865 0004 0010     		addi	s0,sp,32
 1866              		.cfi_def_cfa 8, 0
 1867 0006 2326A4FE 		sw	a0,-20(s0)
 677:../Firmware/GD32VW55x_standard_peripheral/Source/gd32vw55x_i2c.c ****     I2C_CTL0(i2c_periph) &= ~I2C_CTL0_SMBALTEN;
 1868              		.loc 1 677 26
 1869 000a 8327C4FE 		lw	a5,-20(s0)
 1870 000e 9443     		lw	a3,0(a5)
 1871 0010 8327C4FE 		lw	a5,-20(s0)
 1872 0014 3707C0FF 		li	a4,-4194304
 1873 0018 7D17     		addi	a4,a4,-1
 1874 001a 758F     		and	a4,a3,a4
 1875 001c 98C3     		sw	a4,0(a5)
 678:../Firmware/GD32VW55x_standard_peripheral/Source/gd32vw55x_i2c.c **** }
 1876              		.loc 1 678 1
 1877 001e 0100     		nop
 1878 0020 7244     		lw	s0,28(sp)
 1879              		.cfi_restore 8
 1880              		.cfi_def_cfa 2, 32
 1881 0022 0561     		addi	sp,sp,32
 1882              		.cfi_def_cfa_offset 0
 1883 0024 8280     		jr	ra
 1884              		.cfi_endproc
 1885              	.LFE392:
 1887              		.section	.text.i2c_smbus_default_addr_enable,"ax",@progbits
 1888              		.align	1
 1889              		.globl	i2c_smbus_default_addr_enable
 1891              	i2c_smbus_default_addr_enable:
 1892              	.LFB393:
 679:../Firmware/GD32VW55x_standard_peripheral/Source/gd32vw55x_i2c.c **** 
 680:../Firmware/GD32VW55x_standard_peripheral/Source/gd32vw55x_i2c.c **** /*!
 681:../Firmware/GD32VW55x_standard_peripheral/Source/gd32vw55x_i2c.c ****     \brief      enable SMBus device default address
 682:../Firmware/GD32VW55x_standard_peripheral/Source/gd32vw55x_i2c.c ****     \param[in]  i2c_periph: I2Cx(x=0,1)
 683:../Firmware/GD32VW55x_standard_peripheral/Source/gd32vw55x_i2c.c ****     \param[out] none
 684:../Firmware/GD32VW55x_standard_peripheral/Source/gd32vw55x_i2c.c ****     \retval     none
 685:../Firmware/GD32VW55x_standard_peripheral/Source/gd32vw55x_i2c.c **** */
 686:../Firmware/GD32VW55x_standard_peripheral/Source/gd32vw55x_i2c.c **** void i2c_smbus_default_addr_enable(uint32_t i2c_periph)
 687:../Firmware/GD32VW55x_standard_peripheral/Source/gd32vw55x_i2c.c **** {
 1893              		.loc 1 687 1
 1894              		.cfi_startproc
 1895 0000 0111     		addi	sp,sp,-32
 1896              		.cfi_def_cfa_offset 32
 1897 0002 22CE     		sw	s0,28(sp)
 1898              		.cfi_offset 8, -4
 1899 0004 0010     		addi	s0,sp,32
 1900              		.cfi_def_cfa 8, 0
 1901 0006 2326A4FE 		sw	a0,-20(s0)
 688:../Firmware/GD32VW55x_standard_peripheral/Source/gd32vw55x_i2c.c ****     I2C_CTL0(i2c_periph) |= I2C_CTL0_SMBDAEN;
 1902              		.loc 1 688 26
 1903 000a 8327C4FE 		lw	a5,-20(s0)
 1904 000e 9443     		lw	a3,0(a5)
 1905 0010 8327C4FE 		lw	a5,-20(s0)
 1906 0014 37072000 		li	a4,2097152
 1907 0018 558F     		or	a4,a3,a4
 1908 001a 98C3     		sw	a4,0(a5)
 689:../Firmware/GD32VW55x_standard_peripheral/Source/gd32vw55x_i2c.c **** }
 1909              		.loc 1 689 1
 1910 001c 0100     		nop
 1911 001e 7244     		lw	s0,28(sp)
 1912              		.cfi_restore 8
 1913              		.cfi_def_cfa 2, 32
 1914 0020 0561     		addi	sp,sp,32
 1915              		.cfi_def_cfa_offset 0
 1916 0022 8280     		jr	ra
 1917              		.cfi_endproc
 1918              	.LFE393:
 1920              		.section	.text.i2c_smbus_default_addr_disable,"ax",@progbits
 1921              		.align	1
 1922              		.globl	i2c_smbus_default_addr_disable
 1924              	i2c_smbus_default_addr_disable:
 1925              	.LFB394:
 690:../Firmware/GD32VW55x_standard_peripheral/Source/gd32vw55x_i2c.c **** 
 691:../Firmware/GD32VW55x_standard_peripheral/Source/gd32vw55x_i2c.c **** /*!
 692:../Firmware/GD32VW55x_standard_peripheral/Source/gd32vw55x_i2c.c ****     \brief      disable SMBus device default address
 693:../Firmware/GD32VW55x_standard_peripheral/Source/gd32vw55x_i2c.c ****     \param[in]  i2c_periph: I2Cx(x=0,1)
 694:../Firmware/GD32VW55x_standard_peripheral/Source/gd32vw55x_i2c.c ****     \param[out] none
 695:../Firmware/GD32VW55x_standard_peripheral/Source/gd32vw55x_i2c.c ****     \retval     none
 696:../Firmware/GD32VW55x_standard_peripheral/Source/gd32vw55x_i2c.c **** */
 697:../Firmware/GD32VW55x_standard_peripheral/Source/gd32vw55x_i2c.c **** void i2c_smbus_default_addr_disable(uint32_t i2c_periph)
 698:../Firmware/GD32VW55x_standard_peripheral/Source/gd32vw55x_i2c.c **** {
 1926              		.loc 1 698 1
 1927              		.cfi_startproc
 1928 0000 0111     		addi	sp,sp,-32
 1929              		.cfi_def_cfa_offset 32
 1930 0002 22CE     		sw	s0,28(sp)
 1931              		.cfi_offset 8, -4
 1932 0004 0010     		addi	s0,sp,32
 1933              		.cfi_def_cfa 8, 0
 1934 0006 2326A4FE 		sw	a0,-20(s0)
 699:../Firmware/GD32VW55x_standard_peripheral/Source/gd32vw55x_i2c.c ****     I2C_CTL0(i2c_periph) &= ~I2C_CTL0_SMBDAEN;
 1935              		.loc 1 699 26
 1936 000a 8327C4FE 		lw	a5,-20(s0)
 1937 000e 9443     		lw	a3,0(a5)
 1938 0010 8327C4FE 		lw	a5,-20(s0)
 1939 0014 3707E0FF 		li	a4,-2097152
 1940 0018 7D17     		addi	a4,a4,-1
 1941 001a 758F     		and	a4,a3,a4
 1942 001c 98C3     		sw	a4,0(a5)
 700:../Firmware/GD32VW55x_standard_peripheral/Source/gd32vw55x_i2c.c **** }
 1943              		.loc 1 700 1
 1944 001e 0100     		nop
 1945 0020 7244     		lw	s0,28(sp)
 1946              		.cfi_restore 8
 1947              		.cfi_def_cfa 2, 32
 1948 0022 0561     		addi	sp,sp,32
 1949              		.cfi_def_cfa_offset 0
 1950 0024 8280     		jr	ra
 1951              		.cfi_endproc
 1952              	.LFE394:
 1954              		.section	.text.i2c_smbus_host_addr_enable,"ax",@progbits
 1955              		.align	1
 1956              		.globl	i2c_smbus_host_addr_enable
 1958              	i2c_smbus_host_addr_enable:
 1959              	.LFB395:
 701:../Firmware/GD32VW55x_standard_peripheral/Source/gd32vw55x_i2c.c **** 
 702:../Firmware/GD32VW55x_standard_peripheral/Source/gd32vw55x_i2c.c **** /*!
 703:../Firmware/GD32VW55x_standard_peripheral/Source/gd32vw55x_i2c.c ****     \brief      enable SMBus Host address
 704:../Firmware/GD32VW55x_standard_peripheral/Source/gd32vw55x_i2c.c ****     \param[in]  i2c_periph: I2Cx(x=0,1)
 705:../Firmware/GD32VW55x_standard_peripheral/Source/gd32vw55x_i2c.c ****     \param[out] none
 706:../Firmware/GD32VW55x_standard_peripheral/Source/gd32vw55x_i2c.c ****     \retval     none
 707:../Firmware/GD32VW55x_standard_peripheral/Source/gd32vw55x_i2c.c **** */
 708:../Firmware/GD32VW55x_standard_peripheral/Source/gd32vw55x_i2c.c **** void i2c_smbus_host_addr_enable(uint32_t i2c_periph)
 709:../Firmware/GD32VW55x_standard_peripheral/Source/gd32vw55x_i2c.c **** {
 1960              		.loc 1 709 1
 1961              		.cfi_startproc
 1962 0000 0111     		addi	sp,sp,-32
 1963              		.cfi_def_cfa_offset 32
 1964 0002 22CE     		sw	s0,28(sp)
 1965              		.cfi_offset 8, -4
 1966 0004 0010     		addi	s0,sp,32
 1967              		.cfi_def_cfa 8, 0
 1968 0006 2326A4FE 		sw	a0,-20(s0)
 710:../Firmware/GD32VW55x_standard_peripheral/Source/gd32vw55x_i2c.c ****     I2C_CTL0(i2c_periph) |= I2C_CTL0_SMBHAEN;
 1969              		.loc 1 710 26
 1970 000a 8327C4FE 		lw	a5,-20(s0)
 1971 000e 9443     		lw	a3,0(a5)
 1972 0010 8327C4FE 		lw	a5,-20(s0)
 1973 0014 37071000 		li	a4,1048576
 1974 0018 558F     		or	a4,a3,a4
 1975 001a 98C3     		sw	a4,0(a5)
 711:../Firmware/GD32VW55x_standard_peripheral/Source/gd32vw55x_i2c.c **** }
 1976              		.loc 1 711 1
 1977 001c 0100     		nop
 1978 001e 7244     		lw	s0,28(sp)
 1979              		.cfi_restore 8
 1980              		.cfi_def_cfa 2, 32
 1981 0020 0561     		addi	sp,sp,32
 1982              		.cfi_def_cfa_offset 0
 1983 0022 8280     		jr	ra
 1984              		.cfi_endproc
 1985              	.LFE395:
 1987              		.section	.text.i2c_smbus_host_addr_disable,"ax",@progbits
 1988              		.align	1
 1989              		.globl	i2c_smbus_host_addr_disable
 1991              	i2c_smbus_host_addr_disable:
 1992              	.LFB396:
 712:../Firmware/GD32VW55x_standard_peripheral/Source/gd32vw55x_i2c.c **** 
 713:../Firmware/GD32VW55x_standard_peripheral/Source/gd32vw55x_i2c.c **** /*!
 714:../Firmware/GD32VW55x_standard_peripheral/Source/gd32vw55x_i2c.c ****     \brief      disable SMBus Host address
 715:../Firmware/GD32VW55x_standard_peripheral/Source/gd32vw55x_i2c.c ****     \param[in]  i2c_periph: I2Cx(x=0,1)
 716:../Firmware/GD32VW55x_standard_peripheral/Source/gd32vw55x_i2c.c ****     \param[out] none
 717:../Firmware/GD32VW55x_standard_peripheral/Source/gd32vw55x_i2c.c ****     \retval     none
 718:../Firmware/GD32VW55x_standard_peripheral/Source/gd32vw55x_i2c.c **** */
 719:../Firmware/GD32VW55x_standard_peripheral/Source/gd32vw55x_i2c.c **** void i2c_smbus_host_addr_disable(uint32_t i2c_periph)
 720:../Firmware/GD32VW55x_standard_peripheral/Source/gd32vw55x_i2c.c **** {
 1993              		.loc 1 720 1
 1994              		.cfi_startproc
 1995 0000 0111     		addi	sp,sp,-32
 1996              		.cfi_def_cfa_offset 32
 1997 0002 22CE     		sw	s0,28(sp)
 1998              		.cfi_offset 8, -4
 1999 0004 0010     		addi	s0,sp,32
 2000              		.cfi_def_cfa 8, 0
 2001 0006 2326A4FE 		sw	a0,-20(s0)
 721:../Firmware/GD32VW55x_standard_peripheral/Source/gd32vw55x_i2c.c ****     I2C_CTL0(i2c_periph) &= ~I2C_CTL0_SMBHAEN;
 2002              		.loc 1 721 26
 2003 000a 8327C4FE 		lw	a5,-20(s0)
 2004 000e 9443     		lw	a3,0(a5)
 2005 0010 8327C4FE 		lw	a5,-20(s0)
 2006 0014 3707F0FF 		li	a4,-1048576
 2007 0018 7D17     		addi	a4,a4,-1
 2008 001a 758F     		and	a4,a3,a4
 2009 001c 98C3     		sw	a4,0(a5)
 722:../Firmware/GD32VW55x_standard_peripheral/Source/gd32vw55x_i2c.c **** }
 2010              		.loc 1 722 1
 2011 001e 0100     		nop
 2012 0020 7244     		lw	s0,28(sp)
 2013              		.cfi_restore 8
 2014              		.cfi_def_cfa 2, 32
 2015 0022 0561     		addi	sp,sp,32
 2016              		.cfi_def_cfa_offset 0
 2017 0024 8280     		jr	ra
 2018              		.cfi_endproc
 2019              	.LFE396:
 2021              		.section	.text.i2c_extented_clock_timeout_enable,"ax",@progbits
 2022              		.align	1
 2023              		.globl	i2c_extented_clock_timeout_enable
 2025              	i2c_extented_clock_timeout_enable:
 2026              	.LFB397:
 723:../Firmware/GD32VW55x_standard_peripheral/Source/gd32vw55x_i2c.c **** 
 724:../Firmware/GD32VW55x_standard_peripheral/Source/gd32vw55x_i2c.c **** /*!
 725:../Firmware/GD32VW55x_standard_peripheral/Source/gd32vw55x_i2c.c ****     \brief      enable extended clock timeout detection
 726:../Firmware/GD32VW55x_standard_peripheral/Source/gd32vw55x_i2c.c ****     \param[in]  i2c_periph: I2Cx(x=0,1)
 727:../Firmware/GD32VW55x_standard_peripheral/Source/gd32vw55x_i2c.c ****     \param[out] none
 728:../Firmware/GD32VW55x_standard_peripheral/Source/gd32vw55x_i2c.c ****     \retval     none
 729:../Firmware/GD32VW55x_standard_peripheral/Source/gd32vw55x_i2c.c **** */
 730:../Firmware/GD32VW55x_standard_peripheral/Source/gd32vw55x_i2c.c **** void i2c_extented_clock_timeout_enable(uint32_t i2c_periph)
 731:../Firmware/GD32VW55x_standard_peripheral/Source/gd32vw55x_i2c.c **** {
 2027              		.loc 1 731 1
 2028              		.cfi_startproc
 2029 0000 0111     		addi	sp,sp,-32
 2030              		.cfi_def_cfa_offset 32
 2031 0002 22CE     		sw	s0,28(sp)
 2032              		.cfi_offset 8, -4
 2033 0004 0010     		addi	s0,sp,32
 2034              		.cfi_def_cfa 8, 0
 2035 0006 2326A4FE 		sw	a0,-20(s0)
 732:../Firmware/GD32VW55x_standard_peripheral/Source/gd32vw55x_i2c.c ****     I2C_TIMEOUT(i2c_periph) |= I2C_TIMEOUT_EXTOEN;
 2036              		.loc 1 732 29
 2037 000a 8327C4FE 		lw	a5,-20(s0)
 2038 000e D107     		addi	a5,a5,20
 2039 0010 9843     		lw	a4,0(a5)
 2040 0012 8327C4FE 		lw	a5,-20(s0)
 2041 0016 D107     		addi	a5,a5,20
 2042 0018 BE86     		mv	a3,a5
 2043 001a B7070080 		li	a5,-2147483648
 2044 001e D98F     		or	a5,a4,a5
 2045 0020 9CC2     		sw	a5,0(a3)
 733:../Firmware/GD32VW55x_standard_peripheral/Source/gd32vw55x_i2c.c **** }
 2046              		.loc 1 733 1
 2047 0022 0100     		nop
 2048 0024 7244     		lw	s0,28(sp)
 2049              		.cfi_restore 8
 2050              		.cfi_def_cfa 2, 32
 2051 0026 0561     		addi	sp,sp,32
 2052              		.cfi_def_cfa_offset 0
 2053 0028 8280     		jr	ra
 2054              		.cfi_endproc
 2055              	.LFE397:
 2057              		.section	.text.i2c_extented_clock_timeout_disable,"ax",@progbits
 2058              		.align	1
 2059              		.globl	i2c_extented_clock_timeout_disable
 2061              	i2c_extented_clock_timeout_disable:
 2062              	.LFB398:
 734:../Firmware/GD32VW55x_standard_peripheral/Source/gd32vw55x_i2c.c **** 
 735:../Firmware/GD32VW55x_standard_peripheral/Source/gd32vw55x_i2c.c **** /*!
 736:../Firmware/GD32VW55x_standard_peripheral/Source/gd32vw55x_i2c.c ****     \brief      disable extended clock timeout detection
 737:../Firmware/GD32VW55x_standard_peripheral/Source/gd32vw55x_i2c.c ****     \param[in]  i2c_periph: I2Cx(x=0,1)
 738:../Firmware/GD32VW55x_standard_peripheral/Source/gd32vw55x_i2c.c ****     \param[out] none
 739:../Firmware/GD32VW55x_standard_peripheral/Source/gd32vw55x_i2c.c ****     \retval     none
 740:../Firmware/GD32VW55x_standard_peripheral/Source/gd32vw55x_i2c.c **** */
 741:../Firmware/GD32VW55x_standard_peripheral/Source/gd32vw55x_i2c.c **** void i2c_extented_clock_timeout_disable(uint32_t i2c_periph)
 742:../Firmware/GD32VW55x_standard_peripheral/Source/gd32vw55x_i2c.c **** {
 2063              		.loc 1 742 1
 2064              		.cfi_startproc
 2065 0000 0111     		addi	sp,sp,-32
 2066              		.cfi_def_cfa_offset 32
 2067 0002 22CE     		sw	s0,28(sp)
 2068              		.cfi_offset 8, -4
 2069 0004 0010     		addi	s0,sp,32
 2070              		.cfi_def_cfa 8, 0
 2071 0006 2326A4FE 		sw	a0,-20(s0)
 743:../Firmware/GD32VW55x_standard_peripheral/Source/gd32vw55x_i2c.c ****     I2C_TIMEOUT(i2c_periph) &= ~I2C_TIMEOUT_EXTOEN;
 2072              		.loc 1 743 29
 2073 000a 8327C4FE 		lw	a5,-20(s0)
 2074 000e D107     		addi	a5,a5,20
 2075 0010 9843     		lw	a4,0(a5)
 2076 0012 8327C4FE 		lw	a5,-20(s0)
 2077 0016 D107     		addi	a5,a5,20
 2078 0018 BE86     		mv	a3,a5
 2079 001a B7070080 		li	a5,-2147483648
 2080 001e 93C7F7FF 		xori	a5,a5,-1
 2081 0022 F98F     		and	a5,a4,a5
 2082 0024 9CC2     		sw	a5,0(a3)
 744:../Firmware/GD32VW55x_standard_peripheral/Source/gd32vw55x_i2c.c **** }
 2083              		.loc 1 744 1
 2084 0026 0100     		nop
 2085 0028 7244     		lw	s0,28(sp)
 2086              		.cfi_restore 8
 2087              		.cfi_def_cfa 2, 32
 2088 002a 0561     		addi	sp,sp,32
 2089              		.cfi_def_cfa_offset 0
 2090 002c 8280     		jr	ra
 2091              		.cfi_endproc
 2092              	.LFE398:
 2094              		.section	.text.i2c_clock_timeout_enable,"ax",@progbits
 2095              		.align	1
 2096              		.globl	i2c_clock_timeout_enable
 2098              	i2c_clock_timeout_enable:
 2099              	.LFB399:
 745:../Firmware/GD32VW55x_standard_peripheral/Source/gd32vw55x_i2c.c **** 
 746:../Firmware/GD32VW55x_standard_peripheral/Source/gd32vw55x_i2c.c **** /*!
 747:../Firmware/GD32VW55x_standard_peripheral/Source/gd32vw55x_i2c.c ****     \brief      enable clock timeout detection
 748:../Firmware/GD32VW55x_standard_peripheral/Source/gd32vw55x_i2c.c ****     \param[in]  i2c_periph: I2Cx(x=0,1)
 749:../Firmware/GD32VW55x_standard_peripheral/Source/gd32vw55x_i2c.c ****     \param[out] none
 750:../Firmware/GD32VW55x_standard_peripheral/Source/gd32vw55x_i2c.c ****     \retval     none
 751:../Firmware/GD32VW55x_standard_peripheral/Source/gd32vw55x_i2c.c **** */
 752:../Firmware/GD32VW55x_standard_peripheral/Source/gd32vw55x_i2c.c **** void i2c_clock_timeout_enable(uint32_t i2c_periph)
 753:../Firmware/GD32VW55x_standard_peripheral/Source/gd32vw55x_i2c.c **** {
 2100              		.loc 1 753 1
 2101              		.cfi_startproc
 2102 0000 0111     		addi	sp,sp,-32
 2103              		.cfi_def_cfa_offset 32
 2104 0002 22CE     		sw	s0,28(sp)
 2105              		.cfi_offset 8, -4
 2106 0004 0010     		addi	s0,sp,32
 2107              		.cfi_def_cfa 8, 0
 2108 0006 2326A4FE 		sw	a0,-20(s0)
 754:../Firmware/GD32VW55x_standard_peripheral/Source/gd32vw55x_i2c.c ****     I2C_TIMEOUT(i2c_periph) |= I2C_TIMEOUT_TOEN;
 2109              		.loc 1 754 29
 2110 000a 8327C4FE 		lw	a5,-20(s0)
 2111 000e D107     		addi	a5,a5,20
 2112 0010 9843     		lw	a4,0(a5)
 2113 0012 8327C4FE 		lw	a5,-20(s0)
 2114 0016 D107     		addi	a5,a5,20
 2115 0018 BE86     		mv	a3,a5
 2116 001a A167     		li	a5,32768
 2117 001c D98F     		or	a5,a4,a5
 2118 001e 9CC2     		sw	a5,0(a3)
 755:../Firmware/GD32VW55x_standard_peripheral/Source/gd32vw55x_i2c.c **** }
 2119              		.loc 1 755 1
 2120 0020 0100     		nop
 2121 0022 7244     		lw	s0,28(sp)
 2122              		.cfi_restore 8
 2123              		.cfi_def_cfa 2, 32
 2124 0024 0561     		addi	sp,sp,32
 2125              		.cfi_def_cfa_offset 0
 2126 0026 8280     		jr	ra
 2127              		.cfi_endproc
 2128              	.LFE399:
 2130              		.section	.text.i2c_clock_timeout_disable,"ax",@progbits
 2131              		.align	1
 2132              		.globl	i2c_clock_timeout_disable
 2134              	i2c_clock_timeout_disable:
 2135              	.LFB400:
 756:../Firmware/GD32VW55x_standard_peripheral/Source/gd32vw55x_i2c.c **** 
 757:../Firmware/GD32VW55x_standard_peripheral/Source/gd32vw55x_i2c.c **** /*!
 758:../Firmware/GD32VW55x_standard_peripheral/Source/gd32vw55x_i2c.c ****     \brief      disable clock timeout detection
 759:../Firmware/GD32VW55x_standard_peripheral/Source/gd32vw55x_i2c.c ****     \param[in]  i2c_periph: I2Cx(x=0,1)
 760:../Firmware/GD32VW55x_standard_peripheral/Source/gd32vw55x_i2c.c ****     \param[out] none
 761:../Firmware/GD32VW55x_standard_peripheral/Source/gd32vw55x_i2c.c ****     \retval     none
 762:../Firmware/GD32VW55x_standard_peripheral/Source/gd32vw55x_i2c.c **** */
 763:../Firmware/GD32VW55x_standard_peripheral/Source/gd32vw55x_i2c.c **** void i2c_clock_timeout_disable(uint32_t i2c_periph)
 764:../Firmware/GD32VW55x_standard_peripheral/Source/gd32vw55x_i2c.c **** {
 2136              		.loc 1 764 1
 2137              		.cfi_startproc
 2138 0000 0111     		addi	sp,sp,-32
 2139              		.cfi_def_cfa_offset 32
 2140 0002 22CE     		sw	s0,28(sp)
 2141              		.cfi_offset 8, -4
 2142 0004 0010     		addi	s0,sp,32
 2143              		.cfi_def_cfa 8, 0
 2144 0006 2326A4FE 		sw	a0,-20(s0)
 765:../Firmware/GD32VW55x_standard_peripheral/Source/gd32vw55x_i2c.c ****     I2C_TIMEOUT(i2c_periph) &= ~I2C_TIMEOUT_TOEN;
 2145              		.loc 1 765 29
 2146 000a 8327C4FE 		lw	a5,-20(s0)
 2147 000e D107     		addi	a5,a5,20
 2148 0010 9843     		lw	a4,0(a5)
 2149 0012 8327C4FE 		lw	a5,-20(s0)
 2150 0016 D107     		addi	a5,a5,20
 2151 0018 BE86     		mv	a3,a5
 2152 001a E177     		li	a5,-32768
 2153 001c FD17     		addi	a5,a5,-1
 2154 001e F98F     		and	a5,a4,a5
 2155 0020 9CC2     		sw	a5,0(a3)
 766:../Firmware/GD32VW55x_standard_peripheral/Source/gd32vw55x_i2c.c **** }
 2156              		.loc 1 766 1
 2157 0022 0100     		nop
 2158 0024 7244     		lw	s0,28(sp)
 2159              		.cfi_restore 8
 2160              		.cfi_def_cfa 2, 32
 2161 0026 0561     		addi	sp,sp,32
 2162              		.cfi_def_cfa_offset 0
 2163 0028 8280     		jr	ra
 2164              		.cfi_endproc
 2165              	.LFE400:
 2167              		.section	.text.i2c_bus_timeout_b_config,"ax",@progbits
 2168              		.align	1
 2169              		.globl	i2c_bus_timeout_b_config
 2171              	i2c_bus_timeout_b_config:
 2172              	.LFB401:
 767:../Firmware/GD32VW55x_standard_peripheral/Source/gd32vw55x_i2c.c **** 
 768:../Firmware/GD32VW55x_standard_peripheral/Source/gd32vw55x_i2c.c **** /*!
 769:../Firmware/GD32VW55x_standard_peripheral/Source/gd32vw55x_i2c.c ****     \brief      configure bus timeout B
 770:../Firmware/GD32VW55x_standard_peripheral/Source/gd32vw55x_i2c.c ****     \param[in]  i2c_periph: I2Cx(x=0,1)
 771:../Firmware/GD32VW55x_standard_peripheral/Source/gd32vw55x_i2c.c ****     \param[in]  timeout: bus timeout B
 772:../Firmware/GD32VW55x_standard_peripheral/Source/gd32vw55x_i2c.c ****     \param[out] none
 773:../Firmware/GD32VW55x_standard_peripheral/Source/gd32vw55x_i2c.c ****     \retval     none
 774:../Firmware/GD32VW55x_standard_peripheral/Source/gd32vw55x_i2c.c **** */
 775:../Firmware/GD32VW55x_standard_peripheral/Source/gd32vw55x_i2c.c **** void i2c_bus_timeout_b_config(uint32_t i2c_periph, uint32_t timeout)
 776:../Firmware/GD32VW55x_standard_peripheral/Source/gd32vw55x_i2c.c **** {
 2173              		.loc 1 776 1
 2174              		.cfi_startproc
 2175 0000 0111     		addi	sp,sp,-32
 2176              		.cfi_def_cfa_offset 32
 2177 0002 22CE     		sw	s0,28(sp)
 2178              		.cfi_offset 8, -4
 2179 0004 0010     		addi	s0,sp,32
 2180              		.cfi_def_cfa 8, 0
 2181 0006 2326A4FE 		sw	a0,-20(s0)
 2182 000a 2324B4FE 		sw	a1,-24(s0)
 777:../Firmware/GD32VW55x_standard_peripheral/Source/gd32vw55x_i2c.c ****     I2C_TIMEOUT(i2c_periph) &= ~I2C_TIMEOUT_BUSTOB;
 2183              		.loc 1 777 29
 2184 000e 8327C4FE 		lw	a5,-20(s0)
 2185 0012 D107     		addi	a5,a5,20
 2186 0014 9843     		lw	a4,0(a5)
 2187 0016 8327C4FE 		lw	a5,-20(s0)
 2188 001a D107     		addi	a5,a5,20
 2189 001c BE86     		mv	a3,a5
 2190 001e B70701F0 		li	a5,-268369920
 2191 0022 FD17     		addi	a5,a5,-1
 2192 0024 F98F     		and	a5,a4,a5
 2193 0026 9CC2     		sw	a5,0(a3)
 778:../Firmware/GD32VW55x_standard_peripheral/Source/gd32vw55x_i2c.c ****     I2C_TIMEOUT(i2c_periph) |= (uint32_t)(timeout << TIMEOUT_BUSTOB_OFFSET);
 2194              		.loc 1 778 29
 2195 0028 8327C4FE 		lw	a5,-20(s0)
 2196 002c D107     		addi	a5,a5,20
 2197 002e 9843     		lw	a4,0(a5)
 2198              		.loc 1 778 51
 2199 0030 832784FE 		lw	a5,-24(s0)
 2200 0034 C207     		slli	a5,a5,16
 2201              		.loc 1 778 29
 2202 0036 8326C4FE 		lw	a3,-20(s0)
 2203 003a D106     		addi	a3,a3,20
 2204 003c D98F     		or	a5,a4,a5
 2205 003e 9CC2     		sw	a5,0(a3)
 779:../Firmware/GD32VW55x_standard_peripheral/Source/gd32vw55x_i2c.c **** }
 2206              		.loc 1 779 1
 2207 0040 0100     		nop
 2208 0042 7244     		lw	s0,28(sp)
 2209              		.cfi_restore 8
 2210              		.cfi_def_cfa 2, 32
 2211 0044 0561     		addi	sp,sp,32
 2212              		.cfi_def_cfa_offset 0
 2213 0046 8280     		jr	ra
 2214              		.cfi_endproc
 2215              	.LFE401:
 2217              		.section	.text.i2c_bus_timeout_a_config,"ax",@progbits
 2218              		.align	1
 2219              		.globl	i2c_bus_timeout_a_config
 2221              	i2c_bus_timeout_a_config:
 2222              	.LFB402:
 780:../Firmware/GD32VW55x_standard_peripheral/Source/gd32vw55x_i2c.c **** 
 781:../Firmware/GD32VW55x_standard_peripheral/Source/gd32vw55x_i2c.c **** /*!
 782:../Firmware/GD32VW55x_standard_peripheral/Source/gd32vw55x_i2c.c ****     \brief      configure bus timeout A
 783:../Firmware/GD32VW55x_standard_peripheral/Source/gd32vw55x_i2c.c ****     \param[in]  i2c_periph: I2Cx(x=0,1)
 784:../Firmware/GD32VW55x_standard_peripheral/Source/gd32vw55x_i2c.c ****     \param[in]  timeout: bus timeout A
 785:../Firmware/GD32VW55x_standard_peripheral/Source/gd32vw55x_i2c.c ****     \param[out] none
 786:../Firmware/GD32VW55x_standard_peripheral/Source/gd32vw55x_i2c.c ****     \retval     none
 787:../Firmware/GD32VW55x_standard_peripheral/Source/gd32vw55x_i2c.c **** */
 788:../Firmware/GD32VW55x_standard_peripheral/Source/gd32vw55x_i2c.c **** void i2c_bus_timeout_a_config(uint32_t i2c_periph, uint32_t timeout)
 789:../Firmware/GD32VW55x_standard_peripheral/Source/gd32vw55x_i2c.c **** {
 2223              		.loc 1 789 1
 2224              		.cfi_startproc
 2225 0000 0111     		addi	sp,sp,-32
 2226              		.cfi_def_cfa_offset 32
 2227 0002 22CE     		sw	s0,28(sp)
 2228              		.cfi_offset 8, -4
 2229 0004 0010     		addi	s0,sp,32
 2230              		.cfi_def_cfa 8, 0
 2231 0006 2326A4FE 		sw	a0,-20(s0)
 2232 000a 2324B4FE 		sw	a1,-24(s0)
 790:../Firmware/GD32VW55x_standard_peripheral/Source/gd32vw55x_i2c.c ****     I2C_TIMEOUT(i2c_periph) &= ~I2C_TIMEOUT_BUSTOA;
 2233              		.loc 1 790 29
 2234 000e 8327C4FE 		lw	a5,-20(s0)
 2235 0012 D107     		addi	a5,a5,20
 2236 0014 9843     		lw	a4,0(a5)
 2237 0016 8327C4FE 		lw	a5,-20(s0)
 2238 001a D107     		addi	a5,a5,20
 2239 001c BE86     		mv	a3,a5
 2240 001e FD77     		li	a5,-4096
 2241 0020 F98F     		and	a5,a4,a5
 2242 0022 9CC2     		sw	a5,0(a3)
 791:../Firmware/GD32VW55x_standard_peripheral/Source/gd32vw55x_i2c.c ****     I2C_TIMEOUT(i2c_periph) |= timeout;
 2243              		.loc 1 791 29
 2244 0024 8327C4FE 		lw	a5,-20(s0)
 2245 0028 D107     		addi	a5,a5,20
 2246 002a 9843     		lw	a4,0(a5)
 2247 002c 8327C4FE 		lw	a5,-20(s0)
 2248 0030 D107     		addi	a5,a5,20
 2249 0032 BE86     		mv	a3,a5
 2250 0034 832784FE 		lw	a5,-24(s0)
 2251 0038 D98F     		or	a5,a4,a5
 2252 003a 9CC2     		sw	a5,0(a3)
 792:../Firmware/GD32VW55x_standard_peripheral/Source/gd32vw55x_i2c.c **** }
 2253              		.loc 1 792 1
 2254 003c 0100     		nop
 2255 003e 7244     		lw	s0,28(sp)
 2256              		.cfi_restore 8
 2257              		.cfi_def_cfa 2, 32
 2258 0040 0561     		addi	sp,sp,32
 2259              		.cfi_def_cfa_offset 0
 2260 0042 8280     		jr	ra
 2261              		.cfi_endproc
 2262              	.LFE402:
 2264              		.section	.text.i2c_idle_clock_timeout_config,"ax",@progbits
 2265              		.align	1
 2266              		.globl	i2c_idle_clock_timeout_config
 2268              	i2c_idle_clock_timeout_config:
 2269              	.LFB403:
 793:../Firmware/GD32VW55x_standard_peripheral/Source/gd32vw55x_i2c.c **** 
 794:../Firmware/GD32VW55x_standard_peripheral/Source/gd32vw55x_i2c.c **** /*!
 795:../Firmware/GD32VW55x_standard_peripheral/Source/gd32vw55x_i2c.c ****     \brief      configure idle clock timeout detection
 796:../Firmware/GD32VW55x_standard_peripheral/Source/gd32vw55x_i2c.c ****     \param[in]  i2c_periph: I2Cx(x=0,1)
 797:../Firmware/GD32VW55x_standard_peripheral/Source/gd32vw55x_i2c.c ****     \param[in]  timeout: bus timeout A
 798:../Firmware/GD32VW55x_standard_peripheral/Source/gd32vw55x_i2c.c ****       \arg        BUSTOA_DETECT_SCL_LOW: BUSTOA is used to detect SCL low timeout
 799:../Firmware/GD32VW55x_standard_peripheral/Source/gd32vw55x_i2c.c ****       \arg        BUSTOA_DETECT_IDLE: BUSTOA is used to detect both SCL and SDA high timeout when t
 800:../Firmware/GD32VW55x_standard_peripheral/Source/gd32vw55x_i2c.c ****     \param[out] none
 801:../Firmware/GD32VW55x_standard_peripheral/Source/gd32vw55x_i2c.c ****     \retval     none
 802:../Firmware/GD32VW55x_standard_peripheral/Source/gd32vw55x_i2c.c **** */
 803:../Firmware/GD32VW55x_standard_peripheral/Source/gd32vw55x_i2c.c **** void i2c_idle_clock_timeout_config(uint32_t i2c_periph, uint32_t timeout)
 804:../Firmware/GD32VW55x_standard_peripheral/Source/gd32vw55x_i2c.c **** {
 2270              		.loc 1 804 1
 2271              		.cfi_startproc
 2272 0000 0111     		addi	sp,sp,-32
 2273              		.cfi_def_cfa_offset 32
 2274 0002 22CE     		sw	s0,28(sp)
 2275              		.cfi_offset 8, -4
 2276 0004 0010     		addi	s0,sp,32
 2277              		.cfi_def_cfa 8, 0
 2278 0006 2326A4FE 		sw	a0,-20(s0)
 2279 000a 2324B4FE 		sw	a1,-24(s0)
 805:../Firmware/GD32VW55x_standard_peripheral/Source/gd32vw55x_i2c.c ****     I2C_TIMEOUT(i2c_periph) &= ~I2C_TIMEOUT_TOIDLE;
 2280              		.loc 1 805 29
 2281 000e 8327C4FE 		lw	a5,-20(s0)
 2282 0012 D107     		addi	a5,a5,20
 2283 0014 9843     		lw	a4,0(a5)
 2284 0016 8327C4FE 		lw	a5,-20(s0)
 2285 001a D107     		addi	a5,a5,20
 2286 001c BE86     		mv	a3,a5
 2287 001e FD77     		li	a5,-4096
 2288 0020 FD17     		addi	a5,a5,-1
 2289 0022 F98F     		and	a5,a4,a5
 2290 0024 9CC2     		sw	a5,0(a3)
 806:../Firmware/GD32VW55x_standard_peripheral/Source/gd32vw55x_i2c.c ****     I2C_TIMEOUT(i2c_periph) |= timeout;
 2291              		.loc 1 806 29
 2292 0026 8327C4FE 		lw	a5,-20(s0)
 2293 002a D107     		addi	a5,a5,20
 2294 002c 9843     		lw	a4,0(a5)
 2295 002e 8327C4FE 		lw	a5,-20(s0)
 2296 0032 D107     		addi	a5,a5,20
 2297 0034 BE86     		mv	a3,a5
 2298 0036 832784FE 		lw	a5,-24(s0)
 2299 003a D98F     		or	a5,a4,a5
 2300 003c 9CC2     		sw	a5,0(a3)
 807:../Firmware/GD32VW55x_standard_peripheral/Source/gd32vw55x_i2c.c **** }
 2301              		.loc 1 807 1
 2302 003e 0100     		nop
 2303 0040 7244     		lw	s0,28(sp)
 2304              		.cfi_restore 8
 2305              		.cfi_def_cfa 2, 32
 2306 0042 0561     		addi	sp,sp,32
 2307              		.cfi_def_cfa_offset 0
 2308 0044 8280     		jr	ra
 2309              		.cfi_endproc
 2310              	.LFE403:
 2312              		.section	.text.i2c_flag_get,"ax",@progbits
 2313              		.align	1
 2314              		.globl	i2c_flag_get
 2316              	i2c_flag_get:
 2317              	.LFB404:
 808:../Firmware/GD32VW55x_standard_peripheral/Source/gd32vw55x_i2c.c **** 
 809:../Firmware/GD32VW55x_standard_peripheral/Source/gd32vw55x_i2c.c **** /*!
 810:../Firmware/GD32VW55x_standard_peripheral/Source/gd32vw55x_i2c.c ****     \brief      get I2C flag status
 811:../Firmware/GD32VW55x_standard_peripheral/Source/gd32vw55x_i2c.c ****     \param[in]  i2c_periph: I2Cx(x=0,1)
 812:../Firmware/GD32VW55x_standard_peripheral/Source/gd32vw55x_i2c.c ****     \param[in]  flag: I2C flags
 813:../Firmware/GD32VW55x_standard_peripheral/Source/gd32vw55x_i2c.c ****                 only one parameter can be selected which is shown as below:
 814:../Firmware/GD32VW55x_standard_peripheral/Source/gd32vw55x_i2c.c ****       \arg        I2C_FLAG_TBE: I2C_TDATA is empty during transmitting
 815:../Firmware/GD32VW55x_standard_peripheral/Source/gd32vw55x_i2c.c ****       \arg        I2C_FLAG_TI: transmit interrupt
 816:../Firmware/GD32VW55x_standard_peripheral/Source/gd32vw55x_i2c.c ****       \arg        I2C_FLAG_RBNE: I2C_RDATA is not empty during receiving
 817:../Firmware/GD32VW55x_standard_peripheral/Source/gd32vw55x_i2c.c ****       \arg        I2C_FLAG_ADDSEND: address received matches in slave mode
 818:../Firmware/GD32VW55x_standard_peripheral/Source/gd32vw55x_i2c.c ****       \arg        I2C_FLAG_NACK: not acknowledge flag
 819:../Firmware/GD32VW55x_standard_peripheral/Source/gd32vw55x_i2c.c ****       \arg        I2C_FLAG_STPDET: STOP condition detected in slave mode
 820:../Firmware/GD32VW55x_standard_peripheral/Source/gd32vw55x_i2c.c ****       \arg        I2C_FLAG_TC: transfer complete in master mode
 821:../Firmware/GD32VW55x_standard_peripheral/Source/gd32vw55x_i2c.c ****       \arg        I2C_FLAG_TCR: transfer complete reload
 822:../Firmware/GD32VW55x_standard_peripheral/Source/gd32vw55x_i2c.c ****       \arg        I2C_FLAG_BERR: bus error
 823:../Firmware/GD32VW55x_standard_peripheral/Source/gd32vw55x_i2c.c ****       \arg        I2C_FLAG_LOSTARB: arbitration Lost
 824:../Firmware/GD32VW55x_standard_peripheral/Source/gd32vw55x_i2c.c ****       \arg        I2C_FLAG_OUERR: overrun/underrun error in slave mode
 825:../Firmware/GD32VW55x_standard_peripheral/Source/gd32vw55x_i2c.c ****       \arg        I2C_FLAG_PECERR: PEC error
 826:../Firmware/GD32VW55x_standard_peripheral/Source/gd32vw55x_i2c.c ****       \arg        I2C_FLAG_TIMEOUT: timeout flag
 827:../Firmware/GD32VW55x_standard_peripheral/Source/gd32vw55x_i2c.c ****       \arg        I2C_FLAG_SMBALT: SMBus alert
 828:../Firmware/GD32VW55x_standard_peripheral/Source/gd32vw55x_i2c.c ****       \arg        I2C_FLAG_I2CBSY: busy flag
 829:../Firmware/GD32VW55x_standard_peripheral/Source/gd32vw55x_i2c.c ****       \arg        I2C_FLAG_TR: whether the I2C is a transmitter or a receiver in slave mode
 830:../Firmware/GD32VW55x_standard_peripheral/Source/gd32vw55x_i2c.c ****     \param[out] none
 831:../Firmware/GD32VW55x_standard_peripheral/Source/gd32vw55x_i2c.c ****     \retval     FlagStatus: SET or RESET
 832:../Firmware/GD32VW55x_standard_peripheral/Source/gd32vw55x_i2c.c **** */
 833:../Firmware/GD32VW55x_standard_peripheral/Source/gd32vw55x_i2c.c **** FlagStatus i2c_flag_get(uint32_t i2c_periph, uint32_t flag)
 834:../Firmware/GD32VW55x_standard_peripheral/Source/gd32vw55x_i2c.c **** {
 2318              		.loc 1 834 1
 2319              		.cfi_startproc
 2320 0000 0111     		addi	sp,sp,-32
 2321              		.cfi_def_cfa_offset 32
 2322 0002 22CE     		sw	s0,28(sp)
 2323              		.cfi_offset 8, -4
 2324 0004 0010     		addi	s0,sp,32
 2325              		.cfi_def_cfa 8, 0
 2326 0006 2326A4FE 		sw	a0,-20(s0)
 2327 000a 2324B4FE 		sw	a1,-24(s0)
 835:../Firmware/GD32VW55x_standard_peripheral/Source/gd32vw55x_i2c.c ****     if(RESET != (I2C_STAT(i2c_periph) & flag)){
 2328              		.loc 1 835 18
 2329 000e 8327C4FE 		lw	a5,-20(s0)
 2330 0012 E107     		addi	a5,a5,24
 2331 0014 9843     		lw	a4,0(a5)
 2332              		.loc 1 835 39
 2333 0016 832784FE 		lw	a5,-24(s0)
 2334 001a F98F     		and	a5,a4,a5
 2335              		.loc 1 835 7
 2336 001c 99C3     		beq	a5,zero,.L72
 836:../Firmware/GD32VW55x_standard_peripheral/Source/gd32vw55x_i2c.c ****         return SET;
 2337              		.loc 1 836 16
 2338 001e 8547     		li	a5,1
 2339 0020 11A0     		j	.L73
 2340              	.L72:
 837:../Firmware/GD32VW55x_standard_peripheral/Source/gd32vw55x_i2c.c ****     }else{
 838:../Firmware/GD32VW55x_standard_peripheral/Source/gd32vw55x_i2c.c ****         return RESET;
 2341              		.loc 1 838 16
 2342 0022 8147     		li	a5,0
 2343              	.L73:
 839:../Firmware/GD32VW55x_standard_peripheral/Source/gd32vw55x_i2c.c ****     }
 840:../Firmware/GD32VW55x_standard_peripheral/Source/gd32vw55x_i2c.c **** }
 2344              		.loc 1 840 1
 2345 0024 3E85     		mv	a0,a5
 2346 0026 7244     		lw	s0,28(sp)
 2347              		.cfi_restore 8
 2348              		.cfi_def_cfa 2, 32
 2349 0028 0561     		addi	sp,sp,32
 2350              		.cfi_def_cfa_offset 0
 2351 002a 8280     		jr	ra
 2352              		.cfi_endproc
 2353              	.LFE404:
 2355              		.section	.text.i2c_flag_clear,"ax",@progbits
 2356              		.align	1
 2357              		.globl	i2c_flag_clear
 2359              	i2c_flag_clear:
 2360              	.LFB405:
 841:../Firmware/GD32VW55x_standard_peripheral/Source/gd32vw55x_i2c.c **** 
 842:../Firmware/GD32VW55x_standard_peripheral/Source/gd32vw55x_i2c.c **** /*!
 843:../Firmware/GD32VW55x_standard_peripheral/Source/gd32vw55x_i2c.c ****     \brief      clear I2C flag status
 844:../Firmware/GD32VW55x_standard_peripheral/Source/gd32vw55x_i2c.c ****     \param[in]  i2c_periph: I2Cx(x=0,1)
 845:../Firmware/GD32VW55x_standard_peripheral/Source/gd32vw55x_i2c.c ****     \param[in]  flag: I2C flags
 846:../Firmware/GD32VW55x_standard_peripheral/Source/gd32vw55x_i2c.c ****                 one or more parameters can be selected which are shown as below:
 847:../Firmware/GD32VW55x_standard_peripheral/Source/gd32vw55x_i2c.c ****       \arg        I2C_FLAG_ADDSEND: address received matches in slave mode
 848:../Firmware/GD32VW55x_standard_peripheral/Source/gd32vw55x_i2c.c ****       \arg        I2C_FLAG_NACK: not acknowledge flag
 849:../Firmware/GD32VW55x_standard_peripheral/Source/gd32vw55x_i2c.c ****       \arg        I2C_FLAG_STPDET: STOP condition detected in slave mode
 850:../Firmware/GD32VW55x_standard_peripheral/Source/gd32vw55x_i2c.c ****       \arg        I2C_FLAG_BERR: bus error
 851:../Firmware/GD32VW55x_standard_peripheral/Source/gd32vw55x_i2c.c ****       \arg        I2C_FLAG_LOSTARB: arbitration Lost
 852:../Firmware/GD32VW55x_standard_peripheral/Source/gd32vw55x_i2c.c ****       \arg        I2C_FLAG_OUERR: overrun/underrun error in slave mode
 853:../Firmware/GD32VW55x_standard_peripheral/Source/gd32vw55x_i2c.c ****       \arg        I2C_FLAG_PECERR: PEC error
 854:../Firmware/GD32VW55x_standard_peripheral/Source/gd32vw55x_i2c.c ****       \arg        I2C_FLAG_TIMEOUT: timeout flag
 855:../Firmware/GD32VW55x_standard_peripheral/Source/gd32vw55x_i2c.c ****       \arg        I2C_FLAG_SMBALT: SMBus alert
 856:../Firmware/GD32VW55x_standard_peripheral/Source/gd32vw55x_i2c.c ****     \param[out] none
 857:../Firmware/GD32VW55x_standard_peripheral/Source/gd32vw55x_i2c.c ****     \retval     none
 858:../Firmware/GD32VW55x_standard_peripheral/Source/gd32vw55x_i2c.c **** */
 859:../Firmware/GD32VW55x_standard_peripheral/Source/gd32vw55x_i2c.c **** void i2c_flag_clear(uint32_t i2c_periph, uint32_t flag)
 860:../Firmware/GD32VW55x_standard_peripheral/Source/gd32vw55x_i2c.c **** {
 2361              		.loc 1 860 1
 2362              		.cfi_startproc
 2363 0000 0111     		addi	sp,sp,-32
 2364              		.cfi_def_cfa_offset 32
 2365 0002 22CE     		sw	s0,28(sp)
 2366              		.cfi_offset 8, -4
 2367 0004 0010     		addi	s0,sp,32
 2368              		.cfi_def_cfa 8, 0
 2369 0006 2326A4FE 		sw	a0,-20(s0)
 2370 000a 2324B4FE 		sw	a1,-24(s0)
 861:../Firmware/GD32VW55x_standard_peripheral/Source/gd32vw55x_i2c.c ****     I2C_STATC(i2c_periph) |= flag;
 2371              		.loc 1 861 27
 2372 000e 8327C4FE 		lw	a5,-20(s0)
 2373 0012 F107     		addi	a5,a5,28
 2374 0014 9843     		lw	a4,0(a5)
 2375 0016 8327C4FE 		lw	a5,-20(s0)
 2376 001a F107     		addi	a5,a5,28
 2377 001c BE86     		mv	a3,a5
 2378 001e 832784FE 		lw	a5,-24(s0)
 2379 0022 D98F     		or	a5,a4,a5
 2380 0024 9CC2     		sw	a5,0(a3)
 862:../Firmware/GD32VW55x_standard_peripheral/Source/gd32vw55x_i2c.c **** }
 2381              		.loc 1 862 1
 2382 0026 0100     		nop
 2383 0028 7244     		lw	s0,28(sp)
 2384              		.cfi_restore 8
 2385              		.cfi_def_cfa 2, 32
 2386 002a 0561     		addi	sp,sp,32
 2387              		.cfi_def_cfa_offset 0
 2388 002c 8280     		jr	ra
 2389              		.cfi_endproc
 2390              	.LFE405:
 2392              		.section	.text.i2c_interrupt_enable,"ax",@progbits
 2393              		.align	1
 2394              		.globl	i2c_interrupt_enable
 2396              	i2c_interrupt_enable:
 2397              	.LFB406:
 863:../Firmware/GD32VW55x_standard_peripheral/Source/gd32vw55x_i2c.c **** 
 864:../Firmware/GD32VW55x_standard_peripheral/Source/gd32vw55x_i2c.c **** /*!
 865:../Firmware/GD32VW55x_standard_peripheral/Source/gd32vw55x_i2c.c ****     \brief      enable I2C interrupt
 866:../Firmware/GD32VW55x_standard_peripheral/Source/gd32vw55x_i2c.c ****     \param[in]  i2c_periph: I2Cx(x=0,1)
 867:../Firmware/GD32VW55x_standard_peripheral/Source/gd32vw55x_i2c.c ****     \param[in]  interrupt: I2C interrupts
 868:../Firmware/GD32VW55x_standard_peripheral/Source/gd32vw55x_i2c.c ****                 one or more parameters can be selected which are shown as below:
 869:../Firmware/GD32VW55x_standard_peripheral/Source/gd32vw55x_i2c.c ****       \arg        I2C_INT_ERR: error interrupt
 870:../Firmware/GD32VW55x_standard_peripheral/Source/gd32vw55x_i2c.c ****       \arg        I2C_INT_TC: transfer complete interrupt
 871:../Firmware/GD32VW55x_standard_peripheral/Source/gd32vw55x_i2c.c ****       \arg        I2C_INT_STPDET: stop detection interrupt
 872:../Firmware/GD32VW55x_standard_peripheral/Source/gd32vw55x_i2c.c ****       \arg        I2C_INT_NACK: not acknowledge received interrupt
 873:../Firmware/GD32VW55x_standard_peripheral/Source/gd32vw55x_i2c.c ****       \arg        I2C_INT_ADDM: address match interrupt
 874:../Firmware/GD32VW55x_standard_peripheral/Source/gd32vw55x_i2c.c ****       \arg        I2C_INT_RBNE: receive interrupt
 875:../Firmware/GD32VW55x_standard_peripheral/Source/gd32vw55x_i2c.c ****       \arg        I2C_INT_TI: transmit interrupt
 876:../Firmware/GD32VW55x_standard_peripheral/Source/gd32vw55x_i2c.c ****     \param[out] none
 877:../Firmware/GD32VW55x_standard_peripheral/Source/gd32vw55x_i2c.c ****     \retval     none
 878:../Firmware/GD32VW55x_standard_peripheral/Source/gd32vw55x_i2c.c **** */
 879:../Firmware/GD32VW55x_standard_peripheral/Source/gd32vw55x_i2c.c **** void i2c_interrupt_enable(uint32_t i2c_periph, uint32_t interrupt)
 880:../Firmware/GD32VW55x_standard_peripheral/Source/gd32vw55x_i2c.c **** {
 2398              		.loc 1 880 1
 2399              		.cfi_startproc
 2400 0000 0111     		addi	sp,sp,-32
 2401              		.cfi_def_cfa_offset 32
 2402 0002 22CE     		sw	s0,28(sp)
 2403              		.cfi_offset 8, -4
 2404 0004 0010     		addi	s0,sp,32
 2405              		.cfi_def_cfa 8, 0
 2406 0006 2326A4FE 		sw	a0,-20(s0)
 2407 000a 2324B4FE 		sw	a1,-24(s0)
 881:../Firmware/GD32VW55x_standard_peripheral/Source/gd32vw55x_i2c.c ****     I2C_CTL0(i2c_periph) |= interrupt;
 2408              		.loc 1 881 26
 2409 000e 8327C4FE 		lw	a5,-20(s0)
 2410 0012 9443     		lw	a3,0(a5)
 2411 0014 8327C4FE 		lw	a5,-20(s0)
 2412 0018 032784FE 		lw	a4,-24(s0)
 2413 001c 558F     		or	a4,a3,a4
 2414 001e 98C3     		sw	a4,0(a5)
 882:../Firmware/GD32VW55x_standard_peripheral/Source/gd32vw55x_i2c.c **** }
 2415              		.loc 1 882 1
 2416 0020 0100     		nop
 2417 0022 7244     		lw	s0,28(sp)
 2418              		.cfi_restore 8
 2419              		.cfi_def_cfa 2, 32
 2420 0024 0561     		addi	sp,sp,32
 2421              		.cfi_def_cfa_offset 0
 2422 0026 8280     		jr	ra
 2423              		.cfi_endproc
 2424              	.LFE406:
 2426              		.section	.text.i2c_interrupt_disable,"ax",@progbits
 2427              		.align	1
 2428              		.globl	i2c_interrupt_disable
 2430              	i2c_interrupt_disable:
 2431              	.LFB407:
 883:../Firmware/GD32VW55x_standard_peripheral/Source/gd32vw55x_i2c.c **** 
 884:../Firmware/GD32VW55x_standard_peripheral/Source/gd32vw55x_i2c.c **** /*!
 885:../Firmware/GD32VW55x_standard_peripheral/Source/gd32vw55x_i2c.c ****     \brief      disable I2C interrupt
 886:../Firmware/GD32VW55x_standard_peripheral/Source/gd32vw55x_i2c.c ****     \param[in]  i2c_periph: I2Cx(x=0,1)
 887:../Firmware/GD32VW55x_standard_peripheral/Source/gd32vw55x_i2c.c ****     \param[in]  interrupt: I2C interrupts
 888:../Firmware/GD32VW55x_standard_peripheral/Source/gd32vw55x_i2c.c ****                 one or more parameters can be selected which are shown as below:
 889:../Firmware/GD32VW55x_standard_peripheral/Source/gd32vw55x_i2c.c ****       \arg        I2C_INT_ERR: error interrupt
 890:../Firmware/GD32VW55x_standard_peripheral/Source/gd32vw55x_i2c.c ****       \arg        I2C_INT_TC: transfer complete interrupt
 891:../Firmware/GD32VW55x_standard_peripheral/Source/gd32vw55x_i2c.c ****       \arg        I2C_INT_STPDET: stop detection interrupt
 892:../Firmware/GD32VW55x_standard_peripheral/Source/gd32vw55x_i2c.c ****       \arg        I2C_INT_NACK: not acknowledge received interrupt
 893:../Firmware/GD32VW55x_standard_peripheral/Source/gd32vw55x_i2c.c ****       \arg        I2C_INT_ADDM: address match interrupt
 894:../Firmware/GD32VW55x_standard_peripheral/Source/gd32vw55x_i2c.c ****       \arg        I2C_INT_RBNE: receive interrupt
 895:../Firmware/GD32VW55x_standard_peripheral/Source/gd32vw55x_i2c.c ****       \arg        I2C_INT_TI: transmit interrupt
 896:../Firmware/GD32VW55x_standard_peripheral/Source/gd32vw55x_i2c.c ****     \param[out] none
 897:../Firmware/GD32VW55x_standard_peripheral/Source/gd32vw55x_i2c.c ****     \retval     none
 898:../Firmware/GD32VW55x_standard_peripheral/Source/gd32vw55x_i2c.c **** */
 899:../Firmware/GD32VW55x_standard_peripheral/Source/gd32vw55x_i2c.c **** void i2c_interrupt_disable(uint32_t i2c_periph, uint32_t interrupt)
 900:../Firmware/GD32VW55x_standard_peripheral/Source/gd32vw55x_i2c.c **** {
 2432              		.loc 1 900 1
 2433              		.cfi_startproc
 2434 0000 0111     		addi	sp,sp,-32
 2435              		.cfi_def_cfa_offset 32
 2436 0002 22CE     		sw	s0,28(sp)
 2437              		.cfi_offset 8, -4
 2438 0004 0010     		addi	s0,sp,32
 2439              		.cfi_def_cfa 8, 0
 2440 0006 2326A4FE 		sw	a0,-20(s0)
 2441 000a 2324B4FE 		sw	a1,-24(s0)
 901:../Firmware/GD32VW55x_standard_peripheral/Source/gd32vw55x_i2c.c ****     I2C_CTL0(i2c_periph) &= ~interrupt;
 2442              		.loc 1 901 26
 2443 000e 8327C4FE 		lw	a5,-20(s0)
 2444 0012 9443     		lw	a3,0(a5)
 2445              		.loc 1 901 29
 2446 0014 832784FE 		lw	a5,-24(s0)
 2447 0018 13C7F7FF 		not	a4,a5
 2448              		.loc 1 901 26
 2449 001c 8327C4FE 		lw	a5,-20(s0)
 2450 0020 758F     		and	a4,a3,a4
 2451 0022 98C3     		sw	a4,0(a5)
 902:../Firmware/GD32VW55x_standard_peripheral/Source/gd32vw55x_i2c.c **** }
 2452              		.loc 1 902 1
 2453 0024 0100     		nop
 2454 0026 7244     		lw	s0,28(sp)
 2455              		.cfi_restore 8
 2456              		.cfi_def_cfa 2, 32
 2457 0028 0561     		addi	sp,sp,32
 2458              		.cfi_def_cfa_offset 0
 2459 002a 8280     		jr	ra
 2460              		.cfi_endproc
 2461              	.LFE407:
 2463              		.section	.text.i2c_interrupt_flag_get,"ax",@progbits
 2464              		.align	1
 2465              		.globl	i2c_interrupt_flag_get
 2467              	i2c_interrupt_flag_get:
 2468              	.LFB408:
 903:../Firmware/GD32VW55x_standard_peripheral/Source/gd32vw55x_i2c.c **** 
 904:../Firmware/GD32VW55x_standard_peripheral/Source/gd32vw55x_i2c.c **** /*!
 905:../Firmware/GD32VW55x_standard_peripheral/Source/gd32vw55x_i2c.c ****     \brief      get I2C interrupt flag status
 906:../Firmware/GD32VW55x_standard_peripheral/Source/gd32vw55x_i2c.c ****     \param[in]  i2c_periph: I2Cx(x=0,1)
 907:../Firmware/GD32VW55x_standard_peripheral/Source/gd32vw55x_i2c.c ****     \param[in]  int_flag: I2C interrupt flags, refer to i2c_interrupt_flag_enum
 908:../Firmware/GD32VW55x_standard_peripheral/Source/gd32vw55x_i2c.c ****                 only one parameter can be selected which is shown as below:
 909:../Firmware/GD32VW55x_standard_peripheral/Source/gd32vw55x_i2c.c ****       \arg        I2C_INT_FLAG_TI: transmit interrupt flag
 910:../Firmware/GD32VW55x_standard_peripheral/Source/gd32vw55x_i2c.c ****       \arg        I2C_INT_FLAG_RBNE: I2C_RDATA is not empty during receiving interrupt flag
 911:../Firmware/GD32VW55x_standard_peripheral/Source/gd32vw55x_i2c.c ****       \arg        I2C_INT_FLAG_ADDSEND: address received matches in slave mode interrupt flag
 912:../Firmware/GD32VW55x_standard_peripheral/Source/gd32vw55x_i2c.c ****       \arg        I2C_INT_FLAG_NACK: not acknowledge interrupt flag
 913:../Firmware/GD32VW55x_standard_peripheral/Source/gd32vw55x_i2c.c ****       \arg        I2C_INT_FLAG_STPDET: stop condition detected in slave mode interrupt flag
 914:../Firmware/GD32VW55x_standard_peripheral/Source/gd32vw55x_i2c.c ****       \arg        I2C_INT_FLAG_TC: transfer complete in master mode interrupt flag
 915:../Firmware/GD32VW55x_standard_peripheral/Source/gd32vw55x_i2c.c ****       \arg        I2C_INT_FLAG_TCR: transfer complete reload interrupt flag
 916:../Firmware/GD32VW55x_standard_peripheral/Source/gd32vw55x_i2c.c ****       \arg        I2C_INT_FLAG_BERR: bus error interrupt flag
 917:../Firmware/GD32VW55x_standard_peripheral/Source/gd32vw55x_i2c.c ****       \arg        I2C_INT_FLAG_LOSTARB: arbitration lost interrupt flag
 918:../Firmware/GD32VW55x_standard_peripheral/Source/gd32vw55x_i2c.c ****       \arg        I2C_INT_FLAG_OUERR: overrun/underrun error in slave mode interrupt flag
 919:../Firmware/GD32VW55x_standard_peripheral/Source/gd32vw55x_i2c.c ****       \arg        I2C_INT_FLAG_PECERR: PEC error interrupt flag
 920:../Firmware/GD32VW55x_standard_peripheral/Source/gd32vw55x_i2c.c ****       \arg        I2C_INT_FLAG_TIMEOUT: timeout interrupt flag
 921:../Firmware/GD32VW55x_standard_peripheral/Source/gd32vw55x_i2c.c ****       \arg        I2C_INT_FLAG_SMBALT: SMBus Alert interrupt flag
 922:../Firmware/GD32VW55x_standard_peripheral/Source/gd32vw55x_i2c.c ****     \param[out] none
 923:../Firmware/GD32VW55x_standard_peripheral/Source/gd32vw55x_i2c.c ****     \retval     FlagStatus: SET or RESET
 924:../Firmware/GD32VW55x_standard_peripheral/Source/gd32vw55x_i2c.c **** */
 925:../Firmware/GD32VW55x_standard_peripheral/Source/gd32vw55x_i2c.c **** FlagStatus i2c_interrupt_flag_get(uint32_t i2c_periph, i2c_interrupt_flag_enum int_flag)
 926:../Firmware/GD32VW55x_standard_peripheral/Source/gd32vw55x_i2c.c **** {
 2469              		.loc 1 926 1
 2470              		.cfi_startproc
 2471 0000 7971     		addi	sp,sp,-48
 2472              		.cfi_def_cfa_offset 48
 2473 0002 22D6     		sw	s0,44(sp)
 2474              		.cfi_offset 8, -4
 2475 0004 0018     		addi	s0,sp,48
 2476              		.cfi_def_cfa 8, 0
 2477 0006 232EA4FC 		sw	a0,-36(s0)
 2478 000a 232CB4FC 		sw	a1,-40(s0)
 927:../Firmware/GD32VW55x_standard_peripheral/Source/gd32vw55x_i2c.c ****     uint32_t ret1 = RESET;
 2479              		.loc 1 927 14
 2480 000e 232604FE 		sw	zero,-20(s0)
 928:../Firmware/GD32VW55x_standard_peripheral/Source/gd32vw55x_i2c.c ****     uint32_t ret2 = RESET;
 2481              		.loc 1 928 14
 2482 0012 232404FE 		sw	zero,-24(s0)
 929:../Firmware/GD32VW55x_standard_peripheral/Source/gd32vw55x_i2c.c **** 
 930:../Firmware/GD32VW55x_standard_peripheral/Source/gd32vw55x_i2c.c ****     /* get the status of interrupt enable bit */
 931:../Firmware/GD32VW55x_standard_peripheral/Source/gd32vw55x_i2c.c ****     ret1 = (I2C_REG_VAL(i2c_periph, int_flag) & BIT(I2C_BIT_POS(int_flag)));
 2483              		.loc 1 931 13
 2484 0016 832784FD 		lw	a5,-40(s0)
 2485 001a 9983     		srli	a5,a5,6
 2486 001c 13F7F73F 		andi	a4,a5,1023
 2487 0020 8327C4FD 		lw	a5,-36(s0)
 2488 0024 BA97     		add	a5,a4,a5
 2489 0026 9843     		lw	a4,0(a5)
 2490              		.loc 1 931 49
 2491 0028 832784FD 		lw	a5,-40(s0)
 2492 002c FD8B     		andi	a5,a5,31
 2493 002e 8546     		li	a3,1
 2494 0030 B397F600 		sll	a5,a3,a5
 2495              		.loc 1 931 10
 2496 0034 F98F     		and	a5,a4,a5
 2497 0036 2326F4FE 		sw	a5,-20(s0)
 932:../Firmware/GD32VW55x_standard_peripheral/Source/gd32vw55x_i2c.c ****     /* get the status of interrupt flag */
 933:../Firmware/GD32VW55x_standard_peripheral/Source/gd32vw55x_i2c.c ****     ret2 = (I2C_REG_VAL2(i2c_periph, int_flag) & BIT(I2C_BIT_POS2(int_flag)));
 2498              		.loc 1 933 13
 2499 003a 832784FD 		lw	a5,-40(s0)
 2500 003e 13D76701 		srli	a4,a5,22
 2501 0042 8327C4FD 		lw	a5,-36(s0)
 2502 0046 BA97     		add	a5,a4,a5
 2503 0048 9843     		lw	a4,0(a5)
 2504              		.loc 1 933 50
 2505 004a 832784FD 		lw	a5,-40(s0)
 2506 004e C183     		srli	a5,a5,16
 2507 0050 FD8B     		andi	a5,a5,31
 2508 0052 8546     		li	a3,1
 2509 0054 B397F600 		sll	a5,a3,a5
 2510              		.loc 1 933 10
 2511 0058 F98F     		and	a5,a4,a5
 2512 005a 2324F4FE 		sw	a5,-24(s0)
 934:../Firmware/GD32VW55x_standard_peripheral/Source/gd32vw55x_i2c.c ****     if(ret1 && ret2){
 2513              		.loc 1 934 7
 2514 005e 8327C4FE 		lw	a5,-20(s0)
 2515 0062 91C7     		beq	a5,zero,.L78
 2516              		.loc 1 934 13 discriminator 1
 2517 0064 832784FE 		lw	a5,-24(s0)
 2518 0068 99C3     		beq	a5,zero,.L78
 935:../Firmware/GD32VW55x_standard_peripheral/Source/gd32vw55x_i2c.c ****         return SET;
 2519              		.loc 1 935 16
 2520 006a 8547     		li	a5,1
 2521 006c 11A0     		j	.L79
 2522              	.L78:
 936:../Firmware/GD32VW55x_standard_peripheral/Source/gd32vw55x_i2c.c ****     }else{
 937:../Firmware/GD32VW55x_standard_peripheral/Source/gd32vw55x_i2c.c ****         return RESET;
 2523              		.loc 1 937 16
 2524 006e 8147     		li	a5,0
 2525              	.L79:
 938:../Firmware/GD32VW55x_standard_peripheral/Source/gd32vw55x_i2c.c ****     }
 939:../Firmware/GD32VW55x_standard_peripheral/Source/gd32vw55x_i2c.c **** }
 2526              		.loc 1 939 1
 2527 0070 3E85     		mv	a0,a5
 2528 0072 3254     		lw	s0,44(sp)
 2529              		.cfi_restore 8
 2530              		.cfi_def_cfa 2, 48
 2531 0074 4561     		addi	sp,sp,48
 2532              		.cfi_def_cfa_offset 0
 2533 0076 8280     		jr	ra
 2534              		.cfi_endproc
 2535              	.LFE408:
 2537              		.section	.text.i2c_interrupt_flag_clear,"ax",@progbits
 2538              		.align	1
 2539              		.globl	i2c_interrupt_flag_clear
 2541              	i2c_interrupt_flag_clear:
 2542              	.LFB409:
 940:../Firmware/GD32VW55x_standard_peripheral/Source/gd32vw55x_i2c.c **** 
 941:../Firmware/GD32VW55x_standard_peripheral/Source/gd32vw55x_i2c.c **** /*!
 942:../Firmware/GD32VW55x_standard_peripheral/Source/gd32vw55x_i2c.c ****     \brief      clear I2C interrupt flag status
 943:../Firmware/GD32VW55x_standard_peripheral/Source/gd32vw55x_i2c.c ****     \param[in]  i2c_periph: I2Cx(x=0,1)
 944:../Firmware/GD32VW55x_standard_peripheral/Source/gd32vw55x_i2c.c ****     \param[in]  int_flag: I2C interrupt flags, refer to i2c_interrupt_flag_enum
 945:../Firmware/GD32VW55x_standard_peripheral/Source/gd32vw55x_i2c.c ****                 only one parameter can be selected which is shown as below:
 946:../Firmware/GD32VW55x_standard_peripheral/Source/gd32vw55x_i2c.c ****       \arg        I2C_INT_FLAG_ADDSEND: address received matches in slave mode interrupt flag
 947:../Firmware/GD32VW55x_standard_peripheral/Source/gd32vw55x_i2c.c ****       \arg        I2C_INT_FLAG_NACK: not acknowledge interrupt flag
 948:../Firmware/GD32VW55x_standard_peripheral/Source/gd32vw55x_i2c.c ****       \arg        I2C_INT_FLAG_STPDET: stop condition detected in slave mode interrupt flag
 949:../Firmware/GD32VW55x_standard_peripheral/Source/gd32vw55x_i2c.c ****       \arg        I2C_INT_FLAG_BERR: bus error interrupt flag
 950:../Firmware/GD32VW55x_standard_peripheral/Source/gd32vw55x_i2c.c ****       \arg        I2C_INT_FLAG_LOSTARB: arbitration lost interrupt flag
 951:../Firmware/GD32VW55x_standard_peripheral/Source/gd32vw55x_i2c.c ****       \arg        I2C_INT_FLAG_OUERR: overrun/underrun error in slave mode interrupt flag
 952:../Firmware/GD32VW55x_standard_peripheral/Source/gd32vw55x_i2c.c ****       \arg        I2C_INT_FLAG_PECERR: PEC error interrupt flag
 953:../Firmware/GD32VW55x_standard_peripheral/Source/gd32vw55x_i2c.c ****       \arg        I2C_INT_FLAG_TIMEOUT: timeout interrupt flag
 954:../Firmware/GD32VW55x_standard_peripheral/Source/gd32vw55x_i2c.c ****       \arg        I2C_INT_FLAG_SMBALT: SMBus Alert interrupt flag
 955:../Firmware/GD32VW55x_standard_peripheral/Source/gd32vw55x_i2c.c ****     \param[out] none
 956:../Firmware/GD32VW55x_standard_peripheral/Source/gd32vw55x_i2c.c ****     \retval     none
 957:../Firmware/GD32VW55x_standard_peripheral/Source/gd32vw55x_i2c.c **** */
 958:../Firmware/GD32VW55x_standard_peripheral/Source/gd32vw55x_i2c.c **** void i2c_interrupt_flag_clear(uint32_t i2c_periph, i2c_interrupt_flag_enum int_flag)
 959:../Firmware/GD32VW55x_standard_peripheral/Source/gd32vw55x_i2c.c **** {
 2543              		.loc 1 959 1
 2544              		.cfi_startproc
 2545 0000 0111     		addi	sp,sp,-32
 2546              		.cfi_def_cfa_offset 32
 2547 0002 22CE     		sw	s0,28(sp)
 2548              		.cfi_offset 8, -4
 2549 0004 0010     		addi	s0,sp,32
 2550              		.cfi_def_cfa 8, 0
 2551 0006 2326A4FE 		sw	a0,-20(s0)
 2552 000a 2324B4FE 		sw	a1,-24(s0)
 960:../Firmware/GD32VW55x_standard_peripheral/Source/gd32vw55x_i2c.c ****     I2C_STATC(i2c_periph) |= BIT(I2C_BIT_POS2(int_flag));
 2553              		.loc 1 960 27
 2554 000e 8327C4FE 		lw	a5,-20(s0)
 2555 0012 F107     		addi	a5,a5,28
 2556 0014 9843     		lw	a4,0(a5)
 2557              		.loc 1 960 30
 2558 0016 832784FE 		lw	a5,-24(s0)
 2559 001a C183     		srli	a5,a5,16
 2560 001c FD8B     		andi	a5,a5,31
 2561 001e 8546     		li	a3,1
 2562 0020 B397F600 		sll	a5,a3,a5
 2563              		.loc 1 960 27
 2564 0024 8326C4FE 		lw	a3,-20(s0)
 2565 0028 F106     		addi	a3,a3,28
 2566 002a D98F     		or	a5,a4,a5
 2567 002c 9CC2     		sw	a5,0(a3)
 961:../Firmware/GD32VW55x_standard_peripheral/Source/gd32vw55x_i2c.c **** }
 2568              		.loc 1 961 1
 2569 002e 0100     		nop
 2570 0030 7244     		lw	s0,28(sp)
 2571              		.cfi_restore 8
 2572              		.cfi_def_cfa 2, 32
 2573 0032 0561     		addi	sp,sp,32
 2574              		.cfi_def_cfa_offset 0
 2575 0034 8280     		jr	ra
 2576              		.cfi_endproc
 2577              	.LFE409:
 2579              		.text
 2580              	.Letext0:
 2581              		.file 2 "e:\\gd32\\gd32embeddedbuilder_v1.5.2.30854\\tools\\nuclei_riscv_newlibc_prebuilt_win32_20
 2582              		.file 3 "e:\\gd32\\gd32embeddedbuilder_v1.5.2.30854\\tools\\nuclei_riscv_newlibc_prebuilt_win32_20
 2583              		.file 4 "../Firmware/GD32VW55x_standard_peripheral/gd32vw55x.h"
 2584              		.file 5 "../Firmware/GD32VW55x_standard_peripheral/Include/gd32vw55x_rcu.h"
 2585              		.file 6 "../Firmware/GD32VW55x_standard_peripheral/Include/gd32vw55x_i2c.h"
DEFINED SYMBOLS
                            *ABS*:0000000000000000 gd32vw55x_i2c.c
C:\Users\CYMR90~1\AppData\Local\Temp\ccZoYVSv.s:13     .text.i2c_deinit:0000000000000000 i2c_deinit
C:\Users\CYMR90~1\AppData\Local\Temp\ccZoYVSv.s:17     .text.i2c_deinit:0000000000000000 .L0 
C:\Users\CYMR90~1\AppData\Local\Temp\ccZoYVSv.s:18     .text.i2c_deinit:0000000000000000 .L0 
C:\Users\CYMR90~1\AppData\Local\Temp\ccZoYVSv.s:19     .text.i2c_deinit:0000000000000002 .L0 
C:\Users\CYMR90~1\AppData\Local\Temp\ccZoYVSv.s:22     .text.i2c_deinit:0000000000000006 .L0 
C:\Users\CYMR90~1\AppData\Local\Temp\ccZoYVSv.s:23     .text.i2c_deinit:0000000000000006 .L0 
C:\Users\CYMR90~1\AppData\Local\Temp\ccZoYVSv.s:25     .text.i2c_deinit:0000000000000008 .L0 
C:\Users\CYMR90~1\AppData\Local\Temp\ccZoYVSv.s:28     .text.i2c_deinit:000000000000000c .L0 
C:\Users\CYMR90~1\AppData\Local\Temp\ccZoYVSv.s:37     .text.i2c_deinit:000000000000002c .L0 
C:\Users\CYMR90~1\AppData\Local\Temp\ccZoYVSv.s:40     .text.i2c_deinit:000000000000002e .L0 
C:\Users\CYMR90~1\AppData\Local\Temp\ccZoYVSv.s:44     .text.i2c_deinit:000000000000003c .L0 
C:\Users\CYMR90~1\AppData\Local\Temp\ccZoYVSv.s:48     .text.i2c_deinit:000000000000004a .L0 
C:\Users\CYMR90~1\AppData\Local\Temp\ccZoYVSv.s:51     .text.i2c_deinit:000000000000004c .L0 
C:\Users\CYMR90~1\AppData\Local\Temp\ccZoYVSv.s:55     .text.i2c_deinit:000000000000005a .L0 
C:\Users\CYMR90~1\AppData\Local\Temp\ccZoYVSv.s:59     .text.i2c_deinit:0000000000000068 .L0 
C:\Users\CYMR90~1\AppData\Local\Temp\ccZoYVSv.s:62     .text.i2c_deinit:000000000000006a .L0 
C:\Users\CYMR90~1\AppData\Local\Temp\ccZoYVSv.s:64     .text.i2c_deinit:000000000000006e .L0 
C:\Users\CYMR90~1\AppData\Local\Temp\ccZoYVSv.s:66     .text.i2c_deinit:0000000000000070 .L0 
C:\Users\CYMR90~1\AppData\Local\Temp\ccZoYVSv.s:67     .text.i2c_deinit:0000000000000070 .L0 
C:\Users\CYMR90~1\AppData\Local\Temp\ccZoYVSv.s:69     .text.i2c_deinit:0000000000000072 .L0 
C:\Users\CYMR90~1\AppData\Local\Temp\ccZoYVSv.s:71     .text.i2c_deinit:0000000000000074 .L0 
C:\Users\CYMR90~1\AppData\Local\Temp\ccZoYVSv.s:78     .text.i2c_timing_config:0000000000000000 i2c_timing_config
C:\Users\CYMR90~1\AppData\Local\Temp\ccZoYVSv.s:81     .text.i2c_timing_config:0000000000000000 .L0 
C:\Users\CYMR90~1\AppData\Local\Temp\ccZoYVSv.s:82     .text.i2c_timing_config:0000000000000000 .L0 
C:\Users\CYMR90~1\AppData\Local\Temp\ccZoYVSv.s:83     .text.i2c_timing_config:0000000000000002 .L0 
C:\Users\CYMR90~1\AppData\Local\Temp\ccZoYVSv.s:85     .text.i2c_timing_config:0000000000000004 .L0 
C:\Users\CYMR90~1\AppData\Local\Temp\ccZoYVSv.s:87     .text.i2c_timing_config:0000000000000006 .L0 
C:\Users\CYMR90~1\AppData\Local\Temp\ccZoYVSv.s:93     .text.i2c_timing_config:0000000000000016 .L0 
C:\Users\CYMR90~1\AppData\Local\Temp\ccZoYVSv.s:104    .text.i2c_timing_config:0000000000000030 .L0 
C:\Users\CYMR90~1\AppData\Local\Temp\ccZoYVSv.s:115    .text.i2c_timing_config:000000000000004a .L0 
C:\Users\CYMR90~1\AppData\Local\Temp\ccZoYVSv.s:126    .text.i2c_timing_config:0000000000000064 .L0 
C:\Users\CYMR90~1\AppData\Local\Temp\ccZoYVSv.s:130    .text.i2c_timing_config:000000000000006e .L0 
C:\Users\CYMR90~1\AppData\Local\Temp\ccZoYVSv.s:133    .text.i2c_timing_config:0000000000000076 .L0 
C:\Users\CYMR90~1\AppData\Local\Temp\ccZoYVSv.s:137    .text.i2c_timing_config:0000000000000080 .L0 
C:\Users\CYMR90~1\AppData\Local\Temp\ccZoYVSv.s:140    .text.i2c_timing_config:0000000000000088 .L0 
C:\Users\CYMR90~1\AppData\Local\Temp\ccZoYVSv.s:144    .text.i2c_timing_config:0000000000000092 .L0 
C:\Users\CYMR90~1\AppData\Local\Temp\ccZoYVSv.s:148    .text.i2c_timing_config:000000000000009a .L0 
C:\Users\CYMR90~1\AppData\Local\Temp\ccZoYVSv.s:152    .text.i2c_timing_config:00000000000000a4 .L0 
C:\Users\CYMR90~1\AppData\Local\Temp\ccZoYVSv.s:155    .text.i2c_timing_config:00000000000000aa .L0 
C:\Users\CYMR90~1\AppData\Local\Temp\ccZoYVSv.s:160    .text.i2c_timing_config:00000000000000b4 .L0 
C:\Users\CYMR90~1\AppData\Local\Temp\ccZoYVSv.s:162    .text.i2c_timing_config:00000000000000b8 .L0 
C:\Users\CYMR90~1\AppData\Local\Temp\ccZoYVSv.s:163    .text.i2c_timing_config:00000000000000b8 .L0 
C:\Users\CYMR90~1\AppData\Local\Temp\ccZoYVSv.s:165    .text.i2c_timing_config:00000000000000ba .L0 
C:\Users\CYMR90~1\AppData\Local\Temp\ccZoYVSv.s:167    .text.i2c_timing_config:00000000000000bc .L0 
C:\Users\CYMR90~1\AppData\Local\Temp\ccZoYVSv.s:174    .text.i2c_digital_noise_filter_config:0000000000000000 i2c_digital_noise_filter_config
C:\Users\CYMR90~1\AppData\Local\Temp\ccZoYVSv.s:177    .text.i2c_digital_noise_filter_config:0000000000000000 .L0 
C:\Users\CYMR90~1\AppData\Local\Temp\ccZoYVSv.s:178    .text.i2c_digital_noise_filter_config:0000000000000000 .L0 
C:\Users\CYMR90~1\AppData\Local\Temp\ccZoYVSv.s:179    .text.i2c_digital_noise_filter_config:0000000000000002 .L0 
C:\Users\CYMR90~1\AppData\Local\Temp\ccZoYVSv.s:181    .text.i2c_digital_noise_filter_config:0000000000000004 .L0 
C:\Users\CYMR90~1\AppData\Local\Temp\ccZoYVSv.s:183    .text.i2c_digital_noise_filter_config:0000000000000006 .L0 
C:\Users\CYMR90~1\AppData\Local\Temp\ccZoYVSv.s:187    .text.i2c_digital_noise_filter_config:000000000000000e .L0 
C:\Users\CYMR90~1\AppData\Local\Temp\ccZoYVSv.s:195    .text.i2c_digital_noise_filter_config:0000000000000022 .L0 
C:\Users\CYMR90~1\AppData\Local\Temp\ccZoYVSv.s:198    .text.i2c_digital_noise_filter_config:0000000000000028 .L0 
C:\Users\CYMR90~1\AppData\Local\Temp\ccZoYVSv.s:201    .text.i2c_digital_noise_filter_config:0000000000000030 .L0 
C:\Users\CYMR90~1\AppData\Local\Temp\ccZoYVSv.s:205    .text.i2c_digital_noise_filter_config:0000000000000038 .L0 
C:\Users\CYMR90~1\AppData\Local\Temp\ccZoYVSv.s:207    .text.i2c_digital_noise_filter_config:000000000000003c .L0 
C:\Users\CYMR90~1\AppData\Local\Temp\ccZoYVSv.s:208    .text.i2c_digital_noise_filter_config:000000000000003c .L0 
C:\Users\CYMR90~1\AppData\Local\Temp\ccZoYVSv.s:210    .text.i2c_digital_noise_filter_config:000000000000003e .L0 
C:\Users\CYMR90~1\AppData\Local\Temp\ccZoYVSv.s:212    .text.i2c_digital_noise_filter_config:0000000000000040 .L0 
C:\Users\CYMR90~1\AppData\Local\Temp\ccZoYVSv.s:219    .text.i2c_analog_noise_filter_enable:0000000000000000 i2c_analog_noise_filter_enable
C:\Users\CYMR90~1\AppData\Local\Temp\ccZoYVSv.s:222    .text.i2c_analog_noise_filter_enable:0000000000000000 .L0 
C:\Users\CYMR90~1\AppData\Local\Temp\ccZoYVSv.s:223    .text.i2c_analog_noise_filter_enable:0000000000000000 .L0 
C:\Users\CYMR90~1\AppData\Local\Temp\ccZoYVSv.s:224    .text.i2c_analog_noise_filter_enable:0000000000000002 .L0 
C:\Users\CYMR90~1\AppData\Local\Temp\ccZoYVSv.s:226    .text.i2c_analog_noise_filter_enable:0000000000000004 .L0 
C:\Users\CYMR90~1\AppData\Local\Temp\ccZoYVSv.s:228    .text.i2c_analog_noise_filter_enable:0000000000000006 .L0 
C:\Users\CYMR90~1\AppData\Local\Temp\ccZoYVSv.s:231    .text.i2c_analog_noise_filter_enable:000000000000000a .L0 
C:\Users\CYMR90~1\AppData\Local\Temp\ccZoYVSv.s:239    .text.i2c_analog_noise_filter_enable:000000000000001c .L0 
C:\Users\CYMR90~1\AppData\Local\Temp\ccZoYVSv.s:241    .text.i2c_analog_noise_filter_enable:0000000000000020 .L0 
C:\Users\CYMR90~1\AppData\Local\Temp\ccZoYVSv.s:242    .text.i2c_analog_noise_filter_enable:0000000000000020 .L0 
C:\Users\CYMR90~1\AppData\Local\Temp\ccZoYVSv.s:244    .text.i2c_analog_noise_filter_enable:0000000000000022 .L0 
C:\Users\CYMR90~1\AppData\Local\Temp\ccZoYVSv.s:246    .text.i2c_analog_noise_filter_enable:0000000000000024 .L0 
C:\Users\CYMR90~1\AppData\Local\Temp\ccZoYVSv.s:253    .text.i2c_analog_noise_filter_disable:0000000000000000 i2c_analog_noise_filter_disable
C:\Users\CYMR90~1\AppData\Local\Temp\ccZoYVSv.s:256    .text.i2c_analog_noise_filter_disable:0000000000000000 .L0 
C:\Users\CYMR90~1\AppData\Local\Temp\ccZoYVSv.s:257    .text.i2c_analog_noise_filter_disable:0000000000000000 .L0 
C:\Users\CYMR90~1\AppData\Local\Temp\ccZoYVSv.s:258    .text.i2c_analog_noise_filter_disable:0000000000000002 .L0 
C:\Users\CYMR90~1\AppData\Local\Temp\ccZoYVSv.s:260    .text.i2c_analog_noise_filter_disable:0000000000000004 .L0 
C:\Users\CYMR90~1\AppData\Local\Temp\ccZoYVSv.s:262    .text.i2c_analog_noise_filter_disable:0000000000000006 .L0 
C:\Users\CYMR90~1\AppData\Local\Temp\ccZoYVSv.s:265    .text.i2c_analog_noise_filter_disable:000000000000000a .L0 
C:\Users\CYMR90~1\AppData\Local\Temp\ccZoYVSv.s:272    .text.i2c_analog_noise_filter_disable:000000000000001a .L0 
C:\Users\CYMR90~1\AppData\Local\Temp\ccZoYVSv.s:274    .text.i2c_analog_noise_filter_disable:000000000000001e .L0 
C:\Users\CYMR90~1\AppData\Local\Temp\ccZoYVSv.s:275    .text.i2c_analog_noise_filter_disable:000000000000001e .L0 
C:\Users\CYMR90~1\AppData\Local\Temp\ccZoYVSv.s:277    .text.i2c_analog_noise_filter_disable:0000000000000020 .L0 
C:\Users\CYMR90~1\AppData\Local\Temp\ccZoYVSv.s:279    .text.i2c_analog_noise_filter_disable:0000000000000022 .L0 
C:\Users\CYMR90~1\AppData\Local\Temp\ccZoYVSv.s:286    .text.i2c_master_clock_config:0000000000000000 i2c_master_clock_config
C:\Users\CYMR90~1\AppData\Local\Temp\ccZoYVSv.s:289    .text.i2c_master_clock_config:0000000000000000 .L0 
C:\Users\CYMR90~1\AppData\Local\Temp\ccZoYVSv.s:290    .text.i2c_master_clock_config:0000000000000000 .L0 
C:\Users\CYMR90~1\AppData\Local\Temp\ccZoYVSv.s:291    .text.i2c_master_clock_config:0000000000000002 .L0 
C:\Users\CYMR90~1\AppData\Local\Temp\ccZoYVSv.s:293    .text.i2c_master_clock_config:0000000000000004 .L0 
C:\Users\CYMR90~1\AppData\Local\Temp\ccZoYVSv.s:295    .text.i2c_master_clock_config:0000000000000006 .L0 
C:\Users\CYMR90~1\AppData\Local\Temp\ccZoYVSv.s:300    .text.i2c_master_clock_config:0000000000000012 .L0 
C:\Users\CYMR90~1\AppData\Local\Temp\ccZoYVSv.s:311    .text.i2c_master_clock_config:000000000000002c .L0 
C:\Users\CYMR90~1\AppData\Local\Temp\ccZoYVSv.s:319    .text.i2c_master_clock_config:0000000000000040 .L0 
C:\Users\CYMR90~1\AppData\Local\Temp\ccZoYVSv.s:322    .text.i2c_master_clock_config:0000000000000048 .L0 
C:\Users\CYMR90~1\AppData\Local\Temp\ccZoYVSv.s:327    .text.i2c_master_clock_config:0000000000000052 .L0 
C:\Users\CYMR90~1\AppData\Local\Temp\ccZoYVSv.s:331    .text.i2c_master_clock_config:000000000000005e .L0 
C:\Users\CYMR90~1\AppData\Local\Temp\ccZoYVSv.s:335    .text.i2c_master_clock_config:0000000000000066 .L0 
C:\Users\CYMR90~1\AppData\Local\Temp\ccZoYVSv.s:339    .text.i2c_master_clock_config:0000000000000070 .L0 
C:\Users\CYMR90~1\AppData\Local\Temp\ccZoYVSv.s:344    .text.i2c_master_clock_config:000000000000007a .L0 
C:\Users\CYMR90~1\AppData\Local\Temp\ccZoYVSv.s:346    .text.i2c_master_clock_config:000000000000007e .L0 
C:\Users\CYMR90~1\AppData\Local\Temp\ccZoYVSv.s:347    .text.i2c_master_clock_config:000000000000007e .L0 
C:\Users\CYMR90~1\AppData\Local\Temp\ccZoYVSv.s:349    .text.i2c_master_clock_config:0000000000000080 .L0 
C:\Users\CYMR90~1\AppData\Local\Temp\ccZoYVSv.s:351    .text.i2c_master_clock_config:0000000000000082 .L0 
C:\Users\CYMR90~1\AppData\Local\Temp\ccZoYVSv.s:358    .text.i2c_master_addressing:0000000000000000 i2c_master_addressing
C:\Users\CYMR90~1\AppData\Local\Temp\ccZoYVSv.s:361    .text.i2c_master_addressing:0000000000000000 .L0 
C:\Users\CYMR90~1\AppData\Local\Temp\ccZoYVSv.s:362    .text.i2c_master_addressing:0000000000000000 .L0 
C:\Users\CYMR90~1\AppData\Local\Temp\ccZoYVSv.s:363    .text.i2c_master_addressing:0000000000000002 .L0 
C:\Users\CYMR90~1\AppData\Local\Temp\ccZoYVSv.s:365    .text.i2c_master_addressing:0000000000000004 .L0 
C:\Users\CYMR90~1\AppData\Local\Temp\ccZoYVSv.s:367    .text.i2c_master_addressing:0000000000000006 .L0 
C:\Users\CYMR90~1\AppData\Local\Temp\ccZoYVSv.s:372    .text.i2c_master_addressing:0000000000000012 .L0 
C:\Users\CYMR90~1\AppData\Local\Temp\ccZoYVSv.s:380    .text.i2c_master_addressing:0000000000000026 .L0 
C:\Users\CYMR90~1\AppData\Local\Temp\ccZoYVSv.s:390    .text.i2c_master_addressing:000000000000003e .L0 
C:\Users\CYMR90~1\AppData\Local\Temp\ccZoYVSv.s:398    .text.i2c_master_addressing:0000000000000052 .L0 
C:\Users\CYMR90~1\AppData\Local\Temp\ccZoYVSv.s:408    .text.i2c_master_addressing:000000000000006a .L0 
C:\Users\CYMR90~1\AppData\Local\Temp\ccZoYVSv.s:410    .text.i2c_master_addressing:000000000000006e .L0 
C:\Users\CYMR90~1\AppData\Local\Temp\ccZoYVSv.s:411    .text.i2c_master_addressing:000000000000006e .L0 
C:\Users\CYMR90~1\AppData\Local\Temp\ccZoYVSv.s:413    .text.i2c_master_addressing:0000000000000070 .L0 
C:\Users\CYMR90~1\AppData\Local\Temp\ccZoYVSv.s:415    .text.i2c_master_addressing:0000000000000072 .L0 
C:\Users\CYMR90~1\AppData\Local\Temp\ccZoYVSv.s:422    .text.i2c_address10_header_enable:0000000000000000 i2c_address10_header_enable
C:\Users\CYMR90~1\AppData\Local\Temp\ccZoYVSv.s:425    .text.i2c_address10_header_enable:0000000000000000 .L0 
C:\Users\CYMR90~1\AppData\Local\Temp\ccZoYVSv.s:426    .text.i2c_address10_header_enable:0000000000000000 .L0 
C:\Users\CYMR90~1\AppData\Local\Temp\ccZoYVSv.s:427    .text.i2c_address10_header_enable:0000000000000002 .L0 
C:\Users\CYMR90~1\AppData\Local\Temp\ccZoYVSv.s:429    .text.i2c_address10_header_enable:0000000000000004 .L0 
C:\Users\CYMR90~1\AppData\Local\Temp\ccZoYVSv.s:431    .text.i2c_address10_header_enable:0000000000000006 .L0 
C:\Users\CYMR90~1\AppData\Local\Temp\ccZoYVSv.s:434    .text.i2c_address10_header_enable:000000000000000a .L0 
C:\Users\CYMR90~1\AppData\Local\Temp\ccZoYVSv.s:444    .text.i2c_address10_header_enable:0000000000000020 .L0 
C:\Users\CYMR90~1\AppData\Local\Temp\ccZoYVSv.s:446    .text.i2c_address10_header_enable:0000000000000024 .L0 
C:\Users\CYMR90~1\AppData\Local\Temp\ccZoYVSv.s:447    .text.i2c_address10_header_enable:0000000000000024 .L0 
C:\Users\CYMR90~1\AppData\Local\Temp\ccZoYVSv.s:449    .text.i2c_address10_header_enable:0000000000000026 .L0 
C:\Users\CYMR90~1\AppData\Local\Temp\ccZoYVSv.s:451    .text.i2c_address10_header_enable:0000000000000028 .L0 
C:\Users\CYMR90~1\AppData\Local\Temp\ccZoYVSv.s:458    .text.i2c_address10_header_disable:0000000000000000 i2c_address10_header_disable
C:\Users\CYMR90~1\AppData\Local\Temp\ccZoYVSv.s:461    .text.i2c_address10_header_disable:0000000000000000 .L0 
C:\Users\CYMR90~1\AppData\Local\Temp\ccZoYVSv.s:462    .text.i2c_address10_header_disable:0000000000000000 .L0 
C:\Users\CYMR90~1\AppData\Local\Temp\ccZoYVSv.s:463    .text.i2c_address10_header_disable:0000000000000002 .L0 
C:\Users\CYMR90~1\AppData\Local\Temp\ccZoYVSv.s:465    .text.i2c_address10_header_disable:0000000000000004 .L0 
C:\Users\CYMR90~1\AppData\Local\Temp\ccZoYVSv.s:467    .text.i2c_address10_header_disable:0000000000000006 .L0 
C:\Users\CYMR90~1\AppData\Local\Temp\ccZoYVSv.s:470    .text.i2c_address10_header_disable:000000000000000a .L0 
C:\Users\CYMR90~1\AppData\Local\Temp\ccZoYVSv.s:481    .text.i2c_address10_header_disable:0000000000000022 .L0 
C:\Users\CYMR90~1\AppData\Local\Temp\ccZoYVSv.s:483    .text.i2c_address10_header_disable:0000000000000026 .L0 
C:\Users\CYMR90~1\AppData\Local\Temp\ccZoYVSv.s:484    .text.i2c_address10_header_disable:0000000000000026 .L0 
C:\Users\CYMR90~1\AppData\Local\Temp\ccZoYVSv.s:486    .text.i2c_address10_header_disable:0000000000000028 .L0 
C:\Users\CYMR90~1\AppData\Local\Temp\ccZoYVSv.s:488    .text.i2c_address10_header_disable:000000000000002a .L0 
C:\Users\CYMR90~1\AppData\Local\Temp\ccZoYVSv.s:495    .text.i2c_address10_enable:0000000000000000 i2c_address10_enable
C:\Users\CYMR90~1\AppData\Local\Temp\ccZoYVSv.s:498    .text.i2c_address10_enable:0000000000000000 .L0 
C:\Users\CYMR90~1\AppData\Local\Temp\ccZoYVSv.s:499    .text.i2c_address10_enable:0000000000000000 .L0 
C:\Users\CYMR90~1\AppData\Local\Temp\ccZoYVSv.s:500    .text.i2c_address10_enable:0000000000000002 .L0 
C:\Users\CYMR90~1\AppData\Local\Temp\ccZoYVSv.s:502    .text.i2c_address10_enable:0000000000000004 .L0 
C:\Users\CYMR90~1\AppData\Local\Temp\ccZoYVSv.s:504    .text.i2c_address10_enable:0000000000000006 .L0 
C:\Users\CYMR90~1\AppData\Local\Temp\ccZoYVSv.s:507    .text.i2c_address10_enable:000000000000000a .L0 
C:\Users\CYMR90~1\AppData\Local\Temp\ccZoYVSv.s:518    .text.i2c_address10_enable:0000000000000024 .L0 
C:\Users\CYMR90~1\AppData\Local\Temp\ccZoYVSv.s:520    .text.i2c_address10_enable:0000000000000028 .L0 
C:\Users\CYMR90~1\AppData\Local\Temp\ccZoYVSv.s:521    .text.i2c_address10_enable:0000000000000028 .L0 
C:\Users\CYMR90~1\AppData\Local\Temp\ccZoYVSv.s:523    .text.i2c_address10_enable:000000000000002a .L0 
C:\Users\CYMR90~1\AppData\Local\Temp\ccZoYVSv.s:525    .text.i2c_address10_enable:000000000000002c .L0 
C:\Users\CYMR90~1\AppData\Local\Temp\ccZoYVSv.s:532    .text.i2c_address10_disable:0000000000000000 i2c_address10_disable
C:\Users\CYMR90~1\AppData\Local\Temp\ccZoYVSv.s:535    .text.i2c_address10_disable:0000000000000000 .L0 
C:\Users\CYMR90~1\AppData\Local\Temp\ccZoYVSv.s:536    .text.i2c_address10_disable:0000000000000000 .L0 
C:\Users\CYMR90~1\AppData\Local\Temp\ccZoYVSv.s:537    .text.i2c_address10_disable:0000000000000002 .L0 
C:\Users\CYMR90~1\AppData\Local\Temp\ccZoYVSv.s:539    .text.i2c_address10_disable:0000000000000004 .L0 
C:\Users\CYMR90~1\AppData\Local\Temp\ccZoYVSv.s:541    .text.i2c_address10_disable:0000000000000006 .L0 
C:\Users\CYMR90~1\AppData\Local\Temp\ccZoYVSv.s:544    .text.i2c_address10_disable:000000000000000a .L0 
C:\Users\CYMR90~1\AppData\Local\Temp\ccZoYVSv.s:555    .text.i2c_address10_disable:0000000000000024 .L0 
C:\Users\CYMR90~1\AppData\Local\Temp\ccZoYVSv.s:557    .text.i2c_address10_disable:0000000000000028 .L0 
C:\Users\CYMR90~1\AppData\Local\Temp\ccZoYVSv.s:558    .text.i2c_address10_disable:0000000000000028 .L0 
C:\Users\CYMR90~1\AppData\Local\Temp\ccZoYVSv.s:560    .text.i2c_address10_disable:000000000000002a .L0 
C:\Users\CYMR90~1\AppData\Local\Temp\ccZoYVSv.s:562    .text.i2c_address10_disable:000000000000002c .L0 
C:\Users\CYMR90~1\AppData\Local\Temp\ccZoYVSv.s:569    .text.i2c_automatic_end_enable:0000000000000000 i2c_automatic_end_enable
C:\Users\CYMR90~1\AppData\Local\Temp\ccZoYVSv.s:572    .text.i2c_automatic_end_enable:0000000000000000 .L0 
C:\Users\CYMR90~1\AppData\Local\Temp\ccZoYVSv.s:573    .text.i2c_automatic_end_enable:0000000000000000 .L0 
C:\Users\CYMR90~1\AppData\Local\Temp\ccZoYVSv.s:574    .text.i2c_automatic_end_enable:0000000000000002 .L0 
C:\Users\CYMR90~1\AppData\Local\Temp\ccZoYVSv.s:576    .text.i2c_automatic_end_enable:0000000000000004 .L0 
C:\Users\CYMR90~1\AppData\Local\Temp\ccZoYVSv.s:578    .text.i2c_automatic_end_enable:0000000000000006 .L0 
C:\Users\CYMR90~1\AppData\Local\Temp\ccZoYVSv.s:581    .text.i2c_automatic_end_enable:000000000000000a .L0 
C:\Users\CYMR90~1\AppData\Local\Temp\ccZoYVSv.s:591    .text.i2c_automatic_end_enable:0000000000000022 .L0 
C:\Users\CYMR90~1\AppData\Local\Temp\ccZoYVSv.s:593    .text.i2c_automatic_end_enable:0000000000000026 .L0 
C:\Users\CYMR90~1\AppData\Local\Temp\ccZoYVSv.s:594    .text.i2c_automatic_end_enable:0000000000000026 .L0 
C:\Users\CYMR90~1\AppData\Local\Temp\ccZoYVSv.s:596    .text.i2c_automatic_end_enable:0000000000000028 .L0 
C:\Users\CYMR90~1\AppData\Local\Temp\ccZoYVSv.s:598    .text.i2c_automatic_end_enable:000000000000002a .L0 
C:\Users\CYMR90~1\AppData\Local\Temp\ccZoYVSv.s:605    .text.i2c_automatic_end_disable:0000000000000000 i2c_automatic_end_disable
C:\Users\CYMR90~1\AppData\Local\Temp\ccZoYVSv.s:608    .text.i2c_automatic_end_disable:0000000000000000 .L0 
C:\Users\CYMR90~1\AppData\Local\Temp\ccZoYVSv.s:609    .text.i2c_automatic_end_disable:0000000000000000 .L0 
C:\Users\CYMR90~1\AppData\Local\Temp\ccZoYVSv.s:610    .text.i2c_automatic_end_disable:0000000000000002 .L0 
C:\Users\CYMR90~1\AppData\Local\Temp\ccZoYVSv.s:612    .text.i2c_automatic_end_disable:0000000000000004 .L0 
C:\Users\CYMR90~1\AppData\Local\Temp\ccZoYVSv.s:614    .text.i2c_automatic_end_disable:0000000000000006 .L0 
C:\Users\CYMR90~1\AppData\Local\Temp\ccZoYVSv.s:617    .text.i2c_automatic_end_disable:000000000000000a .L0 
C:\Users\CYMR90~1\AppData\Local\Temp\ccZoYVSv.s:628    .text.i2c_automatic_end_disable:0000000000000024 .L0 
C:\Users\CYMR90~1\AppData\Local\Temp\ccZoYVSv.s:630    .text.i2c_automatic_end_disable:0000000000000028 .L0 
C:\Users\CYMR90~1\AppData\Local\Temp\ccZoYVSv.s:631    .text.i2c_automatic_end_disable:0000000000000028 .L0 
C:\Users\CYMR90~1\AppData\Local\Temp\ccZoYVSv.s:633    .text.i2c_automatic_end_disable:000000000000002a .L0 
C:\Users\CYMR90~1\AppData\Local\Temp\ccZoYVSv.s:635    .text.i2c_automatic_end_disable:000000000000002c .L0 
C:\Users\CYMR90~1\AppData\Local\Temp\ccZoYVSv.s:642    .text.i2c_slave_response_to_gcall_enable:0000000000000000 i2c_slave_response_to_gcall_enable
C:\Users\CYMR90~1\AppData\Local\Temp\ccZoYVSv.s:645    .text.i2c_slave_response_to_gcall_enable:0000000000000000 .L0 
C:\Users\CYMR90~1\AppData\Local\Temp\ccZoYVSv.s:646    .text.i2c_slave_response_to_gcall_enable:0000000000000000 .L0 
C:\Users\CYMR90~1\AppData\Local\Temp\ccZoYVSv.s:647    .text.i2c_slave_response_to_gcall_enable:0000000000000002 .L0 
C:\Users\CYMR90~1\AppData\Local\Temp\ccZoYVSv.s:649    .text.i2c_slave_response_to_gcall_enable:0000000000000004 .L0 
C:\Users\CYMR90~1\AppData\Local\Temp\ccZoYVSv.s:651    .text.i2c_slave_response_to_gcall_enable:0000000000000006 .L0 
C:\Users\CYMR90~1\AppData\Local\Temp\ccZoYVSv.s:654    .text.i2c_slave_response_to_gcall_enable:000000000000000a .L0 
C:\Users\CYMR90~1\AppData\Local\Temp\ccZoYVSv.s:661    .text.i2c_slave_response_to_gcall_enable:000000000000001c .L0 
C:\Users\CYMR90~1\AppData\Local\Temp\ccZoYVSv.s:663    .text.i2c_slave_response_to_gcall_enable:0000000000000020 .L0 
C:\Users\CYMR90~1\AppData\Local\Temp\ccZoYVSv.s:664    .text.i2c_slave_response_to_gcall_enable:0000000000000020 .L0 
C:\Users\CYMR90~1\AppData\Local\Temp\ccZoYVSv.s:666    .text.i2c_slave_response_to_gcall_enable:0000000000000022 .L0 
C:\Users\CYMR90~1\AppData\Local\Temp\ccZoYVSv.s:668    .text.i2c_slave_response_to_gcall_enable:0000000000000024 .L0 
C:\Users\CYMR90~1\AppData\Local\Temp\ccZoYVSv.s:675    .text.i2c_slave_response_to_gcall_disable:0000000000000000 i2c_slave_response_to_gcall_disable
C:\Users\CYMR90~1\AppData\Local\Temp\ccZoYVSv.s:678    .text.i2c_slave_response_to_gcall_disable:0000000000000000 .L0 
C:\Users\CYMR90~1\AppData\Local\Temp\ccZoYVSv.s:679    .text.i2c_slave_response_to_gcall_disable:0000000000000000 .L0 
C:\Users\CYMR90~1\AppData\Local\Temp\ccZoYVSv.s:680    .text.i2c_slave_response_to_gcall_disable:0000000000000002 .L0 
C:\Users\CYMR90~1\AppData\Local\Temp\ccZoYVSv.s:682    .text.i2c_slave_response_to_gcall_disable:0000000000000004 .L0 
C:\Users\CYMR90~1\AppData\Local\Temp\ccZoYVSv.s:684    .text.i2c_slave_response_to_gcall_disable:0000000000000006 .L0 
C:\Users\CYMR90~1\AppData\Local\Temp\ccZoYVSv.s:687    .text.i2c_slave_response_to_gcall_disable:000000000000000a .L0 
C:\Users\CYMR90~1\AppData\Local\Temp\ccZoYVSv.s:695    .text.i2c_slave_response_to_gcall_disable:000000000000001e .L0 
C:\Users\CYMR90~1\AppData\Local\Temp\ccZoYVSv.s:697    .text.i2c_slave_response_to_gcall_disable:0000000000000022 .L0 
C:\Users\CYMR90~1\AppData\Local\Temp\ccZoYVSv.s:698    .text.i2c_slave_response_to_gcall_disable:0000000000000022 .L0 
C:\Users\CYMR90~1\AppData\Local\Temp\ccZoYVSv.s:700    .text.i2c_slave_response_to_gcall_disable:0000000000000024 .L0 
C:\Users\CYMR90~1\AppData\Local\Temp\ccZoYVSv.s:702    .text.i2c_slave_response_to_gcall_disable:0000000000000026 .L0 
C:\Users\CYMR90~1\AppData\Local\Temp\ccZoYVSv.s:709    .text.i2c_stretch_scl_low_enable:0000000000000000 i2c_stretch_scl_low_enable
C:\Users\CYMR90~1\AppData\Local\Temp\ccZoYVSv.s:712    .text.i2c_stretch_scl_low_enable:0000000000000000 .L0 
C:\Users\CYMR90~1\AppData\Local\Temp\ccZoYVSv.s:713    .text.i2c_stretch_scl_low_enable:0000000000000000 .L0 
C:\Users\CYMR90~1\AppData\Local\Temp\ccZoYVSv.s:714    .text.i2c_stretch_scl_low_enable:0000000000000002 .L0 
C:\Users\CYMR90~1\AppData\Local\Temp\ccZoYVSv.s:716    .text.i2c_stretch_scl_low_enable:0000000000000004 .L0 
C:\Users\CYMR90~1\AppData\Local\Temp\ccZoYVSv.s:718    .text.i2c_stretch_scl_low_enable:0000000000000006 .L0 
C:\Users\CYMR90~1\AppData\Local\Temp\ccZoYVSv.s:721    .text.i2c_stretch_scl_low_enable:000000000000000a .L0 
C:\Users\CYMR90~1\AppData\Local\Temp\ccZoYVSv.s:729    .text.i2c_stretch_scl_low_enable:000000000000001c .L0 
C:\Users\CYMR90~1\AppData\Local\Temp\ccZoYVSv.s:731    .text.i2c_stretch_scl_low_enable:0000000000000020 .L0 
C:\Users\CYMR90~1\AppData\Local\Temp\ccZoYVSv.s:732    .text.i2c_stretch_scl_low_enable:0000000000000020 .L0 
C:\Users\CYMR90~1\AppData\Local\Temp\ccZoYVSv.s:734    .text.i2c_stretch_scl_low_enable:0000000000000022 .L0 
C:\Users\CYMR90~1\AppData\Local\Temp\ccZoYVSv.s:736    .text.i2c_stretch_scl_low_enable:0000000000000024 .L0 
C:\Users\CYMR90~1\AppData\Local\Temp\ccZoYVSv.s:743    .text.i2c_stretch_scl_low_disable:0000000000000000 i2c_stretch_scl_low_disable
C:\Users\CYMR90~1\AppData\Local\Temp\ccZoYVSv.s:746    .text.i2c_stretch_scl_low_disable:0000000000000000 .L0 
C:\Users\CYMR90~1\AppData\Local\Temp\ccZoYVSv.s:747    .text.i2c_stretch_scl_low_disable:0000000000000000 .L0 
C:\Users\CYMR90~1\AppData\Local\Temp\ccZoYVSv.s:748    .text.i2c_stretch_scl_low_disable:0000000000000002 .L0 
C:\Users\CYMR90~1\AppData\Local\Temp\ccZoYVSv.s:750    .text.i2c_stretch_scl_low_disable:0000000000000004 .L0 
C:\Users\CYMR90~1\AppData\Local\Temp\ccZoYVSv.s:752    .text.i2c_stretch_scl_low_disable:0000000000000006 .L0 
C:\Users\CYMR90~1\AppData\Local\Temp\ccZoYVSv.s:755    .text.i2c_stretch_scl_low_disable:000000000000000a .L0 
C:\Users\CYMR90~1\AppData\Local\Temp\ccZoYVSv.s:762    .text.i2c_stretch_scl_low_disable:000000000000001c .L0 
C:\Users\CYMR90~1\AppData\Local\Temp\ccZoYVSv.s:764    .text.i2c_stretch_scl_low_disable:0000000000000020 .L0 
C:\Users\CYMR90~1\AppData\Local\Temp\ccZoYVSv.s:765    .text.i2c_stretch_scl_low_disable:0000000000000020 .L0 
C:\Users\CYMR90~1\AppData\Local\Temp\ccZoYVSv.s:767    .text.i2c_stretch_scl_low_disable:0000000000000022 .L0 
C:\Users\CYMR90~1\AppData\Local\Temp\ccZoYVSv.s:769    .text.i2c_stretch_scl_low_disable:0000000000000024 .L0 
C:\Users\CYMR90~1\AppData\Local\Temp\ccZoYVSv.s:776    .text.i2c_address_config:0000000000000000 i2c_address_config
C:\Users\CYMR90~1\AppData\Local\Temp\ccZoYVSv.s:779    .text.i2c_address_config:0000000000000000 .L0 
C:\Users\CYMR90~1\AppData\Local\Temp\ccZoYVSv.s:780    .text.i2c_address_config:0000000000000000 .L0 
C:\Users\CYMR90~1\AppData\Local\Temp\ccZoYVSv.s:781    .text.i2c_address_config:0000000000000002 .L0 
C:\Users\CYMR90~1\AppData\Local\Temp\ccZoYVSv.s:783    .text.i2c_address_config:0000000000000004 .L0 
C:\Users\CYMR90~1\AppData\Local\Temp\ccZoYVSv.s:785    .text.i2c_address_config:0000000000000006 .L0 
C:\Users\CYMR90~1\AppData\Local\Temp\ccZoYVSv.s:790    .text.i2c_address_config:0000000000000012 .L0 
C:\Users\CYMR90~1\AppData\Local\Temp\ccZoYVSv.s:794    .text.i2c_address_config:000000000000001e .L0 
C:\Users\CYMR90~1\AppData\Local\Temp\ccZoYVSv.s:798    .text.i2c_address_config:0000000000000026 .L0 
C:\Users\CYMR90~1\AppData\Local\Temp\ccZoYVSv.s:802    .text.i2c_address_config:0000000000000030 .L0 
C:\Users\CYMR90~1\AppData\Local\Temp\ccZoYVSv.s:804    .text.i2c_address_config:0000000000000032 .L0 
C:\Users\CYMR90~1\AppData\Local\Temp\ccZoYVSv.s:814    .text.i2c_address_config:0000000000000048 .L0 
C:\Users\CYMR90~1\AppData\Local\Temp\ccZoYVSv.s:816    .text.i2c_address_config:000000000000004c .L0 
C:\Users\CYMR90~1\AppData\Local\Temp\ccZoYVSv.s:817    .text.i2c_address_config:000000000000004c .L0 
C:\Users\CYMR90~1\AppData\Local\Temp\ccZoYVSv.s:819    .text.i2c_address_config:000000000000004e .L0 
C:\Users\CYMR90~1\AppData\Local\Temp\ccZoYVSv.s:821    .text.i2c_address_config:0000000000000050 .L0 
C:\Users\CYMR90~1\AppData\Local\Temp\ccZoYVSv.s:828    .text.i2c_address_bit_compare_config:0000000000000000 i2c_address_bit_compare_config
C:\Users\CYMR90~1\AppData\Local\Temp\ccZoYVSv.s:831    .text.i2c_address_bit_compare_config:0000000000000000 .L0 
C:\Users\CYMR90~1\AppData\Local\Temp\ccZoYVSv.s:832    .text.i2c_address_bit_compare_config:0000000000000000 .L0 
C:\Users\CYMR90~1\AppData\Local\Temp\ccZoYVSv.s:833    .text.i2c_address_bit_compare_config:0000000000000002 .L0 
C:\Users\CYMR90~1\AppData\Local\Temp\ccZoYVSv.s:835    .text.i2c_address_bit_compare_config:0000000000000004 .L0 
C:\Users\CYMR90~1\AppData\Local\Temp\ccZoYVSv.s:837    .text.i2c_address_bit_compare_config:0000000000000006 .L0 
C:\Users\CYMR90~1\AppData\Local\Temp\ccZoYVSv.s:841    .text.i2c_address_bit_compare_config:000000000000000e .L0 
C:\Users\CYMR90~1\AppData\Local\Temp\ccZoYVSv.s:852    .text.i2c_address_bit_compare_config:000000000000002c .L0 
C:\Users\CYMR90~1\AppData\Local\Temp\ccZoYVSv.s:862    .text.i2c_address_bit_compare_config:0000000000000048 .L0 
C:\Users\CYMR90~1\AppData\Local\Temp\ccZoYVSv.s:864    .text.i2c_address_bit_compare_config:000000000000004c .L0 
C:\Users\CYMR90~1\AppData\Local\Temp\ccZoYVSv.s:865    .text.i2c_address_bit_compare_config:000000000000004c .L0 
C:\Users\CYMR90~1\AppData\Local\Temp\ccZoYVSv.s:867    .text.i2c_address_bit_compare_config:000000000000004e .L0 
C:\Users\CYMR90~1\AppData\Local\Temp\ccZoYVSv.s:869    .text.i2c_address_bit_compare_config:0000000000000050 .L0 
C:\Users\CYMR90~1\AppData\Local\Temp\ccZoYVSv.s:876    .text.i2c_address_disable:0000000000000000 i2c_address_disable
C:\Users\CYMR90~1\AppData\Local\Temp\ccZoYVSv.s:879    .text.i2c_address_disable:0000000000000000 .L0 
C:\Users\CYMR90~1\AppData\Local\Temp\ccZoYVSv.s:880    .text.i2c_address_disable:0000000000000000 .L0 
C:\Users\CYMR90~1\AppData\Local\Temp\ccZoYVSv.s:881    .text.i2c_address_disable:0000000000000002 .L0 
C:\Users\CYMR90~1\AppData\Local\Temp\ccZoYVSv.s:883    .text.i2c_address_disable:0000000000000004 .L0 
C:\Users\CYMR90~1\AppData\Local\Temp\ccZoYVSv.s:885    .text.i2c_address_disable:0000000000000006 .L0 
C:\Users\CYMR90~1\AppData\Local\Temp\ccZoYVSv.s:888    .text.i2c_address_disable:000000000000000a .L0 
C:\Users\CYMR90~1\AppData\Local\Temp\ccZoYVSv.s:899    .text.i2c_address_disable:0000000000000022 .L0 
C:\Users\CYMR90~1\AppData\Local\Temp\ccZoYVSv.s:901    .text.i2c_address_disable:0000000000000026 .L0 
C:\Users\CYMR90~1\AppData\Local\Temp\ccZoYVSv.s:902    .text.i2c_address_disable:0000000000000026 .L0 
C:\Users\CYMR90~1\AppData\Local\Temp\ccZoYVSv.s:904    .text.i2c_address_disable:0000000000000028 .L0 
C:\Users\CYMR90~1\AppData\Local\Temp\ccZoYVSv.s:906    .text.i2c_address_disable:000000000000002a .L0 
C:\Users\CYMR90~1\AppData\Local\Temp\ccZoYVSv.s:913    .text.i2c_second_address_config:0000000000000000 i2c_second_address_config
C:\Users\CYMR90~1\AppData\Local\Temp\ccZoYVSv.s:916    .text.i2c_second_address_config:0000000000000000 .L0 
C:\Users\CYMR90~1\AppData\Local\Temp\ccZoYVSv.s:917    .text.i2c_second_address_config:0000000000000000 .L0 
C:\Users\CYMR90~1\AppData\Local\Temp\ccZoYVSv.s:918    .text.i2c_second_address_config:0000000000000002 .L0 
C:\Users\CYMR90~1\AppData\Local\Temp\ccZoYVSv.s:920    .text.i2c_second_address_config:0000000000000004 .L0 
C:\Users\CYMR90~1\AppData\Local\Temp\ccZoYVSv.s:922    .text.i2c_second_address_config:0000000000000006 .L0 
C:\Users\CYMR90~1\AppData\Local\Temp\ccZoYVSv.s:927    .text.i2c_second_address_config:0000000000000012 .L0 
C:\Users\CYMR90~1\AppData\Local\Temp\ccZoYVSv.s:931    .text.i2c_second_address_config:000000000000001e .L0 
C:\Users\CYMR90~1\AppData\Local\Temp\ccZoYVSv.s:941    .text.i2c_second_address_config:0000000000000036 .L0 
C:\Users\CYMR90~1\AppData\Local\Temp\ccZoYVSv.s:949    .text.i2c_second_address_config:000000000000004a .L0 
C:\Users\CYMR90~1\AppData\Local\Temp\ccZoYVSv.s:953    .text.i2c_second_address_config:0000000000000052 .L0 
C:\Users\CYMR90~1\AppData\Local\Temp\ccZoYVSv.s:956    .text.i2c_second_address_config:0000000000000058 .L0 
C:\Users\CYMR90~1\AppData\Local\Temp\ccZoYVSv.s:961    .text.i2c_second_address_config:0000000000000062 .L0 
C:\Users\CYMR90~1\AppData\Local\Temp\ccZoYVSv.s:971    .text.i2c_second_address_config:0000000000000078 .L0 
C:\Users\CYMR90~1\AppData\Local\Temp\ccZoYVSv.s:973    .text.i2c_second_address_config:000000000000007c .L0 
C:\Users\CYMR90~1\AppData\Local\Temp\ccZoYVSv.s:974    .text.i2c_second_address_config:000000000000007c .L0 
C:\Users\CYMR90~1\AppData\Local\Temp\ccZoYVSv.s:976    .text.i2c_second_address_config:000000000000007e .L0 
C:\Users\CYMR90~1\AppData\Local\Temp\ccZoYVSv.s:978    .text.i2c_second_address_config:0000000000000080 .L0 
C:\Users\CYMR90~1\AppData\Local\Temp\ccZoYVSv.s:985    .text.i2c_second_address_disable:0000000000000000 i2c_second_address_disable
C:\Users\CYMR90~1\AppData\Local\Temp\ccZoYVSv.s:988    .text.i2c_second_address_disable:0000000000000000 .L0 
C:\Users\CYMR90~1\AppData\Local\Temp\ccZoYVSv.s:989    .text.i2c_second_address_disable:0000000000000000 .L0 
C:\Users\CYMR90~1\AppData\Local\Temp\ccZoYVSv.s:990    .text.i2c_second_address_disable:0000000000000002 .L0 
C:\Users\CYMR90~1\AppData\Local\Temp\ccZoYVSv.s:992    .text.i2c_second_address_disable:0000000000000004 .L0 
C:\Users\CYMR90~1\AppData\Local\Temp\ccZoYVSv.s:994    .text.i2c_second_address_disable:0000000000000006 .L0 
C:\Users\CYMR90~1\AppData\Local\Temp\ccZoYVSv.s:997    .text.i2c_second_address_disable:000000000000000a .L0 
C:\Users\CYMR90~1\AppData\Local\Temp\ccZoYVSv.s:1008   .text.i2c_second_address_disable:0000000000000022 .L0 
C:\Users\CYMR90~1\AppData\Local\Temp\ccZoYVSv.s:1010   .text.i2c_second_address_disable:0000000000000026 .L0 
C:\Users\CYMR90~1\AppData\Local\Temp\ccZoYVSv.s:1011   .text.i2c_second_address_disable:0000000000000026 .L0 
C:\Users\CYMR90~1\AppData\Local\Temp\ccZoYVSv.s:1013   .text.i2c_second_address_disable:0000000000000028 .L0 
C:\Users\CYMR90~1\AppData\Local\Temp\ccZoYVSv.s:1015   .text.i2c_second_address_disable:000000000000002a .L0 
C:\Users\CYMR90~1\AppData\Local\Temp\ccZoYVSv.s:1022   .text.i2c_recevied_address_get:0000000000000000 i2c_recevied_address_get
C:\Users\CYMR90~1\AppData\Local\Temp\ccZoYVSv.s:1025   .text.i2c_recevied_address_get:0000000000000000 .L0 
C:\Users\CYMR90~1\AppData\Local\Temp\ccZoYVSv.s:1026   .text.i2c_recevied_address_get:0000000000000000 .L0 
C:\Users\CYMR90~1\AppData\Local\Temp\ccZoYVSv.s:1027   .text.i2c_recevied_address_get:0000000000000002 .L0 
C:\Users\CYMR90~1\AppData\Local\Temp\ccZoYVSv.s:1029   .text.i2c_recevied_address_get:0000000000000004 .L0 
C:\Users\CYMR90~1\AppData\Local\Temp\ccZoYVSv.s:1031   .text.i2c_recevied_address_get:0000000000000006 .L0 
C:\Users\CYMR90~1\AppData\Local\Temp\ccZoYVSv.s:1034   .text.i2c_recevied_address_get:000000000000000a .L0 
C:\Users\CYMR90~1\AppData\Local\Temp\ccZoYVSv.s:1038   .text.i2c_recevied_address_get:0000000000000012 .L0 
C:\Users\CYMR90~1\AppData\Local\Temp\ccZoYVSv.s:1041   .text.i2c_recevied_address_get:0000000000000018 .L0 
C:\Users\CYMR90~1\AppData\Local\Temp\ccZoYVSv.s:1043   .text.i2c_recevied_address_get:000000000000001c .L0 
C:\Users\CYMR90~1\AppData\Local\Temp\ccZoYVSv.s:1044   .text.i2c_recevied_address_get:000000000000001c .L0 
C:\Users\CYMR90~1\AppData\Local\Temp\ccZoYVSv.s:1046   .text.i2c_recevied_address_get:000000000000001e .L0 
C:\Users\CYMR90~1\AppData\Local\Temp\ccZoYVSv.s:1048   .text.i2c_recevied_address_get:0000000000000020 .L0 
C:\Users\CYMR90~1\AppData\Local\Temp\ccZoYVSv.s:1055   .text.i2c_slave_byte_control_enable:0000000000000000 i2c_slave_byte_control_enable
C:\Users\CYMR90~1\AppData\Local\Temp\ccZoYVSv.s:1058   .text.i2c_slave_byte_control_enable:0000000000000000 .L0 
C:\Users\CYMR90~1\AppData\Local\Temp\ccZoYVSv.s:1059   .text.i2c_slave_byte_control_enable:0000000000000000 .L0 
C:\Users\CYMR90~1\AppData\Local\Temp\ccZoYVSv.s:1060   .text.i2c_slave_byte_control_enable:0000000000000002 .L0 
C:\Users\CYMR90~1\AppData\Local\Temp\ccZoYVSv.s:1062   .text.i2c_slave_byte_control_enable:0000000000000004 .L0 
C:\Users\CYMR90~1\AppData\Local\Temp\ccZoYVSv.s:1064   .text.i2c_slave_byte_control_enable:0000000000000006 .L0 
C:\Users\CYMR90~1\AppData\Local\Temp\ccZoYVSv.s:1067   .text.i2c_slave_byte_control_enable:000000000000000a .L0 
C:\Users\CYMR90~1\AppData\Local\Temp\ccZoYVSv.s:1074   .text.i2c_slave_byte_control_enable:000000000000001a .L0 
C:\Users\CYMR90~1\AppData\Local\Temp\ccZoYVSv.s:1076   .text.i2c_slave_byte_control_enable:000000000000001e .L0 
C:\Users\CYMR90~1\AppData\Local\Temp\ccZoYVSv.s:1077   .text.i2c_slave_byte_control_enable:000000000000001e .L0 
C:\Users\CYMR90~1\AppData\Local\Temp\ccZoYVSv.s:1079   .text.i2c_slave_byte_control_enable:0000000000000020 .L0 
C:\Users\CYMR90~1\AppData\Local\Temp\ccZoYVSv.s:1081   .text.i2c_slave_byte_control_enable:0000000000000022 .L0 
C:\Users\CYMR90~1\AppData\Local\Temp\ccZoYVSv.s:1088   .text.i2c_slave_byte_control_disable:0000000000000000 i2c_slave_byte_control_disable
C:\Users\CYMR90~1\AppData\Local\Temp\ccZoYVSv.s:1091   .text.i2c_slave_byte_control_disable:0000000000000000 .L0 
C:\Users\CYMR90~1\AppData\Local\Temp\ccZoYVSv.s:1092   .text.i2c_slave_byte_control_disable:0000000000000000 .L0 
C:\Users\CYMR90~1\AppData\Local\Temp\ccZoYVSv.s:1093   .text.i2c_slave_byte_control_disable:0000000000000002 .L0 
C:\Users\CYMR90~1\AppData\Local\Temp\ccZoYVSv.s:1095   .text.i2c_slave_byte_control_disable:0000000000000004 .L0 
C:\Users\CYMR90~1\AppData\Local\Temp\ccZoYVSv.s:1097   .text.i2c_slave_byte_control_disable:0000000000000006 .L0 
C:\Users\CYMR90~1\AppData\Local\Temp\ccZoYVSv.s:1100   .text.i2c_slave_byte_control_disable:000000000000000a .L0 
C:\Users\CYMR90~1\AppData\Local\Temp\ccZoYVSv.s:1108   .text.i2c_slave_byte_control_disable:000000000000001c .L0 
C:\Users\CYMR90~1\AppData\Local\Temp\ccZoYVSv.s:1110   .text.i2c_slave_byte_control_disable:0000000000000020 .L0 
C:\Users\CYMR90~1\AppData\Local\Temp\ccZoYVSv.s:1111   .text.i2c_slave_byte_control_disable:0000000000000020 .L0 
C:\Users\CYMR90~1\AppData\Local\Temp\ccZoYVSv.s:1113   .text.i2c_slave_byte_control_disable:0000000000000022 .L0 
C:\Users\CYMR90~1\AppData\Local\Temp\ccZoYVSv.s:1115   .text.i2c_slave_byte_control_disable:0000000000000024 .L0 
C:\Users\CYMR90~1\AppData\Local\Temp\ccZoYVSv.s:1122   .text.i2c_nack_enable:0000000000000000 i2c_nack_enable
C:\Users\CYMR90~1\AppData\Local\Temp\ccZoYVSv.s:1125   .text.i2c_nack_enable:0000000000000000 .L0 
C:\Users\CYMR90~1\AppData\Local\Temp\ccZoYVSv.s:1126   .text.i2c_nack_enable:0000000000000000 .L0 
C:\Users\CYMR90~1\AppData\Local\Temp\ccZoYVSv.s:1127   .text.i2c_nack_enable:0000000000000002 .L0 
C:\Users\CYMR90~1\AppData\Local\Temp\ccZoYVSv.s:1129   .text.i2c_nack_enable:0000000000000004 .L0 
C:\Users\CYMR90~1\AppData\Local\Temp\ccZoYVSv.s:1131   .text.i2c_nack_enable:0000000000000006 .L0 
C:\Users\CYMR90~1\AppData\Local\Temp\ccZoYVSv.s:1134   .text.i2c_nack_enable:000000000000000a .L0 
C:\Users\CYMR90~1\AppData\Local\Temp\ccZoYVSv.s:1144   .text.i2c_nack_enable:0000000000000020 .L0 
C:\Users\CYMR90~1\AppData\Local\Temp\ccZoYVSv.s:1146   .text.i2c_nack_enable:0000000000000024 .L0 
C:\Users\CYMR90~1\AppData\Local\Temp\ccZoYVSv.s:1147   .text.i2c_nack_enable:0000000000000024 .L0 
C:\Users\CYMR90~1\AppData\Local\Temp\ccZoYVSv.s:1149   .text.i2c_nack_enable:0000000000000026 .L0 
C:\Users\CYMR90~1\AppData\Local\Temp\ccZoYVSv.s:1151   .text.i2c_nack_enable:0000000000000028 .L0 
C:\Users\CYMR90~1\AppData\Local\Temp\ccZoYVSv.s:1158   .text.i2c_nack_disable:0000000000000000 i2c_nack_disable
C:\Users\CYMR90~1\AppData\Local\Temp\ccZoYVSv.s:1161   .text.i2c_nack_disable:0000000000000000 .L0 
C:\Users\CYMR90~1\AppData\Local\Temp\ccZoYVSv.s:1162   .text.i2c_nack_disable:0000000000000000 .L0 
C:\Users\CYMR90~1\AppData\Local\Temp\ccZoYVSv.s:1163   .text.i2c_nack_disable:0000000000000002 .L0 
C:\Users\CYMR90~1\AppData\Local\Temp\ccZoYVSv.s:1165   .text.i2c_nack_disable:0000000000000004 .L0 
C:\Users\CYMR90~1\AppData\Local\Temp\ccZoYVSv.s:1167   .text.i2c_nack_disable:0000000000000006 .L0 
C:\Users\CYMR90~1\AppData\Local\Temp\ccZoYVSv.s:1170   .text.i2c_nack_disable:000000000000000a .L0 
C:\Users\CYMR90~1\AppData\Local\Temp\ccZoYVSv.s:1181   .text.i2c_nack_disable:0000000000000022 .L0 
C:\Users\CYMR90~1\AppData\Local\Temp\ccZoYVSv.s:1183   .text.i2c_nack_disable:0000000000000026 .L0 
C:\Users\CYMR90~1\AppData\Local\Temp\ccZoYVSv.s:1184   .text.i2c_nack_disable:0000000000000026 .L0 
C:\Users\CYMR90~1\AppData\Local\Temp\ccZoYVSv.s:1186   .text.i2c_nack_disable:0000000000000028 .L0 
C:\Users\CYMR90~1\AppData\Local\Temp\ccZoYVSv.s:1188   .text.i2c_nack_disable:000000000000002a .L0 
C:\Users\CYMR90~1\AppData\Local\Temp\ccZoYVSv.s:1195   .text.i2c_wakeup_from_deepsleep_enable:0000000000000000 i2c_wakeup_from_deepsleep_enable
C:\Users\CYMR90~1\AppData\Local\Temp\ccZoYVSv.s:1198   .text.i2c_wakeup_from_deepsleep_enable:0000000000000000 .L0 
C:\Users\CYMR90~1\AppData\Local\Temp\ccZoYVSv.s:1199   .text.i2c_wakeup_from_deepsleep_enable:0000000000000000 .L0 
C:\Users\CYMR90~1\AppData\Local\Temp\ccZoYVSv.s:1200   .text.i2c_wakeup_from_deepsleep_enable:0000000000000002 .L0 
C:\Users\CYMR90~1\AppData\Local\Temp\ccZoYVSv.s:1202   .text.i2c_wakeup_from_deepsleep_enable:0000000000000004 .L0 
C:\Users\CYMR90~1\AppData\Local\Temp\ccZoYVSv.s:1204   .text.i2c_wakeup_from_deepsleep_enable:0000000000000006 .L0 
C:\Users\CYMR90~1\AppData\Local\Temp\ccZoYVSv.s:1207   .text.i2c_wakeup_from_deepsleep_enable:000000000000000a .L0 
C:\Users\CYMR90~1\AppData\Local\Temp\ccZoYVSv.s:1214   .text.i2c_wakeup_from_deepsleep_enable:000000000000001c .L0 
C:\Users\CYMR90~1\AppData\Local\Temp\ccZoYVSv.s:1216   .text.i2c_wakeup_from_deepsleep_enable:0000000000000020 .L0 
C:\Users\CYMR90~1\AppData\Local\Temp\ccZoYVSv.s:1217   .text.i2c_wakeup_from_deepsleep_enable:0000000000000020 .L0 
C:\Users\CYMR90~1\AppData\Local\Temp\ccZoYVSv.s:1219   .text.i2c_wakeup_from_deepsleep_enable:0000000000000022 .L0 
C:\Users\CYMR90~1\AppData\Local\Temp\ccZoYVSv.s:1221   .text.i2c_wakeup_from_deepsleep_enable:0000000000000024 .L0 
C:\Users\CYMR90~1\AppData\Local\Temp\ccZoYVSv.s:1228   .text.i2c_wakeup_from_deepsleep_disable:0000000000000000 i2c_wakeup_from_deepsleep_disable
C:\Users\CYMR90~1\AppData\Local\Temp\ccZoYVSv.s:1231   .text.i2c_wakeup_from_deepsleep_disable:0000000000000000 .L0 
C:\Users\CYMR90~1\AppData\Local\Temp\ccZoYVSv.s:1232   .text.i2c_wakeup_from_deepsleep_disable:0000000000000000 .L0 
C:\Users\CYMR90~1\AppData\Local\Temp\ccZoYVSv.s:1233   .text.i2c_wakeup_from_deepsleep_disable:0000000000000002 .L0 
C:\Users\CYMR90~1\AppData\Local\Temp\ccZoYVSv.s:1235   .text.i2c_wakeup_from_deepsleep_disable:0000000000000004 .L0 
C:\Users\CYMR90~1\AppData\Local\Temp\ccZoYVSv.s:1237   .text.i2c_wakeup_from_deepsleep_disable:0000000000000006 .L0 
C:\Users\CYMR90~1\AppData\Local\Temp\ccZoYVSv.s:1240   .text.i2c_wakeup_from_deepsleep_disable:000000000000000a .L0 
C:\Users\CYMR90~1\AppData\Local\Temp\ccZoYVSv.s:1248   .text.i2c_wakeup_from_deepsleep_disable:000000000000001e .L0 
C:\Users\CYMR90~1\AppData\Local\Temp\ccZoYVSv.s:1250   .text.i2c_wakeup_from_deepsleep_disable:0000000000000022 .L0 
C:\Users\CYMR90~1\AppData\Local\Temp\ccZoYVSv.s:1251   .text.i2c_wakeup_from_deepsleep_disable:0000000000000022 .L0 
C:\Users\CYMR90~1\AppData\Local\Temp\ccZoYVSv.s:1253   .text.i2c_wakeup_from_deepsleep_disable:0000000000000024 .L0 
C:\Users\CYMR90~1\AppData\Local\Temp\ccZoYVSv.s:1255   .text.i2c_wakeup_from_deepsleep_disable:0000000000000026 .L0 
C:\Users\CYMR90~1\AppData\Local\Temp\ccZoYVSv.s:1262   .text.i2c_enable:0000000000000000 i2c_enable
C:\Users\CYMR90~1\AppData\Local\Temp\ccZoYVSv.s:1265   .text.i2c_enable:0000000000000000 .L0 
C:\Users\CYMR90~1\AppData\Local\Temp\ccZoYVSv.s:1266   .text.i2c_enable:0000000000000000 .L0 
C:\Users\CYMR90~1\AppData\Local\Temp\ccZoYVSv.s:1267   .text.i2c_enable:0000000000000002 .L0 
C:\Users\CYMR90~1\AppData\Local\Temp\ccZoYVSv.s:1269   .text.i2c_enable:0000000000000004 .L0 
C:\Users\CYMR90~1\AppData\Local\Temp\ccZoYVSv.s:1271   .text.i2c_enable:0000000000000006 .L0 
C:\Users\CYMR90~1\AppData\Local\Temp\ccZoYVSv.s:1274   .text.i2c_enable:000000000000000a .L0 
C:\Users\CYMR90~1\AppData\Local\Temp\ccZoYVSv.s:1280   .text.i2c_enable:000000000000001a .L0 
C:\Users\CYMR90~1\AppData\Local\Temp\ccZoYVSv.s:1282   .text.i2c_enable:000000000000001e .L0 
C:\Users\CYMR90~1\AppData\Local\Temp\ccZoYVSv.s:1283   .text.i2c_enable:000000000000001e .L0 
C:\Users\CYMR90~1\AppData\Local\Temp\ccZoYVSv.s:1285   .text.i2c_enable:0000000000000020 .L0 
C:\Users\CYMR90~1\AppData\Local\Temp\ccZoYVSv.s:1287   .text.i2c_enable:0000000000000022 .L0 
C:\Users\CYMR90~1\AppData\Local\Temp\ccZoYVSv.s:1294   .text.i2c_disable:0000000000000000 i2c_disable
C:\Users\CYMR90~1\AppData\Local\Temp\ccZoYVSv.s:1297   .text.i2c_disable:0000000000000000 .L0 
C:\Users\CYMR90~1\AppData\Local\Temp\ccZoYVSv.s:1298   .text.i2c_disable:0000000000000000 .L0 
C:\Users\CYMR90~1\AppData\Local\Temp\ccZoYVSv.s:1299   .text.i2c_disable:0000000000000002 .L0 
C:\Users\CYMR90~1\AppData\Local\Temp\ccZoYVSv.s:1301   .text.i2c_disable:0000000000000004 .L0 
C:\Users\CYMR90~1\AppData\Local\Temp\ccZoYVSv.s:1303   .text.i2c_disable:0000000000000006 .L0 
C:\Users\CYMR90~1\AppData\Local\Temp\ccZoYVSv.s:1306   .text.i2c_disable:000000000000000a .L0 
C:\Users\CYMR90~1\AppData\Local\Temp\ccZoYVSv.s:1312   .text.i2c_disable:0000000000000018 .L0 
C:\Users\CYMR90~1\AppData\Local\Temp\ccZoYVSv.s:1314   .text.i2c_disable:000000000000001c .L0 
C:\Users\CYMR90~1\AppData\Local\Temp\ccZoYVSv.s:1315   .text.i2c_disable:000000000000001c .L0 
C:\Users\CYMR90~1\AppData\Local\Temp\ccZoYVSv.s:1317   .text.i2c_disable:000000000000001e .L0 
C:\Users\CYMR90~1\AppData\Local\Temp\ccZoYVSv.s:1319   .text.i2c_disable:0000000000000020 .L0 
C:\Users\CYMR90~1\AppData\Local\Temp\ccZoYVSv.s:1326   .text.i2c_start_on_bus:0000000000000000 i2c_start_on_bus
C:\Users\CYMR90~1\AppData\Local\Temp\ccZoYVSv.s:1329   .text.i2c_start_on_bus:0000000000000000 .L0 
C:\Users\CYMR90~1\AppData\Local\Temp\ccZoYVSv.s:1330   .text.i2c_start_on_bus:0000000000000000 .L0 
C:\Users\CYMR90~1\AppData\Local\Temp\ccZoYVSv.s:1331   .text.i2c_start_on_bus:0000000000000002 .L0 
C:\Users\CYMR90~1\AppData\Local\Temp\ccZoYVSv.s:1333   .text.i2c_start_on_bus:0000000000000004 .L0 
C:\Users\CYMR90~1\AppData\Local\Temp\ccZoYVSv.s:1335   .text.i2c_start_on_bus:0000000000000006 .L0 
C:\Users\CYMR90~1\AppData\Local\Temp\ccZoYVSv.s:1338   .text.i2c_start_on_bus:000000000000000a .L0 
C:\Users\CYMR90~1\AppData\Local\Temp\ccZoYVSv.s:1348   .text.i2c_start_on_bus:0000000000000020 .L0 
C:\Users\CYMR90~1\AppData\Local\Temp\ccZoYVSv.s:1350   .text.i2c_start_on_bus:0000000000000024 .L0 
C:\Users\CYMR90~1\AppData\Local\Temp\ccZoYVSv.s:1351   .text.i2c_start_on_bus:0000000000000024 .L0 
C:\Users\CYMR90~1\AppData\Local\Temp\ccZoYVSv.s:1353   .text.i2c_start_on_bus:0000000000000026 .L0 
C:\Users\CYMR90~1\AppData\Local\Temp\ccZoYVSv.s:1355   .text.i2c_start_on_bus:0000000000000028 .L0 
C:\Users\CYMR90~1\AppData\Local\Temp\ccZoYVSv.s:1362   .text.i2c_stop_on_bus:0000000000000000 i2c_stop_on_bus
C:\Users\CYMR90~1\AppData\Local\Temp\ccZoYVSv.s:1365   .text.i2c_stop_on_bus:0000000000000000 .L0 
C:\Users\CYMR90~1\AppData\Local\Temp\ccZoYVSv.s:1366   .text.i2c_stop_on_bus:0000000000000000 .L0 
C:\Users\CYMR90~1\AppData\Local\Temp\ccZoYVSv.s:1367   .text.i2c_stop_on_bus:0000000000000002 .L0 
C:\Users\CYMR90~1\AppData\Local\Temp\ccZoYVSv.s:1369   .text.i2c_stop_on_bus:0000000000000004 .L0 
C:\Users\CYMR90~1\AppData\Local\Temp\ccZoYVSv.s:1371   .text.i2c_stop_on_bus:0000000000000006 .L0 
C:\Users\CYMR90~1\AppData\Local\Temp\ccZoYVSv.s:1374   .text.i2c_stop_on_bus:000000000000000a .L0 
C:\Users\CYMR90~1\AppData\Local\Temp\ccZoYVSv.s:1384   .text.i2c_stop_on_bus:0000000000000020 .L0 
C:\Users\CYMR90~1\AppData\Local\Temp\ccZoYVSv.s:1386   .text.i2c_stop_on_bus:0000000000000024 .L0 
C:\Users\CYMR90~1\AppData\Local\Temp\ccZoYVSv.s:1387   .text.i2c_stop_on_bus:0000000000000024 .L0 
C:\Users\CYMR90~1\AppData\Local\Temp\ccZoYVSv.s:1389   .text.i2c_stop_on_bus:0000000000000026 .L0 
C:\Users\CYMR90~1\AppData\Local\Temp\ccZoYVSv.s:1391   .text.i2c_stop_on_bus:0000000000000028 .L0 
C:\Users\CYMR90~1\AppData\Local\Temp\ccZoYVSv.s:1398   .text.i2c_data_transmit:0000000000000000 i2c_data_transmit
C:\Users\CYMR90~1\AppData\Local\Temp\ccZoYVSv.s:1401   .text.i2c_data_transmit:0000000000000000 .L0 
C:\Users\CYMR90~1\AppData\Local\Temp\ccZoYVSv.s:1402   .text.i2c_data_transmit:0000000000000000 .L0 
C:\Users\CYMR90~1\AppData\Local\Temp\ccZoYVSv.s:1403   .text.i2c_data_transmit:0000000000000002 .L0 
C:\Users\CYMR90~1\AppData\Local\Temp\ccZoYVSv.s:1405   .text.i2c_data_transmit:0000000000000004 .L0 
C:\Users\CYMR90~1\AppData\Local\Temp\ccZoYVSv.s:1407   .text.i2c_data_transmit:0000000000000006 .L0 
C:\Users\CYMR90~1\AppData\Local\Temp\ccZoYVSv.s:1411   .text.i2c_data_transmit:000000000000000e .L0 
C:\Users\CYMR90~1\AppData\Local\Temp\ccZoYVSv.s:1415   .text.i2c_data_transmit:0000000000000018 .L0 
C:\Users\CYMR90~1\AppData\Local\Temp\ccZoYVSv.s:1418   .text.i2c_data_transmit:0000000000000020 .L0 
C:\Users\CYMR90~1\AppData\Local\Temp\ccZoYVSv.s:1420   .text.i2c_data_transmit:0000000000000022 .L0 
C:\Users\CYMR90~1\AppData\Local\Temp\ccZoYVSv.s:1422   .text.i2c_data_transmit:0000000000000026 .L0 
C:\Users\CYMR90~1\AppData\Local\Temp\ccZoYVSv.s:1423   .text.i2c_data_transmit:0000000000000026 .L0 
C:\Users\CYMR90~1\AppData\Local\Temp\ccZoYVSv.s:1425   .text.i2c_data_transmit:0000000000000028 .L0 
C:\Users\CYMR90~1\AppData\Local\Temp\ccZoYVSv.s:1427   .text.i2c_data_transmit:000000000000002a .L0 
C:\Users\CYMR90~1\AppData\Local\Temp\ccZoYVSv.s:1434   .text.i2c_data_receive:0000000000000000 i2c_data_receive
C:\Users\CYMR90~1\AppData\Local\Temp\ccZoYVSv.s:1437   .text.i2c_data_receive:0000000000000000 .L0 
C:\Users\CYMR90~1\AppData\Local\Temp\ccZoYVSv.s:1438   .text.i2c_data_receive:0000000000000000 .L0 
C:\Users\CYMR90~1\AppData\Local\Temp\ccZoYVSv.s:1439   .text.i2c_data_receive:0000000000000002 .L0 
C:\Users\CYMR90~1\AppData\Local\Temp\ccZoYVSv.s:1441   .text.i2c_data_receive:0000000000000004 .L0 
C:\Users\CYMR90~1\AppData\Local\Temp\ccZoYVSv.s:1443   .text.i2c_data_receive:0000000000000006 .L0 
C:\Users\CYMR90~1\AppData\Local\Temp\ccZoYVSv.s:1446   .text.i2c_data_receive:000000000000000a .L0 
C:\Users\CYMR90~1\AppData\Local\Temp\ccZoYVSv.s:1449   .text.i2c_data_receive:0000000000000012 .L0 
C:\Users\CYMR90~1\AppData\Local\Temp\ccZoYVSv.s:1452   .text.i2c_data_receive:0000000000000018 .L0 
C:\Users\CYMR90~1\AppData\Local\Temp\ccZoYVSv.s:1454   .text.i2c_data_receive:000000000000001c .L0 
C:\Users\CYMR90~1\AppData\Local\Temp\ccZoYVSv.s:1455   .text.i2c_data_receive:000000000000001c .L0 
C:\Users\CYMR90~1\AppData\Local\Temp\ccZoYVSv.s:1457   .text.i2c_data_receive:000000000000001e .L0 
C:\Users\CYMR90~1\AppData\Local\Temp\ccZoYVSv.s:1459   .text.i2c_data_receive:0000000000000020 .L0 
C:\Users\CYMR90~1\AppData\Local\Temp\ccZoYVSv.s:1466   .text.i2c_reload_enable:0000000000000000 i2c_reload_enable
C:\Users\CYMR90~1\AppData\Local\Temp\ccZoYVSv.s:1469   .text.i2c_reload_enable:0000000000000000 .L0 
C:\Users\CYMR90~1\AppData\Local\Temp\ccZoYVSv.s:1470   .text.i2c_reload_enable:0000000000000000 .L0 
C:\Users\CYMR90~1\AppData\Local\Temp\ccZoYVSv.s:1471   .text.i2c_reload_enable:0000000000000002 .L0 
C:\Users\CYMR90~1\AppData\Local\Temp\ccZoYVSv.s:1473   .text.i2c_reload_enable:0000000000000004 .L0 
C:\Users\CYMR90~1\AppData\Local\Temp\ccZoYVSv.s:1475   .text.i2c_reload_enable:0000000000000006 .L0 
C:\Users\CYMR90~1\AppData\Local\Temp\ccZoYVSv.s:1478   .text.i2c_reload_enable:000000000000000a .L0 
C:\Users\CYMR90~1\AppData\Local\Temp\ccZoYVSv.s:1488   .text.i2c_reload_enable:0000000000000022 .L0 
C:\Users\CYMR90~1\AppData\Local\Temp\ccZoYVSv.s:1490   .text.i2c_reload_enable:0000000000000026 .L0 
C:\Users\CYMR90~1\AppData\Local\Temp\ccZoYVSv.s:1491   .text.i2c_reload_enable:0000000000000026 .L0 
C:\Users\CYMR90~1\AppData\Local\Temp\ccZoYVSv.s:1493   .text.i2c_reload_enable:0000000000000028 .L0 
C:\Users\CYMR90~1\AppData\Local\Temp\ccZoYVSv.s:1495   .text.i2c_reload_enable:000000000000002a .L0 
C:\Users\CYMR90~1\AppData\Local\Temp\ccZoYVSv.s:1502   .text.i2c_reload_disable:0000000000000000 i2c_reload_disable
C:\Users\CYMR90~1\AppData\Local\Temp\ccZoYVSv.s:1505   .text.i2c_reload_disable:0000000000000000 .L0 
C:\Users\CYMR90~1\AppData\Local\Temp\ccZoYVSv.s:1506   .text.i2c_reload_disable:0000000000000000 .L0 
C:\Users\CYMR90~1\AppData\Local\Temp\ccZoYVSv.s:1507   .text.i2c_reload_disable:0000000000000002 .L0 
C:\Users\CYMR90~1\AppData\Local\Temp\ccZoYVSv.s:1509   .text.i2c_reload_disable:0000000000000004 .L0 
C:\Users\CYMR90~1\AppData\Local\Temp\ccZoYVSv.s:1511   .text.i2c_reload_disable:0000000000000006 .L0 
C:\Users\CYMR90~1\AppData\Local\Temp\ccZoYVSv.s:1514   .text.i2c_reload_disable:000000000000000a .L0 
C:\Users\CYMR90~1\AppData\Local\Temp\ccZoYVSv.s:1525   .text.i2c_reload_disable:0000000000000024 .L0 
C:\Users\CYMR90~1\AppData\Local\Temp\ccZoYVSv.s:1527   .text.i2c_reload_disable:0000000000000028 .L0 
C:\Users\CYMR90~1\AppData\Local\Temp\ccZoYVSv.s:1528   .text.i2c_reload_disable:0000000000000028 .L0 
C:\Users\CYMR90~1\AppData\Local\Temp\ccZoYVSv.s:1530   .text.i2c_reload_disable:000000000000002a .L0 
C:\Users\CYMR90~1\AppData\Local\Temp\ccZoYVSv.s:1532   .text.i2c_reload_disable:000000000000002c .L0 
C:\Users\CYMR90~1\AppData\Local\Temp\ccZoYVSv.s:1539   .text.i2c_transfer_byte_number_config:0000000000000000 i2c_transfer_byte_number_config
C:\Users\CYMR90~1\AppData\Local\Temp\ccZoYVSv.s:1542   .text.i2c_transfer_byte_number_config:0000000000000000 .L0 
C:\Users\CYMR90~1\AppData\Local\Temp\ccZoYVSv.s:1543   .text.i2c_transfer_byte_number_config:0000000000000000 .L0 
C:\Users\CYMR90~1\AppData\Local\Temp\ccZoYVSv.s:1544   .text.i2c_transfer_byte_number_config:0000000000000002 .L0 
C:\Users\CYMR90~1\AppData\Local\Temp\ccZoYVSv.s:1546   .text.i2c_transfer_byte_number_config:0000000000000004 .L0 
C:\Users\CYMR90~1\AppData\Local\Temp\ccZoYVSv.s:1548   .text.i2c_transfer_byte_number_config:0000000000000006 .L0 
C:\Users\CYMR90~1\AppData\Local\Temp\ccZoYVSv.s:1552   .text.i2c_transfer_byte_number_config:000000000000000e .L0 
C:\Users\CYMR90~1\AppData\Local\Temp\ccZoYVSv.s:1563   .text.i2c_transfer_byte_number_config:0000000000000028 .L0 
C:\Users\CYMR90~1\AppData\Local\Temp\ccZoYVSv.s:1567   .text.i2c_transfer_byte_number_config:0000000000000030 .L0 
C:\Users\CYMR90~1\AppData\Local\Temp\ccZoYVSv.s:1570   .text.i2c_transfer_byte_number_config:0000000000000036 .L0 
C:\Users\CYMR90~1\AppData\Local\Temp\ccZoYVSv.s:1575   .text.i2c_transfer_byte_number_config:0000000000000040 .L0 
C:\Users\CYMR90~1\AppData\Local\Temp\ccZoYVSv.s:1577   .text.i2c_transfer_byte_number_config:0000000000000044 .L0 
C:\Users\CYMR90~1\AppData\Local\Temp\ccZoYVSv.s:1578   .text.i2c_transfer_byte_number_config:0000000000000044 .L0 
C:\Users\CYMR90~1\AppData\Local\Temp\ccZoYVSv.s:1580   .text.i2c_transfer_byte_number_config:0000000000000046 .L0 
C:\Users\CYMR90~1\AppData\Local\Temp\ccZoYVSv.s:1582   .text.i2c_transfer_byte_number_config:0000000000000048 .L0 
C:\Users\CYMR90~1\AppData\Local\Temp\ccZoYVSv.s:1589   .text.i2c_dma_enable:0000000000000000 i2c_dma_enable
C:\Users\CYMR90~1\AppData\Local\Temp\ccZoYVSv.s:1592   .text.i2c_dma_enable:0000000000000000 .L0 
C:\Users\CYMR90~1\AppData\Local\Temp\ccZoYVSv.s:1593   .text.i2c_dma_enable:0000000000000000 .L0 
C:\Users\CYMR90~1\AppData\Local\Temp\ccZoYVSv.s:1594   .text.i2c_dma_enable:0000000000000002 .L0 
C:\Users\CYMR90~1\AppData\Local\Temp\ccZoYVSv.s:1596   .text.i2c_dma_enable:0000000000000004 .L0 
C:\Users\CYMR90~1\AppData\Local\Temp\ccZoYVSv.s:1598   .text.i2c_dma_enable:0000000000000006 .L0 
C:\Users\CYMR90~1\AppData\Local\Temp\ccZoYVSv.s:1603   .text.i2c_dma_enable:0000000000000010 .L0 
C:\Users\CYMR90~1\AppData\Local\Temp\ccZoYVSv.s:1606   .text.i2c_dma_enable:0000000000000016 .L0 
C:\Users\CYMR90~1\AppData\Local\Temp\ccZoYVSv.s:1613   .text.i2c_dma_enable:0000000000000026 .L0 
C:\Users\CYMR90~1\AppData\Local\Temp\ccZoYVSv.s:1616   .text.i2c_dma_enable:0000000000000028 .L0 
C:\Users\CYMR90~1\AppData\Local\Temp\ccZoYVSv.s:1624   .text.i2c_dma_enable:0000000000000038 .L0 
C:\Users\CYMR90~1\AppData\Local\Temp\ccZoYVSv.s:1626   .text.i2c_dma_enable:000000000000003c .L0 
C:\Users\CYMR90~1\AppData\Local\Temp\ccZoYVSv.s:1627   .text.i2c_dma_enable:000000000000003c .L0 
C:\Users\CYMR90~1\AppData\Local\Temp\ccZoYVSv.s:1629   .text.i2c_dma_enable:000000000000003e .L0 
C:\Users\CYMR90~1\AppData\Local\Temp\ccZoYVSv.s:1631   .text.i2c_dma_enable:0000000000000040 .L0 
C:\Users\CYMR90~1\AppData\Local\Temp\ccZoYVSv.s:1638   .text.i2c_dma_disable:0000000000000000 i2c_dma_disable
C:\Users\CYMR90~1\AppData\Local\Temp\ccZoYVSv.s:1641   .text.i2c_dma_disable:0000000000000000 .L0 
C:\Users\CYMR90~1\AppData\Local\Temp\ccZoYVSv.s:1642   .text.i2c_dma_disable:0000000000000000 .L0 
C:\Users\CYMR90~1\AppData\Local\Temp\ccZoYVSv.s:1643   .text.i2c_dma_disable:0000000000000002 .L0 
C:\Users\CYMR90~1\AppData\Local\Temp\ccZoYVSv.s:1645   .text.i2c_dma_disable:0000000000000004 .L0 
C:\Users\CYMR90~1\AppData\Local\Temp\ccZoYVSv.s:1647   .text.i2c_dma_disable:0000000000000006 .L0 
C:\Users\CYMR90~1\AppData\Local\Temp\ccZoYVSv.s:1652   .text.i2c_dma_disable:0000000000000010 .L0 
C:\Users\CYMR90~1\AppData\Local\Temp\ccZoYVSv.s:1655   .text.i2c_dma_disable:0000000000000016 .L0 
C:\Users\CYMR90~1\AppData\Local\Temp\ccZoYVSv.s:1663   .text.i2c_dma_disable:0000000000000028 .L0 
C:\Users\CYMR90~1\AppData\Local\Temp\ccZoYVSv.s:1666   .text.i2c_dma_disable:000000000000002a .L0 
C:\Users\CYMR90~1\AppData\Local\Temp\ccZoYVSv.s:1675   .text.i2c_dma_disable:000000000000003c .L0 
C:\Users\CYMR90~1\AppData\Local\Temp\ccZoYVSv.s:1677   .text.i2c_dma_disable:0000000000000040 .L0 
C:\Users\CYMR90~1\AppData\Local\Temp\ccZoYVSv.s:1678   .text.i2c_dma_disable:0000000000000040 .L0 
C:\Users\CYMR90~1\AppData\Local\Temp\ccZoYVSv.s:1680   .text.i2c_dma_disable:0000000000000042 .L0 
C:\Users\CYMR90~1\AppData\Local\Temp\ccZoYVSv.s:1682   .text.i2c_dma_disable:0000000000000044 .L0 
C:\Users\CYMR90~1\AppData\Local\Temp\ccZoYVSv.s:1689   .text.i2c_pec_transfer:0000000000000000 i2c_pec_transfer
C:\Users\CYMR90~1\AppData\Local\Temp\ccZoYVSv.s:1692   .text.i2c_pec_transfer:0000000000000000 .L0 
C:\Users\CYMR90~1\AppData\Local\Temp\ccZoYVSv.s:1693   .text.i2c_pec_transfer:0000000000000000 .L0 
C:\Users\CYMR90~1\AppData\Local\Temp\ccZoYVSv.s:1694   .text.i2c_pec_transfer:0000000000000002 .L0 
C:\Users\CYMR90~1\AppData\Local\Temp\ccZoYVSv.s:1696   .text.i2c_pec_transfer:0000000000000004 .L0 
C:\Users\CYMR90~1\AppData\Local\Temp\ccZoYVSv.s:1698   .text.i2c_pec_transfer:0000000000000006 .L0 
C:\Users\CYMR90~1\AppData\Local\Temp\ccZoYVSv.s:1701   .text.i2c_pec_transfer:000000000000000a .L0 
C:\Users\CYMR90~1\AppData\Local\Temp\ccZoYVSv.s:1711   .text.i2c_pec_transfer:0000000000000022 .L0 
C:\Users\CYMR90~1\AppData\Local\Temp\ccZoYVSv.s:1713   .text.i2c_pec_transfer:0000000000000026 .L0 
C:\Users\CYMR90~1\AppData\Local\Temp\ccZoYVSv.s:1714   .text.i2c_pec_transfer:0000000000000026 .L0 
C:\Users\CYMR90~1\AppData\Local\Temp\ccZoYVSv.s:1716   .text.i2c_pec_transfer:0000000000000028 .L0 
C:\Users\CYMR90~1\AppData\Local\Temp\ccZoYVSv.s:1718   .text.i2c_pec_transfer:000000000000002a .L0 
C:\Users\CYMR90~1\AppData\Local\Temp\ccZoYVSv.s:1725   .text.i2c_pec_enable:0000000000000000 i2c_pec_enable
C:\Users\CYMR90~1\AppData\Local\Temp\ccZoYVSv.s:1728   .text.i2c_pec_enable:0000000000000000 .L0 
C:\Users\CYMR90~1\AppData\Local\Temp\ccZoYVSv.s:1729   .text.i2c_pec_enable:0000000000000000 .L0 
C:\Users\CYMR90~1\AppData\Local\Temp\ccZoYVSv.s:1730   .text.i2c_pec_enable:0000000000000002 .L0 
C:\Users\CYMR90~1\AppData\Local\Temp\ccZoYVSv.s:1732   .text.i2c_pec_enable:0000000000000004 .L0 
C:\Users\CYMR90~1\AppData\Local\Temp\ccZoYVSv.s:1734   .text.i2c_pec_enable:0000000000000006 .L0 
C:\Users\CYMR90~1\AppData\Local\Temp\ccZoYVSv.s:1737   .text.i2c_pec_enable:000000000000000a .L0 
C:\Users\CYMR90~1\AppData\Local\Temp\ccZoYVSv.s:1744   .text.i2c_pec_enable:000000000000001c .L0 
C:\Users\CYMR90~1\AppData\Local\Temp\ccZoYVSv.s:1746   .text.i2c_pec_enable:0000000000000020 .L0 
C:\Users\CYMR90~1\AppData\Local\Temp\ccZoYVSv.s:1747   .text.i2c_pec_enable:0000000000000020 .L0 
C:\Users\CYMR90~1\AppData\Local\Temp\ccZoYVSv.s:1749   .text.i2c_pec_enable:0000000000000022 .L0 
C:\Users\CYMR90~1\AppData\Local\Temp\ccZoYVSv.s:1751   .text.i2c_pec_enable:0000000000000024 .L0 
C:\Users\CYMR90~1\AppData\Local\Temp\ccZoYVSv.s:1758   .text.i2c_pec_disable:0000000000000000 i2c_pec_disable
C:\Users\CYMR90~1\AppData\Local\Temp\ccZoYVSv.s:1761   .text.i2c_pec_disable:0000000000000000 .L0 
C:\Users\CYMR90~1\AppData\Local\Temp\ccZoYVSv.s:1762   .text.i2c_pec_disable:0000000000000000 .L0 
C:\Users\CYMR90~1\AppData\Local\Temp\ccZoYVSv.s:1763   .text.i2c_pec_disable:0000000000000002 .L0 
C:\Users\CYMR90~1\AppData\Local\Temp\ccZoYVSv.s:1765   .text.i2c_pec_disable:0000000000000004 .L0 
C:\Users\CYMR90~1\AppData\Local\Temp\ccZoYVSv.s:1767   .text.i2c_pec_disable:0000000000000006 .L0 
C:\Users\CYMR90~1\AppData\Local\Temp\ccZoYVSv.s:1770   .text.i2c_pec_disable:000000000000000a .L0 
C:\Users\CYMR90~1\AppData\Local\Temp\ccZoYVSv.s:1778   .text.i2c_pec_disable:000000000000001e .L0 
C:\Users\CYMR90~1\AppData\Local\Temp\ccZoYVSv.s:1780   .text.i2c_pec_disable:0000000000000022 .L0 
C:\Users\CYMR90~1\AppData\Local\Temp\ccZoYVSv.s:1781   .text.i2c_pec_disable:0000000000000022 .L0 
C:\Users\CYMR90~1\AppData\Local\Temp\ccZoYVSv.s:1783   .text.i2c_pec_disable:0000000000000024 .L0 
C:\Users\CYMR90~1\AppData\Local\Temp\ccZoYVSv.s:1785   .text.i2c_pec_disable:0000000000000026 .L0 
C:\Users\CYMR90~1\AppData\Local\Temp\ccZoYVSv.s:1792   .text.i2c_pec_value_get:0000000000000000 i2c_pec_value_get
C:\Users\CYMR90~1\AppData\Local\Temp\ccZoYVSv.s:1795   .text.i2c_pec_value_get:0000000000000000 .L0 
C:\Users\CYMR90~1\AppData\Local\Temp\ccZoYVSv.s:1796   .text.i2c_pec_value_get:0000000000000000 .L0 
C:\Users\CYMR90~1\AppData\Local\Temp\ccZoYVSv.s:1797   .text.i2c_pec_value_get:0000000000000002 .L0 
C:\Users\CYMR90~1\AppData\Local\Temp\ccZoYVSv.s:1799   .text.i2c_pec_value_get:0000000000000004 .L0 
C:\Users\CYMR90~1\AppData\Local\Temp\ccZoYVSv.s:1801   .text.i2c_pec_value_get:0000000000000006 .L0 
C:\Users\CYMR90~1\AppData\Local\Temp\ccZoYVSv.s:1804   .text.i2c_pec_value_get:000000000000000a .L0 
C:\Users\CYMR90~1\AppData\Local\Temp\ccZoYVSv.s:1807   .text.i2c_pec_value_get:0000000000000012 .L0 
C:\Users\CYMR90~1\AppData\Local\Temp\ccZoYVSv.s:1810   .text.i2c_pec_value_get:0000000000000018 .L0 
C:\Users\CYMR90~1\AppData\Local\Temp\ccZoYVSv.s:1812   .text.i2c_pec_value_get:000000000000001c .L0 
C:\Users\CYMR90~1\AppData\Local\Temp\ccZoYVSv.s:1813   .text.i2c_pec_value_get:000000000000001c .L0 
C:\Users\CYMR90~1\AppData\Local\Temp\ccZoYVSv.s:1815   .text.i2c_pec_value_get:000000000000001e .L0 
C:\Users\CYMR90~1\AppData\Local\Temp\ccZoYVSv.s:1817   .text.i2c_pec_value_get:0000000000000020 .L0 
C:\Users\CYMR90~1\AppData\Local\Temp\ccZoYVSv.s:1824   .text.i2c_smbus_alert_enable:0000000000000000 i2c_smbus_alert_enable
C:\Users\CYMR90~1\AppData\Local\Temp\ccZoYVSv.s:1827   .text.i2c_smbus_alert_enable:0000000000000000 .L0 
C:\Users\CYMR90~1\AppData\Local\Temp\ccZoYVSv.s:1828   .text.i2c_smbus_alert_enable:0000000000000000 .L0 
C:\Users\CYMR90~1\AppData\Local\Temp\ccZoYVSv.s:1829   .text.i2c_smbus_alert_enable:0000000000000002 .L0 
C:\Users\CYMR90~1\AppData\Local\Temp\ccZoYVSv.s:1831   .text.i2c_smbus_alert_enable:0000000000000004 .L0 
C:\Users\CYMR90~1\AppData\Local\Temp\ccZoYVSv.s:1833   .text.i2c_smbus_alert_enable:0000000000000006 .L0 
C:\Users\CYMR90~1\AppData\Local\Temp\ccZoYVSv.s:1836   .text.i2c_smbus_alert_enable:000000000000000a .L0 
C:\Users\CYMR90~1\AppData\Local\Temp\ccZoYVSv.s:1843   .text.i2c_smbus_alert_enable:000000000000001c .L0 
C:\Users\CYMR90~1\AppData\Local\Temp\ccZoYVSv.s:1845   .text.i2c_smbus_alert_enable:0000000000000020 .L0 
C:\Users\CYMR90~1\AppData\Local\Temp\ccZoYVSv.s:1846   .text.i2c_smbus_alert_enable:0000000000000020 .L0 
C:\Users\CYMR90~1\AppData\Local\Temp\ccZoYVSv.s:1848   .text.i2c_smbus_alert_enable:0000000000000022 .L0 
C:\Users\CYMR90~1\AppData\Local\Temp\ccZoYVSv.s:1850   .text.i2c_smbus_alert_enable:0000000000000024 .L0 
C:\Users\CYMR90~1\AppData\Local\Temp\ccZoYVSv.s:1857   .text.i2c_smbus_alert_disable:0000000000000000 i2c_smbus_alert_disable
C:\Users\CYMR90~1\AppData\Local\Temp\ccZoYVSv.s:1860   .text.i2c_smbus_alert_disable:0000000000000000 .L0 
C:\Users\CYMR90~1\AppData\Local\Temp\ccZoYVSv.s:1861   .text.i2c_smbus_alert_disable:0000000000000000 .L0 
C:\Users\CYMR90~1\AppData\Local\Temp\ccZoYVSv.s:1862   .text.i2c_smbus_alert_disable:0000000000000002 .L0 
C:\Users\CYMR90~1\AppData\Local\Temp\ccZoYVSv.s:1864   .text.i2c_smbus_alert_disable:0000000000000004 .L0 
C:\Users\CYMR90~1\AppData\Local\Temp\ccZoYVSv.s:1866   .text.i2c_smbus_alert_disable:0000000000000006 .L0 
C:\Users\CYMR90~1\AppData\Local\Temp\ccZoYVSv.s:1869   .text.i2c_smbus_alert_disable:000000000000000a .L0 
C:\Users\CYMR90~1\AppData\Local\Temp\ccZoYVSv.s:1877   .text.i2c_smbus_alert_disable:000000000000001e .L0 
C:\Users\CYMR90~1\AppData\Local\Temp\ccZoYVSv.s:1879   .text.i2c_smbus_alert_disable:0000000000000022 .L0 
C:\Users\CYMR90~1\AppData\Local\Temp\ccZoYVSv.s:1880   .text.i2c_smbus_alert_disable:0000000000000022 .L0 
C:\Users\CYMR90~1\AppData\Local\Temp\ccZoYVSv.s:1882   .text.i2c_smbus_alert_disable:0000000000000024 .L0 
C:\Users\CYMR90~1\AppData\Local\Temp\ccZoYVSv.s:1884   .text.i2c_smbus_alert_disable:0000000000000026 .L0 
C:\Users\CYMR90~1\AppData\Local\Temp\ccZoYVSv.s:1891   .text.i2c_smbus_default_addr_enable:0000000000000000 i2c_smbus_default_addr_enable
C:\Users\CYMR90~1\AppData\Local\Temp\ccZoYVSv.s:1894   .text.i2c_smbus_default_addr_enable:0000000000000000 .L0 
C:\Users\CYMR90~1\AppData\Local\Temp\ccZoYVSv.s:1895   .text.i2c_smbus_default_addr_enable:0000000000000000 .L0 
C:\Users\CYMR90~1\AppData\Local\Temp\ccZoYVSv.s:1896   .text.i2c_smbus_default_addr_enable:0000000000000002 .L0 
C:\Users\CYMR90~1\AppData\Local\Temp\ccZoYVSv.s:1898   .text.i2c_smbus_default_addr_enable:0000000000000004 .L0 
C:\Users\CYMR90~1\AppData\Local\Temp\ccZoYVSv.s:1900   .text.i2c_smbus_default_addr_enable:0000000000000006 .L0 
C:\Users\CYMR90~1\AppData\Local\Temp\ccZoYVSv.s:1903   .text.i2c_smbus_default_addr_enable:000000000000000a .L0 
C:\Users\CYMR90~1\AppData\Local\Temp\ccZoYVSv.s:1910   .text.i2c_smbus_default_addr_enable:000000000000001c .L0 
C:\Users\CYMR90~1\AppData\Local\Temp\ccZoYVSv.s:1912   .text.i2c_smbus_default_addr_enable:0000000000000020 .L0 
C:\Users\CYMR90~1\AppData\Local\Temp\ccZoYVSv.s:1913   .text.i2c_smbus_default_addr_enable:0000000000000020 .L0 
C:\Users\CYMR90~1\AppData\Local\Temp\ccZoYVSv.s:1915   .text.i2c_smbus_default_addr_enable:0000000000000022 .L0 
C:\Users\CYMR90~1\AppData\Local\Temp\ccZoYVSv.s:1917   .text.i2c_smbus_default_addr_enable:0000000000000024 .L0 
C:\Users\CYMR90~1\AppData\Local\Temp\ccZoYVSv.s:1924   .text.i2c_smbus_default_addr_disable:0000000000000000 i2c_smbus_default_addr_disable
C:\Users\CYMR90~1\AppData\Local\Temp\ccZoYVSv.s:1927   .text.i2c_smbus_default_addr_disable:0000000000000000 .L0 
C:\Users\CYMR90~1\AppData\Local\Temp\ccZoYVSv.s:1928   .text.i2c_smbus_default_addr_disable:0000000000000000 .L0 
C:\Users\CYMR90~1\AppData\Local\Temp\ccZoYVSv.s:1929   .text.i2c_smbus_default_addr_disable:0000000000000002 .L0 
C:\Users\CYMR90~1\AppData\Local\Temp\ccZoYVSv.s:1931   .text.i2c_smbus_default_addr_disable:0000000000000004 .L0 
C:\Users\CYMR90~1\AppData\Local\Temp\ccZoYVSv.s:1933   .text.i2c_smbus_default_addr_disable:0000000000000006 .L0 
C:\Users\CYMR90~1\AppData\Local\Temp\ccZoYVSv.s:1936   .text.i2c_smbus_default_addr_disable:000000000000000a .L0 
C:\Users\CYMR90~1\AppData\Local\Temp\ccZoYVSv.s:1944   .text.i2c_smbus_default_addr_disable:000000000000001e .L0 
C:\Users\CYMR90~1\AppData\Local\Temp\ccZoYVSv.s:1946   .text.i2c_smbus_default_addr_disable:0000000000000022 .L0 
C:\Users\CYMR90~1\AppData\Local\Temp\ccZoYVSv.s:1947   .text.i2c_smbus_default_addr_disable:0000000000000022 .L0 
C:\Users\CYMR90~1\AppData\Local\Temp\ccZoYVSv.s:1949   .text.i2c_smbus_default_addr_disable:0000000000000024 .L0 
C:\Users\CYMR90~1\AppData\Local\Temp\ccZoYVSv.s:1951   .text.i2c_smbus_default_addr_disable:0000000000000026 .L0 
C:\Users\CYMR90~1\AppData\Local\Temp\ccZoYVSv.s:1958   .text.i2c_smbus_host_addr_enable:0000000000000000 i2c_smbus_host_addr_enable
C:\Users\CYMR90~1\AppData\Local\Temp\ccZoYVSv.s:1961   .text.i2c_smbus_host_addr_enable:0000000000000000 .L0 
C:\Users\CYMR90~1\AppData\Local\Temp\ccZoYVSv.s:1962   .text.i2c_smbus_host_addr_enable:0000000000000000 .L0 
C:\Users\CYMR90~1\AppData\Local\Temp\ccZoYVSv.s:1963   .text.i2c_smbus_host_addr_enable:0000000000000002 .L0 
C:\Users\CYMR90~1\AppData\Local\Temp\ccZoYVSv.s:1965   .text.i2c_smbus_host_addr_enable:0000000000000004 .L0 
C:\Users\CYMR90~1\AppData\Local\Temp\ccZoYVSv.s:1967   .text.i2c_smbus_host_addr_enable:0000000000000006 .L0 
C:\Users\CYMR90~1\AppData\Local\Temp\ccZoYVSv.s:1970   .text.i2c_smbus_host_addr_enable:000000000000000a .L0 
C:\Users\CYMR90~1\AppData\Local\Temp\ccZoYVSv.s:1977   .text.i2c_smbus_host_addr_enable:000000000000001c .L0 
C:\Users\CYMR90~1\AppData\Local\Temp\ccZoYVSv.s:1979   .text.i2c_smbus_host_addr_enable:0000000000000020 .L0 
C:\Users\CYMR90~1\AppData\Local\Temp\ccZoYVSv.s:1980   .text.i2c_smbus_host_addr_enable:0000000000000020 .L0 
C:\Users\CYMR90~1\AppData\Local\Temp\ccZoYVSv.s:1982   .text.i2c_smbus_host_addr_enable:0000000000000022 .L0 
C:\Users\CYMR90~1\AppData\Local\Temp\ccZoYVSv.s:1984   .text.i2c_smbus_host_addr_enable:0000000000000024 .L0 
C:\Users\CYMR90~1\AppData\Local\Temp\ccZoYVSv.s:1991   .text.i2c_smbus_host_addr_disable:0000000000000000 i2c_smbus_host_addr_disable
C:\Users\CYMR90~1\AppData\Local\Temp\ccZoYVSv.s:1994   .text.i2c_smbus_host_addr_disable:0000000000000000 .L0 
C:\Users\CYMR90~1\AppData\Local\Temp\ccZoYVSv.s:1995   .text.i2c_smbus_host_addr_disable:0000000000000000 .L0 
C:\Users\CYMR90~1\AppData\Local\Temp\ccZoYVSv.s:1996   .text.i2c_smbus_host_addr_disable:0000000000000002 .L0 
C:\Users\CYMR90~1\AppData\Local\Temp\ccZoYVSv.s:1998   .text.i2c_smbus_host_addr_disable:0000000000000004 .L0 
C:\Users\CYMR90~1\AppData\Local\Temp\ccZoYVSv.s:2000   .text.i2c_smbus_host_addr_disable:0000000000000006 .L0 
C:\Users\CYMR90~1\AppData\Local\Temp\ccZoYVSv.s:2003   .text.i2c_smbus_host_addr_disable:000000000000000a .L0 
C:\Users\CYMR90~1\AppData\Local\Temp\ccZoYVSv.s:2011   .text.i2c_smbus_host_addr_disable:000000000000001e .L0 
C:\Users\CYMR90~1\AppData\Local\Temp\ccZoYVSv.s:2013   .text.i2c_smbus_host_addr_disable:0000000000000022 .L0 
C:\Users\CYMR90~1\AppData\Local\Temp\ccZoYVSv.s:2014   .text.i2c_smbus_host_addr_disable:0000000000000022 .L0 
C:\Users\CYMR90~1\AppData\Local\Temp\ccZoYVSv.s:2016   .text.i2c_smbus_host_addr_disable:0000000000000024 .L0 
C:\Users\CYMR90~1\AppData\Local\Temp\ccZoYVSv.s:2018   .text.i2c_smbus_host_addr_disable:0000000000000026 .L0 
C:\Users\CYMR90~1\AppData\Local\Temp\ccZoYVSv.s:2025   .text.i2c_extented_clock_timeout_enable:0000000000000000 i2c_extented_clock_timeout_enable
C:\Users\CYMR90~1\AppData\Local\Temp\ccZoYVSv.s:2028   .text.i2c_extented_clock_timeout_enable:0000000000000000 .L0 
C:\Users\CYMR90~1\AppData\Local\Temp\ccZoYVSv.s:2029   .text.i2c_extented_clock_timeout_enable:0000000000000000 .L0 
C:\Users\CYMR90~1\AppData\Local\Temp\ccZoYVSv.s:2030   .text.i2c_extented_clock_timeout_enable:0000000000000002 .L0 
C:\Users\CYMR90~1\AppData\Local\Temp\ccZoYVSv.s:2032   .text.i2c_extented_clock_timeout_enable:0000000000000004 .L0 
C:\Users\CYMR90~1\AppData\Local\Temp\ccZoYVSv.s:2034   .text.i2c_extented_clock_timeout_enable:0000000000000006 .L0 
C:\Users\CYMR90~1\AppData\Local\Temp\ccZoYVSv.s:2037   .text.i2c_extented_clock_timeout_enable:000000000000000a .L0 
C:\Users\CYMR90~1\AppData\Local\Temp\ccZoYVSv.s:2047   .text.i2c_extented_clock_timeout_enable:0000000000000022 .L0 
C:\Users\CYMR90~1\AppData\Local\Temp\ccZoYVSv.s:2049   .text.i2c_extented_clock_timeout_enable:0000000000000026 .L0 
C:\Users\CYMR90~1\AppData\Local\Temp\ccZoYVSv.s:2050   .text.i2c_extented_clock_timeout_enable:0000000000000026 .L0 
C:\Users\CYMR90~1\AppData\Local\Temp\ccZoYVSv.s:2052   .text.i2c_extented_clock_timeout_enable:0000000000000028 .L0 
C:\Users\CYMR90~1\AppData\Local\Temp\ccZoYVSv.s:2054   .text.i2c_extented_clock_timeout_enable:000000000000002a .L0 
C:\Users\CYMR90~1\AppData\Local\Temp\ccZoYVSv.s:2061   .text.i2c_extented_clock_timeout_disable:0000000000000000 i2c_extented_clock_timeout_disable
C:\Users\CYMR90~1\AppData\Local\Temp\ccZoYVSv.s:2064   .text.i2c_extented_clock_timeout_disable:0000000000000000 .L0 
C:\Users\CYMR90~1\AppData\Local\Temp\ccZoYVSv.s:2065   .text.i2c_extented_clock_timeout_disable:0000000000000000 .L0 
C:\Users\CYMR90~1\AppData\Local\Temp\ccZoYVSv.s:2066   .text.i2c_extented_clock_timeout_disable:0000000000000002 .L0 
C:\Users\CYMR90~1\AppData\Local\Temp\ccZoYVSv.s:2068   .text.i2c_extented_clock_timeout_disable:0000000000000004 .L0 
C:\Users\CYMR90~1\AppData\Local\Temp\ccZoYVSv.s:2070   .text.i2c_extented_clock_timeout_disable:0000000000000006 .L0 
C:\Users\CYMR90~1\AppData\Local\Temp\ccZoYVSv.s:2073   .text.i2c_extented_clock_timeout_disable:000000000000000a .L0 
C:\Users\CYMR90~1\AppData\Local\Temp\ccZoYVSv.s:2084   .text.i2c_extented_clock_timeout_disable:0000000000000026 .L0 
C:\Users\CYMR90~1\AppData\Local\Temp\ccZoYVSv.s:2086   .text.i2c_extented_clock_timeout_disable:000000000000002a .L0 
C:\Users\CYMR90~1\AppData\Local\Temp\ccZoYVSv.s:2087   .text.i2c_extented_clock_timeout_disable:000000000000002a .L0 
C:\Users\CYMR90~1\AppData\Local\Temp\ccZoYVSv.s:2089   .text.i2c_extented_clock_timeout_disable:000000000000002c .L0 
C:\Users\CYMR90~1\AppData\Local\Temp\ccZoYVSv.s:2091   .text.i2c_extented_clock_timeout_disable:000000000000002e .L0 
C:\Users\CYMR90~1\AppData\Local\Temp\ccZoYVSv.s:2098   .text.i2c_clock_timeout_enable:0000000000000000 i2c_clock_timeout_enable
C:\Users\CYMR90~1\AppData\Local\Temp\ccZoYVSv.s:2101   .text.i2c_clock_timeout_enable:0000000000000000 .L0 
C:\Users\CYMR90~1\AppData\Local\Temp\ccZoYVSv.s:2102   .text.i2c_clock_timeout_enable:0000000000000000 .L0 
C:\Users\CYMR90~1\AppData\Local\Temp\ccZoYVSv.s:2103   .text.i2c_clock_timeout_enable:0000000000000002 .L0 
C:\Users\CYMR90~1\AppData\Local\Temp\ccZoYVSv.s:2105   .text.i2c_clock_timeout_enable:0000000000000004 .L0 
C:\Users\CYMR90~1\AppData\Local\Temp\ccZoYVSv.s:2107   .text.i2c_clock_timeout_enable:0000000000000006 .L0 
C:\Users\CYMR90~1\AppData\Local\Temp\ccZoYVSv.s:2110   .text.i2c_clock_timeout_enable:000000000000000a .L0 
C:\Users\CYMR90~1\AppData\Local\Temp\ccZoYVSv.s:2120   .text.i2c_clock_timeout_enable:0000000000000020 .L0 
C:\Users\CYMR90~1\AppData\Local\Temp\ccZoYVSv.s:2122   .text.i2c_clock_timeout_enable:0000000000000024 .L0 
C:\Users\CYMR90~1\AppData\Local\Temp\ccZoYVSv.s:2123   .text.i2c_clock_timeout_enable:0000000000000024 .L0 
C:\Users\CYMR90~1\AppData\Local\Temp\ccZoYVSv.s:2125   .text.i2c_clock_timeout_enable:0000000000000026 .L0 
C:\Users\CYMR90~1\AppData\Local\Temp\ccZoYVSv.s:2127   .text.i2c_clock_timeout_enable:0000000000000028 .L0 
C:\Users\CYMR90~1\AppData\Local\Temp\ccZoYVSv.s:2134   .text.i2c_clock_timeout_disable:0000000000000000 i2c_clock_timeout_disable
C:\Users\CYMR90~1\AppData\Local\Temp\ccZoYVSv.s:2137   .text.i2c_clock_timeout_disable:0000000000000000 .L0 
C:\Users\CYMR90~1\AppData\Local\Temp\ccZoYVSv.s:2138   .text.i2c_clock_timeout_disable:0000000000000000 .L0 
C:\Users\CYMR90~1\AppData\Local\Temp\ccZoYVSv.s:2139   .text.i2c_clock_timeout_disable:0000000000000002 .L0 
C:\Users\CYMR90~1\AppData\Local\Temp\ccZoYVSv.s:2141   .text.i2c_clock_timeout_disable:0000000000000004 .L0 
C:\Users\CYMR90~1\AppData\Local\Temp\ccZoYVSv.s:2143   .text.i2c_clock_timeout_disable:0000000000000006 .L0 
C:\Users\CYMR90~1\AppData\Local\Temp\ccZoYVSv.s:2146   .text.i2c_clock_timeout_disable:000000000000000a .L0 
C:\Users\CYMR90~1\AppData\Local\Temp\ccZoYVSv.s:2157   .text.i2c_clock_timeout_disable:0000000000000022 .L0 
C:\Users\CYMR90~1\AppData\Local\Temp\ccZoYVSv.s:2159   .text.i2c_clock_timeout_disable:0000000000000026 .L0 
C:\Users\CYMR90~1\AppData\Local\Temp\ccZoYVSv.s:2160   .text.i2c_clock_timeout_disable:0000000000000026 .L0 
C:\Users\CYMR90~1\AppData\Local\Temp\ccZoYVSv.s:2162   .text.i2c_clock_timeout_disable:0000000000000028 .L0 
C:\Users\CYMR90~1\AppData\Local\Temp\ccZoYVSv.s:2164   .text.i2c_clock_timeout_disable:000000000000002a .L0 
C:\Users\CYMR90~1\AppData\Local\Temp\ccZoYVSv.s:2171   .text.i2c_bus_timeout_b_config:0000000000000000 i2c_bus_timeout_b_config
C:\Users\CYMR90~1\AppData\Local\Temp\ccZoYVSv.s:2174   .text.i2c_bus_timeout_b_config:0000000000000000 .L0 
C:\Users\CYMR90~1\AppData\Local\Temp\ccZoYVSv.s:2175   .text.i2c_bus_timeout_b_config:0000000000000000 .L0 
C:\Users\CYMR90~1\AppData\Local\Temp\ccZoYVSv.s:2176   .text.i2c_bus_timeout_b_config:0000000000000002 .L0 
C:\Users\CYMR90~1\AppData\Local\Temp\ccZoYVSv.s:2178   .text.i2c_bus_timeout_b_config:0000000000000004 .L0 
C:\Users\CYMR90~1\AppData\Local\Temp\ccZoYVSv.s:2180   .text.i2c_bus_timeout_b_config:0000000000000006 .L0 
C:\Users\CYMR90~1\AppData\Local\Temp\ccZoYVSv.s:2184   .text.i2c_bus_timeout_b_config:000000000000000e .L0 
C:\Users\CYMR90~1\AppData\Local\Temp\ccZoYVSv.s:2195   .text.i2c_bus_timeout_b_config:0000000000000028 .L0 
C:\Users\CYMR90~1\AppData\Local\Temp\ccZoYVSv.s:2199   .text.i2c_bus_timeout_b_config:0000000000000030 .L0 
C:\Users\CYMR90~1\AppData\Local\Temp\ccZoYVSv.s:2202   .text.i2c_bus_timeout_b_config:0000000000000036 .L0 
C:\Users\CYMR90~1\AppData\Local\Temp\ccZoYVSv.s:2207   .text.i2c_bus_timeout_b_config:0000000000000040 .L0 
C:\Users\CYMR90~1\AppData\Local\Temp\ccZoYVSv.s:2209   .text.i2c_bus_timeout_b_config:0000000000000044 .L0 
C:\Users\CYMR90~1\AppData\Local\Temp\ccZoYVSv.s:2210   .text.i2c_bus_timeout_b_config:0000000000000044 .L0 
C:\Users\CYMR90~1\AppData\Local\Temp\ccZoYVSv.s:2212   .text.i2c_bus_timeout_b_config:0000000000000046 .L0 
C:\Users\CYMR90~1\AppData\Local\Temp\ccZoYVSv.s:2214   .text.i2c_bus_timeout_b_config:0000000000000048 .L0 
C:\Users\CYMR90~1\AppData\Local\Temp\ccZoYVSv.s:2221   .text.i2c_bus_timeout_a_config:0000000000000000 i2c_bus_timeout_a_config
C:\Users\CYMR90~1\AppData\Local\Temp\ccZoYVSv.s:2224   .text.i2c_bus_timeout_a_config:0000000000000000 .L0 
C:\Users\CYMR90~1\AppData\Local\Temp\ccZoYVSv.s:2225   .text.i2c_bus_timeout_a_config:0000000000000000 .L0 
C:\Users\CYMR90~1\AppData\Local\Temp\ccZoYVSv.s:2226   .text.i2c_bus_timeout_a_config:0000000000000002 .L0 
C:\Users\CYMR90~1\AppData\Local\Temp\ccZoYVSv.s:2228   .text.i2c_bus_timeout_a_config:0000000000000004 .L0 
C:\Users\CYMR90~1\AppData\Local\Temp\ccZoYVSv.s:2230   .text.i2c_bus_timeout_a_config:0000000000000006 .L0 
C:\Users\CYMR90~1\AppData\Local\Temp\ccZoYVSv.s:2234   .text.i2c_bus_timeout_a_config:000000000000000e .L0 
C:\Users\CYMR90~1\AppData\Local\Temp\ccZoYVSv.s:2244   .text.i2c_bus_timeout_a_config:0000000000000024 .L0 
C:\Users\CYMR90~1\AppData\Local\Temp\ccZoYVSv.s:2254   .text.i2c_bus_timeout_a_config:000000000000003c .L0 
C:\Users\CYMR90~1\AppData\Local\Temp\ccZoYVSv.s:2256   .text.i2c_bus_timeout_a_config:0000000000000040 .L0 
C:\Users\CYMR90~1\AppData\Local\Temp\ccZoYVSv.s:2257   .text.i2c_bus_timeout_a_config:0000000000000040 .L0 
C:\Users\CYMR90~1\AppData\Local\Temp\ccZoYVSv.s:2259   .text.i2c_bus_timeout_a_config:0000000000000042 .L0 
C:\Users\CYMR90~1\AppData\Local\Temp\ccZoYVSv.s:2261   .text.i2c_bus_timeout_a_config:0000000000000044 .L0 
C:\Users\CYMR90~1\AppData\Local\Temp\ccZoYVSv.s:2268   .text.i2c_idle_clock_timeout_config:0000000000000000 i2c_idle_clock_timeout_config
C:\Users\CYMR90~1\AppData\Local\Temp\ccZoYVSv.s:2271   .text.i2c_idle_clock_timeout_config:0000000000000000 .L0 
C:\Users\CYMR90~1\AppData\Local\Temp\ccZoYVSv.s:2272   .text.i2c_idle_clock_timeout_config:0000000000000000 .L0 
C:\Users\CYMR90~1\AppData\Local\Temp\ccZoYVSv.s:2273   .text.i2c_idle_clock_timeout_config:0000000000000002 .L0 
C:\Users\CYMR90~1\AppData\Local\Temp\ccZoYVSv.s:2275   .text.i2c_idle_clock_timeout_config:0000000000000004 .L0 
C:\Users\CYMR90~1\AppData\Local\Temp\ccZoYVSv.s:2277   .text.i2c_idle_clock_timeout_config:0000000000000006 .L0 
C:\Users\CYMR90~1\AppData\Local\Temp\ccZoYVSv.s:2281   .text.i2c_idle_clock_timeout_config:000000000000000e .L0 
C:\Users\CYMR90~1\AppData\Local\Temp\ccZoYVSv.s:2292   .text.i2c_idle_clock_timeout_config:0000000000000026 .L0 
C:\Users\CYMR90~1\AppData\Local\Temp\ccZoYVSv.s:2302   .text.i2c_idle_clock_timeout_config:000000000000003e .L0 
C:\Users\CYMR90~1\AppData\Local\Temp\ccZoYVSv.s:2304   .text.i2c_idle_clock_timeout_config:0000000000000042 .L0 
C:\Users\CYMR90~1\AppData\Local\Temp\ccZoYVSv.s:2305   .text.i2c_idle_clock_timeout_config:0000000000000042 .L0 
C:\Users\CYMR90~1\AppData\Local\Temp\ccZoYVSv.s:2307   .text.i2c_idle_clock_timeout_config:0000000000000044 .L0 
C:\Users\CYMR90~1\AppData\Local\Temp\ccZoYVSv.s:2309   .text.i2c_idle_clock_timeout_config:0000000000000046 .L0 
C:\Users\CYMR90~1\AppData\Local\Temp\ccZoYVSv.s:2316   .text.i2c_flag_get:0000000000000000 i2c_flag_get
C:\Users\CYMR90~1\AppData\Local\Temp\ccZoYVSv.s:2319   .text.i2c_flag_get:0000000000000000 .L0 
C:\Users\CYMR90~1\AppData\Local\Temp\ccZoYVSv.s:2320   .text.i2c_flag_get:0000000000000000 .L0 
C:\Users\CYMR90~1\AppData\Local\Temp\ccZoYVSv.s:2321   .text.i2c_flag_get:0000000000000002 .L0 
C:\Users\CYMR90~1\AppData\Local\Temp\ccZoYVSv.s:2323   .text.i2c_flag_get:0000000000000004 .L0 
C:\Users\CYMR90~1\AppData\Local\Temp\ccZoYVSv.s:2325   .text.i2c_flag_get:0000000000000006 .L0 
C:\Users\CYMR90~1\AppData\Local\Temp\ccZoYVSv.s:2329   .text.i2c_flag_get:000000000000000e .L0 
C:\Users\CYMR90~1\AppData\Local\Temp\ccZoYVSv.s:2333   .text.i2c_flag_get:0000000000000016 .L0 
C:\Users\CYMR90~1\AppData\Local\Temp\ccZoYVSv.s:2336   .text.i2c_flag_get:000000000000001c .L0 
C:\Users\CYMR90~1\AppData\Local\Temp\ccZoYVSv.s:2338   .text.i2c_flag_get:000000000000001e .L0 
C:\Users\CYMR90~1\AppData\Local\Temp\ccZoYVSv.s:2342   .text.i2c_flag_get:0000000000000022 .L0 
C:\Users\CYMR90~1\AppData\Local\Temp\ccZoYVSv.s:2345   .text.i2c_flag_get:0000000000000024 .L0 
C:\Users\CYMR90~1\AppData\Local\Temp\ccZoYVSv.s:2347   .text.i2c_flag_get:0000000000000028 .L0 
C:\Users\CYMR90~1\AppData\Local\Temp\ccZoYVSv.s:2348   .text.i2c_flag_get:0000000000000028 .L0 
C:\Users\CYMR90~1\AppData\Local\Temp\ccZoYVSv.s:2350   .text.i2c_flag_get:000000000000002a .L0 
C:\Users\CYMR90~1\AppData\Local\Temp\ccZoYVSv.s:2352   .text.i2c_flag_get:000000000000002c .L0 
C:\Users\CYMR90~1\AppData\Local\Temp\ccZoYVSv.s:2359   .text.i2c_flag_clear:0000000000000000 i2c_flag_clear
C:\Users\CYMR90~1\AppData\Local\Temp\ccZoYVSv.s:2362   .text.i2c_flag_clear:0000000000000000 .L0 
C:\Users\CYMR90~1\AppData\Local\Temp\ccZoYVSv.s:2363   .text.i2c_flag_clear:0000000000000000 .L0 
C:\Users\CYMR90~1\AppData\Local\Temp\ccZoYVSv.s:2364   .text.i2c_flag_clear:0000000000000002 .L0 
C:\Users\CYMR90~1\AppData\Local\Temp\ccZoYVSv.s:2366   .text.i2c_flag_clear:0000000000000004 .L0 
C:\Users\CYMR90~1\AppData\Local\Temp\ccZoYVSv.s:2368   .text.i2c_flag_clear:0000000000000006 .L0 
C:\Users\CYMR90~1\AppData\Local\Temp\ccZoYVSv.s:2372   .text.i2c_flag_clear:000000000000000e .L0 
C:\Users\CYMR90~1\AppData\Local\Temp\ccZoYVSv.s:2382   .text.i2c_flag_clear:0000000000000026 .L0 
C:\Users\CYMR90~1\AppData\Local\Temp\ccZoYVSv.s:2384   .text.i2c_flag_clear:000000000000002a .L0 
C:\Users\CYMR90~1\AppData\Local\Temp\ccZoYVSv.s:2385   .text.i2c_flag_clear:000000000000002a .L0 
C:\Users\CYMR90~1\AppData\Local\Temp\ccZoYVSv.s:2387   .text.i2c_flag_clear:000000000000002c .L0 
C:\Users\CYMR90~1\AppData\Local\Temp\ccZoYVSv.s:2389   .text.i2c_flag_clear:000000000000002e .L0 
C:\Users\CYMR90~1\AppData\Local\Temp\ccZoYVSv.s:2396   .text.i2c_interrupt_enable:0000000000000000 i2c_interrupt_enable
C:\Users\CYMR90~1\AppData\Local\Temp\ccZoYVSv.s:2399   .text.i2c_interrupt_enable:0000000000000000 .L0 
C:\Users\CYMR90~1\AppData\Local\Temp\ccZoYVSv.s:2400   .text.i2c_interrupt_enable:0000000000000000 .L0 
C:\Users\CYMR90~1\AppData\Local\Temp\ccZoYVSv.s:2401   .text.i2c_interrupt_enable:0000000000000002 .L0 
C:\Users\CYMR90~1\AppData\Local\Temp\ccZoYVSv.s:2403   .text.i2c_interrupt_enable:0000000000000004 .L0 
C:\Users\CYMR90~1\AppData\Local\Temp\ccZoYVSv.s:2405   .text.i2c_interrupt_enable:0000000000000006 .L0 
C:\Users\CYMR90~1\AppData\Local\Temp\ccZoYVSv.s:2409   .text.i2c_interrupt_enable:000000000000000e .L0 
C:\Users\CYMR90~1\AppData\Local\Temp\ccZoYVSv.s:2416   .text.i2c_interrupt_enable:0000000000000020 .L0 
C:\Users\CYMR90~1\AppData\Local\Temp\ccZoYVSv.s:2418   .text.i2c_interrupt_enable:0000000000000024 .L0 
C:\Users\CYMR90~1\AppData\Local\Temp\ccZoYVSv.s:2419   .text.i2c_interrupt_enable:0000000000000024 .L0 
C:\Users\CYMR90~1\AppData\Local\Temp\ccZoYVSv.s:2421   .text.i2c_interrupt_enable:0000000000000026 .L0 
C:\Users\CYMR90~1\AppData\Local\Temp\ccZoYVSv.s:2423   .text.i2c_interrupt_enable:0000000000000028 .L0 
C:\Users\CYMR90~1\AppData\Local\Temp\ccZoYVSv.s:2430   .text.i2c_interrupt_disable:0000000000000000 i2c_interrupt_disable
C:\Users\CYMR90~1\AppData\Local\Temp\ccZoYVSv.s:2433   .text.i2c_interrupt_disable:0000000000000000 .L0 
C:\Users\CYMR90~1\AppData\Local\Temp\ccZoYVSv.s:2434   .text.i2c_interrupt_disable:0000000000000000 .L0 
C:\Users\CYMR90~1\AppData\Local\Temp\ccZoYVSv.s:2435   .text.i2c_interrupt_disable:0000000000000002 .L0 
C:\Users\CYMR90~1\AppData\Local\Temp\ccZoYVSv.s:2437   .text.i2c_interrupt_disable:0000000000000004 .L0 
C:\Users\CYMR90~1\AppData\Local\Temp\ccZoYVSv.s:2439   .text.i2c_interrupt_disable:0000000000000006 .L0 
C:\Users\CYMR90~1\AppData\Local\Temp\ccZoYVSv.s:2443   .text.i2c_interrupt_disable:000000000000000e .L0 
C:\Users\CYMR90~1\AppData\Local\Temp\ccZoYVSv.s:2446   .text.i2c_interrupt_disable:0000000000000014 .L0 
C:\Users\CYMR90~1\AppData\Local\Temp\ccZoYVSv.s:2449   .text.i2c_interrupt_disable:000000000000001c .L0 
C:\Users\CYMR90~1\AppData\Local\Temp\ccZoYVSv.s:2453   .text.i2c_interrupt_disable:0000000000000024 .L0 
C:\Users\CYMR90~1\AppData\Local\Temp\ccZoYVSv.s:2455   .text.i2c_interrupt_disable:0000000000000028 .L0 
C:\Users\CYMR90~1\AppData\Local\Temp\ccZoYVSv.s:2456   .text.i2c_interrupt_disable:0000000000000028 .L0 
C:\Users\CYMR90~1\AppData\Local\Temp\ccZoYVSv.s:2458   .text.i2c_interrupt_disable:000000000000002a .L0 
C:\Users\CYMR90~1\AppData\Local\Temp\ccZoYVSv.s:2460   .text.i2c_interrupt_disable:000000000000002c .L0 
C:\Users\CYMR90~1\AppData\Local\Temp\ccZoYVSv.s:2467   .text.i2c_interrupt_flag_get:0000000000000000 i2c_interrupt_flag_get
C:\Users\CYMR90~1\AppData\Local\Temp\ccZoYVSv.s:2470   .text.i2c_interrupt_flag_get:0000000000000000 .L0 
C:\Users\CYMR90~1\AppData\Local\Temp\ccZoYVSv.s:2471   .text.i2c_interrupt_flag_get:0000000000000000 .L0 
C:\Users\CYMR90~1\AppData\Local\Temp\ccZoYVSv.s:2472   .text.i2c_interrupt_flag_get:0000000000000002 .L0 
C:\Users\CYMR90~1\AppData\Local\Temp\ccZoYVSv.s:2474   .text.i2c_interrupt_flag_get:0000000000000004 .L0 
C:\Users\CYMR90~1\AppData\Local\Temp\ccZoYVSv.s:2476   .text.i2c_interrupt_flag_get:0000000000000006 .L0 
C:\Users\CYMR90~1\AppData\Local\Temp\ccZoYVSv.s:2480   .text.i2c_interrupt_flag_get:000000000000000e .L0 
C:\Users\CYMR90~1\AppData\Local\Temp\ccZoYVSv.s:2482   .text.i2c_interrupt_flag_get:0000000000000012 .L0 
C:\Users\CYMR90~1\AppData\Local\Temp\ccZoYVSv.s:2484   .text.i2c_interrupt_flag_get:0000000000000016 .L0 
C:\Users\CYMR90~1\AppData\Local\Temp\ccZoYVSv.s:2491   .text.i2c_interrupt_flag_get:0000000000000028 .L0 
C:\Users\CYMR90~1\AppData\Local\Temp\ccZoYVSv.s:2496   .text.i2c_interrupt_flag_get:0000000000000034 .L0 
C:\Users\CYMR90~1\AppData\Local\Temp\ccZoYVSv.s:2499   .text.i2c_interrupt_flag_get:000000000000003a .L0 
C:\Users\CYMR90~1\AppData\Local\Temp\ccZoYVSv.s:2505   .text.i2c_interrupt_flag_get:000000000000004a .L0 
C:\Users\CYMR90~1\AppData\Local\Temp\ccZoYVSv.s:2511   .text.i2c_interrupt_flag_get:0000000000000058 .L0 
C:\Users\CYMR90~1\AppData\Local\Temp\ccZoYVSv.s:2514   .text.i2c_interrupt_flag_get:000000000000005e .L0 
C:\Users\CYMR90~1\AppData\Local\Temp\ccZoYVSv.s:2517   .text.i2c_interrupt_flag_get:0000000000000064 .L0 
C:\Users\CYMR90~1\AppData\Local\Temp\ccZoYVSv.s:2520   .text.i2c_interrupt_flag_get:000000000000006a .L0 
C:\Users\CYMR90~1\AppData\Local\Temp\ccZoYVSv.s:2524   .text.i2c_interrupt_flag_get:000000000000006e .L0 
C:\Users\CYMR90~1\AppData\Local\Temp\ccZoYVSv.s:2527   .text.i2c_interrupt_flag_get:0000000000000070 .L0 
C:\Users\CYMR90~1\AppData\Local\Temp\ccZoYVSv.s:2529   .text.i2c_interrupt_flag_get:0000000000000074 .L0 
C:\Users\CYMR90~1\AppData\Local\Temp\ccZoYVSv.s:2530   .text.i2c_interrupt_flag_get:0000000000000074 .L0 
C:\Users\CYMR90~1\AppData\Local\Temp\ccZoYVSv.s:2532   .text.i2c_interrupt_flag_get:0000000000000076 .L0 
C:\Users\CYMR90~1\AppData\Local\Temp\ccZoYVSv.s:2534   .text.i2c_interrupt_flag_get:0000000000000078 .L0 
C:\Users\CYMR90~1\AppData\Local\Temp\ccZoYVSv.s:2541   .text.i2c_interrupt_flag_clear:0000000000000000 i2c_interrupt_flag_clear
C:\Users\CYMR90~1\AppData\Local\Temp\ccZoYVSv.s:2544   .text.i2c_interrupt_flag_clear:0000000000000000 .L0 
C:\Users\CYMR90~1\AppData\Local\Temp\ccZoYVSv.s:2545   .text.i2c_interrupt_flag_clear:0000000000000000 .L0 
C:\Users\CYMR90~1\AppData\Local\Temp\ccZoYVSv.s:2546   .text.i2c_interrupt_flag_clear:0000000000000002 .L0 
C:\Users\CYMR90~1\AppData\Local\Temp\ccZoYVSv.s:2548   .text.i2c_interrupt_flag_clear:0000000000000004 .L0 
C:\Users\CYMR90~1\AppData\Local\Temp\ccZoYVSv.s:2550   .text.i2c_interrupt_flag_clear:0000000000000006 .L0 
C:\Users\CYMR90~1\AppData\Local\Temp\ccZoYVSv.s:2554   .text.i2c_interrupt_flag_clear:000000000000000e .L0 
C:\Users\CYMR90~1\AppData\Local\Temp\ccZoYVSv.s:2558   .text.i2c_interrupt_flag_clear:0000000000000016 .L0 
C:\Users\CYMR90~1\AppData\Local\Temp\ccZoYVSv.s:2564   .text.i2c_interrupt_flag_clear:0000000000000024 .L0 
C:\Users\CYMR90~1\AppData\Local\Temp\ccZoYVSv.s:2569   .text.i2c_interrupt_flag_clear:000000000000002e .L0 
C:\Users\CYMR90~1\AppData\Local\Temp\ccZoYVSv.s:2571   .text.i2c_interrupt_flag_clear:0000000000000032 .L0 
C:\Users\CYMR90~1\AppData\Local\Temp\ccZoYVSv.s:2572   .text.i2c_interrupt_flag_clear:0000000000000032 .L0 
C:\Users\CYMR90~1\AppData\Local\Temp\ccZoYVSv.s:2574   .text.i2c_interrupt_flag_clear:0000000000000034 .L0 
C:\Users\CYMR90~1\AppData\Local\Temp\ccZoYVSv.s:2576   .text.i2c_interrupt_flag_clear:0000000000000036 .L0 
C:\Users\CYMR90~1\AppData\Local\Temp\ccZoYVSv.s:74     .text.i2c_deinit:0000000000000074 .L0 
C:\Users\CYMR90~1\AppData\Local\Temp\ccZoYVSv.s:170    .text.i2c_timing_config:00000000000000bc .L0 
C:\Users\CYMR90~1\AppData\Local\Temp\ccZoYVSv.s:215    .text.i2c_digital_noise_filter_config:0000000000000040 .L0 
C:\Users\CYMR90~1\AppData\Local\Temp\ccZoYVSv.s:249    .text.i2c_analog_noise_filter_enable:0000000000000024 .L0 
C:\Users\CYMR90~1\AppData\Local\Temp\ccZoYVSv.s:282    .text.i2c_analog_noise_filter_disable:0000000000000022 .L0 
C:\Users\CYMR90~1\AppData\Local\Temp\ccZoYVSv.s:354    .text.i2c_master_clock_config:0000000000000082 .L0 
C:\Users\CYMR90~1\AppData\Local\Temp\ccZoYVSv.s:418    .text.i2c_master_addressing:0000000000000072 .L0 
C:\Users\CYMR90~1\AppData\Local\Temp\ccZoYVSv.s:454    .text.i2c_address10_header_enable:0000000000000028 .L0 
C:\Users\CYMR90~1\AppData\Local\Temp\ccZoYVSv.s:491    .text.i2c_address10_header_disable:000000000000002a .L0 
C:\Users\CYMR90~1\AppData\Local\Temp\ccZoYVSv.s:528    .text.i2c_address10_enable:000000000000002c .L0 
C:\Users\CYMR90~1\AppData\Local\Temp\ccZoYVSv.s:565    .text.i2c_address10_disable:000000000000002c .L0 
C:\Users\CYMR90~1\AppData\Local\Temp\ccZoYVSv.s:601    .text.i2c_automatic_end_enable:000000000000002a .L0 
C:\Users\CYMR90~1\AppData\Local\Temp\ccZoYVSv.s:638    .text.i2c_automatic_end_disable:000000000000002c .L0 
C:\Users\CYMR90~1\AppData\Local\Temp\ccZoYVSv.s:671    .text.i2c_slave_response_to_gcall_enable:0000000000000024 .L0 
C:\Users\CYMR90~1\AppData\Local\Temp\ccZoYVSv.s:705    .text.i2c_slave_response_to_gcall_disable:0000000000000026 .L0 
C:\Users\CYMR90~1\AppData\Local\Temp\ccZoYVSv.s:739    .text.i2c_stretch_scl_low_enable:0000000000000024 .L0 
C:\Users\CYMR90~1\AppData\Local\Temp\ccZoYVSv.s:772    .text.i2c_stretch_scl_low_disable:0000000000000024 .L0 
C:\Users\CYMR90~1\AppData\Local\Temp\ccZoYVSv.s:824    .text.i2c_address_config:0000000000000050 .L0 
C:\Users\CYMR90~1\AppData\Local\Temp\ccZoYVSv.s:872    .text.i2c_address_bit_compare_config:0000000000000050 .L0 
C:\Users\CYMR90~1\AppData\Local\Temp\ccZoYVSv.s:909    .text.i2c_address_disable:000000000000002a .L0 
C:\Users\CYMR90~1\AppData\Local\Temp\ccZoYVSv.s:981    .text.i2c_second_address_config:0000000000000080 .L0 
C:\Users\CYMR90~1\AppData\Local\Temp\ccZoYVSv.s:1018   .text.i2c_second_address_disable:000000000000002a .L0 
C:\Users\CYMR90~1\AppData\Local\Temp\ccZoYVSv.s:1051   .text.i2c_recevied_address_get:0000000000000020 .L0 
C:\Users\CYMR90~1\AppData\Local\Temp\ccZoYVSv.s:1084   .text.i2c_slave_byte_control_enable:0000000000000022 .L0 
C:\Users\CYMR90~1\AppData\Local\Temp\ccZoYVSv.s:1118   .text.i2c_slave_byte_control_disable:0000000000000024 .L0 
C:\Users\CYMR90~1\AppData\Local\Temp\ccZoYVSv.s:1154   .text.i2c_nack_enable:0000000000000028 .L0 
C:\Users\CYMR90~1\AppData\Local\Temp\ccZoYVSv.s:1191   .text.i2c_nack_disable:000000000000002a .L0 
C:\Users\CYMR90~1\AppData\Local\Temp\ccZoYVSv.s:1224   .text.i2c_wakeup_from_deepsleep_enable:0000000000000024 .L0 
C:\Users\CYMR90~1\AppData\Local\Temp\ccZoYVSv.s:1258   .text.i2c_wakeup_from_deepsleep_disable:0000000000000026 .L0 
C:\Users\CYMR90~1\AppData\Local\Temp\ccZoYVSv.s:1290   .text.i2c_enable:0000000000000022 .L0 
C:\Users\CYMR90~1\AppData\Local\Temp\ccZoYVSv.s:1322   .text.i2c_disable:0000000000000020 .L0 
C:\Users\CYMR90~1\AppData\Local\Temp\ccZoYVSv.s:1358   .text.i2c_start_on_bus:0000000000000028 .L0 
C:\Users\CYMR90~1\AppData\Local\Temp\ccZoYVSv.s:1394   .text.i2c_stop_on_bus:0000000000000028 .L0 
C:\Users\CYMR90~1\AppData\Local\Temp\ccZoYVSv.s:1430   .text.i2c_data_transmit:000000000000002a .L0 
C:\Users\CYMR90~1\AppData\Local\Temp\ccZoYVSv.s:1462   .text.i2c_data_receive:0000000000000020 .L0 
C:\Users\CYMR90~1\AppData\Local\Temp\ccZoYVSv.s:1498   .text.i2c_reload_enable:000000000000002a .L0 
C:\Users\CYMR90~1\AppData\Local\Temp\ccZoYVSv.s:1535   .text.i2c_reload_disable:000000000000002c .L0 
C:\Users\CYMR90~1\AppData\Local\Temp\ccZoYVSv.s:1585   .text.i2c_transfer_byte_number_config:0000000000000048 .L0 
C:\Users\CYMR90~1\AppData\Local\Temp\ccZoYVSv.s:1634   .text.i2c_dma_enable:0000000000000040 .L0 
C:\Users\CYMR90~1\AppData\Local\Temp\ccZoYVSv.s:1685   .text.i2c_dma_disable:0000000000000044 .L0 
C:\Users\CYMR90~1\AppData\Local\Temp\ccZoYVSv.s:1721   .text.i2c_pec_transfer:000000000000002a .L0 
C:\Users\CYMR90~1\AppData\Local\Temp\ccZoYVSv.s:1754   .text.i2c_pec_enable:0000000000000024 .L0 
C:\Users\CYMR90~1\AppData\Local\Temp\ccZoYVSv.s:1788   .text.i2c_pec_disable:0000000000000026 .L0 
C:\Users\CYMR90~1\AppData\Local\Temp\ccZoYVSv.s:1820   .text.i2c_pec_value_get:0000000000000020 .L0 
C:\Users\CYMR90~1\AppData\Local\Temp\ccZoYVSv.s:1853   .text.i2c_smbus_alert_enable:0000000000000024 .L0 
C:\Users\CYMR90~1\AppData\Local\Temp\ccZoYVSv.s:1887   .text.i2c_smbus_alert_disable:0000000000000026 .L0 
C:\Users\CYMR90~1\AppData\Local\Temp\ccZoYVSv.s:1920   .text.i2c_smbus_default_addr_enable:0000000000000024 .L0 
C:\Users\CYMR90~1\AppData\Local\Temp\ccZoYVSv.s:1954   .text.i2c_smbus_default_addr_disable:0000000000000026 .L0 
C:\Users\CYMR90~1\AppData\Local\Temp\ccZoYVSv.s:1987   .text.i2c_smbus_host_addr_enable:0000000000000024 .L0 
C:\Users\CYMR90~1\AppData\Local\Temp\ccZoYVSv.s:2021   .text.i2c_smbus_host_addr_disable:0000000000000026 .L0 
C:\Users\CYMR90~1\AppData\Local\Temp\ccZoYVSv.s:2057   .text.i2c_extented_clock_timeout_enable:000000000000002a .L0 
C:\Users\CYMR90~1\AppData\Local\Temp\ccZoYVSv.s:2094   .text.i2c_extented_clock_timeout_disable:000000000000002e .L0 
C:\Users\CYMR90~1\AppData\Local\Temp\ccZoYVSv.s:2130   .text.i2c_clock_timeout_enable:0000000000000028 .L0 
C:\Users\CYMR90~1\AppData\Local\Temp\ccZoYVSv.s:2167   .text.i2c_clock_timeout_disable:000000000000002a .L0 
C:\Users\CYMR90~1\AppData\Local\Temp\ccZoYVSv.s:2217   .text.i2c_bus_timeout_b_config:0000000000000048 .L0 
C:\Users\CYMR90~1\AppData\Local\Temp\ccZoYVSv.s:2264   .text.i2c_bus_timeout_a_config:0000000000000044 .L0 
C:\Users\CYMR90~1\AppData\Local\Temp\ccZoYVSv.s:2312   .text.i2c_idle_clock_timeout_config:0000000000000046 .L0 
C:\Users\CYMR90~1\AppData\Local\Temp\ccZoYVSv.s:2355   .text.i2c_flag_get:000000000000002c .L0 
C:\Users\CYMR90~1\AppData\Local\Temp\ccZoYVSv.s:2392   .text.i2c_flag_clear:000000000000002e .L0 
C:\Users\CYMR90~1\AppData\Local\Temp\ccZoYVSv.s:2426   .text.i2c_interrupt_enable:0000000000000028 .L0 
C:\Users\CYMR90~1\AppData\Local\Temp\ccZoYVSv.s:2463   .text.i2c_interrupt_disable:000000000000002c .L0 
C:\Users\CYMR90~1\AppData\Local\Temp\ccZoYVSv.s:2537   .text.i2c_interrupt_flag_get:0000000000000078 .L0 
C:\Users\CYMR90~1\AppData\Local\Temp\ccZoYVSv.s:2579   .text.i2c_interrupt_flag_clear:0000000000000036 .L0 
                     .debug_frame:0000000000000000 .L0 
C:\Users\CYMR90~1\AppData\Local\Temp\ccZoYVSv.s:38     .text.i2c_deinit:000000000000002e .L2
C:\Users\CYMR90~1\AppData\Local\Temp\ccZoYVSv.s:49     .text.i2c_deinit:000000000000004c .L3
C:\Users\CYMR90~1\AppData\Local\Temp\ccZoYVSv.s:60     .text.i2c_deinit:000000000000006a .L5
C:\Users\CYMR90~1\AppData\Local\Temp\ccZoYVSv.s:1614   .text.i2c_dma_enable:0000000000000028 .L46
C:\Users\CYMR90~1\AppData\Local\Temp\ccZoYVSv.s:1622   .text.i2c_dma_enable:0000000000000038 .L48
C:\Users\CYMR90~1\AppData\Local\Temp\ccZoYVSv.s:1664   .text.i2c_dma_disable:000000000000002a .L50
C:\Users\CYMR90~1\AppData\Local\Temp\ccZoYVSv.s:1673   .text.i2c_dma_disable:000000000000003c .L52
C:\Users\CYMR90~1\AppData\Local\Temp\ccZoYVSv.s:2340   .text.i2c_flag_get:0000000000000022 .L72
C:\Users\CYMR90~1\AppData\Local\Temp\ccZoYVSv.s:2343   .text.i2c_flag_get:0000000000000024 .L73
C:\Users\CYMR90~1\AppData\Local\Temp\ccZoYVSv.s:2522   .text.i2c_interrupt_flag_get:000000000000006e .L78
C:\Users\CYMR90~1\AppData\Local\Temp\ccZoYVSv.s:2525   .text.i2c_interrupt_flag_get:0000000000000070 .L79
C:\Users\CYMR90~1\AppData\Local\Temp\ccZoYVSv.s:4365   .debug_abbrev:0000000000000000 .Ldebug_abbrev0
C:\Users\CYMR90~1\AppData\Local\Temp\ccZoYVSv.s:25408  .debug_str:000000000000b165 .LASF5709
C:\Users\CYMR90~1\AppData\Local\Temp\ccZoYVSv.s:24840  .debug_str:0000000000008d27 .LASF5710
C:\Users\CYMR90~1\AppData\Local\Temp\ccZoYVSv.s:25714  .debug_str:000000000000c61c .LASF5711
C:\Users\CYMR90~1\AppData\Local\Temp\ccZoYVSv.s:4829   .debug_ranges:0000000000000000 .Ldebug_ranges0
C:\Users\CYMR90~1\AppData\Local\Temp\ccZoYVSv.s:22630  .debug_line:0000000000000000 .Ldebug_line0
C:\Users\CYMR90~1\AppData\Local\Temp\ccZoYVSv.s:4959   .debug_macro:0000000000000000 .Ldebug_macro0
C:\Users\CYMR90~1\AppData\Local\Temp\ccZoYVSv.s:34017  .debug_str:000000000002d60e .LASF5568
C:\Users\CYMR90~1\AppData\Local\Temp\ccZoYVSv.s:22648  .debug_str:0000000000000123 .LASF5569
C:\Users\CYMR90~1\AppData\Local\Temp\ccZoYVSv.s:23582  .debug_str:0000000000003ba2 .LASF5570
C:\Users\CYMR90~1\AppData\Local\Temp\ccZoYVSv.s:28805  .debug_str:0000000000018b82 .LASF5571
C:\Users\CYMR90~1\AppData\Local\Temp\ccZoYVSv.s:24880  .debug_str:0000000000009056 .LASF5576
C:\Users\CYMR90~1\AppData\Local\Temp\ccZoYVSv.s:28254  .debug_str:000000000001673c .LASF5572
C:\Users\CYMR90~1\AppData\Local\Temp\ccZoYVSv.s:30151  .debug_str:000000000001e463 .LASF5573
C:\Users\CYMR90~1\AppData\Local\Temp\ccZoYVSv.s:31815  .debug_str:0000000000024908 .LASF5574
C:\Users\CYMR90~1\AppData\Local\Temp\ccZoYVSv.s:30569  .debug_str:000000000001fd28 .LASF5575
C:\Users\CYMR90~1\AppData\Local\Temp\ccZoYVSv.s:27480  .debug_str:0000000000013718 .LASF5577
C:\Users\CYMR90~1\AppData\Local\Temp\ccZoYVSv.s:22768  .debug_str:0000000000000888 .LASF5578
C:\Users\CYMR90~1\AppData\Local\Temp\ccZoYVSv.s:32171  .debug_str:0000000000026279 .LASF5579
C:\Users\CYMR90~1\AppData\Local\Temp\ccZoYVSv.s:32727  .debug_str:000000000002857e .LASF855
C:\Users\CYMR90~1\AppData\Local\Temp\ccZoYVSv.s:31749  .debug_str:000000000002448c .LASF5580
C:\Users\CYMR90~1\AppData\Local\Temp\ccZoYVSv.s:32285  .debug_str:00000000000269a4 .LASF5581
C:\Users\CYMR90~1\AppData\Local\Temp\ccZoYVSv.s:31855  .debug_str:0000000000024bdd .LASF5582
C:\Users\CYMR90~1\AppData\Local\Temp\ccZoYVSv.s:25256  .debug_str:000000000000a71a .LASF5583
C:\Users\CYMR90~1\AppData\Local\Temp\ccZoYVSv.s:25420  .debug_str:000000000000b2b2 .LASF5584
C:\Users\CYMR90~1\AppData\Local\Temp\ccZoYVSv.s:33045  .debug_str:00000000000299e2 .LASF5585
C:\Users\CYMR90~1\AppData\Local\Temp\ccZoYVSv.s:30357  .debug_str:000000000001f085 .LASF5586
C:\Users\CYMR90~1\AppData\Local\Temp\ccZoYVSv.s:31209  .debug_str:000000000002249e .LASF5587
C:\Users\CYMR90~1\AppData\Local\Temp\ccZoYVSv.s:25128  .debug_str:0000000000009f2b .LASF5588
C:\Users\CYMR90~1\AppData\Local\Temp\ccZoYVSv.s:32463  .debug_str:0000000000027470 .LASF5589
C:\Users\CYMR90~1\AppData\Local\Temp\ccZoYVSv.s:33519  .debug_str:000000000002b590 .LASF5590
C:\Users\CYMR90~1\AppData\Local\Temp\ccZoYVSv.s:28164  .debug_str:00000000000161a4 .LASF5591
C:\Users\CYMR90~1\AppData\Local\Temp\ccZoYVSv.s:23430  .debug_str:0000000000003172 .LASF5592
C:\Users\CYMR90~1\AppData\Local\Temp\ccZoYVSv.s:26810  .debug_str:0000000000010b27 .LASF5593
C:\Users\CYMR90~1\AppData\Local\Temp\ccZoYVSv.s:32359  .debug_str:0000000000026dfe .LASF5594
C:\Users\CYMR90~1\AppData\Local\Temp\ccZoYVSv.s:24500  .debug_str:0000000000007642 .LASF5595
C:\Users\CYMR90~1\AppData\Local\Temp\ccZoYVSv.s:25758  .debug_str:000000000000c8e0 .LASF5596
C:\Users\CYMR90~1\AppData\Local\Temp\ccZoYVSv.s:33987  .debug_str:000000000002d3c1 .LASF5597
C:\Users\CYMR90~1\AppData\Local\Temp\ccZoYVSv.s:24294  .debug_str:00000000000068ba .LASF5598
C:\Users\CYMR90~1\AppData\Local\Temp\ccZoYVSv.s:32969  .debug_str:000000000002951d .LASF5599
C:\Users\CYMR90~1\AppData\Local\Temp\ccZoYVSv.s:32899  .debug_str:0000000000029171 .LASF5600
C:\Users\CYMR90~1\AppData\Local\Temp\ccZoYVSv.s:27724  .debug_str:0000000000014625 .LASF5601
C:\Users\CYMR90~1\AppData\Local\Temp\ccZoYVSv.s:23784  .debug_str:0000000000004926 .LASF5602
C:\Users\CYMR90~1\AppData\Local\Temp\ccZoYVSv.s:29247  .debug_str:000000000001a9c7 .LASF5603
C:\Users\CYMR90~1\AppData\Local\Temp\ccZoYVSv.s:26040  .debug_str:000000000000db33 .LASF5604
C:\Users\CYMR90~1\AppData\Local\Temp\ccZoYVSv.s:33829  .debug_str:000000000002c9a8 .LASF5605
C:\Users\CYMR90~1\AppData\Local\Temp\ccZoYVSv.s:28955  .debug_str:0000000000019657 .LASF5606
C:\Users\CYMR90~1\AppData\Local\Temp\ccZoYVSv.s:24522  .debug_str:0000000000007773 .LASF5607
C:\Users\CYMR90~1\AppData\Local\Temp\ccZoYVSv.s:23642  .debug_str:0000000000003f2f .LASF5608
C:\Users\CYMR90~1\AppData\Local\Temp\ccZoYVSv.s:31195  .debug_str:00000000000223c5 .LASF5609
C:\Users\CYMR90~1\AppData\Local\Temp\ccZoYVSv.s:23668  .debug_str:00000000000040f0 .LASF5610
C:\Users\CYMR90~1\AppData\Local\Temp\ccZoYVSv.s:31811  .debug_str:00000000000248de .LASF5611
C:\Users\CYMR90~1\AppData\Local\Temp\ccZoYVSv.s:25494  .debug_str:000000000000b6d0 .LASF5612
C:\Users\CYMR90~1\AppData\Local\Temp\ccZoYVSv.s:29437  .debug_str:000000000001b67e .LASF5613
C:\Users\CYMR90~1\AppData\Local\Temp\ccZoYVSv.s:25070  .debug_str:0000000000009b86 .LASF5614
C:\Users\CYMR90~1\AppData\Local\Temp\ccZoYVSv.s:25580  .debug_str:000000000000bcf5 .LASF5615
C:\Users\CYMR90~1\AppData\Local\Temp\ccZoYVSv.s:23474  .debug_str:0000000000003477 .LASF5616
C:\Users\CYMR90~1\AppData\Local\Temp\ccZoYVSv.s:31141  .debug_str:000000000002205c .LASF5617
C:\Users\CYMR90~1\AppData\Local\Temp\ccZoYVSv.s:23954  .debug_str:00000000000053f1 .LASF5618
C:\Users\CYMR90~1\AppData\Local\Temp\ccZoYVSv.s:25060  .debug_str:0000000000009b2a .LASF5619
C:\Users\CYMR90~1\AppData\Local\Temp\ccZoYVSv.s:33707  .debug_str:000000000002c187 .LASF5620
C:\Users\CYMR90~1\AppData\Local\Temp\ccZoYVSv.s:33229  .debug_str:000000000002a4bb .LASF5621
C:\Users\CYMR90~1\AppData\Local\Temp\ccZoYVSv.s:25410  .debug_str:000000000000b232 .LASF5622
C:\Users\CYMR90~1\AppData\Local\Temp\ccZoYVSv.s:33729  .debug_str:000000000002c2de .LASF5623
C:\Users\CYMR90~1\AppData\Local\Temp\ccZoYVSv.s:27868  .debug_str:0000000000014ef8 .LASF5624
C:\Users\CYMR90~1\AppData\Local\Temp\ccZoYVSv.s:32629  .debug_str:0000000000027f0c .LASF5625
C:\Users\CYMR90~1\AppData\Local\Temp\ccZoYVSv.s:27096  .debug_str:0000000000011d7d .LASF5626
C:\Users\CYMR90~1\AppData\Local\Temp\ccZoYVSv.s:28152  .debug_str:00000000000160b5 .LASF5627
C:\Users\CYMR90~1\AppData\Local\Temp\ccZoYVSv.s:24140  .debug_str:0000000000005f4d .LASF5632
C:\Users\CYMR90~1\AppData\Local\Temp\ccZoYVSv.s:2542   .text.i2c_interrupt_flag_clear:0000000000000000 .LFB409
C:\Users\CYMR90~1\AppData\Local\Temp\ccZoYVSv.s:2577   .text.i2c_interrupt_flag_clear:0000000000000036 .LFE409
C:\Users\CYMR90~1\AppData\Local\Temp\ccZoYVSv.s:32907  .debug_str:00000000000291c9 .LASF5628
C:\Users\CYMR90~1\AppData\Local\Temp\ccZoYVSv.s:27760  .debug_str:000000000001481a .LASF5629
C:\Users\CYMR90~1\AppData\Local\Temp\ccZoYVSv.s:29279  .debug_str:000000000001abaa .LASF5638
C:\Users\CYMR90~1\AppData\Local\Temp\ccZoYVSv.s:2468   .text.i2c_interrupt_flag_get:0000000000000000 .LFB408
C:\Users\CYMR90~1\AppData\Local\Temp\ccZoYVSv.s:2535   .text.i2c_interrupt_flag_get:0000000000000078 .LFE408
C:\Users\CYMR90~1\AppData\Local\Temp\ccZoYVSv.s:24416  .debug_str:00000000000070a3 .LASF5630
C:\Users\CYMR90~1\AppData\Local\Temp\ccZoYVSv.s:24418  .debug_str:00000000000070a8 .LASF5631
C:\Users\CYMR90~1\AppData\Local\Temp\ccZoYVSv.s:28413  .debug_str:00000000000173bc .LASF5633
C:\Users\CYMR90~1\AppData\Local\Temp\ccZoYVSv.s:2431   .text.i2c_interrupt_disable:0000000000000000 .LFB407
C:\Users\CYMR90~1\AppData\Local\Temp\ccZoYVSv.s:2461   .text.i2c_interrupt_disable:000000000000002c .LFE407
C:\Users\CYMR90~1\AppData\Local\Temp\ccZoYVSv.s:29377  .debug_str:000000000001b229 .LASF5634
C:\Users\CYMR90~1\AppData\Local\Temp\ccZoYVSv.s:25274  .debug_str:000000000000a7e8 .LASF5635
C:\Users\CYMR90~1\AppData\Local\Temp\ccZoYVSv.s:2397   .text.i2c_interrupt_enable:0000000000000000 .LFB406
C:\Users\CYMR90~1\AppData\Local\Temp\ccZoYVSv.s:2424   .text.i2c_interrupt_enable:0000000000000028 .LFE406
C:\Users\CYMR90~1\AppData\Local\Temp\ccZoYVSv.s:29019  .debug_str:00000000000199f7 .LASF5636
C:\Users\CYMR90~1\AppData\Local\Temp\ccZoYVSv.s:2360   .text.i2c_flag_clear:0000000000000000 .LFB405
C:\Users\CYMR90~1\AppData\Local\Temp\ccZoYVSv.s:2390   .text.i2c_flag_clear:000000000000002e .LFE405
C:\Users\CYMR90~1\AppData\Local\Temp\ccZoYVSv.s:25244  .debug_str:000000000000a65d .LASF5637
C:\Users\CYMR90~1\AppData\Local\Temp\ccZoYVSv.s:29767  .debug_str:000000000001c9e9 .LASF5639
C:\Users\CYMR90~1\AppData\Local\Temp\ccZoYVSv.s:2317   .text.i2c_flag_get:0000000000000000 .LFB404
C:\Users\CYMR90~1\AppData\Local\Temp\ccZoYVSv.s:2353   .text.i2c_flag_get:000000000000002c .LFE404
C:\Users\CYMR90~1\AppData\Local\Temp\ccZoYVSv.s:30013  .debug_str:000000000001dad6 .LASF5640
C:\Users\CYMR90~1\AppData\Local\Temp\ccZoYVSv.s:2269   .text.i2c_idle_clock_timeout_config:0000000000000000 .LFB403
C:\Users\CYMR90~1\AppData\Local\Temp\ccZoYVSv.s:2310   .text.i2c_idle_clock_timeout_config:0000000000000046 .LFE403
C:\Users\CYMR90~1\AppData\Local\Temp\ccZoYVSv.s:33485  .debug_str:000000000002b36f .LASF5641
C:\Users\CYMR90~1\AppData\Local\Temp\ccZoYVSv.s:23910  .debug_str:0000000000005160 .LASF5642
C:\Users\CYMR90~1\AppData\Local\Temp\ccZoYVSv.s:2222   .text.i2c_bus_timeout_a_config:0000000000000000 .LFB402
C:\Users\CYMR90~1\AppData\Local\Temp\ccZoYVSv.s:2262   .text.i2c_bus_timeout_a_config:0000000000000044 .LFE402
C:\Users\CYMR90~1\AppData\Local\Temp\ccZoYVSv.s:27084  .debug_str:0000000000011c36 .LASF5643
C:\Users\CYMR90~1\AppData\Local\Temp\ccZoYVSv.s:2172   .text.i2c_bus_timeout_b_config:0000000000000000 .LFB401
C:\Users\CYMR90~1\AppData\Local\Temp\ccZoYVSv.s:2215   .text.i2c_bus_timeout_b_config:0000000000000048 .LFE401
C:\Users\CYMR90~1\AppData\Local\Temp\ccZoYVSv.s:27172  .debug_str:0000000000012223 .LASF5644
C:\Users\CYMR90~1\AppData\Local\Temp\ccZoYVSv.s:2135   .text.i2c_clock_timeout_disable:0000000000000000 .LFB400
C:\Users\CYMR90~1\AppData\Local\Temp\ccZoYVSv.s:2165   .text.i2c_clock_timeout_disable:000000000000002a .LFE400
C:\Users\CYMR90~1\AppData\Local\Temp\ccZoYVSv.s:26442  .debug_str:000000000000f3b0 .LASF5645
C:\Users\CYMR90~1\AppData\Local\Temp\ccZoYVSv.s:2099   .text.i2c_clock_timeout_enable:0000000000000000 .LFB399
C:\Users\CYMR90~1\AppData\Local\Temp\ccZoYVSv.s:2128   .text.i2c_clock_timeout_enable:0000000000000028 .LFE399
C:\Users\CYMR90~1\AppData\Local\Temp\ccZoYVSv.s:23762  .debug_str:0000000000004751 .LASF5646
C:\Users\CYMR90~1\AppData\Local\Temp\ccZoYVSv.s:2062   .text.i2c_extented_clock_timeout_disable:0000000000000000 .LFB398
C:\Users\CYMR90~1\AppData\Local\Temp\ccZoYVSv.s:2092   .text.i2c_extented_clock_timeout_disable:000000000000002e .LFE398
C:\Users\CYMR90~1\AppData\Local\Temp\ccZoYVSv.s:32105  .debug_str:0000000000025d55 .LASF5647
C:\Users\CYMR90~1\AppData\Local\Temp\ccZoYVSv.s:2026   .text.i2c_extented_clock_timeout_enable:0000000000000000 .LFB397
C:\Users\CYMR90~1\AppData\Local\Temp\ccZoYVSv.s:2055   .text.i2c_extented_clock_timeout_enable:000000000000002a .LFE397
C:\Users\CYMR90~1\AppData\Local\Temp\ccZoYVSv.s:25402  .debug_str:000000000000b100 .LASF5648
C:\Users\CYMR90~1\AppData\Local\Temp\ccZoYVSv.s:1992   .text.i2c_smbus_host_addr_disable:0000000000000000 .LFB396
C:\Users\CYMR90~1\AppData\Local\Temp\ccZoYVSv.s:2019   .text.i2c_smbus_host_addr_disable:0000000000000026 .LFE396
C:\Users\CYMR90~1\AppData\Local\Temp\ccZoYVSv.s:26274  .debug_str:000000000000e9d5 .LASF5649
C:\Users\CYMR90~1\AppData\Local\Temp\ccZoYVSv.s:1959   .text.i2c_smbus_host_addr_enable:0000000000000000 .LFB395
C:\Users\CYMR90~1\AppData\Local\Temp\ccZoYVSv.s:1985   .text.i2c_smbus_host_addr_enable:0000000000000024 .LFE395
C:\Users\CYMR90~1\AppData\Local\Temp\ccZoYVSv.s:26648  .debug_str:00000000000100c7 .LASF5650
C:\Users\CYMR90~1\AppData\Local\Temp\ccZoYVSv.s:1925   .text.i2c_smbus_default_addr_disable:0000000000000000 .LFB394
C:\Users\CYMR90~1\AppData\Local\Temp\ccZoYVSv.s:1952   .text.i2c_smbus_default_addr_disable:0000000000000026 .LFE394
C:\Users\CYMR90~1\AppData\Local\Temp\ccZoYVSv.s:29693  .debug_str:000000000001c5c3 .LASF5651
C:\Users\CYMR90~1\AppData\Local\Temp\ccZoYVSv.s:1892   .text.i2c_smbus_default_addr_enable:0000000000000000 .LFB393
C:\Users\CYMR90~1\AppData\Local\Temp\ccZoYVSv.s:1918   .text.i2c_smbus_default_addr_enable:0000000000000024 .LFE393
C:\Users\CYMR90~1\AppData\Local\Temp\ccZoYVSv.s:33347  .debug_str:000000000002ab85 .LASF5652
C:\Users\CYMR90~1\AppData\Local\Temp\ccZoYVSv.s:1858   .text.i2c_smbus_alert_disable:0000000000000000 .LFB392
C:\Users\CYMR90~1\AppData\Local\Temp\ccZoYVSv.s:1885   .text.i2c_smbus_alert_disable:0000000000000026 .LFE392
C:\Users\CYMR90~1\AppData\Local\Temp\ccZoYVSv.s:29459  .debug_str:000000000001b7e2 .LASF5653
C:\Users\CYMR90~1\AppData\Local\Temp\ccZoYVSv.s:1825   .text.i2c_smbus_alert_enable:0000000000000000 .LFB391
C:\Users\CYMR90~1\AppData\Local\Temp\ccZoYVSv.s:1851   .text.i2c_smbus_alert_enable:0000000000000024 .LFE391
C:\Users\CYMR90~1\AppData\Local\Temp\ccZoYVSv.s:31097  .debug_str:0000000000021da2 .LASF5654
C:\Users\CYMR90~1\AppData\Local\Temp\ccZoYVSv.s:1793   .text.i2c_pec_value_get:0000000000000000 .LFB390
C:\Users\CYMR90~1\AppData\Local\Temp\ccZoYVSv.s:1818   .text.i2c_pec_value_get:0000000000000020 .LFE390
C:\Users\CYMR90~1\AppData\Local\Temp\ccZoYVSv.s:25752  .debug_str:000000000000c886 .LASF5655
C:\Users\CYMR90~1\AppData\Local\Temp\ccZoYVSv.s:1759   .text.i2c_pec_disable:0000000000000000 .LFB389
C:\Users\CYMR90~1\AppData\Local\Temp\ccZoYVSv.s:1786   .text.i2c_pec_disable:0000000000000026 .LFE389
C:\Users\CYMR90~1\AppData\Local\Temp\ccZoYVSv.s:29639  .debug_str:000000000001c28f .LASF5656
C:\Users\CYMR90~1\AppData\Local\Temp\ccZoYVSv.s:1726   .text.i2c_pec_enable:0000000000000000 .LFB388
C:\Users\CYMR90~1\AppData\Local\Temp\ccZoYVSv.s:1752   .text.i2c_pec_enable:0000000000000024 .LFE388
C:\Users\CYMR90~1\AppData\Local\Temp\ccZoYVSv.s:33997  .debug_str:000000000002d4ed .LASF5657
C:\Users\CYMR90~1\AppData\Local\Temp\ccZoYVSv.s:1690   .text.i2c_pec_transfer:0000000000000000 .LFB387
C:\Users\CYMR90~1\AppData\Local\Temp\ccZoYVSv.s:1719   .text.i2c_pec_transfer:000000000000002a .LFE387
C:\Users\CYMR90~1\AppData\Local\Temp\ccZoYVSv.s:23388  .debug_str:0000000000002ef5 .LASF5658
C:\Users\CYMR90~1\AppData\Local\Temp\ccZoYVSv.s:1639   .text.i2c_dma_disable:0000000000000000 .LFB386
C:\Users\CYMR90~1\AppData\Local\Temp\ccZoYVSv.s:1683   .text.i2c_dma_disable:0000000000000044 .LFE386
C:\Users\CYMR90~1\AppData\Local\Temp\ccZoYVSv.s:24720  .debug_str:0000000000008599 .LASF5659
C:\Users\CYMR90~1\AppData\Local\Temp\ccZoYVSv.s:1590   .text.i2c_dma_enable:0000000000000000 .LFB385
C:\Users\CYMR90~1\AppData\Local\Temp\ccZoYVSv.s:1632   .text.i2c_dma_enable:0000000000000040 .LFE385
C:\Users\CYMR90~1\AppData\Local\Temp\ccZoYVSv.s:33177  .debug_str:000000000002a17e .LASF5660
C:\Users\CYMR90~1\AppData\Local\Temp\ccZoYVSv.s:1540   .text.i2c_transfer_byte_number_config:0000000000000000 .LFB384
C:\Users\CYMR90~1\AppData\Local\Temp\ccZoYVSv.s:1583   .text.i2c_transfer_byte_number_config:0000000000000048 .LFE384
C:\Users\CYMR90~1\AppData\Local\Temp\ccZoYVSv.s:29923  .debug_str:000000000001d580 .LASF5661
C:\Users\CYMR90~1\AppData\Local\Temp\ccZoYVSv.s:29257  .debug_str:000000000001aa3e .LASF5662
C:\Users\CYMR90~1\AppData\Local\Temp\ccZoYVSv.s:1503   .text.i2c_reload_disable:0000000000000000 .LFB383
C:\Users\CYMR90~1\AppData\Local\Temp\ccZoYVSv.s:1533   .text.i2c_reload_disable:000000000000002c .LFE383
C:\Users\CYMR90~1\AppData\Local\Temp\ccZoYVSv.s:33137  .debug_str:0000000000029f84 .LASF5663
C:\Users\CYMR90~1\AppData\Local\Temp\ccZoYVSv.s:1467   .text.i2c_reload_enable:0000000000000000 .LFB382
C:\Users\CYMR90~1\AppData\Local\Temp\ccZoYVSv.s:1496   .text.i2c_reload_enable:000000000000002a .LFE382
C:\Users\CYMR90~1\AppData\Local\Temp\ccZoYVSv.s:29653  .debug_str:000000000001c352 .LASF5664
C:\Users\CYMR90~1\AppData\Local\Temp\ccZoYVSv.s:1435   .text.i2c_data_receive:0000000000000000 .LFB381
C:\Users\CYMR90~1\AppData\Local\Temp\ccZoYVSv.s:1460   .text.i2c_data_receive:0000000000000020 .LFE381
C:\Users\CYMR90~1\AppData\Local\Temp\ccZoYVSv.s:29171  .debug_str:000000000001a3fe .LASF5665
C:\Users\CYMR90~1\AppData\Local\Temp\ccZoYVSv.s:1399   .text.i2c_data_transmit:0000000000000000 .LFB380
C:\Users\CYMR90~1\AppData\Local\Temp\ccZoYVSv.s:1428   .text.i2c_data_transmit:000000000000002a .LFE380
C:\Users\CYMR90~1\AppData\Local\Temp\ccZoYVSv.s:33141  .debug_str:0000000000029fae .LASF5666
C:\Users\CYMR90~1\AppData\Local\Temp\ccZoYVSv.s:25456  .debug_str:000000000000b4d8 .LASF5667
C:\Users\CYMR90~1\AppData\Local\Temp\ccZoYVSv.s:1363   .text.i2c_stop_on_bus:0000000000000000 .LFB379
C:\Users\CYMR90~1\AppData\Local\Temp\ccZoYVSv.s:1392   .text.i2c_stop_on_bus:0000000000000028 .LFE379
C:\Users\CYMR90~1\AppData\Local\Temp\ccZoYVSv.s:30317  .debug_str:000000000001ee4e .LASF5668
C:\Users\CYMR90~1\AppData\Local\Temp\ccZoYVSv.s:1327   .text.i2c_start_on_bus:0000000000000000 .LFB378
C:\Users\CYMR90~1\AppData\Local\Temp\ccZoYVSv.s:1356   .text.i2c_start_on_bus:0000000000000028 .LFE378
C:\Users\CYMR90~1\AppData\Local\Temp\ccZoYVSv.s:32913  .debug_str:000000000002921c .LASF5669
C:\Users\CYMR90~1\AppData\Local\Temp\ccZoYVSv.s:1295   .text.i2c_disable:0000000000000000 .LFB377
C:\Users\CYMR90~1\AppData\Local\Temp\ccZoYVSv.s:1320   .text.i2c_disable:0000000000000020 .LFE377
C:\Users\CYMR90~1\AppData\Local\Temp\ccZoYVSv.s:31287  .debug_str:000000000002292f .LASF5670
C:\Users\CYMR90~1\AppData\Local\Temp\ccZoYVSv.s:1263   .text.i2c_enable:0000000000000000 .LFB376
C:\Users\CYMR90~1\AppData\Local\Temp\ccZoYVSv.s:1288   .text.i2c_enable:0000000000000022 .LFE376
C:\Users\CYMR90~1\AppData\Local\Temp\ccZoYVSv.s:26084  .debug_str:000000000000dde4 .LASF5671
C:\Users\CYMR90~1\AppData\Local\Temp\ccZoYVSv.s:1229   .text.i2c_wakeup_from_deepsleep_disable:0000000000000000 .LFB375
C:\Users\CYMR90~1\AppData\Local\Temp\ccZoYVSv.s:1256   .text.i2c_wakeup_from_deepsleep_disable:0000000000000026 .LFE375
C:\Users\CYMR90~1\AppData\Local\Temp\ccZoYVSv.s:25592  .debug_str:000000000000bd90 .LASF5672
C:\Users\CYMR90~1\AppData\Local\Temp\ccZoYVSv.s:1196   .text.i2c_wakeup_from_deepsleep_enable:0000000000000000 .LFB374
C:\Users\CYMR90~1\AppData\Local\Temp\ccZoYVSv.s:1222   .text.i2c_wakeup_from_deepsleep_enable:0000000000000024 .LFE374
C:\Users\CYMR90~1\AppData\Local\Temp\ccZoYVSv.s:23124  .debug_str:0000000000001ea2 .LASF5673
C:\Users\CYMR90~1\AppData\Local\Temp\ccZoYVSv.s:1159   .text.i2c_nack_disable:0000000000000000 .LFB373
C:\Users\CYMR90~1\AppData\Local\Temp\ccZoYVSv.s:1189   .text.i2c_nack_disable:000000000000002a .LFE373
C:\Users\CYMR90~1\AppData\Local\Temp\ccZoYVSv.s:24988  .debug_str:000000000000964d .LASF5674
C:\Users\CYMR90~1\AppData\Local\Temp\ccZoYVSv.s:1123   .text.i2c_nack_enable:0000000000000000 .LFB372
C:\Users\CYMR90~1\AppData\Local\Temp\ccZoYVSv.s:1152   .text.i2c_nack_enable:0000000000000028 .LFE372
C:\Users\CYMR90~1\AppData\Local\Temp\ccZoYVSv.s:26688  .debug_str:0000000000010343 .LASF5675
C:\Users\CYMR90~1\AppData\Local\Temp\ccZoYVSv.s:1089   .text.i2c_slave_byte_control_disable:0000000000000000 .LFB371
C:\Users\CYMR90~1\AppData\Local\Temp\ccZoYVSv.s:1116   .text.i2c_slave_byte_control_disable:0000000000000024 .LFE371
C:\Users\CYMR90~1\AppData\Local\Temp\ccZoYVSv.s:25334  .debug_str:000000000000ac54 .LASF5676
C:\Users\CYMR90~1\AppData\Local\Temp\ccZoYVSv.s:1056   .text.i2c_slave_byte_control_enable:0000000000000000 .LFB370
C:\Users\CYMR90~1\AppData\Local\Temp\ccZoYVSv.s:1082   .text.i2c_slave_byte_control_enable:0000000000000022 .LFE370
C:\Users\CYMR90~1\AppData\Local\Temp\ccZoYVSv.s:25472  .debug_str:000000000000b5b9 .LASF5677
C:\Users\CYMR90~1\AppData\Local\Temp\ccZoYVSv.s:1023   .text.i2c_recevied_address_get:0000000000000000 .LFB369
C:\Users\CYMR90~1\AppData\Local\Temp\ccZoYVSv.s:1049   .text.i2c_recevied_address_get:0000000000000020 .LFE369
C:\Users\CYMR90~1\AppData\Local\Temp\ccZoYVSv.s:32289  .debug_str:00000000000269c2 .LASF5678
C:\Users\CYMR90~1\AppData\Local\Temp\ccZoYVSv.s:986    .text.i2c_second_address_disable:0000000000000000 .LFB368
C:\Users\CYMR90~1\AppData\Local\Temp\ccZoYVSv.s:1016   .text.i2c_second_address_disable:000000000000002a .LFE368
C:\Users\CYMR90~1\AppData\Local\Temp\ccZoYVSv.s:25848  .debug_str:000000000000ce9d .LASF5679
C:\Users\CYMR90~1\AppData\Local\Temp\ccZoYVSv.s:914    .text.i2c_second_address_config:0000000000000000 .LFB367
C:\Users\CYMR90~1\AppData\Local\Temp\ccZoYVSv.s:979    .text.i2c_second_address_config:0000000000000080 .LFE367
C:\Users\CYMR90~1\AppData\Local\Temp\ccZoYVSv.s:27992  .debug_str:00000000000156ed .LASF5680
C:\Users\CYMR90~1\AppData\Local\Temp\ccZoYVSv.s:33423  .debug_str:000000000002b010 .LASF5681
C:\Users\CYMR90~1\AppData\Local\Temp\ccZoYVSv.s:23114  .debug_str:0000000000001e07 .LASF5682
C:\Users\CYMR90~1\AppData\Local\Temp\ccZoYVSv.s:877    .text.i2c_address_disable:0000000000000000 .LFB366
C:\Users\CYMR90~1\AppData\Local\Temp\ccZoYVSv.s:907    .text.i2c_address_disable:000000000000002a .LFE366
C:\Users\CYMR90~1\AppData\Local\Temp\ccZoYVSv.s:31765  .debug_str:0000000000024574 .LASF5683
C:\Users\CYMR90~1\AppData\Local\Temp\ccZoYVSv.s:829    .text.i2c_address_bit_compare_config:0000000000000000 .LFB365
C:\Users\CYMR90~1\AppData\Local\Temp\ccZoYVSv.s:870    .text.i2c_address_bit_compare_config:0000000000000050 .LFE365
C:\Users\CYMR90~1\AppData\Local\Temp\ccZoYVSv.s:23706  .debug_str:00000000000043a2 .LASF5684
C:\Users\CYMR90~1\AppData\Local\Temp\ccZoYVSv.s:30741  .debug_str:00000000000207c5 .LASF5685
C:\Users\CYMR90~1\AppData\Local\Temp\ccZoYVSv.s:777    .text.i2c_address_config:0000000000000000 .LFB364
C:\Users\CYMR90~1\AppData\Local\Temp\ccZoYVSv.s:822    .text.i2c_address_config:0000000000000050 .LFE364
C:\Users\CYMR90~1\AppData\Local\Temp\ccZoYVSv.s:28417  .debug_str:00000000000173e4 .LASF5686
C:\Users\CYMR90~1\AppData\Local\Temp\ccZoYVSv.s:24282  .debug_str:00000000000067ed .LASF5687
C:\Users\CYMR90~1\AppData\Local\Temp\ccZoYVSv.s:744    .text.i2c_stretch_scl_low_disable:0000000000000000 .LFB363
C:\Users\CYMR90~1\AppData\Local\Temp\ccZoYVSv.s:770    .text.i2c_stretch_scl_low_disable:0000000000000024 .LFE363
C:\Users\CYMR90~1\AppData\Local\Temp\ccZoYVSv.s:33561  .debug_str:000000000002b7c1 .LASF5688
C:\Users\CYMR90~1\AppData\Local\Temp\ccZoYVSv.s:710    .text.i2c_stretch_scl_low_enable:0000000000000000 .LFB362
C:\Users\CYMR90~1\AppData\Local\Temp\ccZoYVSv.s:737    .text.i2c_stretch_scl_low_enable:0000000000000024 .LFE362
C:\Users\CYMR90~1\AppData\Local\Temp\ccZoYVSv.s:28839  .debug_str:0000000000018daf .LASF5689
C:\Users\CYMR90~1\AppData\Local\Temp\ccZoYVSv.s:676    .text.i2c_slave_response_to_gcall_disable:0000000000000000 .LFB361
C:\Users\CYMR90~1\AppData\Local\Temp\ccZoYVSv.s:703    .text.i2c_slave_response_to_gcall_disable:0000000000000026 .LFE361
C:\Users\CYMR90~1\AppData\Local\Temp\ccZoYVSv.s:26664  .debug_str:00000000000101f9 .LASF5690
C:\Users\CYMR90~1\AppData\Local\Temp\ccZoYVSv.s:643    .text.i2c_slave_response_to_gcall_enable:0000000000000000 .LFB360
C:\Users\CYMR90~1\AppData\Local\Temp\ccZoYVSv.s:669    .text.i2c_slave_response_to_gcall_enable:0000000000000024 .LFE360
C:\Users\CYMR90~1\AppData\Local\Temp\ccZoYVSv.s:28262  .debug_str:000000000001679d .LASF5691
C:\Users\CYMR90~1\AppData\Local\Temp\ccZoYVSv.s:606    .text.i2c_automatic_end_disable:0000000000000000 .LFB359
C:\Users\CYMR90~1\AppData\Local\Temp\ccZoYVSv.s:636    .text.i2c_automatic_end_disable:000000000000002c .LFE359
C:\Users\CYMR90~1\AppData\Local\Temp\ccZoYVSv.s:31245  .debug_str:0000000000022695 .LASF5692
C:\Users\CYMR90~1\AppData\Local\Temp\ccZoYVSv.s:570    .text.i2c_automatic_end_enable:0000000000000000 .LFB358
C:\Users\CYMR90~1\AppData\Local\Temp\ccZoYVSv.s:599    .text.i2c_automatic_end_enable:000000000000002a .LFE358
C:\Users\CYMR90~1\AppData\Local\Temp\ccZoYVSv.s:29473  .debug_str:000000000001b8a1 .LASF5693
C:\Users\CYMR90~1\AppData\Local\Temp\ccZoYVSv.s:533    .text.i2c_address10_disable:0000000000000000 .LFB357
C:\Users\CYMR90~1\AppData\Local\Temp\ccZoYVSv.s:563    .text.i2c_address10_disable:000000000000002c .LFE357
C:\Users\CYMR90~1\AppData\Local\Temp\ccZoYVSv.s:33009  .debug_str:00000000000297a1 .LASF5694
C:\Users\CYMR90~1\AppData\Local\Temp\ccZoYVSv.s:496    .text.i2c_address10_enable:0000000000000000 .LFB356
C:\Users\CYMR90~1\AppData\Local\Temp\ccZoYVSv.s:526    .text.i2c_address10_enable:000000000000002c .LFE356
C:\Users\CYMR90~1\AppData\Local\Temp\ccZoYVSv.s:32949  .debug_str:0000000000029408 .LASF5695
C:\Users\CYMR90~1\AppData\Local\Temp\ccZoYVSv.s:459    .text.i2c_address10_header_disable:0000000000000000 .LFB355
C:\Users\CYMR90~1\AppData\Local\Temp\ccZoYVSv.s:489    .text.i2c_address10_header_disable:000000000000002a .LFE355
C:\Users\CYMR90~1\AppData\Local\Temp\ccZoYVSv.s:33197  .debug_str:000000000002a2ba .LASF5696
C:\Users\CYMR90~1\AppData\Local\Temp\ccZoYVSv.s:423    .text.i2c_address10_header_enable:0000000000000000 .LFB354
C:\Users\CYMR90~1\AppData\Local\Temp\ccZoYVSv.s:452    .text.i2c_address10_header_enable:0000000000000028 .LFE354
C:\Users\CYMR90~1\AppData\Local\Temp\ccZoYVSv.s:27276  .debug_str:00000000000128f5 .LASF5697
C:\Users\CYMR90~1\AppData\Local\Temp\ccZoYVSv.s:359    .text.i2c_master_addressing:0000000000000000 .LFB353
C:\Users\CYMR90~1\AppData\Local\Temp\ccZoYVSv.s:416    .text.i2c_master_addressing:0000000000000072 .LFE353
C:\Users\CYMR90~1\AppData\Local\Temp\ccZoYVSv.s:23350  .debug_str:0000000000002cb1 .LASF5698
C:\Users\CYMR90~1\AppData\Local\Temp\ccZoYVSv.s:26326  .debug_str:000000000000ed23 .LASF5699
C:\Users\CYMR90~1\AppData\Local\Temp\ccZoYVSv.s:287    .text.i2c_master_clock_config:0000000000000000 .LFB352
C:\Users\CYMR90~1\AppData\Local\Temp\ccZoYVSv.s:352    .text.i2c_master_clock_config:0000000000000082 .LFE352
C:\Users\CYMR90~1\AppData\Local\Temp\ccZoYVSv.s:30857  .debug_str:0000000000020ef4 .LASF5700
C:\Users\CYMR90~1\AppData\Local\Temp\ccZoYVSv.s:30865  .debug_str:0000000000020f48 .LASF5701
C:\Users\CYMR90~1\AppData\Local\Temp\ccZoYVSv.s:28691  .debug_str:000000000001846b .LASF5702
C:\Users\CYMR90~1\AppData\Local\Temp\ccZoYVSv.s:254    .text.i2c_analog_noise_filter_disable:0000000000000000 .LFB351
C:\Users\CYMR90~1\AppData\Local\Temp\ccZoYVSv.s:280    .text.i2c_analog_noise_filter_disable:0000000000000022 .LFE351
C:\Users\CYMR90~1\AppData\Local\Temp\ccZoYVSv.s:28300  .debug_str:0000000000016a43 .LASF5703
C:\Users\CYMR90~1\AppData\Local\Temp\ccZoYVSv.s:220    .text.i2c_analog_noise_filter_enable:0000000000000000 .LFB350
C:\Users\CYMR90~1\AppData\Local\Temp\ccZoYVSv.s:247    .text.i2c_analog_noise_filter_enable:0000000000000024 .LFE350
C:\Users\CYMR90~1\AppData\Local\Temp\ccZoYVSv.s:26380  .debug_str:000000000000f047 .LASF5704
C:\Users\CYMR90~1\AppData\Local\Temp\ccZoYVSv.s:175    .text.i2c_digital_noise_filter_config:0000000000000000 .LFB349
C:\Users\CYMR90~1\AppData\Local\Temp\ccZoYVSv.s:213    .text.i2c_digital_noise_filter_config:0000000000000040 .LFE349
C:\Users\CYMR90~1\AppData\Local\Temp\ccZoYVSv.s:32059  .debug_str:00000000000259b1 .LASF5705
C:\Users\CYMR90~1\AppData\Local\Temp\ccZoYVSv.s:27038  .debug_str:00000000000118ca .LASF5706
C:\Users\CYMR90~1\AppData\Local\Temp\ccZoYVSv.s:79     .text.i2c_timing_config:0000000000000000 .LFB348
C:\Users\CYMR90~1\AppData\Local\Temp\ccZoYVSv.s:168    .text.i2c_timing_config:00000000000000bc .LFE348
C:\Users\CYMR90~1\AppData\Local\Temp\ccZoYVSv.s:22792  .debug_str:00000000000009eb .LASF5707
C:\Users\CYMR90~1\AppData\Local\Temp\ccZoYVSv.s:33361  .debug_str:000000000002ac4b .LASF5708
C:\Users\CYMR90~1\AppData\Local\Temp\ccZoYVSv.s:26842  .debug_str:0000000000010ccb .LASF5712
C:\Users\CYMR90~1\AppData\Local\Temp\ccZoYVSv.s:14     .text.i2c_deinit:0000000000000000 .LFB347
C:\Users\CYMR90~1\AppData\Local\Temp\ccZoYVSv.s:72     .text.i2c_deinit:0000000000000074 .LFE347
C:\Users\CYMR90~1\AppData\Local\Temp\ccZoYVSv.s:2587   .debug_info:0000000000000000 .Ldebug_info0
C:\Users\CYMR90~1\AppData\Local\Temp\ccZoYVSv.s:5615   .debug_macro:0000000000000000 .Ldebug_macro2
C:\Users\CYMR90~1\AppData\Local\Temp\ccZoYVSv.s:24838  .debug_str:0000000000008d16 .LASF314
C:\Users\CYMR90~1\AppData\Local\Temp\ccZoYVSv.s:31881  .debug_str:0000000000024d75 .LASF315
C:\Users\CYMR90~1\AppData\Local\Temp\ccZoYVSv.s:6562   .debug_macro:0000000000000000 .Ldebug_macro3
C:\Users\CYMR90~1\AppData\Local\Temp\ccZoYVSv.s:24832  .debug_str:0000000000008caa .LASF369
C:\Users\CYMR90~1\AppData\Local\Temp\ccZoYVSv.s:24402  .debug_str:0000000000006fb9 .LASF370
C:\Users\CYMR90~1\AppData\Local\Temp\ccZoYVSv.s:28679  .debug_str:00000000000183cb .LASF371
C:\Users\CYMR90~1\AppData\Local\Temp\ccZoYVSv.s:6726   .debug_macro:0000000000000000 .Ldebug_macro4
C:\Users\CYMR90~1\AppData\Local\Temp\ccZoYVSv.s:6746   .debug_macro:0000000000000000 .Ldebug_macro5
C:\Users\CYMR90~1\AppData\Local\Temp\ccZoYVSv.s:27322  .debug_str:0000000000012c13 .LASF390
C:\Users\CYMR90~1\AppData\Local\Temp\ccZoYVSv.s:6790   .debug_macro:0000000000000000 .Ldebug_macro6
C:\Users\CYMR90~1\AppData\Local\Temp\ccZoYVSv.s:6804   .debug_macro:0000000000000000 .Ldebug_macro7
C:\Users\CYMR90~1\AppData\Local\Temp\ccZoYVSv.s:6872   .debug_macro:0000000000000000 .Ldebug_macro8
C:\Users\CYMR90~1\AppData\Local\Temp\ccZoYVSv.s:6898   .debug_macro:0000000000000000 .Ldebug_macro9
C:\Users\CYMR90~1\AppData\Local\Temp\ccZoYVSv.s:6927   .debug_macro:0000000000000000 .Ldebug_macro10
C:\Users\CYMR90~1\AppData\Local\Temp\ccZoYVSv.s:28817  .debug_str:0000000000018c36 .LASF433
C:\Users\CYMR90~1\AppData\Local\Temp\ccZoYVSv.s:6941   .debug_macro:0000000000000000 .Ldebug_macro11
C:\Users\CYMR90~1\AppData\Local\Temp\ccZoYVSv.s:6985   .debug_macro:0000000000000000 .Ldebug_macro12
C:\Users\CYMR90~1\AppData\Local\Temp\ccZoYVSv.s:7011   .debug_macro:0000000000000000 .Ldebug_macro13
C:\Users\CYMR90~1\AppData\Local\Temp\ccZoYVSv.s:32453  .debug_str:00000000000273ee .LASF569
C:\Users\CYMR90~1\AppData\Local\Temp\ccZoYVSv.s:7382   .debug_macro:0000000000000000 .Ldebug_macro14
C:\Users\CYMR90~1\AppData\Local\Temp\ccZoYVSv.s:26838  .debug_str:0000000000010cab .LASF572
C:\Users\CYMR90~1\AppData\Local\Temp\ccZoYVSv.s:31777  .debug_str:000000000002462f .LASF573
C:\Users\CYMR90~1\AppData\Local\Temp\ccZoYVSv.s:7393   .debug_macro:0000000000000000 .Ldebug_macro15
C:\Users\CYMR90~1\AppData\Local\Temp\ccZoYVSv.s:7407   .debug_macro:0000000000000000 .Ldebug_macro16
C:\Users\CYMR90~1\AppData\Local\Temp\ccZoYVSv.s:33589  .debug_str:000000000002b9cf .LASF578
C:\Users\CYMR90~1\AppData\Local\Temp\ccZoYVSv.s:7439   .debug_macro:0000000000000000 .Ldebug_macro17
C:\Users\CYMR90~1\AppData\Local\Temp\ccZoYVSv.s:7465   .debug_macro:0000000000000000 .Ldebug_macro18
C:\Users\CYMR90~1\AppData\Local\Temp\ccZoYVSv.s:7476   .debug_macro:0000000000000000 .Ldebug_macro19
C:\Users\CYMR90~1\AppData\Local\Temp\ccZoYVSv.s:7520   .debug_macro:0000000000000000 .Ldebug_macro20
C:\Users\CYMR90~1\AppData\Local\Temp\ccZoYVSv.s:7690   .debug_macro:0000000000000000 .Ldebug_macro21
C:\Users\CYMR90~1\AppData\Local\Temp\ccZoYVSv.s:7701   .debug_macro:0000000000000000 .Ldebug_macro22
C:\Users\CYMR90~1\AppData\Local\Temp\ccZoYVSv.s:27328  .debug_str:0000000000012c6c .LASF675
C:\Users\CYMR90~1\AppData\Local\Temp\ccZoYVSv.s:7757   .debug_macro:0000000000000000 .Ldebug_macro23
C:\Users\CYMR90~1\AppData\Local\Temp\ccZoYVSv.s:7774   .debug_macro:0000000000000000 .Ldebug_macro24
C:\Users\CYMR90~1\AppData\Local\Temp\ccZoYVSv.s:30561  .debug_str:000000000001fcb8 .LASF693
C:\Users\CYMR90~1\AppData\Local\Temp\ccZoYVSv.s:25190  .debug_str:000000000000a31c .LASF694
C:\Users\CYMR90~1\AppData\Local\Temp\ccZoYVSv.s:7818   .debug_macro:0000000000000000 .Ldebug_macro25
C:\Users\CYMR90~1\AppData\Local\Temp\ccZoYVSv.s:23854  .debug_str:0000000000004df3 .LASF700
C:\Users\CYMR90~1\AppData\Local\Temp\ccZoYVSv.s:24968  .debug_str:0000000000009535 .LASF701
C:\Users\CYMR90~1\AppData\Local\Temp\ccZoYVSv.s:7838   .debug_macro:0000000000000000 .Ldebug_macro26
C:\Users\CYMR90~1\AppData\Local\Temp\ccZoYVSv.s:7849   .debug_macro:0000000000000000 .Ldebug_macro27
C:\Users\CYMR90~1\AppData\Local\Temp\ccZoYVSv.s:7893   .debug_macro:0000000000000000 .Ldebug_macro28
C:\Users\CYMR90~1\AppData\Local\Temp\ccZoYVSv.s:24226  .debug_str:00000000000064b2 .LASF749
C:\Users\CYMR90~1\AppData\Local\Temp\ccZoYVSv.s:7994   .debug_macro:0000000000000000 .Ldebug_macro29
C:\Users\CYMR90~1\AppData\Local\Temp\ccZoYVSv.s:8011   .debug_macro:0000000000000000 .Ldebug_macro30
C:\Users\CYMR90~1\AppData\Local\Temp\ccZoYVSv.s:22700  .debug_str:000000000000045f .LASF763
C:\Users\CYMR90~1\AppData\Local\Temp\ccZoYVSv.s:24044  .debug_str:0000000000005989 .LASF764
C:\Users\CYMR90~1\AppData\Local\Temp\ccZoYVSv.s:8043   .debug_macro:0000000000000000 .Ldebug_macro31
C:\Users\CYMR90~1\AppData\Local\Temp\ccZoYVSv.s:8057   .debug_macro:0000000000000000 .Ldebug_macro32
C:\Users\CYMR90~1\AppData\Local\Temp\ccZoYVSv.s:8227   .debug_macro:0000000000000000 .Ldebug_macro33
C:\Users\CYMR90~1\AppData\Local\Temp\ccZoYVSv.s:26504  .debug_str:000000000000f7b1 .LASF850
C:\Users\CYMR90~1\AppData\Local\Temp\ccZoYVSv.s:28903  .debug_str:0000000000019273 .LASF851
C:\Users\CYMR90~1\AppData\Local\Temp\ccZoYVSv.s:8313   .debug_macro:0000000000000000 .Ldebug_macro34
C:\Users\CYMR90~1\AppData\Local\Temp\ccZoYVSv.s:8438   .debug_macro:0000000000000000 .Ldebug_macro35
C:\Users\CYMR90~1\AppData\Local\Temp\ccZoYVSv.s:22990  .debug_str:0000000000001628 .LASF951
C:\Users\CYMR90~1\AppData\Local\Temp\ccZoYVSv.s:8650   .debug_macro:0000000000000000 .Ldebug_macro36
C:\Users\CYMR90~1\AppData\Local\Temp\ccZoYVSv.s:24726  .debug_str:000000000000860c .LASF957
C:\Users\CYMR90~1\AppData\Local\Temp\ccZoYVSv.s:24278  .debug_str:00000000000067c3 .LASF958
C:\Users\CYMR90~1\AppData\Local\Temp\ccZoYVSv.s:23160  .debug_str:00000000000020e1 .LASF959
C:\Users\CYMR90~1\AppData\Local\Temp\ccZoYVSv.s:8670   .debug_macro:0000000000000000 .Ldebug_macro37
C:\Users\CYMR90~1\AppData\Local\Temp\ccZoYVSv.s:8762   .debug_macro:0000000000000000 .Ldebug_macro38
C:\Users\CYMR90~1\AppData\Local\Temp\ccZoYVSv.s:10408  .debug_macro:0000000000000000 .Ldebug_macro39
C:\Users\CYMR90~1\AppData\Local\Temp\ccZoYVSv.s:10500  .debug_macro:0000000000000000 .Ldebug_macro40
C:\Users\CYMR90~1\AppData\Local\Temp\ccZoYVSv.s:10556  .debug_macro:0000000000000000 .Ldebug_macro41
C:\Users\CYMR90~1\AppData\Local\Temp\ccZoYVSv.s:10570  .debug_macro:0000000000000000 .Ldebug_macro42
C:\Users\CYMR90~1\AppData\Local\Temp\ccZoYVSv.s:28214  .debug_str:00000000000164f7 .LASF1655
C:\Users\CYMR90~1\AppData\Local\Temp\ccZoYVSv.s:25100  .debug_str:0000000000009d9c .LASF1656
C:\Users\CYMR90~1\AppData\Local\Temp\ccZoYVSv.s:10794  .debug_macro:0000000000000000 .Ldebug_macro43
C:\Users\CYMR90~1\AppData\Local\Temp\ccZoYVSv.s:10841  .debug_macro:0000000000000000 .Ldebug_macro44
C:\Users\CYMR90~1\AppData\Local\Temp\ccZoYVSv.s:10996  .debug_macro:0000000000000000 .Ldebug_macro45
C:\Users\CYMR90~1\AppData\Local\Temp\ccZoYVSv.s:11052  .debug_macro:0000000000000000 .Ldebug_macro46
C:\Users\CYMR90~1\AppData\Local\Temp\ccZoYVSv.s:11063  .debug_macro:0000000000000000 .Ldebug_macro47
C:\Users\CYMR90~1\AppData\Local\Temp\ccZoYVSv.s:33241  .debug_str:000000000002a584 .LASF1782
C:\Users\CYMR90~1\AppData\Local\Temp\ccZoYVSv.s:27974  .debug_str:000000000001561d .LASF1783
C:\Users\CYMR90~1\AppData\Local\Temp\ccZoYVSv.s:11194  .debug_macro:0000000000000000 .Ldebug_macro48
C:\Users\CYMR90~1\AppData\Local\Temp\ccZoYVSv.s:11766  .debug_macro:0000000000000000 .Ldebug_macro49
C:\Users\CYMR90~1\AppData\Local\Temp\ccZoYVSv.s:12053  .debug_macro:0000000000000000 .Ldebug_macro50
C:\Users\CYMR90~1\AppData\Local\Temp\ccZoYVSv.s:12082  .debug_macro:0000000000000000 .Ldebug_macro51
C:\Users\CYMR90~1\AppData\Local\Temp\ccZoYVSv.s:12159  .debug_macro:0000000000000000 .Ldebug_macro52
C:\Users\CYMR90~1\AppData\Local\Temp\ccZoYVSv.s:12692  .debug_macro:0000000000000000 .Ldebug_macro53
C:\Users\CYMR90~1\AppData\Local\Temp\ccZoYVSv.s:12715  .debug_macro:0000000000000000 .Ldebug_macro54
C:\Users\CYMR90~1\AppData\Local\Temp\ccZoYVSv.s:12981  .debug_macro:0000000000000000 .Ldebug_macro55
C:\Users\CYMR90~1\AppData\Local\Temp\ccZoYVSv.s:13460  .debug_macro:0000000000000000 .Ldebug_macro56
C:\Users\CYMR90~1\AppData\Local\Temp\ccZoYVSv.s:13789  .debug_macro:0000000000000000 .Ldebug_macro57
C:\Users\CYMR90~1\AppData\Local\Temp\ccZoYVSv.s:13878  .debug_macro:0000000000000000 .Ldebug_macro58
C:\Users\CYMR90~1\AppData\Local\Temp\ccZoYVSv.s:14693  .debug_macro:0000000000000000 .Ldebug_macro59
C:\Users\CYMR90~1\AppData\Local\Temp\ccZoYVSv.s:14884  .debug_macro:0000000000000000 .Ldebug_macro60
C:\Users\CYMR90~1\AppData\Local\Temp\ccZoYVSv.s:15030  .debug_macro:0000000000000000 .Ldebug_macro61
C:\Users\CYMR90~1\AppData\Local\Temp\ccZoYVSv.s:15560  .debug_macro:0000000000000000 .Ldebug_macro62
C:\Users\CYMR90~1\AppData\Local\Temp\ccZoYVSv.s:15982  .debug_macro:0000000000000000 .Ldebug_macro63
C:\Users\CYMR90~1\AppData\Local\Temp\ccZoYVSv.s:18756  .debug_macro:0000000000000000 .Ldebug_macro64
C:\Users\CYMR90~1\AppData\Local\Temp\ccZoYVSv.s:19832  .debug_macro:0000000000000000 .Ldebug_macro65
C:\Users\CYMR90~1\AppData\Local\Temp\ccZoYVSv.s:20101  .debug_macro:0000000000000000 .Ldebug_macro66
C:\Users\CYMR90~1\AppData\Local\Temp\ccZoYVSv.s:20373  .debug_macro:0000000000000000 .Ldebug_macro67
C:\Users\CYMR90~1\AppData\Local\Temp\ccZoYVSv.s:21401  .debug_macro:0000000000000000 .Ldebug_macro68
C:\Users\CYMR90~1\AppData\Local\Temp\ccZoYVSv.s:21445  .debug_macro:0000000000000000 .Ldebug_macro69
C:\Users\CYMR90~1\AppData\Local\Temp\ccZoYVSv.s:22071  .debug_macro:0000000000000000 .Ldebug_macro70
C:\Users\CYMR90~1\AppData\Local\Temp\ccZoYVSv.s:22130  .debug_macro:0000000000000000 .Ldebug_macro71
C:\Users\CYMR90~1\AppData\Local\Temp\ccZoYVSv.s:32309  .debug_str:0000000000026add .LASF5556
C:\Users\CYMR90~1\AppData\Local\Temp\ccZoYVSv.s:32045  .debug_str:000000000002584a .LASF5557
C:\Users\CYMR90~1\AppData\Local\Temp\ccZoYVSv.s:25686  .debug_str:000000000000c467 .LASF5558
C:\Users\CYMR90~1\AppData\Local\Temp\ccZoYVSv.s:30929  .debug_str:0000000000021349 .LASF5559
C:\Users\CYMR90~1\AppData\Local\Temp\ccZoYVSv.s:28949  .debug_str:00000000000195ee .LASF5560
C:\Users\CYMR90~1\AppData\Local\Temp\ccZoYVSv.s:30523  .debug_str:000000000001fa6f .LASF5561
C:\Users\CYMR90~1\AppData\Local\Temp\ccZoYVSv.s:25568  .debug_str:000000000000bc57 .LASF5562
C:\Users\CYMR90~1\AppData\Local\Temp\ccZoYVSv.s:23990  .debug_str:000000000000562e .LASF5563
C:\Users\CYMR90~1\AppData\Local\Temp\ccZoYVSv.s:29481  .debug_str:000000000001b913 .LASF5564
C:\Users\CYMR90~1\AppData\Local\Temp\ccZoYVSv.s:28174  .debug_str:0000000000016215 .LASF5565
C:\Users\CYMR90~1\AppData\Local\Temp\ccZoYVSv.s:31801  .debug_str:000000000002475a .LASF5566
C:\Users\CYMR90~1\AppData\Local\Temp\ccZoYVSv.s:30975  .debug_str:00000000000215c4 .LASF5567
C:\Users\CYMR90~1\AppData\Local\Temp\ccZoYVSv.s:24026  .debug_str:000000000000584e .LASF0
C:\Users\CYMR90~1\AppData\Local\Temp\ccZoYVSv.s:28409  .debug_str:0000000000017387 .LASF1
C:\Users\CYMR90~1\AppData\Local\Temp\ccZoYVSv.s:26666  .debug_str:000000000001021c .LASF2
C:\Users\CYMR90~1\AppData\Local\Temp\ccZoYVSv.s:26724  .debug_str:000000000001058c .LASF3
C:\Users\CYMR90~1\AppData\Local\Temp\ccZoYVSv.s:28016  .debug_str:000000000001585c .LASF4
C:\Users\CYMR90~1\AppData\Local\Temp\ccZoYVSv.s:33635  .debug_str:000000000002bccd .LASF5
C:\Users\CYMR90~1\AppData\Local\Temp\ccZoYVSv.s:24252  .debug_str:000000000000665a .LASF6
C:\Users\CYMR90~1\AppData\Local\Temp\ccZoYVSv.s:32959  .debug_str:00000000000294a6 .LASF7
C:\Users\CYMR90~1\AppData\Local\Temp\ccZoYVSv.s:31897  .debug_str:0000000000024e56 .LASF8
C:\Users\CYMR90~1\AppData\Local\Temp\ccZoYVSv.s:29765  .debug_str:000000000001c9d6 .LASF9
C:\Users\CYMR90~1\AppData\Local\Temp\ccZoYVSv.s:29105  .debug_str:000000000001a02c .LASF10
C:\Users\CYMR90~1\AppData\Local\Temp\ccZoYVSv.s:28961  .debug_str:000000000001968f .LASF11
C:\Users\CYMR90~1\AppData\Local\Temp\ccZoYVSv.s:33477  .debug_str:000000000002b311 .LASF12
C:\Users\CYMR90~1\AppData\Local\Temp\ccZoYVSv.s:28973  .debug_str:0000000000019743 .LASF13
C:\Users\CYMR90~1\AppData\Local\Temp\ccZoYVSv.s:25260  .debug_str:000000000000a744 .LASF14
C:\Users\CYMR90~1\AppData\Local\Temp\ccZoYVSv.s:30355  .debug_str:000000000001f06e .LASF15
C:\Users\CYMR90~1\AppData\Local\Temp\ccZoYVSv.s:31131  .debug_str:0000000000021fe5 .LASF16
C:\Users\CYMR90~1\AppData\Local\Temp\ccZoYVSv.s:25306  .debug_str:000000000000a9fd .LASF17
C:\Users\CYMR90~1\AppData\Local\Temp\ccZoYVSv.s:32185  .debug_str:0000000000026356 .LASF18
C:\Users\CYMR90~1\AppData\Local\Temp\ccZoYVSv.s:26278  .debug_str:000000000000ea14 .LASF19
C:\Users\CYMR90~1\AppData\Local\Temp\ccZoYVSv.s:23320  .debug_str:0000000000002a98 .LASF20
C:\Users\CYMR90~1\AppData\Local\Temp\ccZoYVSv.s:28769  .debug_str:000000000001895e .LASF21
C:\Users\CYMR90~1\AppData\Local\Temp\ccZoYVSv.s:28767  .debug_str:0000000000018944 .LASF22
C:\Users\CYMR90~1\AppData\Local\Temp\ccZoYVSv.s:31445  .debug_str:00000000000232ad .LASF23
C:\Users\CYMR90~1\AppData\Local\Temp\ccZoYVSv.s:29715  .debug_str:000000000001c71f .LASF24
C:\Users\CYMR90~1\AppData\Local\Temp\ccZoYVSv.s:23558  .debug_str:0000000000003a16 .LASF25
C:\Users\CYMR90~1\AppData\Local\Temp\ccZoYVSv.s:28144  .debug_str:0000000000016043 .LASF26
C:\Users\CYMR90~1\AppData\Local\Temp\ccZoYVSv.s:31449  .debug_str:00000000000232e3 .LASF27
C:\Users\CYMR90~1\AppData\Local\Temp\ccZoYVSv.s:31139  .debug_str:0000000000022042 .LASF28
C:\Users\CYMR90~1\AppData\Local\Temp\ccZoYVSv.s:23974  .debug_str:0000000000005545 .LASF29
C:\Users\CYMR90~1\AppData\Local\Temp\ccZoYVSv.s:30127  .debug_str:000000000001e295 .LASF30
C:\Users\CYMR90~1\AppData\Local\Temp\ccZoYVSv.s:22936  .debug_str:0000000000001336 .LASF31
C:\Users\CYMR90~1\AppData\Local\Temp\ccZoYVSv.s:30595  .debug_str:000000000001fec9 .LASF32
C:\Users\CYMR90~1\AppData\Local\Temp\ccZoYVSv.s:25142  .debug_str:0000000000009ff2 .LASF33
C:\Users\CYMR90~1\AppData\Local\Temp\ccZoYVSv.s:24984  .debug_str:0000000000009624 .LASF34
C:\Users\CYMR90~1\AppData\Local\Temp\ccZoYVSv.s:26310  .debug_str:000000000000ebf8 .LASF35
C:\Users\CYMR90~1\AppData\Local\Temp\ccZoYVSv.s:29219  .debug_str:000000000001a6a7 .LASF36
C:\Users\CYMR90~1\AppData\Local\Temp\ccZoYVSv.s:24496  .debug_str:00000000000075ee .LASF37
C:\Users\CYMR90~1\AppData\Local\Temp\ccZoYVSv.s:26692  .debug_str:000000000001037c .LASF38
C:\Users\CYMR90~1\AppData\Local\Temp\ccZoYVSv.s:23522  .debug_str:0000000000003777 .LASF39
C:\Users\CYMR90~1\AppData\Local\Temp\ccZoYVSv.s:23312  .debug_str:0000000000002a06 .LASF40
C:\Users\CYMR90~1\AppData\Local\Temp\ccZoYVSv.s:26828  .debug_str:0000000000010c20 .LASF41
C:\Users\CYMR90~1\AppData\Local\Temp\ccZoYVSv.s:27260  .debug_str:00000000000127de .LASF42
C:\Users\CYMR90~1\AppData\Local\Temp\ccZoYVSv.s:27530  .debug_str:0000000000013a51 .LASF43
C:\Users\CYMR90~1\AppData\Local\Temp\ccZoYVSv.s:29209  .debug_str:000000000001a615 .LASF44
C:\Users\CYMR90~1\AppData\Local\Temp\ccZoYVSv.s:27122  .debug_str:0000000000011f20 .LASF45
C:\Users\CYMR90~1\AppData\Local\Temp\ccZoYVSv.s:23790  .debug_str:0000000000004980 .LASF46
C:\Users\CYMR90~1\AppData\Local\Temp\ccZoYVSv.s:30133  .debug_str:000000000001e2fa .LASF47
C:\Users\CYMR90~1\AppData\Local\Temp\ccZoYVSv.s:31899  .debug_str:0000000000024e6b .LASF48
C:\Users\CYMR90~1\AppData\Local\Temp\ccZoYVSv.s:26054  .debug_str:000000000000dc24 .LASF49
C:\Users\CYMR90~1\AppData\Local\Temp\ccZoYVSv.s:23156  .debug_str:00000000000020ae .LASF50
C:\Users\CYMR90~1\AppData\Local\Temp\ccZoYVSv.s:22652  .debug_str:000000000000015e .LASF51
C:\Users\CYMR90~1\AppData\Local\Temp\ccZoYVSv.s:33253  .debug_str:000000000002a619 .LASF52
C:\Users\CYMR90~1\AppData\Local\Temp\ccZoYVSv.s:25864  .debug_str:000000000000cf64 .LASF53
C:\Users\CYMR90~1\AppData\Local\Temp\ccZoYVSv.s:27606  .debug_str:0000000000013ebc .LASF54
C:\Users\CYMR90~1\AppData\Local\Temp\ccZoYVSv.s:26630  .debug_str:000000000000ff97 .LASF55
C:\Users\CYMR90~1\AppData\Local\Temp\ccZoYVSv.s:24586  .debug_str:0000000000007b78 .LASF56
C:\Users\CYMR90~1\AppData\Local\Temp\ccZoYVSv.s:33619  .debug_str:000000000002bbbc .LASF57
C:\Users\CYMR90~1\AppData\Local\Temp\ccZoYVSv.s:22886  .debug_str:0000000000001054 .LASF58
C:\Users\CYMR90~1\AppData\Local\Temp\ccZoYVSv.s:32189  .debug_str:0000000000026396 .LASF59
C:\Users\CYMR90~1\AppData\Local\Temp\ccZoYVSv.s:27538  .debug_str:0000000000013a9d .LASF60
C:\Users\CYMR90~1\AppData\Local\Temp\ccZoYVSv.s:29499  .debug_str:000000000001ba42 .LASF61
C:\Users\CYMR90~1\AppData\Local\Temp\ccZoYVSv.s:23382  .debug_str:0000000000002e91 .LASF62
C:\Users\CYMR90~1\AppData\Local\Temp\ccZoYVSv.s:26046  .debug_str:000000000000db6b .LASF63
C:\Users\CYMR90~1\AppData\Local\Temp\ccZoYVSv.s:25784  .debug_str:000000000000ca5a .LASF64
C:\Users\CYMR90~1\AppData\Local\Temp\ccZoYVSv.s:29195  .debug_str:000000000001a54c .LASF65
C:\Users\CYMR90~1\AppData\Local\Temp\ccZoYVSv.s:27834  .debug_str:0000000000014cdc .LASF66
C:\Users\CYMR90~1\AppData\Local\Temp\ccZoYVSv.s:33035  .debug_str:0000000000029938 .LASF67
C:\Users\CYMR90~1\AppData\Local\Temp\ccZoYVSv.s:33479  .debug_str:000000000002b324 .LASF68
C:\Users\CYMR90~1\AppData\Local\Temp\ccZoYVSv.s:27072  .debug_str:0000000000011b90 .LASF69
C:\Users\CYMR90~1\AppData\Local\Temp\ccZoYVSv.s:26204  .debug_str:000000000000e571 .LASF70
C:\Users\CYMR90~1\AppData\Local\Temp\ccZoYVSv.s:23804  .debug_str:0000000000004ae7 .LASF71
C:\Users\CYMR90~1\AppData\Local\Temp\ccZoYVSv.s:27110  .debug_str:0000000000011e3f .LASF72
C:\Users\CYMR90~1\AppData\Local\Temp\ccZoYVSv.s:26732  .debug_str:00000000000105fd .LASF73
C:\Users\CYMR90~1\AppData\Local\Temp\ccZoYVSv.s:27338  .debug_str:0000000000012d33 .LASF74
C:\Users\CYMR90~1\AppData\Local\Temp\ccZoYVSv.s:27180  .debug_str:00000000000122cb .LASF75
C:\Users\CYMR90~1\AppData\Local\Temp\ccZoYVSv.s:27282  .debug_str:000000000001295f .LASF76
C:\Users\CYMR90~1\AppData\Local\Temp\ccZoYVSv.s:31813  .debug_str:00000000000248ed .LASF77
C:\Users\CYMR90~1\AppData\Local\Temp\ccZoYVSv.s:29691  .debug_str:000000000001c5aa .LASF78
C:\Users\CYMR90~1\AppData\Local\Temp\ccZoYVSv.s:30097  .debug_str:000000000001e03b .LASF79
C:\Users\CYMR90~1\AppData\Local\Temp\ccZoYVSv.s:33015  .debug_str:00000000000297e9 .LASF80
C:\Users\CYMR90~1\AppData\Local\Temp\ccZoYVSv.s:25094  .debug_str:0000000000009d24 .LASF81
C:\Users\CYMR90~1\AppData\Local\Temp\ccZoYVSv.s:25292  .debug_str:000000000000a8c9 .LASF82
C:\Users\CYMR90~1\AppData\Local\Temp\ccZoYVSv.s:33147  .debug_str:0000000000029fef .LASF83
C:\Users\CYMR90~1\AppData\Local\Temp\ccZoYVSv.s:25028  .debug_str:00000000000098ef .LASF84
C:\Users\CYMR90~1\AppData\Local\Temp\ccZoYVSv.s:24314  .debug_str:0000000000006a15 .LASF85
C:\Users\CYMR90~1\AppData\Local\Temp\ccZoYVSv.s:29397  .debug_str:000000000001b3ad .LASF86
C:\Users\CYMR90~1\AppData\Local\Temp\ccZoYVSv.s:33175  .debug_str:000000000002a16c .LASF87
C:\Users\CYMR90~1\AppData\Local\Temp\ccZoYVSv.s:30535  .debug_str:000000000001fb26 .LASF88
C:\Users\CYMR90~1\AppData\Local\Temp\ccZoYVSv.s:29313  .debug_str:000000000001ae1e .LASF89
C:\Users\CYMR90~1\AppData\Local\Temp\ccZoYVSv.s:30565  .debug_str:000000000001fceb .LASF90
C:\Users\CYMR90~1\AppData\Local\Temp\ccZoYVSv.s:33385  .debug_str:000000000002add8 .LASF91
C:\Users\CYMR90~1\AppData\Local\Temp\ccZoYVSv.s:32197  .debug_str:000000000002640e .LASF92
C:\Users\CYMR90~1\AppData\Local\Temp\ccZoYVSv.s:25172  .debug_str:000000000000a1f1 .LASF93
C:\Users\CYMR90~1\AppData\Local\Temp\ccZoYVSv.s:29977  .debug_str:000000000001d8b7 .LASF94
C:\Users\CYMR90~1\AppData\Local\Temp\ccZoYVSv.s:27566  .debug_str:0000000000013c56 .LASF95
C:\Users\CYMR90~1\AppData\Local\Temp\ccZoYVSv.s:27550  .debug_str:0000000000013b66 .LASF96
C:\Users\CYMR90~1\AppData\Local\Temp\ccZoYVSv.s:33685  .debug_str:000000000002c00f .LASF97
C:\Users\CYMR90~1\AppData\Local\Temp\ccZoYVSv.s:27194  .debug_str:00000000000123c3 .LASF98
C:\Users\CYMR90~1\AppData\Local\Temp\ccZoYVSv.s:31157  .debug_str:0000000000022165 .LASF99
C:\Users\CYMR90~1\AppData\Local\Temp\ccZoYVSv.s:24532  .debug_str:00000000000077ff .LASF100
C:\Users\CYMR90~1\AppData\Local\Temp\ccZoYVSv.s:26678  .debug_str:00000000000102a7 .LASF101
C:\Users\CYMR90~1\AppData\Local\Temp\ccZoYVSv.s:28058  .debug_str:0000000000015ab3 .LASF102
C:\Users\CYMR90~1\AppData\Local\Temp\ccZoYVSv.s:26958  .debug_str:00000000000113e2 .LASF103
C:\Users\CYMR90~1\AppData\Local\Temp\ccZoYVSv.s:25964  .debug_str:000000000000d5f1 .LASF104
C:\Users\CYMR90~1\AppData\Local\Temp\ccZoYVSv.s:27132  .debug_str:0000000000011fb7 .LASF105
C:\Users\CYMR90~1\AppData\Local\Temp\ccZoYVSv.s:29789  .debug_str:000000000001cb5f .LASF106
C:\Users\CYMR90~1\AppData\Local\Temp\ccZoYVSv.s:26952  .debug_str:000000000001137d .LASF107
C:\Users\CYMR90~1\AppData\Local\Temp\ccZoYVSv.s:25960  .debug_str:000000000000d5cd .LASF108
C:\Users\CYMR90~1\AppData\Local\Temp\ccZoYVSv.s:27394  .debug_str:00000000000130c8 .LASF109
C:\Users\CYMR90~1\AppData\Local\Temp\ccZoYVSv.s:26336  .debug_str:000000000000edb4 .LASF110
C:\Users\CYMR90~1\AppData\Local\Temp\ccZoYVSv.s:28823  .debug_str:0000000000018c92 .LASF111
C:\Users\CYMR90~1\AppData\Local\Temp\ccZoYVSv.s:25438  .debug_str:000000000000b3c4 .LASF112
C:\Users\CYMR90~1\AppData\Local\Temp\ccZoYVSv.s:25168  .debug_str:000000000000a194 .LASF113
C:\Users\CYMR90~1\AppData\Local\Temp\ccZoYVSv.s:28090  .debug_str:0000000000015ca5 .LASF114
C:\Users\CYMR90~1\AppData\Local\Temp\ccZoYVSv.s:33075  .debug_str:0000000000029b74 .LASF115
C:\Users\CYMR90~1\AppData\Local\Temp\ccZoYVSv.s:31697  .debug_str:00000000000241a2 .LASF116
C:\Users\CYMR90~1\AppData\Local\Temp\ccZoYVSv.s:24920  .debug_str:0000000000009291 .LASF117
C:\Users\CYMR90~1\AppData\Local\Temp\ccZoYVSv.s:29555  .debug_str:000000000001bda2 .LASF118
C:\Users\CYMR90~1\AppData\Local\Temp\ccZoYVSv.s:33795  .debug_str:000000000002c783 .LASF119
C:\Users\CYMR90~1\AppData\Local\Temp\ccZoYVSv.s:26252  .debug_str:000000000000e82c .LASF120
C:\Users\CYMR90~1\AppData\Local\Temp\ccZoYVSv.s:31795  .debug_str:0000000000024715 .LASF121
C:\Users\CYMR90~1\AppData\Local\Temp\ccZoYVSv.s:25742  .debug_str:000000000000c7c6 .LASF122
C:\Users\CYMR90~1\AppData\Local\Temp\ccZoYVSv.s:25850  .debug_str:000000000000ceb7 .LASF123
C:\Users\CYMR90~1\AppData\Local\Temp\ccZoYVSv.s:23492  .debug_str:00000000000035ae .LASF124
C:\Users\CYMR90~1\AppData\Local\Temp\ccZoYVSv.s:33925  .debug_str:000000000002d010 .LASF125
C:\Users\CYMR90~1\AppData\Local\Temp\ccZoYVSv.s:32745  .debug_str:0000000000028666 .LASF126
C:\Users\CYMR90~1\AppData\Local\Temp\ccZoYVSv.s:27138  .debug_str:0000000000011ff5 .LASF127
C:\Users\CYMR90~1\AppData\Local\Temp\ccZoYVSv.s:29953  .debug_str:000000000001d752 .LASF128
C:\Users\CYMR90~1\AppData\Local\Temp\ccZoYVSv.s:24994  .debug_str:00000000000096ac .LASF129
C:\Users\CYMR90~1\AppData\Local\Temp\ccZoYVSv.s:32315  .debug_str:0000000000026b42 .LASF130
C:\Users\CYMR90~1\AppData\Local\Temp\ccZoYVSv.s:32621  .debug_str:0000000000027e96 .LASF131
C:\Users\CYMR90~1\AppData\Local\Temp\ccZoYVSv.s:32433  .debug_str:0000000000027293 .LASF132
C:\Users\CYMR90~1\AppData\Local\Temp\ccZoYVSv.s:26228  .debug_str:000000000000e6ad .LASF133
C:\Users\CYMR90~1\AppData\Local\Temp\ccZoYVSv.s:31713  .debug_str:0000000000024289 .LASF134
C:\Users\CYMR90~1\AppData\Local\Temp\ccZoYVSv.s:23756  .debug_str:00000000000046e9 .LASF135
C:\Users\CYMR90~1\AppData\Local\Temp\ccZoYVSv.s:24634  .debug_str:0000000000007ebb .LASF136
C:\Users\CYMR90~1\AppData\Local\Temp\ccZoYVSv.s:33471  .debug_str:000000000002b2ba .LASF137
C:\Users\CYMR90~1\AppData\Local\Temp\ccZoYVSv.s:27388  .debug_str:000000000001307c .LASF138
C:\Users\CYMR90~1\AppData\Local\Temp\ccZoYVSv.s:32957  .debug_str:0000000000029496 .LASF139
C:\Users\CYMR90~1\AppData\Local\Temp\ccZoYVSv.s:32081  .debug_str:0000000000025bab .LASF140
C:\Users\CYMR90~1\AppData\Local\Temp\ccZoYVSv.s:29645  .debug_str:000000000001c2e6 .LASF141
C:\Users\CYMR90~1\AppData\Local\Temp\ccZoYVSv.s:25042  .debug_str:00000000000099ca .LASF142
C:\Users\CYMR90~1\AppData\Local\Temp\ccZoYVSv.s:33543  .debug_str:000000000002b6d3 .LASF143
C:\Users\CYMR90~1\AppData\Local\Temp\ccZoYVSv.s:28793  .debug_str:0000000000018ac1 .LASF144
C:\Users\CYMR90~1\AppData\Local\Temp\ccZoYVSv.s:27846  .debug_str:0000000000014dc1 .LASF145
C:\Users\CYMR90~1\AppData\Local\Temp\ccZoYVSv.s:25816  .debug_str:000000000000cce6 .LASF146
C:\Users\CYMR90~1\AppData\Local\Temp\ccZoYVSv.s:23802  .debug_str:0000000000004ad0 .LASF147
C:\Users\CYMR90~1\AppData\Local\Temp\ccZoYVSv.s:26378  .debug_str:000000000000f02e .LASF148
C:\Users\CYMR90~1\AppData\Local\Temp\ccZoYVSv.s:28771  .debug_str:0000000000018972 .LASF149
C:\Users\CYMR90~1\AppData\Local\Temp\ccZoYVSv.s:22726  .debug_str:00000000000005f9 .LASF150
C:\Users\CYMR90~1\AppData\Local\Temp\ccZoYVSv.s:34025  .debug_str:000000000002d669 .LASF151
C:\Users\CYMR90~1\AppData\Local\Temp\ccZoYVSv.s:27382  .debug_str:0000000000012ffa .LASF152
C:\Users\CYMR90~1\AppData\Local\Temp\ccZoYVSv.s:32087  .debug_str:0000000000025bfe .LASF153
C:\Users\CYMR90~1\AppData\Local\Temp\ccZoYVSv.s:29855  .debug_str:000000000001cfe6 .LASF154
C:\Users\CYMR90~1\AppData\Local\Temp\ccZoYVSv.s:26786  .debug_str:00000000000109b8 .LASF155
C:\Users\CYMR90~1\AppData\Local\Temp\ccZoYVSv.s:29869  .debug_str:000000000001d0e5 .LASF156
C:\Users\CYMR90~1\AppData\Local\Temp\ccZoYVSv.s:29981  .debug_str:000000000001d8fe .LASF157
C:\Users\CYMR90~1\AppData\Local\Temp\ccZoYVSv.s:25668  .debug_str:000000000000c30b .LASF158
C:\Users\CYMR90~1\AppData\Local\Temp\ccZoYVSv.s:24730  .debug_str:000000000000862e .LASF159
C:\Users\CYMR90~1\AppData\Local\Temp\ccZoYVSv.s:29505  .debug_str:000000000001ba96 .LASF160
C:\Users\CYMR90~1\AppData\Local\Temp\ccZoYVSv.s:30959  .debug_str:00000000000214ec .LASF161
C:\Users\CYMR90~1\AppData\Local\Temp\ccZoYVSv.s:29097  .debug_str:0000000000019f9a .LASF162
C:\Users\CYMR90~1\AppData\Local\Temp\ccZoYVSv.s:31705  .debug_str:0000000000024214 .LASF163
C:\Users\CYMR90~1\AppData\Local\Temp\ccZoYVSv.s:33369  .debug_str:000000000002acf2 .LASF164
C:\Users\CYMR90~1\AppData\Local\Temp\ccZoYVSv.s:24486  .debug_str:000000000000756a .LASF165
C:\Users\CYMR90~1\AppData\Local\Temp\ccZoYVSv.s:33063  .debug_str:0000000000029ae5 .LASF166
C:\Users\CYMR90~1\AppData\Local\Temp\ccZoYVSv.s:32879  .debug_str:000000000002900b .LASF167
C:\Users\CYMR90~1\AppData\Local\Temp\ccZoYVSv.s:30423  .debug_str:000000000001f435 .LASF168
C:\Users\CYMR90~1\AppData\Local\Temp\ccZoYVSv.s:28561  .debug_str:0000000000017c95 .LASF169
C:\Users\CYMR90~1\AppData\Local\Temp\ccZoYVSv.s:32495  .debug_str:0000000000027634 .LASF170
C:\Users\CYMR90~1\AppData\Local\Temp\ccZoYVSv.s:28176  .debug_str:000000000001623f .LASF171
C:\Users\CYMR90~1\AppData\Local\Temp\ccZoYVSv.s:29771  .debug_str:000000000001ca1c .LASF172
C:\Users\CYMR90~1\AppData\Local\Temp\ccZoYVSv.s:25124  .debug_str:0000000000009ef0 .LASF173
C:\Users\CYMR90~1\AppData\Local\Temp\ccZoYVSv.s:31513  .debug_str:00000000000236a5 .LASF174
C:\Users\CYMR90~1\AppData\Local\Temp\ccZoYVSv.s:24150  .debug_str:0000000000005ff0 .LASF175
C:\Users\CYMR90~1\AppData\Local\Temp\ccZoYVSv.s:24962  .debug_str:00000000000094ed .LASF176
C:\Users\CYMR90~1\AppData\Local\Temp\ccZoYVSv.s:23630  .debug_str:0000000000003e90 .LASF177
C:\Users\CYMR90~1\AppData\Local\Temp\ccZoYVSv.s:28969  .debug_str:0000000000019701 .LASF178
C:\Users\CYMR90~1\AppData\Local\Temp\ccZoYVSv.s:25902  .debug_str:000000000000d1f5 .LASF179
C:\Users\CYMR90~1\AppData\Local\Temp\ccZoYVSv.s:23150  .debug_str:0000000000002042 .LASF180
C:\Users\CYMR90~1\AppData\Local\Temp\ccZoYVSv.s:33681  .debug_str:000000000002bfe4 .LASF181
C:\Users\CYMR90~1\AppData\Local\Temp\ccZoYVSv.s:22922  .debug_str:000000000000128b .LASF182
C:\Users\CYMR90~1\AppData\Local\Temp\ccZoYVSv.s:27506  .debug_str:000000000001389e .LASF183
C:\Users\CYMR90~1\AppData\Local\Temp\ccZoYVSv.s:27914  .debug_str:000000000001522c .LASF184
C:\Users\CYMR90~1\AppData\Local\Temp\ccZoYVSv.s:32889  .debug_str:00000000000290ba .LASF185
C:\Users\CYMR90~1\AppData\Local\Temp\ccZoYVSv.s:28471  .debug_str:00000000000176e7 .LASF186
C:\Users\CYMR90~1\AppData\Local\Temp\ccZoYVSv.s:24470  .debug_str:0000000000007409 .LASF187
C:\Users\CYMR90~1\AppData\Local\Temp\ccZoYVSv.s:30511  .debug_str:000000000001f9e1 .LASF188
C:\Users\CYMR90~1\AppData\Local\Temp\ccZoYVSv.s:26272  .debug_str:000000000000e9bd .LASF189
C:\Users\CYMR90~1\AppData\Local\Temp\ccZoYVSv.s:27612  .debug_str:0000000000013f1b .LASF190
C:\Users\CYMR90~1\AppData\Local\Temp\ccZoYVSv.s:31023  .debug_str:00000000000218bc .LASF191
C:\Users\CYMR90~1\AppData\Local\Temp\ccZoYVSv.s:28336  .debug_str:0000000000016cd4 .LASF192
C:\Users\CYMR90~1\AppData\Local\Temp\ccZoYVSv.s:31255  .debug_str:000000000002273a .LASF193
C:\Users\CYMR90~1\AppData\Local\Temp\ccZoYVSv.s:24106  .debug_str:0000000000005d76 .LASF194
C:\Users\CYMR90~1\AppData\Local\Temp\ccZoYVSv.s:23458  .debug_str:0000000000003364 .LASF195
C:\Users\CYMR90~1\AppData\Local\Temp\ccZoYVSv.s:26098  .debug_str:000000000000de96 .LASF196
C:\Users\CYMR90~1\AppData\Local\Temp\ccZoYVSv.s:27016  .debug_str:000000000001175f .LASF197
C:\Users\CYMR90~1\AppData\Local\Temp\ccZoYVSv.s:23958  .debug_str:0000000000005427 .LASF198
C:\Users\CYMR90~1\AppData\Local\Temp\ccZoYVSv.s:32775  .debug_str:0000000000028887 .LASF199
C:\Users\CYMR90~1\AppData\Local\Temp\ccZoYVSv.s:30891  .debug_str:00000000000210c6 .LASF200
C:\Users\CYMR90~1\AppData\Local\Temp\ccZoYVSv.s:29989  .debug_str:000000000001d95c .LASF201
C:\Users\CYMR90~1\AppData\Local\Temp\ccZoYVSv.s:25098  .debug_str:0000000000009d5b .LASF202
C:\Users\CYMR90~1\AppData\Local\Temp\ccZoYVSv.s:33233  .debug_str:000000000002a4f3 .LASF203
C:\Users\CYMR90~1\AppData\Local\Temp\ccZoYVSv.s:23472  .debug_str:000000000000345e .LASF204
C:\Users\CYMR90~1\AppData\Local\Temp\ccZoYVSv.s:26510  .debug_str:000000000000f80b .LASF205
C:\Users\CYMR90~1\AppData\Local\Temp\ccZoYVSv.s:32967  .debug_str:0000000000029507 .LASF206
C:\Users\CYMR90~1\AppData\Local\Temp\ccZoYVSv.s:27732  .debug_str:00000000000146a0 .LASF207
C:\Users\CYMR90~1\AppData\Local\Temp\ccZoYVSv.s:30553  .debug_str:000000000001fc3d .LASF208
C:\Users\CYMR90~1\AppData\Local\Temp\ccZoYVSv.s:25734  .debug_str:000000000000c75f .LASF209
C:\Users\CYMR90~1\AppData\Local\Temp\ccZoYVSv.s:33891  .debug_str:000000000002cdad .LASF210
C:\Users\CYMR90~1\AppData\Local\Temp\ccZoYVSv.s:27702  .debug_str:00000000000144db .LASF211
C:\Users\CYMR90~1\AppData\Local\Temp\ccZoYVSv.s:30393  .debug_str:000000000001f26f .LASF212
C:\Users\CYMR90~1\AppData\Local\Temp\ccZoYVSv.s:28989  .debug_str:000000000001982f .LASF213
C:\Users\CYMR90~1\AppData\Local\Temp\ccZoYVSv.s:24190  .debug_str:000000000000625e .LASF214
C:\Users\CYMR90~1\AppData\Local\Temp\ccZoYVSv.s:27710  .debug_str:000000000001454b .LASF215
C:\Users\CYMR90~1\AppData\Local\Temp\ccZoYVSv.s:29687  .debug_str:000000000001c55a .LASF216
C:\Users\CYMR90~1\AppData\Local\Temp\ccZoYVSv.s:30663  .debug_str:00000000000202f8 .LASF217
C:\Users\CYMR90~1\AppData\Local\Temp\ccZoYVSv.s:26584  .debug_str:000000000000fcd2 .LASF218
C:\Users\CYMR90~1\AppData\Local\Temp\ccZoYVSv.s:32089  .debug_str:0000000000025c3a .LASF219
C:\Users\CYMR90~1\AppData\Local\Temp\ccZoYVSv.s:31891  .debug_str:0000000000024df2 .LASF220
C:\Users\CYMR90~1\AppData\Local\Temp\ccZoYVSv.s:31407  .debug_str:0000000000022ff4 .LASF221
C:\Users\CYMR90~1\AppData\Local\Temp\ccZoYVSv.s:27980  .debug_str:0000000000015662 .LASF222
C:\Users\CYMR90~1\AppData\Local\Temp\ccZoYVSv.s:24160  .debug_str:0000000000006072 .LASF223
C:\Users\CYMR90~1\AppData\Local\Temp\ccZoYVSv.s:24826  .debug_str:0000000000008c47 .LASF224
C:\Users\CYMR90~1\AppData\Local\Temp\ccZoYVSv.s:33553  .debug_str:000000000002b743 .LASF225
C:\Users\CYMR90~1\AppData\Local\Temp\ccZoYVSv.s:26168  .debug_str:000000000000e340 .LASF226
C:\Users\CYMR90~1\AppData\Local\Temp\ccZoYVSv.s:29851  .debug_str:000000000001cfb8 .LASF227
C:\Users\CYMR90~1\AppData\Local\Temp\ccZoYVSv.s:29697  .debug_str:000000000001c606 .LASF228
C:\Users\CYMR90~1\AppData\Local\Temp\ccZoYVSv.s:26110  .debug_str:000000000000df4d .LASF229
C:\Users\CYMR90~1\AppData\Local\Temp\ccZoYVSv.s:30433  .debug_str:000000000001f4ee .LASF230
C:\Users\CYMR90~1\AppData\Local\Temp\ccZoYVSv.s:24874  .debug_str:0000000000008fb5 .LASF231
C:\Users\CYMR90~1\AppData\Local\Temp\ccZoYVSv.s:24200  .debug_str:000000000000631b .LASF232
C:\Users\CYMR90~1\AppData\Local\Temp\ccZoYVSv.s:24782  .debug_str:0000000000008940 .LASF233
C:\Users\CYMR90~1\AppData\Local\Temp\ccZoYVSv.s:26778  .debug_str:00000000000108a3 .LASF234
C:\Users\CYMR90~1\AppData\Local\Temp\ccZoYVSv.s:26506  .debug_str:000000000000f7c3 .LASF235
C:\Users\CYMR90~1\AppData\Local\Temp\ccZoYVSv.s:31633  .debug_str:0000000000023d8f .LASF236
C:\Users\CYMR90~1\AppData\Local\Temp\ccZoYVSv.s:26528  .debug_str:000000000000f914 .LASF237
C:\Users\CYMR90~1\AppData\Local\Temp\ccZoYVSv.s:32311  .debug_str:0000000000026b06 .LASF238
C:\Users\CYMR90~1\AppData\Local\Temp\ccZoYVSv.s:31617  .debug_str:0000000000023c8e .LASF239
C:\Users\CYMR90~1\AppData\Local\Temp\ccZoYVSv.s:31853  .debug_str:0000000000024bc4 .LASF240
C:\Users\CYMR90~1\AppData\Local\Temp\ccZoYVSv.s:26114  .debug_str:000000000000dfa6 .LASF241
C:\Users\CYMR90~1\AppData\Local\Temp\ccZoYVSv.s:26190  .debug_str:000000000000e474 .LASF242
C:\Users\CYMR90~1\AppData\Local\Temp\ccZoYVSv.s:27176  .debug_str:0000000000012263 .LASF243
C:\Users\CYMR90~1\AppData\Local\Temp\ccZoYVSv.s:31645  .debug_str:0000000000023e39 .LASF244
C:\Users\CYMR90~1\AppData\Local\Temp\ccZoYVSv.s:27366  .debug_str:0000000000012eda .LASF245
C:\Users\CYMR90~1\AppData\Local\Temp\ccZoYVSv.s:30443  .debug_str:000000000001f5b6 .LASF246
C:\Users\CYMR90~1\AppData\Local\Temp\ccZoYVSv.s:28755  .debug_str:0000000000018851 .LASF247
C:\Users\CYMR90~1\AppData\Local\Temp\ccZoYVSv.s:28266  .debug_str:00000000000167e2 .LASF248
C:\Users\CYMR90~1\AppData\Local\Temp\ccZoYVSv.s:29785  .debug_str:000000000001cb2f .LASF249
C:\Users\CYMR90~1\AppData\Local\Temp\ccZoYVSv.s:29157  .debug_str:000000000001a31e .LASF250
C:\Users\CYMR90~1\AppData\Local\Temp\ccZoYVSv.s:29717  .debug_str:000000000001c72e .LASF251
C:\Users\CYMR90~1\AppData\Local\Temp\ccZoYVSv.s:31457  .debug_str:0000000000023377 .LASF252
C:\Users\CYMR90~1\AppData\Local\Temp\ccZoYVSv.s:26082  .debug_str:000000000000ddc9 .LASF253
C:\Users\CYMR90~1\AppData\Local\Temp\ccZoYVSv.s:32161  .debug_str:00000000000261e6 .LASF254
C:\Users\CYMR90~1\AppData\Local\Temp\ccZoYVSv.s:25946  .debug_str:000000000000d4c3 .LASF255
C:\Users\CYMR90~1\AppData\Local\Temp\ccZoYVSv.s:29061  .debug_str:0000000000019d53 .LASF256
C:\Users\CYMR90~1\AppData\Local\Temp\ccZoYVSv.s:26186  .debug_str:000000000000e442 .LASF257
C:\Users\CYMR90~1\AppData\Local\Temp\ccZoYVSv.s:30381  .debug_str:000000000001f1a6 .LASF258
C:\Users\CYMR90~1\AppData\Local\Temp\ccZoYVSv.s:25394  .debug_str:000000000000b04a .LASF259
C:\Users\CYMR90~1\AppData\Local\Temp\ccZoYVSv.s:22804  .debug_str:0000000000000aac .LASF260
C:\Users\CYMR90~1\AppData\Local\Temp\ccZoYVSv.s:31451  .debug_str:00000000000232fd .LASF261
C:\Users\CYMR90~1\AppData\Local\Temp\ccZoYVSv.s:32757  .debug_str:000000000002870c .LASF262
C:\Users\CYMR90~1\AppData\Local\Temp\ccZoYVSv.s:27682  .debug_str:0000000000014362 .LASF263
C:\Users\CYMR90~1\AppData\Local\Temp\ccZoYVSv.s:29669  .debug_str:000000000001c444 .LASF264
C:\Users\CYMR90~1\AppData\Local\Temp\ccZoYVSv.s:26634  .debug_str:000000000000ffde .LASF265
C:\Users\CYMR90~1\AppData\Local\Temp\ccZoYVSv.s:26112  .debug_str:000000000000df8e .LASF266
C:\Users\CYMR90~1\AppData\Local\Temp\ccZoYVSv.s:25450  .debug_str:000000000000b489 .LASF267
C:\Users\CYMR90~1\AppData\Local\Temp\ccZoYVSv.s:29773  .debug_str:000000000001ca31 .LASF268
C:\Users\CYMR90~1\AppData\Local\Temp\ccZoYVSv.s:25764  .debug_str:000000000000c92a .LASF269
C:\Users\CYMR90~1\AppData\Local\Temp\ccZoYVSv.s:26700  .debug_str:000000000001041d .LASF270
C:\Users\CYMR90~1\AppData\Local\Temp\ccZoYVSv.s:27956  .debug_str:00000000000154e7 .LASF271
C:\Users\CYMR90~1\AppData\Local\Temp\ccZoYVSv.s:32415  .debug_str:0000000000027199 .LASF272
C:\Users\CYMR90~1\AppData\Local\Temp\ccZoYVSv.s:24358  .debug_str:0000000000006cbb .LASF273
C:\Users\CYMR90~1\AppData\Local\Temp\ccZoYVSv.s:23264  .debug_str:0000000000002693 .LASF274
C:\Users\CYMR90~1\AppData\Local\Temp\ccZoYVSv.s:24454  .debug_str:00000000000072f2 .LASF275
C:\Users\CYMR90~1\AppData\Local\Temp\ccZoYVSv.s:23526  .debug_str:00000000000037b3 .LASF276
C:\Users\CYMR90~1\AppData\Local\Temp\ccZoYVSv.s:25650  .debug_str:000000000000c1e8 .LASF277
C:\Users\CYMR90~1\AppData\Local\Temp\ccZoYVSv.s:22946  .debug_str:00000000000013aa .LASF278
C:\Users\CYMR90~1\AppData\Local\Temp\ccZoYVSv.s:26164  .debug_str:000000000000e2ff .LASF279
C:\Users\CYMR90~1\AppData\Local\Temp\ccZoYVSv.s:33087  .debug_str:0000000000029c21 .LASF280
C:\Users\CYMR90~1\AppData\Local\Temp\ccZoYVSv.s:25148  .debug_str:000000000000a03c .LASF281
C:\Users\CYMR90~1\AppData\Local\Temp\ccZoYVSv.s:24248  .debug_str:000000000000661d .LASF282
C:\Users\CYMR90~1\AppData\Local\Temp\ccZoYVSv.s:24154  .debug_str:0000000000006020 .LASF283
C:\Users\CYMR90~1\AppData\Local\Temp\ccZoYVSv.s:23912  .debug_str:0000000000005179 .LASF284
C:\Users\CYMR90~1\AppData\Local\Temp\ccZoYVSv.s:31957  .debug_str:0000000000025283 .LASF285
C:\Users\CYMR90~1\AppData\Local\Temp\ccZoYVSv.s:32787  .debug_str:0000000000028985 .LASF286
C:\Users\CYMR90~1\AppData\Local\Temp\ccZoYVSv.s:33071  .debug_str:0000000000029b42 .LASF287
C:\Users\CYMR90~1\AppData\Local\Temp\ccZoYVSv.s:32983  .debug_str:00000000000295f0 .LASF288
C:\Users\CYMR90~1\AppData\Local\Temp\ccZoYVSv.s:33823  .debug_str:000000000002c961 .LASF289
C:\Users\CYMR90~1\AppData\Local\Temp\ccZoYVSv.s:28701  .debug_str:000000000001852a .LASF290
C:\Users\CYMR90~1\AppData\Local\Temp\ccZoYVSv.s:27736  .debug_str:00000000000146c6 .LASF291
C:\Users\CYMR90~1\AppData\Local\Temp\ccZoYVSv.s:31993  .debug_str:00000000000254ee .LASF292
C:\Users\CYMR90~1\AppData\Local\Temp\ccZoYVSv.s:23552  .debug_str:00000000000039ae .LASF293
C:\Users\CYMR90~1\AppData\Local\Temp\ccZoYVSv.s:30903  .debug_str:000000000002118b .LASF294
C:\Users\CYMR90~1\AppData\Local\Temp\ccZoYVSv.s:23828  .debug_str:0000000000004c3e .LASF295
C:\Users\CYMR90~1\AppData\Local\Temp\ccZoYVSv.s:33411  .debug_str:000000000002af5f .LASF296
C:\Users\CYMR90~1\AppData\Local\Temp\ccZoYVSv.s:33601  .debug_str:000000000002ba7d .LASF297
C:\Users\CYMR90~1\AppData\Local\Temp\ccZoYVSv.s:28579  .debug_str:0000000000017ddd .LASF298
C:\Users\CYMR90~1\AppData\Local\Temp\ccZoYVSv.s:22788  .debug_str:00000000000009b9 .LASF299
C:\Users\CYMR90~1\AppData\Local\Temp\ccZoYVSv.s:26604  .debug_str:000000000000fdf6 .LASF300
C:\Users\CYMR90~1\AppData\Local\Temp\ccZoYVSv.s:29337  .debug_str:000000000001af96 .LASF301
C:\Users\CYMR90~1\AppData\Local\Temp\ccZoYVSv.s:27840  .debug_str:0000000000014d33 .LASF302
C:\Users\CYMR90~1\AppData\Local\Temp\ccZoYVSv.s:27316  .debug_str:0000000000012baf .LASF303
C:\Users\CYMR90~1\AppData\Local\Temp\ccZoYVSv.s:23188  .debug_str:000000000000223a .LASF304
C:\Users\CYMR90~1\AppData\Local\Temp\ccZoYVSv.s:25772  .debug_str:000000000000c9ae .LASF305
C:\Users\CYMR90~1\AppData\Local\Temp\ccZoYVSv.s:31123  .debug_str:0000000000021f7a .LASF306
C:\Users\CYMR90~1\AppData\Local\Temp\ccZoYVSv.s:26620  .debug_str:000000000000feff .LASF307
C:\Users\CYMR90~1\AppData\Local\Temp\ccZoYVSv.s:31977  .debug_str:00000000000253d9 .LASF308
C:\Users\CYMR90~1\AppData\Local\Temp\ccZoYVSv.s:31585  .debug_str:0000000000023a93 .LASF309
C:\Users\CYMR90~1\AppData\Local\Temp\ccZoYVSv.s:26170  .debug_str:000000000000e359 .LASF310
C:\Users\CYMR90~1\AppData\Local\Temp\ccZoYVSv.s:32303  .debug_str:0000000000026a8c .LASF311
C:\Users\CYMR90~1\AppData\Local\Temp\ccZoYVSv.s:31807  .debug_str:00000000000248b6 .LASF312
C:\Users\CYMR90~1\AppData\Local\Temp\ccZoYVSv.s:25884  .debug_str:000000000000d082 .LASF313
C:\Users\CYMR90~1\AppData\Local\Temp\ccZoYVSv.s:28843  .debug_str:0000000000018df7 .LASF316
C:\Users\CYMR90~1\AppData\Local\Temp\ccZoYVSv.s:29211  .debug_str:000000000001a632 .LASF317
C:\Users\CYMR90~1\AppData\Local\Temp\ccZoYVSv.s:29561  .debug_str:000000000001bde0 .LASF318
C:\Users\CYMR90~1\AppData\Local\Temp\ccZoYVSv.s:26612  .debug_str:000000000000fe93 .LASF319
C:\Users\CYMR90~1\AppData\Local\Temp\ccZoYVSv.s:25518  .debug_str:000000000000b8c8 .LASF320
C:\Users\CYMR90~1\AppData\Local\Temp\ccZoYVSv.s:33033  .debug_str:000000000002992c .LASF321
C:\Users\CYMR90~1\AppData\Local\Temp\ccZoYVSv.s:26080  .debug_str:000000000000ddbc .LASF322
C:\Users\CYMR90~1\AppData\Local\Temp\ccZoYVSv.s:32253  .debug_str:0000000000026757 .LASF323
C:\Users\CYMR90~1\AppData\Local\Temp\ccZoYVSv.s:22668  .debug_str:0000000000000259 .LASF324
C:\Users\CYMR90~1\AppData\Local\Temp\ccZoYVSv.s:33437  .debug_str:000000000002b0c8 .LASF325
C:\Users\CYMR90~1\AppData\Local\Temp\ccZoYVSv.s:23602  .debug_str:0000000000003cb5 .LASF326
C:\Users\CYMR90~1\AppData\Local\Temp\ccZoYVSv.s:27670  .debug_str:00000000000142a5 .LASF327
C:\Users\CYMR90~1\AppData\Local\Temp\ccZoYVSv.s:27318  .debug_str:0000000000012bc4 .LASF328
C:\Users\CYMR90~1\AppData\Local\Temp\ccZoYVSv.s:30225  .debug_str:000000000001e88d .LASF329
C:\Users\CYMR90~1\AppData\Local\Temp\ccZoYVSv.s:30217  .debug_str:000000000001e83c .LASF330
C:\Users\CYMR90~1\AppData\Local\Temp\ccZoYVSv.s:32455  .debug_str:0000000000027400 .LASF331
C:\Users\CYMR90~1\AppData\Local\Temp\ccZoYVSv.s:33013  .debug_str:00000000000297da .LASF332
C:\Users\CYMR90~1\AppData\Local\Temp\ccZoYVSv.s:33199  .debug_str:000000000002a2d6 .LASF333
C:\Users\CYMR90~1\AppData\Local\Temp\ccZoYVSv.s:29185  .debug_str:000000000001a4b7 .LASF334
C:\Users\CYMR90~1\AppData\Local\Temp\ccZoYVSv.s:28623  .debug_str:0000000000018074 .LASF335
C:\Users\CYMR90~1\AppData\Local\Temp\ccZoYVSv.s:33053  .debug_str:0000000000029a56 .LASF336
C:\Users\CYMR90~1\AppData\Local\Temp\ccZoYVSv.s:27242  .debug_str:00000000000126c0 .LASF337
C:\Users\CYMR90~1\AppData\Local\Temp\ccZoYVSv.s:30967  .debug_str:0000000000021558 .LASF338
C:\Users\CYMR90~1\AppData\Local\Temp\ccZoYVSv.s:25264  .debug_str:000000000000a76d .LASF339
C:\Users\CYMR90~1\AppData\Local\Temp\ccZoYVSv.s:27458  .debug_str:000000000001351f .LASF340
C:\Users\CYMR90~1\AppData\Local\Temp\ccZoYVSv.s:29389  .debug_str:000000000001b2f6 .LASF341
C:\Users\CYMR90~1\AppData\Local\Temp\ccZoYVSv.s:25584  .debug_str:000000000000bd2b .LASF342
C:\Users\CYMR90~1\AppData\Local\Temp\ccZoYVSv.s:22928  .debug_str:00000000000012d6 .LASF343
C:\Users\CYMR90~1\AppData\Local\Temp\ccZoYVSv.s:33167  .debug_str:000000000002a0f5 .LASF344
C:\Users\CYMR90~1\AppData\Local\Temp\ccZoYVSv.s:33765  .debug_str:000000000002c53d .LASF345
C:\Users\CYMR90~1\AppData\Local\Temp\ccZoYVSv.s:26496  .debug_str:000000000000f73b .LASF346
C:\Users\CYMR90~1\AppData\Local\Temp\ccZoYVSv.s:22776  .debug_str:0000000000000903 .LASF347
C:\Users\CYMR90~1\AppData\Local\Temp\ccZoYVSv.s:30743  .debug_str:00000000000207d8 .LASF348
C:\Users\CYMR90~1\AppData\Local\Temp\ccZoYVSv.s:32767  .debug_str:00000000000287db .LASF349
C:\Users\CYMR90~1\AppData\Local\Temp\ccZoYVSv.s:30219  .debug_str:000000000001e848 .LASF350
C:\Users\CYMR90~1\AppData\Local\Temp\ccZoYVSv.s:22708  .debug_str:00000000000004f3 .LASF351
C:\Users\CYMR90~1\AppData\Local\Temp\ccZoYVSv.s:30515  .debug_str:000000000001fa11 .LASF352
C:\Users\CYMR90~1\AppData\Local\Temp\ccZoYVSv.s:32245  .debug_str:00000000000266ed .LASF353
C:\Users\CYMR90~1\AppData\Local\Temp\ccZoYVSv.s:29835  .debug_str:000000000001ceef .LASF354
C:\Users\CYMR90~1\AppData\Local\Temp\ccZoYVSv.s:30003  .debug_str:000000000001da52 .LASF355
C:\Users\CYMR90~1\AppData\Local\Temp\ccZoYVSv.s:25970  .debug_str:000000000000d6e7 .LASF356
C:\Users\CYMR90~1\AppData\Local\Temp\ccZoYVSv.s:29141  .debug_str:000000000001a24c .LASF357
C:\Users\CYMR90~1\AppData\Local\Temp\ccZoYVSv.s:32677  .debug_str:00000000000281db .LASF358
C:\Users\CYMR90~1\AppData\Local\Temp\ccZoYVSv.s:27308  .debug_str:0000000000012b04 .LASF359
C:\Users\CYMR90~1\AppData\Local\Temp\ccZoYVSv.s:25362  .debug_str:000000000000ae5a .LASF360
C:\Users\CYMR90~1\AppData\Local\Temp\ccZoYVSv.s:30395  .debug_str:000000000001f287 .LASF361
C:\Users\CYMR90~1\AppData\Local\Temp\ccZoYVSv.s:27042  .debug_str:0000000000011902 .LASF362
C:\Users\CYMR90~1\AppData\Local\Temp\ccZoYVSv.s:32947  .debug_str:00000000000293f9 .LASF363
C:\Users\CYMR90~1\AppData\Local\Temp\ccZoYVSv.s:24904  .debug_str:00000000000091bd .LASF364
C:\Users\CYMR90~1\AppData\Local\Temp\ccZoYVSv.s:32837  .debug_str:0000000000028d27 .LASF365
C:\Users\CYMR90~1\AppData\Local\Temp\ccZoYVSv.s:24318  .debug_str:0000000000006a7a .LASF366
C:\Users\CYMR90~1\AppData\Local\Temp\ccZoYVSv.s:27450  .debug_str:000000000001346f .LASF367
C:\Users\CYMR90~1\AppData\Local\Temp\ccZoYVSv.s:24610  .debug_str:0000000000007d62 .LASF368
C:\Users\CYMR90~1\AppData\Local\Temp\ccZoYVSv.s:28667  .debug_str:0000000000018318 .LASF372
C:\Users\CYMR90~1\AppData\Local\Temp\ccZoYVSv.s:32497  .debug_str:0000000000027679 .LASF373
C:\Users\CYMR90~1\AppData\Local\Temp\ccZoYVSv.s:25342  .debug_str:000000000000acff .LASF374
C:\Users\CYMR90~1\AppData\Local\Temp\ccZoYVSv.s:28459  .debug_str:0000000000017640 .LASF375
C:\Users\CYMR90~1\AppData\Local\Temp\ccZoYVSv.s:28653  .debug_str:0000000000018250 .LASF376
C:\Users\CYMR90~1\AppData\Local\Temp\ccZoYVSv.s:31219  .debug_str:0000000000022536 .LASF377
C:\Users\CYMR90~1\AppData\Local\Temp\ccZoYVSv.s:29853  .debug_str:000000000001cfd1 .LASF378
C:\Users\CYMR90~1\AppData\Local\Temp\ccZoYVSv.s:33591  .debug_str:000000000002b9e2 .LASF379
C:\Users\CYMR90~1\AppData\Local\Temp\ccZoYVSv.s:23278  .debug_str:00000000000027b4 .LASF380
C:\Users\CYMR90~1\AppData\Local\Temp\ccZoYVSv.s:33535  .debug_str:000000000002b66b .LASF381
C:\Users\CYMR90~1\AppData\Local\Temp\ccZoYVSv.s:29569  .debug_str:000000000001be31 .LASF382
C:\Users\CYMR90~1\AppData\Local\Temp\ccZoYVSv.s:24376  .debug_str:0000000000006de2 .LASF383
C:\Users\CYMR90~1\AppData\Local\Temp\ccZoYVSv.s:25736  .debug_str:000000000000c77a .LASF384
C:\Users\CYMR90~1\AppData\Local\Temp\ccZoYVSv.s:29079  .debug_str:0000000000019e87 .LASF385
C:\Users\CYMR90~1\AppData\Local\Temp\ccZoYVSv.s:26728  .debug_str:00000000000105ce .LASF386
C:\Users\CYMR90~1\AppData\Local\Temp\ccZoYVSv.s:23214  .debug_str:00000000000023bd .LASF387
C:\Users\CYMR90~1\AppData\Local\Temp\ccZoYVSv.s:26338  .debug_str:000000000000edd4 .LASF388
C:\Users\CYMR90~1\AppData\Local\Temp\ccZoYVSv.s:24872  .debug_str:0000000000008fa1 .LASF389
C:\Users\CYMR90~1\AppData\Local\Temp\ccZoYVSv.s:23692  .debug_str:00000000000042e8 .LASF391
C:\Users\CYMR90~1\AppData\Local\Temp\ccZoYVSv.s:26736  .debug_str:000000000001063a .LASF392
C:\Users\CYMR90~1\AppData\Local\Temp\ccZoYVSv.s:30847  .debug_str:0000000000020e50 .LASF393
C:\Users\CYMR90~1\AppData\Local\Temp\ccZoYVSv.s:32635  .debug_str:0000000000027f5c .LASF394
C:\Users\CYMR90~1\AppData\Local\Temp\ccZoYVSv.s:23240  .debug_str:000000000000251b .LASF395
C:\Users\CYMR90~1\AppData\Local\Temp\ccZoYVSv.s:25388  .debug_str:000000000000afe6 .LASF396
C:\Users\CYMR90~1\AppData\Local\Temp\ccZoYVSv.s:29191  .debug_str:000000000001a517 .LASF397
C:\Users\CYMR90~1\AppData\Local\Temp\ccZoYVSv.s:33409  .debug_str:000000000002af4d .LASF398
C:\Users\CYMR90~1\AppData\Local\Temp\ccZoYVSv.s:28006  .debug_str:00000000000157cd .LASF399
C:\Users\CYMR90~1\AppData\Local\Temp\ccZoYVSv.s:30475  .debug_str:000000000001f7a8 .LASF400
C:\Users\CYMR90~1\AppData\Local\Temp\ccZoYVSv.s:24862  .debug_str:0000000000008e87 .LASF401
C:\Users\CYMR90~1\AppData\Local\Temp\ccZoYVSv.s:28513  .debug_str:0000000000017991 .LASF402
C:\Users\CYMR90~1\AppData\Local\Temp\ccZoYVSv.s:24216  .debug_str:000000000000641c .LASF403
C:\Users\CYMR90~1\AppData\Local\Temp\ccZoYVSv.s:25318  .debug_str:000000000000ab77 .LASF404
C:\Users\CYMR90~1\AppData\Local\Temp\ccZoYVSv.s:26396  .debug_str:000000000000f11d .LASF405
C:\Users\CYMR90~1\AppData\Local\Temp\ccZoYVSv.s:29757  .debug_str:000000000001c96a .LASF406
C:\Users\CYMR90~1\AppData\Local\Temp\ccZoYVSv.s:27938  .debug_str:00000000000153d9 .LASF407
C:\Users\CYMR90~1\AppData\Local\Temp\ccZoYVSv.s:28919  .debug_str:0000000000019333 .LASF408
C:\Users\CYMR90~1\AppData\Local\Temp\ccZoYVSv.s:31167  .debug_str:0000000000022223 .LASF409
C:\Users\CYMR90~1\AppData\Local\Temp\ccZoYVSv.s:24172  .debug_str:000000000000612d .LASF410
C:\Users\CYMR90~1\AppData\Local\Temp\ccZoYVSv.s:28116  .debug_str:0000000000015e35 .LASF411
C:\Users\CYMR90~1\AppData\Local\Temp\ccZoYVSv.s:31291  .debug_str:0000000000022954 .LASF412
C:\Users\CYMR90~1\AppData\Local\Temp\ccZoYVSv.s:24350  .debug_str:0000000000006c5b .LASF413
C:\Users\CYMR90~1\AppData\Local\Temp\ccZoYVSv.s:33047  .debug_str:00000000000299ef .LASF414
C:\Users\CYMR90~1\AppData\Local\Temp\ccZoYVSv.s:26498  .debug_str:000000000000f749 .LASF415
C:\Users\CYMR90~1\AppData\Local\Temp\ccZoYVSv.s:32369  .debug_str:0000000000026ea6 .LASF416
C:\Users\CYMR90~1\AppData\Local\Temp\ccZoYVSv.s:33889  .debug_str:000000000002cda2 .LASF417
C:\Users\CYMR90~1\AppData\Local\Temp\ccZoYVSv.s:24800  .debug_str:0000000000008a69 .LASF418
C:\Users\CYMR90~1\AppData\Local\Temp\ccZoYVSv.s:33259  .debug_str:000000000002a670 .LASF419
C:\Users\CYMR90~1\AppData\Local\Temp\ccZoYVSv.s:24424  .debug_str:00000000000070f9 .LASF420
C:\Users\CYMR90~1\AppData\Local\Temp\ccZoYVSv.s:33457  .debug_str:000000000002b1dd .LASF421
C:\Users\CYMR90~1\AppData\Local\Temp\ccZoYVSv.s:25662  .debug_str:000000000000c2bb .LASF422
C:\Users\CYMR90~1\AppData\Local\Temp\ccZoYVSv.s:25862  .debug_str:000000000000cf58 .LASF423
C:\Users\CYMR90~1\AppData\Local\Temp\ccZoYVSv.s:30375  .debug_str:000000000001f167 .LASF424
C:\Users\CYMR90~1\AppData\Local\Temp\ccZoYVSv.s:28959  .debug_str:0000000000019676 .LASF425
C:\Users\CYMR90~1\AppData\Local\Temp\ccZoYVSv.s:22680  .debug_str:0000000000000322 .LASF426
C:\Users\CYMR90~1\AppData\Local\Temp\ccZoYVSv.s:32955  .debug_str:0000000000029473 .LASF427
C:\Users\CYMR90~1\AppData\Local\Temp\ccZoYVSv.s:28206  .debug_str:000000000001647f .LASF428
C:\Users\CYMR90~1\AppData\Local\Temp\ccZoYVSv.s:30145  .debug_str:000000000001e3e7 .LASF429
C:\Users\CYMR90~1\AppData\Local\Temp\ccZoYVSv.s:26676  .debug_str:000000000001029e .LASF430
C:\Users\CYMR90~1\AppData\Local\Temp\ccZoYVSv.s:28403  .debug_str:0000000000017324 .LASF431
C:\Users\CYMR90~1\AppData\Local\Temp\ccZoYVSv.s:31241  .debug_str:0000000000022664 .LASF432
C:\Users\CYMR90~1\AppData\Local\Temp\ccZoYVSv.s:25846  .debug_str:000000000000ce82 .LASF434
C:\Users\CYMR90~1\AppData\Local\Temp\ccZoYVSv.s:23882  .debug_str:0000000000004fa9 .LASF435
C:\Users\CYMR90~1\AppData\Local\Temp\ccZoYVSv.s:28597  .debug_str:0000000000017eef .LASF436
C:\Users\CYMR90~1\AppData\Local\Temp\ccZoYVSv.s:24442  .debug_str:0000000000007217 .LASF437
C:\Users\CYMR90~1\AppData\Local\Temp\ccZoYVSv.s:32973  .debug_str:000000000002955b .LASF438
C:\Users\CYMR90~1\AppData\Local\Temp\ccZoYVSv.s:22642  .debug_str:00000000000000c7 .LASF439
C:\Users\CYMR90~1\AppData\Local\Temp\ccZoYVSv.s:30411  .debug_str:000000000001f37b .LASF440
C:\Users\CYMR90~1\AppData\Local\Temp\ccZoYVSv.s:26088  .debug_str:000000000000de2c .LASF441
C:\Users\CYMR90~1\AppData\Local\Temp\ccZoYVSv.s:31489  .debug_str:0000000000023552 .LASF442
C:\Users\CYMR90~1\AppData\Local\Temp\ccZoYVSv.s:30349  .debug_str:000000000001f00b .LASF443
C:\Users\CYMR90~1\AppData\Local\Temp\ccZoYVSv.s:26808  .debug_str:0000000000010b0c .LASF444
C:\Users\CYMR90~1\AppData\Local\Temp\ccZoYVSv.s:33883  .debug_str:000000000002cd56 .LASF445
C:\Users\CYMR90~1\AppData\Local\Temp\ccZoYVSv.s:23006  .debug_str:0000000000001731 .LASF446
C:\Users\CYMR90~1\AppData\Local\Temp\ccZoYVSv.s:33441  .debug_str:000000000002b0f2 .LASF447
C:\Users\CYMR90~1\AppData\Local\Temp\ccZoYVSv.s:31459  .debug_str:0000000000023389 .LASF448
C:\Users\CYMR90~1\AppData\Local\Temp\ccZoYVSv.s:23702  .debug_str:000000000000437a .LASF449
C:\Users\CYMR90~1\AppData\Local\Temp\ccZoYVSv.s:24462  .debug_str:0000000000007380 .LASF450
C:\Users\CYMR90~1\AppData\Local\Temp\ccZoYVSv.s:25064  .debug_str:0000000000009b4b .LASF451
C:\Users\CYMR90~1\AppData\Local\Temp\ccZoYVSv.s:27848  .debug_str:0000000000014dd5 .LASF452
C:\Users\CYMR90~1\AppData\Local\Temp\ccZoYVSv.s:23162  .debug_str:00000000000020f7 .LASF453
C:\Users\CYMR90~1\AppData\Local\Temp\ccZoYVSv.s:33827  .debug_str:000000000002c994 .LASF454
C:\Users\CYMR90~1\AppData\Local\Temp\ccZoYVSv.s:26258  .debug_str:000000000000e893 .LASF455
C:\Users\CYMR90~1\AppData\Local\Temp\ccZoYVSv.s:31069  .debug_str:0000000000021c18 .LASF456
C:\Users\CYMR90~1\AppData\Local\Temp\ccZoYVSv.s:25940  .debug_str:000000000000d47f .LASF457
C:\Users\CYMR90~1\AppData\Local\Temp\ccZoYVSv.s:24228  .debug_str:00000000000064c9 .LASF458
C:\Users\CYMR90~1\AppData\Local\Temp\ccZoYVSv.s:26878  .debug_str:0000000000010f91 .LASF459
C:\Users\CYMR90~1\AppData\Local\Temp\ccZoYVSv.s:30799  .debug_str:0000000000020b74 .LASF460
C:\Users\CYMR90~1\AppData\Local\Temp\ccZoYVSv.s:31981  .debug_str:000000000002540f .LASF461
C:\Users\CYMR90~1\AppData\Local\Temp\ccZoYVSv.s:25068  .debug_str:0000000000009b77 .LASF462
C:\Users\CYMR90~1\AppData\Local\Temp\ccZoYVSv.s:29241  .debug_str:000000000001a98e .LASF463
C:\Users\CYMR90~1\AppData\Local\Temp\ccZoYVSv.s:26104  .debug_str:000000000000def8 .LASF464
C:\Users\CYMR90~1\AppData\Local\Temp\ccZoYVSv.s:27254  .debug_str:0000000000012783 .LASF465
C:\Users\CYMR90~1\AppData\Local\Temp\ccZoYVSv.s:24370  .debug_str:0000000000006d9c .LASF466
C:\Users\CYMR90~1\AppData\Local\Temp\ccZoYVSv.s:24922  .debug_str:00000000000092a0 .LASF467
C:\Users\CYMR90~1\AppData\Local\Temp\ccZoYVSv.s:27014  .debug_str:0000000000011748 .LASF468
C:\Users\CYMR90~1\AppData\Local\Temp\ccZoYVSv.s:23506  .debug_str:000000000000369b .LASF469
C:\Users\CYMR90~1\AppData\Local\Temp\ccZoYVSv.s:26770  .debug_str:000000000001081e .LASF470
C:\Users\CYMR90~1\AppData\Local\Temp\ccZoYVSv.s:26652  .debug_str:0000000000010113 .LASF471
C:\Users\CYMR90~1\AppData\Local\Temp\ccZoYVSv.s:26232  .debug_str:000000000000e6f9 .LASF472
C:\Users\CYMR90~1\AppData\Local\Temp\ccZoYVSv.s:22862  .debug_str:0000000000000e76 .LASF473
C:\Users\CYMR90~1\AppData\Local\Temp\ccZoYVSv.s:24488  .debug_str:0000000000007581 .LASF474
C:\Users\CYMR90~1\AppData\Local\Temp\ccZoYVSv.s:22806  .debug_str:0000000000000aea .LASF475
C:\Users\CYMR90~1\AppData\Local\Temp\ccZoYVSv.s:23670  .debug_str:00000000000040fe .LASF476
C:\Users\CYMR90~1\AppData\Local\Temp\ccZoYVSv.s:23038  .debug_str:00000000000019aa .LASF477
C:\Users\CYMR90~1\AppData\Local\Temp\ccZoYVSv.s:28146  .debug_str:0000000000016060 .LASF478
C:\Users\CYMR90~1\AppData\Local\Temp\ccZoYVSv.s:25538  .debug_str:000000000000ba44 .LASF479
C:\Users\CYMR90~1\AppData\Local\Temp\ccZoYVSv.s:33453  .debug_str:000000000002b1ad .LASF480
C:\Users\CYMR90~1\AppData\Local\Temp\ccZoYVSv.s:28751  .debug_str:000000000001881d .LASF481
C:\Users\CYMR90~1\AppData\Local\Temp\ccZoYVSv.s:25462  .debug_str:000000000000b527 .LASF482
C:\Users\CYMR90~1\AppData\Local\Temp\ccZoYVSv.s:24268  .debug_str:000000000000672d .LASF483
C:\Users\CYMR90~1\AppData\Local\Temp\ccZoYVSv.s:22772  .debug_str:00000000000008bc .LASF484
C:\Users\CYMR90~1\AppData\Local\Temp\ccZoYVSv.s:28699  .debug_str:0000000000018507 .LASF485
C:\Users\CYMR90~1\AppData\Local\Temp\ccZoYVSv.s:23894  .debug_str:0000000000005061 .LASF486
C:\Users\CYMR90~1\AppData\Local\Temp\ccZoYVSv.s:27610  .debug_str:0000000000013f05 .LASF487
C:\Users\CYMR90~1\AppData\Local\Temp\ccZoYVSv.s:26794  .debug_str:0000000000010a42 .LASF488
C:\Users\CYMR90~1\AppData\Local\Temp\ccZoYVSv.s:27370  .debug_str:0000000000012f3c .LASF489
C:\Users\CYMR90~1\AppData\Local\Temp\ccZoYVSv.s:25824  .debug_str:000000000000cd41 .LASF490
C:\Users\CYMR90~1\AppData\Local\Temp\ccZoYVSv.s:24798  .debug_str:0000000000008a5b .LASF491
C:\Users\CYMR90~1\AppData\Local\Temp\ccZoYVSv.s:26456  .debug_str:000000000000f4b6 .LASF492
C:\Users\CYMR90~1\AppData\Local\Temp\ccZoYVSv.s:26760  .debug_str:00000000000107a2 .LASF493
C:\Users\CYMR90~1\AppData\Local\Temp\ccZoYVSv.s:26658  .debug_str:0000000000010187 .LASF494
C:\Users\CYMR90~1\AppData\Local\Temp\ccZoYVSv.s:28947  .debug_str:00000000000195c8 .LASF495
C:\Users\CYMR90~1\AppData\Local\Temp\ccZoYVSv.s:33909  .debug_str:000000000002cecc .LASF496
C:\Users\CYMR90~1\AppData\Local\Temp\ccZoYVSv.s:33845  .debug_str:000000000002caf9 .LASF497
C:\Users\CYMR90~1\AppData\Local\Temp\ccZoYVSv.s:26502  .debug_str:000000000000f790 .LASF498
C:\Users\CYMR90~1\AppData\Local\Temp\ccZoYVSv.s:33069  .debug_str:0000000000029b1d .LASF499
C:\Users\CYMR90~1\AppData\Local\Temp\ccZoYVSv.s:33169  .debug_str:000000000002a0fe .LASF500
C:\Users\CYMR90~1\AppData\Local\Temp\ccZoYVSv.s:27812  .debug_str:0000000000014b9b .LASF501
C:\Users\CYMR90~1\AppData\Local\Temp\ccZoYVSv.s:33125  .debug_str:0000000000029ea1 .LASF502
C:\Users\CYMR90~1\AppData\Local\Temp\ccZoYVSv.s:27766  .debug_str:0000000000014866 .LASF503
C:\Users\CYMR90~1\AppData\Local\Temp\ccZoYVSv.s:23368  .debug_str:0000000000002db0 .LASF504
C:\Users\CYMR90~1\AppData\Local\Temp\ccZoYVSv.s:31743  .debug_str:0000000000024411 .LASF505
C:\Users\CYMR90~1\AppData\Local\Temp\ccZoYVSv.s:32631  .debug_str:0000000000027f21 .LASF506
C:\Users\CYMR90~1\AppData\Local\Temp\ccZoYVSv.s:32203  .debug_str:0000000000026478 .LASF507
C:\Users\CYMR90~1\AppData\Local\Temp\ccZoYVSv.s:28865  .debug_str:0000000000018f50 .LASF508
C:\Users\CYMR90~1\AppData\Local\Temp\ccZoYVSv.s:31155  .debug_str:0000000000022127 .LASF509
C:\Users\CYMR90~1\AppData\Local\Temp\ccZoYVSv.s:32857  .debug_str:0000000000028e8b .LASF510
C:\Users\CYMR90~1\AppData\Local\Temp\ccZoYVSv.s:28643  .debug_str:0000000000018188 .LASF511
C:\Users\CYMR90~1\AppData\Local\Temp\ccZoYVSv.s:32485  .debug_str:0000000000027584 .LASF512
C:\Users\CYMR90~1\AppData\Local\Temp\ccZoYVSv.s:32601  .debug_str:0000000000027d7a .LASF513
C:\Users\CYMR90~1\AppData\Local\Temp\ccZoYVSv.s:33051  .debug_str:0000000000029a1b .LASF514
C:\Users\CYMR90~1\AppData\Local\Temp\ccZoYVSv.s:27542  .debug_str:0000000000013ae9 .LASF515
C:\Users\CYMR90~1\AppData\Local\Temp\ccZoYVSv.s:32921  .debug_str:000000000002926d .LASF516
C:\Users\CYMR90~1\AppData\Local\Temp\ccZoYVSv.s:29017  .debug_str:00000000000199e3 .LASF517
C:\Users\CYMR90~1\AppData\Local\Temp\ccZoYVSv.s:32869  .debug_str:0000000000028f65 .LASF518
C:\Users\CYMR90~1\AppData\Local\Temp\ccZoYVSv.s:29679  .debug_str:000000000001c4d5 .LASF519
C:\Users\CYMR90~1\AppData\Local\Temp\ccZoYVSv.s:33815  .debug_str:000000000002c8d8 .LASF520
C:\Users\CYMR90~1\AppData\Local\Temp\ccZoYVSv.s:29949  .debug_str:000000000001d709 .LASF521
C:\Users\CYMR90~1\AppData\Local\Temp\ccZoYVSv.s:32111  .debug_str:0000000000025da8 .LASF522
C:\Users\CYMR90~1\AppData\Local\Temp\ccZoYVSv.s:27418  .debug_str:0000000000013243 .LASF523
C:\Users\CYMR90~1\AppData\Local\Temp\ccZoYVSv.s:31657  .debug_str:0000000000023f2f .LASF524
C:\Users\CYMR90~1\AppData\Local\Temp\ccZoYVSv.s:25002  .debug_str:0000000000009718 .LASF525
C:\Users\CYMR90~1\AppData\Local\Temp\ccZoYVSv.s:33837  .debug_str:000000000002ca0d .LASF526
C:\Users\CYMR90~1\AppData\Local\Temp\ccZoYVSv.s:26266  .debug_str:000000000000e911 .LASF527
C:\Users\CYMR90~1\AppData\Local\Temp\ccZoYVSv.s:27280  .debug_str:0000000000012921 .LASF528
C:\Users\CYMR90~1\AppData\Local\Temp\ccZoYVSv.s:28124  .debug_str:0000000000015eb8 .LASF529
C:\Users\CYMR90~1\AppData\Local\Temp\ccZoYVSv.s:28158  .debug_str:000000000001610f .LASF530
C:\Users\CYMR90~1\AppData\Local\Temp\ccZoYVSv.s:27202  .debug_str:0000000000012448 .LASF531
C:\Users\CYMR90~1\AppData\Local\Temp\ccZoYVSv.s:23432  .debug_str:000000000000317d .LASF532
C:\Users\CYMR90~1\AppData\Local\Temp\ccZoYVSv.s:25948  .debug_str:000000000000d4db .LASF533
C:\Users\CYMR90~1\AppData\Local\Temp\ccZoYVSv.s:33675  .debug_str:000000000002bf27 .LASF534
C:\Users\CYMR90~1\AppData\Local\Temp\ccZoYVSv.s:26454  .debug_str:000000000000f46a .LASF535
C:\Users\CYMR90~1\AppData\Local\Temp\ccZoYVSv.s:31841  .debug_str:0000000000024ae4 .LASF536
C:\Users\CYMR90~1\AppData\Local\Temp\ccZoYVSv.s:33325  .debug_str:000000000002aa37 .LASF537
C:\Users\CYMR90~1\AppData\Local\Temp\ccZoYVSv.s:27028  .debug_str:0000000000011811 .LASF538
C:\Users\CYMR90~1\AppData\Local\Temp\ccZoYVSv.s:32027  .debug_str:0000000000025734 .LASF539
C:\Users\CYMR90~1\AppData\Local\Temp\ccZoYVSv.s:29737  .debug_str:000000000001c858 .LASF540
C:\Users\CYMR90~1\AppData\Local\Temp\ccZoYVSv.s:31363  .debug_str:0000000000022d4e .LASF541
C:\Users\CYMR90~1\AppData\Local\Temp\ccZoYVSv.s:30037  .debug_str:000000000001dc83 .LASF542
C:\Users\CYMR90~1\AppData\Local\Temp\ccZoYVSv.s:23780  .debug_str:00000000000048c4 .LASF543
C:\Users\CYMR90~1\AppData\Local\Temp\ccZoYVSv.s:26198  .debug_str:000000000000e4fa .LASF544
C:\Users\CYMR90~1\AppData\Local\Temp\ccZoYVSv.s:33111  .debug_str:0000000000029dbd .LASF545
C:\Users\CYMR90~1\AppData\Local\Temp\ccZoYVSv.s:27552  .debug_str:0000000000013b78 .LASF546
C:\Users\CYMR90~1\AppData\Local\Temp\ccZoYVSv.s:31345  .debug_str:0000000000022c29 .LASF547
C:\Users\CYMR90~1\AppData\Local\Temp\ccZoYVSv.s:33587  .debug_str:000000000002b9b4 .LASF548
C:\Users\CYMR90~1\AppData\Local\Temp\ccZoYVSv.s:23480  .debug_str:00000000000034d9 .LASF549
C:\Users\CYMR90~1\AppData\Local\Temp\ccZoYVSv.s:24638  .debug_str:0000000000007efb .LASF550
C:\Users\CYMR90~1\AppData\Local\Temp\ccZoYVSv.s:32377  .debug_str:0000000000026f09 .LASF551
C:\Users\CYMR90~1\AppData\Local\Temp\ccZoYVSv.s:24196  .debug_str:00000000000062d2 .LASF552
C:\Users\CYMR90~1\AppData\Local\Temp\ccZoYVSv.s:33343  .debug_str:000000000002ab33 .LASF553
C:\Users\CYMR90~1\AppData\Local\Temp\ccZoYVSv.s:25614  .debug_str:000000000000bf14 .LASF554
C:\Users\CYMR90~1\AppData\Local\Temp\ccZoYVSv.s:25802  .debug_str:000000000000cbc7 .LASF555
C:\Users\CYMR90~1\AppData\Local\Temp\ccZoYVSv.s:24316  .debug_str:0000000000006a27 .LASF556
C:\Users\CYMR90~1\AppData\Local\Temp\ccZoYVSv.s:24032  .debug_str:000000000000589a .LASF557
C:\Users\CYMR90~1\AppData\Local\Temp\ccZoYVSv.s:27150  .debug_str:00000000000120c9 .LASF558
C:\Users\CYMR90~1\AppData\Local\Temp\ccZoYVSv.s:28893  .debug_str:00000000000191a6 .LASF559
C:\Users\CYMR90~1\AppData\Local\Temp\ccZoYVSv.s:24602  .debug_str:0000000000007cb8 .LASF560
C:\Users\CYMR90~1\AppData\Local\Temp\ccZoYVSv.s:25610  .debug_str:000000000000beb0 .LASF561
C:\Users\CYMR90~1\AppData\Local\Temp\ccZoYVSv.s:26610  .debug_str:000000000000fe48 .LASF562
C:\Users\CYMR90~1\AppData\Local\Temp\ccZoYVSv.s:25990  .debug_str:000000000000d809 .LASF563
C:\Users\CYMR90~1\AppData\Local\Temp\ccZoYVSv.s:25302  .debug_str:000000000000a980 .LASF564
C:\Users\CYMR90~1\AppData\Local\Temp\ccZoYVSv.s:31095  .debug_str:0000000000021d8d .LASF565
C:\Users\CYMR90~1\AppData\Local\Temp\ccZoYVSv.s:30289  .debug_str:000000000001ec5f .LASF566
C:\Users\CYMR90~1\AppData\Local\Temp\ccZoYVSv.s:27146  .debug_str:0000000000012081 .LASF567
C:\Users\CYMR90~1\AppData\Local\Temp\ccZoYVSv.s:24198  .debug_str:00000000000062e6 .LASF568
C:\Users\CYMR90~1\AppData\Local\Temp\ccZoYVSv.s:22830  .debug_str:0000000000000c85 .LASF570
C:\Users\CYMR90~1\AppData\Local\Temp\ccZoYVSv.s:28529  .debug_str:0000000000017a82 .LASF571
C:\Users\CYMR90~1\AppData\Local\Temp\ccZoYVSv.s:29673  .debug_str:000000000001c499 .LASF574
C:\Users\CYMR90~1\AppData\Local\Temp\ccZoYVSv.s:23744  .debug_str:0000000000004626 .LASF575
C:\Users\CYMR90~1\AppData\Local\Temp\ccZoYVSv.s:27772  .debug_str:00000000000148f0 .LASF576
C:\Users\CYMR90~1\AppData\Local\Temp\ccZoYVSv.s:24728  .debug_str:0000000000008620 .LASF577
C:\Users\CYMR90~1\AppData\Local\Temp\ccZoYVSv.s:30993  .debug_str:000000000002170e .LASF579
C:\Users\CYMR90~1\AppData\Local\Temp\ccZoYVSv.s:30157  .debug_str:000000000001e4b7 .LASF580
C:\Users\CYMR90~1\AppData\Local\Temp\ccZoYVSv.s:31741  .debug_str:0000000000024408 .LASF581
C:\Users\CYMR90~1\AppData\Local\Temp\ccZoYVSv.s:24156  .debug_str:0000000000006037 .LASF582
C:\Users\CYMR90~1\AppData\Local\Temp\ccZoYVSv.s:26754  .debug_str:000000000001073f .LASF583
C:\Users\CYMR90~1\AppData\Local\Temp\ccZoYVSv.s:23318  .debug_str:0000000000002a7e .LASF584
C:\Users\CYMR90~1\AppData\Local\Temp\ccZoYVSv.s:33205  .debug_str:000000000002a335 .LASF585
C:\Users\CYMR90~1\AppData\Local\Temp\ccZoYVSv.s:31397  .debug_str:0000000000022f75 .LASF586
C:\Users\CYMR90~1\AppData\Local\Temp\ccZoYVSv.s:29557  .debug_str:000000000001bdbe .LASF587
C:\Users\CYMR90~1\AppData\Local\Temp\ccZoYVSv.s:24384  .debug_str:0000000000006e7d .LASF588
C:\Users\CYMR90~1\AppData\Local\Temp\ccZoYVSv.s:28803  .debug_str:0000000000018b55 .LASF589
C:\Users\CYMR90~1\AppData\Local\Temp\ccZoYVSv.s:29187  .debug_str:000000000001a4c0 .LASF590
C:\Users\CYMR90~1\AppData\Local\Temp\ccZoYVSv.s:30029  .debug_str:000000000001dc17 .LASF591
C:\Users\CYMR90~1\AppData\Local\Temp\ccZoYVSv.s:29815  .debug_str:000000000001cdc2 .LASF592
C:\Users\CYMR90~1\AppData\Local\Temp\ccZoYVSv.s:31729  .debug_str:0000000000024365 .LASF593
C:\Users\CYMR90~1\AppData\Local\Temp\ccZoYVSv.s:26718  .debug_str:0000000000010534 .LASF594
C:\Users\CYMR90~1\AppData\Local\Temp\ccZoYVSv.s:27608  .debug_str:0000000000013ee5 .LASF595
C:\Users\CYMR90~1\AppData\Local\Temp\ccZoYVSv.s:33225  .debug_str:000000000002a476 .LASF596
C:\Users\CYMR90~1\AppData\Local\Temp\ccZoYVSv.s:24490  .debug_str:00000000000075a0 .LASF597
C:\Users\CYMR90~1\AppData\Local\Temp\ccZoYVSv.s:29453  .debug_str:000000000001b774 .LASF598
C:\Users\CYMR90~1\AppData\Local\Temp\ccZoYVSv.s:27498  .debug_str:0000000000013822 .LASF599
C:\Users\CYMR90~1\AppData\Local\Temp\ccZoYVSv.s:30495  .debug_str:000000000001f8d9 .LASF600
C:\Users\CYMR90~1\AppData\Local\Temp\ccZoYVSv.s:29745  .debug_str:000000000001c8c4 .LASF601
C:\Users\CYMR90~1\AppData\Local\Temp\ccZoYVSv.s:32209  .debug_str:00000000000264cb .LASF602
C:\Users\CYMR90~1\AppData\Local\Temp\ccZoYVSv.s:32927  .debug_str:00000000000292cf .LASF603
C:\Users\CYMR90~1\AppData\Local\Temp\ccZoYVSv.s:32813  .debug_str:0000000000028bac .LASF604
C:\Users\CYMR90~1\AppData\Local\Temp\ccZoYVSv.s:27446  .debug_str:000000000001342b .LASF605
C:\Users\CYMR90~1\AppData\Local\Temp\ccZoYVSv.s:31541  .debug_str:0000000000023807 .LASF606
C:\Users\CYMR90~1\AppData\Local\Temp\ccZoYVSv.s:25076  .debug_str:0000000000009bfa .LASF607
C:\Users\CYMR90~1\AppData\Local\Temp\ccZoYVSv.s:24590  .debug_str:0000000000007bc1 .LASF608
C:\Users\CYMR90~1\AppData\Local\Temp\ccZoYVSv.s:25364  .debug_str:000000000000ae68 .LASF609
C:\Users\CYMR90~1\AppData\Local\Temp\ccZoYVSv.s:29595  .debug_str:000000000001bf96 .LASF610
C:\Users\CYMR90~1\AppData\Local\Temp\ccZoYVSv.s:24124  .debug_str:0000000000005e8b .LASF611
C:\Users\CYMR90~1\AppData\Local\Temp\ccZoYVSv.s:31315  .debug_str:0000000000022a99 .LASF612
C:\Users\CYMR90~1\AppData\Local\Temp\ccZoYVSv.s:27990  .debug_str:00000000000156d6 .LASF613
C:\Users\CYMR90~1\AppData\Local\Temp\ccZoYVSv.s:24656  .debug_str:00000000000080cf .LASF614
C:\Users\CYMR90~1\AppData\Local\Temp\ccZoYVSv.s:22730  .debug_str:0000000000000626 .LASF615
C:\Users\CYMR90~1\AppData\Local\Temp\ccZoYVSv.s:28234  .debug_str:00000000000165f8 .LASF616
C:\Users\CYMR90~1\AppData\Local\Temp\ccZoYVSv.s:29223  .debug_str:000000000001a6ee .LASF617
C:\Users\CYMR90~1\AppData\Local\Temp\ccZoYVSv.s:28370  .debug_str:0000000000016f50 .LASF618
C:\Users\CYMR90~1\AppData\Local\Temp\ccZoYVSv.s:31405  .debug_str:0000000000022fda .LASF619
C:\Users\CYMR90~1\AppData\Local\Temp\ccZoYVSv.s:25628  .debug_str:000000000000c081 .LASF620
C:\Users\CYMR90~1\AppData\Local\Temp\ccZoYVSv.s:24400  .debug_str:0000000000006fa3 .LASF621
C:\Users\CYMR90~1\AppData\Local\Temp\ccZoYVSv.s:31605  .debug_str:0000000000023bb7 .LASF622
C:\Users\CYMR90~1\AppData\Local\Temp\ccZoYVSv.s:30675  .debug_str:00000000000203e9 .LASF623
C:\Users\CYMR90~1\AppData\Local\Temp\ccZoYVSv.s:32685  .debug_str:0000000000028250 .LASF624
C:\Users\CYMR90~1\AppData\Local\Temp\ccZoYVSv.s:33301  .debug_str:000000000002a8fa .LASF625
C:\Users\CYMR90~1\AppData\Local\Temp\ccZoYVSv.s:27678  .debug_str:0000000000014301 .LASF626
C:\Users\CYMR90~1\AppData\Local\Temp\ccZoYVSv.s:33555  .debug_str:000000000002b75a .LASF627
C:\Users\CYMR90~1\AppData\Local\Temp\ccZoYVSv.s:28078  .debug_str:0000000000015bea .LASF628
C:\Users\CYMR90~1\AppData\Local\Temp\ccZoYVSv.s:33039  .debug_str:0000000000029968 .LASF629
C:\Users\CYMR90~1\AppData\Local\Temp\ccZoYVSv.s:24806  .debug_str:0000000000008ae0 .LASF630
C:\Users\CYMR90~1\AppData\Local\Temp\ccZoYVSv.s:26026  .debug_str:000000000000da3c .LASF631
C:\Users\CYMR90~1\AppData\Local\Temp\ccZoYVSv.s:31305  .debug_str:00000000000229fd .LASF632
C:\Users\CYMR90~1\AppData\Local\Temp\ccZoYVSv.s:25746  .debug_str:000000000000c823 .LASF633
C:\Users\CYMR90~1\AppData\Local\Temp\ccZoYVSv.s:23250  .debug_str:00000000000025d5 .LASF634
C:\Users\CYMR90~1\AppData\Local\Temp\ccZoYVSv.s:29129  .debug_str:000000000001a191 .LASF635
C:\Users\CYMR90~1\AppData\Local\Temp\ccZoYVSv.s:28290  .debug_str:00000000000169ab .LASF636
C:\Users\CYMR90~1\AppData\Local\Temp\ccZoYVSv.s:29917  .debug_str:000000000001d52f .LASF637
C:\Users\CYMR90~1\AppData\Local\Temp\ccZoYVSv.s:23544  .debug_str:0000000000003907 .LASF638
C:\Users\CYMR90~1\AppData\Local\Temp\ccZoYVSv.s:27098  .debug_str:0000000000011d91 .LASF639
C:\Users\CYMR90~1\AppData\Local\Temp\ccZoYVSv.s:24668  .debug_str:0000000000008177 .LASF640
C:\Users\CYMR90~1\AppData\Local\Temp\ccZoYVSv.s:27314  .debug_str:0000000000012b73 .LASF641
C:\Users\CYMR90~1\AppData\Local\Temp\ccZoYVSv.s:25526  .debug_str:000000000000b942 .LASF642
C:\Users\CYMR90~1\AppData\Local\Temp\ccZoYVSv.s:32669  .debug_str:0000000000028140 .LASF643
C:\Users\CYMR90~1\AppData\Local\Temp\ccZoYVSv.s:25900  .debug_str:000000000000d1b3 .LASF644
C:\Users\CYMR90~1\AppData\Local\Temp\ccZoYVSv.s:23714  .debug_str:00000000000043fd .LASF645
C:\Users\CYMR90~1\AppData\Local\Temp\ccZoYVSv.s:24550  .debug_str:0000000000007918 .LASF646
C:\Users\CYMR90~1\AppData\Local\Temp\ccZoYVSv.s:23468  .debug_str:0000000000003401 .LASF647
C:\Users\CYMR90~1\AppData\Local\Temp\ccZoYVSv.s:23836  .debug_str:0000000000004cb0 .LASF648
C:\Users\CYMR90~1\AppData\Local\Temp\ccZoYVSv.s:33203  .debug_str:000000000002a2f6 .LASF649
C:\Users\CYMR90~1\AppData\Local\Temp\ccZoYVSv.s:27010  .debug_str:00000000000116d5 .LASF650
C:\Users\CYMR90~1\AppData\Local\Temp\ccZoYVSv.s:33315  .debug_str:000000000002a9af .LASF651
C:\Users\CYMR90~1\AppData\Local\Temp\ccZoYVSv.s:26618  .debug_str:000000000000fee5 .LASF652
C:\Users\CYMR90~1\AppData\Local\Temp\ccZoYVSv.s:22712  .debug_str:0000000000000513 .LASF653
C:\Users\CYMR90~1\AppData\Local\Temp\ccZoYVSv.s:33539  .debug_str:000000000002b696 .LASF654
C:\Users\CYMR90~1\AppData\Local\Temp\ccZoYVSv.s:24890  .debug_str:00000000000090e5 .LASF655
C:\Users\CYMR90~1\AppData\Local\Temp\ccZoYVSv.s:32743  .debug_str:000000000002864e .LASF656
C:\Users\CYMR90~1\AppData\Local\Temp\ccZoYVSv.s:22764  .debug_str:0000000000000849 .LASF657
C:\Users\CYMR90~1\AppData\Local\Temp\ccZoYVSv.s:33365  .debug_str:000000000002ac7a .LASF658
C:\Users\CYMR90~1\AppData\Local\Temp\ccZoYVSv.s:27410  .debug_str:00000000000131d7 .LASF659
C:\Users\CYMR90~1\AppData\Local\Temp\ccZoYVSv.s:29849  .debug_str:000000000001cfa5 .LASF660
C:\Users\CYMR90~1\AppData\Local\Temp\ccZoYVSv.s:26302  .debug_str:000000000000eb8f .LASF661
C:\Users\CYMR90~1\AppData\Local\Temp\ccZoYVSv.s:30521  .debug_str:000000000001fa5c .LASF662
C:\Users\CYMR90~1\AppData\Local\Temp\ccZoYVSv.s:32527  .debug_str:0000000000027848 .LASF663
C:\Users\CYMR90~1\AppData\Local\Temp\ccZoYVSv.s:26988  .debug_str:000000000001159d .LASF664
C:\Users\CYMR90~1\AppData\Local\Temp\ccZoYVSv.s:26980  .debug_str:0000000000011547 .LASF665
C:\Users\CYMR90~1\AppData\Local\Temp\ccZoYVSv.s:28901  .debug_str:000000000001925f .LASF666
C:\Users\CYMR90~1\AppData\Local\Temp\ccZoYVSv.s:24136  .debug_str:0000000000005f23 .LASF667
C:\Users\CYMR90~1\AppData\Local\Temp\ccZoYVSv.s:34041  .debug_str:000000000002d77b .LASF668
C:\Users\CYMR90~1\AppData\Local\Temp\ccZoYVSv.s:24514  .debug_str:0000000000007705 .LASF669
C:\Users\CYMR90~1\AppData\Local\Temp\ccZoYVSv.s:31189  .debug_str:0000000000022371 .LASF670
C:\Users\CYMR90~1\AppData\Local\Temp\ccZoYVSv.s:27390  .debug_str:0000000000013098 .LASF671
C:\Users\CYMR90~1\AppData\Local\Temp\ccZoYVSv.s:30575  .debug_str:000000000001fd6a .LASF672
C:\Users\CYMR90~1\AppData\Local\Temp\ccZoYVSv.s:31319  .debug_str:0000000000022aca .LASF673
C:\Users\CYMR90~1\AppData\Local\Temp\ccZoYVSv.s:23108  .debug_str:0000000000001dc5 .LASF674
C:\Users\CYMR90~1\AppData\Local\Temp\ccZoYVSv.s:28064  .debug_str:0000000000015b0b .LASF676
C:\Users\CYMR90~1\AppData\Local\Temp\ccZoYVSv.s:31759  .debug_str:0000000000024506 .LASF677
C:\Users\CYMR90~1\AppData\Local\Temp\ccZoYVSv.s:29143  .debug_str:000000000001a258 .LASF678
C:\Users\CYMR90~1\AppData\Local\Temp\ccZoYVSv.s:31861  .debug_str:0000000000024c4f .LASF679
C:\Users\CYMR90~1\AppData\Local\Temp\ccZoYVSv.s:30285  .debug_str:000000000001ec33 .LASF680
C:\Users\CYMR90~1\AppData\Local\Temp\ccZoYVSv.s:33217  .debug_str:000000000002a3f3 .LASF681
C:\Users\CYMR90~1\AppData\Local\Temp\ccZoYVSv.s:23716  .debug_str:000000000000443b .LASF682
C:\Users\CYMR90~1\AppData\Local\Temp\ccZoYVSv.s:23638  .debug_str:0000000000003f01 .LASF683
C:\Users\CYMR90~1\AppData\Local\Temp\ccZoYVSv.s:25030  .debug_str:0000000000009902 .LASF684
C:\Users\CYMR90~1\AppData\Local\Temp\ccZoYVSv.s:29599  .debug_str:000000000001bfc3 .LASF685
C:\Users\CYMR90~1\AppData\Local\Temp\ccZoYVSv.s:31051  .debug_str:0000000000021afe .LASF686
C:\Users\CYMR90~1\AppData\Local\Temp\ccZoYVSv.s:28348  .debug_str:0000000000016d6c .LASF687
C:\Users\CYMR90~1\AppData\Local\Temp\ccZoYVSv.s:26914  .debug_str:0000000000011155 .LASF688
C:\Users\CYMR90~1\AppData\Local\Temp\ccZoYVSv.s:23524  .debug_str:0000000000003799 .LASF689
C:\Users\CYMR90~1\AppData\Local\Temp\ccZoYVSv.s:24406  .debug_str:0000000000007022 .LASF690
C:\Users\CYMR90~1\AppData\Local\Temp\ccZoYVSv.s:27262  .debug_str:00000000000127f7 .LASF691
C:\Users\CYMR90~1\AppData\Local\Temp\ccZoYVSv.s:28104  .debug_str:0000000000015d6d .LASF692
C:\Users\CYMR90~1\AppData\Local\Temp\ccZoYVSv.s:24104  .debug_str:0000000000005d64 .LASF695
C:\Users\CYMR90~1\AppData\Local\Temp\ccZoYVSv.s:28527  .debug_str:0000000000017a6b .LASF696
C:\Users\CYMR90~1\AppData\Local\Temp\ccZoYVSv.s:28415  .debug_str:00000000000173d2 .LASF697
C:\Users\CYMR90~1\AppData\Local\Temp\ccZoYVSv.s:29567  .debug_str:000000000001be1f .LASF698
C:\Users\CYMR90~1\AppData\Local\Temp\ccZoYVSv.s:31799  .debug_str:0000000000024748 .LASF699
C:\Users\CYMR90~1\AppData\Local\Temp\ccZoYVSv.s:27844  .debug_str:0000000000014d52 .LASF702
C:\Users\CYMR90~1\AppData\Local\Temp\ccZoYVSv.s:25052  .debug_str:0000000000009a5f .LASF703
C:\Users\CYMR90~1\AppData\Local\Temp\ccZoYVSv.s:30463  .debug_str:000000000001f6f0 .LASF704
C:\Users\CYMR90~1\AppData\Local\Temp\ccZoYVSv.s:23920  .debug_str:00000000000051d6 .LASF705
C:\Users\CYMR90~1\AppData\Local\Temp\ccZoYVSv.s:28172  .debug_str:0000000000016207 .LASF706
C:\Users\CYMR90~1\AppData\Local\Temp\ccZoYVSv.s:26500  .debug_str:000000000000f76a .LASF707
C:\Users\CYMR90~1\AppData\Local\Temp\ccZoYVSv.s:32943  .debug_str:00000000000293cd .LASF708
C:\Users\CYMR90~1\AppData\Local\Temp\ccZoYVSv.s:32179  .debug_str:00000000000262eb .LASF709
C:\Users\CYMR90~1\AppData\Local\Temp\ccZoYVSv.s:26138  .debug_str:000000000000e16a .LASF710
C:\Users\CYMR90~1\AppData\Local\Temp\ccZoYVSv.s:26656  .debug_str:0000000000010154 .LASF711
C:\Users\CYMR90~1\AppData\Local\Temp\ccZoYVSv.s:28322  .debug_str:0000000000016b7a .LASF712
C:\Users\CYMR90~1\AppData\Local\Temp\ccZoYVSv.s:25296  .debug_str:000000000000a90e .LASF713
C:\Users\CYMR90~1\AppData\Local\Temp\ccZoYVSv.s:33759  .debug_str:000000000002c4be .LASF714
C:\Users\CYMR90~1\AppData\Local\Temp\ccZoYVSv.s:24654  .debug_str:0000000000008090 .LASF715
C:\Users\CYMR90~1\AppData\Local\Temp\ccZoYVSv.s:25566  .debug_str:000000000000bbca .LASF716
C:\Users\CYMR90~1\AppData\Local\Temp\ccZoYVSv.s:30691  .debug_str:0000000000020507 .LASF717
C:\Users\CYMR90~1\AppData\Local\Temp\ccZoYVSv.s:33323  .debug_str:000000000002aa2b .LASF718
C:\Users\CYMR90~1\AppData\Local\Temp\ccZoYVSv.s:31907  .debug_str:0000000000024eef .LASF719
C:\Users\CYMR90~1\AppData\Local\Temp\ccZoYVSv.s:28837  .debug_str:0000000000018d9a .LASF720
C:\Users\CYMR90~1\AppData\Local\Temp\ccZoYVSv.s:26402  .debug_str:000000000000f173 .LASF721
C:\Users\CYMR90~1\AppData\Local\Temp\ccZoYVSv.s:30803  .debug_str:0000000000020ba8 .LASF722
C:\Users\CYMR90~1\AppData\Local\Temp\ccZoYVSv.s:29759  .debug_str:000000000001c97a .LASF723
C:\Users\CYMR90~1\AppData\Local\Temp\ccZoYVSv.s:30337  .debug_str:000000000001ef7c .LASF724
C:\Users\CYMR90~1\AppData\Local\Temp\ccZoYVSv.s:31297  .debug_str:00000000000229ab .LASF725
C:\Users\CYMR90~1\AppData\Local\Temp\ccZoYVSv.s:27514  .debug_str:000000000001392e .LASF726
C:\Users\CYMR90~1\AppData\Local\Temp\ccZoYVSv.s:25290  .debug_str:000000000000a8b4 .LASF727
C:\Users\CYMR90~1\AppData\Local\Temp\ccZoYVSv.s:32271  .debug_str:00000000000268bb .LASF728
C:\Users\CYMR90~1\AppData\Local\Temp\ccZoYVSv.s:30581  .debug_str:000000000001fde8 .LASF729
C:\Users\CYMR90~1\AppData\Local\Temp\ccZoYVSv.s:29027  .debug_str:0000000000019a82 .LASF730
C:\Users\CYMR90~1\AppData\Local\Temp\ccZoYVSv.s:27486  .debug_str:000000000001375a .LASF731
C:\Users\CYMR90~1\AppData\Local\Temp\ccZoYVSv.s:32211  .debug_str:0000000000026506 .LASF732
C:\Users\CYMR90~1\AppData\Local\Temp\ccZoYVSv.s:33965  .debug_str:000000000002d2ae .LASF733
C:\Users\CYMR90~1\AppData\Local\Temp\ccZoYVSv.s:26216  .debug_str:000000000000e638 .LASF734
C:\Users\CYMR90~1\AppData\Local\Temp\ccZoYVSv.s:26890  .debug_str:000000000001101f .LASF735
C:\Users\CYMR90~1\AppData\Local\Temp\ccZoYVSv.s:33893  .debug_str:000000000002cdc3 .LASF736
C:\Users\CYMR90~1\AppData\Local\Temp\ccZoYVSv.s:25870  .debug_str:000000000000cfb7 .LASF737
C:\Users\CYMR90~1\AppData\Local\Temp\ccZoYVSv.s:33825  .debug_str:000000000002c983 .LASF738
C:\Users\CYMR90~1\AppData\Local\Temp\ccZoYVSv.s:33641  .debug_str:000000000002bd12 .LASF739
C:\Users\CYMR90~1\AppData\Local\Temp\ccZoYVSv.s:23074  .debug_str:0000000000001bb6 .LASF740
C:\Users\CYMR90~1\AppData\Local\Temp\ccZoYVSv.s:25808  .debug_str:000000000000cc37 .LASF741
C:\Users\CYMR90~1\AppData\Local\Temp\ccZoYVSv.s:23048  .debug_str:0000000000001a3d .LASF742
C:\Users\CYMR90~1\AppData\Local\Temp\ccZoYVSv.s:26924  .debug_str:00000000000111d0 .LASF743
C:\Users\CYMR90~1\AppData\Local\Temp\ccZoYVSv.s:23510  .debug_str:00000000000036d8 .LASF744
C:\Users\CYMR90~1\AppData\Local\Temp\ccZoYVSv.s:24902  .debug_str:00000000000091a8 .LASF745
C:\Users\CYMR90~1\AppData\Local\Temp\ccZoYVSv.s:31309  .debug_str:0000000000022a4c .LASF746
C:\Users\CYMR90~1\AppData\Local\Temp\ccZoYVSv.s:22942  .debug_str:000000000000137b .LASF747
C:\Users\CYMR90~1\AppData\Local\Temp\ccZoYVSv.s:22932  .debug_str:00000000000012f9 .LASF748
C:\Users\CYMR90~1\AppData\Local\Temp\ccZoYVSv.s:24084  .debug_str:0000000000005beb .LASF750
C:\Users\CYMR90~1\AppData\Local\Temp\ccZoYVSv.s:26840  .debug_str:0000000000010cbd .LASF751
C:\Users\CYMR90~1\AppData\Local\Temp\ccZoYVSv.s:33107  .debug_str:0000000000029d7b .LASF752
C:\Users\CYMR90~1\AppData\Local\Temp\ccZoYVSv.s:26776  .debug_str:0000000000010898 .LASF753
C:\Users\CYMR90~1\AppData\Local\Temp\ccZoYVSv.s:23964  .debug_str:00000000000054ac .LASF754
C:\Users\CYMR90~1\AppData\Local\Temp\ccZoYVSv.s:25550  .debug_str:000000000000bae4 .LASF755
C:\Users\CYMR90~1\AppData\Local\Temp\ccZoYVSv.s:29103  .debug_str:000000000001a014 .LASF756
C:\Users\CYMR90~1\AppData\Local\Temp\ccZoYVSv.s:25040  .debug_str:00000000000099b1 .LASF757
C:\Users\CYMR90~1\AppData\Local\Temp\ccZoYVSv.s:32163  .debug_str:0000000000026203 .LASF758
C:\Users\CYMR90~1\AppData\Local\Temp\ccZoYVSv.s:34003  .debug_str:000000000002d547 .LASF759
C:\Users\CYMR90~1\AppData\Local\Temp\ccZoYVSv.s:29485  .debug_str:000000000001b956 .LASF760
C:\Users\CYMR90~1\AppData\Local\Temp\ccZoYVSv.s:33741  .debug_str:000000000002c378 .LASF761
C:\Users\CYMR90~1\AppData\Local\Temp\ccZoYVSv.s:25480  .debug_str:000000000000b610 .LASF762
C:\Users\CYMR90~1\AppData\Local\Temp\ccZoYVSv.s:29493  .debug_str:000000000001b9ea .LASF765
C:\Users\CYMR90~1\AppData\Local\Temp\ccZoYVSv.s:28140  .debug_str:0000000000015fc1 .LASF766
C:\Users\CYMR90~1\AppData\Local\Temp\ccZoYVSv.s:31197  .debug_str:00000000000223d0 .LASF767
C:\Users\CYMR90~1\AppData\Local\Temp\ccZoYVSv.s:28130  .debug_str:0000000000015f51 .LASF768
C:\Users\CYMR90~1\AppData\Local\Temp\ccZoYVSv.s:23306  .debug_str:00000000000029bd .LASF769
C:\Users\CYMR90~1\AppData\Local\Temp\ccZoYVSv.s:29615  .debug_str:000000000001c106 .LASF770
C:\Users\CYMR90~1\AppData\Local\Temp\ccZoYVSv.s:28230  .debug_str:00000000000165d2 .LASF771
C:\Users\CYMR90~1\AppData\Local\Temp\ccZoYVSv.s:31871  .debug_str:0000000000024cd9 .LASF772
C:\Users\CYMR90~1\AppData\Local\Temp\ccZoYVSv.s:31499  .debug_str:00000000000235cd .LASF773
C:\Users\CYMR90~1\AppData\Local\Temp\ccZoYVSv.s:26222  .debug_str:000000000000e66f .LASF774
C:\Users\CYMR90~1\AppData\Local\Temp\ccZoYVSv.s:32213  .debug_str:000000000002651c .LASF775
C:\Users\CYMR90~1\AppData\Local\Temp\ccZoYVSv.s:26218  .debug_str:000000000000e649 .LASF776
C:\Users\CYMR90~1\AppData\Local\Temp\ccZoYVSv.s:25206  .debug_str:000000000000a423 .LASF777
C:\Users\CYMR90~1\AppData\Local\Temp\ccZoYVSv.s:30271  .debug_str:000000000001eb54 .LASF778
C:\Users\CYMR90~1\AppData\Local\Temp\ccZoYVSv.s:26720  .debug_str:000000000001055c .LASF779
C:\Users\CYMR90~1\AppData\Local\Temp\ccZoYVSv.s:30531  .debug_str:000000000001fafc .LASF780
C:\Users\CYMR90~1\AppData\Local\Temp\ccZoYVSv.s:31193  .debug_str:00000000000223b7 .LASF781
C:\Users\CYMR90~1\AppData\Local\Temp\ccZoYVSv.s:27212  .debug_str:00000000000124ef .LASF782
C:\Users\CYMR90~1\AppData\Local\Temp\ccZoYVSv.s:28356  .debug_str:0000000000016e8f .LASF783
C:\Users\CYMR90~1\AppData\Local\Temp\ccZoYVSv.s:27114  .debug_str:0000000000011e8f .LASF784
C:\Users\CYMR90~1\AppData\Local\Temp\ccZoYVSv.s:27536  .debug_str:0000000000013a94 .LASF785
C:\Users\CYMR90~1\AppData\Local\Temp\ccZoYVSv.s:31571  .debug_str:00000000000239c6 .LASF786
C:\Users\CYMR90~1\AppData\Local\Temp\ccZoYVSv.s:27858  .debug_str:0000000000014e77 .LASF787
C:\Users\CYMR90~1\AppData\Local\Temp\ccZoYVSv.s:30205  .debug_str:000000000001e783 .LASF788
C:\Users\CYMR90~1\AppData\Local\Temp\ccZoYVSv.s:26578  .debug_str:000000000000fc92 .LASF789
C:\Users\CYMR90~1\AppData\Local\Temp\ccZoYVSv.s:24018  .debug_str:00000000000057e9 .LASF790
C:\Users\CYMR90~1\AppData\Local\Temp\ccZoYVSv.s:32571  .debug_str:0000000000027b9b .LASF791
C:\Users\CYMR90~1\AppData\Local\Temp\ccZoYVSv.s:24772  .debug_str:00000000000088ae .LASF792
C:\Users\CYMR90~1\AppData\Local\Temp\ccZoYVSv.s:33971  .debug_str:000000000002d2fc .LASF793
C:\Users\CYMR90~1\AppData\Local\Temp\ccZoYVSv.s:24560  .debug_str:00000000000079ec .LASF794
C:\Users\CYMR90~1\AppData\Local\Temp\ccZoYVSv.s:32819  .debug_str:0000000000028c0b .LASF795
C:\Users\CYMR90~1\AppData\Local\Temp\ccZoYVSv.s:30775  .debug_str:000000000002099c .LASF796
C:\Users\CYMR90~1\AppData\Local\Temp\ccZoYVSv.s:33531  .debug_str:000000000002b645 .LASF797
C:\Users\CYMR90~1\AppData\Local\Temp\ccZoYVSv.s:24388  .debug_str:0000000000006ec7 .LASF798
C:\Users\CYMR90~1\AppData\Local\Temp\ccZoYVSv.s:32885  .debug_str:000000000002908a .LASF799
C:\Users\CYMR90~1\AppData\Local\Temp\ccZoYVSv.s:23980  .debug_str:00000000000055a3 .LASF800
C:\Users\CYMR90~1\AppData\Local\Temp\ccZoYVSv.s:29243  .debug_str:000000000001a99b .LASF801
C:\Users\CYMR90~1\AppData\Local\Temp\ccZoYVSv.s:29273  .debug_str:000000000001ab40 .LASF802
C:\Users\CYMR90~1\AppData\Local\Temp\ccZoYVSv.s:25110  .debug_str:0000000000009e2c .LASF803
C:\Users\CYMR90~1\AppData\Local\Temp\ccZoYVSv.s:27618  .debug_str:0000000000013f78 .LASF804
C:\Users\CYMR90~1\AppData\Local\Temp\ccZoYVSv.s:24404  .debug_str:0000000000006fc7 .LASF805
C:\Users\CYMR90~1\AppData\Local\Temp\ccZoYVSv.s:27064  .debug_str:0000000000011acc .LASF806
C:\Users\CYMR90~1\AppData\Local\Temp\ccZoYVSv.s:30227  .debug_str:000000000001e899 .LASF807
C:\Users\CYMR90~1\AppData\Local\Temp\ccZoYVSv.s:29811  .debug_str:000000000001cd72 .LASF808
C:\Users\CYMR90~1\AppData\Local\Temp\ccZoYVSv.s:32281  .debug_str:0000000000026952 .LASF809
C:\Users\CYMR90~1\AppData\Local\Temp\ccZoYVSv.s:33745  .debug_str:000000000002c3cd .LASF810
C:\Users\CYMR90~1\AppData\Local\Temp\ccZoYVSv.s:24796  .debug_str:0000000000008a22 .LASF811
C:\Users\CYMR90~1\AppData\Local\Temp\ccZoYVSv.s:23700  .debug_str:0000000000004360 .LASF812
C:\Users\CYMR90~1\AppData\Local\Temp\ccZoYVSv.s:33779  .debug_str:000000000002c681 .LASF813
C:\Users\CYMR90~1\AppData\Local\Temp\ccZoYVSv.s:24080  .debug_str:0000000000005bc4 .LASF814
C:\Users\CYMR90~1\AppData\Local\Temp\ccZoYVSv.s:24298  .debug_str:00000000000068ec .LASF815
C:\Users\CYMR90~1\AppData\Local\Temp\ccZoYVSv.s:29583  .debug_str:000000000001bef0 .LASF816
C:\Users\CYMR90~1\AppData\Local\Temp\ccZoYVSv.s:24964  .debug_str:00000000000094fd .LASF817
C:\Users\CYMR90~1\AppData\Local\Temp\ccZoYVSv.s:29725  .debug_str:000000000001c7b4 .LASF818
C:\Users\CYMR90~1\AppData\Local\Temp\ccZoYVSv.s:29619  .debug_str:000000000001c11e .LASF819
C:\Users\CYMR90~1\AppData\Local\Temp\ccZoYVSv.s:22808  .debug_str:0000000000000b23 .LASF820
C:\Users\CYMR90~1\AppData\Local\Temp\ccZoYVSv.s:33367  .debug_str:000000000002ac8a .LASF821
C:\Users\CYMR90~1\AppData\Local\Temp\ccZoYVSv.s:31865  .debug_str:0000000000024c8d .LASF822
C:\Users\CYMR90~1\AppData\Local\Temp\ccZoYVSv.s:24932  .debug_str:0000000000009323 .LASF823
C:\Users\CYMR90~1\AppData\Local\Temp\ccZoYVSv.s:28278  .debug_str:0000000000016908 .LASF824
C:\Users\CYMR90~1\AppData\Local\Temp\ccZoYVSv.s:29919  .debug_str:000000000001d559 .LASF825
C:\Users\CYMR90~1\AppData\Local\Temp\ccZoYVSv.s:28062  .debug_str:0000000000015aea .LASF826
C:\Users\CYMR90~1\AppData\Local\Temp\ccZoYVSv.s:23588  .debug_str:0000000000003be7 .LASF827
C:\Users\CYMR90~1\AppData\Local\Temp\ccZoYVSv.s:26384  .debug_str:000000000000f081 .LASF828
C:\Users\CYMR90~1\AppData\Local\Temp\ccZoYVSv.s:31975  .debug_str:00000000000253ae .LASF829
C:\Users\CYMR90~1\AppData\Local\Temp\ccZoYVSv.s:32153  .debug_str:0000000000026143 .LASF830
C:\Users\CYMR90~1\AppData\Local\Temp\ccZoYVSv.s:25556  .debug_str:000000000000bb3f .LASF831
C:\Users\CYMR90~1\AppData\Local\Temp\ccZoYVSv.s:26328  .debug_str:000000000000ed3b .LASF832
C:\Users\CYMR90~1\AppData\Local\Temp\ccZoYVSv.s:24164  .debug_str:00000000000060a3 .LASF833
C:\Users\CYMR90~1\AppData\Local\Temp\ccZoYVSv.s:26968  .debug_str:000000000001146d .LASF834
C:\Users\CYMR90~1\AppData\Local\Temp\ccZoYVSv.s:28759  .debug_str:00000000000188bd .LASF835
C:\Users\CYMR90~1\AppData\Local\Temp\ccZoYVSv.s:26872  .debug_str:0000000000010eac .LASF836
C:\Users\CYMR90~1\AppData\Local\Temp\ccZoYVSv.s:30683  .debug_str:000000000002048b .LASF837
C:\Users\CYMR90~1\AppData\Local\Temp\ccZoYVSv.s:24836  .debug_str:0000000000008cf8 .LASF838
C:\Users\CYMR90~1\AppData\Local\Temp\ccZoYVSv.s:24006  .debug_str:0000000000005748 .LASF839
C:\Users\CYMR90~1\AppData\Local\Temp\ccZoYVSv.s:26766  .debug_str:00000000000107e7 .LASF840
C:\Users\CYMR90~1\AppData\Local\Temp\ccZoYVSv.s:25692  .debug_str:000000000000c4cd .LASF841
C:\Users\CYMR90~1\AppData\Local\Temp\ccZoYVSv.s:29829  .debug_str:000000000001ce88 .LASF842
C:\Users\CYMR90~1\AppData\Local\Temp\ccZoYVSv.s:22882  .debug_str:000000000000102f .LASF843
C:\Users\CYMR90~1\AppData\Local\Temp\ccZoYVSv.s:23248  .debug_str:00000000000025c5 .LASF844
C:\Users\CYMR90~1\AppData\Local\Temp\ccZoYVSv.s:31721  .debug_str:00000000000242fd .LASF845
C:\Users\CYMR90~1\AppData\Local\Temp\ccZoYVSv.s:22638  .debug_str:0000000000000096 .LASF846
C:\Users\CYMR90~1\AppData\Local\Temp\ccZoYVSv.s:24644  .debug_str:0000000000008003 .LASF847
C:\Users\CYMR90~1\AppData\Local\Temp\ccZoYVSv.s:30539  .debug_str:000000000001fb61 .LASF848
C:\Users\CYMR90~1\AppData\Local\Temp\ccZoYVSv.s:24612  .debug_str:0000000000007d74 .LASF849
C:\Users\CYMR90~1\AppData\Local\Temp\ccZoYVSv.s:25986  .debug_str:000000000000d7db .LASF852
C:\Users\CYMR90~1\AppData\Local\Temp\ccZoYVSv.s:32937  .debug_str:0000000000029375 .LASF853
C:\Users\CYMR90~1\AppData\Local\Temp\ccZoYVSv.s:27920  .debug_str:00000000000152ba .LASF854
C:\Users\CYMR90~1\AppData\Local\Temp\ccZoYVSv.s:31203  .debug_str:0000000000022465 .LASF856
C:\Users\CYMR90~1\AppData\Local\Temp\ccZoYVSv.s:30057  .debug_str:000000000001ddea .LASF857
C:\Users\CYMR90~1\AppData\Local\Temp\ccZoYVSv.s:32755  .debug_str:0000000000028702 .LASF858
C:\Users\CYMR90~1\AppData\Local\Temp\ccZoYVSv.s:25974  .debug_str:000000000000d710 .LASF859
C:\Users\CYMR90~1\AppData\Local\Temp\ccZoYVSv.s:26922  .debug_str:00000000000111c6 .LASF860
C:\Users\CYMR90~1\AppData\Local\Temp\ccZoYVSv.s:31135  .debug_str:0000000000022013 .LASF861
C:\Users\CYMR90~1\AppData\Local\Temp\ccZoYVSv.s:30263  .debug_str:000000000001eb04 .LASF862
C:\Users\CYMR90~1\AppData\Local\Temp\ccZoYVSv.s:22984  .debug_str:00000000000015e7 .LASF863
C:\Users\CYMR90~1\AppData\Local\Temp\ccZoYVSv.s:23644  .debug_str:0000000000003f3a .LASF864
C:\Users\CYMR90~1\AppData\Local\Temp\ccZoYVSv.s:24052  .debug_str:0000000000005a1d .LASF865
C:\Users\CYMR90~1\AppData\Local\Temp\ccZoYVSv.s:25238  .debug_str:000000000000a608 .LASF866
C:\Users\CYMR90~1\AppData\Local\Temp\ccZoYVSv.s:24712  .debug_str:0000000000008523 .LASF867
C:\Users\CYMR90~1\AppData\Local\Temp\ccZoYVSv.s:29985  .debug_str:000000000001d92e .LASF868
C:\Users\CYMR90~1\AppData\Local\Temp\ccZoYVSv.s:30623  .debug_str:00000000000200ae .LASF869
C:\Users\CYMR90~1\AppData\Local\Temp\ccZoYVSv.s:31735  .debug_str:00000000000243c1 .LASF870
C:\Users\CYMR90~1\AppData\Local\Temp\ccZoYVSv.s:24870  .debug_str:0000000000008f95 .LASF871
C:\Users\CYMR90~1\AppData\Local\Temp\ccZoYVSv.s:25314  .debug_str:000000000000ab55 .LASF872
C:\Users\CYMR90~1\AppData\Local\Temp\ccZoYVSv.s:29821  .debug_str:000000000001ce16 .LASF873
C:\Users\CYMR90~1\AppData\Local\Temp\ccZoYVSv.s:32457  .debug_str:0000000000027409 .LASF874
C:\Users\CYMR90~1\AppData\Local\Temp\ccZoYVSv.s:27134  .debug_str:0000000000011fc5 .LASF875
C:\Users\CYMR90~1\AppData\Local\Temp\ccZoYVSv.s:27822  .debug_str:0000000000014c55 .LASF876
C:\Users\CYMR90~1\AppData\Local\Temp\ccZoYVSv.s:25116  .debug_str:0000000000009e81 .LASF877
C:\Users\CYMR90~1\AppData\Local\Temp\ccZoYVSv.s:29523  .debug_str:000000000001bbbd .LASF878
C:\Users\CYMR90~1\AppData\Local\Temp\ccZoYVSv.s:28012  .debug_str:0000000000015838 .LASF879
C:\Users\CYMR90~1\AppData\Local\Temp\ccZoYVSv.s:28475  .debug_str:0000000000017748 .LASF880
C:\Users\CYMR90~1\AppData\Local\Temp\ccZoYVSv.s:23982  .debug_str:00000000000055bc .LASF881
C:\Users\CYMR90~1\AppData\Local\Temp\ccZoYVSv.s:27350  .debug_str:0000000000012dfd .LASF882
C:\Users\CYMR90~1\AppData\Local\Temp\ccZoYVSv.s:30507  .debug_str:000000000001f9a3 .LASF883
C:\Users\CYMR90~1\AppData\Local\Temp\ccZoYVSv.s:30695  .debug_str:0000000000020534 .LASF884
C:\Users\CYMR90~1\AppData\Local\Temp\ccZoYVSv.s:34027  .debug_str:000000000002d67f .LASF885
C:\Users\CYMR90~1\AppData\Local\Temp\ccZoYVSv.s:29529  .debug_str:000000000001bc15 .LASF886
C:\Users\CYMR90~1\AppData\Local\Temp\ccZoYVSv.s:24976  .debug_str:00000000000095a8 .LASF887
C:\Users\CYMR90~1\AppData\Local\Temp\ccZoYVSv.s:31687  .debug_str:0000000000024122 .LASF888
C:\Users\CYMR90~1\AppData\Local\Temp\ccZoYVSv.s:27292  .debug_str:0000000000012a09 .LASF889
C:\Users\CYMR90~1\AppData\Local\Temp\ccZoYVSv.s:31621  .debug_str:0000000000023cc5 .LASF890
C:\Users\CYMR90~1\AppData\Local\Temp\ccZoYVSv.s:23796  .debug_str:0000000000004a6f .LASF891
C:\Users\CYMR90~1\AppData\Local\Temp\ccZoYVSv.s:24632  .debug_str:0000000000007e9d .LASF892
C:\Users\CYMR90~1\AppData\Local\Temp\ccZoYVSv.s:32403  .debug_str:00000000000270e5 .LASF893
C:\Users\CYMR90~1\AppData\Local\Temp\ccZoYVSv.s:31779  .debug_str:000000000002463e .LASF894
C:\Users\CYMR90~1\AppData\Local\Temp\ccZoYVSv.s:22954  .debug_str:0000000000001425 .LASF895
C:\Users\CYMR90~1\AppData\Local\Temp\ccZoYVSv.s:27680  .debug_str:0000000000014339 .LASF896
C:\Users\CYMR90~1\AppData\Local\Temp\ccZoYVSv.s:23886  .debug_str:0000000000004fd4 .LASF897
C:\Users\CYMR90~1\AppData\Local\Temp\ccZoYVSv.s:25106  .debug_str:0000000000009ded .LASF898
C:\Users\CYMR90~1\AppData\Local\Temp\ccZoYVSv.s:32697  .debug_str:0000000000028360 .LASF899
C:\Users\CYMR90~1\AppData\Local\Temp\ccZoYVSv.s:25436  .debug_str:000000000000b3aa .LASF900
C:\Users\CYMR90~1\AppData\Local\Temp\ccZoYVSv.s:29573  .debug_str:000000000001be55 .LASF901
C:\Users\CYMR90~1\AppData\Local\Temp\ccZoYVSv.s:33239  .debug_str:000000000002a559 .LASF902
C:\Users\CYMR90~1\AppData\Local\Temp\ccZoYVSv.s:31973  .debug_str:0000000000025388 .LASF903
C:\Users\CYMR90~1\AppData\Local\Temp\ccZoYVSv.s:32841  .debug_str:0000000000028d74 .LASF904
C:\Users\CYMR90~1\AppData\Local\Temp\ccZoYVSv.s:27334  .debug_str:0000000000012cef .LASF905
C:\Users\CYMR90~1\AppData\Local\Temp\ccZoYVSv.s:24760  .debug_str:0000000000008814 .LASF906
C:\Users\CYMR90~1\AppData\Local\Temp\ccZoYVSv.s:29915  .debug_str:000000000001d513 .LASF907
C:\Users\CYMR90~1\AppData\Local\Temp\ccZoYVSv.s:26270  .debug_str:000000000000e992 .LASF908
C:\Users\CYMR90~1\AppData\Local\Temp\ccZoYVSv.s:32673  .debug_str:00000000000281a0 .LASF909
C:\Users\CYMR90~1\AppData\Local\Temp\ccZoYVSv.s:26892  .debug_str:0000000000011030 .LASF910
C:\Users\CYMR90~1\AppData\Local\Temp\ccZoYVSv.s:23340  .debug_str:0000000000002bf2 .LASF911
C:\Users\CYMR90~1\AppData\Local\Temp\ccZoYVSv.s:22926  .debug_str:00000000000012bc .LASF912
C:\Users\CYMR90~1\AppData\Local\Temp\ccZoYVSv.s:31053  .debug_str:0000000000021b22 .LASF913
C:\Users\CYMR90~1\AppData\Local\Temp\ccZoYVSv.s:31955  .debug_str:0000000000025258 .LASF914
C:\Users\CYMR90~1\AppData\Local\Temp\ccZoYVSv.s:25820  .debug_str:000000000000cd09 .LASF915
C:\Users\CYMR90~1\AppData\Local\Temp\ccZoYVSv.s:26128  .debug_str:000000000000e0ab .LASF916
C:\Users\CYMR90~1\AppData\Local\Temp\ccZoYVSv.s:26704  .debug_str:0000000000010447 .LASF917
C:\Users\CYMR90~1\AppData\Local\Temp\ccZoYVSv.s:33483  .debug_str:000000000002b34d .LASF918
C:\Users\CYMR90~1\AppData\Local\Temp\ccZoYVSv.s:22912  .debug_str:00000000000011c8 .LASF919
C:\Users\CYMR90~1\AppData\Local\Temp\ccZoYVSv.s:25422  .debug_str:000000000000b2bf .LASF920
C:\Users\CYMR90~1\AppData\Local\Temp\ccZoYVSv.s:31909  .debug_str:0000000000024f04 .LASF921
C:\Users\CYMR90~1\AppData\Local\Temp\ccZoYVSv.s:29267  .debug_str:000000000001aace .LASF922
C:\Users\CYMR90~1\AppData\Local\Temp\ccZoYVSv.s:32437  .debug_str:00000000000272da .LASF923
C:\Users\CYMR90~1\AppData\Local\Temp\ccZoYVSv.s:28395  .debug_str:00000000000172a0 .LASF924
C:\Users\CYMR90~1\AppData\Local\Temp\ccZoYVSv.s:23298  .debug_str:000000000000292a .LASF925
C:\Users\CYMR90~1\AppData\Local\Temp\ccZoYVSv.s:29487  .debug_str:000000000001b990 .LASF926
C:\Users\CYMR90~1\AppData\Local\Temp\ccZoYVSv.s:23028  .debug_str:00000000000018f3 .LASF927
C:\Users\CYMR90~1\AppData\Local\Temp\ccZoYVSv.s:27850  .debug_str:0000000000014df1 .LASF928
C:\Users\CYMR90~1\AppData\Local\Temp\ccZoYVSv.s:30571  .debug_str:000000000001fd31 .LASF929
C:\Users\CYMR90~1\AppData\Local\Temp\ccZoYVSv.s:33743  .debug_str:000000000002c3b0 .LASF930
C:\Users\CYMR90~1\AppData\Local\Temp\ccZoYVSv.s:33963  .debug_str:000000000002d290 .LASF931
C:\Users\CYMR90~1\AppData\Local\Temp\ccZoYVSv.s:30465  .debug_str:000000000001f704 .LASF932
C:\Users\CYMR90~1\AppData\Local\Temp\ccZoYVSv.s:33219  .debug_str:000000000002a403 .LASF933
C:\Users\CYMR90~1\AppData\Local\Temp\ccZoYVSv.s:28194  .debug_str:00000000000163b9 .LASF934
C:\Users\CYMR90~1\AppData\Local\Temp\ccZoYVSv.s:29035  .debug_str:0000000000019afc .LASF935
C:\Users\CYMR90~1\AppData\Local\Temp\ccZoYVSv.s:28066  .debug_str:0000000000015b1f .LASF936
C:\Users\CYMR90~1\AppData\Local\Temp\ccZoYVSv.s:32053  .debug_str:000000000002595c .LASF937
C:\Users\CYMR90~1\AppData\Local\Temp\ccZoYVSv.s:22824  .debug_str:0000000000000c2b .LASF938
C:\Users\CYMR90~1\AppData\Local\Temp\ccZoYVSv.s:30843  .debug_str:0000000000020e21 .LASF939
C:\Users\CYMR90~1\AppData\Local\Temp\ccZoYVSv.s:32139  .debug_str:0000000000025fdd .LASF940
C:\Users\CYMR90~1\AppData\Local\Temp\ccZoYVSv.s:25558  .debug_str:000000000000bb5d .LASF941
C:\Users\CYMR90~1\AppData\Local\Temp\ccZoYVSv.s:29255  .debug_str:000000000001aa26 .LASF942
C:\Users\CYMR90~1\AppData\Local\Temp\ccZoYVSv.s:26314  .debug_str:000000000000ec31 .LASF943
C:\Users\CYMR90~1\AppData\Local\Temp\ccZoYVSv.s:32259  .debug_str:00000000000267ea .LASF944
C:\Users\CYMR90~1\AppData\Local\Temp\ccZoYVSv.s:29667  .debug_str:000000000001c42c .LASF945
C:\Users\CYMR90~1\AppData\Local\Temp\ccZoYVSv.s:26522  .debug_str:000000000000f8b8 .LASF946
C:\Users\CYMR90~1\AppData\Local\Temp\ccZoYVSv.s:28553  .debug_str:0000000000017c13 .LASF947
C:\Users\CYMR90~1\AppData\Local\Temp\ccZoYVSv.s:30189  .debug_str:000000000001e69d .LASF948
C:\Users\CYMR90~1\AppData\Local\Temp\ccZoYVSv.s:26868  .debug_str:0000000000010e6e .LASF949
C:\Users\CYMR90~1\AppData\Local\Temp\ccZoYVSv.s:25876  .debug_str:000000000000d00d .LASF950
C:\Users\CYMR90~1\AppData\Local\Temp\ccZoYVSv.s:24466  .debug_str:00000000000073dd .LASF952
C:\Users\CYMR90~1\AppData\Local\Temp\ccZoYVSv.s:27984  .debug_str:000000000001567e .LASF953
C:\Users\CYMR90~1\AppData\Local\Temp\ccZoYVSv.s:25912  .debug_str:000000000000d28a .LASF954
C:\Users\CYMR90~1\AppData\Local\Temp\ccZoYVSv.s:33955  .debug_str:000000000002d21b .LASF955
C:\Users\CYMR90~1\AppData\Local\Temp\ccZoYVSv.s:33121  .debug_str:0000000000029e24 .LASF956
C:\Users\CYMR90~1\AppData\Local\Temp\ccZoYVSv.s:33209  .debug_str:000000000002a36d .LASF960
C:\Users\CYMR90~1\AppData\Local\Temp\ccZoYVSv.s:25004  .debug_str:00000000000097a4 .LASF961
C:\Users\CYMR90~1\AppData\Local\Temp\ccZoYVSv.s:32467  .debug_str:0000000000027494 .LASF962
C:\Users\CYMR90~1\AppData\Local\Temp\ccZoYVSv.s:27106  .debug_str:0000000000011e13 .LASF963
C:\Users\CYMR90~1\AppData\Local\Temp\ccZoYVSv.s:24492  .debug_str:00000000000075c4 .LASF964
C:\Users\CYMR90~1\AppData\Local\Temp\ccZoYVSv.s:31235  .debug_str:000000000002261a .LASF965
C:\Users\CYMR90~1\AppData\Local\Temp\ccZoYVSv.s:29479  .debug_str:000000000001b8f6 .LASF966
C:\Users\CYMR90~1\AppData\Local\Temp\ccZoYVSv.s:32409  .debug_str:0000000000027141 .LASF967
C:\Users\CYMR90~1\AppData\Local\Temp\ccZoYVSv.s:33525  .debug_str:000000000002b5d7 .LASF968
C:\Users\CYMR90~1\AppData\Local\Temp\ccZoYVSv.s:24220  .debug_str:000000000000644b .LASF969
C:\Users\CYMR90~1\AppData\Local\Temp\ccZoYVSv.s:27720  .debug_str:00000000000145e6 .LASF970
C:\Users\CYMR90~1\AppData\Local\Temp\ccZoYVSv.s:33613  .debug_str:000000000002bb59 .LASF971
C:\Users\CYMR90~1\AppData\Local\Temp\ccZoYVSv.s:26324  .debug_str:000000000000ecfd .LASF972
C:\Users\CYMR90~1\AppData\Local\Temp\ccZoYVSv.s:26292  .debug_str:000000000000eaf8 .LASF973
C:\Users\CYMR90~1\AppData\Local\Temp\ccZoYVSv.s:25936  .debug_str:000000000000d410 .LASF974
C:\Users\CYMR90~1\AppData\Local\Temp\ccZoYVSv.s:28328  .debug_str:0000000000016bf4 .LASF975
C:\Users\CYMR90~1\AppData\Local\Temp\ccZoYVSv.s:33989  .debug_str:000000000002d3cf .LASF976
C:\Users\CYMR90~1\AppData\Local\Temp\ccZoYVSv.s:25872  .debug_str:000000000000cfc8 .LASF977
C:\Users\CYMR90~1\AppData\Local\Temp\ccZoYVSv.s:34015  .debug_str:000000000002d5fc .LASF978
C:\Users\CYMR90~1\AppData\Local\Temp\ccZoYVSv.s:32241  .debug_str:00000000000266b1 .LASF979
C:\Users\CYMR90~1\AppData\Local\Temp\ccZoYVSv.s:32301  .debug_str:0000000000026a76 .LASF980
C:\Users\CYMR90~1\AppData\Local\Temp\ccZoYVSv.s:26382  .debug_str:000000000000f067 .LASF981
C:\Users\CYMR90~1\AppData\Local\Temp\ccZoYVSv.s:23930  .debug_str:0000000000005280 .LASF982
C:\Users\CYMR90~1\AppData\Local\Temp\ccZoYVSv.s:27130  .debug_str:0000000000011fa8 .LASF983
C:\Users\CYMR90~1\AppData\Local\Temp\ccZoYVSv.s:29897  .debug_str:000000000001d365 .LASF984
C:\Users\CYMR90~1\AppData\Local\Temp\ccZoYVSv.s:29911  .debug_str:000000000001d44c .LASF985
C:\Users\CYMR90~1\AppData\Local\Temp\ccZoYVSv.s:31533  .debug_str:00000000000237b5 .LASF986
C:\Users\CYMR90~1\AppData\Local\Temp\ccZoYVSv.s:28136  .debug_str:0000000000015f9d .LASF987
C:\Users\CYMR90~1\AppData\Local\Temp\ccZoYVSv.s:23360  .debug_str:0000000000002d21 .LASF988
C:\Users\CYMR90~1\AppData\Local\Temp\ccZoYVSv.s:31443  .debug_str:0000000000023296 .LASF989
C:\Users\CYMR90~1\AppData\Local\Temp\ccZoYVSv.s:28851  .debug_str:0000000000018e66 .LASF990
C:\Users\CYMR90~1\AppData\Local\Temp\ccZoYVSv.s:25868  .debug_str:000000000000cfa0 .LASF991
C:\Users\CYMR90~1\AppData\Local\Temp\ccZoYVSv.s:32411  .debug_str:0000000000027169 .LASF992
C:\Users\CYMR90~1\AppData\Local\Temp\ccZoYVSv.s:24512  .debug_str:00000000000076ed .LASF993
C:\Users\CYMR90~1\AppData\Local\Temp\ccZoYVSv.s:32223  .debug_str:0000000000026586 .LASF994
C:\Users\CYMR90~1\AppData\Local\Temp\ccZoYVSv.s:28933  .debug_str:00000000000194f3 .LASF995
C:\Users\CYMR90~1\AppData\Local\Temp\ccZoYVSv.s:33027  .debug_str:00000000000298d7 .LASF996
C:\Users\CYMR90~1\AppData\Local\Temp\ccZoYVSv.s:30099  .debug_str:000000000001e04d .LASF997
C:\Users\CYMR90~1\AppData\Local\Temp\ccZoYVSv.s:30169  .debug_str:000000000001e554 .LASF998
C:\Users\CYMR90~1\AppData\Local\Temp\ccZoYVSv.s:23260  .debug_str:0000000000002663 .LASF999
C:\Users\CYMR90~1\AppData\Local\Temp\ccZoYVSv.s:23594  .debug_str:0000000000003c3f .LASF1000
C:\Users\CYMR90~1\AppData\Local\Temp\ccZoYVSv.s:31885  .debug_str:0000000000024d99 .LASF1001
C:\Users\CYMR90~1\AppData\Local\Temp\ccZoYVSv.s:26712  .debug_str:00000000000104cf .LASF1002
C:\Users\CYMR90~1\AppData\Local\Temp\ccZoYVSv.s:23878  .debug_str:0000000000004f7b .LASF1003
C:\Users\CYMR90~1\AppData\Local\Temp\ccZoYVSv.s:29709  .debug_str:000000000001c6cd .LASF1004
C:\Users\CYMR90~1\AppData\Local\Temp\ccZoYVSv.s:27078  .debug_str:0000000000011be1 .LASF1005
C:\Users\CYMR90~1\AppData\Local\Temp\ccZoYVSv.s:25834  .debug_str:000000000000cde3 .LASF1006
C:\Users\CYMR90~1\AppData\Local\Temp\ccZoYVSv.s:24194  .debug_str:00000000000062b4 .LASF1007
C:\Users\CYMR90~1\AppData\Local\Temp\ccZoYVSv.s:31231  .debug_str:00000000000225e2 .LASF1008
C:\Users\CYMR90~1\AppData\Local\Temp\ccZoYVSv.s:28629  .debug_str:00000000000180b8 .LASF1009
C:\Users\CYMR90~1\AppData\Local\Temp\ccZoYVSv.s:28783  .debug_str:0000000000018a12 .LASF1010
C:\Users\CYMR90~1\AppData\Local\Temp\ccZoYVSv.s:26144  .debug_str:000000000000e1b8 .LASF1011
C:\Users\CYMR90~1\AppData\Local\Temp\ccZoYVSv.s:29957  .debug_str:000000000001d787 .LASF1012
C:\Users\CYMR90~1\AppData\Local\Temp\ccZoYVSv.s:26342  .debug_str:000000000000ee08 .LASF1013
C:\Users\CYMR90~1\AppData\Local\Temp\ccZoYVSv.s:29053  .debug_str:0000000000019c80 .LASF1014
C:\Users\CYMR90~1\AppData\Local\Temp\ccZoYVSv.s:23592  .debug_str:0000000000003c29 .LASF1015
C:\Users\CYMR90~1\AppData\Local\Temp\ccZoYVSv.s:24088  .debug_str:0000000000005c21 .LASF1016
C:\Users\CYMR90~1\AppData\Local\Temp\ccZoYVSv.s:24042  .debug_str:0000000000005972 .LASF1017
C:\Users\CYMR90~1\AppData\Local\Temp\ccZoYVSv.s:32561  .debug_str:0000000000027a63 .LASF1018
C:\Users\CYMR90~1\AppData\Local\Temp\ccZoYVSv.s:26392  .debug_str:000000000000f0e9 .LASF1019
C:\Users\CYMR90~1\AppData\Local\Temp\ccZoYVSv.s:23254  .debug_str:000000000000261a .LASF1020
C:\Users\CYMR90~1\AppData\Local\Temp\ccZoYVSv.s:28665  .debug_str:00000000000182fb .LASF1021
C:\Users\CYMR90~1\AppData\Local\Temp\ccZoYVSv.s:25690  .debug_str:000000000000c4b5 .LASF1022
C:\Users\CYMR90~1\AppData\Local\Temp\ccZoYVSv.s:32487  .debug_str:00000000000275af .LASF1023
C:\Users\CYMR90~1\AppData\Local\Temp\ccZoYVSv.s:24914  .debug_str:000000000000924b .LASF1024
C:\Users\CYMR90~1\AppData\Local\Temp\ccZoYVSv.s:27404  .debug_str:0000000000013171 .LASF1025
C:\Users\CYMR90~1\AppData\Local\Temp\ccZoYVSv.s:26896  .debug_str:0000000000011071 .LASF1026
C:\Users\CYMR90~1\AppData\Local\Temp\ccZoYVSv.s:27842  .debug_str:0000000000014d3d .LASF1027
C:\Users\CYMR90~1\AppData\Local\Temp\ccZoYVSv.s:30035  .debug_str:000000000001dc6e .LASF1028
C:\Users\CYMR90~1\AppData\Local\Temp\ccZoYVSv.s:30425  .debug_str:000000000001f47c .LASF1029
C:\Users\CYMR90~1\AppData\Local\Temp\ccZoYVSv.s:31753  .debug_str:00000000000244b4 .LASF1030
C:\Users\CYMR90~1\AppData\Local\Temp\ccZoYVSv.s:30797  .debug_str:0000000000020b62 .LASF1031
C:\Users\CYMR90~1\AppData\Local\Temp\ccZoYVSv.s:33123  .debug_str:0000000000029e8c .LASF1032
C:\Users\CYMR90~1\AppData\Local\Temp\ccZoYVSv.s:25062  .debug_str:0000000000009b3a .LASF1033
C:\Users\CYMR90~1\AppData\Local\Temp\ccZoYVSv.s:23938  .debug_str:0000000000005302 .LASF1034
C:\Users\CYMR90~1\AppData\Local\Temp\ccZoYVSv.s:28981  .debug_str:00000000000197b9 .LASF1035
C:\Users\CYMR90~1\AppData\Local\Temp\ccZoYVSv.s:29245  .debug_str:000000000001a9b5 .LASF1036
C:\Users\CYMR90~1\AppData\Local\Temp\ccZoYVSv.s:31547  .debug_str:000000000002384c .LASF1037
C:\Users\CYMR90~1\AppData\Local\Temp\ccZoYVSv.s:26562  .debug_str:000000000000fbcd .LASF1038
C:\Users\CYMR90~1\AppData\Local\Temp\ccZoYVSv.s:30141  .debug_str:000000000001e397 .LASF1039
C:\Users\CYMR90~1\AppData\Local\Temp\ccZoYVSv.s:28004  .debug_str:00000000000157bb .LASF1040
C:\Users\CYMR90~1\AppData\Local\Temp\ccZoYVSv.s:26472  .debug_str:000000000000f5bb .LASF1041
C:\Users\CYMR90~1\AppData\Local\Temp\ccZoYVSv.s:32291  .debug_str:00000000000269dd .LASF1042
C:\Users\CYMR90~1\AppData\Local\Temp\ccZoYVSv.s:26714  .debug_str:00000000000104e6 .LASF1043
C:\Users\CYMR90~1\AppData\Local\Temp\ccZoYVSv.s:22658  .debug_str:00000000000001c3 .LASF1044
C:\Users\CYMR90~1\AppData\Local\Temp\ccZoYVSv.s:24926  .debug_str:00000000000092d2 .LASF1045
C:\Users\CYMR90~1\AppData\Local\Temp\ccZoYVSv.s:29177  .debug_str:000000000001a449 .LASF1046
C:\Users\CYMR90~1\AppData\Local\Temp\ccZoYVSv.s:32655  .debug_str:000000000002806e .LASF1047
C:\Users\CYMR90~1\AppData\Local\Temp\ccZoYVSv.s:31595  .debug_str:0000000000023b1a .LASF1048
C:\Users\CYMR90~1\AppData\Local\Temp\ccZoYVSv.s:30391  .debug_str:000000000001f257 .LASF1049
C:\Users\CYMR90~1\AppData\Local\Temp\ccZoYVSv.s:23438  .debug_str:000000000000322f .LASF1050
C:\Users\CYMR90~1\AppData\Local\Temp\ccZoYVSv.s:30401  .debug_str:000000000001f2e2 .LASF1051
C:\Users\CYMR90~1\AppData\Local\Temp\ccZoYVSv.s:30605  .debug_str:000000000001ff89 .LASF1052
C:\Users\CYMR90~1\AppData\Local\Temp\ccZoYVSv.s:25434  .debug_str:000000000000b398 .LASF1053
C:\Users\CYMR90~1\AppData\Local\Temp\ccZoYVSv.s:31491  .debug_str:000000000002356c .LASF1054
C:\Users\CYMR90~1\AppData\Local\Temp\ccZoYVSv.s:27376  .debug_str:0000000000012fa5 .LASF1055
C:\Users\CYMR90~1\AppData\Local\Temp\ccZoYVSv.s:26320  .debug_str:000000000000ecab .LASF1056
C:\Users\CYMR90~1\AppData\Local\Temp\ccZoYVSv.s:32733  .debug_str:00000000000285b5 .LASF1057
C:\Users\CYMR90~1\AppData\Local\Temp\ccZoYVSv.s:33329  .debug_str:000000000002aa5c .LASF1058
C:\Users\CYMR90~1\AppData\Local\Temp\ccZoYVSv.s:32051  .debug_str:000000000002593a .LASF1059
C:\Users\CYMR90~1\AppData\Local\Temp\ccZoYVSv.s:31625  .debug_str:0000000000023d0d .LASF1060
C:\Users\CYMR90~1\AppData\Local\Temp\ccZoYVSv.s:24740  .debug_str:00000000000086cc .LASF1061
C:\Users\CYMR90~1\AppData\Local\Temp\ccZoYVSv.s:22790  .debug_str:00000000000009ce .LASF1062
C:\Users\CYMR90~1\AppData\Local\Temp\ccZoYVSv.s:27758  .debug_str:00000000000147fd .LASF1063
C:\Users\CYMR90~1\AppData\Local\Temp\ccZoYVSv.s:23640  .debug_str:0000000000003f18 .LASF1064
C:\Users\CYMR90~1\AppData\Local\Temp\ccZoYVSv.s:22728  .debug_str:000000000000060f .LASF1065
C:\Users\CYMR90~1\AppData\Local\Temp\ccZoYVSv.s:34021  .debug_str:000000000002d645 .LASF1066
C:\Users\CYMR90~1\AppData\Local\Temp\ccZoYVSv.s:31887  .debug_str:0000000000024db1 .LASF1067
C:\Users\CYMR90~1\AppData\Local\Temp\ccZoYVSv.s:28326  .debug_str:0000000000016bda .LASF1068
C:\Users\CYMR90~1\AppData\Local\Temp\ccZoYVSv.s:29927  .debug_str:000000000001d5b2 .LASF1069
C:\Users\CYMR90~1\AppData\Local\Temp\ccZoYVSv.s:22844  .debug_str:0000000000000d48 .LASF1070
C:\Users\CYMR90~1\AppData\Local\Temp\ccZoYVSv.s:25196  .debug_str:000000000000a373 .LASF1071
C:\Users\CYMR90~1\AppData\Local\Temp\ccZoYVSv.s:31391  .debug_str:0000000000022f17 .LASF1072
C:\Users\CYMR90~1\AppData\Local\Temp\ccZoYVSv.s:29893  .debug_str:000000000001d323 .LASF1073
C:\Users\CYMR90~1\AppData\Local\Temp\ccZoYVSv.s:32991  .debug_str:000000000002967c .LASF1074
C:\Users\CYMR90~1\AppData\Local\Temp\ccZoYVSv.s:28481  .debug_str:0000000000017791 .LASF1075
C:\Users\CYMR90~1\AppData\Local\Temp\ccZoYVSv.s:23292  .debug_str:00000000000028da .LASF1076
C:\Users\CYMR90~1\AppData\Local\Temp\ccZoYVSv.s:33413  .debug_str:000000000002af80 .LASF1077
C:\Users\CYMR90~1\AppData\Local\Temp\ccZoYVSv.s:24256  .debug_str:0000000000006684 .LASF1078
C:\Users\CYMR90~1\AppData\Local\Temp\ccZoYVSv.s:30841  .debug_str:0000000000020e0f .LASF1079
C:\Users\CYMR90~1\AppData\Local\Temp\ccZoYVSv.s:30943  .debug_str:000000000002141a .LASF1080
C:\Users\CYMR90~1\AppData\Local\Temp\ccZoYVSv.s:29689  .debug_str:000000000001c598 .LASF1081
C:\Users\CYMR90~1\AppData\Local\Temp\ccZoYVSv.s:32591  .debug_str:0000000000027ce4 .LASF1082
C:\Users\CYMR90~1\AppData\Local\Temp\ccZoYVSv.s:27952  .debug_str:00000000000154bf .LASF1083
C:\Users\CYMR90~1\AppData\Local\Temp\ccZoYVSv.s:31077  .debug_str:0000000000021c99 .LASF1084
C:\Users\CYMR90~1\AppData\Local\Temp\ccZoYVSv.s:27638  .debug_str:00000000000140b2 .LASF1085
C:\Users\CYMR90~1\AppData\Local\Temp\ccZoYVSv.s:23060  .debug_str:0000000000001af1 .LASF1086
C:\Users\CYMR90~1\AppData\Local\Temp\ccZoYVSv.s:26194  .debug_str:000000000000e4b1 .LASF1087
C:\Users\CYMR90~1\AppData\Local\Temp\ccZoYVSv.s:32299  .debug_str:0000000000026a67 .LASF1088
C:\Users\CYMR90~1\AppData\Local\Temp\ccZoYVSv.s:31383  .debug_str:0000000000022ea2 .LASF1089
C:\Users\CYMR90~1\AppData\Local\Temp\ccZoYVSv.s:22904  .debug_str:000000000000114c .LASF1090
C:\Users\CYMR90~1\AppData\Local\Temp\ccZoYVSv.s:33951  .debug_str:000000000002d1c3 .LASF1091
C:\Users\CYMR90~1\AppData\Local\Temp\ccZoYVSv.s:32695  .debug_str:0000000000028348 .LASF1092
C:\Users\CYMR90~1\AppData\Local\Temp\ccZoYVSv.s:26542  .debug_str:000000000000f9d7 .LASF1093
C:\Users\CYMR90~1\AppData\Local\Temp\ccZoYVSv.s:32345  .debug_str:0000000000026cf4 .LASF1094
C:\Users\CYMR90~1\AppData\Local\Temp\ccZoYVSv.s:28020  .debug_str:0000000000015893 .LASF1095
C:\Users\CYMR90~1\AppData\Local\Temp\ccZoYVSv.s:29503  .debug_str:000000000001ba76 .LASF1096
C:\Users\CYMR90~1\AppData\Local\Temp\ccZoYVSv.s:30039  .debug_str:000000000001dcc0 .LASF1097
C:\Users\CYMR90~1\AppData\Local\Temp\ccZoYVSv.s:24244  .debug_str:00000000000065df .LASF1098
C:\Users\CYMR90~1\AppData\Local\Temp\ccZoYVSv.s:27398  .debug_str:00000000000130f8 .LASF1099
C:\Users\CYMR90~1\AppData\Local\Temp\ccZoYVSv.s:26708  .debug_str:000000000001049e .LASF1100
C:\Users\CYMR90~1\AppData\Local\Temp\ccZoYVSv.s:31671  .debug_str:0000000000024015 .LASF1101
C:\Users\CYMR90~1\AppData\Local\Temp\ccZoYVSv.s:25882  .debug_str:000000000000d067 .LASF1102
C:\Users\CYMR90~1\AppData\Local\Temp\ccZoYVSv.s:31325  .debug_str:0000000000022b0b .LASF1103
C:\Users\CYMR90~1\AppData\Local\Temp\ccZoYVSv.s:32931  .debug_str:000000000002931d .LASF1104
C:\Users\CYMR90~1\AppData\Local\Temp\ccZoYVSv.s:30729  .debug_str:0000000000020718 .LASF1105
C:\Users\CYMR90~1\AppData\Local\Temp\ccZoYVSv.s:27584  .debug_str:0000000000013d58 .LASF1106
C:\Users\CYMR90~1\AppData\Local\Temp\ccZoYVSv.s:31591  .debug_str:0000000000023ae4 .LASF1107
C:\Users\CYMR90~1\AppData\Local\Temp\ccZoYVSv.s:29415  .debug_str:000000000001b4f5 .LASF1108
C:\Users\CYMR90~1\AppData\Local\Temp\ccZoYVSv.s:24260  .debug_str:00000000000066c0 .LASF1109
C:\Users\CYMR90~1\AppData\Local\Temp\ccZoYVSv.s:25226  .debug_str:000000000000a54c .LASF1110
C:\Users\CYMR90~1\AppData\Local\Temp\ccZoYVSv.s:23128  .debug_str:0000000000001ee5 .LASF1111
C:\Users\CYMR90~1\AppData\Local\Temp\ccZoYVSv.s:24344  .debug_str:0000000000006c04 .LASF1112
C:\Users\CYMR90~1\AppData\Local\Temp\ccZoYVSv.s:25460  .debug_str:000000000000b506 .LASF1113
C:\Users\CYMR90~1\AppData\Local\Temp\ccZoYVSv.s:28687  .debug_str:0000000000018428 .LASF1114
C:\Users\CYMR90~1\AppData\Local\Temp\ccZoYVSv.s:25008  .debug_str:00000000000097c7 .LASF1115
C:\Users\CYMR90~1\AppData\Local\Temp\ccZoYVSv.s:32773  .debug_str:000000000002886e .LASF1116
C:\Users\CYMR90~1\AppData\Local\Temp\ccZoYVSv.s:33281  .debug_str:000000000002a7ab .LASF1117
C:\Users\CYMR90~1\AppData\Local\Temp\ccZoYVSv.s:24166  .debug_str:00000000000060cd .LASF1118
C:\Users\CYMR90~1\AppData\Local\Temp\ccZoYVSv.s:28645  .debug_str:00000000000181b4 .LASF1119
C:\Users\CYMR90~1\AppData\Local\Temp\ccZoYVSv.s:24710  .debug_str:0000000000008506 .LASF1120
C:\Users\CYMR90~1\AppData\Local\Temp\ccZoYVSv.s:24908  .debug_str:00000000000091ea .LASF1121
C:\Users\CYMR90~1\AppData\Local\Temp\ccZoYVSv.s:27520  .debug_str:0000000000013980 .LASF1122
C:\Users\CYMR90~1\AppData\Local\Temp\ccZoYVSv.s:27156  .debug_str:0000000000012133 .LASF1123
C:\Users\CYMR90~1\AppData\Local\Temp\ccZoYVSv.s:26172  .debug_str:000000000000e371 .LASF1124
C:\Users\CYMR90~1\AppData\Local\Temp\ccZoYVSv.s:27954  .debug_str:00000000000154d1 .LASF1125
C:\Users\CYMR90~1\AppData\Local\Temp\ccZoYVSv.s:28040  .debug_str:00000000000159cc .LASF1126
C:\Users\CYMR90~1\AppData\Local\Temp\ccZoYVSv.s:31479  .debug_str:00000000000234ac .LASF1127
C:\Users\CYMR90~1\AppData\Local\Temp\ccZoYVSv.s:32589  .debug_str:0000000000027ccf .LASF1128
C:\Users\CYMR90~1\AppData\Local\Temp\ccZoYVSv.s:24054  .debug_str:0000000000005a2a .LASF1129
C:\Users\CYMR90~1\AppData\Local\Temp\ccZoYVSv.s:28038  .debug_str:00000000000159b7 .LASF1130
C:\Users\CYMR90~1\AppData\Local\Temp\ccZoYVSv.s:33119  .debug_str:0000000000029e0f .LASF1131
C:\Users\CYMR90~1\AppData\Local\Temp\ccZoYVSv.s:33517  .debug_str:000000000002b578 .LASF1132
C:\Users\CYMR90~1\AppData\Local\Temp\ccZoYVSv.s:28753  .debug_str:0000000000018838 .LASF1133
C:\Users\CYMR90~1\AppData\Local\Temp\ccZoYVSv.s:31643  .debug_str:0000000000023e23 .LASF1134
C:\Users\CYMR90~1\AppData\Local\Temp\ccZoYVSv.s:24600  .debug_str:0000000000007ca2 .LASF1135
C:\Users\CYMR90~1\AppData\Local\Temp\ccZoYVSv.s:23820  .debug_str:0000000000004bd4 .LASF1136
C:\Users\CYMR90~1\AppData\Local\Temp\ccZoYVSv.s:23646  .debug_str:0000000000003f45 .LASF1137
C:\Users\CYMR90~1\AppData\Local\Temp\ccZoYVSv.s:33129  .debug_str:0000000000029eeb .LASF1138
C:\Users\CYMR90~1\AppData\Local\Temp\ccZoYVSv.s:30173  .debug_str:000000000001e58d .LASF1139
C:\Users\CYMR90~1\AppData\Local\Temp\ccZoYVSv.s:33115  .debug_str:0000000000029de2 .LASF1140
C:\Users\CYMR90~1\AppData\Local\Temp\ccZoYVSv.s:22704  .debug_str:00000000000004af .LASF1141
C:\Users\CYMR90~1\AppData\Local\Temp\ccZoYVSv.s:27186  .debug_str:0000000000012327 .LASF1142
C:\Users\CYMR90~1\AppData\Local\Temp\ccZoYVSv.s:26200  .debug_str:000000000000e542 .LASF1143
C:\Users\CYMR90~1\AppData\Local\Temp\ccZoYVSv.s:32643  .debug_str:0000000000027fba .LASF1144
C:\Users\CYMR90~1\AppData\Local\Temp\ccZoYVSv.s:30773  .debug_str:0000000000020982 .LASF1145
C:\Users\CYMR90~1\AppData\Local\Temp\ccZoYVSv.s:25724  .debug_str:000000000000c6c9 .LASF1146
C:\Users\CYMR90~1\AppData\Local\Temp\ccZoYVSv.s:33947  .debug_str:000000000002d181 .LASF1147
C:\Users\CYMR90~1\AppData\Local\Temp\ccZoYVSv.s:28507  .debug_str:0000000000017919 .LASF1148
C:\Users\CYMR90~1\AppData\Local\Temp\ccZoYVSv.s:28761  .debug_str:00000000000188e5 .LASF1149
C:\Users\CYMR90~1\AppData\Local\Temp\ccZoYVSv.s:29521  .debug_str:000000000001bb82 .LASF1150
C:\Users\CYMR90~1\AppData\Local\Temp\ccZoYVSv.s:23130  .debug_str:0000000000001f03 .LASF1151
C:\Users\CYMR90~1\AppData\Local\Temp\ccZoYVSv.s:29947  .debug_str:000000000001d6f2 .LASF1152
C:\Users\CYMR90~1\AppData\Local\Temp\ccZoYVSv.s:25034  .debug_str:0000000000009923 .LASF1153
C:\Users\CYMR90~1\AppData\Local\Temp\ccZoYVSv.s:31091  .debug_str:0000000000021d4b .LASF1154
C:\Users\CYMR90~1\AppData\Local\Temp\ccZoYVSv.s:30305  .debug_str:000000000001edaa .LASF1155
C:\Users\CYMR90~1\AppData\Local\Temp\ccZoYVSv.s:23942  .debug_str:000000000000532e .LASF1156
C:\Users\CYMR90~1\AppData\Local\Temp\ccZoYVSv.s:30135  .debug_str:000000000001e31c .LASF1157
C:\Users\CYMR90~1\AppData\Local\Temp\ccZoYVSv.s:25478  .debug_str:000000000000b5fe .LASF1158
C:\Users\CYMR90~1\AppData\Local\Temp\ccZoYVSv.s:33299  .debug_str:000000000002a8e8 .LASF1159
C:\Users\CYMR90~1\AppData\Local\Temp\ccZoYVSv.s:23012  .debug_str:0000000000001771 .LASF1160
C:\Users\CYMR90~1\AppData\Local\Temp\ccZoYVSv.s:33377  .debug_str:000000000002ad69 .LASF1161
C:\Users\CYMR90~1\AppData\Local\Temp\ccZoYVSv.s:33067  .debug_str:0000000000029b15 .LASF1162
C:\Users\CYMR90~1\AppData\Local\Temp\ccZoYVSv.s:30025  .debug_str:000000000001dbeb .LASF1163
C:\Users\CYMR90~1\AppData\Local\Temp\ccZoYVSv.s:29145  .debug_str:000000000001a269 .LASF1164
C:\Users\CYMR90~1\AppData\Local\Temp\ccZoYVSv.s:26016  .debug_str:000000000000d9c6 .LASF1165
C:\Users\CYMR90~1\AppData\Local\Temp\ccZoYVSv.s:30699  .debug_str:0000000000020570 .LASF1166
C:\Users\CYMR90~1\AppData\Local\Temp\ccZoYVSv.s:26904  .debug_str:00000000000110da .LASF1167
C:\Users\CYMR90~1\AppData\Local\Temp\ccZoYVSv.s:25032  .debug_str:0000000000009919 .LASF1168
C:\Users\CYMR90~1\AppData\Local\Temp\ccZoYVSv.s:27982  .debug_str:0000000000015673 .LASF1169
C:\Users\CYMR90~1\AppData\Local\Temp\ccZoYVSv.s:29357  .debug_str:000000000001b102 .LASF1170
C:\Users\CYMR90~1\AppData\Local\Temp\ccZoYVSv.s:29055  .debug_str:0000000000019c97 .LASF1171
C:\Users\CYMR90~1\AppData\Local\Temp\ccZoYVSv.s:22752  .debug_str:0000000000000789 .LASF1172
C:\Users\CYMR90~1\AppData\Local\Temp\ccZoYVSv.s:28272  .debug_str:0000000000016825 .LASF1173
C:\Users\CYMR90~1\AppData\Local\Temp\ccZoYVSv.s:22822  .debug_str:0000000000000c1d .LASF1174
C:\Users\CYMR90~1\AppData\Local\Temp\ccZoYVSv.s:23234  .debug_str:00000000000024d1 .LASF1175
C:\Users\CYMR90~1\AppData\Local\Temp\ccZoYVSv.s:27490  .debug_str:00000000000137ad .LASF1176
C:\Users\CYMR90~1\AppData\Local\Temp\ccZoYVSv.s:25830  .debug_str:000000000000cdb3 .LASF1177
C:\Users\CYMR90~1\AppData\Local\Temp\ccZoYVSv.s:30085  .debug_str:000000000001dfa6 .LASF1178
C:\Users\CYMR90~1\AppData\Local\Temp\ccZoYVSv.s:26434  .debug_str:000000000000f355 .LASF1179
C:\Users\CYMR90~1\AppData\Local\Temp\ccZoYVSv.s:26004  .debug_str:000000000000d934 .LASF1180
C:\Users\CYMR90~1\AppData\Local\Temp\ccZoYVSv.s:31845  .debug_str:0000000000024b4b .LASF1181
C:\Users\CYMR90~1\AppData\Local\Temp\ccZoYVSv.s:33073  .debug_str:0000000000029b60 .LASF1182
C:\Users\CYMR90~1\AppData\Local\Temp\ccZoYVSv.s:23400  .debug_str:0000000000002fa9 .LASF1183
C:\Users\CYMR90~1\AppData\Local\Temp\ccZoYVSv.s:30413  .debug_str:000000000001f390 .LASF1184
C:\Users\CYMR90~1\AppData\Local\Temp\ccZoYVSv.s:30875  .debug_str:0000000000020fb7 .LASF1185
C:\Users\CYMR90~1\AppData\Local\Temp\ccZoYVSv.s:32091  .debug_str:0000000000025c53 .LASF1186
C:\Users\CYMR90~1\AppData\Local\Temp\ccZoYVSv.s:25934  .debug_str:000000000000d3fc .LASF1187
C:\Users\CYMR90~1\AppData\Local\Temp\ccZoYVSv.s:24064  .debug_str:0000000000005aba .LASF1188
C:\Users\CYMR90~1\AppData\Local\Temp\ccZoYVSv.s:31441  .debug_str:0000000000023282 .LASF1189
C:\Users\CYMR90~1\AppData\Local\Temp\ccZoYVSv.s:24604  .debug_str:0000000000007cff .LASF1190
C:\Users\CYMR90~1\AppData\Local\Temp\ccZoYVSv.s:31421  .debug_str:00000000000230ee .LASF1191
C:\Users\CYMR90~1\AppData\Local\Temp\ccZoYVSv.s:25806  .debug_str:000000000000cc25 .LASF1192
C:\Users\CYMR90~1\AppData\Local\Temp\ccZoYVSv.s:31079  .debug_str:0000000000021cab .LASF1193
C:\Users\CYMR90~1\AppData\Local\Temp\ccZoYVSv.s:26048  .debug_str:000000000000db8d .LASF1194
C:\Users\CYMR90~1\AppData\Local\Temp\ccZoYVSv.s:29617  .debug_str:000000000001c113 .LASF1195
C:\Users\CYMR90~1\AppData\Local\Temp\ccZoYVSv.s:26986  .debug_str:0000000000011592 .LASF1196
C:\Users\CYMR90~1\AppData\Local\Temp\ccZoYVSv.s:31113  .debug_str:0000000000021ed8 .LASF1197
C:\Users\CYMR90~1\AppData\Local\Temp\ccZoYVSv.s:33321  .debug_str:000000000002aa1c .LASF1198
C:\Users\CYMR90~1\AppData\Local\Temp\ccZoYVSv.s:28294  .debug_str:00000000000169f5 .LASF1199
C:\Users\CYMR90~1\AppData\Local\Temp\ccZoYVSv.s:33327  .debug_str:000000000002aa51 .LASF1200
C:\Users\CYMR90~1\AppData\Local\Temp\ccZoYVSv.s:25288  .debug_str:000000000000a8a8 .LASF1201
C:\Users\CYMR90~1\AppData\Local\Temp\ccZoYVSv.s:24942  .debug_str:00000000000093bf .LASF1202
C:\Users\CYMR90~1\AppData\Local\Temp\ccZoYVSv.s:28495  .debug_str:0000000000017878 .LASF1203
C:\Users\CYMR90~1\AppData\Local\Temp\ccZoYVSv.s:32423  .debug_str:0000000000027212 .LASF1204
C:\Users\CYMR90~1\AppData\Local\Temp\ccZoYVSv.s:27546  .debug_str:0000000000013b36 .LASF1205
C:\Users\CYMR90~1\AppData\Local\Temp\ccZoYVSv.s:26602  .debug_str:000000000000fdea .LASF1206
C:\Users\CYMR90~1\AppData\Local\Temp\ccZoYVSv.s:33295  .debug_str:000000000002a8b6 .LASF1207
C:\Users\CYMR90~1\AppData\Local\Temp\ccZoYVSv.s:31937  .debug_str:0000000000025155 .LASF1208
C:\Users\CYMR90~1\AppData\Local\Temp\ccZoYVSv.s:26534  .debug_str:000000000000f97a .LASF1209
C:\Users\CYMR90~1\AppData\Local\Temp\ccZoYVSv.s:24934  .debug_str:0000000000009336 .LASF1210
C:\Users\CYMR90~1\AppData\Local\Temp\ccZoYVSv.s:24056  .debug_str:0000000000005a40 .LASF1211
C:\Users\CYMR90~1\AppData\Local\Temp\ccZoYVSv.s:24744  .debug_str:0000000000008710 .LASF1212
C:\Users\CYMR90~1\AppData\Local\Temp\ccZoYVSv.s:24338  .debug_str:0000000000006b84 .LASF1213
C:\Users\CYMR90~1\AppData\Local\Temp\ccZoYVSv.s:23244  .debug_str:000000000000258d .LASF1214
C:\Users\CYMR90~1\AppData\Local\Temp\ccZoYVSv.s:25080  .debug_str:0000000000009c3c .LASF1215
C:\Users\CYMR90~1\AppData\Local\Temp\ccZoYVSv.s:23186  .debug_str:0000000000002224 .LASF1216
C:\Users\CYMR90~1\AppData\Local\Temp\ccZoYVSv.s:31543  .debug_str:000000000002381f .LASF1217
C:\Users\CYMR90~1\AppData\Local\Temp\ccZoYVSv.s:31557  .debug_str:00000000000238d3 .LASF1218
C:\Users\CYMR90~1\AppData\Local\Temp\ccZoYVSv.s:31991  .debug_str:00000000000254de .LASF1219
C:\Users\CYMR90~1\AppData\Local\Temp\ccZoYVSv.s:29507  .debug_str:000000000001baaa .LASF1220
C:\Users\CYMR90~1\AppData\Local\Temp\ccZoYVSv.s:26090  .debug_str:000000000000de41 .LASF1221
C:\Users\CYMR90~1\AppData\Local\Temp\ccZoYVSv.s:27806  .debug_str:0000000000014b49 .LASF1222
C:\Users\CYMR90~1\AppData\Local\Temp\ccZoYVSv.s:23420  .debug_str:00000000000030e1 .LASF1223
C:\Users\CYMR90~1\AppData\Local\Temp\ccZoYVSv.s:29239  .debug_str:000000000001a97f .LASF1224
C:\Users\CYMR90~1\AppData\Local\Temp\ccZoYVSv.s:32605  .debug_str:0000000000027dbc .LASF1225
C:\Users\CYMR90~1\AppData\Local\Temp\ccZoYVSv.s:25562  .debug_str:000000000000bb97 .LASF1226
C:\Users\CYMR90~1\AppData\Local\Temp\ccZoYVSv.s:24482  .debug_str:000000000000751a .LASF1227
C:\Users\CYMR90~1\AppData\Local\Temp\ccZoYVSv.s:23518  .debug_str:0000000000003749 .LASF1228
C:\Users\CYMR90~1\AppData\Local\Temp\ccZoYVSv.s:34005  .debug_str:000000000002d561 .LASF1229
C:\Users\CYMR90~1\AppData\Local\Temp\ccZoYVSv.s:33049  .debug_str:0000000000029a05 .LASF1230
C:\Users\CYMR90~1\AppData\Local\Temp\ccZoYVSv.s:33547  .debug_str:000000000002b701 .LASF1231
C:\Users\CYMR90~1\AppData\Local\Temp\ccZoYVSv.s:31067  .debug_str:0000000000021c02 .LASF1232
C:\Users\CYMR90~1\AppData\Local\Temp\ccZoYVSv.s:30941  .debug_str:0000000000021403 .LASF1233
C:\Users\CYMR90~1\AppData\Local\Temp\ccZoYVSv.s:29965  .debug_str:000000000001d7f1 .LASF1234
C:\Users\CYMR90~1\AppData\Local\Temp\ccZoYVSv.s:29011  .debug_str:00000000000199a2 .LASF1235
C:\Users\CYMR90~1\AppData\Local\Temp\ccZoYVSv.s:27704  .debug_str:00000000000144f3 .LASF1236
C:\Users\CYMR90~1\AppData\Local\Temp\ccZoYVSv.s:27070  .debug_str:0000000000011b79 .LASF1237
C:\Users\CYMR90~1\AppData\Local\Temp\ccZoYVSv.s:28387  .debug_str:0000000000017226 .LASF1238
C:\Users\CYMR90~1\AppData\Local\Temp\ccZoYVSv.s:25154  .debug_str:000000000000a090 .LASF1239
C:\Users\CYMR90~1\AppData\Local\Temp\ccZoYVSv.s:24162  .debug_str:000000000000608c .LASF1240
C:\Users\CYMR90~1\AppData\Local\Temp\ccZoYVSv.s:23202  .debug_str:0000000000002310 .LASF1241
C:\Users\CYMR90~1\AppData\Local\Temp\ccZoYVSv.s:33715  .debug_str:000000000002c21f .LASF1242
C:\Users\CYMR90~1\AppData\Local\Temp\ccZoYVSv.s:22718  .debug_str:0000000000000563 .LASF1243
C:\Users\CYMR90~1\AppData\Local\Temp\ccZoYVSv.s:33191  .debug_str:000000000002a266 .LASF1244
C:\Users\CYMR90~1\AppData\Local\Temp\ccZoYVSv.s:32205  .debug_str:00000000000264a2 .LASF1245
C:\Users\CYMR90~1\AppData\Local\Temp\ccZoYVSv.s:31221  .debug_str:000000000002254d .LASF1246
C:\Users\CYMR90~1\AppData\Local\Temp\ccZoYVSv.s:30211  .debug_str:000000000001e7cb .LASF1247
C:\Users\CYMR90~1\AppData\Local\Temp\ccZoYVSv.s:29299  .debug_str:000000000001ad38 .LASF1248
C:\Users\CYMR90~1\AppData\Local\Temp\ccZoYVSv.s:28340  .debug_str:0000000000016cfb .LASF1249
C:\Users\CYMR90~1\AppData\Local\Temp\ccZoYVSv.s:28511  .debug_str:000000000001797a .LASF1250
C:\Users\CYMR90~1\AppData\Local\Temp\ccZoYVSv.s:26444  .debug_str:000000000000f3c9 .LASF1251
C:\Users\CYMR90~1\AppData\Local\Temp\ccZoYVSv.s:28607  .debug_str:0000000000017f91 .LASF1252
C:\Users\CYMR90~1\AppData\Local\Temp\ccZoYVSv.s:25944  .debug_str:000000000000d4ac .LASF1253
C:\Users\CYMR90~1\AppData\Local\Temp\ccZoYVSv.s:24956  .debug_str:000000000000948e .LASF1254
C:\Users\CYMR90~1\AppData\Local\Temp\ccZoYVSv.s:22968  .debug_str:0000000000001517 .LASF1255
C:\Users\CYMR90~1\AppData\Local\Temp\ccZoYVSv.s:25860  .debug_str:000000000000cf4a .LASF1256
C:\Users\CYMR90~1\AppData\Local\Temp\ccZoYVSv.s:24118  .debug_str:0000000000005e40 .LASF1257
C:\Users\CYMR90~1\AppData\Local\Temp\ccZoYVSv.s:28879  .debug_str:00000000000190e5 .LASF1258
C:\Users\CYMR90~1\AppData\Local\Temp\ccZoYVSv.s:28881  .debug_str:00000000000190f8 .LASF1259
C:\Users\CYMR90~1\AppData\Local\Temp\ccZoYVSv.s:31425  .debug_str:000000000002311e .LASF1260
C:\Users\CYMR90~1\AppData\Local\Temp\ccZoYVSv.s:29501  .debug_str:000000000001ba63 .LASF1261
C:\Users\CYMR90~1\AppData\Local\Temp\ccZoYVSv.s:26874  .debug_str:0000000000010f72 .LASF1262
C:\Users\CYMR90~1\AppData\Local\Temp\ccZoYVSv.s:24014  .debug_str:00000000000057b5 .LASF1263
C:\Users\CYMR90~1\AppData\Local\Temp\ccZoYVSv.s:26176  .debug_str:000000000000e3a3 .LASF1264
C:\Users\CYMR90~1\AppData\Local\Temp\ccZoYVSv.s:28364  .debug_str:0000000000016f08 .LASF1265
C:\Users\CYMR90~1\AppData\Local\Temp\ccZoYVSv.s:26226  .debug_str:000000000000e69b .LASF1266
C:\Users\CYMR90~1\AppData\Local\Temp\ccZoYVSv.s:31453  .debug_str:000000000002333e .LASF1267
C:\Users\CYMR90~1\AppData\Local\Temp\ccZoYVSv.s:31637  .debug_str:0000000000023dd9 .LASF1268
C:\Users\CYMR90~1\AppData\Local\Temp\ccZoYVSv.s:27006  .debug_str:00000000000116af .LASF1269
C:\Users\CYMR90~1\AppData\Local\Temp\ccZoYVSv.s:33767  .debug_str:000000000002c547 .LASF1270
C:\Users\CYMR90~1\AppData\Local\Temp\ccZoYVSv.s:28609  .debug_str:0000000000017fa8 .LASF1271
C:\Users\CYMR90~1\AppData\Local\Temp\ccZoYVSv.s:33155  .debug_str:000000000002a054 .LASF1272
C:\Users\CYMR90~1\AppData\Local\Temp\ccZoYVSv.s:30087  .debug_str:000000000001dfb3 .LASF1273
C:\Users\CYMR90~1\AppData\Local\Temp\ccZoYVSv.s:22780  .debug_str:0000000000000941 .LASF1274
C:\Users\CYMR90~1\AppData\Local\Temp\ccZoYVSv.s:28889  .debug_str:000000000001917b .LASF1275
C:\Users\CYMR90~1\AppData\Local\Temp\ccZoYVSv.s:22892  .debug_str:00000000000010a6 .LASF1276
C:\Users\CYMR90~1\AppData\Local\Temp\ccZoYVSv.s:25178  .debug_str:000000000000a24c .LASF1277
C:\Users\CYMR90~1\AppData\Local\Temp\ccZoYVSv.s:24180  .debug_str:00000000000061c9 .LASF1278
C:\Users\CYMR90~1\AppData\Local\Temp\ccZoYVSv.s:23232  .debug_str:00000000000024bf .LASF1279
C:\Users\CYMR90~1\AppData\Local\Temp\ccZoYVSv.s:33735  .debug_str:000000000002c329 .LASF1280
C:\Users\CYMR90~1\AppData\Local\Temp\ccZoYVSv.s:24076  .debug_str:0000000000005b85 .LASF1281
C:\Users\CYMR90~1\AppData\Local\Temp\ccZoYVSv.s:23120  .debug_str:0000000000001e7a .LASF1282
C:\Users\CYMR90~1\AppData\Local\Temp\ccZoYVSv.s:30253  .debug_str:000000000001ea5e .LASF1283
C:\Users\CYMR90~1\AppData\Local\Temp\ccZoYVSv.s:32639  .debug_str:0000000000027f81 .LASF1284
C:\Users\CYMR90~1\AppData\Local\Temp\ccZoYVSv.s:31661  .debug_str:0000000000023f8f .LASF1285
C:\Users\CYMR90~1\AppData\Local\Temp\ccZoYVSv.s:30647  .debug_str:0000000000020207 .LASF1286
C:\Users\CYMR90~1\AppData\Local\Temp\ccZoYVSv.s:29683  .debug_str:000000000001c519 .LASF1287
C:\Users\CYMR90~1\AppData\Local\Temp\ccZoYVSv.s:28717  .debug_str:0000000000018624 .LASF1288
C:\Users\CYMR90~1\AppData\Local\Temp\ccZoYVSv.s:27746  .debug_str:000000000001476f .LASF1289
C:\Users\CYMR90~1\AppData\Local\Temp\ccZoYVSv.s:26798  .debug_str:0000000000010a73 .LASF1290
C:\Users\CYMR90~1\AppData\Local\Temp\ccZoYVSv.s:31171  .debug_str:0000000000022260 .LASF1291
C:\Users\CYMR90~1\AppData\Local\Temp\ccZoYVSv.s:30159  .debug_str:000000000001e4c7 .LASF1292
C:\Users\CYMR90~1\AppData\Local\Temp\ccZoYVSv.s:29237  .debug_str:000000000001a96b .LASF1293
C:\Users\CYMR90~1\AppData\Local\Temp\ccZoYVSv.s:28226  .debug_str:00000000000165a6 .LASF1294
C:\Users\CYMR90~1\AppData\Local\Temp\ccZoYVSv.s:27300  .debug_str:0000000000012a8d .LASF1295
C:\Users\CYMR90~1\AppData\Local\Temp\ccZoYVSv.s:26334  .debug_str:000000000000eda0 .LASF1296
C:\Users\CYMR90~1\AppData\Local\Temp\ccZoYVSv.s:25702  .debug_str:000000000000c573 .LASF1297
C:\Users\CYMR90~1\AppData\Local\Temp\ccZoYVSv.s:30615  .debug_str:0000000000020014 .LASF1298
C:\Users\CYMR90~1\AppData\Local\Temp\ccZoYVSv.s:29655  .debug_str:000000000001c363 .LASF1299
C:\Users\CYMR90~1\AppData\Local\Temp\ccZoYVSv.s:22976  .debug_str:0000000000001586 .LASF1300
C:\Users\CYMR90~1\AppData\Local\Temp\ccZoYVSv.s:29629  .debug_str:000000000001c1e7 .LASF1301
C:\Users\CYMR90~1\AppData\Local\Temp\ccZoYVSv.s:30871  .debug_str:0000000000020f94 .LASF1302
C:\Users\CYMR90~1\AppData\Local\Temp\ccZoYVSv.s:28270  .debug_str:0000000000016812 .LASF1303
C:\Users\CYMR90~1\AppData\Local\Temp\ccZoYVSv.s:29155  .debug_str:000000000001a30d .LASF1304
C:\Users\CYMR90~1\AppData\Local\Temp\ccZoYVSv.s:29125  .debug_str:000000000001a162 .LASF1305
C:\Users\CYMR90~1\AppData\Local\Temp\ccZoYVSv.s:24848  .debug_str:0000000000008dd1 .LASF1306
C:\Users\CYMR90~1\AppData\Local\Temp\ccZoYVSv.s:23850  .debug_str:0000000000004dc1 .LASF1307
C:\Users\CYMR90~1\AppData\Local\Temp\ccZoYVSv.s:22906  .debug_str:000000000000115e .LASF1308
C:\Users\CYMR90~1\AppData\Local\Temp\ccZoYVSv.s:33395  .debug_str:000000000002ae80 .LASF1309
C:\Users\CYMR90~1\AppData\Local\Temp\ccZoYVSv.s:32419  .debug_str:00000000000271d7 .LASF1310
C:\Users\CYMR90~1\AppData\Local\Temp\ccZoYVSv.s:31429  .debug_str:000000000002314c .LASF1311
C:\Users\CYMR90~1\AppData\Local\Temp\ccZoYVSv.s:27616  .debug_str:0000000000013f61 .LASF1312
C:\Users\CYMR90~1\AppData\Local\Temp\ccZoYVSv.s:26188  .debug_str:000000000000e45c .LASF1313
C:\Users\CYMR90~1\AppData\Local\Temp\ccZoYVSv.s:27462  .debug_str:000000000001354e .LASF1314
C:\Users\CYMR90~1\AppData\Local\Temp\ccZoYVSv.s:33611  .debug_str:000000000002bb41 .LASF1315
C:\Users\CYMR90~1\AppData\Local\Temp\ccZoYVSv.s:32133  .debug_str:0000000000025f76 .LASF1316
C:\Users\CYMR90~1\AppData\Local\Temp\ccZoYVSv.s:31653  .debug_str:0000000000023ef3 .LASF1317
C:\Users\CYMR90~1\AppData\Local\Temp\ccZoYVSv.s:30639  .debug_str:000000000002019a .LASF1318
C:\Users\CYMR90~1\AppData\Local\Temp\ccZoYVSv.s:29461  .debug_str:000000000001b7f9 .LASF1319
C:\Users\CYMR90~1\AppData\Local\Temp\ccZoYVSv.s:28727  .debug_str:00000000000186d2 .LASF1320
C:\Users\CYMR90~1\AppData\Local\Temp\ccZoYVSv.s:27756  .debug_str:00000000000147e5 .LASF1321
C:\Users\CYMR90~1\AppData\Local\Temp\ccZoYVSv.s:26806  .debug_str:0000000000010af4 .LASF1322
C:\Users\CYMR90~1\AppData\Local\Temp\ccZoYVSv.s:27272  .debug_str:00000000000128b4 .LASF1323
C:\Users\CYMR90~1\AppData\Local\Temp\ccZoYVSv.s:25706  .debug_str:000000000000c598 .LASF1324
C:\Users\CYMR90~1\AppData\Local\Temp\ccZoYVSv.s:25338  .debug_str:000000000000acb2 .LASF1325
C:\Users\CYMR90~1\AppData\Local\Temp\ccZoYVSv.s:24346  .debug_str:0000000000006c20 .LASF1326
C:\Users\CYMR90~1\AppData\Local\Temp\ccZoYVSv.s:23378  .debug_str:0000000000002e54 .LASF1327
C:\Users\CYMR90~1\AppData\Local\Temp\ccZoYVSv.s:33885  .debug_str:000000000002cd71 .LASF1328
C:\Users\CYMR90~1\AppData\Local\Temp\ccZoYVSv.s:32963  .debug_str:00000000000294d5 .LASF1329
C:\Users\CYMR90~1\AppData\Local\Temp\ccZoYVSv.s:31971  .debug_str:0000000000025370 .LASF1330
C:\Users\CYMR90~1\AppData\Local\Temp\ccZoYVSv.s:30987  .debug_str:00000000000216b8 .LASF1331
C:\Users\CYMR90~1\AppData\Local\Temp\ccZoYVSv.s:29995  .debug_str:000000000001d9da .LASF1332
C:\Users\CYMR90~1\AppData\Local\Temp\ccZoYVSv.s:30435  .debug_str:000000000001f52a .LASF1333
C:\Users\CYMR90~1\AppData\Local\Temp\ccZoYVSv.s:29515  .debug_str:000000000001bb26 .LASF1334
C:\Users\CYMR90~1\AppData\Local\Temp\ccZoYVSv.s:28188  .debug_str:000000000001634f .LASF1335
C:\Users\CYMR90~1\AppData\Local\Temp\ccZoYVSv.s:25856  .debug_str:000000000000cf1f .LASF1336
C:\Users\CYMR90~1\AppData\Local\Temp\ccZoYVSv.s:30655  .debug_str:0000000000020266 .LASF1337
C:\Users\CYMR90~1\AppData\Local\Temp\ccZoYVSv.s:27154  .debug_str:000000000001211e .LASF1338
C:\Users\CYMR90~1\AppData\Local\Temp\ccZoYVSv.s:23016  .debug_str:00000000000017a9 .LASF1339
C:\Users\CYMR90~1\AppData\Local\Temp\ccZoYVSv.s:31063  .debug_str:0000000000021bbd .LASF1340
C:\Users\CYMR90~1\AppData\Local\Temp\ccZoYVSv.s:24134  .debug_str:0000000000005f0e .LASF1341
C:\Users\CYMR90~1\AppData\Local\Temp\ccZoYVSv.s:23172  .debug_str:000000000000216d .LASF1342
C:\Users\CYMR90~1\AppData\Local\Temp\ccZoYVSv.s:33691  .debug_str:000000000002c065 .LASF1343
C:\Users\CYMR90~1\AppData\Local\Temp\ccZoYVSv.s:33481  .debug_str:000000000002b337 .LASF1344
C:\Users\CYMR90~1\AppData\Local\Temp\ccZoYVSv.s:32503  .debug_str:00000000000276dd .LASF1345
C:\Users\CYMR90~1\AppData\Local\Temp\ccZoYVSv.s:31521  .debug_str:0000000000023712 .LASF1346
C:\Users\CYMR90~1\AppData\Local\Temp\ccZoYVSv.s:32915  .debug_str:0000000000029228 .LASF1347
C:\Users\CYMR90~1\AppData\Local\Temp\ccZoYVSv.s:29559  .debug_str:000000000001bdca .LASF1348
C:\Users\CYMR90~1\AppData\Local\Temp\ccZoYVSv.s:30077  .debug_str:000000000001df25 .LASF1349
C:\Users\CYMR90~1\AppData\Local\Temp\ccZoYVSv.s:27630  .debug_str:0000000000014044 .LASF1350
C:\Users\CYMR90~1\AppData\Local\Temp\ccZoYVSv.s:30801  .debug_str:0000000000020b92 .LASF1351
C:\Users\CYMR90~1\AppData\Local\Temp\ccZoYVSv.s:25720  .debug_str:000000000000c69e .LASF1352
C:\Users\CYMR90~1\AppData\Local\Temp\ccZoYVSv.s:24646  .debug_str:0000000000008015 .LASF1353
C:\Users\CYMR90~1\AppData\Local\Temp\ccZoYVSv.s:25210  .debug_str:000000000000a458 .LASF1354
C:\Users\CYMR90~1\AppData\Local\Temp\ccZoYVSv.s:24210  .debug_str:00000000000063cf .LASF1355
C:\Users\CYMR90~1\AppData\Local\Temp\ccZoYVSv.s:23256  .debug_str:0000000000002637 .LASF1356
C:\Users\CYMR90~1\AppData\Local\Temp\ccZoYVSv.s:33763  .debug_str:000000000002c527 .LASF1357
C:\Users\CYMR90~1\AppData\Local\Temp\ccZoYVSv.s:27716  .debug_str:00000000000145bb .LASF1358
C:\Users\CYMR90~1\AppData\Local\Temp\ccZoYVSv.s:24340  .debug_str:0000000000006bc8 .LASF1359
C:\Users\CYMR90~1\AppData\Local\Temp\ccZoYVSv.s:30849  .debug_str:0000000000020e78 .LASF1360
C:\Users\CYMR90~1\AppData\Local\Temp\ccZoYVSv.s:29787  .debug_str:000000000001cb49 .LASF1361
C:\Users\CYMR90~1\AppData\Local\Temp\ccZoYVSv.s:28821  .debug_str:0000000000018c7c .LASF1362
C:\Users\CYMR90~1\AppData\Local\Temp\ccZoYVSv.s:32925  .debug_str:00000000000292b9 .LASF1363
C:\Users\CYMR90~1\AppData\Local\Temp\ccZoYVSv.s:28106  .debug_str:0000000000015d87 .LASF1364
C:\Users\CYMR90~1\AppData\Local\Temp\ccZoYVSv.s:24762  .debug_str:000000000000882e .LASF1365
C:\Users\CYMR90~1\AppData\Local\Temp\ccZoYVSv.s:32531  .debug_str:0000000000027889 .LASF1366
C:\Users\CYMR90~1\AppData\Local\Temp\ccZoYVSv.s:25840  .debug_str:000000000000ce35 .LASF1367
C:\Users\CYMR90~1\AppData\Local\Temp\ccZoYVSv.s:30737  .debug_str:0000000000020787 .LASF1368
C:\Users\CYMR90~1\AppData\Local\Temp\ccZoYVSv.s:28985  .debug_str:00000000000197e5 .LASF1369
C:\Users\CYMR90~1\AppData\Local\Temp\ccZoYVSv.s:33649  .debug_str:000000000002bd88 .LASF1370
C:\Users\CYMR90~1\AppData\Local\Temp\ccZoYVSv.s:30005  .debug_str:000000000001da65 .LASF1371
C:\Users\CYMR90~1\AppData\Local\Temp\ccZoYVSv.s:23296  .debug_str:0000000000002917 .LASF1372
C:\Users\CYMR90~1\AppData\Local\Temp\ccZoYVSv.s:25898  .debug_str:000000000000d19c .LASF1373
C:\Users\CYMR90~1\AppData\Local\Temp\ccZoYVSv.s:29031  .debug_str:0000000000019abb .LASF1374
C:\Users\CYMR90~1\AppData\Local\Temp\ccZoYVSv.s:32195  .debug_str:00000000000263f7 .LASF1375
C:\Users\CYMR90~1\AppData\Local\Temp\ccZoYVSv.s:23880  .debug_str:0000000000004f92 .LASF1376
C:\Users\CYMR90~1\AppData\Local\Temp\ccZoYVSv.s:27056  .debug_str:00000000000119e1 .LASF1377
C:\Users\CYMR90~1\AppData\Local\Temp\ccZoYVSv.s:30167  .debug_str:000000000001e53d .LASF1378
C:\Users\CYMR90~1\AppData\Local\Temp\ccZoYVSv.s:33391  .debug_str:000000000002ae43 .LASF1379
C:\Users\CYMR90~1\AppData\Local\Temp\ccZoYVSv.s:33355  .debug_str:000000000002abfb .LASF1380
C:\Users\CYMR90~1\AppData\Local\Temp\ccZoYVSv.s:24966  .debug_str:000000000000951d .LASF1381
C:\Users\CYMR90~1\AppData\Local\Temp\ccZoYVSv.s:28076  .debug_str:0000000000015bd2 .LASF1382
C:\Users\CYMR90~1\AppData\Local\Temp\ccZoYVSv.s:31267  .debug_str:00000000000227f9 .LASF1383
C:\Users\CYMR90~1\AppData\Local\Temp\ccZoYVSv.s:22986  .debug_str:00000000000015f0 .LASF1384
C:\Users\CYMR90~1\AppData\Local\Temp\ccZoYVSv.s:26158  .debug_str:000000000000e2a1 .LASF1385
C:\Users\CYMR90~1\AppData\Local\Temp\ccZoYVSv.s:29333  .debug_str:000000000001af62 .LASF1386
C:\Users\CYMR90~1\AppData\Local\Temp\ccZoYVSv.s:32493  .debug_str:000000000002761c .LASF1387
C:\Users\CYMR90~1\AppData\Local\Temp\ccZoYVSv.s:24168  .debug_str:00000000000060ef .LASF1388
C:\Users\CYMR90~1\AppData\Local\Temp\ccZoYVSv.s:27256  .debug_str:00000000000127a6 .LASF1389
C:\Users\CYMR90~1\AppData\Local\Temp\ccZoYVSv.s:26608  .debug_str:000000000000fe30 .LASF1390
C:\Users\CYMR90~1\AppData\Local\Temp\ccZoYVSv.s:29637  .debug_str:000000000001c277 .LASF1391
C:\Users\CYMR90~1\AppData\Local\Temp\ccZoYVSv.s:32827  .debug_str:0000000000028c90 .LASF1392
C:\Users\CYMR90~1\AppData\Local\Temp\ccZoYVSv.s:24520  .debug_str:000000000000775b .LASF1393
C:\Users\CYMR90~1\AppData\Local\Temp\ccZoYVSv.s:27656  .debug_str:00000000000141c0 .LASF1394
C:\Users\CYMR90~1\AppData\Local\Temp\ccZoYVSv.s:30815  .debug_str:0000000000020c70 .LASF1395
C:\Users\CYMR90~1\AppData\Local\Temp\ccZoYVSv.s:34063  .debug_str:000000000002d8c6 .LASF1396
C:\Users\CYMR90~1\AppData\Local\Temp\ccZoYVSv.s:31507  .debug_str:0000000000023639 .LASF1397
C:\Users\CYMR90~1\AppData\Local\Temp\ccZoYVSv.s:28905  .debug_str:000000000001927e .LASF1398
C:\Users\CYMR90~1\AppData\Local\Temp\ccZoYVSv.s:26960  .debug_str:0000000000011407 .LASF1399
C:\Users\CYMR90~1\AppData\Local\Temp\ccZoYVSv.s:28252  .debug_str:0000000000016724 .LASF1400
C:\Users\CYMR90~1\AppData\Local\Temp\ccZoYVSv.s:22940  .debug_str:0000000000001363 .LASF1401
C:\Users\CYMR90~1\AppData\Local\Temp\ccZoYVSv.s:30721  .debug_str:00000000000206c1 .LASF1402
C:\Users\CYMR90~1\AppData\Local\Temp\ccZoYVSv.s:25604  .debug_str:000000000000be62 .LASF1403
C:\Users\CYMR90~1\AppData\Local\Temp\ccZoYVSv.s:30485  .debug_str:000000000001f851 .LASF1404
C:\Users\CYMR90~1\AppData\Local\Temp\ccZoYVSv.s:23660  .debug_str:000000000000409b .LASF1405
C:\Users\CYMR90~1\AppData\Local\Temp\ccZoYVSv.s:33317  .debug_str:000000000002a9cc .LASF1406
C:\Users\CYMR90~1\AppData\Local\Temp\ccZoYVSv.s:31475  .debug_str:0000000000023469 .LASF1407
C:\Users\CYMR90~1\AppData\Local\Temp\ccZoYVSv.s:31641  .debug_str:0000000000023e0b .LASF1408
C:\Users\CYMR90~1\AppData\Local\Temp\ccZoYVSv.s:23328  .debug_str:0000000000002b12 .LASF1409
C:\Users\CYMR90~1\AppData\Local\Temp\ccZoYVSv.s:26516  .debug_str:000000000000f866 .LASF1410
C:\Users\CYMR90~1\AppData\Local\Temp\ccZoYVSv.s:33065  .debug_str:0000000000029afc .LASF1411
C:\Users\CYMR90~1\AppData\Local\Temp\ccZoYVSv.s:26818  .debug_str:0000000000010b97 .LASF1412
C:\Users\CYMR90~1\AppData\Local\Temp\ccZoYVSv.s:27874  .debug_str:0000000000014f5f .LASF1413
C:\Users\CYMR90~1\AppData\Local\Temp\ccZoYVSv.s:31047  .debug_str:0000000000021ac7 .LASF1414
C:\Users\CYMR90~1\AppData\Local\Temp\ccZoYVSv.s:22782  .debug_str:0000000000000954 .LASF1415
C:\Users\CYMR90~1\AppData\Local\Temp\ccZoYVSv.s:25866  .debug_str:000000000000cf87 .LASF1416
C:\Users\CYMR90~1\AppData\Local\Temp\ccZoYVSv.s:29009  .debug_str:0000000000019989 .LASF1417
C:\Users\CYMR90~1\AppData\Local\Temp\ccZoYVSv.s:30549  .debug_str:000000000001fbfe .LASF1418
C:\Users\CYMR90~1\AppData\Local\Temp\ccZoYVSv.s:23858  .debug_str:0000000000004e2b .LASF1419
C:\Users\CYMR90~1\AppData\Local\Temp\ccZoYVSv.s:26946  .debug_str:0000000000011328 .LASF1420
C:\Users\CYMR90~1\AppData\Local\Temp\ccZoYVSv.s:26288  .debug_str:000000000000eab7 .LASF1421
C:\Users\CYMR90~1\AppData\Local\Temp\ccZoYVSv.s:29447  .debug_str:000000000001b725 .LASF1422
C:\Users\CYMR90~1\AppData\Local\Temp\ccZoYVSv.s:32603  .debug_str:0000000000027da3 .LASF1423
C:\Users\CYMR90~1\AppData\Local\Temp\ccZoYVSv.s:23404  .debug_str:0000000000002fe2 .LASF1424
C:\Users\CYMR90~1\AppData\Local\Temp\ccZoYVSv.s:27466  .debug_str:000000000001357c .LASF1425
C:\Users\CYMR90~1\AppData\Local\Temp\ccZoYVSv.s:30477  .debug_str:000000000001f7b8 .LASF1426
C:\Users\CYMR90~1\AppData\Local\Temp\ccZoYVSv.s:33773  .debug_str:000000000002c61a .LASF1427
C:\Users\CYMR90~1\AppData\Local\Temp\ccZoYVSv.s:25476  .debug_str:000000000000b5e5 .LASF1428
C:\Users\CYMR90~1\AppData\Local\Temp\ccZoYVSv.s:28585  .debug_str:0000000000017e4c .LASF1429
C:\Users\CYMR90~1\AppData\Local\Temp\ccZoYVSv.s:31771  .debug_str:00000000000245cd .LASF1430
C:\Users\CYMR90~1\AppData\Local\Temp\ccZoYVSv.s:30487  .debug_str:000000000001f869 .LASF1431
C:\Users\CYMR90~1\AppData\Local\Temp\ccZoYVSv.s:22740  .debug_str:00000000000006c7 .LASF1432
C:\Users\CYMR90~1\AppData\Local\Temp\ccZoYVSv.s:31725  .debug_str:0000000000024339 .LASF1433
C:\Users\CYMR90~1\AppData\Local\Temp\ccZoYVSv.s:30725  .debug_str:00000000000206eb .LASF1434
C:\Users\CYMR90~1\AppData\Local\Temp\ccZoYVSv.s:29753  .debug_str:000000000001c936 .LASF1435
C:\Users\CYMR90~1\AppData\Local\Temp\ccZoYVSv.s:28789  .debug_str:0000000000018a88 .LASF1436
C:\Users\CYMR90~1\AppData\Local\Temp\ccZoYVSv.s:28210  .debug_str:00000000000164c5 .LASF1437
C:\Users\CYMR90~1\AppData\Local\Temp\ccZoYVSv.s:32637  .debug_str:0000000000027f6d .LASF1438
C:\Users\CYMR90~1\AppData\Local\Temp\ccZoYVSv.s:31659  .debug_str:0000000000023f7b .LASF1439
C:\Users\CYMR90~1\AppData\Local\Temp\ccZoYVSv.s:30645  .debug_str:00000000000201f3 .LASF1440
C:\Users\CYMR90~1\AppData\Local\Temp\ccZoYVSv.s:29681  .debug_str:000000000001c505 .LASF1441
C:\Users\CYMR90~1\AppData\Local\Temp\ccZoYVSv.s:28715  .debug_str:0000000000018610 .LASF1442
C:\Users\CYMR90~1\AppData\Local\Temp\ccZoYVSv.s:27744  .debug_str:000000000001475b .LASF1443
C:\Users\CYMR90~1\AppData\Local\Temp\ccZoYVSv.s:26796  .debug_str:0000000000010a5f .LASF1444
C:\Users\CYMR90~1\AppData\Local\Temp\ccZoYVSv.s:33731  .debug_str:000000000002c2f1 .LASF1445
C:\Users\CYMR90~1\AppData\Local\Temp\ccZoYVSv.s:24856  .debug_str:0000000000008e3f .LASF1446
C:\Users\CYMR90~1\AppData\Local\Temp\ccZoYVSv.s:26424  .debug_str:000000000000f2bd .LASF1447
C:\Users\CYMR90~1\AppData\Local\Temp\ccZoYVSv.s:32007  .debug_str:00000000000255d7 .LASF1448
C:\Users\CYMR90~1\AppData\Local\Temp\ccZoYVSv.s:31025  .debug_str:00000000000218d2 .LASF1449
C:\Users\CYMR90~1\AppData\Local\Temp\ccZoYVSv.s:30017  .debug_str:000000000001db82 .LASF1450
C:\Users\CYMR90~1\AppData\Local\Temp\ccZoYVSv.s:29077  .debug_str:0000000000019e72 .LASF1451
C:\Users\CYMR90~1\AppData\Local\Temp\ccZoYVSv.s:28074  .debug_str:0000000000015bbd .LASF1452
C:\Users\CYMR90~1\AppData\Local\Temp\ccZoYVSv.s:25474  .debug_str:000000000000b5d2 .LASF1453
C:\Users\CYMR90~1\AppData\Local\Temp\ccZoYVSv.s:24082  .debug_str:0000000000005bdb .LASF1454
C:\Users\CYMR90~1\AppData\Local\Temp\ccZoYVSv.s:25270  .debug_str:000000000000a7bd .LASF1455
C:\Users\CYMR90~1\AppData\Local\Temp\ccZoYVSv.s:30389  .debug_str:000000000001f244 .LASF1456
C:\Users\CYMR90~1\AppData\Local\Temp\ccZoYVSv.s:32067  .debug_str:0000000000025a38 .LASF1457
C:\Users\CYMR90~1\AppData\Local\Temp\ccZoYVSv.s:23824  .debug_str:0000000000004c16 .LASF1458
C:\Users\CYMR90~1\AppData\Local\Temp\ccZoYVSv.s:30471  .debug_str:000000000001f76a .LASF1459
C:\Users\CYMR90~1\AppData\Local\Temp\ccZoYVSv.s:27278  .debug_str:000000000001290b .LASF1460
C:\Users\CYMR90~1\AppData\Local\Temp\ccZoYVSv.s:25376  .debug_str:000000000000af29 .LASF1461
C:\Users\CYMR90~1\AppData\Local\Temp\ccZoYVSv.s:26568  .debug_str:000000000000fc15 .LASF1462
C:\Users\CYMR90~1\AppData\Local\Temp\ccZoYVSv.s:27062  .debug_str:0000000000011abc .LASF1463
C:\Users\CYMR90~1\AppData\Local\Temp\ccZoYVSv.s:28138  .debug_str:0000000000015fa9 .LASF1464
C:\Users\CYMR90~1\AppData\Local\Temp\ccZoYVSv.s:33507  .debug_str:000000000002b4e2 .LASF1465
C:\Users\CYMR90~1\AppData\Local\Temp\ccZoYVSv.s:29347  .debug_str:000000000001b078 .LASF1466
C:\Users\CYMR90~1\AppData\Local\Temp\ccZoYVSv.s:27748  .debug_str:0000000000014782 .LASF1467
C:\Users\CYMR90~1\AppData\Local\Temp\ccZoYVSv.s:32523  .debug_str:0000000000027812 .LASF1468
C:\Users\CYMR90~1\AppData\Local\Temp\ccZoYVSv.s:26740  .debug_str:000000000001066e .LASF1469
C:\Users\CYMR90~1\AppData\Local\Temp\ccZoYVSv.s:25822  .debug_str:000000000000cd2f .LASF1470
C:\Users\CYMR90~1\AppData\Local\Temp\ccZoYVSv.s:27032  .debug_str:0000000000011869 .LASF1471
C:\Users\CYMR90~1\AppData\Local\Temp\ccZoYVSv.s:28611  .debug_str:0000000000017fbb .LASF1472
C:\Users\CYMR90~1\AppData\Local\Temp\ccZoYVSv.s:31961  .debug_str:00000000000252ce .LASF1473
C:\Users\CYMR90~1\AppData\Local\Temp\ccZoYVSv.s:32609  .debug_str:0000000000027df4 .LASF1474
C:\Users\CYMR90~1\AppData\Local\Temp\ccZoYVSv.s:22832  .debug_str:0000000000000c96 .LASF1475
C:\Users\CYMR90~1\AppData\Local\Temp\ccZoYVSv.s:24752  .debug_str:000000000000879f .LASF1476
C:\Users\CYMR90~1\AppData\Local\Temp\ccZoYVSv.s:23356  .debug_str:0000000000002cf1 .LASF1477
C:\Users\CYMR90~1\AppData\Local\Temp\ccZoYVSv.s:32793  .debug_str:00000000000289d9 .LASF1478
C:\Users\CYMR90~1\AppData\Local\Temp\ccZoYVSv.s:31809  .debug_str:00000000000248c7 .LASF1479
C:\Users\CYMR90~1\AppData\Local\Temp\ccZoYVSv.s:23484  .debug_str:000000000000351e .LASF1480
C:\Users\CYMR90~1\AppData\Local\Temp\ccZoYVSv.s:25728  .debug_str:000000000000c6fa .LASF1481
C:\Users\CYMR90~1\AppData\Local\Temp\ccZoYVSv.s:31929  .debug_str:00000000000250ec .LASF1482
C:\Users\CYMR90~1\AppData\Local\Temp\ccZoYVSv.s:25054  .debug_str:0000000000009ace .LASF1483
C:\Users\CYMR90~1\AppData\Local\Temp\ccZoYVSv.s:23864  .debug_str:0000000000004e84 .LASF1484
C:\Users\CYMR90~1\AppData\Local\Temp\ccZoYVSv.s:26298  .debug_str:000000000000eb59 .LASF1485
C:\Users\CYMR90~1\AppData\Local\Temp\ccZoYVSv.s:27714  .debug_str:00000000000145a8 .LASF1486
C:\Users\CYMR90~1\AppData\Local\Temp\ccZoYVSv.s:29329  .debug_str:000000000001af33 .LASF1487
C:\Users\CYMR90~1\AppData\Local\Temp\ccZoYVSv.s:22666  .debug_str:0000000000000246 .LASF1488
C:\Users\CYMR90~1\AppData\Local\Temp\ccZoYVSv.s:28092  .debug_str:0000000000015cba .LASF1489
C:\Users\CYMR90~1\AppData\Local\Temp\ccZoYVSv.s:26096  .debug_str:000000000000de7f .LASF1490
C:\Users\CYMR90~1\AppData\Local\Temp\ccZoYVSv.s:33031  .debug_str:0000000000029915 .LASF1491
C:\Users\CYMR90~1\AppData\Local\Temp\ccZoYVSv.s:23322  .debug_str:0000000000002aab .LASF1492
C:\Users\CYMR90~1\AppData\Local\Temp\ccZoYVSv.s:30973  .debug_str:00000000000215b4 .LASF1493
C:\Users\CYMR90~1\AppData\Local\Temp\ccZoYVSv.s:33247  .debug_str:000000000002a5d0 .LASF1494
C:\Users\CYMR90~1\AppData\Local\Temp\ccZoYVSv.s:24508  .debug_str:00000000000076c2 .LASF1495
C:\Users\CYMR90~1\AppData\Local\Temp\ccZoYVSv.s:32287  .debug_str:00000000000269ad .LASF1496
C:\Users\CYMR90~1\AppData\Local\Temp\ccZoYVSv.s:33003  .debug_str:000000000002975b .LASF1497
C:\Users\CYMR90~1\AppData\Local\Temp\ccZoYVSv.s:24300  .debug_str:0000000000006907 .LASF1498
C:\Users\CYMR90~1\AppData\Local\Temp\ccZoYVSv.s:25152  .debug_str:000000000000a077 .LASF1499
C:\Users\CYMR90~1\AppData\Local\Temp\ccZoYVSv.s:33937  .debug_str:000000000002d0d3 .LASF1500
C:\Users\CYMR90~1\AppData\Local\Temp\ccZoYVSv.s:33165  .debug_str:000000000002a0e1 .LASF1501
C:\Users\CYMR90~1\AppData\Local\Temp\ccZoYVSv.s:30859  .debug_str:0000000000020ef9 .LASF1502
C:\Users\CYMR90~1\AppData\Local\Temp\ccZoYVSv.s:24280  .debug_str:00000000000067d4 .LASF1503
C:\Users\CYMR90~1\AppData\Local\Temp\ccZoYVSv.s:33249  .debug_str:000000000002a5de .LASF1504
C:\Users\CYMR90~1\AppData\Local\Temp\ccZoYVSv.s:30223  .debug_str:000000000001e879 .LASF1505
C:\Users\CYMR90~1\AppData\Local\Temp\ccZoYVSv.s:29537  .debug_str:000000000001bc8b .LASF1506
C:\Users\CYMR90~1\AppData\Local\Temp\ccZoYVSv.s:25530  .debug_str:000000000000b9ac .LASF1507
C:\Users\CYMR90~1\AppData\Local\Temp\ccZoYVSv.s:31081  .debug_str:0000000000021cb6 .LASF1508
C:\Users\CYMR90~1\AppData\Local\Temp\ccZoYVSv.s:27220  .debug_str:0000000000012545 .LASF1509
C:\Users\CYMR90~1\AppData\Local\Temp\ccZoYVSv.s:32901  .debug_str:000000000002917c .LASF1510
C:\Users\CYMR90~1\AppData\Local\Temp\ccZoYVSv.s:31673  .debug_str:0000000000024035 .LASF1511
C:\Users\CYMR90~1\AppData\Local\Temp\ccZoYVSv.s:23528  .debug_str:00000000000037f4 .LASF1512
C:\Users\CYMR90~1\AppData\Local\Temp\ccZoYVSv.s:28160  .debug_str:0000000000016172 .LASF1513
C:\Users\CYMR90~1\AppData\Local\Temp\ccZoYVSv.s:32093  .debug_str:0000000000025c67 .LASF1514
C:\Users\CYMR90~1\AppData\Local\Temp\ccZoYVSv.s:30445  .debug_str:000000000001f5f7 .LASF1515
C:\Users\CYMR90~1\AppData\Local\Temp\ccZoYVSv.s:33669  .debug_str:000000000002becd .LASF1516
C:\Users\CYMR90~1\AppData\Local\Temp\ccZoYVSv.s:30273  .debug_str:000000000001eb62 .LASF1517
C:\Users\CYMR90~1\AppData\Local\Temp\ccZoYVSv.s:32327  .debug_str:0000000000026bf5 .LASF1518
C:\Users\CYMR90~1\AppData\Local\Temp\ccZoYVSv.s:27210  .debug_str:00000000000124d4 .LASF1519
C:\Users\CYMR90~1\AppData\Local\Temp\ccZoYVSv.s:30673  .debug_str:00000000000203ce .LASF1520
C:\Users\CYMR90~1\AppData\Local\Temp\ccZoYVSv.s:29711  .debug_str:000000000001c6e3 .LASF1521
C:\Users\CYMR90~1\AppData\Local\Temp\ccZoYVSv.s:31015  .debug_str:000000000002184d .LASF1522
C:\Users\CYMR90~1\AppData\Local\Temp\ccZoYVSv.s:28983  .debug_str:00000000000197c9 .LASF1523
C:\Users\CYMR90~1\AppData\Local\Temp\ccZoYVSv.s:31675  .debug_str:000000000002404b .LASF1524
C:\Users\CYMR90~1\AppData\Local\Temp\ccZoYVSv.s:23944  .debug_str:0000000000005345 .LASF1525
C:\Users\CYMR90~1\AppData\Local\Temp\ccZoYVSv.s:29651  .debug_str:000000000001c337 .LASF1526
C:\Users\CYMR90~1\AppData\Local\Temp\ccZoYVSv.s:25756  .debug_str:000000000000c8c5 .LASF1527
C:\Users\CYMR90~1\AppData\Local\Temp\ccZoYVSv.s:31423  .debug_str:0000000000023102 .LASF1528
C:\Users\CYMR90~1\AppData\Local\Temp\ccZoYVSv.s:32691  .debug_str:00000000000282b8 .LASF1529
C:\Users\CYMR90~1\AppData\Local\Temp\ccZoYVSv.s:31921  .debug_str:0000000000024fca .LASF1530
C:\Users\CYMR90~1\AppData\Local\Temp\ccZoYVSv.s:31985  .debug_str:0000000000025452 .LASF1531
C:\Users\CYMR90~1\AppData\Local\Temp\ccZoYVSv.s:23682  .debug_str:00000000000041b5 .LASF1532
C:\Users\CYMR90~1\AppData\Local\Temp\ccZoYVSv.s:28929  .debug_str:00000000000193df .LASF1533
C:\Users\CYMR90~1\AppData\Local\Temp\ccZoYVSv.s:31803  .debug_str:0000000000024787 .LASF1534
C:\Users\CYMR90~1\AppData\Local\Temp\ccZoYVSv.s:25308  .debug_str:000000000000aa0f .LASF1535
C:\Users\CYMR90~1\AppData\Local\Temp\ccZoYVSv.s:31989  .debug_str:00000000000254d2 .LASF1536
C:\Users\CYMR90~1\AppData\Local\Temp\ccZoYVSv.s:31323  .debug_str:0000000000022afb .LASF1537
C:\Users\CYMR90~1\AppData\Local\Temp\ccZoYVSv.s:32567  .debug_str:0000000000027abd .LASF1538
C:\Users\CYMR90~1\AppData\Local\Temp\ccZoYVSv.s:32459  .debug_str:0000000000027412 .LASF1539
C:\Users\CYMR90~1\AppData\Local\Temp\ccZoYVSv.s:27088  .debug_str:0000000000011cf6 .LASF1540
C:\Users\CYMR90~1\AppData\Local\Temp\ccZoYVSv.s:33189  .debug_str:000000000002a249 .LASF1541
C:\Users\CYMR90~1\AppData\Local\Temp\ccZoYVSv.s:26074  .debug_str:000000000000dd5e .LASF1542
C:\Users\CYMR90~1\AppData\Local\Temp\ccZoYVSv.s:23448  .debug_str:00000000000032a1 .LASF1543
C:\Users\CYMR90~1\AppData\Local\Temp\ccZoYVSv.s:26650  .debug_str:00000000000100e6 .LASF1544
C:\Users\CYMR90~1\AppData\Local\Temp\ccZoYVSv.s:24688  .debug_str:0000000000008370 .LASF1545
C:\Users\CYMR90~1\AppData\Local\Temp\ccZoYVSv.s:25158  .debug_str:000000000000a0ca .LASF1546
C:\Users\CYMR90~1\AppData\Local\Temp\ccZoYVSv.s:25810  .debug_str:000000000000cc4a .LASF1547
C:\Users\CYMR90~1\AppData\Local\Temp\ccZoYVSv.s:32771  .debug_str:0000000000028816 .LASF1548
C:\Users\CYMR90~1\AppData\Local\Temp\ccZoYVSv.s:32257  .debug_str:0000000000026788 .LASF1549
C:\Users\CYMR90~1\AppData\Local\Temp\ccZoYVSv.s:29603  .debug_str:000000000001c000 .LASF1550
C:\Users\CYMR90~1\AppData\Local\Temp\ccZoYVSv.s:26956  .debug_str:00000000000113b9 .LASF1551
C:\Users\CYMR90~1\AppData\Local\Temp\ccZoYVSv.s:29571  .debug_str:000000000001be3f .LASF1552
C:\Users\CYMR90~1\AppData\Local\Temp\ccZoYVSv.s:22908  .debug_str:0000000000001175 .LASF1553
C:\Users\CYMR90~1\AppData\Local\Temp\ccZoYVSv.s:23226  .debug_str:0000000000002454 .LASF1554
C:\Users\CYMR90~1\AppData\Local\Temp\ccZoYVSv.s:30311  .debug_str:000000000001edf4 .LASF1555
C:\Users\CYMR90~1\AppData\Local\Temp\ccZoYVSv.s:28883  .debug_str:0000000000019107 .LASF1556
C:\Users\CYMR90~1\AppData\Local\Temp\ccZoYVSv.s:28907  .debug_str:0000000000019296 .LASF1557
C:\Users\CYMR90~1\AppData\Local\Temp\ccZoYVSv.s:33275  .debug_str:000000000002a75c .LASF1558
C:\Users\CYMR90~1\AppData\Local\Temp\ccZoYVSv.s:26792  .debug_str:0000000000010a33 .LASF1559
C:\Users\CYMR90~1\AppData\Local\Temp\ccZoYVSv.s:31685  .debug_str:00000000000240d5 .LASF1560
C:\Users\CYMR90~1\AppData\Local\Temp\ccZoYVSv.s:32121  .debug_str:0000000000025e7b .LASF1561
C:\Users\CYMR90~1\AppData\Local\Temp\ccZoYVSv.s:26908  .debug_str:0000000000011108 .LASF1562
C:\Users\CYMR90~1\AppData\Local\Temp\ccZoYVSv.s:24128  .debug_str:0000000000005ebe .LASF1563
C:\Users\CYMR90~1\AppData\Local\Temp\ccZoYVSv.s:33771  .debug_str:000000000002c574 .LASF1564
C:\Users\CYMR90~1\AppData\Local\Temp\ccZoYVSv.s:24308  .debug_str:0000000000006970 .LASF1565
C:\Users\CYMR90~1\AppData\Local\Temp\ccZoYVSv.s:30015  .debug_str:000000000001daf4 .LASF1566
C:\Users\CYMR90~1\AppData\Local\Temp\ccZoYVSv.s:29283  .debug_str:000000000001abe3 .LASF1567
C:\Users\CYMR90~1\AppData\Local\Temp\ccZoYVSv.s:30793  .debug_str:0000000000020abd .LASF1568
C:\Users\CYMR90~1\AppData\Local\Temp\ccZoYVSv.s:27086  .debug_str:0000000000011c4f .LASF1569
C:\Users\CYMR90~1\AppData\Local\Temp\ccZoYVSv.s:32147  .debug_str:0000000000026070 .LASF1570
C:\Users\CYMR90~1\AppData\Local\Temp\ccZoYVSv.s:27488  .debug_str:000000000001376d .LASF1571
C:\Users\CYMR90~1\AppData\Local\Temp\ccZoYVSv.s:23998  .debug_str:00000000000056c5 .LASF1572
C:\Users\CYMR90~1\AppData\Local\Temp\ccZoYVSv.s:27906  .debug_str:00000000000151b8 .LASF1573
C:\Users\CYMR90~1\AppData\Local\Temp\ccZoYVSv.s:32887  .debug_str:00000000000290a3 .LASF1574
C:\Users\CYMR90~1\AppData\Local\Temp\ccZoYVSv.s:28377  .debug_str:000000000001717a .LASF1575
C:\Users\CYMR90~1\AppData\Local\Temp\ccZoYVSv.s:26458  .debug_str:000000000000f4c6 .LASF1576
C:\Users\CYMR90~1\AppData\Local\Temp\ccZoYVSv.s:26062  .debug_str:000000000000dc95 .LASF1577
C:\Users\CYMR90~1\AppData\Local\Temp\ccZoYVSv.s:33383  .debug_str:000000000002ada7 .LASF1578
C:\Users\CYMR90~1\AppData\Local\Temp\ccZoYVSv.s:23236  .debug_str:00000000000024df .LASF1579
C:\Users\CYMR90~1\AppData\Local\Temp\ccZoYVSv.s:29861  .debug_str:000000000001d06d .LASF1580
C:\Users\CYMR90~1\AppData\Local\Temp\ccZoYVSv.s:25276  .debug_str:000000000000a7fd .LASF1581
C:\Users\CYMR90~1\AppData\Local\Temp\ccZoYVSv.s:25992  .debug_str:000000000000d84f .LASF1582
C:\Users\CYMR90~1\AppData\Local\Temp\ccZoYVSv.s:24678  .debug_str:0000000000008244 .LASF1583
C:\Users\CYMR90~1\AppData\Local\Temp\ccZoYVSv.s:32569  .debug_str:0000000000027adb .LASF1584
C:\Users\CYMR90~1\AppData\Local\Temp\ccZoYVSv.s:30117  .debug_str:000000000001e175 .LASF1585
C:\Users\CYMR90~1\AppData\Local\Temp\ccZoYVSv.s:33991  .debug_str:000000000002d3e1 .LASF1586
C:\Users\CYMR90~1\AppData\Local\Temp\ccZoYVSv.s:25966  .debug_str:000000000000d609 .LASF1587
C:\Users\CYMR90~1\AppData\Local\Temp\ccZoYVSv.s:24640  .debug_str:0000000000007f2a .LASF1588
C:\Users\CYMR90~1\AppData\Local\Temp\ccZoYVSv.s:28352  .debug_str:0000000000016db6 .LASF1589
C:\Users\CYMR90~1\AppData\Local\Temp\ccZoYVSv.s:25500  .debug_str:000000000000b737 .LASF1590
C:\Users\CYMR90~1\AppData\Local\Temp\ccZoYVSv.s:28276  .debug_str:0000000000016854 .LASF1591
C:\Users\CYMR90~1\AppData\Local\Temp\ccZoYVSv.s:24866  .debug_str:0000000000008eb9 .LASF1592
C:\Users\CYMR90~1\AppData\Local\Temp\ccZoYVSv.s:27478  .debug_str:000000000001367d .LASF1593
C:\Users\CYMR90~1\AppData\Local\Temp\ccZoYVSv.s:26784  .debug_str:0000000000010904 .LASF1594
C:\Users\CYMR90~1\AppData\Local\Temp\ccZoYVSv.s:32801  .debug_str:0000000000028a57 .LASF1595
C:\Users\CYMR90~1\AppData\Local\Temp\ccZoYVSv.s:22872  .debug_str:0000000000000f0d .LASF1596
C:\Users\CYMR90~1\AppData\Local\Temp\ccZoYVSv.s:29889  .debug_str:000000000001d250 .LASF1597
C:\Users\CYMR90~1\AppData\Local\Temp\ccZoYVSv.s:23794  .debug_str:00000000000049bb .LASF1598
C:\Users\CYMR90~1\AppData\Local\Temp\ccZoYVSv.s:32069  .debug_str:0000000000025a47 .LASF1599
C:\Users\CYMR90~1\AppData\Local\Temp\ccZoYVSv.s:23022  .debug_str:0000000000001802 .LASF1600
C:\Users\CYMR90~1\AppData\Local\Temp\ccZoYVSv.s:26544  .debug_str:000000000000f9ef .LASF1601
C:\Users\CYMR90~1\AppData\Local\Temp\ccZoYVSv.s:31041  .debug_str:00000000000219ca .LASF1602
C:\Users\CYMR90~1\AppData\Local\Temp\ccZoYVSv.s:29913  .debug_str:000000000001d45b .LASF1603
C:\Users\CYMR90~1\AppData\Local\Temp\ccZoYVSv.s:29799  .debug_str:000000000001cc00 .LASF1604
C:\Users\CYMR90~1\AppData\Local\Temp\ccZoYVSv.s:32049  .debug_str:000000000002588e .LASF1605
C:\Users\CYMR90~1\AppData\Local\Temp\ccZoYVSv.s:31963  .debug_str:00000000000252e4 .LASF1606
C:\Users\CYMR90~1\AppData\Local\Temp\ccZoYVSv.s:31915  .debug_str:0000000000024f76 .LASF1607
C:\Users\CYMR90~1\AppData\Local\Temp\ccZoYVSv.s:28827  .debug_str:0000000000018cce .LASF1608
C:\Users\CYMR90~1\AppData\Local\Temp\ccZoYVSv.s:23770  .debug_str:00000000000047df .LASF1609
C:\Users\CYMR90~1\AppData\Local\Temp\ccZoYVSv.s:31251  .debug_str:00000000000226fe .LASF1610
C:\Users\CYMR90~1\AppData\Local\Temp\ccZoYVSv.s:33895  .debug_str:000000000002cdd4 .LASF1611
C:\Users\CYMR90~1\AppData\Local\Temp\ccZoYVSv.s:29749  .debug_str:000000000001c8fa .LASF1612
C:\Users\CYMR90~1\AppData\Local\Temp\ccZoYVSv.s:27792  .debug_str:0000000000014a79 .LASF1613
C:\Users\CYMR90~1\AppData\Local\Temp\ccZoYVSv.s:25146  .debug_str:000000000000a019 .LASF1614
C:\Users\CYMR90~1\AppData\Local\Temp\ccZoYVSv.s:29431  .debug_str:000000000001b5fa .LASF1615
C:\Users\CYMR90~1\AppData\Local\Temp\ccZoYVSv.s:31137  .debug_str:000000000002201f .LASF1616
C:\Users\CYMR90~1\AppData\Local\Temp\ccZoYVSv.s:27880  .debug_str:0000000000014fbf .LASF1617
C:\Users\CYMR90~1\AppData\Local\Temp\ccZoYVSv.s:29813  .debug_str:000000000001cda1 .LASF1618
C:\Users\CYMR90~1\AppData\Local\Temp\ccZoYVSv.s:23818  .debug_str:0000000000004bb6 .LASF1619
C:\Users\CYMR90~1\AppData\Local\Temp\ccZoYVSv.s:25536  .debug_str:000000000000b9fe .LASF1620
C:\Users\CYMR90~1\AppData\Local\Temp\ccZoYVSv.s:26374  .debug_str:000000000000eff7 .LASF1621
C:\Users\CYMR90~1\AppData\Local\Temp\ccZoYVSv.s:23384  .debug_str:0000000000002eb3 .LASF1622
C:\Users\CYMR90~1\AppData\Local\Temp\ccZoYVSv.s:30823  .debug_str:0000000000020cd4 .LASF1623
C:\Users\CYMR90~1\AppData\Local\Temp\ccZoYVSv.s:27482  .debug_str:0000000000013723 .LASF1624
C:\Users\CYMR90~1\AppData\Local\Temp\ccZoYVSv.s:25634  .debug_str:000000000000c0de .LASF1625
C:\Users\CYMR90~1\AppData\Local\Temp\ccZoYVSv.s:31551  .debug_str:000000000002387b .LASF1626
C:\Users\CYMR90~1\AppData\Local\Temp\ccZoYVSv.s:24304  .debug_str:0000000000006942 .LASF1627
C:\Users\CYMR90~1\AppData\Local\Temp\ccZoYVSv.s:30567  .debug_str:000000000001fd11 .LASF1628
C:\Users\CYMR90~1\AppData\Local\Temp\ccZoYVSv.s:25390  .debug_str:000000000000b013 .LASF1629
C:\Users\CYMR90~1\AppData\Local\Temp\ccZoYVSv.s:31333  .debug_str:0000000000022b67 .LASF1630
C:\Users\CYMR90~1\AppData\Local\Temp\ccZoYVSv.s:24850  .debug_str:0000000000008de8 .LASF1631
C:\Users\CYMR90~1\AppData\Local\Temp\ccZoYVSv.s:22974  .debug_str:0000000000001573 .LASF1632
C:\Users\CYMR90~1\AppData\Local\Temp\ccZoYVSv.s:29549  .debug_str:000000000001bd57 .LASF1633
C:\Users\CYMR90~1\AppData\Local\Temp\ccZoYVSv.s:28523  .debug_str:0000000000017a30 .LASF1634
C:\Users\CYMR90~1\AppData\Local\Temp\ccZoYVSv.s:25618  .debug_str:000000000000bf8e .LASF1635
C:\Users\CYMR90~1\AppData\Local\Temp\ccZoYVSv.s:25722  .debug_str:000000000000c6b4 .LASF1636
C:\Users\CYMR90~1\AppData\Local\Temp\ccZoYVSv.s:29403  .debug_str:000000000001b449 .LASF1637
C:\Users\CYMR90~1\AppData\Local\Temp\ccZoYVSv.s:25794  .debug_str:000000000000cb46 .LASF1638
C:\Users\CYMR90~1\AppData\Local\Temp\ccZoYVSv.s:25510  .debug_str:000000000000b85c .LASF1639
C:\Users\CYMR90~1\AppData\Local\Temp\ccZoYVSv.s:28731  .debug_str:0000000000018703 .LASF1640
C:\Users\CYMR90~1\AppData\Local\Temp\ccZoYVSv.s:26746  .debug_str:00000000000106ca .LASF1641
C:\Users\CYMR90~1\AppData\Local\Temp\ccZoYVSv.s:31905  .debug_str:0000000000024eda .LASF1642
C:\Users\CYMR90~1\AppData\Local\Temp\ccZoYVSv.s:27100  .debug_str:0000000000011dcb .LASF1643
C:\Users\CYMR90~1\AppData\Local\Temp\ccZoYVSv.s:30709  .debug_str:0000000000020603 .LASF1644
C:\Users\CYMR90~1\AppData\Local\Temp\ccZoYVSv.s:33863  .debug_str:000000000002cc35 .LASF1645
C:\Users\CYMR90~1\AppData\Local\Temp\ccZoYVSv.s:23374  .debug_str:0000000000002e2b .LASF1646
C:\Users\CYMR90~1\AppData\Local\Temp\ccZoYVSv.s:28314  .debug_str:0000000000016b0c .LASF1647
C:\Users\CYMR90~1\AppData\Local\Temp\ccZoYVSv.s:28427  .debug_str:0000000000017479 .LASF1648
C:\Users\CYMR90~1\AppData\Local\Temp\ccZoYVSv.s:23176  .debug_str:00000000000021a1 .LASF1649
C:\Users\CYMR90~1\AppData\Local\Temp\ccZoYVSv.s:24704  .debug_str:00000000000084a7 .LASF1650
C:\Users\CYMR90~1\AppData\Local\Temp\ccZoYVSv.s:31569  .debug_str:00000000000239b0 .LASF1651
C:\Users\CYMR90~1\AppData\Local\Temp\ccZoYVSv.s:26052  .debug_str:000000000000dbaf .LASF1652
C:\Users\CYMR90~1\AppData\Local\Temp\ccZoYVSv.s:24598  .debug_str:0000000000007c2d .LASF1653
C:\Users\CYMR90~1\AppData\Local\Temp\ccZoYVSv.s:22914  .debug_str:00000000000011ec .LASF1654
C:\Users\CYMR90~1\AppData\Local\Temp\ccZoYVSv.s:28625  .debug_str:000000000001807e .LASF1657
C:\Users\CYMR90~1\AppData\Local\Temp\ccZoYVSv.s:33431  .debug_str:000000000002b078 .LASF1658
C:\Users\CYMR90~1\AppData\Local\Temp\ccZoYVSv.s:26876  .debug_str:0000000000010f80 .LASF1659
C:\Users\CYMR90~1\AppData\Local\Temp\ccZoYVSv.s:28957  .debug_str:0000000000019665 .LASF1660
C:\Users\CYMR90~1\AppData\Local\Temp\ccZoYVSv.s:33665  .debug_str:000000000002be90 .LASF1661
C:\Users\CYMR90~1\AppData\Local\Temp\ccZoYVSv.s:33701  .debug_str:000000000002c12f .LASF1662
C:\Users\CYMR90~1\AppData\Local\Temp\ccZoYVSv.s:30917  .debug_str:000000000002128a .LASF1663
C:\Users\CYMR90~1\AppData\Local\Temp\ccZoYVSv.s:27838  .debug_str:0000000000014d0f .LASF1664
C:\Users\CYMR90~1\AppData\Local\Temp\ccZoYVSv.s:30063  .debug_str:000000000001de3a .LASF1665
C:\Users\CYMR90~1\AppData\Local\Temp\ccZoYVSv.s:31017  .debug_str:0000000000021868 .LASF1666
C:\Users\CYMR90~1\AppData\Local\Temp\ccZoYVSv.s:32145  .debug_str:0000000000026043 .LASF1667
C:\Users\CYMR90~1\AppData\Local\Temp\ccZoYVSv.s:26282  .debug_str:000000000000ea41 .LASF1668
C:\Users\CYMR90~1\AppData\Local\Temp\ccZoYVSv.s:23608  .debug_str:0000000000003d02 .LASF1669
C:\Users\CYMR90~1\AppData\Local\Temp\ccZoYVSv.s:24886  .debug_str:000000000000909e .LASF1670
C:\Users\CYMR90~1\AppData\Local\Temp\ccZoYVSv.s:23760  .debug_str:0000000000004739 .LASF1671
C:\Users\CYMR90~1\AppData\Local\Temp\ccZoYVSv.s:22716  .debug_str:0000000000000549 .LASF1672
C:\Users\CYMR90~1\AppData\Local\Temp\ccZoYVSv.s:27770  .debug_str:00000000000148b7 .LASF1673
C:\Users\CYMR90~1\AppData\Local\Temp\ccZoYVSv.s:27170  .debug_str:0000000000012206 .LASF1674
C:\Users\CYMR90~1\AppData\Local\Temp\ccZoYVSv.s:26322  .debug_str:000000000000ecc0 .LASF1675
C:\Users\CYMR90~1\AppData\Local\Temp\ccZoYVSv.s:31927  .debug_str:00000000000250d2 .LASF1676
C:\Users\CYMR90~1\AppData\Local\Temp\ccZoYVSv.s:27304  .debug_str:0000000000012ab6 .LASF1677
C:\Users\CYMR90~1\AppData\Local\Temp\ccZoYVSv.s:33865  .debug_str:000000000002cc4a .LASF1678
C:\Users\CYMR90~1\AppData\Local\Temp\ccZoYVSv.s:23280  .debug_str:00000000000027cb .LASF1679
C:\Users\CYMR90~1\AppData\Local\Temp\ccZoYVSv.s:26824  .debug_str:0000000000010bf4 .LASF1680
C:\Users\CYMR90~1\AppData\Local\Temp\ccZoYVSv.s:28002  .debug_str:000000000001578c .LASF1681
C:\Users\CYMR90~1\AppData\Local\Temp\ccZoYVSv.s:26670  .debug_str:000000000001024b .LASF1682
C:\Users\CYMR90~1\AppData\Local\Temp\ccZoYVSv.s:29387  .debug_str:000000000001b2c7 .LASF1683
C:\Users\CYMR90~1\AppData\Local\Temp\ccZoYVSv.s:31515  .debug_str:00000000000236bd .LASF1684
C:\Users\CYMR90~1\AppData\Local\Temp\ccZoYVSv.s:32451  .debug_str:00000000000273b7 .LASF1685
C:\Users\CYMR90~1\AppData\Local\Temp\ccZoYVSv.s:26822  .debug_str:0000000000010bdc .LASF1686
C:\Users\CYMR90~1\AppData\Local\Temp\ccZoYVSv.s:30805  .debug_str:0000000000020bbb .LASF1687
C:\Users\CYMR90~1\AppData\Local\Temp\ccZoYVSv.s:33179  .debug_str:000000000002a19e .LASF1688
C:\Users\CYMR90~1\AppData\Local\Temp\ccZoYVSv.s:31701  .debug_str:00000000000241df .LASF1689
C:\Users\CYMR90~1\AppData\Local\Temp\ccZoYVSv.s:29511  .debug_str:000000000001bad8 .LASF1690
C:\Users\CYMR90~1\AppData\Local\Temp\ccZoYVSv.s:27570  .debug_str:0000000000013c9d .LASF1691
C:\Users\CYMR90~1\AppData\Local\Temp\ccZoYVSv.s:31233  .debug_str:00000000000225fe .LASF1692
C:\Users\CYMR90~1\AppData\Local\Temp\ccZoYVSv.s:28815  .debug_str:0000000000018c15 .LASF1693
C:\Users\CYMR90~1\AppData\Local\Temp\ccZoYVSv.s:24698  .debug_str:0000000000008433 .LASF1694
C:\Users\CYMR90~1\AppData\Local\Temp\ccZoYVSv.s:26742  .debug_str:000000000001067e .LASF1695
C:\Users\CYMR90~1\AppData\Local\Temp\ccZoYVSv.s:28595  .debug_str:0000000000017ecb .LASF1696
C:\Users\CYMR90~1\AppData\Local\Temp\ccZoYVSv.s:27888  .debug_str:0000000000015052 .LASF1697
C:\Users\CYMR90~1\AppData\Local\Temp\ccZoYVSv.s:30459  .debug_str:000000000001f6af .LASF1698
C:\Users\CYMR90~1\AppData\Local\Temp\ccZoYVSv.s:28993  .debug_str:0000000000019890 .LASF1699
C:\Users\CYMR90~1\AppData\Local\Temp\ccZoYVSv.s:30933  .debug_str:0000000000021395 .LASF1700
C:\Users\CYMR90~1\AppData\Local\Temp\ccZoYVSv.s:30455  .debug_str:000000000001f672 .LASF1701
C:\Users\CYMR90~1\AppData\Local\Temp\ccZoYVSv.s:31745  .debug_str:000000000002444e .LASF1702
C:\Users\CYMR90~1\AppData\Local\Temp\ccZoYVSv.s:25982  .debug_str:000000000000d7a0 .LASF1703
C:\Users\CYMR90~1\AppData\Local\Temp\ccZoYVSv.s:31223  .debug_str:0000000000022564 .LASF1704
C:\Users\CYMR90~1\AppData\Local\Temp\ccZoYVSv.s:29633  .debug_str:000000000001c21c .LASF1705
C:\Users\CYMR90~1\AppData\Local\Temp\ccZoYVSv.s:31083  .debug_str:0000000000021cca .LASF1706
C:\Users\CYMR90~1\AppData\Local\Temp\ccZoYVSv.s:28505  .debug_str:00000000000178f5 .LASF1707
C:\Users\CYMR90~1\AppData\Local\Temp\ccZoYVSv.s:27484  .debug_str:0000000000013736 .LASF1708
C:\Users\CYMR90~1\AppData\Local\Temp\ccZoYVSv.s:30203  .debug_str:000000000001e761 .LASF1709
C:\Users\CYMR90~1\AppData\Local\Temp\ccZoYVSv.s:28733  .debug_str:0000000000018718 .LASF1710
C:\Users\CYMR90~1\AppData\Local\Temp\ccZoYVSv.s:32645  .debug_str:0000000000027fd1 .LASF1711
C:\Users\CYMR90~1\AppData\Local\Temp\ccZoYVSv.s:27120  .debug_str:0000000000011efc .LASF1712
C:\Users\CYMR90~1\AppData\Local\Temp\ccZoYVSv.s:24232  .debug_str:00000000000064fd .LASF1713
C:\Users\CYMR90~1\AppData\Local\Temp\ccZoYVSv.s:26586  .debug_str:000000000000fce9 .LASF1714
C:\Users\CYMR90~1\AppData\Local\Temp\ccZoYVSv.s:23504  .debug_str:000000000000366f .LASF1715
C:\Users\CYMR90~1\AppData\Local\Temp\ccZoYVSv.s:26820  .debug_str:0000000000010bb0 .LASF1716
C:\Users\CYMR90~1\AppData\Local\Temp\ccZoYVSv.s:30171  .debug_str:000000000001e56b .LASF1717
C:\Users\CYMR90~1\AppData\Local\Temp\ccZoYVSv.s:28697  .debug_str:00000000000184e5 .LASF1718
C:\Users\CYMR90~1\AppData\Local\Temp\ccZoYVSv.s:27060  .debug_str:0000000000011a0e .LASF1719
C:\Users\CYMR90~1\AppData\Local\Temp\ccZoYVSv.s:29057  .debug_str:0000000000019ca4 .LASF1720
C:\Users\CYMR90~1\AppData\Local\Temp\ccZoYVSv.s:27562  .debug_str:0000000000013c1a .LASF1721
C:\Users\CYMR90~1\AppData\Local\Temp\ccZoYVSv.s:23212  .debug_str:000000000000239b .LASF1722
C:\Users\CYMR90~1\AppData\Local\Temp\ccZoYVSv.s:29395  .debug_str:000000000001b366 .LASF1723
C:\Users\CYMR90~1\AppData\Local\Temp\ccZoYVSv.s:23272  .debug_str:0000000000002755 .LASF1724
C:\Users\CYMR90~1\AppData\Local\Temp\ccZoYVSv.s:28070  .debug_str:0000000000015b60 .LASF1725
C:\Users\CYMR90~1\AppData\Local\Temp\ccZoYVSv.s:32977  .debug_str:0000000000029595 .LASF1726
C:\Users\CYMR90~1\AppData\Local\Temp\ccZoYVSv.s:31371  .debug_str:0000000000022dbc .LASF1727
C:\Users\CYMR90~1\AppData\Local\Temp\ccZoYVSv.s:32611  .debug_str:0000000000027e08 .LASF1728
C:\Users\CYMR90~1\AppData\Local\Temp\ccZoYVSv.s:29859  .debug_str:000000000001d036 .LASF1729
C:\Users\CYMR90~1\AppData\Local\Temp\ccZoYVSv.s:33775  .debug_str:000000000002c633 .LASF1730
C:\Users\CYMR90~1\AppData\Local\Temp\ccZoYVSv.s:32441  .debug_str:000000000002731c .LASF1731
C:\Users\CYMR90~1\AppData\Local\Temp\ccZoYVSv.s:26992  .debug_str:00000000000115cc .LASF1732
C:\Users\CYMR90~1\AppData\Local\Temp\ccZoYVSv.s:24998  .debug_str:00000000000096d3 .LASF1733
C:\Users\CYMR90~1\AppData\Local\Temp\ccZoYVSv.s:22978  .debug_str:0000000000001597 .LASF1734
C:\Users\CYMR90~1\AppData\Local\Temp\ccZoYVSv.s:28461  .debug_str:0000000000017653 .LASF1735
C:\Users\CYMR90~1\AppData\Local\Temp\ccZoYVSv.s:30635  .debug_str:0000000000020160 .LASF1736
C:\Users\CYMR90~1\AppData\Local\Temp\ccZoYVSv.s:24990  .debug_str:000000000000965d .LASF1737
C:\Users\CYMR90~1\AppData\Local\Temp\ccZoYVSv.s:24716  .debug_str:000000000000855d .LASF1738
C:\Users\CYMR90~1\AppData\Local\Temp\ccZoYVSv.s:32447  .debug_str:0000000000027388 .LASF1739
C:\Users\CYMR90~1\AppData\Local\Temp\ccZoYVSv.s:26348  .debug_str:000000000000ee66 .LASF1740
C:\Users\CYMR90~1\AppData\Local\Temp\ccZoYVSv.s:25340  .debug_str:000000000000acca .LASF1741
C:\Users\CYMR90~1\AppData\Local\Temp\ccZoYVSv.s:30483  .debug_str:000000000001f81e .LASF1742
C:\Users\CYMR90~1\AppData\Local\Temp\ccZoYVSv.s:30125  .debug_str:000000000001e265 .LASF1743
C:\Users\CYMR90~1\AppData\Local\Temp\ccZoYVSv.s:32725  .debug_str:0000000000028526 .LASF1744
C:\Users\CYMR90~1\AppData\Local\Temp\ccZoYVSv.s:24722  .debug_str:00000000000085a8 .LASF1745
C:\Users\CYMR90~1\AppData\Local\Temp\ccZoYVSv.s:26642  .debug_str:0000000000010062 .LASF1746
C:\Users\CYMR90~1\AppData\Local\Temp\ccZoYVSv.s:22898  .debug_str:00000000000010f1 .LASF1747
C:\Users\CYMR90~1\AppData\Local\Temp\ccZoYVSv.s:31341  .debug_str:0000000000022be4 .LASF1748
C:\Users\CYMR90~1\AppData\Local\Temp\ccZoYVSv.s:26816  .debug_str:0000000000010b74 .LASF1749
C:\Users\CYMR90~1\AppData\Local\Temp\ccZoYVSv.s:25506  .debug_str:000000000000b813 .LASF1750
C:\Users\CYMR90~1\AppData\Local\Temp\ccZoYVSv.s:28631  .debug_str:00000000000180d4 .LASF1751
C:\Users\CYMR90~1\AppData\Local\Temp\ccZoYVSv.s:23866  .debug_str:0000000000004e98 .LASF1752
C:\Users\CYMR90~1\AppData\Local\Temp\ccZoYVSv.s:29371  .debug_str:000000000001b1d8 .LASF1753
C:\Users\CYMR90~1\AppData\Local\Temp\ccZoYVSv.s:29265  .debug_str:000000000001aaa8 .LASF1754
C:\Users\CYMR90~1\AppData\Local\Temp\ccZoYVSv.s:25786  .debug_str:000000000000ca86 .LASF1755
C:\Users\CYMR90~1\AppData\Local\Temp\ccZoYVSv.s:27368  .debug_str:0000000000012f19 .LASF1756
C:\Users\CYMR90~1\AppData\Local\Temp\ccZoYVSv.s:29465  .debug_str:000000000001b82f .LASF1757
C:\Users\CYMR90~1\AppData\Local\Temp\ccZoYVSv.s:26446  .debug_str:000000000000f3e0 .LASF1758
C:\Users\CYMR90~1\AppData\Local\Temp\ccZoYVSv.s:24538  .debug_str:0000000000007866 .LASF1759
C:\Users\CYMR90~1\AppData\Local\Temp\ccZoYVSv.s:29207  .debug_str:000000000001a5ec .LASF1760
C:\Users\CYMR90~1\AppData\Local\Temp\ccZoYVSv.s:24822  .debug_str:0000000000008c09 .LASF1761
C:\Users\CYMR90~1\AppData\Local\Temp\ccZoYVSv.s:23042  .debug_str:00000000000019e4 .LASF1762
C:\Users\CYMR90~1\AppData\Local\Temp\ccZoYVSv.s:31943  .debug_str:00000000000251a0 .LASF1763
C:\Users\CYMR90~1\AppData\Local\Temp\ccZoYVSv.s:24566  .debug_str:0000000000007a41 .LASF1764
C:\Users\CYMR90~1\AppData\Local\Temp\ccZoYVSv.s:24246  .debug_str:00000000000065f6 .LASF1765
C:\Users\CYMR90~1\AppData\Local\Temp\ccZoYVSv.s:23024  .debug_str:00000000000018b8 .LASF1766
C:\Users\CYMR90~1\AppData\Local\Temp\ccZoYVSv.s:29577  .debug_str:000000000001be98 .LASF1767
C:\Users\CYMR90~1\AppData\Local\Temp\ccZoYVSv.s:26146  .debug_str:000000000000e1cf .LASF1768
C:\Users\CYMR90~1\AppData\Local\Temp\ccZoYVSv.s:32149  .debug_str:00000000000260fe .LASF1769
C:\Users\CYMR90~1\AppData\Local\Temp\ccZoYVSv.s:33849  .debug_str:000000000002cb44 .LASF1770
C:\Users\CYMR90~1\AppData\Local\Temp\ccZoYVSv.s:25670  .debug_str:000000000000c322 .LASF1771
C:\Users\CYMR90~1\AppData\Local\Temp\ccZoYVSv.s:25248  .debug_str:000000000000a679 .LASF1772
C:\Users\CYMR90~1\AppData\Local\Temp\ccZoYVSv.s:33913  .debug_str:000000000002cf0f .LASF1773
C:\Users\CYMR90~1\AppData\Local\Temp\ccZoYVSv.s:22798  .debug_str:0000000000000a2a .LASF1774
C:\Users\CYMR90~1\AppData\Local\Temp\ccZoYVSv.s:32877  .debug_str:0000000000028fe4 .LASF1775
C:\Users\CYMR90~1\AppData\Local\Temp\ccZoYVSv.s:27784  .debug_str:00000000000149e5 .LASF1776
C:\Users\CYMR90~1\AppData\Local\Temp\ccZoYVSv.s:26526  .debug_str:000000000000f8ed .LASF1777
C:\Users\CYMR90~1\AppData\Local\Temp\ccZoYVSv.s:28621  .debug_str:000000000001804d .LASF1778
C:\Users\CYMR90~1\AppData\Local\Temp\ccZoYVSv.s:23970  .debug_str:0000000000005508 .LASF1779
C:\Users\CYMR90~1\AppData\Local\Temp\ccZoYVSv.s:32187  .debug_str:000000000002636d .LASF1780
C:\Users\CYMR90~1\AppData\Local\Temp\ccZoYVSv.s:31377  .debug_str:0000000000022e3f .LASF1781
C:\Users\CYMR90~1\AppData\Local\Temp\ccZoYVSv.s:29867  .debug_str:000000000001d0d8 .LASF1784
C:\Users\CYMR90~1\AppData\Local\Temp\ccZoYVSv.s:29005  .debug_str:0000000000019943 .LASF1785
C:\Users\CYMR90~1\AppData\Local\Temp\ccZoYVSv.s:28849  .debug_str:0000000000018e44 .LASF1786
C:\Users\CYMR90~1\AppData\Local\Temp\ccZoYVSv.s:27824  .debug_str:0000000000014c5f .LASF1787
C:\Users\CYMR90~1\AppData\Local\Temp\ccZoYVSv.s:33311  .debug_str:000000000002a972 .LASF1788
C:\Users\CYMR90~1\AppData\Local\Temp\ccZoYVSv.s:29405  .debug_str:000000000001b45e .LASF1789
C:\Users\CYMR90~1\AppData\Local\Temp\ccZoYVSv.s:23550  .debug_str:000000000000398b .LASF1790
C:\Users\CYMR90~1\AppData\Local\Temp\ccZoYVSv.s:22662  .debug_str:0000000000000210 .LASF1791
C:\Users\CYMR90~1\AppData\Local\Temp\ccZoYVSv.s:32533  .debug_str:000000000002789d .LASF1792
C:\Users\CYMR90~1\AppData\Local\Temp\ccZoYVSv.s:31601  .debug_str:0000000000023b70 .LASF1793
C:\Users\CYMR90~1\AppData\Local\Temp\ccZoYVSv.s:33499  .debug_str:000000000002b439 .LASF1794
C:\Users\CYMR90~1\AppData\Local\Temp\ccZoYVSv.s:32805  .debug_str:0000000000028b28 .LASF1795
C:\Users\CYMR90~1\AppData\Local\Temp\ccZoYVSv.s:27496  .debug_str:0000000000013800 .LASF1796
C:\Users\CYMR90~1\AppData\Local\Temp\ccZoYVSv.s:27774  .debug_str:00000000000148f9 .LASF1797
C:\Users\CYMR90~1\AppData\Local\Temp\ccZoYVSv.s:26880  .debug_str:0000000000010f9d .LASF1798
C:\Users\CYMR90~1\AppData\Local\Temp\ccZoYVSv.s:25698  .debug_str:000000000000c536 .LASF1799
C:\Users\CYMR90~1\AppData\Local\Temp\ccZoYVSv.s:28539  .debug_str:0000000000017b2f .LASF1800
C:\Users\CYMR90~1\AppData\Local\Temp\ccZoYVSv.s:28841  .debug_str:0000000000018dd3 .LASF1801
C:\Users\CYMR90~1\AppData\Local\Temp\ccZoYVSv.s:27910  .debug_str:00000000000151f2 .LASF1802
C:\Users\CYMR90~1\AppData\Local\Temp\ccZoYVSv.s:26940  .debug_str:00000000000112d8 .LASF1803
C:\Users\CYMR90~1\AppData\Local\Temp\ccZoYVSv.s:26420  .debug_str:000000000000f285 .LASF1804
C:\Users\CYMR90~1\AppData\Local\Temp\ccZoYVSv.s:31169  .debug_str:0000000000022239 .LASF1805
C:\Users\CYMR90~1\AppData\Local\Temp\ccZoYVSv.s:27794  .debug_str:0000000000014a9d .LASF1806
C:\Users\CYMR90~1\AppData\Local\Temp\ccZoYVSv.s:30747  .debug_str:00000000000207ff .LASF1807
C:\Users\CYMR90~1\AppData\Local\Temp\ccZoYVSv.s:27934  .debug_str:0000000000015388 .LASF1808
C:\Users\CYMR90~1\AppData\Local\Temp\ccZoYVSv.s:32797  .debug_str:0000000000028a16 .LASF1809
C:\Users\CYMR90~1\AppData\Local\Temp\ccZoYVSv.s:29961  .debug_str:000000000001d7c0 .LASF1810
C:\Users\CYMR90~1\AppData\Local\Temp\ccZoYVSv.s:28637  .debug_str:0000000000018149 .LASF1811
C:\Users\CYMR90~1\AppData\Local\Temp\ccZoYVSv.s:23000  .debug_str:00000000000016cb .LASF1812
C:\Users\CYMR90~1\AppData\Local\Temp\ccZoYVSv.s:26830  .debug_str:0000000000010c3a .LASF1813
C:\Users\CYMR90~1\AppData\Local\Temp\ccZoYVSv.s:27104  .debug_str:0000000000011dfd .LASF1814
C:\Users\CYMR90~1\AppData\Local\Temp\ccZoYVSv.s:29943  .debug_str:000000000001d6c1 .LASF1815
C:\Users\CYMR90~1\AppData\Local\Temp\ccZoYVSv.s:28601  .debug_str:0000000000017f3d .LASF1816
C:\Users\CYMR90~1\AppData\Local\Temp\ccZoYVSv.s:29951  .debug_str:000000000001d73f .LASF1817
C:\Users\CYMR90~1\AppData\Local\Temp\ccZoYVSv.s:30405  .debug_str:000000000001f323 .LASF1818
C:\Users\CYMR90~1\AppData\Local\Temp\ccZoYVSv.s:26640  .debug_str:000000000001004d .LASF1819
C:\Users\CYMR90~1\AppData\Local\Temp\ccZoYVSv.s:30897  .debug_str:0000000000021138 .LASF1820
C:\Users\CYMR90~1\AppData\Local\Temp\ccZoYVSv.s:24272  .debug_str:0000000000006768 .LASF1821
C:\Users\CYMR90~1\AppData\Local\Temp\ccZoYVSv.s:24658  .debug_str:00000000000080e5 .LASF1822
C:\Users\CYMR90~1\AppData\Local\Temp\ccZoYVSv.s:30335  .debug_str:000000000001ef65 .LASF1823
C:\Users\CYMR90~1\AppData\Local\Temp\ccZoYVSv.s:33091  .debug_str:0000000000029c62 .LASF1824
C:\Users\CYMR90~1\AppData\Local\Temp\ccZoYVSv.s:25572  .debug_str:000000000000bc9d .LASF1825
C:\Users\CYMR90~1\AppData\Local\Temp\ccZoYVSv.s:31005  .debug_str:00000000000217b2 .LASF1826
C:\Users\CYMR90~1\AppData\Local\Temp\ccZoYVSv.s:33439  .debug_str:000000000002b0dc .LASF1827
C:\Users\CYMR90~1\AppData\Local\Temp\ccZoYVSv.s:26394  .debug_str:000000000000f109 .LASF1828
C:\Users\CYMR90~1\AppData\Local\Temp\ccZoYVSv.s:26466  .debug_str:000000000000f555 .LASF1829
C:\Users\CYMR90~1\AppData\Local\Temp\ccZoYVSv.s:27248  .debug_str:000000000001271b .LASF1830
C:\Users\CYMR90~1\AppData\Local\Temp\ccZoYVSv.s:25018  .debug_str:0000000000009866 .LASF1831
C:\Users\CYMR90~1\AppData\Local\Temp\ccZoYVSv.s:32477  .debug_str:0000000000027506 .LASF1832
C:\Users\CYMR90~1\AppData\Local\Temp\ccZoYVSv.s:25838  .debug_str:000000000000ce1a .LASF1833
C:\Users\CYMR90~1\AppData\Local\Temp\ccZoYVSv.s:24478  .debug_str:00000000000074db .LASF1834
C:\Users\CYMR90~1\AppData\Local\Temp\ccZoYVSv.s:28228  .debug_str:00000000000165ba .LASF1835
C:\Users\CYMR90~1\AppData\Local\Temp\ccZoYVSv.s:32339  .debug_str:0000000000026c9e .LASF1836
C:\Users\CYMR90~1\AppData\Local\Temp\ccZoYVSv.s:28198  .debug_str:0000000000016406 .LASF1837
C:\Users\CYMR90~1\AppData\Local\Temp\ccZoYVSv.s:28927  .debug_str:00000000000193c7 .LASF1838
C:\Users\CYMR90~1\AppData\Local\Temp\ccZoYVSv.s:26884  .debug_str:0000000000010fd5 .LASF1839
C:\Users\CYMR90~1\AppData\Local\Temp\ccZoYVSv.s:29899  .debug_str:000000000001d376 .LASF1840
C:\Users\CYMR90~1\AppData\Local\Temp\ccZoYVSv.s:29169  .debug_str:000000000001a3e5 .LASF1841
C:\Users\CYMR90~1\AppData\Local\Temp\ccZoYVSv.s:32025  .debug_str:000000000002571b .LASF1842
C:\Users\CYMR90~1\AppData\Local\Temp\ccZoYVSv.s:32431  .debug_str:000000000002727b .LASF1843
C:\Users\CYMR90~1\AppData\Local\Temp\ccZoYVSv.s:33633  .debug_str:000000000002bcb5 .LASF1844
C:\Users\CYMR90~1\AppData\Local\Temp\ccZoYVSv.s:33493  .debug_str:000000000002b3de .LASF1845
C:\Users\CYMR90~1\AppData\Local\Temp\ccZoYVSv.s:24758  .debug_str:00000000000087fd .LASF1846
C:\Users\CYMR90~1\AppData\Local\Temp\ccZoYVSv.s:30101  .debug_str:000000000001e064 .LASF1847
C:\Users\CYMR90~1\AppData\Local\Temp\ccZoYVSv.s:31277  .debug_str:0000000000022887 .LASF1848
C:\Users\CYMR90~1\AppData\Local\Temp\ccZoYVSv.s:31293  .debug_str:0000000000022965 .LASF1849
C:\Users\CYMR90~1\AppData\Local\Temp\ccZoYVSv.s:30493  .debug_str:000000000001f8bc .LASF1850
C:\Users\CYMR90~1\AppData\Local\Temp\ccZoYVSv.s:24816  .debug_str:0000000000008b98 .LASF1851
C:\Users\CYMR90~1\AppData\Local\Temp\ccZoYVSv.s:32385  .debug_str:0000000000026fb0 .LASF1852
C:\Users\CYMR90~1\AppData\Local\Temp\ccZoYVSv.s:26076  .debug_str:000000000000dd7b .LASF1853
C:\Users\CYMR90~1\AppData\Local\Temp\ccZoYVSv.s:23452  .debug_str:00000000000032fd .LASF1854
C:\Users\CYMR90~1\AppData\Local\Temp\ccZoYVSv.s:29979  .debug_str:000000000001d8e4 .LASF1855
C:\Users\CYMR90~1\AppData\Local\Temp\ccZoYVSv.s:32651  .debug_str:000000000002803f .LASF1856
C:\Users\CYMR90~1\AppData\Local\Temp\ccZoYVSv.s:24894  .debug_str:000000000000912d .LASF1857
C:\Users\CYMR90~1\AppData\Local\Temp\ccZoYVSv.s:25768  .debug_str:000000000000c96e .LASF1858
C:\Users\CYMR90~1\AppData\Local\Temp\ccZoYVSv.s:32747  .debug_str:0000000000028684 .LASF1859
C:\Users\CYMR90~1\AppData\Local\Temp\ccZoYVSv.s:27940  .debug_str:00000000000153e9 .LASF1860
C:\Users\CYMR90~1\AppData\Local\Temp\ccZoYVSv.s:28871  .debug_str:0000000000019038 .LASF1861
C:\Users\CYMR90~1\AppData\Local\Temp\ccZoYVSv.s:26690  .debug_str:0000000000010362 .LASF1862
C:\Users\CYMR90~1\AppData\Local\Temp\ccZoYVSv.s:24432  .debug_str:000000000000715b .LASF1863
C:\Users\CYMR90~1\AppData\Local\Temp\ccZoYVSv.s:28781  .debug_str:00000000000189f1 .LASF1864
C:\Users\CYMR90~1\AppData\Local\Temp\ccZoYVSv.s:24078  .debug_str:0000000000005b98 .LASF1865
C:\Users\CYMR90~1\AppData\Local\Temp\ccZoYVSv.s:31487  .debug_str:0000000000023532 .LASF1866
C:\Users\CYMR90~1\AppData\Local\Temp\ccZoYVSv.s:30679  .debug_str:0000000000020434 .LASF1867
C:\Users\CYMR90~1\AppData\Local\Temp\ccZoYVSv.s:25696  .debug_str:000000000000c506 .LASF1868
C:\Users\CYMR90~1\AppData\Local\Temp\ccZoYVSv.s:22778  .debug_str:0000000000000910 .LASF1869
C:\Users\CYMR90~1\AppData\Local\Temp\ccZoYVSv.s:23154  .debug_str:0000000000002076 .LASF1870
C:\Users\CYMR90~1\AppData\Local\Temp\ccZoYVSv.s:22858  .debug_str:0000000000000e24 .LASF1871
C:\Users\CYMR90~1\AppData\Local\Temp\ccZoYVSv.s:32127  .debug_str:0000000000025efa .LASF1872
C:\Users\CYMR90~1\AppData\Local\Temp\ccZoYVSv.s:28393  .debug_str:0000000000017277 .LASF1873
C:\Users\CYMR90~1\AppData\Local\Temp\ccZoYVSv.s:24606  .debug_str:0000000000007d13 .LASF1874
C:\Users\CYMR90~1\AppData\Local\Temp\ccZoYVSv.s:25486  .debug_str:000000000000b668 .LASF1875
C:\Users\CYMR90~1\AppData\Local\Temp\ccZoYVSv.s:33215  .debug_str:000000000002a3ca .LASF1876
C:\Users\CYMR90~1\AppData\Local\Temp\ccZoYVSv.s:23470  .debug_str:0000000000003435 .LASF1877
C:\Users\CYMR90~1\AppData\Local\Temp\ccZoYVSv.s:30161  .debug_str:000000000001e4db .LASF1878
C:\Users\CYMR90~1\AppData\Local\Temp\ccZoYVSv.s:26530  .debug_str:000000000000f926 .LASF1879
C:\Users\CYMR90~1\AppData\Local\Temp\ccZoYVSv.s:24852  .debug_str:0000000000008dff .LASF1880
C:\Users\CYMR90~1\AppData\Local\Temp\ccZoYVSv.s:30473  .debug_str:000000000001f77f .LASF1881
C:\Users\CYMR90~1\AppData\Local\Temp\ccZoYVSv.s:22894  .debug_str:00000000000010b4 .LASF1882
C:\Users\CYMR90~1\AppData\Local\Temp\ccZoYVSv.s:30887  .debug_str:0000000000021076 .LASF1883
C:\Users\CYMR90~1\AppData\Local\Temp\ccZoYVSv.s:33629  .debug_str:000000000002bc6d .LASF1884
C:\Users\CYMR90~1\AppData\Local\Temp\ccZoYVSv.s:30585  .debug_str:000000000001fe21 .LASF1885
C:\Users\CYMR90~1\AppData\Local\Temp\ccZoYVSv.s:32763  .debug_str:0000000000028784 .LASF1886
C:\Users\CYMR90~1\AppData\Local\Temp\ccZoYVSv.s:25078  .debug_str:0000000000009c12 .LASF1887
C:\Users\CYMR90~1\AppData\Local\Temp\ccZoYVSv.s:24882  .debug_str:0000000000009060 .LASF1888
C:\Users\CYMR90~1\AppData\Local\Temp\ccZoYVSv.s:33661  .debug_str:000000000002be4e .LASF1889
C:\Users\CYMR90~1\AppData\Local\Temp\ccZoYVSv.s:29021  .debug_str:0000000000019a06 .LASF1890
C:\Users\CYMR90~1\AppData\Local\Temp\ccZoYVSv.s:26468  .debug_str:000000000000f569 .LASF1891
C:\Users\CYMR90~1\AppData\Local\Temp\ccZoYVSv.s:25164  .debug_str:000000000000a14e .LASF1892
C:\Users\CYMR90~1\AppData\Local\Temp\ccZoYVSv.s:29781  .debug_str:000000000001cad3 .LASF1893
C:\Users\CYMR90~1\AppData\Local\Temp\ccZoYVSv.s:24876  .debug_str:0000000000008ff4 .LASF1894
C:\Users\CYMR90~1\AppData\Local\Temp\ccZoYVSv.s:26140  .debug_str:000000000000e17e .LASF1895
C:\Users\CYMR90~1\AppData\Local\Temp\ccZoYVSv.s:28473  .debug_str:0000000000017723 .LASF1896
C:\Users\CYMR90~1\AppData\Local\Temp\ccZoYVSv.s:23104  .debug_str:0000000000001d79 .LASF1897
C:\Users\CYMR90~1\AppData\Local\Temp\ccZoYVSv.s:32501  .debug_str:00000000000276b7 .LASF1898
C:\Users\CYMR90~1\AppData\Local\Temp\ccZoYVSv.s:29271  .debug_str:000000000001ab1a .LASF1899
C:\Users\CYMR90~1\AppData\Local\Temp\ccZoYVSv.s:25968  .debug_str:000000000000d6c1 .LASF1900
C:\Users\CYMR90~1\AppData\Local\Temp\ccZoYVSv.s:22698  .debug_str:0000000000000438 .LASF1901
C:\Users\CYMR90~1\AppData\Local\Temp\ccZoYVSv.s:23534  .debug_str:0000000000003863 .LASF1902
C:\Users\CYMR90~1\AppData\Local\Temp\ccZoYVSv.s:25598  .debug_str:000000000000bde3 .LASF1903
C:\Users\CYMR90~1\AppData\Local\Temp\ccZoYVSv.s:33915  .debug_str:000000000002cf36 .LASF1904
C:\Users\CYMR90~1\AppData\Local\Temp\ccZoYVSv.s:28332  .debug_str:0000000000016c75 .LASF1905
C:\Users\CYMR90~1\AppData\Local\Temp\ccZoYVSv.s:25036  .debug_str:000000000000993e .LASF1906
C:\Users\CYMR90~1\AppData\Local\Temp\ccZoYVSv.s:32839  .debug_str:0000000000028d38 .LASF1907
C:\Users\CYMR90~1\AppData\Local\Temp\ccZoYVSv.s:29823  .debug_str:000000000001ce23 .LASF1908
C:\Users\CYMR90~1\AppData\Local\Temp\ccZoYVSv.s:24066  .debug_str:0000000000005ace .LASF1909
C:\Users\CYMR90~1\AppData\Local\Temp\ccZoYVSv.s:33207  .debug_str:000000000002a34d .LASF1910
C:\Users\CYMR90~1\AppData\Local\Temp\ccZoYVSv.s:29451  .debug_str:000000000001b754 .LASF1911
C:\Users\CYMR90~1\AppData\Local\Temp\ccZoYVSv.s:29123  .debug_str:000000000001a143 .LASF1912
C:\Users\CYMR90~1\AppData\Local\Temp\ccZoYVSv.s:25504  .debug_str:000000000000b7f4 .LASF1913
C:\Users\CYMR90~1\AppData\Local\Temp\ccZoYVSv.s:25336  .debug_str:000000000000ac72 .LASF1914
C:\Users\CYMR90~1\AppData\Local\Temp\ccZoYVSv.s:30783  .debug_str:0000000000020a04 .LASF1915
C:\Users\CYMR90~1\AppData\Local\Temp\ccZoYVSv.s:32103  .debug_str:0000000000025d29 .LASF1916
C:\Users\CYMR90~1\AppData\Local\Temp\ccZoYVSv.s:28635  .debug_str:000000000001811d .LASF1917
C:\Users\CYMR90~1\AppData\Local\Temp\ccZoYVSv.s:25240  .debug_str:000000000000a60f .LASF1918
C:\Users\CYMR90~1\AppData\Local\Temp\ccZoYVSv.s:33261  .debug_str:000000000002a67a .LASF1919
C:\Users\CYMR90~1\AppData\Local\Temp\ccZoYVSv.s:29791  .debug_str:000000000001cb76 .LASF1920
C:\Users\CYMR90~1\AppData\Local\Temp\ccZoYVSv.s:25930  .debug_str:000000000000d3ab .LASF1921
C:\Users\CYMR90~1\AppData\Local\Temp\ccZoYVSv.s:24452  .debug_str:00000000000072c6 .LASF1922
C:\Users\CYMR90~1\AppData\Local\Temp\ccZoYVSv.s:30853  .debug_str:0000000000020ea4 .LASF1923
C:\Users\CYMR90~1\AppData\Local\Temp\ccZoYVSv.s:32993  .debug_str:0000000000029698 .LASF1924
C:\Users\CYMR90~1\AppData\Local\Temp\ccZoYVSv.s:25358  .debug_str:000000000000ae06 .LASF1925
C:\Users\CYMR90~1\AppData\Local\Temp\ccZoYVSv.s:30677  .debug_str:0000000000020406 .LASF1926
C:\Users\CYMR90~1\AppData\Local\Temp\ccZoYVSv.s:29685  .debug_str:000000000001c52c .LASF1927
C:\Users\CYMR90~1\AppData\Local\Temp\ccZoYVSv.s:30403  .debug_str:000000000001f2f4 .LASF1928
C:\Users\CYMR90~1\AppData\Local\Temp\ccZoYVSv.s:24504  .debug_str:0000000000007666 .LASF1929
C:\Users\CYMR90~1\AppData\Local\Temp\ccZoYVSv.s:30603  .debug_str:000000000001ff5a .LASF1930
C:\Users\CYMR90~1\AppData\Local\Temp\ccZoYVSv.s:33943  .debug_str:000000000002d12a .LASF1931
C:\Users\CYMR90~1\AppData\Local\Temp\ccZoYVSv.s:33621  .debug_str:000000000002bbd3 .LASF1932
C:\Users\CYMR90~1\AppData\Local\Temp\ccZoYVSv.s:24618  .debug_str:0000000000007dbd .LASF1933
C:\Users\CYMR90~1\AppData\Local\Temp\ccZoYVSv.s:25674  .debug_str:000000000000c37d .LASF1934
C:\Users\CYMR90~1\AppData\Local\Temp\ccZoYVSv.s:29763  .debug_str:000000000001c9b1 .LASF1935
C:\Users\CYMR90~1\AppData\Local\Temp\ccZoYVSv.s:24108  .debug_str:0000000000005d90 .LASF1936
C:\Users\CYMR90~1\AppData\Local\Temp\ccZoYVSv.s:29621  .debug_str:000000000001c145 .LASF1937
C:\Users\CYMR90~1\AppData\Local\Temp\ccZoYVSv.s:28583  .debug_str:0000000000017e20 .LASF1938
C:\Users\CYMR90~1\AppData\Local\Temp\ccZoYVSv.s:27890  .debug_str:000000000001507e .LASF1939
C:\Users\CYMR90~1\AppData\Local\Temp\ccZoYVSv.s:24802  .debug_str:0000000000008a7f .LASF1940
C:\Users\CYMR90~1\AppData\Local\Temp\ccZoYVSv.s:33057  .debug_str:0000000000029a86 .LASF1941
C:\Users\CYMR90~1\AppData\Local\Temp\ccZoYVSv.s:29881  .debug_str:000000000001d1b9 .LASF1942
C:\Users\CYMR90~1\AppData\Local\Temp\ccZoYVSv.s:25732  .debug_str:000000000000c740 .LASF1943
C:\Users\CYMR90~1\AppData\Local\Temp\ccZoYVSv.s:26866  .debug_str:0000000000010e4f .LASF1944
C:\Users\CYMR90~1\AppData\Local\Temp\ccZoYVSv.s:30713  .debug_str:000000000002063f .LASF1945
C:\Users\CYMR90~1\AppData\Local\Temp\ccZoYVSv.s:27604  .debug_str:0000000000013e9d .LASF1946
C:\Users\CYMR90~1\AppData\Local\Temp\ccZoYVSv.s:24394  .debug_str:0000000000006f25 .LASF1947
C:\Users\CYMR90~1\AppData\Local\Temp\ccZoYVSv.s:23302  .debug_str:0000000000002974 .LASF1948
C:\Users\CYMR90~1\AppData\Local\Temp\ccZoYVSv.s:29509  .debug_str:000000000001bab9 .LASF1949
C:\Users\CYMR90~1\AppData\Local\Temp\ccZoYVSv.s:26410  .debug_str:000000000000f1da .LASF1950
C:\Users\CYMR90~1\AppData\Local\Temp\ccZoYVSv.s:23174  .debug_str:0000000000002182 .LASF1951
C:\Users\CYMR90~1\AppData\Local\Temp\ccZoYVSv.s:31501  .debug_str:00000000000235db .LASF1952
C:\Users\CYMR90~1\AppData\Local\Temp\ccZoYVSv.s:32233  .debug_str:0000000000026627 .LASF1953
C:\Users\CYMR90~1\AppData\Local\Temp\ccZoYVSv.s:27730  .debug_str:0000000000014685 .LASF1954
C:\Users\CYMR90~1\AppData\Local\Temp\ccZoYVSv.s:31021  .debug_str:00000000000218a1 .LASF1955
C:\Users\CYMR90~1\AppData\Local\Temp\ccZoYVSv.s:31703  .debug_str:00000000000241f7 .LASF1956
C:\Users\CYMR90~1\AppData\Local\Temp\ccZoYVSv.s:23228  .debug_str:000000000000247e .LASF1957
C:\Users\CYMR90~1\AppData\Local\Temp\ccZoYVSv.s:33465  .debug_str:000000000002b262 .LASF1958
C:\Users\CYMR90~1\AppData\Local\Temp\ccZoYVSv.s:24624  .debug_str:0000000000007e2e .LASF1959
C:\Users\CYMR90~1\AppData\Local\Temp\ccZoYVSv.s:33041  .debug_str:00000000000299a0 .LASF1960
C:\Users\CYMR90~1\AppData\Local\Temp\ccZoYVSv.s:29831  .debug_str:000000000001cea9 .LASF1961
C:\Users\CYMR90~1\AppData\Local\Temp\ccZoYVSv.s:22738  .debug_str:0000000000000688 .LASF1962
C:\Users\CYMR90~1\AppData\Local\Temp\ccZoYVSv.s:28108  .debug_str:0000000000015d9d .LASF1963
C:\Users\CYMR90~1\AppData\Local\Temp\ccZoYVSv.s:32083  .debug_str:0000000000025bc3 .LASF1964
C:\Users\CYMR90~1\AppData\Local\Temp\ccZoYVSv.s:24456  .debug_str:0000000000007331 .LASF1965
C:\Users\CYMR90~1\AppData\Local\Temp\ccZoYVSv.s:29971  .debug_str:000000000001d849 .LASF1966
C:\Users\CYMR90~1\AppData\Local\Temp\ccZoYVSv.s:33043  .debug_str:00000000000299c0 .LASF1967
C:\Users\CYMR90~1\AppData\Local\Temp\ccZoYVSv.s:29805  .debug_str:000000000001cd05 .LASF1968
C:\Users\CYMR90~1\AppData\Local\Temp\ccZoYVSv.s:31381  .debug_str:0000000000022e7f .LASF1969
C:\Users\CYMR90~1\AppData\Local\Temp\ccZoYVSv.s:25782  .debug_str:000000000000ca37 .LASF1970
C:\Users\CYMR90~1\AppData\Local\Temp\ccZoYVSv.s:31387  .debug_str:0000000000022ecd .LASF1971
C:\Users\CYMR90~1\AppData\Local\Temp\ccZoYVSv.s:32119  .debug_str:0000000000025e53 .LASF1972
C:\Users\CYMR90~1\AppData\Local\Temp\ccZoYVSv.s:29109  .debug_str:000000000001a065 .LASF1973
C:\Users\CYMR90~1\AppData\Local\Temp\ccZoYVSv.s:28913  .debug_str:00000000000192f8 .LASF1974
C:\Users\CYMR90~1\AppData\Local\Temp\ccZoYVSv.s:33513  .debug_str:000000000002b531 .LASF1975
C:\Users\CYMR90~1\AppData\Local\Temp\ccZoYVSv.s:24642  .debug_str:0000000000007fe0 .LASF1976
C:\Users\CYMR90~1\AppData\Local\Temp\ccZoYVSv.s:24982  .debug_str:0000000000009604 .LASF1977
C:\Users\CYMR90~1\AppData\Local\Temp\ccZoYVSv.s:33283  .debug_str:000000000002a7c8 .LASF1978
C:\Users\CYMR90~1\AppData\Local\Temp\ccZoYVSv.s:23926  .debug_str:0000000000005234 .LASF1979
C:\Users\CYMR90~1\AppData\Local\Temp\ccZoYVSv.s:32015  .debug_str:0000000000025674 .LASF1980
C:\Users\CYMR90~1\AppData\Local\Temp\ccZoYVSv.s:31869  .debug_str:0000000000024cb6 .LASF1981
C:\Users\CYMR90~1\AppData\Local\Temp\ccZoYVSv.s:31709  .debug_str:0000000000024255 .LASF1982
C:\Users\CYMR90~1\AppData\Local\Temp\ccZoYVSv.s:32549  .debug_str:0000000000027976 .LASF1983
C:\Users\CYMR90~1\AppData\Local\Temp\ccZoYVSv.s:33467  .debug_str:000000000002b280 .LASF1984
C:\Users\CYMR90~1\AppData\Local\Temp\ccZoYVSv.s:30367  .debug_str:000000000001f0ec .LASF1985
C:\Users\CYMR90~1\AppData\Local\Temp\ccZoYVSv.s:29539  .debug_str:000000000001bca4 .LASF1986
C:\Users\CYMR90~1\AppData\Local\Temp\ccZoYVSv.s:27804  .debug_str:0000000000014b26 .LASF1987
C:\Users\CYMR90~1\AppData\Local\Temp\ccZoYVSv.s:28811  .debug_str:0000000000018bdc .LASF1988
C:\Users\CYMR90~1\AppData\Local\Temp\ccZoYVSv.s:25832  .debug_str:000000000000cdc0 .LASF1989
C:\Users\CYMR90~1\AppData\Local\Temp\ccZoYVSv.s:24844  .debug_str:0000000000008d8e .LASF1990
C:\Users\CYMR90~1\AppData\Local\Temp\ccZoYVSv.s:25890  .debug_str:000000000000d0e9 .LASF1991
C:\Users\CYMR90~1\AppData\Local\Temp\ccZoYVSv.s:29163  .debug_str:000000000001a376 .LASF1992
C:\Users\CYMR90~1\AppData\Local\Temp\ccZoYVSv.s:29543  .debug_str:000000000001bceb .LASF1993
C:\Users\CYMR90~1\AppData\Local\Temp\ccZoYVSv.s:22890  .debug_str:0000000000001084 .LASF1994
C:\Users\CYMR90~1\AppData\Local\Temp\ccZoYVSv.s:32135  .debug_str:0000000000025f8e .LASF1995
C:\Users\CYMR90~1\AppData\Local\Temp\ccZoYVSv.s:23532  .debug_str:000000000000382f .LASF1996
C:\Users\CYMR90~1\AppData\Local\Temp\ccZoYVSv.s:32599  .debug_str:0000000000027d64 .LASF1997
C:\Users\CYMR90~1\AppData\Local\Temp\ccZoYVSv.s:24774  .debug_str:00000000000088c4 .LASF1998
C:\Users\CYMR90~1\AppData\Local\Temp\ccZoYVSv.s:28739  .debug_str:0000000000018782 .LASF1999
C:\Users\CYMR90~1\AppData\Local\Temp\ccZoYVSv.s:28216  .debug_str:000000000001650f .LASF2000
C:\Users\CYMR90~1\AppData\Local\Temp\ccZoYVSv.s:27026  .debug_str:00000000000117fa .LASF2001
C:\Users\CYMR90~1\AppData\Local\Temp\ccZoYVSv.s:31395  .debug_str:0000000000022f5f .LASF2002
C:\Users\CYMR90~1\AppData\Local\Temp\ccZoYVSv.s:32817  .debug_str:0000000000028bed .LASF2003
C:\Users\CYMR90~1\AppData\Local\Temp\ccZoYVSv.s:26580  .debug_str:000000000000fc9e .LASF2004
C:\Users\CYMR90~1\AppData\Local\Temp\ccZoYVSv.s:31279  .debug_str:00000000000228a2 .LASF2005
C:\Users\CYMR90~1\AppData\Local\Temp\ccZoYVSv.s:28429  .debug_str:000000000001748d .LASF2006
C:\Users\CYMR90~1\AppData\Local\Temp\ccZoYVSv.s:33717  .debug_str:000000000002c236 .LASF2007
C:\Users\CYMR90~1\AppData\Local\Temp\ccZoYVSv.s:23972  .debug_str:0000000000005530 .LASF2008
C:\Users\CYMR90~1\AppData\Local\Temp\ccZoYVSv.s:27532  .debug_str:0000000000013a69 .LASF2009
C:\Users\CYMR90~1\AppData\Local\Temp\ccZoYVSv.s:30255  .debug_str:000000000001ea71 .LASF2010
C:\Users\CYMR90~1\AppData\Local\Temp\ccZoYVSv.s:25858  .debug_str:000000000000cf35 .LASF2011
C:\Users\CYMR90~1\AppData\Local\Temp\ccZoYVSv.s:23084  .debug_str:0000000000001c68 .LASF2012
C:\Users\CYMR90~1\AppData\Local\Temp\ccZoYVSv.s:31587  .debug_str:0000000000023aac .LASF2013
C:\Users\CYMR90~1\AppData\Local\Temp\ccZoYVSv.s:31331  .debug_str:0000000000022b4f .LASF2014
C:\Users\CYMR90~1\AppData\Local\Temp\ccZoYVSv.s:29249  .debug_str:000000000001a9d3 .LASF2015
C:\Users\CYMR90~1\AppData\Local\Temp\ccZoYVSv.s:33193  .debug_str:000000000002a27d .LASF2016
C:\Users\CYMR90~1\AppData\Local\Temp\ccZoYVSv.s:31493  .debug_str:0000000000023584 .LASF2017
C:\Users\CYMR90~1\AppData\Local\Temp\ccZoYVSv.s:33623  .debug_str:000000000002bc03 .LASF2018
C:\Users\CYMR90~1\AppData\Local\Temp\ccZoYVSv.s:30009  .debug_str:000000000001daa0 .LASF2019
C:\Users\CYMR90~1\AppData\Local\Temp\ccZoYVSv.s:24332  .debug_str:0000000000006b38 .LASF2020
C:\Users\CYMR90~1\AppData\Local\Temp\ccZoYVSv.s:31537  .debug_str:00000000000237d7 .LASF2021
C:\Users\CYMR90~1\AppData\Local\Temp\ccZoYVSv.s:32539  .debug_str:00000000000278f8 .LASF2022
C:\Users\CYMR90~1\AppData\Local\Temp\ccZoYVSv.s:26910  .debug_str:000000000001111f .LASF2023
C:\Users\CYMR90~1\AppData\Local\Temp\ccZoYVSv.s:32479  .debug_str:000000000002751b .LASF2024
C:\Users\CYMR90~1\AppData\Local\Temp\ccZoYVSv.s:25570  .debug_str:000000000000bc82 .LASF2025
C:\Users\CYMR90~1\AppData\Local\Temp\ccZoYVSv.s:33573  .debug_str:000000000002b86f .LASF2026
C:\Users\CYMR90~1\AppData\Local\Temp\ccZoYVSv.s:23496  .debug_str:00000000000035ed .LASF2027
C:\Users\CYMR90~1\AppData\Local\Temp\ccZoYVSv.s:31599  .debug_str:0000000000023b52 .LASF2028
C:\Users\CYMR90~1\AppData\Local\Temp\ccZoYVSv.s:30573  .debug_str:000000000001fd4d .LASF2029
C:\Users\CYMR90~1\AppData\Local\Temp\ccZoYVSv.s:33153  .debug_str:000000000002a037 .LASF2030
C:\Users\CYMR90~1\AppData\Local\Temp\ccZoYVSv.s:28639  .debug_str:000000000001815e .LASF2031
C:\Users\CYMR90~1\AppData\Local\Temp\ccZoYVSv.s:25328  .debug_str:000000000000ac0f .LASF2032
C:\Users\CYMR90~1\AppData\Local\Temp\ccZoYVSv.s:26548  .debug_str:000000000000fadb .LASF2033
C:\Users\CYMR90~1\AppData\Local\Temp\ccZoYVSv.s:25548  .debug_str:000000000000bac7 .LASF2034
C:\Users\CYMR90~1\AppData\Local\Temp\ccZoYVSv.s:27102  .debug_str:0000000000011de0 .LASF2035
C:\Users\CYMR90~1\AppData\Local\Temp\ccZoYVSv.s:31055  .debug_str:0000000000021b3e .LASF2036
C:\Users\CYMR90~1\AppData\Local\Temp\ccZoYVSv.s:31469  .debug_str:0000000000023418 .LASF2037
C:\Users\CYMR90~1\AppData\Local\Temp\ccZoYVSv.s:32063  .debug_str:00000000000259dd .LASF2038
C:\Users\CYMR90~1\AppData\Local\Temp\ccZoYVSv.s:27196  .debug_str:00000000000123dd .LASF2039
C:\Users\CYMR90~1\AppData\Local\Temp\ccZoYVSv.s:29189  .debug_str:000000000001a4f7 .LASF2040
C:\Users\CYMR90~1\AppData\Local\Temp\ccZoYVSv.s:25886  .debug_str:000000000000d099 .LASF2041
C:\Users\CYMR90~1\AppData\Local\Temp\ccZoYVSv.s:23310  .debug_str:00000000000029e7 .LASF2042
C:\Users\CYMR90~1\AppData\Local\Temp\ccZoYVSv.s:24068  .debug_str:0000000000005b0c .LASF2043
C:\Users\CYMR90~1\AppData\Local\Temp\ccZoYVSv.s:24750  .debug_str:0000000000008765 .LASF2044
C:\Users\CYMR90~1\AppData\Local\Temp\ccZoYVSv.s:27502  .debug_str:0000000000013859 .LASF2045
C:\Users\CYMR90~1\AppData\Local\Temp\ccZoYVSv.s:31347  .debug_str:0000000000022c3c .LASF2046
C:\Users\CYMR90~1\AppData\Local\Temp\ccZoYVSv.s:33005  .debug_str:000000000002976f .LASF2047
C:\Users\CYMR90~1\AppData\Local\Temp\ccZoYVSv.s:29665  .debug_str:000000000001c3ea .LASF2048
C:\Users\CYMR90~1\AppData\Local\Temp\ccZoYVSv.s:30213  .debug_str:000000000001e7e2 .LASF2049
C:\Users\CYMR90~1\AppData\Local\Temp\ccZoYVSv.s:24130  .debug_str:0000000000005ed8 .LASF2050
C:\Users\CYMR90~1\AppData\Local\Temp\ccZoYVSv.s:23482  .debug_str:00000000000034f3 .LASF2051
C:\Users\CYMR90~1\AppData\Local\Temp\ccZoYVSv.s:25454  .debug_str:000000000000b4b9 .LASF2052
C:\Users\CYMR90~1\AppData\Local\Temp\ccZoYVSv.s:32101  .debug_str:0000000000025ce2 .LASF2053
C:\Users\CYMR90~1\AppData\Local\Temp\ccZoYVSv.s:33419  .debug_str:000000000002afce .LASF2054
C:\Users\CYMR90~1\AppData\Local\Temp\ccZoYVSv.s:23936  .debug_str:00000000000052dc .LASF2055
C:\Users\CYMR90~1\AppData\Local\Temp\ccZoYVSv.s:32435  .debug_str:00000000000272b2 .LASF2056
C:\Users\CYMR90~1\AppData\Local\Temp\ccZoYVSv.s:30385  .debug_str:000000000001f1fa .LASF2057
C:\Users\CYMR90~1\AppData\Local\Temp\ccZoYVSv.s:28491  .debug_str:000000000001783d .LASF2058
C:\Users\CYMR90~1\AppData\Local\Temp\ccZoYVSv.s:25320  .debug_str:000000000000ab88 .LASF2059
C:\Users\CYMR90~1\AppData\Local\Temp\ccZoYVSv.s:26132  .debug_str:000000000000e0fe .LASF2060
C:\Users\CYMR90~1\AppData\Local\Temp\ccZoYVSv.s:30839  .debug_str:0000000000020def .LASF2061
C:\Users\CYMR90~1\AppData\Local\Temp\ccZoYVSv.s:27636  .debug_str:0000000000014091 .LASF2062
C:\Users\CYMR90~1\AppData\Local\Temp\ccZoYVSv.s:23282  .debug_str:0000000000002804 .LASF2063
C:\Users\CYMR90~1\AppData\Local\Temp\ccZoYVSv.s:29393  .debug_str:000000000001b33a .LASF2064
C:\Users\CYMR90~1\AppData\Local\Temp\ccZoYVSv.s:28246  .debug_str:00000000000166da .LASF2065
C:\Users\CYMR90~1\AppData\Local\Temp\ccZoYVSv.s:25000  .debug_str:00000000000096f4 .LASF2066
C:\Users\CYMR90~1\AppData\Local\Temp\ccZoYVSv.s:25482  .debug_str:000000000000b62c .LASF2067
C:\Users\CYMR90~1\AppData\Local\Temp\ccZoYVSv.s:28589  .debug_str:0000000000017e81 .LASF2068
C:\Users\CYMR90~1\AppData\Local\Temp\ccZoYVSv.s:28190  .debug_str:0000000000016365 .LASF2069
C:\Users\CYMR90~1\AppData\Local\Temp\ccZoYVSv.s:26022  .debug_str:000000000000d9f9 .LASF2070
C:\Users\CYMR90~1\AppData\Local\Temp\ccZoYVSv.s:24102  .debug_str:0000000000005d49 .LASF2071
C:\Users\CYMR90~1\AppData\Local\Temp\ccZoYVSv.s:27352  .debug_str:0000000000012e16 .LASF2072
C:\Users\CYMR90~1\AppData\Local\Temp\ccZoYVSv.s:26370  .debug_str:000000000000efca .LASF2073
C:\Users\CYMR90~1\AppData\Local\Temp\ccZoYVSv.s:25612  .debug_str:000000000000bf01 .LASF2074
C:\Users\CYMR90~1\AppData\Local\Temp\ccZoYVSv.s:33797  .debug_str:000000000002c793 .LASF2075
C:\Users\CYMR90~1\AppData\Local\Temp\ccZoYVSv.s:25578  .debug_str:000000000000bce8 .LASF2076
C:\Users\CYMR90~1\AppData\Local\Temp\ccZoYVSv.s:33083  .debug_str:0000000000029be7 .LASF2077
C:\Users\CYMR90~1\AppData\Local\Temp\ccZoYVSv.s:23950  .debug_str:00000000000053b3 .LASF2078
C:\Users\CYMR90~1\AppData\Local\Temp\ccZoYVSv.s:23052  .debug_str:0000000000001a66 .LASF2079
C:\Users\CYMR90~1\AppData\Local\Temp\ccZoYVSv.s:31627  .debug_str:0000000000023d2a .LASF2080
C:\Users\CYMR90~1\AppData\Local\Temp\ccZoYVSv.s:32965  .debug_str:00000000000294ed .LASF2081
C:\Users\CYMR90~1\AppData\Local\Temp\ccZoYVSv.s:33059  .debug_str:0000000000029aae .LASF2082
C:\Users\CYMR90~1\AppData\Local\Temp\ccZoYVSv.s:27222  .debug_str:0000000000012559 .LASF2083
C:\Users\CYMR90~1\AppData\Local\Temp\ccZoYVSv.s:24662  .debug_str:0000000000008125 .LASF2084
C:\Users\CYMR90~1\AppData\Local\Temp\ccZoYVSv.s:30165  .debug_str:000000000001e521 .LASF2085
C:\Users\CYMR90~1\AppData\Local\Temp\ccZoYVSv.s:22944  .debug_str:000000000000138e .LASF2086
C:\Users\CYMR90~1\AppData\Local\Temp\ccZoYVSv.s:29091  .debug_str:0000000000019f39 .LASF2087
C:\Users\CYMR90~1\AppData\Local\Temp\ccZoYVSv.s:29457  .debug_str:000000000001b7c8 .LASF2088
C:\Users\CYMR90~1\AppData\Local\Temp\ccZoYVSv.s:30543  .debug_str:000000000001fba6 .LASF2089
C:\Users\CYMR90~1\AppData\Local\Temp\ccZoYVSv.s:28411  .debug_str:00000000000173a0 .LASF2090
C:\Users\CYMR90~1\AppData\Local\Temp\ccZoYVSv.s:27158  .debug_str:0000000000012148 .LASF2091
C:\Users\CYMR90~1\AppData\Local\Temp\ccZoYVSv.s:28519  .debug_str:00000000000179f1 .LASF2092
C:\Users\CYMR90~1\AppData\Local\Temp\ccZoYVSv.s:27664  .debug_str:0000000000014245 .LASF2093
C:\Users\CYMR90~1\AppData\Local\Temp\ccZoYVSv.s:33791  .debug_str:000000000002c73f .LASF2094
C:\Users\CYMR90~1\AppData\Local\Temp\ccZoYVSv.s:23690  .debug_str:00000000000042ca .LASF2095
C:\Users\CYMR90~1\AppData\Local\Temp\ccZoYVSv.s:25120  .debug_str:0000000000009ea4 .LASF2096
C:\Users\CYMR90~1\AppData\Local\Temp\ccZoYVSv.s:23450  .debug_str:00000000000032d2 .LASF2097
C:\Users\CYMR90~1\AppData\Local\Temp\ccZoYVSv.s:32243  .debug_str:00000000000266c5 .LASF2098
C:\Users\CYMR90~1\AppData\Local\Temp\ccZoYVSv.s:26702  .debug_str:0000000000010436 .LASF2099
C:\Users\CYMR90~1\AppData\Local\Temp\ccZoYVSv.s:25488  .debug_str:000000000000b691 .LASF2100
C:\Users\CYMR90~1\AppData\Local\Temp\ccZoYVSv.s:24270  .debug_str:0000000000006745 .LASF2101
C:\Users\CYMR90~1\AppData\Local\Temp\ccZoYVSv.s:23362  .debug_str:0000000000002d37 .LASF2102
C:\Users\CYMR90~1\AppData\Local\Temp\ccZoYVSv.s:25156  .debug_str:000000000000a0a7 .LASF2103
C:\Users\CYMR90~1\AppData\Local\Temp\ccZoYVSv.s:33747  .debug_str:000000000002c3ff .LASF2104
C:\Users\CYMR90~1\AppData\Local\Temp\ccZoYVSv.s:28517  .debug_str:00000000000179cd .LASF2105
C:\Users\CYMR90~1\AppData\Local\Temp\ccZoYVSv.s:23466  .debug_str:00000000000033dd .LASF2106
C:\Users\CYMR90~1\AppData\Local\Temp\ccZoYVSv.s:33029  .debug_str:00000000000298ef .LASF2107
C:\Users\CYMR90~1\AppData\Local\Temp\ccZoYVSv.s:27190  .debug_str:0000000000012363 .LASF2108
C:\Users\CYMR90~1\AppData\Local\Temp\ccZoYVSv.s:23486  .debug_str:0000000000003531 .LASF2109
C:\Users\CYMR90~1\AppData\Local\Temp\ccZoYVSv.s:25932  .debug_str:000000000000d3d7 .LASF2110
C:\Users\CYMR90~1\AppData\Local\Temp\ccZoYVSv.s:28465  .debug_str:000000000001768b .LASF2111
C:\Users\CYMR90~1\AppData\Local\Temp\ccZoYVSv.s:30563  .debug_str:000000000001fcc7 .LASF2112
C:\Users\CYMR90~1\AppData\Local\Temp\ccZoYVSv.s:33187  .debug_str:000000000002a223 .LASF2113
C:\Users\CYMR90~1\AppData\Local\Temp\ccZoYVSv.s:32583  .debug_str:0000000000027c5c .LASF2114
C:\Users\CYMR90~1\AppData\Local\Temp\ccZoYVSv.s:27556  .debug_str:0000000000013baa .LASF2115
C:\Users\CYMR90~1\AppData\Local\Temp\ccZoYVSv.s:29383  .debug_str:000000000001b275 .LASF2116
C:\Users\CYMR90~1\AppData\Local\Temp\ccZoYVSv.s:27742  .debug_str:0000000000014737 .LASF2117
C:\Users\CYMR90~1\AppData\Local\Temp\ccZoYVSv.s:31859  .debug_str:0000000000024c2b .LASF2118
C:\Users\CYMR90~1\AppData\Local\Temp\ccZoYVSv.s:30503  .debug_str:000000000001f95b .LASF2119
C:\Users\CYMR90~1\AppData\Local\Temp\ccZoYVSv.s:23314  .debug_str:0000000000002a1e .LASF2120
C:\Users\CYMR90~1\AppData\Local\Temp\ccZoYVSv.s:30955  .debug_str:00000000000214b6 .LASF2121
C:\Users\CYMR90~1\AppData\Local\Temp\ccZoYVSv.s:24732  .debug_str:0000000000008646 .LASF2122
C:\Users\CYMR90~1\AppData\Local\Temp\ccZoYVSv.s:27602  .debug_str:0000000000013e79 .LASF2123
C:\Users\CYMR90~1\AppData\Local\Temp\ccZoYVSv.s:30239  .debug_str:000000000001e974 .LASF2124
C:\Users\CYMR90~1\AppData\Local\Temp\ccZoYVSv.s:27454  .debug_str:00000000000134d5 .LASF2125
C:\Users\CYMR90~1\AppData\Local\Temp\ccZoYVSv.s:28581  .debug_str:0000000000017df9 .LASF2126
C:\Users\CYMR90~1\AppData\Local\Temp\ccZoYVSv.s:33821  .debug_str:000000000002c93a .LASF2127
C:\Users\CYMR90~1\AppData\Local\Temp\ccZoYVSv.s:31071  .debug_str:0000000000021c26 .LASF2128
C:\Users\CYMR90~1\AppData\Local\Temp\ccZoYVSv.s:26906  .debug_str:00000000000110e4 .LASF2129
C:\Users\CYMR90~1\AppData\Local\Temp\ccZoYVSv.s:30971  .debug_str:0000000000021590 .LASF2130
C:\Users\CYMR90~1\AppData\Local\Temp\ccZoYVSv.s:28801  .debug_str:0000000000018b2f .LASF2131
C:\Users\CYMR90~1\AppData\Local\Temp\ccZoYVSv.s:30777  .debug_str:00000000000209a7 .LASF2132
C:\Users\CYMR90~1\AppData\Local\Temp\ccZoYVSv.s:27094  .debug_str:0000000000011d56 .LASF2133
C:\Users\CYMR90~1\AppData\Local\Temp\ccZoYVSv.s:23456  .debug_str:000000000000333f .LASF2134
C:\Users\CYMR90~1\AppData\Local\Temp\ccZoYVSv.s:23198  .debug_str:00000000000022d1 .LASF2135
C:\Users\CYMR90~1\AppData\Local\Temp\ccZoYVSv.s:28963  .debug_str:00000000000196a2 .LASF2136
C:\Users\CYMR90~1\AppData\Local\Temp\ccZoYVSv.s:33291  .debug_str:000000000002a857 .LASF2137
C:\Users\CYMR90~1\AppData\Local\Temp\ccZoYVSv.s:24734  .debug_str:000000000000866b .LASF2138
C:\Users\CYMR90~1\AppData\Local\Temp\ccZoYVSv.s:31163  .debug_str:00000000000221db .LASF2139
C:\Users\CYMR90~1\AppData\Local\Temp\ccZoYVSv.s:27002  .debug_str:000000000001166f .LASF2140
C:\Users\CYMR90~1\AppData\Local\Temp\ccZoYVSv.s:26490  .debug_str:000000000000f6e3 .LASF2141
C:\Users\CYMR90~1\AppData\Local\Temp\ccZoYVSv.s:30519  .debug_str:000000000001fa38 .LASF2142
C:\Users\CYMR90~1\AppData\Local\Temp\ccZoYVSv.s:31093  .debug_str:0000000000021d67 .LASF2143
C:\Users\CYMR90~1\AppData\Local\Temp\ccZoYVSv.s:27290  .debug_str:00000000000129e2 .LASF2144
C:\Users\CYMR90~1\AppData\Local\Temp\ccZoYVSv.s:23488  .debug_str:0000000000003558 .LASF2145
C:\Users\CYMR90~1\AppData\Local\Temp\ccZoYVSv.s:22654  .debug_str:000000000000017c .LASF2146
C:\Users\CYMR90~1\AppData\Local\Temp\ccZoYVSv.s:23078  .debug_str:0000000000001bf7 .LASF2147
C:\Users\CYMR90~1\AppData\Local\Temp\ccZoYVSv.s:28525  .debug_str:0000000000017a47 .LASF2148
C:\Users\CYMR90~1\AppData\Local\Temp\ccZoYVSv.s:27970  .debug_str:00000000000155d4 .LASF2149
C:\Users\CYMR90~1\AppData\Local\Temp\ccZoYVSv.s:32585  .debug_str:0000000000027c83 .LASF2150
C:\Users\CYMR90~1\AppData\Local\Temp\ccZoYVSv.s:27558  .debug_str:0000000000013bd1 .LASF2151
C:\Users\CYMR90~1\AppData\Local\Temp\ccZoYVSv.s:26102  .debug_str:000000000000ded3 .LASF2152
C:\Users\CYMR90~1\AppData\Local\Temp\ccZoYVSv.s:33145  .debug_str:0000000000029fd9 .LASF2153
C:\Users\CYMR90~1\AppData\Local\Temp\ccZoYVSv.s:28292  .debug_str:00000000000169df .LASF2154
C:\Users\CYMR90~1\AppData\Local\Temp\ccZoYVSv.s:23004  .debug_str:000000000000171b .LASF2155
C:\Users\CYMR90~1\AppData\Local\Temp\ccZoYVSv.s:23560  .debug_str:0000000000003a2f .LASF2156
C:\Users\CYMR90~1\AppData\Local\Temp\ccZoYVSv.s:32551  .debug_str:0000000000027999 .LASF2157
C:\Users\CYMR90~1\AppData\Local\Temp\ccZoYVSv.s:26942  .debug_str:00000000000112fc .LASF2158
C:\Users\CYMR90~1\AppData\Local\Temp\ccZoYVSv.s:28863  .debug_str:0000000000018f39 .LASF2159
C:\Users\CYMR90~1\AppData\Local\Temp\ccZoYVSv.s:32349  .debug_str:0000000000026d4f .LASF2160
C:\Users\CYMR90~1\AppData\Local\Temp\ccZoYVSv.s:24898  .debug_str:000000000000916f .LASF2161
C:\Users\CYMR90~1\AppData\Local\Temp\ccZoYVSv.s:33269  .debug_str:000000000002a6fe .LASF2162
C:\Users\CYMR90~1\AppData\Local\Temp\ccZoYVSv.s:33981  .debug_str:000000000002d375 .LASF2163
C:\Users\CYMR90~1\AppData\Local\Temp\ccZoYVSv.s:23590  .debug_str:0000000000003c11 .LASF2164
C:\Users\CYMR90~1\AppData\Local\Temp\ccZoYVSv.s:31607  .debug_str:0000000000023bd6 .LASF2165
C:\Users\CYMR90~1\AppData\Local\Temp\ccZoYVSv.s:28943  .debug_str:000000000001959c .LASF2166
C:\Users\CYMR90~1\AppData\Local\Temp\ccZoYVSv.s:26484  .debug_str:000000000000f68c .LASF2167
C:\Users\CYMR90~1\AppData\Local\Temp\ccZoYVSv.s:24766  .debug_str:0000000000008858 .LASF2168
C:\Users\CYMR90~1\AppData\Local\Temp\ccZoYVSv.s:30065  .debug_str:000000000001de5e .LASF2169
C:\Users\CYMR90~1\AppData\Local\Temp\ccZoYVSv.s:28238  .debug_str:000000000001665c .LASF2170
C:\Users\CYMR90~1\AppData\Local\Temp\ccZoYVSv.s:26256  .debug_str:000000000000e87b .LASF2171
C:\Users\CYMR90~1\AppData\Local\Temp\ccZoYVSv.s:26398  .debug_str:000000000000f130 .LASF2172
C:\Users\CYMR90~1\AppData\Local\Temp\ccZoYVSv.s:30525  .debug_str:000000000001fa9a .LASF2173
C:\Users\CYMR90~1\AppData\Local\Temp\ccZoYVSv.s:28178  .debug_str:0000000000016288 .LASF2174
C:\Users\CYMR90~1\AppData\Local\Temp\ccZoYVSv.s:27152  .debug_str:0000000000012106 .LASF2175
C:\Users\CYMR90~1\AppData\Local\Temp\ccZoYVSv.s:30309  .debug_str:000000000001edd8 .LASF2176
C:\Users\CYMR90~1\AppData\Local\Temp\ccZoYVSv.s:25490  .debug_str:000000000000b6a0 .LASF2177
C:\Users\CYMR90~1\AppData\Local\Temp\ccZoYVSv.s:31239  .debug_str:000000000002264d .LASF2178
C:\Users\CYMR90~1\AppData\Local\Temp\ccZoYVSv.s:26116  .debug_str:000000000000dfc1 .LASF2179
C:\Users\CYMR90~1\AppData\Local\Temp\ccZoYVSv.s:24614  .debug_str:0000000000007d87 .LASF2180
C:\Users\CYMR90~1\AppData\Local\Temp\ccZoYVSv.s:32263  .debug_str:000000000002682d .LASF2181
C:\Users\CYMR90~1\AppData\Local\Temp\ccZoYVSv.s:26286  .debug_str:000000000000ea9d .LASF2182
C:\Users\CYMR90~1\AppData\Local\Temp\ccZoYVSv.s:28212  .debug_str:00000000000164d9 .LASF2183
C:\Users\CYMR90~1\AppData\Local\Temp\ccZoYVSv.s:23708  .debug_str:00000000000043af .LASF2184
C:\Users\CYMR90~1\AppData\Local\Temp\ccZoYVSv.s:26572  .debug_str:000000000000fc42 .LASF2185
C:\Users\CYMR90~1\AppData\Local\Temp\ccZoYVSv.s:33533  .debug_str:000000000002b650 .LASF2186
C:\Users\CYMR90~1\AppData\Local\Temp\ccZoYVSv.s:30321  .debug_str:000000000001ee88 .LASF2187
C:\Users\CYMR90~1\AppData\Local\Temp\ccZoYVSv.s:25104  .debug_str:0000000000009dd2 .LASF2188
C:\Users\CYMR90~1\AppData\Local\Temp\ccZoYVSv.s:29287  .debug_str:000000000001ac9d .LASF2189
C:\Users\CYMR90~1\AppData\Local\Temp\ccZoYVSv.s:23648  .debug_str:0000000000003f5c .LASF2190
C:\Users\CYMR90~1\AppData\Local\Temp\ccZoYVSv.s:25204  .debug_str:000000000000a3e7 .LASF2191
C:\Users\CYMR90~1\AppData\Local\Temp\ccZoYVSv.s:32013  .debug_str:0000000000025638 .LASF2192
C:\Users\CYMR90~1\AppData\Local\Temp\ccZoYVSv.s:23574  .debug_str:0000000000003af3 .LASF2193
C:\Users\CYMR90~1\AppData\Local\Temp\ccZoYVSv.s:27030  .debug_str:000000000001182a .LASF2194
C:\Users\CYMR90~1\AppData\Local\Temp\ccZoYVSv.s:23338  .debug_str:0000000000002bb3 .LASF2195
C:\Users\CYMR90~1\AppData\Local\Temp\ccZoYVSv.s:24558  .debug_str:00000000000079af .LASF2196
C:\Users\CYMR90~1\AppData\Local\Temp\ccZoYVSv.s:27904  .debug_str:0000000000015177 .LASF2197
C:\Users\CYMR90~1\AppData\Local\Temp\ccZoYVSv.s:24828  .debug_str:0000000000008c63 .LASF2198
C:\Users\CYMR90~1\AppData\Local\Temp\ccZoYVSv.s:30771  .debug_str:000000000002095e .LASF2199
C:\Users\CYMR90~1\AppData\Local\Temp\ccZoYVSv.s:25344  .debug_str:000000000000ad0c .LASF2200
C:\Users\CYMR90~1\AppData\Local\Temp\ccZoYVSv.s:31307  .debug_str:0000000000022a28 .LASF2201
C:\Users\CYMR90~1\AppData\Local\Temp\ccZoYVSv.s:30607  .debug_str:000000000001ff9b .LASF2202
C:\Users\CYMR90~1\AppData\Local\Temp\ccZoYVSv.s:31827  .debug_str:00000000000249e6 .LASF2203
C:\Users\CYMR90~1\AppData\Local\Temp\ccZoYVSv.s:32421  .debug_str:00000000000271ee .LASF2204
C:\Users\CYMR90~1\AppData\Local\Temp\ccZoYVSv.s:32247  .debug_str:00000000000266f8 .LASF2205
C:\Users\CYMR90~1\AppData\Local\Temp\ccZoYVSv.s:31879  .debug_str:0000000000024d34 .LASF2206
C:\Users\CYMR90~1\AppData\Local\Temp\ccZoYVSv.s:30913  .debug_str:0000000000021249 .LASF2207
C:\Users\CYMR90~1\AppData\Local\Temp\ccZoYVSv.s:26748  .debug_str:00000000000106df .LASF2208
C:\Users\CYMR90~1\AppData\Local\Temp\ccZoYVSv.s:28909  .debug_str:00000000000192aa .LASF2209
C:\Users\CYMR90~1\AppData\Local\Temp\ccZoYVSv.s:30749  .debug_str:0000000000020813 .LASF2210
C:\Users\CYMR90~1\AppData\Local\Temp\ccZoYVSv.s:25622  .debug_str:000000000000bfdd .LASF2211
C:\Users\CYMR90~1\AppData\Local\Temp\ccZoYVSv.s:24330  .debug_str:0000000000006b10 .LASF2212
C:\Users\CYMR90~1\AppData\Local\Temp\ccZoYVSv.s:26930  .debug_str:0000000000011225 .LASF2213
C:\Users\CYMR90~1\AppData\Local\Temp\ccZoYVSv.s:33799  .debug_str:000000000002c7a4 .LASF2214
C:\Users\CYMR90~1\AppData\Local\Temp\ccZoYVSv.s:27652  .debug_str:0000000000014173 .LASF2215
C:\Users\CYMR90~1\AppData\Local\Temp\ccZoYVSv.s:25304  .debug_str:000000000000a9be .LASF2216
C:\Users\CYMR90~1\AppData\Local\Temp\ccZoYVSv.s:29535  .debug_str:000000000001bc6c .LASF2217
C:\Users\CYMR90~1\AppData\Local\Temp\ccZoYVSv.s:28835  .debug_str:0000000000018d78 .LASF2218
C:\Users\CYMR90~1\AppData\Local\Temp\ccZoYVSv.s:33565  .debug_str:000000000002b7f7 .LASF2219
C:\Users\CYMR90~1\AppData\Local\Temp\ccZoYVSv.s:30091  .debug_str:000000000001dfe6 .LASF2220
C:\Users\CYMR90~1\AppData\Local\Temp\ccZoYVSv.s:28921  .debug_str:0000000000019348 .LASF2221
C:\Users\CYMR90~1\AppData\Local\Temp\ccZoYVSv.s:27324  .debug_str:0000000000012c25 .LASF2222
C:\Users\CYMR90~1\AppData\Local\Temp\ccZoYVSv.s:29575  .debug_str:000000000001be71 .LASF2223
C:\Users\CYMR90~1\AppData\Local\Temp\ccZoYVSv.s:32239  .debug_str:000000000002668a .LASF2224
C:\Users\CYMR90~1\AppData\Local\Temp\ccZoYVSv.s:22676  .debug_str:00000000000002c6 .LASF2225
C:\Users\CYMR90~1\AppData\Local\Temp\ccZoYVSv.s:23788  .debug_str:000000000000495a .LASF2226
C:\Users\CYMR90~1\AppData\Local\Temp\ccZoYVSv.s:29111  .debug_str:000000000001a076 .LASF2227
C:\Users\CYMR90~1\AppData\Local\Temp\ccZoYVSv.s:28383  .debug_str:00000000000171db .LASF2228
C:\Users\CYMR90~1\AppData\Local\Temp\ccZoYVSv.s:30143  .debug_str:000000000001e3ad .LASF2229
C:\Users\CYMR90~1\AppData\Local\Temp\ccZoYVSv.s:23754  .debug_str:00000000000046c8 .LASF2230
C:\Users\CYMR90~1\AppData\Local\Temp\ccZoYVSv.s:30377  .debug_str:000000000001f171 .LASF2231
C:\Users\CYMR90~1\AppData\Local\Temp\ccZoYVSv.s:23062  .debug_str:0000000000001b03 .LASF2232
C:\Users\CYMR90~1\AppData\Local\Temp\ccZoYVSv.s:29099  .debug_str:0000000000019fb2 .LASF2233
C:\Users\CYMR90~1\AppData\Local\Temp\ccZoYVSv.s:25798  .debug_str:000000000000cb7b .LASF2234
C:\Users\CYMR90~1\AppData\Local\Temp\ccZoYVSv.s:24004  .debug_str:0000000000005729 .LASF2235
C:\Users\CYMR90~1\AppData\Local\Temp\ccZoYVSv.s:33753  .debug_str:000000000002c45c .LASF2236
C:\Users\CYMR90~1\AppData\Local\Temp\ccZoYVSv.s:26260  .debug_str:000000000000e8b6 .LASF2237
C:\Users\CYMR90~1\AppData\Local\Temp\ccZoYVSv.s:31045  .debug_str:0000000000021aa2 .LASF2238
C:\Users\CYMR90~1\AppData\Local\Temp\ccZoYVSv.s:30045  .debug_str:000000000001dd13 .LASF2239
C:\Users\CYMR90~1\AppData\Local\Temp\ccZoYVSv.s:29975  .debug_str:000000000001d886 .LASF2240
C:\Users\CYMR90~1\AppData\Local\Temp\ccZoYVSv.s:23126  .debug_str:0000000000001eb3 .LASF2241
C:\Users\CYMR90~1\AppData\Local\Temp\ccZoYVSv.s:31065  .debug_str:0000000000021bd2 .LASF2242
C:\Users\CYMR90~1\AppData\Local\Temp\ccZoYVSv.s:32627  .debug_str:0000000000027edb .LASF2243
C:\Users\CYMR90~1\AppData\Local\Temp\ccZoYVSv.s:26002  .debug_str:000000000000d901 .LASF2244
C:\Users\CYMR90~1\AppData\Local\Temp\ccZoYVSv.s:25170  .debug_str:000000000000a1bd .LASF2245
C:\Users\CYMR90~1\AppData\Local\Temp\ccZoYVSv.s:25294  .debug_str:000000000000a8db .LASF2246
C:\Users\CYMR90~1\AppData\Local\Temp\ccZoYVSv.s:27966  .debug_str:0000000000015588 .LASF2247
C:\Users\CYMR90~1\AppData\Local\Temp\ccZoYVSv.s:23490  .debug_str:000000000000357f .LASF2248
C:\Users\CYMR90~1\AppData\Local\Temp\ccZoYVSv.s:30397  .debug_str:000000000001f29a .LASF2249
C:\Users\CYMR90~1\AppData\Local\Temp\ccZoYVSv.s:29513  .debug_str:000000000001baf7 .LASF2250
C:\Users\CYMR90~1\AppData\Local\Temp\ccZoYVSv.s:28559  .debug_str:0000000000017c66 .LASF2251
C:\Users\CYMR90~1\AppData\Local\Temp\ccZoYVSv.s:31833  .debug_str:0000000000024a4f .LASF2252
C:\Users\CYMR90~1\AppData\Local\Temp\ccZoYVSv.s:27330  .debug_str:0000000000012c82 .LASF2253
C:\Users\CYMR90~1\AppData\Local\Temp\ccZoYVSv.s:26066  .debug_str:000000000000dcd5 .LASF2254
C:\Users\CYMR90~1\AppData\Local\Temp\ccZoYVSv.s:24818  .debug_str:0000000000008bb5 .LASF2255
C:\Users\CYMR90~1\AppData\Local\Temp\ccZoYVSv.s:26726  .debug_str:000000000001059e .LASF2256
C:\Users\CYMR90~1\AppData\Local\Temp\ccZoYVSv.s:29783  .debug_str:000000000001caff .LASF2257
C:\Users\CYMR90~1\AppData\Local\Temp\ccZoYVSv.s:27022  .debug_str:00000000000117ae .LASF2258
C:\Users\CYMR90~1\AppData\Local\Temp\ccZoYVSv.s:27250  .debug_str:000000000001272f .LASF2259
C:\Users\CYMR90~1\AppData\Local\Temp\ccZoYVSv.s:26926  .debug_str:00000000000111e3 .LASF2260
C:\Users\CYMR90~1\AppData\Local\Temp\ccZoYVSv.s:28010  .debug_str:000000000001581c .LASF2261
C:\Users\CYMR90~1\AppData\Local\Temp\ccZoYVSv.s:23182  .debug_str:00000000000021f3 .LASF2262
C:\Users\CYMR90~1\AppData\Local\Temp\ccZoYVSv.s:26308  .debug_str:000000000000ebdc .LASF2263
C:\Users\CYMR90~1\AppData\Local\Temp\ccZoYVSv.s:30163  .debug_str:000000000001e505 .LASF2264
C:\Users\CYMR90~1\AppData\Local\Temp\ccZoYVSv.s:29203  .debug_str:000000000001a5b0 .LASF2265
C:\Users\CYMR90~1\AppData\Local\Temp\ccZoYVSv.s:26148  .debug_str:000000000000e1fa .LASF2266
C:\Users\CYMR90~1\AppData\Local\Temp\ccZoYVSv.s:25502  .debug_str:000000000000b7d4 .LASF2267
C:\Users\CYMR90~1\AppData\Local\Temp\ccZoYVSv.s:28567  .debug_str:0000000000017d20 .LASF2268
C:\Users\CYMR90~1\AppData\Local\Temp\ccZoYVSv.s:24892  .debug_str:000000000000910d .LASF2269
C:\Users\CYMR90~1\AppData\Local\Temp\ccZoYVSv.s:23810  .debug_str:0000000000004b30 .LASF2270
C:\Users\CYMR90~1\AppData\Local\Temp\ccZoYVSv.s:29661  .debug_str:000000000001c3aa .LASF2271
C:\Users\CYMR90~1\AppData\Local\Temp\ccZoYVSv.s:30067  .debug_str:000000000001de76 .LASF2272
C:\Users\CYMR90~1\AppData\Local\Temp\ccZoYVSv.s:27856  .debug_str:0000000000014e5a .LASF2273
C:\Users\CYMR90~1\AppData\Local\Temp\ccZoYVSv.s:32833  .debug_str:0000000000028ce8 .LASF2274
C:\Users\CYMR90~1\AppData\Local\Temp\ccZoYVSv.s:29411  .debug_str:000000000001b4bc .LASF2275
C:\Users\CYMR90~1\AppData\Local\Temp\ccZoYVSv.s:26072  .debug_str:000000000000dd40 .LASF2276
C:\Users\CYMR90~1\AppData\Local\Temp\ccZoYVSv.s:24010  .debug_str:0000000000005770 .LASF2277
C:\Users\CYMR90~1\AppData\Local\Temp\ccZoYVSv.s:22848  .debug_str:0000000000000d83 .LASF2278
C:\Users\CYMR90~1\AppData\Local\Temp\ccZoYVSv.s:32689  .debug_str:000000000002829a .LASF2279
C:\Users\CYMR90~1\AppData\Local\Temp\ccZoYVSv.s:31049  .debug_str:0000000000021ae0 .LASF2280
C:\Users\CYMR90~1\AppData\Local\Temp\ccZoYVSv.s:24008  .debug_str:000000000000575d .LASF2281
C:\Users\CYMR90~1\AppData\Local\Temp\ccZoYVSv.s:29135  .debug_str:000000000001a204 .LASF2282
C:\Users\CYMR90~1\AppData\Local\Temp\ccZoYVSv.s:28451  .debug_str:00000000000175bb .LASF2283
C:\Users\CYMR90~1\AppData\Local\Temp\ccZoYVSv.s:29843  .debug_str:000000000001cf48 .LASF2284
C:\Users\CYMR90~1\AppData\Local\Temp\ccZoYVSv.s:29369  .debug_str:000000000001b1b2 .LASF2285
C:\Users\CYMR90~1\AppData\Local\Temp\ccZoYVSv.s:32607  .debug_str:0000000000027dce .LASF2286
C:\Users\CYMR90~1\AppData\Local\Temp\ccZoYVSv.s:26932  .debug_str:000000000001124d .LASF2287
C:\Users\CYMR90~1\AppData\Local\Temp\ccZoYVSv.s:31201  .debug_str:000000000002243c .LASF2288
C:\Users\CYMR90~1\AppData\Local\Temp\ccZoYVSv.s:33157  .debug_str:000000000002a063 .LASF2289
C:\Users\CYMR90~1\AppData\Local\Temp\ccZoYVSv.s:27144  .debug_str:000000000001205b .LASF2290
C:\Users\CYMR90~1\AppData\Local\Temp\ccZoYVSv.s:33617  .debug_str:000000000002bb96 .LASF2291
C:\Users\CYMR90~1\AppData\Local\Temp\ccZoYVSv.s:30259  .debug_str:000000000001eabe .LASF2292
C:\Users\CYMR90~1\AppData\Local\Temp\ccZoYVSv.s:23896  .debug_str:0000000000005074 .LASF2293
C:\Users\CYMR90~1\AppData\Local\Temp\ccZoYVSv.s:33019  .debug_str:000000000002982d .LASF2294
C:\Users\CYMR90~1\AppData\Local\Temp\ccZoYVSv.s:33579  .debug_str:000000000002b906 .LASF2295
C:\Users\CYMR90~1\AppData\Local\Temp\ccZoYVSv.s:26130  .debug_str:000000000000e0d3 .LASF2296
C:\Users\CYMR90~1\AppData\Local\Temp\ccZoYVSv.s:26106  .debug_str:000000000000df09 .LASF2297
C:\Users\CYMR90~1\AppData\Local\Temp\ccZoYVSv.s:25484  .debug_str:000000000000b63d .LASF2298
C:\Users\CYMR90~1\AppData\Local\Temp\ccZoYVSv.s:27662  .debug_str:000000000001421a .LASF2299
C:\Users\CYMR90~1\AppData\Local\Temp\ccZoYVSv.s:32847  .debug_str:0000000000028ddd .LASF2300
C:\Users\CYMR90~1\AppData\Local\Temp\ccZoYVSv.s:26462  .debug_str:000000000000f502 .LASF2301
C:\Users\CYMR90~1\AppData\Local\Temp\ccZoYVSv.s:29609  .debug_str:000000000001c0a0 .LASF2302
C:\Users\CYMR90~1\AppData\Local\Temp\ccZoYVSv.s:31967  .debug_str:0000000000025328 .LASF2303
C:\Users\CYMR90~1\AppData\Local\Temp\ccZoYVSv.s:26064  .debug_str:000000000000dcae .LASF2304
C:\Users\CYMR90~1\AppData\Local\Temp\ccZoYVSv.s:31683  .debug_str:00000000000240ae .LASF2305
C:\Users\CYMR90~1\AppData\Local\Temp\ccZoYVSv.s:22934  .debug_str:000000000000130f .LASF2306
C:\Users\CYMR90~1\AppData\Local\Temp\ccZoYVSv.s:29311  .debug_str:000000000001adf7 .LASF2307
C:\Users\CYMR90~1\AppData\Local\Temp\ccZoYVSv.s:29803  .debug_str:000000000001ccdc .LASF2308
C:\Users\CYMR90~1\AppData\Local\Temp\ccZoYVSv.s:23436  .debug_str:0000000000003206 .LASF2309
C:\Users\CYMR90~1\AppData\Local\Temp\ccZoYVSv.s:32261  .debug_str:0000000000026804 .LASF2310
C:\Users\CYMR90~1\AppData\Local\Temp\ccZoYVSv.s:33095  .debug_str:0000000000029c9a .LASF2311
C:\Users\CYMR90~1\AppData\Local\Temp\ccZoYVSv.s:27698  .debug_str:0000000000014480 .LASF2312
C:\Users\CYMR90~1\AppData\Local\Temp\ccZoYVSv.s:32799  .debug_str:0000000000028a2b .LASF2313
C:\Users\CYMR90~1\AppData\Local\Temp\ccZoYVSv.s:24516  .debug_str:0000000000007719 .LASF2314
C:\Users\CYMR90~1\AppData\Local\Temp\ccZoYVSv.s:32935  .debug_str:0000000000029349 .LASF2315
C:\Users\CYMR90~1\AppData\Local\Temp\ccZoYVSv.s:24578  .debug_str:0000000000007aec .LASF2316
C:\Users\CYMR90~1\AppData\Local\Temp\ccZoYVSv.s:29627  .debug_str:000000000001c1bb .LASF2317
C:\Users\CYMR90~1\AppData\Local\Temp\ccZoYVSv.s:32843  .debug_str:0000000000028d9c .LASF2318
C:\Users\CYMR90~1\AppData\Local\Temp\ccZoYVSv.s:26346  .debug_str:000000000000ee3a .LASF2319
C:\Users\CYMR90~1\AppData\Local\Temp\ccZoYVSv.s:23822  .debug_str:0000000000004bec .LASF2320
C:\Users\CYMR90~1\AppData\Local\Temp\ccZoYVSv.s:23354  .debug_str:0000000000002cdb .LASF2321
C:\Users\CYMR90~1\AppData\Local\Temp\ccZoYVSv.s:34065  .debug_str:000000000002d8de .LASF2322
C:\Users\CYMR90~1\AppData\Local\Temp\ccZoYVSv.s:24192  .debug_str:000000000000629e .LASF2323
C:\Users\CYMR90~1\AppData\Local\Temp\ccZoYVSv.s:27818  .debug_str:0000000000014c19 .LASF2324
C:\Users\CYMR90~1\AppData\Local\Temp\ccZoYVSv.s:33643  .debug_str:000000000002bd23 .LASF2325
C:\Users\CYMR90~1\AppData\Local\Temp\ccZoYVSv.s:25272  .debug_str:000000000000a7d2 .LASF2326
C:\Users\CYMR90~1\AppData\Local\Temp\ccZoYVSv.s:28795  .debug_str:0000000000018ad1 .LASF2327
C:\Users\CYMR90~1\AppData\Local\Temp\ccZoYVSv.s:23216  .debug_str:00000000000023d3 .LASF2328
C:\Users\CYMR90~1\AppData\Local\Temp\ccZoYVSv.s:27734  .debug_str:00000000000146b0 .LASF2329
C:\Users\CYMR90~1\AppData\Local\Temp\ccZoYVSv.s:24572  .debug_str:0000000000007a9f .LASF2330
C:\Users\CYMR90~1\AppData\Local\Temp\ccZoYVSv.s:25726  .debug_str:000000000000c6e1 .LASF2331
C:\Users\CYMR90~1\AppData\Local\Temp\ccZoYVSv.s:26768  .debug_str:0000000000010802 .LASF2332
C:\Users\CYMR90~1\AppData\Local\Temp\ccZoYVSv.s:31003  .debug_str:0000000000021795 .LASF2333
C:\Users\CYMR90~1\AppData\Local\Temp\ccZoYVSv.s:32445  .debug_str:0000000000027371 .LASF2334
C:\Users\CYMR90~1\AppData\Local\Temp\ccZoYVSv.s:26780  .debug_str:00000000000108bc .LASF2335
C:\Users\CYMR90~1\AppData\Local\Temp\ccZoYVSv.s:27182  .debug_str:00000000000122e4 .LASF2336
C:\Users\CYMR90~1\AppData\Local\Temp\ccZoYVSv.s:26236  .debug_str:000000000000e73a .LASF2337
C:\Users\CYMR90~1\AppData\Local\Temp\ccZoYVSv.s:24204  .debug_str:0000000000006381 .LASF2338
C:\Users\CYMR90~1\AppData\Local\Temp\ccZoYVSv.s:23262  .debug_str:0000000000002679 .LASF2339
C:\Users\CYMR90~1\AppData\Local\Temp\ccZoYVSv.s:30031  .debug_str:000000000001dc34 .LASF2340
C:\Users\CYMR90~1\AppData\Local\Temp\ccZoYVSv.s:32325  .debug_str:0000000000026bdd .LASF2341
C:\Users\CYMR90~1\AppData\Local\Temp\ccZoYVSv.s:30637  .debug_str:0000000000020182 .LASF2342
C:\Users\CYMR90~1\AppData\Local\Temp\ccZoYVSv.s:30651  .debug_str:0000000000020238 .LASF2343
C:\Users\CYMR90~1\AppData\Local\Temp\ccZoYVSv.s:31727  .debug_str:000000000002434c .LASF2344
C:\Users\CYMR90~1\AppData\Local\Temp\ccZoYVSv.s:32553  .debug_str:00000000000279af .LASF2345
C:\Users\CYMR90~1\AppData\Local\Temp\ccZoYVSv.s:29727  .debug_str:000000000001c7d8 .LASF2346
C:\Users\CYMR90~1\AppData\Local\Temp\ccZoYVSv.s:29903  .debug_str:000000000001d3b4 .LASF2347
C:\Users\CYMR90~1\AppData\Local\Temp\ccZoYVSv.s:24788  .debug_str:00000000000089a5 .LASF2348
C:\Users\CYMR90~1\AppData\Local\Temp\ccZoYVSv.s:27544  .debug_str:0000000000013b1c .LASF2349
C:\Users\CYMR90~1\AppData\Local\Temp\ccZoYVSv.s:31147  .debug_str:00000000000220aa .LASF2350
C:\Users\CYMR90~1\AppData\Local\Temp\ccZoYVSv.s:33451  .debug_str:000000000002b18e .LASF2351
C:\Users\CYMR90~1\AppData\Local\Temp\ccZoYVSv.s:31953  .debug_str:0000000000025239 .LASF2352
C:\Users\CYMR90~1\AppData\Local\Temp\ccZoYVSv.s:24356  .debug_str:0000000000006ca1 .LASF2353
C:\Users\CYMR90~1\AppData\Local\Temp\ccZoYVSv.s:26680  .debug_str:00000000000102bd .LASF2354
C:\Users\CYMR90~1\AppData\Local\Temp\ccZoYVSv.s:24302  .debug_str:000000000000691e .LASF2355
C:\Users\CYMR90~1\AppData\Local\Temp\ccZoYVSv.s:33857  .debug_str:000000000002cbc2 .LASF2356
C:\Users\CYMR90~1\AppData\Local\Temp\ccZoYVSv.s:33277  .debug_str:000000000002a76a .LASF2357
C:\Users\CYMR90~1\AppData\Local\Temp\ccZoYVSv.s:27944  .debug_str:000000000001542b .LASF2358
C:\Users\CYMR90~1\AppData\Local\Temp\ccZoYVSv.s:25010  .debug_str:00000000000097e3 .LASF2359
C:\Users\CYMR90~1\AppData\Local\Temp\ccZoYVSv.s:23580  .debug_str:0000000000003b7c .LASF2360
C:\Users\CYMR90~1\AppData\Local\Temp\ccZoYVSv.s:26694  .debug_str:000000000001039f .LASF2361
C:\Users\CYMR90~1\AppData\Local\Temp\ccZoYVSv.s:25464  .debug_str:000000000000b540 .LASF2362
C:\Users\CYMR90~1\AppData\Local\Temp\ccZoYVSv.s:24234  .debug_str:0000000000006523 .LASF2363
C:\Users\CYMR90~1\AppData\Local\Temp\ccZoYVSv.s:31733  .debug_str:000000000002439c .LASF2364
C:\Users\CYMR90~1\AppData\Local\Temp\ccZoYVSv.s:30869  .debug_str:0000000000020f73 .LASF2365
C:\Users\CYMR90~1\AppData\Local\Temp\ccZoYVSv.s:27244  .debug_str:00000000000126ce .LASF2366
C:\Users\CYMR90~1\AppData\Local\Temp\ccZoYVSv.s:31987  .debug_str:00000000000254b1 .LASF2367
C:\Users\CYMR90~1\AppData\Local\Temp\ccZoYVSv.s:32623  .debug_str:0000000000027eae .LASF2368
C:\Users\CYMR90~1\AppData\Local\Temp\ccZoYVSv.s:24996  .debug_str:00000000000096c4 .LASF2369
C:\Users\CYMR90~1\AppData\Local\Temp\ccZoYVSv.s:26340  .debug_str:000000000000ede3 .LASF2370
C:\Users\CYMR90~1\AppData\Local\Temp\ccZoYVSv.s:24368  .debug_str:0000000000006d78 .LASF2371
C:\Users\CYMR90~1\AppData\Local\Temp\ccZoYVSv.s:26744  .debug_str:00000000000106a6 .LASF2372
C:\Users\CYMR90~1\AppData\Local\Temp\ccZoYVSv.s:33733  .debug_str:000000000002c305 .LASF2373
C:\Users\CYMR90~1\AppData\Local\Temp\ccZoYVSv.s:32397  .debug_str:000000000002708a .LASF2374
C:\Users\CYMR90~1\AppData\Local\Temp\ccZoYVSv.s:22786  .debug_str:0000000000000997 .LASF2375
C:\Users\CYMR90~1\AppData\Local\Temp\ccZoYVSv.s:27148  .debug_str:00000000000120b0 .LASF2376
C:\Users\CYMR90~1\AppData\Local\Temp\ccZoYVSv.s:30341  .debug_str:000000000001efa4 .LASF2377
C:\Users\CYMR90~1\AppData\Local\Temp\ccZoYVSv.s:33677  .debug_str:000000000002bf9e .LASF2378
C:\Users\CYMR90~1\AppData\Local\Temp\ccZoYVSv.s:25466  .debug_str:000000000000b565 .LASF2379
C:\Users\CYMR90~1\AppData\Local\Temp\ccZoYVSv.s:24412  .debug_str:0000000000007071 .LASF2380
C:\Users\CYMR90~1\AppData\Local\Temp\ccZoYVSv.s:31945  .debug_str:00000000000251c7 .LASF2381
C:\Users\CYMR90~1\AppData\Local\Temp\ccZoYVSv.s:31691  .debug_str:0000000000024156 .LASF2382
C:\Users\CYMR90~1\AppData\Local\Temp\ccZoYVSv.s:26916  .debug_str:0000000000011179 .LASF2383
C:\Users\CYMR90~1\AppData\Local\Temp\ccZoYVSv.s:30111  .debug_str:000000000001e125 .LASF2384
C:\Users\CYMR90~1\AppData\Local\Temp\ccZoYVSv.s:33417  .debug_str:000000000002afb5 .LASF2385
C:\Users\CYMR90~1\AppData\Local\Temp\ccZoYVSv.s:23098  .debug_str:0000000000001d33 .LASF2386
C:\Users\CYMR90~1\AppData\Local\Temp\ccZoYVSv.s:27826  .debug_str:0000000000014c81 .LASF2387
C:\Users\CYMR90~1\AppData\Local\Temp\ccZoYVSv.s:32625  .debug_str:0000000000027ec0 .LASF2388
C:\Users\CYMR90~1\AppData\Local\Temp\ccZoYVSv.s:29471  .debug_str:000000000001b886 .LASF2389
C:\Users\CYMR90~1\AppData\Local\Temp\ccZoYVSv.s:30643  .debug_str:00000000000201d8 .LASF2390
C:\Users\CYMR90~1\AppData\Local\Temp\ccZoYVSv.s:23976  .debug_str:000000000000556c .LASF2391
C:\Users\CYMR90~1\AppData\Local\Temp\ccZoYVSv.s:28721  .debug_str:0000000000018658 .LASF2392
C:\Users\CYMR90~1\AppData\Local\Temp\ccZoYVSv.s:33521  .debug_str:000000000002b59b .LASF2393
C:\Users\CYMR90~1\AppData\Local\Temp\ccZoYVSv.s:29585  .debug_str:000000000001bf0c .LASF2394
C:\Users\CYMR90~1\AppData\Local\Temp\ccZoYVSv.s:32683  .debug_str:0000000000028235 .LASF2395
C:\Users\CYMR90~1\AppData\Local\Temp\ccZoYVSv.s:25994  .debug_str:000000000000d865 .LASF2396
C:\Users\CYMR90~1\AppData\Local\Temp\ccZoYVSv.s:30701  .debug_str:000000000002057b .LASF2397
C:\Users\CYMR90~1\AppData\Local\Temp\ccZoYVSv.s:24028  .debug_str:0000000000005859 .LASF2398
C:\Users\CYMR90~1\AppData\Local\Temp\ccZoYVSv.s:28773  .debug_str:0000000000018986 .LASF2399
C:\Users\CYMR90~1\AppData\Local\Temp\ccZoYVSv.s:33575  .debug_str:000000000002b8d5 .LASF2400
C:\Users\CYMR90~1\AppData\Local\Temp\ccZoYVSv.s:33455  .debug_str:000000000002b1c6 .LASF2401
C:\Users\CYMR90~1\AppData\Local\Temp\ccZoYVSv.s:25246  .debug_str:000000000000a662 .LASF2402
C:\Users\CYMR90~1\AppData\Local\Temp\ccZoYVSv.s:28469  .debug_str:00000000000176d0 .LASF2403
C:\Users\CYMR90~1\AppData\Local\Temp\ccZoYVSv.s:31737  .debug_str:00000000000243cd .LASF2404
C:\Users\CYMR90~1\AppData\Local\Temp\ccZoYVSv.s:23606  .debug_str:0000000000003ceb .LASF2405
C:\Users\CYMR90~1\AppData\Local\Temp\ccZoYVSv.s:26788  .debug_str:00000000000109f2 .LASF2406
C:\Users\CYMR90~1\AppData\Local\Temp\ccZoYVSv.s:30001  .debug_str:000000000001da3b .LASF2407
C:\Users\CYMR90~1\AppData\Local\Temp\ccZoYVSv.s:33303  .debug_str:000000000002a918 .LASF2408
C:\Users\CYMR90~1\AppData\Local\Temp\ccZoYVSv.s:27590  .debug_str:0000000000013db0 .LASF2409
C:\Users\CYMR90~1\AppData\Local\Temp\ccZoYVSv.s:25972  .debug_str:000000000000d6f9 .LASF2410
C:\Users\CYMR90~1\AppData\Local\Temp\ccZoYVSv.s:29359  .debug_str:000000000001b10f .LASF2411
C:\Users\CYMR90~1\AppData\Local\Temp\ccZoYVSv.s:22670  .debug_str:000000000000026a .LASF2412
C:\Users\CYMR90~1\AppData\Local\Temp\ccZoYVSv.s:22684  .debug_str:0000000000000370 .LASF2413
C:\Users\CYMR90~1\AppData\Local\Temp\ccZoYVSv.s:32165  .debug_str:000000000002621d .LASF2414
C:\Users\CYMR90~1\AppData\Local\Temp\ccZoYVSv.s:25498  .debug_str:000000000000b71e .LASF2415
C:\Users\CYMR90~1\AppData\Local\Temp\ccZoYVSv.s:30181  .debug_str:000000000001e614 .LASF2416
C:\Users\CYMR90~1\AppData\Local\Temp\ccZoYVSv.s:25826  .debug_str:000000000000cd5a .LASF2417
C:\Users\CYMR90~1\AppData\Local\Temp\ccZoYVSv.s:28256  .debug_str:000000000001674a .LASF2418
C:\Users\CYMR90~1\AppData\Local\Temp\ccZoYVSv.s:30399  .debug_str:000000000001f2c9 .LASF2419
C:\Users\CYMR90~1\AppData\Local\Temp\ccZoYVSv.s:27460  .debug_str:0000000000013535 .LASF2420
C:\Users\CYMR90~1\AppData\Local\Temp\ccZoYVSv.s:32217  .debug_str:0000000000026540 .LASF2421
C:\Users\CYMR90~1\AppData\Local\Temp\ccZoYVSv.s:25540  .debug_str:000000000000ba5b .LASF2422
C:\Users\CYMR90~1\AppData\Local\Temp\ccZoYVSv.s:30231  .debug_str:000000000001e90b .LASF2423
C:\Users\CYMR90~1\AppData\Local\Temp\ccZoYVSv.s:23576  .debug_str:0000000000003b31 .LASF2424
C:\Users\CYMR90~1\AppData\Local\Temp\ccZoYVSv.s:28316  .debug_str:0000000000016b21 .LASF2425
C:\Users\CYMR90~1\AppData\Local\Temp\ccZoYVSv.s:25372  .debug_str:000000000000aef0 .LASF2426
C:\Users\CYMR90~1\AppData\Local\Temp\ccZoYVSv.s:28497  .debug_str:0000000000017884 .LASF2427
C:\Users\CYMR90~1\AppData\Local\Temp\ccZoYVSv.s:31775  .debug_str:0000000000024618 .LASF2428
C:\Users\CYMR90~1\AppData\Local\Temp\ccZoYVSv.s:23562  .debug_str:0000000000003a45 .LASF2429
C:\Users\CYMR90~1\AppData\Local\Temp\ccZoYVSv.s:26826  .debug_str:0000000000010c09 .LASF2430
C:\Users\CYMR90~1\AppData\Local\Temp\ccZoYVSv.s:27074  .debug_str:0000000000011ba4 .LASF2431
C:\Users\CYMR90~1\AppData\Local\Temp\ccZoYVSv.s:33341  .debug_str:000000000002ab1c .LASF2432
C:\Users\CYMR90~1\AppData\Local\Temp\ccZoYVSv.s:25132  .debug_str:0000000000009f5b .LASF2433
C:\Users\CYMR90~1\AppData\Local\Temp\ccZoYVSv.s:33615  .debug_str:000000000002bb7f .LASF2434
C:\Users\CYMR90~1\AppData\Local\Temp\ccZoYVSv.s:31535  .debug_str:00000000000237c0 .LASF2435
C:\Users\CYMR90~1\AppData\Local\Temp\ccZoYVSv.s:32909  .debug_str:00000000000291d4 .LASF2436
C:\Users\CYMR90~1\AppData\Local\Temp\ccZoYVSv.s:26208  .debug_str:000000000000e5ae .LASF2437
C:\Users\CYMR90~1\AppData\Local\Temp\ccZoYVSv.s:30937  .debug_str:00000000000213c4 .LASF2438
C:\Users\CYMR90~1\AppData\Local\Temp\ccZoYVSv.s:24254  .debug_str:000000000000666b .LASF2439
C:\Users\CYMR90~1\AppData\Local\Temp\ccZoYVSv.s:29015  .debug_str:00000000000199ca .LASF2440
C:\Users\CYMR90~1\AppData\Local\Temp\ccZoYVSv.s:33801  .debug_str:000000000002c7cc .LASF2441
C:\Users\CYMR90~1\AppData\Local\Temp\ccZoYVSv.s:27080  .debug_str:0000000000011bf9 .LASF2442
C:\Users\CYMR90~1\AppData\Local\Temp\ccZoYVSv.s:31843  .debug_str:0000000000024b32 .LASF2443
C:\Users\CYMR90~1\AppData\Local\Temp\ccZoYVSv.s:29879  .debug_str:000000000001d1a0 .LASF2444
C:\Users\CYMR90~1\AppData\Local\Temp\ccZoYVSv.s:30997  .debug_str:000000000002172a .LASF2445
C:\Users\CYMR90~1\AppData\Local\Temp\ccZoYVSv.s:24306  .debug_str:0000000000006957 .LASF2446
C:\Users\CYMR90~1\AppData\Local\Temp\ccZoYVSv.s:29063  .debug_str:0000000000019d6d .LASF2447
C:\Users\CYMR90~1\AppData\Local\Temp\ccZoYVSv.s:33853  .debug_str:000000000002cb83 .LASF2448
C:\Users\CYMR90~1\AppData\Local\Temp\ccZoYVSv.s:27140  .debug_str:000000000001200d .LASF2449
C:\Users\CYMR90~1\AppData\Local\Temp\ccZoYVSv.s:27054  .debug_str:00000000000119c8 .LASF2450
C:\Users\CYMR90~1\AppData\Local\Temp\ccZoYVSv.s:30667  .debug_str:0000000000020361 .LASF2451
C:\Users\CYMR90~1\AppData\Local\Temp\ccZoYVSv.s:32005  .debug_str:00000000000255c0 .LASF2452
C:\Users\CYMR90~1\AppData\Local\Temp\ccZoYVSv.s:30307  .debug_str:000000000001edc1 .LASF2453
C:\Users\CYMR90~1\AppData\Local\Temp\ccZoYVSv.s:28683  .debug_str:00000000000183eb .LASF2454
C:\Users\CYMR90~1\AppData\Local\Temp\ccZoYVSv.s:32167  .debug_str:0000000000026236 .LASF2455
C:\Users\CYMR90~1\AppData\Local\Temp\ccZoYVSv.s:25442  .debug_str:000000000000b41f .LASF2456
C:\Users\CYMR90~1\AppData\Local\Temp\ccZoYVSv.s:27216  .debug_str:0000000000012516 .LASF2457
C:\Users\CYMR90~1\AppData\Local\Temp\ccZoYVSv.s:30407  .debug_str:000000000001f338 .LASF2458
C:\Users\CYMR90~1\AppData\Local\Temp\ccZoYVSv.s:31935  .debug_str:000000000002513e .LASF2459
C:\Users\CYMR90~1\AppData\Local\Temp\ccZoYVSv.s:25446  .debug_str:000000000000b45c .LASF2460
C:\Users\CYMR90~1\AppData\Local\Temp\ccZoYVSv.s:31573  .debug_str:00000000000239cf .LASF2461
C:\Users\CYMR90~1\AppData\Local\Temp\ccZoYVSv.s:33673  .debug_str:000000000002bf0e .LASF2462
C:\Users\CYMR90~1\AppData\Local\Temp\ccZoYVSv.s:29891  .debug_str:000000000001d30a .LASF2463
C:\Users\CYMR90~1\AppData\Local\Temp\ccZoYVSv.s:23222  .debug_str:000000000000241f .LASF2464
C:\Users\CYMR90~1\AppData\Local\Temp\ccZoYVSv.s:27948  .debug_str:000000000001546a .LASF2465
C:\Users\CYMR90~1\AppData\Local\Temp\ccZoYVSv.s:32751  .debug_str:00000000000286ca .LASF2466
C:\Users\CYMR90~1\AppData\Local\Temp\ccZoYVSv.s:26056  .debug_str:000000000000dc44 .LASF2467
C:\Users\CYMR90~1\AppData\Local\Temp\ccZoYVSv.s:30767  .debug_str:0000000000020916 .LASF2468
C:\Users\CYMR90~1\AppData\Local\Temp\ccZoYVSv.s:28847  .debug_str:0000000000018e2b .LASF2469
C:\Users\CYMR90~1\AppData\Local\Temp\ccZoYVSv.s:23634  .debug_str:0000000000003ec4 .LASF2470
C:\Users\CYMR90~1\AppData\Local\Temp\ccZoYVSv.s:23274  .debug_str:0000000000002777 .LASF2471
C:\Users\CYMR90~1\AppData\Local\Temp\ccZoYVSv.s:27512  .debug_str:0000000000013915 .LASF2472
C:\Users\CYMR90~1\AppData\Local\Temp\ccZoYVSv.s:32803  .debug_str:0000000000028b0f .LASF2473
C:\Users\CYMR90~1\AppData\Local\Temp\ccZoYVSv.s:26108  .debug_str:000000000000df34 .LASF2474
C:\Users\CYMR90~1\AppData\Local\Temp\ccZoYVSv.s:30825  .debug_str:0000000000020ceb .LASF2475
C:\Users\CYMR90~1\AppData\Local\Temp\ccZoYVSv.s:33037  .debug_str:000000000002994f .LASF2476
C:\Users\CYMR90~1\AppData\Local\Temp\ccZoYVSv.s:23418  .debug_str:00000000000030c8 .LASF2477
C:\Users\CYMR90~1\AppData\Local\Temp\ccZoYVSv.s:28022  .debug_str:00000000000158ad .LASF2478
C:\Users\CYMR90~1\AppData\Local\Temp\ccZoYVSv.s:32789  .debug_str:00000000000289a3 .LASF2479
C:\Users\CYMR90~1\AppData\Local\Temp\ccZoYVSv.s:31115  .debug_str:0000000000021ee7 .LASF2480
C:\Users\CYMR90~1\AppData\Local\Temp\ccZoYVSv.s:29477  .debug_str:000000000001b8dd .LASF2481
C:\Users\CYMR90~1\AppData\Local\Temp\ccZoYVSv.s:29591  .debug_str:000000000001bf57 .LASF2482
C:\Users\CYMR90~1\AppData\Local\Temp\ccZoYVSv.s:32881  .debug_str:000000000002904d .LASF2483
C:\Users\CYMR90~1\AppData\Local\Temp\ccZoYVSv.s:24666  .debug_str:000000000000815e .LASF2484
C:\Users\CYMR90~1\AppData\Local\Temp\ccZoYVSv.s:27800  .debug_str:0000000000014af6 .LASF2485
C:\Users\CYMR90~1\AppData\Local\Temp\ccZoYVSv.s:27516  .debug_str:0000000000013942 .LASF2486
C:\Users\CYMR90~1\AppData\Local\Temp\ccZoYVSv.s:32275  .debug_str:00000000000268f2 .LASF2487
C:\Users\CYMR90~1\AppData\Local\Temp\ccZoYVSv.s:25594  .debug_str:000000000000bdb1 .LASF2488
C:\Users\CYMR90~1\AppData\Local\Temp\ccZoYVSv.s:30287  .debug_str:000000000001ec44 .LASF2489
C:\Users\CYMR90~1\AppData\Local\Temp\ccZoYVSv.s:23624  .debug_str:0000000000003e31 .LASF2490
C:\Users\CYMR90~1\AppData\Local\Temp\ccZoYVSv.s:28379  .debug_str:0000000000017196 .LASF2491
C:\Users\CYMR90~1\AppData\Local\Temp\ccZoYVSv.s:33173  .debug_str:000000000002a151 .LASF2492
C:\Users\CYMR90~1\AppData\Local\Temp\ccZoYVSv.s:26476  .debug_str:000000000000f5e2 .LASF2493
C:\Users\CYMR90~1\AppData\Local\Temp\ccZoYVSv.s:24524  .debug_str:0000000000007780 .LASF2494
C:\Users\CYMR90~1\AppData\Local\Temp\ccZoYVSv.s:25644  .debug_str:000000000000c184 .LASF2495
C:\Users\CYMR90~1\AppData\Local\Temp\ccZoYVSv.s:30331  .debug_str:000000000001ef2f .LASF2496
C:\Users\CYMR90~1\AppData\Local\Temp\ccZoYVSv.s:23674  .debug_str:0000000000004137 .LASF2497
C:\Users\CYMR90~1\AppData\Local\Temp\ccZoYVSv.s:28433  .debug_str:00000000000174ba .LASF2498
C:\Users\CYMR90~1\AppData\Local\Temp\ccZoYVSv.s:33227  .debug_str:000000000002a4a0 .LASF2499
C:\Users\CYMR90~1\AppData\Local\Temp\ccZoYVSv.s:26536  .debug_str:000000000000f986 .LASF2500
C:\Users\CYMR90~1\AppData\Local\Temp\ccZoYVSv.s:26250  .debug_str:000000000000e819 .LASF2501
C:\Users\CYMR90~1\AppData\Local\Temp\ccZoYVSv.s:29489  .debug_str:000000000001b9b9 .LASF2502
C:\Users\CYMR90~1\AppData\Local\Temp\ccZoYVSv.s:32761  .debug_str:0000000000028771 .LASF2503
C:\Users\CYMR90~1\AppData\Local\Temp\ccZoYVSv.s:24542  .debug_str:00000000000078b5 .LASF2504
C:\Users\CYMR90~1\AppData\Local\Temp\ccZoYVSv.s:27684  .debug_str:000000000001437a .LASF2505
C:\Users\CYMR90~1\AppData\Local\Temp\ccZoYVSv.s:30935  .debug_str:00000000000213b1 .LASF2506
C:\Users\CYMR90~1\AppData\Local\Temp\ccZoYVSv.s:33161  .debug_str:000000000002a0a8 .LASF2507
C:\Users\CYMR90~1\AppData\Local\Temp\ccZoYVSv.s:26020  .debug_str:000000000000d9e6 .LASF2508
C:\Users\CYMR90~1\AppData\Local\Temp\ccZoYVSv.s:29261  .debug_str:000000000001aa6f .LASF2509
C:\Users\CYMR90~1\AppData\Local\Temp\ccZoYVSv.s:28166  .debug_str:00000000000161b1 .LASF2510
C:\Users\CYMR90~1\AppData\Local\Temp\ccZoYVSv.s:32845  .debug_str:0000000000028dc8 .LASF2511
C:\Users\CYMR90~1\AppData\Local\Temp\ccZoYVSv.s:26150  .debug_str:000000000000e21a .LASF2512
C:\Users\CYMR90~1\AppData\Local\Temp\ccZoYVSv.s:30873  .debug_str:0000000000020fa2 .LASF2513
C:\Users\CYMR90~1\AppData\Local\Temp\ccZoYVSv.s:24184  .debug_str:0000000000006207 .LASF2514
C:\Users\CYMR90~1\AppData\Local\Temp\ccZoYVSv.s:28953  .debug_str:0000000000019642 .LASF2515
C:\Users\CYMR90~1\AppData\Local\Temp\ccZoYVSv.s:29731  .debug_str:000000000001c814 .LASF2516
C:\Users\CYMR90~1\AppData\Local\Temp\ccZoYVSv.s:27020  .debug_str:0000000000011799 .LASF2517
C:\Users\CYMR90~1\AppData\Local\Temp\ccZoYVSv.s:31785  .debug_str:0000000000024688 .LASF2518
C:\Users\CYMR90~1\AppData\Local\Temp\ccZoYVSv.s:29825  .debug_str:000000000001ce5e .LASF2519
C:\Users\CYMR90~1\AppData\Local\Temp\ccZoYVSv.s:31033  .debug_str:0000000000021947 .LASF2520
C:\Users\CYMR90~1\AppData\Local\Temp\ccZoYVSv.s:24336  .debug_str:0000000000006b6f .LASF2521
C:\Users\CYMR90~1\AppData\Local\Temp\ccZoYVSv.s:29089  .debug_str:0000000000019f24 .LASF2522
C:\Users\CYMR90~1\AppData\Local\Temp\ccZoYVSv.s:33881  .debug_str:000000000002cd41 .LASF2523
C:\Users\CYMR90~1\AppData\Local\Temp\ccZoYVSv.s:27164  .debug_str:00000000000121a8 .LASF2524
C:\Users\CYMR90~1\AppData\Local\Temp\ccZoYVSv.s:31917  .debug_str:0000000000024f98 .LASF2525
C:\Users\CYMR90~1\AppData\Local\Temp\ccZoYVSv.s:27362  .debug_str:0000000000012ea3 .LASF2526
C:\Users\CYMR90~1\AppData\Local\Temp\ccZoYVSv.s:23514  .debug_str:0000000000003716 .LASF2527
C:\Users\CYMR90~1\AppData\Local\Temp\ccZoYVSv.s:28745  .debug_str:00000000000187c6 .LASF2528
C:\Users\CYMR90~1\AppData\Local\Temp\ccZoYVSv.s:25074  .debug_str:0000000000009bd7 .LASF2529
C:\Users\CYMR90~1\AppData\Local\Temp\ccZoYVSv.s:23846  .debug_str:0000000000004d73 .LASF2530
C:\Users\CYMR90~1\AppData\Local\Temp\ccZoYVSv.s:32235  .debug_str:0000000000026647 .LASF2531
C:\Users\CYMR90~1\AppData\Local\Temp\ccZoYVSv.s:28150  .debug_str:0000000000016093 .LASF2532
C:\Users\CYMR90~1\AppData\Local\Temp\ccZoYVSv.s:27918  .debug_str:0000000000015296 .LASF2533
C:\Users\CYMR90~1\AppData\Local\Temp\ccZoYVSv.s:28298  .debug_str:0000000000016a22 .LASF2534
C:\Users\CYMR90~1\AppData\Local\Temp\ccZoYVSv.s:25140  .debug_str:0000000000009fce .LASF2535
C:\Users\CYMR90~1\AppData\Local\Temp\ccZoYVSv.s:31895  .debug_str:0000000000024e32 .LASF2536
C:\Users\CYMR90~1\AppData\Local\Temp\ccZoYVSv.s:32985  .debug_str:0000000000029612 .LASF2537
C:\Users\CYMR90~1\AppData\Local\Temp\ccZoYVSv.s:22748  .debug_str:000000000000073f .LASF2538
C:\Users\CYMR90~1\AppData\Local\Temp\ccZoYVSv.s:24562  .debug_str:00000000000079f7 .LASF2539
C:\Users\CYMR90~1\AppData\Local\Temp\ccZoYVSv.s:23556  .debug_str:00000000000039f2 .LASF2540
C:\Users\CYMR90~1\AppData\Local\Temp\ccZoYVSv.s:32131  .debug_str:0000000000025f52 .LASF2541
C:\Users\CYMR90~1\AppData\Local\Temp\ccZoYVSv.s:27166  .debug_str:00000000000121bd .LASF2542
C:\Users\CYMR90~1\AppData\Local\Temp\ccZoYVSv.s:25942  .debug_str:000000000000d48a .LASF2543
C:\Users\CYMR90~1\AppData\Local\Temp\ccZoYVSv.s:30599  .debug_str:000000000001ff12 .LASF2544
C:\Users\CYMR90~1\AppData\Local\Temp\ccZoYVSv.s:29699  .debug_str:000000000001c642 .LASF2545
C:\Users\CYMR90~1\AppData\Local\Temp\ccZoYVSv.s:23598  .debug_str:0000000000003c6c .LASF2546
C:\Users\CYMR90~1\AppData\Local\Temp\ccZoYVSv.s:32283  .debug_str:0000000000026982 .LASF2547
C:\Users\CYMR90~1\AppData\Local\Temp\ccZoYVSv.s:25908  .debug_str:000000000000d242 .LASF2548
C:\Users\CYMR90~1\AppData\Local\Temp\ccZoYVSv.s:24972  .debug_str:000000000000956c .LASF2549
C:\Users\CYMR90~1\AppData\Local\Temp\ccZoYVSv.s:23946  .debug_str:0000000000005360 .LASF2550
C:\Users\CYMR90~1\AppData\Local\Temp\ccZoYVSv.s:32633  .debug_str:0000000000027f3a .LASF2551
C:\Users\CYMR90~1\AppData\Local\Temp\ccZoYVSv.s:30505  .debug_str:000000000001f981 .LASF2552
C:\Users\CYMR90~1\AppData\Local\Temp\ccZoYVSv.s:27018  .debug_str:0000000000011777 .LASF2553
C:\Users\CYMR90~1\AppData\Local\Temp\ccZoYVSv.s:30979  .debug_str:000000000002160b .LASF2554
C:\Users\CYMR90~1\AppData\Local\Temp\ccZoYVSv.s:28068  .debug_str:0000000000015b3e .LASF2555
C:\Users\CYMR90~1\AppData\Local\Temp\ccZoYVSv.s:28647  .debug_str:00000000000181d1 .LASF2556
C:\Users\CYMR90~1\AppData\Local\Temp\ccZoYVSv.s:27494  .debug_str:00000000000137de .LASF2557
C:\Users\CYMR90~1\AppData\Local\Temp\ccZoYVSv.s:27972  .debug_str:00000000000155fa .LASF2558
C:\Users\CYMR90~1\AppData\Local\Temp\ccZoYVSv.s:26684  .debug_str:00000000000102fc .LASF2559
C:\Users\CYMR90~1\AppData\Local\Temp\ccZoYVSv.s:26970  .debug_str:0000000000011497 .LASF2560
C:\Users\CYMR90~1\AppData\Local\Temp\ccZoYVSv.s:26060  .debug_str:000000000000dc72 .LASF2561
C:\Users\CYMR90~1\AppData\Local\Temp\ccZoYVSv.s:25050  .debug_str:0000000000009a3c .LASF2562
C:\Users\CYMR90~1\AppData\Local\Temp\ccZoYVSv.s:33637  .debug_str:000000000002bcd9 .LASF2563
C:\Users\CYMR90~1\AppData\Local\Temp\ccZoYVSv.s:26710  .debug_str:00000000000104b8 .LASF2564
C:\Users\CYMR90~1\AppData\Local\Temp\ccZoYVSv.s:32979  .debug_str:00000000000295b5 .LASF2565
C:\Users\CYMR90~1\AppData\Local\Temp\ccZoYVSv.s:31679  .debug_str:000000000002407e .LASF2566
C:\Users\CYMR90~1\AppData\Local\Temp\ccZoYVSv.s:28479  .debug_str:000000000001777b .LASF2567
C:\Users\CYMR90~1\AppData\Local\Temp\ccZoYVSv.s:28086  .debug_str:0000000000015c74 .LASF2568
C:\Users\CYMR90~1\AppData\Local\Temp\ccZoYVSv.s:28224  .debug_str:0000000000016594 .LASF2569
C:\Users\CYMR90~1\AppData\Local\Temp\ccZoYVSv.s:29579  .debug_str:000000000001bec2 .LASF2570
C:\Users\CYMR90~1\AppData\Local\Temp\ccZoYVSv.s:25924  .debug_str:000000000000d346 .LASF2571
C:\Users\CYMR90~1\AppData\Local\Temp\ccZoYVSv.s:30379  .debug_str:000000000001f192 .LASF2572
C:\Users\CYMR90~1\AppData\Local\Temp\ccZoYVSv.s:24460  .debug_str:000000000000736b .LASF2573
C:\Users\CYMR90~1\AppData\Local\Temp\ccZoYVSv.s:22896  .debug_str:00000000000010df .LASF2574
C:\Users\CYMR90~1\AppData\Local\Temp\ccZoYVSv.s:29349  .debug_str:000000000001b08b .LASF2575
C:\Users\CYMR90~1\AppData\Local\Temp\ccZoYVSv.s:25316  .debug_str:000000000000ab61 .LASF2576
C:\Users\CYMR90~1\AppData\Local\Temp\ccZoYVSv.s:28204  .debug_str:0000000000016469 .LASF2577
C:\Users\CYMR90~1\AppData\Local\Temp\ccZoYVSv.s:25642  .debug_str:000000000000c16c .LASF2578
C:\Users\CYMR90~1\AppData\Local\Temp\ccZoYVSv.s:25778  .debug_str:000000000000c9fb .LASF2579
C:\Users\CYMR90~1\AppData\Local\Temp\ccZoYVSv.s:29741  .debug_str:000000000001c88d .LASF2580
C:\Users\CYMR90~1\AppData\Local\Temp\ccZoYVSv.s:23884  .debug_str:0000000000004fbe .LASF2581
C:\Users\CYMR90~1\AppData\Local\Temp\ccZoYVSv.s:29597  .debug_str:000000000001bfae .LASF2582
C:\Users\CYMR90~1\AppData\Local\Temp\ccZoYVSv.s:28072  .debug_str:0000000000015ba7 .LASF2583
C:\Users\CYMR90~1\AppData\Local\Temp\ccZoYVSv.s:33127  .debug_str:0000000000029ed4 .LASF2584
C:\Users\CYMR90~1\AppData\Local\Temp\ccZoYVSv.s:31269  .debug_str:0000000000022811 .LASF2585
C:\Users\CYMR90~1\AppData\Local\Temp\ccZoYVSv.s:23852  .debug_str:0000000000004dd8 .LASF2586
C:\Users\CYMR90~1\AppData\Local\Temp\ccZoYVSv.s:31007  .debug_str:00000000000217ca .LASF2587
C:\Users\CYMR90~1\AppData\Local\Temp\ccZoYVSv.s:32521  .debug_str:00000000000277f7 .LASF2588
C:\Users\CYMR90~1\AppData\Local\Temp\ccZoYVSv.s:22846  .debug_str:0000000000000d63 .LASF2589
C:\Users\CYMR90~1\AppData\Local\Temp\ccZoYVSv.s:24584  .debug_str:0000000000007b56 .LASF2590
C:\Users\CYMR90~1\AppData\Local\Temp\ccZoYVSv.s:25048  .debug_str:0000000000009a1c .LASF2591
C:\Users\CYMR90~1\AppData\Local\Temp\ccZoYVSv.s:27342  .debug_str:0000000000012d6f .LASF2592
C:\Users\CYMR90~1\AppData\Local\Temp\ccZoYVSv.s:25112  .debug_str:0000000000009e48 .LASF2593
C:\Users\CYMR90~1\AppData\Local\Temp\ccZoYVSv.s:23636  .debug_str:0000000000003edd .LASF2594
C:\Users\CYMR90~1\AppData\Local\Temp\ccZoYVSv.s:29607  .debug_str:000000000001c07e .LASF2595
C:\Users\CYMR90~1\AppData\Local\Temp\ccZoYVSv.s:28737  .debug_str:000000000001875e .LASF2596
C:\Users\CYMR90~1\AppData\Local\Temp\ccZoYVSv.s:25174  .debug_str:000000000000a20f .LASF2597
C:\Users\CYMR90~1\AppData\Local\Temp\ccZoYVSv.s:33973  .debug_str:000000000002d30c .LASF2598
C:\Users\CYMR90~1\AppData\Local\Temp\ccZoYVSv.s:23094  .debug_str:0000000000001cf9 .LASF2599
C:\Users\CYMR90~1\AppData\Local\Temp\ccZoYVSv.s:27600  .debug_str:0000000000013e55 .LASF2600
C:\Users\CYMR90~1\AppData\Local\Temp\ccZoYVSv.s:27764  .debug_str:0000000000014849 .LASF2601
C:\Users\CYMR90~1\AppData\Local\Temp\ccZoYVSv.s:33751  .debug_str:000000000002c43e .LASF2602
C:\Users\CYMR90~1\AppData\Local\Temp\ccZoYVSv.s:27024  .debug_str:00000000000117dd .LASF2603
C:\Users\CYMR90~1\AppData\Local\Temp\ccZoYVSv.s:26362  .debug_str:000000000000ef64 .LASF2604
C:\Users\CYMR90~1\AppData\Local\Temp\ccZoYVSv.s:29873  .debug_str:000000000001d14a .LASF2605
C:\Users\CYMR90~1\AppData\Local\Temp\ccZoYVSv.s:29127  .debug_str:000000000001a175 .LASF2606
C:\Users\CYMR90~1\AppData\Local\Temp\ccZoYVSv.s:23904  .debug_str:00000000000050f5 .LASF2607
C:\Users\CYMR90~1\AppData\Local\Temp\ccZoYVSv.s:23816  .debug_str:0000000000004b9b .LASF2608
C:\Users\CYMR90~1\AppData\Local\Temp\ccZoYVSv.s:34007  .debug_str:000000000002d577 .LASF2609
C:\Users\CYMR90~1\AppData\Local\Temp\ccZoYVSv.s:30501  .debug_str:000000000001f93d .LASF2610
C:\Users\CYMR90~1\AppData\Local\Temp\ccZoYVSv.s:24736  .debug_str:0000000000008692 .LASF2611
C:\Users\CYMR90~1\AppData\Local\Temp\ccZoYVSv.s:24724  .debug_str:00000000000085f1 .LASF2612
C:\Users\CYMR90~1\AppData\Local\Temp\ccZoYVSv.s:32173  .debug_str:0000000000026290 .LASF2613
C:\Users\CYMR90~1\AppData\Local\Temp\ccZoYVSv.s:26982  .debug_str:000000000001155a .LASF2614
C:\Users\CYMR90~1\AppData\Local\Temp\ccZoYVSv.s:28222  .debug_str:0000000000016570 .LASF2615
C:\Users\CYMR90~1\AppData\Local\Temp\ccZoYVSv.s:29553  .debug_str:000000000001bd88 .LASF2616
C:\Users\CYMR90~1\AppData\Local\Temp\ccZoYVSv.s:31217  .debug_str:000000000002251a .LASF2617
C:\Users\CYMR90~1\AppData\Local\Temp\ccZoYVSv.s:31121  .debug_str:0000000000021f55 .LASF2618
C:\Users\CYMR90~1\AppData\Local\Temp\ccZoYVSv.s:30115  .debug_str:000000000001e150 .LASF2619
C:\Users\CYMR90~1\AppData\Local\Temp\ccZoYVSv.s:29101  .debug_str:0000000000019fef .LASF2620
C:\Users\CYMR90~1\AppData\Local\Temp\ccZoYVSv.s:28180  .debug_str:00000000000162a6 .LASF2621
C:\Users\CYMR90~1\AppData\Local\Temp\ccZoYVSv.s:27252  .debug_str:000000000001275e .LASF2622
C:\Users\CYMR90~1\AppData\Local\Temp\ccZoYVSv.s:31519  .debug_str:00000000000236ed .LASF2623
C:\Users\CYMR90~1\AppData\Local\Temp\ccZoYVSv.s:28000  .debug_str:0000000000015767 .LASF2624
C:\Users\CYMR90~1\AppData\Local\Temp\ccZoYVSv.s:23736  .debug_str:000000000000458e .LASF2625
C:\Users\CYMR90~1\AppData\Local\Temp\ccZoYVSv.s:23446  .debug_str:0000000000003287 .LASF2626
C:\Users\CYMR90~1\AppData\Local\Temp\ccZoYVSv.s:24974  .debug_str:000000000000958e .LASF2627
C:\Users\CYMR90~1\AppData\Local\Temp\ccZoYVSv.s:22842  .debug_str:0000000000000d2c .LASF2628
C:\Users\CYMR90~1\AppData\Local\Temp\ccZoYVSv.s:33497  .debug_str:000000000002b41b .LASF2629
C:\Users\CYMR90~1\AppData\Local\Temp\ccZoYVSv.s:24794  .debug_str:0000000000008a07 .LASF2630
C:\Users\CYMR90~1\AppData\Local\Temp\ccZoYVSv.s:23144  .debug_str:0000000000001ffd .LASF2631
C:\Users\CYMR90~1\AppData\Local\Temp\ccZoYVSv.s:25608  .debug_str:000000000000be91 .LASF2632
C:\Users\CYMR90~1\AppData\Local\Temp\ccZoYVSv.s:22950  .debug_str:00000000000013e0 .LASF2633
C:\Users\CYMR90~1\AppData\Local\Temp\ccZoYVSv.s:29231  .debug_str:000000000001a916 .LASF2634
C:\Users\CYMR90~1\AppData\Local\Temp\ccZoYVSv.s:29013  .debug_str:00000000000199b9 .LASF2635
C:\Users\CYMR90~1\AppData\Local\Temp\ccZoYVSv.s:27524  .debug_str:00000000000139d7 .LASF2636
C:\Users\CYMR90~1\AppData\Local\Temp\ccZoYVSv.s:32811  .debug_str:0000000000028b85 .LASF2637
C:\Users\CYMR90~1\AppData\Local\Temp\ccZoYVSv.s:25182  .debug_str:000000000000a290 .LASF2638
C:\Users\CYMR90~1\AppData\Local\Temp\ccZoYVSv.s:29275  .debug_str:000000000001ab5c .LASF2639
C:\Users\CYMR90~1\AppData\Local\Temp\ccZoYVSv.s:29921  .debug_str:000000000001d567 .LASF2640
C:\Users\CYMR90~1\AppData\Local\Temp\ccZoYVSv.s:28405  .debug_str:0000000000017333 .LASF2641
C:\Users\CYMR90~1\AppData\Local\Temp\ccZoYVSv.s:32407  .debug_str:0000000000027128 .LASF2642
C:\Users\CYMR90~1\AppData\Local\Temp\ccZoYVSv.s:27464  .debug_str:0000000000013566 .LASF2643
C:\Users\CYMR90~1\AppData\Local\Temp\ccZoYVSv.s:22710  .debug_str:00000000000004fd .LASF2644
C:\Users\CYMR90~1\AppData\Local\Temp\ccZoYVSv.s:33293  .debug_str:000000000002a87d .LASF2645
C:\Users\CYMR90~1\AppData\Local\Temp\ccZoYVSv.s:28030  .debug_str:000000000001591d .LASF2646
C:\Users\CYMR90~1\AppData\Local\Temp\ccZoYVSv.s:22828  .debug_str:0000000000000c60 .LASF2647
C:\Users\CYMR90~1\AppData\Local\Temp\ccZoYVSv.s:30019  .debug_str:000000000001db97 .LASF2648
C:\Users\CYMR90~1\AppData\Local\Temp\ccZoYVSv.s:30601  .debug_str:000000000001ff34 .LASF2649
C:\Users\CYMR90~1\AppData\Local\Temp\ccZoYVSv.s:31965  .debug_str:0000000000025302 .LASF2650
C:\Users\CYMR90~1\AppData\Local\Temp\ccZoYVSv.s:24012  .debug_str:000000000000578e .LASF2651
C:\Users\CYMR90~1\AppData\Local\Temp\ccZoYVSv.s:23600  .debug_str:0000000000003c8e .LASF2652
C:\Users\CYMR90~1\AppData\Local\Temp\ccZoYVSv.s:27728  .debug_str:0000000000014658 .LASF2653
C:\Users\CYMR90~1\AppData\Local\Temp\ccZoYVSv.s:25680  .debug_str:000000000000c3ed .LASF2654
C:\Users\CYMR90~1\AppData\Local\Temp\ccZoYVSv.s:30489  .debug_str:000000000001f882 .LASF2655
C:\Users\CYMR90~1\AppData\Local\Temp\ccZoYVSv.s:26234  .debug_str:000000000000e715 .LASF2656
C:\Users\CYMR90~1\AppData\Local\Temp\ccZoYVSv.s:31419  .debug_str:00000000000230c4 .LASF2657
C:\Users\CYMR90~1\AppData\Local\Temp\ccZoYVSv.s:33957  .debug_str:000000000002d236 .LASF2658
C:\Users\CYMR90~1\AppData\Local\Temp\ccZoYVSv.s:24126  .debug_str:0000000000005ea0 .LASF2659
C:\Users\CYMR90~1\AppData\Local\Temp\ccZoYVSv.s:29259  .debug_str:000000000001aa51 .LASF2660
C:\Users\CYMR90~1\AppData\Local\Temp\ccZoYVSv.s:25396  .debug_str:000000000000b08d .LASF2661
C:\Users\CYMR90~1\AppData\Local\Temp\ccZoYVSv.s:32109  .debug_str:0000000000025d96 .LASF2662
C:\Users\CYMR90~1\AppData\Local\Temp\ccZoYVSv.s:23392  .debug_str:0000000000002f1c .LASF2663
C:\Users\CYMR90~1\AppData\Local\Temp\ccZoYVSv.s:33839  .debug_str:000000000002ca6c .LASF2664
C:\Users\CYMR90~1\AppData\Local\Temp\ccZoYVSv.s:22988  .debug_str:0000000000001608 .LASF2665
C:\Users\CYMR90~1\AppData\Local\Temp\ccZoYVSv.s:22746  .debug_str:0000000000000712 .LASF2666
C:\Users\CYMR90~1\AppData\Local\Temp\ccZoYVSv.s:31285  .debug_str:0000000000022900 .LASF2667
C:\Users\CYMR90~1\AppData\Local\Temp\ccZoYVSv.s:27624  .debug_str:0000000000013fe8 .LASF2668
C:\Users\CYMR90~1\AppData\Local\Temp\ccZoYVSv.s:27408  .debug_str:00000000000131aa .LASF2669
C:\Users\CYMR90~1\AppData\Local\Temp\ccZoYVSv.s:30293  .debug_str:000000000001ecba .LASF2670
C:\Users\CYMR90~1\AppData\Local\Temp\ccZoYVSv.s:25528  .debug_str:000000000000b97e .LASF2671
C:\Users\CYMR90~1\AppData\Local\Temp\ccZoYVSv.s:24392  .debug_str:0000000000006ef8 .LASF2672
C:\Users\CYMR90~1\AppData\Local\Temp\ccZoYVSv.s:30597  .debug_str:000000000001fee4 .LASF2673
C:\Users\CYMR90~1\AppData\Local\Temp\ccZoYVSv.s:33181  .debug_str:000000000002a1b2 .LASF2674
C:\Users\CYMR90~1\AppData\Local\Temp\ccZoYVSv.s:28565  .debug_str:0000000000017cf0 .LASF2675
C:\Users\CYMR90~1\AppData\Local\Temp\ccZoYVSv.s:29937  .debug_str:000000000001d650 .LASF2676
C:\Users\CYMR90~1\AppData\Local\Temp\ccZoYVSv.s:27788  .debug_str:0000000000014a34 .LASF2677
C:\Users\CYMR90~1\AppData\Local\Temp\ccZoYVSv.s:32137  .debug_str:0000000000025fc5 .LASF2678
C:\Users\CYMR90~1\AppData\Local\Temp\ccZoYVSv.s:29439  .debug_str:000000000001b688 .LASF2679
C:\Users\CYMR90~1\AppData\Local\Temp\ccZoYVSv.s:33557  .debug_str:000000000002b790 .LASF2680
C:\Users\CYMR90~1\AppData\Local\Temp\ccZoYVSv.s:23918  .debug_str:00000000000051be .LASF2681
C:\Users\CYMR90~1\AppData\Local\Temp\ccZoYVSv.s:24554  .debug_str:0000000000007971 .LASF2682
C:\Users\CYMR90~1\AppData\Local\Temp\ccZoYVSv.s:32997  .debug_str:0000000000029702 .LASF2683
C:\Users\CYMR90~1\AppData\Local\Temp\ccZoYVSv.s:28935  .debug_str:000000000001950b .LASF2684
C:\Users\CYMR90~1\AppData\Local\Temp\ccZoYVSv.s:32047  .debug_str:0000000000025874 .LASF2685
C:\Users\CYMR90~1\AppData\Local\Temp\ccZoYVSv.s:25916  .debug_str:000000000000d2b8 .LASF2686
C:\Users\CYMR90~1\AppData\Local\Temp\ccZoYVSv.s:31179  .debug_str:00000000000222cb .LASF2687
C:\Users\CYMR90~1\AppData\Local\Temp\ccZoYVSv.s:31437  .debug_str:00000000000231c9 .LASF2688
C:\Users\CYMR90~1\AppData\Local\Temp\ccZoYVSv.s:27012  .debug_str:000000000001172d .LASF2689
C:\Users\CYMR90~1\AppData\Local\Temp\ccZoYVSv.s:23584  .debug_str:0000000000003bae .LASF2690
C:\Users\CYMR90~1\AppData\Local\Temp\ccZoYVSv.s:28891  .debug_str:000000000001918b .LASF2691
C:\Users\CYMR90~1\AppData\Local\Temp\ccZoYVSv.s:22760  .debug_str:00000000000007f5 .LASF2692
C:\Users\CYMR90~1\AppData\Local\Temp\ccZoYVSv.s:30693  .debug_str:0000000000020519 .LASF2693
C:\Users\CYMR90~1\AppData\Local\Temp\ccZoYVSv.s:32903  .debug_str:0000000000029197 .LASF2694
C:\Users\CYMR90~1\AppData\Local\Temp\ccZoYVSv.s:24694  .debug_str:00000000000083f7 .LASF2695
C:\Users\CYMR90~1\AppData\Local\Temp\ccZoYVSv.s:25326  .debug_str:000000000000abf9 .LASF2696
C:\Users\CYMR90~1\AppData\Local\Temp\ccZoYVSv.s:31175  .debug_str:000000000002228f .LASF2697
C:\Users\CYMR90~1\AppData\Local\Temp\ccZoYVSv.s:22900  .debug_str:0000000000001113 .LASF2698
C:\Users\CYMR90~1\AppData\Local\Temp\ccZoYVSv.s:26160  .debug_str:000000000000e2b9 .LASF2699
C:\Users\CYMR90~1\AppData\Local\Temp\ccZoYVSv.s:29407  .debug_str:000000000001b482 .LASF2700
C:\Users\CYMR90~1\AppData\Local\Temp\ccZoYVSv.s:32659  .debug_str:00000000000280bb .LASF2701
C:\Users\CYMR90~1\AppData\Local\Temp\ccZoYVSv.s:24438  .debug_str:00000000000071e8 .LASF2702
C:\Users\CYMR90~1\AppData\Local\Temp\ccZoYVSv.s:27676  .debug_str:00000000000142eb .LASF2703
C:\Users\CYMR90~1\AppData\Local\Temp\ccZoYVSv.s:24120  .debug_str:0000000000005e50 .LASF2704
C:\Users\CYMR90~1\AppData\Local\Temp\ccZoYVSv.s:28885  .debug_str:000000000001912e .LASF2705
C:\Users\CYMR90~1\AppData\Local\Temp\ccZoYVSv.s:33683  .debug_str:000000000002bff7 .LASF2706
C:\Users\CYMR90~1\AppData\Local\Temp\ccZoYVSv.s:26962  .debug_str:000000000001141f .LASF2707
C:\Users\CYMR90~1\AppData\Local\Temp\ccZoYVSv.s:31715  .debug_str:00000000000242a9 .LASF2708
C:\Users\CYMR90~1\AppData\Local\Temp\ccZoYVSv.s:25026  .debug_str:00000000000098d7 .LASF2709
C:\Users\CYMR90~1\AppData\Local\Temp\ccZoYVSv.s:25412  .debug_str:000000000000b247 .LASF2710
C:\Users\CYMR90~1\AppData\Local\Temp\ccZoYVSv.s:26070  .debug_str:000000000000dd26 .LASF2711
C:\Users\CYMR90~1\AppData\Local\Temp\ccZoYVSv.s:31431  .debug_str:0000000000023163 .LASF2712
C:\Users\CYMR90~1\AppData\Local\Temp\ccZoYVSv.s:28615  .debug_str:0000000000017ff2 .LASF2713
C:\Users\CYMR90~1\AppData\Local\Temp\ccZoYVSv.s:23832  .debug_str:0000000000004c80 .LASF2714
C:\Users\CYMR90~1\AppData\Local\Temp\ccZoYVSv.s:25278  .debug_str:000000000000a814 .LASF2715
C:\Users\CYMR90~1\AppData\Local\Temp\ccZoYVSv.s:30517  .debug_str:000000000001fa1c .LASF2716
C:\Users\CYMR90~1\AppData\Local\Temp\ccZoYVSv.s:24408  .debug_str:000000000000703c .LASF2717
C:\Users\CYMR90~1\AppData\Local\Temp\ccZoYVSv.s:29611  .debug_str:000000000001c0cb .LASF2718
C:\Users\CYMR90~1\AppData\Local\Temp\ccZoYVSv.s:25776  .debug_str:000000000000c9df .LASF2719
C:\Users\CYMR90~1\AppData\Local\Temp\ccZoYVSv.s:25512  .debug_str:000000000000b86f .LASF2720
C:\Users\CYMR90~1\AppData\Local\Temp\ccZoYVSv.s:30763  .debug_str:00000000000208d8 .LASF2721
C:\Users\CYMR90~1\AppData\Local\Temp\ccZoYVSv.s:24650  .debug_str:000000000000804f .LASF2722
C:\Users\CYMR90~1\AppData\Local\Temp\ccZoYVSv.s:29837  .debug_str:000000000001cefe .LASF2723
C:\Users\CYMR90~1\AppData\Local\Temp\ccZoYVSv.s:23696  .debug_str:000000000000432a .LASF2724
C:\Users\CYMR90~1\AppData\Local\Temp\ccZoYVSv.s:31693  .debug_str:000000000002416f .LASF2725
C:\Users\CYMR90~1\AppData\Local\Temp\ccZoYVSv.s:28917  .debug_str:000000000001931b .LASF2726
C:\Users\CYMR90~1\AppData\Local\Temp\ccZoYVSv.s:23168  .debug_str:0000000000002140 .LASF2727
C:\Users\CYMR90~1\AppData\Local\Temp\ccZoYVSv.s:23520  .debug_str:000000000000375f .LASF2728
C:\Users\CYMR90~1\AppData\Local\Temp\ccZoYVSv.s:32177  .debug_str:00000000000262d3 .LASF2729
C:\Users\CYMR90~1\AppData\Local\Temp\ccZoYVSv.s:29469  .debug_str:000000000001b86e .LASF2730
C:\Users\CYMR90~1\AppData\Local\Temp\ccZoYVSv.s:28603  .debug_str:0000000000017f54 .LASF2731
C:\Users\CYMR90~1\AppData\Local\Temp\ccZoYVSv.s:33867  .debug_str:000000000002cc63 .LASF2732
C:\Users\CYMR90~1\AppData\Local\Temp\ccZoYVSv.s:27674  .debug_str:00000000000142d1 .LASF2733
C:\Users\CYMR90~1\AppData\Local\Temp\ccZoYVSv.s:33021  .debug_str:0000000000029856 .LASF2734
C:\Users\CYMR90~1\AppData\Local\Temp\ccZoYVSv.s:26764  .debug_str:00000000000107cd .LASF2735
C:\Users\CYMR90~1\AppData\Local\Temp\ccZoYVSv.s:29365  .debug_str:000000000001b17a .LASF2736
C:\Users\CYMR90~1\AppData\Local\Temp\ccZoYVSv.s:23200  .debug_str:00000000000022f5 .LASF2737
C:\Users\CYMR90~1\AppData\Local\Temp\ccZoYVSv.s:28397  .debug_str:00000000000172c4 .LASF2738
C:\Users\CYMR90~1\AppData\Local\Temp\ccZoYVSv.s:27708  .debug_str:0000000000014530 .LASF2739
C:\Users\CYMR90~1\AppData\Local\Temp\ccZoYVSv.s:27476  .debug_str:0000000000013662 .LASF2740
C:\Users\CYMR90~1\AppData\Local\Temp\ccZoYVSv.s:26366  .debug_str:000000000000ef95 .LASF2741
C:\Users\CYMR90~1\AppData\Local\Temp\ccZoYVSv.s:33559  .debug_str:000000000002b7a8 .LASF2742
C:\Users\CYMR90~1\AppData\Local\Temp\ccZoYVSv.s:25346  .debug_str:000000000000ad30 .LASF2743
C:\Users\CYMR90~1\AppData\Local\Temp\ccZoYVSv.s:28563  .debug_str:0000000000017cd7 .LASF2744
C:\Users\CYMR90~1\AppData\Local\Temp\ccZoYVSv.s:31839  .debug_str:0000000000024acb .LASF2745
C:\Users\CYMR90~1\AppData\Local\Temp\ccZoYVSv.s:23622  .debug_str:0000000000003e18 .LASF2746
C:\Users\CYMR90~1\AppData\Local\Temp\ccZoYVSv.s:26894  .debug_str:0000000000011058 .LASF2747
C:\Users\CYMR90~1\AppData\Local\Temp\ccZoYVSv.s:30093  .debug_str:000000000001e00c .LASF2748
C:\Users\CYMR90~1\AppData\Local\Temp\ccZoYVSv.s:33313  .debug_str:000000000002a996 .LASF2749
C:\Users\CYMR90~1\AppData\Local\Temp\ccZoYVSv.s:25108  .debug_str:0000000000009e13 .LASF2750
C:\Users\CYMR90~1\AppData\Local\Temp\ccZoYVSv.s:28318  .debug_str:0000000000016b3a .LASF2751
C:\Users\CYMR90~1\AppData\Local\Temp\ccZoYVSv.s:30333  .debug_str:000000000001ef4a .LASF2752
C:\Users\CYMR90~1\AppData\Local\Temp\ccZoYVSv.s:23676  .debug_str:0000000000004152 .LASF2753
C:\Users\CYMR90~1\AppData\Local\Temp\ccZoYVSv.s:28435  .debug_str:00000000000174d5 .LASF2754
C:\Users\CYMR90~1\AppData\Local\Temp\ccZoYVSv.s:27522  .debug_str:00000000000139bc .LASF2755
C:\Users\CYMR90~1\AppData\Local\Temp\ccZoYVSv.s:26538  .debug_str:000000000000f9a1 .LASF2756
C:\Users\CYMR90~1\AppData\Local\Temp\ccZoYVSv.s:31263  .debug_str:00000000000227c7 .LASF2757
C:\Users\CYMR90~1\AppData\Local\Temp\ccZoYVSv.s:24568  .debug_str:0000000000007a68 .LASF2758
C:\Users\CYMR90~1\AppData\Local\Temp\ccZoYVSv.s:27802  .debug_str:0000000000014b0f .LASF2759
C:\Users\CYMR90~1\AppData\Local\Temp\ccZoYVSv.s:30965  .debug_str:0000000000021541 .LASF2760
C:\Users\CYMR90~1\AppData\Local\Temp\ccZoYVSv.s:22794  .debug_str:00000000000009f4 .LASF2761
C:\Users\CYMR90~1\AppData\Local\Temp\ccZoYVSv.s:26050  .debug_str:000000000000db98 .LASF2762
C:\Users\CYMR90~1\AppData\Local\Temp\ccZoYVSv.s:29293  .debug_str:000000000001acee .LASF2763
C:\Users\CYMR90~1\AppData\Local\Temp\ccZoYVSv.s:32545  .debug_str:000000000002794b .LASF2764
C:\Users\CYMR90~1\AppData\Local\Temp\ccZoYVSv.s:24324  .debug_str:0000000000006abc .LASF2765
C:\Users\CYMR90~1\AppData\Local\Temp\ccZoYVSv.s:27578  .debug_str:0000000000013d0a .LASF2766
C:\Users\CYMR90~1\AppData\Local\Temp\ccZoYVSv.s:30811  .debug_str:0000000000020c35 .LASF2767
C:\Users\CYMR90~1\AppData\Local\Temp\ccZoYVSv.s:28102  .debug_str:0000000000015d54 .LASF2768
C:\Users\CYMR90~1\AppData\Local\Temp\ccZoYVSv.s:32917  .debug_str:000000000002923e .LASF2769
C:\Users\CYMR90~1\AppData\Local\Temp\ccZoYVSv.s:28487  .debug_str:00000000000177fe .LASF2770
C:\Users\CYMR90~1\AppData\Local\Temp\ccZoYVSv.s:24262  .debug_str:00000000000066d5 .LASF2771
C:\Users\CYMR90~1\AppData\Local\Temp\ccZoYVSv.s:29025  .debug_str:0000000000019a69 .LASF2772
C:\Users\CYMR90~1\AppData\Local\Temp\ccZoYVSv.s:27534  .debug_str:0000000000013a7f .LASF2773
C:\Users\CYMR90~1\AppData\Local\Temp\ccZoYVSv.s:30751  .debug_str:000000000002083c .LASF2774
C:\Users\CYMR90~1\AppData\Local\Temp\ccZoYVSv.s:34049  .debug_str:000000000002d7f1 .LASF2775
C:\Users\CYMR90~1\AppData\Local\Temp\ccZoYVSv.s:29701  .debug_str:000000000001c664 .LASF2776
C:\Users\CYMR90~1\AppData\Local\Temp\ccZoYVSv.s:31823  .debug_str:00000000000249af .LASF2777
C:\Users\CYMR90~1\AppData\Local\Temp\ccZoYVSv.s:32249  .debug_str:000000000002671c .LASF2778
C:\Users\CYMR90~1\AppData\Local\Temp\ccZoYVSv.s:26058  .debug_str:000000000000dc5d .LASF2779
C:\Users\CYMR90~1\AppData\Local\Temp\ccZoYVSv.s:27302  .debug_str:0000000000012aa1 .LASF2780
C:\Users\CYMR90~1\AppData\Local\Temp\ccZoYVSv.s:30491  .debug_str:000000000001f8a7 .LASF2781
C:\Users\CYMR90~1\AppData\Local\Temp\ccZoYVSv.s:33817  .debug_str:000000000002c906 .LASF2782
C:\Users\CYMR90~1\AppData\Local\Temp\ccZoYVSv.s:31265  .debug_str:00000000000227e2 .LASF2783
C:\Users\CYMR90~1\AppData\Local\Temp\ccZoYVSv.s:33287  .debug_str:000000000002a81a .LASF2784
C:\Users\CYMR90~1\AppData\Local\Temp\ccZoYVSv.s:23596  .debug_str:0000000000003c55 .LASF2785
C:\Users\CYMR90~1\AppData\Local\Temp\ccZoYVSv.s:28342  .debug_str:0000000000016d12 .LASF2786
C:\Users\CYMR90~1\AppData\Local\Temp\ccZoYVSv.s:33149  .debug_str:000000000002a006 .LASF2787
C:\Users\CYMR90~1\AppData\Local\Temp\ccZoYVSv.s:26452  .debug_str:000000000000f453 .LASF2788
C:\Users\CYMR90~1\AppData\Local\Temp\ccZoYVSv.s:28308  .debug_str:0000000000016ab5 .LASF2789
C:\Users\CYMR90~1\AppData\Local\Temp\ccZoYVSv.s:33117  .debug_str:0000000000029dfa .LASF2790
C:\Users\CYMR90~1\AppData\Local\Temp\ccZoYVSv.s:26422  .debug_str:000000000000f2a8 .LASF2791
C:\Users\CYMR90~1\AppData\Local\Temp\ccZoYVSv.s:31151  .debug_str:00000000000220eb .LASF2792
C:\Users\CYMR90~1\AppData\Local\Temp\ccZoYVSv.s:27588  .debug_str:0000000000013d9b .LASF2793
C:\Users\CYMR90~1\AppData\Local\Temp\ccZoYVSv.s:23110  .debug_str:0000000000001dda .LASF2794
C:\Users\CYMR90~1\AppData\Local\Temp\ccZoYVSv.s:27836  .debug_str:0000000000014cfa .LASF2795
C:\Users\CYMR90~1\AppData\Local\Temp\ccZoYVSv.s:27642  .debug_str:00000000000140e0 .LASF2796
C:\Users\CYMR90~1\AppData\Local\Temp\ccZoYVSv.s:25954  .debug_str:000000000000d584 .LASF2797
C:\Users\CYMR90~1\AppData\Local\Temp\ccZoYVSv.s:30653  .debug_str:0000000000020251 .LASF2798
C:\Users\CYMR90~1\AppData\Local\Temp\ccZoYVSv.s:29449  .debug_str:000000000001b73e .LASF2799
C:\Users\CYMR90~1\AppData\Local\Temp\ccZoYVSv.s:30275  .debug_str:000000000001eb78 .LASF2800
C:\Users\CYMR90~1\AppData\Local\Temp\ccZoYVSv.s:23612  .debug_str:0000000000003d4d .LASF2801
C:\Users\CYMR90~1\AppData\Local\Temp\ccZoYVSv.s:28358  .debug_str:0000000000016e9d .LASF2802
C:\Users\CYMR90~1\AppData\Local\Temp\ccZoYVSv.s:24944  .debug_str:00000000000093cc .LASF2803
C:\Users\CYMR90~1\AppData\Local\Temp\ccZoYVSv.s:31793  .debug_str:00000000000246ff .LASF2804
C:\Users\CYMR90~1\AppData\Local\Temp\ccZoYVSv.s:23122  .debug_str:0000000000001e8d .LASF2805
C:\Users\CYMR90~1\AppData\Local\Temp\ccZoYVSv.s:26390  .debug_str:000000000000f0d4 .LASF2806
C:\Users\CYMR90~1\AppData\Local\Temp\ccZoYVSv.s:32597  .debug_str:0000000000027d4f .LASF2807
C:\Users\CYMR90~1\AppData\Local\Temp\ccZoYVSv.s:32891  .debug_str:00000000000290f4 .LASF2808
C:\Users\CYMR90~1\AppData\Local\Temp\ccZoYVSv.s:24576  .debug_str:0000000000007ad7 .LASF2809
C:\Users\CYMR90~1\AppData\Local\Temp\ccZoYVSv.s:27808  .debug_str:0000000000014b56 .LASF2810
C:\Users\CYMR90~1\AppData\Local\Temp\ccZoYVSv.s:25118  .debug_str:0000000000009e8f .LASF2811
C:\Users\CYMR90~1\AppData\Local\Temp\ccZoYVSv.s:22884  .debug_str:000000000000103f .LASF2812
C:\Users\CYMR90~1\AppData\Local\Temp\ccZoYVSv.s:26142  .debug_str:000000000000e1a3 .LASF2813
C:\Users\CYMR90~1\AppData\Local\Temp\ccZoYVSv.s:24672  .debug_str:00000000000081d9 .LASF2814
C:\Users\CYMR90~1\AppData\Local\Temp\ccZoYVSv.s:28661  .debug_str:00000000000182d2 .LASF2815
C:\Users\CYMR90~1\AppData\Local\Temp\ccZoYVSv.s:33469  .debug_str:000000000002b2a3 .LASF2816
C:\Users\CYMR90~1\AppData\Local\Temp\ccZoYVSv.s:26762  .debug_str:00000000000107b6 .LASF2817
C:\Users\CYMR90~1\AppData\Local\Temp\ccZoYVSv.s:31517  .debug_str:00000000000236d6 .LASF2818
C:\Users\CYMR90~1\AppData\Local\Temp\ccZoYVSv.s:32143  .debug_str:000000000002602c .LASF2819
C:\Users\CYMR90~1\AppData\Local\Temp\ccZoYVSv.s:29563  .debug_str:000000000001bdf0 .LASF2820
C:\Users\CYMR90~1\AppData\Local\Temp\ccZoYVSv.s:26948  .debug_str:0000000000011341 .LASF2821
C:\Users\CYMR90~1\AppData\Local\Temp\ccZoYVSv.s:33335  .debug_str:000000000002aab0 .LASF2822
C:\Users\CYMR90~1\AppData\Local\Temp\ccZoYVSv.s:24352  .debug_str:0000000000006c6b .LASF2823
C:\Users\CYMR90~1\AppData\Local\Temp\ccZoYVSv.s:24768  .debug_str:000000000000886f .LASF2824
C:\Users\CYMR90~1\AppData\Local\Temp\ccZoYVSv.s:25750  .debug_str:000000000000c869 .LASF2825
C:\Users\CYMR90~1\AppData\Local\Temp\ccZoYVSv.s:23206  .debug_str:0000000000002340 .LASF2826
C:\Users\CYMR90~1\AppData\Local\Temp\ccZoYVSv.s:23530  .debug_str:0000000000003812 .LASF2827
C:\Users\CYMR90~1\AppData\Local\Temp\ccZoYVSv.s:28503  .debug_str:00000000000178d8 .LASF2828
C:\Users\CYMR90~1\AppData\Local\Temp\ccZoYVSv.s:23892  .debug_str:0000000000005044 .LASF2829
C:\Users\CYMR90~1\AppData\Local\Temp\ccZoYVSv.s:27296  .debug_str:0000000000012a3e .LASF2830
C:\Users\CYMR90~1\AppData\Local\Temp\ccZoYVSv.s:23940  .debug_str:0000000000005313 .LASF2831
C:\Users\CYMR90~1\AppData\Local\Temp\ccZoYVSv.s:30821  .debug_str:0000000000020cb7 .LASF2832
C:\Users\CYMR90~1\AppData\Local\Temp\ccZoYVSv.s:27574  .debug_str:0000000000013cce .LASF2833
C:\Users\CYMR90~1\AppData\Local\Temp\ccZoYVSv.s:26356  .debug_str:000000000000eef9 .LASF2834
C:\Users\CYMR90~1\AppData\Local\Temp\ccZoYVSv.s:25400  .debug_str:000000000000b0e2 .LASF2835
C:\Users\CYMR90~1\AppData\Local\Temp\ccZoYVSv.s:22948  .debug_str:00000000000013c2 .LASF2836
C:\Users\CYMR90~1\AppData\Local\Temp\ccZoYVSv.s:25788  .debug_str:000000000000caac .LASF2837
C:\Users\CYMR90~1\AppData\Local\Temp\ccZoYVSv.s:27582  .debug_str:0000000000013d45 .LASF2838
C:\Users\CYMR90~1\AppData\Local\Temp\ccZoYVSv.s:30817  .debug_str:0000000000020c88 .LASF2839
C:\Users\CYMR90~1\AppData\Local\Temp\ccZoYVSv.s:22664  .debug_str:0000000000000233 .LASF2840
C:\Users\CYMR90~1\AppData\Local\Temp\ccZoYVSv.s:25914  .debug_str:000000000000d2a5 .LASF2841
C:\Users\CYMR90~1\AppData\Local\Temp\ccZoYVSv.s:29131  .debug_str:000000000001a1cb .LASF2842
C:\Users\CYMR90~1\AppData\Local\Temp\ccZoYVSv.s:22860  .debug_str:0000000000000e63 .LASF2843
C:\Users\CYMR90~1\AppData\Local\Temp\ccZoYVSv.s:32665  .debug_str:0000000000028113 .LASF2844
C:\Users\CYMR90~1\AppData\Local\Temp\ccZoYVSv.s:30995  .debug_str:0000000000021717 .LASF2845
C:\Users\CYMR90~1\AppData\Local\Temp\ccZoYVSv.s:29373  .debug_str:000000000001b1fe .LASF2846
C:\Users\CYMR90~1\AppData\Local\Temp\ccZoYVSv.s:33875  .debug_str:000000000002cce6 .LASF2847
C:\Users\CYMR90~1\AppData\Local\Temp\ccZoYVSv.s:22982  .debug_str:00000000000015d2 .LASF2848
C:\Users\CYMR90~1\AppData\Local\Temp\ccZoYVSv.s:27718  .debug_str:00000000000145d1 .LASF2849
C:\Users\CYMR90~1\AppData\Local\Temp\ccZoYVSv.s:32513  .debug_str:0000000000027777 .LASF2850
C:\Users\CYMR90~1\AppData\Local\Temp\ccZoYVSv.s:33551  .debug_str:000000000002b72e .LASF2851
C:\Users\CYMR90~1\AppData\Local\Temp\ccZoYVSv.s:29705  .debug_str:000000000001c692 .LASF2852
C:\Users\CYMR90~1\AppData\Local\Temp\ccZoYVSv.s:25962  .debug_str:000000000000d5dc .LASF2853
C:\Users\CYMR90~1\AppData\Local\Temp\ccZoYVSv.s:31301  .debug_str:00000000000229d3 .LASF2854
C:\Users\CYMR90~1\AppData\Local\Temp\ccZoYVSv.s:23102  .debug_str:0000000000001d66 .LASF2855
C:\Users\CYMR90~1\AppData\Local\Temp\ccZoYVSv.s:26372  .debug_str:000000000000efe4 .LASF2856
C:\Users\CYMR90~1\AppData\Local\Temp\ccZoYVSv.s:29587  .debug_str:000000000001bf27 .LASF2857
C:\Users\CYMR90~1\AppData\Local\Temp\ccZoYVSv.s:32781  .debug_str:000000000002891b .LASF2858
C:\Users\CYMR90~1\AppData\Local\Temp\ccZoYVSv.s:26294  .debug_str:000000000000eb20 .LASF2859
C:\Users\CYMR90~1\AppData\Local\Temp\ccZoYVSv.s:27796  .debug_str:0000000000014abf .LASF2860
C:\Users\CYMR90~1\AppData\Local\Temp\ccZoYVSv.s:27830  .debug_str:0000000000014cb5 .LASF2861
C:\Users\CYMR90~1\AppData\Local\Temp\ccZoYVSv.s:22876  .debug_str:0000000000000fe0 .LASF2862
C:\Users\CYMR90~1\AppData\Local\Temp\ccZoYVSv.s:23026  .debug_str:00000000000018e0 .LASF2863
C:\Users\CYMR90~1\AppData\Local\Temp\ccZoYVSv.s:28366  .debug_str:0000000000016f17 .LASF2864
C:\Users\CYMR90~1\AppData\Local\Temp\ccZoYVSv.s:31299  .debug_str:00000000000229be .LASF2865
C:\Users\CYMR90~1\AppData\Local\Temp\ccZoYVSv.s:26474  .debug_str:000000000000f5cd .LASF2866
C:\Users\CYMR90~1\AppData\Local\Temp\ccZoYVSv.s:31199  .debug_str:0000000000022427 .LASF2867
C:\Users\CYMR90~1\AppData\Local\Temp\ccZoYVSv.s:31369  .debug_str:0000000000022da7 .LASF2868
C:\Users\CYMR90~1\AppData\Local\Temp\ccZoYVSv.s:29285  .debug_str:000000000001ac88 .LASF2869
C:\Users\CYMR90~1\AppData\Local\Temp\ccZoYVSv.s:28533  .debug_str:0000000000017ab4 .LASF2870
C:\Users\CYMR90~1\AppData\Local\Temp\ccZoYVSv.s:26238  .debug_str:000000000000e754 .LASF2871
C:\Users\CYMR90~1\AppData\Local\Temp\ccZoYVSv.s:27420  .debug_str:0000000000013270 .LASF2872
C:\Users\CYMR90~1\AppData\Local\Temp\ccZoYVSv.s:27380  .debug_str:0000000000012fe1 .LASF2873
C:\Users\CYMR90~1\AppData\Local\Temp\ccZoYVSv.s:23440  .debug_str:0000000000003241 .LASF2874
C:\Users\CYMR90~1\AppData\Local\Temp\ccZoYVSv.s:23316  .debug_str:0000000000002a45 .LASF2875
C:\Users\CYMR90~1\AppData\Local\Temp\ccZoYVSv.s:30951  .debug_str:0000000000021487 .LASF2876
C:\Users\CYMR90~1\AppData\Local\Temp\ccZoYVSv.s:31969  .debug_str:0000000000025353 .LASF2877
C:\Users\CYMR90~1\AppData\Local\Temp\ccZoYVSv.s:31647  .debug_str:0000000000023e7d .LASF2878
C:\Users\CYMR90~1\AppData\Local\Temp\ccZoYVSv.s:25468  .debug_str:000000000000b57e .LASF2879
C:\Users\CYMR90~1\AppData\Local\Temp\ccZoYVSv.s:28663  .debug_str:00000000000182e9 .LASF2880
C:\Users\CYMR90~1\AppData\Local\Temp\ccZoYVSv.s:31947  .debug_str:00000000000251e0 .LASF2881
C:\Users\CYMR90~1\AppData\Local\Temp\ccZoYVSv.s:23726  .debug_str:00000000000044e8 .LASF2882
C:\Users\CYMR90~1\AppData\Local\Temp\ccZoYVSv.s:26918  .debug_str:0000000000011192 .LASF2883
C:\Users\CYMR90~1\AppData\Local\Temp\ccZoYVSv.s:30113  .debug_str:000000000001e13e .LASF2884
C:\Users\CYMR90~1\AppData\Local\Temp\ccZoYVSv.s:33977  .debug_str:000000000002d356 .LASF2885
C:\Users\CYMR90~1\AppData\Local\Temp\ccZoYVSv.s:25220  .debug_str:000000000000a4f2 .LASF2886
C:\Users\CYMR90~1\AppData\Local\Temp\ccZoYVSv.s:28441  .debug_str:0000000000017532 .LASF2887
C:\Users\CYMR90~1\AppData\Local\Temp\ccZoYVSv.s:31711  .debug_str:0000000000024277 .LASF2888
C:\Users\CYMR90~1\AppData\Local\Temp\ccZoYVSv.s:29841  .debug_str:000000000001cf34 .LASF2889
C:\Users\CYMR90~1\AppData\Local\Temp\ccZoYVSv.s:23166  .debug_str:000000000000212c .LASF2890
C:\Users\CYMR90~1\AppData\Local\Temp\ccZoYVSv.s:27896  .debug_str:00000000000150f5 .LASF2891
C:\Users\CYMR90~1\AppData\Local\Temp\ccZoYVSv.s:32699  .debug_str:000000000002837f .LASF2892
C:\Users\CYMR90~1\AppData\Local\Temp\ccZoYVSv.s:26010  .debug_str:000000000000d97f .LASF2893
C:\Users\CYMR90~1\AppData\Local\Temp\ccZoYVSv.s:30719  .debug_str:00000000000206ad .LASF2894
C:\Users\CYMR90~1\AppData\Local\Temp\ccZoYVSv.s:33375  .debug_str:000000000002ad51 .LASF2895
C:\Users\CYMR90~1\AppData\Local\Temp\ccZoYVSv.s:33585  .debug_str:000000000002b971 .LASF2896
C:\Users\CYMR90~1\AppData\Local\Temp\ccZoYVSv.s:29321  .debug_str:000000000001ae87 .LASF2897
C:\Users\CYMR90~1\AppData\Local\Temp\ccZoYVSv.s:24472  .debug_str:000000000000744a .LASF2898
C:\Users\CYMR90~1\AppData\Local\Temp\ccZoYVSv.s:24776  .debug_str:00000000000088e7 .LASF2899
C:\Users\CYMR90~1\AppData\Local\Temp\ccZoYVSv.s:28725  .debug_str:000000000001868b .LASF2900
C:\Users\CYMR90~1\AppData\Local\Temp\ccZoYVSv.s:33687  .debug_str:000000000002c024 .LASF2901
C:\Users\CYMR90~1\AppData\Local\Temp\ccZoYVSv.s:27162  .debug_str:0000000000012187 .LASF2902
C:\Users\CYMR90~1\AppData\Local\Temp\ccZoYVSv.s:27988  .debug_str:00000000000156b5 .LASF2903
C:\Users\CYMR90~1\AppData\Local\Temp\ccZoYVSv.s:24174  .debug_str:000000000000613e .LASF2904
C:\Users\CYMR90~1\AppData\Local\Temp\ccZoYVSv.s:30981  .debug_str:000000000002162d .LASF2905
C:\Users\CYMR90~1\AppData\Local\Temp\ccZoYVSv.s:32395  .debug_str:000000000002706a .LASF2906
C:\Users\CYMR90~1\AppData\Local\Temp\ccZoYVSv.s:33789  .debug_str:000000000002c71f .LASF2907
C:\Users\CYMR90~1\AppData\Local\Temp\ccZoYVSv.s:23686  .debug_str:0000000000004284 .LASF2908
C:\Users\CYMR90~1\AppData\Local\Temp\ccZoYVSv.s:27430  .debug_str:0000000000013316 .LASF2909
C:\Users\CYMR90~1\AppData\Local\Temp\ccZoYVSv.s:32895  .debug_str:0000000000029126 .LASF2910
C:\Users\CYMR90~1\AppData\Local\Temp\ccZoYVSv.s:30785  .debug_str:0000000000020a32 .LASF2911
C:\Users\CYMR90~1\AppData\Local\Temp\ccZoYVSv.s:29663  .debug_str:000000000001c3c7 .LASF2912
C:\Users\CYMR90~1\AppData\Local\Temp\ccZoYVSv.s:29229  .debug_str:000000000001a8d8 .LASF2913
C:\Users\CYMR90~1\AppData\Local\Temp\ccZoYVSv.s:29151  .debug_str:000000000001a2c1 .LASF2914
C:\Users\CYMR90~1\AppData\Local\Temp\ccZoYVSv.s:31413  .debug_str:0000000000023050 .LASF2915
C:\Users\CYMR90~1\AppData\Local\Temp\ccZoYVSv.s:29657  .debug_str:000000000001c374 .LASF2916
C:\Users\CYMR90~1\AppData\Local\Temp\ccZoYVSv.s:28787  .debug_str:0000000000018a78 .LASF2917
C:\Users\CYMR90~1\AppData\Local\Temp\ccZoYVSv.s:30193  .debug_str:000000000001e6dd .LASF2918
C:\Users\CYMR90~1\AppData\Local\Temp\ccZoYVSv.s:26966  .debug_str:000000000001145d .LASF2919
C:\Users\CYMR90~1\AppData\Local\Temp\ccZoYVSv.s:26094  .debug_str:000000000000de6f .LASF2920
C:\Users\CYMR90~1\AppData\Local\Temp\ccZoYVSv.s:25214  .debug_str:000000000000a48f .LASF2921
C:\Users\CYMR90~1\AppData\Local\Temp\ccZoYVSv.s:24310  .debug_str:00000000000069ea .LASF2922
C:\Users\CYMR90~1\AppData\Local\Temp\ccZoYVSv.s:23444  .debug_str:0000000000003277 .LASF2923
C:\Users\CYMR90~1\AppData\Local\Temp\ccZoYVSv.s:34023  .debug_str:000000000002d659 .LASF2924
C:\Users\CYMR90~1\AppData\Local\Temp\ccZoYVSv.s:28248  .debug_str:00000000000166fd .LASF2925
C:\Users\CYMR90~1\AppData\Local\Temp\ccZoYVSv.s:31877  .debug_str:0000000000024d22 .LASF2926
C:\Users\CYMR90~1\AppData\Local\Temp\ccZoYVSv.s:23650  .debug_str:0000000000003ff9 .LASF2927
C:\Users\CYMR90~1\AppData\Local\Temp\ccZoYVSv.s:26934  .debug_str:0000000000011274 .LASF2928
C:\Users\CYMR90~1\AppData\Local\Temp\ccZoYVSv.s:30131  .debug_str:000000000001e2e8 .LASF2929
C:\Users\CYMR90~1\AppData\Local\Temp\ccZoYVSv.s:25144  .debug_str:000000000000a007 .LASF2930
C:\Users\CYMR90~1\AppData\Local\Temp\ccZoYVSv.s:25232  .debug_str:000000000000a5a9 .LASF2931
C:\Users\CYMR90~1\AppData\Local\Temp\ccZoYVSv.s:31497  .debug_str:00000000000235bc .LASF2932
C:\Users\CYMR90~1\AppData\Local\Temp\ccZoYVSv.s:33979  .debug_str:000000000002d368 .LASF2933
C:\Users\CYMR90~1\AppData\Local\Temp\ccZoYVSv.s:31951  .debug_str:0000000000025218 .LASF2934
C:\Users\CYMR90~1\AppData\Local\Temp\ccZoYVSv.s:28044  .debug_str:00000000000159f7 .LASF2935
C:\Users\CYMR90~1\AppData\Local\Temp\ccZoYVSv.s:30765  .debug_str:00000000000208f5 .LASF2936
C:\Users\CYMR90~1\AppData\Local\Temp\ccZoYVSv.s:29253  .debug_str:000000000001aa05 .LASF2937
C:\Users\CYMR90~1\AppData\Local\Temp\ccZoYVSv.s:29289  .debug_str:000000000001acb6 .LASF2938
C:\Users\CYMR90~1\AppData\Local\Temp\ccZoYVSv.s:29327  .debug_str:000000000001af12 .LASF2939
C:\Users\CYMR90~1\AppData\Local\Temp\ccZoYVSv.s:28274  .debug_str:0000000000016833 .LASF2940
C:\Users\CYMR90~1\AppData\Local\Temp\ccZoYVSv.s:27284  .debug_str:000000000001296f .LASF2941
C:\Users\CYMR90~1\AppData\Local\Temp\ccZoYVSv.s:27668  .debug_str:0000000000014284 .LASF2942
C:\Users\CYMR90~1\AppData\Local\Temp\ccZoYVSv.s:32305  .debug_str:0000000000026a96 .LASF2943
C:\Users\CYMR90~1\AppData\Local\Temp\ccZoYVSv.s:29495  .debug_str:000000000001b9fb .LASF2944
C:\Users\CYMR90~1\AppData\Local\Temp\ccZoYVSv.s:24158  .debug_str:000000000000604f .LASF2945
C:\Users\CYMR90~1\AppData\Local\Temp\ccZoYVSv.s:26092  .debug_str:000000000000de4d .LASF2946
C:\Users\CYMR90~1\AppData\Local\Temp\ccZoYVSv.s:31109  .debug_str:0000000000021e7c .LASF2947
C:\Users\CYMR90~1\AppData\Local\Temp\ccZoYVSv.s:32675  .debug_str:00000000000281c6 .LASF2948
C:\Users\CYMR90~1\AppData\Local\Temp\ccZoYVSv.s:25660  .debug_str:000000000000c2a7 .LASF2949
C:\Users\CYMR90~1\AppData\Local\Temp\ccZoYVSv.s:26220  .debug_str:000000000000e657 .LASF2950
C:\Users\CYMR90~1\AppData\Local\Temp\ccZoYVSv.s:30237  .debug_str:000000000001e961 .LASF2951
C:\Users\CYMR90~1\AppData\Local\Temp\ccZoYVSv.s:23916  .debug_str:00000000000051a8 .LASF2952
C:\Users\CYMR90~1\AppData\Local\Temp\ccZoYVSv.s:33545  .debug_str:000000000002b6e9 .LASF2953
C:\Users\CYMR90~1\AppData\Local\Temp\ccZoYVSv.s:30591  .debug_str:000000000001fe9a .LASF2954
C:\Users\CYMR90~1\AppData\Local\Temp\ccZoYVSv.s:32547  .debug_str:0000000000027962 .LASF2955
C:\Users\CYMR90~1\AppData\Local\Temp\ccZoYVSv.s:33401  .debug_str:000000000002aed3 .LASF2956
C:\Users\CYMR90~1\AppData\Local\Temp\ccZoYVSv.s:34053  .debug_str:000000000002d825 .LASF2957
C:\Users\CYMR90~1\AppData\Local\Temp\ccZoYVSv.s:23414  .debug_str:000000000000308d .LASF2958
C:\Users\CYMR90~1\AppData\Local\Temp\ccZoYVSv.s:23146  .debug_str:000000000000201f .LASF2959
C:\Users\CYMR90~1\AppData\Local\Temp\ccZoYVSv.s:30265  .debug_str:000000000001eb0c .LASF2960
C:\Users\CYMR90~1\AppData\Local\Temp\ccZoYVSv.s:23390  .debug_str:0000000000002f05 .LASF2961
C:\Users\CYMR90~1\AppData\Local\Temp\ccZoYVSv.s:27572  .debug_str:0000000000013cb8 .LASF2962
C:\Users\CYMR90~1\AppData\Local\Temp\ccZoYVSv.s:33835  .debug_str:000000000002c9f7 .LASF2963
C:\Users\CYMR90~1\AppData\Local\Temp\ccZoYVSv.s:32449  .debug_str:00000000000273a3 .LASF2964
C:\Users\CYMR90~1\AppData\Local\Temp\ccZoYVSv.s:24144  .debug_str:0000000000005f8a .LASF2965
C:\Users\CYMR90~1\AppData\Local\Temp\ccZoYVSv.s:32653  .debug_str:0000000000028059 .LASF2966
C:\Users\CYMR90~1\AppData\Local\Temp\ccZoYVSv.s:29827  .debug_str:000000000001ce73 .LASF2967
C:\Users\CYMR90~1\AppData\Local\Temp\ccZoYVSv.s:30837  .debug_str:0000000000020dc9 .LASF2968
C:\Users\CYMR90~1\AppData\Local\Temp\ccZoYVSv.s:26592  .debug_str:000000000000fd57 .LASF2969
C:\Users\CYMR90~1\AppData\Local\Temp\ccZoYVSv.s:25730  .debug_str:000000000000c70e .LASF2970
C:\Users\CYMR90~1\AppData\Local\Temp\ccZoYVSv.s:29551  .debug_str:000000000001bd6c .LASF2971
C:\Users\CYMR90~1\AppData\Local\Temp\ccZoYVSv.s:32851  .debug_str:0000000000028e28 .LASF2972
C:\Users\CYMR90~1\AppData\Local\Temp\ccZoYVSv.s:31257  .debug_str:0000000000022752 .LASF2973
C:\Users\CYMR90~1\AppData\Local\Temp\ccZoYVSv.s:32201  .debug_str:000000000002643b .LASF2974
C:\Users\CYMR90~1\AppData\Local\Temp\ccZoYVSv.s:23738  .debug_str:00000000000045aa .LASF2975
C:\Users\CYMR90~1\AppData\Local\Temp\ccZoYVSv.s:28627  .debug_str:0000000000018096 .LASF2976
C:\Users\CYMR90~1\AppData\Local\Temp\ccZoYVSv.s:31165  .debug_str:0000000000022202 .LASF2977
C:\Users\CYMR90~1\AppData\Local\Temp\ccZoYVSv.s:24630  .debug_str:0000000000007e7c .LASF2978
C:\Users\CYMR90~1\AppData\Local\Temp\ccZoYVSv.s:30007  .debug_str:000000000001da75 .LASF2979
C:\Users\CYMR90~1\AppData\Local\Temp\ccZoYVSv.s:26034  .debug_str:000000000000dac9 .LASF2980
C:\Users\CYMR90~1\AppData\Local\Temp\ccZoYVSv.s:33609  .debug_str:000000000002bb14 .LASF2981
C:\Users\CYMR90~1\AppData\Local\Temp\ccZoYVSv.s:28657  .debug_str:0000000000018280 .LASF2982
C:\Users\CYMR90~1\AppData\Local\Temp\ccZoYVSv.s:23610  .debug_str:0000000000003d2a .LASF2983
C:\Users\CYMR90~1\AppData\Local\Temp\ccZoYVSv.s:28887  .debug_str:0000000000019146 .LASF2984
C:\Users\CYMR90~1\AppData\Local\Temp\ccZoYVSv.s:22656  .debug_str:00000000000001a1 .LASF2985
C:\Users\CYMR90~1\AppData\Local\Temp\ccZoYVSv.s:26414  .debug_str:000000000000f211 .LASF2986
C:\Users\CYMR90~1\AppData\Local\Temp\ccZoYVSv.s:27878  .debug_str:0000000000014f9e .LASF2987
C:\Users\CYMR90~1\AppData\Local\Temp\ccZoYVSv.s:27782  .debug_str:00000000000149ba .LASF2988
C:\Users\CYMR90~1\AppData\Local\Temp\ccZoYVSv.s:26440  .debug_str:000000000000f395 .LASF2989
C:\Users\CYMR90~1\AppData\Local\Temp\ccZoYVSv.s:26118  .debug_str:000000000000dfdf .LASF2990
C:\Users\CYMR90~1\AppData\Local\Temp\ccZoYVSv.s:31663  .debug_str:0000000000023fa2 .LASF2991
C:\Users\CYMR90~1\AppData\Local\Temp\ccZoYVSv.s:28477  .debug_str:0000000000017756 .LASF2992
C:\Users\CYMR90~1\AppData\Local\Temp\ccZoYVSv.s:27568  .debug_str:0000000000013c6e .LASF2993
C:\Users\CYMR90~1\AppData\Local\Temp\ccZoYVSv.s:29081  .debug_str:0000000000019eaa .LASF2994
C:\Users\CYMR90~1\AppData\Local\Temp\ccZoYVSv.s:32473  .debug_str:00000000000274d6 .LASF2995
C:\Users\CYMR90~1\AppData\Local\Temp\ccZoYVSv.s:26036  .debug_str:000000000000dae8 .LASF2996
C:\Users\CYMR90~1\AppData\Local\Temp\ccZoYVSv.s:28489  .debug_str:0000000000017817 .LASF2997
C:\Users\CYMR90~1\AppData\Local\Temp\ccZoYVSv.s:25638  .debug_str:000000000000c11b .LASF2998
C:\Users\CYMR90~1\AppData\Local\Temp\ccZoYVSv.s:24410  .debug_str:0000000000007058 .LASF2999
C:\Users\CYMR90~1\AppData\Local\Temp\ccZoYVSv.s:26332  .debug_str:000000000000ed89 .LASF3000
C:\Users\CYMR90~1\AppData\Local\Temp\ccZoYVSv.s:22874  .debug_str:0000000000000fc3 .LASF3001
C:\Users\CYMR90~1\AppData\Local\Temp\ccZoYVSv.s:33663  .debug_str:000000000002be78 .LASF3002
C:\Users\CYMR90~1\AppData\Local\Temp\ccZoYVSv.s:33263  .debug_str:000000000002a6a6 .LASF3003
C:\Users\CYMR90~1\AppData\Local\Temp\ccZoYVSv.s:30633  .debug_str:0000000000020144 .LASF3004
C:\Users\CYMR90~1\AppData\Local\Temp\ccZoYVSv.s:31781  .debug_str:0000000000024656 .LASF3005
C:\Users\CYMR90~1\AppData\Local\Temp\ccZoYVSv.s:30197  .debug_str:000000000001e713 .LASF3006
C:\Users\CYMR90~1\AppData\Local\Temp\ccZoYVSv.s:30593  .debug_str:000000000001feaf .LASF3007
C:\Users\CYMR90~1\AppData\Local\Temp\ccZoYVSv.s:32615  .debug_str:0000000000027e3b .LASF3008
C:\Users\CYMR90~1\AppData\Local\Temp\ccZoYVSv.s:27750  .debug_str:0000000000014796 .LASF3009
C:\Users\CYMR90~1\AppData\Local\Temp\ccZoYVSv.s:28310  .debug_str:0000000000016aca .LASF3010
C:\Users\CYMR90~1\AppData\Local\Temp\ccZoYVSv.s:23136  .debug_str:0000000000001f5f .LASF3011
C:\Users\CYMR90~1\AppData\Local\Temp\ccZoYVSv.s:30579  .debug_str:000000000001fdae .LASF3012
C:\Users\CYMR90~1\AppData\Local\Temp\ccZoYVSv.s:30527  .debug_str:000000000001fab8 .LASF3013
C:\Users\CYMR90~1\AppData\Local\Temp\ccZoYVSv.s:29625  .debug_str:000000000001c199 .LASF3014
C:\Users\CYMR90~1\AppData\Local\Temp\ccZoYVSv.s:23300  .debug_str:0000000000002950 .LASF3015
C:\Users\CYMR90~1\AppData\Local\Temp\ccZoYVSv.s:32107  .debug_str:0000000000025d77 .LASF3016
C:\Users\CYMR90~1\AppData\Local\Temp\ccZoYVSv.s:25926  .debug_str:000000000000d359 .LASF3017
C:\Users\CYMR90~1\AppData\Local\Temp\ccZoYVSv.s:23656  .debug_str:0000000000004055 .LASF3018
C:\Users\CYMR90~1\AppData\Local\Temp\ccZoYVSv.s:23394  .debug_str:0000000000002f3c .LASF3019
C:\Users\CYMR90~1\AppData\Local\Temp\ccZoYVSv.s:24808  .debug_str:0000000000008b16 .LASF3020
C:\Users\CYMR90~1\AppData\Local\Temp\ccZoYVSv.s:30187  .debug_str:000000000001e675 .LASF3021
C:\Users\CYMR90~1\AppData\Local\Temp\ccZoYVSv.s:31361  .debug_str:0000000000022d28 .LASF3022
C:\Users\CYMR90~1\AppData\Local\Temp\ccZoYVSv.s:25184  .debug_str:000000000000a2b7 .LASF3023
C:\Users\CYMR90~1\AppData\Local\Temp\ccZoYVSv.s:26864  .debug_str:0000000000010e2f .LASF3024
C:\Users\CYMR90~1\AppData\Local\Temp\ccZoYVSv.s:28096  .debug_str:0000000000015d03 .LASF3025
C:\Users\CYMR90~1\AppData\Local\Temp\ccZoYVSv.s:26166  .debug_str:000000000000e319 .LASF3026
C:\Users\CYMR90~1\AppData\Local\Temp\ccZoYVSv.s:29401  .debug_str:000000000001b41d .LASF3027
C:\Users\CYMR90~1\AppData\Local\Temp\ccZoYVSv.s:29039  .debug_str:0000000000019b56 .LASF3028
C:\Users\CYMR90~1\AppData\Local\Temp\ccZoYVSv.s:25646  .debug_str:000000000000c19f .LASF3029
C:\Users\CYMR90~1\AppData\Local\Temp\ccZoYVSv.s:30791  .debug_str:0000000000020a99 .LASF3030
C:\Users\CYMR90~1\AppData\Local\Temp\ccZoYVSv.s:28591  .debug_str:0000000000017e8e .LASF3031
C:\Users\CYMR90~1\AppData\Local\Temp\ccZoYVSv.s:32855  .debug_str:0000000000028e67 .LASF3032
C:\Users\CYMR90~1\AppData\Local\Temp\ccZoYVSv.s:30295  .debug_str:000000000001ece9 .LASF3033
C:\Users\CYMR90~1\AppData\Local\Temp\ccZoYVSv.s:29601  .debug_str:000000000001bfda .LASF3034
C:\Users\CYMR90~1\AppData\Local\Temp\ccZoYVSv.s:32735  .debug_str:00000000000285ca .LASF3035
C:\Users\CYMR90~1\AppData\Local\Temp\ccZoYVSv.s:23164  .debug_str:000000000000210d .LASF3036
C:\Users\CYMR90~1\AppData\Local\Temp\ccZoYVSv.s:26358  .debug_str:000000000000ef17 .LASF3037
C:\Users\CYMR90~1\AppData\Local\Temp\ccZoYVSv.s:26400  .debug_str:000000000000f149 .LASF3038
C:\Users\CYMR90~1\AppData\Local\Temp\ccZoYVSv.s:32383  .debug_str:0000000000026f88 .LASF3039
C:\Users\CYMR90~1\AppData\Local\Temp\ccZoYVSv.s:32741  .debug_str:000000000002862a .LASF3040
C:\Users\CYMR90~1\AppData\Local\Temp\ccZoYVSv.s:28681  .debug_str:00000000000183da .LASF3041
C:\Users\CYMR90~1\AppData\Local\Temp\ccZoYVSv.s:31473  .debug_str:000000000002345c .LASF3042
C:\Users\CYMR90~1\AppData\Local\Temp\ccZoYVSv.s:22996  .debug_str:0000000000001676 .LASF3043
C:\Users\CYMR90~1\AppData\Local\Temp\ccZoYVSv.s:23294  .debug_str:00000000000028f4 .LASF3044
C:\Users\CYMR90~1\AppData\Local\Temp\ccZoYVSv.s:33337  .debug_str:000000000002aacb .LASF3045
C:\Users\CYMR90~1\AppData\Local\Temp\ccZoYVSv.s:24202  .debug_str:000000000000635e .LASF3046
C:\Users\CYMR90~1\AppData\Local\Temp\ccZoYVSv.s:27456  .debug_str:00000000000134fb .LASF3047
C:\Users\CYMR90~1\AppData\Local\Temp\ccZoYVSv.s:25998  .debug_str:000000000000d8b2 .LASF3048
C:\Users\CYMR90~1\AppData\Local\Temp\ccZoYVSv.s:31035  .debug_str:000000000002195c .LASF3049
C:\Users\CYMR90~1\AppData\Local\Temp\ccZoYVSv.s:29049  .debug_str:0000000000019c35 .LASF3050
C:\Users\CYMR90~1\AppData\Local\Temp\ccZoYVSv.s:25160  .debug_str:000000000000a103 .LASF3051
C:\Users\CYMR90~1\AppData\Local\Temp\ccZoYVSv.s:24910  .debug_str:00000000000091ff .LASF3052
C:\Users\CYMR90~1\AppData\Local\Temp\ccZoYVSv.s:25514  .debug_str:000000000000b88c .LASF3053
C:\Users\CYMR90~1\AppData\Local\Temp\ccZoYVSv.s:23732  .debug_str:0000000000004544 .LASF3054
C:\Users\CYMR90~1\AppData\Local\Temp\ccZoYVSv.s:26882  .debug_str:0000000000010fbf .LASF3055
C:\Users\CYMR90~1\AppData\Local\Temp\ccZoYVSv.s:28575  .debug_str:0000000000017da2 .LASF3056
C:\Users\CYMR90~1\AppData\Local\Temp\ccZoYVSv.s:24784  .debug_str:0000000000008957 .LASF3057
C:\Users\CYMR90~1\AppData\Local\Temp\ccZoYVSv.s:25596  .debug_str:000000000000bdcc .LASF3058
C:\Users\CYMR90~1\AppData\Local\Temp\ccZoYVSv.s:25542  .debug_str:000000000000ba74 .LASF3059
C:\Users\CYMR90~1\AppData\Local\Temp\ccZoYVSv.s:26412  .debug_str:000000000000f1f9 .LASF3060
C:\Users\CYMR90~1\AppData\Local\Temp\ccZoYVSv.s:32469  .debug_str:000000000002749d .LASF3061
C:\Users\CYMR90~1\AppData\Local\Temp\ccZoYVSv.s:25262  .debug_str:000000000000a757 .LASF3062
C:\Users\CYMR90~1\AppData\Local\Temp\ccZoYVSv.s:32019  .debug_str:00000000000256bd .LASF3063
C:\Users\CYMR90~1\AppData\Local\Temp\ccZoYVSv.s:30323  .debug_str:000000000001eea1 .LASF3064
C:\Users\CYMR90~1\AppData\Local\Temp\ccZoYVSv.s:22960  .debug_str:00000000000014a9 .LASF3065
C:\Users\CYMR90~1\AppData\Local\Temp\ccZoYVSv.s:28861  .debug_str:0000000000018f25 .LASF3066
C:\Users\CYMR90~1\AppData\Local\Temp\ccZoYVSv.s:23068  .debug_str:0000000000001b63 .LASF3067
C:\Users\CYMR90~1\AppData\Local\Temp\ccZoYVSv.s:33935  .debug_str:000000000002d0bd .LASF3068
C:\Users\CYMR90~1\AppData\Local\Temp\ccZoYVSv.s:28014  .debug_str:0000000000015846 .LASF3069
C:\Users\CYMR90~1\AppData\Local\Temp\ccZoYVSv.s:31883  .debug_str:0000000000024d82 .LASF3070
C:\Users\CYMR90~1\AppData\Local\Temp\ccZoYVSv.s:25198  .debug_str:000000000000a38e .LASF3071
C:\Users\CYMR90~1\AppData\Local\Temp\ccZoYVSv.s:23096  .debug_str:0000000000001d1b .LASF3072
C:\Users\CYMR90~1\AppData\Local\Temp\ccZoYVSv.s:24224  .debug_str:0000000000006499 .LASF3073
C:\Users\CYMR90~1\AppData\Local\Temp\ccZoYVSv.s:29483  .debug_str:000000000001b941 .LASF3074
C:\Users\CYMR90~1\AppData\Local\Temp\ccZoYVSv.s:23664  .debug_str:00000000000040c7 .LASF3075
C:\Users\CYMR90~1\AppData\Local\Temp\ccZoYVSv.s:24916  .debug_str:0000000000009262 .LASF3076
C:\Users\CYMR90~1\AppData\Local\Temp\ccZoYVSv.s:23978  .debug_str:0000000000005587 .LASF3077
C:\Users\CYMR90~1\AppData\Local\Temp\ccZoYVSv.s:33427  .debug_str:000000000002b037 .LASF3078
C:\Users\CYMR90~1\AppData\Local\Temp\ccZoYVSv.s:25666  .debug_str:000000000000c2ef .LASF3079
C:\Users\CYMR90~1\AppData\Local\Temp\ccZoYVSv.s:23308  .debug_str:00000000000029cb .LASF3080
C:\Users\CYMR90~1\AppData\Local\Temp\ccZoYVSv.s:31321  .debug_str:0000000000022ade .LASF3081
C:\Users\CYMR90~1\AppData\Local\Temp\ccZoYVSv.s:27930  .debug_str:0000000000015348 .LASF3082
C:\Users\CYMR90~1\AppData\Local\Temp\ccZoYVSv.s:24502  .debug_str:000000000000764e .LASF3083
C:\Users\CYMR90~1\AppData\Local\Temp\ccZoYVSv.s:23992  .debug_str:000000000000565c .LASF3084
C:\Users\CYMR90~1\AppData\Local\Temp\ccZoYVSv.s:24114  .debug_str:0000000000005dfb .LASF3085
C:\Users\CYMR90~1\AppData\Local\Temp\ccZoYVSv.s:23994  .debug_str:000000000000567a .LASF3086
C:\Users\CYMR90~1\AppData\Local\Temp\ccZoYVSv.s:27294  .debug_str:0000000000012a22 .LASF3087
C:\Users\CYMR90~1\AppData\Local\Temp\ccZoYVSv.s:31339  .debug_str:0000000000022bc6 .LASF3088
C:\Users\CYMR90~1\AppData\Local\Temp\ccZoYVSv.s:32721  .debug_str:00000000000284e0 .LASF3089
C:\Users\CYMR90~1\AppData\Local\Temp\ccZoYVSv.s:28671  .debug_str:000000000001834e .LASF3090
C:\Users\CYMR90~1\AppData\Local\Temp\ccZoYVSv.s:26518  .debug_str:000000000000f87e .LASF3091
C:\Users\CYMR90~1\AppData\Local\Temp\ccZoYVSv.s:31337  .debug_str:0000000000022bad .LASF3092
C:\Users\CYMR90~1\AppData\Local\Temp\ccZoYVSv.s:23040  .debug_str:00000000000019ca .LASF3093
C:\Users\CYMR90~1\AppData\Local\Temp\ccZoYVSv.s:29315  .debug_str:000000000001ae34 .LASF3094
C:\Users\CYMR90~1\AppData\Local\Temp\ccZoYVSv.s:24364  .debug_str:0000000000006d41 .LASF3095
C:\Users\CYMR90~1\AppData\Local\Temp\ccZoYVSv.s:23984  .debug_str:00000000000055cb .LASF3096
C:\Users\CYMR90~1\AppData\Local\Temp\ccZoYVSv.s:30235  .debug_str:000000000001e944 .LASF3097
C:\Users\CYMR90~1\AppData\Local\Temp\ccZoYVSv.s:26224  .debug_str:000000000000e67d .LASF3098
C:\Users\CYMR90~1\AppData\Local\Temp\ccZoYVSv.s:31549  .debug_str:000000000002385e .LASF3099
C:\Users\CYMR90~1\AppData\Local\Temp\ccZoYVSv.s:28535  .debug_str:0000000000017aed .LASF3100
C:\Users\CYMR90~1\AppData\Local\Temp\ccZoYVSv.s:31997  .debug_str:0000000000025527 .LASF3101
C:\Users\CYMR90~1\AppData\Local\Temp\ccZoYVSv.s:31379  .debug_str:0000000000022e60 .LASF3102
C:\Users\CYMR90~1\AppData\Local\Temp\ccZoYVSv.s:28587  .debug_str:0000000000017e65 .LASF3103
C:\Users\CYMR90~1\AppData\Local\Temp\ccZoYVSv.s:33599  .debug_str:000000000002ba60 .LASF3104
C:\Users\CYMR90~1\AppData\Local\Temp\ccZoYVSv.s:33903  .debug_str:000000000002ce72 .LASF3105
C:\Users\CYMR90~1\AppData\Local\Temp\ccZoYVSv.s:32313  .debug_str:0000000000026b22 .LASF3106
C:\Users\CYMR90~1\AppData\Local\Temp\ccZoYVSv.s:23616  .debug_str:0000000000003d9d .LASF3107
C:\Users\CYMR90~1\AppData\Local\Temp\ccZoYVSv.s:26450  .debug_str:000000000000f436 .LASF3108
C:\Users\CYMR90~1\AppData\Local\Temp\ccZoYVSv.s:23586  .debug_str:0000000000003bc9 .LASF3109
C:\Users\CYMR90~1\AppData\Local\Temp\ccZoYVSv.s:26996  .debug_str:0000000000011616 .LASF3110
C:\Users\CYMR90~1\AppData\Local\Temp\ccZoYVSv.s:26814  .debug_str:0000000000010b58 .LASF3111
C:\Users\CYMR90~1\AppData\Local\Temp\ccZoYVSv.s:24334  .debug_str:0000000000006b53 .LASF3112
C:\Users\CYMR90~1\AppData\Local\Temp\ccZoYVSv.s:27208  .debug_str:00000000000124b8 .LASF3113
C:\Users\CYMR90~1\AppData\Local\Temp\ccZoYVSv.s:26862  .debug_str:0000000000010e12 .LASF3114
C:\Users\CYMR90~1\AppData\Local\Temp\ccZoYVSv.s:24588  .debug_str:0000000000007ba5 .LASF3115
C:\Users\CYMR90~1\AppData\Local\Temp\ccZoYVSv.s:25268  .debug_str:000000000000a7a1 .LASF3116
C:\Users\CYMR90~1\AppData\Local\Temp\ccZoYVSv.s:27692  .debug_str:000000000001440f .LASF3117
C:\Users\CYMR90~1\AppData\Local\Temp\ccZoYVSv.s:30243  .debug_str:000000000001e9b3 .LASF3118
C:\Users\CYMR90~1\AppData\Local\Temp\ccZoYVSv.s:23774  .debug_str:0000000000004835 .LASF3119
C:\Users\CYMR90~1\AppData\Local\Temp\ccZoYVSv.s:30789  .debug_str:0000000000020a83 .LASF3120
C:\Users\CYMR90~1\AppData\Local\Temp\ccZoYVSv.s:31173  .debug_str:0000000000022274 .LASF3121
C:\Users\CYMR90~1\AppData\Local\Temp\ccZoYVSv.s:25066  .debug_str:0000000000009b5a .LASF3122
C:\Users\CYMR90~1\AppData\Local\Temp\ccZoYVSv.s:24414  .debug_str:000000000000708a .LASF3123
C:\Users\CYMR90~1\AppData\Local\Temp\ccZoYVSv.s:24928  .debug_str:00000000000092ea .LASF3124
C:\Users\CYMR90~1\AppData\Local\Temp\ccZoYVSv.s:23658  .debug_str:000000000000407b .LASF3125
C:\Users\CYMR90~1\AppData\Local\Temp\ccZoYVSv.s:33755  .debug_str:000000000002c47b .LASF3126
C:\Users\CYMR90~1\AppData\Local\Temp\ccZoYVSv.s:24208  .debug_str:00000000000063b1 .LASF3127
C:\Users\CYMR90~1\AppData\Local\Temp\ccZoYVSv.s:22756  .debug_str:00000000000007b0 .LASF3128
C:\Users\CYMR90~1\AppData\Local\Temp\ccZoYVSv.s:23782  .debug_str:0000000000004907 .LASF3129
C:\Users\CYMR90~1\AppData\Local\Temp\ccZoYVSv.s:31275  .debug_str:0000000000022868 .LASF3130
C:\Users\CYMR90~1\AppData\Local\Temp\ccZoYVSv.s:29043  .debug_str:0000000000019bb6 .LASF3131
C:\Users\CYMR90~1\AppData\Local\Temp\ccZoYVSv.s:30879  .debug_str:0000000000020fe4 .LASF3132
C:\Users\CYMR90~1\AppData\Local\Temp\ccZoYVSv.s:22694  .debug_str:0000000000000405 .LASF3133
C:\Users\CYMR90~1\AppData\Local\Temp\ccZoYVSv.s:30461  .debug_str:000000000001f6d3 .LASF3134
C:\Users\CYMR90~1\AppData\Local\Temp\ccZoYVSv.s:29303  .debug_str:000000000001ad72 .LASF3135
C:\Users\CYMR90~1\AppData\Local\Temp\ccZoYVSv.s:30233  .debug_str:000000000001e924 .LASF3136
C:\Users\CYMR90~1\AppData\Local\Temp\ccZoYVSv.s:29807  .debug_str:000000000001cd27 .LASF3137
C:\Users\CYMR90~1\AppData\Local\Temp\ccZoYVSv.s:26312  .debug_str:000000000000ec13 .LASF3138
C:\Users\CYMR90~1\AppData\Local\Temp\ccZoYVSv.s:27168  .debug_str:00000000000121df .LASF3139
C:\Users\CYMR90~1\AppData\Local\Temp\ccZoYVSv.s:32577  .debug_str:0000000000027bff .LASF3140
C:\Users\CYMR90~1\AppData\Local\Temp\ccZoYVSv.s:30103  .debug_str:000000000001e081 .LASF3141
C:\Users\CYMR90~1\AppData\Local\Temp\ccZoYVSv.s:33851  .debug_str:000000000002cb6b .LASF3142
C:\Users\CYMR90~1\AppData\Local\Temp\ccZoYVSv.s:29059  .debug_str:0000000000019d3b .LASF3143
C:\Users\CYMR90~1\AppData\Local\Temp\ccZoYVSv.s:29375  .debug_str:000000000001b211 .LASF3144
C:\Users\CYMR90~1\AppData\Local\Temp\ccZoYVSv.s:31925  .debug_str:00000000000250ba .LASF3145
C:\Users\CYMR90~1\AppData\Local\Temp\ccZoYVSv.s:33333  .debug_str:000000000002aa98 .LASF3146
C:\Users\CYMR90~1\AppData\Local\Temp\ccZoYVSv.s:27044  .debug_str:0000000000011910 .LASF3147
C:\Users\CYMR90~1\AppData\Local\Temp\ccZoYVSv.s:30053  .debug_str:000000000001ddbb .LASF3148
C:\Users\CYMR90~1\AppData\Local\Temp\ccZoYVSv.s:26122  .debug_str:000000000000e018 .LASF3149
C:\Users\CYMR90~1\AppData\Local\Temp\ccZoYVSv.s:33109  .debug_str:0000000000029d88 .LASF3150
C:\Users\CYMR90~1\AppData\Local\Temp\ccZoYVSv.s:23056  .debug_str:0000000000001aa7 .LASF3151
C:\Users\CYMR90~1\AppData\Local\Temp\ccZoYVSv.s:33379  .debug_str:000000000002ad71 .LASF3152
C:\Users\CYMR90~1\AppData\Local\Temp\ccZoYVSv.s:32155  .debug_str:0000000000026162 .LASF3153
C:\Users\CYMR90~1\AppData\Local\Temp\ccZoYVSv.s:23548  .debug_str:0000000000003967 .LASF3154
C:\Users\CYMR90~1\AppData\Local\Temp\ccZoYVSv.s:26752  .debug_str:000000000001071e .LASF3155
C:\Users\CYMR90~1\AppData\Local\Temp\ccZoYVSv.s:32825  .debug_str:0000000000028c62 .LASF3156
C:\Users\CYMR90~1\AppData\Local\Temp\ccZoYVSv.s:27232  .debug_str:0000000000012624 .LASF3157
C:\Users\CYMR90~1\AppData\Local\Temp\ccZoYVSv.s:25324  .debug_str:000000000000abda .LASF3158
C:\Users\CYMR90~1\AppData\Local\Temp\ccZoYVSv.s:33655  .debug_str:000000000002bde4 .LASF3159
C:\Users\CYMR90~1\AppData\Local\Temp\ccZoYVSv.s:25418  .debug_str:000000000000b293 .LASF3160
C:\Users\CYMR90~1\AppData\Local\Temp\ccZoYVSv.s:29113  .debug_str:000000000001a09d .LASF3161
C:\Users\CYMR90~1\AppData\Local\Temp\ccZoYVSv.s:25682  .debug_str:000000000000c41b .LASF3162
C:\Users\CYMR90~1\AppData\Local\Temp\ccZoYVSv.s:28855  .debug_str:0000000000018e9c .LASF3163
C:\Users\CYMR90~1\AppData\Local\Temp\ccZoYVSv.s:33449  .debug_str:000000000002b16f .LASF3164
C:\Users\CYMR90~1\AppData\Local\Temp\ccZoYVSv.s:30999  .debug_str:0000000000021743 .LASF3165
C:\Users\CYMR90~1\AppData\Local\Temp\ccZoYVSv.s:32401  .debug_str:00000000000270c7 .LASF3166
C:\Users\CYMR90~1\AppData\Local\Temp\ccZoYVSv.s:25976  .debug_str:000000000000d715 .LASF3167
C:\Users\CYMR90~1\AppData\Local\Temp\ccZoYVSv.s:31769  .debug_str:00000000000245aa .LASF3168
C:\Users\CYMR90~1\AppData\Local\Temp\ccZoYVSv.s:27814  .debug_str:0000000000014bc8 .LASF3169
C:\Users\CYMR90~1\AppData\Local\Temp\ccZoYVSv.s:26646  .debug_str:00000000000100a4 .LASF3170
C:\Users\CYMR90~1\AppData\Local\Temp\ccZoYVSv.s:29795  .debug_str:000000000001cbbd .LASF3171
C:\Users\CYMR90~1\AppData\Local\Temp\ccZoYVSv.s:32661  .debug_str:00000000000280d1 .LASF3172
C:\Users\CYMR90~1\AppData\Local\Temp\ccZoYVSv.s:23568  .debug_str:0000000000003a97 .LASF3173
C:\Users\CYMR90~1\AppData\Local\Temp\ccZoYVSv.s:30033  .debug_str:000000000001dc4b .LASF3174
C:\Users\CYMR90~1\AppData\Local\Temp\ccZoYVSv.s:32835  .debug_str:0000000000028d06 .LASF3175
C:\Users\CYMR90~1\AppData\Local\Temp\ccZoYVSv.s:32563  .debug_str:0000000000027a7b .LASF3176
C:\Users\CYMR90~1\AppData\Local\Temp\ccZoYVSv.s:31247  .debug_str:00000000000226ae .LASF3177
C:\Users\CYMR90~1\AppData\Local\Temp\ccZoYVSv.s:27994  .debug_str:00000000000156f5 .LASF3178
C:\Users\CYMR90~1\AppData\Local\Temp\ccZoYVSv.s:24912  .debug_str:0000000000009223 .LASF3179
C:\Users\CYMR90~1\AppData\Local\Temp\ccZoYVSv.s:29941  .debug_str:000000000001d6a0 .LASF3180
C:\Users\CYMR90~1\AppData\Local\Temp\ccZoYVSv.s:27374  .debug_str:0000000000012f84 .LASF3181
C:\Users\CYMR90~1\AppData\Local\Temp\ccZoYVSv.s:25392  .debug_str:000000000000b028 .LASF3182
C:\Users\CYMR90~1\AppData\Local\Temp\ccZoYVSv.s:29871  .debug_str:000000000001d123 .LASF3183
C:\Users\CYMR90~1\AppData\Local\Temp\ccZoYVSv.s:32023  .debug_str:00000000000256f1 .LASF3184
C:\Users\CYMR90~1\AppData\Local\Temp\ccZoYVSv.s:23860  .debug_str:0000000000004e44 .LASF3185
C:\Users\CYMR90~1\AppData\Local\Temp\ccZoYVSv.s:33349  .debug_str:000000000002ab9d .LASF3186
C:\Users\CYMR90~1\AppData\Local\Temp\ccZoYVSv.s:32221  .debug_str:000000000002656c .LASF3187
C:\Users\CYMR90~1\AppData\Local\Temp\ccZoYVSv.s:29159  .debug_str:000000000001a339 .LASF3188
C:\Users\CYMR90~1\AppData\Local\Temp\ccZoYVSv.s:29167  .debug_str:000000000001a3ca .LASF3189
C:\Users\CYMR90~1\AppData\Local\Temp\ccZoYVSv.s:32515  .debug_str:000000000002778c .LASF3190
C:\Users\CYMR90~1\AppData\Local\Temp\ccZoYVSv.s:27264  .debug_str:0000000000012811 .LASF3191
C:\Users\CYMR90~1\AppData\Local\Temp\ccZoYVSv.s:33319  .debug_str:000000000002a9e4 .LASF3192
C:\Users\CYMR90~1\AppData\Local\Temp\ccZoYVSv.s:28819  .debug_str:0000000000018c45 .LASF3193
C:\Users\CYMR90~1\AppData\Local\Temp\ccZoYVSv.s:32593  .debug_str:0000000000027cf6 .LASF3194
C:\Users\CYMR90~1\AppData\Local\Temp\ccZoYVSv.s:23752  .debug_str:0000000000004691 .LASF3195
C:\Users\CYMR90~1\AppData\Local\Temp\ccZoYVSv.s:26852  .debug_str:0000000000010d3a .LASF3196
C:\Users\CYMR90~1\AppData\Local\Temp\ccZoYVSv.s:30215  .debug_str:000000000001e805 .LASF3197
C:\Users\CYMR90~1\AppData\Local\Temp\ccZoYVSv.s:27192  .debug_str:000000000001238a .LASF3198
C:\Users\CYMR90~1\AppData\Local\Temp\ccZoYVSv.s:26196  .debug_str:000000000000e4c3 .LASF3199
C:\Users\CYMR90~1\AppData\Local\Temp\ccZoYVSv.s:27372  .debug_str:0000000000012f4b .LASF3200
C:\Users\CYMR90~1\AppData\Local\Temp\ccZoYVSv.s:31483  .debug_str:00000000000234dd .LASF3201
C:\Users\CYMR90~1\AppData\Local\Temp\ccZoYVSv.s:28186  .debug_str:000000000001631a .LASF3202
C:\Users\CYMR90~1\AppData\Local\Temp\ccZoYVSv.s:29777  .debug_str:000000000001ca73 .LASF3203
C:\Users\CYMR90~1\AppData\Local\Temp\ccZoYVSv.s:25620  .debug_str:000000000000bfa3 .LASF3204
C:\Users\CYMR90~1\AppData\Local\Temp\ccZoYVSv.s:24622  .debug_str:0000000000007e09 .LASF3205
C:\Users\CYMR90~1\AppData\Local\Temp\ccZoYVSv.s:23922  .debug_str:00000000000051e9 .LASF3206
C:\Users\CYMR90~1\AppData\Local\Temp\ccZoYVSv.s:27326  .debug_str:0000000000012c4b .LASF3207
C:\Users\CYMR90~1\AppData\Local\Temp\ccZoYVSv.s:22918  .debug_str:000000000000123d .LASF3208
C:\Users\CYMR90~1\AppData\Local\Temp\ccZoYVSv.s:23014  .debug_str:0000000000001779 .LASF3209
C:\Users\CYMR90~1\AppData\Local\Temp\ccZoYVSv.s:32785  .debug_str:0000000000028953 .LASF3210
C:\Users\CYMR90~1\AppData\Local\Temp\ccZoYVSv.s:29441  .debug_str:000000000001b6a0 .LASF3211
C:\Users\CYMR90~1\AppData\Local\Temp\ccZoYVSv.s:25892  .debug_str:000000000000d10b .LASF3212
C:\Users\CYMR90~1\AppData\Local\Temp\ccZoYVSv.s:27780  .debug_str:0000000000014981 .LASF3213
C:\Users\CYMR90~1\AppData\Local\Temp\ccZoYVSv.s:23064  .debug_str:0000000000001b24 .LASF3214
C:\Users\CYMR90~1\AppData\Local\Temp\ccZoYVSv.s:26598  .debug_str:000000000000fdb7 .LASF3215
C:\Users\CYMR90~1\AppData\Local\Temp\ccZoYVSv.s:30269  .debug_str:000000000001eb42 .LASF3216
C:\Users\CYMR90~1\AppData\Local\Temp\ccZoYVSv.s:25704  .debug_str:000000000000c585 .LASF3217
C:\Users\CYMR90~1\AppData\Local\Temp\ccZoYVSv.s:25266  .debug_str:000000000000a77e .LASF3218
C:\Users\CYMR90~1\AppData\Local\Temp\ccZoYVSv.s:28244  .debug_str:00000000000166b6 .LASF3219
C:\Users\CYMR90~1\AppData\Local\Temp\ccZoYVSv.s:29217  .debug_str:000000000001a683 .LASF3220
C:\Users\CYMR90~1\AppData\Local\Temp\ccZoYVSv.s:30529  .debug_str:000000000001fad7 .LASF3221
C:\Users\CYMR90~1\AppData\Local\Temp\ccZoYVSv.s:26674  .debug_str:0000000000010279 .LASF3222
C:\Users\CYMR90~1\AppData\Local\Temp\ccZoYVSv.s:33929  .debug_str:000000000002d04d .LASF3223
C:\Users\CYMR90~1\AppData\Local\Temp\ccZoYVSv.s:28577  .debug_str:0000000000017db9 .LASF3224
C:\Users\CYMR90~1\AppData\Local\Temp\ccZoYVSv.s:31273  .debug_str:0000000000022844 .LASF3225
C:\Users\CYMR90~1\AppData\Local\Temp\ccZoYVSv.s:25582  .debug_str:000000000000bd07 .LASF3226
C:\Users\CYMR90~1\AppData\Local\Temp\ccZoYVSv.s:31563  .debug_str:0000000000023947 .LASF3227
C:\Users\CYMR90~1\AppData\Local\Temp\ccZoYVSv.s:27658  .debug_str:00000000000141d8 .LASF3228
C:\Users\CYMR90~1\AppData\Local\Temp\ccZoYVSv.s:30419  .debug_str:000000000001f3e1 .LASF3229
C:\Users\CYMR90~1\AppData\Local\Temp\ccZoYVSv.s:26430  .debug_str:000000000000f31a .LASF3230
C:\Users\CYMR90~1\AppData\Local\Temp\ccZoYVSv.s:25748  .debug_str:000000000000c844 .LASF3231
C:\Users\CYMR90~1\AppData\Local\Temp\ccZoYVSv.s:26750  .debug_str:0000000000010707 .LASF3232
C:\Users\CYMR90~1\AppData\Local\Temp\ccZoYVSv.s:32919  .debug_str:0000000000029257 .LASF3233
C:\Users\CYMR90~1\AppData\Local\Temp\ccZoYVSv.s:31529  .debug_str:000000000002377f .LASF3234
C:\Users\CYMR90~1\AppData\Local\Temp\ccZoYVSv.s:29817  .debug_str:000000000001cde9 .LASF3235
C:\Users\CYMR90~1\AppData\Local\Temp\ccZoYVSv.s:24952  .debug_str:000000000000944d .LASF3236
C:\Users\CYMR90~1\AppData\Local\Temp\ccZoYVSv.s:24544  .debug_str:00000000000078c8 .LASF3237
C:\Users\CYMR90~1\AppData\Local\Temp\ccZoYVSv.s:34047  .debug_str:000000000002d7d9 .LASF3238
C:\Users\CYMR90~1\AppData\Local\Temp\ccZoYVSv.s:23704  .debug_str:0000000000004383 .LASF3239
C:\Users\CYMR90~1\AppData\Local\Temp\ccZoYVSv.s:33571  .debug_str:000000000002b857 .LASF3240
C:\Users\CYMR90~1\AppData\Local\Temp\ccZoYVSv.s:26044  .debug_str:000000000000db55 .LASF3241
C:\Users\CYMR90~1\AppData\Local\Temp\ccZoYVSv.s:28743  .debug_str:00000000000187b0 .LASF3242
C:\Users\CYMR90~1\AppData\Local\Temp\ccZoYVSv.s:28184  .debug_str:0000000000016302 .LASF3243
C:\Users\CYMR90~1\AppData\Local\Temp\ccZoYVSv.s:31577  .debug_str:0000000000023a08 .LASF3244
C:\Users\CYMR90~1\AppData\Local\Temp\ccZoYVSv.s:22930  .debug_str:00000000000012e3 .LASF3245
C:\Users\CYMR90~1\AppData\Local\Temp\ccZoYVSv.s:23876  .debug_str:0000000000004f65 .LASF3246
C:\Users\CYMR90~1\AppData\Local\Temp\ccZoYVSv.s:31433  .debug_str:000000000002317d .LASF3247
C:\Users\CYMR90~1\AppData\Local\Temp\ccZoYVSv.s:24132  .debug_str:0000000000005ef7 .LASF3248
C:\Users\CYMR90~1\AppData\Local\Temp\ccZoYVSv.s:31755  .debug_str:00000000000244c9 .LASF3249
C:\Users\CYMR90~1\AppData\Local\Temp\ccZoYVSv.s:32183  .debug_str:000000000002633b .LASF3250
C:\Users\CYMR90~1\AppData\Local\Temp\ccZoYVSv.s:30863  .debug_str:0000000000020f32 .LASF3251
C:\Users\CYMR90~1\AppData\Local\Temp\ccZoYVSv.s:28080  .debug_str:0000000000015c22 .LASF3252
C:\Users\CYMR90~1\AppData\Local\Temp\ccZoYVSv.s:27832  .debug_str:0000000000014cc8 .LASF3253
C:\Users\CYMR90~1\AppData\Local\Temp\ccZoYVSv.s:28569  .debug_str:0000000000017d40 .LASF3254
C:\Users\CYMR90~1\AppData\Local\Temp\ccZoYVSv.s:30753  .debug_str:0000000000020851 .LASF3255
C:\Users\CYMR90~1\AppData\Local\Temp\ccZoYVSv.s:24510  .debug_str:00000000000076d7 .LASF3256
C:\Users\CYMR90~1\AppData\Local\Temp\ccZoYVSv.s:22688  .debug_str:00000000000003ac .LASF3257
C:\Users\CYMR90~1\AppData\Local\Temp\ccZoYVSv.s:32941  .debug_str:00000000000293b5 .LASF3258
C:\Users\CYMR90~1\AppData\Local\Temp\ccZoYVSv.s:22820  .debug_str:0000000000000c07 .LASF3259
C:\Users\CYMR90~1\AppData\Local\Temp\ccZoYVSv.s:31253  .debug_str:0000000000022722 .LASF3260
C:\Users\CYMR90~1\AppData\Local\Temp\ccZoYVSv.s:24440  .debug_str:00000000000071fe .LASF3261
C:\Users\CYMR90~1\AppData\Local\Temp\ccZoYVSv.s:27640  .debug_str:00000000000140c4 .LASF3262
C:\Users\CYMR90~1\AppData\Local\Temp\ccZoYVSv.s:25918  .debug_str:000000000000d2d2 .LASF3263
C:\Users\CYMR90~1\AppData\Local\Temp\ccZoYVSv.s:31565  .debug_str:000000000002396d .LASF3264
C:\Users\CYMR90~1\AppData\Local\Temp\ccZoYVSv.s:29491  .debug_str:000000000001b9cc .LASF3265
C:\Users\CYMR90~1\AppData\Local\Temp\ccZoYVSv.s:28242  .debug_str:0000000000016699 .LASF3266
C:\Users\CYMR90~1\AppData\Local\Temp\ccZoYVSv.s:32021  .debug_str:00000000000256d3 .LASF3267
C:\Users\CYMR90~1\AppData\Local\Temp\ccZoYVSv.s:26566  .debug_str:000000000000fbf8 .LASF3268
C:\Users\CYMR90~1\AppData\Local\Temp\ccZoYVSv.s:31481  .debug_str:00000000000234c1 .LASF3269
C:\Users\CYMR90~1\AppData\Local\Temp\ccZoYVSv.s:27474  .debug_str:0000000000013644 .LASF3270
C:\Users\CYMR90~1\AppData\Local\Temp\ccZoYVSv.s:29983  .debug_str:000000000001d913 .LASF3271
C:\Users\CYMR90~1\AppData\Local\Temp\ccZoYVSv.s:32703  .debug_str:00000000000283b7 .LASF3272
C:\Users\CYMR90~1\AppData\Local\Temp\ccZoYVSv.s:33967  .debug_str:000000000002d2be .LASF3273
C:\Users\CYMR90~1\AppData\Local\Temp\ccZoYVSv.s:24530  .debug_str:00000000000077e5 .LASF3274
C:\Users\CYMR90~1\AppData\Local\Temp\ccZoYVSv.s:23632  .debug_str:0000000000003eaa .LASF3275
C:\Users\CYMR90~1\AppData\Local\Temp\ccZoYVSv.s:33645  .debug_str:000000000002bd3c .LASF3276
C:\Users\CYMR90~1\AppData\Local\Temp\ccZoYVSv.s:25426  .debug_str:000000000000b301 .LASF3277
C:\Users\CYMR90~1\AppData\Local\Temp\ccZoYVSv.s:27634  .debug_str:000000000001406f .LASF3278
C:\Users\CYMR90~1\AppData\Local\Temp\ccZoYVSv.s:23914  .debug_str:0000000000005189 .LASF3279
C:\Users\CYMR90~1\AppData\Local\Temp\ccZoYVSv.s:25300  .debug_str:000000000000a968 .LASF3280
C:\Users\CYMR90~1\AppData\Local\Temp\ccZoYVSv.s:24112  .debug_str:0000000000005dd1 .LASF3281
C:\Users\CYMR90~1\AppData\Local\Temp\ccZoYVSv.s:25522  .debug_str:000000000000b8fa .LASF3282
C:\Users\CYMR90~1\AppData\Local\Temp\ccZoYVSv.s:24048  .debug_str:00000000000059bd .LASF3283
C:\Users\CYMR90~1\AppData\Local\Temp\ccZoYVSv.s:27184  .debug_str:00000000000122fe .LASF3284
C:\Users\CYMR90~1\AppData\Local\Temp\ccZoYVSv.s:32693  .debug_str:000000000002831a .LASF3285
C:\Users\CYMR90~1\AppData\Local\Temp\ccZoYVSv.s:29001  .debug_str:00000000000198fe .LASF3286
C:\Users\CYMR90~1\AppData\Local\Temp\ccZoYVSv.s:27778  .debug_str:0000000000014946 .LASF3287
C:\Users\CYMR90~1\AppData\Local\Temp\ccZoYVSv.s:33999  .debug_str:000000000002d4fe .LASF3288
C:\Users\CYMR90~1\AppData\Local\Temp\ccZoYVSv.s:30497  .debug_str:000000000001f903 .LASF3289
C:\Users\CYMR90~1\AppData\Local\Temp\ccZoYVSv.s:27118  .debug_str:0000000000011ed5 .LASF3290
C:\Users\CYMR90~1\AppData\Local\Temp\ccZoYVSv.s:24230  .debug_str:00000000000064d6 .LASF3291
C:\Users\CYMR90~1\AppData\Local\Temp\ccZoYVSv.s:31623  .debug_str:0000000000023ce6 .LASF3292
C:\Users\CYMR90~1\AppData\Local\Temp\ccZoYVSv.s:28134  .debug_str:0000000000015f76 .LASF3293
C:\Users\CYMR90~1\AppData\Local\Temp\ccZoYVSv.s:24746  .debug_str:0000000000008721 .LASF3294
C:\Users\CYMR90~1\AppData\Local\Temp\ccZoYVSv.s:28689  .debug_str:0000000000018444 .LASF3295
C:\Users\CYMR90~1\AppData\Local\Temp\ccZoYVSv.s:33711  .debug_str:000000000002c1be .LASF3296
C:\Users\CYMR90~1\AppData\Local\Temp\ccZoYVSv.s:32255  .debug_str:0000000000026764 .LASF3297
C:\Users\CYMR90~1\AppData\Local\Temp\ccZoYVSv.s:23034  .debug_str:000000000000195e .LASF3298
C:\Users\CYMR90~1\AppData\Local\Temp\ccZoYVSv.s:24086  .debug_str:0000000000005bfa .LASF3299
C:\Users\CYMR90~1\AppData\Local\Temp\ccZoYVSv.s:30281  .debug_str:000000000001ebcc .LASF3300
C:\Users\CYMR90~1\AppData\Local\Temp\ccZoYVSv.s:24178  .debug_str:0000000000006189 .LASF3301
C:\Users\CYMR90~1\AppData\Local\Temp\ccZoYVSv.s:31669  .debug_str:0000000000023ff6 .LASF3302
C:\Users\CYMR90~1\AppData\Local\Temp\ccZoYVSv.s:23030  .debug_str:0000000000001917 .LASF3303
C:\Users\CYMR90~1\AppData\Local\Temp\ccZoYVSv.s:28799  .debug_str:0000000000018b0d .LASF3304
C:\Users\CYMR90~1\AppData\Local\Temp\ccZoYVSv.s:33949  .debug_str:000000000002d1a1 .LASF3305
C:\Users\CYMR90~1\AppData\Local\Temp\ccZoYVSv.s:25496  .debug_str:000000000000b6df .LASF3306
C:\Users\CYMR90~1\AppData\Local\Temp\ccZoYVSv.s:28669  .debug_str:000000000001832e .LASF3307
C:\Users\CYMR90~1\AppData\Local\Temp\ccZoYVSv.s:22962  .debug_str:00000000000014bc .LASF3308
C:\Users\CYMR90~1\AppData\Local\Temp\ccZoYVSv.s:29755  .debug_str:000000000001c949 .LASF3309
C:\Users\CYMR90~1\AppData\Local\Temp\ccZoYVSv.s:25712  .debug_str:000000000000c5fb .LASF3310
C:\Users\CYMR90~1\AppData\Local\Temp\ccZoYVSv.s:25980  .debug_str:000000000000d760 .LASF3311
C:\Users\CYMR90~1\AppData\Local\Temp\ccZoYVSv.s:33705  .debug_str:000000000002c162 .LASF3312
C:\Users\CYMR90~1\AppData\Local\Temp\ccZoYVSv.s:30705  .debug_str:00000000000205bd .LASF3313
C:\Users\CYMR90~1\AppData\Local\Temp\ccZoYVSv.s:26464  .debug_str:000000000000f52d .LASF3314
C:\Users\CYMR90~1\AppData\Local\Temp\ccZoYVSv.s:32181  .debug_str:0000000000026313 .LASF3315
C:\Users\CYMR90~1\AppData\Local\Temp\ccZoYVSv.s:31105  .debug_str:0000000000021e1e .LASF3316
C:\Users\CYMR90~1\AppData\Local\Temp\ccZoYVSv.s:26716  .debug_str:000000000001050e .LASF3317
C:\Users\CYMR90~1\AppData\Local\Temp\ccZoYVSv.s:30703  .debug_str:0000000000020596 .LASF3318
C:\Users\CYMR90~1\AppData\Local\Temp\ccZoYVSv.s:27786  .debug_str:0000000000014a0d .LASF3319
C:\Users\CYMR90~1\AppData\Local\Temp\ccZoYVSv.s:33581  .debug_str:000000000002b92f .LASF3320
C:\Users\CYMR90~1\AppData\Local\Temp\ccZoYVSv.s:22702  .debug_str:000000000000046f .LASF3321
C:\Users\CYMR90~1\AppData\Local\Temp\ccZoYVSv.s:30733  .debug_str:0000000000020742 .LASF3322
C:\Users\CYMR90~1\AppData\Local\Temp\ccZoYVSv.s:32319  .debug_str:0000000000026b81 .LASF3323
C:\Users\CYMR90~1\AppData\Local\Temp\ccZoYVSv.s:34001  .debug_str:000000000002d525 .LASF3324
C:\Users\CYMR90~1\AppData\Local\Temp\ccZoYVSv.s:25134  .debug_str:0000000000009f72 .LASF3325
C:\Users\CYMR90~1\AppData\Local\Temp\ccZoYVSv.s:29041  .debug_str:0000000000019b79 .LASF3326
C:\Users\CYMR90~1\AppData\Local\Temp\ccZoYVSv.s:26436  .debug_str:000000000000f360 .LASF3327
C:\Users\CYMR90~1\AppData\Local\Temp\ccZoYVSv.s:30417  .debug_str:000000000001f3c3 .LASF3328
C:\Users\CYMR90~1\AppData\Local\Temp\ccZoYVSv.s:28853  .debug_str:0000000000018e7d .LASF3329
C:\Users\CYMR90~1\AppData\Local\Temp\ccZoYVSv.s:33511  .debug_str:000000000002b511 .LASF3330
C:\Users\CYMR90~1\AppData\Local\Temp\ccZoYVSv.s:29635  .debug_str:000000000001c246 .LASF3331
C:\Users\CYMR90~1\AppData\Local\Temp\ccZoYVSv.s:23620  .debug_str:0000000000003deb .LASF3332
C:\Users\CYMR90~1\AppData\Local\Temp\ccZoYVSv.s:25406  .debug_str:000000000000b13a .LASF3333
C:\Users\CYMR90~1\AppData\Local\Temp\ccZoYVSv.s:26460  .debug_str:000000000000f4df .LASF3334
C:\Users\CYMR90~1\AppData\Local\Temp\ccZoYVSv.s:31183  .debug_str:0000000000022309 .LASF3335
C:\Users\CYMR90~1\AppData\Local\Temp\ccZoYVSv.s:28354  .debug_str:0000000000016e6e .LASF3336
C:\Users\CYMR90~1\AppData\Local\Temp\ccZoYVSv.s:30175  .debug_str:000000000001e5a7 .LASF3337
C:\Users\CYMR90~1\AppData\Local\Temp\ccZoYVSv.s:30069  .debug_str:000000000001de93 .LASF3338
C:\Users\CYMR90~1\AppData\Local\Temp\ccZoYVSv.s:31205  .debug_str:000000000002246b .LASF3339
C:\Users\CYMR90~1\AppData\Local\Temp\ccZoYVSv.s:25368  .debug_str:000000000000aeb2 .LASF3340
C:\Users\CYMR90~1\AppData\Local\Temp\ccZoYVSv.s:27752  .debug_str:00000000000147b0 .LASF3341
C:\Users\CYMR90~1\AppData\Local\Temp\ccZoYVSv.s:29115  .debug_str:000000000001a0bc .LASF3342
C:\Users\CYMR90~1\AppData\Local\Temp\ccZoYVSv.s:30931  .debug_str:0000000000021375 .LASF3343
C:\Users\CYMR90~1\AppData\Local\Temp\ccZoYVSv.s:27360  .debug_str:0000000000012e85 .LASF3344
C:\Users\CYMR90~1\AppData\Local\Temp\ccZoYVSv.s:29463  .debug_str:000000000001b811 .LASF3345
C:\Users\CYMR90~1\AppData\Local\Temp\ccZoYVSv.s:29331  .debug_str:000000000001af48 .LASF3346
C:\Users\CYMR90~1\AppData\Local\Temp\ccZoYVSv.s:23934  .debug_str:00000000000052c2 .LASF3347
C:\Users\CYMR90~1\AppData\Local\Temp\ccZoYVSv.s:30781  .debug_str:00000000000209e6 .LASF3348
C:\Users\CYMR90~1\AppData\Local\Temp\ccZoYVSv.s:27440  .debug_str:00000000000133c6 .LASF3349
C:\Users\CYMR90~1\AppData\Local\Temp\ccZoYVSv.s:25242  .debug_str:000000000000a63b .LASF3350
C:\Users\CYMR90~1\AppData\Local\Temp\ccZoYVSv.s:29797  .debug_str:000000000001cbe2 .LASF3351
C:\Users\CYMR90~1\AppData\Local\Temp\ccZoYVSv.s:24446  .debug_str:000000000000724b .LASF3352
C:\Users\CYMR90~1\AppData\Local\Temp\ccZoYVSv.s:32509  .debug_str:000000000002772f .LASF3353
C:\Users\CYMR90~1\AppData\Local\Temp\ccZoYVSv.s:23840  .debug_str:0000000000004d02 .LASF3354
C:\Users\CYMR90~1\AppData\Local\Temp\ccZoYVSv.s:24176  .debug_str:0000000000006178 .LASF3355
C:\Users\CYMR90~1\AppData\Local\Temp\ccZoYVSv.s:23148  .debug_str:0000000000002035 .LASF3356
C:\Users\CYMR90~1\AppData\Local\Temp\ccZoYVSv.s:28747  .debug_str:00000000000187e7 .LASF3357
C:\Users\CYMR90~1\AppData\Local\Temp\ccZoYVSv.s:28467  .debug_str:00000000000176af .LASF3358
C:\Users\CYMR90~1\AppData\Local\Temp\ccZoYVSv.s:29517  .debug_str:000000000001bb3e .LASF3359
C:\Users\CYMR90~1\AppData\Local\Temp\ccZoYVSv.s:26134  .debug_str:000000000000e11f .LASF3360
C:\Users\CYMR90~1\AppData\Local\Temp\ccZoYVSv.s:30923  .debug_str:00000000000212f3 .LASF3361
C:\Users\CYMR90~1\AppData\Local\Temp\ccZoYVSv.s:31821  .debug_str:000000000002498a .LASF3362
C:\Users\CYMR90~1\AppData\Local\Temp\ccZoYVSv.s:32705  .debug_str:00000000000283ce .LASF3363
C:\Users\CYMR90~1\AppData\Local\Temp\ccZoYVSv.s:31057  .debug_str:0000000000021b5b .LASF3364
C:\Users\CYMR90~1\AppData\Local\Temp\ccZoYVSv.s:32777  .debug_str:00000000000288c6 .LASF3365
C:\Users\CYMR90~1\AppData\Local\Temp\ccZoYVSv.s:24464  .debug_str:00000000000073b9 .LASF3366
C:\Users\CYMR90~1\AppData\Local\Temp\ccZoYVSv.s:29525  .debug_str:000000000001bbcb .LASF3367
C:\Users\CYMR90~1\AppData\Local\Temp\ccZoYVSv.s:23238  .debug_str:00000000000024f7 .LASF3368
C:\Users\CYMR90~1\AppData\Local\Temp\ccZoYVSv.s:32099  .debug_str:0000000000025cbe .LASF3369
C:\Users\CYMR90~1\AppData\Local\Temp\ccZoYVSv.s:25718  .debug_str:000000000000c67a .LASF3370
C:\Users\CYMR90~1\AppData\Local\Temp\ccZoYVSv.s:28218  .debug_str:0000000000016526 .LASF3371
C:\Users\CYMR90~1\AppData\Local\Temp\ccZoYVSv.s:32543  .debug_str:0000000000027928 .LASF3372
C:\Users\CYMR90~1\AppData\Local\Temp\ccZoYVSv.s:25356  .debug_str:000000000000ade2 .LASF3373
C:\Users\CYMR90~1\AppData\Local\Temp\ccZoYVSv.s:26212  .debug_str:000000000000e5ee .LASF3374
C:\Users\CYMR90~1\AppData\Local\Temp\ccZoYVSv.s:23844  .debug_str:0000000000004d51 .LASF3375
C:\Users\CYMR90~1\AppData\Local\Temp\ccZoYVSv.s:22814  .debug_str:0000000000000b8d .LASF3376
C:\Users\CYMR90~1\AppData\Local\Temp\ccZoYVSv.s:26156  .debug_str:000000000000e279 .LASF3377
C:\Users\CYMR90~1\AppData\Local\Temp\ccZoYVSv.s:25374  .debug_str:000000000000af07 .LASF3378
C:\Users\CYMR90~1\AppData\Local\Temp\ccZoYVSv.s:23540  .debug_str:00000000000038c7 .LASF3379
C:\Users\CYMR90~1\AppData\Local\Temp\ccZoYVSv.s:22992  .debug_str:000000000000163c .LASF3380
C:\Users\CYMR90~1\AppData\Local\Temp\ccZoYVSv.s:28765  .debug_str:000000000001892b .LASF3381
C:\Users\CYMR90~1\AppData\Local\Temp\ccZoYVSv.s:26368  .debug_str:000000000000efb0 .LASF3382
C:\Users\CYMR90~1\AppData\Local\Temp\ccZoYVSv.s:27428  .debug_str:00000000000132fa .LASF3383
C:\Users\CYMR90~1\AppData\Local\Temp\ccZoYVSv.s:29121  .debug_str:000000000001a124 .LASF3384
C:\Users\CYMR90~1\AppData\Local\Temp\ccZoYVSv.s:33473  .debug_str:000000000002b2ce .LASF3385
C:\Users\CYMR90~1\AppData\Local\Temp\ccZoYVSv.s:28306  .debug_str:0000000000016a9c .LASF3386
C:\Users\CYMR90~1\AppData\Local\Temp\ccZoYVSv.s:27340  .debug_str:0000000000012d56 .LASF3387
C:\Users\CYMR90~1\AppData\Local\Temp\ccZoYVSv.s:29417  .debug_str:000000000001b50f .LASF3388
C:\Users\CYMR90~1\AppData\Local\Temp\ccZoYVSv.s:32375  .debug_str:0000000000026ef0 .LASF3389
C:\Users\CYMR90~1\AppData\Local\Temp\ccZoYVSv.s:24684  .debug_str:000000000000833b .LASF3390
C:\Users\CYMR90~1\AppData\Local\Temp\ccZoYVSv.s:23358  .debug_str:0000000000002d07 .LASF3391
C:\Users\CYMR90~1\AppData\Local\Temp\ccZoYVSv.s:31143  .debug_str:000000000002206e .LASF3392
C:\Users\CYMR90~1\AppData\Local\Temp\ccZoYVSv.s:30451  .debug_str:000000000001f640 .LASF3393
C:\Users\CYMR90~1\AppData\Local\Temp\ccZoYVSv.s:30745  .debug_str:00000000000207e5 .LASF3394
C:\Users\CYMR90~1\AppData\Local\Temp\ccZoYVSv.s:31303  .debug_str:00000000000229e6 .LASF3395
C:\Users\CYMR90~1\AppData\Local\Temp\ccZoYVSv.s:26850  .debug_str:0000000000010d22 .LASF3396
C:\Users\CYMR90~1\AppData\Local\Temp\ccZoYVSv.s:24390  .debug_str:0000000000006ede .LASF3397
C:\Users\CYMR90~1\AppData\Local\Temp\ccZoYVSv.s:33631  .debug_str:000000000002bc98 .LASF3398
C:\Users\CYMR90~1\AppData\Local\Temp\ccZoYVSv.s:33463  .debug_str:000000000002b245 .LASF3399
C:\Users\CYMR90~1\AppData\Local\Temp\ccZoYVSv.s:23008  .debug_str:0000000000001737 .LASF3400
C:\Users\CYMR90~1\AppData\Local\Temp\ccZoYVSv.s:22796  .debug_str:0000000000000a0b .LASF3401
C:\Users\CYMR90~1\AppData\Local\Temp\ccZoYVSv.s:32475  .debug_str:00000000000274e7 .LASF3402
C:\Users\CYMR90~1\AppData\Local\Temp\ccZoYVSv.s:26632  .debug_str:000000000000ffbf .LASF3403
C:\Users\CYMR90~1\AppData\Local\Temp\ccZoYVSv.s:33939  .debug_str:000000000002d0ea .LASF3404
C:\Users\CYMR90~1\AppData\Local\Temp\ccZoYVSv.s:28931  .debug_str:00000000000194d8 .LASF3405
C:\Users\CYMR90~1\AppData\Local\Temp\ccZoYVSv.s:33569  .debug_str:000000000002b83d .LASF3406
C:\Users\CYMR90~1\AppData\Local\Temp\ccZoYVSv.s:28977  .debug_str:0000000000019778 .LASF3407
C:\Users\CYMR90~1\AppData\Local\Temp\ccZoYVSv.s:31289  .debug_str:000000000002293a .LASF3408
C:\Users\CYMR90~1\AppData\Local\Temp\ccZoYVSv.s:27686  .debug_str:000000000001438d .LASF3409
C:\Users\CYMR90~1\AppData\Local\Temp\ccZoYVSv.s:25818  .debug_str:000000000000ccf4 .LASF3410
C:\Users\CYMR90~1\AppData\Local\Temp\ccZoYVSv.s:23424  .debug_str:0000000000003117 .LASF3411
C:\Users\CYMR90~1\AppData\Local\Temp\ccZoYVSv.s:29297  .debug_str:000000000001ad1e .LASF3412
C:\Users\CYMR90~1\AppData\Local\Temp\ccZoYVSv.s:30533  .debug_str:000000000001fb0a .LASF3413
C:\Users\CYMR90~1\AppData\Local\Temp\ccZoYVSv.s:33267  .debug_str:000000000002a6e3 .LASF3414
C:\Users\CYMR90~1\AppData\Local\Temp\ccZoYVSv.s:32461  .debug_str:0000000000027454 .LASF3415
C:\Users\CYMR90~1\AppData\Local\Temp\ccZoYVSv.s:31351  .debug_str:0000000000022c80 .LASF3416
C:\Users\CYMR90~1\AppData\Local\Temp\ccZoYVSv.s:32041  .debug_str:0000000000025815 .LASF3417
C:\Users\CYMR90~1\AppData\Local\Temp\ccZoYVSv.s:30123  .debug_str:000000000001e249 .LASF3418
C:\Users\CYMR90~1\AppData\Local\Temp\ccZoYVSv.s:30185  .debug_str:000000000001e65a .LASF3419
C:\Users\CYMR90~1\AppData\Local\Temp\ccZoYVSv.s:29205  .debug_str:000000000001a5d0 .LASF3420
C:\Users\CYMR90~1\AppData\Local\Temp\ccZoYVSv.s:22696  .debug_str:0000000000000422 .LASF3421
C:\Users\CYMR90~1\AppData\Local\Temp\ccZoYVSv.s:28557  .debug_str:0000000000017c4d .LASF3422
C:\Users\CYMR90~1\AppData\Local\Temp\ccZoYVSv.s:32227  .debug_str:00000000000265c2 .LASF3423
C:\Users\CYMR90~1\AppData\Local\Temp\ccZoYVSv.s:23966  .debug_str:00000000000054c4 .LASF3424
C:\Users\CYMR90~1\AppData\Local\Temp\ccZoYVSv.s:23044  .debug_str:0000000000001a0b .LASF3425
C:\Users\CYMR90~1\AppData\Local\Temp\ccZoYVSv.s:28088  .debug_str:0000000000015c89 .LASF3426
C:\Users\CYMR90~1\AppData\Local\Temp\ccZoYVSv.s:26540  .debug_str:000000000000f9bc .LASF3427
C:\Users\CYMR90~1\AppData\Local\Temp\ccZoYVSv.s:32125  .debug_str:0000000000025edf .LASF3428
C:\Users\CYMR90~1\AppData\Local\Temp\ccZoYVSv.s:30201  .debug_str:000000000001e745 .LASF3429
C:\Users\CYMR90~1\AppData\Local\Temp\ccZoYVSv.s:23138  .debug_str:0000000000001f7c .LASF3430
C:\Users\CYMR90~1\AppData\Local\Temp\ccZoYVSv.s:30513  .debug_str:000000000001f9f7 .LASF3431
C:\Users\CYMR90~1\AppData\Local\Temp\ccZoYVSv.s:25016  .debug_str:000000000000984b .LASF3432
C:\Users\CYMR90~1\AppData\Local\Temp\ccZoYVSv.s:28677  .debug_str:00000000000183b0 .LASF3433
C:\Users\CYMR90~1\AppData\Local\Temp\ccZoYVSv.s:32331  .debug_str:0000000000026c27 .LASF3434
C:\Users\CYMR90~1\AppData\Local\Temp\ccZoYVSv.s:26174  .debug_str:000000000000e386 .LASF3435
C:\Users\CYMR90~1\AppData\Local\Temp\ccZoYVSv.s:30261  .debug_str:000000000001eae7 .LASF3436
C:\Users\CYMR90~1\AppData\Local\Temp\ccZoYVSv.s:33833  .debug_str:000000000002c9da .LASF3437
C:\Users\CYMR90~1\AppData\Local\Temp\ccZoYVSv.s:26488  .debug_str:000000000000f6c8 .LASF3438
C:\Users\CYMR90~1\AppData\Local\Temp\ccZoYVSv.s:28208  .debug_str:00000000000164a8 .LASF3439
C:\Users\CYMR90~1\AppData\Local\Temp\ccZoYVSv.s:23830  .debug_str:0000000000004c62 .LASF3440
C:\Users\CYMR90~1\AppData\Local\Temp\ccZoYVSv.s:30447  .debug_str:000000000001f60c .LASF3441
C:\Users\CYMR90~1\AppData\Local\Temp\ccZoYVSv.s:26184  .debug_str:000000000000e426 .LASF3442
C:\Users\CYMR90~1\AppData\Local\Temp\ccZoYVSv.s:33583  .debug_str:000000000002b956 .LASF3443
C:\Users\CYMR90~1\AppData\Local\Temp\ccZoYVSv.s:31133  .debug_str:0000000000021ff6 .LASF3444
C:\Users\CYMR90~1\AppData\Local\Temp\ccZoYVSv.s:28447  .debug_str:0000000000017579 .LASF3445
C:\Users\CYMR90~1\AppData\Local\Temp\ccZoYVSv.s:29993  .debug_str:000000000001d9c0 .LASF3446
C:\Users\CYMR90~1\AppData\Local\Temp\ccZoYVSv.s:28499  .debug_str:000000000001789b .LASF3447
C:\Users\CYMR90~1\AppData\Local\Temp\ccZoYVSv.s:32061  .debug_str:00000000000259bf .LASF3448
C:\Users\CYMR90~1\AppData\Local\Temp\ccZoYVSv.s:24002  .debug_str:000000000000570a .LASF3449
C:\Users\CYMR90~1\AppData\Local\Temp\ccZoYVSv.s:31107  .debug_str:0000000000021e5d .LASF3450
C:\Users\CYMR90~1\AppData\Local\Temp\ccZoYVSv.s:26738  .debug_str:0000000000010654 .LASF3451
C:\Users\CYMR90~1\AppData\Local\Temp\ccZoYVSv.s:27884  .debug_str:0000000000015005 .LASF3452
C:\Users\CYMR90~1\AppData\Local\Temp\ccZoYVSv.s:33959  .debug_str:000000000002d260 .LASF3453
C:\Users\CYMR90~1\AppData\Local\Temp\ccZoYVSv.s:25904  .debug_str:000000000000d20c .LASF3454
C:\Users\CYMR90~1\AppData\Local\Temp\ccZoYVSv.s:28729  .debug_str:00000000000186ea .LASF3455
C:\Users\CYMR90~1\AppData\Local\Temp\ccZoYVSv.s:25046  .debug_str:0000000000009a02 .LASF3456
C:\Users\CYMR90~1\AppData\Local\Temp\ccZoYVSv.s:32329  .debug_str:0000000000026c0a .LASF3457
C:\Users\CYMR90~1\AppData\Local\Temp\ccZoYVSv.s:33403  .debug_str:000000000002aee7 .LASF3458
C:\Users\CYMR90~1\AppData\Local\Temp\ccZoYVSv.s:25606  .debug_str:000000000000be76 .LASF3459
C:\Users\CYMR90~1\AppData\Local\Temp\ccZoYVSv.s:25254  .debug_str:000000000000a6ff .LASF3460
C:\Users\CYMR90~1\AppData\Local\Temp\ccZoYVSv.s:29641  .debug_str:000000000001c29e .LASF3461
C:\Users\CYMR90~1\AppData\Local\Temp\ccZoYVSv.s:33279  .debug_str:000000000002a792 .LASF3462
C:\Users\CYMR90~1\AppData\Local\Temp\ccZoYVSv.s:23210  .debug_str:0000000000002382 .LASF3463
C:\Users\CYMR90~1\AppData\Local\Temp\ccZoYVSv.s:32389  .debug_str:0000000000027004 .LASF3464
C:\Users\CYMR90~1\AppData\Local\Temp\ccZoYVSv.s:29071  .debug_str:0000000000019e17 .LASF3465
C:\Users\CYMR90~1\AppData\Local\Temp\ccZoYVSv.s:28995  .debug_str:00000000000198ac .LASF3466
C:\Users\CYMR90~1\AppData\Local\Temp\ccZoYVSv.s:29421  .debug_str:000000000001b54f .LASF3467
C:\Users\CYMR90~1\AppData\Local\Temp\ccZoYVSv.s:23218  .debug_str:00000000000023ec .LASF3468
C:\Users\CYMR90~1\AppData\Local\Temp\ccZoYVSv.s:32731  .debug_str:000000000002859a .LASF3469
C:\Users\CYMR90~1\AppData\Local\Temp\ccZoYVSv.s:30083  .debug_str:000000000001df8b .LASF3470
C:\Users\CYMR90~1\AppData\Local\Temp\ccZoYVSv.s:32079  .debug_str:0000000000025b90 .LASF3471
C:\Users\CYMR90~1\AppData\Local\Temp\ccZoYVSv.s:31353  .debug_str:0000000000022c9c .LASF3472
C:\Users\CYMR90~1\AppData\Local\Temp\ccZoYVSv.s:30877  .debug_str:0000000000020fcb .LASF3473
C:\Users\CYMR90~1\AppData\Local\Temp\ccZoYVSv.s:33787  .debug_str:000000000002c704 .LASF3474
C:\Users\CYMR90~1\AppData\Local\Temp\ccZoYVSv.s:33527  .debug_str:000000000002b601 .LASF3475
C:\Users\CYMR90~1\AppData\Local\Temp\ccZoYVSv.s:22754  .debug_str:0000000000000796 .LASF3476
C:\Users\CYMR90~1\AppData\Local\Temp\ccZoYVSv.s:26404  .debug_str:000000000000f185 .LASF3477
C:\Users\CYMR90~1\AppData\Local\Temp\ccZoYVSv.s:27790  .debug_str:0000000000014a60 .LASF3478
C:\Users\CYMR90~1\AppData\Local\Temp\ccZoYVSv.s:31681  .debug_str:0000000000024093 .LASF3479
C:\Users\CYMR90~1\AppData\Local\Temp\ccZoYVSv.s:29251  .debug_str:000000000001a9eb .LASF3480
C:\Users\CYMR90~1\AppData\Local\Temp\ccZoYVSv.s:28389  .debug_str:000000000001723d .LASF3481
C:\Users\CYMR90~1\AppData\Local\Temp\ccZoYVSv.s:32465  .debug_str:000000000002747b .LASF3482
C:\Users\CYMR90~1\AppData\Local\Temp\ccZoYVSv.s:33351  .debug_str:000000000002abbb .LASF3483
C:\Users\CYMR90~1\AppData\Local\Temp\ccZoYVSv.s:25956  .debug_str:000000000000d599 .LASF3484
C:\Users\CYMR90~1\AppData\Local\Temp\ccZoYVSv.s:28443  .debug_str:0000000000017544 .LASF3485
C:\Users\CYMR90~1\AppData\Local\Temp\ccZoYVSv.s:27768  .debug_str:000000000001489f .LASF3486
C:\Users\CYMR90~1\AppData\Local\Temp\ccZoYVSv.s:27854  .debug_str:0000000000014e3d .LASF3487
C:\Users\CYMR90~1\AppData\Local\Temp\ccZoYVSv.s:30229  .debug_str:000000000001e8f2 .LASF3488
C:\Users\CYMR90~1\AppData\Local\Temp\ccZoYVSv.s:33151  .debug_str:000000000002a01d .LASF3489
C:\Users\CYMR90~1\AppData\Local\Temp\ccZoYVSv.s:23352  .debug_str:0000000000002cc1 .LASF3490
C:\Users\CYMR90~1\AppData\Local\Temp\ccZoYVSv.s:30431  .debug_str:000000000001f4d1 .LASF3491
C:\Users\CYMR90~1\AppData\Local\Temp\ccZoYVSv.s:25176  .debug_str:000000000000a231 .LASF3492
C:\Users\CYMR90~1\AppData\Local\Temp\ccZoYVSv.s:23478  .debug_str:00000000000034c1 .LASF3493
C:\Users\CYMR90~1\AppData\Local\Temp\ccZoYVSv.s:25424  .debug_str:000000000000b2e8 .LASF3494
C:\Users\CYMR90~1\AppData\Local\Temp\ccZoYVSv.s:24354  .debug_str:0000000000006c86 .LASF3495
C:\Users\CYMR90~1\AppData\Local\Temp\ccZoYVSv.s:31995  .debug_str:000000000002550b .LASF3496
C:\Users\CYMR90~1\AppData\Local\Temp\ccZoYVSv.s:29317  .debug_str:000000000001ae53 .LASF3497
C:\Users\CYMR90~1\AppData\Local\Temp\ccZoYVSv.s:29175  .debug_str:000000000001a42f .LASF3498
C:\Users\CYMR90~1\AppData\Local\Temp\ccZoYVSv.s:24312  .debug_str:00000000000069fa .LASF3499
C:\Users\CYMR90~1\AppData\Local\Temp\ccZoYVSv.s:26280  .debug_str:000000000000ea27 .LASF3500
C:\Users\CYMR90~1\AppData\Local\Temp\ccZoYVSv.s:26120  .debug_str:000000000000dffb .LASF3501
C:\Users\CYMR90~1\AppData\Local\Temp\ccZoYVSv.s:24748  .debug_str:0000000000008748 .LASF3502
C:\Users\CYMR90~1\AppData\Local\Temp\ccZoYVSv.s:24930  .debug_str:0000000000009309 .LASF3503
C:\Users\CYMR90~1\AppData\Local\Temp\ccZoYVSv.s:25524  .debug_str:000000000000b91c .LASF3504
C:\Users\CYMR90~1\AppData\Local\Temp\ccZoYVSv.s:23502  .debug_str:0000000000003646 .LASF3505
C:\Users\CYMR90~1\AppData\Local\Temp\ccZoYVSv.s:24858  .debug_str:0000000000008e53 .LASF3506
C:\Users\CYMR90~1\AppData\Local\Temp\ccZoYVSv.s:22678  .debug_str:0000000000000307 .LASF3507
C:\Users\CYMR90~1\AppData\Local\Temp\ccZoYVSv.s:28439  .debug_str:0000000000017516 .LASF3508
C:\Users\CYMR90~1\AppData\Local\Temp\ccZoYVSv.s:25678  .debug_str:000000000000c3d2 .LASF3509
C:\Users\CYMR90~1\AppData\Local\Temp\ccZoYVSv.s:31619  .debug_str:0000000000023cac .LASF3510
C:\Users\CYMR90~1\AppData\Local\Temp\ccZoYVSv.s:33703  .debug_str:000000000002c148 .LASF3511
C:\Users\CYMR90~1\AppData\Local\Temp\ccZoYVSv.s:27238  .debug_str:0000000000012680 .LASF3512
C:\Users\CYMR90~1\AppData\Local\Temp\ccZoYVSv.s:27090  .debug_str:0000000000011d20 .LASF3513
C:\Users\CYMR90~1\AppData\Local\Temp\ccZoYVSv.s:29435  .debug_str:000000000001b661 .LASF3514
C:\Users\CYMR90~1\AppData\Local\Temp\ccZoYVSv.s:31631  .debug_str:0000000000023d72 .LASF3515
C:\Users\CYMR90~1\AppData\Local\Temp\ccZoYVSv.s:33085  .debug_str:0000000000029c07 .LASF3516
C:\Users\CYMR90~1\AppData\Local\Temp\ccZoYVSv.s:29087  .debug_str:0000000000019f07 .LASF3517
C:\Users\CYMR90~1\AppData\Local\Temp\ccZoYVSv.s:30415  .debug_str:000000000001f3a4 .LASF3518
C:\Users\CYMR90~1\AppData\Local\Temp\ccZoYVSv.s:31553  .debug_str:0000000000023890 .LASF3519
C:\Users\CYMR90~1\AppData\Local\Temp\ccZoYVSv.s:32417  .debug_str:00000000000271b3 .LASF3520
C:\Users\CYMR90~1\AppData\Local\Temp\ccZoYVSv.s:22856  .debug_str:0000000000000e00 .LASF3521
C:\Users\CYMR90~1\AppData\Local\Temp\ccZoYVSv.s:26350  .debug_str:000000000000ee9b .LASF3522
C:\Users\CYMR90~1\AppData\Local\Temp\ccZoYVSv.s:33783  .debug_str:000000000002c6d3 .LASF3523
C:\Users\CYMR90~1\AppData\Local\Temp\ccZoYVSv.s:32557  .debug_str:00000000000279ed .LASF3524
C:\Users\CYMR90~1\AppData\Local\Temp\ccZoYVSv.s:23336  .debug_str:0000000000002b75 .LASF3525
C:\Users\CYMR90~1\AppData\Local\Temp\ccZoYVSv.s:23018  .debug_str:00000000000017be .LASF3526
C:\Users\CYMR90~1\AppData\Local\Temp\ccZoYVSv.s:24474  .debug_str:000000000000748d .LASF3527
C:\Users\CYMR90~1\AppData\Local\Temp\ccZoYVSv.s:25878  .debug_str:000000000000d029 .LASF3528
C:\Users\CYMR90~1\AppData\Local\Temp\ccZoYVSv.s:24214  .debug_str:0000000000006404 .LASF3529
C:\Users\CYMR90~1\AppData\Local\Temp\ccZoYVSv.s:30991  .debug_str:00000000000216f6 .LASF3530
C:\Users\CYMR90~1\AppData\Local\Temp\ccZoYVSv.s:31259  .debug_str:000000000002276c .LASF3531
C:\Users\CYMR90~1\AppData\Local\Temp\ccZoYVSv.s:25024  .debug_str:00000000000098bf .LASF3532
C:\Users\CYMR90~1\AppData\Local\Temp\ccZoYVSv.s:31677  .debug_str:0000000000024065 .LASF3533
C:\Users\CYMR90~1\AppData\Local\Temp\ccZoYVSv.s:33907  .debug_str:000000000002ceb3 .LASF3534
C:\Users\CYMR90~1\AppData\Local\Temp\ccZoYVSv.s:26672  .debug_str:0000000000010260 .LASF3535
C:\Users\CYMR90~1\AppData\Local\Temp\ccZoYVSv.s:28100  .debug_str:0000000000015d3b .LASF3536
C:\Users\CYMR90~1\AppData\Local\Temp\ccZoYVSv.s:30359  .debug_str:000000000001f092 .LASF3537
C:\Users\CYMR90~1\AppData\Local\Temp\ccZoYVSv.s:23792  .debug_str:00000000000049a3 .LASF3538
C:\Users\CYMR90~1\AppData\Local\Temp\ccZoYVSv.s:23088  .debug_str:0000000000001ca4 .LASF3539
C:\Users\CYMR90~1\AppData\Local\Temp\ccZoYVSv.s:25114  .debug_str:0000000000009e6a .LASF3540
C:\Users\CYMR90~1\AppData\Local\Temp\ccZoYVSv.s:31527  .debug_str:0000000000023767 .LASF3541
C:\Users\CYMR90~1\AppData\Local\Temp\ccZoYVSv.s:27126  .debug_str:0000000000011f6f .LASF3542
C:\Users\CYMR90~1\AppData\Local\Temp\ccZoYVSv.s:32341  .debug_str:0000000000026cb9 .LASF3543
C:\Users\CYMR90~1\AppData\Local\Temp\ccZoYVSv.s:24986  .debug_str:0000000000009637 .LASF3544
C:\Users\CYMR90~1\AppData\Local\Temp\ccZoYVSv.s:29335  .debug_str:000000000001af7a .LASF3545
C:\Users\CYMR90~1\AppData\Local\Temp\ccZoYVSv.s:28915  .debug_str:0000000000019305 .LASF3546
C:\Users\CYMR90~1\AppData\Local\Temp\ccZoYVSv.s:30819  .debug_str:0000000000020c9b .LASF3547
C:\Users\CYMR90~1\AppData\Local\Temp\ccZoYVSv.s:28599  .debug_str:0000000000017f03 .LASF3548
C:\Users\CYMR90~1\AppData\Local\Temp\ccZoYVSv.s:32849  .debug_str:0000000000028e08 .LASF3549
C:\Users\CYMR90~1\AppData\Local\Temp\ccZoYVSv.s:26182  .debug_str:000000000000e407 .LASF3550
C:\Users\CYMR90~1\AppData\Local\Temp\ccZoYVSv.s:24664  .debug_str:000000000000813e .LASF3551
C:\Users\CYMR90~1\AppData\Local\Temp\ccZoYVSv.s:33841  .debug_str:000000000002ca8c .LASF3552
C:\Users\CYMR90~1\AppData\Local\Temp\ccZoYVSv.s:27978  .debug_str:0000000000015645 .LASF3553
C:\Users\CYMR90~1\AppData\Local\Temp\ccZoYVSv.s:29719  .debug_str:000000000001c745 .LASF3554
C:\Users\CYMR90~1\AppData\Local\Temp\ccZoYVSv.s:29149  .debug_str:000000000001a2a4 .LASF3555
C:\Users\CYMR90~1\AppData\Local\Temp\ccZoYVSv.s:31819  .debug_str:000000000002494d .LASF3556
C:\Users\CYMR90~1\AppData\Local\Temp\ccZoYVSv.s:31043  .debug_str:0000000000021a80 .LASF3557
C:\Users\CYMR90~1\AppData\Local\Temp\ccZoYVSv.s:25554  .debug_str:000000000000bb1d .LASF3558
C:\Users\CYMR90~1\AppData\Local\Temp\ccZoYVSv.s:29197  .debug_str:000000000001a560 .LASF3559
C:\Users\CYMR90~1\AppData\Local\Temp\ccZoYVSv.s:22644  .debug_str:00000000000000dc .LASF3560
C:\Users\CYMR90~1\AppData\Local\Temp\ccZoYVSv.s:27082  .debug_str:0000000000011c12 .LASF3561
C:\Users\CYMR90~1\AppData\Local\Temp\ccZoYVSv.s:31085  .debug_str:0000000000021cf8 .LASF3562
C:\Users\CYMR90~1\AppData\Local\Temp\ccZoYVSv.s:31349  .debug_str:0000000000022c5b .LASF3563
C:\Users\CYMR90~1\AppData\Local\Temp\ccZoYVSv.s:28170  .debug_str:00000000000161e2 .LASF3564
C:\Users\CYMR90~1\AppData\Local\Temp\ccZoYVSv.s:33213  .debug_str:000000000002a3a5 .LASF3565
C:\Users\CYMR90~1\AppData\Local\Temp\ccZoYVSv.s:28008  .debug_str:00000000000157db .LASF3566
C:\Users\CYMR90~1\AppData\Local\Temp\ccZoYVSv.s:27268  .debug_str:0000000000012877 .LASF3567
C:\Users\CYMR90~1\AppData\Local\Temp\ccZoYVSv.s:31655  .debug_str:0000000000023f0b .LASF3568
C:\Users\CYMR90~1\AppData\Local\Temp\ccZoYVSv.s:32095  .debug_str:0000000000025c81 .LASF3569
C:\Users\CYMR90~1\AppData\Local\Temp\ccZoYVSv.s:27128  .debug_str:0000000000011f84 .LASF3570
C:\Users\CYMR90~1\AppData\Local\Temp\ccZoYVSv.s:27492  .debug_str:00000000000137b9 .LASF3571
C:\Users\CYMR90~1\AppData\Local\Temp\ccZoYVSv.s:23116  .debug_str:0000000000001e1b .LASF3572
C:\Users\CYMR90~1\AppData\Local\Temp\ccZoYVSv.s:24444  .debug_str:0000000000007227 .LASF3573
C:\Users\CYMR90~1\AppData\Local\Temp\ccZoYVSv.s:33657  .debug_str:000000000002be03 .LASF3574
C:\Users\CYMR90~1\AppData\Local\Temp\ccZoYVSv.s:28202  .debug_str:0000000000016445 .LASF3575
C:\Users\CYMR90~1\AppData\Local\Temp\ccZoYVSv.s:29007  .debug_str:0000000000019965 .LASF3576
C:\Users\CYMR90~1\AppData\Local\Temp\ccZoYVSv.s:25676  .debug_str:000000000000c3ad .LASF3577
C:\Users\CYMR90~1\AppData\Local\Temp\ccZoYVSv.s:27332  .debug_str:0000000000012caf .LASF3578
C:\Users\CYMR90~1\AppData\Local\Temp\ccZoYVSv.s:22880  .debug_str:000000000000100d .LASF3579
C:\Users\CYMR90~1\AppData\Local\Temp\ccZoYVSv.s:29281  .debug_str:000000000001abc1 .LASF3580
C:\Users\CYMR90~1\AppData\Local\Temp\ccZoYVSv.s:31311  .debug_str:0000000000022a5f .LASF3581
C:\Users\CYMR90~1\AppData\Local\Temp\ccZoYVSv.s:29531  .debug_str:000000000001bc2d .LASF3582
C:\Users\CYMR90~1\AppData\Local\Temp\ccZoYVSv.s:23988  .debug_str:000000000000560c .LASF3583
C:\Users\CYMR90~1\AppData\Local\Temp\ccZoYVSv.s:25796  .debug_str:000000000000cb59 .LASF3584
C:\Users\CYMR90~1\AppData\Local\Temp\ccZoYVSv.s:24258  .debug_str:000000000000669e .LASF3585
C:\Users\CYMR90~1\AppData\Local\Temp\ccZoYVSv.s:30043  .debug_str:000000000001dcf1 .LASF3586
C:\Users\CYMR90~1\AppData\Local\Temp\ccZoYVSv.s:32581  .debug_str:0000000000027c3a .LASF3587
C:\Users\CYMR90~1\AppData\Local\Temp\ccZoYVSv.s:31281  .debug_str:00000000000228b7 .LASF3588
C:\Users\CYMR90~1\AppData\Local\Temp\ccZoYVSv.s:24296  .debug_str:00000000000068c8 .LASF3589
C:\Users\CYMR90~1\AppData\Local\Temp\ccZoYVSv.s:33223  .debug_str:000000000002a452 .LASF3590
C:\Users\CYMR90~1\AppData\Local\Temp\ccZoYVSv.s:30509  .debug_str:000000000001f9bd .LASF3591
C:\Users\CYMR90~1\AppData\Local\Temp\ccZoYVSv.s:26376  .debug_str:000000000000f00a .LASF3592
C:\Users\CYMR90~1\AppData\Local\Temp\ccZoYVSv.s:25370  .debug_str:000000000000aecc .LASF3593
C:\Users\CYMR90~1\AppData\Local\Temp\ccZoYVSv.s:22736  .debug_str:0000000000000664 .LASF3594
C:\Users\CYMR90~1\AppData\Local\Temp\ccZoYVSv.s:26616  .debug_str:000000000000fec1 .LASF3595
C:\Users\CYMR90~1\AppData\Local\Temp\ccZoYVSv.s:25560  .debug_str:000000000000bb73 .LASF3596
C:\Users\CYMR90~1\AppData\Local\Temp\ccZoYVSv.s:26330  .debug_str:000000000000ed65 .LASF3597
C:\Users\CYMR90~1\AppData\Local\Temp\ccZoYVSv.s:24480  .debug_str:00000000000074f6 .LASF3598
C:\Users\CYMR90~1\AppData\Local\Temp\ccZoYVSv.s:32647  .debug_str:0000000000027ff5 .LASF3599
C:\Users\CYMR90~1\AppData\Local\Temp\ccZoYVSv.s:29967  .debug_str:000000000001d808 .LASF3600
C:\Users\CYMR90~1\AppData\Local\Temp\ccZoYVSv.s:27434  .debug_str:000000000001335a .LASF3601
C:\Users\CYMR90~1\AppData\Local\Temp\ccZoYVSv.s:29545  .debug_str:000000000001bd0d .LASF3602
C:\Users\CYMR90~1\AppData\Local\Temp\ccZoYVSv.s:27688  .debug_str:00000000000143a8 .LASF3603
C:\Users\CYMR90~1\AppData\Local\Temp\ccZoYVSv.s:26756  .debug_str:0000000000010758 .LASF3604
C:\Users\CYMR90~1\AppData\Local\Temp\ccZoYVSv.s:32883  .debug_str:0000000000029066 .LASF3605
C:\Users\CYMR90~1\AppData\Local\Temp\ccZoYVSv.s:25770  .debug_str:000000000000c98a .LASF3606
C:\Users\CYMR90~1\AppData\Local\Temp\ccZoYVSv.s:23194  .debug_str:000000000000228b .LASF3607
C:\Users\CYMR90~1\AppData\Local\Temp\ccZoYVSv.s:26734  .debug_str:0000000000010616 .LASF3608
C:\Users\CYMR90~1\AppData\Local\Temp\ccZoYVSv.s:26654  .debug_str:0000000000010130 .LASF3609
C:\Users\CYMR90~1\AppData\Local\Temp\ccZoYVSv.s:26870  .debug_str:0000000000010e88 .LASF3610
C:\Users\CYMR90~1\AppData\Local\Temp\ccZoYVSv.s:31261  .debug_str:0000000000022784 .LASF3611
C:\Users\CYMR90~1\AppData\Local\Temp\ccZoYVSv.s:27554  .debug_str:0000000000013b83 .LASF3612
C:\Users\CYMR90~1\AppData\Local\Temp\ccZoYVSv.s:26758  .debug_str:000000000001077c .LASF3613
C:\Users\CYMR90~1\AppData\Local\Temp\ccZoYVSv.s:31503  .debug_str:00000000000235fa .LASF3614
C:\Users\CYMR90~1\AppData\Local\Temp\ccZoYVSv.s:33659  .debug_str:000000000002be27 .LASF3615
C:\Users\CYMR90~1\AppData\Local\Temp\ccZoYVSv.s:33195  .debug_str:000000000002a293 .LASF3616
C:\Users\CYMR90~1\AppData\Local\Temp\ccZoYVSv.s:29631  .debug_str:000000000001c1f6 .LASF3617
C:\Users\CYMR90~1\AppData\Local\Temp\ccZoYVSv.s:24448  .debug_str:0000000000007269 .LASF3618
C:\Users\CYMR90~1\AppData\Local\Temp\ccZoYVSv.s:24038  .debug_str:000000000000592a .LASF3619
C:\Users\CYMR90~1\AppData\Local\Temp\ccZoYVSv.s:24536  .debug_str:0000000000007844 .LASF3620
C:\Users\CYMR90~1\AppData\Local\Temp\ccZoYVSv.s:23494  .debug_str:00000000000035cb .LASF3621
C:\Users\CYMR90~1\AppData\Local\Temp\ccZoYVSv.s:31901  .debug_str:0000000000024e92 .LASF3622
C:\Users\CYMR90~1\AppData\Local\Temp\ccZoYVSv.s:26682  .debug_str:00000000000102da .LASF3623
C:\Users\CYMR90~1\AppData\Local\Temp\ccZoYVSv.s:24834  .debug_str:0000000000008cb5 .LASF3624
C:\Users\CYMR90~1\AppData\Local\Temp\ccZoYVSv.s:24940  .debug_str:0000000000009399 .LASF3625
C:\Users\CYMR90~1\AppData\Local\Temp\ccZoYVSv.s:31153  .debug_str:0000000000022100 .LASF3626
C:\Users\CYMR90~1\AppData\Local\Temp\ccZoYVSv.s:33133  .debug_str:0000000000029f2c .LASF3627
C:\Users\CYMR90~1\AppData\Local\Temp\ccZoYVSv.s:31411  .debug_str:0000000000023029 .LASF3628
C:\Users\CYMR90~1\AppData\Local\Temp\ccZoYVSv.s:33025  .debug_str:0000000000029894 .LASF3629
C:\Users\CYMR90~1\AppData\Local\Temp\ccZoYVSv.s:22770  .debug_str:000000000000089a .LASF3630
C:\Users\CYMR90~1\AppData\Local\Temp\ccZoYVSv.s:31447  .debug_str:00000000000232c1 .LASF3631
C:\Users\CYMR90~1\AppData\Local\Temp\ccZoYVSv.s:28391  .debug_str:0000000000017255 .LASF3632
C:\Users\CYMR90~1\AppData\Local\Temp\ccZoYVSv.s:25380  .debug_str:000000000000af68 .LASF3633
C:\Users\CYMR90~1\AppData\Local\Temp\ccZoYVSv.s:25938  .debug_str:000000000000d45d .LASF3634
C:\Users\CYMR90~1\AppData\Local\Temp\ccZoYVSv.s:24434  .debug_str:0000000000007182 .LASF3635
C:\Users\CYMR90~1\AppData\Local\Temp\ccZoYVSv.s:27996  .debug_str:000000000001571b .LASF3636
C:\Users\CYMR90~1\AppData\Local\Temp\ccZoYVSv.s:25814  .debug_str:000000000000ccc4 .LASF3637
C:\Users\CYMR90~1\AppData\Local\Temp\ccZoYVSv.s:31523  .debug_str:0000000000023728 .LASF3638
C:\Users\CYMR90~1\AppData\Local\Temp\ccZoYVSv.s:29433  .debug_str:000000000001b61e .LASF3639
C:\Users\CYMR90~1\AppData\Local\Temp\ccZoYVSv.s:31455  .debug_str:0000000000023350 .LASF3640
C:\Users\CYMR90~1\AppData\Local\Temp\ccZoYVSv.s:28543  .debug_str:0000000000017b71 .LASF3641
C:\Users\CYMR90~1\AppData\Local\Temp\ccZoYVSv.s:26246  .debug_str:000000000000e7da .LASF3642
C:\Users\CYMR90~1\AppData\Local\Temp\ccZoYVSv.s:30479  .debug_str:000000000001f7d1 .LASF3643
C:\Users\CYMR90~1\AppData\Local\Temp\ccZoYVSv.s:25440  .debug_str:000000000000b3dd .LASF3644
C:\Users\CYMR90~1\AppData\Local\Temp\ccZoYVSv.s:27712  .debug_str:0000000000014586 .LASF3645
C:\Users\CYMR90~1\AppData\Local\Temp\ccZoYVSv.s:28675  .debug_str:000000000001838e .LASF3646
C:\Users\CYMR90~1\AppData\Local\Temp\ccZoYVSv.s:32471  .debug_str:00000000000274b4 .LASF3647
C:\Users\CYMR90~1\AppData\Local\Temp\ccZoYVSv.s:25222  .debug_str:000000000000a504 .LASF3648
C:\Users\CYMR90~1\AppData\Local\Temp\ccZoYVSv.s:23956  .debug_str:0000000000005405 .LASF3649
C:\Users\CYMR90~1\AppData\Local\Temp\ccZoYVSv.s:28975  .debug_str:0000000000019756 .LASF3650
C:\Users\CYMR90~1\AppData\Local\Temp\ccZoYVSv.s:31343  .debug_str:0000000000022c07 .LASF3651
C:\Users\CYMR90~1\AppData\Local\Temp\ccZoYVSv.s:26214  .debug_str:000000000000e616 .LASF3652
C:\Users\CYMR90~1\AppData\Local\Temp\ccZoYVSv.s:33761  .debug_str:000000000002c505 .LASF3653
C:\Users\CYMR90~1\AppData\Local\Temp\ccZoYVSv.s:33605  .debug_str:000000000002bacb .LASF3654
C:\Users\CYMR90~1\AppData\Local\Temp\ccZoYVSv.s:26244  .debug_str:000000000000e7b6 .LASF3655
C:\Users\CYMR90~1\AppData\Local\Temp\ccZoYVSv.s:24046  .debug_str:0000000000005999 .LASF3656
C:\Users\CYMR90~1\AppData\Local\Temp\ccZoYVSv.s:33251  .debug_str:000000000002a5f5 .LASF3657
C:\Users\CYMR90~1\AppData\Local\Temp\ccZoYVSv.s:30947  .debug_str:0000000000021445 .LASF3658
C:\Users\CYMR90~1\AppData\Local\Temp\ccZoYVSv.s:24050  .debug_str:00000000000059f9 .LASF3659
C:\Users\CYMR90~1\AppData\Local\Temp\ccZoYVSv.s:28114  .debug_str:0000000000015e11 .LASF3660
C:\Users\CYMR90~1\AppData\Local\Temp\ccZoYVSv.s:24142  .debug_str:0000000000005f66 .LASF3661
C:\Users\CYMR90~1\AppData\Local\Temp\ccZoYVSv.s:27598  .debug_str:0000000000013e31 .LASF3662
C:\Users\CYMR90~1\AppData\Local\Temp\ccZoYVSv.s:31145  .debug_str:0000000000022086 .LASF3663
C:\Users\CYMR90~1\AppData\Local\Temp\ccZoYVSv.s:32273  .debug_str:00000000000268ce .LASF3664
C:\Users\CYMR90~1\AppData\Local\Temp\ccZoYVSv.s:23862  .debug_str:0000000000004e60 .LASF3665
C:\Users\CYMR90~1\AppData\Local\Temp\ccZoYVSv.s:31739  .debug_str:00000000000243e4 .LASF3666
C:\Users\CYMR90~1\AppData\Local\Temp\ccZoYVSv.s:30855  .debug_str:0000000000020ed0 .LASF3667
C:\Users\CYMR90~1\AppData\Local\Temp\ccZoYVSv.s:30985  .debug_str:0000000000021694 .LASF3668
C:\Users\CYMR90~1\AppData\Local\Temp\ccZoYVSv.s:26352  .debug_str:000000000000eeb3 .LASF3669
C:\Users\CYMR90~1\AppData\Local\Temp\ccZoYVSv.s:24058  .debug_str:0000000000005a4f .LASF3670
C:\Users\CYMR90~1\AppData\Local\Temp\ccZoYVSv.s:25716  .debug_str:000000000000c656 .LASF3671
C:\Users\CYMR90~1\AppData\Local\Temp\ccZoYVSv.s:30961  .debug_str:00000000000214fb .LASF3672
C:\Users\CYMR90~1\AppData\Local\Temp\ccZoYVSv.s:28777  .debug_str:00000000000189b9 .LASF3673
C:\Users\CYMR90~1\AppData\Local\Temp\ccZoYVSv.s:29885  .debug_str:000000000001d201 .LASF3674
C:\Users\CYMR90~1\AppData\Local\Temp\ccZoYVSv.s:32999  .debug_str:000000000002971c .LASF3675
C:\Users\CYMR90~1\AppData\Local\Temp\ccZoYVSv.s:27870  .debug_str:0000000000014f0c .LASF3676
C:\Users\CYMR90~1\AppData\Local\Temp\ccZoYVSv.s:33933  .debug_str:000000000002d097 .LASF3677
C:\Users\CYMR90~1\AppData\Local\Temp\ccZoYVSv.s:23536  .debug_str:000000000000388a .LASF3678
C:\Users\CYMR90~1\AppData\Local\Temp\ccZoYVSv.s:32077  .debug_str:0000000000025b66 .LASF3679
C:\Users\CYMR90~1\AppData\Local\Temp\ccZoYVSv.s:22902  .debug_str:0000000000001129 .LASF3680
C:\Users\CYMR90~1\AppData\Local\Temp\ccZoYVSv.s:30047  .debug_str:000000000001dd38 .LASF3681
C:\Users\CYMR90~1\AppData\Local\Temp\ccZoYVSv.s:27468  .debug_str:0000000000013595 .LASF3682
C:\Users\CYMR90~1\AppData\Local\Temp\ccZoYVSv.s:34019  .debug_str:000000000002d61b .LASF3683
C:\Users\CYMR90~1\AppData\Local\Temp\ccZoYVSv.s:23324  .debug_str:0000000000002ac0 .LASF3684
C:\Users\CYMR90~1\AppData\Local\Temp\ccZoYVSv.s:32529  .debug_str:000000000002785c .LASF3685
C:\Users\CYMR90~1\AppData\Local\Temp\ccZoYVSv.s:27320  .debug_str:0000000000012bd5 .LASF3686
C:\Users\CYMR90~1\AppData\Local\Temp\ccZoYVSv.s:30755  .debug_str:0000000000020868 .LASF3687
C:\Users\CYMR90~1\AppData\Local\Temp\ccZoYVSv.s:30905  .debug_str:00000000000211aa .LASF3688
C:\Users\CYMR90~1\AppData\Local\Temp\ccZoYVSv.s:22854  .debug_str:0000000000000dde .LASF3689
C:\Users\CYMR90~1\AppData\Local\Temp\ccZoYVSv.s:30109  .debug_str:000000000001e0f9 .LASF3690
C:\Users\CYMR90~1\AppData\Local\Temp\ccZoYVSv.s:22958  .debug_str:000000000000145c .LASF3691
C:\Users\CYMR90~1\AppData\Local\Temp\ccZoYVSv.s:32779  .debug_str:00000000000288eb .LASF3692
C:\Users\CYMR90~1\AppData\Local\Temp\ccZoYVSv.s:27224  .debug_str:0000000000012573 .LASF3693
C:\Users\CYMR90~1\AppData\Local\Temp\ccZoYVSv.s:30249  .debug_str:000000000001ea08 .LASF3694
C:\Users\CYMR90~1\AppData\Local\Temp\ccZoYVSv.s:29147  .debug_str:000000000001a274 .LASF3695
C:\Users\CYMR90~1\AppData\Local\Temp\ccZoYVSv.s:27892  .debug_str:00000000000150a6 .LASF3696
C:\Users\CYMR90~1\AppData\Local\Temp\ccZoYVSv.s:26706  .debug_str:000000000001046e .LASF3697
C:\Users\CYMR90~1\AppData\Local\Temp\ccZoYVSv.s:33647  .debug_str:000000000002bd58 .LASF3698
C:\Users\CYMR90~1\AppData\Local\Temp\ccZoYVSv.s:31983  .debug_str:0000000000025422 .LASF3699
C:\Users\CYMR90~1\AppData\Local\Temp\ccZoYVSv.s:23076  .debug_str:0000000000001bc7 .LASF3700
C:\Users\CYMR90~1\AppData\Local\Temp\ccZoYVSv.s:32769  .debug_str:00000000000287e5 .LASF3701
C:\Users\CYMR90~1\AppData\Local\Temp\ccZoYVSv.s:33017  .debug_str:00000000000297fb .LASF3702
C:\Users\CYMR90~1\AppData\Local\Temp\ccZoYVSv.s:25894  .debug_str:000000000000d144 .LASF3703
C:\Users\CYMR90~1\AppData\Local\Temp\ccZoYVSv.s:33879  .debug_str:000000000002cd0f .LASF3704
C:\Users\CYMR90~1\AppData\Local\Temp\ccZoYVSv.s:25322  .debug_str:000000000000aba8 .LASF3705
C:\Users\CYMR90~1\AppData\Local\Temp\ccZoYVSv.s:31999  .debug_str:0000000000025545 .LASF3706
C:\Users\CYMR90~1\AppData\Local\Temp\ccZoYVSv.s:25180  .debug_str:000000000000a25e .LASF3707
C:\Users\CYMR90~1\AppData\Local\Temp\ccZoYVSv.s:31027  .debug_str:00000000000218e7 .LASF3708
C:\Users\CYMR90~1\AppData\Local\Temp\ccZoYVSv.s:23364  .debug_str:0000000000002d5a .LASF3709
C:\Users\CYMR90~1\AppData\Local\Temp\ccZoYVSv.s:29165  .debug_str:000000000001a398 .LASF3710
C:\Users\CYMR90~1\AppData\Local\Temp\ccZoYVSv.s:25996  .debug_str:000000000000d880 .LASF3711
C:\Users\CYMR90~1\AppData\Local\Temp\ccZoYVSv.s:24096  .debug_str:0000000000005cb5 .LASF3712
C:\Users\CYMR90~1\AppData\Local\Temp\ccZoYVSv.s:32687  .debug_str:0000000000028268 .LASF3713
C:\Users\CYMR90~1\AppData\Local\Temp\ccZoYVSv.s:26482  .debug_str:000000000000f65a .LASF3714
C:\Users\CYMR90~1\AppData\Local\Temp\ccZoYVSv.s:25672  .debug_str:000000000000c34b .LASF3715
C:\Users\CYMR90~1\AppData\Local\Temp\ccZoYVSv.s:31635  .debug_str:0000000000023da7 .LASF3716
C:\Users\CYMR90~1\AppData\Local\Temp\ccZoYVSv.s:22800  .debug_str:0000000000000a56 .LASF3717
C:\Users\CYMR90~1\AppData\Local\Temp\ccZoYVSv.s:27124  .debug_str:0000000000011f3d .LASF3718
C:\Users\CYMR90~1\AppData\Local\Temp\ccZoYVSv.s:32657  .debug_str:0000000000028089 .LASF3719
C:\Users\CYMR90~1\AppData\Local\Temp\ccZoYVSv.s:24240  .debug_str:0000000000006576 .LASF3720
C:\Users\CYMR90~1\AppData\Local\Temp\ccZoYVSv.s:25602  .debug_str:000000000000be30 .LASF3721
C:\Users\CYMR90~1\AppData\Local\Temp\ccZoYVSv.s:26696  .debug_str:00000000000103c5 .LASF3722
C:\Users\CYMR90~1\AppData\Local\Temp\ccZoYVSv.s:31001  .debug_str:0000000000021763 .LASF3723
C:\Users\CYMR90~1\AppData\Local\Temp\ccZoYVSv.s:23874  .debug_str:0000000000004f33 .LASF3724
C:\Users\CYMR90~1\AppData\Local\Temp\ccZoYVSv.s:28094  .debug_str:0000000000015cd1 .LASF3725
C:\Users\CYMR90~1\AppData\Local\Temp\ccZoYVSv.s:32489  .debug_str:00000000000275c4 .LASF3726
C:\Users\CYMR90~1\AppData\Local\Temp\ccZoYVSv.s:25366  .debug_str:000000000000ae80 .LASF3727
C:\Users\CYMR90~1\AppData\Local\Temp\ccZoYVSv.s:25744  .debug_str:000000000000c7f1 .LASF3728
C:\Users\CYMR90~1\AppData\Local\Temp\ccZoYVSv.s:30137  .debug_str:000000000001e33a .LASF3729
C:\Users\CYMR90~1\AppData\Local\Temp\ccZoYVSv.s:25874  .debug_str:000000000000cfdb .LASF3730
C:\Users\CYMR90~1\AppData\Local\Temp\ccZoYVSv.s:31191  .debug_str:0000000000022385 .LASF3731
C:\Users\CYMR90~1\AppData\Local\Temp\ccZoYVSv.s:24092  .debug_str:0000000000005c5d .LASF3732
C:\Users\CYMR90~1\AppData\Local\Temp\ccZoYVSv.s:33603  .debug_str:000000000002ba99 .LASF3733
C:\Users\CYMR90~1\AppData\Local\Temp\ccZoYVSv.s:26478  .debug_str:000000000000f5fd .LASF3734
C:\Users\CYMR90~1\AppData\Local\Temp\ccZoYVSv.s:30669  .debug_str:0000000000020378 .LASF3735
C:\Users\CYMR90~1\AppData\Local\Temp\ccZoYVSv.s:23578  .debug_str:0000000000003b4a .LASF3736
C:\Users\CYMR90~1\AppData\Local\Temp\ccZoYVSv.s:26552  .debug_str:000000000000fb1c .LASF3737
C:\Users\CYMR90~1\AppData\Local\Temp\ccZoYVSv.s:31773  .debug_str:00000000000245e6 .LASF3738
C:\Users\CYMR90~1\AppData\Local\Temp\ccZoYVSv.s:24676  .debug_str:0000000000008212 .LASF3739
C:\Users\CYMR90~1\AppData\Local\Temp\ccZoYVSv.s:29391  .debug_str:000000000001b308 .LASF3740
C:\Users\CYMR90~1\AppData\Local\Temp\ccZoYVSv.s:23678  .debug_str:000000000000416d .LASF3741
C:\Users\CYMR90~1\AppData\Local\Temp\ccZoYVSv.s:31817  .debug_str:000000000002491b .LASF3742
C:\Users\CYMR90~1\AppData\Local\Temp\ccZoYVSv.s:24708  .debug_str:00000000000084d4 .LASF3743
C:\Users\CYMR90~1\AppData\Local\Temp\ccZoYVSv.s:26318  .debug_str:000000000000ec79 .LASF3744
C:\Users\CYMR90~1\AppData\Local\Temp\ccZoYVSv.s:33285  .debug_str:000000000002a7e8 .LASF3745
C:\Users\CYMR90~1\AppData\Local\Temp\ccZoYVSv.s:24534  .debug_str:0000000000007812 .LASF3746
C:\Users\CYMR90~1\AppData\Local\Temp\ccZoYVSv.s:30541  .debug_str:000000000001fb74 .LASF3747
C:\Users\CYMR90~1\AppData\Local\Temp\ccZoYVSv.s:23284  .debug_str:000000000000282f .LASF3748
C:\Users\CYMR90~1\AppData\Local\Temp\ccZoYVSv.s:28711  .debug_str:00000000000185bf .LASF3749
C:\Users\CYMR90~1\AppData\Local\Temp\ccZoYVSv.s:33995  .debug_str:000000000002d4bb .LASF3750
C:\Users\CYMR90~1\AppData\Local\Temp\ccZoYVSv.s:24714  .debug_str:000000000000852b .LASF3751
C:\Users\CYMR90~1\AppData\Local\Temp\ccZoYVSv.s:32229  .debug_str:00000000000265db .LASF3752
C:\Users\CYMR90~1\AppData\Local\Temp\ccZoYVSv.s:27266  .debug_str:0000000000012845 .LASF3753
C:\Users\CYMR90~1\AppData\Local\Temp\ccZoYVSv.s:31509  .debug_str:0000000000023651 .LASF3754
C:\Users\CYMR90~1\AppData\Local\Temp\ccZoYVSv.s:24382  .debug_str:0000000000006e4b .LASF3755
C:\Users\CYMR90~1\AppData\Local\Temp\ccZoYVSv.s:27310  .debug_str:0000000000012b15 .LASF3756
C:\Users\CYMR90~1\AppData\Local\Temp\ccZoYVSv.s:30671  .debug_str:00000000000203aa .LASF3757
C:\Users\CYMR90~1\AppData\Local\Temp\ccZoYVSv.s:27230  .debug_str:0000000000012600 .LASF3758
C:\Users\CYMR90~1\AppData\Local\Temp\ccZoYVSv.s:32265  .debug_str:000000000002684b .LASF3759
C:\Users\CYMR90~1\AppData\Local\Temp\ccZoYVSv.s:23566  .debug_str:0000000000003a73 .LASF3760
C:\Users\CYMR90~1\AppData\Local\Temp\ccZoYVSv.s:25828  .debug_str:000000000000cd73 .LASF3761
C:\Users\CYMR90~1\AppData\Local\Temp\ccZoYVSv.s:26264  .debug_str:000000000000e8ef .LASF3762
C:\Users\CYMR90~1\AppData\Local\Temp\ccZoYVSv.s:31825  .debug_str:00000000000249c4 .LASF3763
C:\Users\CYMR90~1\AppData\Local\Temp\ccZoYVSv.s:28110  .debug_str:0000000000015dc0 .LASF3764
C:\Users\CYMR90~1\AppData\Local\Temp\ccZoYVSv.s:28555  .debug_str:0000000000017c2b .LASF3765
C:\Users\CYMR90~1\AppData\Local\Temp\ccZoYVSv.s:25552  .debug_str:000000000000bafb .LASF3766
C:\Users\CYMR90~1\AppData\Local\Temp\ccZoYVSv.s:27900  .debug_str:000000000001512f .LASF3767
C:\Users\CYMR90~1\AppData\Local\Temp\ccZoYVSv.s:30885  .debug_str:0000000000021054 .LASF3768
C:\Users\CYMR90~1\AppData\Local\Temp\ccZoYVSv.s:27924  .debug_str:00000000000152e4 .LASF3769
C:\Users\CYMR90~1\AppData\Local\Temp\ccZoYVSv.s:32297  .debug_str:0000000000026a45 .LASF3770
C:\Users\CYMR90~1\AppData\Local\Temp\ccZoYVSv.s:28999  .debug_str:00000000000198db .LASF3771
C:\Users\CYMR90~1\AppData\Local\Temp\ccZoYVSv.s:26972  .debug_str:00000000000114ba .LASF3772
C:\Users\CYMR90~1\AppData\Local\Temp\ccZoYVSv.s:23728  .debug_str:00000000000044fa .LASF3773
C:\Users\CYMR90~1\AppData\Local\Temp\ccZoYVSv.s:22970  .debug_str:0000000000001529 .LASF3774
C:\Users\CYMR90~1\AppData\Local\Temp\ccZoYVSv.s:22646  .debug_str:00000000000000ff .LASF3775
C:\Users\CYMR90~1\AppData\Local\Temp\ccZoYVSv.s:27548  .debug_str:0000000000013b42 .LASF3776
C:\Users\CYMR90~1\AppData\Local\Temp\ccZoYVSv.s:24016  .debug_str:00000000000057c5 .LASF3777
C:\Users\CYMR90~1\AppData\Local\Temp\ccZoYVSv.s:28809  .debug_str:0000000000018bb8 .LASF3778
C:\Users\CYMR90~1\AppData\Local\Temp\ccZoYVSv.s:26154  .debug_str:000000000000e255 .LASF3779
C:\Users\CYMR90~1\AppData\Local\Temp\ccZoYVSv.s:25188  .debug_str:000000000000a2f8 .LASF3780
C:\Users\CYMR90~1\AppData\Local\Temp\ccZoYVSv.s:26834  .debug_str:0000000000010c6e .LASF3781
C:\Users\CYMR90~1\AppData\Local\Temp\ccZoYVSv.s:28521  .debug_str:0000000000017a0c .LASF3782
C:\Users\CYMR90~1\AppData\Local\Temp\ccZoYVSv.s:28368  .debug_str:0000000000016f2c .LASF3783
C:\Users\CYMR90~1\AppData\Local\Temp\ccZoYVSv.s:27346  .debug_str:0000000000012dba .LASF3784
C:\Users\CYMR90~1\AppData\Local\Temp\ccZoYVSv.s:29713  .debug_str:000000000001c6fb .LASF3785
C:\Users\CYMR90~1\AppData\Local\Temp\ccZoYVSv.s:26268  .debug_str:000000000000e96e .LASF3786
C:\Users\CYMR90~1\AppData\Local\Temp\ccZoYVSv.s:22838  .debug_str:0000000000000cef .LASF3787
C:\Users\CYMR90~1\AppData\Local\Temp\ccZoYVSv.s:33023  .debug_str:0000000000029870 .LASF3788
C:\Users\CYMR90~1\AppData\Local\Temp\ccZoYVSv.s:27412  .debug_str:00000000000131e9 .LASF3789
C:\Users\CYMR90~1\AppData\Local\Temp\ccZoYVSv.s:30059  .debug_str:000000000001ddf2 .LASF3790
C:\Users\CYMR90~1\AppData\Local\Temp\ccZoYVSv.s:23230  .debug_str:000000000000249b .LASF3791
C:\Users\CYMR90~1\AppData\Local\Temp\ccZoYVSv.s:28302  .debug_str:0000000000016a62 .LASF3792
C:\Users\CYMR90~1\AppData\Local\Temp\ccZoYVSv.s:32071  .debug_str:0000000000025aff .LASF3793
C:\Users\CYMR90~1\AppData\Local\Temp\ccZoYVSv.s:31837  .debug_str:0000000000024aa7 .LASF3794
C:\Users\CYMR90~1\AppData\Local\Temp\ccZoYVSv.s:28385  .debug_str:0000000000017202 .LASF3795
C:\Users\CYMR90~1\AppData\Local\Temp\ccZoYVSv.s:24970  .debug_str:0000000000009548 .LASF3796
C:\Users\CYMR90~1\AppData\Local\Temp\ccZoYVSv.s:33011  .debug_str:00000000000297b6 .LASF3797
C:\Users\CYMR90~1\AppData\Local\Temp\ccZoYVSv.s:29541  .debug_str:000000000001bcc7 .LASF3798
C:\Users\CYMR90~1\AppData\Local\Temp\ccZoYVSv.s:23366  .debug_str:0000000000002d8c .LASF3799
C:\Users\CYMR90~1\AppData\Local\Temp\ccZoYVSv.s:33387  .debug_str:000000000002adf0 .LASF3800
C:\Users\CYMR90~1\AppData\Local\Temp\ccZoYVSv.s:33693  .debug_str:000000000002c07a .LASF3801
C:\Users\CYMR90~1\AppData\Local\Temp\ccZoYVSv.s:25350  .debug_str:000000000000ad72 .LASF3802
C:\Users\CYMR90~1\AppData\Local\Temp\ccZoYVSv.s:33993  .debug_str:000000000002d497 .LASF3803
C:\Users\CYMR90~1\AppData\Local\Temp\ccZoYVSv.s:33917  .debug_str:000000000002cf73 .LASF3804
C:\Users\CYMR90~1\AppData\Local\Temp\ccZoYVSv.s:27108  .debug_str:0000000000011e1b .LASF3805
C:\Users\CYMR90~1\AppData\Local\Temp\ccZoYVSv.s:23652  .debug_str:000000000000400b .LASF3806
C:\Users\CYMR90~1\AppData\Local\Temp\ccZoYVSv.s:31699  .debug_str:00000000000241bb .LASF3807
C:\Users\CYMR90~1\AppData\Local\Temp\ccZoYVSv.s:28220  .debug_str:000000000001654c .LASF3808
C:\Users\CYMR90~1\AppData\Local\Temp\ccZoYVSv.s:26662  .debug_str:00000000000101d5 .LASF3809
C:\Users\CYMR90~1\AppData\Local\Temp\ccZoYVSv.s:32859  .debug_str:0000000000028eb5 .LASF3810
C:\Users\CYMR90~1\AppData\Local\Temp\ccZoYVSv.s:30813  .debug_str:0000000000020c4c .LASF3811
C:\Users\CYMR90~1\AppData\Local\Temp\ccZoYVSv.s:24674  .debug_str:00000000000081ee .LASF3812
C:\Users\CYMR90~1\AppData\Local\Temp\ccZoYVSv.s:32701  .debug_str:0000000000028393 .LASF3813
C:\Users\CYMR90~1\AppData\Local\Temp\ccZoYVSv.s:33667  .debug_str:000000000002bea9 .LASF3814
C:\Users\CYMR90~1\AppData\Local\Temp\ccZoYVSv.s:25844  .debug_str:000000000000ce5e .LASF3815
C:\Users\CYMR90~1\AppData\Local\Temp\ccZoYVSv.s:33859  .debug_str:000000000002cbe9 .LASF3816
C:\Users\CYMR90~1\AppData\Local\Temp\ccZoYVSv.s:23768  .debug_str:00000000000047bb .LASF3817
C:\Users\CYMR90~1\AppData\Local\Temp\ccZoYVSv.s:26976  .debug_str:00000000000114f5 .LASF3818
C:\Users\CYMR90~1\AppData\Local\Temp\ccZoYVSv.s:29901  .debug_str:000000000001d390 .LASF3819
C:\Users\CYMR90~1\AppData\Local\Temp\ccZoYVSv.s:31555  .debug_str:00000000000238af .LASF3820
C:\Users\CYMR90~1\AppData\Local\Temp\ccZoYVSv.s:32939  .debug_str:0000000000029391 .LASF3821
C:\Users\CYMR90~1\AppData\Local\Temp\ccZoYVSv.s:23370  .debug_str:0000000000002de5 .LASF3822
C:\Users\CYMR90~1\AppData\Local\Temp\ccZoYVSv.s:28515  .debug_str:00000000000179a9 .LASF3823
C:\Users\CYMR90~1\AppData\Local\Temp\ccZoYVSv.s:27932  .debug_str:0000000000015364 .LASF3824
C:\Users\CYMR90~1\AppData\Local\Temp\ccZoYVSv.s:24526  .debug_str:000000000000779b .LASF3825
C:\Users\CYMR90~1\AppData\Local\Temp\ccZoYVSv.s:24652  .debug_str:000000000000806c .LASF3826
C:\Users\CYMR90~1\AppData\Local\Temp\ccZoYVSv.s:24648  .debug_str:000000000000802b .LASF3827
C:\Users\CYMR90~1\AppData\Local\Temp\ccZoYVSv.s:25694  .debug_str:000000000000c4e2 .LASF3828
C:\Users\CYMR90~1\AppData\Local\Temp\ccZoYVSv.s:33723  .debug_str:000000000002c27c .LASF3829
C:\Users\CYMR90~1\AppData\Local\Temp\ccZoYVSv.s:23276  .debug_str:0000000000002790 .LASF3830
C:\Users\CYMR90~1\AppData\Local\Temp\ccZoYVSv.s:31719  .debug_str:00000000000242d9 .LASF3831
C:\Users\CYMR90~1\AppData\Local\Temp\ccZoYVSv.s:33653  .debug_str:000000000002bdc0 .LASF3832
C:\Users\CYMR90~1\AppData\Local\Temp\ccZoYVSv.s:30061  .debug_str:000000000001de16 .LASF3833
C:\Users\CYMR90~1\AppData\Local\Temp\ccZoYVSv.s:26686  .debug_str:000000000001031f .LASF3834
C:\Users\CYMR90~1\AppData\Local\Temp\ccZoYVSv.s:23080  .debug_str:0000000000001c1b .LASF3835
C:\Users\CYMR90~1\AppData\Local\Temp\ccZoYVSv.s:31243  .debug_str:0000000000022671 .LASF3836
C:\Users\CYMR90~1\AppData\Local\Temp\ccZoYVSv.s:27798  .debug_str:0000000000014ad2 .LASF3837
C:\Users\CYMR90~1\AppData\Local\Temp\ccZoYVSv.s:26486  .debug_str:000000000000f6a4 .LASF3838
C:\Users\CYMR90~1\AppData\Local\Temp\ccZoYVSv.s:29083  .debug_str:0000000000019ebd .LASF3839
C:\Users\CYMR90~1\AppData\Local\Temp\ccZoYVSv.s:28965  .debug_str:00000000000196c6 .LASF3840
C:\Users\CYMR90~1\AppData\Local\Temp\ccZoYVSv.s:30371  .debug_str:000000000001f127 .LASF3841
C:\Users\CYMR90~1\AppData\Local\Temp\ccZoYVSv.s:32347  .debug_str:0000000000026d2b .LASF3842
C:\Users\CYMR90~1\AppData\Local\Temp\ccZoYVSv.s:30437  .debug_str:000000000001f542 .LASF3843
C:\Users\CYMR90~1\AppData\Local\Temp\ccZoYVSv.s:24992  .debug_str:0000000000009688 .LASF3844
C:\Users\CYMR90~1\AppData\Local\Temp\ccZoYVSv.s:33505  .debug_str:000000000002b4be .LASF3845
C:\Users\CYMR90~1\AppData\Local\Temp\ccZoYVSv.s:29939  .debug_str:000000000001d67c .LASF3846
C:\Users\CYMR90~1\AppData\Local\Temp\ccZoYVSv.s:31181  .debug_str:00000000000222e5 .LASF3847
C:\Users\CYMR90~1\AppData\Local\Temp\ccZoYVSv.s:23086  .debug_str:0000000000001c80 .LASF3848
C:\Users\CYMR90~1\AppData\Local\Temp\ccZoYVSv.s:31099  .debug_str:0000000000021db4 .LASF3849
C:\Users\CYMR90~1\AppData\Local\Temp\ccZoYVSv.s:27654  .debug_str:000000000001419c .LASF3850
C:\Users\CYMR90~1\AppData\Local\Temp\ccZoYVSv.s:33399  .debug_str:000000000002aeaf .LASF3851
C:\Users\CYMR90~1\AppData\Local\Temp\ccZoYVSv.s:31037  .debug_str:0000000000021980 .LASF3852
C:\Users\CYMR90~1\AppData\Local\Temp\ccZoYVSv.s:27594  .debug_str:0000000000013df6 .LASF3853
C:\Users\CYMR90~1\AppData\Local\Temp\ccZoYVSv.s:32367  .debug_str:0000000000026e82 .LASF3854
C:\Users\CYMR90~1\AppData\Local\Temp\ccZoYVSv.s:32193  .debug_str:00000000000263d3 .LASF3855
C:\Users\CYMR90~1\AppData\Local\Temp\ccZoYVSv.s:28735  .debug_str:000000000001873a .LASF3856
C:\Users\CYMR90~1\AppData\Local\Temp\ccZoYVSv.s:33969  .debug_str:000000000002d2d8 .LASF3857
C:\Users\CYMR90~1\AppData\Local\Temp\ccZoYVSv.s:33353  .debug_str:000000000002abd7 .LASF3858
C:\Users\CYMR90~1\AppData\Local\Temp\ccZoYVSv.s:31249  .debug_str:00000000000226da .LASF3859
C:\Users\CYMR90~1\AppData\Local\Temp\ccZoYVSv.s:30079  .debug_str:000000000001df3b .LASF3860
C:\Users\CYMR90~1\AppData\Local\Temp\ccZoYVSv.s:24436  .debug_str:00000000000071c3 .LASF3861
C:\Users\CYMR90~1\AppData\Local\Temp\ccZoYVSv.s:24580  .debug_str:0000000000007b18 .LASF3862
C:\Users\CYMR90~1\AppData\Local\Temp\ccZoYVSv.s:28619  .debug_str:0000000000018027 .LASF3863
C:\Users\CYMR90~1\AppData\Local\Temp\ccZoYVSv.s:32641  .debug_str:0000000000027f94 .LASF3864
C:\Users\CYMR90~1\AppData\Local\Temp\ccZoYVSv.s:25162  .debug_str:000000000000a128 .LASF3865
C:\Users\CYMR90~1\AppData\Local\Temp\ccZoYVSv.s:33793  .debug_str:000000000002c75d .LASF3866
C:\Users\CYMR90~1\AppData\Local\Temp\ccZoYVSv.s:24690  .debug_str:00000000000083ab .LASF3867
C:\Users\CYMR90~1\AppData\Local\Temp\ccZoYVSv.s:27036  .debug_str:00000000000118a4 .LASF3868
C:\Users\CYMR90~1\AppData\Local\Temp\ccZoYVSv.s:29593  .debug_str:000000000001bf70 .LASF3869
C:\Users\CYMR90~1\AppData\Local\Temp\ccZoYVSv.s:33713  .debug_str:000000000002c1f9 .LASF3870
C:\Users\CYMR90~1\AppData\Local\Temp\ccZoYVSv.s:30587  .debug_str:000000000001fe4c .LASF3871
C:\Users\CYMR90~1\AppData\Local\Temp\ccZoYVSv.s:30195  .debug_str:000000000001e6ed .LASF3872
C:\Users\CYMR90~1\AppData\Local\Temp\ccZoYVSv.s:32573  .debug_str:0000000000027bad .LASF3873
C:\Users\CYMR90~1\AppData\Local\Temp\ccZoYVSv.s:23516  .debug_str:0000000000003723 .LASF3874
C:\Users\CYMR90~1\AppData\Local\Temp\ccZoYVSv.s:30921  .debug_str:00000000000212cd .LASF3875
C:\Users\CYMR90~1\AppData\Local\Temp\ccZoYVSv.s:23426  .debug_str:0000000000003132 .LASF3876
C:\Users\CYMR90~1\AppData\Local\Temp\ccZoYVSv.s:30547  .debug_str:000000000001fbd8 .LASF3877
C:\Users\CYMR90~1\AppData\Local\Temp\ccZoYVSv.s:32975  .debug_str:000000000002956f .LASF3878
C:\Users\CYMR90~1\AppData\Local\Temp\ccZoYVSv.s:27364  .debug_str:0000000000012eb4 .LASF3879
C:\Users\CYMR90~1\AppData\Local\Temp\ccZoYVSv.s:26152  .debug_str:000000000000e22f .LASF3880
C:\Users\CYMR90~1\AppData\Local\Temp\ccZoYVSv.s:23178  .debug_str:00000000000021b4 .LASF3881
C:\Users\CYMR90~1\AppData\Local\Temp\ccZoYVSv.s:32511  .debug_str:0000000000027751 .LASF3882
C:\Users\CYMR90~1\AppData\Local\Temp\ccZoYVSv.s:27066  .debug_str:0000000000011b27 .LASF3883
C:\Users\CYMR90~1\AppData\Local\Temp\ccZoYVSv.s:28991  .debug_str:000000000001986a .LASF3884
C:\Users\CYMR90~1\AppData\Local\Temp\ccZoYVSv.s:30551  .debug_str:000000000001fc17 .LASF3885
C:\Users\CYMR90~1\AppData\Local\Temp\ccZoYVSv.s:22722  .debug_str:00000000000005a4 .LASF3886
C:\Users\CYMR90~1\AppData\Local\Temp\ccZoYVSv.s:29475  .debug_str:000000000001b8b7 .LASF3887
C:\Users\CYMR90~1\AppData\Local\Temp\ccZoYVSv.s:33567  .debug_str:000000000002b817 .LASF3888
C:\Users\CYMR90~1\AppData\Local\Temp\ccZoYVSv.s:26086  .debug_str:000000000000de06 .LASF3889
C:\Users\CYMR90~1\AppData\Local\Temp\ccZoYVSv.s:25092  .debug_str:0000000000009cfe .LASF3890
C:\Users\CYMR90~1\AppData\Local\Temp\ccZoYVSv.s:29029  .debug_str:0000000000019a95 .LASF3891
C:\Users\CYMR90~1\AppData\Local\Temp\ccZoYVSv.s:24960  .debug_str:00000000000094c7 .LASF3892
C:\Users\CYMR90~1\AppData\Local\Temp\ccZoYVSv.s:28923  .debug_str:0000000000019389 .LASF3893
C:\Users\CYMR90~1\AppData\Local\Temp\ccZoYVSv.s:32929  .debug_str:00000000000292f7 .LASF3894
C:\Users\CYMR90~1\AppData\Local\Temp\ccZoYVSv.s:27862  .debug_str:0000000000014e98 .LASF3895
C:\Users\CYMR90~1\AppData\Local\Temp\ccZoYVSv.s:29425  .debug_str:000000000001b58e .LASF3896
C:\Users\CYMR90~1\AppData\Local\Temp\ccZoYVSv.s:33503  .debug_str:000000000002b498 .LASF3897
C:\Users\CYMR90~1\AppData\Local\Temp\ccZoYVSv.s:26024  .debug_str:000000000000da16 .LASF3898
C:\Users\CYMR90~1\AppData\Local\Temp\ccZoYVSv.s:25150  .debug_str:000000000000a051 .LASF3899
C:\Users\CYMR90~1\AppData\Local\Temp\ccZoYVSv.s:27504  .debug_str:0000000000013878 .LASF3900
C:\Users\CYMR90~1\AppData\Local\Temp\ccZoYVSv.s:30989  .debug_str:00000000000216d0 .LASF3901
C:\Users\CYMR90~1\AppData\Local\Temp\ccZoYVSv.s:25096  .debug_str:0000000000009d35 .LASF3902
C:\Users\CYMR90~1\AppData\Local\Temp\ccZoYVSv.s:32861  .debug_str:0000000000028ed9 .LASF3903
C:\Users\CYMR90~1\AppData\Local\Temp\ccZoYVSv.s:25386  .debug_str:000000000000afc0 .LASF3904
C:\Users\CYMR90~1\AppData\Local\Temp\ccZoYVSv.s:29363  .debug_str:000000000001b154 .LASF3905
C:\Users\CYMR90~1\AppData\Local\Temp\ccZoYVSv.s:33429  .debug_str:000000000002b052 .LASF3906
C:\Users\CYMR90~1\AppData\Local\Temp\ccZoYVSv.s:28673  .debug_str:0000000000018368 .LASF3907
C:\Users\CYMR90~1\AppData\Local\Temp\ccZoYVSv.s:27472  .debug_str:000000000001361e .LASF3908
C:\Users\CYMR90~1\AppData\Local\Temp\ccZoYVSv.s:33919  .debug_str:000000000002cf97 .LASF3909
C:\Users\CYMR90~1\AppData\Local\Temp\ccZoYVSv.s:27034  .debug_str:000000000001187e .LASF3910
C:\Users\CYMR90~1\AppData\Local\Temp\ccZoYVSv.s:23460  .debug_str:0000000000003379 .LASF3911
C:\Users\CYMR90~1\AppData\Local\Temp\ccZoYVSv.s:32795  .debug_str:00000000000289f0 .LASF3912
C:\Users\CYMR90~1\AppData\Local\Temp\ccZoYVSv.s:33373  .debug_str:000000000002ad2b .LASF3913
C:\Users\CYMR90~1\AppData\Local\Temp\ccZoYVSv.s:24264  .debug_str:00000000000066ee .LASF3914
C:\Users\CYMR90~1\AppData\Local\Temp\ccZoYVSv.s:33363  .debug_str:000000000002ac54 .LASF3915
C:\Users\CYMR90~1\AppData\Local\Temp\ccZoYVSv.s:25896  .debug_str:000000000000d176 .LASF3916
C:\Users\CYMR90~1\AppData\Local\Temp\ccZoYVSv.s:29833  .debug_str:000000000001cec9 .LASF3917
C:\Users\CYMR90~1\AppData\Local\Temp\ccZoYVSv.s:33855  .debug_str:000000000002cb9c .LASF3918
C:\Users\CYMR90~1\AppData\Local\Temp\ccZoYVSv.s:24692  .debug_str:00000000000083d1 .LASF3919
C:\Users\CYMR90~1\AppData\Local\Temp\ccZoYVSv.s:27852  .debug_str:0000000000014e17 .LASF3920
C:\Users\CYMR90~1\AppData\Local\Temp\ccZoYVSv.s:27378  .debug_str:0000000000012fbb .LASF3921
C:\Users\CYMR90~1\AppData\Local\Temp\ccZoYVSv.s:25252  .debug_str:000000000000a6d9 .LASF3922
C:\Users\CYMR90~1\AppData\Local\Temp\ccZoYVSv.s:29215  .debug_str:000000000001a65d .LASF3923
C:\Users\CYMR90~1\AppData\Local\Temp\ccZoYVSv.s:26698  .debug_str:00000000000103f7 .LASF3924
C:\Users\CYMR90~1\AppData\Local\Temp\ccZoYVSv.s:29605  .debug_str:000000000001c058 .LASF3925
C:\Users\CYMR90~1\AppData\Local\Temp\ccZoYVSv.s:29761  .debug_str:000000000001c98b .LASF3926
C:\Users\CYMR90~1\AppData\Local\Temp\ccZoYVSv.s:31101  .debug_str:0000000000021dd8 .LASF3927
C:\Users\CYMR90~1\AppData\Local\Temp\ccZoYVSv.s:26300  .debug_str:000000000000eb69 .LASF3928
C:\Users\CYMR90~1\AppData\Local\Temp\ccZoYVSv.s:30221  .debug_str:000000000001e853 .LASF3929
C:\Users\CYMR90~1\AppData\Local\Temp\ccZoYVSv.s:22812  .debug_str:0000000000000b67 .LASF3930
C:\Users\CYMR90~1\AppData\Local\Temp\ccZoYVSv.s:26804  .debug_str:0000000000010ace .LASF3931
C:\Users\CYMR90~1\AppData\Local\Temp\ccZoYVSv.s:31375  .debug_str:0000000000022e19 .LASF3932
C:\Users\CYMR90~1\AppData\Local\Temp\ccZoYVSv.s:33235  .debug_str:000000000002a50a .LASF3933
C:\Users\CYMR90~1\AppData\Local\Temp\ccZoYVSv.s:25766  .debug_str:000000000000c948 .LASF3934
C:\Users\CYMR90~1\AppData\Local\Temp\ccZoYVSv.s:27876  .debug_str:0000000000014f78 .LASF3935
C:\Users\CYMR90~1\AppData\Local\Temp\ccZoYVSv.s:33727  .debug_str:000000000002c2b8 .LASF3936
C:\Users\CYMR90~1\AppData\Local\Temp\ccZoYVSv.s:30247  .debug_str:000000000001e9e2 .LASF3937
C:\Users\CYMR90~1\AppData\Local\Temp\ccZoYVSv.s:30153  .debug_str:000000000001e46d .LASF3938
C:\Users\CYMR90~1\AppData\Local\Temp\ccZoYVSv.s:22750  .debug_str:0000000000000763 .LASF3939
C:\Users\CYMR90~1\AppData\Local\Temp\ccZoYVSv.s:33905  .debug_str:000000000002ce8d .LASF3940
C:\Users\CYMR90~1\AppData\Local\Temp\ccZoYVSv.s:23730  .debug_str:000000000000451e .LASF3941
C:\Users\CYMR90~1\AppData\Local\Temp\ccZoYVSv.s:33171  .debug_str:000000000002a12b .LASF3942
C:\Users\CYMR90~1\AppData\Local\Temp\ccZoYVSv.s:32537  .debug_str:00000000000278d2 .LASF3943
C:\Users\CYMR90~1\AppData\Local\Temp\ccZoYVSv.s:31463  .debug_str:00000000000233ae .LASF3944
C:\Users\CYMR90~1\AppData\Local\Temp\ccZoYVSv.s:33847  .debug_str:000000000002cb1e .LASF3945
C:\Users\CYMR90~1\AppData\Local\Temp\ccZoYVSv.s:26178  .debug_str:000000000000e3b5 .LASF3946
C:\Users\CYMR90~1\AppData\Local\Temp\ccZoYVSv.s:24040  .debug_str:000000000000594c .LASF3947
C:\Users\CYMR90~1\AppData\Local\Temp\ccZoYVSv.s:22682  .debug_str:000000000000034a .LASF3948
C:\Users\CYMR90~1\AppData\Local\Temp\ccZoYVSv.s:27246  .debug_str:00000000000126f5 .LASF3949
C:\Users\CYMR90~1\AppData\Local\Temp\ccZoYVSv.s:23604  .debug_str:0000000000003cc5 .LASF3950
C:\Users\CYMR90~1\AppData\Local\Temp\ccZoYVSv.s:27726  .debug_str:0000000000014632 .LASF3951
C:\Users\CYMR90~1\AppData\Local\Temp\ccZoYVSv.s:25630  .debug_str:000000000000c097 .LASF3952
C:\Users\CYMR90~1\AppData\Local\Temp\ccZoYVSv.s:22972  .debug_str:000000000000154d .LASF3953
C:\Users\CYMR90~1\AppData\Local\Temp\ccZoYVSv.s:25950  .debug_str:000000000000d533 .LASF3954
C:\Users\CYMR90~1\AppData\Local\Temp\ccZoYVSv.s:23422  .debug_str:00000000000030f1 .LASF3955
C:\Users\CYMR90~1\AppData\Local\Temp\ccZoYVSv.s:30609  .debug_str:000000000001ffbf .LASF3956
C:\Users\CYMR90~1\AppData\Local\Temp\ccZoYVSv.s:34061  .debug_str:000000000002d8a0 .LASF3957
C:\Users\CYMR90~1\AppData\Local\Temp\ccZoYVSv.s:22966  .debug_str:00000000000014f1 .LASF3958
C:\Users\CYMR90~1\AppData\Local\Temp\ccZoYVSv.s:27174  .debug_str:000000000001223d .LASF3959
C:\Users\CYMR90~1\AppData\Local\Temp\ccZoYVSv.s:29527  .debug_str:000000000001bbef .LASF3960
C:\Users\CYMR90~1\AppData\Local\Temp\ccZoYVSv.s:32251  .debug_str:0000000000026731 .LASF3961
C:\Users\CYMR90~1\AppData\Local\Temp\ccZoYVSv.s:27902  .debug_str:0000000000015151 .LASF3962
C:\Users\CYMR90~1\AppData\Local\Temp\ccZoYVSv.s:31177  .debug_str:00000000000222a5 .LASF3963
C:\Users\CYMR90~1\AppData\Local\Temp\ccZoYVSv.s:23416  .debug_str:00000000000030a2 .LASF3964
C:\Users\CYMR90~1\AppData\Local\Temp\ccZoYVSv.s:24754  .debug_str:00000000000087b3 .LASF3965
C:\Users\CYMR90~1\AppData\Local\Temp\ccZoYVSv.s:28705  .debug_str:0000000000018562 .LASF3966
C:\Users\CYMR90~1\AppData\Local\Temp\ccZoYVSv.s:32719  .debug_str:00000000000284ba .LASF3967
C:\Users\CYMR90~1\AppData\Local\Temp\ccZoYVSv.s:32711  .debug_str:000000000002843b .LASF3968
C:\Users\CYMR90~1\AppData\Local\Temp\ccZoYVSv.s:33921  .debug_str:000000000002cfbd .LASF3969
C:\Users\CYMR90~1\AppData\Local\Temp\ccZoYVSv.s:33289  .debug_str:000000000002a831 .LASF3970
C:\Users\CYMR90~1\AppData\Local\Temp\ccZoYVSv.s:24868  .debug_str:0000000000008f6f .LASF3971
C:\Users\CYMR90~1\AppData\Local\Temp\ccZoYVSv.s:23290  .debug_str:00000000000028b4 .LASF3972
C:\Users\CYMR90~1\AppData\Local\Temp\ccZoYVSv.s:32159  .debug_str:00000000000261c0 .LASF3973
C:\Users\CYMR90~1\AppData\Local\Temp\ccZoYVSv.s:24696  .debug_str:000000000000840d .LASF3974
C:\Users\CYMR90~1\AppData\Local\Temp\ccZoYVSv.s:28633  .debug_str:00000000000180f7 .LASF3975
C:\Users\CYMR90~1\AppData\Local\Temp\ccZoYVSv.s:33495  .debug_str:000000000002b3f5 .LASF3976
C:\Users\CYMR90~1\AppData\Local\Temp\ccZoYVSv.s:23626  .debug_str:0000000000003e4c .LASF3977
C:\Users\CYMR90~1\AppData\Local\Temp\ccZoYVSv.s:29133  .debug_str:000000000001a1de .LASF3978
C:\Users\CYMR90~1\AppData\Local\Temp\ccZoYVSv.s:33231  .debug_str:000000000002a4cd .LASF3979
C:\Users\CYMR90~1\AppData\Local\Temp\ccZoYVSv.s:31629  .debug_str:0000000000023d4c .LASF3980
C:\Users\CYMR90~1\AppData\Local\Temp\ccZoYVSv.s:30641  .debug_str:00000000000201b2 .LASF3981
C:\Users\CYMR90~1\AppData\Local\Temp\ccZoYVSv.s:31979  .debug_str:00000000000253e9 .LASF3982
C:\Users\CYMR90~1\AppData\Local\Temp\ccZoYVSv.s:34011  .debug_str:000000000002d5bf .LASF3983
C:\Users\CYMR90~1\AppData\Local\Temp\ccZoYVSv.s:28573  .debug_str:0000000000017d7c .LASF3984
C:\Users\CYMR90~1\AppData\Local\Temp\ccZoYVSv.s:32267  .debug_str:000000000002686f .LASF3985
C:\Users\CYMR90~1\AppData\Local\Temp\ccZoYVSv.s:29305  .debug_str:000000000001ad92 .LASF3986
C:\Users\CYMR90~1\AppData\Local\Temp\ccZoYVSv.s:29547  .debug_str:000000000001bd31 .LASF3987
C:\Users\CYMR90~1\AppData\Local\Temp\ccZoYVSv.s:33163  .debug_str:000000000002a0bb .LASF3988
C:\Users\CYMR90~1\AppData\Local\Temp\ccZoYVSv.s:25688  .debug_str:000000000000c48f .LASF3989
C:\Users\CYMR90~1\AppData\Local\Temp\ccZoYVSv.s:26100  .debug_str:000000000000dead .LASF3990
C:\Users\CYMR90~1\AppData\Local\Temp\ccZoYVSv.s:28911  .debug_str:00000000000192d2 .LASF3991
C:\Users\CYMR90~1\AppData\Local\Temp\ccZoYVSv.s:24556  .debug_str:0000000000007989 .LASF3992
C:\Users\CYMR90~1\AppData\Local\Temp\ccZoYVSv.s:28509  .debug_str:0000000000017954 .LASF3993
C:\Users\CYMR90~1\AppData\Local\Temp\ccZoYVSv.s:31609  .debug_str:0000000000023bee .LASF3994
C:\Users\CYMR90~1\AppData\Local\Temp\ccZoYVSv.s:25022  .debug_str:0000000000009899 .LASF3995
C:\Users\CYMR90~1\AppData\Local\Temp\ccZoYVSv.s:33975  .debug_str:000000000002d330 .LASF3996
C:\Users\CYMR90~1\AppData\Local\Temp\ccZoYVSv.s:33103  .debug_str:0000000000029d35 .LASF3997
C:\Users\CYMR90~1\AppData\Local\Temp\ccZoYVSv.s:25624  .debug_str:000000000000c01e .LASF3998
C:\Users\CYMR90~1\AppData\Local\Temp\ccZoYVSv.s:29623  .debug_str:000000000001c173 .LASF3999
C:\Users\CYMR90~1\AppData\Local\Temp\ccZoYVSv.s:32001  .debug_str:0000000000025577 .LASF4000
C:\Users\CYMR90~1\AppData\Local\Temp\ccZoYVSv.s:27960  .debug_str:000000000001551e .LASF4001
C:\Users\CYMR90~1\AppData\Local\Temp\ccZoYVSv.s:28449  .debug_str:0000000000017595 .LASF4002
C:\Users\CYMR90~1\AppData\Local\Temp\ccZoYVSv.s:30387  .debug_str:000000000001f21e .LASF4003
C:\Users\CYMR90~1\AppData\Local\Temp\ccZoYVSv.s:22868  .debug_str:0000000000000ed1 .LASF4004
C:\Users\CYMR90~1\AppData\Local\Temp\ccZoYVSv.s:28939  .debug_str:0000000000019552 .LASF4005
C:\Users\CYMR90~1\AppData\Local\Temp\ccZoYVSv.s:28455  .debug_str:0000000000017601 .LASF4006
C:\Users\CYMR90~1\AppData\Local\Temp\ccZoYVSv.s:30809  .debug_str:0000000000020c0f .LASF4007
C:\Users\CYMR90~1\AppData\Local\Temp\ccZoYVSv.s:33211  .debug_str:000000000002a37f .LASF4008
C:\Users\CYMR90~1\AppData\Local\Temp\ccZoYVSv.s:33515  .debug_str:000000000002b552 .LASF4009
C:\Users\CYMR90~1\AppData\Local\Temp\ccZoYVSv.s:26038  .debug_str:000000000000db0d .LASF4010
C:\Users\CYMR90~1\AppData\Local\Temp\ccZoYVSv.s:33927  .debug_str:000000000002d027 .LASF4011
C:\Users\CYMR90~1\AppData\Local\Temp\ccZoYVSv.s:32391  .debug_str:000000000002701e .LASF4012
C:\Users\CYMR90~1\AppData\Local\Temp\ccZoYVSv.s:26426  .debug_str:000000000000f2d2 .LASF4013
C:\Users\CYMR90~1\AppData\Local\Temp\ccZoYVSv.s:28873  .debug_str:0000000000019078 .LASF4014
C:\Users\CYMR90~1\AppData\Local\Temp\ccZoYVSv.s:32029  .debug_str:0000000000025754 .LASF4015
C:\Users\CYMR90~1\AppData\Local\Temp\ccZoYVSv.s:31851  .debug_str:0000000000024b9e .LASF4016
C:\Users\CYMR90~1\AppData\Local\Temp\ccZoYVSv.s:29455  .debug_str:000000000001b7a2 .LASF4017
C:\Users\CYMR90~1\AppData\Local\Temp\ccZoYVSv.s:33445  .debug_str:000000000002b129 .LASF4018
C:\Users\CYMR90~1\AppData\Local\Temp\ccZoYVSv.s:25978  .debug_str:000000000000d73a .LASF4019
C:\Users\CYMR90~1\AppData\Local\Temp\ccZoYVSv.s:32393  .debug_str:0000000000027044 .LASF4020
C:\Users\CYMR90~1\AppData\Local\Temp\ccZoYVSv.s:28346  .debug_str:0000000000016d46 .LASF4021
C:\Users\CYMR90~1\AppData\Local\Temp\ccZoYVSv.s:24842  .debug_str:0000000000008d68 .LASF4022
C:\Users\CYMR90~1\AppData\Local\Temp\ccZoYVSv.s:28797  .debug_str:0000000000018ae7 .LASF4023
C:\Users\CYMR90~1\AppData\Local\Temp\ccZoYVSv.s:24116  .debug_str:0000000000005e1a .LASF4024
C:\Users\CYMR90~1\AppData\Local\Temp\ccZoYVSv.s:25430  .debug_str:000000000000b347 .LASF4025
C:\Users\CYMR90~1\AppData\Local\Temp\ccZoYVSv.s:28833  .debug_str:0000000000018d52 .LASF4026
C:\Users\CYMR90~1\AppData\Local\Temp\ccZoYVSv.s:29051  .debug_str:0000000000019c5a .LASF4027
C:\Users\CYMR90~1\AppData\Local\Temp\ccZoYVSv.s:33595  .debug_str:000000000002ba12 .LASF4028
C:\Users\CYMR90~1\AppData\Local\Temp\ccZoYVSv.s:24476  .debug_str:00000000000074b5 .LASF4029
C:\Users\CYMR90~1\AppData\Local\Temp\ccZoYVSv.s:33869  .debug_str:000000000002cc7d .LASF4030
C:\Users\CYMR90~1\AppData\Local\Temp\ccZoYVSv.s:30861  .debug_str:0000000000020f0c .LASF4031
C:\Users\CYMR90~1\AppData\Local\Temp\ccZoYVSv.s:24420  .debug_str:00000000000070ad .LASF4032
C:\Users\CYMR90~1\AppData\Local\Temp\ccZoYVSv.s:32831  .debug_str:0000000000028cc2 .LASF4033
C:\Users\CYMR90~1\AppData\Local\Temp\ccZoYVSv.s:25354  .debug_str:000000000000adbc .LASF4034
C:\Users\CYMR90~1\AppData\Local\Temp\ccZoYVSv.s:24030  .debug_str:0000000000005874 .LASF4035
C:\Users\CYMR90~1\AppData\Local\Temp\ccZoYVSv.s:24792  .debug_str:00000000000089e1 .LASF4036
C:\Users\CYMR90~1\AppData\Local\Temp\ccZoYVSv.s:25852  .debug_str:000000000000cece .LASF4037
C:\Users\CYMR90~1\AppData\Local\Temp\ccZoYVSv.s:29779  .debug_str:000000000001caad .LASF4038
C:\Users\CYMR90~1\AppData\Local\Temp\ccZoYVSv.s:33803  .debug_str:000000000002c7e5 .LASF4039
C:\Users\CYMR90~1\AppData\Local\Temp\ccZoYVSv.s:26416  .debug_str:000000000000f23d .LASF4040
C:\Users\CYMR90~1\AppData\Local\Temp\ccZoYVSv.s:30583  .debug_str:000000000001fdfb .LASF4041
C:\Users\CYMR90~1\AppData\Local\Temp\ccZoYVSv.s:31229  .debug_str:00000000000225bc .LASF4042
C:\Users\CYMR90~1\AppData\Local\Temp\ccZoYVSv.s:33625  .debug_str:000000000002bc19 .LASF4043
C:\Users\CYMR90~1\AppData\Local\Temp\ccZoYVSv.s:29263  .debug_str:000000000001aa82 .LASF4044
C:\Users\CYMR90~1\AppData\Local\Temp\ccZoYVSv.s:31959  .debug_str:00000000000252a8 .LASF4045
C:\Users\CYMR90~1\AppData\Local\Temp\ccZoYVSv.s:29233  .debug_str:000000000001a929 .LASF4046
C:\Users\CYMR90~1\AppData\Local\Temp\ccZoYVSv.s:29707  .debug_str:000000000001c6a7 .LASF4047
C:\Users\CYMR90~1\AppData\Local\Temp\ccZoYVSv.s:22758  .debug_str:00000000000007cf .LASF4048
C:\Users\CYMR90~1\AppData\Local\Temp\ccZoYVSv.s:25780  .debug_str:000000000000ca11 .LASF4049
C:\Users\CYMR90~1\AppData\Local\Temp\ccZoYVSv.s:23718  .debug_str:0000000000004458 .LASF4050
C:\Users\CYMR90~1\AppData\Local\Temp\ccZoYVSv.s:24100  .debug_str:0000000000005d23 .LASF4051
C:\Users\CYMR90~1\AppData\Local\Temp\ccZoYVSv.s:25224  .debug_str:000000000000a526 .LASF4052
C:\Users\CYMR90~1\AppData\Local\Temp\ccZoYVSv.s:29179  .debug_str:000000000001a461 .LASF4053
C:\Users\CYMR90~1\AppData\Local\Temp\ccZoYVSv.s:33183  .debug_str:000000000002a1e2 .LASF4054
C:\Users\CYMR90~1\AppData\Local\Temp\ccZoYVSv.s:25710  .debug_str:000000000000c5d5 .LASF4055
C:\Users\CYMR90~1\AppData\Local\Temp\ccZoYVSv.s:29647  .debug_str:000000000001c2fc .LASF4056
C:\Users\CYMR90~1\AppData\Local\Temp\ccZoYVSv.s:29895  .debug_str:000000000001d33f .LASF4057
C:\Users\CYMR90~1\AppData\Local\Temp\ccZoYVSv.s:29325  .debug_str:000000000001aeec .LASF4058
C:\Users\CYMR90~1\AppData\Local\Temp\ccZoYVSv.s:30191  .debug_str:000000000001e6b7 .LASF4059
C:\Users\CYMR90~1\AppData\Local\Temp\ccZoYVSv.s:33871  .debug_str:000000000002cca3 .LASF4060
C:\Users\CYMR90~1\AppData\Local\Temp\ccZoYVSv.s:25310  .debug_str:000000000000ab09 .LASF4061
C:\Users\CYMR90~1\AppData\Local\Temp\ccZoYVSv.s:23758  .debug_str:0000000000004713 .LASF4062
C:\Users\CYMR90~1\AppData\Local\Temp\ccZoYVSv.s:27820  .debug_str:0000000000014c2f .LASF4063
C:\Users\CYMR90~1\AppData\Local\Temp\ccZoYVSv.s:31829  .debug_str:0000000000024a0a .LASF4064
C:\Users\CYMR90~1\AppData\Local\Temp\ccZoYVSv.s:24342  .debug_str:0000000000006bde .LASF4065
C:\Users\CYMR90~1\AppData\Local\Temp\ccZoYVSv.s:22864  .debug_str:0000000000000e93 .LASF4066
C:\Users\CYMR90~1\AppData\Local\Temp\ccZoYVSv.s:33709  .debug_str:000000000002c198 .LASF4067
C:\Users\CYMR90~1\AppData\Local\Temp\ccZoYVSv.s:24326  .debug_str:0000000000006ad3 .LASF4068
C:\Users\CYMR90~1\AppData\Local\Temp\ccZoYVSv.s:28791  .debug_str:0000000000018a9b .LASF4069
C:\Users\CYMR90~1\AppData\Local\Temp\ccZoYVSv.s:32897  .debug_str:000000000002914b .LASF4070
C:\Users\CYMR90~1\AppData\Local\Temp\ccZoYVSv.s:25312  .debug_str:000000000000ab2f .LASF4071
C:\Users\CYMR90~1\AppData\Local\Temp\ccZoYVSv.s:27762  .debug_str:0000000000014823 .LASF4072
C:\Users\CYMR90~1\AppData\Local\Temp\ccZoYVSv.s:31761  .debug_str:0000000000024517 .LASF4073
C:\Users\CYMR90~1\AppData\Local\Temp\ccZoYVSv.s:32525  .debug_str:0000000000027822 .LASF4074
C:\Users\CYMR90~1\AppData\Local\Temp\ccZoYVSv.s:29991  .debug_str:000000000001d99a .LASF4075
C:\Users\CYMR90~1\AppData\Local\Temp\ccZoYVSv.s:30735  .debug_str:0000000000020761 .LASF4076
C:\Users\CYMR90~1\AppData\Local\Temp\ccZoYVSv.s:26812  .debug_str:0000000000010b32 .LASF4077
C:\Users\CYMR90~1\AppData\Local\Temp\ccZoYVSv.s:30439  .debug_str:000000000001f566 .LASF4078
C:\Users\CYMR90~1\AppData\Local\Temp\ccZoYVSv.s:32821  .debug_str:0000000000028c16 .LASF4079
C:\Users\CYMR90~1\AppData\Local\Temp\ccZoYVSv.s:24670  .debug_str:00000000000081b3 .LASF4080
C:\Users\CYMR90~1\AppData\Local\Temp\ccZoYVSv.s:32117  .debug_str:0000000000025e2d .LASF4081
C:\Users\CYMR90~1\AppData\Local\Temp\ccZoYVSv.s:32307  .debug_str:0000000000026ab7 .LASF4082
C:\Users\CYMR90~1\AppData\Local\Temp\ccZoYVSv.s:25012  .debug_str:0000000000009803 .LASF4083
C:\Users\CYMR90~1\AppData\Local\Temp\ccZoYVSv.s:28154  .debug_str:00000000000160cd .LASF4084
C:\Users\CYMR90~1\AppData\Local\Temp\ccZoYVSv.s:32175  .debug_str:00000000000262ad .LASF4085
C:\Users\CYMR90~1\AppData\Local\Temp\ccZoYVSv.s:27240  .debug_str:000000000001269a .LASF4086
C:\Users\CYMR90~1\AppData\Local\Temp\ccZoYVSv.s:27286  .debug_str:0000000000012990 .LASF4087
C:\Users\CYMR90~1\AppData\Local\Temp\ccZoYVSv.s:25880  .debug_str:000000000000d041 .LASF4088
C:\Users\CYMR90~1\AppData\Local\Temp\ccZoYVSv.s:25282  .debug_str:000000000000a848 .LASF4089
C:\Users\CYMR90~1\AppData\Local\Temp\ccZoYVSv.s:31913  .debug_str:0000000000024f50 .LASF4090
C:\Users\CYMR90~1\AppData\Local\Temp\ccZoYVSv.s:26296  .debug_str:000000000000eb33 .LASF4091
C:\Users\CYMR90~1\AppData\Local\Temp\ccZoYVSv.s:28122  .debug_str:0000000000015e92 .LASF4092
C:\Users\CYMR90~1\AppData\Local\Temp\ccZoYVSv.s:30469  .debug_str:000000000001f744 .LASF4093
C:\Users\CYMR90~1\AppData\Local\Temp\ccZoYVSv.s:32113  .debug_str:0000000000025ddb .LASF4094
C:\Users\CYMR90~1\AppData\Local\Temp\ccZoYVSv.s:31893  .debug_str:0000000000024e0c .LASF4095
C:\Users\CYMR90~1\AppData\Local\Temp\ccZoYVSv.s:23688  .debug_str:00000000000042a4 .LASF4096
C:\Users\CYMR90~1\AppData\Local\Temp\ccZoYVSv.s:29423  .debug_str:000000000001b568 .LASF4097
C:\Users\CYMR90~1\AppData\Local\Temp\ccZoYVSv.s:26900  .debug_str:000000000001109b .LASF4098
C:\Users\CYMR90~1\AppData\Local\Temp\ccZoYVSv.s:27620  .debug_str:0000000000013f90 .LASF4099
C:\Users\CYMR90~1\AppData\Local\Temp\ccZoYVSv.s:25056  .debug_str:0000000000009ae2 .LASF4100
C:\Users\CYMR90~1\AppData\Local\Temp\ccZoYVSv.s:32507  .debug_str:0000000000027709 .LASF4101
C:\Users\CYMR90~1\AppData\Local\Temp\ccZoYVSv.s:28026  .debug_str:00000000000158df .LASF4102
C:\Users\CYMR90~1\AppData\Local\Temp\ccZoYVSv.s:33813  .debug_str:000000000002c8b2 .LASF4103
C:\Users\CYMR90~1\AppData\Local\Temp\ccZoYVSv.s:24564  .debug_str:0000000000007a1b .LASF4104
C:\Users\CYMR90~1\AppData\Local\Temp\ccZoYVSv.s:32057  .debug_str:000000000002598b .LASF4105
C:\Users\CYMR90~1\AppData\Local\Temp\ccZoYVSv.s:34055  .debug_str:000000000002d83c .LASF4106
C:\Users\CYMR90~1\AppData\Local\Temp\ccZoYVSv.s:23856  .debug_str:0000000000004e05 .LASF4107
C:\Users\CYMR90~1\AppData\Local\Temp\ccZoYVSv.s:29107  .debug_str:000000000001a03f .LASF4108
C:\Users\CYMR90~1\AppData\Local\Temp\ccZoYVSv.s:24094  .debug_str:0000000000005c8f .LASF4109
C:\Users\CYMR90~1\AppData\Local\Temp\ccZoYVSv.s:25636  .debug_str:000000000000c0f5 .LASF4110
C:\Users\CYMR90~1\AppData\Local\Temp\ccZoYVSv.s:26964  .debug_str:0000000000011437 .LASF4111
C:\Users\CYMR90~1\AppData\Local\Temp\ccZoYVSv.s:25122  .debug_str:0000000000009eca .LASF4112
C:\Users\CYMR90~1\AppData\Local\Temp\ccZoYVSv.s:32269  .debug_str:0000000000026895 .LASF4113
C:\Users\CYMR90~1\AppData\Local\Temp\ccZoYVSv.s:28547  .debug_str:0000000000017bb0 .LASF4114
C:\Users\CYMR90~1\AppData\Local\Temp\ccZoYVSv.s:32559  .debug_str:0000000000027a3d .LASF4115
C:\Users\CYMR90~1\AppData\Local\Temp\ccZoYVSv.s:29769  .debug_str:000000000001c9f6 .LASF4116
C:\Users\CYMR90~1\AppData\Local\Temp\ccZoYVSv.s:29047  .debug_str:0000000000019c0f .LASF4117
C:\Users\CYMR90~1\AppData\Local\Temp\ccZoYVSv.s:33055  .debug_str:0000000000029a60 .LASF4118
C:\Users\CYMR90~1\AppData\Local\Temp\ccZoYVSv.s:23066  .debug_str:0000000000001b3d .LASF4119
C:\Users\CYMR90~1\AppData\Local\Temp\ccZoYVSv.s:25444  .debug_str:000000000000b436 .LASF4120
C:\Users\CYMR90~1\AppData\Local\Temp\ccZoYVSv.s:26590  .debug_str:000000000000fd31 .LASF4121
C:\Users\CYMR90~1\AppData\Local\Temp\ccZoYVSv.s:24430  .debug_str:0000000000007135 .LASF4122
C:\Users\CYMR90~1\AppData\Local\Temp\ccZoYVSv.s:28485  .debug_str:00000000000177d8 .LASF4123
C:\Users\CYMR90~1\AppData\Local\Temp\ccZoYVSv.s:32499  .debug_str:0000000000027691 .LASF4124
C:\Users\CYMR90~1\AppData\Local\Temp\ccZoYVSv.s:30969  .debug_str:000000000002156a .LASF4125
C:\Users\CYMR90~1\AppData\Local\Temp\ccZoYVSv.s:28979  .debug_str:0000000000019793 .LASF4126
C:\Users\CYMR90~1\AppData\Local\Temp\ccZoYVSv.s:24250  .debug_str:0000000000006634 .LASF4127
C:\Users\CYMR90~1\AppData\Local\Temp\ccZoYVSv.s:25508  .debug_str:000000000000b836 .LASF4128
C:\Users\CYMR90~1\AppData\Local\Temp\ccZoYVSv.s:28971  .debug_str:000000000001971d .LASF4129
C:\Users\CYMR90~1\AppData\Local\Temp\ccZoYVSv.s:27136  .debug_str:0000000000011fcf .LASF4130
C:\Users\CYMR90~1\AppData\Local\Temp\ccZoYVSv.s:24170  .debug_str:0000000000006107 .LASF4131
C:\Users\CYMR90~1\AppData\Local\Temp\ccZoYVSv.s:28421  .debug_str:0000000000017408 .LASF4132
C:\Users\CYMR90~1\AppData\Local\Temp\ccZoYVSv.s:32427  .debug_str:0000000000027240 .LASF4133
C:\Users\CYMR90~1\AppData\Local\Temp\ccZoYVSv.s:24946  .debug_str:00000000000093e2 .LASF4134
C:\Users\CYMR90~1\AppData\Local\Temp\ccZoYVSv.s:23032  .debug_str:0000000000001938 .LASF4135
C:\Users\CYMR90~1\AppData\Local\Temp\ccZoYVSv.s:29085  .debug_str:0000000000019ee1 .LASF4136
C:\Users\CYMR90~1\AppData\Local\Temp\ccZoYVSv.s:30129  .debug_str:000000000001e2c2 .LASF4137
C:\Users\CYMR90~1\AppData\Local\Temp\ccZoYVSv.s:29413  .debug_str:000000000001b4cf .LASF4138
C:\Users\CYMR90~1\AppData\Local\Temp\ccZoYVSv.s:33393  .debug_str:000000000002ae5a .LASF4139
C:\Users\CYMR90~1\AppData\Local\Temp\ccZoYVSv.s:26014  .debug_str:000000000000d9a0 .LASF4140
C:\Users\CYMR90~1\AppData\Local\Temp\ccZoYVSv.s:23036  .debug_str:0000000000001984 .LASF4141
C:\Users\CYMR90~1\AppData\Local\Temp\ccZoYVSv.s:32365  .debug_str:0000000000026e5c .LASF4142
C:\Users\CYMR90~1\AppData\Local\Temp\ccZoYVSv.s:26660  .debug_str:00000000000101af .LASF4143
C:\Users\CYMR90~1\AppData\Local\Temp\ccZoYVSv.s:29153  .debug_str:000000000001a2e7 .LASF4144
C:\Users\CYMR90~1\AppData\Local\Temp\ccZoYVSv.s:31367  .debug_str:0000000000022d81 .LASF4145
C:\Users\CYMR90~1\AppData\Local\Temp\ccZoYVSv.s:33757  .debug_str:000000000002c498 .LASF4146
C:\Users\CYMR90~1\AppData\Local\Temp\ccZoYVSv.s:29353  .debug_str:000000000001b0b6 .LASF4147
C:\Users\CYMR90~1\AppData\Local\Temp\ccZoYVSv.s:33331  .debug_str:000000000002aa72 .LASF4148
C:\Users\CYMR90~1\AppData\Local\Temp\ccZoYVSv.s:30207  .debug_str:000000000001e78c .LASF4149
C:\Users\CYMR90~1\AppData\Local\Temp\ccZoYVSv.s:26606  .debug_str:000000000000fe0a .LASF4150
C:\Users\CYMR90~1\AppData\Local\Temp\ccZoYVSv.s:26950  .debug_str:0000000000011357 .LASF4151
C:\Users\CYMR90~1\AppData\Local\Temp\ccZoYVSv.s:24820  .debug_str:0000000000008be3 .LASF4152
C:\Users\CYMR90~1\AppData\Local\Temp\ccZoYVSv.s:28763  .debug_str:0000000000018905 .LASF4153
C:\Users\CYMR90~1\AppData\Local\Temp\ccZoYVSv.s:29925  .debug_str:000000000001d58c .LASF4154
C:\Users\CYMR90~1\AppData\Local\Temp\ccZoYVSv.s:26928  .debug_str:00000000000111ff .LASF4155
C:\Users\CYMR90~1\AppData\Local\Temp\ccZoYVSv.s:29277  .debug_str:000000000001ab84 .LASF4156
C:\Users\CYMR90~1\AppData\Local\Temp\ccZoYVSv.s:27648  .debug_str:0000000000014138 .LASF4157
C:\Users\CYMR90~1\AppData\Local\Temp\ccZoYVSv.s:30251  .debug_str:000000000001ea38 .LASF4158
C:\Users\CYMR90~1\AppData\Local\Temp\ccZoYVSv.s:31039  .debug_str:00000000000219a4 .LASF4159
C:\Users\CYMR90~1\AppData\Local\Temp\ccZoYVSv.s:27076  .debug_str:0000000000011bbb .LASF4160
C:\Users\CYMR90~1\AppData\Local\Temp\ccZoYVSv.s:25352  .debug_str:000000000000ad96 .LASF4161
C:\Users\CYMR90~1\AppData\Local\Temp\ccZoYVSv.s:23464  .debug_str:00000000000033b7 .LASF4162
C:\Users\CYMR90~1\AppData\Local\Temp\ccZoYVSv.s:27444  .debug_str:0000000000013405 .LASF4163
C:\Users\CYMR90~1\AppData\Local\Temp\ccZoYVSv.s:31073  .debug_str:0000000000021c4b .LASF4164
C:\Users\CYMR90~1\AppData\Local\Temp\ccZoYVSv.s:23932  .debug_str:000000000000529c .LASF4165
C:\Users\CYMR90~1\AppData\Local\Temp\ccZoYVSv.s:27898  .debug_str:0000000000015109 .LASF4166
C:\Users\CYMR90~1\AppData\Local\Temp\ccZoYVSv.s:31903  .debug_str:0000000000024eb4 .LASF4167
C:\Users\CYMR90~1\AppData\Local\Temp\ccZoYVSv.s:24422  .debug_str:00000000000070d3 .LASF4168
C:\Users\CYMR90~1\AppData\Local\Temp\ccZoYVSv.s:26078  .debug_str:000000000000dd96 .LASF4169
C:\Users\CYMR90~1\AppData\Local\Temp\ccZoYVSv.s:32491  .debug_str:00000000000275f6 .LASF4170
C:\Users\CYMR90~1\AppData\Local\Temp\ccZoYVSv.s:30661  .debug_str:00000000000202d2 .LASF4171
C:\Users\CYMR90~1\AppData\Local\Temp\ccZoYVSv.s:27386  .debug_str:0000000000013056 .LASF4172
C:\Users\CYMR90~1\AppData\Local\Temp\ccZoYVSv.s:31357  .debug_str:0000000000022ccf .LASF4173
C:\Users\CYMR90~1\AppData\Local\Temp\ccZoYVSv.s:27226  .debug_str:00000000000125a3 .LASF4174
C:\Users\CYMR90~1\AppData\Local\Temp\ccZoYVSv.s:27942  .debug_str:0000000000015405 .LASF4175
C:\Users\CYMR90~1\AppData\Local\Temp\ccZoYVSv.s:32351  .debug_str:0000000000026d66 .LASF4176
C:\Users\CYMR90~1\AppData\Local\Temp\ccZoYVSv.s:32649  .debug_str:0000000000028019 .LASF4177
C:\Users\CYMR90~1\AppData\Local\Temp\ccZoYVSv.s:28312  .debug_str:0000000000016ae6 .LASF4178
C:\Users\CYMR90~1\AppData\Local\Temp\ccZoYVSv.s:26802  .debug_str:0000000000010aa8 .LASF4179
C:\Users\CYMR90~1\AppData\Local\Temp\ccZoYVSv.s:24938  .debug_str:0000000000009373 .LASF4180
C:\Users\CYMR90~1\AppData\Local\Temp\ccZoYVSv.s:33443  .debug_str:000000000002b103 .LASF4181
C:\Users\CYMR90~1\AppData\Local\Temp\ccZoYVSv.s:31283  .debug_str:00000000000228da .LASF4182
C:\Users\CYMR90~1\AppData\Local\Temp\ccZoYVSv.s:28196  .debug_str:00000000000163e0 .LASF4183
C:\Users\CYMR90~1\AppData\Local\Temp\ccZoYVSv.s:31471  .debug_str:0000000000023436 .LASF4184
C:\Users\CYMR90~1\AppData\Local\Temp\ccZoYVSv.s:26514  .debug_str:000000000000f840 .LASF4185
C:\Users\CYMR90~1\AppData\Local\Temp\ccZoYVSv.s:24288  .debug_str:0000000000006842 .LASF4186
C:\Users\CYMR90~1\AppData\Local\Temp\ccZoYVSv.s:28240  .debug_str:0000000000016673 .LASF4187
C:\Users\CYMR90~1\AppData\Local\Temp\ccZoYVSv.s:32355  .debug_str:0000000000026dbd .LASF4188
C:\Users\CYMR90~1\AppData\Local\Temp\ccZoYVSv.s:24878  .debug_str:0000000000009030 .LASF4189
C:\Users\CYMR90~1\AppData\Local\Temp\ccZoYVSv.s:28829  .debug_str:0000000000018cf2 .LASF4190
C:\Users\CYMR90~1\AppData\Local\Temp\ccZoYVSv.s:25910  .debug_str:000000000000d264 .LASF4191
C:\Users\CYMR90~1\AppData\Local\Temp\ccZoYVSv.s:23734  .debug_str:0000000000004568 .LASF4192
C:\Users\CYMR90~1\AppData\Local\Temp\ccZoYVSv.s:27706  .debug_str:000000000001450a .LASF4193
C:\Users\CYMR90~1\AppData\Local\Temp\ccZoYVSv.s:25760  .debug_str:000000000000c8ee .LASF4194
C:\Users\CYMR90~1\AppData\Local\Temp\ccZoYVSv.s:24222  .debug_str:0000000000006473 .LASF4195
C:\Users\CYMR90~1\AppData\Local\Temp\ccZoYVSv.s:23344  .debug_str:0000000000002c44 .LASF4196
C:\Users\CYMR90~1\AppData\Local\Temp\ccZoYVSv.s:33931  .debug_str:000000000002d071 .LASF4197
C:\Users\CYMR90~1\AppData\Local\Temp\ccZoYVSv.s:24812  .debug_str:0000000000008b50 .LASF4198
C:\Users\CYMR90~1\AppData\Local\Temp\ccZoYVSv.s:28757  .debug_str:0000000000018897 .LASF4199
C:\Users\CYMR90~1\AppData\Local\Temp\ccZoYVSv.s:23106  .debug_str:0000000000001d9f .LASF4200
C:\Users\CYMR90~1\AppData\Local\Temp\ccZoYVSv.s:29775  .debug_str:000000000001ca4d .LASF4201
C:\Users\CYMR90~1\AppData\Local\Temp\ccZoYVSv.s:27644  .debug_str:00000000000140f5 .LASF4202
C:\Users\CYMR90~1\AppData\Local\Temp\ccZoYVSv.s:31649  .debug_str:0000000000023e9c .LASF4203
C:\Users\CYMR90~1\AppData\Local\Temp\ccZoYVSv.s:28036  .debug_str:0000000000015991 .LASF4204
C:\Users\CYMR90~1\AppData\Local\Temp\ccZoYVSv.s:32823  .debug_str:0000000000028c3c .LASF4205
C:\Users\CYMR90~1\AppData\Local\Temp\ccZoYVSv.s:26030  .debug_str:000000000000da82 .LASF4206
C:\Users\CYMR90~1\AppData\Local\Temp\ccZoYVSv.s:24742  .debug_str:00000000000086ea .LASF4207
C:\Users\CYMR90~1\AppData\Local\Temp\ccZoYVSv.s:28685  .debug_str:0000000000018402 .LASF4208
C:\Users\CYMR90~1\AppData\Local\Temp\ccZoYVSv.s:32707  .debug_str:00000000000283f3 .LASF4209
C:\Users\CYMR90~1\AppData\Local\Temp\ccZoYVSv.s:25228  .debug_str:000000000000a564 .LASF4210
C:\Users\CYMR90~1\AppData\Local\Temp\ccZoYVSv.s:33739  .debug_str:000000000002c352 .LASF4211
C:\Users\CYMR90~1\AppData\Local\Temp\ccZoYVSv.s:24528  .debug_str:00000000000077bf .LASF4212
C:\Users\CYMR90~1\AppData\Local\Temp\ccZoYVSv.s:24090  .debug_str:0000000000005c37 .LASF4213
C:\Users\CYMR90~1\AppData\Local\Temp\ccZoYVSv.s:27206  .debug_str:0000000000012492 .LASF4214
C:\Users\CYMR90~1\AppData\Local\Temp\ccZoYVSv.s:28084  .debug_str:0000000000015c4e .LASF4215
C:\Users\CYMR90~1\AppData\Local\Temp\ccZoYVSv.s:24682  .debug_str:0000000000008315 .LASF4216
C:\Users\CYMR90~1\AppData\Local\Temp\ccZoYVSv.s:28280  .debug_str:0000000000016915 .LASF4217
C:\Users\CYMR90~1\AppData\Local\Temp\ccZoYVSv.s:25216  .debug_str:000000000000a49f .LASF4218
C:\Users\CYMR90~1\AppData\Local\Temp\ccZoYVSv.s:23326  .debug_str:0000000000002aec .LASF4219
C:\Users\CYMR90~1\AppData\Local\Temp\ccZoYVSv.s:30681  .debug_str:0000000000020465 .LASF4220
C:\Users\CYMR90~1\AppData\Local\Temp\ccZoYVSv.s:25428  .debug_str:000000000000b321 .LASF4221
C:\Users\CYMR90~1\AppData\Local\Temp\ccZoYVSv.s:24024  .debug_str:0000000000005828 .LASF4222
C:\Users\CYMR90~1\AppData\Local\Temp\ccZoYVSv.s:24636  .debug_str:0000000000007ed5 .LASF4223
C:\Users\CYMR90~1\AppData\Local\Temp\ccZoYVSv.s:33143  .debug_str:0000000000029fb3 .LASF4224
C:\Users\CYMR90~1\AppData\Local\Temp\ccZoYVSv.s:24608  .debug_str:0000000000007d3c .LASF4225
C:\Users\CYMR90~1\AppData\Local\Temp\ccZoYVSv.s:24186  .debug_str:000000000000621c .LASF4226
C:\Users\CYMR90~1\AppData\Local\Temp\ccZoYVSv.s:24954  .debug_str:0000000000009468 .LASF4227
C:\Users\CYMR90~1\AppData\Local\Temp\ccZoYVSv.s:31723  .debug_str:0000000000024313 .LASF4228
C:\Users\CYMR90~1\AppData\Local\Temp\ccZoYVSv.s:23786  .debug_str:0000000000004934 .LASF4229
C:\Users\CYMR90~1\AppData\Local\Temp\ccZoYVSv.s:24378  .debug_str:0000000000006df8 .LASF4230
C:\Users\CYMR90~1\AppData\Local\Temp\ccZoYVSv.s:33607  .debug_str:000000000002baee .LASF4231
C:\Users\CYMR90~1\AppData\Local\Temp\ccZoYVSv.s:23962  .debug_str:0000000000005486 .LASF4232
C:\Users\CYMR90~1\AppData\Local\Temp\ccZoYVSv.s:25236  .debug_str:000000000000a5e2 .LASF4233
C:\Users\CYMR90~1\AppData\Local\Temp\ccZoYVSv.s:24540  .debug_str:000000000000788f .LASF4234
C:\Users\CYMR90~1\AppData\Local\Temp\ccZoYVSv.s:29931  .debug_str:000000000001d5f1 .LASF4235
C:\Users\CYMR90~1\AppData\Local\Temp\ccZoYVSv.s:32321  .debug_str:0000000000026ba2 .LASF4236
C:\Users\CYMR90~1\AppData\Local\Temp\ccZoYVSv.s:29269  .debug_str:000000000001aaf4 .LASF4237
C:\Users\CYMR90~1\AppData\Local\Temp\ccZoYVSv.s:25600  .debug_str:000000000000be0a .LASF4238
C:\Users\CYMR90~1\AppData\Local\Temp\ccZoYVSv.s:33089  .debug_str:0000000000029c3c .LASF4239
C:\Users\CYMR90~1\AppData\Local\Temp\ccZoYVSv.s:25360  .debug_str:000000000000ae34 .LASF4240
C:\Users\CYMR90~1\AppData\Local\Temp\ccZoYVSv.s:27188  .debug_str:000000000001233d .LASF4241
C:\Users\CYMR90~1\AppData\Local\Temp\ccZoYVSv.s:31949  .debug_str:00000000000251f2 .LASF4242
C:\Users\CYMR90~1\AppData\Local\Temp\ccZoYVSv.s:31129  .debug_str:0000000000021fbf .LASF4243
C:\Users\CYMR90~1\AppData\Local\Temp\ccZoYVSv.s:28437  .debug_str:00000000000174f0 .LASF4244
C:\Users\CYMR90~1\AppData\Local\Temp\ccZoYVSv.s:32443  .debug_str:000000000002734b .LASF4245
C:\Users\CYMR90~1\AppData\Local\Temp\ccZoYVSv.s:28571  .debug_str:0000000000017d56 .LASF4246
C:\Users\CYMR90~1\AppData\Local\Temp\ccZoYVSv.s:29355  .debug_str:000000000001b0dc .LASF4247
C:\Users\CYMR90~1\AppData\Local\Temp\ccZoYVSv.s:32405  .debug_str:0000000000027102 .LASF4248
C:\Users\CYMR90~1\AppData\Local\Temp\ccZoYVSv.s:25544  .debug_str:000000000000ba8a .LASF4249
C:\Users\CYMR90~1\AppData\Local\Temp\ccZoYVSv.s:29497  .debug_str:000000000001ba1c .LASF4250
C:\Users\CYMR90~1\AppData\Local\Temp\ccZoYVSv.s:31581  .debug_str:0000000000023a59 .LASF4251
C:\Users\CYMR90~1\AppData\Local\Temp\ccZoYVSv.s:24398  .debug_str:0000000000006f7d .LASF4252
C:\Users\CYMR90~1\AppData\Local\Temp\ccZoYVSv.s:28360  .debug_str:0000000000016eb3 .LASF4253
C:\Users\CYMR90~1\AppData\Local\Temp\ccZoYVSv.s:32379  .debug_str:0000000000026f29 .LASF4254
C:\Users\CYMR90~1\AppData\Local\Temp\ccZoYVSv.s:23722  .debug_str:00000000000044a4 .LASF4255
C:\Users\CYMR90~1\AppData\Local\Temp\ccZoYVSv.s:28875  .debug_str:000000000001909e .LASF4256
C:\Users\CYMR90~1\AppData\Local\Temp\ccZoYVSv.s:27508  .debug_str:00000000000138d8 .LASF4257
C:\Users\CYMR90~1\AppData\Local\Temp\ccZoYVSv.s:26860  .debug_str:0000000000010dec .LASF4258
C:\Users\CYMR90~1\AppData\Local\Temp\ccZoYVSv.s:29443  .debug_str:000000000001b6d2 .LASF4259
C:\Users\CYMR90~1\AppData\Local\Temp\ccZoYVSv.s:27866  .debug_str:0000000000014ed2 .LASF4260
C:\Users\CYMR90~1\AppData\Local\Temp\ccZoYVSv.s:22852  .debug_str:0000000000000db8 .LASF4261
C:\Users\CYMR90~1\AppData\Local\Temp\ccZoYVSv.s:32343  .debug_str:0000000000026cce .LASF4262
C:\Users\CYMR90~1\AppData\Local\Temp\ccZoYVSv.s:27040  .debug_str:00000000000118dc .LASF4263
C:\Users\CYMR90~1\AppData\Local\Temp\ccZoYVSv.s:31013  .debug_str:0000000000021827 .LASF4264
C:\Users\CYMR90~1\AppData\Local\Temp\ccZoYVSv.s:23546  .debug_str:0000000000003941 .LASF4265
C:\Users\CYMR90~1\AppData\Local\Temp\ccZoYVSv.s:27528  .debug_str:0000000000013a2b .LASF4266
C:\Users\CYMR90~1\AppData\Local\Temp\ccZoYVSv.s:30909  .debug_str:00000000000211f8 .LASF4267
C:\Users\CYMR90~1\AppData\Local\Temp\ccZoYVSv.s:29747  .debug_str:000000000001c8d4 .LASF4268
C:\Users\CYMR90~1\AppData\Local\Temp\ccZoYVSv.s:28895  .debug_str:00000000000191f3 .LASF4269
C:\Users\CYMR90~1\AppData\Local\Temp\ccZoYVSv.s:30481  .debug_str:000000000001f7f8 .LASF4270
C:\Users\CYMR90~1\AppData\Local\Temp\ccZoYVSv.s:23720  .debug_str:000000000000447e .LASF4271
C:\Users\CYMR90~1\AppData\Local\Temp\ccZoYVSv.s:23654  .debug_str:000000000000402f .LASF4272
C:\Users\CYMR90~1\AppData\Local\Temp\ccZoYVSv.s:30939  .debug_str:00000000000213dd .LASF4273
C:\Users\CYMR90~1\AppData\Local\Temp\ccZoYVSv.s:28857  .debug_str:0000000000018eb8 .LASF4274
C:\Users\CYMR90~1\AppData\Local\Temp\ccZoYVSv.s:27560  .debug_str:0000000000013bf8 .LASF4275
C:\Users\CYMR90~1\AppData\Local\Temp\ccZoYVSv.s:31465  .debug_str:00000000000233d4 .LASF4276
C:\Users\CYMR90~1\AppData\Local\Temp\ccZoYVSv.s:34033  .debug_str:000000000002d6df .LASF4277
C:\Users\CYMR90~1\AppData\Local\Temp\ccZoYVSv.s:25332  .debug_str:000000000000ac43 .LASF4278
C:\Users\CYMR90~1\AppData\Local\Temp\ccZoYVSv.s:26012  .debug_str:000000000000d993 .LASF4279
C:\Users\CYMR90~1\AppData\Local\Temp\ccZoYVSv.s:31603  .debug_str:0000000000023b93 .LASF4280
C:\Users\CYMR90~1\AppData\Local\Temp\ccZoYVSv.s:30105  .debug_str:000000000001e0b7 .LASF4281
C:\Users\CYMR90~1\AppData\Local\Temp\ccZoYVSv.s:22714  .debug_str:0000000000000526 .LASF4282
C:\Users\CYMR90~1\AppData\Local\Temp\ccZoYVSv.s:23776  .debug_str:000000000000484b .LASF4283
C:\Users\CYMR90~1\AppData\Local\Temp\ccZoYVSv.s:26192  .debug_str:000000000000e48e .LASF4284
C:\Users\CYMR90~1\AppData\Local\Temp\ccZoYVSv.s:24348  .debug_str:0000000000006c38 .LASF4285
C:\Users\CYMR90~1\AppData\Local\Temp\ccZoYVSv.s:27580  .debug_str:0000000000013d21 .LASF4286
C:\Users\CYMR90~1\AppData\Local\Temp\ccZoYVSv.s:27204  .debug_str:000000000001246b .LASF4287
C:\Users\CYMR90~1\AppData\Local\Temp\ccZoYVSv.s:23406  .debug_str:0000000000002ffb .LASF4288
C:\Users\CYMR90~1\AppData\Local\Temp\ccZoYVSv.s:23986  .debug_str:00000000000055e9 .LASF4289
C:\Users\CYMR90~1\AppData\Local\Temp\ccZoYVSv.s:23498  .debug_str:000000000000360b .LASF4290
C:\Users\CYMR90~1\AppData\Local\Temp\ccZoYVSv.s:22674  .debug_str:000000000000029e .LASF4291
C:\Users\CYMR90~1\AppData\Local\Temp\ccZoYVSv.s:24948  .debug_str:0000000000009408 .LASF4292
C:\Users\CYMR90~1\AppData\Local\Temp\ccZoYVSv.s:28334  .debug_str:0000000000016cb1 .LASF4293
C:\Users\CYMR90~1\AppData\Local\Temp\ccZoYVSv.s:23396  .debug_str:0000000000002f63 .LASF4294
C:\Users\CYMR90~1\AppData\Local\Temp\ccZoYVSv.s:24756  .debug_str:00000000000087d9 .LASF4295
C:\Users\CYMR90~1\AppData\Local\Temp\ccZoYVSv.s:28200  .debug_str:0000000000016421 .LASF4296
C:\Users\CYMR90~1\AppData\Local\Temp\ccZoYVSv.s:28869  .debug_str:0000000000019011 .LASF4297
C:\Users\CYMR90~1\AppData\Local\Temp\ccZoYVSv.s:31613  .debug_str:0000000000023c4b .LASF4298
C:\Users\CYMR90~1\AppData\Local\Temp\ccZoYVSv.s:31389  .debug_str:0000000000022ef3 .LASF4299
C:\Users\CYMR90~1\AppData\Local\Temp\ccZoYVSv.s:27406  .debug_str:0000000000013186 .LASF4300
C:\Users\CYMR90~1\AppData\Local\Temp\ccZoYVSv.s:30027  .debug_str:000000000001dbf3 .LASF4301
C:\Users\CYMR90~1\AppData\Local\Temp\ccZoYVSv.s:33357  .debug_str:000000000002ac13 .LASF4302
C:\Users\CYMR90~1\AppData\Local\Temp\ccZoYVSv.s:29999  .debug_str:000000000001da17 .LASF4303
C:\Users\CYMR90~1\AppData\Local\Temp\ccZoYVSv.s:32225  .debug_str:000000000002659e .LASF4304
C:\Users\CYMR90~1\AppData\Local\Temp\ccZoYVSv.s:26936  .debug_str:0000000000011286 .LASF4305
C:\Users\CYMR90~1\AppData\Local\Temp\ccZoYVSv.s:30155  .debug_str:000000000001e493 .LASF4306
C:\Users\CYMR90~1\AppData\Local\Temp\ccZoYVSv.s:25126  .debug_str:0000000000009f07 .LASF4307
C:\Users\CYMR90~1\AppData\Local\Temp\ccZoYVSv.s:29409  .debug_str:000000000001b498 .LASF4308
C:\Users\CYMR90~1\AppData\Local\Temp\ccZoYVSv.s:29997  .debug_str:000000000001d9f2 .LASF4309
C:\Users\CYMR90~1\AppData\Local\Temp\ccZoYVSv.s:25520  .debug_str:000000000000b8d5 .LASF4310
C:\Users\CYMR90~1\AppData\Local\Temp\ccZoYVSv.s:28551  .debug_str:0000000000017bee .LASF4311
C:\Users\CYMR90~1\AppData\Local\Temp\ccZoYVSv.s:29695  .debug_str:000000000001c5e1 .LASF4312
C:\Users\CYMR90~1\AppData\Local\Temp\ccZoYVSv.s:27336  .debug_str:0000000000012d0e .LASF4313
C:\Users\CYMR90~1\AppData\Local\Temp\ccZoYVSv.s:30889  .debug_str:00000000000210a1 .LASF4314
C:\Users\CYMR90~1\AppData\Local\Temp\ccZoYVSv.s:32363  .debug_str:0000000000026e37 .LASF4315
C:\Users\CYMR90~1\AppData\Local\Temp\ccZoYVSv.s:23070  .debug_str:0000000000001b77 .LASF4316
C:\Users\CYMR90~1\AppData\Local\Temp\ccZoYVSv.s:28034  .debug_str:000000000001596c .LASF4317
C:\Users\CYMR90~1\AppData\Local\Temp\ccZoYVSv.s:27384  .debug_str:0000000000013031 .LASF4318
C:\Users\CYMR90~1\AppData\Local\Temp\ccZoYVSv.s:33737  .debug_str:000000000002c33b .LASF4319
C:\Users\CYMR90~1\AppData\Local\Temp\ccZoYVSv.s:28997  .debug_str:00000000000198c4 .LASF4320
C:\Users\CYMR90~1\AppData\Local\Temp\ccZoYVSv.s:28549  .debug_str:0000000000017bd6 .LASF4321
C:\Users\CYMR90~1\AppData\Local\Temp\ccZoYVSv.s:30023  .debug_str:000000000001dbd2 .LASF4322
C:\Users\CYMR90~1\AppData\Local\Temp\ccZoYVSv.s:31731  .debug_str:0000000000024383 .LASF4323
C:\Users\CYMR90~1\AppData\Local\Temp\ccZoYVSv.s:24022  .debug_str:000000000000580f .LASF4324
C:\Users\CYMR90~1\AppData\Local\Temp\ccZoYVSv.s:22964  .debug_str:00000000000014dd .LASF4325
C:\Users\CYMR90~1\AppData\Local\Temp\ccZoYVSv.s:30347  .debug_str:000000000001eff3 .LASF4326
C:\Users\CYMR90~1\AppData\Local\Temp\ccZoYVSv.s:31089  .debug_str:0000000000021d33 .LASF4327
C:\Users\CYMR90~1\AppData\Local\Temp\ccZoYVSv.s:33307  .debug_str:000000000002a946 .LASF4328
C:\Users\CYMR90~1\AppData\Local\Temp\ccZoYVSv.s:27058  .debug_str:00000000000119f8 .LASF4329
C:\Users\CYMR90~1\AppData\Local\Temp\ccZoYVSv.s:32961  .debug_str:00000000000294bc .LASF4330
C:\Users\CYMR90~1\AppData\Local\Temp\ccZoYVSv.s:27828  .debug_str:0000000000014c9c .LASF4331
C:\Users\CYMR90~1\AppData\Local\Temp\ccZoYVSv.s:25414  .debug_str:000000000000b261 .LASF4332
C:\Users\CYMR90~1\AppData\Local\Temp\ccZoYVSv.s:30845  .debug_str:0000000000020e39 .LASF4333
C:\Users\CYMR90~1\AppData\Local\Temp\ccZoYVSv.s:33359  .debug_str:000000000002ac37 .LASF4334
C:\Users\CYMR90~1\AppData\Local\Temp\ccZoYVSv.s:28463  .debug_str:0000000000017676 .LASF4335
C:\Users\CYMR90~1\AppData\Local\Temp\ccZoYVSv.s:31695  .debug_str:000000000002418c .LASF4336
C:\Users\CYMR90~1\AppData\Local\Temp\ccZoYVSv.s:32535  .debug_str:00000000000278c0 .LASF4337
C:\Users\CYMR90~1\AppData\Local\Temp\ccZoYVSv.s:27864  .debug_str:0000000000014ebe .LASF4338
C:\Users\CYMR90~1\AppData\Local\Temp\ccZoYVSv.s:30245  .debug_str:000000000001e9cb .LASF4339
C:\Users\CYMR90~1\AppData\Local\Temp\ccZoYVSv.s:25836  .debug_str:000000000000ce03 .LASF4340
C:\Users\CYMR90~1\AppData\Local\Temp\ccZoYVSv.s:27650  .debug_str:000000000001415e .LASF4341
C:\Users\CYMR90~1\AppData\Local\Temp\ccZoYVSv.s:30073  .debug_str:000000000001dee3 .LASF4342
C:\Users\CYMR90~1\AppData\Local\Temp\ccZoYVSv.s:27416  .debug_str:000000000001322b .LASF4343
C:\Users\CYMR90~1\AppData\Local\Temp\ccZoYVSv.s:30925  .debug_str:0000000000021318 .LASF4344
C:\Users\CYMR90~1\AppData\Local\Temp\ccZoYVSv.s:26388  .debug_str:000000000000f0bf .LASF4345
C:\Users\CYMR90~1\AppData\Local\Temp\ccZoYVSv.s:30021  .debug_str:000000000001dbbd .LASF4346
C:\Users\CYMR90~1\AppData\Local\Temp\ccZoYVSv.s:23376  .debug_str:0000000000002e40 .LASF4347
C:\Users\CYMR90~1\AppData\Local\Temp\ccZoYVSv.s:23158  .debug_str:00000000000020cd .LASF4348
C:\Users\CYMR90~1\AppData\Local\Temp\ccZoYVSv.s:29735  .debug_str:000000000001c844 .LASF4349
C:\Users\CYMR90~1\AppData\Local\Temp\ccZoYVSv.s:24764  .debug_str:0000000000008844 .LASF4350
C:\Users\CYMR90~1\AppData\Local\Temp\ccZoYVSv.s:33435  .debug_str:000000000002b0b3 .LASF4351
C:\Users\CYMR90~1\AppData\Local\Temp\ccZoYVSv.s:24620  .debug_str:0000000000007df2 .LASF4352
C:\Users\CYMR90~1\AppData\Local\Temp\ccZoYVSv.s:29649  .debug_str:000000000001c322 .LASF4353
C:\Users\CYMR90~1\AppData\Local\Temp\ccZoYVSv.s:31941  .debug_str:0000000000025189 .LASF4354
C:\Users\CYMR90~1\AppData\Local\Temp\ccZoYVSv.s:28775  .debug_str:00000000000189a1 .LASF4355
C:\Users\CYMR90~1\AppData\Local\Temp\ccZoYVSv.s:26494  .debug_str:000000000000f723 .LASF4356
C:\Users\CYMR90~1\AppData\Local\Temp\ccZoYVSv.s:31539  .debug_str:00000000000237f2 .LASF4357
C:\Users\CYMR90~1\AppData\Local\Temp\ccZoYVSv.s:33257  .debug_str:000000000002a65b .LASF4358
C:\Users\CYMR90~1\AppData\Local\Temp\ccZoYVSv.s:25684  .debug_str:000000000000c453 .LASF4359
C:\Users\CYMR90~1\AppData\Local\Temp\ccZoYVSv.s:24206  .debug_str:000000000000639b .LASF4360
C:\Users\CYMR90~1\AppData\Local\Temp\ccZoYVSv.s:23834  .debug_str:0000000000004c9a .LASF4361
C:\Users\CYMR90~1\AppData\Local\Temp\ccZoYVSv.s:32295  .debug_str:0000000000026a2f .LASF4362
C:\Users\CYMR90~1\AppData\Local\Temp\ccZoYVSv.s:24594  .debug_str:0000000000007bf8 .LASF4363
C:\Users\CYMR90~1\AppData\Local\Temp\ccZoYVSv.s:27500  .debug_str:0000000000013842 .LASF4364
C:\Users\CYMR90~1\AppData\Local\Temp\ccZoYVSv.s:24824  .debug_str:0000000000008c32 .LASF4365
C:\Users\CYMR90~1\AppData\Local\Temp\ccZoYVSv.s:28042  .debug_str:00000000000159e2 .LASF4366
C:\Users\CYMR90~1\AppData\Local\Temp\ccZoYVSv.s:32085  .debug_str:0000000000025be6 .LASF4367
C:\Users\CYMR90~1\AppData\Local\Temp\ccZoYVSv.s:23258  .debug_str:000000000000264d .LASF4368
C:\Users\CYMR90~1\AppData\Local\Temp\ccZoYVSv.s:26432  .debug_str:000000000000f33f .LASF4369
C:\Users\CYMR90~1\AppData\Local\Temp\ccZoYVSv.s:22870  .debug_str:0000000000000ef7 .LASF4370
C:\Users\CYMR90~1\AppData\Local\Temp\ccZoYVSv.s:26888  .debug_str:0000000000011003 .LASF4371
C:\Users\CYMR90~1\AppData\Local\Temp\ccZoYVSv.s:25564  .debug_str:000000000000bbad .LASF4372
C:\Users\CYMR90~1\AppData\Local\Temp\ccZoYVSv.s:30611  .debug_str:000000000001ffe5 .LASF4373
C:\Users\CYMR90~1\AppData\Local\Temp\ccZoYVSv.s:29565  .debug_str:000000000001be07 .LASF4374
C:\Users\CYMR90~1\AppData\Local\Temp\ccZoYVSv.s:27306  .debug_str:0000000000012aef .LASF4375
C:\Users\CYMR90~1\AppData\Local\Temp\ccZoYVSv.s:23252  .debug_str:0000000000002600 .LASF4376
C:\Users\CYMR90~1\AppData\Local\Temp\ccZoYVSv.s:29973  .debug_str:000000000001d86c .LASF4377
C:\Users\CYMR90~1\AppData\Local\Temp\ccZoYVSv.s:25812  .debug_str:000000000000ccac .LASF4378
C:\Users\CYMR90~1\AppData\Local\Temp\ccZoYVSv.s:33415  .debug_str:000000000002af9a .LASF4379
C:\Users\CYMR90~1\AppData\Local\Temp\ccZoYVSv.s:29235  .debug_str:000000000001a94f .LASF4380
C:\Users\CYMR90~1\AppData\Local\Temp\ccZoYVSv.s:31505  .debug_str:0000000000023620 .LASF4381
C:\Users\CYMR90~1\AppData\Local\Temp\ccZoYVSv.s:33097  .debug_str:0000000000029cc3 .LASF4382
C:\Users\CYMR90~1\AppData\Local\Temp\ccZoYVSv.s:28296  .debug_str:0000000000016a06 .LASF4383
C:\Users\CYMR90~1\AppData\Local\Temp\ccZoYVSv.s:28967  .debug_str:00000000000196ea .LASF4384
C:\Users\CYMR90~1\AppData\Local\Temp\ccZoYVSv.s:24020  .debug_str:00000000000057f6 .LASF4385
C:\Users\CYMR90~1\AppData\Local\Temp\ccZoYVSv.s:27722  .debug_str:0000000000014608 .LASF4386
C:\Users\CYMR90~1\AppData\Local\Temp\ccZoYVSv.s:26668  .debug_str:000000000001022e .LASF4387
C:\Users\CYMR90~1\AppData\Local\Temp\ccZoYVSv.s:29877  .debug_str:000000000001d187 .LASF4388
C:\Users\CYMR90~1\AppData\Local\Temp\ccZoYVSv.s:31207  .debug_str:0000000000022485 .LASF4389
C:\Users\CYMR90~1\AppData\Local\Temp\ccZoYVSv.s:26042  .debug_str:000000000000db3f .LASF4390
C:\Users\CYMR90~1\AppData\Local\Temp\ccZoYVSv.s:33577  .debug_str:000000000002b8f0 .LASF4391
C:\Users\CYMR90~1\AppData\Local\Temp\ccZoYVSv.s:25586  .debug_str:000000000000bd3c .LASF4392
C:\Users\CYMR90~1\AppData\Local\Temp\ccZoYVSv.s:30795  .debug_str:0000000000020b49 .LASF4393
C:\Users\CYMR90~1\AppData\Local\Temp\ccZoYVSv.s:32867  .debug_str:0000000000028f4f .LASF4394
C:\Users\CYMR90~1\AppData\Local\Temp\ccZoYVSv.s:31019  .debug_str:000000000002188b .LASF4395
C:\Users\CYMR90~1\AppData\Local\Temp\ccZoYVSv.s:33549  .debug_str:000000000002b717 .LASF4396
C:\Users\CYMR90~1\AppData\Local\Temp\ccZoYVSv.s:31009  .debug_str:00000000000217e4 .LASF4397
C:\Users\CYMR90~1\AppData\Local\Temp\ccZoYVSv.s:31355  .debug_str:0000000000022cb7 .LASF4398
C:\Users\CYMR90~1\AppData\Local\Temp\ccZoYVSv.s:28284  .debug_str:0000000000016959 .LASF4399
C:\Users\CYMR90~1\AppData\Local\Temp\ccZoYVSv.s:24810  .debug_str:0000000000008b3d .LASF4400
C:\Users\CYMR90~1\AppData\Local\Temp\ccZoYVSv.s:32123  .debug_str:0000000000025ec8 .LASF4401
C:\Users\CYMR90~1\AppData\Local\Temp\ccZoYVSv.s:29291  .debug_str:000000000001acd7 .LASF4402
C:\Users\CYMR90~1\AppData\Local\Temp\ccZoYVSv.s:22866  .debug_str:0000000000000eb9 .LASF4403
C:\Users\CYMR90~1\AppData\Local\Temp\ccZoYVSv.s:31329  .debug_str:0000000000022b3a .LASF4404
C:\Users\CYMR90~1\AppData\Local\Temp\ccZoYVSv.s:33079  .debug_str:0000000000029bb6 .LASF4405
C:\Users\CYMR90~1\AppData\Local\Temp\ccZoYVSv.s:23334  .debug_str:0000000000002b5d .LASF4406
C:\Users\CYMR90~1\AppData\Local\Temp\ccZoYVSv.s:26364  .debug_str:000000000000ef7d .LASF4407
C:\Users\CYMR90~1\AppData\Local\Temp\ccZoYVSv.s:24428  .debug_str:000000000000711d .LASF4408
C:\Users\CYMR90~1\AppData\Local\Temp\ccZoYVSv.s:23564  .debug_str:0000000000003a5c .LASF4409
C:\Users\CYMR90~1\AppData\Local\Temp\ccZoYVSv.s:27626  .debug_str:0000000000014016 .LASF4410
C:\Users\CYMR90~1\AppData\Local\Temp\ccZoYVSv.s:32033  .debug_str:0000000000025792 .LASF4411
C:\Users\CYMR90~1\AppData\Local\Temp\ccZoYVSv.s:26622  .debug_str:000000000000ff10 .LASF4412
C:\Users\CYMR90~1\AppData\Local\Temp\ccZoYVSv.s:27632  .debug_str:000000000001405a .LASF4413
C:\Users\CYMR90~1\AppData\Local\Temp\ccZoYVSv.s:24138  .debug_str:0000000000005f37 .LASF4414
C:\Users\CYMR90~1\AppData\Local\Temp\ccZoYVSv.s:23712  .debug_str:00000000000043e7 .LASF4415
C:\Users\CYMR90~1\AppData\Local\Temp\ccZoYVSv.s:31125  .debug_str:0000000000021f88 .LASF4416
C:\Users\CYMR90~1\AppData\Local\Temp\ccZoYVSv.s:23570  .debug_str:0000000000003abc .LASF4417
C:\Users\CYMR90~1\AppData\Local\Temp\ccZoYVSv.s:23808  .debug_str:0000000000004b17 .LASF4418
C:\Users\CYMR90~1\AppData\Local\Temp\ccZoYVSv.s:30901  .debug_str:0000000000021171 .LASF4419
C:\Users\CYMR90~1\AppData\Local\Temp\ccZoYVSv.s:30453  .debug_str:000000000001f65b .LASF4420
C:\Users\CYMR90~1\AppData\Local\Temp\ccZoYVSv.s:33537  .debug_str:000000000002b681 .LASF4421
C:\Users\CYMR90~1\AppData\Local\Temp\ccZoYVSv.s:32853  .debug_str:0000000000028e4e .LASF4422
C:\Users\CYMR90~1\AppData\Local\Temp\ccZoYVSv.s:23020  .debug_str:00000000000017e9 .LASF4423
C:\Users\CYMR90~1\AppData\Local\Temp\ccZoYVSv.s:30209  .debug_str:000000000001e7b2 .LASF4424
C:\Users\CYMR90~1\AppData\Local\Temp\ccZoYVSv.s:32579  .debug_str:0000000000027c1f .LASF4425
C:\Users\CYMR90~1\AppData\Local\Temp\ccZoYVSv.s:25258  .debug_str:000000000000a725 .LASF4426
C:\Users\CYMR90~1\AppData\Local\Temp\ccZoYVSv.s:33887  .debug_str:000000000002cd89 .LASF4427
C:\Users\CYMR90~1\AppData\Local\Temp\ccZoYVSv.s:33245  .debug_str:000000000002a5b7 .LASF4428
C:\Users\CYMR90~1\AppData\Local\Temp\ccZoYVSv.s:24626  .debug_str:0000000000007e4c .LASF4429
C:\Users\CYMR90~1\AppData\Local\Temp\ccZoYVSv.s:23698  .debug_str:0000000000004347 .LASF4430
C:\Users\CYMR90~1\AppData\Local\Temp\ccZoYVSv.s:32439  .debug_str:0000000000027303 .LASF4431
C:\Users\CYMR90~1\AppData\Local\Temp\ccZoYVSv.s:29751  .debug_str:000000000001c91d .LASF4432
C:\Users\CYMR90~1\AppData\Local\Temp\ccZoYVSv.s:32413  .debug_str:0000000000027180 .LASF4433
C:\Users\CYMR90~1\AppData\Local\Temp\ccZoYVSv.s:27660  .debug_str:0000000000014201 .LASF4434
C:\Users\CYMR90~1\AppData\Local\Temp\ccZoYVSv.s:26564  .debug_str:000000000000fbdf .LASF4435
C:\Users\CYMR90~1\AppData\Local\Temp\ccZoYVSv.s:30313  .debug_str:000000000001ee1d .LASF4436
C:\Users\CYMR90~1\AppData\Local\Temp\ccZoYVSv.s:24074  .debug_str:0000000000005b6b .LASF4437
C:\Users\CYMR90~1\AppData\Local\Temp\ccZoYVSv.s:31559  .debug_str:00000000000238f5 .LASF4438
C:\Users\CYMR90~1\AppData\Local\Temp\ccZoYVSv.s:28897  .debug_str:0000000000019219 .LASF4439
C:\Users\CYMR90~1\AppData\Local\Temp\ccZoYVSv.s:23220  .debug_str:0000000000002405 .LASF4440
C:\Users\CYMR90~1\AppData\Local\Temp\ccZoYVSv.s:23428  .debug_str:0000000000003158 .LASF4441
C:\Users\CYMR90~1\AppData\Local\Temp\ccZoYVSv.s:32231  .debug_str:000000000002660d .LASF4442
C:\Users\CYMR90~1\AppData\Local\Temp\ccZoYVSv.s:28050  .debug_str:0000000000015a4e .LASF4443
C:\Users\CYMR90~1\AppData\Local\Temp\ccZoYVSv.s:34039  .debug_str:000000000002d761 .LASF4444
C:\Users\CYMR90~1\AppData\Local\Temp\ccZoYVSv.s:24924  .debug_str:00000000000092b8 .LASF4445
C:\Users\CYMR90~1\AppData\Local\Temp\ccZoYVSv.s:32829  .debug_str:0000000000028ca8 .LASF4446
C:\Users\CYMR90~1\AppData\Local\Temp\ccZoYVSv.s:34037  .debug_str:000000000002d728 .LASF4447
C:\Users\CYMR90~1\AppData\Local\Temp\ccZoYVSv.s:30139  .debug_str:000000000001e36c .LASF4448
C:\Users\CYMR90~1\AppData\Local\Temp\ccZoYVSv.s:24386  .debug_str:0000000000006e8d .LASF4449
C:\Users\CYMR90~1\AppData\Local\Temp\ccZoYVSv.s:23848  .debug_str:0000000000004d95 .LASF4450
C:\Users\CYMR90~1\AppData\Local\Temp\ccZoYVSv.s:28407  .debug_str:000000000001734b .LASF4451
C:\Users\CYMR90~1\AppData\Local\Temp\ccZoYVSv.s:33679  .debug_str:000000000002bfb7 .LASF4452
C:\Users\CYMR90~1\AppData\Local\Temp\ccZoYVSv.s:27442  .debug_str:00000000000133e6 .LASF4453
C:\Users\CYMR90~1\AppData\Local\Temp\ccZoYVSv.s:33309  .debug_str:000000000002a95f .LASF4454
C:\Users\CYMR90~1\AppData\Local\Temp\ccZoYVSv.s:32387  .debug_str:0000000000026fca .LASF4455
C:\Users\CYMR90~1\AppData\Local\Temp\ccZoYVSv.s:26636  .debug_str:000000000000fff9 .LASF4456
C:\Users\CYMR90~1\AppData\Local\Temp\ccZoYVSv.s:27738  .debug_str:00000000000146e5 .LASF4457
C:\Users\CYMR90~1\AppData\Local\Temp\ccZoYVSv.s:23142  .debug_str:0000000000001fd0 .LASF4458
C:\Users\CYMR90~1\AppData\Local\Temp\ccZoYVSv.s:29117  .debug_str:000000000001a0da .LASF4459
C:\Users\CYMR90~1\AppData\Local\Temp\ccZoYVSv.s:24680  .debug_str:00000000000082fc .LASF4460
C:\Users\CYMR90~1\AppData\Local\Temp\ccZoYVSv.s:29839  .debug_str:000000000001cf1b .LASF4461
C:\Users\CYMR90~1\AppData\Local\Temp\ccZoYVSv.s:29427  .debug_str:000000000001b5b4 .LASF4462
C:\Users\CYMR90~1\AppData\Local\Temp\ccZoYVSv.s:31401  .debug_str:0000000000022f9b .LASF4463
C:\Users\CYMR90~1\AppData\Local\Temp\ccZoYVSv.s:32337  .debug_str:0000000000026c85 .LASF4464
C:\Users\CYMR90~1\AppData\Local\Temp\ccZoYVSv.s:23132  .debug_str:0000000000001f1c .LASF4465
C:\Users\CYMR90~1\AppData\Local\Temp\ccZoYVSv.s:28232  .debug_str:00000000000165df .LASF4466
C:\Users\CYMR90~1\AppData\Local\Temp\ccZoYVSv.s:23442  .debug_str:000000000000325e .LASF4467
C:\Users\CYMR90~1\AppData\Local\Temp\ccZoYVSv.s:30627  .debug_str:00000000000200d4 .LASF4468
C:\Users\CYMR90~1\AppData\Local\Temp\ccZoYVSv.s:30325  .debug_str:000000000001eebb .LASF4469
C:\Users\CYMR90~1\AppData\Local\Temp\ccZoYVSv.s:22924  .debug_str:00000000000012a3 .LASF4470
C:\Users\CYMR90~1\AppData\Local\Temp\ccZoYVSv.s:32065  .debug_str:00000000000259fb .LASF4471
C:\Users\CYMR90~1\AppData\Local\Temp\ccZoYVSv.s:24786  .debug_str:000000000000896d .LASF4472
C:\Users\CYMR90~1\AppData\Local\Temp\ccZoYVSv.s:29945  .debug_str:000000000001d6d7 .LASF4473
C:\Users\CYMR90~1\AppData\Local\Temp\ccZoYVSv.s:29963  .debug_str:000000000001d7d5 .LASF4474
C:\Users\CYMR90~1\AppData\Local\Temp\ccZoYVSv.s:30949  .debug_str:0000000000021469 .LASF4475
C:\Users\CYMR90~1\AppData\Local\Temp\ccZoYVSv.s:29367  .debug_str:000000000001b195 .LASF4476
C:\Users\CYMR90~1\AppData\Local\Temp\ccZoYVSv.s:24110  .debug_str:0000000000005db6 .LASF4477
C:\Users\CYMR90~1\AppData\Local\Temp\ccZoYVSv.s:32791  .debug_str:00000000000289bc .LASF4478
C:\Users\CYMR90~1\AppData\Local\Temp\ccZoYVSv.s:31689  .debug_str:000000000002413b .LASF4479
C:\Users\CYMR90~1\AppData\Local\Temp\ccZoYVSv.s:27950  .debug_str:0000000000015483 .LASF4480
C:\Users\CYMR90~1\AppData\Local\Temp\ccZoYVSv.s:30075  .debug_str:000000000001def8 .LASF4481
C:\Users\CYMR90~1\AppData\Local\Temp\ccZoYVSv.s:23402  .debug_str:0000000000002fbd .LASF4482
C:\Users\CYMR90~1\AppData\Local\Temp\ccZoYVSv.s:22660  .debug_str:00000000000001f1 .LASF4483
C:\Users\CYMR90~1\AppData\Local\Temp\ccZoYVSv.s:29067  .debug_str:0000000000019da1 .LASF4484
C:\Users\CYMR90~1\AppData\Local\Temp\ccZoYVSv.s:26832  .debug_str:0000000000010c55 .LASF4485
C:\Users\CYMR90~1\AppData\Local\Temp\ccZoYVSv.s:23710  .debug_str:00000000000043cf .LASF4486
C:\Users\CYMR90~1\AppData\Local\Temp\ccZoYVSv.s:29003  .debug_str:000000000001992b .LASF4487
C:\Users\CYMR90~1\AppData\Local\Temp\ccZoYVSv.s:32399  .debug_str:00000000000270af .LASF4488
C:\Users\CYMR90~1\AppData\Local\Temp\ccZoYVSv.s:22686  .debug_str:0000000000000389 .LASF4489
C:\Users\CYMR90~1\AppData\Local\Temp\ccZoYVSv.s:23948  .debug_str:0000000000005382 .LASF4490
C:\Users\CYMR90~1\AppData\Local\Temp\ccZoYVSv.s:33061  .debug_str:0000000000029ac7 .LASF4491
C:\Users\CYMR90~1\AppData\Local\Temp\ccZoYVSv.s:23742  .debug_str:00000000000045f8 .LASF4492
C:\Users\CYMR90~1\AppData\Local\Temp\ccZoYVSv.s:25404  .debug_str:000000000000b11c .LASF4493
C:\Users\CYMR90~1\AppData\Local\Temp\ccZoYVSv.s:22706  .debug_str:00000000000004c5 .LASF4494
C:\Users\CYMR90~1\AppData\Local\Temp\ccZoYVSv.s:30301  .debug_str:000000000001ed5b .LASF4495
C:\Users\CYMR90~1\AppData\Local\Temp\ccZoYVSv.s:28423  .debug_str:000000000001742e .LASF4496
C:\Users\CYMR90~1\AppData\Local\Temp\ccZoYVSv.s:23268  .debug_str:00000000000026f9 .LASF4497
C:\Users\CYMR90~1\AppData\Local\Temp\ccZoYVSv.s:32505  .debug_str:00000000000276f3 .LASF4498
C:\Users\CYMR90~1\AppData\Local\Temp\ccZoYVSv.s:33843  .debug_str:000000000002cac7 .LASF4499
C:\Users\CYMR90~1\AppData\Local\Temp\ccZoYVSv.s:30757  .debug_str:0000000000020888 .LASF4500
C:\Users\CYMR90~1\AppData\Local\Temp\ccZoYVSv.s:25754  .debug_str:000000000000c896 .LASF4501
C:\Users\CYMR90~1\AppData\Local\Temp\ccZoYVSv.s:31409  .debug_str:000000000002300a .LASF4502
C:\Users\CYMR90~1\AppData\Local\Temp\ccZoYVSv.s:25648  .debug_str:000000000000c1ca .LASF4503
C:\Users\CYMR90~1\AppData\Local\Temp\ccZoYVSv.s:31399  .debug_str:0000000000022f7d .LASF4504
C:\Users\CYMR90~1\AppData\Local\Temp\ccZoYVSv.s:32951  .debug_str:0000000000029425 .LASF4505
C:\Users\CYMR90~1\AppData\Local\Temp\ccZoYVSv.s:24152  .debug_str:0000000000006006 .LASF4506
C:\Users\CYMR90~1\AppData\Local\Temp\ccZoYVSv.s:26954  .debug_str:0000000000011398 .LASF4507
C:\Users\CYMR90~1\AppData\Local\Temp\ccZoYVSv.s:26126  .debug_str:000000000000e06c .LASF4508
C:\Users\CYMR90~1\AppData\Local\Temp\ccZoYVSv.s:23798  .debug_str:0000000000004a8b .LASF4509
C:\Users\CYMR90~1\AppData\Local\Temp\ccZoYVSv.s:25072  .debug_str:0000000000009b96 .LASF4510
C:\Users\CYMR90~1\AppData\Local\Temp\ccZoYVSv.s:27622  .debug_str:0000000000013fb6 .LASF4511
C:\Users\CYMR90~1\AppData\Local\Temp\ccZoYVSv.s:23614  .debug_str:0000000000003d63 .LASF4512
C:\Users\CYMR90~1\AppData\Local\Temp\ccZoYVSv.s:24380  .debug_str:0000000000006e1e .LASF4513
C:\Users\CYMR90~1\AppData\Local\Temp\ccZoYVSv.s:22634  .debug_str:000000000000002e .LASF4514
C:\Users\CYMR90~1\AppData\Local\Temp\ccZoYVSv.s:26938  .debug_str:00000000000112aa .LASF4515
C:\Users\CYMR90~1\AppData\Local\Temp\ccZoYVSv.s:29323  .debug_str:000000000001aeae .LASF4516
C:\Users\CYMR90~1\AppData\Local\Temp\ccZoYVSv.s:28362  .debug_str:0000000000016ed9 .LASF4517
C:\Users\CYMR90~1\AppData\Local\Temp\ccZoYVSv.s:33781  .debug_str:000000000002c694 .LASF4518
C:\Users\CYMR90~1\AppData\Local\Temp\ccZoYVSv.s:31923  .debug_str:000000000002508a .LASF4519
C:\Users\CYMR90~1\AppData\Local\Temp\ccZoYVSv.s:26230  .debug_str:000000000000e6cd .LASF4520
C:\Users\CYMR90~1\AppData\Local\Temp\ccZoYVSv.s:30427  .debug_str:000000000001f493 .LASF4521
C:\Users\CYMR90~1\AppData\Local\Temp\ccZoYVSv.s:27882  .debug_str:0000000000014fe0 .LASF4522
C:\Users\CYMR90~1\AppData\Local\Temp\ccZoYVSv.s:33131  .debug_str:0000000000029f05 .LASF4523
C:\Users\CYMR90~1\AppData\Local\Temp\ccZoYVSv.s:31707  .debug_str:000000000002422e .LASF4524
C:\Users\CYMR90~1\AppData\Local\Temp\ccZoYVSv.s:27470  .debug_str:00000000000135c5 .LASF4525
C:\Users\CYMR90~1\AppData\Local\Temp\ccZoYVSv.s:23412  .debug_str:000000000000305d .LASF4526
C:\Users\CYMR90~1\AppData\Local\Temp\ccZoYVSv.s:30409  .debug_str:000000000001f34f .LASF4527
C:\Users\CYMR90~1\AppData\Local\Temp\ccZoYVSv.s:25250  .debug_str:000000000000a6a0 .LASF4528
C:\Users\CYMR90~1\AppData\Local\Temp\ccZoYVSv.s:22762  .debug_str:0000000000000810 .LASF4529
C:\Users\CYMR90~1\AppData\Local\Temp\ccZoYVSv.s:29339  .debug_str:000000000001afad .LASF4530
C:\Users\CYMR90~1\AppData\Local\Temp\ccZoYVSv.s:27452  .debug_str:00000000000134a7 .LASF4531
C:\Users\CYMR90~1\AppData\Local\Temp\ccZoYVSv.s:28018  .debug_str:000000000001586e .LASF4532
C:\Users\CYMR90~1\AppData\Local\Temp\ccZoYVSv.s:28987  .debug_str:00000000000197f7 .LASF4533
C:\Users\CYMR90~1\AppData\Local\Temp\ccZoYVSv.s:25640  .debug_str:000000000000c142 .LASF4534
C:\Users\CYMR90~1\AppData\Local\Temp\ccZoYVSv.s:29045  .debug_str:0000000000019bd6 .LASF4535
C:\Users\CYMR90~1\AppData\Local\Temp\ccZoYVSv.s:31011  .debug_str:00000000000217fc .LASF4536
C:\Users\CYMR90~1\AppData\Local\Temp\ccZoYVSv.s:29069  .debug_str:0000000000019ddc .LASF4537
C:\Users\CYMR90~1\AppData\Local\Temp\ccZoYVSv.s:23694  .debug_str:00000000000042fe .LASF4538
C:\Users\CYMR90~1\AppData\Local\Temp\ccZoYVSv.s:25298  .debug_str:000000000000a92f .LASF4539
C:\Users\CYMR90~1\AppData\Local\Temp\ccZoYVSv.s:26000  .debug_str:000000000000d8d6 .LASF4540
C:\Users\CYMR90~1\AppData\Local\Temp\ccZoYVSv.s:30831  .debug_str:0000000000020d60 .LASF4541
C:\Users\CYMR90~1\AppData\Local\Temp\ccZoYVSv.s:30421  .debug_str:000000000001f409 .LASF4542
C:\Users\CYMR90~1\AppData\Local\Temp\ccZoYVSv.s:26124  .debug_str:000000000000e030 .LASF4543
C:\Users\CYMR90~1\AppData\Local\Temp\ccZoYVSv.s:29445  .debug_str:000000000001b6f8 .LASF4544
C:\Users\CYMR90~1\AppData\Local\Temp\ccZoYVSv.s:29671  .debug_str:000000000001c45e .LASF4545
C:\Users\CYMR90~1\AppData\Local\Temp\ccZoYVSv.s:26856  .debug_str:0000000000010d99 .LASF4546
C:\Users\CYMR90~1\AppData\Local\Temp\ccZoYVSv.s:23342  .debug_str:0000000000002c11 .LASF4547
C:\Users\CYMR90~1\AppData\Local\Temp\ccZoYVSv.s:31295  .debug_str:0000000000022980 .LASF4548
C:\Users\CYMR90~1\AppData\Local\Temp\ccZoYVSv.s:33461  .debug_str:000000000002b21c .LASF4549
C:\Users\CYMR90~1\AppData\Local\Temp\ccZoYVSv.s:26638  .debug_str:0000000000010025 .LASF4550
C:\Users\CYMR90~1\AppData\Local\Temp\ccZoYVSv.s:31359  .debug_str:0000000000022cf5 .LASF4551
C:\Users\CYMR90~1\AppData\Local\Temp\ccZoYVSv.s:33695  .debug_str:000000000002c09e .LASF4552
C:\Users\CYMR90~1\AppData\Local\Temp\ccZoYVSv.s:31873  .debug_str:0000000000024ce6 .LASF4553
C:\Users\CYMR90~1\AppData\Local\Temp\ccZoYVSv.s:29875  .debug_str:000000000001d163 .LASF4554
C:\Users\CYMR90~1\AppData\Local\Temp\ccZoYVSv.s:29801  .debug_str:000000000001ccb8 .LASF4555
C:\Users\CYMR90~1\AppData\Local\Temp\ccZoYVSv.s:29095  .debug_str:0000000000019f72 .LASF4556
C:\Users\CYMR90~1\AppData\Local\Temp\ccZoYVSv.s:26772  .debug_str:000000000001083e .LASF4557
C:\Users\CYMR90~1\AppData\Local\Temp\ccZoYVSv.s:27214  .debug_str:00000000000124fd .LASF4558
C:\Users\CYMR90~1\AppData\Local\Temp\ccZoYVSv.s:23500  .debug_str:000000000000362d .LASF4559
C:\Users\CYMR90~1\AppData\Local\Temp\ccZoYVSv.s:24372  .debug_str:0000000000006db2 .LASF4560
C:\Users\CYMR90~1\AppData\Local\Temp\ccZoYVSv.s:27270  .debug_str:000000000001289b .LASF4561
C:\Users\CYMR90~1\AppData\Local\Temp\ccZoYVSv.s:33501  .debug_str:000000000002b45b .LASF4562
C:\Users\CYMR90~1\AppData\Local\Temp\ccZoYVSv.s:26248  .debug_str:000000000000e800 .LASF4563
C:\Users\CYMR90~1\AppData\Local\Temp\ccZoYVSv.s:29199  .debug_str:000000000001a582 .LASF4564
C:\Users\CYMR90~1\AppData\Local\Temp\ccZoYVSv.s:22850  .debug_str:0000000000000da1 .LASF4565
C:\Users\CYMR90~1\AppData\Local\Temp\ccZoYVSv.s:32717  .debug_str:00000000000284a3 .LASF4566
C:\Users\CYMR90~1\AppData\Local\Temp\ccZoYVSv.s:33953  .debug_str:000000000002d1df .LASF4567
C:\Users\CYMR90~1\AppData\Local\Temp\ccZoYVSv.s:26028  .debug_str:000000000000da63 .LASF4568
C:\Users\CYMR90~1\AppData\Local\Temp\ccZoYVSv.s:28713  .debug_str:00000000000185f1 .LASF4569
C:\Users\CYMR90~1\AppData\Local\Temp\ccZoYVSv.s:23010  .debug_str:0000000000001753 .LASF4570
C:\Users\CYMR90~1\AppData\Local\Temp\ccZoYVSv.s:23724  .debug_str:00000000000044ca .LASF4571
C:\Users\CYMR90~1\AppData\Local\Temp\ccZoYVSv.s:28168  .debug_str:00000000000161c4 .LASF4572
C:\Users\CYMR90~1\AppData\Local\Temp\ccZoYVSv.s:33421  .debug_str:000000000002aff2 .LASF4573
C:\Users\CYMR90~1\AppData\Local\Temp\ccZoYVSv.s:32371  .debug_str:0000000000026eb8 .LASF4574
C:\Users\CYMR90~1\AppData\Local\Temp\ccZoYVSv.s:33425  .debug_str:000000000002b01a .LASF4575
C:\Users\CYMR90~1\AppData\Local\Temp\ccZoYVSv.s:29739  .debug_str:000000000001c872 .LASF4576
C:\Users\CYMR90~1\AppData\Local\Temp\ccZoYVSv.s:22952  .debug_str:000000000000140a .LASF4577
C:\Users\CYMR90~1\AppData\Local\Temp\ccZoYVSv.s:32141  .debug_str:0000000000025ff5 .LASF4578
C:\Users\CYMR90~1\AppData\Local\Temp\ccZoYVSv.s:25656  .debug_str:000000000000c25d .LASF4579
C:\Users\CYMR90~1\AppData\Local\Temp\ccZoYVSv.s:24146  .debug_str:0000000000005f9e .LASF4580
C:\Users\CYMR90~1\AppData\Local\Temp\ccZoYVSv.s:26254  .debug_str:000000000000e84e .LASF4581
C:\Users\CYMR90~1\AppData\Local\Temp\ccZoYVSv.s:30769  .debug_str:000000000002092f .LASF4582
C:\Users\CYMR90~1\AppData\Local\Temp\ccZoYVSv.s:27402  .debug_str:0000000000013145 .LASF4583
C:\Users\CYMR90~1\AppData\Local\Temp\ccZoYVSv.s:32517  .debug_str:00000000000277be .LASF4584
C:\Users\CYMR90~1\AppData\Local\Temp\ccZoYVSv.s:27936  .debug_str:000000000001539c .LASF4585
C:\Users\CYMR90~1\AppData\Local\Temp\ccZoYVSv.s:27690  .debug_str:00000000000143cc .LASF4586
C:\Users\CYMR90~1\AppData\Local\Temp\ccZoYVSv.s:25740  .debug_str:000000000000c7a4 .LASF4587
C:\Users\CYMR90~1\AppData\Local\Temp\ccZoYVSv.s:23398  .debug_str:0000000000002f87 .LASF4588
C:\Users\CYMR90~1\AppData\Local\Temp\ccZoYVSv.s:26354  .debug_str:000000000000eed7 .LASF4589
C:\Users\CYMR90~1\AppData\Local\Temp\ccZoYVSv.s:24060  .debug_str:0000000000005a73 .LASF4590
C:\Users\CYMR90~1\AppData\Local\Temp\ccZoYVSv.s:33265  .debug_str:000000000002a6c1 .LASF4591
C:\Users\CYMR90~1\AppData\Local\Temp\ccZoYVSv.s:30963  .debug_str:000000000002151f .LASF4592
C:\Users\CYMR90~1\AppData\Local\Temp\ccZoYVSv.s:33777  .debug_str:000000000002c65f .LASF4593
C:\Users\CYMR90~1\AppData\Local\Temp\ccZoYVSv.s:26558  .debug_str:000000000000fb90 .LASF4594
C:\Users\CYMR90~1\AppData\Local\Temp\ccZoYVSv.s:24958  .debug_str:00000000000094a5 .LASF4595
C:\Users\CYMR90~1\AppData\Local\Temp\ccZoYVSv.s:33459  .debug_str:000000000002b1fa .LASF4596
C:\Users\CYMR90~1\AppData\Local\Temp\ccZoYVSv.s:31061  .debug_str:0000000000021b99 .LASF4597
C:\Users\CYMR90~1\AppData\Local\Temp\ccZoYVSv.s:32923  .debug_str:0000000000029295 .LASF4598
C:\Users\CYMR90~1\AppData\Local\Temp\ccZoYVSv.s:24360  .debug_str:0000000000006cfa .LASF4599
C:\Users\CYMR90~1\AppData\Local\Temp\ccZoYVSv.s:31211  .debug_str:00000000000224a9 .LASF4600
C:\Users\CYMR90~1\AppData\Local\Temp\ccZoYVSv.s:33093  .debug_str:0000000000029c79 .LASF4601
C:\Users\CYMR90~1\AppData\Local\Temp\ccZoYVSv.s:32815  .debug_str:0000000000028bca .LASF4602
C:\Users\CYMR90~1\AppData\Local\Temp\ccZoYVSv.s:25230  .debug_str:000000000000a58a .LASF4603
C:\Users\CYMR90~1\AppData\Local\Temp\ccZoYVSv.s:29173  .debug_str:000000000001a410 .LASF4604
C:\Users\CYMR90~1\AppData\Local\Temp\ccZoYVSv.s:25136  .debug_str:0000000000009f94 .LASF4605
C:\Users\CYMR90~1\AppData\Local\Temp\ccZoYVSv.s:26560  .debug_str:000000000000fbb2 .LASF4606
C:\Users\CYMR90~1\AppData\Local\Temp\ccZoYVSv.s:23224  .debug_str:0000000000002438 .LASF4607
C:\Users\CYMR90~1\AppData\Local\Temp\ccZoYVSv.s:25284  .debug_str:000000000000a86e .LASF4608
C:\Users\CYMR90~1\AppData\Local\Temp\ccZoYVSv.s:30267  .debug_str:000000000001eb21 .LASF4609
C:\Users\CYMR90~1\AppData\Local\Temp\ccZoYVSv.s:28493  .debug_str:000000000001785a .LASF4610
C:\Users\CYMR90~1\AppData\Local\Temp\ccZoYVSv.s:25952  .debug_str:000000000000d559 .LASF4611
C:\Users\CYMR90~1\AppData\Local\Temp\ccZoYVSv.s:33831  .debug_str:000000000002c9b3 .LASF4612
C:\Users\CYMR90~1\AppData\Local\Temp\ccZoYVSv.s:28320  .debug_str:0000000000016b53 .LASF4613
C:\Users\CYMR90~1\AppData\Local\Temp\ccZoYVSv.s:33489  .debug_str:000000000002b395 .LASF4614
C:\Users\CYMR90~1\AppData\Local\Temp\ccZoYVSv.s:23434  .debug_str:00000000000031e0 .LASF4615
C:\Users\CYMR90~1\AppData\Local\Temp\ccZoYVSv.s:31847  .debug_str:0000000000024b5f .LASF4616
C:\Users\CYMR90~1\AppData\Local\Temp\ccZoYVSv.s:28330  .debug_str:0000000000016c59 .LASF4617
C:\Users\CYMR90~1\AppData\Local\Temp\ccZoYVSv.s:24846  .debug_str:0000000000008db1 .LASF4618
C:\Users\CYMR90~1\AppData\Local\Temp\ccZoYVSv.s:32595  .debug_str:0000000000027d2f .LASF4619
C:\Users\CYMR90~1\AppData\Local\Temp\ccZoYVSv.s:31511  .debug_str:0000000000023683 .LASF4620
C:\Users\CYMR90~1\AppData\Local\Temp\ccZoYVSv.s:23196  .debug_str:00000000000022af .LASF4621
C:\Users\CYMR90~1\AppData\Local\Temp\ccZoYVSv.s:24320  .debug_str:0000000000006a86 .LASF4622
C:\Users\CYMR90~1\AppData\Local\Temp\ccZoYVSv.s:32737  .debug_str:00000000000285ee .LASF4623
C:\Users\CYMR90~1\AppData\Local\Temp\ccZoYVSv.s:30199  .debug_str:000000000001e72b .LASF4624
C:\Users\CYMR90~1\AppData\Local\Temp\ccZoYVSv.s:24686  .debug_str:0000000000008353 .LASF4625
C:\Users\CYMR90~1\AppData\Local\Temp\ccZoYVSv.s:28162  .debug_str:0000000000016187 .LASF4626
C:\Users\CYMR90~1\AppData\Local\Temp\ccZoYVSv.s:28060  .debug_str:0000000000015acf .LASF4627
C:\Users\CYMR90~1\AppData\Local\Temp\ccZoYVSv.s:29883  .debug_str:000000000001d1e1 .LASF4628
C:\Users\CYMR90~1\AppData\Local\Temp\ccZoYVSv.s:30011  .debug_str:000000000001dab6 .LASF4629
C:\Users\CYMR90~1\AppData\Local\Temp\ccZoYVSv.s:23180  .debug_str:00000000000021da .LASF4630
C:\Users\CYMR90~1\AppData\Local\Temp\ccZoYVSv.s:26582  .debug_str:000000000000fcb9 .LASF4631
C:\Users\CYMR90~1\AppData\Local\Temp\ccZoYVSv.s:33243  .debug_str:000000000002a598 .LASF4632
C:\Users\CYMR90~1\AppData\Local\Temp\ccZoYVSv.s:25658  .debug_str:000000000000c28c .LASF4633
C:\Users\CYMR90~1\AppData\Local\Temp\ccZoYVSv.s:29793  .debug_str:000000000001cba2 .LASF4634
C:\Users\CYMR90~1\AppData\Local\Temp\ccZoYVSv.s:30761  .debug_str:00000000000208c7 .LASF4635
C:\Users\CYMR90~1\AppData\Local\Temp\ccZoYVSv.s:28641  .debug_str:000000000001817b .LASF4636
C:\Users\CYMR90~1\AppData\Local\Temp\ccZoYVSv.s:26800  .debug_str:0000000000010a86 .LASF4637
C:\Users\CYMR90~1\AppData\Local\Temp\ccZoYVSv.s:23266  .debug_str:00000000000026d7 .LASF4638
C:\Users\CYMR90~1\AppData\Local\Temp\ccZoYVSv.s:31495  .debug_str:000000000002359a .LASF4639
C:\Users\CYMR90~1\AppData\Local\Temp\ccZoYVSv.s:22994  .debug_str:0000000000001654 .LASF4640
C:\Users\CYMR90~1\AppData\Local\Temp\ccZoYVSv.s:22818  .debug_str:0000000000000be2 .LASF4641
C:\Users\CYMR90~1\AppData\Local\Temp\ccZoYVSv.s:23902  .debug_str:00000000000050d3 .LASF4642
C:\Users\CYMR90~1\AppData\Local\Temp\ccZoYVSv.s:24546  .debug_str:00000000000078df .LASF4643
C:\Users\CYMR90~1\AppData\Local\Temp\ccZoYVSv.s:32323  .debug_str:0000000000026bc8 .LASF4644
C:\Users\CYMR90~1\AppData\Local\Temp\ccZoYVSv.s:23184  .debug_str:000000000000220f .LASF4645
C:\Users\CYMR90~1\AppData\Local\Temp\ccZoYVSv.s:31029  .debug_str:0000000000021919 .LASF4646
C:\Users\CYMR90~1\AppData\Local\Temp\ccZoYVSv.s:25546  .debug_str:000000000000bab0 .LASF4647
C:\Users\CYMR90~1\AppData\Local\Temp\ccZoYVSv.s:31747  .debug_str:0000000000024476 .LASF4648
C:\Users\CYMR90~1\AppData\Local\Temp\ccZoYVSv.s:24884  .debug_str:000000000000908b .LASF4649
C:\Users\CYMR90~1\AppData\Local\Temp\ccZoYVSv.s:30625  .debug_str:00000000000200be .LASF4650
C:\Users\CYMR90~1\AppData\Local\Temp\ccZoYVSv.s:31271  .debug_str:000000000002282c .LASF4651
C:\Users\CYMR90~1\AppData\Local\Temp\ccZoYVSv.s:28779  .debug_str:00000000000189dd .LASF4652
C:\Users\CYMR90~1\AppData\Local\Temp\ccZoYVSv.s:31365  .debug_str:0000000000022d6b .LASF4653
C:\Users\CYMR90~1\AppData\Local\Temp\ccZoYVSv.s:28250  .debug_str:000000000001670d .LASF4654
C:\Users\CYMR90~1\AppData\Local\Temp\ccZoYVSv.s:28148  .debug_str:000000000001607c .LASF4655
C:\Users\CYMR90~1\AppData\Local\Temp\ccZoYVSv.s:27740  .debug_str:0000000000014720 .LASF4656
C:\Users\CYMR90~1\AppData\Local\Temp\ccZoYVSv.s:30339  .debug_str:000000000001ef8e .LASF4657
C:\Users\CYMR90~1\AppData\Local\Temp\ccZoYVSv.s:26974  .debug_str:00000000000114de .LASF4658
C:\Users\CYMR90~1\AppData\Local\Temp\ccZoYVSv.s:30055  .debug_str:000000000001ddd3 .LASF4659
C:\Users\CYMR90~1\AppData\Local\Temp\ccZoYVSv.s:34013  .debug_str:000000000002d5e5 .LASF4660
C:\Users\CYMR90~1\AppData\Local\Temp\ccZoYVSv.s:26240  .debug_str:000000000000e770 .LASF4661
C:\Users\CYMR90~1\AppData\Local\Temp\ccZoYVSv.s:28741  .debug_str:000000000001879a .LASF4662
C:\Users\CYMR90~1\AppData\Local\Temp\ccZoYVSv.s:23046  .debug_str:0000000000001a26 .LASF4663
C:\Users\CYMR90~1\AppData\Local\Temp\ccZoYVSv.s:23680  .debug_str:000000000000419f .LASF4664
C:\Users\CYMR90~1\AppData\Local\Temp\ccZoYVSv.s:23684  .debug_str:000000000000426f .LASF4665
C:\Users\CYMR90~1\AppData\Local\Temp\ccZoYVSv.s:26886  .debug_str:0000000000010fef .LASF4666
C:\Users\CYMR90~1\AppData\Local\Temp\ccZoYVSv.s:31767  .debug_str:0000000000024593 .LASF4667
C:\Users\CYMR90~1\AppData\Local\Temp\ccZoYVSv.s:25574  .debug_str:000000000000bcb7 .LASF4668
C:\Users\CYMR90~1\AppData\Local\Temp\ccZoYVSv.s:25280  .debug_str:000000000000a830 .LASF4669
C:\Users\CYMR90~1\AppData\Local\Temp\ccZoYVSv.s:30893  .debug_str:0000000000021100 .LASF4670
C:\Users\CYMR90~1\AppData\Local\Temp\ccZoYVSv.s:26944  .debug_str:0000000000011313 .LASF4671
C:\Users\CYMR90~1\AppData\Local\Temp\ccZoYVSv.s:32199  .debug_str:0000000000026422 .LASF4672
C:\Users\CYMR90~1\AppData\Local\Temp\ccZoYVSv.s:31831  .debug_str:0000000000024a30 .LASF4673
C:\Users\CYMR90~1\AppData\Local\Temp\ccZoYVSv.s:25006  .debug_str:00000000000097ae .LASF4674
C:\Users\CYMR90~1\AppData\Local\Temp\ccZoYVSv.s:28024  .debug_str:00000000000158c6 .LASF4675
C:\Users\CYMR90~1\AppData\Local\Temp\ccZoYVSv.s:33627  .debug_str:000000000002bc3f .LASF4676
C:\Users\CYMR90~1\AppData\Local\Temp\ccZoYVSv.s:26920  .debug_str:00000000000111a4 .LASF4677
C:\Users\CYMR90~1\AppData\Local\Temp\ccZoYVSv.s:29033  .debug_str:0000000000019ad2 .LASF4678
C:\Users\CYMR90~1\AppData\Local\Temp\ccZoYVSv.s:30081  .debug_str:000000000001df5f .LASF4679
C:\Users\CYMR90~1\AppData\Local\Temp\ccZoYVSv.s:28236  .debug_str:000000000001662b .LASF4680
C:\Users\CYMR90~1\AppData\Local\Temp\ccZoYVSv.s:24896  .debug_str:0000000000009149 .LASF4681
C:\Users\CYMR90~1\AppData\Local\Temp\ccZoYVSv.s:26854  .debug_str:0000000000010d73 .LASF4682
C:\Users\CYMR90~1\AppData\Local\Temp\ccZoYVSv.s:28831  .debug_str:0000000000018d18 .LASF4683
C:\Users\CYMR90~1\AppData\Local\Temp\ccZoYVSv.s:28501  .debug_str:00000000000178b6 .LASF4684
C:\Users\CYMR90~1\AppData\Local\Temp\ccZoYVSv.s:28264  .debug_str:00000000000167b7 .LASF4685
C:\Users\CYMR90~1\AppData\Local\Temp\ccZoYVSv.s:23628  .debug_str:0000000000003e72 .LASF4686
C:\Users\CYMR90~1\AppData\Local\Temp\ccZoYVSv.s:32617  .debug_str:0000000000027e56 .LASF4687
C:\Users\CYMR90~1\AppData\Local\Temp\ccZoYVSv.s:26210  .debug_str:000000000000e5c7 .LASF4688
C:\Users\CYMR90~1\AppData\Local\Temp\ccZoYVSv.s:23672  .debug_str:000000000000411c .LASF4689
C:\Users\CYMR90~1\AppData\Local\Temp\ccZoYVSv.s:27872  .debug_str:0000000000014f30 .LASF4690
C:\Users\CYMR90~1\AppData\Local\Temp\ccZoYVSv.s:26206  .debug_str:000000000000e588 .LASF4691
C:\Users\CYMR90~1\AppData\Local\Temp\ccZoYVSv.s:23208  .debug_str:000000000000235d .LASF4692
C:\Users\CYMR90~1\AppData\Local\Temp\ccZoYVSv.s:27116  .debug_str:0000000000011e9d .LASF4693
C:\Users\CYMR90~1\AppData\Local\Temp\ccZoYVSv.s:24804  .debug_str:0000000000008aa7 .LASF4694
C:\Users\CYMR90~1\AppData\Local\Temp\ccZoYVSv.s:30835  .debug_str:0000000000020db3 .LASF4695
C:\Users\CYMR90~1\AppData\Local\Temp\ccZoYVSv.s:27400  .debug_str:000000000001312f .LASF4696
C:\Users\CYMR90~1\AppData\Local\Temp\ccZoYVSv.s:33201  .debug_str:000000000002a2e0 .LASF4697
C:\Users\CYMR90~1\AppData\Local\Temp\ccZoYVSv.s:25652  .debug_str:000000000000c22e .LASF4698
C:\Users\CYMR90~1\AppData\Local\Temp\ccZoYVSv.s:29201  .debug_str:000000000001a599 .LASF4699
C:\Users\CYMR90~1\AppData\Local\Temp\ccZoYVSv.s:29675  .debug_str:000000000001c4a8 .LASF4700
C:\Users\CYMR90~1\AppData\Local\Temp\ccZoYVSv.s:27968  .debug_str:00000000000155bc .LASF4701
C:\Users\CYMR90~1\AppData\Local\Temp\ccZoYVSv.s:33985  .debug_str:000000000002d3a9 .LASF4702
C:\Users\CYMR90~1\AppData\Local\Temp\ccZoYVSv.s:32871  .debug_str:0000000000028f94 .LASF4703
C:\Users\CYMR90~1\AppData\Local\Temp\ccZoYVSv.s:31597  .debug_str:0000000000023b31 .LASF4704
C:\Users\CYMR90~1\AppData\Local\Temp\ccZoYVSv.s:30373  .debug_str:000000000001f14b .LASF4705
C:\Users\CYMR90~1\AppData\Local\Temp\ccZoYVSv.s:26774  .debug_str:000000000001087c .LASF4706
C:\Users\CYMR90~1\AppData\Local\Temp\ccZoYVSv.s:33873  .debug_str:000000000002ccc9 .LASF4707
C:\Users\CYMR90~1\AppData\Local\Temp\ccZoYVSv.s:32011  .debug_str:000000000002561a .LASF4708
C:\Users\CYMR90~1\AppData\Local\Temp\ccZoYVSv.s:31919  .debug_str:0000000000024fad .LASF4709
C:\Users\CYMR90~1\AppData\Local\Temp\ccZoYVSv.s:25532  .debug_str:000000000000b9c3 .LASF4710
C:\Users\CYMR90~1\AppData\Local\Temp\ccZoYVSv.s:28288  .debug_str:0000000000016988 .LASF4711
C:\Users\CYMR90~1\AppData\Local\Temp\ccZoYVSv.s:32681  .debug_str:000000000002820f .LASF4712
C:\Users\CYMR90~1\AppData\Local\Temp\ccZoYVSv.s:29863  .debug_str:000000000001d081 .LASF4713
C:\Users\CYMR90~1\AppData\Local\Temp\ccZoYVSv.s:32481  .debug_str:000000000002753f .LASF4714
C:\Users\CYMR90~1\AppData\Local\Temp\ccZoYVSv.s:28605  .debug_str:0000000000017f6e .LASF4715
C:\Users\CYMR90~1\AppData\Local\Temp\ccZoYVSv.s:31615  .debug_str:0000000000023c72 .LASF4716
C:\Users\CYMR90~1\AppData\Local\Temp\ccZoYVSv.s:24706  .debug_str:00000000000084ba .LASF4717
C:\Users\CYMR90~1\AppData\Local\Temp\ccZoYVSv.s:29845  .debug_str:000000000001cf6e .LASF4718
C:\Users\CYMR90~1\AppData\Local\Temp\ccZoYVSv.s:23372  .debug_str:0000000000002e09 .LASF4719
C:\Users\CYMR90~1\AppData\Local\Temp\ccZoYVSv.s:24290  .debug_str:0000000000006868 .LASF4720
C:\Users\CYMR90~1\AppData\Local\Temp\ccZoYVSv.s:28282  .debug_str:000000000001693b .LASF4721
C:\Users\CYMR90~1\AppData\Local\Temp\ccZoYVSv.s:27392  .debug_str:00000000000130ac .LASF4722
C:\Users\CYMR90~1\AppData\Local\Temp\ccZoYVSv.s:23662  .debug_str:00000000000040b3 .LASF4723
C:\Users\CYMR90~1\AppData\Local\Temp\ccZoYVSv.s:32219  .debug_str:0000000000026559 .LASF4724
C:\Users\CYMR90~1\AppData\Local\Temp\ccZoYVSv.s:26290  .debug_str:000000000000ead0 .LASF4725
C:\Users\CYMR90~1\AppData\Local\Temp\ccZoYVSv.s:29935  .debug_str:000000000001d625 .LASF4726
C:\Users\CYMR90~1\AppData\Local\Temp\ccZoYVSv.s:27776  .debug_str:000000000001491b .LASF4727
C:\Users\CYMR90~1\AppData\Local\Temp\ccZoYVSv.s:25432  .debug_str:000000000000b36d .LASF4728
C:\Users\CYMR90~1\AppData\Local\Temp\ccZoYVSv.s:30911  .debug_str:000000000002121e .LASF4729
C:\Users\CYMR90~1\AppData\Local\Temp\ccZoYVSv.s:32335  .debug_str:0000000000026c5b .LASF4730
C:\Users\CYMR90~1\AppData\Local\Temp\ccZoYVSv.s:30589  .debug_str:000000000001fe72 .LASF4731
C:\Users\CYMR90~1\AppData\Local\Temp\ccZoYVSv.s:31213  .debug_str:00000000000224cd .LASF4732
C:\Users\CYMR90~1\AppData\Local\Temp\ccZoYVSv.s:29429  .debug_str:000000000001b5cd .LASF4733
C:\Users\CYMR90~1\AppData\Local\Temp\ccZoYVSv.s:30739  .debug_str:0000000000020798 .LASF4734
C:\Users\CYMR90~1\AppData\Local\Temp\ccZoYVSv.s:32279  .debug_str:0000000000026925 .LASF4735
C:\Users\CYMR90~1\AppData\Local\Temp\ccZoYVSv.s:31751  .debug_str:0000000000024494 .LASF4736
C:\Users\CYMR90~1\AppData\Local\Temp\ccZoYVSv.s:24864  .debug_str:0000000000008e97 .LASF4737
C:\Users\CYMR90~1\AppData\Local\Temp\ccZoYVSv.s:31127  .debug_str:0000000000021f9d .LASF4738
C:\Users\CYMR90~1\AppData\Local\Temp\ccZoYVSv.s:24284  .debug_str:0000000000006809 .LASF4739
C:\Users\CYMR90~1\AppData\Local\Temp\ccZoYVSv.s:23924  .debug_str:0000000000005210 .LASF4740
C:\Users\CYMR90~1\AppData\Local\Temp\ccZoYVSv.s:31467  .debug_str:00000000000233f6 .LASF4741
C:\Users\CYMR90~1\AppData\Local\Temp\ccZoYVSv.s:31417  .debug_str:00000000000230a2 .LASF4742
C:\Users\CYMR90~1\AppData\Local\Temp\ccZoYVSv.s:30685  .debug_str:000000000002049d .LASF4743
C:\Users\CYMR90~1\AppData\Local\Temp\ccZoYVSv.s:22802  .debug_str:0000000000000a88 .LASF4744
C:\Users\CYMR90~1\AppData\Local\Temp\ccZoYVSv.s:27564  .debug_str:0000000000013c34 .LASF4745
C:\Users\CYMR90~1\AppData\Local\Temp\ccZoYVSv.s:31485  .debug_str:0000000000023510 .LASF4746
C:\Users\CYMR90~1\AppData\Local\Temp\ccZoYVSv.s:26276  .debug_str:000000000000e9f0 .LASF4747
C:\Users\CYMR90~1\AppData\Local\Temp\ccZoYVSv.s:29909  .debug_str:000000000001d427 .LASF4748
C:\Users\CYMR90~1\AppData\Local\Temp\ccZoYVSv.s:27908  .debug_str:00000000000151cf .LASF4749
C:\Users\CYMR90~1\AppData\Local\Temp\ccZoYVSv.s:23192  .debug_str:0000000000002268 .LASF4750
C:\Users\CYMR90~1\AppData\Local\Temp\ccZoYVSv.s:24660  .debug_str:0000000000008101 .LASF4751
C:\Users\CYMR90~1\AppData\Local\Temp\ccZoYVSv.s:25708  .debug_str:000000000000c5b0 .LASF4752
C:\Users\CYMR90~1\AppData\Local\Temp\ccZoYVSv.s:28046  .debug_str:0000000000015a17 .LASF4753
C:\Users\CYMR90~1\AppData\Local\Temp\ccZoYVSv.s:29589  .debug_str:000000000001bf3a .LASF4754
C:\Users\CYMR90~1\AppData\Local\Temp\ccZoYVSv.s:23748  .debug_str:000000000000464d .LASF4755
C:\Users\CYMR90~1\AppData\Local\Temp\ccZoYVSv.s:24780  .debug_str:0000000000008925 .LASF4756
C:\Users\CYMR90~1\AppData\Local\Temp\ccZoYVSv.s:26418  .debug_str:000000000000f263 .LASF4757
C:\Users\CYMR90~1\AppData\Local\Temp\ccZoYVSv.s:30177  .debug_str:000000000001e5d9 .LASF4758
C:\Users\CYMR90~1\AppData\Local\Temp\ccZoYVSv.s:31849  .debug_str:0000000000024b7b .LASF4759
C:\Users\CYMR90~1\AppData\Local\Temp\ccZoYVSv.s:33371  .debug_str:000000000002ad07 .LASF4760
C:\Users\CYMR90~1\AppData\Local\Temp\ccZoYVSv.s:26626  .debug_str:000000000000ff40 .LASF4761
C:\Users\CYMR90~1\AppData\Local\Temp\ccZoYVSv.s:31237  .debug_str:0000000000022629 .LASF4762
C:\Users\CYMR90~1\AppData\Local\Temp\ccZoYVSv.s:32807  .debug_str:0000000000028b4a .LASF4763
C:\Users\CYMR90~1\AppData\Local\Temp\ccZoYVSv.s:31639  .debug_str:0000000000023de7 .LASF4764
C:\Users\CYMR90~1\AppData\Local\Temp\ccZoYVSv.s:27928  .debug_str:000000000001531f .LASF4765
C:\Users\CYMR90~1\AppData\Local\Temp\ccZoYVSv.s:30715  .debug_str:000000000002065e .LASF4766
C:\Users\CYMR90~1\AppData\Local\Temp\ccZoYVSv.s:25470  .debug_str:000000000000b590 .LASF4767
C:\Users\CYMR90~1\AppData\Local\Temp\ccZoYVSv.s:33077  .debug_str:0000000000029b8d .LASF4768
C:\Users\CYMR90~1\AppData\Local\Temp\ccZoYVSv.s:27998  .debug_str:000000000001573e .LASF4769
C:\Users\CYMR90~1\AppData\Local\Temp\ccZoYVSv.s:31117  .debug_str:0000000000021f00 .LASF4770
C:\Users\CYMR90~1\AppData\Local\Temp\ccZoYVSv.s:33475  .debug_str:000000000002b2e6 .LASF4771
C:\Users\CYMR90~1\AppData\Local\Temp\ccZoYVSv.s:22774  .debug_str:00000000000008d8 .LASF4772
C:\Users\CYMR90~1\AppData\Local\Temp\ccZoYVSv.s:22720  .debug_str:000000000000057a .LASF4773
C:\Users\CYMR90~1\AppData\Local\Temp\ccZoYVSv.s:22784  .debug_str:000000000000096d .LASF4774
C:\Users\CYMR90~1\AppData\Local\Temp\ccZoYVSv.s:25202  .debug_str:000000000000a3bd .LASF4775
C:\Users\CYMR90~1\AppData\Local\Temp\ccZoYVSv.s:24036  .debug_str:0000000000005900 .LASF4776
C:\Users\CYMR90~1\AppData\Local\Temp\ccZoYVSv.s:26556  .debug_str:000000000000fb66 .LASF4777
C:\Users\CYMR90~1\AppData\Local\Temp\ccZoYVSv.s:28825  .debug_str:0000000000018ca6 .LASF4778
C:\Users\CYMR90~1\AppData\Local\Temp\ccZoYVSv.s:23286  .debug_str:0000000000002861 .LASF4779
C:\Users\CYMR90~1\AppData\Local\Temp\ccZoYVSv.s:29073  .debug_str:0000000000019e2f .LASF4780
C:\Users\CYMR90~1\AppData\Local\Temp\ccZoYVSv.s:30441  .debug_str:000000000001f58c .LASF4781
C:\Users\CYMR90~1\AppData\Local\Temp\ccZoYVSv.s:22810  .debug_str:0000000000000b4e .LASF4782
C:\Users\CYMR90~1\AppData\Local\Temp\ccZoYVSv.s:24266  .debug_str:0000000000006714 .LASF4783
C:\Users\CYMR90~1\AppData\Local\Temp\ccZoYVSv.s:27312  .debug_str:0000000000012b5a .LASF4784
C:\Users\CYMR90~1\AppData\Local\Temp\ccZoYVSv.s:29703  .debug_str:000000000001c679 .LASF4785
C:\Users\CYMR90~1\AppData\Local\Temp\ccZoYVSv.s:29075  .debug_str:0000000000019e5b .LASF4786
C:\Users\CYMR90~1\AppData\Local\Temp\ccZoYVSv.s:33523  .debug_str:000000000002b5b6 .LASF4787
C:\Users\CYMR90~1\AppData\Local\Temp\ccZoYVSv.s:25626  .debug_str:000000000000c044 .LASF4788
C:\Users\CYMR90~1\AppData\Local\Temp\ccZoYVSv.s:28659  .debug_str:00000000000182af .LASF4789
C:\Users\CYMR90~1\AppData\Local\Temp\ccZoYVSv.s:27666  .debug_str:0000000000014261 .LASF4790
C:\Users\CYMR90~1\AppData\Local\Temp\ccZoYVSv.s:30329  .debug_str:000000000001ef0c .LASF4791
C:\Users\CYMR90~1\AppData\Local\Temp\ccZoYVSv.s:30895  .debug_str:0000000000021116 .LASF4792
C:\Users\CYMR90~1\AppData\Local\Temp\ccZoYVSv.s:30899  .debug_str:000000000002114f .LASF4793
C:\Users\CYMR90~1\AppData\Local\Temp\ccZoYVSv.s:23410  .debug_str:000000000000303b .LASF4794
C:\Users\CYMR90~1\AppData\Local\Temp\ccZoYVSv.s:26722  .debug_str:000000000001056a .LASF4795
C:\Users\CYMR90~1\AppData\Local\Temp\ccZoYVSv.s:27358  .debug_str:0000000000012e63 .LASF4796
C:\Users\CYMR90~1\AppData\Local\Temp\ccZoYVSv.s:24814  .debug_str:0000000000008b76 .LASF4797
C:\Users\CYMR90~1\AppData\Local\Temp\ccZoYVSv.s:26588  .debug_str:000000000000fd0f .LASF4798
C:\Users\CYMR90~1\AppData\Local\Temp\ccZoYVSv.s:24900  .debug_str:0000000000009186 .LASF4799
C:\Users\CYMR90~1\AppData\Local\Temp\ccZoYVSv.s:26614  .debug_str:000000000000fe9f .LASF4800
C:\Users\CYMR90~1\AppData\Local\Temp\ccZoYVSv.s:28453  .debug_str:00000000000175df .LASF4801
C:\Users\CYMR90~1\AppData\Local\Temp\ccZoYVSv.s:26068  .debug_str:000000000000dd03 .LASF4802
C:\Users\CYMR90~1\AppData\Local\Temp\ccZoYVSv.s:28537  .debug_str:0000000000017b0c .LASF4803
C:\Users\CYMR90~1\AppData\Local\Temp\ccZoYVSv.s:25084  .debug_str:0000000000009c75 .LASF4804
C:\Users\CYMR90~1\AppData\Local\Temp\ccZoYVSv.s:27922  .debug_str:00000000000152c1 .LASF4805
C:\Users\CYMR90~1\AppData\Local\Temp\ccZoYVSv.s:24830  .debug_str:0000000000008c87 .LASF4806
C:\Users\CYMR90~1\AppData\Local\Temp\ccZoYVSv.s:24770  .debug_str:000000000000888b .LASF4807
C:\Users\CYMR90~1\AppData\Local\Temp\ccZoYVSv.s:23960  .debug_str:0000000000005461 .LASF4808
C:\Users\CYMR90~1\AppData\Local\Temp\ccZoYVSv.s:31805  .debug_str:000000000002487f .LASF4809
C:\Users\CYMR90~1\AppData\Local\Temp\ccZoYVSv.s:33509  .debug_str:000000000002b4f5 .LASF4810
C:\Users\CYMR90~1\AppData\Local\Temp\ccZoYVSv.s:28723  .debug_str:0000000000018673 .LASF4811
C:\Users\CYMR90~1\AppData\Local\Temp\ccZoYVSv.s:33007  .debug_str:000000000002978e .LASF4812
C:\Users\CYMR90~1\AppData\Local\Temp\ccZoYVSv.s:32679  .debug_str:00000000000281ed .LASF4813
C:\Users\CYMR90~1\AppData\Local\Temp\ccZoYVSv.s:25058  .debug_str:0000000000009b08 .LASF4814
C:\Users\CYMR90~1\AppData\Local\Temp\ccZoYVSv.s:32425  .debug_str:000000000002721e .LASF4815
C:\Users\CYMR90~1\AppData\Local\Temp\ccZoYVSv.s:28707  .debug_str:0000000000018588 .LASF4816
C:\Users\CYMR90~1\AppData\Local\Temp\ccZoYVSv.s:28613  .debug_str:0000000000017fcf .LASF4817
C:\Users\CYMR90~1\AppData\Local\Temp\ccZoYVSv.s:32555  .debug_str:00000000000279ca .LASF4818
C:\Users\CYMR90~1\AppData\Local\Temp\ccZoYVSv.s:26480  .debug_str:000000000000f62f .LASF4819
C:\Users\CYMR90~1\AppData\Local\Temp\ccZoYVSv.s:29887  .debug_str:000000000001d225 .LASF4820
C:\Users\CYMR90~1\AppData\Local\Temp\ccZoYVSv.s:28899  .debug_str:0000000000019233 .LASF4821
C:\Users\CYMR90~1\AppData\Local\Temp\ccZoYVSv.s:25792  .debug_str:000000000000cb17 .LASF4822
C:\Users\CYMR90~1\AppData\Local\Temp\ccZoYVSv.s:32073  .debug_str:0000000000025b23 .LASF4823
C:\Users\CYMR90~1\AppData\Local\Temp\ccZoYVSv.s:25194  .debug_str:000000000000a347 .LASF4824
C:\Users\CYMR90~1\AppData\Local\Temp\ccZoYVSv.s:31889  .debug_str:0000000000024dc5 .LASF4825
C:\Users\CYMR90~1\AppData\Local\Temp\ccZoYVSv.s:29643  .debug_str:000000000001c2b9 .LASF4826
C:\Users\CYMR90~1\AppData\Local\Temp\ccZoYVSv.s:25928  .debug_str:000000000000d37e .LASF4827
C:\Users\CYMR90~1\AppData\Local\Temp\ccZoYVSv.s:26790  .debug_str:0000000000010a09 .LASF4828
C:\Users\CYMR90~1\AppData\Local\Temp\ccZoYVSv.s:23134  .debug_str:0000000000001f35 .LASF4829
C:\Users\CYMR90~1\AppData\Local\Temp\ccZoYVSv.s:28399  .debug_str:00000000000172df .LASF4830
C:\Users\CYMR90~1\AppData\Local\Temp\ccZoYVSv.s:29723  .debug_str:000000000001c789 .LASF4831
C:\Users\CYMR90~1\AppData\Local\Temp\ccZoYVSv.s:27816  .debug_str:0000000000014bed .LASF4832
C:\Users\CYMR90~1\AppData\Local\Temp\ccZoYVSv.s:23740  .debug_str:00000000000045cc .LASF4833
C:\Users\CYMR90~1\AppData\Local\Temp\ccZoYVSv.s:29361  .debug_str:000000000001b128 .LASF4834
C:\Users\CYMR90~1\AppData\Local\Temp\ccZoYVSv.s:32169  .debug_str:000000000002624d .LASF4835
C:\Users\CYMR90~1\AppData\Local\Temp\ccZoYVSv.s:26532  .debug_str:000000000000f94f .LASF4836
C:\Users\CYMR90~1\AppData\Local\Temp\ccZoYVSv.s:27586  .debug_str:0000000000013d6e .LASF4837
C:\Users\CYMR90~1\AppData\Local\Temp\ccZoYVSv.s:22636  .debug_str:000000000000006a .LASF4838
C:\Users\CYMR90~1\AppData\Local\Temp\ccZoYVSv.s:32995  .debug_str:00000000000296d8 .LASF4839
C:\Users\CYMR90~1\AppData\Local\Temp\ccZoYVSv.s:24286  .debug_str:000000000000682c .LASF4840
C:\Users\CYMR90~1\AppData\Local\Temp\ccZoYVSv.s:33721  .debug_str:000000000002c264 .LASF4841
C:\Users\CYMR90~1\AppData\Local\Temp\ccZoYVSv.s:28052  .debug_str:0000000000015a68 .LASF4842
C:\Users\CYMR90~1\AppData\Local\Temp\ccZoYVSv.s:25738  .debug_str:000000000000c78e .LASF4843
C:\Users\CYMR90~1\AppData\Local\Temp\ccZoYVSv.s:27912  .debug_str:0000000000015216 .LASF4844
C:\Users\CYMR90~1\AppData\Local\Temp\ccZoYVSv.s:25534  .debug_str:000000000000b9e5 .LASF4845
C:\Users\CYMR90~1\AppData\Local\Temp\ccZoYVSv.s:28098  .debug_str:0000000000015d24 .LASF4846
C:\Users\CYMR90~1\AppData\Local\Temp\ccZoYVSv.s:26990  .debug_str:00000000000115b1 .LASF4847
C:\Users\CYMR90~1\AppData\Local\Temp\ccZoYVSv.s:23872  .debug_str:0000000000004f1c .LASF4848
C:\Users\CYMR90~1\AppData\Local\Temp\ccZoYVSv.s:27236  .debug_str:0000000000012669 .LASF4849
C:\Users\CYMR90~1\AppData\Local\Temp\ccZoYVSv.s:27976  .debug_str:000000000001562e .LASF4850
C:\Users\CYMR90~1\AppData\Local\Temp\ccZoYVSv.s:26902  .debug_str:00000000000110c1 .LASF4851
C:\Users\CYMR90~1\AppData\Local\Temp\ccZoYVSv.s:32873  .debug_str:0000000000028fb6 .LASF4852
C:\Users\CYMR90~1\AppData\Local\Temp\ccZoYVSv.s:24548  .debug_str:0000000000007901 .LASF4853
C:\Users\CYMR90~1\AppData\Local\Temp\ccZoYVSv.s:33769  .debug_str:000000000002c55c .LASF4854
C:\Users\CYMR90~1\AppData\Local\Temp\ccZoYVSv.s:33785  .debug_str:000000000002c6ec .LASF4855
C:\Users\CYMR90~1\AppData\Local\Temp\ccZoYVSv.s:30927  .debug_str:0000000000021330 .LASF4856
C:\Users\CYMR90~1\AppData\Local\Temp\ccZoYVSv.s:22834  .debug_str:0000000000000cac .LASF4857
C:\Users\CYMR90~1\AppData\Local\Temp\ccZoYVSv.s:25576  .debug_str:000000000000bccf .LASF4858
C:\Users\CYMR90~1\AppData\Local\Temp\ccZoYVSv.s:30369  .debug_str:000000000001f10f .LASF4859
C:\Users\CYMR90~1\AppData\Local\Temp\ccZoYVSv.s:24274  .debug_str:000000000000677f .LASF4860
C:\Users\CYMR90~1\AppData\Local\Temp\ccZoYVSv.s:24738  .debug_str:00000000000086b0 .LASF4861
C:\Users\CYMR90~1\AppData\Local\Temp\ccZoYVSv.s:27426  .debug_str:00000000000132dc .LASF4862
C:\Users\CYMR90~1\AppData\Local\Temp\ccZoYVSv.s:26836  .debug_str:0000000000010c92 .LASF4863
C:\Users\CYMR90~1\AppData\Local\Temp\ccZoYVSv.s:31225  .debug_str:000000000002258e .LASF4864
C:\Users\CYMR90~1\AppData\Local\Temp\ccZoYVSv.s:30241  .debug_str:000000000001e998 .LASF4865
C:\Users\CYMR90~1\AppData\Local\Temp\ccZoYVSv.s:23952  .debug_str:00000000000053d5 .LASF4866
C:\Users\CYMR90~1\AppData\Local\Temp\ccZoYVSv.s:27958  .debug_str:0000000000015502 .LASF4867
C:\Users\CYMR90~1\AppData\Local\Temp\ccZoYVSv.s:28156  .debug_str:00000000000160f3 .LASF4868
C:\Users\CYMR90~1\AppData\Local\Temp\ccZoYVSv.s:24188  .debug_str:0000000000006242 .LASF4869
C:\Users\CYMR90~1\AppData\Local\Temp\ccZoYVSv.s:29161  .debug_str:000000000001a35a .LASF4870
C:\Users\CYMR90~1\AppData\Local\Temp\ccZoYVSv.s:27986  .debug_str:0000000000015699 .LASF4871
C:\Users\CYMR90~1\AppData\Local\Temp\ccZoYVSv.s:30689  .debug_str:00000000000204eb .LASF4872
C:\Users\CYMR90~1\AppData\Local\Temp\ccZoYVSv.s:32905  .debug_str:00000000000291ad .LASF4873
C:\Users\CYMR90~1\AppData\Local\Temp\ccZoYVSv.s:27646  .debug_str:000000000001411b .LASF4874
C:\Users\CYMR90~1\AppData\Local\Temp\ccZoYVSv.s:27576  .debug_str:0000000000013cec .LASF4875
C:\Users\CYMR90~1\AppData\Local\Temp\ccZoYVSv.s:23242  .debug_str:000000000000256f .LASF4876
C:\Users\CYMR90~1\AppData\Local\Temp\ccZoYVSv.s:30297  .debug_str:000000000001ed07 .LASF4877
C:\Users\CYMR90~1\AppData\Local\Temp\ccZoYVSv.s:29743  .debug_str:000000000001c8a6 .LASF4878
C:\Users\CYMR90~1\AppData\Local\Temp\ccZoYVSv.s:25452  .debug_str:000000000000b49b .LASF4879
C:\Users\CYMR90~1\AppData\Local\Temp\ccZoYVSv.s:24328  .debug_str:0000000000006af9 .LASF4880
C:\Users\CYMR90~1\AppData\Local\Temp\ccZoYVSv.s:23100  .debug_str:0000000000001d4e .LASF4881
C:\Users\CYMR90~1\AppData\Local\Temp\ccZoYVSv.s:24918  .debug_str:0000000000009279 .LASF4882
C:\Users\CYMR90~1\AppData\Local\Temp\ccZoYVSv.s:25088  .debug_str:0000000000009cc5 .LASF4883
C:\Users\CYMR90~1\AppData\Local\Temp\ccZoYVSv.s:23112  .debug_str:0000000000001def .LASF4884
C:\Users\CYMR90~1\AppData\Local\Temp\ccZoYVSv.s:33809  .debug_str:000000000002c85c .LASF4885
C:\Users\CYMR90~1\AppData\Local\Temp\ccZoYVSv.s:27860  .debug_str:0000000000014e80 .LASF4886
C:\Users\CYMR90~1\AppData\Local\Temp\ccZoYVSv.s:28268  .debug_str:00000000000167fa .LASF4887
C:\Users\CYMR90~1\AppData\Local\Temp\ccZoYVSv.s:27356  .debug_str:0000000000012e4b .LASF4888
C:\Users\CYMR90~1\AppData\Local\Temp\ccZoYVSv.s:25416  .debug_str:000000000000b27a .LASF4889
C:\Users\CYMR90~1\AppData\Local\Temp\ccZoYVSv.s:27926  .debug_str:0000000000015306 .LASF4890
C:\Users\CYMR90~1\AppData\Local\Temp\ccZoYVSv.s:24468  .debug_str:00000000000073f0 .LASF4891
C:\Users\CYMR90~1\AppData\Local\Temp\ccZoYVSv.s:28703  .debug_str:000000000001854b .LASF4892
C:\Users\CYMR90~1\AppData\Local\Temp\ccZoYVSv.s:26576  .debug_str:000000000000fc7a .LASF4893
C:\Users\CYMR90~1\AppData\Local\Temp\ccZoYVSv.s:28082  .debug_str:0000000000015c36 .LASF4894
C:\Users\CYMR90~1\AppData\Local\Temp\ccZoYVSv.s:24616  .debug_str:0000000000007da5 .LASF4895
C:\Users\CYMR90~1\AppData\Local\Temp\ccZoYVSv.s:29381  .debug_str:000000000001b25d .LASF4896
C:\Users\CYMR90~1\AppData\Local\Temp\ccZoYVSv.s:34059  .debug_str:000000000002d888 .LASF4897
C:\Users\CYMR90~1\AppData\Local\Temp\ccZoYVSv.s:23538  .debug_str:00000000000038af .LASF4898
C:\Users\CYMR90~1\AppData\Local\Temp\ccZoYVSv.s:27218  .debug_str:000000000001252d .LASF4899
C:\Users\CYMR90~1\AppData\Local\Temp\ccZoYVSv.s:31427  .debug_str:000000000002312f .LASF4900
C:\Users\CYMR90~1\AppData\Local\Temp\ccZoYVSv.s:23906  .debug_str:0000000000005111 .LASF4901
C:\Users\CYMR90~1\AppData\Local\Temp\ccZoYVSv.s:23118  .debug_str:0000000000001e5c .LASF4902
C:\Users\CYMR90~1\AppData\Local\Temp\ccZoYVSv.s:25082  .debug_str:0000000000009c54 .LASF4903
C:\Users\CYMR90~1\AppData\Local\Temp\ccZoYVSv.s:25988  .debug_str:000000000000d7eb .LASF4904
C:\Users\CYMR90~1\AppData\Local\Temp\ccZoYVSv.s:23190  .debug_str:000000000000224b .LASF4905
C:\Users\CYMR90~1\AppData\Local\Temp\ccZoYVSv.s:30707  .debug_str:00000000000205e4 .LASF4906
C:\Users\CYMR90~1\AppData\Local\Temp\ccZoYVSv.s:30807  .debug_str:0000000000020bf0 .LASF4907
C:\Users\CYMR90~1\AppData\Local\Temp\ccZoYVSv.s:32565  .debug_str:0000000000027a9a .LASF4908
C:\Users\CYMR90~1\AppData\Local\Temp\ccZoYVSv.s:23054  .debug_str:0000000000001a88 .LASF4909
C:\Users\CYMR90~1\AppData\Local\Temp\ccZoYVSv.s:26596  .debug_str:000000000000fd96 .LASF4910
C:\Users\CYMR90~1\AppData\Local\Temp\ccZoYVSv.s:26032  .debug_str:000000000000daa8 .LASF4911
C:\Users\CYMR90~1\AppData\Local\Temp\ccZoYVSv.s:32003  .debug_str:000000000002559d .LASF4912
C:\Users\CYMR90~1\AppData\Local\Temp\ccZoYVSv.s:33491  .debug_str:000000000002b3bb .LASF4913
C:\Users\CYMR90~1\AppData\Local\Temp\ccZoYVSv.s:28425  .debug_str:000000000001745c .LASF4914
C:\Users\CYMR90~1\AppData\Local\Temp\ccZoYVSv.s:28541  .debug_str:0000000000017b53 .LASF4915
C:\Users\CYMR90~1\AppData\Local\Temp\ccZoYVSv.s:30107  .debug_str:000000000001e0db .LASF4916
C:\Users\CYMR90~1\AppData\Local\Temp\ccZoYVSv.s:25212  .debug_str:000000000000a46e .LASF4917
C:\Users\CYMR90~1\AppData\Local\Temp\ccZoYVSv.s:30555  .debug_str:000000000001fc56 .LASF4918
C:\Users\CYMR90~1\AppData\Local\Temp\ccZoYVSv.s:32893  .debug_str:0000000000029109 .LASF4919
C:\Users\CYMR90~1\AppData\Local\Temp\ccZoYVSv.s:27348  .debug_str:0000000000012dde .LASF4920
C:\Users\CYMR90~1\AppData\Local\Temp\ccZoYVSv.s:23542  .debug_str:00000000000038e8 .LASF4921
C:\Users\CYMR90~1\AppData\Local\Temp\ccZoYVSv.s:27518  .debug_str:000000000001395d .LASF4922
C:\Users\CYMR90~1\AppData\Local\Temp\ccZoYVSv.s:32715  .debug_str:0000000000028484 .LASF4923
C:\Users\CYMR90~1\AppData\Local\Temp\ccZoYVSv.s:25090  .debug_str:0000000000009cdd .LASF4924
C:\Users\CYMR90~1\AppData\Local\Temp\ccZoYVSv.s:25588  .debug_str:000000000000bd58 .LASF4925
C:\Users\CYMR90~1\AppData\Local\Temp\ccZoYVSv.s:31757  .debug_str:00000000000244e3 .LASF4926
C:\Users\CYMR90~1\AppData\Local\Temp\ccZoYVSv.s:31863  .debug_str:0000000000024c6a .LASF4927
C:\Users\CYMR90~1\AppData\Local\Temp\ccZoYVSv.s:28054  .debug_str:0000000000015a7e .LASF4928
C:\Users\CYMR90~1\AppData\Local\Temp\ccZoYVSv.s:30621  .debug_str:0000000000020095 .LASF4929
C:\Users\CYMR90~1\AppData\Local\Temp\ccZoYVSv.s:28401  .debug_str:0000000000017309 .LASF4930
C:\Users\CYMR90~1\AppData\Local\Temp\ccZoYVSv.s:23508  .debug_str:00000000000036be .LASF4931
C:\Users\CYMR90~1\AppData\Local\Temp\ccZoYVSv.s:23838  .debug_str:0000000000004ce8 .LASF4932
C:\Users\CYMR90~1\AppData\Local\Temp\ccZoYVSv.s:24238  .debug_str:000000000000655d .LASF4933
C:\Users\CYMR90~1\AppData\Local\Temp\ccZoYVSv.s:32357  .debug_str:0000000000026de3 .LASF4934
C:\Users\CYMR90~1\AppData\Local\Temp\ccZoYVSv.s:33273  .debug_str:000000000002a742 .LASF4935
C:\Users\CYMR90~1\AppData\Local\Temp\ccZoYVSv.s:22744  .debug_str:00000000000006f8 .LASF4936
C:\Users\CYMR90~1\AppData\Local\Temp\ccZoYVSv.s:29295  .debug_str:000000000001ad05 .LASF4937
C:\Users\CYMR90~1\AppData\Local\Temp\ccZoYVSv.s:33749  .debug_str:000000000002c422 .LASF4938
C:\Users\CYMR90~1\AppData\Local\Temp\ccZoYVSv.s:25398  .debug_str:000000000000b0c7 .LASF4939
C:\Users\CYMR90~1\AppData\Local\Temp\ccZoYVSv.s:24322  .debug_str:0000000000006aa1 .LASF4940
C:\Users\CYMR90~1\AppData\Local\Temp\ccZoYVSv.s:32667  .debug_str:0000000000028126 .LASF4941
C:\Users\CYMR90~1\AppData\Local\Temp\ccZoYVSv.s:29319  .debug_str:000000000001ae6c .LASF4942
C:\Users\CYMR90~1\AppData\Local\Temp\ccZoYVSv.s:30457  .debug_str:000000000001f694 .LASF4943
C:\Users\CYMR90~1\AppData\Local\Temp\ccZoYVSv.s:29581  .debug_str:000000000001bed5 .LASF4944
C:\Users\CYMR90~1\AppData\Local\Temp\ccZoYVSv.s:24034  .debug_str:00000000000058e7 .LASF4945
C:\Users\CYMR90~1\AppData\Local\Temp\ccZoYVSv.s:31525  .debug_str:000000000002374b .LASF4946
C:\Users\CYMR90~1\AppData\Local\Temp\ccZoYVSv.s:31545  .debug_str:0000000000023830 .LASF4947
C:\Users\CYMR90~1\AppData\Local\Temp\ccZoYVSv.s:32043  .debug_str:0000000000025830 .LASF4948
C:\Users\CYMR90~1\AppData\Local\Temp\ccZoYVSv.s:32981  .debug_str:00000000000295d0 .LASF4949
C:\Users\CYMR90~1\AppData\Local\Temp\ccZoYVSv.s:31589  .debug_str:0000000000023ac4 .LASF4950
C:\Users\CYMR90~1\AppData\Local\Temp\ccZoYVSv.s:33105  .debug_str:0000000000029d5b .LASF4951
C:\Users\CYMR90~1\AppData\Local\Temp\ccZoYVSv.s:27432  .debug_str:000000000001333a .LASF4952
C:\Users\CYMR90~1\AppData\Local\Temp\ccZoYVSv.s:27258  .debug_str:00000000000127be .LASF4953
C:\Users\CYMR90~1\AppData\Local\Temp\ccZoYVSv.s:31103  .debug_str:0000000000021dfe .LASF4954
C:\Users\CYMR90~1\AppData\Local\Temp\ccZoYVSv.s:34031  .debug_str:000000000002d6bf .LASF4955
C:\Users\CYMR90~1\AppData\Local\Temp\ccZoYVSv.s:27436  .debug_str:000000000001337e .LASF4956
C:\Users\CYMR90~1\AppData\Local\Temp\ccZoYVSv.s:28617  .debug_str:000000000001800c .LASF4957
C:\Users\CYMR90~1\AppData\Local\Temp\ccZoYVSv.s:23898  .debug_str:000000000000509d .LASF4958
C:\Users\CYMR90~1\AppData\Local\Temp\ccZoYVSv.s:31087  .debug_str:0000000000021d1c .LASF4959
C:\Users\CYMR90~1\AppData\Local\Temp\ccZoYVSv.s:28338  .debug_str:0000000000016ce4 .LASF4960
C:\Users\CYMR90~1\AppData\Local\Temp\ccZoYVSv.s:23408  .debug_str:0000000000003022 .LASF4961
C:\Users\CYMR90~1\AppData\Local\Temp\ccZoYVSv.s:30363  .debug_str:000000000001f0c1 .LASF4962
C:\Users\CYMR90~1\AppData\Local\Temp\ccZoYVSv.s:31327  .debug_str:0000000000022b22 .LASF4963
C:\Users\CYMR90~1\AppData\Local\Temp\ccZoYVSv.s:32765  .debug_str:00000000000287c3 .LASF4964
C:\Users\CYMR90~1\AppData\Local\Temp\ccZoYVSv.s:31797  .debug_str:000000000002472b .LASF4965
C:\Users\CYMR90~1\AppData\Local\Temp\ccZoYVSv.s:29987  .debug_str:000000000001d93e .LASF4966
C:\Users\CYMR90~1\AppData\Local\Temp\ccZoYVSv.s:29969  .debug_str:000000000001d82c .LASF4967
C:\Users\CYMR90~1\AppData\Local\Temp\ccZoYVSv.s:22888  .debug_str:000000000000106c .LASF4968
C:\Users\CYMR90~1\AppData\Local\Temp\ccZoYVSv.s:25654  .debug_str:000000000000c245 .LASF4969
C:\Users\CYMR90~1\AppData\Local\Temp\ccZoYVSv.s:28719  .debug_str:0000000000018637 .LASF4970
C:\Users\CYMR90~1\AppData\Local\Temp\ccZoYVSv.s:24494  .debug_str:00000000000075cb .LASF4971
C:\Users\CYMR90~1\AppData\Local\Temp\ccZoYVSv.s:29301  .debug_str:000000000001ad4f .LASF4972
C:\Users\CYMR90~1\AppData\Local\Temp\ccZoYVSv.s:33221  .debug_str:000000000002a42f .LASF4973
C:\Users\CYMR90~1\AppData\Local\Temp\ccZoYVSv.s:25774  .debug_str:000000000000c9bc .LASF4974
C:\Users\CYMR90~1\AppData\Local\Temp\ccZoYVSv.s:25382  .debug_str:000000000000af8a .LASF4975
C:\Users\CYMR90~1\AppData\Local\Temp\ccZoYVSv.s:26406  .debug_str:000000000000f19f .LASF4976
C:\Users\CYMR90~1\AppData\Local\Temp\ccZoYVSv.s:24362  .debug_str:0000000000006d1e .LASF4977
C:\Users\CYMR90~1\AppData\Local\Temp\ccZoYVSv.s:34043  .debug_str:000000000002d78e .LASF4978
C:\Users\CYMR90~1\AppData\Local\Temp\ccZoYVSv.s:23246  .debug_str:00000000000025a5 .LASF4979
C:\Users\CYMR90~1\AppData\Local\Temp\ccZoYVSv.s:31575  .debug_str:00000000000239e8 .LASF4980
C:\Users\CYMR90~1\AppData\Local\Temp\ccZoYVSv.s:28324  .debug_str:0000000000016bba .LASF4981
C:\Users\CYMR90~1\AppData\Local\Temp\ccZoYVSv.s:33447  .debug_str:000000000002b14f .LASF4982
C:\Users\CYMR90~1\AppData\Local\Temp\ccZoYVSv.s:26594  .debug_str:000000000000fd76 .LASF4983
C:\Users\CYMR90~1\AppData\Local\Temp\ccZoYVSv.s:32759  .debug_str:0000000000028751 .LASF4984
C:\Users\CYMR90~1\AppData\Local\Temp\ccZoYVSv.s:24570  .debug_str:0000000000007a7f .LASF4985
C:\Users\CYMR90~1\AppData\Local\Temp\ccZoYVSv.s:26006  .debug_str:000000000000d940 .LASF4986
C:\Users\CYMR90~1\AppData\Local\Temp\ccZoYVSv.s:33941  .debug_str:000000000002d109 .LASF4987
C:\Users\CYMR90~1\AppData\Local\Temp\ccZoYVSv.s:25632  .debug_str:000000000000c0bd .LASF4988
C:\Users\CYMR90~1\AppData\Local\Temp\ccZoYVSv.s:25186  .debug_str:000000000000a2d7 .LASF4989
C:\Users\CYMR90~1\AppData\Local\Temp\ccZoYVSv.s:32671  .debug_str:000000000002817e .LASF4990
C:\Users\CYMR90~1\AppData\Local\Temp\ccZoYVSv.s:27046  .debug_str:0000000000011928 .LASF4991
C:\Users\CYMR90~1\AppData\Local\Temp\ccZoYVSv.s:23814  .debug_str:0000000000004b77 .LASF4992
C:\Users\CYMR90~1\AppData\Local\Temp\ccZoYVSv.s:25130  .debug_str:0000000000009f37 .LASF4993
C:\Users\CYMR90~1\AppData\Local\Temp\ccZoYVSv.s:28941  .debug_str:0000000000019578 .LASF4994
C:\Users\CYMR90~1\AppData\Local\Temp\ccZoYVSv.s:29929  .debug_str:000000000001d5cd .LASF4995
C:\Users\CYMR90~1\AppData\Local\Temp\ccZoYVSv.s:30149  .debug_str:000000000001e43f .LASF4996
C:\Users\CYMR90~1\AppData\Local\Temp\ccZoYVSv.s:27160  .debug_str:0000000000012163 .LASF4997
C:\Users\CYMR90~1\AppData\Local\Temp\ccZoYVSv.s:28112  .debug_str:0000000000015de2 .LASF4998
C:\Users\CYMR90~1\AppData\Local\Temp\ccZoYVSv.s:26242  .debug_str:000000000000e785 .LASF4999
C:\Users\CYMR90~1\AppData\Local\Temp\ccZoYVSv.s:29119  .debug_str:000000000001a0f3 .LASF5000
C:\Users\CYMR90~1\AppData\Local\Temp\ccZoYVSv.s:28859  .debug_str:0000000000018ef4 .LASF5001
C:\Users\CYMR90~1\AppData\Local\Temp\ccZoYVSv.s:31651  .debug_str:0000000000023ec2 .LASF5002
C:\Users\CYMR90~1\AppData\Local\Temp\ccZoYVSv.s:23772  .debug_str:0000000000004804 .LASF5003
C:\Users\CYMR90~1\AppData\Local\Temp\ccZoYVSv.s:22816  .debug_str:0000000000000bb1 .LASF5004
C:\Users\CYMR90~1\AppData\Local\Temp\ccZoYVSv.s:27142  .debug_str:0000000000012026 .LASF5005
C:\Users\CYMR90~1\AppData\Local\Temp\ccZoYVSv.s:27886  .debug_str:000000000001501c .LASF5006
C:\Users\CYMR90~1\AppData\Local\Temp\ccZoYVSv.s:33811  .debug_str:000000000002c874 .LASF5007
C:\Users\CYMR90~1\AppData\Local\Temp\ccZoYVSv.s:24718  .debug_str:0000000000008571 .LASF5008
C:\Users\CYMR90~1\AppData\Local\Temp\ccZoYVSv.s:25378  .debug_str:000000000000af40 .LASF5009
C:\Users\CYMR90~1\AppData\Local\Temp\ccZoYVSv.s:28951  .debug_str:0000000000019619 .LASF5010
C:\Users\CYMR90~1\AppData\Local\Temp\ccZoYVSv.s:26180  .debug_str:000000000000e3db .LASF5011
C:\Users\CYMR90~1\AppData\Local\Temp\ccZoYVSv.s:33861  .debug_str:000000000002cc0d .LASF5012
C:\Users\CYMR90~1\AppData\Local\Temp\ccZoYVSv.s:23058  .debug_str:0000000000001ac8 .LASF5013
C:\Users\CYMR90~1\AppData\Local\Temp\ccZoYVSv.s:32749  .debug_str:00000000000286a0 .LASF5014
C:\Users\CYMR90~1\AppData\Local\Temp\ccZoYVSv.s:30049  .debug_str:000000000001dd78 .LASF5015
C:\Users\CYMR90~1\AppData\Local\Temp\ccZoYVSv.s:28381  .debug_str:00000000000171b1 .LASF5016
C:\Users\CYMR90~1\AppData\Local\Temp\ccZoYVSv.s:25234  .debug_str:000000000000a5bb .LASF5017
C:\Users\CYMR90~1\AppData\Local\Temp\ccZoYVSv.s:31149  .debug_str:00000000000220c3 .LASF5018
C:\Users\CYMR90~1\AppData\Local\Temp\ccZoYVSv.s:27438  .debug_str:000000000001339e .LASF5019
C:\Users\CYMR90~1\AppData\Local\Temp\ccZoYVSv.s:28845  .debug_str:0000000000018e02 .LASF5020
C:\Users\CYMR90~1\AppData\Local\Temp\ccZoYVSv.s:27540  .debug_str:0000000000013abf .LASF5021
C:\Users\CYMR90~1\AppData\Local\Temp\ccZoYVSv.s:31835  .debug_str:0000000000024a7d .LASF5022
C:\Users\CYMR90~1\AppData\Local\Temp\ccZoYVSv.s:24888  .debug_str:00000000000090bb .LASF5023
C:\Users\CYMR90~1\AppData\Local\Temp\ccZoYVSv.s:23304  .debug_str:0000000000002993 .LASF5024
C:\Users\CYMR90~1\AppData\Local\Temp\ccZoYVSv.s:27112  .debug_str:0000000000011e66 .LASF5025
C:\Users\CYMR90~1\AppData\Local\Temp\ccZoYVSv.s:30687  .debug_str:00000000000204c0 .LASF5026
C:\Users\CYMR90~1\AppData\Local\Temp\ccZoYVSv.s:23454  .debug_str:0000000000003315 .LASF5027
C:\Users\CYMR90~1\AppData\Local\Temp\ccZoYVSv.s:30619  .debug_str:0000000000020056 .LASF5028
C:\Users\CYMR90~1\AppData\Local\Temp\ccZoYVSv.s:27526  .debug_str:00000000000139fe .LASF5029
C:\Users\CYMR90~1\AppData\Local\Temp\ccZoYVSv.s:33099  .debug_str:0000000000029cdf .LASF5030
C:\Users\CYMR90~1\AppData\Local\Temp\ccZoYVSv.s:25218  .debug_str:000000000000a4c5 .LASF5031
C:\Users\CYMR90~1\AppData\Local\Temp\ccZoYVSv.s:28937  .debug_str:0000000000019525 .LASF5032
C:\Users\CYMR90~1\AppData\Local\Temp\ccZoYVSv.s:33345  .debug_str:000000000002ab58 .LASF5033
C:\Users\CYMR90~1\AppData\Local\Temp\ccZoYVSv.s:24276  .debug_str:0000000000006796 .LASF5034
C:\Users\CYMR90~1\AppData\Local\Temp\ccZoYVSv.s:33339  .debug_str:000000000002aaef .LASF5035
C:\Users\CYMR90~1\AppData\Local\Temp\ccZoYVSv.s:23386  .debug_str:0000000000002ec8 .LASF5036
C:\Users\CYMR90~1\AppData\Local\Temp\ccZoYVSv.s:29385  .debug_str:000000000001b29a .LASF5037
C:\Users\CYMR90~1\AppData\Local\Temp\ccZoYVSv.s:26508  .debug_str:000000000000f7dd .LASF5038
C:\Users\CYMR90~1\AppData\Local\Temp\ccZoYVSv.s:27700  .debug_str:00000000000144ac .LASF5039
C:\Users\CYMR90~1\AppData\Local\Temp\ccZoYVSv.s:32989  .debug_str:000000000002964d .LASF5040
C:\Users\CYMR90~1\AppData\Local\Temp\ccZoYVSv.s:22724  .debug_str:00000000000005ca .LASF5041
C:\Users\CYMR90~1\AppData\Local\Temp\ccZoYVSv.s:29905  .debug_str:000000000001d3d0 .LASF5042
C:\Users\CYMR90~1\AppData\Local\Temp\ccZoYVSv.s:33389  .debug_str:000000000002ae14 .LASF5043
C:\Users\CYMR90~1\AppData\Local\Temp\ccZoYVSv.s:23764  .debug_str:0000000000004774 .LASF5044
C:\Users\CYMR90~1\AppData\Local\Temp\ccZoYVSv.s:32129  .debug_str:0000000000025f23 .LASF5045
C:\Users\CYMR90~1\AppData\Local\Temp\ccZoYVSv.s:30577  .debug_str:000000000001fd7f .LASF5046
C:\Users\CYMR90~1\AppData\Local\Temp\ccZoYVSv.s:29721  .debug_str:000000000001c761 .LASF5047
C:\Users\CYMR90~1\AppData\Local\Temp\ccZoYVSv.s:30711  .debug_str:0000000000020616 .LASF5048
C:\Users\CYMR90~1\AppData\Local\Temp\ccZoYVSv.s:34009  .debug_str:000000000002d596 .LASF5049
C:\Users\CYMR90~1\AppData\Local\Temp\ccZoYVSv.s:23512  .debug_str:00000000000036ed .LASF5050
C:\Users\CYMR90~1\AppData\Local\Temp\ccZoYVSv.s:30319  .debug_str:000000000001ee5f .LASF5051
C:\Users\CYMR90~1\AppData\Local\Temp\ccZoYVSv.s:31119  .debug_str:0000000000021f2c .LASF5052
C:\Users\CYMR90~1\AppData\Local\Temp\ccZoYVSv.s:23082  .debug_str:0000000000001c3f .LASF5053
C:\Users\CYMR90~1\AppData\Local\Temp\ccZoYVSv.s:27344  .debug_str:0000000000012d91 .LASF5054
C:\Users\CYMR90~1\AppData\Local\Temp\ccZoYVSv.s:28649  .debug_str:00000000000181f3 .LASF5055
C:\Users\CYMR90~1\AppData\Local\Temp\ccZoYVSv.s:26844  .debug_str:0000000000010cd6 .LASF5056
C:\Users\CYMR90~1\AppData\Local\Temp\ccZoYVSv.s:34029  .debug_str:000000000002d699 .LASF5057
C:\Users\CYMR90~1\AppData\Local\Temp\ccZoYVSv.s:29343  .debug_str:000000000001b03d .LASF5058
C:\Users\CYMR90~1\AppData\Local\Temp\ccZoYVSv.s:30717  .debug_str:0000000000020687 .LASF5059
C:\Users\CYMR90~1\AppData\Local\Temp\ccZoYVSv.s:34045  .debug_str:000000000002d7ac .LASF5060
C:\Users\CYMR90~1\AppData\Local\Temp\ccZoYVSv.s:27810  .debug_str:0000000000014b6b .LASF5061
C:\Users\CYMR90~1\AppData\Local\Temp\ccZoYVSv.s:29193  .debug_str:000000000001a527 .LASF5062
C:\Users\CYMR90~1\AppData\Local\Temp\ccZoYVSv.s:23996  .debug_str:0000000000005697 .LASF5063
C:\Users\CYMR90~1\AppData\Local\Temp\ccZoYVSv.s:31857  .debug_str:0000000000024be3 .LASF5064
C:\Users\CYMR90~1\AppData\Local\Temp\ccZoYVSv.s:32753  .debug_str:00000000000286e3 .LASF5065
C:\Users\CYMR90~1\AppData\Local\Temp\ccZoYVSv.s:24592  .debug_str:0000000000007bd9 .LASF5066
C:\Users\CYMR90~1\AppData\Local\Temp\ccZoYVSv.s:33819  .debug_str:000000000002c91b .LASF5067
C:\Users\CYMR90~1\AppData\Local\Temp\ccZoYVSv.s:26360  .debug_str:000000000000ef37 .LASF5068
C:\Users\CYMR90~1\AppData\Local\Temp\ccZoYVSv.s:32353  .debug_str:0000000000026d8c .LASF5069
C:\Users\CYMR90~1\AppData\Local\Temp\ccZoYVSv.s:24700  .debug_str:000000000000845b .LASF5070
C:\Users\CYMR90~1\AppData\Local\Temp\ccZoYVSv.s:24292  .debug_str:000000000000688a .LASF5071
C:\Users\CYMR90~1\AppData\Local\Temp\ccZoYVSv.s:23888  .debug_str:0000000000004ff8 .LASF5072
C:\Users\CYMR90~1\AppData\Local\Temp\ccZoYVSv.s:32575  .debug_str:0000000000027bd3 .LASF5073
C:\Users\CYMR90~1\AppData\Local\Temp\ccZoYVSv.s:28695  .debug_str:00000000000184b3 .LASF5074
C:\Users\CYMR90~1\AppData\Local\Temp\ccZoYVSv.s:27288  .debug_str:00000000000129b6 .LASF5075
C:\Users\CYMR90~1\AppData\Local\Temp\ccZoYVSv.s:25800  .debug_str:000000000000cb9a .LASF5076
C:\Users\CYMR90~1\AppData\Local\Temp\ccZoYVSv.s:30299  .debug_str:000000000001ed25 .LASF5077
C:\Users\CYMR90~1\AppData\Local\Temp\ccZoYVSv.s:24936  .debug_str:0000000000009342 .LASF5078
C:\Users\CYMR90~1\AppData\Local\Temp\ccZoYVSv.s:33433  .debug_str:000000000002b089 .LASF5079
C:\Users\CYMR90~1\AppData\Local\Temp\ccZoYVSv.s:30291  .debug_str:000000000001ec73 .LASF5080
C:\Users\CYMR90~1\AppData\Local\Temp\ccZoYVSv.s:24790  .debug_str:00000000000089c0 .LASF5081
C:\Users\CYMR90~1\AppData\Local\Temp\ccZoYVSv.s:32663  .debug_str:00000000000280f4 .LASF5082
C:\Users\CYMR90~1\AppData\Local\Temp\ccZoYVSv.s:34051  .debug_str:000000000002d806 .LASF5083
C:\Users\CYMR90~1\AppData\Local\Temp\ccZoYVSv.s:30629  .debug_str:00000000000200ed .LASF5084
C:\Users\CYMR90~1\AppData\Local\Temp\ccZoYVSv.s:32953  .debug_str:0000000000029443 .LASF5085
C:\Users\CYMR90~1\AppData\Local\Temp\ccZoYVSv.s:31075  .debug_str:0000000000021c71 .LASF5086
C:\Users\CYMR90~1\AppData\Local\Temp\ccZoYVSv.s:24212  .debug_str:00000000000063e5 .LASF5087
C:\Users\CYMR90~1\AppData\Local\Temp\ccZoYVSv.s:29213  .debug_str:000000000001a63e .LASF5088
C:\Users\CYMR90~1\AppData\Local\Temp\ccZoYVSv.s:27894  .debug_str:00000000000150d6 .LASF5089
C:\Users\CYMR90~1\AppData\Local\Temp\ccZoYVSv.s:26644  .debug_str:0000000000010085 .LASF5090
C:\Users\CYMR90~1\AppData\Local\Temp\ccZoYVSv.s:33405  .debug_str:000000000002af02 .LASF5091
C:\Users\CYMR90~1\AppData\Local\Temp\ccZoYVSv.s:29659  .debug_str:000000000001c384 .LASF5092
C:\Users\CYMR90~1\AppData\Local\Temp\ccZoYVSv.s:31185  .debug_str:0000000000022335 .LASF5093
C:\Users\CYMR90~1\AppData\Local\Temp\ccZoYVSv.s:29419  .debug_str:000000000001b528 .LASF5094
C:\Users\CYMR90~1\AppData\Local\Temp\ccZoYVSv.s:24980  .debug_str:00000000000095d9 .LASF5095
C:\Users\CYMR90~1\AppData\Local\Temp\ccZoYVSv.s:22690  .debug_str:00000000000003c4 .LASF5096
C:\Users\CYMR90~1\AppData\Local\Temp\ccZoYVSv.s:27068  .debug_str:0000000000011b4d .LASF5097
C:\Users\CYMR90~1\AppData\Local\Temp\ccZoYVSv.s:23288  .debug_str:0000000000002889 .LASF5098
C:\Users\CYMR90~1\AppData\Local\Temp\ccZoYVSv.s:30351  .debug_str:000000000001f026 .LASF5099
C:\Users\CYMR90~1\AppData\Local\Temp\ccZoYVSv.s:27916  .debug_str:000000000001526b .LASF5100
C:\Users\CYMR90~1\AppData\Local\Temp\ccZoYVSv.s:22632  .debug_str:0000000000000000 .LASF5101
C:\Users\CYMR90~1\AppData\Local\Temp\ccZoYVSv.s:23092  .debug_str:0000000000001ccc .LASF5102
C:\Users\CYMR90~1\AppData\Local\Temp\ccZoYVSv.s:33101  .debug_str:0000000000029d0c .LASF5103
C:\Users\CYMR90~1\AppData\Local\Temp\ccZoYVSv.s:30557  .debug_str:000000000001fc74 .LASF5104
C:\Users\CYMR90~1\AppData\Local\Temp\ccZoYVSv.s:32723  .debug_str:00000000000284fb .LASF5105
C:\Users\CYMR90~1\AppData\Local\Temp\ccZoYVSv.s:24000  .debug_str:00000000000056e1 .LASF5106
C:\Users\CYMR90~1\AppData\Local\Temp\ccZoYVSv.s:28350  .debug_str:0000000000016d90 .LASF5107
C:\Users\CYMR90~1\AppData\Local\Temp\ccZoYVSv.s:30665  .debug_str:000000000002033a .LASF5108
C:\Users\CYMR90~1\AppData\Local\Temp\ccZoYVSv.s:29307  .debug_str:000000000001adb8 .LASF5109
C:\Users\CYMR90~1\AppData\Local\Temp\ccZoYVSv.s:34035  .debug_str:000000000002d701 .LASF5110
C:\Users\CYMR90~1\AppData\Local\Temp\ccZoYVSv.s:28483  .debug_str:00000000000177ad .LASF5111
C:\Users\CYMR90~1\AppData\Local\Temp\ccZoYVSv.s:24182  .debug_str:00000000000061db .LASF5112
C:\Users\CYMR90~1\AppData\Local\Temp\ccZoYVSv.s:26470  .debug_str:000000000000f593 .LASF5113
C:\Users\CYMR90~1\AppData\Local\Temp\ccZoYVSv.s:27178  .debug_str:00000000000122a2 .LASF5114
C:\Users\CYMR90~1\AppData\Local\Temp\ccZoYVSv.s:28807  .debug_str:0000000000018b8e .LASF5115
C:\Users\CYMR90~1\AppData\Local\Temp\ccZoYVSv.s:23968  .debug_str:00000000000054dd .LASF5116
C:\Users\CYMR90~1\AppData\Local\Temp\ccZoYVSv.s:32115  .debug_str:0000000000025e01 .LASF5117
C:\Users\CYMR90~1\AppData\Local\Temp\ccZoYVSv.s:32911  .debug_str:00000000000291ed .LASF5118
C:\Users\CYMR90~1\AppData\Local\Temp\ccZoYVSv.s:32361  .debug_str:0000000000026e0a .LASF5119
C:\Users\CYMR90~1\AppData\Local\Temp\ccZoYVSv.s:26978  .debug_str:0000000000011519 .LASF5120
C:\Users\CYMR90~1\AppData\Local\Temp\ccZoYVSv.s:25888  .debug_str:000000000000d0b9 .LASF5121
C:\Users\CYMR90~1\AppData\Local\Temp\ccZoYVSv.s:30827  .debug_str:0000000000020d04 .LASF5122
C:\Users\CYMR90~1\AppData\Local\Temp\ccZoYVSv.s:26546  .debug_str:000000000000faa9 .LASF5123
C:\Users\CYMR90~1\AppData\Local\Temp\ccZoYVSv.s:25854  .debug_str:000000000000cef4 .LASF5124
C:\Users\CYMR90~1\AppData\Local\Temp\ccZoYVSv.s:30867  .debug_str:0000000000020f4d .LASF5125
C:\Users\CYMR90~1\AppData\Local\Temp\ccZoYVSv.s:33407  .debug_str:000000000002af27 .LASF5126
C:\Users\CYMR90~1\AppData\Local\Temp\ccZoYVSv.s:25664  .debug_str:000000000000c2c9 .LASF5127
C:\Users\CYMR90~1\AppData\Local\Temp\ccZoYVSv.s:23554  .debug_str:00000000000039cc .LASF5128
C:\Users\CYMR90~1\AppData\Local\Temp\ccZoYVSv.s:24484  .debug_str:0000000000007530 .LASF5129
C:\Users\CYMR90~1\AppData\Local\Temp\ccZoYVSv.s:26550  .debug_str:000000000000faf8 .LASF5130
C:\Users\CYMR90~1\AppData\Local\Temp\ccZoYVSv.s:24062  .debug_str:0000000000005a95 .LASF5131
C:\Users\CYMR90~1\AppData\Local\Temp\ccZoYVSv.s:32783  .debug_str:000000000002892e .LASF5132
C:\Users\CYMR90~1\AppData\Local\Temp\ccZoYVSv.s:27234  .debug_str:0000000000012647 .LASF5133
C:\Users\CYMR90~1\AppData\Local\Temp\ccZoYVSv.s:23380  .debug_str:0000000000002e6c .LASF5134
C:\Users\CYMR90~1\AppData\Local\Temp\ccZoYVSv.s:32191  .debug_str:00000000000263ae .LASF5135
C:\Users\CYMR90~1\AppData\Local\Temp\ccZoYVSv.s:32587  .debug_str:0000000000027caa .LASF5136
C:\Users\CYMR90~1\AppData\Local\Temp\ccZoYVSv.s:26994  .debug_str:00000000000115f1 .LASF5137
C:\Users\CYMR90~1\AppData\Local\Temp\ccZoYVSv.s:28182  .debug_str:00000000000162cb .LASF5138
C:\Users\CYMR90~1\AppData\Local\Temp\ccZoYVSv.s:31579  .debug_str:0000000000023a21 .LASF5139
C:\Users\CYMR90~1\AppData\Local\Temp\ccZoYVSv.s:30283  .debug_str:000000000001ebf3 .LASF5140
C:\Users\CYMR90~1\AppData\Local\Temp\ccZoYVSv.s:31215  .debug_str:00000000000224f5 .LASF5141
C:\Users\CYMR90~1\AppData\Local\Temp\ccZoYVSv.s:34057  .debug_str:000000000002d862 .LASF5142
C:\Users\CYMR90~1\AppData\Local\Temp\ccZoYVSv.s:31403  .debug_str:0000000000022fb4 .LASF5143
C:\Users\CYMR90~1\AppData\Local\Temp\ccZoYVSv.s:32017  .debug_str:0000000000025697 .LASF5144
C:\Users\CYMR90~1\AppData\Local\Temp\ccZoYVSv.s:24574  .debug_str:0000000000007ab5 .LASF5145
C:\Users\CYMR90~1\AppData\Local\Temp\ccZoYVSv.s:23928  .debug_str:0000000000005257 .LASF5146
C:\Users\CYMR90~1\AppData\Local\Temp\ccZoYVSv.s:31435  .debug_str:0000000000023196 .LASF5147
C:\Users\CYMR90~1\AppData\Local\Temp\ccZoYVSv.s:27298  .debug_str:0000000000012a59 .LASF5148
C:\Users\CYMR90~1\AppData\Local\Temp\ccZoYVSv.s:31911  .debug_str:0000000000024f28 .LASF5149
C:\Users\CYMR90~1\AppData\Local\Temp\ccZoYVSv.s:33237  .debug_str:000000000002a530 .LASF5150
C:\Users\CYMR90~1\AppData\Local\Temp\ccZoYVSv.s:29907  .debug_str:000000000001d3ff .LASF5151
C:\Users\CYMR90~1\AppData\Local\Temp\ccZoYVSv.s:32157  .debug_str:0000000000026197 .LASF5152
C:\Users\CYMR90~1\AppData\Local\Temp\ccZoYVSv.s:32207  .debug_str:00000000000264b9 .LASF5153
C:\Users\CYMR90~1\AppData\Local\Temp\ccZoYVSv.s:30957  .debug_str:00000000000214dd .LASF5154
C:\Users\CYMR90~1\AppData\Local\Temp\ccZoYVSv.s:32713  .debug_str:0000000000028461 .LASF5155
C:\Users\CYMR90~1\AppData\Local\Temp\ccZoYVSv.s:27048  .debug_str:000000000001194c .LASF5156
C:\Users\CYMR90~1\AppData\Local\Temp\ccZoYVSv.s:32037  .debug_str:00000000000257c5 .LASF5157
C:\Users\CYMR90~1\AppData\Local\Temp\ccZoYVSv.s:25330  .debug_str:000000000000ac2c .LASF5158
C:\Users\CYMR90~1\AppData\Local\Temp\ccZoYVSv.s:26848  .debug_str:0000000000010d0f .LASF5159
C:\Users\CYMR90~1\AppData\Local\Temp\ccZoYVSv.s:28304  .debug_str:0000000000016a86 .LASF5160
C:\Users\CYMR90~1\AppData\Local\Temp\ccZoYVSv.s:24854  .debug_str:0000000000008e29 .LASF5161
C:\Users\CYMR90~1\AppData\Local\Temp\ccZoYVSv.s:25448  .debug_str:000000000000b473 .LASF5162
C:\Users\CYMR90~1\AppData\Local\Temp\ccZoYVSv.s:32215  .debug_str:000000000002652a .LASF5163
C:\Users\CYMR90~1\AppData\Local\Temp\ccZoYVSv.s:22916  .debug_str:0000000000001227 .LASF5164
C:\Users\CYMR90~1\AppData\Local\Temp\ccZoYVSv.s:28260  .debug_str:0000000000016780 .LASF5165
C:\Users\CYMR90~1\AppData\Local\Temp\ccZoYVSv.s:30365  .debug_str:000000000001f0d9 .LASF5166
C:\Users\CYMR90~1\AppData\Local\Temp\ccZoYVSv.s:32709  .debug_str:0000000000028419 .LASF5167
C:\Users\CYMR90~1\AppData\Local\Temp\ccZoYVSv.s:26306  .debug_str:000000000000ebcb .LASF5168
C:\Users\CYMR90~1\AppData\Local\Temp\ccZoYVSv.s:32739  .debug_str:0000000000028609 .LASF5169
C:\Users\CYMR90~1\AppData\Local\Temp\ccZoYVSv.s:30303  .debug_str:000000000001ed79 .LASF5170
C:\Users\CYMR90~1\AppData\Local\Temp\ccZoYVSv.s:27052  .debug_str:0000000000011997 .LASF5171
C:\Users\CYMR90~1\AppData\Local\Temp\ccZoYVSv.s:30617  .debug_str:0000000000020025 .LASF5172
C:\Users\CYMR90~1\AppData\Local\Temp\ccZoYVSv.s:23908  .debug_str:000000000000512f .LASF5173
C:\Users\CYMR90~1\AppData\Local\Temp\ccZoYVSv.s:27592  .debug_str:0000000000013dc7 .LASF5174
C:\Users\CYMR90~1\AppData\Local\Temp\ccZoYVSv.s:30657  .debug_str:000000000002027b .LASF5175
C:\Users\CYMR90~1\AppData\Local\Temp\ccZoYVSv.s:26162  .debug_str:000000000000e2cf .LASF5176
C:\Users\CYMR90~1\AppData\Local\Temp\ccZoYVSv.s:29865  .debug_str:000000000001d0a7 .LASF5177
C:\Users\CYMR90~1\AppData\Local\Temp\ccZoYVSv.s:26284  .debug_str:000000000000ea6c .LASF5178
C:\Users\CYMR90~1\AppData\Local\Temp\ccZoYVSv.s:33135  .debug_str:0000000000029f52 .LASF5179
C:\Users\CYMR90~1\AppData\Local\Temp\ccZoYVSv.s:33899  .debug_str:000000000002ce23 .LASF5180
C:\Users\CYMR90~1\AppData\Local\Temp\ccZoYVSv.s:26316  .debug_str:000000000000ec49 .LASF5181
C:\Users\CYMR90~1\AppData\Local\Temp\ccZoYVSv.s:22998  .debug_str:000000000000169a .LASF5182
C:\Users\CYMR90~1\AppData\Local\Temp\ccZoYVSv.s:29467  .debug_str:000000000001b858 .LASF5183
C:\Users\CYMR90~1\AppData\Local\Temp\ccZoYVSv.s:32541  .debug_str:0000000000027911 .LASF5184
C:\Users\CYMR90~1\AppData\Local\Temp\ccZoYVSv.s:29351  .debug_str:000000000001b0a0 .LASF5185
C:\Users\CYMR90~1\AppData\Local\Temp\ccZoYVSv.s:30361  .debug_str:000000000001f0ab .LASF5186
C:\Users\CYMR90~1\AppData\Local\Temp\ccZoYVSv.s:22840  .debug_str:0000000000000d13 .LASF5187
C:\Users\CYMR90~1\AppData\Local\Temp\ccZoYVSv.s:30977  .debug_str:00000000000215f2 .LASF5188
C:\Users\CYMR90~1\AppData\Local\Temp\ccZoYVSv.s:25804  .debug_str:000000000000cc0e .LASF5189
C:\Users\CYMR90~1\AppData\Local\Temp\ccZoYVSv.s:28120  .debug_str:0000000000015e7a .LASF5190
C:\Users\CYMR90~1\AppData\Local\Temp\ccZoYVSv.s:26570  .debug_str:000000000000fc29 .LASF5191
C:\Users\CYMR90~1\AppData\Local\Temp\ccZoYVSv.s:28749  .debug_str:0000000000018808 .LASF5192
C:\Users\CYMR90~1\AppData\Local\Temp\ccZoYVSv.s:33397  .debug_str:000000000002ae97 .LASF5193
C:\Users\CYMR90~1\AppData\Local\Temp\ccZoYVSv.s:26438  .debug_str:000000000000f37f .LASF5194
C:\Users\CYMR90~1\AppData\Local\Temp\ccZoYVSv.s:30545  .debug_str:000000000001fbc2 .LASF5195
C:\Users\CYMR90~1\AppData\Local\Temp\ccZoYVSv.s:24552  .debug_str:000000000000795a .LASF5196
C:\Users\CYMR90~1\AppData\Local\Temp\ccZoYVSv.s:32075  .debug_str:0000000000025b4e .LASF5197
C:\Users\CYMR90~1\AppData\Local\Temp\ccZoYVSv.s:24426  .debug_str:0000000000007103 .LASF5198
C:\Users\CYMR90~1\AppData\Local\Temp\ccZoYVSv.s:32619  .debug_str:0000000000027e7b .LASF5199
C:\Users\CYMR90~1\AppData\Local\Temp\ccZoYVSv.s:33113  .debug_str:0000000000029dc7 .LASF5200
C:\Users\CYMR90~1\AppData\Local\Temp\ccZoYVSv.s:31313  .debug_str:0000000000022a81 .LASF5201
C:\Users\CYMR90~1\AppData\Local\Temp\ccZoYVSv.s:28028  .debug_str:0000000000015905 .LASF5202
C:\Users\CYMR90~1\AppData\Local\Temp\ccZoYVSv.s:24860  .debug_str:0000000000008e70 .LASF5203
C:\Users\CYMR90~1\AppData\Local\Temp\ccZoYVSv.s:23462  .debug_str:000000000000339f .LASF5204
C:\Users\CYMR90~1\AppData\Local\Temp\ccZoYVSv.s:33807  .debug_str:000000000002c844 .LASF5205
C:\Users\CYMR90~1\AppData\Local\Temp\ccZoYVSv.s:25044  .debug_str:00000000000099eb .LASF5206
C:\Users\CYMR90~1\AppData\Local\Temp\ccZoYVSv.s:25762  .debug_str:000000000000c914 .LASF5207
C:\Users\CYMR90~1\AppData\Local\Temp\ccZoYVSv.s:33305  .debug_str:000000000002a92f .LASF5208
C:\Users\CYMR90~1\AppData\Local\Temp\ccZoYVSv.s:26408  .debug_str:000000000000f1c2 .LASF5209
C:\Users\CYMR90~1\AppData\Local\Temp\ccZoYVSv.s:33001  .debug_str:0000000000029740 .LASF5210
C:\Users\CYMR90~1\AppData\Local\Temp\ccZoYVSv.s:24978  .debug_str:00000000000095c1 .LASF5211
C:\Users\CYMR90~1\AppData\Local\Temp\ccZoYVSv.s:33699  .debug_str:000000000002c117 .LASF5212
C:\Users\CYMR90~1\AppData\Local\Temp\ccZoYVSv.s:32277  .debug_str:000000000002690d .LASF5213
C:\Users\CYMR90~1\AppData\Local\Temp\ccZoYVSv.s:26554  .debug_str:000000000000fb4e .LASF5214
C:\Users\CYMR90~1\AppData\Local\Temp\ccZoYVSv.s:23746  .debug_str:0000000000004635 .LASF5215
C:\Users\CYMR90~1\AppData\Local\Temp\ccZoYVSv.s:29309  .debug_str:000000000001addf .LASF5216
C:\Users\CYMR90~1\AppData\Local\Temp\ccZoYVSv.s:32031  .debug_str:000000000002577a .LASF5217
C:\Users\CYMR90~1\AppData\Local\Temp\ccZoYVSv.s:26492  .debug_str:000000000000f707 .LASF5218
C:\Users\CYMR90~1\AppData\Local\Temp\ccZoYVSv.s:22742  .debug_str:00000000000006e0 .LASF5219
C:\Users\CYMR90~1\AppData\Local\Temp\ccZoYVSv.s:22692  .debug_str:00000000000003ee .LASF5220
C:\Users\CYMR90~1\AppData\Local\Temp\ccZoYVSv.s:23050  .debug_str:0000000000001a4f .LASF5221
C:\Users\CYMR90~1\AppData\Local\Temp\ccZoYVSv.s:31665  .debug_str:0000000000023fc8 .LASF5222
C:\Users\CYMR90~1\AppData\Local\Temp\ccZoYVSv.s:32333  .debug_str:0000000000026c44 .LASF5223
C:\Users\CYMR90~1\AppData\Local\Temp\ccZoYVSv.s:27396  .debug_str:00000000000130e1 .LASF5224
C:\Users\CYMR90~1\AppData\Local\Temp\ccZoYVSv.s:29345  .debug_str:000000000001b061 .LASF5225
C:\Users\CYMR90~1\AppData\Local\Temp\ccZoYVSv.s:23332  .debug_str:0000000000002b46 .LASF5226
C:\Users\CYMR90~1\AppData\Local\Temp\ccZoYVSv.s:28128  .debug_str:0000000000015f39 .LASF5227
C:\Users\CYMR90~1\AppData\Local\Temp\ccZoYVSv.s:23766  .debug_str:00000000000047a3 .LASF5228
C:\Users\CYMR90~1\AppData\Local\Temp\ccZoYVSv.s:30051  .debug_str:000000000001dda2 .LASF5229
C:\Users\CYMR90~1\AppData\Local\Temp\ccZoYVSv.s:24778  .debug_str:000000000000890e .LASF5230
C:\Users\CYMR90~1\AppData\Local\Temp\ccZoYVSv.s:31461  .debug_str:0000000000023396 .LASF5231
C:\Users\CYMR90~1\AppData\Local\Temp\ccZoYVSv.s:30723  .debug_str:00000000000206d3 .LASF5232
C:\Users\CYMR90~1\AppData\Local\Temp\ccZoYVSv.s:23806  .debug_str:0000000000004b00 .LASF5233
C:\Users\CYMR90~1\AppData\Local\Temp\ccZoYVSv.s:24236  .debug_str:0000000000006546 .LASF5234
C:\Users\CYMR90~1\AppData\Local\Temp\ccZoYVSv.s:31415  .debug_str:0000000000023083 .LASF5235
C:\Users\CYMR90~1\AppData\Local\Temp\ccZoYVSv.s:33185  .debug_str:000000000002a208 .LASF5236
C:\Users\CYMR90~1\AppData\Local\Temp\ccZoYVSv.s:28925  .debug_str:00000000000193af .LASF5237
C:\Users\CYMR90~1\AppData\Local\Temp\ccZoYVSv.s:25700  .debug_str:000000000000c557 .LASF5238
C:\Users\CYMR90~1\AppData\Local\Temp\ccZoYVSv.s:26912  .debug_str:0000000000011138 .LASF5239
C:\Users\CYMR90~1\AppData\Local\Temp\ccZoYVSv.s:25516  .debug_str:000000000000b8b1 .LASF5240
C:\Users\CYMR90~1\AppData\Local\Temp\ccZoYVSv.s:30833  .debug_str:0000000000020d9a .LASF5241
C:\Users\CYMR90~1\AppData\Local\Temp\ccZoYVSv.s:27596  .debug_str:0000000000013e1a .LASF5242
C:\Users\CYMR90~1\AppData\Local\Temp\ccZoYVSv.s:33139  .debug_str:0000000000029f96 .LASF5243
C:\Users\CYMR90~1\AppData\Local\Temp\ccZoYVSv.s:26730  .debug_str:00000000000105e5 .LASF5244
C:\Users\CYMR90~1\AppData\Local\Temp\ccZoYVSv.s:25958  .debug_str:000000000000d5b6 .LASF5245
C:\Users\CYMR90~1\AppData\Local\Temp\ccZoYVSv.s:30449  .debug_str:000000000001f628 .LASF5246
C:\Users\CYMR90~1\AppData\Local\Temp\ccZoYVSv.s:33725  .debug_str:000000000002c2a0 .LASF5247
C:\Users\CYMR90~1\AppData\Local\Temp\ccZoYVSv.s:26202  .debug_str:000000000000e55a .LASF5248
C:\Users\CYMR90~1\AppData\Local\Temp\ccZoYVSv.s:31593  .debug_str:0000000000023b03 .LASF5249
C:\Users\CYMR90~1\AppData\Local\Temp\ccZoYVSv.s:25492  .debug_str:000000000000b6b9 .LASF5250
C:\Users\CYMR90~1\AppData\Local\Temp\ccZoYVSv.s:31717  .debug_str:00000000000242c1 .LASF5251
C:\Users\CYMR90~1\AppData\Local\Temp\ccZoYVSv.s:31317  .debug_str:0000000000022ab2 .LASF5252
C:\Users\CYMR90~1\AppData\Local\Temp\ccZoYVSv.s:29181  .debug_str:000000000001a487 .LASF5253
C:\Users\CYMR90~1\AppData\Local\Temp\ccZoYVSv.s:28709  .debug_str:00000000000185aa .LASF5254
C:\Users\CYMR90~1\AppData\Local\Temp\ccZoYVSv.s:31187  .debug_str:000000000002235b .LASF5255
C:\Users\CYMR90~1\AppData\Local\Temp\ccZoYVSv.s:30759  .debug_str:00000000000208b0 .LASF5256
C:\Users\CYMR90~1\AppData\Local\Temp\ccZoYVSv.s:24628  .debug_str:0000000000007e65 .LASF5257
C:\Users\CYMR90~1\AppData\Local\Temp\ccZoYVSv.s:24072  .debug_str:0000000000005b54 .LASF5258
C:\Users\CYMR90~1\AppData\Local\Temp\ccZoYVSv.s:24374  .debug_str:0000000000006dcb .LASF5259
C:\Users\CYMR90~1\AppData\Local\Temp\ccZoYVSv.s:25842  .debug_str:000000000000ce47 .LASF5260
C:\Users\CYMR90~1\AppData\Local\Temp\ccZoYVSv.s:27200  .debug_str:0000000000012431 .LASF5261
C:\Users\CYMR90~1\AppData\Local\Temp\ccZoYVSv.s:25590  .debug_str:000000000000bd79 .LASF5262
C:\Users\CYMR90~1\AppData\Local\Temp\ccZoYVSv.s:32729  .debug_str:0000000000028583 .LASF5263
C:\Users\CYMR90~1\AppData\Local\Temp\ccZoYVSv.s:32317  .debug_str:0000000000026b6a .LASF5264
C:\Users\CYMR90~1\AppData\Local\Temp\ccZoYVSv.s:27946  .debug_str:0000000000015453 .LASF5265
C:\Users\CYMR90~1\AppData\Local\Temp\ccZoYVSv.s:30613  .debug_str:000000000001fffd .LASF5266
C:\Users\CYMR90~1\AppData\Local\Temp\ccZoYVSv.s:27510  .debug_str:00000000000138fe .LASF5267
C:\Users\CYMR90~1\AppData\Local\Temp\ccZoYVSv.s:33877  .debug_str:000000000002ccf9 .LASF5268
C:\Users\CYMR90~1\AppData\Local\Temp\ccZoYVSv.s:30095  .debug_str:000000000001e025 .LASF5269
C:\Users\CYMR90~1\AppData\Local\Temp\ccZoYVSv.s:30851  .debug_str:0000000000020e8e .LASF5270
C:\Users\CYMR90~1\AppData\Local\Temp\ccZoYVSv.s:31031  .debug_str:0000000000021930 .LASF5271
C:\Users\CYMR90~1\AppData\Local\Temp\ccZoYVSv.s:25920  .debug_str:000000000000d2f2 .LASF5272
C:\Users\CYMR90~1\AppData\Local\Temp\ccZoYVSv.s:30041  .debug_str:000000000001dcdb .LASF5273
C:\Users\CYMR90~1\AppData\Local\Temp\ccZoYVSv.s:28593  .debug_str:0000000000017eb4 .LASF5274
C:\Users\CYMR90~1\AppData\Local\Temp\ccZoYVSv.s:27754  .debug_str:00000000000147ce .LASF5275
C:\Users\CYMR90~1\AppData\Local\Temp\ccZoYVSv.s:28651  .debug_str:0000000000018239 .LASF5276
C:\Users\CYMR90~1\AppData\Local\Temp\ccZoYVSv.s:32875  .debug_str:0000000000028fcd .LASF5277
C:\Users\CYMR90~1\AppData\Local\Temp\ccZoYVSv.s:25984  .debug_str:000000000000d7c4 .LASF5278
C:\Users\CYMR90~1\AppData\Local\Temp\ccZoYVSv.s:27628  .debug_str:000000000001402d .LASF5279
C:\Users\CYMR90~1\AppData\Local\Temp\ccZoYVSv.s:23330  .debug_str:0000000000002b2a .LASF5280
C:\Users\CYMR90~1\AppData\Local\Temp\ccZoYVSv.s:25166  .debug_str:000000000000a178 .LASF5281
C:\Users\CYMR90~1\AppData\Local\Temp\ccZoYVSv.s:32055  .debug_str:0000000000025976 .LASF5282
C:\Users\CYMR90~1\AppData\Local\Temp\ccZoYVSv.s:29955  .debug_str:000000000001d770 .LASF5283
C:\Users\CYMR90~1\AppData\Local\Temp\ccZoYVSv.s:33961  .debug_str:000000000002d277 .LASF5284
C:\Users\CYMR90~1\AppData\Local\Temp\ccZoYVSv.s:28132  .debug_str:0000000000015f5f .LASF5285
C:\Users\CYMR90~1\AppData\Local\Temp\ccZoYVSv.s:25200  .debug_str:000000000000a3a5 .LASF5286
C:\Users\CYMR90~1\AppData\Local\Temp\ccZoYVSv.s:26018  .debug_str:000000000000d9cf .LASF5287
C:\Users\CYMR90~1\AppData\Local\Temp\ccZoYVSv.s:30731  .debug_str:000000000002072b .LASF5288
C:\Users\CYMR90~1\AppData\Local\Temp\ccZoYVSv.s:32151  .debug_str:0000000000026126 .LASF5289
C:\Users\CYMR90~1\AppData\Local\Temp\ccZoYVSv.s:22732  .debug_str:0000000000000632 .LASF5290
C:\Users\CYMR90~1\AppData\Local\Temp\ccZoYVSv.s:29341  .debug_str:000000000001afec .LASF5291
C:\Users\CYMR90~1\AppData\Local\Temp\ccZoYVSv.s:29399  .debug_str:000000000001b3c2 .LASF5292
C:\Users\CYMR90~1\AppData\Local\Temp\ccZoYVSv.s:26628  .debug_str:000000000000ff64 .LASF5293
C:\Users\CYMR90~1\AppData\Local\Temp\ccZoYVSv.s:28867  .debug_str:0000000000018f71 .LASF5294
C:\Users\CYMR90~1\AppData\Local\Temp\ccZoYVSv.s:25790  .debug_str:000000000000caca .LASF5295
C:\Users\CYMR90~1\AppData\Local\Temp\ccZoYVSv.s:25922  .debug_str:000000000000d30a .LASF5296
C:\Users\CYMR90~1\AppData\Local\Temp\ccZoYVSv.s:26998  .debug_str:0000000000011635 .LASF5297
C:\Users\CYMR90~1\AppData\Local\Temp\ccZoYVSv.s:30089  .debug_str:000000000001dfc4 .LASF5298
C:\Users\CYMR90~1\AppData\Local\Temp\ccZoYVSv.s:24950  .debug_str:000000000000942b .LASF5299
C:\Users\CYMR90~1\AppData\Local\Temp\ccZoYVSv.s:25014  .debug_str:0000000000009829 .LASF5300
C:\Users\CYMR90~1\AppData\Local\Temp\ccZoYVSv.s:29959  .debug_str:000000000001d79f .LASF5301
C:\Users\CYMR90~1\AppData\Local\Temp\ccZoYVSv.s:28531  .debug_str:0000000000017a92 .LASF5302
C:\Users\CYMR90~1\AppData\Local\Temp\ccZoYVSv.s:23868  .debug_str:0000000000004ebe .LASF5303
C:\Users\CYMR90~1\AppData\Local\Temp\ccZoYVSv.s:22640  .debug_str:00000000000000a6 .LASF5304
C:\Users\CYMR90~1\AppData\Local\Temp\ccZoYVSv.s:30697  .debug_str:000000000002054e .LASF5305
C:\Users\CYMR90~1\AppData\Local\Temp\ccZoYVSv.s:30147  .debug_str:000000000001e409 .LASF5306
C:\Users\CYMR90~1\AppData\Local\Temp\ccZoYVSv.s:30119  .debug_str:000000000001e210 .LASF5307
C:\Users\CYMR90~1\AppData\Local\Temp\ccZoYVSv.s:24122  .debug_str:0000000000005e68 .LASF5308
C:\Users\CYMR90~1\AppData\Local\Temp\ccZoYVSv.s:23270  .debug_str:000000000000271c .LASF5309
C:\Users\CYMR90~1\AppData\Local\Temp\ccZoYVSv.s:30945  .debug_str:000000000002142c .LASF5310
C:\Users\CYMR90~1\AppData\Local\Temp\ccZoYVSv.s:29183  .debug_str:000000000001a49e .LASF5311
C:\Users\CYMR90~1\AppData\Local\Temp\ccZoYVSv.s:22734  .debug_str:000000000000064c .LASF5312
C:\Users\CYMR90~1\AppData\Local\Temp\ccZoYVSv.s:27228  .debug_str:00000000000125c9 .LASF5313
C:\Users\CYMR90~1\AppData\Local\Temp\ccZoYVSv.s:30179  .debug_str:000000000001e5fb .LASF5314
C:\Users\CYMR90~1\AppData\Local\Temp\ccZoYVSv.s:27198  .debug_str:0000000000012418 .LASF5315
C:\Users\CYMR90~1\AppData\Local\Temp\ccZoYVSv.s:24242  .debug_str:00000000000065a8 .LASF5316
C:\Users\CYMR90~1\AppData\Local\Temp\ccZoYVSv.s:30429  .debug_str:000000000001f4b8 .LASF5317
C:\Users\CYMR90~1\AppData\Local\Temp\ccZoYVSv.s:28545  .debug_str:0000000000017b97 .LASF5318
C:\Users\CYMR90~1\AppData\Local\Temp\ccZoYVSv.s:23002  .debug_str:00000000000016e0 .LASF5319
C:\Users\CYMR90~1\AppData\Local\Temp\ccZoYVSv.s:30649  .debug_str:000000000002021a .LASF5320
C:\Users\CYMR90~1\AppData\Local\Temp\ccZoYVSv.s:23346  .debug_str:0000000000002c6a .LASF5321
C:\Users\CYMR90~1\AppData\Local\Temp\ccZoYVSv.s:31611  .debug_str:0000000000023c14 .LASF5322
C:\Users\CYMR90~1\AppData\Local\Temp\ccZoYVSv.s:22956  .debug_str:000000000000143f .LASF5323
C:\Users\CYMR90~1\AppData\Local\Temp\ccZoYVSv.s:32483  .debug_str:0000000000027564 .LASF5324
C:\Users\CYMR90~1\AppData\Local\Temp\ccZoYVSv.s:28192  .debug_str:0000000000016381 .LASF5325
C:\Users\CYMR90~1\AppData\Local\Temp\ccZoYVSv.s:23572  .debug_str:0000000000003ad5 .LASF5326
C:\Users\CYMR90~1\AppData\Local\Temp\ccZoYVSv.s:25458  .debug_str:000000000000b4e8 .LASF5327
C:\Users\CYMR90~1\AppData\Local\Temp\ccZoYVSv.s:31763  .debug_str:000000000002453d .LASF5328
C:\Users\CYMR90~1\AppData\Local\Temp\ccZoYVSv.s:24148  .debug_str:0000000000005fd3 .LASF5329
C:\Users\CYMR90~1\AppData\Local\Temp\ccZoYVSv.s:27004  .debug_str:0000000000011694 .LASF5330
C:\Users\CYMR90~1\AppData\Local\Temp\ccZoYVSv.s:33697  .debug_str:000000000002c0e1 .LASF5331
C:\Users\CYMR90~1\AppData\Local\Temp\ccZoYVSv.s:33593  .debug_str:000000000002b9f8 .LASF5332
C:\Users\CYMR90~1\AppData\Local\Temp\ccZoYVSv.s:30727  .debug_str:00000000000206fe .LASF5333
C:\Users\CYMR90~1\AppData\Local\Temp\ccZoYVSv.s:29023  .debug_str:0000000000019a31 .LASF5334
C:\Users\CYMR90~1\AppData\Local\Temp\ccZoYVSv.s:22878  .debug_str:0000000000000ff3 .LASF5335
C:\Users\CYMR90~1\AppData\Local\Temp\ccZoYVSv.s:30559  .debug_str:000000000001fc9d .LASF5336
C:\Users\CYMR90~1\AppData\Local\Temp\ccZoYVSv.s:24098  .debug_str:0000000000005ce7 .LASF5337
C:\Users\CYMR90~1\AppData\Local\Temp\ccZoYVSv.s:33563  .debug_str:000000000002b7dc .LASF5338
C:\Users\CYMR90~1\AppData\Local\Temp\ccZoYVSv.s:28258  .debug_str:0000000000016763 .LASF5339
C:\Users\CYMR90~1\AppData\Local\Temp\ccZoYVSv.s:28048  .debug_str:0000000000015a33 .LASF5340
C:\Users\CYMR90~1\AppData\Local\Temp\ccZoYVSv.s:29093  .debug_str:0000000000019f55 .LASF5341
C:\Users\CYMR90~1\AppData\Local\Temp\ccZoYVSv.s:32381  .debug_str:0000000000026f4f .LASF5342
C:\Users\CYMR90~1\AppData\Local\Temp\ccZoYVSv.s:31931  .debug_str:0000000000025100 .LASF5343
C:\Users\CYMR90~1\AppData\Local\Temp\ccZoYVSv.s:33541  .debug_str:000000000002b6b7 .LASF5344
C:\Users\CYMR90~1\AppData\Local\Temp\ccZoYVSv.s:23618  .debug_str:0000000000003db4 .LASF5345
C:\Users\CYMR90~1\AppData\Local\Temp\ccZoYVSv.s:30353  .debug_str:000000000001f052 .LASF5346
C:\Users\CYMR90~1\AppData\Local\Temp\ccZoYVSv.s:29613  .debug_str:000000000001c0e7 .LASF5347
C:\Users\CYMR90~1\AppData\Local\Temp\ccZoYVSv.s:27424  .debug_str:00000000000132a5 .LASF5348
C:\Users\CYMR90~1\AppData\Local\Temp\ccZoYVSv.s:33297  .debug_str:000000000002a8c2 .LASF5349
C:\Users\CYMR90~1\AppData\Local\Temp\ccZoYVSv.s:31159  .debug_str:0000000000022188 .LASF5350
C:\Users\CYMR90~1\AppData\Local\Temp\ccZoYVSv.s:25038  .debug_str:000000000000997a .LASF5351
C:\Users\CYMR90~1\AppData\Local\Temp\ccZoYVSv.s:33945  .debug_str:000000000002d15a .LASF5352
C:\Users\CYMR90~1\AppData\Local\Temp\ccZoYVSv.s:30467  .debug_str:000000000001f71c .LASF5353
C:\Users\CYMR90~1\AppData\Local\Temp\ccZoYVSv.s:31561  .debug_str:000000000002390f .LASF5354
C:\Users\CYMR90~1\AppData\Local\Temp\ccZoYVSv.s:31111  .debug_str:0000000000021eb9 .LASF5355
C:\Users\CYMR90~1\AppData\Local\Temp\ccZoYVSv.s:33911  .debug_str:000000000002ceef .LASF5356
C:\Users\CYMR90~1\AppData\Local\Temp\ccZoYVSv.s:30327  .debug_str:000000000001eed4 .LASF5357
C:\Users\CYMR90~1\AppData\Local\Temp\ccZoYVSv.s:33255  .debug_str:000000000002a63c .LASF5358
C:\Users\CYMR90~1\AppData\Local\Temp\ccZoYVSv.s:28126  .debug_str:0000000000015f19 .LASF5359
C:\Users\CYMR90~1\AppData\Local\Temp\ccZoYVSv.s:30257  .debug_str:000000000001ea86 .LASF5360
C:\Users\CYMR90~1\AppData\Local\Temp\ccZoYVSv.s:26524  .debug_str:000000000000f8d2 .LASF5361
C:\Users\CYMR90~1\AppData\Local\Temp\ccZoYVSv.s:26512  .debug_str:000000000000f825 .LASF5362
C:\Users\CYMR90~1\AppData\Local\Temp\ccZoYVSv.s:30631  .debug_str:000000000002010c .LASF5363
C:\Users\CYMR90~1\AppData\Local\Temp\ccZoYVSv.s:32373  .debug_str:0000000000026ed5 .LASF5364
C:\Users\CYMR90~1\AppData\Local\Temp\ccZoYVSv.s:26600  .debug_str:000000000000fdd0 .LASF5365
C:\Users\CYMR90~1\AppData\Local\Temp\ccZoYVSv.s:29037  .debug_str:0000000000019b1a .LASF5366
C:\Users\CYMR90~1\AppData\Local\Temp\ccZoYVSv.s:22826  .debug_str:0000000000000c45 .LASF5367
C:\Users\CYMR90~1\AppData\Local\Temp\ccZoYVSv.s:28344  .debug_str:0000000000016d29 .LASF5368
C:\Users\CYMR90~1\AppData\Local\Temp\ccZoYVSv.s:23152  .debug_str:000000000000205b .LASF5369
C:\Users\CYMR90~1\AppData\Local\Temp\ccZoYVSv.s:23476  .debug_str:000000000000348c .LASF5370
C:\Users\CYMR90~1\AppData\Local\Temp\ccZoYVSv.s:26262  .debug_str:000000000000e8d5 .LASF5371
C:\Users\CYMR90~1\AppData\Local\Temp\ccZoYVSv.s:27000  .debug_str:0000000000011657 .LASF5372
C:\Users\CYMR90~1\AppData\Local\Temp\ccZoYVSv.s:25384  .debug_str:000000000000afad .LASF5373
C:\Users\CYMR90~1\AppData\Local\Temp\ccZoYVSv.s:23666  .debug_str:00000000000040df .LASF5374
C:\Users\CYMR90~1\AppData\Local\Temp\ccZoYVSv.s:33651  .debug_str:000000000002bd99 .LASF5375
C:\Users\CYMR90~1\AppData\Local\Temp\ccZoYVSv.s:25208  .debug_str:000000000000a431 .LASF5376
C:\Users\CYMR90~1\AppData\Local\Temp\ccZoYVSv.s:30883  .debug_str:000000000002102c .LASF5377
C:\Users\CYMR90~1\AppData\Local\Temp\ccZoYVSv.s:30315  .debug_str:000000000001ee36 .LASF5378
C:\Users\CYMR90~1\AppData\Local\Temp\ccZoYVSv.s:33689  .debug_str:000000000002c04d .LASF5379
C:\Users\CYMR90~1\AppData\Local\Temp\ccZoYVSv.s:22938  .debug_str:000000000000134b .LASF5380
C:\Users\CYMR90~1\AppData\Local\Temp\ccZoYVSv.s:28419  .debug_str:00000000000173f0 .LASF5381
C:\Users\CYMR90~1\AppData\Local\Temp\ccZoYVSv.s:31227  .debug_str:00000000000225a6 .LASF5382
C:\Users\CYMR90~1\AppData\Local\Temp\ccZoYVSv.s:30121  .debug_str:000000000001e232 .LASF5383
C:\Users\CYMR90~1\AppData\Local\Temp\ccZoYVSv.s:24396  .debug_str:0000000000006f44 .LASF5384
C:\Users\CYMR90~1\AppData\Local\Temp\ccZoYVSv.s:31567  .debug_str:0000000000023986 .LASF5385
C:\Users\CYMR90~1\AppData\Local\Temp\ccZoYVSv.s:29379  .debug_str:000000000001b233 .LASF5386
C:\Users\CYMR90~1\AppData\Local\Temp\ccZoYVSv.s:26136  .debug_str:000000000000e140 .LASF5387
C:\Users\CYMR90~1\AppData\Local\Temp\ccZoYVSv.s:27696  .debug_str:0000000000014456 .LASF5388
C:\Users\CYMR90~1\AppData\Local\Temp\ccZoYVSv.s:32863  .debug_str:0000000000028eff .LASF5389
C:\Users\CYMR90~1\AppData\Local\Temp\ccZoYVSv.s:33805  .debug_str:000000000002c80b .LASF5390
C:\Users\CYMR90~1\AppData\Local\Temp\ccZoYVSv.s:29933  .debug_str:000000000001d617 .LASF5391
C:\Users\CYMR90~1\AppData\Local\Temp\ccZoYVSv.s:33487  .debug_str:000000000002b377 .LASF5392
C:\Users\CYMR90~1\AppData\Local\Temp\ccZoYVSv.s:27962  .debug_str:0000000000015544 .LASF5393
C:\Users\CYMR90~1\AppData\Local\Temp\ccZoYVSv.s:22836  .debug_str:0000000000000cc4 .LASF5394
C:\Users\CYMR90~1\AppData\Local\Temp\ccZoYVSv.s:28142  .debug_str:0000000000016016 .LASF5395
C:\Users\CYMR90~1\AppData\Local\Temp\ccZoYVSv.s:31393  .debug_str:0000000000022f32 .LASF5396
C:\Users\CYMR90~1\AppData\Local\Temp\ccZoYVSv.s:26782  .debug_str:00000000000108d7 .LASF5397
C:\Users\CYMR90~1\AppData\Local\Temp\ccZoYVSv.s:28118  .debug_str:0000000000015e4c .LASF5398
C:\Users\CYMR90~1\AppData\Local\Temp\ccZoYVSv.s:31477  .debug_str:0000000000023481 .LASF5399
C:\Users\CYMR90~1\AppData\Local\Temp\ccZoYVSv.s:30829  .debug_str:0000000000020d34 .LASF5400
C:\Users\CYMR90~1\AppData\Local\Temp\ccZoYVSv.s:33897  .debug_str:000000000002cdf9 .LASF5401
C:\Users\CYMR90~1\AppData\Local\Temp\ccZoYVSv.s:31787  .debug_str:000000000002469d .LASF5402
C:\Users\CYMR90~1\AppData\Local\Temp\ccZoYVSv.s:31161  .debug_str:00000000000221af .LASF5403
C:\Users\CYMR90~1\AppData\Local\Temp\ccZoYVSv.s:30919  .debug_str:00000000000212a2 .LASF5404
C:\Users\CYMR90~1\AppData\Local\Temp\ccZoYVSv.s:27008  .debug_str:00000000000116bf .LASF5405
C:\Users\CYMR90~1\AppData\Local\Temp\ccZoYVSv.s:28945  .debug_str:00000000000195b4 .LASF5406
C:\Users\CYMR90~1\AppData\Local\Temp\ccZoYVSv.s:31789  .debug_str:00000000000246c9 .LASF5407
C:\Users\CYMR90~1\AppData\Local\Temp\ccZoYVSv.s:22980  .debug_str:00000000000015bb .LASF5408
C:\Users\CYMR90~1\AppData\Local\Temp\ccZoYVSv.s:30537  .debug_str:000000000001fb4a .LASF5409
C:\Users\CYMR90~1\AppData\Local\Temp\ccZoYVSv.s:31059  .debug_str:0000000000021b80 .LASF5410
C:\Users\CYMR90~1\AppData\Local\Temp\ccZoYVSv.s:23170  .debug_str:0000000000002158 .LASF5411
C:\Users\CYMR90~1\AppData\Local\Temp\ccZoYVSv.s:30383  .debug_str:000000000001f1e4 .LASF5412
C:\Users\CYMR90~1\AppData\Local\Temp\ccZoYVSv.s:27422  .debug_str:000000000001328d .LASF5413
C:\Users\CYMR90~1\AppData\Local\Temp\ccZoYVSv.s:24458  .debug_str:0000000000007354 .LASF5414
C:\Users\CYMR90~1\AppData\Local\Temp\ccZoYVSv.s:28813  .debug_str:0000000000018bff .LASF5415
C:\Users\CYMR90~1\AppData\Local\Temp\ccZoYVSv.s:29677  .debug_str:000000000001c4bf .LASF5416
C:\Users\CYMR90~1\AppData\Local\Temp\ccZoYVSv.s:32865  .debug_str:0000000000028f38 .LASF5417
C:\Users\CYMR90~1\AppData\Local\Temp\ccZoYVSv.s:23800  .debug_str:0000000000004abc .LASF5418
C:\Users\CYMR90~1\AppData\Local\Temp\ccZoYVSv.s:30277  .debug_str:000000000001eb8e .LASF5419
C:\Users\CYMR90~1\AppData\Local\Temp\ccZoYVSv.s:33639  .debug_str:000000000002bcfc .LASF5420
C:\Users\CYMR90~1\AppData\Local\Temp\ccZoYVSv.s:28457  .debug_str:0000000000017627 .LASF5421
C:\Users\CYMR90~1\AppData\Local\Temp\ccZoYVSv.s:32613  .debug_str:0000000000027e22 .LASF5422
C:\Users\CYMR90~1\AppData\Local\Temp\ccZoYVSv.s:26624  .debug_str:000000000000ff26 .LASF5423
C:\Users\CYMR90~1\AppData\Local\Temp\ccZoYVSv.s:32809  .debug_str:0000000000028b6e .LASF5424
C:\Users\CYMR90~1\AppData\Local\Temp\ccZoYVSv.s:23900  .debug_str:00000000000050b7 .LASF5425
C:\Users\CYMR90~1\AppData\Local\Temp\ccZoYVSv.s:31875  .debug_str:0000000000024d0b .LASF5426
C:\Users\CYMR90~1\AppData\Local\Temp\ccZoYVSv.s:29857  .debug_str:000000000001d01d .LASF5427
C:\Users\CYMR90~1\AppData\Local\Temp\ccZoYVSv.s:25286  .debug_str:000000000000a88f .LASF5428
C:\Users\CYMR90~1\AppData\Local\Temp\ccZoYVSv.s:29137  .debug_str:000000000001a217 .LASF5429
C:\Users\CYMR90~1\AppData\Local\Temp\ccZoYVSv.s:24518  .debug_str:0000000000007745 .LASF5430
C:\Users\CYMR90~1\AppData\Local\Temp\ccZoYVSv.s:23826  .debug_str:0000000000004c26 .LASF5431
C:\Users\CYMR90~1\AppData\Local\Temp\ccZoYVSv.s:31385  .debug_str:0000000000022eb0 .LASF5432
C:\Users\CYMR90~1\AppData\Local\Temp\ccZoYVSv.s:33381  .debug_str:000000000002ad8f .LASF5433
C:\Users\CYMR90~1\AppData\Local\Temp\ccZoYVSv.s:33719  .debug_str:000000000002c24b .LASF5434
C:\Users\CYMR90~1\AppData\Local\Temp\ccZoYVSv.s:26846  .debug_str:0000000000010cf5 .LASF5435
C:\Users\CYMR90~1\AppData\Local\Temp\ccZoYVSv.s:22672  .debug_str:0000000000000283 .LASF5436
C:\Users\CYMR90~1\AppData\Local\Temp\ccZoYVSv.s:33901  .debug_str:000000000002ce55 .LASF5437
C:\Users\CYMR90~1\AppData\Local\Temp\ccZoYVSv.s:29729  .debug_str:000000000001c7f5 .LASF5438
C:\Users\CYMR90~1\AppData\Local\Temp\ccZoYVSv.s:29533  .debug_str:000000000001bc4f .LASF5439
C:\Users\CYMR90~1\AppData\Local\Temp\ccZoYVSv.s:32035  .debug_str:00000000000257a8 .LASF5440
C:\Users\CYMR90~1\AppData\Local\Temp\ccZoYVSv.s:27414  .debug_str:000000000001320d .LASF5441
C:\Users\CYMR90~1\AppData\Local\Temp\ccZoYVSv.s:29139  .debug_str:000000000001a22e .LASF5442
C:\Users\CYMR90~1\AppData\Local\Temp\ccZoYVSv.s:22920  .debug_str:000000000000126d .LASF5443
C:\Users\CYMR90~1\AppData\Local\Temp\ccZoYVSv.s:24366  .debug_str:0000000000006d5e .LASF5444
C:\Users\CYMR90~1\AppData\Local\Temp\ccZoYVSv.s:29733  .debug_str:000000000001c829 .LASF5445
C:\Users\CYMR90~1\AppData\Local\Temp\ccZoYVSv.s:33159  .debug_str:000000000002a089 .LASF5446
C:\Users\CYMR90~1\AppData\Local\Temp\ccZoYVSv.s:25906  .debug_str:000000000000d223 .LASF5447
C:\Users\CYMR90~1\AppData\Local\Temp\ccZoYVSv.s:25138  .debug_str:0000000000009fb3 .LASF5448
C:\Users\CYMR90~1\AppData\Local\Temp\ccZoYVSv.s:24596  .debug_str:0000000000007c0f .LASF5449
C:\Users\CYMR90~1\AppData\Local\Temp\ccZoYVSv.s:24702  .debug_str:000000000000848c .LASF5450
C:\Users\CYMR90~1\AppData\Local\Temp\ccZoYVSv.s:30345  .debug_str:000000000001efda .LASF5451
C:\Users\CYMR90~1\AppData\Local\Temp\ccZoYVSv.s:31791  .debug_str:00000000000246e0 .LASF5452
C:\Users\CYMR90~1\AppData\Local\Temp\ccZoYVSv.s:29065  .debug_str:0000000000019d86 .LASF5453
C:\Users\CYMR90~1\AppData\Local\Temp\ccZoYVSv.s:30953  .debug_str:00000000000214a2 .LASF5454
C:\Users\CYMR90~1\AppData\Local\Temp\ccZoYVSv.s:30499  .debug_str:000000000001f92a .LASF5455
C:\Users\CYMR90~1\AppData\Local\Temp\ccZoYVSv.s:29819  .debug_str:000000000001ce01 .LASF5456
C:\Users\CYMR90~1\AppData\Local\Temp\ccZoYVSv.s:28445  .debug_str:0000000000017561 .LASF5457
C:\Users\CYMR90~1\AppData\Local\Temp\ccZoYVSv.s:32429  .debug_str:0000000000027266 .LASF5458
C:\Users\CYMR90~1\AppData\Local\Temp\ccZoYVSv.s:29847  .debug_str:000000000001cf8e .LASF5459
C:\Users\CYMR90~1\AppData\Local\Temp\ccZoYVSv.s:23090  .debug_str:0000000000001cb9 .LASF5460
C:\Users\CYMR90~1\AppData\Local\Temp\ccZoYVSv.s:31583  .debug_str:0000000000023a7f .LASF5461
C:\Users\CYMR90~1\AppData\Local\Temp\ccZoYVSv.s:26898  .debug_str:0000000000011086 .LASF5462
C:\Users\CYMR90~1\AppData\Local\Temp\ccZoYVSv.s:32519  .debug_str:00000000000277df .LASF5463
C:\Users\CYMR90~1\AppData\Local\Temp\ccZoYVSv.s:31667  .debug_str:0000000000023fdf .LASF5464
C:\Users\CYMR90~1\AppData\Local\Temp\ccZoYVSv.s:28431  .debug_str:00000000000174a2 .LASF5465
C:\Users\CYMR90~1\AppData\Local\Temp\ccZoYVSv.s:33081  .debug_str:0000000000029bce .LASF5466
C:\Users\CYMR90~1\AppData\Local\Temp\ccZoYVSv.s:24582  .debug_str:0000000000007b3e .LASF5467
C:\Users\CYMR90~1\AppData\Local\Temp\ccZoYVSv.s:26858  .debug_str:0000000000010dd4 .LASF5468
C:\Users\CYMR90~1\AppData\Local\Temp\ccZoYVSv.s:26984  .debug_str:000000000001157e .LASF5469
C:\Users\CYMR90~1\AppData\Local\Temp\ccZoYVSv.s:26386  .debug_str:000000000000f0a3 .LASF5470
C:\Users\CYMR90~1\AppData\Local\Temp\ccZoYVSv.s:26520  .debug_str:000000000000f89e .LASF5471
C:\Users\CYMR90~1\AppData\Local\Temp\ccZoYVSv.s:32987  .debug_str:0000000000029636 .LASF5472
C:\Users\CYMR90~1\AppData\Local\Temp\ccZoYVSv.s:32097  .debug_str:0000000000025ca5 .LASF5473
C:\Users\CYMR90~1\AppData\Local\Temp\ccZoYVSv.s:28286  .debug_str:0000000000016971 .LASF5474
C:\Users\CYMR90~1\AppData\Local\Temp\ccZoYVSv.s:31783  .debug_str:000000000002466e .LASF5475
C:\Users\CYMR90~1\AppData\Local\Temp\ccZoYVSv.s:23204  .debug_str:0000000000002327 .LASF5476
C:\Users\CYMR90~1\AppData\Local\Temp\ccZoYVSv.s:24450  .debug_str:00000000000072ac .LASF5477
C:\Users\CYMR90~1\AppData\Local\Temp\ccZoYVSv.s:32945  .debug_str:00000000000293de .LASF5478
C:\Users\CYMR90~1\AppData\Local\Temp\ccZoYVSv.s:25192  .debug_str:000000000000a32d .LASF5479
C:\Users\CYMR90~1\AppData\Local\Temp\ccZoYVSv.s:27672  .debug_str:00000000000142ba .LASF5480
C:\Users\CYMR90~1\AppData\Local\Temp\ccZoYVSv.s:26344  .debug_str:000000000000ee20 .LASF5481
C:\Users\CYMR90~1\AppData\Local\Temp\ccZoYVSv.s:23072  .debug_str:0000000000001b9c .LASF5482
C:\Users\CYMR90~1\AppData\Local\Temp\ccZoYVSv.s:30915  .debug_str:0000000000021271 .LASF5483
C:\Users\CYMR90~1\AppData\Local\Temp\ccZoYVSv.s:28785  .debug_str:0000000000018a29 .LASF5484
C:\Users\CYMR90~1\AppData\Local\Temp\ccZoYVSv.s:23778  .debug_str:000000000000486f .LASF5485
C:\Users\CYMR90~1\AppData\Local\Temp\ccZoYVSv.s:32971  .debug_str:000000000002952a .LASF5486
C:\Users\CYMR90~1\AppData\Local\Temp\ccZoYVSv.s:31439  .debug_str:00000000000231e4 .LASF5487
C:\Users\CYMR90~1\AppData\Local\Temp\ccZoYVSv.s:30983  .debug_str:000000000002164d .LASF5488
C:\Users\CYMR90~1\AppData\Local\Temp\ccZoYVSv.s:23140  .debug_str:0000000000001f96 .LASF5489
C:\Users\CYMR90~1\AppData\Local\Temp\ccZoYVSv.s:32039  .debug_str:00000000000257e9 .LASF5490
C:\Users\CYMR90~1\AppData\Local\Temp\ccZoYVSv.s:24498  .debug_str:0000000000007616 .LASF5491
C:\Users\CYMR90~1\AppData\Local\Temp\ccZoYVSv.s:32293  .debug_str:0000000000026a06 .LASF5492
C:\Users\CYMR90~1\AppData\Local\Temp\ccZoYVSv.s:23348  .debug_str:0000000000002c89 .LASF5493
C:\Users\CYMR90~1\AppData\Local\Temp\ccZoYVSv.s:28056  .debug_str:0000000000015a98 .LASF5494
C:\Users\CYMR90~1\AppData\Local\Temp\ccZoYVSv.s:27964  .debug_str:000000000001556f .LASF5495
C:\Users\CYMR90~1\AppData\Local\Temp\ccZoYVSv.s:28877  .debug_str:00000000000190c4 .LASF5496
C:\Users\CYMR90~1\AppData\Local\Temp\ccZoYVSv.s:25020  .debug_str:000000000000987c .LASF5497
C:\Users\CYMR90~1\AppData\Local\Temp\ccZoYVSv.s:30343  .debug_str:000000000001efbd .LASF5498
C:\Users\CYMR90~1\AppData\Local\Temp\ccZoYVSv.s:33983  .debug_str:000000000002d38c .LASF5499
C:\Users\CYMR90~1\AppData\Local\Temp\ccZoYVSv.s:26574  .debug_str:000000000000fc62 .LASF5500
C:\Users\CYMR90~1\AppData\Local\Temp\ccZoYVSv.s:27448  .debug_str:0000000000013443 .LASF5501
C:\Users\CYMR90~1\AppData\Local\Temp\ccZoYVSv.s:26428  .debug_str:000000000000f2f8 .LASF5502
C:\Users\CYMR90~1\AppData\Local\Temp\ccZoYVSv.s:30787  .debug_str:0000000000020a57 .LASF5503
C:\Users\CYMR90~1\AppData\Local\Temp\ccZoYVSv.s:28032  .debug_str:0000000000015942 .LASF5504
C:\Users\CYMR90~1\AppData\Local\Temp\ccZoYVSv.s:27050  .debug_str:0000000000011970 .LASF5505
C:\Users\CYMR90~1\AppData\Local\Temp\ccZoYVSv.s:31939  .debug_str:0000000000025161 .LASF5506
C:\Users\CYMR90~1\AppData\Local\Temp\ccZoYVSv.s:28693  .debug_str:000000000001848b .LASF5507
C:\Users\CYMR90~1\AppData\Local\Temp\ccZoYVSv.s:33597  .debug_str:000000000002ba38 .LASF5508
C:\Users\CYMR90~1\AppData\Local\Temp\ccZoYVSv.s:30279  .debug_str:000000000001eba4 .LASF5509
C:\Users\CYMR90~1\AppData\Local\Temp\ccZoYVSv.s:23750  .debug_str:0000000000004669 .LASF5510
C:\Users\CYMR90~1\AppData\Local\Temp\ccZoYVSv.s:24906  .debug_str:00000000000091c2 .LASF5511
C:\Users\CYMR90~1\AppData\Local\Temp\ccZoYVSv.s:30659  .debug_str:00000000000202aa .LASF5512
C:\Users\CYMR90~1\AppData\Local\Temp\ccZoYVSv.s:23870  .debug_str:0000000000004ef4 .LASF5513
C:\Users\CYMR90~1\AppData\Local\Temp\ccZoYVSv.s:33529  .debug_str:000000000002b61d .LASF5514
C:\Users\CYMR90~1\AppData\Local\Temp\ccZoYVSv.s:25348  .debug_str:000000000000ad49 .LASF5515
C:\Users\CYMR90~1\AppData\Local\Temp\ccZoYVSv.s:30071  .debug_str:000000000001deba .LASF5516
C:\Users\CYMR90~1\AppData\Local\Temp\ccZoYVSv.s:29221  .debug_str:000000000001a6c5 .LASF5517
C:\Users\CYMR90~1\AppData\Local\Temp\ccZoYVSv.s:30881  .debug_str:0000000000021003 .LASF5518
C:\Users\CYMR90~1\AppData\Local\Temp\ccZoYVSv.s:27274  .debug_str:00000000000128cc .LASF5519
C:\Users\CYMR90~1\AppData\Local\Temp\ccZoYVSv.s:26304  .debug_str:000000000000eba2 .LASF5520
C:\Users\CYMR90~1\AppData\Local\Temp\ccZoYVSv.s:26448  .debug_str:000000000000f407 .LASF5521
C:\Users\CYMR90~1\AppData\Local\Temp\ccZoYVSv.s:29809  .debug_str:000000000001cd45 .LASF5522
C:\Users\CYMR90~1\AppData\Local\Temp\ccZoYVSv.s:30907  .debug_str:00000000000211cb .LASF5523
C:\Users\CYMR90~1\AppData\Local\Temp\ccZoYVSv.s:22650  .debug_str:0000000000000131 .LASF5524
C:\Users\CYMR90~1\AppData\Local\Temp\ccZoYVSv.s:25616  .debug_str:000000000000bf61 .LASF5525
C:\Users\CYMR90~1\AppData\Local\Temp\ccZoYVSv.s:24506  .debug_str:0000000000007695 .LASF5526
C:\Users\CYMR90~1\AppData\Local\Temp\ccZoYVSv.s:30183  .debug_str:000000000001e62d .LASF5527
C:\Users\CYMR90~1\AppData\Local\Temp\ccZoYVSv.s:33271  .debug_str:000000000002a715 .LASF5528
C:\Users\CYMR90~1\AppData\Local\Temp\ccZoYVSv.s:22766  .debug_str:0000000000000857 .LASF5529
C:\Users\CYMR90~1\AppData\Local\Temp\ccZoYVSv.s:24070  .debug_str:0000000000005b2b .LASF5530
C:\Users\CYMR90~1\AppData\Local\Temp\ccZoYVSv.s:23842  .debug_str:0000000000004d26 .LASF5531
C:\Users\CYMR90~1\AppData\Local\Temp\ccZoYVSv.s:27614  .debug_str:0000000000013f34 .LASF5532
C:\Users\CYMR90~1\AppData\Local\Temp\ccZoYVSv.s:25086  .debug_str:0000000000009c98 .LASF5533
C:\Users\CYMR90~1\AppData\Local\Temp\ccZoYVSv.s:27694  .debug_str:0000000000014429 .LASF5534
C:\Users\CYMR90~1\AppData\Local\Temp\ccZoYVSv.s:33923  .debug_str:000000000002cfe3 .LASF5535
C:\Users\CYMR90~1\AppData\Local\Temp\ccZoYVSv.s:31335  .debug_str:0000000000022b80 .LASF5536
C:\Users\CYMR90~1\AppData\Local\Temp\ccZoYVSv.s:23812  .debug_str:0000000000004b4d .LASF5537
C:\Users\CYMR90~1\AppData\Local\Temp\ccZoYVSv.s:32009  .debug_str:00000000000255ec .LASF5538
C:\Users\CYMR90~1\AppData\Local\Temp\ccZoYVSv.s:33671  .debug_str:000000000002bee8 .LASF5539
C:\Users\CYMR90~1\AppData\Local\Temp\ccZoYVSv.s:23890  .debug_str:000000000000502a .LASF5540
C:\Users\CYMR90~1\AppData\Local\Temp\ccZoYVSv.s:32933  .debug_str:0000000000029331 .LASF5541
C:\Users\CYMR90~1\AppData\Local\Temp\ccZoYVSv.s:25102  .debug_str:0000000000009db6 .LASF5542
C:\Users\CYMR90~1\AppData\Local\Temp\ccZoYVSv.s:32237  .debug_str:0000000000026668 .LASF5543
C:\Users\CYMR90~1\AppData\Local\Temp\ccZoYVSv.s:27354  .debug_str:0000000000012e2f .LASF5544
C:\Users\CYMR90~1\AppData\Local\Temp\ccZoYVSv.s:24218  .debug_str:000000000000642b .LASF5545
C:\Users\CYMR90~1\AppData\Local\Temp\ccZoYVSv.s:28655  .debug_str:0000000000018268 .LASF5546
C:\Users\CYMR90~1\AppData\Local\Temp\ccZoYVSv.s:31373  .debug_str:0000000000022dff .LASF5547
C:\Users\CYMR90~1\AppData\Local\Temp\ccZoYVSv.s:31867  .debug_str:0000000000024c9a .LASF5548
C:\Users\CYMR90~1\AppData\Local\Temp\ccZoYVSv.s:29519  .debug_str:000000000001bb60 .LASF5549
C:\Users\CYMR90~1\AppData\Local\Temp\ccZoYVSv.s:26008  .debug_str:000000000000d961 .LASF5550
C:\Users\CYMR90~1\AppData\Local\Temp\ccZoYVSv.s:22910  .debug_str:00000000000011a8 .LASF5551
C:\Users\CYMR90~1\AppData\Local\Temp\ccZoYVSv.s:31933  .debug_str:000000000002511c .LASF5552
C:\Users\CYMR90~1\AppData\Local\Temp\ccZoYVSv.s:27092  .debug_str:0000000000011d36 .LASF5553
C:\Users\CYMR90~1\AppData\Local\Temp\ccZoYVSv.s:31531  .debug_str:0000000000023795 .LASF5554
C:\Users\CYMR90~1\AppData\Local\Temp\ccZoYVSv.s:30779  .debug_str:00000000000209ce .LASF5555
                           .group:0000000000000000 wm4.0.10abbef32179bc1260444192115bdf5e
                           .group:0000000000000000 wm4.stddef.h.39.144cf5ddcd53cbfdac30259dc1a6c87f
                           .group:0000000000000000 wm4._newlib_version.h.4.bfdf54b0af045d4a71376ae00f63a22c
                           .group:0000000000000000 wm4.newlib.h.18.08a2ecba46890ca2aa56bbe21686e6c3
                           .group:0000000000000000 wm4.ieeefp.h.202.4f2759f5758fd82153cfbf98692f2ced
                           .group:0000000000000000 wm4.features.h.22.fad1cec3bc7ff06488171438dbdcfd02
                           .group:0000000000000000 wm4.config.h.83.13bbc8852bfac55b724c9822481355b5
                           .group:0000000000000000 wm4._ansi.h.31.de524f58584151836e90d8620a16f8e8
                           .group:0000000000000000 wm4.stdio.h.31.7c0e28c411445f3f9c5b11accf882760
                           .group:0000000000000000 wm4._default_types.h.6.959254cf5f09734ea7516c89e8bb21bd
                           .group:0000000000000000 wm4.stddef.h.155.ba788add86a0e365f264484f110c3c29
                           .group:0000000000000000 wm4.cdefs.h.49.39045112216f6a021dbdffe3bf5accce
                           .group:0000000000000000 wm4.stdarg.h.34.3a23a216c0c293b3d2ea2e89281481e6
                           .group:0000000000000000 wm4._types.h.20.dd0d04dca3800a0d2a6129b87f3adbb2
                           .group:0000000000000000 wm4.stddef.h.155.3588ebfdd1e8c7ede80509bb9c3b8009
                           .group:0000000000000000 wm4._types.h.127.34941de1b2539d59d5cac00e0dd27a45
                           .group:0000000000000000 wm4.reent.h.17.e292bf8b0bec6c96e131a54347145a30
                           .group:0000000000000000 wm4.lock.h.2.c0958401bd0ce484d507ee19aacab817
                           .group:0000000000000000 wm4.reent.h.77.dcd6129ff07fe81bd5636db29abe53b2
                           .group:0000000000000000 wm4.types.h.40.8b6acba56cefbb11746718204edc8f5e
                           .group:0000000000000000 wm4._stdint.h.10.c24fa3af3bc1706662bb5593a907e841
                           .group:0000000000000000 wm4._endian.h.18.1bf9649e8e5bbc91042012680270b9ed
                           .group:0000000000000000 wm4.endian.h.9.49f3a4695c1b61e8a0808de3c4a106cb
                           .group:0000000000000000 wm4._timeval.h.32.bec3221fa7a9bb0bdde696c9c57e47d2
                           .group:0000000000000000 wm4.timespec.h.41.d855182eb0e690443ab8651bcedca6e1
                           .group:0000000000000000 wm4.select.h.19.40cd3f2bfc456b193b790c2754690ebf
                           .group:0000000000000000 wm4.types.h.51.5571ec98f267d17d3c670b7a3ba33afa
                           .group:0000000000000000 wm4.sched.h.22.c60982713a5c428609783c78f9c78d95
                           .group:0000000000000000 wm4._pthreadtypes.h.36.fcee9961c35163dde6267ef772ad1972
                           .group:0000000000000000 wm4.stdio.h.2.4aa87247282eca6c8f36f9de33d8df1a
                           .group:0000000000000000 wm4.stdio.h.81.932d0c162786b883f622b8d05c120c78
                           .group:0000000000000000 wm4.gd32vw55x.h.47.379378190858578060a317909b2c8d8a
                           .group:0000000000000000 wm4._intsup.h.10.48bafbb683905c4daa4565a85aeeb264
                           .group:0000000000000000 wm4.stdint.h.23.d53047a68f4a85177f80b422d52785ed
                           .group:0000000000000000 wm4.nmsis_version.h.19.ffa173da8efb17b1050904994d6f500e
                           .group:0000000000000000 wm4.riscv_bits.h.19.ee94eb3d39937793d4cd0a62363e5d00
                           .group:0000000000000000 wm4.riscv_encoding.h.35.f5d37fad7abbab8278b4bb6f1e32fa65
                           .group:0000000000000000 wm4.nmsis_gcc.h.61.5d70d7598ffc79c3c991d847a574cf23
                           .group:0000000000000000 wm4.core_feature_base.h.20.e99d3e75c26a8f3341d35bf20d0e1d20
                           .group:0000000000000000 wm4.core_feature_fpu.h.19.695f2200274659b530cb97cda749ff4f
                           .group:0000000000000000 wm4.core_feature_dsp.h.19.e8f8d7aa42f197807aefedb6584486cd
                           .group:0000000000000000 wm4.core_compatiable.h.19.5b8282d61b1f6889a82895616b730084
                           .group:0000000000000000 wm4.core_feature_eclic.h.19.e0c091d0cbda79e8b3b031b979ebd5a1
                           .group:0000000000000000 wm4.core_feature_timer.h.19.21a5151282de34c37dfa6d84e262aa54
                           .group:0000000000000000 wm4.system_gd32vw55x.h.32.f1fcb1212d387c35ac955b0e96ada468
                           .group:0000000000000000 wm4.gd32vw55x.h.231.3529c650aff38c9372f7e03177fd2c8a
                           .group:0000000000000000 wm4.gd32vw55x_adc.h.42.ae73acec1704ef509ccecb41a875b50e
                           .group:0000000000000000 wm4.gd32vw55x_cau.h.36.c98428fe1eae7edb4721da5c8078c974
                           .group:0000000000000000 wm4.gd32vw55x_crc.h.37.c58f296814c2300a4b067c08bd88d54e
                           .group:0000000000000000 wm4.gd32vw55x_dbg.h.36.311650c8545549d482ceca8befc5a232
                           .group:0000000000000000 wm4.gd32vw55x_dma.h.36.f4adc751172b2a7b1533dda72e948737
                           .group:0000000000000000 wm4.gd32vw55x_eclic.h.36.0411499f2b2493c67246e32ccae096c1
                           .group:0000000000000000 wm4.gd32vw55x_efuse.h.36.091404cecbab70359dfd93faec5fdb62
                           .group:0000000000000000 wm4.gd32vw55x_exti.h.36.de7508334dd12f1a6a673521a1a835f5
                           .group:0000000000000000 wm4.gd32vw55x_fmc.h.36.a4b0b94c47ffe23a2fa09260c5ed4850
                           .group:0000000000000000 wm4.gd32vw55x_fwdgt.h.36.4846b6900fd24b5bfce4986c9a8ce677
                           .group:0000000000000000 wm4.gd32vw55x_gpio.h.36.adfee1371bb58d3d9043c47bdb25a90f
                           .group:0000000000000000 wm4.gd32vw55x_hau.h.36.f3cbcbd7b67c9e5bdc7a1100b1bf3458
                           .group:0000000000000000 wm4.gd32vw55x_pkcau.h.36.bb2235f4cf4967063a51bfa9aca5ef27
                           .group:0000000000000000 wm4.gd32vw55x_pmu.h.36.4c76091f1415551526d489ccf2c42052
                           .group:0000000000000000 wm4.gd32vw55x_qspi.h.36.2d2c181cfe19b935a9641008fc786613
                           .group:0000000000000000 wm4.gd32vw55x_rcu.h.36.780a8a45c00d563711cceb445027ef47
                           .group:0000000000000000 wm4.gd32vw55x_rtc.h.36.3172855e8715659e080e0eab46fdf175
                           .group:0000000000000000 wm4.gd32vw55x_spi.h.36.9fa1be2b09fb73e4b5886e97f0e96d58
                           .group:0000000000000000 wm4.gd32vw55x_syscfg.h.36.010551f05591f5e34051d2e15df0352b
                           .group:0000000000000000 wm4.gd32vw55x_timer.h.38.2cbee78ea60d47145be361b2d2c55070
                           .group:0000000000000000 wm4.gd32vw55x_trng.h.36.c9e7807af1b1ab68d3bbb54f4ed5cd73
                           .group:0000000000000000 wm4.gd32vw55x_usart.h.36.f5c497cca17945a34f154b0e17017d02
                           .group:0000000000000000 wm4.gd32vw55x_wwdgt.h.36.f7a443b7302efc0e5c335888582ee197
                           .group:0000000000000000 wm4.gd32vw55x_i2c.h.41.9d203fda3f7aced3f4a9ccb1424bbb6a

UNDEFINED SYMBOLS
rcu_periph_reset_enable
rcu_periph_reset_disable
