   1              		.file	"gd32vw55x_pmu.c"
   2              		.option nopic
   3              		.attribute arch, "rv32i2p0_m2p0_a2p0_c2p0"
   4              		.attribute unaligned_access, 0
   5              		.attribute stack_align, 16
   6              		.text
   7              	.Ltext0:
   8              		.cfi_sections	.debug_frame
   9              		.section	.text.pmu_deinit,"ax",@progbits
  10              		.align	1
  11              		.globl	pmu_deinit
  13              	pmu_deinit:
  14              	.LFB347:
  15              		.file 1 "../Firmware/GD32VW55x_standard_peripheral/Source/gd32vw55x_pmu.c"
   1:../Firmware/GD32VW55x_standard_peripheral/Source/gd32vw55x_pmu.c **** /*!
   2:../Firmware/GD32VW55x_standard_peripheral/Source/gd32vw55x_pmu.c ****     \file    gd32vw55x_pmu.c
   3:../Firmware/GD32VW55x_standard_peripheral/Source/gd32vw55x_pmu.c ****     \brief   PMU driver
   4:../Firmware/GD32VW55x_standard_peripheral/Source/gd32vw55x_pmu.c **** 
   5:../Firmware/GD32VW55x_standard_peripheral/Source/gd32vw55x_pmu.c ****     \version 2025-01-16, V1.4.0, firmware for GD32VW55x
   6:../Firmware/GD32VW55x_standard_peripheral/Source/gd32vw55x_pmu.c **** */
   7:../Firmware/GD32VW55x_standard_peripheral/Source/gd32vw55x_pmu.c **** 
   8:../Firmware/GD32VW55x_standard_peripheral/Source/gd32vw55x_pmu.c **** /*
   9:../Firmware/GD32VW55x_standard_peripheral/Source/gd32vw55x_pmu.c ****     Copyright (c) 2025, GigaDevice Semiconductor Inc.
  10:../Firmware/GD32VW55x_standard_peripheral/Source/gd32vw55x_pmu.c **** 
  11:../Firmware/GD32VW55x_standard_peripheral/Source/gd32vw55x_pmu.c ****     Redistribution and use in source and binary forms, with or without modification,
  12:../Firmware/GD32VW55x_standard_peripheral/Source/gd32vw55x_pmu.c **** are permitted provided that the following conditions are met:
  13:../Firmware/GD32VW55x_standard_peripheral/Source/gd32vw55x_pmu.c **** 
  14:../Firmware/GD32VW55x_standard_peripheral/Source/gd32vw55x_pmu.c ****     1. Redistributions of source code must retain the above copyright notice, this
  15:../Firmware/GD32VW55x_standard_peripheral/Source/gd32vw55x_pmu.c ****        list of conditions and the following disclaimer.
  16:../Firmware/GD32VW55x_standard_peripheral/Source/gd32vw55x_pmu.c ****     2. Redistributions in binary form must reproduce the above copyright notice,
  17:../Firmware/GD32VW55x_standard_peripheral/Source/gd32vw55x_pmu.c ****        this list of conditions and the following disclaimer in the documentation
  18:../Firmware/GD32VW55x_standard_peripheral/Source/gd32vw55x_pmu.c ****        and/or other materials provided with the distribution.
  19:../Firmware/GD32VW55x_standard_peripheral/Source/gd32vw55x_pmu.c ****     3. Neither the name of the copyright holder nor the names of its contributors
  20:../Firmware/GD32VW55x_standard_peripheral/Source/gd32vw55x_pmu.c ****        may be used to endorse or promote products derived from this software without
  21:../Firmware/GD32VW55x_standard_peripheral/Source/gd32vw55x_pmu.c ****        specific prior written permission.
  22:../Firmware/GD32VW55x_standard_peripheral/Source/gd32vw55x_pmu.c **** 
  23:../Firmware/GD32VW55x_standard_peripheral/Source/gd32vw55x_pmu.c ****     THIS SOFTWARE IS PROVIDED BY THE COPYRIGHT HOLDERS AND CONTRIBUTORS "AS IS"
  24:../Firmware/GD32VW55x_standard_peripheral/Source/gd32vw55x_pmu.c **** AND ANY EXPRESS OR IMPLIED WARRANTIES, INCLUDING, BUT NOT LIMITED TO, THE IMPLIED
  25:../Firmware/GD32VW55x_standard_peripheral/Source/gd32vw55x_pmu.c **** WARRANTIES OF MERCHANTABILITY AND FITNESS FOR A PARTICULAR PURPOSE ARE DISCLAIMED.
  26:../Firmware/GD32VW55x_standard_peripheral/Source/gd32vw55x_pmu.c **** IN NO EVENT SHALL THE COPYRIGHT HOLDER OR CONTRIBUTORS BE LIABLE FOR ANY DIRECT,
  27:../Firmware/GD32VW55x_standard_peripheral/Source/gd32vw55x_pmu.c **** INDIRECT, INCIDENTAL, SPECIAL, EXEMPLARY, OR CONSEQUENTIAL DAMAGES (INCLUDING, BUT
  28:../Firmware/GD32VW55x_standard_peripheral/Source/gd32vw55x_pmu.c **** NOT LIMITED TO, PROCUREMENT OF SUBSTITUTE GOODS OR SERVICES; LOSS OF USE, DATA, OR
  29:../Firmware/GD32VW55x_standard_peripheral/Source/gd32vw55x_pmu.c **** PROFITS; OR BUSINESS INTERRUPTION) HOWEVER CAUSED AND ON ANY THEORY OF LIABILITY,
  30:../Firmware/GD32VW55x_standard_peripheral/Source/gd32vw55x_pmu.c **** WHETHER IN CONTRACT, STRICT LIABILITY, OR TORT (INCLUDING NEGLIGENCE OR OTHERWISE)
  31:../Firmware/GD32VW55x_standard_peripheral/Source/gd32vw55x_pmu.c **** ARISING IN ANY WAY OUT OF THE USE OF THIS SOFTWARE, EVEN IF ADVISED OF THE POSSIBILITY
  32:../Firmware/GD32VW55x_standard_peripheral/Source/gd32vw55x_pmu.c **** OF SUCH DAMAGE.
  33:../Firmware/GD32VW55x_standard_peripheral/Source/gd32vw55x_pmu.c **** */
  34:../Firmware/GD32VW55x_standard_peripheral/Source/gd32vw55x_pmu.c **** 
  35:../Firmware/GD32VW55x_standard_peripheral/Source/gd32vw55x_pmu.c **** #include "gd32vw55x_pmu.h"
  36:../Firmware/GD32VW55x_standard_peripheral/Source/gd32vw55x_pmu.c **** 
  37:../Firmware/GD32VW55x_standard_peripheral/Source/gd32vw55x_pmu.c **** /*!
  38:../Firmware/GD32VW55x_standard_peripheral/Source/gd32vw55x_pmu.c ****     \brief      reset PMU register
  39:../Firmware/GD32VW55x_standard_peripheral/Source/gd32vw55x_pmu.c ****     \param[in]  none
  40:../Firmware/GD32VW55x_standard_peripheral/Source/gd32vw55x_pmu.c ****     \param[out] none
  41:../Firmware/GD32VW55x_standard_peripheral/Source/gd32vw55x_pmu.c ****     \retval     none
  42:../Firmware/GD32VW55x_standard_peripheral/Source/gd32vw55x_pmu.c **** */
  43:../Firmware/GD32VW55x_standard_peripheral/Source/gd32vw55x_pmu.c **** void pmu_deinit(void)
  44:../Firmware/GD32VW55x_standard_peripheral/Source/gd32vw55x_pmu.c **** {
  16              		.loc 1 44 1
  17              		.cfi_startproc
  18 0000 4111     		addi	sp,sp,-16
  19              		.cfi_def_cfa_offset 16
  20 0002 06C6     		sw	ra,12(sp)
  21 0004 22C4     		sw	s0,8(sp)
  22              		.cfi_offset 1, -4
  23              		.cfi_offset 8, -8
  24 0006 0008     		addi	s0,sp,16
  25              		.cfi_def_cfa 8, 0
  45:../Firmware/GD32VW55x_standard_peripheral/Source/gd32vw55x_pmu.c ****     /* reset PMU */
  46:../Firmware/GD32VW55x_standard_peripheral/Source/gd32vw55x_pmu.c ****     rcu_periph_reset_enable(RCU_PMURST);
  26              		.loc 1 46 5
  27 0008 8567     		li	a5,4096
  28 000a 1385C781 		addi	a0,a5,-2020
  29 000e 97000000 		call	rcu_periph_reset_enable
  29      E7800000 
  47:../Firmware/GD32VW55x_standard_peripheral/Source/gd32vw55x_pmu.c ****     rcu_periph_reset_disable(RCU_PMURST);
  30              		.loc 1 47 5
  31 0016 8567     		li	a5,4096
  32 0018 1385C781 		addi	a0,a5,-2020
  33 001c 97000000 		call	rcu_periph_reset_disable
  33      E7800000 
  48:../Firmware/GD32VW55x_standard_peripheral/Source/gd32vw55x_pmu.c **** }
  34              		.loc 1 48 1
  35 0024 0100     		nop
  36 0026 B240     		lw	ra,12(sp)
  37              		.cfi_restore 1
  38 0028 2244     		lw	s0,8(sp)
  39              		.cfi_restore 8
  40              		.cfi_def_cfa 2, 16
  41 002a 4101     		addi	sp,sp,16
  42              		.cfi_def_cfa_offset 0
  43 002c 8280     		jr	ra
  44              		.cfi_endproc
  45              	.LFE347:
  47              		.section	.text.pmu_lvd_select,"ax",@progbits
  48              		.align	1
  49              		.globl	pmu_lvd_select
  51              	pmu_lvd_select:
  52              	.LFB348:
  49:../Firmware/GD32VW55x_standard_peripheral/Source/gd32vw55x_pmu.c **** 
  50:../Firmware/GD32VW55x_standard_peripheral/Source/gd32vw55x_pmu.c **** /*!
  51:../Firmware/GD32VW55x_standard_peripheral/Source/gd32vw55x_pmu.c ****     \brief      select low voltage detector threshold
  52:../Firmware/GD32VW55x_standard_peripheral/Source/gd32vw55x_pmu.c ****     \param[in]  lvdt_n:
  53:../Firmware/GD32VW55x_standard_peripheral/Source/gd32vw55x_pmu.c ****                 only one parameter can be selected which is shown as below:
  54:../Firmware/GD32VW55x_standard_peripheral/Source/gd32vw55x_pmu.c ****       \arg        PMU_LVDT_0: voltage threshold is 2.1V
  55:../Firmware/GD32VW55x_standard_peripheral/Source/gd32vw55x_pmu.c ****       \arg        PMU_LVDT_1: voltage threshold is 2.3V
  56:../Firmware/GD32VW55x_standard_peripheral/Source/gd32vw55x_pmu.c ****       \arg        PMU_LVDT_2: voltage threshold is 2.4V
  57:../Firmware/GD32VW55x_standard_peripheral/Source/gd32vw55x_pmu.c ****       \arg        PMU_LVDT_3: voltage threshold is 2.6V
  58:../Firmware/GD32VW55x_standard_peripheral/Source/gd32vw55x_pmu.c ****       \arg        PMU_LVDT_4: voltage threshold is 2.7V
  59:../Firmware/GD32VW55x_standard_peripheral/Source/gd32vw55x_pmu.c ****       \arg        PMU_LVDT_5: voltage threshold is 2.9V
  60:../Firmware/GD32VW55x_standard_peripheral/Source/gd32vw55x_pmu.c ****       \arg        PMU_LVDT_6: voltage threshold is 3.0V
  61:../Firmware/GD32VW55x_standard_peripheral/Source/gd32vw55x_pmu.c ****       \arg        PMU_LVDT_7: voltage threshold is 3.1V
  62:../Firmware/GD32VW55x_standard_peripheral/Source/gd32vw55x_pmu.c ****     \param[out] none
  63:../Firmware/GD32VW55x_standard_peripheral/Source/gd32vw55x_pmu.c ****     \retval     none
  64:../Firmware/GD32VW55x_standard_peripheral/Source/gd32vw55x_pmu.c **** */
  65:../Firmware/GD32VW55x_standard_peripheral/Source/gd32vw55x_pmu.c **** void pmu_lvd_select(uint32_t lvdt_n)
  66:../Firmware/GD32VW55x_standard_peripheral/Source/gd32vw55x_pmu.c **** {
  53              		.loc 1 66 1
  54              		.cfi_startproc
  55 0000 0111     		addi	sp,sp,-32
  56              		.cfi_def_cfa_offset 32
  57 0002 22CE     		sw	s0,28(sp)
  58              		.cfi_offset 8, -4
  59 0004 0010     		addi	s0,sp,32
  60              		.cfi_def_cfa 8, 0
  61 0006 2326A4FE 		sw	a0,-20(s0)
  67:../Firmware/GD32VW55x_standard_peripheral/Source/gd32vw55x_pmu.c ****     /* disable LVD */
  68:../Firmware/GD32VW55x_standard_peripheral/Source/gd32vw55x_pmu.c ****     PMU_CTL0 &= ~PMU_CTL0_LVDEN;
  62              		.loc 1 68 14
  63 000a B7770040 		li	a5,1073770496
  64 000e 9843     		lw	a4,0(a5)
  65 0010 B7770040 		li	a5,1073770496
  66 0014 3D9B     		andi	a4,a4,-17
  67 0016 98C3     		sw	a4,0(a5)
  69:../Firmware/GD32VW55x_standard_peripheral/Source/gd32vw55x_pmu.c ****     /* clear LVDT bits */
  70:../Firmware/GD32VW55x_standard_peripheral/Source/gd32vw55x_pmu.c ****     PMU_CTL0 &= ~PMU_CTL0_LVDT;
  68              		.loc 1 70 14
  69 0018 B7770040 		li	a5,1073770496
  70 001c 9843     		lw	a4,0(a5)
  71 001e B7770040 		li	a5,1073770496
  72 0022 1377F7F1 		andi	a4,a4,-225
  73 0026 98C3     		sw	a4,0(a5)
  71:../Firmware/GD32VW55x_standard_peripheral/Source/gd32vw55x_pmu.c ****     /* set LVDT bits according to lvdt_n */
  72:../Firmware/GD32VW55x_standard_peripheral/Source/gd32vw55x_pmu.c ****     PMU_CTL0 |= lvdt_n;
  74              		.loc 1 72 14
  75 0028 B7770040 		li	a5,1073770496
  76 002c 9443     		lw	a3,0(a5)
  77 002e B7770040 		li	a5,1073770496
  78 0032 0327C4FE 		lw	a4,-20(s0)
  79 0036 558F     		or	a4,a3,a4
  80 0038 98C3     		sw	a4,0(a5)
  73:../Firmware/GD32VW55x_standard_peripheral/Source/gd32vw55x_pmu.c ****     /* enable LVD */
  74:../Firmware/GD32VW55x_standard_peripheral/Source/gd32vw55x_pmu.c ****     PMU_CTL0 |= PMU_CTL0_LVDEN;
  81              		.loc 1 74 14
  82 003a B7770040 		li	a5,1073770496
  83 003e 9843     		lw	a4,0(a5)
  84 0040 B7770040 		li	a5,1073770496
  85 0044 13670701 		ori	a4,a4,16
  86 0048 98C3     		sw	a4,0(a5)
  75:../Firmware/GD32VW55x_standard_peripheral/Source/gd32vw55x_pmu.c **** }
  87              		.loc 1 75 1
  88 004a 0100     		nop
  89 004c 7244     		lw	s0,28(sp)
  90              		.cfi_restore 8
  91              		.cfi_def_cfa 2, 32
  92 004e 0561     		addi	sp,sp,32
  93              		.cfi_def_cfa_offset 0
  94 0050 8280     		jr	ra
  95              		.cfi_endproc
  96              	.LFE348:
  98              		.section	.text.pmu_lvd_enable,"ax",@progbits
  99              		.align	1
 100              		.globl	pmu_lvd_enable
 102              	pmu_lvd_enable:
 103              	.LFB349:
  76:../Firmware/GD32VW55x_standard_peripheral/Source/gd32vw55x_pmu.c **** 
  77:../Firmware/GD32VW55x_standard_peripheral/Source/gd32vw55x_pmu.c **** /*!
  78:../Firmware/GD32VW55x_standard_peripheral/Source/gd32vw55x_pmu.c ****     \brief      enable PMU LVD
  79:../Firmware/GD32VW55x_standard_peripheral/Source/gd32vw55x_pmu.c ****     \param[in]  none
  80:../Firmware/GD32VW55x_standard_peripheral/Source/gd32vw55x_pmu.c ****     \param[out] none
  81:../Firmware/GD32VW55x_standard_peripheral/Source/gd32vw55x_pmu.c ****     \retval     none
  82:../Firmware/GD32VW55x_standard_peripheral/Source/gd32vw55x_pmu.c **** */
  83:../Firmware/GD32VW55x_standard_peripheral/Source/gd32vw55x_pmu.c **** void pmu_lvd_enable(void)
  84:../Firmware/GD32VW55x_standard_peripheral/Source/gd32vw55x_pmu.c **** {
 104              		.loc 1 84 1
 105              		.cfi_startproc
 106 0000 4111     		addi	sp,sp,-16
 107              		.cfi_def_cfa_offset 16
 108 0002 22C6     		sw	s0,12(sp)
 109              		.cfi_offset 8, -4
 110 0004 0008     		addi	s0,sp,16
 111              		.cfi_def_cfa 8, 0
  85:../Firmware/GD32VW55x_standard_peripheral/Source/gd32vw55x_pmu.c ****     PMU_CTL0 |= PMU_CTL0_LVDEN;
 112              		.loc 1 85 14
 113 0006 B7770040 		li	a5,1073770496
 114 000a 9843     		lw	a4,0(a5)
 115 000c B7770040 		li	a5,1073770496
 116 0010 13670701 		ori	a4,a4,16
 117 0014 98C3     		sw	a4,0(a5)
  86:../Firmware/GD32VW55x_standard_peripheral/Source/gd32vw55x_pmu.c **** }
 118              		.loc 1 86 1
 119 0016 0100     		nop
 120 0018 3244     		lw	s0,12(sp)
 121              		.cfi_restore 8
 122              		.cfi_def_cfa 2, 16
 123 001a 4101     		addi	sp,sp,16
 124              		.cfi_def_cfa_offset 0
 125 001c 8280     		jr	ra
 126              		.cfi_endproc
 127              	.LFE349:
 129              		.section	.text.pmu_lvd_disable,"ax",@progbits
 130              		.align	1
 131              		.globl	pmu_lvd_disable
 133              	pmu_lvd_disable:
 134              	.LFB350:
  87:../Firmware/GD32VW55x_standard_peripheral/Source/gd32vw55x_pmu.c **** 
  88:../Firmware/GD32VW55x_standard_peripheral/Source/gd32vw55x_pmu.c **** /*!
  89:../Firmware/GD32VW55x_standard_peripheral/Source/gd32vw55x_pmu.c ****     \brief      disable PMU LVD
  90:../Firmware/GD32VW55x_standard_peripheral/Source/gd32vw55x_pmu.c ****     \param[in]  none
  91:../Firmware/GD32VW55x_standard_peripheral/Source/gd32vw55x_pmu.c ****     \param[out] none
  92:../Firmware/GD32VW55x_standard_peripheral/Source/gd32vw55x_pmu.c ****     \retval     none
  93:../Firmware/GD32VW55x_standard_peripheral/Source/gd32vw55x_pmu.c **** */
  94:../Firmware/GD32VW55x_standard_peripheral/Source/gd32vw55x_pmu.c **** void pmu_lvd_disable(void)
  95:../Firmware/GD32VW55x_standard_peripheral/Source/gd32vw55x_pmu.c **** {
 135              		.loc 1 95 1
 136              		.cfi_startproc
 137 0000 4111     		addi	sp,sp,-16
 138              		.cfi_def_cfa_offset 16
 139 0002 22C6     		sw	s0,12(sp)
 140              		.cfi_offset 8, -4
 141 0004 0008     		addi	s0,sp,16
 142              		.cfi_def_cfa 8, 0
  96:../Firmware/GD32VW55x_standard_peripheral/Source/gd32vw55x_pmu.c ****     PMU_CTL0 &= ~PMU_CTL0_LVDEN;
 143              		.loc 1 96 14
 144 0006 B7770040 		li	a5,1073770496
 145 000a 9843     		lw	a4,0(a5)
 146 000c B7770040 		li	a5,1073770496
 147 0010 3D9B     		andi	a4,a4,-17
 148 0012 98C3     		sw	a4,0(a5)
  97:../Firmware/GD32VW55x_standard_peripheral/Source/gd32vw55x_pmu.c **** }
 149              		.loc 1 97 1
 150 0014 0100     		nop
 151 0016 3244     		lw	s0,12(sp)
 152              		.cfi_restore 8
 153              		.cfi_def_cfa 2, 16
 154 0018 4101     		addi	sp,sp,16
 155              		.cfi_def_cfa_offset 0
 156 001a 8280     		jr	ra
 157              		.cfi_endproc
 158              	.LFE350:
 160              		.section	.text.pmu_backup_write_enable,"ax",@progbits
 161              		.align	1
 162              		.globl	pmu_backup_write_enable
 164              	pmu_backup_write_enable:
 165              	.LFB351:
  98:../Firmware/GD32VW55x_standard_peripheral/Source/gd32vw55x_pmu.c **** 
  99:../Firmware/GD32VW55x_standard_peripheral/Source/gd32vw55x_pmu.c **** /*!
 100:../Firmware/GD32VW55x_standard_peripheral/Source/gd32vw55x_pmu.c ****     \brief      enable write access to the registers in backup domain
 101:../Firmware/GD32VW55x_standard_peripheral/Source/gd32vw55x_pmu.c ****     \param[in]  none
 102:../Firmware/GD32VW55x_standard_peripheral/Source/gd32vw55x_pmu.c ****     \param[out] none
 103:../Firmware/GD32VW55x_standard_peripheral/Source/gd32vw55x_pmu.c ****     \retval     none
 104:../Firmware/GD32VW55x_standard_peripheral/Source/gd32vw55x_pmu.c **** */
 105:../Firmware/GD32VW55x_standard_peripheral/Source/gd32vw55x_pmu.c **** void pmu_backup_write_enable(void)
 106:../Firmware/GD32VW55x_standard_peripheral/Source/gd32vw55x_pmu.c **** {
 166              		.loc 1 106 1
 167              		.cfi_startproc
 168 0000 4111     		addi	sp,sp,-16
 169              		.cfi_def_cfa_offset 16
 170 0002 22C6     		sw	s0,12(sp)
 171              		.cfi_offset 8, -4
 172 0004 0008     		addi	s0,sp,16
 173              		.cfi_def_cfa 8, 0
 107:../Firmware/GD32VW55x_standard_peripheral/Source/gd32vw55x_pmu.c ****     PMU_CTL0 |= PMU_CTL0_BKPWEN;
 174              		.loc 1 107 14
 175 0006 B7770040 		li	a5,1073770496
 176 000a 9843     		lw	a4,0(a5)
 177 000c B7770040 		li	a5,1073770496
 178 0010 13670710 		ori	a4,a4,256
 179 0014 98C3     		sw	a4,0(a5)
 108:../Firmware/GD32VW55x_standard_peripheral/Source/gd32vw55x_pmu.c **** }
 180              		.loc 1 108 1
 181 0016 0100     		nop
 182 0018 3244     		lw	s0,12(sp)
 183              		.cfi_restore 8
 184              		.cfi_def_cfa 2, 16
 185 001a 4101     		addi	sp,sp,16
 186              		.cfi_def_cfa_offset 0
 187 001c 8280     		jr	ra
 188              		.cfi_endproc
 189              	.LFE351:
 191              		.section	.text.pmu_backup_write_disable,"ax",@progbits
 192              		.align	1
 193              		.globl	pmu_backup_write_disable
 195              	pmu_backup_write_disable:
 196              	.LFB352:
 109:../Firmware/GD32VW55x_standard_peripheral/Source/gd32vw55x_pmu.c **** 
 110:../Firmware/GD32VW55x_standard_peripheral/Source/gd32vw55x_pmu.c **** /*!
 111:../Firmware/GD32VW55x_standard_peripheral/Source/gd32vw55x_pmu.c ****     \brief      disable write access to the registers in backup domain
 112:../Firmware/GD32VW55x_standard_peripheral/Source/gd32vw55x_pmu.c ****     \param[in]  none
 113:../Firmware/GD32VW55x_standard_peripheral/Source/gd32vw55x_pmu.c ****     \param[out] none
 114:../Firmware/GD32VW55x_standard_peripheral/Source/gd32vw55x_pmu.c ****     \retval     none
 115:../Firmware/GD32VW55x_standard_peripheral/Source/gd32vw55x_pmu.c **** */
 116:../Firmware/GD32VW55x_standard_peripheral/Source/gd32vw55x_pmu.c **** void pmu_backup_write_disable(void)
 117:../Firmware/GD32VW55x_standard_peripheral/Source/gd32vw55x_pmu.c **** {
 197              		.loc 1 117 1
 198              		.cfi_startproc
 199 0000 4111     		addi	sp,sp,-16
 200              		.cfi_def_cfa_offset 16
 201 0002 22C6     		sw	s0,12(sp)
 202              		.cfi_offset 8, -4
 203 0004 0008     		addi	s0,sp,16
 204              		.cfi_def_cfa 8, 0
 118:../Firmware/GD32VW55x_standard_peripheral/Source/gd32vw55x_pmu.c ****     PMU_CTL0 &= ~PMU_CTL0_BKPWEN;
 205              		.loc 1 118 14
 206 0006 B7770040 		li	a5,1073770496
 207 000a 9843     		lw	a4,0(a5)
 208 000c B7770040 		li	a5,1073770496
 209 0010 1377F7EF 		andi	a4,a4,-257
 210 0014 98C3     		sw	a4,0(a5)
 119:../Firmware/GD32VW55x_standard_peripheral/Source/gd32vw55x_pmu.c **** }
 211              		.loc 1 119 1
 212 0016 0100     		nop
 213 0018 3244     		lw	s0,12(sp)
 214              		.cfi_restore 8
 215              		.cfi_def_cfa 2, 16
 216 001a 4101     		addi	sp,sp,16
 217              		.cfi_def_cfa_offset 0
 218 001c 8280     		jr	ra
 219              		.cfi_endproc
 220              	.LFE352:
 222              		.section	.text.pmu_to_sleepmode,"ax",@progbits
 223              		.align	1
 224              		.globl	pmu_to_sleepmode
 226              	pmu_to_sleepmode:
 227              	.LFB353:
 120:../Firmware/GD32VW55x_standard_peripheral/Source/gd32vw55x_pmu.c **** 
 121:../Firmware/GD32VW55x_standard_peripheral/Source/gd32vw55x_pmu.c **** 
 122:../Firmware/GD32VW55x_standard_peripheral/Source/gd32vw55x_pmu.c **** /*!
 123:../Firmware/GD32VW55x_standard_peripheral/Source/gd32vw55x_pmu.c ****     \brief      PMU work in sleep mode
 124:../Firmware/GD32VW55x_standard_peripheral/Source/gd32vw55x_pmu.c ****     \param[in]  sleepmodecmd:
 125:../Firmware/GD32VW55x_standard_peripheral/Source/gd32vw55x_pmu.c ****                 only one parameter can be selected which is shown as below:
 126:../Firmware/GD32VW55x_standard_peripheral/Source/gd32vw55x_pmu.c ****       \arg        WFI_CMD: use WFI command
 127:../Firmware/GD32VW55x_standard_peripheral/Source/gd32vw55x_pmu.c ****       \arg        WFE_CMD: use WFE command
 128:../Firmware/GD32VW55x_standard_peripheral/Source/gd32vw55x_pmu.c ****     \param[out] none
 129:../Firmware/GD32VW55x_standard_peripheral/Source/gd32vw55x_pmu.c ****     \retval     none
 130:../Firmware/GD32VW55x_standard_peripheral/Source/gd32vw55x_pmu.c **** */
 131:../Firmware/GD32VW55x_standard_peripheral/Source/gd32vw55x_pmu.c **** void pmu_to_sleepmode(uint8_t sleepmodecmd)
 132:../Firmware/GD32VW55x_standard_peripheral/Source/gd32vw55x_pmu.c **** {
 228              		.loc 1 132 1
 229              		.cfi_startproc
 230 0000 7971     		addi	sp,sp,-48
 231              		.cfi_def_cfa_offset 48
 232 0002 22D6     		sw	s0,44(sp)
 233 0004 26D4     		sw	s1,40(sp)
 234              		.cfi_offset 8, -4
 235              		.cfi_offset 9, -8
 236 0006 0018     		addi	s0,sp,48
 237              		.cfi_def_cfa 8, 0
 238 0008 AA87     		mv	a5,a0
 239 000a A30FF4FC 		sb	a5,-33(s0)
 240 000e 232604FE 		sw	zero,-20(s0)
 241              	.LBB53:
 242              	.LBB54:
 243              	.LBB55:
 244              		.file 2 "../Firmware/RISCV/drivers/core_feature_base.h"
   1:../Firmware/RISCV/drivers/core_feature_base.h **** /*
   2:../Firmware/RISCV/drivers/core_feature_base.h ****  * Copyright (c) 2019 Nuclei Limited. All rights reserved.
   3:../Firmware/RISCV/drivers/core_feature_base.h ****  *
   4:../Firmware/RISCV/drivers/core_feature_base.h ****  * SPDX-License-Identifier: Apache-2.0
   5:../Firmware/RISCV/drivers/core_feature_base.h ****  *
   6:../Firmware/RISCV/drivers/core_feature_base.h ****  * Licensed under the Apache License, Version 2.0 (the License); you may
   7:../Firmware/RISCV/drivers/core_feature_base.h ****  * not use this file except in compliance with the License.
   8:../Firmware/RISCV/drivers/core_feature_base.h ****  * You may obtain a copy of the License at
   9:../Firmware/RISCV/drivers/core_feature_base.h ****  *
  10:../Firmware/RISCV/drivers/core_feature_base.h ****  * www.apache.org/licenses/LICENSE-2.0
  11:../Firmware/RISCV/drivers/core_feature_base.h ****  *
  12:../Firmware/RISCV/drivers/core_feature_base.h ****  * Unless required by applicable law or agreed to in writing, software
  13:../Firmware/RISCV/drivers/core_feature_base.h ****  * distributed under the License is distributed on an AS IS BASIS, WITHOUT
  14:../Firmware/RISCV/drivers/core_feature_base.h ****  * WARRANTIES OR CONDITIONS OF ANY KIND, either express or implied.
  15:../Firmware/RISCV/drivers/core_feature_base.h ****  * See the License for the specific language governing permissions and
  16:../Firmware/RISCV/drivers/core_feature_base.h ****  * limitations under the License.
  17:../Firmware/RISCV/drivers/core_feature_base.h ****  */
  18:../Firmware/RISCV/drivers/core_feature_base.h **** 
  19:../Firmware/RISCV/drivers/core_feature_base.h **** #ifndef __CORE_FEATURE_BASE__
  20:../Firmware/RISCV/drivers/core_feature_base.h **** #define __CORE_FEATURE_BASE__
  21:../Firmware/RISCV/drivers/core_feature_base.h **** /*!
  22:../Firmware/RISCV/drivers/core_feature_base.h ****  * @file     core_feature_base.h
  23:../Firmware/RISCV/drivers/core_feature_base.h ****  * @brief    Base core feature API for Nuclei N/NX Core
  24:../Firmware/RISCV/drivers/core_feature_base.h ****  */
  25:../Firmware/RISCV/drivers/core_feature_base.h **** #include <stdint.h>
  26:../Firmware/RISCV/drivers/core_feature_base.h **** #include "riscv_encoding.h"
  27:../Firmware/RISCV/drivers/core_feature_base.h **** 
  28:../Firmware/RISCV/drivers/core_feature_base.h **** #ifdef __cplusplus
  29:../Firmware/RISCV/drivers/core_feature_base.h ****  extern "C" {
  30:../Firmware/RISCV/drivers/core_feature_base.h **** #endif
  31:../Firmware/RISCV/drivers/core_feature_base.h **** 
  32:../Firmware/RISCV/drivers/core_feature_base.h **** /**
  33:../Firmware/RISCV/drivers/core_feature_base.h ****  * \defgroup NMSIS_Core_Registers     Register Define and Type Definitions
  34:../Firmware/RISCV/drivers/core_feature_base.h ****  * \brief   Type definitions and defines for core registers.
  35:../Firmware/RISCV/drivers/core_feature_base.h ****  *
  36:../Firmware/RISCV/drivers/core_feature_base.h ****  * @{
  37:../Firmware/RISCV/drivers/core_feature_base.h ****  */
  38:../Firmware/RISCV/drivers/core_feature_base.h **** #ifndef __RISCV_XLEN
  39:../Firmware/RISCV/drivers/core_feature_base.h ****   /** \brief Refer to the width of an integer register in bits(either 32 or 64) */
  40:../Firmware/RISCV/drivers/core_feature_base.h ****   #ifndef __riscv_xlen
  41:../Firmware/RISCV/drivers/core_feature_base.h ****     #define __RISCV_XLEN    32
  42:../Firmware/RISCV/drivers/core_feature_base.h ****   #else
  43:../Firmware/RISCV/drivers/core_feature_base.h ****     #define __RISCV_XLEN    __riscv_xlen
  44:../Firmware/RISCV/drivers/core_feature_base.h ****   #endif
  45:../Firmware/RISCV/drivers/core_feature_base.h **** #endif /* __RISCV_XLEN */
  46:../Firmware/RISCV/drivers/core_feature_base.h **** 
  47:../Firmware/RISCV/drivers/core_feature_base.h **** /** \brief Type of Control and Status Register(CSR), depends on the XLEN defined in RISC-V */
  48:../Firmware/RISCV/drivers/core_feature_base.h **** #if __RISCV_XLEN == 32
  49:../Firmware/RISCV/drivers/core_feature_base.h ****   typedef uint32_t rv_csr_t;
  50:../Firmware/RISCV/drivers/core_feature_base.h **** #elif __RISCV_XLEN == 64
  51:../Firmware/RISCV/drivers/core_feature_base.h ****   typedef uint64_t rv_csr_t;
  52:../Firmware/RISCV/drivers/core_feature_base.h **** #else
  53:../Firmware/RISCV/drivers/core_feature_base.h ****   typedef uint32_t rv_csr_t;
  54:../Firmware/RISCV/drivers/core_feature_base.h **** #endif
  55:../Firmware/RISCV/drivers/core_feature_base.h **** /** @} */ /* End of Doxygen Group NMSIS_Core_Registers */
  56:../Firmware/RISCV/drivers/core_feature_base.h **** /**
  57:../Firmware/RISCV/drivers/core_feature_base.h ****  * \defgroup NMSIS_Core_Base_Registers     Base Register Define and Type Definitions
  58:../Firmware/RISCV/drivers/core_feature_base.h ****  * \ingroup NMSIS_Core_Registers
  59:../Firmware/RISCV/drivers/core_feature_base.h ****  * \brief   Type definitions and defines for base core registers.
  60:../Firmware/RISCV/drivers/core_feature_base.h ****  *
  61:../Firmware/RISCV/drivers/core_feature_base.h ****  * @{
  62:../Firmware/RISCV/drivers/core_feature_base.h ****  */
  63:../Firmware/RISCV/drivers/core_feature_base.h **** /**
  64:../Firmware/RISCV/drivers/core_feature_base.h ****  * \brief  Union type to access MISA CSR register.
  65:../Firmware/RISCV/drivers/core_feature_base.h ****  */
  66:../Firmware/RISCV/drivers/core_feature_base.h **** typedef union {
  67:../Firmware/RISCV/drivers/core_feature_base.h ****     struct {
  68:../Firmware/RISCV/drivers/core_feature_base.h ****         rv_csr_t a:1;                           /*!< bit:     0  Atomic extension */
  69:../Firmware/RISCV/drivers/core_feature_base.h ****         rv_csr_t b:1;                           /*!< bit:     1  Tentatively reserved for Bit-Manip
  70:../Firmware/RISCV/drivers/core_feature_base.h ****         rv_csr_t c:1;                           /*!< bit:     2  Compressed extension */
  71:../Firmware/RISCV/drivers/core_feature_base.h ****         rv_csr_t d:1;                           /*!< bit:     3  Double-precision floating-point ex
  72:../Firmware/RISCV/drivers/core_feature_base.h ****         rv_csr_t e:1;                           /*!< bit:     4  RV32E base ISA */
  73:../Firmware/RISCV/drivers/core_feature_base.h ****         rv_csr_t f:1;                           /*!< bit:     5  Single-precision floating-point ex
  74:../Firmware/RISCV/drivers/core_feature_base.h ****         rv_csr_t g:1;                           /*!< bit:     6  Additional standard extensions pre
  75:../Firmware/RISCV/drivers/core_feature_base.h ****         rv_csr_t h:1;                           /*!< bit:     7  Hypervisor extension */
  76:../Firmware/RISCV/drivers/core_feature_base.h ****         rv_csr_t i:1;                           /*!< bit:     8  RV32I/64I/128I base ISA */
  77:../Firmware/RISCV/drivers/core_feature_base.h ****         rv_csr_t j:1;                           /*!< bit:     9  Tentatively reserved for Dynamical
  78:../Firmware/RISCV/drivers/core_feature_base.h ****         rv_csr_t _reserved1:1;                  /*!< bit:     10 Reserved  */
  79:../Firmware/RISCV/drivers/core_feature_base.h ****         rv_csr_t l:1;                           /*!< bit:     11 Tentatively reserved for Decimal F
  80:../Firmware/RISCV/drivers/core_feature_base.h ****         rv_csr_t m:1;                           /*!< bit:     12 Integer Multiply/Divide extension 
  81:../Firmware/RISCV/drivers/core_feature_base.h ****         rv_csr_t n:1;                           /*!< bit:     13 User-level interrupts supported  *
  82:../Firmware/RISCV/drivers/core_feature_base.h ****         rv_csr_t _reserved2:1;                  /*!< bit:     14 Reserved  */
  83:../Firmware/RISCV/drivers/core_feature_base.h ****         rv_csr_t p:1;                           /*!< bit:     15 Tentatively reserved for Packed-SI
  84:../Firmware/RISCV/drivers/core_feature_base.h ****         rv_csr_t q:1;                           /*!< bit:     16 Quad-precision floating-point exte
  85:../Firmware/RISCV/drivers/core_feature_base.h ****         rv_csr_t _resreved3:1;                  /*!< bit:     17 Reserved  */
  86:../Firmware/RISCV/drivers/core_feature_base.h ****         rv_csr_t s:1;                           /*!< bit:     18 Supervisor mode implemented  */
  87:../Firmware/RISCV/drivers/core_feature_base.h ****         rv_csr_t t:1;                           /*!< bit:     19 Tentatively reserved for Transacti
  88:../Firmware/RISCV/drivers/core_feature_base.h ****         rv_csr_t u:1;                           /*!< bit:     20 User mode implemented  */
  89:../Firmware/RISCV/drivers/core_feature_base.h ****         rv_csr_t v:1;                           /*!< bit:     21 Tentatively reserved for Vector ex
  90:../Firmware/RISCV/drivers/core_feature_base.h ****         rv_csr_t _reserved4:1;                  /*!< bit:     22 Reserved  */
  91:../Firmware/RISCV/drivers/core_feature_base.h ****         rv_csr_t x:1;                           /*!< bit:     23 Non-standard extensions present  *
  92:../Firmware/RISCV/drivers/core_feature_base.h **** #if defined(__RISCV_XLEN) && __RISCV_XLEN == 64
  93:../Firmware/RISCV/drivers/core_feature_base.h ****         rv_csr_t _reserved5:38;                 /*!< bit:     24..61 Reserved  */
  94:../Firmware/RISCV/drivers/core_feature_base.h ****         rv_csr_t mxl:2;                         /*!< bit:     62..63 Machine XLEN  */
  95:../Firmware/RISCV/drivers/core_feature_base.h **** #else
  96:../Firmware/RISCV/drivers/core_feature_base.h ****         rv_csr_t _reserved5:6;                  /*!< bit:     24..29 Reserved  */
  97:../Firmware/RISCV/drivers/core_feature_base.h ****         rv_csr_t mxl:2;                         /*!< bit:     30..31 Machine XLEN  */
  98:../Firmware/RISCV/drivers/core_feature_base.h **** #endif
  99:../Firmware/RISCV/drivers/core_feature_base.h ****     } b;                                        /*!< Structure used for bit  access */
 100:../Firmware/RISCV/drivers/core_feature_base.h ****     rv_csr_t d;                                 /*!< Type      used for csr data access */
 101:../Firmware/RISCV/drivers/core_feature_base.h **** } CSR_MISA_Type;
 102:../Firmware/RISCV/drivers/core_feature_base.h **** 
 103:../Firmware/RISCV/drivers/core_feature_base.h **** /**
 104:../Firmware/RISCV/drivers/core_feature_base.h ****  * \brief  Union type to access MSTATUS CSR register.
 105:../Firmware/RISCV/drivers/core_feature_base.h ****  */
 106:../Firmware/RISCV/drivers/core_feature_base.h **** typedef union {
 107:../Firmware/RISCV/drivers/core_feature_base.h ****     struct {
 108:../Firmware/RISCV/drivers/core_feature_base.h **** #if defined(__RISCV_XLEN) && __RISCV_XLEN == 64
 109:../Firmware/RISCV/drivers/core_feature_base.h ****         rv_csr_t _reserved0:3;                  /*!< bit:     0..2  Reserved */
 110:../Firmware/RISCV/drivers/core_feature_base.h ****         rv_csr_t mie:1;                         /*!< bit:     3  Machine mode interrupt enable flag
 111:../Firmware/RISCV/drivers/core_feature_base.h ****         rv_csr_t _reserved1:3;                  /*!< bit:     4..6  Reserved */
 112:../Firmware/RISCV/drivers/core_feature_base.h ****         rv_csr_t mpie:1;                        /*!< bit:     7  mirror of MIE flag */
 113:../Firmware/RISCV/drivers/core_feature_base.h ****         rv_csr_t _reserved2:3;                  /*!< bit:     8..10  Reserved */
 114:../Firmware/RISCV/drivers/core_feature_base.h ****         rv_csr_t mpp:2;                         /*!< bit:     11..12 mirror of Privilege Mode */
 115:../Firmware/RISCV/drivers/core_feature_base.h ****         rv_csr_t fs:2;                          /*!< bit:     13..14 FS status flag */
 116:../Firmware/RISCV/drivers/core_feature_base.h ****         rv_csr_t xs:2;                          /*!< bit:     15..16 XS status flag */
 117:../Firmware/RISCV/drivers/core_feature_base.h ****         rv_csr_t mprv:1;                        /*!< bit:     Machine mode PMP */
 118:../Firmware/RISCV/drivers/core_feature_base.h ****         rv_csr_t _reserved3:14;                 /*!< bit:     18..31 Reserved */
 119:../Firmware/RISCV/drivers/core_feature_base.h ****         rv_csr_t uxl:2;                         /*!< bit:     32..33 user mode xlen */
 120:../Firmware/RISCV/drivers/core_feature_base.h ****         rv_csr_t _reserved6:29;                 /*!< bit:     34..62 Reserved  */
 121:../Firmware/RISCV/drivers/core_feature_base.h ****         rv_csr_t sd:1;                          /*!< bit:     Dirty status for XS or FS */
 122:../Firmware/RISCV/drivers/core_feature_base.h **** #else
 123:../Firmware/RISCV/drivers/core_feature_base.h ****         rv_csr_t _reserved0:1;                  /*!< bit:     0  Reserved */
 124:../Firmware/RISCV/drivers/core_feature_base.h ****         rv_csr_t sie:1;                         /*!< bit:     1  supervisor interrupt enable flag *
 125:../Firmware/RISCV/drivers/core_feature_base.h ****         rv_csr_t _reserved1:1;                  /*!< bit:     2  Reserved */
 126:../Firmware/RISCV/drivers/core_feature_base.h ****         rv_csr_t mie:1;                         /*!< bit:     3  Machine mode interrupt enable flag
 127:../Firmware/RISCV/drivers/core_feature_base.h ****         rv_csr_t _reserved2:1;                  /*!< bit:     4  Reserved */
 128:../Firmware/RISCV/drivers/core_feature_base.h ****         rv_csr_t spie:1;                        /*!< bit:     3  Supervisor Privilede mode interrup
 129:../Firmware/RISCV/drivers/core_feature_base.h ****         rv_csr_t _reserved3:1;                  /*!< bit:     Reserved */
 130:../Firmware/RISCV/drivers/core_feature_base.h ****         rv_csr_t mpie:1;                        /*!< bit:     mirror of MIE flag */
 131:../Firmware/RISCV/drivers/core_feature_base.h ****         rv_csr_t _reserved4:3;                  /*!< bit:     Reserved */
 132:../Firmware/RISCV/drivers/core_feature_base.h ****         rv_csr_t mpp:2;                         /*!< bit:     mirror of Privilege Mode */
 133:../Firmware/RISCV/drivers/core_feature_base.h ****         rv_csr_t fs:2;                          /*!< bit:     FS status flag */
 134:../Firmware/RISCV/drivers/core_feature_base.h ****         rv_csr_t xs:2;                          /*!< bit:     XS status flag */
 135:../Firmware/RISCV/drivers/core_feature_base.h ****         rv_csr_t mprv:1;                        /*!< bit:     Machine mode PMP */
 136:../Firmware/RISCV/drivers/core_feature_base.h ****         rv_csr_t sum:1;                         /*!< bit:     Supervisor Mode load and store protec
 137:../Firmware/RISCV/drivers/core_feature_base.h ****         rv_csr_t _reserved6:12;                 /*!< bit:     19..30 Reserved  */
 138:../Firmware/RISCV/drivers/core_feature_base.h ****         rv_csr_t sd:1;                          /*!< bit:     Dirty status for XS or FS */
 139:../Firmware/RISCV/drivers/core_feature_base.h **** #endif
 140:../Firmware/RISCV/drivers/core_feature_base.h ****     } b;                                        /*!< Structure used for bit  access */
 141:../Firmware/RISCV/drivers/core_feature_base.h ****     rv_csr_t d;                                 /*!< Type      used for csr data access */
 142:../Firmware/RISCV/drivers/core_feature_base.h **** } CSR_MSTATUS_Type;
 143:../Firmware/RISCV/drivers/core_feature_base.h **** 
 144:../Firmware/RISCV/drivers/core_feature_base.h **** /**
 145:../Firmware/RISCV/drivers/core_feature_base.h ****  * \brief  Union type to access MTVEC CSR register.
 146:../Firmware/RISCV/drivers/core_feature_base.h ****  */
 147:../Firmware/RISCV/drivers/core_feature_base.h **** typedef union {
 148:../Firmware/RISCV/drivers/core_feature_base.h ****     struct {
 149:../Firmware/RISCV/drivers/core_feature_base.h ****         rv_csr_t mode:6;                        /*!< bit:     0..5   interrupt mode control */
 150:../Firmware/RISCV/drivers/core_feature_base.h **** #if defined(__RISCV_XLEN) && __RISCV_XLEN == 64
 151:../Firmware/RISCV/drivers/core_feature_base.h ****         rv_csr_t addr:58;                       /*!< bit:     6..63  mtvec address */
 152:../Firmware/RISCV/drivers/core_feature_base.h **** #else
 153:../Firmware/RISCV/drivers/core_feature_base.h ****         rv_csr_t addr:26;                       /*!< bit:     6..31  mtvec address */
 154:../Firmware/RISCV/drivers/core_feature_base.h **** #endif
 155:../Firmware/RISCV/drivers/core_feature_base.h ****     } b;                                        /*!< Structure used for bit  access */
 156:../Firmware/RISCV/drivers/core_feature_base.h ****     rv_csr_t d;                                 /*!< Type      used for csr data access */
 157:../Firmware/RISCV/drivers/core_feature_base.h **** } CSR_MTVEC_Type;
 158:../Firmware/RISCV/drivers/core_feature_base.h **** 
 159:../Firmware/RISCV/drivers/core_feature_base.h **** /**
 160:../Firmware/RISCV/drivers/core_feature_base.h ****  * \brief  Union type to access MCAUSE CSR register.
 161:../Firmware/RISCV/drivers/core_feature_base.h ****  */
 162:../Firmware/RISCV/drivers/core_feature_base.h **** typedef union {
 163:../Firmware/RISCV/drivers/core_feature_base.h ****     struct {
 164:../Firmware/RISCV/drivers/core_feature_base.h ****         rv_csr_t exccode:12;                    /*!< bit:     11..0  exception or interrupt code */
 165:../Firmware/RISCV/drivers/core_feature_base.h ****         rv_csr_t _reserved0:4;                  /*!< bit:     15..12  Reserved */
 166:../Firmware/RISCV/drivers/core_feature_base.h ****         rv_csr_t mpil:8;                        /*!< bit:     23..16  Previous interrupt level */
 167:../Firmware/RISCV/drivers/core_feature_base.h ****         rv_csr_t _reserved1:3;                  /*!< bit:     26..24  Reserved */
 168:../Firmware/RISCV/drivers/core_feature_base.h ****         rv_csr_t mpie:1;                        /*!< bit:     27  Interrupt enable flag before ente
 169:../Firmware/RISCV/drivers/core_feature_base.h ****         rv_csr_t mpp:2;                         /*!< bit:     29..28  Privilede mode flag before en
 170:../Firmware/RISCV/drivers/core_feature_base.h ****         rv_csr_t minhv:1;                       /*!< bit:     30  Machine interrupt vector table */
 171:../Firmware/RISCV/drivers/core_feature_base.h **** #if defined(__RISCV_XLEN) && __RISCV_XLEN == 64
 172:../Firmware/RISCV/drivers/core_feature_base.h ****         rv_csr_t _reserved2:32;                 /*!< bit:     31..62  Reserved */
 173:../Firmware/RISCV/drivers/core_feature_base.h ****         rv_csr_t interrupt:1;                   /*!< bit:     63  trap type. 0 means exception and 
 174:../Firmware/RISCV/drivers/core_feature_base.h **** #else
 175:../Firmware/RISCV/drivers/core_feature_base.h ****         rv_csr_t interrupt:1;                   /*!< bit:     31  trap type. 0 means exception and 
 176:../Firmware/RISCV/drivers/core_feature_base.h **** #endif
 177:../Firmware/RISCV/drivers/core_feature_base.h ****     } b;                                        /*!< Structure used for bit  access */
 178:../Firmware/RISCV/drivers/core_feature_base.h ****     rv_csr_t d;                                 /*!< Type      used for csr data access */
 179:../Firmware/RISCV/drivers/core_feature_base.h **** } CSR_MCAUSE_Type;
 180:../Firmware/RISCV/drivers/core_feature_base.h **** 
 181:../Firmware/RISCV/drivers/core_feature_base.h **** /**
 182:../Firmware/RISCV/drivers/core_feature_base.h ****  * \brief  Union type to access MCOUNTINHIBIT CSR register.
 183:../Firmware/RISCV/drivers/core_feature_base.h ****  */
 184:../Firmware/RISCV/drivers/core_feature_base.h **** typedef union {
 185:../Firmware/RISCV/drivers/core_feature_base.h ****     struct {
 186:../Firmware/RISCV/drivers/core_feature_base.h ****         rv_csr_t cy:1;                          /*!< bit:     0     1 means disable mcycle counter 
 187:../Firmware/RISCV/drivers/core_feature_base.h ****         rv_csr_t _reserved0:1;                  /*!< bit:     1     Reserved */
 188:../Firmware/RISCV/drivers/core_feature_base.h ****         rv_csr_t ir:1;                          /*!< bit:     2     1 means disable minstret counte
 189:../Firmware/RISCV/drivers/core_feature_base.h **** #if defined(__RISCV_XLEN) && __RISCV_XLEN == 64
 190:../Firmware/RISCV/drivers/core_feature_base.h ****         rv_csr_t _reserved1:61;                 /*!< bit:     3..63 Reserved */
 191:../Firmware/RISCV/drivers/core_feature_base.h **** #else
 192:../Firmware/RISCV/drivers/core_feature_base.h ****         rv_csr_t _reserved1:29;                 /*!< bit:     3..31 Reserved */
 193:../Firmware/RISCV/drivers/core_feature_base.h **** #endif
 194:../Firmware/RISCV/drivers/core_feature_base.h ****     } b;                                        /*!< Structure used for bit  access */
 195:../Firmware/RISCV/drivers/core_feature_base.h ****     rv_csr_t d;                                 /*!< Type      used for csr data access */
 196:../Firmware/RISCV/drivers/core_feature_base.h **** } CSR_MCOUNTINHIBIT_Type;
 197:../Firmware/RISCV/drivers/core_feature_base.h **** 
 198:../Firmware/RISCV/drivers/core_feature_base.h **** /**
 199:../Firmware/RISCV/drivers/core_feature_base.h ****  * \brief  Union type to access MSUBM CSR register.
 200:../Firmware/RISCV/drivers/core_feature_base.h ****  */
 201:../Firmware/RISCV/drivers/core_feature_base.h **** typedef union {
 202:../Firmware/RISCV/drivers/core_feature_base.h ****     struct {
 203:../Firmware/RISCV/drivers/core_feature_base.h ****         rv_csr_t _reserved0:6;                  /*!< bit:     0..5   Reserved */
 204:../Firmware/RISCV/drivers/core_feature_base.h ****         rv_csr_t typ:2;                         /*!< bit:     6..7   current trap type */
 205:../Firmware/RISCV/drivers/core_feature_base.h ****         rv_csr_t ptyp:2;                        /*!< bit:     8..9   previous trap type */
 206:../Firmware/RISCV/drivers/core_feature_base.h **** #if defined(__RISCV_XLEN) && __RISCV_XLEN == 64
 207:../Firmware/RISCV/drivers/core_feature_base.h ****         rv_csr_t _reserved1:54;                 /*!< bit:     10..63 Reserved */
 208:../Firmware/RISCV/drivers/core_feature_base.h **** #else
 209:../Firmware/RISCV/drivers/core_feature_base.h ****         rv_csr_t _reserved1:22;                 /*!< bit:     10..31 Reserved */
 210:../Firmware/RISCV/drivers/core_feature_base.h **** #endif
 211:../Firmware/RISCV/drivers/core_feature_base.h ****     } b;                                        /*!< Structure used for bit  access */
 212:../Firmware/RISCV/drivers/core_feature_base.h ****     rv_csr_t d;                                 /*!< Type      used for csr data access */
 213:../Firmware/RISCV/drivers/core_feature_base.h **** } CSR_MSUBM_Type;
 214:../Firmware/RISCV/drivers/core_feature_base.h **** 
 215:../Firmware/RISCV/drivers/core_feature_base.h **** /**
 216:../Firmware/RISCV/drivers/core_feature_base.h ****  * \brief  Union type to access MDCAUSE CSR register.
 217:../Firmware/RISCV/drivers/core_feature_base.h ****  */
 218:../Firmware/RISCV/drivers/core_feature_base.h **** typedef union {
 219:../Firmware/RISCV/drivers/core_feature_base.h ****     struct {
 220:../Firmware/RISCV/drivers/core_feature_base.h ****         rv_csr_t mdcause:2;                     /*!< bit:     0..1   More detailed exception inform
 221:../Firmware/RISCV/drivers/core_feature_base.h ****         rv_csr_t _reserved0:__RISCV_XLEN-2;     /*!< bit:     2..XLEN-1 Reserved */
 222:../Firmware/RISCV/drivers/core_feature_base.h ****     } b;                                        /*!< Structure used for bit  access */
 223:../Firmware/RISCV/drivers/core_feature_base.h ****     rv_csr_t d;                                 /*!< Type      used for csr data access */
 224:../Firmware/RISCV/drivers/core_feature_base.h **** } CSR_MDCAUSE_Type;
 225:../Firmware/RISCV/drivers/core_feature_base.h **** 
 226:../Firmware/RISCV/drivers/core_feature_base.h **** /**
 227:../Firmware/RISCV/drivers/core_feature_base.h ****  * \brief  Union type to access MMISC_CTRL CSR register.
 228:../Firmware/RISCV/drivers/core_feature_base.h ****  */
 229:../Firmware/RISCV/drivers/core_feature_base.h **** typedef union {
 230:../Firmware/RISCV/drivers/core_feature_base.h ****     struct {
 231:../Firmware/RISCV/drivers/core_feature_base.h ****         rv_csr_t _reserved0:3;                  /*!< bit:     0..2  Reserved */
 232:../Firmware/RISCV/drivers/core_feature_base.h ****         rv_csr_t bpu:1;                         /*!< bit:     3     dynamic prediction enable flag 
 233:../Firmware/RISCV/drivers/core_feature_base.h ****         rv_csr_t _reserved1:2;                  /*!< bit:     4..5  Reserved */
 234:../Firmware/RISCV/drivers/core_feature_base.h ****         rv_csr_t misalign:1;                    /*!< bit:     6     misaligned access support flag 
 235:../Firmware/RISCV/drivers/core_feature_base.h ****         rv_csr_t _reserved2:2;                  /*!< bit:     7..8  Reserved */
 236:../Firmware/RISCV/drivers/core_feature_base.h ****         rv_csr_t nmi_cause:1;                   /*!< bit:     9     mnvec control and nmi mcase exc
 237:../Firmware/RISCV/drivers/core_feature_base.h **** #if defined(__RISCV_XLEN) && __RISCV_XLEN == 64
 238:../Firmware/RISCV/drivers/core_feature_base.h ****         rv_csr_t _reserved3:54;                 /*!< bit:     10..63 Reserved */
 239:../Firmware/RISCV/drivers/core_feature_base.h **** #else
 240:../Firmware/RISCV/drivers/core_feature_base.h ****         rv_csr_t _reserved3:22;                 /*!< bit:     10..31 Reserved */
 241:../Firmware/RISCV/drivers/core_feature_base.h **** #endif
 242:../Firmware/RISCV/drivers/core_feature_base.h ****     } b;                                        /*!< Structure used for bit  access */
 243:../Firmware/RISCV/drivers/core_feature_base.h ****     rv_csr_t d;                                 /*!< Type      used for csr data access */
 244:../Firmware/RISCV/drivers/core_feature_base.h **** } CSR_MMISCCTRL_Type;
 245:../Firmware/RISCV/drivers/core_feature_base.h **** 
 246:../Firmware/RISCV/drivers/core_feature_base.h **** typedef CSR_MMISCCTRL_Type CSR_MMISCCTL_Type;
 247:../Firmware/RISCV/drivers/core_feature_base.h **** 
 248:../Firmware/RISCV/drivers/core_feature_base.h **** /**
 249:../Firmware/RISCV/drivers/core_feature_base.h ****  * \brief  Union type to access MCACHE_CTL CSR register.
 250:../Firmware/RISCV/drivers/core_feature_base.h ****  */
 251:../Firmware/RISCV/drivers/core_feature_base.h **** typedef union {
 252:../Firmware/RISCV/drivers/core_feature_base.h ****     struct {
 253:../Firmware/RISCV/drivers/core_feature_base.h ****         rv_csr_t ic_en:1;                       /*!< I-Cache enable */
 254:../Firmware/RISCV/drivers/core_feature_base.h ****         rv_csr_t ic_scpd_mod:1;                 /*!< Scratchpad mode, 0: Scratchpad as ICache Data 
 255:../Firmware/RISCV/drivers/core_feature_base.h ****         rv_csr_t ic_ecc_en:1;                   /*!< I-Cache ECC enable */
 256:../Firmware/RISCV/drivers/core_feature_base.h ****         rv_csr_t ic_ecc_excp_en:1;              /*!< I-Cache 2bit ECC error exception enable */
 257:../Firmware/RISCV/drivers/core_feature_base.h ****         rv_csr_t ic_rwtecc:1;                   /*!< Control I-Cache Tag Ram ECC code injection */
 258:../Firmware/RISCV/drivers/core_feature_base.h ****         rv_csr_t ic_rwdecc:1;                   /*!< Control I-Cache Data Ram ECC code injection */
 259:../Firmware/RISCV/drivers/core_feature_base.h ****         rv_csr_t _reserved0:10;
 260:../Firmware/RISCV/drivers/core_feature_base.h ****         rv_csr_t dc_en:1;                       /*!< DCache enable */
 261:../Firmware/RISCV/drivers/core_feature_base.h ****         rv_csr_t dc_ecc_en:1;                   /*!< D-Cache ECC enable */
 262:../Firmware/RISCV/drivers/core_feature_base.h ****         rv_csr_t dc_ecc_excp_en:1;              /*!< D-Cache 2bit ECC error exception enable */
 263:../Firmware/RISCV/drivers/core_feature_base.h ****         rv_csr_t dc_rwtecc:1;                   /*!< Control D-Cache Tag Ram ECC code injection */
 264:../Firmware/RISCV/drivers/core_feature_base.h ****         rv_csr_t dc_rwdecc:1;                   /*!< Control D-Cache Data Ram ECC code injection */
 265:../Firmware/RISCV/drivers/core_feature_base.h ****         rv_csr_t _reserved1:__RISCV_XLEN-21;
 266:../Firmware/RISCV/drivers/core_feature_base.h ****     } b;                                        /*!< Structure used for bit  access */
 267:../Firmware/RISCV/drivers/core_feature_base.h ****     rv_csr_t d;                                 /*!< Type      used for csr data access */
 268:../Firmware/RISCV/drivers/core_feature_base.h **** } CSR_MCACHECTL_Type;
 269:../Firmware/RISCV/drivers/core_feature_base.h **** 
 270:../Firmware/RISCV/drivers/core_feature_base.h **** /**
 271:../Firmware/RISCV/drivers/core_feature_base.h ****  * \brief  Union type to access MSAVESTATUS CSR register.
 272:../Firmware/RISCV/drivers/core_feature_base.h ****  */
 273:../Firmware/RISCV/drivers/core_feature_base.h **** typedef union {
 274:../Firmware/RISCV/drivers/core_feature_base.h ****     struct {
 275:../Firmware/RISCV/drivers/core_feature_base.h ****         rv_csr_t mpie1:1;                       /*!< bit:     0     interrupt enable flag of fisrt 
 276:../Firmware/RISCV/drivers/core_feature_base.h ****         rv_csr_t mpp1:2;                        /*!< bit:     1..2  privilede mode of fisrt level N
 277:../Firmware/RISCV/drivers/core_feature_base.h ****         rv_csr_t _reserved0:3;                  /*!< bit:     3..5  Reserved */
 278:../Firmware/RISCV/drivers/core_feature_base.h ****         rv_csr_t ptyp1:2;                       /*!< bit:     6..7  NMI/exception type of before fi
 279:../Firmware/RISCV/drivers/core_feature_base.h ****         rv_csr_t mpie2:1;                       /*!< bit:     8     interrupt enable flag of second
 280:../Firmware/RISCV/drivers/core_feature_base.h ****         rv_csr_t mpp2:2;                        /*!< bit:     9..10 privilede mode of second level 
 281:../Firmware/RISCV/drivers/core_feature_base.h ****         rv_csr_t _reserved1:3;                  /*!< bit:     11..13     Reserved */
 282:../Firmware/RISCV/drivers/core_feature_base.h ****         rv_csr_t ptyp2:2;                       /*!< bit:     14..15     NMI/exception type of befo
 283:../Firmware/RISCV/drivers/core_feature_base.h **** #if defined(__RISCV_XLEN) && __RISCV_XLEN == 64
 284:../Firmware/RISCV/drivers/core_feature_base.h ****         rv_csr_t _reserved2:48;                 /*!< bit:     16..63 Reserved*/
 285:../Firmware/RISCV/drivers/core_feature_base.h **** #else
 286:../Firmware/RISCV/drivers/core_feature_base.h ****         rv_csr_t _reserved2:16;                 /*!< bit:     16..31 Reserved*/
 287:../Firmware/RISCV/drivers/core_feature_base.h **** #endif
 288:../Firmware/RISCV/drivers/core_feature_base.h ****     } b;                                        /*!< Structure used for bit  access */
 289:../Firmware/RISCV/drivers/core_feature_base.h ****     rv_csr_t w;                                 /*!< Type      used for csr data access */
 290:../Firmware/RISCV/drivers/core_feature_base.h **** } CSR_MSAVESTATUS_Type;
 291:../Firmware/RISCV/drivers/core_feature_base.h **** 
 292:../Firmware/RISCV/drivers/core_feature_base.h **** /**
 293:../Firmware/RISCV/drivers/core_feature_base.h ****  * \brief  Union type to access MILM_CTL CSR register.
 294:../Firmware/RISCV/drivers/core_feature_base.h ****  */
 295:../Firmware/RISCV/drivers/core_feature_base.h **** typedef union {
 296:../Firmware/RISCV/drivers/core_feature_base.h ****     struct {
 297:../Firmware/RISCV/drivers/core_feature_base.h ****         rv_csr_t ilm_en:1;                      /*!< ILM enable */
 298:../Firmware/RISCV/drivers/core_feature_base.h ****         rv_csr_t ilm_ecc_en:1;                  /*!< ILM ECC eanble */
 299:../Firmware/RISCV/drivers/core_feature_base.h ****         rv_csr_t ilm_ecc_excp_en:1;             /*!< ILM ECC exception enable */
 300:../Firmware/RISCV/drivers/core_feature_base.h ****         rv_csr_t ilm_rwecc:1;                   /*!< Control mecc_code write to ilm, simulate error
 301:../Firmware/RISCV/drivers/core_feature_base.h ****         rv_csr_t _reserved0:6;                  /*!< Reserved */
 302:../Firmware/RISCV/drivers/core_feature_base.h ****         rv_csr_t ilm_bpa:__RISCV_XLEN-10;       /*!< ILM base address */
 303:../Firmware/RISCV/drivers/core_feature_base.h ****     } b;                                        /*!< Structure used for bit  access */
 304:../Firmware/RISCV/drivers/core_feature_base.h ****     rv_csr_t d;                                 /*!< Type      used for csr data access */
 305:../Firmware/RISCV/drivers/core_feature_base.h **** } CSR_MILMCTL_Type;
 306:../Firmware/RISCV/drivers/core_feature_base.h **** 
 307:../Firmware/RISCV/drivers/core_feature_base.h **** /**
 308:../Firmware/RISCV/drivers/core_feature_base.h ****  * \brief  Union type to access MDLM_CTL CSR register.
 309:../Firmware/RISCV/drivers/core_feature_base.h ****  */
 310:../Firmware/RISCV/drivers/core_feature_base.h **** typedef union {
 311:../Firmware/RISCV/drivers/core_feature_base.h ****     struct {
 312:../Firmware/RISCV/drivers/core_feature_base.h ****         rv_csr_t dlm_en:1;                      /*!< DLM enable */
 313:../Firmware/RISCV/drivers/core_feature_base.h ****         rv_csr_t dlm_ecc_en:1;                  /*!< DLM ECC eanble */
 314:../Firmware/RISCV/drivers/core_feature_base.h ****         rv_csr_t dlm_ecc_excp_en:1;             /*!< DLM ECC exception enable */
 315:../Firmware/RISCV/drivers/core_feature_base.h ****         rv_csr_t dlm_rwecc:1;                   /*!< Control mecc_code write to dlm, simulate error
 316:../Firmware/RISCV/drivers/core_feature_base.h ****         rv_csr_t _reserved0:6;                  /*!< Reserved */
 317:../Firmware/RISCV/drivers/core_feature_base.h ****         rv_csr_t dlm_bpa:__RISCV_XLEN-10;       /*!< DLM base address */
 318:../Firmware/RISCV/drivers/core_feature_base.h ****     } b;                                        /*!< Structure used for bit  access */
 319:../Firmware/RISCV/drivers/core_feature_base.h ****     rv_csr_t d;                                 /*!< Type      used for csr data access */
 320:../Firmware/RISCV/drivers/core_feature_base.h **** } CSR_MDLMCTL_Type;
 321:../Firmware/RISCV/drivers/core_feature_base.h **** 
 322:../Firmware/RISCV/drivers/core_feature_base.h **** /**
 323:../Firmware/RISCV/drivers/core_feature_base.h ****  * \brief  Union type to access MCFG_INFO CSR register.
 324:../Firmware/RISCV/drivers/core_feature_base.h ****  */
 325:../Firmware/RISCV/drivers/core_feature_base.h **** typedef union {
 326:../Firmware/RISCV/drivers/core_feature_base.h ****     struct {
 327:../Firmware/RISCV/drivers/core_feature_base.h ****         rv_csr_t tee:1;                         /*!< TEE present */
 328:../Firmware/RISCV/drivers/core_feature_base.h ****         rv_csr_t ecc:1;                         /*!< ECC present */
 329:../Firmware/RISCV/drivers/core_feature_base.h ****         rv_csr_t clic:1;                        /*!< CLIC present */
 330:../Firmware/RISCV/drivers/core_feature_base.h ****         rv_csr_t plic:1;                        /*!< PLIC present */
 331:../Firmware/RISCV/drivers/core_feature_base.h ****         rv_csr_t fio:1;                         /*!< FIO present */
 332:../Firmware/RISCV/drivers/core_feature_base.h ****         rv_csr_t ppi:1;                         /*!< PPI present */
 333:../Firmware/RISCV/drivers/core_feature_base.h ****         rv_csr_t nice:1;                        /*!< NICE present */
 334:../Firmware/RISCV/drivers/core_feature_base.h ****         rv_csr_t ilm:1;                         /*!< ILM present */
 335:../Firmware/RISCV/drivers/core_feature_base.h ****         rv_csr_t dlm:1;                         /*!< DLM present */
 336:../Firmware/RISCV/drivers/core_feature_base.h ****         rv_csr_t icache:1;                      /*!< ICache present */
 337:../Firmware/RISCV/drivers/core_feature_base.h ****         rv_csr_t dcache:1;                      /*!< DCache present */
 338:../Firmware/RISCV/drivers/core_feature_base.h ****         rv_csr_t _reserved0:__RISCV_XLEN-11;
 339:../Firmware/RISCV/drivers/core_feature_base.h ****     } b;                                        /*!< Structure used for bit  access */
 340:../Firmware/RISCV/drivers/core_feature_base.h ****     rv_csr_t d;                                 /*!< Type      used for csr data access */
 341:../Firmware/RISCV/drivers/core_feature_base.h **** } CSR_MCFGINFO_Type;
 342:../Firmware/RISCV/drivers/core_feature_base.h **** 
 343:../Firmware/RISCV/drivers/core_feature_base.h **** /**
 344:../Firmware/RISCV/drivers/core_feature_base.h ****  * \brief  Union type to access MICFG_INFO CSR register.
 345:../Firmware/RISCV/drivers/core_feature_base.h ****  */
 346:../Firmware/RISCV/drivers/core_feature_base.h **** typedef union {
 347:../Firmware/RISCV/drivers/core_feature_base.h ****     struct {
 348:../Firmware/RISCV/drivers/core_feature_base.h ****         rv_csr_t set:4;                         /*!< I-Cache sets per way */
 349:../Firmware/RISCV/drivers/core_feature_base.h ****         rv_csr_t way:3;                         /*!< I-Cache way */
 350:../Firmware/RISCV/drivers/core_feature_base.h ****         rv_csr_t lsize:3;                       /*!< I-Cache line size */
 351:../Firmware/RISCV/drivers/core_feature_base.h ****         rv_csr_t cache_ecc:1;                   /*!< I-Cache ECC present */
 352:../Firmware/RISCV/drivers/core_feature_base.h ****         rv_csr_t _reserved0:5;
 353:../Firmware/RISCV/drivers/core_feature_base.h ****         rv_csr_t lm_size:5;                     /*!< ILM size, need to be 2^n size */
 354:../Firmware/RISCV/drivers/core_feature_base.h ****         rv_csr_t lm_xonly:1;                    /*!< ILM Execute only permission */
 355:../Firmware/RISCV/drivers/core_feature_base.h ****         rv_csr_t lm_ecc:1;                      /*!< ILM ECC present */
 356:../Firmware/RISCV/drivers/core_feature_base.h ****         rv_csr_t _reserved1:__RISCV_XLEN-23;
 357:../Firmware/RISCV/drivers/core_feature_base.h ****     } b;                                        /*!< Structure used for bit  access */
 358:../Firmware/RISCV/drivers/core_feature_base.h ****     rv_csr_t d;                                 /*!< Type      used for csr data access */
 359:../Firmware/RISCV/drivers/core_feature_base.h **** } CSR_MICFGINFO_Type;
 360:../Firmware/RISCV/drivers/core_feature_base.h **** 
 361:../Firmware/RISCV/drivers/core_feature_base.h **** /**
 362:../Firmware/RISCV/drivers/core_feature_base.h ****  * \brief  Union type to access MDCFG_INFO CSR register.
 363:../Firmware/RISCV/drivers/core_feature_base.h ****  */
 364:../Firmware/RISCV/drivers/core_feature_base.h **** typedef union {
 365:../Firmware/RISCV/drivers/core_feature_base.h ****     struct {
 366:../Firmware/RISCV/drivers/core_feature_base.h ****         rv_csr_t set:4;                         /*!< D-Cache sets per way */
 367:../Firmware/RISCV/drivers/core_feature_base.h ****         rv_csr_t way:3;                         /*!< D-Cache way */
 368:../Firmware/RISCV/drivers/core_feature_base.h ****         rv_csr_t lsize:3;                       /*!< D-Cache line size */
 369:../Firmware/RISCV/drivers/core_feature_base.h ****         rv_csr_t cache_ecc:1;                   /*!< D-Cache ECC present */
 370:../Firmware/RISCV/drivers/core_feature_base.h ****         rv_csr_t _reserved0:5;
 371:../Firmware/RISCV/drivers/core_feature_base.h ****         rv_csr_t lm_size:5;                     /*!< DLM size, need to be 2^n size */
 372:../Firmware/RISCV/drivers/core_feature_base.h ****         rv_csr_t lm_xonly:1;                    /*!< DLM Execute only permission */
 373:../Firmware/RISCV/drivers/core_feature_base.h ****         rv_csr_t lm_ecc:1;                      /*!< DLM ECC present */
 374:../Firmware/RISCV/drivers/core_feature_base.h ****         rv_csr_t _reserved1:__RISCV_XLEN-23;
 375:../Firmware/RISCV/drivers/core_feature_base.h ****     } b;                                        /*!< Structure used for bit  access */
 376:../Firmware/RISCV/drivers/core_feature_base.h ****     rv_csr_t d;                                 /*!< Type      used for csr data access */
 377:../Firmware/RISCV/drivers/core_feature_base.h **** } CSR_MDCFGINFO_Type;
 378:../Firmware/RISCV/drivers/core_feature_base.h **** 
 379:../Firmware/RISCV/drivers/core_feature_base.h **** /**
 380:../Firmware/RISCV/drivers/core_feature_base.h ****  * \brief  Union type to access MPPICFG_INFO CSR register.
 381:../Firmware/RISCV/drivers/core_feature_base.h ****  */
 382:../Firmware/RISCV/drivers/core_feature_base.h **** typedef union {
 383:../Firmware/RISCV/drivers/core_feature_base.h ****     struct {
 384:../Firmware/RISCV/drivers/core_feature_base.h ****         rv_csr_t _reserved0:1;                  /*!< Reserved */
 385:../Firmware/RISCV/drivers/core_feature_base.h ****         rv_csr_t ppi_size:5;                    /*!< PPI size, need to be 2^n size */
 386:../Firmware/RISCV/drivers/core_feature_base.h ****         rv_csr_t _reserved1:4;                  /*!< Reserved */
 387:../Firmware/RISCV/drivers/core_feature_base.h ****         rv_csr_t ppi_bpa:__RISCV_XLEN-10;       /*!< PPI base address */
 388:../Firmware/RISCV/drivers/core_feature_base.h ****     } b;                                        /*!< Structure used for bit  access */
 389:../Firmware/RISCV/drivers/core_feature_base.h ****     rv_csr_t d;                                 /*!< Type      used for csr data access */
 390:../Firmware/RISCV/drivers/core_feature_base.h **** } CSR_MPPICFGINFO_Type;
 391:../Firmware/RISCV/drivers/core_feature_base.h **** 
 392:../Firmware/RISCV/drivers/core_feature_base.h **** /**
 393:../Firmware/RISCV/drivers/core_feature_base.h ****  * \brief  Union type to access MFIOCFG_INFO CSR register.
 394:../Firmware/RISCV/drivers/core_feature_base.h ****  */
 395:../Firmware/RISCV/drivers/core_feature_base.h **** typedef union {
 396:../Firmware/RISCV/drivers/core_feature_base.h ****     struct {
 397:../Firmware/RISCV/drivers/core_feature_base.h ****         rv_csr_t _reserved0:1;                  /*!< Reserved */
 398:../Firmware/RISCV/drivers/core_feature_base.h ****         rv_csr_t fio_size:5;                    /*!< FIO size, need to be 2^n size */
 399:../Firmware/RISCV/drivers/core_feature_base.h ****         rv_csr_t _reserved1:4;                  /*!< Reserved */
 400:../Firmware/RISCV/drivers/core_feature_base.h ****         rv_csr_t fio_bpa:__RISCV_XLEN-10;       /*!< FIO base address */
 401:../Firmware/RISCV/drivers/core_feature_base.h ****     } b;                                        /*!< Structure used for bit  access */
 402:../Firmware/RISCV/drivers/core_feature_base.h ****     rv_csr_t d;                                 /*!< Type      used for csr data access */
 403:../Firmware/RISCV/drivers/core_feature_base.h **** } CSR_MFIOCFGINFO_Type;
 404:../Firmware/RISCV/drivers/core_feature_base.h **** 
 405:../Firmware/RISCV/drivers/core_feature_base.h **** /**
 406:../Firmware/RISCV/drivers/core_feature_base.h ****  * \brief  Union type to access MECC_LOCK CSR register.
 407:../Firmware/RISCV/drivers/core_feature_base.h ****  */
 408:../Firmware/RISCV/drivers/core_feature_base.h **** typedef union {
 409:../Firmware/RISCV/drivers/core_feature_base.h ****     struct {
 410:../Firmware/RISCV/drivers/core_feature_base.h ****         rv_csr_t ecc_lock:1;                    /*!< RW permission, ECC Lock configure */
 411:../Firmware/RISCV/drivers/core_feature_base.h ****         rv_csr_t _reserved0:__RISCV_XLEN-1;     /*!< Reserved */
 412:../Firmware/RISCV/drivers/core_feature_base.h ****     } b;                                        /*!< Structure used for bit  access */
 413:../Firmware/RISCV/drivers/core_feature_base.h ****     rv_csr_t d;                                 /*!< Type      used for csr data access */
 414:../Firmware/RISCV/drivers/core_feature_base.h **** } CSR_MECCLOCK_Type;
 415:../Firmware/RISCV/drivers/core_feature_base.h **** 
 416:../Firmware/RISCV/drivers/core_feature_base.h **** /**
 417:../Firmware/RISCV/drivers/core_feature_base.h ****  * \brief  Union type to access MECC_CODE CSR register.
 418:../Firmware/RISCV/drivers/core_feature_base.h ****  */
 419:../Firmware/RISCV/drivers/core_feature_base.h **** typedef union {
 420:../Firmware/RISCV/drivers/core_feature_base.h ****     struct {
 421:../Firmware/RISCV/drivers/core_feature_base.h ****         rv_csr_t code:9;                        /*!< Used to inject ECC check code */
 422:../Firmware/RISCV/drivers/core_feature_base.h ****         rv_csr_t _reserved0:7;                  /*!< Reserved */
 423:../Firmware/RISCV/drivers/core_feature_base.h ****         rv_csr_t ramid:5;                       /*!< Indicate 2bit ECC error, software can clear th
 424:../Firmware/RISCV/drivers/core_feature_base.h ****         rv_csr_t _reserved1:3;                  /*!< Reserved */
 425:../Firmware/RISCV/drivers/core_feature_base.h ****         rv_csr_t sramid:5;                      /*!< Indicate 1bit ECC error, software can clear th
 426:../Firmware/RISCV/drivers/core_feature_base.h ****         rv_csr_t _reserved2:__RISCV_XLEN-29;    /*!< Reserved */
 427:../Firmware/RISCV/drivers/core_feature_base.h ****     } b;                                        /*!< Structure used for bit  access */
 428:../Firmware/RISCV/drivers/core_feature_base.h ****     rv_csr_t d;                                 /*!< Type      used for csr data access */
 429:../Firmware/RISCV/drivers/core_feature_base.h **** } CSR_MECCCODE_Type;
 430:../Firmware/RISCV/drivers/core_feature_base.h **** 
 431:../Firmware/RISCV/drivers/core_feature_base.h **** /** @} */ /* End of Doxygen Group NMSIS_Core_Base_Registers */
 432:../Firmware/RISCV/drivers/core_feature_base.h **** 
 433:../Firmware/RISCV/drivers/core_feature_base.h **** /* ###########################  Core Function Access  ########################### */
 434:../Firmware/RISCV/drivers/core_feature_base.h **** /**
 435:../Firmware/RISCV/drivers/core_feature_base.h ****  * \defgroup NMSIS_Core_CSR_Register_Access    Core CSR Register Access
 436:../Firmware/RISCV/drivers/core_feature_base.h ****  * \ingroup  NMSIS_Core
 437:../Firmware/RISCV/drivers/core_feature_base.h ****  * \brief    Functions to access the Core CSR Registers
 438:../Firmware/RISCV/drivers/core_feature_base.h ****  * \details
 439:../Firmware/RISCV/drivers/core_feature_base.h ****  *
 440:../Firmware/RISCV/drivers/core_feature_base.h ****  * The following functions or macros provide access to Core CSR registers.
 441:../Firmware/RISCV/drivers/core_feature_base.h ****  * - \ref NMSIS_Core_CSR_Encoding
 442:../Firmware/RISCV/drivers/core_feature_base.h ****  * - \ref NMSIS_Core_CSR_Registers
 443:../Firmware/RISCV/drivers/core_feature_base.h ****  *   @{
 444:../Firmware/RISCV/drivers/core_feature_base.h ****  */
 445:../Firmware/RISCV/drivers/core_feature_base.h **** 
 446:../Firmware/RISCV/drivers/core_feature_base.h **** 
 447:../Firmware/RISCV/drivers/core_feature_base.h **** #ifndef __ASSEMBLY__
 448:../Firmware/RISCV/drivers/core_feature_base.h **** 
 449:../Firmware/RISCV/drivers/core_feature_base.h **** /**
 450:../Firmware/RISCV/drivers/core_feature_base.h ****  * \brief CSR operation Macro for csrrw instruction.
 451:../Firmware/RISCV/drivers/core_feature_base.h ****  * \details
 452:../Firmware/RISCV/drivers/core_feature_base.h ****  * Read the content of csr register to __v,
 453:../Firmware/RISCV/drivers/core_feature_base.h ****  * then write content of val into csr register, then return __v
 454:../Firmware/RISCV/drivers/core_feature_base.h ****  * \param csr   CSR macro definition defined in
 455:../Firmware/RISCV/drivers/core_feature_base.h ****  *              \ref NMSIS_Core_CSR_Registers, eg. \ref CSR_MSTATUS
 456:../Firmware/RISCV/drivers/core_feature_base.h ****  * \param val   value to store into the CSR register
 457:../Firmware/RISCV/drivers/core_feature_base.h ****  * \return the CSR register value before written
 458:../Firmware/RISCV/drivers/core_feature_base.h ****  */
 459:../Firmware/RISCV/drivers/core_feature_base.h **** #define __RV_CSR_SWAP(csr, val)                                 \
 460:../Firmware/RISCV/drivers/core_feature_base.h ****     ({                                                          \
 461:../Firmware/RISCV/drivers/core_feature_base.h ****         register rv_csr_t __v = (unsigned long)(val);           \
 462:../Firmware/RISCV/drivers/core_feature_base.h ****         __ASM volatile("csrrw %0, " STRINGIFY(csr) ", %1"       \
 463:../Firmware/RISCV/drivers/core_feature_base.h ****                      : "=r"(__v)                                \
 464:../Firmware/RISCV/drivers/core_feature_base.h ****                      : "r"(__v)                                \
 465:../Firmware/RISCV/drivers/core_feature_base.h ****                      : "memory");                               \
 466:../Firmware/RISCV/drivers/core_feature_base.h ****         __v;                                                    \
 467:../Firmware/RISCV/drivers/core_feature_base.h ****     })
 468:../Firmware/RISCV/drivers/core_feature_base.h **** 
 469:../Firmware/RISCV/drivers/core_feature_base.h **** /**
 470:../Firmware/RISCV/drivers/core_feature_base.h ****  * \brief CSR operation Macro for csrr instruction.
 471:../Firmware/RISCV/drivers/core_feature_base.h ****  * \details
 472:../Firmware/RISCV/drivers/core_feature_base.h ****  * Read the content of csr register to __v and return it
 473:../Firmware/RISCV/drivers/core_feature_base.h ****  * \param csr   CSR macro definition defined in
 474:../Firmware/RISCV/drivers/core_feature_base.h ****  *              \ref NMSIS_Core_CSR_Registers, eg. \ref CSR_MSTATUS
 475:../Firmware/RISCV/drivers/core_feature_base.h ****  * \return the CSR register value
 476:../Firmware/RISCV/drivers/core_feature_base.h ****  */
 477:../Firmware/RISCV/drivers/core_feature_base.h **** #define __RV_CSR_READ(csr)                                      \
 478:../Firmware/RISCV/drivers/core_feature_base.h ****     ({                                                          \
 479:../Firmware/RISCV/drivers/core_feature_base.h ****         register rv_csr_t __v;                                  \
 480:../Firmware/RISCV/drivers/core_feature_base.h ****         __ASM volatile("csrr %0, " STRINGIFY(csr)               \
 481:../Firmware/RISCV/drivers/core_feature_base.h ****                      : "=r"(__v)                                \
 482:../Firmware/RISCV/drivers/core_feature_base.h ****                      :                                          \
 483:../Firmware/RISCV/drivers/core_feature_base.h ****                      : "memory");                               \
 484:../Firmware/RISCV/drivers/core_feature_base.h ****         __v;                                                    \
 485:../Firmware/RISCV/drivers/core_feature_base.h ****     })
 486:../Firmware/RISCV/drivers/core_feature_base.h **** 
 487:../Firmware/RISCV/drivers/core_feature_base.h **** /**
 488:../Firmware/RISCV/drivers/core_feature_base.h ****  * \brief CSR operation Macro for csrw instruction.
 489:../Firmware/RISCV/drivers/core_feature_base.h ****  * \details
 490:../Firmware/RISCV/drivers/core_feature_base.h ****  * Write the content of val to csr register
 491:../Firmware/RISCV/drivers/core_feature_base.h ****  * \param csr   CSR macro definition defined in
 492:../Firmware/RISCV/drivers/core_feature_base.h ****  *              \ref NMSIS_Core_CSR_Registers, eg. \ref CSR_MSTATUS
 493:../Firmware/RISCV/drivers/core_feature_base.h ****  * \param val   value to store into the CSR register
 494:../Firmware/RISCV/drivers/core_feature_base.h ****  */
 495:../Firmware/RISCV/drivers/core_feature_base.h **** #define __RV_CSR_WRITE(csr, val)                                \
 496:../Firmware/RISCV/drivers/core_feature_base.h ****     ({                                                          \
 497:../Firmware/RISCV/drivers/core_feature_base.h ****         register rv_csr_t __v = (rv_csr_t)(val);                \
 498:../Firmware/RISCV/drivers/core_feature_base.h ****         __ASM volatile("csrw " STRINGIFY(csr) ", %0"            \
 499:../Firmware/RISCV/drivers/core_feature_base.h ****                      :                                          \
 500:../Firmware/RISCV/drivers/core_feature_base.h ****                      : "r"(__v)                                \
 501:../Firmware/RISCV/drivers/core_feature_base.h ****                      : "memory");                               \
 502:../Firmware/RISCV/drivers/core_feature_base.h ****     })
 503:../Firmware/RISCV/drivers/core_feature_base.h **** 
 504:../Firmware/RISCV/drivers/core_feature_base.h **** /**
 505:../Firmware/RISCV/drivers/core_feature_base.h ****  * \brief CSR operation Macro for csrrs instruction.
 506:../Firmware/RISCV/drivers/core_feature_base.h ****  * \details
 507:../Firmware/RISCV/drivers/core_feature_base.h ****  * Read the content of csr register to __v,
 508:../Firmware/RISCV/drivers/core_feature_base.h ****  * then set csr register to be __v | val, then return __v
 509:../Firmware/RISCV/drivers/core_feature_base.h ****  * \param csr   CSR macro definition defined in
 510:../Firmware/RISCV/drivers/core_feature_base.h ****  *              \ref NMSIS_Core_CSR_Registers, eg. \ref CSR_MSTATUS
 511:../Firmware/RISCV/drivers/core_feature_base.h ****  * \param val   Mask value to be used wih csrrs instruction
 512:../Firmware/RISCV/drivers/core_feature_base.h ****  * \return the CSR register value before written
 513:../Firmware/RISCV/drivers/core_feature_base.h ****  */
 514:../Firmware/RISCV/drivers/core_feature_base.h **** #define __RV_CSR_READ_SET(csr, val)                             \
 515:../Firmware/RISCV/drivers/core_feature_base.h ****     ({                                                          \
 516:../Firmware/RISCV/drivers/core_feature_base.h ****         register rv_csr_t __v = (rv_csr_t)(val);                \
 517:../Firmware/RISCV/drivers/core_feature_base.h ****         __ASM volatile("csrrs %0, " STRINGIFY(csr) ", %1"       \
 518:../Firmware/RISCV/drivers/core_feature_base.h ****                      : "=r"(__v)                                \
 519:../Firmware/RISCV/drivers/core_feature_base.h ****                      : "r"(__v)                                \
 520:../Firmware/RISCV/drivers/core_feature_base.h ****                      : "memory");                               \
 521:../Firmware/RISCV/drivers/core_feature_base.h ****         __v;                                                    \
 522:../Firmware/RISCV/drivers/core_feature_base.h ****     })
 523:../Firmware/RISCV/drivers/core_feature_base.h **** 
 524:../Firmware/RISCV/drivers/core_feature_base.h **** /**
 525:../Firmware/RISCV/drivers/core_feature_base.h ****  * \brief CSR operation Macro for csrs instruction.
 526:../Firmware/RISCV/drivers/core_feature_base.h ****  * \details
 527:../Firmware/RISCV/drivers/core_feature_base.h ****  * Set csr register to be csr_content | val
 528:../Firmware/RISCV/drivers/core_feature_base.h ****  * \param csr   CSR macro definition defined in
 529:../Firmware/RISCV/drivers/core_feature_base.h ****  *              \ref NMSIS_Core_CSR_Registers, eg. \ref CSR_MSTATUS
 530:../Firmware/RISCV/drivers/core_feature_base.h ****  * \param val   Mask value to be used wih csrs instruction
 531:../Firmware/RISCV/drivers/core_feature_base.h ****  */
 532:../Firmware/RISCV/drivers/core_feature_base.h **** #define __RV_CSR_SET(csr, val)                                  \
 533:../Firmware/RISCV/drivers/core_feature_base.h ****     ({                                                          \
 534:../Firmware/RISCV/drivers/core_feature_base.h ****         register rv_csr_t __v = (rv_csr_t)(val);                \
 535:../Firmware/RISCV/drivers/core_feature_base.h ****         __ASM volatile("csrs " STRINGIFY(csr) ", %0"            \
 536:../Firmware/RISCV/drivers/core_feature_base.h ****                      :                                          \
 537:../Firmware/RISCV/drivers/core_feature_base.h ****                      : "r"(__v)                                \
 538:../Firmware/RISCV/drivers/core_feature_base.h ****                      : "memory");                               \
 539:../Firmware/RISCV/drivers/core_feature_base.h ****     })
 540:../Firmware/RISCV/drivers/core_feature_base.h **** 
 541:../Firmware/RISCV/drivers/core_feature_base.h **** /**
 542:../Firmware/RISCV/drivers/core_feature_base.h ****  * \brief CSR operation Macro for csrrc instruction.
 543:../Firmware/RISCV/drivers/core_feature_base.h ****  * \details
 544:../Firmware/RISCV/drivers/core_feature_base.h ****  * Read the content of csr register to __v,
 545:../Firmware/RISCV/drivers/core_feature_base.h ****  * then set csr register to be __v & ~val, then return __v
 546:../Firmware/RISCV/drivers/core_feature_base.h ****  * \param csr   CSR macro definition defined in
 547:../Firmware/RISCV/drivers/core_feature_base.h ****  *              \ref NMSIS_Core_CSR_Registers, eg. \ref CSR_MSTATUS
 548:../Firmware/RISCV/drivers/core_feature_base.h ****  * \param val   Mask value to be used wih csrrc instruction
 549:../Firmware/RISCV/drivers/core_feature_base.h ****  * \return the CSR register value before written
 550:../Firmware/RISCV/drivers/core_feature_base.h ****  */
 551:../Firmware/RISCV/drivers/core_feature_base.h **** #define __RV_CSR_READ_CLEAR(csr, val)                           \
 552:../Firmware/RISCV/drivers/core_feature_base.h ****     ({                                                          \
 553:../Firmware/RISCV/drivers/core_feature_base.h ****         register rv_csr_t __v = (rv_csr_t)(val);                \
 554:../Firmware/RISCV/drivers/core_feature_base.h ****         __ASM volatile("csrrc %0, " STRINGIFY(csr) ", %1"       \
 555:../Firmware/RISCV/drivers/core_feature_base.h ****                      : "=r"(__v)                                \
 556:../Firmware/RISCV/drivers/core_feature_base.h ****                      : "r"(__v)                                \
 557:../Firmware/RISCV/drivers/core_feature_base.h ****                      : "memory");                               \
 558:../Firmware/RISCV/drivers/core_feature_base.h ****         __v;                                                    \
 559:../Firmware/RISCV/drivers/core_feature_base.h ****     })
 560:../Firmware/RISCV/drivers/core_feature_base.h **** 
 561:../Firmware/RISCV/drivers/core_feature_base.h **** /**
 562:../Firmware/RISCV/drivers/core_feature_base.h ****  * \brief CSR operation Macro for csrc instruction.
 563:../Firmware/RISCV/drivers/core_feature_base.h ****  * \details
 564:../Firmware/RISCV/drivers/core_feature_base.h ****  * Set csr register to be csr_content & ~val
 565:../Firmware/RISCV/drivers/core_feature_base.h ****  * \param csr   CSR macro definition defined in
 566:../Firmware/RISCV/drivers/core_feature_base.h ****  *              \ref NMSIS_Core_CSR_Registers, eg. \ref CSR_MSTATUS
 567:../Firmware/RISCV/drivers/core_feature_base.h ****  * \param val   Mask value to be used wih csrc instruction
 568:../Firmware/RISCV/drivers/core_feature_base.h ****  */
 569:../Firmware/RISCV/drivers/core_feature_base.h **** #define __RV_CSR_CLEAR(csr, val)                                \
 570:../Firmware/RISCV/drivers/core_feature_base.h ****     ({                                                          \
 571:../Firmware/RISCV/drivers/core_feature_base.h ****         register rv_csr_t __v = (rv_csr_t)(val);                \
 572:../Firmware/RISCV/drivers/core_feature_base.h ****         __ASM volatile("csrc " STRINGIFY(csr) ", %0"            \
 573:../Firmware/RISCV/drivers/core_feature_base.h ****                      :                                          \
 574:../Firmware/RISCV/drivers/core_feature_base.h ****                      : "r"(__v)                                \
 575:../Firmware/RISCV/drivers/core_feature_base.h ****                      : "memory");                               \
 576:../Firmware/RISCV/drivers/core_feature_base.h ****     })
 577:../Firmware/RISCV/drivers/core_feature_base.h **** #endif /* __ASSEMBLY__ */
 578:../Firmware/RISCV/drivers/core_feature_base.h **** 
 579:../Firmware/RISCV/drivers/core_feature_base.h **** /**
 580:../Firmware/RISCV/drivers/core_feature_base.h ****  * \brief   Enable IRQ Interrupts
 581:../Firmware/RISCV/drivers/core_feature_base.h ****  * \details Enables IRQ interrupts by setting the MIE-bit in the MSTATUS Register.
 582:../Firmware/RISCV/drivers/core_feature_base.h ****  * \remarks
 583:../Firmware/RISCV/drivers/core_feature_base.h ****  *          Can only be executed in Privileged modes.
 584:../Firmware/RISCV/drivers/core_feature_base.h ****  */
 585:../Firmware/RISCV/drivers/core_feature_base.h **** __STATIC_FORCEINLINE void __enable_irq(void)
 586:../Firmware/RISCV/drivers/core_feature_base.h **** {
 587:../Firmware/RISCV/drivers/core_feature_base.h ****     __RV_CSR_SET(CSR_MSTATUS, MSTATUS_MIE);
 588:../Firmware/RISCV/drivers/core_feature_base.h **** }
 589:../Firmware/RISCV/drivers/core_feature_base.h **** 
 590:../Firmware/RISCV/drivers/core_feature_base.h **** /**
 591:../Firmware/RISCV/drivers/core_feature_base.h ****  * \brief   Disable IRQ Interrupts
 592:../Firmware/RISCV/drivers/core_feature_base.h ****  * \details Disables IRQ interrupts by clearing the MIE-bit in the MSTATUS Register.
 593:../Firmware/RISCV/drivers/core_feature_base.h ****  * \remarks
 594:../Firmware/RISCV/drivers/core_feature_base.h ****  *          Can only be executed in Privileged modes.
 595:../Firmware/RISCV/drivers/core_feature_base.h ****  */
 596:../Firmware/RISCV/drivers/core_feature_base.h **** __STATIC_FORCEINLINE void __disable_irq(void)
 597:../Firmware/RISCV/drivers/core_feature_base.h **** {
 598:../Firmware/RISCV/drivers/core_feature_base.h ****     __RV_CSR_CLEAR(CSR_MSTATUS, MSTATUS_MIE);
 599:../Firmware/RISCV/drivers/core_feature_base.h **** }
 600:../Firmware/RISCV/drivers/core_feature_base.h **** 
 601:../Firmware/RISCV/drivers/core_feature_base.h **** /**
 602:../Firmware/RISCV/drivers/core_feature_base.h ****  * \brief   Read whole 64 bits value of mcycle counter
 603:../Firmware/RISCV/drivers/core_feature_base.h ****  * \details This function will read the whole 64 bits of MCYCLE register
 604:../Firmware/RISCV/drivers/core_feature_base.h ****  * \return  The whole 64 bits value of MCYCLE
 605:../Firmware/RISCV/drivers/core_feature_base.h ****  * \remarks It will work for both RV32 and RV64 to get full 64bits value of MCYCLE
 606:../Firmware/RISCV/drivers/core_feature_base.h ****  */
 607:../Firmware/RISCV/drivers/core_feature_base.h **** __STATIC_FORCEINLINE uint64_t __get_rv_cycle(void)
 608:../Firmware/RISCV/drivers/core_feature_base.h **** {
 609:../Firmware/RISCV/drivers/core_feature_base.h **** #if __RISCV_XLEN == 32
 610:../Firmware/RISCV/drivers/core_feature_base.h ****     volatile uint32_t high0, low, high;
 611:../Firmware/RISCV/drivers/core_feature_base.h ****     uint64_t full;
 612:../Firmware/RISCV/drivers/core_feature_base.h **** 
 613:../Firmware/RISCV/drivers/core_feature_base.h ****     high0 = __RV_CSR_READ(CSR_MCYCLEH);
 614:../Firmware/RISCV/drivers/core_feature_base.h ****     low = __RV_CSR_READ(CSR_MCYCLE);
 615:../Firmware/RISCV/drivers/core_feature_base.h ****     high = __RV_CSR_READ(CSR_MCYCLEH);
 616:../Firmware/RISCV/drivers/core_feature_base.h ****     if (high0 != high) {
 617:../Firmware/RISCV/drivers/core_feature_base.h ****         low = __RV_CSR_READ(CSR_MCYCLE);
 618:../Firmware/RISCV/drivers/core_feature_base.h ****     }
 619:../Firmware/RISCV/drivers/core_feature_base.h ****     full = (((uint64_t)high) << 32) | low;
 620:../Firmware/RISCV/drivers/core_feature_base.h ****     return full;
 621:../Firmware/RISCV/drivers/core_feature_base.h **** #elif __RISCV_XLEN == 64
 622:../Firmware/RISCV/drivers/core_feature_base.h ****     return (uint64_t)__RV_CSR_READ(CSR_MCYCLE);
 623:../Firmware/RISCV/drivers/core_feature_base.h **** #else // TODO Need cover for XLEN=128 case in future
 624:../Firmware/RISCV/drivers/core_feature_base.h ****     return (uint64_t)__RV_CSR_READ(CSR_MCYCLE);
 625:../Firmware/RISCV/drivers/core_feature_base.h **** #endif
 626:../Firmware/RISCV/drivers/core_feature_base.h **** }
 627:../Firmware/RISCV/drivers/core_feature_base.h **** 
 628:../Firmware/RISCV/drivers/core_feature_base.h **** /**
 629:../Firmware/RISCV/drivers/core_feature_base.h ****  * \brief   Read whole 64 bits value of machine instruction-retired counter
 630:../Firmware/RISCV/drivers/core_feature_base.h ****  * \details This function will read the whole 64 bits of MINSTRET register
 631:../Firmware/RISCV/drivers/core_feature_base.h ****  * \return  The whole 64 bits value of MINSTRET
 632:../Firmware/RISCV/drivers/core_feature_base.h ****  * \remarks It will work for both RV32 and RV64 to get full 64bits value of MINSTRET
 633:../Firmware/RISCV/drivers/core_feature_base.h ****  */
 634:../Firmware/RISCV/drivers/core_feature_base.h **** __STATIC_FORCEINLINE uint64_t __get_rv_instret(void)
 635:../Firmware/RISCV/drivers/core_feature_base.h **** {
 636:../Firmware/RISCV/drivers/core_feature_base.h **** #if __RISCV_XLEN == 32
 637:../Firmware/RISCV/drivers/core_feature_base.h ****     volatile uint32_t high0, low, high;
 638:../Firmware/RISCV/drivers/core_feature_base.h ****     uint64_t full;
 639:../Firmware/RISCV/drivers/core_feature_base.h **** 
 640:../Firmware/RISCV/drivers/core_feature_base.h ****     high0 = __RV_CSR_READ(CSR_MINSTRETH);
 641:../Firmware/RISCV/drivers/core_feature_base.h ****     low = __RV_CSR_READ(CSR_MINSTRET);
 642:../Firmware/RISCV/drivers/core_feature_base.h ****     high = __RV_CSR_READ(CSR_MINSTRETH);
 643:../Firmware/RISCV/drivers/core_feature_base.h ****     if (high0 != high) {
 644:../Firmware/RISCV/drivers/core_feature_base.h ****         low = __RV_CSR_READ(CSR_MINSTRET);
 645:../Firmware/RISCV/drivers/core_feature_base.h ****     }
 646:../Firmware/RISCV/drivers/core_feature_base.h ****     full = (((uint64_t)high) << 32) | low;
 647:../Firmware/RISCV/drivers/core_feature_base.h ****     return full;
 648:../Firmware/RISCV/drivers/core_feature_base.h **** #elif __RISCV_XLEN == 64
 649:../Firmware/RISCV/drivers/core_feature_base.h ****     return (uint64_t)__RV_CSR_READ(CSR_MINSTRET);
 650:../Firmware/RISCV/drivers/core_feature_base.h **** #else // TODO Need cover for XLEN=128 case in future
 651:../Firmware/RISCV/drivers/core_feature_base.h ****     return (uint64_t)__RV_CSR_READ(CSR_MINSTRET);
 652:../Firmware/RISCV/drivers/core_feature_base.h **** #endif
 653:../Firmware/RISCV/drivers/core_feature_base.h **** }
 654:../Firmware/RISCV/drivers/core_feature_base.h **** 
 655:../Firmware/RISCV/drivers/core_feature_base.h **** /**
 656:../Firmware/RISCV/drivers/core_feature_base.h ****  * \brief   Read whole 64 bits value of real-time clock
 657:../Firmware/RISCV/drivers/core_feature_base.h ****  * \details This function will read the whole 64 bits of TIME register
 658:../Firmware/RISCV/drivers/core_feature_base.h ****  * \return  The whole 64 bits value of TIME CSR
 659:../Firmware/RISCV/drivers/core_feature_base.h ****  * \remarks It will work for both RV32 and RV64 to get full 64bits value of TIME
 660:../Firmware/RISCV/drivers/core_feature_base.h ****  * \attention only available when user mode available
 661:../Firmware/RISCV/drivers/core_feature_base.h ****  */
 662:../Firmware/RISCV/drivers/core_feature_base.h **** __STATIC_FORCEINLINE uint64_t __get_rv_time(void)
 663:../Firmware/RISCV/drivers/core_feature_base.h **** {
 664:../Firmware/RISCV/drivers/core_feature_base.h **** #if __RISCV_XLEN == 32
 665:../Firmware/RISCV/drivers/core_feature_base.h ****     volatile uint32_t high0, low, high;
 666:../Firmware/RISCV/drivers/core_feature_base.h ****     uint64_t full;
 667:../Firmware/RISCV/drivers/core_feature_base.h **** 
 668:../Firmware/RISCV/drivers/core_feature_base.h ****     high0 = __RV_CSR_READ(CSR_TIMEH);
 669:../Firmware/RISCV/drivers/core_feature_base.h ****     low = __RV_CSR_READ(CSR_TIME);
 670:../Firmware/RISCV/drivers/core_feature_base.h ****     high = __RV_CSR_READ(CSR_TIMEH);
 671:../Firmware/RISCV/drivers/core_feature_base.h ****     if (high0 != high) {
 672:../Firmware/RISCV/drivers/core_feature_base.h ****         low = __RV_CSR_READ(CSR_TIME);
 673:../Firmware/RISCV/drivers/core_feature_base.h ****     }
 674:../Firmware/RISCV/drivers/core_feature_base.h ****     full = (((uint64_t)high) << 32) | low;
 675:../Firmware/RISCV/drivers/core_feature_base.h ****     return full;
 676:../Firmware/RISCV/drivers/core_feature_base.h **** #elif __RISCV_XLEN == 64
 677:../Firmware/RISCV/drivers/core_feature_base.h ****     return (uint64_t)__RV_CSR_READ(CSR_TIME);
 678:../Firmware/RISCV/drivers/core_feature_base.h **** #else // TODO Need cover for XLEN=128 case in future
 679:../Firmware/RISCV/drivers/core_feature_base.h ****     return (uint64_t)__RV_CSR_READ(CSR_TIME);
 680:../Firmware/RISCV/drivers/core_feature_base.h **** #endif
 681:../Firmware/RISCV/drivers/core_feature_base.h **** }
 682:../Firmware/RISCV/drivers/core_feature_base.h **** 
 683:../Firmware/RISCV/drivers/core_feature_base.h **** /** @} */ /* End of Doxygen Group NMSIS_Core_CSR_Register_Access */
 684:../Firmware/RISCV/drivers/core_feature_base.h **** 
 685:../Firmware/RISCV/drivers/core_feature_base.h **** /* ###########################  CPU Intrinsic Functions ########################### */
 686:../Firmware/RISCV/drivers/core_feature_base.h **** /**
 687:../Firmware/RISCV/drivers/core_feature_base.h ****  * \defgroup NMSIS_Core_CPU_Intrinsic   Intrinsic Functions for CPU Intructions
 688:../Firmware/RISCV/drivers/core_feature_base.h ****  * \ingroup  NMSIS_Core
 689:../Firmware/RISCV/drivers/core_feature_base.h ****  * \brief    Functions that generate RISC-V CPU instructions.
 690:../Firmware/RISCV/drivers/core_feature_base.h ****  * \details
 691:../Firmware/RISCV/drivers/core_feature_base.h ****  *
 692:../Firmware/RISCV/drivers/core_feature_base.h ****  * The following functions generate specified RISC-V instructions that cannot be directly accessed 
 693:../Firmware/RISCV/drivers/core_feature_base.h ****  *   @{
 694:../Firmware/RISCV/drivers/core_feature_base.h ****  */
 695:../Firmware/RISCV/drivers/core_feature_base.h **** 
 696:../Firmware/RISCV/drivers/core_feature_base.h **** /**
 697:../Firmware/RISCV/drivers/core_feature_base.h ****  * \brief   NOP Instruction
 698:../Firmware/RISCV/drivers/core_feature_base.h ****  * \details
 699:../Firmware/RISCV/drivers/core_feature_base.h ****  * No Operation does nothing.
 700:../Firmware/RISCV/drivers/core_feature_base.h ****  * This instruction can be used for code alignment purposes.
 701:../Firmware/RISCV/drivers/core_feature_base.h ****  */
 702:../Firmware/RISCV/drivers/core_feature_base.h **** __STATIC_FORCEINLINE void __NOP(void)
 703:../Firmware/RISCV/drivers/core_feature_base.h **** {
 704:../Firmware/RISCV/drivers/core_feature_base.h ****     __ASM volatile("nop");
 705:../Firmware/RISCV/drivers/core_feature_base.h **** }
 706:../Firmware/RISCV/drivers/core_feature_base.h **** 
 707:../Firmware/RISCV/drivers/core_feature_base.h **** /**
 708:../Firmware/RISCV/drivers/core_feature_base.h ****  * \brief   Wait For Interrupt
 709:../Firmware/RISCV/drivers/core_feature_base.h ****  * \details
 710:../Firmware/RISCV/drivers/core_feature_base.h ****  * Wait For Interrupt is is executed using CSR_WFE.WFE=0 and WFI instruction.
 711:../Firmware/RISCV/drivers/core_feature_base.h ****  * It will suspends execution until interrupt, NMI or Debug happened.
 712:../Firmware/RISCV/drivers/core_feature_base.h ****  * When Core is waked up by interrupt, if
 713:../Firmware/RISCV/drivers/core_feature_base.h ****  * 1. mstatus.MIE == 1(interrupt enabled), Core will enter ISR code
 714:../Firmware/RISCV/drivers/core_feature_base.h ****  * 2. mstatus.MIE == 0(interrupt disabled), Core will resume previous execution
 715:../Firmware/RISCV/drivers/core_feature_base.h ****  */
 716:../Firmware/RISCV/drivers/core_feature_base.h **** __STATIC_FORCEINLINE void __WFI(void)
 717:../Firmware/RISCV/drivers/core_feature_base.h **** {
 718:../Firmware/RISCV/drivers/core_feature_base.h ****     __RV_CSR_CLEAR(CSR_WFE, WFE_WFE);
 719:../Firmware/RISCV/drivers/core_feature_base.h ****     __ASM volatile("wfi");
 720:../Firmware/RISCV/drivers/core_feature_base.h **** }
 721:../Firmware/RISCV/drivers/core_feature_base.h **** 
 722:../Firmware/RISCV/drivers/core_feature_base.h **** /**
 723:../Firmware/RISCV/drivers/core_feature_base.h ****  * \brief   Wait For Event
 724:../Firmware/RISCV/drivers/core_feature_base.h ****  * \details
 725:../Firmware/RISCV/drivers/core_feature_base.h ****  * Wait For Event is executed using CSR_WFE.WFE=1 and WFI instruction.
 726:../Firmware/RISCV/drivers/core_feature_base.h ****  * It will suspends execution until event, NMI or Debug happened.
 727:../Firmware/RISCV/drivers/core_feature_base.h ****  * When Core is waked up, Core will resume previous execution
 728:../Firmware/RISCV/drivers/core_feature_base.h ****  */
 729:../Firmware/RISCV/drivers/core_feature_base.h **** __STATIC_FORCEINLINE void __WFE(void)
 730:../Firmware/RISCV/drivers/core_feature_base.h **** {
 731:../Firmware/RISCV/drivers/core_feature_base.h ****     __RV_CSR_SET(CSR_WFE, WFE_WFE);
 732:../Firmware/RISCV/drivers/core_feature_base.h ****     __ASM volatile("wfi");
 733:../Firmware/RISCV/drivers/core_feature_base.h ****     __RV_CSR_CLEAR(CSR_WFE, WFE_WFE);
 734:../Firmware/RISCV/drivers/core_feature_base.h **** }
 735:../Firmware/RISCV/drivers/core_feature_base.h **** 
 736:../Firmware/RISCV/drivers/core_feature_base.h **** /**
 737:../Firmware/RISCV/drivers/core_feature_base.h ****  * \brief   Breakpoint Instruction
 738:../Firmware/RISCV/drivers/core_feature_base.h ****  * \details
 739:../Firmware/RISCV/drivers/core_feature_base.h ****  * Causes the processor to enter Debug state.
 740:../Firmware/RISCV/drivers/core_feature_base.h ****  * Debug tools can use this to investigate system state
 741:../Firmware/RISCV/drivers/core_feature_base.h ****  * when the instruction at a particular address is reached.
 742:../Firmware/RISCV/drivers/core_feature_base.h ****  */
 743:../Firmware/RISCV/drivers/core_feature_base.h **** __STATIC_FORCEINLINE void __EBREAK(void)
 744:../Firmware/RISCV/drivers/core_feature_base.h **** {
 745:../Firmware/RISCV/drivers/core_feature_base.h ****     __ASM volatile("ebreak");
 746:../Firmware/RISCV/drivers/core_feature_base.h **** }
 747:../Firmware/RISCV/drivers/core_feature_base.h **** 
 748:../Firmware/RISCV/drivers/core_feature_base.h **** /**
 749:../Firmware/RISCV/drivers/core_feature_base.h ****  * \brief   Environment Call Instruction
 750:../Firmware/RISCV/drivers/core_feature_base.h ****  * \details
 751:../Firmware/RISCV/drivers/core_feature_base.h ****  * The ECALL instruction is used to make a service request to
 752:../Firmware/RISCV/drivers/core_feature_base.h ****  * the execution environment.
 753:../Firmware/RISCV/drivers/core_feature_base.h ****  */
 754:../Firmware/RISCV/drivers/core_feature_base.h **** __STATIC_FORCEINLINE void __ECALL(void)
 755:../Firmware/RISCV/drivers/core_feature_base.h **** {
 756:../Firmware/RISCV/drivers/core_feature_base.h ****     __ASM volatile("ecall");
 757:../Firmware/RISCV/drivers/core_feature_base.h **** }
 758:../Firmware/RISCV/drivers/core_feature_base.h **** 
 759:../Firmware/RISCV/drivers/core_feature_base.h **** /**
 760:../Firmware/RISCV/drivers/core_feature_base.h ****  * \brief WFI Sleep Mode enumeration
 761:../Firmware/RISCV/drivers/core_feature_base.h ****  */
 762:../Firmware/RISCV/drivers/core_feature_base.h **** typedef enum WFI_SleepMode {
 763:../Firmware/RISCV/drivers/core_feature_base.h ****     WFI_SHALLOW_SLEEP = 0,      /*!< Shallow sleep mode, the core_clk will poweroff */
 764:../Firmware/RISCV/drivers/core_feature_base.h ****     WFI_DEEP_SLEEP = 1          /*!< Deep sleep mode, the core_clk and core_ano_clk will poweroff *
 765:../Firmware/RISCV/drivers/core_feature_base.h **** } WFI_SleepMode_Type;
 766:../Firmware/RISCV/drivers/core_feature_base.h **** 
 767:../Firmware/RISCV/drivers/core_feature_base.h **** /**
 768:../Firmware/RISCV/drivers/core_feature_base.h ****  * \brief   Set Sleep mode of WFI
 769:../Firmware/RISCV/drivers/core_feature_base.h ****  * \details
 770:../Firmware/RISCV/drivers/core_feature_base.h ****  * Set the SLEEPVALUE CSR register to control the
 771:../Firmware/RISCV/drivers/core_feature_base.h ****  * WFI Sleep mode.
 772:../Firmware/RISCV/drivers/core_feature_base.h ****  * \param[in] mode      The sleep mode to be set
 773:../Firmware/RISCV/drivers/core_feature_base.h ****  */
 774:../Firmware/RISCV/drivers/core_feature_base.h **** __STATIC_FORCEINLINE void __set_wfi_sleepmode(WFI_SleepMode_Type mode)
 775:../Firmware/RISCV/drivers/core_feature_base.h **** {
 776:../Firmware/RISCV/drivers/core_feature_base.h ****     __RV_CSR_WRITE(CSR_SLEEPVALUE, mode);
 245              		.loc 2 776 5
 246 0012 8324C4FE 		lw	s1,-20(s0)
 247              	 #APP
 248              	# 776 "../Firmware/RISCV/drivers/core_feature_base.h" 1
 777              	}
 249              		csrw 0x811, s1
 250              	# 0 "" 2
 251              	 #NO_APP
 252              	.LBE55:
 253              		.loc 2 777 1
 254 001a 0100     		nop
 255              	.LBE54:
 256              	.LBE53:
 133:../Firmware/GD32VW55x_standard_peripheral/Source/gd32vw55x_pmu.c ****     /* clear sleepdeep bit of RISC-V system control register */
 134:../Firmware/GD32VW55x_standard_peripheral/Source/gd32vw55x_pmu.c ****     __set_wfi_sleepmode(WFI_SHALLOW_SLEEP);
 135:../Firmware/GD32VW55x_standard_peripheral/Source/gd32vw55x_pmu.c **** 
 136:../Firmware/GD32VW55x_standard_peripheral/Source/gd32vw55x_pmu.c ****     /* select WFI or WFE command to enter sleep mode */
 137:../Firmware/GD32VW55x_standard_peripheral/Source/gd32vw55x_pmu.c ****     if(WFI_CMD == sleepmodecmd){
 257              		.loc 1 137 7
 258 001c 8347F4FD 		lbu	a5,-33(s0)
 259 0020 99E7     		bne	a5,zero,.L8
 260              	.LBB56:
 261              	.LBB57:
 262              	.LBB58:
 718:../Firmware/RISCV/drivers/core_feature_base.h ****     __ASM volatile("wfi");
 263              		.loc 2 718 5
 264 0022 8544     		li	s1,1
 265              	 #APP
 266              	# 718 "../Firmware/RISCV/drivers/core_feature_base.h" 1
 267              		csrc 0x810, s1
 268              	# 0 "" 2
 269              	 #NO_APP
 270              	.LBE58:
 719:../Firmware/RISCV/drivers/core_feature_base.h **** }
 271              		.loc 2 719 5
 272              	 #APP
 273              	# 719 "../Firmware/RISCV/drivers/core_feature_base.h" 1
 720:../Firmware/RISCV/drivers/core_feature_base.h **** 
 274              		wfi
 275              	# 0 "" 2
 276              		.loc 2 720 1
 277              	 #NO_APP
 278 002c 15A0     		j	.L9
 279              	.L8:
 280              	.LBE57:
 281              	.LBE56:
 282              	.LBB59:
 283              	.LBB60:
 284              	.LBB61:
 598:../Firmware/RISCV/drivers/core_feature_base.h **** }
 285              		.loc 2 598 5
 286 002e A144     		li	s1,8
 287              	 #APP
 288              	# 598 "../Firmware/RISCV/drivers/core_feature_base.h" 1
 289              		csrc 0x300, s1
 290              	# 0 "" 2
 291              	 #NO_APP
 292              	.LBE61:
 599:../Firmware/RISCV/drivers/core_feature_base.h **** 
 293              		.loc 2 599 1
 294 0034 0100     		nop
 295              	.LBE60:
 296              	.LBE59:
 297              	.LBB62:
 298              	.LBB63:
 299              	.LBB64:
 731:../Firmware/RISCV/drivers/core_feature_base.h ****     __ASM volatile("wfi");
 300              		.loc 2 731 5
 301 0036 8544     		li	s1,1
 302              	 #APP
 303              	# 731 "../Firmware/RISCV/drivers/core_feature_base.h" 1
 304              		csrs 0x810, s1
 305              	# 0 "" 2
 306              	 #NO_APP
 307              	.LBE64:
 732:../Firmware/RISCV/drivers/core_feature_base.h ****     __RV_CSR_CLEAR(CSR_WFE, WFE_WFE);
 308              		.loc 2 732 5
 309              	 #APP
 310              	# 732 "../Firmware/RISCV/drivers/core_feature_base.h" 1
 311              		wfi
 312              	# 0 "" 2
 313              	 #NO_APP
 314              	.LBB65:
 733:../Firmware/RISCV/drivers/core_feature_base.h **** }
 315              		.loc 2 733 5
 316 0040 8544     		li	s1,1
 317              	 #APP
 318              	# 733 "../Firmware/RISCV/drivers/core_feature_base.h" 1
 319              		csrc 0x810, s1
 320              	# 0 "" 2
 321              	 #NO_APP
 322              	.LBE65:
 734:../Firmware/RISCV/drivers/core_feature_base.h **** 
 323              		.loc 2 734 1
 324 0046 0100     		nop
 325              	.LBE63:
 326              	.LBE62:
 327              	.LBB66:
 328              	.LBB67:
 329              	.LBB68:
 587:../Firmware/RISCV/drivers/core_feature_base.h **** }
 330              		.loc 2 587 5
 331 0048 A144     		li	s1,8
 332              	 #APP
 333              	# 587 "../Firmware/RISCV/drivers/core_feature_base.h" 1
 334              		csrs 0x300, s1
 335              	# 0 "" 2
 336              	 #NO_APP
 337              	.LBE68:
 588:../Firmware/RISCV/drivers/core_feature_base.h **** 
 338              		.loc 2 588 1
 339 004e 0100     		nop
 340              	.L9:
 341              	.LBE67:
 342              	.LBE66:
 138:../Firmware/GD32VW55x_standard_peripheral/Source/gd32vw55x_pmu.c ****         __WFI();
 139:../Firmware/GD32VW55x_standard_peripheral/Source/gd32vw55x_pmu.c ****     }else{
 140:../Firmware/GD32VW55x_standard_peripheral/Source/gd32vw55x_pmu.c ****         __disable_irq();
 141:../Firmware/GD32VW55x_standard_peripheral/Source/gd32vw55x_pmu.c ****         __WFE();
 142:../Firmware/GD32VW55x_standard_peripheral/Source/gd32vw55x_pmu.c ****         __enable_irq();
 143:../Firmware/GD32VW55x_standard_peripheral/Source/gd32vw55x_pmu.c ****     }
 144:../Firmware/GD32VW55x_standard_peripheral/Source/gd32vw55x_pmu.c **** }
 343              		.loc 1 144 1
 344 0050 0100     		nop
 345 0052 3254     		lw	s0,44(sp)
 346              		.cfi_restore 8
 347              		.cfi_def_cfa 2, 48
 348 0054 A254     		lw	s1,40(sp)
 349              		.cfi_restore 9
 350 0056 4561     		addi	sp,sp,48
 351              		.cfi_def_cfa_offset 0
 352 0058 8280     		jr	ra
 353              		.cfi_endproc
 354              	.LFE353:
 356              		.section	.text.pmu_to_deepsleepmode,"ax",@progbits
 357              		.align	1
 358              		.globl	pmu_to_deepsleepmode
 360              	pmu_to_deepsleepmode:
 361              	.LFB354:
 145:../Firmware/GD32VW55x_standard_peripheral/Source/gd32vw55x_pmu.c **** 
 146:../Firmware/GD32VW55x_standard_peripheral/Source/gd32vw55x_pmu.c **** /*!
 147:../Firmware/GD32VW55x_standard_peripheral/Source/gd32vw55x_pmu.c ****     \brief      PMU work in deep-sleep mode
 148:../Firmware/GD32VW55x_standard_peripheral/Source/gd32vw55x_pmu.c ****     \param[in]  ldo:
 149:../Firmware/GD32VW55x_standard_peripheral/Source/gd32vw55x_pmu.c ****                 only one parameter can be selected which is shown as below:
 150:../Firmware/GD32VW55x_standard_peripheral/Source/gd32vw55x_pmu.c ****       \arg        PMU_LDO_NORMAL: LDO normal work when PMU enter deepsleep mode
 151:../Firmware/GD32VW55x_standard_peripheral/Source/gd32vw55x_pmu.c ****       \arg        PMU_LDO_LOWPOWER: LDO work at low power mode when PMU enter deepsleep mode
 152:../Firmware/GD32VW55x_standard_peripheral/Source/gd32vw55x_pmu.c ****     \param[in]  lowdrive:
 153:../Firmware/GD32VW55x_standard_peripheral/Source/gd32vw55x_pmu.c ****                 only one parameter can be selected which is shown as below:
 154:../Firmware/GD32VW55x_standard_peripheral/Source/gd32vw55x_pmu.c ****       \arg        PMU_LOWDRIVER_DISABLE: Low-driver mode disable in deep-sleep mode
 155:../Firmware/GD32VW55x_standard_peripheral/Source/gd32vw55x_pmu.c ****       \arg        PMU_LOWDRIVER_ENABLE: Low-driver mode enable in deep-sleep mode
 156:../Firmware/GD32VW55x_standard_peripheral/Source/gd32vw55x_pmu.c ****     \param[in]  deepsleepmodecmd:
 157:../Firmware/GD32VW55x_standard_peripheral/Source/gd32vw55x_pmu.c ****                 only one parameter can be selected which is shown as below:
 158:../Firmware/GD32VW55x_standard_peripheral/Source/gd32vw55x_pmu.c ****       \arg        WFI_CMD: use WFI command
 159:../Firmware/GD32VW55x_standard_peripheral/Source/gd32vw55x_pmu.c ****       \arg        WFE_CMD: use WFE command
 160:../Firmware/GD32VW55x_standard_peripheral/Source/gd32vw55x_pmu.c ****     \param[out] none
 161:../Firmware/GD32VW55x_standard_peripheral/Source/gd32vw55x_pmu.c ****     \retval     none
 162:../Firmware/GD32VW55x_standard_peripheral/Source/gd32vw55x_pmu.c **** */
 163:../Firmware/GD32VW55x_standard_peripheral/Source/gd32vw55x_pmu.c **** void pmu_to_deepsleepmode(uint32_t ldo, uint32_t lowdrive, uint8_t deepsleepmodecmd)
 164:../Firmware/GD32VW55x_standard_peripheral/Source/gd32vw55x_pmu.c **** {
 362              		.loc 1 164 1
 363              		.cfi_startproc
 364 0000 7971     		addi	sp,sp,-48
 365              		.cfi_def_cfa_offset 48
 366 0002 22D6     		sw	s0,44(sp)
 367 0004 26D4     		sw	s1,40(sp)
 368              		.cfi_offset 8, -4
 369              		.cfi_offset 9, -8
 370 0006 0018     		addi	s0,sp,48
 371              		.cfi_def_cfa 8, 0
 372 0008 232EA4FC 		sw	a0,-36(s0)
 373 000c 232CB4FC 		sw	a1,-40(s0)
 374 0010 B287     		mv	a5,a2
 375 0012 A30BF4FC 		sb	a5,-41(s0)
 165:../Firmware/GD32VW55x_standard_peripheral/Source/gd32vw55x_pmu.c ****     /* clear stbmod and ldolp bits and low drive bits */
 166:../Firmware/GD32VW55x_standard_peripheral/Source/gd32vw55x_pmu.c ****     PMU_CTL0 &= ~((uint32_t)(PMU_CTL0_STBMOD | PMU_CTL0_LDOLP | PMU_CTL0_LDEN | PMU_CTL0_LDNP | PMU
 376              		.loc 1 166 14
 377 0016 B7770040 		li	a5,1073770496
 378 001a 9443     		lw	a3,0(a5)
 379 001c B7770040 		li	a5,1073770496
 380 0020 37F7F3FF 		li	a4,-790528
 381 0024 1307C73F 		addi	a4,a4,1020
 382 0028 758F     		and	a4,a3,a4
 383 002a 98C3     		sw	a4,0(a5)
 167:../Firmware/GD32VW55x_standard_peripheral/Source/gd32vw55x_pmu.c **** 
 168:../Firmware/GD32VW55x_standard_peripheral/Source/gd32vw55x_pmu.c ****     /* set ldolp bit according to pmu_ldo */
 169:../Firmware/GD32VW55x_standard_peripheral/Source/gd32vw55x_pmu.c ****     PMU_CTL0 |= ldo;
 384              		.loc 1 169 14
 385 002c B7770040 		li	a5,1073770496
 386 0030 9443     		lw	a3,0(a5)
 387 0032 B7770040 		li	a5,1073770496
 388 0036 0327C4FD 		lw	a4,-36(s0)
 389 003a 558F     		or	a4,a3,a4
 390 003c 98C3     		sw	a4,0(a5)
 170:../Firmware/GD32VW55x_standard_peripheral/Source/gd32vw55x_pmu.c **** 
 171:../Firmware/GD32VW55x_standard_peripheral/Source/gd32vw55x_pmu.c ****     /* low drive mode config in deep-sleep mode */
 172:../Firmware/GD32VW55x_standard_peripheral/Source/gd32vw55x_pmu.c ****     if(PMU_LOWDRIVER_ENABLE == lowdrive){
 391              		.loc 1 172 7
 392 003e 032784FD 		lw	a4,-40(s0)
 393 0042 B7070C00 		li	a5,786432
 394 0046 631CF702 		bne	a4,a5,.L11
 173:../Firmware/GD32VW55x_standard_peripheral/Source/gd32vw55x_pmu.c ****         if(PMU_LDO_NORMAL == ldo){
 395              		.loc 1 173 11
 396 004a 8327C4FD 		lw	a5,-36(s0)
 397 004e 89EF     		bne	a5,zero,.L12
 174:../Firmware/GD32VW55x_standard_peripheral/Source/gd32vw55x_pmu.c ****             PMU_CTL0 |= (uint32_t)(PMU_CTL0_LDEN | PMU_CTL0_LDNP);
 398              		.loc 1 174 22
 399 0050 B7770040 		li	a5,1073770496
 400 0054 9443     		lw	a3,0(a5)
 401 0056 B7770040 		li	a5,1073770496
 402 005a 37170C00 		li	a4,790528
 403 005e 13070780 		addi	a4,a4,-2048
 404 0062 558F     		or	a4,a3,a4
 405 0064 98C3     		sw	a4,0(a5)
 406 0066 21A8     		j	.L11
 407              	.L12:
 175:../Firmware/GD32VW55x_standard_peripheral/Source/gd32vw55x_pmu.c ****         }else{
 176:../Firmware/GD32VW55x_standard_peripheral/Source/gd32vw55x_pmu.c ****             PMU_CTL0 |= (uint32_t)(PMU_CTL0_LDEN | PMU_CTL0_LDLP);
 408              		.loc 1 176 22
 409 0068 B7770040 		li	a5,1073770496
 410 006c 9443     		lw	a3,0(a5)
 411 006e B7770040 		li	a5,1073770496
 412 0072 37070C00 		li	a4,786432
 413 0076 13070740 		addi	a4,a4,1024
 414 007a 558F     		or	a4,a3,a4
 415 007c 98C3     		sw	a4,0(a5)
 416              	.L11:
 417 007e 8547     		li	a5,1
 418 0080 2326F4FE 		sw	a5,-20(s0)
 419              	.LBB69:
 420              	.LBB70:
 421              	.LBB71:
 776:../Firmware/RISCV/drivers/core_feature_base.h **** }
 422              		.loc 2 776 5
 423 0084 8324C4FE 		lw	s1,-20(s0)
 424              	 #APP
 425              	# 776 "../Firmware/RISCV/drivers/core_feature_base.h" 1
 426              		csrw 0x811, s1
 427              	# 0 "" 2
 428              	 #NO_APP
 429              	.LBE71:
 430              		.loc 2 777 1
 431 008c 0100     		nop
 432              	.LBE70:
 433              	.LBE69:
 177:../Firmware/GD32VW55x_standard_peripheral/Source/gd32vw55x_pmu.c ****         }
 178:../Firmware/GD32VW55x_standard_peripheral/Source/gd32vw55x_pmu.c ****     }
 179:../Firmware/GD32VW55x_standard_peripheral/Source/gd32vw55x_pmu.c **** 
 180:../Firmware/GD32VW55x_standard_peripheral/Source/gd32vw55x_pmu.c ****     /* set CSR_SLEEPVALUE bit of RISC-V system control register */
 181:../Firmware/GD32VW55x_standard_peripheral/Source/gd32vw55x_pmu.c ****     __set_wfi_sleepmode(WFI_DEEP_SLEEP);
 182:../Firmware/GD32VW55x_standard_peripheral/Source/gd32vw55x_pmu.c **** 
 183:../Firmware/GD32VW55x_standard_peripheral/Source/gd32vw55x_pmu.c ****     /* select WFI or WFE command to enter deepsleep mode */
 184:../Firmware/GD32VW55x_standard_peripheral/Source/gd32vw55x_pmu.c ****     if(WFI_CMD == deepsleepmodecmd){
 434              		.loc 1 184 7
 435 008e 834774FD 		lbu	a5,-41(s0)
 436 0092 99E7     		bne	a5,zero,.L13
 437              	.LBB72:
 438              	.LBB73:
 439              	.LBB74:
 718:../Firmware/RISCV/drivers/core_feature_base.h ****     __ASM volatile("wfi");
 440              		.loc 2 718 5
 441 0094 8544     		li	s1,1
 442              	 #APP
 443              	# 718 "../Firmware/RISCV/drivers/core_feature_base.h" 1
 444              		csrc 0x810, s1
 445              	# 0 "" 2
 446              	 #NO_APP
 447              	.LBE74:
 719:../Firmware/RISCV/drivers/core_feature_base.h **** }
 448              		.loc 2 719 5
 449              	 #APP
 450              	# 719 "../Firmware/RISCV/drivers/core_feature_base.h" 1
 720:../Firmware/RISCV/drivers/core_feature_base.h **** 
 451              		wfi
 452              	# 0 "" 2
 453              		.loc 2 720 1
 454              	 #NO_APP
 455 009e 15A0     		j	.L14
 456              	.L13:
 457              	.LBE73:
 458              	.LBE72:
 459              	.LBB75:
 460              	.LBB76:
 461              	.LBB77:
 598:../Firmware/RISCV/drivers/core_feature_base.h **** }
 462              		.loc 2 598 5
 463 00a0 A144     		li	s1,8
 464              	 #APP
 465              	# 598 "../Firmware/RISCV/drivers/core_feature_base.h" 1
 466              		csrc 0x300, s1
 467              	# 0 "" 2
 468              	 #NO_APP
 469              	.LBE77:
 599:../Firmware/RISCV/drivers/core_feature_base.h **** 
 470              		.loc 2 599 1
 471 00a6 0100     		nop
 472              	.LBE76:
 473              	.LBE75:
 474              	.LBB78:
 475              	.LBB79:
 476              	.LBB80:
 731:../Firmware/RISCV/drivers/core_feature_base.h ****     __ASM volatile("wfi");
 477              		.loc 2 731 5
 478 00a8 8544     		li	s1,1
 479              	 #APP
 480              	# 731 "../Firmware/RISCV/drivers/core_feature_base.h" 1
 481              		csrs 0x810, s1
 482              	# 0 "" 2
 483              	 #NO_APP
 484              	.LBE80:
 732:../Firmware/RISCV/drivers/core_feature_base.h ****     __RV_CSR_CLEAR(CSR_WFE, WFE_WFE);
 485              		.loc 2 732 5
 486              	 #APP
 487              	# 732 "../Firmware/RISCV/drivers/core_feature_base.h" 1
 488              		wfi
 489              	# 0 "" 2
 490              	 #NO_APP
 491              	.LBB81:
 733:../Firmware/RISCV/drivers/core_feature_base.h **** }
 492              		.loc 2 733 5
 493 00b2 8544     		li	s1,1
 494              	 #APP
 495              	# 733 "../Firmware/RISCV/drivers/core_feature_base.h" 1
 496              		csrc 0x810, s1
 497              	# 0 "" 2
 498              	 #NO_APP
 499              	.LBE81:
 734:../Firmware/RISCV/drivers/core_feature_base.h **** 
 500              		.loc 2 734 1
 501 00b8 0100     		nop
 502              	.LBE79:
 503              	.LBE78:
 504              	.LBB82:
 505              	.LBB83:
 506              	.LBB84:
 587:../Firmware/RISCV/drivers/core_feature_base.h **** }
 507              		.loc 2 587 5
 508 00ba A144     		li	s1,8
 509              	 #APP
 510              	# 587 "../Firmware/RISCV/drivers/core_feature_base.h" 1
 511              		csrs 0x300, s1
 512              	# 0 "" 2
 513              	 #NO_APP
 514              	.LBE84:
 588:../Firmware/RISCV/drivers/core_feature_base.h **** 
 515              		.loc 2 588 1
 516 00c0 0100     		nop
 517              	.L14:
 518 00c2 232404FE 		sw	zero,-24(s0)
 519              	.LBE83:
 520              	.LBE82:
 521              	.LBB85:
 522              	.LBB86:
 523              	.LBB87:
 776:../Firmware/RISCV/drivers/core_feature_base.h **** }
 524              		.loc 2 776 5
 525 00c6 832484FE 		lw	s1,-24(s0)
 526              	 #APP
 527              	# 776 "../Firmware/RISCV/drivers/core_feature_base.h" 1
 528              		csrw 0x811, s1
 529              	# 0 "" 2
 530              	 #NO_APP
 531              	.LBE87:
 532              		.loc 2 777 1
 533 00ce 0100     		nop
 534              	.LBE86:
 535              	.LBE85:
 185:../Firmware/GD32VW55x_standard_peripheral/Source/gd32vw55x_pmu.c ****         __WFI();
 186:../Firmware/GD32VW55x_standard_peripheral/Source/gd32vw55x_pmu.c ****     }else{
 187:../Firmware/GD32VW55x_standard_peripheral/Source/gd32vw55x_pmu.c ****         __disable_irq();
 188:../Firmware/GD32VW55x_standard_peripheral/Source/gd32vw55x_pmu.c ****         __WFE();
 189:../Firmware/GD32VW55x_standard_peripheral/Source/gd32vw55x_pmu.c ****         __enable_irq();
 190:../Firmware/GD32VW55x_standard_peripheral/Source/gd32vw55x_pmu.c ****     }
 191:../Firmware/GD32VW55x_standard_peripheral/Source/gd32vw55x_pmu.c ****     /* reset sleepdeep bit of RISC-V system control register */
 192:../Firmware/GD32VW55x_standard_peripheral/Source/gd32vw55x_pmu.c ****     __set_wfi_sleepmode(WFI_SHALLOW_SLEEP);
 193:../Firmware/GD32VW55x_standard_peripheral/Source/gd32vw55x_pmu.c **** }
 536              		.loc 1 193 1
 537 00d0 0100     		nop
 538 00d2 3254     		lw	s0,44(sp)
 539              		.cfi_restore 8
 540              		.cfi_def_cfa 2, 48
 541 00d4 A254     		lw	s1,40(sp)
 542              		.cfi_restore 9
 543 00d6 4561     		addi	sp,sp,48
 544              		.cfi_def_cfa_offset 0
 545 00d8 8280     		jr	ra
 546              		.cfi_endproc
 547              	.LFE354:
 549              		.section	.text.pmu_to_standbymode,"ax",@progbits
 550              		.align	1
 551              		.globl	pmu_to_standbymode
 553              	pmu_to_standbymode:
 554              	.LFB355:
 194:../Firmware/GD32VW55x_standard_peripheral/Source/gd32vw55x_pmu.c **** 
 195:../Firmware/GD32VW55x_standard_peripheral/Source/gd32vw55x_pmu.c **** /*!
 196:../Firmware/GD32VW55x_standard_peripheral/Source/gd32vw55x_pmu.c ****     \brief      PMU work in standby mode
 197:../Firmware/GD32VW55x_standard_peripheral/Source/gd32vw55x_pmu.c ****     \param[in]  standbymodecmd:
 198:../Firmware/GD32VW55x_standard_peripheral/Source/gd32vw55x_pmu.c ****                 only one parameter can be selected which is shown as below:
 199:../Firmware/GD32VW55x_standard_peripheral/Source/gd32vw55x_pmu.c ****       \arg        WFI_CMD: use WFI command
 200:../Firmware/GD32VW55x_standard_peripheral/Source/gd32vw55x_pmu.c ****       \arg        WFE_CMD: use WFE command
 201:../Firmware/GD32VW55x_standard_peripheral/Source/gd32vw55x_pmu.c ****     \param[out] none
 202:../Firmware/GD32VW55x_standard_peripheral/Source/gd32vw55x_pmu.c ****     \retval     none
 203:../Firmware/GD32VW55x_standard_peripheral/Source/gd32vw55x_pmu.c **** */
 204:../Firmware/GD32VW55x_standard_peripheral/Source/gd32vw55x_pmu.c **** void pmu_to_standbymode(uint8_t standbymodecmd)
 205:../Firmware/GD32VW55x_standard_peripheral/Source/gd32vw55x_pmu.c **** {
 555              		.loc 1 205 1
 556              		.cfi_startproc
 557 0000 7971     		addi	sp,sp,-48
 558              		.cfi_def_cfa_offset 48
 559 0002 22D6     		sw	s0,44(sp)
 560 0004 26D4     		sw	s1,40(sp)
 561              		.cfi_offset 8, -4
 562              		.cfi_offset 9, -8
 563 0006 0018     		addi	s0,sp,48
 564              		.cfi_def_cfa 8, 0
 565 0008 AA87     		mv	a5,a0
 566 000a A30FF4FC 		sb	a5,-33(s0)
 567 000e 8547     		li	a5,1
 568 0010 2326F4FE 		sw	a5,-20(s0)
 569              	.LBB88:
 570              	.LBB89:
 571              	.LBB90:
 776:../Firmware/RISCV/drivers/core_feature_base.h **** }
 572              		.loc 2 776 5
 573 0014 8324C4FE 		lw	s1,-20(s0)
 574              	 #APP
 575              	# 776 "../Firmware/RISCV/drivers/core_feature_base.h" 1
 576              		csrw 0x811, s1
 577              	# 0 "" 2
 578              	 #NO_APP
 579              	.LBE90:
 580              		.loc 2 777 1
 581 001c 0100     		nop
 582              	.LBE89:
 583              	.LBE88:
 206:../Firmware/GD32VW55x_standard_peripheral/Source/gd32vw55x_pmu.c ****     /* set CSR_SLEEPVALUE bit of RISC-V system control register */
 207:../Firmware/GD32VW55x_standard_peripheral/Source/gd32vw55x_pmu.c ****     __set_wfi_sleepmode(WFI_DEEP_SLEEP);
 208:../Firmware/GD32VW55x_standard_peripheral/Source/gd32vw55x_pmu.c **** 
 209:../Firmware/GD32VW55x_standard_peripheral/Source/gd32vw55x_pmu.c ****     /* set stbmod bit */
 210:../Firmware/GD32VW55x_standard_peripheral/Source/gd32vw55x_pmu.c ****     PMU_CTL0 |= PMU_CTL0_STBMOD;
 584              		.loc 1 210 14
 585 001e B7770040 		li	a5,1073770496
 586 0022 9843     		lw	a4,0(a5)
 587 0024 B7770040 		li	a5,1073770496
 588 0028 13672700 		ori	a4,a4,2
 589 002c 98C3     		sw	a4,0(a5)
 211:../Firmware/GD32VW55x_standard_peripheral/Source/gd32vw55x_pmu.c **** 
 212:../Firmware/GD32VW55x_standard_peripheral/Source/gd32vw55x_pmu.c ****     /* reset wakeup flag */
 213:../Firmware/GD32VW55x_standard_peripheral/Source/gd32vw55x_pmu.c ****     PMU_CTL0 |= PMU_CTL0_WURST;
 590              		.loc 1 213 14
 591 002e B7770040 		li	a5,1073770496
 592 0032 9843     		lw	a4,0(a5)
 593 0034 B7770040 		li	a5,1073770496
 594 0038 13674700 		ori	a4,a4,4
 595 003c 98C3     		sw	a4,0(a5)
 214:../Firmware/GD32VW55x_standard_peripheral/Source/gd32vw55x_pmu.c **** 
 215:../Firmware/GD32VW55x_standard_peripheral/Source/gd32vw55x_pmu.c ****     /* select WFI or WFE command to enter standby mode */
 216:../Firmware/GD32VW55x_standard_peripheral/Source/gd32vw55x_pmu.c ****     if(WFI_CMD == standbymodecmd){
 596              		.loc 1 216 7
 597 003e 8347F4FD 		lbu	a5,-33(s0)
 598 0042 99E7     		bne	a5,zero,.L16
 599              	.LBB91:
 600              	.LBB92:
 601              	.LBB93:
 718:../Firmware/RISCV/drivers/core_feature_base.h ****     __ASM volatile("wfi");
 602              		.loc 2 718 5
 603 0044 8544     		li	s1,1
 604              	 #APP
 605              	# 718 "../Firmware/RISCV/drivers/core_feature_base.h" 1
 606              		csrc 0x810, s1
 607              	# 0 "" 2
 608              	 #NO_APP
 609              	.LBE93:
 719:../Firmware/RISCV/drivers/core_feature_base.h **** }
 610              		.loc 2 719 5
 611              	 #APP
 612              	# 719 "../Firmware/RISCV/drivers/core_feature_base.h" 1
 720:../Firmware/RISCV/drivers/core_feature_base.h **** 
 613              		wfi
 614              	# 0 "" 2
 615              		.loc 2 720 1
 616              	 #NO_APP
 617 004e 15A0     		j	.L17
 618              	.L16:
 619              	.LBE92:
 620              	.LBE91:
 621              	.LBB94:
 622              	.LBB95:
 623              	.LBB96:
 598:../Firmware/RISCV/drivers/core_feature_base.h **** }
 624              		.loc 2 598 5
 625 0050 A144     		li	s1,8
 626              	 #APP
 627              	# 598 "../Firmware/RISCV/drivers/core_feature_base.h" 1
 628              		csrc 0x300, s1
 629              	# 0 "" 2
 630              	 #NO_APP
 631              	.LBE96:
 599:../Firmware/RISCV/drivers/core_feature_base.h **** 
 632              		.loc 2 599 1
 633 0056 0100     		nop
 634              	.LBE95:
 635              	.LBE94:
 636              	.LBB97:
 637              	.LBB98:
 638              	.LBB99:
 731:../Firmware/RISCV/drivers/core_feature_base.h ****     __ASM volatile("wfi");
 639              		.loc 2 731 5
 640 0058 8544     		li	s1,1
 641              	 #APP
 642              	# 731 "../Firmware/RISCV/drivers/core_feature_base.h" 1
 643              		csrs 0x810, s1
 644              	# 0 "" 2
 645              	 #NO_APP
 646              	.LBE99:
 732:../Firmware/RISCV/drivers/core_feature_base.h ****     __RV_CSR_CLEAR(CSR_WFE, WFE_WFE);
 647              		.loc 2 732 5
 648              	 #APP
 649              	# 732 "../Firmware/RISCV/drivers/core_feature_base.h" 1
 650              		wfi
 651              	# 0 "" 2
 652              	 #NO_APP
 653              	.LBB100:
 733:../Firmware/RISCV/drivers/core_feature_base.h **** }
 654              		.loc 2 733 5
 655 0062 8544     		li	s1,1
 656              	 #APP
 657              	# 733 "../Firmware/RISCV/drivers/core_feature_base.h" 1
 658              		csrc 0x810, s1
 659              	# 0 "" 2
 660              	 #NO_APP
 661              	.LBE100:
 734:../Firmware/RISCV/drivers/core_feature_base.h **** 
 662              		.loc 2 734 1
 663 0068 0100     		nop
 664              	.LBE98:
 665              	.LBE97:
 666              	.LBB101:
 667              	.LBB102:
 668              	.LBB103:
 587:../Firmware/RISCV/drivers/core_feature_base.h **** }
 669              		.loc 2 587 5
 670 006a A144     		li	s1,8
 671              	 #APP
 672              	# 587 "../Firmware/RISCV/drivers/core_feature_base.h" 1
 673              		csrs 0x300, s1
 674              	# 0 "" 2
 675              	 #NO_APP
 676              	.LBE103:
 588:../Firmware/RISCV/drivers/core_feature_base.h **** 
 677              		.loc 2 588 1
 678 0070 0100     		nop
 679              	.L17:
 680              	.LBE102:
 681              	.LBE101:
 217:../Firmware/GD32VW55x_standard_peripheral/Source/gd32vw55x_pmu.c ****         __WFI();
 218:../Firmware/GD32VW55x_standard_peripheral/Source/gd32vw55x_pmu.c ****     }else{
 219:../Firmware/GD32VW55x_standard_peripheral/Source/gd32vw55x_pmu.c ****         __disable_irq();
 220:../Firmware/GD32VW55x_standard_peripheral/Source/gd32vw55x_pmu.c ****         __WFE();
 221:../Firmware/GD32VW55x_standard_peripheral/Source/gd32vw55x_pmu.c ****         __enable_irq();
 222:../Firmware/GD32VW55x_standard_peripheral/Source/gd32vw55x_pmu.c ****     }
 223:../Firmware/GD32VW55x_standard_peripheral/Source/gd32vw55x_pmu.c **** }
 682              		.loc 1 223 1
 683 0072 0100     		nop
 684 0074 3254     		lw	s0,44(sp)
 685              		.cfi_restore 8
 686              		.cfi_def_cfa 2, 48
 687 0076 A254     		lw	s1,40(sp)
 688              		.cfi_restore 9
 689 0078 4561     		addi	sp,sp,48
 690              		.cfi_def_cfa_offset 0
 691 007a 8280     		jr	ra
 692              		.cfi_endproc
 693              	.LFE355:
 695              		.section	.text.pmu_wakeup_pin_enable,"ax",@progbits
 696              		.align	1
 697              		.globl	pmu_wakeup_pin_enable
 699              	pmu_wakeup_pin_enable:
 700              	.LFB356:
 224:../Firmware/GD32VW55x_standard_peripheral/Source/gd32vw55x_pmu.c **** 
 225:../Firmware/GD32VW55x_standard_peripheral/Source/gd32vw55x_pmu.c **** /*!
 226:../Firmware/GD32VW55x_standard_peripheral/Source/gd32vw55x_pmu.c ****     \brief      enable wakeup pin
 227:../Firmware/GD32VW55x_standard_peripheral/Source/gd32vw55x_pmu.c ****     \param[in]  wakeup_pin:
 228:../Firmware/GD32VW55x_standard_peripheral/Source/gd32vw55x_pmu.c ****                 one or more parameters can be selected which are shown as below:
 229:../Firmware/GD32VW55x_standard_peripheral/Source/gd32vw55x_pmu.c ****       \arg        PMU_WAKEUP_PIN0: WKUP Pin 0 (PA0)
 230:../Firmware/GD32VW55x_standard_peripheral/Source/gd32vw55x_pmu.c ****       \arg        PMU_WAKEUP_PIN1: WKUP Pin 1 (PA15)
 231:../Firmware/GD32VW55x_standard_peripheral/Source/gd32vw55x_pmu.c ****       \arg        PMU_WAKEUP_PIN2: WKUP Pin 2 (PA7)
 232:../Firmware/GD32VW55x_standard_peripheral/Source/gd32vw55x_pmu.c ****       \arg        PMU_WAKEUP_PIN3: WKUP Pin 3 (PA12)
 233:../Firmware/GD32VW55x_standard_peripheral/Source/gd32vw55x_pmu.c ****     \param[out] none
 234:../Firmware/GD32VW55x_standard_peripheral/Source/gd32vw55x_pmu.c ****     \retval     none
 235:../Firmware/GD32VW55x_standard_peripheral/Source/gd32vw55x_pmu.c **** */
 236:../Firmware/GD32VW55x_standard_peripheral/Source/gd32vw55x_pmu.c **** void pmu_wakeup_pin_enable(uint32_t wakeup_pin)
 237:../Firmware/GD32VW55x_standard_peripheral/Source/gd32vw55x_pmu.c **** {
 701              		.loc 1 237 1
 702              		.cfi_startproc
 703 0000 0111     		addi	sp,sp,-32
 704              		.cfi_def_cfa_offset 32
 705 0002 22CE     		sw	s0,28(sp)
 706              		.cfi_offset 8, -4
 707 0004 0010     		addi	s0,sp,32
 708              		.cfi_def_cfa 8, 0
 709 0006 2326A4FE 		sw	a0,-20(s0)
 238:../Firmware/GD32VW55x_standard_peripheral/Source/gd32vw55x_pmu.c ****     PMU_CS0 |= wakeup_pin;
 710              		.loc 1 238 13
 711 000a B7770040 		li	a5,1073770496
 712 000e 9107     		addi	a5,a5,4
 713 0010 9443     		lw	a3,0(a5)
 714 0012 B7770040 		li	a5,1073770496
 715 0016 9107     		addi	a5,a5,4
 716 0018 0327C4FE 		lw	a4,-20(s0)
 717 001c 558F     		or	a4,a3,a4
 718 001e 98C3     		sw	a4,0(a5)
 239:../Firmware/GD32VW55x_standard_peripheral/Source/gd32vw55x_pmu.c **** }
 719              		.loc 1 239 1
 720 0020 0100     		nop
 721 0022 7244     		lw	s0,28(sp)
 722              		.cfi_restore 8
 723              		.cfi_def_cfa 2, 32
 724 0024 0561     		addi	sp,sp,32
 725              		.cfi_def_cfa_offset 0
 726 0026 8280     		jr	ra
 727              		.cfi_endproc
 728              	.LFE356:
 730              		.section	.text.pmu_wakeup_pin_disable,"ax",@progbits
 731              		.align	1
 732              		.globl	pmu_wakeup_pin_disable
 734              	pmu_wakeup_pin_disable:
 735              	.LFB357:
 240:../Firmware/GD32VW55x_standard_peripheral/Source/gd32vw55x_pmu.c **** 
 241:../Firmware/GD32VW55x_standard_peripheral/Source/gd32vw55x_pmu.c **** /*!
 242:../Firmware/GD32VW55x_standard_peripheral/Source/gd32vw55x_pmu.c ****     \brief      disable wakeup pin
 243:../Firmware/GD32VW55x_standard_peripheral/Source/gd32vw55x_pmu.c ****     \param[in]  wakeup_pin:
 244:../Firmware/GD32VW55x_standard_peripheral/Source/gd32vw55x_pmu.c ****                 one or more parameters can be selected which are shown as below:
 245:../Firmware/GD32VW55x_standard_peripheral/Source/gd32vw55x_pmu.c ****       \arg        PMU_WAKEUP_PIN0: WKUP Pin 0 (PA0)
 246:../Firmware/GD32VW55x_standard_peripheral/Source/gd32vw55x_pmu.c ****       \arg        PMU_WAKEUP_PIN1: WKUP Pin 1 (PA15)
 247:../Firmware/GD32VW55x_standard_peripheral/Source/gd32vw55x_pmu.c ****       \arg        PMU_WAKEUP_PIN2: WKUP Pin 2 (PA7)
 248:../Firmware/GD32VW55x_standard_peripheral/Source/gd32vw55x_pmu.c ****       \arg        PMU_WAKEUP_PIN3: WKUP Pin 3 (PA12)
 249:../Firmware/GD32VW55x_standard_peripheral/Source/gd32vw55x_pmu.c ****     \param[out] none
 250:../Firmware/GD32VW55x_standard_peripheral/Source/gd32vw55x_pmu.c ****     \retval     none
 251:../Firmware/GD32VW55x_standard_peripheral/Source/gd32vw55x_pmu.c **** */
 252:../Firmware/GD32VW55x_standard_peripheral/Source/gd32vw55x_pmu.c **** void pmu_wakeup_pin_disable(uint32_t wakeup_pin)
 253:../Firmware/GD32VW55x_standard_peripheral/Source/gd32vw55x_pmu.c **** {
 736              		.loc 1 253 1
 737              		.cfi_startproc
 738 0000 0111     		addi	sp,sp,-32
 739              		.cfi_def_cfa_offset 32
 740 0002 22CE     		sw	s0,28(sp)
 741              		.cfi_offset 8, -4
 742 0004 0010     		addi	s0,sp,32
 743              		.cfi_def_cfa 8, 0
 744 0006 2326A4FE 		sw	a0,-20(s0)
 254:../Firmware/GD32VW55x_standard_peripheral/Source/gd32vw55x_pmu.c ****     PMU_CS0 &= ~(wakeup_pin);
 745              		.loc 1 254 13
 746 000a B7770040 		li	a5,1073770496
 747 000e 9107     		addi	a5,a5,4
 748 0010 9443     		lw	a3,0(a5)
 749              		.loc 1 254 16
 750 0012 8327C4FE 		lw	a5,-20(s0)
 751 0016 13C7F7FF 		not	a4,a5
 752              		.loc 1 254 13
 753 001a B7770040 		li	a5,1073770496
 754 001e 9107     		addi	a5,a5,4
 755 0020 758F     		and	a4,a3,a4
 756 0022 98C3     		sw	a4,0(a5)
 255:../Firmware/GD32VW55x_standard_peripheral/Source/gd32vw55x_pmu.c **** }
 757              		.loc 1 255 1
 758 0024 0100     		nop
 759 0026 7244     		lw	s0,28(sp)
 760              		.cfi_restore 8
 761              		.cfi_def_cfa 2, 32
 762 0028 0561     		addi	sp,sp,32
 763              		.cfi_def_cfa_offset 0
 764 002a 8280     		jr	ra
 765              		.cfi_endproc
 766              	.LFE357:
 768              		.section	.text.pmu_wifi_power_enable,"ax",@progbits
 769              		.align	1
 770              		.globl	pmu_wifi_power_enable
 772              	pmu_wifi_power_enable:
 773              	.LFB358:
 256:../Firmware/GD32VW55x_standard_peripheral/Source/gd32vw55x_pmu.c **** 
 257:../Firmware/GD32VW55x_standard_peripheral/Source/gd32vw55x_pmu.c **** /*!
 258:../Firmware/GD32VW55x_standard_peripheral/Source/gd32vw55x_pmu.c ****     \brief      enable WIFI power
 259:../Firmware/GD32VW55x_standard_peripheral/Source/gd32vw55x_pmu.c ****     \param[in]  none
 260:../Firmware/GD32VW55x_standard_peripheral/Source/gd32vw55x_pmu.c ****     \param[out] none
 261:../Firmware/GD32VW55x_standard_peripheral/Source/gd32vw55x_pmu.c ****     \retval     none
 262:../Firmware/GD32VW55x_standard_peripheral/Source/gd32vw55x_pmu.c **** */
 263:../Firmware/GD32VW55x_standard_peripheral/Source/gd32vw55x_pmu.c **** void pmu_wifi_power_enable(void)
 264:../Firmware/GD32VW55x_standard_peripheral/Source/gd32vw55x_pmu.c **** {
 774              		.loc 1 264 1
 775              		.cfi_startproc
 776 0000 4111     		addi	sp,sp,-16
 777              		.cfi_def_cfa_offset 16
 778 0002 22C6     		sw	s0,12(sp)
 779              		.cfi_offset 8, -4
 780 0004 0008     		addi	s0,sp,16
 781              		.cfi_def_cfa 8, 0
 265:../Firmware/GD32VW55x_standard_peripheral/Source/gd32vw55x_pmu.c ****     PMU_CTL1 |= PMU_CTL1_WPEN;
 782              		.loc 1 265 14
 783 0006 B7770040 		li	a5,1073770496
 784 000a A107     		addi	a5,a5,8
 785 000c 9843     		lw	a4,0(a5)
 786 000e B7770040 		li	a5,1073770496
 787 0012 A107     		addi	a5,a5,8
 788 0014 13672700 		ori	a4,a4,2
 789 0018 98C3     		sw	a4,0(a5)
 266:../Firmware/GD32VW55x_standard_peripheral/Source/gd32vw55x_pmu.c **** }
 790              		.loc 1 266 1
 791 001a 0100     		nop
 792 001c 3244     		lw	s0,12(sp)
 793              		.cfi_restore 8
 794              		.cfi_def_cfa 2, 16
 795 001e 4101     		addi	sp,sp,16
 796              		.cfi_def_cfa_offset 0
 797 0020 8280     		jr	ra
 798              		.cfi_endproc
 799              	.LFE358:
 801              		.section	.text.pmu_wifi_power_disable,"ax",@progbits
 802              		.align	1
 803              		.globl	pmu_wifi_power_disable
 805              	pmu_wifi_power_disable:
 806              	.LFB359:
 267:../Firmware/GD32VW55x_standard_peripheral/Source/gd32vw55x_pmu.c **** 
 268:../Firmware/GD32VW55x_standard_peripheral/Source/gd32vw55x_pmu.c **** /*!
 269:../Firmware/GD32VW55x_standard_peripheral/Source/gd32vw55x_pmu.c ****     \brief      disable WIFI power
 270:../Firmware/GD32VW55x_standard_peripheral/Source/gd32vw55x_pmu.c ****     \param[in]  none
 271:../Firmware/GD32VW55x_standard_peripheral/Source/gd32vw55x_pmu.c ****     \param[out] none
 272:../Firmware/GD32VW55x_standard_peripheral/Source/gd32vw55x_pmu.c ****     \retval     none
 273:../Firmware/GD32VW55x_standard_peripheral/Source/gd32vw55x_pmu.c **** */
 274:../Firmware/GD32VW55x_standard_peripheral/Source/gd32vw55x_pmu.c **** void pmu_wifi_power_disable(void)
 275:../Firmware/GD32VW55x_standard_peripheral/Source/gd32vw55x_pmu.c **** {
 807              		.loc 1 275 1
 808              		.cfi_startproc
 809 0000 4111     		addi	sp,sp,-16
 810              		.cfi_def_cfa_offset 16
 811 0002 22C6     		sw	s0,12(sp)
 812              		.cfi_offset 8, -4
 813 0004 0008     		addi	s0,sp,16
 814              		.cfi_def_cfa 8, 0
 276:../Firmware/GD32VW55x_standard_peripheral/Source/gd32vw55x_pmu.c ****     PMU_CTL1 &= ~PMU_CTL1_WPEN;
 815              		.loc 1 276 14
 816 0006 B7770040 		li	a5,1073770496
 817 000a A107     		addi	a5,a5,8
 818 000c 9843     		lw	a4,0(a5)
 819 000e B7770040 		li	a5,1073770496
 820 0012 A107     		addi	a5,a5,8
 821 0014 759B     		andi	a4,a4,-3
 822 0016 98C3     		sw	a4,0(a5)
 277:../Firmware/GD32VW55x_standard_peripheral/Source/gd32vw55x_pmu.c **** }
 823              		.loc 1 277 1
 824 0018 0100     		nop
 825 001a 3244     		lw	s0,12(sp)
 826              		.cfi_restore 8
 827              		.cfi_def_cfa 2, 16
 828 001c 4101     		addi	sp,sp,16
 829              		.cfi_def_cfa_offset 0
 830 001e 8280     		jr	ra
 831              		.cfi_endproc
 832              	.LFE359:
 834              		.section	.text.pmu_wifi_sram_control,"ax",@progbits
 835              		.align	1
 836              		.globl	pmu_wifi_sram_control
 838              	pmu_wifi_sram_control:
 839              	.LFB360:
 278:../Firmware/GD32VW55x_standard_peripheral/Source/gd32vw55x_pmu.c **** 
 279:../Firmware/GD32VW55x_standard_peripheral/Source/gd32vw55x_pmu.c **** /*!
 280:../Firmware/GD32VW55x_standard_peripheral/Source/gd32vw55x_pmu.c ****     \brief      WIFI & SRAM low power control
 281:../Firmware/GD32VW55x_standard_peripheral/Source/gd32vw55x_pmu.c ****     \param[in]  wifi_sram:
 282:../Firmware/GD32VW55x_standard_peripheral/Source/gd32vw55x_pmu.c ****                 one or more parameters can be selected which are shown as below:
 283:../Firmware/GD32VW55x_standard_peripheral/Source/gd32vw55x_pmu.c ****       \arg        PMU_WIFI_SLEEP: WIFI go to sleep
 284:../Firmware/GD32VW55x_standard_peripheral/Source/gd32vw55x_pmu.c ****       \arg        PMU_WIFI_WAKE: WIFI wakeup
 285:../Firmware/GD32VW55x_standard_peripheral/Source/gd32vw55x_pmu.c ****       \arg        PMU_SRAM1_SLEEP: SRAM1 go to sleep
 286:../Firmware/GD32VW55x_standard_peripheral/Source/gd32vw55x_pmu.c ****       \arg        PMU_SRAM1_WAKE: SRAM1 wakeup
 287:../Firmware/GD32VW55x_standard_peripheral/Source/gd32vw55x_pmu.c ****       \arg        PMU_SRAM2_SLEEP: SRAM2 go to sleep
 288:../Firmware/GD32VW55x_standard_peripheral/Source/gd32vw55x_pmu.c ****       \arg        PMU_SRAM2_WAKE: SRAM2 wakeup
 289:../Firmware/GD32VW55x_standard_peripheral/Source/gd32vw55x_pmu.c ****       \arg        PMU_SRAM3_SLEEP: SRAM3 go to sleep
 290:../Firmware/GD32VW55x_standard_peripheral/Source/gd32vw55x_pmu.c ****       \arg        PMU_SRAM3_WAKE: SRAM3 wakeup
 291:../Firmware/GD32VW55x_standard_peripheral/Source/gd32vw55x_pmu.c ****       \arg        PMU_SRAM0_SLEEP: SRAM0 go to sleep
 292:../Firmware/GD32VW55x_standard_peripheral/Source/gd32vw55x_pmu.c ****       \arg        PMU_SRAM0_WAKE: SRAM0 wakeup
 293:../Firmware/GD32VW55x_standard_peripheral/Source/gd32vw55x_pmu.c ****     \param[out] none
 294:../Firmware/GD32VW55x_standard_peripheral/Source/gd32vw55x_pmu.c ****     \retval     none
 295:../Firmware/GD32VW55x_standard_peripheral/Source/gd32vw55x_pmu.c **** */
 296:../Firmware/GD32VW55x_standard_peripheral/Source/gd32vw55x_pmu.c **** void pmu_wifi_sram_control(uint32_t wifi_sram)
 297:../Firmware/GD32VW55x_standard_peripheral/Source/gd32vw55x_pmu.c **** {
 840              		.loc 1 297 1
 841              		.cfi_startproc
 842 0000 0111     		addi	sp,sp,-32
 843              		.cfi_def_cfa_offset 32
 844 0002 22CE     		sw	s0,28(sp)
 845              		.cfi_offset 8, -4
 846 0004 0010     		addi	s0,sp,32
 847              		.cfi_def_cfa 8, 0
 848 0006 2326A4FE 		sw	a0,-20(s0)
 298:../Firmware/GD32VW55x_standard_peripheral/Source/gd32vw55x_pmu.c ****     PMU_CTL1 |= wifi_sram;
 849              		.loc 1 298 14
 850 000a B7770040 		li	a5,1073770496
 851 000e A107     		addi	a5,a5,8
 852 0010 9443     		lw	a3,0(a5)
 853 0012 B7770040 		li	a5,1073770496
 854 0016 A107     		addi	a5,a5,8
 855 0018 0327C4FE 		lw	a4,-20(s0)
 856 001c 558F     		or	a4,a3,a4
 857 001e 98C3     		sw	a4,0(a5)
 299:../Firmware/GD32VW55x_standard_peripheral/Source/gd32vw55x_pmu.c **** }
 858              		.loc 1 299 1
 859 0020 0100     		nop
 860 0022 7244     		lw	s0,28(sp)
 861              		.cfi_restore 8
 862              		.cfi_def_cfa 2, 32
 863 0024 0561     		addi	sp,sp,32
 864              		.cfi_def_cfa_offset 0
 865 0026 8280     		jr	ra
 866              		.cfi_endproc
 867              	.LFE360:
 869              		.section	.text.pmu_ble_control,"ax",@progbits
 870              		.align	1
 871              		.globl	pmu_ble_control
 873              	pmu_ble_control:
 874              	.LFB361:
 300:../Firmware/GD32VW55x_standard_peripheral/Source/gd32vw55x_pmu.c **** 
 301:../Firmware/GD32VW55x_standard_peripheral/Source/gd32vw55x_pmu.c **** /*!
 302:../Firmware/GD32VW55x_standard_peripheral/Source/gd32vw55x_pmu.c ****     \brief      BLE low power control
 303:../Firmware/GD32VW55x_standard_peripheral/Source/gd32vw55x_pmu.c ****     \param[in]  ble:
 304:../Firmware/GD32VW55x_standard_peripheral/Source/gd32vw55x_pmu.c ****                 one or more parameters can be selected which are shown as below:
 305:../Firmware/GD32VW55x_standard_peripheral/Source/gd32vw55x_pmu.c ****       \arg        PMU_BLE_SLEEP: BLE go to sleep
 306:../Firmware/GD32VW55x_standard_peripheral/Source/gd32vw55x_pmu.c ****       \arg        PMU_BLE_WAKE: BLE wakeup
 307:../Firmware/GD32VW55x_standard_peripheral/Source/gd32vw55x_pmu.c ****     \param[out] none
 308:../Firmware/GD32VW55x_standard_peripheral/Source/gd32vw55x_pmu.c ****     \retval     none
 309:../Firmware/GD32VW55x_standard_peripheral/Source/gd32vw55x_pmu.c **** */
 310:../Firmware/GD32VW55x_standard_peripheral/Source/gd32vw55x_pmu.c **** void pmu_ble_control(uint32_t ble)
 311:../Firmware/GD32VW55x_standard_peripheral/Source/gd32vw55x_pmu.c **** {
 875              		.loc 1 311 1
 876              		.cfi_startproc
 877 0000 0111     		addi	sp,sp,-32
 878              		.cfi_def_cfa_offset 32
 879 0002 22CE     		sw	s0,28(sp)
 880              		.cfi_offset 8, -4
 881 0004 0010     		addi	s0,sp,32
 882              		.cfi_def_cfa 8, 0
 883 0006 2326A4FE 		sw	a0,-20(s0)
 312:../Firmware/GD32VW55x_standard_peripheral/Source/gd32vw55x_pmu.c ****     PMU_CTL1 |= ble;
 884              		.loc 1 312 14
 885 000a B7770040 		li	a5,1073770496
 886 000e A107     		addi	a5,a5,8
 887 0010 9443     		lw	a3,0(a5)
 888 0012 B7770040 		li	a5,1073770496
 889 0016 A107     		addi	a5,a5,8
 890 0018 0327C4FE 		lw	a4,-20(s0)
 891 001c 558F     		or	a4,a3,a4
 892 001e 98C3     		sw	a4,0(a5)
 313:../Firmware/GD32VW55x_standard_peripheral/Source/gd32vw55x_pmu.c **** }
 893              		.loc 1 313 1
 894 0020 0100     		nop
 895 0022 7244     		lw	s0,28(sp)
 896              		.cfi_restore 8
 897              		.cfi_def_cfa 2, 32
 898 0024 0561     		addi	sp,sp,32
 899              		.cfi_def_cfa_offset 0
 900 0026 8280     		jr	ra
 901              		.cfi_endproc
 902              	.LFE361:
 904              		.section	.text.pmu_ble_wakeup_request_enable,"ax",@progbits
 905              		.align	1
 906              		.globl	pmu_ble_wakeup_request_enable
 908              	pmu_ble_wakeup_request_enable:
 909              	.LFB362:
 314:../Firmware/GD32VW55x_standard_peripheral/Source/gd32vw55x_pmu.c **** 
 315:../Firmware/GD32VW55x_standard_peripheral/Source/gd32vw55x_pmu.c **** /*!
 316:../Firmware/GD32VW55x_standard_peripheral/Source/gd32vw55x_pmu.c ****     \brief      enable BLE wakeup request
 317:../Firmware/GD32VW55x_standard_peripheral/Source/gd32vw55x_pmu.c ****     \param[in]  none
 318:../Firmware/GD32VW55x_standard_peripheral/Source/gd32vw55x_pmu.c ****     \param[out] none
 319:../Firmware/GD32VW55x_standard_peripheral/Source/gd32vw55x_pmu.c ****     \retval     none
 320:../Firmware/GD32VW55x_standard_peripheral/Source/gd32vw55x_pmu.c **** */
 321:../Firmware/GD32VW55x_standard_peripheral/Source/gd32vw55x_pmu.c **** void pmu_ble_wakeup_request_enable(void)
 322:../Firmware/GD32VW55x_standard_peripheral/Source/gd32vw55x_pmu.c **** {
 910              		.loc 1 322 1
 911              		.cfi_startproc
 912 0000 4111     		addi	sp,sp,-16
 913              		.cfi_def_cfa_offset 16
 914 0002 22C6     		sw	s0,12(sp)
 915              		.cfi_offset 8, -4
 916 0004 0008     		addi	s0,sp,16
 917              		.cfi_def_cfa 8, 0
 323:../Firmware/GD32VW55x_standard_peripheral/Source/gd32vw55x_pmu.c ****     PMU_CTL1 |= PMU_CTL1_BLE_WAKEUP_REQ;
 918              		.loc 1 323 14
 919 0006 B7770040 		li	a5,1073770496
 920 000a A107     		addi	a5,a5,8
 921 000c 9443     		lw	a3,0(a5)
 922 000e B7770040 		li	a5,1073770496
 923 0012 A107     		addi	a5,a5,8
 924 0014 37070002 		li	a4,33554432
 925 0018 558F     		or	a4,a3,a4
 926 001a 98C3     		sw	a4,0(a5)
 324:../Firmware/GD32VW55x_standard_peripheral/Source/gd32vw55x_pmu.c **** }
 927              		.loc 1 324 1
 928 001c 0100     		nop
 929 001e 3244     		lw	s0,12(sp)
 930              		.cfi_restore 8
 931              		.cfi_def_cfa 2, 16
 932 0020 4101     		addi	sp,sp,16
 933              		.cfi_def_cfa_offset 0
 934 0022 8280     		jr	ra
 935              		.cfi_endproc
 936              	.LFE362:
 938              		.section	.text.pmu_ble_wakeup_request_disable,"ax",@progbits
 939              		.align	1
 940              		.globl	pmu_ble_wakeup_request_disable
 942              	pmu_ble_wakeup_request_disable:
 943              	.LFB363:
 325:../Firmware/GD32VW55x_standard_peripheral/Source/gd32vw55x_pmu.c **** 
 326:../Firmware/GD32VW55x_standard_peripheral/Source/gd32vw55x_pmu.c **** /*!
 327:../Firmware/GD32VW55x_standard_peripheral/Source/gd32vw55x_pmu.c ****     \brief      disable ble wakeup request
 328:../Firmware/GD32VW55x_standard_peripheral/Source/gd32vw55x_pmu.c ****     \param[in]  none
 329:../Firmware/GD32VW55x_standard_peripheral/Source/gd32vw55x_pmu.c ****     \param[out] none
 330:../Firmware/GD32VW55x_standard_peripheral/Source/gd32vw55x_pmu.c ****     \retval     none
 331:../Firmware/GD32VW55x_standard_peripheral/Source/gd32vw55x_pmu.c **** */
 332:../Firmware/GD32VW55x_standard_peripheral/Source/gd32vw55x_pmu.c **** void pmu_ble_wakeup_request_disable(void)
 333:../Firmware/GD32VW55x_standard_peripheral/Source/gd32vw55x_pmu.c **** {
 944              		.loc 1 333 1
 945              		.cfi_startproc
 946 0000 4111     		addi	sp,sp,-16
 947              		.cfi_def_cfa_offset 16
 948 0002 22C6     		sw	s0,12(sp)
 949              		.cfi_offset 8, -4
 950 0004 0008     		addi	s0,sp,16
 951              		.cfi_def_cfa 8, 0
 334:../Firmware/GD32VW55x_standard_peripheral/Source/gd32vw55x_pmu.c ****     PMU_CTL1 &= ~PMU_CTL1_BLE_WAKEUP_REQ;
 952              		.loc 1 334 14
 953 0006 B7770040 		li	a5,1073770496
 954 000a A107     		addi	a5,a5,8
 955 000c 9443     		lw	a3,0(a5)
 956 000e B7770040 		li	a5,1073770496
 957 0012 A107     		addi	a5,a5,8
 958 0014 370700FE 		li	a4,-33554432
 959 0018 7D17     		addi	a4,a4,-1
 960 001a 758F     		and	a4,a3,a4
 961 001c 98C3     		sw	a4,0(a5)
 335:../Firmware/GD32VW55x_standard_peripheral/Source/gd32vw55x_pmu.c **** }
 962              		.loc 1 335 1
 963 001e 0100     		nop
 964 0020 3244     		lw	s0,12(sp)
 965              		.cfi_restore 8
 966              		.cfi_def_cfa 2, 16
 967 0022 4101     		addi	sp,sp,16
 968              		.cfi_def_cfa_offset 0
 969 0024 8280     		jr	ra
 970              		.cfi_endproc
 971              	.LFE363:
 973              		.section	.text.pmu_pll_force_enable,"ax",@progbits
 974              		.align	1
 975              		.globl	pmu_pll_force_enable
 977              	pmu_pll_force_enable:
 978              	.LFB364:
 336:../Firmware/GD32VW55x_standard_peripheral/Source/gd32vw55x_pmu.c **** 
 337:../Firmware/GD32VW55x_standard_peripheral/Source/gd32vw55x_pmu.c **** /*!
 338:../Firmware/GD32VW55x_standard_peripheral/Source/gd32vw55x_pmu.c ****     \brief      enable MCU PLL power force open/close
 339:../Firmware/GD32VW55x_standard_peripheral/Source/gd32vw55x_pmu.c ****     \param[in]  force:
 340:../Firmware/GD32VW55x_standard_peripheral/Source/gd32vw55x_pmu.c ****                 only one parameter can be selected which is shown as below:
 341:../Firmware/GD32VW55x_standard_peripheral/Source/gd32vw55x_pmu.c ****       \arg        PMU_PLL_FORCE_OPEN: Software force open, open MCU PLL power
 342:../Firmware/GD32VW55x_standard_peripheral/Source/gd32vw55x_pmu.c ****       \arg        PMU_PLL_FORCE_CLOSE: Software force close, close MCU PLL power
 343:../Firmware/GD32VW55x_standard_peripheral/Source/gd32vw55x_pmu.c ****     \param[out] none
 344:../Firmware/GD32VW55x_standard_peripheral/Source/gd32vw55x_pmu.c ****     \retval     none
 345:../Firmware/GD32VW55x_standard_peripheral/Source/gd32vw55x_pmu.c **** */
 346:../Firmware/GD32VW55x_standard_peripheral/Source/gd32vw55x_pmu.c **** void pmu_pll_force_enable(uint32_t force)
 347:../Firmware/GD32VW55x_standard_peripheral/Source/gd32vw55x_pmu.c **** {
 979              		.loc 1 347 1
 980              		.cfi_startproc
 981 0000 0111     		addi	sp,sp,-32
 982              		.cfi_def_cfa_offset 32
 983 0002 22CE     		sw	s0,28(sp)
 984              		.cfi_offset 8, -4
 985 0004 0010     		addi	s0,sp,32
 986              		.cfi_def_cfa 8, 0
 987 0006 2326A4FE 		sw	a0,-20(s0)
 348:../Firmware/GD32VW55x_standard_peripheral/Source/gd32vw55x_pmu.c ****     PMU_RFCTL |= force;
 988              		.loc 1 348 15
 989 000a B7770040 		li	a5,1073770496
 990 000e 93870702 		addi	a5,a5,32
 991 0012 9443     		lw	a3,0(a5)
 992 0014 B7770040 		li	a5,1073770496
 993 0018 93870702 		addi	a5,a5,32
 994 001c 0327C4FE 		lw	a4,-20(s0)
 995 0020 558F     		or	a4,a3,a4
 996 0022 98C3     		sw	a4,0(a5)
 349:../Firmware/GD32VW55x_standard_peripheral/Source/gd32vw55x_pmu.c **** }
 997              		.loc 1 349 1
 998 0024 0100     		nop
 999 0026 7244     		lw	s0,28(sp)
 1000              		.cfi_restore 8
 1001              		.cfi_def_cfa 2, 32
 1002 0028 0561     		addi	sp,sp,32
 1003              		.cfi_def_cfa_offset 0
 1004 002a 8280     		jr	ra
 1005              		.cfi_endproc
 1006              	.LFE364:
 1008              		.section	.text.pmu_pll_force_disable,"ax",@progbits
 1009              		.align	1
 1010              		.globl	pmu_pll_force_disable
 1012              	pmu_pll_force_disable:
 1013              	.LFB365:
 350:../Firmware/GD32VW55x_standard_peripheral/Source/gd32vw55x_pmu.c **** 
 351:../Firmware/GD32VW55x_standard_peripheral/Source/gd32vw55x_pmu.c **** /*!
 352:../Firmware/GD32VW55x_standard_peripheral/Source/gd32vw55x_pmu.c ****     \brief      disable MCU PLL power open/close force
 353:../Firmware/GD32VW55x_standard_peripheral/Source/gd32vw55x_pmu.c ****     \param[in]  force:
 354:../Firmware/GD32VW55x_standard_peripheral/Source/gd32vw55x_pmu.c ****                 only one parameter can be selected which is shown as below:
 355:../Firmware/GD32VW55x_standard_peripheral/Source/gd32vw55x_pmu.c ****       \arg        PMU_PLL_FORCE_OPEN: Software force open, open MCU PLL power
 356:../Firmware/GD32VW55x_standard_peripheral/Source/gd32vw55x_pmu.c ****       \arg        PMU_PLL_FORCE_CLOSE: Software force close, close MCU PLL power
 357:../Firmware/GD32VW55x_standard_peripheral/Source/gd32vw55x_pmu.c ****     \param[out] none
 358:../Firmware/GD32VW55x_standard_peripheral/Source/gd32vw55x_pmu.c ****     \retval     none
 359:../Firmware/GD32VW55x_standard_peripheral/Source/gd32vw55x_pmu.c **** */
 360:../Firmware/GD32VW55x_standard_peripheral/Source/gd32vw55x_pmu.c **** void pmu_pll_force_disable(uint32_t force)
 361:../Firmware/GD32VW55x_standard_peripheral/Source/gd32vw55x_pmu.c **** {
 1014              		.loc 1 361 1
 1015              		.cfi_startproc
 1016 0000 0111     		addi	sp,sp,-32
 1017              		.cfi_def_cfa_offset 32
 1018 0002 22CE     		sw	s0,28(sp)
 1019              		.cfi_offset 8, -4
 1020 0004 0010     		addi	s0,sp,32
 1021              		.cfi_def_cfa 8, 0
 1022 0006 2326A4FE 		sw	a0,-20(s0)
 362:../Firmware/GD32VW55x_standard_peripheral/Source/gd32vw55x_pmu.c ****     PMU_RFCTL &= ~force;
 1023              		.loc 1 362 15
 1024 000a B7770040 		li	a5,1073770496
 1025 000e 93870702 		addi	a5,a5,32
 1026 0012 9443     		lw	a3,0(a5)
 1027              		.loc 1 362 18
 1028 0014 8327C4FE 		lw	a5,-20(s0)
 1029 0018 13C7F7FF 		not	a4,a5
 1030              		.loc 1 362 15
 1031 001c B7770040 		li	a5,1073770496
 1032 0020 93870702 		addi	a5,a5,32
 1033 0024 758F     		and	a4,a3,a4
 1034 0026 98C3     		sw	a4,0(a5)
 363:../Firmware/GD32VW55x_standard_peripheral/Source/gd32vw55x_pmu.c **** }
 1035              		.loc 1 363 1
 1036 0028 0100     		nop
 1037 002a 7244     		lw	s0,28(sp)
 1038              		.cfi_restore 8
 1039              		.cfi_def_cfa 2, 32
 1040 002c 0561     		addi	sp,sp,32
 1041              		.cfi_def_cfa_offset 0
 1042 002e 8280     		jr	ra
 1043              		.cfi_endproc
 1044              	.LFE365:
 1046              		.section	.text.pmu_ble_rf_config,"ax",@progbits
 1047              		.align	1
 1048              		.globl	pmu_ble_rf_config
 1050              	pmu_ble_rf_config:
 1051              	.LFB366:
 364:../Firmware/GD32VW55x_standard_peripheral/Source/gd32vw55x_pmu.c **** 
 365:../Firmware/GD32VW55x_standard_peripheral/Source/gd32vw55x_pmu.c **** /*!
 366:../Firmware/GD32VW55x_standard_peripheral/Source/gd32vw55x_pmu.c ****     \brief      configure BLE RF sequence
 367:../Firmware/GD32VW55x_standard_peripheral/Source/gd32vw55x_pmu.c ****     \param[in]  mode:
 368:../Firmware/GD32VW55x_standard_peripheral/Source/gd32vw55x_pmu.c ****                 only one parameter can be selected which is shown as below:
 369:../Firmware/GD32VW55x_standard_peripheral/Source/gd32vw55x_pmu.c ****       \arg        PMU_BLE_RF_SOFTWARE: enable RF by software
 370:../Firmware/GD32VW55x_standard_peripheral/Source/gd32vw55x_pmu.c ****       \arg        PMU_BLE_RF_HARDWARE: enable RF BLE hardware
 371:../Firmware/GD32VW55x_standard_peripheral/Source/gd32vw55x_pmu.c ****     \param[out] none
 372:../Firmware/GD32VW55x_standard_peripheral/Source/gd32vw55x_pmu.c ****     \retval     none
 373:../Firmware/GD32VW55x_standard_peripheral/Source/gd32vw55x_pmu.c **** */
 374:../Firmware/GD32VW55x_standard_peripheral/Source/gd32vw55x_pmu.c **** void pmu_ble_rf_config(uint32_t mode)
 375:../Firmware/GD32VW55x_standard_peripheral/Source/gd32vw55x_pmu.c **** {
 1052              		.loc 1 375 1
 1053              		.cfi_startproc
 1054 0000 0111     		addi	sp,sp,-32
 1055              		.cfi_def_cfa_offset 32
 1056 0002 22CE     		sw	s0,28(sp)
 1057              		.cfi_offset 8, -4
 1058 0004 0010     		addi	s0,sp,32
 1059              		.cfi_def_cfa 8, 0
 1060 0006 2326A4FE 		sw	a0,-20(s0)
 376:../Firmware/GD32VW55x_standard_peripheral/Source/gd32vw55x_pmu.c ****     PMU_RFCTL &= ~PMU_RFCTL_BLESWEN;
 1061              		.loc 1 376 15
 1062 000a B7770040 		li	a5,1073770496
 1063 000e 93870702 		addi	a5,a5,32
 1064 0012 9843     		lw	a4,0(a5)
 1065 0014 B7770040 		li	a5,1073770496
 1066 0018 93870702 		addi	a5,a5,32
 1067 001c 1377F7FD 		andi	a4,a4,-33
 1068 0020 98C3     		sw	a4,0(a5)
 377:../Firmware/GD32VW55x_standard_peripheral/Source/gd32vw55x_pmu.c ****     PMU_RFCTL |= mode;
 1069              		.loc 1 377 15
 1070 0022 B7770040 		li	a5,1073770496
 1071 0026 93870702 		addi	a5,a5,32
 1072 002a 9443     		lw	a3,0(a5)
 1073 002c B7770040 		li	a5,1073770496
 1074 0030 93870702 		addi	a5,a5,32
 1075 0034 0327C4FE 		lw	a4,-20(s0)
 1076 0038 558F     		or	a4,a3,a4
 1077 003a 98C3     		sw	a4,0(a5)
 378:../Firmware/GD32VW55x_standard_peripheral/Source/gd32vw55x_pmu.c **** }
 1078              		.loc 1 378 1
 1079 003c 0100     		nop
 1080 003e 7244     		lw	s0,28(sp)
 1081              		.cfi_restore 8
 1082              		.cfi_def_cfa 2, 32
 1083 0040 0561     		addi	sp,sp,32
 1084              		.cfi_def_cfa_offset 0
 1085 0042 8280     		jr	ra
 1086              		.cfi_endproc
 1087              	.LFE366:
 1089              		.section	.text.pmu_rf_force_enable,"ax",@progbits
 1090              		.align	1
 1091              		.globl	pmu_rf_force_enable
 1093              	pmu_rf_force_enable:
 1094              	.LFB367:
 379:../Firmware/GD32VW55x_standard_peripheral/Source/gd32vw55x_pmu.c **** 
 380:../Firmware/GD32VW55x_standard_peripheral/Source/gd32vw55x_pmu.c **** /*!
 381:../Firmware/GD32VW55x_standard_peripheral/Source/gd32vw55x_pmu.c ****     \brief      enable RF sequence force open/close
 382:../Firmware/GD32VW55x_standard_peripheral/Source/gd32vw55x_pmu.c ****     \param[in]  force:
 383:../Firmware/GD32VW55x_standard_peripheral/Source/gd32vw55x_pmu.c ****                 only one parameter can be selected which is shown as below:
 384:../Firmware/GD32VW55x_standard_peripheral/Source/gd32vw55x_pmu.c ****       \arg        PMU_RF_FORCE_OPEN: Software force start, open RF power
 385:../Firmware/GD32VW55x_standard_peripheral/Source/gd32vw55x_pmu.c ****       \arg        PMU_RF_FORCE_CLOSE: Software force close, close RF power
 386:../Firmware/GD32VW55x_standard_peripheral/Source/gd32vw55x_pmu.c ****     \param[out] none
 387:../Firmware/GD32VW55x_standard_peripheral/Source/gd32vw55x_pmu.c ****     \retval     none
 388:../Firmware/GD32VW55x_standard_peripheral/Source/gd32vw55x_pmu.c **** */
 389:../Firmware/GD32VW55x_standard_peripheral/Source/gd32vw55x_pmu.c **** void pmu_rf_force_enable(uint32_t force)
 390:../Firmware/GD32VW55x_standard_peripheral/Source/gd32vw55x_pmu.c **** {
 1095              		.loc 1 390 1
 1096              		.cfi_startproc
 1097 0000 0111     		addi	sp,sp,-32
 1098              		.cfi_def_cfa_offset 32
 1099 0002 22CE     		sw	s0,28(sp)
 1100              		.cfi_offset 8, -4
 1101 0004 0010     		addi	s0,sp,32
 1102              		.cfi_def_cfa 8, 0
 1103 0006 2326A4FE 		sw	a0,-20(s0)
 391:../Firmware/GD32VW55x_standard_peripheral/Source/gd32vw55x_pmu.c ****     PMU_RFCTL |= force;
 1104              		.loc 1 391 15
 1105 000a B7770040 		li	a5,1073770496
 1106 000e 93870702 		addi	a5,a5,32
 1107 0012 9443     		lw	a3,0(a5)
 1108 0014 B7770040 		li	a5,1073770496
 1109 0018 93870702 		addi	a5,a5,32
 1110 001c 0327C4FE 		lw	a4,-20(s0)
 1111 0020 558F     		or	a4,a3,a4
 1112 0022 98C3     		sw	a4,0(a5)
 392:../Firmware/GD32VW55x_standard_peripheral/Source/gd32vw55x_pmu.c **** }
 1113              		.loc 1 392 1
 1114 0024 0100     		nop
 1115 0026 7244     		lw	s0,28(sp)
 1116              		.cfi_restore 8
 1117              		.cfi_def_cfa 2, 32
 1118 0028 0561     		addi	sp,sp,32
 1119              		.cfi_def_cfa_offset 0
 1120 002a 8280     		jr	ra
 1121              		.cfi_endproc
 1122              	.LFE367:
 1124              		.section	.text.pmu_rf_force_disable,"ax",@progbits
 1125              		.align	1
 1126              		.globl	pmu_rf_force_disable
 1128              	pmu_rf_force_disable:
 1129              	.LFB368:
 393:../Firmware/GD32VW55x_standard_peripheral/Source/gd32vw55x_pmu.c **** 
 394:../Firmware/GD32VW55x_standard_peripheral/Source/gd32vw55x_pmu.c **** /*!
 395:../Firmware/GD32VW55x_standard_peripheral/Source/gd32vw55x_pmu.c ****     \brief      disable RF sequence open/close force
 396:../Firmware/GD32VW55x_standard_peripheral/Source/gd32vw55x_pmu.c ****     \param[in]  force:
 397:../Firmware/GD32VW55x_standard_peripheral/Source/gd32vw55x_pmu.c ****                 only one parameter can be selected which is shown as below:
 398:../Firmware/GD32VW55x_standard_peripheral/Source/gd32vw55x_pmu.c ****       \arg        PMU_RF_FORCE_OPEN: Software force start, open RF power
 399:../Firmware/GD32VW55x_standard_peripheral/Source/gd32vw55x_pmu.c ****       \arg        PMU_RF_FORCE_CLOSE: Software force close, close RF power
 400:../Firmware/GD32VW55x_standard_peripheral/Source/gd32vw55x_pmu.c ****     \param[out] none
 401:../Firmware/GD32VW55x_standard_peripheral/Source/gd32vw55x_pmu.c ****     \retval     none
 402:../Firmware/GD32VW55x_standard_peripheral/Source/gd32vw55x_pmu.c **** */
 403:../Firmware/GD32VW55x_standard_peripheral/Source/gd32vw55x_pmu.c **** void pmu_rf_force_disable(uint32_t force)
 404:../Firmware/GD32VW55x_standard_peripheral/Source/gd32vw55x_pmu.c **** {
 1130              		.loc 1 404 1
 1131              		.cfi_startproc
 1132 0000 0111     		addi	sp,sp,-32
 1133              		.cfi_def_cfa_offset 32
 1134 0002 22CE     		sw	s0,28(sp)
 1135              		.cfi_offset 8, -4
 1136 0004 0010     		addi	s0,sp,32
 1137              		.cfi_def_cfa 8, 0
 1138 0006 2326A4FE 		sw	a0,-20(s0)
 405:../Firmware/GD32VW55x_standard_peripheral/Source/gd32vw55x_pmu.c ****     PMU_RFCTL &= ~force;
 1139              		.loc 1 405 15
 1140 000a B7770040 		li	a5,1073770496
 1141 000e 93870702 		addi	a5,a5,32
 1142 0012 9443     		lw	a3,0(a5)
 1143              		.loc 1 405 18
 1144 0014 8327C4FE 		lw	a5,-20(s0)
 1145 0018 13C7F7FF 		not	a4,a5
 1146              		.loc 1 405 15
 1147 001c B7770040 		li	a5,1073770496
 1148 0020 93870702 		addi	a5,a5,32
 1149 0024 758F     		and	a4,a3,a4
 1150 0026 98C3     		sw	a4,0(a5)
 406:../Firmware/GD32VW55x_standard_peripheral/Source/gd32vw55x_pmu.c **** }
 1151              		.loc 1 406 1
 1152 0028 0100     		nop
 1153 002a 7244     		lw	s0,28(sp)
 1154              		.cfi_restore 8
 1155              		.cfi_def_cfa 2, 32
 1156 002c 0561     		addi	sp,sp,32
 1157              		.cfi_def_cfa_offset 0
 1158 002e 8280     		jr	ra
 1159              		.cfi_endproc
 1160              	.LFE368:
 1162              		.section	.text.pmu_rf_sequence_config,"ax",@progbits
 1163              		.align	1
 1164              		.globl	pmu_rf_sequence_config
 1166              	pmu_rf_sequence_config:
 1167              	.LFB369:
 407:../Firmware/GD32VW55x_standard_peripheral/Source/gd32vw55x_pmu.c **** 
 408:../Firmware/GD32VW55x_standard_peripheral/Source/gd32vw55x_pmu.c **** /*!
 409:../Firmware/GD32VW55x_standard_peripheral/Source/gd32vw55x_pmu.c ****     \brief      configure RF sequence
 410:../Firmware/GD32VW55x_standard_peripheral/Source/gd32vw55x_pmu.c ****     \param[in]  mode:
 411:../Firmware/GD32VW55x_standard_peripheral/Source/gd32vw55x_pmu.c ****                 only one parameter can be selected which is shown as below:
 412:../Firmware/GD32VW55x_standard_peripheral/Source/gd32vw55x_pmu.c ****       \arg        PMU_RF_SOFTWARE: RF software sequence enable
 413:../Firmware/GD32VW55x_standard_peripheral/Source/gd32vw55x_pmu.c ****       \arg        PMU_RF_HARDWARE: RF hardware sequence enable
 414:../Firmware/GD32VW55x_standard_peripheral/Source/gd32vw55x_pmu.c ****     \param[out] none
 415:../Firmware/GD32VW55x_standard_peripheral/Source/gd32vw55x_pmu.c ****     \retval     none
 416:../Firmware/GD32VW55x_standard_peripheral/Source/gd32vw55x_pmu.c **** */
 417:../Firmware/GD32VW55x_standard_peripheral/Source/gd32vw55x_pmu.c **** void pmu_rf_sequence_config(uint32_t mode)
 418:../Firmware/GD32VW55x_standard_peripheral/Source/gd32vw55x_pmu.c **** {
 1168              		.loc 1 418 1
 1169              		.cfi_startproc
 1170 0000 0111     		addi	sp,sp,-32
 1171              		.cfi_def_cfa_offset 32
 1172 0002 22CE     		sw	s0,28(sp)
 1173              		.cfi_offset 8, -4
 1174 0004 0010     		addi	s0,sp,32
 1175              		.cfi_def_cfa 8, 0
 1176 0006 2326A4FE 		sw	a0,-20(s0)
 419:../Firmware/GD32VW55x_standard_peripheral/Source/gd32vw55x_pmu.c ****     PMU_RFCTL &= ~PMU_RFCTL_RFSWEN;
 1177              		.loc 1 419 15
 1178 000a B7770040 		li	a5,1073770496
 1179 000e 93870702 		addi	a5,a5,32
 1180 0012 9843     		lw	a4,0(a5)
 1181 0014 B7770040 		li	a5,1073770496
 1182 0018 93870702 		addi	a5,a5,32
 1183 001c 799B     		andi	a4,a4,-2
 1184 001e 98C3     		sw	a4,0(a5)
 420:../Firmware/GD32VW55x_standard_peripheral/Source/gd32vw55x_pmu.c ****     PMU_RFCTL |= mode;
 1185              		.loc 1 420 15
 1186 0020 B7770040 		li	a5,1073770496
 1187 0024 93870702 		addi	a5,a5,32
 1188 0028 9443     		lw	a3,0(a5)
 1189 002a B7770040 		li	a5,1073770496
 1190 002e 93870702 		addi	a5,a5,32
 1191 0032 0327C4FE 		lw	a4,-20(s0)
 1192 0036 558F     		or	a4,a3,a4
 1193 0038 98C3     		sw	a4,0(a5)
 421:../Firmware/GD32VW55x_standard_peripheral/Source/gd32vw55x_pmu.c **** }
 1194              		.loc 1 421 1
 1195 003a 0100     		nop
 1196 003c 7244     		lw	s0,28(sp)
 1197              		.cfi_restore 8
 1198              		.cfi_def_cfa 2, 32
 1199 003e 0561     		addi	sp,sp,32
 1200              		.cfi_def_cfa_offset 0
 1201 0040 8280     		jr	ra
 1202              		.cfi_endproc
 1203              	.LFE369:
 1205              		.section	.text.pmu_flag_get,"ax",@progbits
 1206              		.align	1
 1207              		.globl	pmu_flag_get
 1209              	pmu_flag_get:
 1210              	.LFB370:
 422:../Firmware/GD32VW55x_standard_peripheral/Source/gd32vw55x_pmu.c **** 
 423:../Firmware/GD32VW55x_standard_peripheral/Source/gd32vw55x_pmu.c **** /*!
 424:../Firmware/GD32VW55x_standard_peripheral/Source/gd32vw55x_pmu.c ****     \brief      get flag state
 425:../Firmware/GD32VW55x_standard_peripheral/Source/gd32vw55x_pmu.c ****     \param[in]  flag:
 426:../Firmware/GD32VW55x_standard_peripheral/Source/gd32vw55x_pmu.c ****                 only one parameter can be selected which is shown as below:
 427:../Firmware/GD32VW55x_standard_peripheral/Source/gd32vw55x_pmu.c ****       \arg        PMU_FLAG_WAKEUP: wakeup flag
 428:../Firmware/GD32VW55x_standard_peripheral/Source/gd32vw55x_pmu.c ****       \arg        PMU_FLAG_STANDBY: standby flag
 429:../Firmware/GD32VW55x_standard_peripheral/Source/gd32vw55x_pmu.c ****       \arg        PMU_FLAG_LVD: VDD low voltage flag
 430:../Firmware/GD32VW55x_standard_peripheral/Source/gd32vw55x_pmu.c ****       \arg        PMU_FLAG_LDOVSRF: LDO voltage select ready flag
 431:../Firmware/GD32VW55x_standard_peripheral/Source/gd32vw55x_pmu.c ****       \arg        PMU_FLAG_LDRF: low-driver mode ready flag
 432:../Firmware/GD32VW55x_standard_peripheral/Source/gd32vw55x_pmu.c ****       \arg        PMU_FLAG_WIFI_SLEEP: WIFI is in sleep state
 433:../Firmware/GD32VW55x_standard_peripheral/Source/gd32vw55x_pmu.c ****       \arg        PMU_FLAG_WIFI_ACTIVE: WIFI is in active state
 434:../Firmware/GD32VW55x_standard_peripheral/Source/gd32vw55x_pmu.c ****       \arg        PMU_FLAG_BLE_POWER: BLE power status
 435:../Firmware/GD32VW55x_standard_peripheral/Source/gd32vw55x_pmu.c ****       \arg        PMU_FLAG_SRAM1_SLEEP: SRAM1 is in sleep state
 436:../Firmware/GD32VW55x_standard_peripheral/Source/gd32vw55x_pmu.c ****       \arg        PMU_FLAG_SRAM1_ACTIVE: SRAM1 is in active state
 437:../Firmware/GD32VW55x_standard_peripheral/Source/gd32vw55x_pmu.c ****       \arg        PMU_FLAG_SRAM0_SLEEP: SRAM0 is in sleep state
 438:../Firmware/GD32VW55x_standard_peripheral/Source/gd32vw55x_pmu.c ****       \arg        PMU_FLAG_SRAM0_ACTIVE: SRAM0 is in active state
 439:../Firmware/GD32VW55x_standard_peripheral/Source/gd32vw55x_pmu.c ****       \arg        PMU_FLAG_SRAM2_SLEEP: SRAM2 is in sleep state
 440:../Firmware/GD32VW55x_standard_peripheral/Source/gd32vw55x_pmu.c ****       \arg        PMU_FLAG_SRAM2_ACTIVE: SRAM2 is in active state
 441:../Firmware/GD32VW55x_standard_peripheral/Source/gd32vw55x_pmu.c ****       \arg        PMU_FLAG_SRAM3_SLEEP: SRAM3 is in sleep state
 442:../Firmware/GD32VW55x_standard_peripheral/Source/gd32vw55x_pmu.c ****       \arg        PMU_FLAG_SRAM3_ACTIVE: SRAM3 is in active state
 443:../Firmware/GD32VW55x_standard_peripheral/Source/gd32vw55x_pmu.c ****       \arg        PMU_FLAG_BLE_SLEEP: BLE is in sleep state
 444:../Firmware/GD32VW55x_standard_peripheral/Source/gd32vw55x_pmu.c ****       \arg        PMU_FLAG_BLE_ACTIVE: BLE is in active state
 445:../Firmware/GD32VW55x_standard_peripheral/Source/gd32vw55x_pmu.c ****       \arg        PMU_FLAG_BLE_POWER_FALL: BLE power status falling edge flag
 446:../Firmware/GD32VW55x_standard_peripheral/Source/gd32vw55x_pmu.c ****       \arg        PMU_FLAG_BLE_POWER_RISE: BLE power status rising edge flag
 447:../Firmware/GD32VW55x_standard_peripheral/Source/gd32vw55x_pmu.c ****     \param[out] none
 448:../Firmware/GD32VW55x_standard_peripheral/Source/gd32vw55x_pmu.c ****     \retval     FlagStatus: SET or RESET
 449:../Firmware/GD32VW55x_standard_peripheral/Source/gd32vw55x_pmu.c **** */
 450:../Firmware/GD32VW55x_standard_peripheral/Source/gd32vw55x_pmu.c **** FlagStatus pmu_flag_get(uint32_t flag)
 451:../Firmware/GD32VW55x_standard_peripheral/Source/gd32vw55x_pmu.c **** {
 1211              		.loc 1 451 1
 1212              		.cfi_startproc
 1213 0000 0111     		addi	sp,sp,-32
 1214              		.cfi_def_cfa_offset 32
 1215 0002 22CE     		sw	s0,28(sp)
 1216              		.cfi_offset 8, -4
 1217 0004 0010     		addi	s0,sp,32
 1218              		.cfi_def_cfa 8, 0
 1219 0006 2326A4FE 		sw	a0,-20(s0)
 452:../Firmware/GD32VW55x_standard_peripheral/Source/gd32vw55x_pmu.c ****     if(flag & BIT(31)) {
 1220              		.loc 1 452 8
 1221 000a 8327C4FE 		lw	a5,-20(s0)
 1222              		.loc 1 452 7
 1223 000e 63D70702 		bge	a5,zero,.L33
 453:../Firmware/GD32VW55x_standard_peripheral/Source/gd32vw55x_pmu.c ****         flag &= ~BIT(31);
 1224              		.loc 1 453 14
 1225 0012 0327C4FE 		lw	a4,-20(s0)
 1226 0016 B7070080 		li	a5,-2147483648
 1227 001a 93C7F7FF 		xori	a5,a5,-1
 1228 001e F98F     		and	a5,a4,a5
 1229 0020 2326F4FE 		sw	a5,-20(s0)
 454:../Firmware/GD32VW55x_standard_peripheral/Source/gd32vw55x_pmu.c ****         /* get WIFI SRAM status */
 455:../Firmware/GD32VW55x_standard_peripheral/Source/gd32vw55x_pmu.c ****         if(PMU_CS1 & flag) {
 1230              		.loc 1 455 12
 1231 0024 B7770040 		li	a5,1073770496
 1232 0028 B107     		addi	a5,a5,12
 1233 002a 9843     		lw	a4,0(a5)
 1234              		.loc 1 455 20
 1235 002c 8327C4FE 		lw	a5,-20(s0)
 1236 0030 F98F     		and	a5,a4,a5
 1237              		.loc 1 455 11
 1238 0032 99C3     		beq	a5,zero,.L34
 456:../Firmware/GD32VW55x_standard_peripheral/Source/gd32vw55x_pmu.c ****             return SET;
 1239              		.loc 1 456 20
 1240 0034 8547     		li	a5,1
 1241 0036 89A8     		j	.L35
 1242              	.L34:
 457:../Firmware/GD32VW55x_standard_peripheral/Source/gd32vw55x_pmu.c ****         }else {
 458:../Firmware/GD32VW55x_standard_peripheral/Source/gd32vw55x_pmu.c ****             return RESET;
 1243              		.loc 1 458 20
 1244 0038 8147     		li	a5,0
 1245 003a B9A0     		j	.L35
 1246              	.L33:
 459:../Firmware/GD32VW55x_standard_peripheral/Source/gd32vw55x_pmu.c ****         }
 460:../Firmware/GD32VW55x_standard_peripheral/Source/gd32vw55x_pmu.c ****     }else if(flag & BIT(30)) {
 1247              		.loc 1 460 19
 1248 003c 0327C4FE 		lw	a4,-20(s0)
 1249 0040 B7070040 		li	a5,1073741824
 1250 0044 F98F     		and	a5,a4,a5
 1251              		.loc 1 460 13
 1252 0046 95C7     		beq	a5,zero,.L36
 461:../Firmware/GD32VW55x_standard_peripheral/Source/gd32vw55x_pmu.c ****         flag &= ~BIT(30);
 1253              		.loc 1 461 14
 1254 0048 0327C4FE 		lw	a4,-20(s0)
 1255 004c B70700C0 		li	a5,-1073741824
 1256 0050 FD17     		addi	a5,a5,-1
 1257 0052 F98F     		and	a5,a4,a5
 1258 0054 2326F4FE 		sw	a5,-20(s0)
 462:../Firmware/GD32VW55x_standard_peripheral/Source/gd32vw55x_pmu.c ****         /* get BLE power status change flag*/
 463:../Firmware/GD32VW55x_standard_peripheral/Source/gd32vw55x_pmu.c ****         if(PMU_INTF & flag) {
 1259              		.loc 1 463 12
 1260 0058 B7770040 		li	a5,1073770496
 1261 005c 9387C702 		addi	a5,a5,44
 1262 0060 9843     		lw	a4,0(a5)
 1263              		.loc 1 463 21
 1264 0062 8327C4FE 		lw	a5,-20(s0)
 1265 0066 F98F     		and	a5,a4,a5
 1266              		.loc 1 463 11
 1267 0068 99C3     		beq	a5,zero,.L37
 464:../Firmware/GD32VW55x_standard_peripheral/Source/gd32vw55x_pmu.c ****             return SET;
 1268              		.loc 1 464 20
 1269 006a 8547     		li	a5,1
 1270 006c 31A8     		j	.L35
 1271              	.L37:
 465:../Firmware/GD32VW55x_standard_peripheral/Source/gd32vw55x_pmu.c ****         }else {
 466:../Firmware/GD32VW55x_standard_peripheral/Source/gd32vw55x_pmu.c ****             return RESET;
 1272              		.loc 1 466 20
 1273 006e 8147     		li	a5,0
 1274 0070 21A8     		j	.L35
 1275              	.L36:
 467:../Firmware/GD32VW55x_standard_peripheral/Source/gd32vw55x_pmu.c ****         }
 468:../Firmware/GD32VW55x_standard_peripheral/Source/gd32vw55x_pmu.c ****     }else {
 469:../Firmware/GD32VW55x_standard_peripheral/Source/gd32vw55x_pmu.c ****         /* get flag status in PMU_CS0 */
 470:../Firmware/GD32VW55x_standard_peripheral/Source/gd32vw55x_pmu.c ****         if(PMU_CS0 & flag) {
 1276              		.loc 1 470 12
 1277 0072 B7770040 		li	a5,1073770496
 1278 0076 9107     		addi	a5,a5,4
 1279 0078 9843     		lw	a4,0(a5)
 1280              		.loc 1 470 20
 1281 007a 8327C4FE 		lw	a5,-20(s0)
 1282 007e F98F     		and	a5,a4,a5
 1283              		.loc 1 470 11
 1284 0080 99C3     		beq	a5,zero,.L38
 471:../Firmware/GD32VW55x_standard_peripheral/Source/gd32vw55x_pmu.c ****             return SET;
 1285              		.loc 1 471 20
 1286 0082 8547     		li	a5,1
 1287 0084 11A0     		j	.L35
 1288              	.L38:
 472:../Firmware/GD32VW55x_standard_peripheral/Source/gd32vw55x_pmu.c ****         }else {
 473:../Firmware/GD32VW55x_standard_peripheral/Source/gd32vw55x_pmu.c ****             return RESET;
 1289              		.loc 1 473 20
 1290 0086 8147     		li	a5,0
 1291              	.L35:
 474:../Firmware/GD32VW55x_standard_peripheral/Source/gd32vw55x_pmu.c ****         }
 475:../Firmware/GD32VW55x_standard_peripheral/Source/gd32vw55x_pmu.c ****     }
 476:../Firmware/GD32VW55x_standard_peripheral/Source/gd32vw55x_pmu.c **** }
 1292              		.loc 1 476 1
 1293 0088 3E85     		mv	a0,a5
 1294 008a 7244     		lw	s0,28(sp)
 1295              		.cfi_restore 8
 1296              		.cfi_def_cfa 2, 32
 1297 008c 0561     		addi	sp,sp,32
 1298              		.cfi_def_cfa_offset 0
 1299 008e 8280     		jr	ra
 1300              		.cfi_endproc
 1301              	.LFE370:
 1303              		.section	.text.pmu_flag_clear,"ax",@progbits
 1304              		.align	1
 1305              		.globl	pmu_flag_clear
 1307              	pmu_flag_clear:
 1308              	.LFB371:
 477:../Firmware/GD32VW55x_standard_peripheral/Source/gd32vw55x_pmu.c **** 
 478:../Firmware/GD32VW55x_standard_peripheral/Source/gd32vw55x_pmu.c **** /*!
 479:../Firmware/GD32VW55x_standard_peripheral/Source/gd32vw55x_pmu.c ****     \brief      clear flag bit
 480:../Firmware/GD32VW55x_standard_peripheral/Source/gd32vw55x_pmu.c ****     \param[in]  flag:
 481:../Firmware/GD32VW55x_standard_peripheral/Source/gd32vw55x_pmu.c ****                 only one parameter can be selected which is shown as below:
 482:../Firmware/GD32VW55x_standard_peripheral/Source/gd32vw55x_pmu.c ****       \arg        PMU_FLAG_RESET_WAKEUP: reset wakeup flag
 483:../Firmware/GD32VW55x_standard_peripheral/Source/gd32vw55x_pmu.c ****       \arg        PMU_FLAG_RESET_STANDBY: reset standby flag
 484:../Firmware/GD32VW55x_standard_peripheral/Source/gd32vw55x_pmu.c ****       \arg        PMU_FLAG_RESET_LDRF: reset Low-driver mode ready flag
 485:../Firmware/GD32VW55x_standard_peripheral/Source/gd32vw55x_pmu.c ****     \param[out] none
 486:../Firmware/GD32VW55x_standard_peripheral/Source/gd32vw55x_pmu.c ****     \retval     none
 487:../Firmware/GD32VW55x_standard_peripheral/Source/gd32vw55x_pmu.c **** */
 488:../Firmware/GD32VW55x_standard_peripheral/Source/gd32vw55x_pmu.c **** void pmu_flag_clear(uint32_t flag)
 489:../Firmware/GD32VW55x_standard_peripheral/Source/gd32vw55x_pmu.c **** {
 1309              		.loc 1 489 1
 1310              		.cfi_startproc
 1311 0000 0111     		addi	sp,sp,-32
 1312              		.cfi_def_cfa_offset 32
 1313 0002 22CE     		sw	s0,28(sp)
 1314              		.cfi_offset 8, -4
 1315 0004 0010     		addi	s0,sp,32
 1316              		.cfi_def_cfa 8, 0
 1317 0006 2326A4FE 		sw	a0,-20(s0)
 490:../Firmware/GD32VW55x_standard_peripheral/Source/gd32vw55x_pmu.c ****     if(PMU_FLAG_RESET_LDRF == flag) {
 1318              		.loc 1 490 7
 1319 000a 0327C4FE 		lw	a4,-20(s0)
 1320 000e B7070C00 		li	a5,786432
 1321 0012 631EF700 		bne	a4,a5,.L40
 491:../Firmware/GD32VW55x_standard_peripheral/Source/gd32vw55x_pmu.c ****         PMU_CS0 |= flag;
 1322              		.loc 1 491 17
 1323 0016 B7770040 		li	a5,1073770496
 1324 001a 9107     		addi	a5,a5,4
 1325 001c 9443     		lw	a3,0(a5)
 1326 001e B7770040 		li	a5,1073770496
 1327 0022 9107     		addi	a5,a5,4
 1328 0024 0327C4FE 		lw	a4,-20(s0)
 1329 0028 558F     		or	a4,a3,a4
 1330 002a 98C3     		sw	a4,0(a5)
 492:../Firmware/GD32VW55x_standard_peripheral/Source/gd32vw55x_pmu.c ****     }else {
 493:../Firmware/GD32VW55x_standard_peripheral/Source/gd32vw55x_pmu.c ****         PMU_CTL0 |= flag;
 494:../Firmware/GD32VW55x_standard_peripheral/Source/gd32vw55x_pmu.c ****     }
 495:../Firmware/GD32VW55x_standard_peripheral/Source/gd32vw55x_pmu.c **** }
 1331              		.loc 1 495 1
 1332 002c 11A8     		j	.L42
 1333              	.L40:
 493:../Firmware/GD32VW55x_standard_peripheral/Source/gd32vw55x_pmu.c ****     }
 1334              		.loc 1 493 18
 1335 002e B7770040 		li	a5,1073770496
 1336 0032 9443     		lw	a3,0(a5)
 1337 0034 B7770040 		li	a5,1073770496
 1338 0038 0327C4FE 		lw	a4,-20(s0)
 1339 003c 558F     		or	a4,a3,a4
 1340 003e 98C3     		sw	a4,0(a5)
 1341              	.L42:
 1342              		.loc 1 495 1
 1343 0040 0100     		nop
 1344 0042 7244     		lw	s0,28(sp)
 1345              		.cfi_restore 8
 1346              		.cfi_def_cfa 2, 32
 1347 0044 0561     		addi	sp,sp,32
 1348              		.cfi_def_cfa_offset 0
 1349 0046 8280     		jr	ra
 1350              		.cfi_endproc
 1351              	.LFE371:
 1353              		.section	.text.pmu_interrupt_enable,"ax",@progbits
 1354              		.align	1
 1355              		.globl	pmu_interrupt_enable
 1357              	pmu_interrupt_enable:
 1358              	.LFB372:
 496:../Firmware/GD32VW55x_standard_peripheral/Source/gd32vw55x_pmu.c **** 
 497:../Firmware/GD32VW55x_standard_peripheral/Source/gd32vw55x_pmu.c **** /*!
 498:../Firmware/GD32VW55x_standard_peripheral/Source/gd32vw55x_pmu.c ****     \brief      enable PMU interrupt
 499:../Firmware/GD32VW55x_standard_peripheral/Source/gd32vw55x_pmu.c ****     \param[in]  interrupt: the PMU interrupt
 500:../Firmware/GD32VW55x_standard_peripheral/Source/gd32vw55x_pmu.c ****                 only one parameter can be selected which is shown as below:
 501:../Firmware/GD32VW55x_standard_peripheral/Source/gd32vw55x_pmu.c ****       \arg        PMU_INT_BLE_POWER_FALL: BLE power status falling edge interrupt
 502:../Firmware/GD32VW55x_standard_peripheral/Source/gd32vw55x_pmu.c ****       \arg        PMU_INT_BLE_POWER_RISE: BLE power status rising edge interrupt
 503:../Firmware/GD32VW55x_standard_peripheral/Source/gd32vw55x_pmu.c ****     \param[out] none
 504:../Firmware/GD32VW55x_standard_peripheral/Source/gd32vw55x_pmu.c ****     \retval     none
 505:../Firmware/GD32VW55x_standard_peripheral/Source/gd32vw55x_pmu.c **** */
 506:../Firmware/GD32VW55x_standard_peripheral/Source/gd32vw55x_pmu.c **** void pmu_interrupt_enable(uint32_t interrupt)
 507:../Firmware/GD32VW55x_standard_peripheral/Source/gd32vw55x_pmu.c **** {
 1359              		.loc 1 507 1
 1360              		.cfi_startproc
 1361 0000 0111     		addi	sp,sp,-32
 1362              		.cfi_def_cfa_offset 32
 1363 0002 22CE     		sw	s0,28(sp)
 1364              		.cfi_offset 8, -4
 1365 0004 0010     		addi	s0,sp,32
 1366              		.cfi_def_cfa 8, 0
 1367 0006 2326A4FE 		sw	a0,-20(s0)
 508:../Firmware/GD32VW55x_standard_peripheral/Source/gd32vw55x_pmu.c ****     PMU_INTEN |= (uint32_t)interrupt;
 1368              		.loc 1 508 15
 1369 000a B7770040 		li	a5,1073770496
 1370 000e 93870703 		addi	a5,a5,48
 1371 0012 9443     		lw	a3,0(a5)
 1372 0014 B7770040 		li	a5,1073770496
 1373 0018 93870703 		addi	a5,a5,48
 1374 001c 0327C4FE 		lw	a4,-20(s0)
 1375 0020 558F     		or	a4,a3,a4
 1376 0022 98C3     		sw	a4,0(a5)
 509:../Firmware/GD32VW55x_standard_peripheral/Source/gd32vw55x_pmu.c **** }
 1377              		.loc 1 509 1
 1378 0024 0100     		nop
 1379 0026 7244     		lw	s0,28(sp)
 1380              		.cfi_restore 8
 1381              		.cfi_def_cfa 2, 32
 1382 0028 0561     		addi	sp,sp,32
 1383              		.cfi_def_cfa_offset 0
 1384 002a 8280     		jr	ra
 1385              		.cfi_endproc
 1386              	.LFE372:
 1388              		.section	.text.pmu_interrupt_disable,"ax",@progbits
 1389              		.align	1
 1390              		.globl	pmu_interrupt_disable
 1392              	pmu_interrupt_disable:
 1393              	.LFB373:
 510:../Firmware/GD32VW55x_standard_peripheral/Source/gd32vw55x_pmu.c **** 
 511:../Firmware/GD32VW55x_standard_peripheral/Source/gd32vw55x_pmu.c **** /*!
 512:../Firmware/GD32VW55x_standard_peripheral/Source/gd32vw55x_pmu.c ****     \brief      disable PMU interrupt
 513:../Firmware/GD32VW55x_standard_peripheral/Source/gd32vw55x_pmu.c ****     \param[in]  interrupt: the PMU interrupt
 514:../Firmware/GD32VW55x_standard_peripheral/Source/gd32vw55x_pmu.c ****                 only one parameter can be selected which is shown as below:
 515:../Firmware/GD32VW55x_standard_peripheral/Source/gd32vw55x_pmu.c ****       \arg        PMU_INT_BLE_POWER_FALL: BLE power status falling edge interrupt
 516:../Firmware/GD32VW55x_standard_peripheral/Source/gd32vw55x_pmu.c ****       \arg        PMU_INT_BLE_POWER_RISE: BLE power status rising edge interrupt
 517:../Firmware/GD32VW55x_standard_peripheral/Source/gd32vw55x_pmu.c ****     \param[out] none
 518:../Firmware/GD32VW55x_standard_peripheral/Source/gd32vw55x_pmu.c ****     \retval     none
 519:../Firmware/GD32VW55x_standard_peripheral/Source/gd32vw55x_pmu.c **** */
 520:../Firmware/GD32VW55x_standard_peripheral/Source/gd32vw55x_pmu.c **** void pmu_interrupt_disable(uint32_t interrupt)
 521:../Firmware/GD32VW55x_standard_peripheral/Source/gd32vw55x_pmu.c **** {
 1394              		.loc 1 521 1
 1395              		.cfi_startproc
 1396 0000 0111     		addi	sp,sp,-32
 1397              		.cfi_def_cfa_offset 32
 1398 0002 22CE     		sw	s0,28(sp)
 1399              		.cfi_offset 8, -4
 1400 0004 0010     		addi	s0,sp,32
 1401              		.cfi_def_cfa 8, 0
 1402 0006 2326A4FE 		sw	a0,-20(s0)
 522:../Firmware/GD32VW55x_standard_peripheral/Source/gd32vw55x_pmu.c ****     PMU_INTEN &= ~((uint32_t)interrupt);
 1403              		.loc 1 522 15
 1404 000a B7770040 		li	a5,1073770496
 1405 000e 93870703 		addi	a5,a5,48
 1406 0012 9443     		lw	a3,0(a5)
 1407              		.loc 1 522 18
 1408 0014 8327C4FE 		lw	a5,-20(s0)
 1409 0018 13C7F7FF 		not	a4,a5
 1410              		.loc 1 522 15
 1411 001c B7770040 		li	a5,1073770496
 1412 0020 93870703 		addi	a5,a5,48
 1413 0024 758F     		and	a4,a3,a4
 1414 0026 98C3     		sw	a4,0(a5)
 523:../Firmware/GD32VW55x_standard_peripheral/Source/gd32vw55x_pmu.c **** }
 1415              		.loc 1 523 1
 1416 0028 0100     		nop
 1417 002a 7244     		lw	s0,28(sp)
 1418              		.cfi_restore 8
 1419              		.cfi_def_cfa 2, 32
 1420 002c 0561     		addi	sp,sp,32
 1421              		.cfi_def_cfa_offset 0
 1422 002e 8280     		jr	ra
 1423              		.cfi_endproc
 1424              	.LFE373:
 1426              		.section	.text.pmu_interrupt_flag_get,"ax",@progbits
 1427              		.align	1
 1428              		.globl	pmu_interrupt_flag_get
 1430              	pmu_interrupt_flag_get:
 1431              	.LFB374:
 524:../Firmware/GD32VW55x_standard_peripheral/Source/gd32vw55x_pmu.c **** 
 525:../Firmware/GD32VW55x_standard_peripheral/Source/gd32vw55x_pmu.c **** /*!
 526:../Firmware/GD32VW55x_standard_peripheral/Source/gd32vw55x_pmu.c ****     \brief      get PMU interrupt flag
 527:../Firmware/GD32VW55x_standard_peripheral/Source/gd32vw55x_pmu.c ****     \param[in]  int_flag: the PMU interrupt flag
 528:../Firmware/GD32VW55x_standard_peripheral/Source/gd32vw55x_pmu.c ****                 only one parameter can be selected which is shown as below:
 529:../Firmware/GD32VW55x_standard_peripheral/Source/gd32vw55x_pmu.c ****       \arg        PMU_INT_FLAG_BLE_POWER_FALL: BLE power status falling edge interrupt
 530:../Firmware/GD32VW55x_standard_peripheral/Source/gd32vw55x_pmu.c ****       \arg        PMU_INT_FLAG_BLE_POWER_RISE: BLE power status rising edge interrupt
 531:../Firmware/GD32VW55x_standard_peripheral/Source/gd32vw55x_pmu.c ****     \param[out] none
 532:../Firmware/GD32VW55x_standard_peripheral/Source/gd32vw55x_pmu.c ****     \retval     FlagStatus: SET or RESET
 533:../Firmware/GD32VW55x_standard_peripheral/Source/gd32vw55x_pmu.c **** */
 534:../Firmware/GD32VW55x_standard_peripheral/Source/gd32vw55x_pmu.c **** FlagStatus pmu_interrupt_flag_get(uint32_t int_flag)
 535:../Firmware/GD32VW55x_standard_peripheral/Source/gd32vw55x_pmu.c **** {
 1432              		.loc 1 535 1
 1433              		.cfi_startproc
 1434 0000 7971     		addi	sp,sp,-48
 1435              		.cfi_def_cfa_offset 48
 1436 0002 22D6     		sw	s0,44(sp)
 1437              		.cfi_offset 8, -4
 1438 0004 0018     		addi	s0,sp,48
 1439              		.cfi_def_cfa 8, 0
 1440 0006 232EA4FC 		sw	a0,-36(s0)
 536:../Firmware/GD32VW55x_standard_peripheral/Source/gd32vw55x_pmu.c ****     FlagStatus interrupt_flag = RESET;
 1441              		.loc 1 536 16
 1442 000a 232604FE 		sw	zero,-20(s0)
 537:../Firmware/GD32VW55x_standard_peripheral/Source/gd32vw55x_pmu.c ****     uint32_t state;
 538:../Firmware/GD32VW55x_standard_peripheral/Source/gd32vw55x_pmu.c ****     /* check the interrupt bits */
 539:../Firmware/GD32VW55x_standard_peripheral/Source/gd32vw55x_pmu.c ****     switch(int_flag){
 1443              		.loc 1 539 5
 1444 000e 0327C4FD 		lw	a4,-36(s0)
 1445 0012 8547     		li	a5,1
 1446 0014 6308F700 		beq	a4,a5,.L46
 1447 0018 0327C4FD 		lw	a4,-36(s0)
 1448 001c 8947     		li	a5,2
 1449 001e 6309F702 		beq	a4,a5,.L47
 540:../Firmware/GD32VW55x_standard_peripheral/Source/gd32vw55x_pmu.c ****     case PMU_INT_FLAG_BLE_POWER_FALL:
 541:../Firmware/GD32VW55x_standard_peripheral/Source/gd32vw55x_pmu.c ****         /* get BLE power status rising edge interrupt bits */
 542:../Firmware/GD32VW55x_standard_peripheral/Source/gd32vw55x_pmu.c ****         state = PMU_INTF & PMU_INTF_BLE_PS_FALLF;
 543:../Firmware/GD32VW55x_standard_peripheral/Source/gd32vw55x_pmu.c ****         if((PMU_INTEN & PMU_INTEN_BLE_PS_FALL_EN) && state){
 544:../Firmware/GD32VW55x_standard_peripheral/Source/gd32vw55x_pmu.c ****           interrupt_flag = SET;
 545:../Firmware/GD32VW55x_standard_peripheral/Source/gd32vw55x_pmu.c ****         }
 546:../Firmware/GD32VW55x_standard_peripheral/Source/gd32vw55x_pmu.c ****         break;
 547:../Firmware/GD32VW55x_standard_peripheral/Source/gd32vw55x_pmu.c ****     case PMU_INT_FLAG_BLE_POWER_RISE:
 548:../Firmware/GD32VW55x_standard_peripheral/Source/gd32vw55x_pmu.c ****          /* get BLE power status rising edge interrupt bits */
 549:../Firmware/GD32VW55x_standard_peripheral/Source/gd32vw55x_pmu.c ****         state = PMU_INTF & PMU_INTF_BLE_PS_RISEF;
 550:../Firmware/GD32VW55x_standard_peripheral/Source/gd32vw55x_pmu.c ****           if((PMU_INTEN & PMU_INTEN_BLE_PS_RISE_EN) && state){
 551:../Firmware/GD32VW55x_standard_peripheral/Source/gd32vw55x_pmu.c ****             interrupt_flag = SET;
 552:../Firmware/GD32VW55x_standard_peripheral/Source/gd32vw55x_pmu.c ****           }
 553:../Firmware/GD32VW55x_standard_peripheral/Source/gd32vw55x_pmu.c ****         break;
 554:../Firmware/GD32VW55x_standard_peripheral/Source/gd32vw55x_pmu.c ****     default:
 555:../Firmware/GD32VW55x_standard_peripheral/Source/gd32vw55x_pmu.c ****         break;
 1450              		.loc 1 555 9
 1451 0022 85A0     		j	.L50
 1452              	.L46:
 542:../Firmware/GD32VW55x_standard_peripheral/Source/gd32vw55x_pmu.c ****         if((PMU_INTEN & PMU_INTEN_BLE_PS_FALL_EN) && state){
 1453              		.loc 1 542 17
 1454 0024 B7770040 		li	a5,1073770496
 1455 0028 9387C702 		addi	a5,a5,44
 1456 002c 9C43     		lw	a5,0(a5)
 542:../Firmware/GD32VW55x_standard_peripheral/Source/gd32vw55x_pmu.c ****         if((PMU_INTEN & PMU_INTEN_BLE_PS_FALL_EN) && state){
 1457              		.loc 1 542 15
 1458 002e 858B     		andi	a5,a5,1
 1459 0030 2324F4FE 		sw	a5,-24(s0)
 543:../Firmware/GD32VW55x_standard_peripheral/Source/gd32vw55x_pmu.c ****           interrupt_flag = SET;
 1460              		.loc 1 543 13
 1461 0034 B7770040 		li	a5,1073770496
 1462 0038 93870703 		addi	a5,a5,48
 1463 003c 9C43     		lw	a5,0(a5)
 543:../Firmware/GD32VW55x_standard_peripheral/Source/gd32vw55x_pmu.c ****           interrupt_flag = SET;
 1464              		.loc 1 543 23
 1465 003e 858B     		andi	a5,a5,1
 543:../Firmware/GD32VW55x_standard_peripheral/Source/gd32vw55x_pmu.c ****           interrupt_flag = SET;
 1466              		.loc 1 543 11
 1467 0040 95CF     		beq	a5,zero,.L53
 543:../Firmware/GD32VW55x_standard_peripheral/Source/gd32vw55x_pmu.c ****           interrupt_flag = SET;
 1468              		.loc 1 543 51 discriminator 1
 1469 0042 832784FE 		lw	a5,-24(s0)
 1470 0046 9DCB     		beq	a5,zero,.L53
 544:../Firmware/GD32VW55x_standard_peripheral/Source/gd32vw55x_pmu.c ****         }
 1471              		.loc 1 544 26
 1472 0048 8547     		li	a5,1
 1473 004a 2326F4FE 		sw	a5,-20(s0)
 546:../Firmware/GD32VW55x_standard_peripheral/Source/gd32vw55x_pmu.c ****     case PMU_INT_FLAG_BLE_POWER_RISE:
 1474              		.loc 1 546 9
 1475 004e 3DA0     		j	.L53
 1476              	.L47:
 549:../Firmware/GD32VW55x_standard_peripheral/Source/gd32vw55x_pmu.c ****           if((PMU_INTEN & PMU_INTEN_BLE_PS_RISE_EN) && state){
 1477              		.loc 1 549 17
 1478 0050 B7770040 		li	a5,1073770496
 1479 0054 9387C702 		addi	a5,a5,44
 1480 0058 9C43     		lw	a5,0(a5)
 549:../Firmware/GD32VW55x_standard_peripheral/Source/gd32vw55x_pmu.c ****           if((PMU_INTEN & PMU_INTEN_BLE_PS_RISE_EN) && state){
 1481              		.loc 1 549 15
 1482 005a 898B     		andi	a5,a5,2
 1483 005c 2324F4FE 		sw	a5,-24(s0)
 550:../Firmware/GD32VW55x_standard_peripheral/Source/gd32vw55x_pmu.c ****             interrupt_flag = SET;
 1484              		.loc 1 550 15
 1485 0060 B7770040 		li	a5,1073770496
 1486 0064 93870703 		addi	a5,a5,48
 1487 0068 9C43     		lw	a5,0(a5)
 550:../Firmware/GD32VW55x_standard_peripheral/Source/gd32vw55x_pmu.c ****             interrupt_flag = SET;
 1488              		.loc 1 550 25
 1489 006a 898B     		andi	a5,a5,2
 550:../Firmware/GD32VW55x_standard_peripheral/Source/gd32vw55x_pmu.c ****             interrupt_flag = SET;
 1490              		.loc 1 550 13
 1491 006c 91CB     		beq	a5,zero,.L54
 550:../Firmware/GD32VW55x_standard_peripheral/Source/gd32vw55x_pmu.c ****             interrupt_flag = SET;
 1492              		.loc 1 550 53 discriminator 1
 1493 006e 832784FE 		lw	a5,-24(s0)
 1494 0072 99C7     		beq	a5,zero,.L54
 551:../Firmware/GD32VW55x_standard_peripheral/Source/gd32vw55x_pmu.c ****           }
 1495              		.loc 1 551 28
 1496 0074 8547     		li	a5,1
 1497 0076 2326F4FE 		sw	a5,-20(s0)
 553:../Firmware/GD32VW55x_standard_peripheral/Source/gd32vw55x_pmu.c ****     default:
 1498              		.loc 1 553 9
 1499 007a 19A0     		j	.L54
 1500              	.L53:
 546:../Firmware/GD32VW55x_standard_peripheral/Source/gd32vw55x_pmu.c ****     case PMU_INT_FLAG_BLE_POWER_RISE:
 1501              		.loc 1 546 9
 1502 007c 0100     		nop
 1503 007e 11A0     		j	.L50
 1504              	.L54:
 553:../Firmware/GD32VW55x_standard_peripheral/Source/gd32vw55x_pmu.c ****     default:
 1505              		.loc 1 553 9
 1506 0080 0100     		nop
 1507              	.L50:
 556:../Firmware/GD32VW55x_standard_peripheral/Source/gd32vw55x_pmu.c ****     }
 557:../Firmware/GD32VW55x_standard_peripheral/Source/gd32vw55x_pmu.c ****     return interrupt_flag;
 1508              		.loc 1 557 12
 1509 0082 8327C4FE 		lw	a5,-20(s0)
 558:../Firmware/GD32VW55x_standard_peripheral/Source/gd32vw55x_pmu.c **** }
 1510              		.loc 1 558 1
 1511 0086 3E85     		mv	a0,a5
 1512 0088 3254     		lw	s0,44(sp)
 1513              		.cfi_restore 8
 1514              		.cfi_def_cfa 2, 48
 1515 008a 4561     		addi	sp,sp,48
 1516              		.cfi_def_cfa_offset 0
 1517 008c 8280     		jr	ra
 1518              		.cfi_endproc
 1519              	.LFE374:
 1521              		.section	.text.pmu_interrupt_flag_clear,"ax",@progbits
 1522              		.align	1
 1523              		.globl	pmu_interrupt_flag_clear
 1525              	pmu_interrupt_flag_clear:
 1526              	.LFB375:
 559:../Firmware/GD32VW55x_standard_peripheral/Source/gd32vw55x_pmu.c **** 
 560:../Firmware/GD32VW55x_standard_peripheral/Source/gd32vw55x_pmu.c **** /*!
 561:../Firmware/GD32VW55x_standard_peripheral/Source/gd32vw55x_pmu.c ****     \brief      clear PMU interrupt flag
 562:../Firmware/GD32VW55x_standard_peripheral/Source/gd32vw55x_pmu.c ****     \param[in]  int_flag: the PMU interrupt flag
 563:../Firmware/GD32VW55x_standard_peripheral/Source/gd32vw55x_pmu.c ****                 only one parameter can be selected which is shown as below:
 564:../Firmware/GD32VW55x_standard_peripheral/Source/gd32vw55x_pmu.c ****       \arg        PMU_INT_FLAG_RESET_BLE_POWER_FALL: BLE power status falling edge interrupt
 565:../Firmware/GD32VW55x_standard_peripheral/Source/gd32vw55x_pmu.c ****       \arg        PMU_INT_FLAG_RESET_BLE_POWER_RISE: BLE power status rising edge interrupt
 566:../Firmware/GD32VW55x_standard_peripheral/Source/gd32vw55x_pmu.c ****     \param[out] none
 567:../Firmware/GD32VW55x_standard_peripheral/Source/gd32vw55x_pmu.c ****     \retval     none
 568:../Firmware/GD32VW55x_standard_peripheral/Source/gd32vw55x_pmu.c **** */
 569:../Firmware/GD32VW55x_standard_peripheral/Source/gd32vw55x_pmu.c **** void pmu_interrupt_flag_clear(uint32_t int_flag)
 570:../Firmware/GD32VW55x_standard_peripheral/Source/gd32vw55x_pmu.c **** {
 1527              		.loc 1 570 1
 1528              		.cfi_startproc
 1529 0000 0111     		addi	sp,sp,-32
 1530              		.cfi_def_cfa_offset 32
 1531 0002 22CE     		sw	s0,28(sp)
 1532              		.cfi_offset 8, -4
 1533 0004 0010     		addi	s0,sp,32
 1534              		.cfi_def_cfa 8, 0
 1535 0006 2326A4FE 		sw	a0,-20(s0)
 571:../Firmware/GD32VW55x_standard_peripheral/Source/gd32vw55x_pmu.c ****     PMU_INTC |= (uint32_t)int_flag;
 1536              		.loc 1 571 14
 1537 000a B7770040 		li	a5,1073770496
 1538 000e 93874703 		addi	a5,a5,52
 1539 0012 9443     		lw	a3,0(a5)
 1540 0014 B7770040 		li	a5,1073770496
 1541 0018 93874703 		addi	a5,a5,52
 1542 001c 0327C4FE 		lw	a4,-20(s0)
 1543 0020 558F     		or	a4,a3,a4
 1544 0022 98C3     		sw	a4,0(a5)
 572:../Firmware/GD32VW55x_standard_peripheral/Source/gd32vw55x_pmu.c **** }
 1545              		.loc 1 572 1
 1546 0024 0100     		nop
 1547 0026 7244     		lw	s0,28(sp)
 1548              		.cfi_restore 8
 1549              		.cfi_def_cfa 2, 32
 1550 0028 0561     		addi	sp,sp,32
 1551              		.cfi_def_cfa_offset 0
 1552 002a 8280     		jr	ra
 1553              		.cfi_endproc
 1554              	.LFE375:
 1556              		.text
 1557              	.Letext0:
 1558              		.file 3 "e:\\gd32\\gd32embeddedbuilder_v1.5.2.30854\\tools\\nuclei_riscv_newlibc_prebuilt_win32_20
 1559              		.file 4 "e:\\gd32\\gd32embeddedbuilder_v1.5.2.30854\\tools\\nuclei_riscv_newlibc_prebuilt_win32_20
 1560              		.file 5 "../Firmware/GD32VW55x_standard_peripheral/gd32vw55x.h"
 1561              		.file 6 "../Firmware/GD32VW55x_standard_peripheral/Include/gd32vw55x_rcu.h"
DEFINED SYMBOLS
                            *ABS*:0000000000000000 gd32vw55x_pmu.c
C:\Users\CYMR90~1\AppData\Local\Temp\ccj5QhVO.s:13     .text.pmu_deinit:0000000000000000 pmu_deinit
C:\Users\CYMR90~1\AppData\Local\Temp\ccj5QhVO.s:17     .text.pmu_deinit:0000000000000000 .L0 
C:\Users\CYMR90~1\AppData\Local\Temp\ccj5QhVO.s:18     .text.pmu_deinit:0000000000000000 .L0 
C:\Users\CYMR90~1\AppData\Local\Temp\ccj5QhVO.s:19     .text.pmu_deinit:0000000000000002 .L0 
C:\Users\CYMR90~1\AppData\Local\Temp\ccj5QhVO.s:22     .text.pmu_deinit:0000000000000006 .L0 
C:\Users\CYMR90~1\AppData\Local\Temp\ccj5QhVO.s:23     .text.pmu_deinit:0000000000000006 .L0 
C:\Users\CYMR90~1\AppData\Local\Temp\ccj5QhVO.s:25     .text.pmu_deinit:0000000000000008 .L0 
C:\Users\CYMR90~1\AppData\Local\Temp\ccj5QhVO.s:27     .text.pmu_deinit:0000000000000008 .L0 
C:\Users\CYMR90~1\AppData\Local\Temp\ccj5QhVO.s:31     .text.pmu_deinit:0000000000000016 .L0 
C:\Users\CYMR90~1\AppData\Local\Temp\ccj5QhVO.s:35     .text.pmu_deinit:0000000000000024 .L0 
C:\Users\CYMR90~1\AppData\Local\Temp\ccj5QhVO.s:37     .text.pmu_deinit:0000000000000028 .L0 
C:\Users\CYMR90~1\AppData\Local\Temp\ccj5QhVO.s:39     .text.pmu_deinit:000000000000002a .L0 
C:\Users\CYMR90~1\AppData\Local\Temp\ccj5QhVO.s:40     .text.pmu_deinit:000000000000002a .L0 
C:\Users\CYMR90~1\AppData\Local\Temp\ccj5QhVO.s:42     .text.pmu_deinit:000000000000002c .L0 
C:\Users\CYMR90~1\AppData\Local\Temp\ccj5QhVO.s:44     .text.pmu_deinit:000000000000002e .L0 
C:\Users\CYMR90~1\AppData\Local\Temp\ccj5QhVO.s:51     .text.pmu_lvd_select:0000000000000000 pmu_lvd_select
C:\Users\CYMR90~1\AppData\Local\Temp\ccj5QhVO.s:54     .text.pmu_lvd_select:0000000000000000 .L0 
C:\Users\CYMR90~1\AppData\Local\Temp\ccj5QhVO.s:55     .text.pmu_lvd_select:0000000000000000 .L0 
C:\Users\CYMR90~1\AppData\Local\Temp\ccj5QhVO.s:56     .text.pmu_lvd_select:0000000000000002 .L0 
C:\Users\CYMR90~1\AppData\Local\Temp\ccj5QhVO.s:58     .text.pmu_lvd_select:0000000000000004 .L0 
C:\Users\CYMR90~1\AppData\Local\Temp\ccj5QhVO.s:60     .text.pmu_lvd_select:0000000000000006 .L0 
C:\Users\CYMR90~1\AppData\Local\Temp\ccj5QhVO.s:63     .text.pmu_lvd_select:000000000000000a .L0 
C:\Users\CYMR90~1\AppData\Local\Temp\ccj5QhVO.s:69     .text.pmu_lvd_select:0000000000000018 .L0 
C:\Users\CYMR90~1\AppData\Local\Temp\ccj5QhVO.s:75     .text.pmu_lvd_select:0000000000000028 .L0 
C:\Users\CYMR90~1\AppData\Local\Temp\ccj5QhVO.s:82     .text.pmu_lvd_select:000000000000003a .L0 
C:\Users\CYMR90~1\AppData\Local\Temp\ccj5QhVO.s:88     .text.pmu_lvd_select:000000000000004a .L0 
C:\Users\CYMR90~1\AppData\Local\Temp\ccj5QhVO.s:90     .text.pmu_lvd_select:000000000000004e .L0 
C:\Users\CYMR90~1\AppData\Local\Temp\ccj5QhVO.s:91     .text.pmu_lvd_select:000000000000004e .L0 
C:\Users\CYMR90~1\AppData\Local\Temp\ccj5QhVO.s:93     .text.pmu_lvd_select:0000000000000050 .L0 
C:\Users\CYMR90~1\AppData\Local\Temp\ccj5QhVO.s:95     .text.pmu_lvd_select:0000000000000052 .L0 
C:\Users\CYMR90~1\AppData\Local\Temp\ccj5QhVO.s:102    .text.pmu_lvd_enable:0000000000000000 pmu_lvd_enable
C:\Users\CYMR90~1\AppData\Local\Temp\ccj5QhVO.s:105    .text.pmu_lvd_enable:0000000000000000 .L0 
C:\Users\CYMR90~1\AppData\Local\Temp\ccj5QhVO.s:106    .text.pmu_lvd_enable:0000000000000000 .L0 
C:\Users\CYMR90~1\AppData\Local\Temp\ccj5QhVO.s:107    .text.pmu_lvd_enable:0000000000000002 .L0 
C:\Users\CYMR90~1\AppData\Local\Temp\ccj5QhVO.s:109    .text.pmu_lvd_enable:0000000000000004 .L0 
C:\Users\CYMR90~1\AppData\Local\Temp\ccj5QhVO.s:111    .text.pmu_lvd_enable:0000000000000006 .L0 
C:\Users\CYMR90~1\AppData\Local\Temp\ccj5QhVO.s:113    .text.pmu_lvd_enable:0000000000000006 .L0 
C:\Users\CYMR90~1\AppData\Local\Temp\ccj5QhVO.s:119    .text.pmu_lvd_enable:0000000000000016 .L0 
C:\Users\CYMR90~1\AppData\Local\Temp\ccj5QhVO.s:121    .text.pmu_lvd_enable:000000000000001a .L0 
C:\Users\CYMR90~1\AppData\Local\Temp\ccj5QhVO.s:122    .text.pmu_lvd_enable:000000000000001a .L0 
C:\Users\CYMR90~1\AppData\Local\Temp\ccj5QhVO.s:124    .text.pmu_lvd_enable:000000000000001c .L0 
C:\Users\CYMR90~1\AppData\Local\Temp\ccj5QhVO.s:126    .text.pmu_lvd_enable:000000000000001e .L0 
C:\Users\CYMR90~1\AppData\Local\Temp\ccj5QhVO.s:133    .text.pmu_lvd_disable:0000000000000000 pmu_lvd_disable
C:\Users\CYMR90~1\AppData\Local\Temp\ccj5QhVO.s:136    .text.pmu_lvd_disable:0000000000000000 .L0 
C:\Users\CYMR90~1\AppData\Local\Temp\ccj5QhVO.s:137    .text.pmu_lvd_disable:0000000000000000 .L0 
C:\Users\CYMR90~1\AppData\Local\Temp\ccj5QhVO.s:138    .text.pmu_lvd_disable:0000000000000002 .L0 
C:\Users\CYMR90~1\AppData\Local\Temp\ccj5QhVO.s:140    .text.pmu_lvd_disable:0000000000000004 .L0 
C:\Users\CYMR90~1\AppData\Local\Temp\ccj5QhVO.s:142    .text.pmu_lvd_disable:0000000000000006 .L0 
C:\Users\CYMR90~1\AppData\Local\Temp\ccj5QhVO.s:144    .text.pmu_lvd_disable:0000000000000006 .L0 
C:\Users\CYMR90~1\AppData\Local\Temp\ccj5QhVO.s:150    .text.pmu_lvd_disable:0000000000000014 .L0 
C:\Users\CYMR90~1\AppData\Local\Temp\ccj5QhVO.s:152    .text.pmu_lvd_disable:0000000000000018 .L0 
C:\Users\CYMR90~1\AppData\Local\Temp\ccj5QhVO.s:153    .text.pmu_lvd_disable:0000000000000018 .L0 
C:\Users\CYMR90~1\AppData\Local\Temp\ccj5QhVO.s:155    .text.pmu_lvd_disable:000000000000001a .L0 
C:\Users\CYMR90~1\AppData\Local\Temp\ccj5QhVO.s:157    .text.pmu_lvd_disable:000000000000001c .L0 
C:\Users\CYMR90~1\AppData\Local\Temp\ccj5QhVO.s:164    .text.pmu_backup_write_enable:0000000000000000 pmu_backup_write_enable
C:\Users\CYMR90~1\AppData\Local\Temp\ccj5QhVO.s:167    .text.pmu_backup_write_enable:0000000000000000 .L0 
C:\Users\CYMR90~1\AppData\Local\Temp\ccj5QhVO.s:168    .text.pmu_backup_write_enable:0000000000000000 .L0 
C:\Users\CYMR90~1\AppData\Local\Temp\ccj5QhVO.s:169    .text.pmu_backup_write_enable:0000000000000002 .L0 
C:\Users\CYMR90~1\AppData\Local\Temp\ccj5QhVO.s:171    .text.pmu_backup_write_enable:0000000000000004 .L0 
C:\Users\CYMR90~1\AppData\Local\Temp\ccj5QhVO.s:173    .text.pmu_backup_write_enable:0000000000000006 .L0 
C:\Users\CYMR90~1\AppData\Local\Temp\ccj5QhVO.s:175    .text.pmu_backup_write_enable:0000000000000006 .L0 
C:\Users\CYMR90~1\AppData\Local\Temp\ccj5QhVO.s:181    .text.pmu_backup_write_enable:0000000000000016 .L0 
C:\Users\CYMR90~1\AppData\Local\Temp\ccj5QhVO.s:183    .text.pmu_backup_write_enable:000000000000001a .L0 
C:\Users\CYMR90~1\AppData\Local\Temp\ccj5QhVO.s:184    .text.pmu_backup_write_enable:000000000000001a .L0 
C:\Users\CYMR90~1\AppData\Local\Temp\ccj5QhVO.s:186    .text.pmu_backup_write_enable:000000000000001c .L0 
C:\Users\CYMR90~1\AppData\Local\Temp\ccj5QhVO.s:188    .text.pmu_backup_write_enable:000000000000001e .L0 
C:\Users\CYMR90~1\AppData\Local\Temp\ccj5QhVO.s:195    .text.pmu_backup_write_disable:0000000000000000 pmu_backup_write_disable
C:\Users\CYMR90~1\AppData\Local\Temp\ccj5QhVO.s:198    .text.pmu_backup_write_disable:0000000000000000 .L0 
C:\Users\CYMR90~1\AppData\Local\Temp\ccj5QhVO.s:199    .text.pmu_backup_write_disable:0000000000000000 .L0 
C:\Users\CYMR90~1\AppData\Local\Temp\ccj5QhVO.s:200    .text.pmu_backup_write_disable:0000000000000002 .L0 
C:\Users\CYMR90~1\AppData\Local\Temp\ccj5QhVO.s:202    .text.pmu_backup_write_disable:0000000000000004 .L0 
C:\Users\CYMR90~1\AppData\Local\Temp\ccj5QhVO.s:204    .text.pmu_backup_write_disable:0000000000000006 .L0 
C:\Users\CYMR90~1\AppData\Local\Temp\ccj5QhVO.s:206    .text.pmu_backup_write_disable:0000000000000006 .L0 
C:\Users\CYMR90~1\AppData\Local\Temp\ccj5QhVO.s:212    .text.pmu_backup_write_disable:0000000000000016 .L0 
C:\Users\CYMR90~1\AppData\Local\Temp\ccj5QhVO.s:214    .text.pmu_backup_write_disable:000000000000001a .L0 
C:\Users\CYMR90~1\AppData\Local\Temp\ccj5QhVO.s:215    .text.pmu_backup_write_disable:000000000000001a .L0 
C:\Users\CYMR90~1\AppData\Local\Temp\ccj5QhVO.s:217    .text.pmu_backup_write_disable:000000000000001c .L0 
C:\Users\CYMR90~1\AppData\Local\Temp\ccj5QhVO.s:219    .text.pmu_backup_write_disable:000000000000001e .L0 
C:\Users\CYMR90~1\AppData\Local\Temp\ccj5QhVO.s:226    .text.pmu_to_sleepmode:0000000000000000 pmu_to_sleepmode
C:\Users\CYMR90~1\AppData\Local\Temp\ccj5QhVO.s:229    .text.pmu_to_sleepmode:0000000000000000 .L0 
C:\Users\CYMR90~1\AppData\Local\Temp\ccj5QhVO.s:230    .text.pmu_to_sleepmode:0000000000000000 .L0 
C:\Users\CYMR90~1\AppData\Local\Temp\ccj5QhVO.s:231    .text.pmu_to_sleepmode:0000000000000002 .L0 
C:\Users\CYMR90~1\AppData\Local\Temp\ccj5QhVO.s:234    .text.pmu_to_sleepmode:0000000000000006 .L0 
C:\Users\CYMR90~1\AppData\Local\Temp\ccj5QhVO.s:235    .text.pmu_to_sleepmode:0000000000000006 .L0 
C:\Users\CYMR90~1\AppData\Local\Temp\ccj5QhVO.s:237    .text.pmu_to_sleepmode:0000000000000008 .L0 
C:\Users\CYMR90~1\AppData\Local\Temp\ccj5QhVO.s:246    .text.pmu_to_sleepmode:0000000000000012 .L0 
C:\Users\CYMR90~1\AppData\Local\Temp\ccj5QhVO.s:254    .text.pmu_to_sleepmode:000000000000001a .L0 
C:\Users\CYMR90~1\AppData\Local\Temp\ccj5QhVO.s:258    .text.pmu_to_sleepmode:000000000000001c .L0 
C:\Users\CYMR90~1\AppData\Local\Temp\ccj5QhVO.s:264    .text.pmu_to_sleepmode:0000000000000022 .L0 
../Firmware/RISCV/drivers/core_feature_base.h:719    .text.pmu_to_sleepmode:0000000000000028 .L0 
C:\Users\CYMR90~1\AppData\Local\Temp\ccj5QhVO.s:278    .text.pmu_to_sleepmode:000000000000002c .L0 
C:\Users\CYMR90~1\AppData\Local\Temp\ccj5QhVO.s:286    .text.pmu_to_sleepmode:000000000000002e .L0 
C:\Users\CYMR90~1\AppData\Local\Temp\ccj5QhVO.s:294    .text.pmu_to_sleepmode:0000000000000034 .L0 
C:\Users\CYMR90~1\AppData\Local\Temp\ccj5QhVO.s:301    .text.pmu_to_sleepmode:0000000000000036 .L0 
../Firmware/RISCV/drivers/core_feature_base.h:732    .text.pmu_to_sleepmode:000000000000003c .L0 
C:\Users\CYMR90~1\AppData\Local\Temp\ccj5QhVO.s:316    .text.pmu_to_sleepmode:0000000000000040 .L0 
C:\Users\CYMR90~1\AppData\Local\Temp\ccj5QhVO.s:324    .text.pmu_to_sleepmode:0000000000000046 .L0 
C:\Users\CYMR90~1\AppData\Local\Temp\ccj5QhVO.s:331    .text.pmu_to_sleepmode:0000000000000048 .L0 
C:\Users\CYMR90~1\AppData\Local\Temp\ccj5QhVO.s:339    .text.pmu_to_sleepmode:000000000000004e .L0 
C:\Users\CYMR90~1\AppData\Local\Temp\ccj5QhVO.s:344    .text.pmu_to_sleepmode:0000000000000050 .L0 
C:\Users\CYMR90~1\AppData\Local\Temp\ccj5QhVO.s:346    .text.pmu_to_sleepmode:0000000000000054 .L0 
C:\Users\CYMR90~1\AppData\Local\Temp\ccj5QhVO.s:347    .text.pmu_to_sleepmode:0000000000000054 .L0 
C:\Users\CYMR90~1\AppData\Local\Temp\ccj5QhVO.s:349    .text.pmu_to_sleepmode:0000000000000056 .L0 
C:\Users\CYMR90~1\AppData\Local\Temp\ccj5QhVO.s:351    .text.pmu_to_sleepmode:0000000000000058 .L0 
C:\Users\CYMR90~1\AppData\Local\Temp\ccj5QhVO.s:353    .text.pmu_to_sleepmode:000000000000005a .L0 
C:\Users\CYMR90~1\AppData\Local\Temp\ccj5QhVO.s:360    .text.pmu_to_deepsleepmode:0000000000000000 pmu_to_deepsleepmode
C:\Users\CYMR90~1\AppData\Local\Temp\ccj5QhVO.s:363    .text.pmu_to_deepsleepmode:0000000000000000 .L0 
C:\Users\CYMR90~1\AppData\Local\Temp\ccj5QhVO.s:364    .text.pmu_to_deepsleepmode:0000000000000000 .L0 
C:\Users\CYMR90~1\AppData\Local\Temp\ccj5QhVO.s:365    .text.pmu_to_deepsleepmode:0000000000000002 .L0 
C:\Users\CYMR90~1\AppData\Local\Temp\ccj5QhVO.s:368    .text.pmu_to_deepsleepmode:0000000000000006 .L0 
C:\Users\CYMR90~1\AppData\Local\Temp\ccj5QhVO.s:369    .text.pmu_to_deepsleepmode:0000000000000006 .L0 
C:\Users\CYMR90~1\AppData\Local\Temp\ccj5QhVO.s:371    .text.pmu_to_deepsleepmode:0000000000000008 .L0 
C:\Users\CYMR90~1\AppData\Local\Temp\ccj5QhVO.s:377    .text.pmu_to_deepsleepmode:0000000000000016 .L0 
C:\Users\CYMR90~1\AppData\Local\Temp\ccj5QhVO.s:385    .text.pmu_to_deepsleepmode:000000000000002c .L0 
C:\Users\CYMR90~1\AppData\Local\Temp\ccj5QhVO.s:392    .text.pmu_to_deepsleepmode:000000000000003e .L0 
C:\Users\CYMR90~1\AppData\Local\Temp\ccj5QhVO.s:396    .text.pmu_to_deepsleepmode:000000000000004a .L0 
C:\Users\CYMR90~1\AppData\Local\Temp\ccj5QhVO.s:399    .text.pmu_to_deepsleepmode:0000000000000050 .L0 
C:\Users\CYMR90~1\AppData\Local\Temp\ccj5QhVO.s:409    .text.pmu_to_deepsleepmode:0000000000000068 .L0 
C:\Users\CYMR90~1\AppData\Local\Temp\ccj5QhVO.s:423    .text.pmu_to_deepsleepmode:0000000000000084 .L0 
C:\Users\CYMR90~1\AppData\Local\Temp\ccj5QhVO.s:431    .text.pmu_to_deepsleepmode:000000000000008c .L0 
C:\Users\CYMR90~1\AppData\Local\Temp\ccj5QhVO.s:435    .text.pmu_to_deepsleepmode:000000000000008e .L0 
C:\Users\CYMR90~1\AppData\Local\Temp\ccj5QhVO.s:441    .text.pmu_to_deepsleepmode:0000000000000094 .L0 
../Firmware/RISCV/drivers/core_feature_base.h:719    .text.pmu_to_deepsleepmode:000000000000009a .L0 
C:\Users\CYMR90~1\AppData\Local\Temp\ccj5QhVO.s:455    .text.pmu_to_deepsleepmode:000000000000009e .L0 
C:\Users\CYMR90~1\AppData\Local\Temp\ccj5QhVO.s:463    .text.pmu_to_deepsleepmode:00000000000000a0 .L0 
C:\Users\CYMR90~1\AppData\Local\Temp\ccj5QhVO.s:471    .text.pmu_to_deepsleepmode:00000000000000a6 .L0 
C:\Users\CYMR90~1\AppData\Local\Temp\ccj5QhVO.s:478    .text.pmu_to_deepsleepmode:00000000000000a8 .L0 
../Firmware/RISCV/drivers/core_feature_base.h:732    .text.pmu_to_deepsleepmode:00000000000000ae .L0 
C:\Users\CYMR90~1\AppData\Local\Temp\ccj5QhVO.s:493    .text.pmu_to_deepsleepmode:00000000000000b2 .L0 
C:\Users\CYMR90~1\AppData\Local\Temp\ccj5QhVO.s:501    .text.pmu_to_deepsleepmode:00000000000000b8 .L0 
C:\Users\CYMR90~1\AppData\Local\Temp\ccj5QhVO.s:508    .text.pmu_to_deepsleepmode:00000000000000ba .L0 
C:\Users\CYMR90~1\AppData\Local\Temp\ccj5QhVO.s:516    .text.pmu_to_deepsleepmode:00000000000000c0 .L0 
C:\Users\CYMR90~1\AppData\Local\Temp\ccj5QhVO.s:525    .text.pmu_to_deepsleepmode:00000000000000c6 .L0 
C:\Users\CYMR90~1\AppData\Local\Temp\ccj5QhVO.s:533    .text.pmu_to_deepsleepmode:00000000000000ce .L0 
C:\Users\CYMR90~1\AppData\Local\Temp\ccj5QhVO.s:537    .text.pmu_to_deepsleepmode:00000000000000d0 .L0 
C:\Users\CYMR90~1\AppData\Local\Temp\ccj5QhVO.s:539    .text.pmu_to_deepsleepmode:00000000000000d4 .L0 
C:\Users\CYMR90~1\AppData\Local\Temp\ccj5QhVO.s:540    .text.pmu_to_deepsleepmode:00000000000000d4 .L0 
C:\Users\CYMR90~1\AppData\Local\Temp\ccj5QhVO.s:542    .text.pmu_to_deepsleepmode:00000000000000d6 .L0 
C:\Users\CYMR90~1\AppData\Local\Temp\ccj5QhVO.s:544    .text.pmu_to_deepsleepmode:00000000000000d8 .L0 
C:\Users\CYMR90~1\AppData\Local\Temp\ccj5QhVO.s:546    .text.pmu_to_deepsleepmode:00000000000000da .L0 
C:\Users\CYMR90~1\AppData\Local\Temp\ccj5QhVO.s:553    .text.pmu_to_standbymode:0000000000000000 pmu_to_standbymode
C:\Users\CYMR90~1\AppData\Local\Temp\ccj5QhVO.s:556    .text.pmu_to_standbymode:0000000000000000 .L0 
C:\Users\CYMR90~1\AppData\Local\Temp\ccj5QhVO.s:557    .text.pmu_to_standbymode:0000000000000000 .L0 
C:\Users\CYMR90~1\AppData\Local\Temp\ccj5QhVO.s:558    .text.pmu_to_standbymode:0000000000000002 .L0 
C:\Users\CYMR90~1\AppData\Local\Temp\ccj5QhVO.s:561    .text.pmu_to_standbymode:0000000000000006 .L0 
C:\Users\CYMR90~1\AppData\Local\Temp\ccj5QhVO.s:562    .text.pmu_to_standbymode:0000000000000006 .L0 
C:\Users\CYMR90~1\AppData\Local\Temp\ccj5QhVO.s:564    .text.pmu_to_standbymode:0000000000000008 .L0 
C:\Users\CYMR90~1\AppData\Local\Temp\ccj5QhVO.s:573    .text.pmu_to_standbymode:0000000000000014 .L0 
C:\Users\CYMR90~1\AppData\Local\Temp\ccj5QhVO.s:581    .text.pmu_to_standbymode:000000000000001c .L0 
C:\Users\CYMR90~1\AppData\Local\Temp\ccj5QhVO.s:585    .text.pmu_to_standbymode:000000000000001e .L0 
C:\Users\CYMR90~1\AppData\Local\Temp\ccj5QhVO.s:591    .text.pmu_to_standbymode:000000000000002e .L0 
C:\Users\CYMR90~1\AppData\Local\Temp\ccj5QhVO.s:597    .text.pmu_to_standbymode:000000000000003e .L0 
C:\Users\CYMR90~1\AppData\Local\Temp\ccj5QhVO.s:603    .text.pmu_to_standbymode:0000000000000044 .L0 
../Firmware/RISCV/drivers/core_feature_base.h:719    .text.pmu_to_standbymode:000000000000004a .L0 
C:\Users\CYMR90~1\AppData\Local\Temp\ccj5QhVO.s:617    .text.pmu_to_standbymode:000000000000004e .L0 
C:\Users\CYMR90~1\AppData\Local\Temp\ccj5QhVO.s:625    .text.pmu_to_standbymode:0000000000000050 .L0 
C:\Users\CYMR90~1\AppData\Local\Temp\ccj5QhVO.s:633    .text.pmu_to_standbymode:0000000000000056 .L0 
C:\Users\CYMR90~1\AppData\Local\Temp\ccj5QhVO.s:640    .text.pmu_to_standbymode:0000000000000058 .L0 
../Firmware/RISCV/drivers/core_feature_base.h:732    .text.pmu_to_standbymode:000000000000005e .L0 
C:\Users\CYMR90~1\AppData\Local\Temp\ccj5QhVO.s:655    .text.pmu_to_standbymode:0000000000000062 .L0 
C:\Users\CYMR90~1\AppData\Local\Temp\ccj5QhVO.s:663    .text.pmu_to_standbymode:0000000000000068 .L0 
C:\Users\CYMR90~1\AppData\Local\Temp\ccj5QhVO.s:670    .text.pmu_to_standbymode:000000000000006a .L0 
C:\Users\CYMR90~1\AppData\Local\Temp\ccj5QhVO.s:678    .text.pmu_to_standbymode:0000000000000070 .L0 
C:\Users\CYMR90~1\AppData\Local\Temp\ccj5QhVO.s:683    .text.pmu_to_standbymode:0000000000000072 .L0 
C:\Users\CYMR90~1\AppData\Local\Temp\ccj5QhVO.s:685    .text.pmu_to_standbymode:0000000000000076 .L0 
C:\Users\CYMR90~1\AppData\Local\Temp\ccj5QhVO.s:686    .text.pmu_to_standbymode:0000000000000076 .L0 
C:\Users\CYMR90~1\AppData\Local\Temp\ccj5QhVO.s:688    .text.pmu_to_standbymode:0000000000000078 .L0 
C:\Users\CYMR90~1\AppData\Local\Temp\ccj5QhVO.s:690    .text.pmu_to_standbymode:000000000000007a .L0 
C:\Users\CYMR90~1\AppData\Local\Temp\ccj5QhVO.s:692    .text.pmu_to_standbymode:000000000000007c .L0 
C:\Users\CYMR90~1\AppData\Local\Temp\ccj5QhVO.s:699    .text.pmu_wakeup_pin_enable:0000000000000000 pmu_wakeup_pin_enable
C:\Users\CYMR90~1\AppData\Local\Temp\ccj5QhVO.s:702    .text.pmu_wakeup_pin_enable:0000000000000000 .L0 
C:\Users\CYMR90~1\AppData\Local\Temp\ccj5QhVO.s:703    .text.pmu_wakeup_pin_enable:0000000000000000 .L0 
C:\Users\CYMR90~1\AppData\Local\Temp\ccj5QhVO.s:704    .text.pmu_wakeup_pin_enable:0000000000000002 .L0 
C:\Users\CYMR90~1\AppData\Local\Temp\ccj5QhVO.s:706    .text.pmu_wakeup_pin_enable:0000000000000004 .L0 
C:\Users\CYMR90~1\AppData\Local\Temp\ccj5QhVO.s:708    .text.pmu_wakeup_pin_enable:0000000000000006 .L0 
C:\Users\CYMR90~1\AppData\Local\Temp\ccj5QhVO.s:711    .text.pmu_wakeup_pin_enable:000000000000000a .L0 
C:\Users\CYMR90~1\AppData\Local\Temp\ccj5QhVO.s:720    .text.pmu_wakeup_pin_enable:0000000000000020 .L0 
C:\Users\CYMR90~1\AppData\Local\Temp\ccj5QhVO.s:722    .text.pmu_wakeup_pin_enable:0000000000000024 .L0 
C:\Users\CYMR90~1\AppData\Local\Temp\ccj5QhVO.s:723    .text.pmu_wakeup_pin_enable:0000000000000024 .L0 
C:\Users\CYMR90~1\AppData\Local\Temp\ccj5QhVO.s:725    .text.pmu_wakeup_pin_enable:0000000000000026 .L0 
C:\Users\CYMR90~1\AppData\Local\Temp\ccj5QhVO.s:727    .text.pmu_wakeup_pin_enable:0000000000000028 .L0 
C:\Users\CYMR90~1\AppData\Local\Temp\ccj5QhVO.s:734    .text.pmu_wakeup_pin_disable:0000000000000000 pmu_wakeup_pin_disable
C:\Users\CYMR90~1\AppData\Local\Temp\ccj5QhVO.s:737    .text.pmu_wakeup_pin_disable:0000000000000000 .L0 
C:\Users\CYMR90~1\AppData\Local\Temp\ccj5QhVO.s:738    .text.pmu_wakeup_pin_disable:0000000000000000 .L0 
C:\Users\CYMR90~1\AppData\Local\Temp\ccj5QhVO.s:739    .text.pmu_wakeup_pin_disable:0000000000000002 .L0 
C:\Users\CYMR90~1\AppData\Local\Temp\ccj5QhVO.s:741    .text.pmu_wakeup_pin_disable:0000000000000004 .L0 
C:\Users\CYMR90~1\AppData\Local\Temp\ccj5QhVO.s:743    .text.pmu_wakeup_pin_disable:0000000000000006 .L0 
C:\Users\CYMR90~1\AppData\Local\Temp\ccj5QhVO.s:746    .text.pmu_wakeup_pin_disable:000000000000000a .L0 
C:\Users\CYMR90~1\AppData\Local\Temp\ccj5QhVO.s:750    .text.pmu_wakeup_pin_disable:0000000000000012 .L0 
C:\Users\CYMR90~1\AppData\Local\Temp\ccj5QhVO.s:753    .text.pmu_wakeup_pin_disable:000000000000001a .L0 
C:\Users\CYMR90~1\AppData\Local\Temp\ccj5QhVO.s:758    .text.pmu_wakeup_pin_disable:0000000000000024 .L0 
C:\Users\CYMR90~1\AppData\Local\Temp\ccj5QhVO.s:760    .text.pmu_wakeup_pin_disable:0000000000000028 .L0 
C:\Users\CYMR90~1\AppData\Local\Temp\ccj5QhVO.s:761    .text.pmu_wakeup_pin_disable:0000000000000028 .L0 
C:\Users\CYMR90~1\AppData\Local\Temp\ccj5QhVO.s:763    .text.pmu_wakeup_pin_disable:000000000000002a .L0 
C:\Users\CYMR90~1\AppData\Local\Temp\ccj5QhVO.s:765    .text.pmu_wakeup_pin_disable:000000000000002c .L0 
C:\Users\CYMR90~1\AppData\Local\Temp\ccj5QhVO.s:772    .text.pmu_wifi_power_enable:0000000000000000 pmu_wifi_power_enable
C:\Users\CYMR90~1\AppData\Local\Temp\ccj5QhVO.s:775    .text.pmu_wifi_power_enable:0000000000000000 .L0 
C:\Users\CYMR90~1\AppData\Local\Temp\ccj5QhVO.s:776    .text.pmu_wifi_power_enable:0000000000000000 .L0 
C:\Users\CYMR90~1\AppData\Local\Temp\ccj5QhVO.s:777    .text.pmu_wifi_power_enable:0000000000000002 .L0 
C:\Users\CYMR90~1\AppData\Local\Temp\ccj5QhVO.s:779    .text.pmu_wifi_power_enable:0000000000000004 .L0 
C:\Users\CYMR90~1\AppData\Local\Temp\ccj5QhVO.s:781    .text.pmu_wifi_power_enable:0000000000000006 .L0 
C:\Users\CYMR90~1\AppData\Local\Temp\ccj5QhVO.s:783    .text.pmu_wifi_power_enable:0000000000000006 .L0 
C:\Users\CYMR90~1\AppData\Local\Temp\ccj5QhVO.s:791    .text.pmu_wifi_power_enable:000000000000001a .L0 
C:\Users\CYMR90~1\AppData\Local\Temp\ccj5QhVO.s:793    .text.pmu_wifi_power_enable:000000000000001e .L0 
C:\Users\CYMR90~1\AppData\Local\Temp\ccj5QhVO.s:794    .text.pmu_wifi_power_enable:000000000000001e .L0 
C:\Users\CYMR90~1\AppData\Local\Temp\ccj5QhVO.s:796    .text.pmu_wifi_power_enable:0000000000000020 .L0 
C:\Users\CYMR90~1\AppData\Local\Temp\ccj5QhVO.s:798    .text.pmu_wifi_power_enable:0000000000000022 .L0 
C:\Users\CYMR90~1\AppData\Local\Temp\ccj5QhVO.s:805    .text.pmu_wifi_power_disable:0000000000000000 pmu_wifi_power_disable
C:\Users\CYMR90~1\AppData\Local\Temp\ccj5QhVO.s:808    .text.pmu_wifi_power_disable:0000000000000000 .L0 
C:\Users\CYMR90~1\AppData\Local\Temp\ccj5QhVO.s:809    .text.pmu_wifi_power_disable:0000000000000000 .L0 
C:\Users\CYMR90~1\AppData\Local\Temp\ccj5QhVO.s:810    .text.pmu_wifi_power_disable:0000000000000002 .L0 
C:\Users\CYMR90~1\AppData\Local\Temp\ccj5QhVO.s:812    .text.pmu_wifi_power_disable:0000000000000004 .L0 
C:\Users\CYMR90~1\AppData\Local\Temp\ccj5QhVO.s:814    .text.pmu_wifi_power_disable:0000000000000006 .L0 
C:\Users\CYMR90~1\AppData\Local\Temp\ccj5QhVO.s:816    .text.pmu_wifi_power_disable:0000000000000006 .L0 
C:\Users\CYMR90~1\AppData\Local\Temp\ccj5QhVO.s:824    .text.pmu_wifi_power_disable:0000000000000018 .L0 
C:\Users\CYMR90~1\AppData\Local\Temp\ccj5QhVO.s:826    .text.pmu_wifi_power_disable:000000000000001c .L0 
C:\Users\CYMR90~1\AppData\Local\Temp\ccj5QhVO.s:827    .text.pmu_wifi_power_disable:000000000000001c .L0 
C:\Users\CYMR90~1\AppData\Local\Temp\ccj5QhVO.s:829    .text.pmu_wifi_power_disable:000000000000001e .L0 
C:\Users\CYMR90~1\AppData\Local\Temp\ccj5QhVO.s:831    .text.pmu_wifi_power_disable:0000000000000020 .L0 
C:\Users\CYMR90~1\AppData\Local\Temp\ccj5QhVO.s:838    .text.pmu_wifi_sram_control:0000000000000000 pmu_wifi_sram_control
C:\Users\CYMR90~1\AppData\Local\Temp\ccj5QhVO.s:841    .text.pmu_wifi_sram_control:0000000000000000 .L0 
C:\Users\CYMR90~1\AppData\Local\Temp\ccj5QhVO.s:842    .text.pmu_wifi_sram_control:0000000000000000 .L0 
C:\Users\CYMR90~1\AppData\Local\Temp\ccj5QhVO.s:843    .text.pmu_wifi_sram_control:0000000000000002 .L0 
C:\Users\CYMR90~1\AppData\Local\Temp\ccj5QhVO.s:845    .text.pmu_wifi_sram_control:0000000000000004 .L0 
C:\Users\CYMR90~1\AppData\Local\Temp\ccj5QhVO.s:847    .text.pmu_wifi_sram_control:0000000000000006 .L0 
C:\Users\CYMR90~1\AppData\Local\Temp\ccj5QhVO.s:850    .text.pmu_wifi_sram_control:000000000000000a .L0 
C:\Users\CYMR90~1\AppData\Local\Temp\ccj5QhVO.s:859    .text.pmu_wifi_sram_control:0000000000000020 .L0 
C:\Users\CYMR90~1\AppData\Local\Temp\ccj5QhVO.s:861    .text.pmu_wifi_sram_control:0000000000000024 .L0 
C:\Users\CYMR90~1\AppData\Local\Temp\ccj5QhVO.s:862    .text.pmu_wifi_sram_control:0000000000000024 .L0 
C:\Users\CYMR90~1\AppData\Local\Temp\ccj5QhVO.s:864    .text.pmu_wifi_sram_control:0000000000000026 .L0 
C:\Users\CYMR90~1\AppData\Local\Temp\ccj5QhVO.s:866    .text.pmu_wifi_sram_control:0000000000000028 .L0 
C:\Users\CYMR90~1\AppData\Local\Temp\ccj5QhVO.s:873    .text.pmu_ble_control:0000000000000000 pmu_ble_control
C:\Users\CYMR90~1\AppData\Local\Temp\ccj5QhVO.s:876    .text.pmu_ble_control:0000000000000000 .L0 
C:\Users\CYMR90~1\AppData\Local\Temp\ccj5QhVO.s:877    .text.pmu_ble_control:0000000000000000 .L0 
C:\Users\CYMR90~1\AppData\Local\Temp\ccj5QhVO.s:878    .text.pmu_ble_control:0000000000000002 .L0 
C:\Users\CYMR90~1\AppData\Local\Temp\ccj5QhVO.s:880    .text.pmu_ble_control:0000000000000004 .L0 
C:\Users\CYMR90~1\AppData\Local\Temp\ccj5QhVO.s:882    .text.pmu_ble_control:0000000000000006 .L0 
C:\Users\CYMR90~1\AppData\Local\Temp\ccj5QhVO.s:885    .text.pmu_ble_control:000000000000000a .L0 
C:\Users\CYMR90~1\AppData\Local\Temp\ccj5QhVO.s:894    .text.pmu_ble_control:0000000000000020 .L0 
C:\Users\CYMR90~1\AppData\Local\Temp\ccj5QhVO.s:896    .text.pmu_ble_control:0000000000000024 .L0 
C:\Users\CYMR90~1\AppData\Local\Temp\ccj5QhVO.s:897    .text.pmu_ble_control:0000000000000024 .L0 
C:\Users\CYMR90~1\AppData\Local\Temp\ccj5QhVO.s:899    .text.pmu_ble_control:0000000000000026 .L0 
C:\Users\CYMR90~1\AppData\Local\Temp\ccj5QhVO.s:901    .text.pmu_ble_control:0000000000000028 .L0 
C:\Users\CYMR90~1\AppData\Local\Temp\ccj5QhVO.s:908    .text.pmu_ble_wakeup_request_enable:0000000000000000 pmu_ble_wakeup_request_enable
C:\Users\CYMR90~1\AppData\Local\Temp\ccj5QhVO.s:911    .text.pmu_ble_wakeup_request_enable:0000000000000000 .L0 
C:\Users\CYMR90~1\AppData\Local\Temp\ccj5QhVO.s:912    .text.pmu_ble_wakeup_request_enable:0000000000000000 .L0 
C:\Users\CYMR90~1\AppData\Local\Temp\ccj5QhVO.s:913    .text.pmu_ble_wakeup_request_enable:0000000000000002 .L0 
C:\Users\CYMR90~1\AppData\Local\Temp\ccj5QhVO.s:915    .text.pmu_ble_wakeup_request_enable:0000000000000004 .L0 
C:\Users\CYMR90~1\AppData\Local\Temp\ccj5QhVO.s:917    .text.pmu_ble_wakeup_request_enable:0000000000000006 .L0 
C:\Users\CYMR90~1\AppData\Local\Temp\ccj5QhVO.s:919    .text.pmu_ble_wakeup_request_enable:0000000000000006 .L0 
C:\Users\CYMR90~1\AppData\Local\Temp\ccj5QhVO.s:928    .text.pmu_ble_wakeup_request_enable:000000000000001c .L0 
C:\Users\CYMR90~1\AppData\Local\Temp\ccj5QhVO.s:930    .text.pmu_ble_wakeup_request_enable:0000000000000020 .L0 
C:\Users\CYMR90~1\AppData\Local\Temp\ccj5QhVO.s:931    .text.pmu_ble_wakeup_request_enable:0000000000000020 .L0 
C:\Users\CYMR90~1\AppData\Local\Temp\ccj5QhVO.s:933    .text.pmu_ble_wakeup_request_enable:0000000000000022 .L0 
C:\Users\CYMR90~1\AppData\Local\Temp\ccj5QhVO.s:935    .text.pmu_ble_wakeup_request_enable:0000000000000024 .L0 
C:\Users\CYMR90~1\AppData\Local\Temp\ccj5QhVO.s:942    .text.pmu_ble_wakeup_request_disable:0000000000000000 pmu_ble_wakeup_request_disable
C:\Users\CYMR90~1\AppData\Local\Temp\ccj5QhVO.s:945    .text.pmu_ble_wakeup_request_disable:0000000000000000 .L0 
C:\Users\CYMR90~1\AppData\Local\Temp\ccj5QhVO.s:946    .text.pmu_ble_wakeup_request_disable:0000000000000000 .L0 
C:\Users\CYMR90~1\AppData\Local\Temp\ccj5QhVO.s:947    .text.pmu_ble_wakeup_request_disable:0000000000000002 .L0 
C:\Users\CYMR90~1\AppData\Local\Temp\ccj5QhVO.s:949    .text.pmu_ble_wakeup_request_disable:0000000000000004 .L0 
C:\Users\CYMR90~1\AppData\Local\Temp\ccj5QhVO.s:951    .text.pmu_ble_wakeup_request_disable:0000000000000006 .L0 
C:\Users\CYMR90~1\AppData\Local\Temp\ccj5QhVO.s:953    .text.pmu_ble_wakeup_request_disable:0000000000000006 .L0 
C:\Users\CYMR90~1\AppData\Local\Temp\ccj5QhVO.s:963    .text.pmu_ble_wakeup_request_disable:000000000000001e .L0 
C:\Users\CYMR90~1\AppData\Local\Temp\ccj5QhVO.s:965    .text.pmu_ble_wakeup_request_disable:0000000000000022 .L0 
C:\Users\CYMR90~1\AppData\Local\Temp\ccj5QhVO.s:966    .text.pmu_ble_wakeup_request_disable:0000000000000022 .L0 
C:\Users\CYMR90~1\AppData\Local\Temp\ccj5QhVO.s:968    .text.pmu_ble_wakeup_request_disable:0000000000000024 .L0 
C:\Users\CYMR90~1\AppData\Local\Temp\ccj5QhVO.s:970    .text.pmu_ble_wakeup_request_disable:0000000000000026 .L0 
C:\Users\CYMR90~1\AppData\Local\Temp\ccj5QhVO.s:977    .text.pmu_pll_force_enable:0000000000000000 pmu_pll_force_enable
C:\Users\CYMR90~1\AppData\Local\Temp\ccj5QhVO.s:980    .text.pmu_pll_force_enable:0000000000000000 .L0 
C:\Users\CYMR90~1\AppData\Local\Temp\ccj5QhVO.s:981    .text.pmu_pll_force_enable:0000000000000000 .L0 
C:\Users\CYMR90~1\AppData\Local\Temp\ccj5QhVO.s:982    .text.pmu_pll_force_enable:0000000000000002 .L0 
C:\Users\CYMR90~1\AppData\Local\Temp\ccj5QhVO.s:984    .text.pmu_pll_force_enable:0000000000000004 .L0 
C:\Users\CYMR90~1\AppData\Local\Temp\ccj5QhVO.s:986    .text.pmu_pll_force_enable:0000000000000006 .L0 
C:\Users\CYMR90~1\AppData\Local\Temp\ccj5QhVO.s:989    .text.pmu_pll_force_enable:000000000000000a .L0 
C:\Users\CYMR90~1\AppData\Local\Temp\ccj5QhVO.s:998    .text.pmu_pll_force_enable:0000000000000024 .L0 
C:\Users\CYMR90~1\AppData\Local\Temp\ccj5QhVO.s:1000   .text.pmu_pll_force_enable:0000000000000028 .L0 
C:\Users\CYMR90~1\AppData\Local\Temp\ccj5QhVO.s:1001   .text.pmu_pll_force_enable:0000000000000028 .L0 
C:\Users\CYMR90~1\AppData\Local\Temp\ccj5QhVO.s:1003   .text.pmu_pll_force_enable:000000000000002a .L0 
C:\Users\CYMR90~1\AppData\Local\Temp\ccj5QhVO.s:1005   .text.pmu_pll_force_enable:000000000000002c .L0 
C:\Users\CYMR90~1\AppData\Local\Temp\ccj5QhVO.s:1012   .text.pmu_pll_force_disable:0000000000000000 pmu_pll_force_disable
C:\Users\CYMR90~1\AppData\Local\Temp\ccj5QhVO.s:1015   .text.pmu_pll_force_disable:0000000000000000 .L0 
C:\Users\CYMR90~1\AppData\Local\Temp\ccj5QhVO.s:1016   .text.pmu_pll_force_disable:0000000000000000 .L0 
C:\Users\CYMR90~1\AppData\Local\Temp\ccj5QhVO.s:1017   .text.pmu_pll_force_disable:0000000000000002 .L0 
C:\Users\CYMR90~1\AppData\Local\Temp\ccj5QhVO.s:1019   .text.pmu_pll_force_disable:0000000000000004 .L0 
C:\Users\CYMR90~1\AppData\Local\Temp\ccj5QhVO.s:1021   .text.pmu_pll_force_disable:0000000000000006 .L0 
C:\Users\CYMR90~1\AppData\Local\Temp\ccj5QhVO.s:1024   .text.pmu_pll_force_disable:000000000000000a .L0 
C:\Users\CYMR90~1\AppData\Local\Temp\ccj5QhVO.s:1028   .text.pmu_pll_force_disable:0000000000000014 .L0 
C:\Users\CYMR90~1\AppData\Local\Temp\ccj5QhVO.s:1031   .text.pmu_pll_force_disable:000000000000001c .L0 
C:\Users\CYMR90~1\AppData\Local\Temp\ccj5QhVO.s:1036   .text.pmu_pll_force_disable:0000000000000028 .L0 
C:\Users\CYMR90~1\AppData\Local\Temp\ccj5QhVO.s:1038   .text.pmu_pll_force_disable:000000000000002c .L0 
C:\Users\CYMR90~1\AppData\Local\Temp\ccj5QhVO.s:1039   .text.pmu_pll_force_disable:000000000000002c .L0 
C:\Users\CYMR90~1\AppData\Local\Temp\ccj5QhVO.s:1041   .text.pmu_pll_force_disable:000000000000002e .L0 
C:\Users\CYMR90~1\AppData\Local\Temp\ccj5QhVO.s:1043   .text.pmu_pll_force_disable:0000000000000030 .L0 
C:\Users\CYMR90~1\AppData\Local\Temp\ccj5QhVO.s:1050   .text.pmu_ble_rf_config:0000000000000000 pmu_ble_rf_config
C:\Users\CYMR90~1\AppData\Local\Temp\ccj5QhVO.s:1053   .text.pmu_ble_rf_config:0000000000000000 .L0 
C:\Users\CYMR90~1\AppData\Local\Temp\ccj5QhVO.s:1054   .text.pmu_ble_rf_config:0000000000000000 .L0 
C:\Users\CYMR90~1\AppData\Local\Temp\ccj5QhVO.s:1055   .text.pmu_ble_rf_config:0000000000000002 .L0 
C:\Users\CYMR90~1\AppData\Local\Temp\ccj5QhVO.s:1057   .text.pmu_ble_rf_config:0000000000000004 .L0 
C:\Users\CYMR90~1\AppData\Local\Temp\ccj5QhVO.s:1059   .text.pmu_ble_rf_config:0000000000000006 .L0 
C:\Users\CYMR90~1\AppData\Local\Temp\ccj5QhVO.s:1062   .text.pmu_ble_rf_config:000000000000000a .L0 
C:\Users\CYMR90~1\AppData\Local\Temp\ccj5QhVO.s:1070   .text.pmu_ble_rf_config:0000000000000022 .L0 
C:\Users\CYMR90~1\AppData\Local\Temp\ccj5QhVO.s:1079   .text.pmu_ble_rf_config:000000000000003c .L0 
C:\Users\CYMR90~1\AppData\Local\Temp\ccj5QhVO.s:1081   .text.pmu_ble_rf_config:0000000000000040 .L0 
C:\Users\CYMR90~1\AppData\Local\Temp\ccj5QhVO.s:1082   .text.pmu_ble_rf_config:0000000000000040 .L0 
C:\Users\CYMR90~1\AppData\Local\Temp\ccj5QhVO.s:1084   .text.pmu_ble_rf_config:0000000000000042 .L0 
C:\Users\CYMR90~1\AppData\Local\Temp\ccj5QhVO.s:1086   .text.pmu_ble_rf_config:0000000000000044 .L0 
C:\Users\CYMR90~1\AppData\Local\Temp\ccj5QhVO.s:1093   .text.pmu_rf_force_enable:0000000000000000 pmu_rf_force_enable
C:\Users\CYMR90~1\AppData\Local\Temp\ccj5QhVO.s:1096   .text.pmu_rf_force_enable:0000000000000000 .L0 
C:\Users\CYMR90~1\AppData\Local\Temp\ccj5QhVO.s:1097   .text.pmu_rf_force_enable:0000000000000000 .L0 
C:\Users\CYMR90~1\AppData\Local\Temp\ccj5QhVO.s:1098   .text.pmu_rf_force_enable:0000000000000002 .L0 
C:\Users\CYMR90~1\AppData\Local\Temp\ccj5QhVO.s:1100   .text.pmu_rf_force_enable:0000000000000004 .L0 
C:\Users\CYMR90~1\AppData\Local\Temp\ccj5QhVO.s:1102   .text.pmu_rf_force_enable:0000000000000006 .L0 
C:\Users\CYMR90~1\AppData\Local\Temp\ccj5QhVO.s:1105   .text.pmu_rf_force_enable:000000000000000a .L0 
C:\Users\CYMR90~1\AppData\Local\Temp\ccj5QhVO.s:1114   .text.pmu_rf_force_enable:0000000000000024 .L0 
C:\Users\CYMR90~1\AppData\Local\Temp\ccj5QhVO.s:1116   .text.pmu_rf_force_enable:0000000000000028 .L0 
C:\Users\CYMR90~1\AppData\Local\Temp\ccj5QhVO.s:1117   .text.pmu_rf_force_enable:0000000000000028 .L0 
C:\Users\CYMR90~1\AppData\Local\Temp\ccj5QhVO.s:1119   .text.pmu_rf_force_enable:000000000000002a .L0 
C:\Users\CYMR90~1\AppData\Local\Temp\ccj5QhVO.s:1121   .text.pmu_rf_force_enable:000000000000002c .L0 
C:\Users\CYMR90~1\AppData\Local\Temp\ccj5QhVO.s:1128   .text.pmu_rf_force_disable:0000000000000000 pmu_rf_force_disable
C:\Users\CYMR90~1\AppData\Local\Temp\ccj5QhVO.s:1131   .text.pmu_rf_force_disable:0000000000000000 .L0 
C:\Users\CYMR90~1\AppData\Local\Temp\ccj5QhVO.s:1132   .text.pmu_rf_force_disable:0000000000000000 .L0 
C:\Users\CYMR90~1\AppData\Local\Temp\ccj5QhVO.s:1133   .text.pmu_rf_force_disable:0000000000000002 .L0 
C:\Users\CYMR90~1\AppData\Local\Temp\ccj5QhVO.s:1135   .text.pmu_rf_force_disable:0000000000000004 .L0 
C:\Users\CYMR90~1\AppData\Local\Temp\ccj5QhVO.s:1137   .text.pmu_rf_force_disable:0000000000000006 .L0 
C:\Users\CYMR90~1\AppData\Local\Temp\ccj5QhVO.s:1140   .text.pmu_rf_force_disable:000000000000000a .L0 
C:\Users\CYMR90~1\AppData\Local\Temp\ccj5QhVO.s:1144   .text.pmu_rf_force_disable:0000000000000014 .L0 
C:\Users\CYMR90~1\AppData\Local\Temp\ccj5QhVO.s:1147   .text.pmu_rf_force_disable:000000000000001c .L0 
C:\Users\CYMR90~1\AppData\Local\Temp\ccj5QhVO.s:1152   .text.pmu_rf_force_disable:0000000000000028 .L0 
C:\Users\CYMR90~1\AppData\Local\Temp\ccj5QhVO.s:1154   .text.pmu_rf_force_disable:000000000000002c .L0 
C:\Users\CYMR90~1\AppData\Local\Temp\ccj5QhVO.s:1155   .text.pmu_rf_force_disable:000000000000002c .L0 
C:\Users\CYMR90~1\AppData\Local\Temp\ccj5QhVO.s:1157   .text.pmu_rf_force_disable:000000000000002e .L0 
C:\Users\CYMR90~1\AppData\Local\Temp\ccj5QhVO.s:1159   .text.pmu_rf_force_disable:0000000000000030 .L0 
C:\Users\CYMR90~1\AppData\Local\Temp\ccj5QhVO.s:1166   .text.pmu_rf_sequence_config:0000000000000000 pmu_rf_sequence_config
C:\Users\CYMR90~1\AppData\Local\Temp\ccj5QhVO.s:1169   .text.pmu_rf_sequence_config:0000000000000000 .L0 
C:\Users\CYMR90~1\AppData\Local\Temp\ccj5QhVO.s:1170   .text.pmu_rf_sequence_config:0000000000000000 .L0 
C:\Users\CYMR90~1\AppData\Local\Temp\ccj5QhVO.s:1171   .text.pmu_rf_sequence_config:0000000000000002 .L0 
C:\Users\CYMR90~1\AppData\Local\Temp\ccj5QhVO.s:1173   .text.pmu_rf_sequence_config:0000000000000004 .L0 
C:\Users\CYMR90~1\AppData\Local\Temp\ccj5QhVO.s:1175   .text.pmu_rf_sequence_config:0000000000000006 .L0 
C:\Users\CYMR90~1\AppData\Local\Temp\ccj5QhVO.s:1178   .text.pmu_rf_sequence_config:000000000000000a .L0 
C:\Users\CYMR90~1\AppData\Local\Temp\ccj5QhVO.s:1186   .text.pmu_rf_sequence_config:0000000000000020 .L0 
C:\Users\CYMR90~1\AppData\Local\Temp\ccj5QhVO.s:1195   .text.pmu_rf_sequence_config:000000000000003a .L0 
C:\Users\CYMR90~1\AppData\Local\Temp\ccj5QhVO.s:1197   .text.pmu_rf_sequence_config:000000000000003e .L0 
C:\Users\CYMR90~1\AppData\Local\Temp\ccj5QhVO.s:1198   .text.pmu_rf_sequence_config:000000000000003e .L0 
C:\Users\CYMR90~1\AppData\Local\Temp\ccj5QhVO.s:1200   .text.pmu_rf_sequence_config:0000000000000040 .L0 
C:\Users\CYMR90~1\AppData\Local\Temp\ccj5QhVO.s:1202   .text.pmu_rf_sequence_config:0000000000000042 .L0 
C:\Users\CYMR90~1\AppData\Local\Temp\ccj5QhVO.s:1209   .text.pmu_flag_get:0000000000000000 pmu_flag_get
C:\Users\CYMR90~1\AppData\Local\Temp\ccj5QhVO.s:1212   .text.pmu_flag_get:0000000000000000 .L0 
C:\Users\CYMR90~1\AppData\Local\Temp\ccj5QhVO.s:1213   .text.pmu_flag_get:0000000000000000 .L0 
C:\Users\CYMR90~1\AppData\Local\Temp\ccj5QhVO.s:1214   .text.pmu_flag_get:0000000000000002 .L0 
C:\Users\CYMR90~1\AppData\Local\Temp\ccj5QhVO.s:1216   .text.pmu_flag_get:0000000000000004 .L0 
C:\Users\CYMR90~1\AppData\Local\Temp\ccj5QhVO.s:1218   .text.pmu_flag_get:0000000000000006 .L0 
C:\Users\CYMR90~1\AppData\Local\Temp\ccj5QhVO.s:1221   .text.pmu_flag_get:000000000000000a .L0 
C:\Users\CYMR90~1\AppData\Local\Temp\ccj5QhVO.s:1223   .text.pmu_flag_get:000000000000000e .L0 
C:\Users\CYMR90~1\AppData\Local\Temp\ccj5QhVO.s:1225   .text.pmu_flag_get:0000000000000012 .L0 
C:\Users\CYMR90~1\AppData\Local\Temp\ccj5QhVO.s:1231   .text.pmu_flag_get:0000000000000024 .L0 
C:\Users\CYMR90~1\AppData\Local\Temp\ccj5QhVO.s:1235   .text.pmu_flag_get:000000000000002c .L0 
C:\Users\CYMR90~1\AppData\Local\Temp\ccj5QhVO.s:1238   .text.pmu_flag_get:0000000000000032 .L0 
C:\Users\CYMR90~1\AppData\Local\Temp\ccj5QhVO.s:1240   .text.pmu_flag_get:0000000000000034 .L0 
C:\Users\CYMR90~1\AppData\Local\Temp\ccj5QhVO.s:1244   .text.pmu_flag_get:0000000000000038 .L0 
C:\Users\CYMR90~1\AppData\Local\Temp\ccj5QhVO.s:1248   .text.pmu_flag_get:000000000000003c .L0 
C:\Users\CYMR90~1\AppData\Local\Temp\ccj5QhVO.s:1252   .text.pmu_flag_get:0000000000000046 .L0 
C:\Users\CYMR90~1\AppData\Local\Temp\ccj5QhVO.s:1254   .text.pmu_flag_get:0000000000000048 .L0 
C:\Users\CYMR90~1\AppData\Local\Temp\ccj5QhVO.s:1260   .text.pmu_flag_get:0000000000000058 .L0 
C:\Users\CYMR90~1\AppData\Local\Temp\ccj5QhVO.s:1264   .text.pmu_flag_get:0000000000000062 .L0 
C:\Users\CYMR90~1\AppData\Local\Temp\ccj5QhVO.s:1267   .text.pmu_flag_get:0000000000000068 .L0 
C:\Users\CYMR90~1\AppData\Local\Temp\ccj5QhVO.s:1269   .text.pmu_flag_get:000000000000006a .L0 
C:\Users\CYMR90~1\AppData\Local\Temp\ccj5QhVO.s:1273   .text.pmu_flag_get:000000000000006e .L0 
C:\Users\CYMR90~1\AppData\Local\Temp\ccj5QhVO.s:1277   .text.pmu_flag_get:0000000000000072 .L0 
C:\Users\CYMR90~1\AppData\Local\Temp\ccj5QhVO.s:1281   .text.pmu_flag_get:000000000000007a .L0 
C:\Users\CYMR90~1\AppData\Local\Temp\ccj5QhVO.s:1284   .text.pmu_flag_get:0000000000000080 .L0 
C:\Users\CYMR90~1\AppData\Local\Temp\ccj5QhVO.s:1286   .text.pmu_flag_get:0000000000000082 .L0 
C:\Users\CYMR90~1\AppData\Local\Temp\ccj5QhVO.s:1290   .text.pmu_flag_get:0000000000000086 .L0 
C:\Users\CYMR90~1\AppData\Local\Temp\ccj5QhVO.s:1293   .text.pmu_flag_get:0000000000000088 .L0 
C:\Users\CYMR90~1\AppData\Local\Temp\ccj5QhVO.s:1295   .text.pmu_flag_get:000000000000008c .L0 
C:\Users\CYMR90~1\AppData\Local\Temp\ccj5QhVO.s:1296   .text.pmu_flag_get:000000000000008c .L0 
C:\Users\CYMR90~1\AppData\Local\Temp\ccj5QhVO.s:1298   .text.pmu_flag_get:000000000000008e .L0 
C:\Users\CYMR90~1\AppData\Local\Temp\ccj5QhVO.s:1300   .text.pmu_flag_get:0000000000000090 .L0 
C:\Users\CYMR90~1\AppData\Local\Temp\ccj5QhVO.s:1307   .text.pmu_flag_clear:0000000000000000 pmu_flag_clear
C:\Users\CYMR90~1\AppData\Local\Temp\ccj5QhVO.s:1310   .text.pmu_flag_clear:0000000000000000 .L0 
C:\Users\CYMR90~1\AppData\Local\Temp\ccj5QhVO.s:1311   .text.pmu_flag_clear:0000000000000000 .L0 
C:\Users\CYMR90~1\AppData\Local\Temp\ccj5QhVO.s:1312   .text.pmu_flag_clear:0000000000000002 .L0 
C:\Users\CYMR90~1\AppData\Local\Temp\ccj5QhVO.s:1314   .text.pmu_flag_clear:0000000000000004 .L0 
C:\Users\CYMR90~1\AppData\Local\Temp\ccj5QhVO.s:1316   .text.pmu_flag_clear:0000000000000006 .L0 
C:\Users\CYMR90~1\AppData\Local\Temp\ccj5QhVO.s:1319   .text.pmu_flag_clear:000000000000000a .L0 
C:\Users\CYMR90~1\AppData\Local\Temp\ccj5QhVO.s:1323   .text.pmu_flag_clear:0000000000000016 .L0 
C:\Users\CYMR90~1\AppData\Local\Temp\ccj5QhVO.s:1332   .text.pmu_flag_clear:000000000000002c .L0 
C:\Users\CYMR90~1\AppData\Local\Temp\ccj5QhVO.s:1335   .text.pmu_flag_clear:000000000000002e .L0 
C:\Users\CYMR90~1\AppData\Local\Temp\ccj5QhVO.s:1343   .text.pmu_flag_clear:0000000000000040 .L0 
C:\Users\CYMR90~1\AppData\Local\Temp\ccj5QhVO.s:1345   .text.pmu_flag_clear:0000000000000044 .L0 
C:\Users\CYMR90~1\AppData\Local\Temp\ccj5QhVO.s:1346   .text.pmu_flag_clear:0000000000000044 .L0 
C:\Users\CYMR90~1\AppData\Local\Temp\ccj5QhVO.s:1348   .text.pmu_flag_clear:0000000000000046 .L0 
C:\Users\CYMR90~1\AppData\Local\Temp\ccj5QhVO.s:1350   .text.pmu_flag_clear:0000000000000048 .L0 
C:\Users\CYMR90~1\AppData\Local\Temp\ccj5QhVO.s:1357   .text.pmu_interrupt_enable:0000000000000000 pmu_interrupt_enable
C:\Users\CYMR90~1\AppData\Local\Temp\ccj5QhVO.s:1360   .text.pmu_interrupt_enable:0000000000000000 .L0 
C:\Users\CYMR90~1\AppData\Local\Temp\ccj5QhVO.s:1361   .text.pmu_interrupt_enable:0000000000000000 .L0 
C:\Users\CYMR90~1\AppData\Local\Temp\ccj5QhVO.s:1362   .text.pmu_interrupt_enable:0000000000000002 .L0 
C:\Users\CYMR90~1\AppData\Local\Temp\ccj5QhVO.s:1364   .text.pmu_interrupt_enable:0000000000000004 .L0 
C:\Users\CYMR90~1\AppData\Local\Temp\ccj5QhVO.s:1366   .text.pmu_interrupt_enable:0000000000000006 .L0 
C:\Users\CYMR90~1\AppData\Local\Temp\ccj5QhVO.s:1369   .text.pmu_interrupt_enable:000000000000000a .L0 
C:\Users\CYMR90~1\AppData\Local\Temp\ccj5QhVO.s:1378   .text.pmu_interrupt_enable:0000000000000024 .L0 
C:\Users\CYMR90~1\AppData\Local\Temp\ccj5QhVO.s:1380   .text.pmu_interrupt_enable:0000000000000028 .L0 
C:\Users\CYMR90~1\AppData\Local\Temp\ccj5QhVO.s:1381   .text.pmu_interrupt_enable:0000000000000028 .L0 
C:\Users\CYMR90~1\AppData\Local\Temp\ccj5QhVO.s:1383   .text.pmu_interrupt_enable:000000000000002a .L0 
C:\Users\CYMR90~1\AppData\Local\Temp\ccj5QhVO.s:1385   .text.pmu_interrupt_enable:000000000000002c .L0 
C:\Users\CYMR90~1\AppData\Local\Temp\ccj5QhVO.s:1392   .text.pmu_interrupt_disable:0000000000000000 pmu_interrupt_disable
C:\Users\CYMR90~1\AppData\Local\Temp\ccj5QhVO.s:1395   .text.pmu_interrupt_disable:0000000000000000 .L0 
C:\Users\CYMR90~1\AppData\Local\Temp\ccj5QhVO.s:1396   .text.pmu_interrupt_disable:0000000000000000 .L0 
C:\Users\CYMR90~1\AppData\Local\Temp\ccj5QhVO.s:1397   .text.pmu_interrupt_disable:0000000000000002 .L0 
C:\Users\CYMR90~1\AppData\Local\Temp\ccj5QhVO.s:1399   .text.pmu_interrupt_disable:0000000000000004 .L0 
C:\Users\CYMR90~1\AppData\Local\Temp\ccj5QhVO.s:1401   .text.pmu_interrupt_disable:0000000000000006 .L0 
C:\Users\CYMR90~1\AppData\Local\Temp\ccj5QhVO.s:1404   .text.pmu_interrupt_disable:000000000000000a .L0 
C:\Users\CYMR90~1\AppData\Local\Temp\ccj5QhVO.s:1408   .text.pmu_interrupt_disable:0000000000000014 .L0 
C:\Users\CYMR90~1\AppData\Local\Temp\ccj5QhVO.s:1411   .text.pmu_interrupt_disable:000000000000001c .L0 
C:\Users\CYMR90~1\AppData\Local\Temp\ccj5QhVO.s:1416   .text.pmu_interrupt_disable:0000000000000028 .L0 
C:\Users\CYMR90~1\AppData\Local\Temp\ccj5QhVO.s:1418   .text.pmu_interrupt_disable:000000000000002c .L0 
C:\Users\CYMR90~1\AppData\Local\Temp\ccj5QhVO.s:1419   .text.pmu_interrupt_disable:000000000000002c .L0 
C:\Users\CYMR90~1\AppData\Local\Temp\ccj5QhVO.s:1421   .text.pmu_interrupt_disable:000000000000002e .L0 
C:\Users\CYMR90~1\AppData\Local\Temp\ccj5QhVO.s:1423   .text.pmu_interrupt_disable:0000000000000030 .L0 
C:\Users\CYMR90~1\AppData\Local\Temp\ccj5QhVO.s:1430   .text.pmu_interrupt_flag_get:0000000000000000 pmu_interrupt_flag_get
C:\Users\CYMR90~1\AppData\Local\Temp\ccj5QhVO.s:1433   .text.pmu_interrupt_flag_get:0000000000000000 .L0 
C:\Users\CYMR90~1\AppData\Local\Temp\ccj5QhVO.s:1434   .text.pmu_interrupt_flag_get:0000000000000000 .L0 
C:\Users\CYMR90~1\AppData\Local\Temp\ccj5QhVO.s:1435   .text.pmu_interrupt_flag_get:0000000000000002 .L0 
C:\Users\CYMR90~1\AppData\Local\Temp\ccj5QhVO.s:1437   .text.pmu_interrupt_flag_get:0000000000000004 .L0 
C:\Users\CYMR90~1\AppData\Local\Temp\ccj5QhVO.s:1439   .text.pmu_interrupt_flag_get:0000000000000006 .L0 
C:\Users\CYMR90~1\AppData\Local\Temp\ccj5QhVO.s:1442   .text.pmu_interrupt_flag_get:000000000000000a .L0 
C:\Users\CYMR90~1\AppData\Local\Temp\ccj5QhVO.s:1444   .text.pmu_interrupt_flag_get:000000000000000e .L0 
C:\Users\CYMR90~1\AppData\Local\Temp\ccj5QhVO.s:1451   .text.pmu_interrupt_flag_get:0000000000000022 .L0 
C:\Users\CYMR90~1\AppData\Local\Temp\ccj5QhVO.s:1454   .text.pmu_interrupt_flag_get:0000000000000024 .L0 
C:\Users\CYMR90~1\AppData\Local\Temp\ccj5QhVO.s:1458   .text.pmu_interrupt_flag_get:000000000000002e .L0 
C:\Users\CYMR90~1\AppData\Local\Temp\ccj5QhVO.s:1461   .text.pmu_interrupt_flag_get:0000000000000034 .L0 
C:\Users\CYMR90~1\AppData\Local\Temp\ccj5QhVO.s:1465   .text.pmu_interrupt_flag_get:000000000000003e .L0 
C:\Users\CYMR90~1\AppData\Local\Temp\ccj5QhVO.s:1467   .text.pmu_interrupt_flag_get:0000000000000040 .L0 
C:\Users\CYMR90~1\AppData\Local\Temp\ccj5QhVO.s:1469   .text.pmu_interrupt_flag_get:0000000000000042 .L0 
C:\Users\CYMR90~1\AppData\Local\Temp\ccj5QhVO.s:1472   .text.pmu_interrupt_flag_get:0000000000000048 .L0 
C:\Users\CYMR90~1\AppData\Local\Temp\ccj5QhVO.s:1475   .text.pmu_interrupt_flag_get:000000000000004e .L0 
C:\Users\CYMR90~1\AppData\Local\Temp\ccj5QhVO.s:1478   .text.pmu_interrupt_flag_get:0000000000000050 .L0 
C:\Users\CYMR90~1\AppData\Local\Temp\ccj5QhVO.s:1482   .text.pmu_interrupt_flag_get:000000000000005a .L0 
C:\Users\CYMR90~1\AppData\Local\Temp\ccj5QhVO.s:1485   .text.pmu_interrupt_flag_get:0000000000000060 .L0 
C:\Users\CYMR90~1\AppData\Local\Temp\ccj5QhVO.s:1489   .text.pmu_interrupt_flag_get:000000000000006a .L0 
C:\Users\CYMR90~1\AppData\Local\Temp\ccj5QhVO.s:1491   .text.pmu_interrupt_flag_get:000000000000006c .L0 
C:\Users\CYMR90~1\AppData\Local\Temp\ccj5QhVO.s:1493   .text.pmu_interrupt_flag_get:000000000000006e .L0 
C:\Users\CYMR90~1\AppData\Local\Temp\ccj5QhVO.s:1496   .text.pmu_interrupt_flag_get:0000000000000074 .L0 
C:\Users\CYMR90~1\AppData\Local\Temp\ccj5QhVO.s:1499   .text.pmu_interrupt_flag_get:000000000000007a .L0 
C:\Users\CYMR90~1\AppData\Local\Temp\ccj5QhVO.s:1502   .text.pmu_interrupt_flag_get:000000000000007c .L0 
C:\Users\CYMR90~1\AppData\Local\Temp\ccj5QhVO.s:1506   .text.pmu_interrupt_flag_get:0000000000000080 .L0 
C:\Users\CYMR90~1\AppData\Local\Temp\ccj5QhVO.s:1509   .text.pmu_interrupt_flag_get:0000000000000082 .L0 
C:\Users\CYMR90~1\AppData\Local\Temp\ccj5QhVO.s:1511   .text.pmu_interrupt_flag_get:0000000000000086 .L0 
C:\Users\CYMR90~1\AppData\Local\Temp\ccj5QhVO.s:1513   .text.pmu_interrupt_flag_get:000000000000008a .L0 
C:\Users\CYMR90~1\AppData\Local\Temp\ccj5QhVO.s:1514   .text.pmu_interrupt_flag_get:000000000000008a .L0 
C:\Users\CYMR90~1\AppData\Local\Temp\ccj5QhVO.s:1516   .text.pmu_interrupt_flag_get:000000000000008c .L0 
C:\Users\CYMR90~1\AppData\Local\Temp\ccj5QhVO.s:1518   .text.pmu_interrupt_flag_get:000000000000008e .L0 
C:\Users\CYMR90~1\AppData\Local\Temp\ccj5QhVO.s:1525   .text.pmu_interrupt_flag_clear:0000000000000000 pmu_interrupt_flag_clear
C:\Users\CYMR90~1\AppData\Local\Temp\ccj5QhVO.s:1528   .text.pmu_interrupt_flag_clear:0000000000000000 .L0 
C:\Users\CYMR90~1\AppData\Local\Temp\ccj5QhVO.s:1529   .text.pmu_interrupt_flag_clear:0000000000000000 .L0 
C:\Users\CYMR90~1\AppData\Local\Temp\ccj5QhVO.s:1530   .text.pmu_interrupt_flag_clear:0000000000000002 .L0 
C:\Users\CYMR90~1\AppData\Local\Temp\ccj5QhVO.s:1532   .text.pmu_interrupt_flag_clear:0000000000000004 .L0 
C:\Users\CYMR90~1\AppData\Local\Temp\ccj5QhVO.s:1534   .text.pmu_interrupt_flag_clear:0000000000000006 .L0 
C:\Users\CYMR90~1\AppData\Local\Temp\ccj5QhVO.s:1537   .text.pmu_interrupt_flag_clear:000000000000000a .L0 
C:\Users\CYMR90~1\AppData\Local\Temp\ccj5QhVO.s:1546   .text.pmu_interrupt_flag_clear:0000000000000024 .L0 
C:\Users\CYMR90~1\AppData\Local\Temp\ccj5QhVO.s:1548   .text.pmu_interrupt_flag_clear:0000000000000028 .L0 
C:\Users\CYMR90~1\AppData\Local\Temp\ccj5QhVO.s:1549   .text.pmu_interrupt_flag_clear:0000000000000028 .L0 
C:\Users\CYMR90~1\AppData\Local\Temp\ccj5QhVO.s:1551   .text.pmu_interrupt_flag_clear:000000000000002a .L0 
C:\Users\CYMR90~1\AppData\Local\Temp\ccj5QhVO.s:1553   .text.pmu_interrupt_flag_clear:000000000000002c .L0 
C:\Users\CYMR90~1\AppData\Local\Temp\ccj5QhVO.s:47     .text.pmu_deinit:000000000000002e .L0 
C:\Users\CYMR90~1\AppData\Local\Temp\ccj5QhVO.s:98     .text.pmu_lvd_select:0000000000000052 .L0 
C:\Users\CYMR90~1\AppData\Local\Temp\ccj5QhVO.s:129    .text.pmu_lvd_enable:000000000000001e .L0 
C:\Users\CYMR90~1\AppData\Local\Temp\ccj5QhVO.s:160    .text.pmu_lvd_disable:000000000000001c .L0 
C:\Users\CYMR90~1\AppData\Local\Temp\ccj5QhVO.s:191    .text.pmu_backup_write_enable:000000000000001e .L0 
C:\Users\CYMR90~1\AppData\Local\Temp\ccj5QhVO.s:222    .text.pmu_backup_write_disable:000000000000001e .L0 
C:\Users\CYMR90~1\AppData\Local\Temp\ccj5QhVO.s:356    .text.pmu_to_sleepmode:000000000000005a .L0 
C:\Users\CYMR90~1\AppData\Local\Temp\ccj5QhVO.s:549    .text.pmu_to_deepsleepmode:00000000000000da .L0 
C:\Users\CYMR90~1\AppData\Local\Temp\ccj5QhVO.s:695    .text.pmu_to_standbymode:000000000000007c .L0 
C:\Users\CYMR90~1\AppData\Local\Temp\ccj5QhVO.s:730    .text.pmu_wakeup_pin_enable:0000000000000028 .L0 
C:\Users\CYMR90~1\AppData\Local\Temp\ccj5QhVO.s:768    .text.pmu_wakeup_pin_disable:000000000000002c .L0 
C:\Users\CYMR90~1\AppData\Local\Temp\ccj5QhVO.s:801    .text.pmu_wifi_power_enable:0000000000000022 .L0 
C:\Users\CYMR90~1\AppData\Local\Temp\ccj5QhVO.s:834    .text.pmu_wifi_power_disable:0000000000000020 .L0 
C:\Users\CYMR90~1\AppData\Local\Temp\ccj5QhVO.s:869    .text.pmu_wifi_sram_control:0000000000000028 .L0 
C:\Users\CYMR90~1\AppData\Local\Temp\ccj5QhVO.s:904    .text.pmu_ble_control:0000000000000028 .L0 
C:\Users\CYMR90~1\AppData\Local\Temp\ccj5QhVO.s:938    .text.pmu_ble_wakeup_request_enable:0000000000000024 .L0 
C:\Users\CYMR90~1\AppData\Local\Temp\ccj5QhVO.s:973    .text.pmu_ble_wakeup_request_disable:0000000000000026 .L0 
C:\Users\CYMR90~1\AppData\Local\Temp\ccj5QhVO.s:1008   .text.pmu_pll_force_enable:000000000000002c .L0 
C:\Users\CYMR90~1\AppData\Local\Temp\ccj5QhVO.s:1046   .text.pmu_pll_force_disable:0000000000000030 .L0 
C:\Users\CYMR90~1\AppData\Local\Temp\ccj5QhVO.s:1089   .text.pmu_ble_rf_config:0000000000000044 .L0 
C:\Users\CYMR90~1\AppData\Local\Temp\ccj5QhVO.s:1124   .text.pmu_rf_force_enable:000000000000002c .L0 
C:\Users\CYMR90~1\AppData\Local\Temp\ccj5QhVO.s:1162   .text.pmu_rf_force_disable:0000000000000030 .L0 
C:\Users\CYMR90~1\AppData\Local\Temp\ccj5QhVO.s:1205   .text.pmu_rf_sequence_config:0000000000000042 .L0 
C:\Users\CYMR90~1\AppData\Local\Temp\ccj5QhVO.s:1303   .text.pmu_flag_get:0000000000000090 .L0 
C:\Users\CYMR90~1\AppData\Local\Temp\ccj5QhVO.s:1353   .text.pmu_flag_clear:0000000000000048 .L0 
C:\Users\CYMR90~1\AppData\Local\Temp\ccj5QhVO.s:1388   .text.pmu_interrupt_enable:000000000000002c .L0 
C:\Users\CYMR90~1\AppData\Local\Temp\ccj5QhVO.s:1426   .text.pmu_interrupt_disable:0000000000000030 .L0 
C:\Users\CYMR90~1\AppData\Local\Temp\ccj5QhVO.s:1521   .text.pmu_interrupt_flag_get:000000000000008e .L0 
C:\Users\CYMR90~1\AppData\Local\Temp\ccj5QhVO.s:1556   .text.pmu_interrupt_flag_clear:000000000000002c .L0 
                     .debug_frame:0000000000000000 .L0 
C:\Users\CYMR90~1\AppData\Local\Temp\ccj5QhVO.s:279    .text.pmu_to_sleepmode:000000000000002e .L8
C:\Users\CYMR90~1\AppData\Local\Temp\ccj5QhVO.s:340    .text.pmu_to_sleepmode:0000000000000050 .L9
C:\Users\CYMR90~1\AppData\Local\Temp\ccj5QhVO.s:416    .text.pmu_to_deepsleepmode:000000000000007e .L11
C:\Users\CYMR90~1\AppData\Local\Temp\ccj5QhVO.s:407    .text.pmu_to_deepsleepmode:0000000000000068 .L12
C:\Users\CYMR90~1\AppData\Local\Temp\ccj5QhVO.s:456    .text.pmu_to_deepsleepmode:00000000000000a0 .L13
C:\Users\CYMR90~1\AppData\Local\Temp\ccj5QhVO.s:517    .text.pmu_to_deepsleepmode:00000000000000c2 .L14
C:\Users\CYMR90~1\AppData\Local\Temp\ccj5QhVO.s:618    .text.pmu_to_standbymode:0000000000000050 .L16
C:\Users\CYMR90~1\AppData\Local\Temp\ccj5QhVO.s:679    .text.pmu_to_standbymode:0000000000000072 .L17
C:\Users\CYMR90~1\AppData\Local\Temp\ccj5QhVO.s:1246   .text.pmu_flag_get:000000000000003c .L33
C:\Users\CYMR90~1\AppData\Local\Temp\ccj5QhVO.s:1242   .text.pmu_flag_get:0000000000000038 .L34
C:\Users\CYMR90~1\AppData\Local\Temp\ccj5QhVO.s:1291   .text.pmu_flag_get:0000000000000088 .L35
C:\Users\CYMR90~1\AppData\Local\Temp\ccj5QhVO.s:1275   .text.pmu_flag_get:0000000000000072 .L36
C:\Users\CYMR90~1\AppData\Local\Temp\ccj5QhVO.s:1271   .text.pmu_flag_get:000000000000006e .L37
C:\Users\CYMR90~1\AppData\Local\Temp\ccj5QhVO.s:1288   .text.pmu_flag_get:0000000000000086 .L38
C:\Users\CYMR90~1\AppData\Local\Temp\ccj5QhVO.s:1333   .text.pmu_flag_clear:000000000000002e .L40
C:\Users\CYMR90~1\AppData\Local\Temp\ccj5QhVO.s:1341   .text.pmu_flag_clear:0000000000000040 .L42
C:\Users\CYMR90~1\AppData\Local\Temp\ccj5QhVO.s:1452   .text.pmu_interrupt_flag_get:0000000000000024 .L46
C:\Users\CYMR90~1\AppData\Local\Temp\ccj5QhVO.s:1476   .text.pmu_interrupt_flag_get:0000000000000050 .L47
C:\Users\CYMR90~1\AppData\Local\Temp\ccj5QhVO.s:1507   .text.pmu_interrupt_flag_get:0000000000000082 .L50
C:\Users\CYMR90~1\AppData\Local\Temp\ccj5QhVO.s:1500   .text.pmu_interrupt_flag_get:000000000000007c .L53
C:\Users\CYMR90~1\AppData\Local\Temp\ccj5QhVO.s:1504   .text.pmu_interrupt_flag_get:0000000000000080 .L54
C:\Users\CYMR90~1\AppData\Local\Temp\ccj5QhVO.s:2747   .debug_abbrev:0000000000000000 .Ldebug_abbrev0
C:\Users\CYMR90~1\AppData\Local\Temp\ccj5QhVO.s:23837  .debug_str:000000000000afe3 .LASF5653
C:\Users\CYMR90~1\AppData\Local\Temp\ccj5QhVO.s:26539  .debug_str:0000000000015cd5 .LASF5654
C:\Users\CYMR90~1\AppData\Local\Temp\ccj5QhVO.s:24145  .debug_str:000000000000c4ed .LASF5655
C:\Users\CYMR90~1\AppData\Local\Temp\ccj5QhVO.s:3376   .debug_ranges:0000000000000000 .Ldebug_ranges0
C:\Users\CYMR90~1\AppData\Local\Temp\ccj5QhVO.s:21073  .debug_line:0000000000000000 .Ldebug_line0
C:\Users\CYMR90~1\AppData\Local\Temp\ccj5QhVO.s:3438   .debug_macro:0000000000000000 .Ldebug_macro0
C:\Users\CYMR90~1\AppData\Local\Temp\ccj5QhVO.s:32354  .debug_str:000000000002d032 .LASF5556
C:\Users\CYMR90~1\AppData\Local\Temp\ccj5QhVO.s:21093  .debug_str:000000000000013a .LASF5557
C:\Users\CYMR90~1\AppData\Local\Temp\ccj5QhVO.s:22017  .debug_str:0000000000003ab0 .LASF5558
C:\Users\CYMR90~1\AppData\Local\Temp\ccj5QhVO.s:27208  .debug_str:00000000000188e6 .LASF5559
C:\Users\CYMR90~1\AppData\Local\Temp\ccj5QhVO.s:23323  .debug_str:0000000000008ed2 .LASF5564
C:\Users\CYMR90~1\AppData\Local\Temp\ccj5QhVO.s:26667  .debug_str:000000000001653a .LASF5560
C:\Users\CYMR90~1\AppData\Local\Temp\ccj5QhVO.s:28540  .debug_str:000000000001e145 .LASF5561
C:\Users\CYMR90~1\AppData\Local\Temp\ccj5QhVO.s:30164  .debug_str:00000000000243cc .LASF5562
C:\Users\CYMR90~1\AppData\Local\Temp\ccj5QhVO.s:28948  .debug_str:000000000001f953 .LASF5563
C:\Users\CYMR90~1\AppData\Local\Temp\ccj5QhVO.s:27420  .debug_str:0000000000019714 .LASF5565
C:\Users\CYMR90~1\AppData\Local\Temp\ccj5QhVO.s:21209  .debug_str:000000000000080f .LASF5566
C:\Users\CYMR90~1\AppData\Local\Temp\ccj5QhVO.s:30510  .debug_str:0000000000025c4e .LASF5567
C:\Users\CYMR90~1\AppData\Local\Temp\ccj5QhVO.s:28970  .debug_str:000000000001fabc .LASF855
C:\Users\CYMR90~1\AppData\Local\Temp\ccj5QhVO.s:26435  .debug_str:00000000000156c1 .LASF5568
C:\Users\CYMR90~1\AppData\Local\Temp\ccj5QhVO.s:30622  .debug_str:0000000000026357 .LASF5569
C:\Users\CYMR90~1\AppData\Local\Temp\ccj5QhVO.s:31470  .debug_str:00000000000298cf .LASF5570
C:\Users\CYMR90~1\AppData\Local\Temp\ccj5QhVO.s:21367  .debug_str:00000000000011dd .LASF5656
C:\Users\CYMR90~1\AppData\Local\Temp\ccj5QhVO.s:28542  .debug_str:000000000001e14f .LASF5571
C:\Users\CYMR90~1\AppData\Local\Temp\ccj5QhVO.s:27054  .debug_str:0000000000017fbd .LASF5572
C:\Users\CYMR90~1\AppData\Local\Temp\ccj5QhVO.s:31848  .debug_str:000000000002af01 .LASF5573
C:\Users\CYMR90~1\AppData\Local\Temp\ccj5QhVO.s:30204  .debug_str:00000000000246a9 .LASF5574
C:\Users\CYMR90~1\AppData\Local\Temp\ccj5QhVO.s:23691  .debug_str:000000000000a602 .LASF5575
C:\Users\CYMR90~1\AppData\Local\Temp\ccj5QhVO.s:23847  .debug_str:000000000000b11b .LASF5576
C:\Users\CYMR90~1\AppData\Local\Temp\ccj5QhVO.s:31380  .debug_str:0000000000029375 .LASF5577
C:\Users\CYMR90~1\AppData\Local\Temp\ccj5QhVO.s:28738  .debug_str:000000000001ed0b .LASF5578
C:\Users\CYMR90~1\AppData\Local\Temp\ccj5QhVO.s:29560  .debug_str:0000000000021f35 .LASF5579
C:\Users\CYMR90~1\AppData\Local\Temp\ccj5QhVO.s:32332  .debug_str:000000000002cef4 .LASF5580
C:\Users\CYMR90~1\AppData\Local\Temp\ccj5QhVO.s:30796  .debug_str:0000000000026da3 .LASF5581
C:\Users\CYMR90~1\AppData\Local\Temp\ccj5QhVO.s:31862  .debug_str:000000000002afc2 .LASF5582
C:\Users\CYMR90~1\AppData\Local\Temp\ccj5QhVO.s:26583  .debug_str:0000000000016014 .LASF5583
C:\Users\CYMR90~1\AppData\Local\Temp\ccj5QhVO.s:21869  .debug_str:00000000000030be .LASF5584
C:\Users\CYMR90~1\AppData\Local\Temp\ccj5QhVO.s:25235  .debug_str:0000000000010971 .LASF5585
C:\Users\CYMR90~1\AppData\Local\Temp\ccj5QhVO.s:30692  .debug_str:000000000002675c .LASF5586
C:\Users\CYMR90~1\AppData\Local\Temp\ccj5QhVO.s:22931  .debug_str:0000000000007449 .LASF5587
C:\Users\CYMR90~1\AppData\Local\Temp\ccj5QhVO.s:24185  .debug_str:000000000000c751 .LASF5588
C:\Users\CYMR90~1\AppData\Local\Temp\ccj5QhVO.s:32322  .debug_str:000000000002cdab .LASF5589
C:\Users\CYMR90~1\AppData\Local\Temp\ccj5QhVO.s:22729  .debug_str:00000000000066c1 .LASF5590
C:\Users\CYMR90~1\AppData\Local\Temp\ccj5QhVO.s:31306  .debug_str:0000000000028ebc .LASF5591
C:\Users\CYMR90~1\AppData\Local\Temp\ccj5QhVO.s:31236  .debug_str:0000000000028ad8 .LASF5592
C:\Users\CYMR90~1\AppData\Local\Temp\ccj5QhVO.s:26145  .debug_str:00000000000144f5 .LASF5593
C:\Users\CYMR90~1\AppData\Local\Temp\ccj5QhVO.s:22217  .debug_str:00000000000047ce .LASF5594
C:\Users\CYMR90~1\AppData\Local\Temp\ccj5QhVO.s:27650  .debug_str:000000000001a725 .LASF5595
C:\Users\CYMR90~1\AppData\Local\Temp\ccj5QhVO.s:24467  .debug_str:000000000000da3f .LASF5596
C:\Users\CYMR90~1\AppData\Local\Temp\ccj5QhVO.s:32162  .debug_str:000000000002c359 .LASF5597
C:\Users\CYMR90~1\AppData\Local\Temp\ccj5QhVO.s:27356  .debug_str:0000000000019386 .LASF5598
C:\Users\CYMR90~1\AppData\Local\Temp\ccj5QhVO.s:22955  .debug_str:00000000000075be .LASF5599
C:\Users\CYMR90~1\AppData\Local\Temp\ccj5QhVO.s:32134  .debug_str:000000000002c1ac .LASF5600
C:\Users\CYMR90~1\AppData\Local\Temp\ccj5QhVO.s:29548  .debug_str:0000000000021e75 .LASF5601
C:\Users\CYMR90~1\AppData\Local\Temp\ccj5QhVO.s:22107  .debug_str:000000000000403f .LASF5602
C:\Users\CYMR90~1\AppData\Local\Temp\ccj5QhVO.s:30158  .debug_str:000000000002437c .LASF5603
C:\Users\CYMR90~1\AppData\Local\Temp\ccj5QhVO.s:23921  .debug_str:000000000000b54d .LASF5604
C:\Users\CYMR90~1\AppData\Local\Temp\ccj5QhVO.s:27842  .debug_str:000000000001b3cf .LASF5605
C:\Users\CYMR90~1\AppData\Local\Temp\ccj5QhVO.s:23029  .debug_str:0000000000007a77 .LASF5609
C:\Users\CYMR90~1\AppData\Local\Temp\ccj5QhVO.s:1526   .text.pmu_interrupt_flag_clear:0000000000000000 .LFB375
C:\Users\CYMR90~1\AppData\Local\Temp\ccj5QhVO.s:1554   .text.pmu_interrupt_flag_clear:000000000000002c .LFE375
C:\Users\CYMR90~1\AppData\Local\Temp\ccj5QhVO.s:26181  .debug_str:00000000000146d5 .LASF5606
C:\Users\CYMR90~1\AppData\Local\Temp\ccj5QhVO.s:28650  .debug_str:000000000001e7d5 .LASF5615
C:\Users\CYMR90~1\AppData\Local\Temp\ccj5QhVO.s:1431   .text.pmu_interrupt_flag_get:0000000000000000 .LFB374
C:\Users\CYMR90~1\AppData\Local\Temp\ccj5QhVO.s:1519   .text.pmu_interrupt_flag_get:000000000000008e .LFE374
C:\Users\CYMR90~1\AppData\Local\Temp\ccj5QhVO.s:22143  .debug_str:00000000000042e3 .LASF5607
C:\Users\CYMR90~1\AppData\Local\Temp\ccj5QhVO.s:29186  .debug_str:0000000000020828 .LASF5608
C:\Users\CYMR90~1\AppData\Local\Temp\ccj5QhVO.s:29894  .debug_str:00000000000232d1 .LASF5610
C:\Users\CYMR90~1\AppData\Local\Temp\ccj5QhVO.s:1393   .text.pmu_interrupt_disable:0000000000000000 .LFB373
C:\Users\CYMR90~1\AppData\Local\Temp\ccj5QhVO.s:1424   .text.pmu_interrupt_disable:0000000000000030 .LFE373
C:\Users\CYMR90~1\AppData\Local\Temp\ccj5QhVO.s:27776  .debug_str:000000000001af35 .LASF5611
C:\Users\CYMR90~1\AppData\Local\Temp\ccj5QhVO.s:22209  .debug_str:0000000000004733 .LASF5612
C:\Users\CYMR90~1\AppData\Local\Temp\ccj5QhVO.s:1358   .text.pmu_interrupt_enable:0000000000000000 .LFB372
C:\Users\CYMR90~1\AppData\Local\Temp\ccj5QhVO.s:1386   .text.pmu_interrupt_enable:000000000000002c .LFE372
C:\Users\CYMR90~1\AppData\Local\Temp\ccj5QhVO.s:21457  .debug_str:000000000000179c .LASF5613
C:\Users\CYMR90~1\AppData\Local\Temp\ccj5QhVO.s:1308   .text.pmu_flag_clear:0000000000000000 .LFB371
C:\Users\CYMR90~1\AppData\Local\Temp\ccj5QhVO.s:1351   .text.pmu_flag_clear:0000000000000048 .LFE371
C:\Users\CYMR90~1\AppData\Local\Temp\ccj5QhVO.s:23679  .debug_str:000000000000a543 .LASF5614
C:\Users\CYMR90~1\AppData\Local\Temp\ccj5QhVO.s:24943  .debug_str:000000000000f6ba .LASF5616
C:\Users\CYMR90~1\AppData\Local\Temp\ccj5QhVO.s:1210   .text.pmu_flag_get:0000000000000000 .LFB370
C:\Users\CYMR90~1\AppData\Local\Temp\ccj5QhVO.s:1301   .text.pmu_flag_get:0000000000000090 .LFE370
C:\Users\CYMR90~1\AppData\Local\Temp\ccj5QhVO.s:28988  .debug_str:000000000001fbd1 .LASF5617
C:\Users\CYMR90~1\AppData\Local\Temp\ccj5QhVO.s:1167   .text.pmu_rf_sequence_config:0000000000000000 .LFB369
C:\Users\CYMR90~1\AppData\Local\Temp\ccj5QhVO.s:1203   .text.pmu_rf_sequence_config:0000000000000042 .LFE369
C:\Users\CYMR90~1\AppData\Local\Temp\ccj5QhVO.s:31596  .debug_str:0000000000029fef .LASF5618
C:\Users\CYMR90~1\AppData\Local\Temp\ccj5QhVO.s:25259  .debug_str:0000000000010ac5 .LASF5619
C:\Users\CYMR90~1\AppData\Local\Temp\ccj5QhVO.s:1129   .text.pmu_rf_force_disable:0000000000000000 .LFB368
C:\Users\CYMR90~1\AppData\Local\Temp\ccj5QhVO.s:1160   .text.pmu_rf_force_disable:0000000000000030 .LFE368
C:\Users\CYMR90~1\AppData\Local\Temp\ccj5QhVO.s:24585  .debug_str:000000000000e119 .LASF5620
C:\Users\CYMR90~1\AppData\Local\Temp\ccj5QhVO.s:27392  .debug_str:0000000000019599 .LASF5621
C:\Users\CYMR90~1\AppData\Local\Temp\ccj5QhVO.s:1094   .text.pmu_rf_force_enable:0000000000000000 .LFB367
C:\Users\CYMR90~1\AppData\Local\Temp\ccj5QhVO.s:1122   .text.pmu_rf_force_enable:000000000000002c .LFE367
C:\Users\CYMR90~1\AppData\Local\Temp\ccj5QhVO.s:30416  .debug_str:0000000000025561 .LASF5622
C:\Users\CYMR90~1\AppData\Local\Temp\ccj5QhVO.s:1051   .text.pmu_ble_rf_config:0000000000000000 .LFB366
C:\Users\CYMR90~1\AppData\Local\Temp\ccj5QhVO.s:1087   .text.pmu_ble_rf_config:0000000000000044 .LFE366
C:\Users\CYMR90~1\AppData\Local\Temp\ccj5QhVO.s:30870  .debug_str:00000000000271ff .LASF5623
C:\Users\CYMR90~1\AppData\Local\Temp\ccj5QhVO.s:1013   .text.pmu_pll_force_disable:0000000000000000 .LFB365
C:\Users\CYMR90~1\AppData\Local\Temp\ccj5QhVO.s:1044   .text.pmu_pll_force_disable:0000000000000030 .LFE365
C:\Users\CYMR90~1\AppData\Local\Temp\ccj5QhVO.s:32396  .debug_str:000000000002d295 .LASF5624
C:\Users\CYMR90~1\AppData\Local\Temp\ccj5QhVO.s:978    .text.pmu_pll_force_enable:0000000000000000 .LFB364
C:\Users\CYMR90~1\AppData\Local\Temp\ccj5QhVO.s:1006   .text.pmu_pll_force_enable:000000000000002c .LFE364
C:\Users\CYMR90~1\AppData\Local\Temp\ccj5QhVO.s:24985  .debug_str:000000000000f9de .LASF5625
C:\Users\CYMR90~1\AppData\Local\Temp\ccj5QhVO.s:943    .text.pmu_ble_wakeup_request_disable:0000000000000000 .LFB363
C:\Users\CYMR90~1\AppData\Local\Temp\ccj5QhVO.s:971    .text.pmu_ble_wakeup_request_disable:0000000000000026 .LFE363
C:\Users\CYMR90~1\AppData\Local\Temp\ccj5QhVO.s:21679  .debug_str:0000000000002459 .LASF5626
C:\Users\CYMR90~1\AppData\Local\Temp\ccj5QhVO.s:909    .text.pmu_ble_wakeup_request_enable:0000000000000000 .LFB362
C:\Users\CYMR90~1\AppData\Local\Temp\ccj5QhVO.s:936    .text.pmu_ble_wakeup_request_enable:0000000000000024 .LFE362
C:\Users\CYMR90~1\AppData\Local\Temp\ccj5QhVO.s:31612  .debug_str:000000000002a0c7 .LASF5627
C:\Users\CYMR90~1\AppData\Local\Temp\ccj5QhVO.s:874    .text.pmu_ble_control:0000000000000000 .LFB361
C:\Users\CYMR90~1\AppData\Local\Temp\ccj5QhVO.s:902    .text.pmu_ble_control:0000000000000028 .LFE361
C:\Users\CYMR90~1\AppData\Local\Temp\ccj5QhVO.s:28760  .debug_str:000000000001ee2b .LASF5628
C:\Users\CYMR90~1\AppData\Local\Temp\ccj5QhVO.s:839    .text.pmu_wifi_sram_control:0000000000000000 .LFB360
C:\Users\CYMR90~1\AppData\Local\Temp\ccj5QhVO.s:867    .text.pmu_wifi_sram_control:0000000000000028 .LFE360
C:\Users\CYMR90~1\AppData\Local\Temp\ccj5QhVO.s:29866  .debug_str:0000000000023191 .LASF5629
C:\Users\CYMR90~1\AppData\Local\Temp\ccj5QhVO.s:23333  .debug_str:0000000000008f5f .LASF5630
C:\Users\CYMR90~1\AppData\Local\Temp\ccj5QhVO.s:806    .text.pmu_wifi_power_disable:0000000000000000 .LFB359
C:\Users\CYMR90~1\AppData\Local\Temp\ccj5QhVO.s:832    .text.pmu_wifi_power_disable:0000000000000020 .LFE359
C:\Users\CYMR90~1\AppData\Local\Temp\ccj5QhVO.s:32276  .debug_str:000000000002cafe .LASF5631
C:\Users\CYMR90~1\AppData\Local\Temp\ccj5QhVO.s:773    .text.pmu_wifi_power_enable:0000000000000000 .LFB358
C:\Users\CYMR90~1\AppData\Local\Temp\ccj5QhVO.s:799    .text.pmu_wifi_power_enable:0000000000000022 .LFE358
C:\Users\CYMR90~1\AppData\Local\Temp\ccj5QhVO.s:21227  .debug_str:000000000000091f .LASF5632
C:\Users\CYMR90~1\AppData\Local\Temp\ccj5QhVO.s:735    .text.pmu_wakeup_pin_disable:0000000000000000 .LFB357
C:\Users\CYMR90~1\AppData\Local\Temp\ccj5QhVO.s:766    .text.pmu_wakeup_pin_disable:000000000000002c .LFE357
C:\Users\CYMR90~1\AppData\Local\Temp\ccj5QhVO.s:22569  .debug_str:0000000000005d70 .LASF5633
C:\Users\CYMR90~1\AppData\Local\Temp\ccj5QhVO.s:25677  .debug_str:0000000000012681 .LASF5634
C:\Users\CYMR90~1\AppData\Local\Temp\ccj5QhVO.s:700    .text.pmu_wakeup_pin_enable:0000000000000000 .LFB356
C:\Users\CYMR90~1\AppData\Local\Temp\ccj5QhVO.s:728    .text.pmu_wakeup_pin_enable:0000000000000028 .LFE356
C:\Users\CYMR90~1\AppData\Local\Temp\ccj5QhVO.s:30722  .debug_str:0000000000026946 .LASF5635
C:\Users\CYMR90~1\AppData\Local\Temp\ccj5QhVO.s:554    .text.pmu_to_standbymode:0000000000000000 .LFB355
C:\Users\CYMR90~1\AppData\Local\Temp\ccj5QhVO.s:693    .text.pmu_to_standbymode:000000000000007c .LFE355
C:\Users\CYMR90~1\AppData\Local\Temp\ccj5QhVO.s:29204  .debug_str:00000000000208fa .LASF5636
C:\Users\CYMR90~1\AppData\Local\Temp\ccj5QhVO.s:569    .text.pmu_to_standbymode:0000000000000014 .LBB88
C:\Users\CYMR90~1\AppData\Local\Temp\ccj5QhVO.s:583    .text.pmu_to_standbymode:000000000000001e .LBE88
C:\Users\CYMR90~1\AppData\Local\Temp\ccj5QhVO.s:571    .text.pmu_to_standbymode:0000000000000014 .LBB90
C:\Users\CYMR90~1\AppData\Local\Temp\ccj5QhVO.s:579    .text.pmu_to_standbymode:000000000000001c .LBE90
C:\Users\CYMR90~1\AppData\Local\Temp\ccj5QhVO.s:599    .text.pmu_to_standbymode:0000000000000044 .LBB91
C:\Users\CYMR90~1\AppData\Local\Temp\ccj5QhVO.s:620    .text.pmu_to_standbymode:0000000000000050 .LBE91
C:\Users\CYMR90~1\AppData\Local\Temp\ccj5QhVO.s:601    .text.pmu_to_standbymode:0000000000000044 .LBB93
C:\Users\CYMR90~1\AppData\Local\Temp\ccj5QhVO.s:609    .text.pmu_to_standbymode:000000000000004a .LBE93
C:\Users\CYMR90~1\AppData\Local\Temp\ccj5QhVO.s:621    .text.pmu_to_standbymode:0000000000000050 .LBB94
C:\Users\CYMR90~1\AppData\Local\Temp\ccj5QhVO.s:635    .text.pmu_to_standbymode:0000000000000058 .LBE94
C:\Users\CYMR90~1\AppData\Local\Temp\ccj5QhVO.s:623    .text.pmu_to_standbymode:0000000000000050 .LBB96
C:\Users\CYMR90~1\AppData\Local\Temp\ccj5QhVO.s:631    .text.pmu_to_standbymode:0000000000000056 .LBE96
C:\Users\CYMR90~1\AppData\Local\Temp\ccj5QhVO.s:636    .text.pmu_to_standbymode:0000000000000058 .LBB97
C:\Users\CYMR90~1\AppData\Local\Temp\ccj5QhVO.s:665    .text.pmu_to_standbymode:000000000000006a .LBE97
C:\Users\CYMR90~1\AppData\Local\Temp\ccj5QhVO.s:638    .text.pmu_to_standbymode:0000000000000058 .LBB99
C:\Users\CYMR90~1\AppData\Local\Temp\ccj5QhVO.s:646    .text.pmu_to_standbymode:000000000000005e .LBE99
C:\Users\CYMR90~1\AppData\Local\Temp\ccj5QhVO.s:653    .text.pmu_to_standbymode:0000000000000062 .LBB100
C:\Users\CYMR90~1\AppData\Local\Temp\ccj5QhVO.s:661    .text.pmu_to_standbymode:0000000000000068 .LBE100
C:\Users\CYMR90~1\AppData\Local\Temp\ccj5QhVO.s:666    .text.pmu_to_standbymode:000000000000006a .LBB101
C:\Users\CYMR90~1\AppData\Local\Temp\ccj5QhVO.s:681    .text.pmu_to_standbymode:0000000000000072 .LBE101
C:\Users\CYMR90~1\AppData\Local\Temp\ccj5QhVO.s:668    .text.pmu_to_standbymode:000000000000006a .LBB103
C:\Users\CYMR90~1\AppData\Local\Temp\ccj5QhVO.s:676    .text.pmu_to_standbymode:0000000000000070 .LBE103
C:\Users\CYMR90~1\AppData\Local\Temp\ccj5QhVO.s:30710  .debug_str:0000000000026862 .LASF5637
C:\Users\CYMR90~1\AppData\Local\Temp\ccj5QhVO.s:361    .text.pmu_to_deepsleepmode:0000000000000000 .LFB354
C:\Users\CYMR90~1\AppData\Local\Temp\ccj5QhVO.s:547    .text.pmu_to_deepsleepmode:00000000000000da .LFE354
C:\Users\CYMR90~1\AppData\Local\Temp\ccj5QhVO.s:21543  .debug_str:0000000000001ce0 .LASF5638
C:\Users\CYMR90~1\AppData\Local\Temp\ccj5QhVO.s:25897  .debug_str:0000000000013521 .LASF5639
C:\Users\CYMR90~1\AppData\Local\Temp\ccj5QhVO.s:419    .text.pmu_to_deepsleepmode:0000000000000084 .LBB69
C:\Users\CYMR90~1\AppData\Local\Temp\ccj5QhVO.s:433    .text.pmu_to_deepsleepmode:000000000000008e .LBE69
C:\Users\CYMR90~1\AppData\Local\Temp\ccj5QhVO.s:421    .text.pmu_to_deepsleepmode:0000000000000084 .LBB71
C:\Users\CYMR90~1\AppData\Local\Temp\ccj5QhVO.s:429    .text.pmu_to_deepsleepmode:000000000000008c .LBE71
C:\Users\CYMR90~1\AppData\Local\Temp\ccj5QhVO.s:437    .text.pmu_to_deepsleepmode:0000000000000094 .LBB72
C:\Users\CYMR90~1\AppData\Local\Temp\ccj5QhVO.s:458    .text.pmu_to_deepsleepmode:00000000000000a0 .LBE72
C:\Users\CYMR90~1\AppData\Local\Temp\ccj5QhVO.s:439    .text.pmu_to_deepsleepmode:0000000000000094 .LBB74
C:\Users\CYMR90~1\AppData\Local\Temp\ccj5QhVO.s:447    .text.pmu_to_deepsleepmode:000000000000009a .LBE74
C:\Users\CYMR90~1\AppData\Local\Temp\ccj5QhVO.s:459    .text.pmu_to_deepsleepmode:00000000000000a0 .LBB75
C:\Users\CYMR90~1\AppData\Local\Temp\ccj5QhVO.s:473    .text.pmu_to_deepsleepmode:00000000000000a8 .LBE75
C:\Users\CYMR90~1\AppData\Local\Temp\ccj5QhVO.s:461    .text.pmu_to_deepsleepmode:00000000000000a0 .LBB77
C:\Users\CYMR90~1\AppData\Local\Temp\ccj5QhVO.s:469    .text.pmu_to_deepsleepmode:00000000000000a6 .LBE77
C:\Users\CYMR90~1\AppData\Local\Temp\ccj5QhVO.s:474    .text.pmu_to_deepsleepmode:00000000000000a8 .LBB78
C:\Users\CYMR90~1\AppData\Local\Temp\ccj5QhVO.s:503    .text.pmu_to_deepsleepmode:00000000000000ba .LBE78
C:\Users\CYMR90~1\AppData\Local\Temp\ccj5QhVO.s:476    .text.pmu_to_deepsleepmode:00000000000000a8 .LBB80
C:\Users\CYMR90~1\AppData\Local\Temp\ccj5QhVO.s:484    .text.pmu_to_deepsleepmode:00000000000000ae .LBE80
C:\Users\CYMR90~1\AppData\Local\Temp\ccj5QhVO.s:491    .text.pmu_to_deepsleepmode:00000000000000b2 .LBB81
C:\Users\CYMR90~1\AppData\Local\Temp\ccj5QhVO.s:499    .text.pmu_to_deepsleepmode:00000000000000b8 .LBE81
C:\Users\CYMR90~1\AppData\Local\Temp\ccj5QhVO.s:504    .text.pmu_to_deepsleepmode:00000000000000ba .LBB82
C:\Users\CYMR90~1\AppData\Local\Temp\ccj5QhVO.s:520    .text.pmu_to_deepsleepmode:00000000000000c6 .LBE82
C:\Users\CYMR90~1\AppData\Local\Temp\ccj5QhVO.s:506    .text.pmu_to_deepsleepmode:00000000000000ba .LBB84
C:\Users\CYMR90~1\AppData\Local\Temp\ccj5QhVO.s:514    .text.pmu_to_deepsleepmode:00000000000000c0 .LBE84
C:\Users\CYMR90~1\AppData\Local\Temp\ccj5QhVO.s:521    .text.pmu_to_deepsleepmode:00000000000000c6 .LBB85
C:\Users\CYMR90~1\AppData\Local\Temp\ccj5QhVO.s:535    .text.pmu_to_deepsleepmode:00000000000000d0 .LBE85
C:\Users\CYMR90~1\AppData\Local\Temp\ccj5QhVO.s:523    .text.pmu_to_deepsleepmode:00000000000000c6 .LBB87
C:\Users\CYMR90~1\AppData\Local\Temp\ccj5QhVO.s:531    .text.pmu_to_deepsleepmode:00000000000000ce .LBE87
C:\Users\CYMR90~1\AppData\Local\Temp\ccj5QhVO.s:25411  .debug_str:0000000000011454 .LASF5640
C:\Users\CYMR90~1\AppData\Local\Temp\ccj5QhVO.s:227    .text.pmu_to_sleepmode:0000000000000000 .LFB353
C:\Users\CYMR90~1\AppData\Local\Temp\ccj5QhVO.s:354    .text.pmu_to_sleepmode:000000000000005a .LFE353
C:\Users\CYMR90~1\AppData\Local\Temp\ccj5QhVO.s:26211  .debug_str:00000000000148f0 .LASF5641
C:\Users\CYMR90~1\AppData\Local\Temp\ccj5QhVO.s:241    .text.pmu_to_sleepmode:0000000000000012 .LBB53
C:\Users\CYMR90~1\AppData\Local\Temp\ccj5QhVO.s:256    .text.pmu_to_sleepmode:000000000000001c .LBE53
C:\Users\CYMR90~1\AppData\Local\Temp\ccj5QhVO.s:243    .text.pmu_to_sleepmode:0000000000000012 .LBB55
C:\Users\CYMR90~1\AppData\Local\Temp\ccj5QhVO.s:252    .text.pmu_to_sleepmode:000000000000001a .LBE55
C:\Users\CYMR90~1\AppData\Local\Temp\ccj5QhVO.s:260    .text.pmu_to_sleepmode:0000000000000022 .LBB56
C:\Users\CYMR90~1\AppData\Local\Temp\ccj5QhVO.s:281    .text.pmu_to_sleepmode:000000000000002e .LBE56
C:\Users\CYMR90~1\AppData\Local\Temp\ccj5QhVO.s:262    .text.pmu_to_sleepmode:0000000000000022 .LBB58
C:\Users\CYMR90~1\AppData\Local\Temp\ccj5QhVO.s:270    .text.pmu_to_sleepmode:0000000000000028 .LBE58
C:\Users\CYMR90~1\AppData\Local\Temp\ccj5QhVO.s:282    .text.pmu_to_sleepmode:000000000000002e .LBB59
C:\Users\CYMR90~1\AppData\Local\Temp\ccj5QhVO.s:296    .text.pmu_to_sleepmode:0000000000000036 .LBE59
C:\Users\CYMR90~1\AppData\Local\Temp\ccj5QhVO.s:284    .text.pmu_to_sleepmode:000000000000002e .LBB61
C:\Users\CYMR90~1\AppData\Local\Temp\ccj5QhVO.s:292    .text.pmu_to_sleepmode:0000000000000034 .LBE61
C:\Users\CYMR90~1\AppData\Local\Temp\ccj5QhVO.s:297    .text.pmu_to_sleepmode:0000000000000036 .LBB62
C:\Users\CYMR90~1\AppData\Local\Temp\ccj5QhVO.s:326    .text.pmu_to_sleepmode:0000000000000048 .LBE62
C:\Users\CYMR90~1\AppData\Local\Temp\ccj5QhVO.s:299    .text.pmu_to_sleepmode:0000000000000036 .LBB64
C:\Users\CYMR90~1\AppData\Local\Temp\ccj5QhVO.s:307    .text.pmu_to_sleepmode:000000000000003c .LBE64
C:\Users\CYMR90~1\AppData\Local\Temp\ccj5QhVO.s:314    .text.pmu_to_sleepmode:0000000000000040 .LBB65
C:\Users\CYMR90~1\AppData\Local\Temp\ccj5QhVO.s:322    .text.pmu_to_sleepmode:0000000000000046 .LBE65
C:\Users\CYMR90~1\AppData\Local\Temp\ccj5QhVO.s:327    .text.pmu_to_sleepmode:0000000000000048 .LBB66
C:\Users\CYMR90~1\AppData\Local\Temp\ccj5QhVO.s:342    .text.pmu_to_sleepmode:0000000000000050 .LBE66
C:\Users\CYMR90~1\AppData\Local\Temp\ccj5QhVO.s:329    .text.pmu_to_sleepmode:0000000000000048 .LBB68
C:\Users\CYMR90~1\AppData\Local\Temp\ccj5QhVO.s:337    .text.pmu_to_sleepmode:000000000000004e .LBE68
C:\Users\CYMR90~1\AppData\Local\Temp\ccj5QhVO.s:31064  .debug_str:0000000000027e85 .LASF5642
C:\Users\CYMR90~1\AppData\Local\Temp\ccj5QhVO.s:196    .text.pmu_backup_write_disable:0000000000000000 .LFB352
C:\Users\CYMR90~1\AppData\Local\Temp\ccj5QhVO.s:220    .text.pmu_backup_write_disable:000000000000001e .LFE352
C:\Users\CYMR90~1\AppData\Local\Temp\ccj5QhVO.s:24999  .debug_str:000000000000fa97 .LASF5643
C:\Users\CYMR90~1\AppData\Local\Temp\ccj5QhVO.s:165    .text.pmu_backup_write_enable:0000000000000000 .LFB351
C:\Users\CYMR90~1\AppData\Local\Temp\ccj5QhVO.s:189    .text.pmu_backup_write_enable:000000000000001e .LFE351
C:\Users\CYMR90~1\AppData\Local\Temp\ccj5QhVO.s:23259  .debug_str:0000000000008a78 .LASF5644
C:\Users\CYMR90~1\AppData\Local\Temp\ccj5QhVO.s:134    .text.pmu_lvd_disable:0000000000000000 .LFB350
C:\Users\CYMR90~1\AppData\Local\Temp\ccj5QhVO.s:158    .text.pmu_lvd_disable:000000000000001c .LFE350
C:\Users\CYMR90~1\AppData\Local\Temp\ccj5QhVO.s:30732  .debug_str:00000000000269ea .LASF5645
C:\Users\CYMR90~1\AppData\Local\Temp\ccj5QhVO.s:103    .text.pmu_lvd_enable:0000000000000000 .LFB349
C:\Users\CYMR90~1\AppData\Local\Temp\ccj5QhVO.s:127    .text.pmu_lvd_enable:000000000000001e .LFE349
C:\Users\CYMR90~1\AppData\Local\Temp\ccj5QhVO.s:24697  .debug_str:000000000000e802 .LASF5646
C:\Users\CYMR90~1\AppData\Local\Temp\ccj5QhVO.s:52     .text.pmu_lvd_select:0000000000000000 .LFB348
C:\Users\CYMR90~1\AppData\Local\Temp\ccj5QhVO.s:96     .text.pmu_lvd_select:0000000000000052 .LFE348
C:\Users\CYMR90~1\AppData\Local\Temp\ccj5QhVO.s:25219  .debug_str:00000000000108ab .LASF5647
C:\Users\CYMR90~1\AppData\Local\Temp\ccj5QhVO.s:25139  .debug_str:0000000000010341 .LASF5648
C:\Users\CYMR90~1\AppData\Local\Temp\ccj5QhVO.s:14     .text.pmu_deinit:0000000000000000 .LFB347
C:\Users\CYMR90~1\AppData\Local\Temp\ccj5QhVO.s:45     .text.pmu_deinit:000000000000002e .LFE347
C:\Users\CYMR90~1\AppData\Local\Temp\ccj5QhVO.s:22071  .debug_str:0000000000003df3 .LASF5649
C:\Users\CYMR90~1\AppData\Local\Temp\ccj5QhVO.s:28878  .debug_str:000000000001f57e .LASF5650
C:\Users\CYMR90~1\AppData\Local\Temp\ccj5QhVO.s:28886  .debug_str:000000000001f5dc .LASF5651
C:\Users\CYMR90~1\AppData\Local\Temp\ccj5QhVO.s:23081  .debug_str:0000000000007e69 .LASF5652
C:\Users\CYMR90~1\AppData\Local\Temp\ccj5QhVO.s:31274  .debug_str:0000000000028d1e .LASF5657
C:\Users\CYMR90~1\AppData\Local\Temp\ccj5QhVO.s:1563   .debug_info:0000000000000000 .Ldebug_info0
C:\Users\CYMR90~1\AppData\Local\Temp\ccj5QhVO.s:4058   .debug_macro:0000000000000000 .Ldebug_macro2
C:\Users\CYMR90~1\AppData\Local\Temp\ccj5QhVO.s:27086  .debug_str:000000000001816d .LASF314
C:\Users\CYMR90~1\AppData\Local\Temp\ccj5QhVO.s:26846  .debug_str:00000000000172e3 .LASF315
C:\Users\CYMR90~1\AppData\Local\Temp\ccj5QhVO.s:5005   .debug_macro:0000000000000000 .Ldebug_macro3
C:\Users\CYMR90~1\AppData\Local\Temp\ccj5QhVO.s:23271  .debug_str:0000000000008b30 .LASF369
C:\Users\CYMR90~1\AppData\Local\Temp\ccj5QhVO.s:22835  .debug_str:0000000000006d98 .LASF370
C:\Users\CYMR90~1\AppData\Local\Temp\ccj5QhVO.s:27084  .debug_str:000000000001815e .LASF371
C:\Users\CYMR90~1\AppData\Local\Temp\ccj5QhVO.s:5169   .debug_macro:0000000000000000 .Ldebug_macro4
C:\Users\CYMR90~1\AppData\Local\Temp\ccj5QhVO.s:5189   .debug_macro:0000000000000000 .Ldebug_macro5
C:\Users\CYMR90~1\AppData\Local\Temp\ccj5QhVO.s:25749  .debug_str:0000000000012b45 .LASF390
C:\Users\CYMR90~1\AppData\Local\Temp\ccj5QhVO.s:5233   .debug_macro:0000000000000000 .Ldebug_macro6
C:\Users\CYMR90~1\AppData\Local\Temp\ccj5QhVO.s:5247   .debug_macro:0000000000000000 .Ldebug_macro7
C:\Users\CYMR90~1\AppData\Local\Temp\ccj5QhVO.s:5315   .debug_macro:0000000000000000 .Ldebug_macro8
C:\Users\CYMR90~1\AppData\Local\Temp\ccj5QhVO.s:5341   .debug_macro:0000000000000000 .Ldebug_macro9
C:\Users\CYMR90~1\AppData\Local\Temp\ccj5QhVO.s:5370   .debug_macro:0000000000000000 .Ldebug_macro10
C:\Users\CYMR90~1\AppData\Local\Temp\ccj5QhVO.s:27220  .debug_str:000000000001899a .LASF433
C:\Users\CYMR90~1\AppData\Local\Temp\ccj5QhVO.s:5384   .debug_macro:0000000000000000 .Ldebug_macro11
C:\Users\CYMR90~1\AppData\Local\Temp\ccj5QhVO.s:5428   .debug_macro:0000000000000000 .Ldebug_macro12
C:\Users\CYMR90~1\AppData\Local\Temp\ccj5QhVO.s:5454   .debug_macro:0000000000000000 .Ldebug_macro13
C:\Users\CYMR90~1\AppData\Local\Temp\ccj5QhVO.s:30786  .debug_str:0000000000026d21 .LASF569
C:\Users\CYMR90~1\AppData\Local\Temp\ccj5QhVO.s:5825   .debug_macro:0000000000000000 .Ldebug_macro14
C:\Users\CYMR90~1\AppData\Local\Temp\ccj5QhVO.s:25263  .debug_str:0000000000010af3 .LASF572
C:\Users\CYMR90~1\AppData\Local\Temp\ccj5QhVO.s:30128  .debug_str:0000000000024111 .LASF573
C:\Users\CYMR90~1\AppData\Local\Temp\ccj5QhVO.s:5836   .debug_macro:0000000000000000 .Ldebug_macro15
C:\Users\CYMR90~1\AppData\Local\Temp\ccj5QhVO.s:5850   .debug_macro:0000000000000000 .Ldebug_macro16
C:\Users\CYMR90~1\AppData\Local\Temp\ccj5QhVO.s:31934  .debug_str:000000000002b444 .LASF578
C:\Users\CYMR90~1\AppData\Local\Temp\ccj5QhVO.s:5882   .debug_macro:0000000000000000 .Ldebug_macro17
C:\Users\CYMR90~1\AppData\Local\Temp\ccj5QhVO.s:5908   .debug_macro:0000000000000000 .Ldebug_macro18
C:\Users\CYMR90~1\AppData\Local\Temp\ccj5QhVO.s:5919   .debug_macro:0000000000000000 .Ldebug_macro19
C:\Users\CYMR90~1\AppData\Local\Temp\ccj5QhVO.s:5963   .debug_macro:0000000000000000 .Ldebug_macro20
C:\Users\CYMR90~1\AppData\Local\Temp\ccj5QhVO.s:6133   .debug_macro:0000000000000000 .Ldebug_macro21
C:\Users\CYMR90~1\AppData\Local\Temp\ccj5QhVO.s:6144   .debug_macro:0000000000000000 .Ldebug_macro22
C:\Users\CYMR90~1\AppData\Local\Temp\ccj5QhVO.s:25755  .debug_str:0000000000012ba0 .LASF675
C:\Users\CYMR90~1\AppData\Local\Temp\ccj5QhVO.s:6200   .debug_macro:0000000000000000 .Ldebug_macro23
C:\Users\CYMR90~1\AppData\Local\Temp\ccj5QhVO.s:6217   .debug_macro:0000000000000000 .Ldebug_macro24
C:\Users\CYMR90~1\AppData\Local\Temp\ccj5QhVO.s:28940  .debug_str:000000000001f8e3 .LASF693
C:\Users\CYMR90~1\AppData\Local\Temp\ccj5QhVO.s:27090  .debug_str:0000000000018195 .LASF694
C:\Users\CYMR90~1\AppData\Local\Temp\ccj5QhVO.s:6261   .debug_macro:0000000000000000 .Ldebug_macro25
C:\Users\CYMR90~1\AppData\Local\Temp\ccj5QhVO.s:22289  .debug_str:0000000000004cce .LASF700
C:\Users\CYMR90~1\AppData\Local\Temp\ccj5QhVO.s:23409  .debug_str:00000000000093ae .LASF701
C:\Users\CYMR90~1\AppData\Local\Temp\ccj5QhVO.s:6281   .debug_macro:0000000000000000 .Ldebug_macro26
C:\Users\CYMR90~1\AppData\Local\Temp\ccj5QhVO.s:6292   .debug_macro:0000000000000000 .Ldebug_macro27
C:\Users\CYMR90~1\AppData\Local\Temp\ccj5QhVO.s:6336   .debug_macro:0000000000000000 .Ldebug_macro28
C:\Users\CYMR90~1\AppData\Local\Temp\ccj5QhVO.s:22655  .debug_str:0000000000006262 .LASF749
C:\Users\CYMR90~1\AppData\Local\Temp\ccj5QhVO.s:6437   .debug_macro:0000000000000000 .Ldebug_macro29
C:\Users\CYMR90~1\AppData\Local\Temp\ccj5QhVO.s:6454   .debug_macro:0000000000000000 .Ldebug_macro30
C:\Users\CYMR90~1\AppData\Local\Temp\ccj5QhVO.s:21141  .debug_str:000000000000042a .LASF763
C:\Users\CYMR90~1\AppData\Local\Temp\ccj5QhVO.s:22467  .debug_str:000000000000576a .LASF764
C:\Users\CYMR90~1\AppData\Local\Temp\ccj5QhVO.s:6486   .debug_macro:0000000000000000 .Ldebug_macro31
C:\Users\CYMR90~1\AppData\Local\Temp\ccj5QhVO.s:6500   .debug_macro:0000000000000000 .Ldebug_macro32
C:\Users\CYMR90~1\AppData\Local\Temp\ccj5QhVO.s:6670   .debug_macro:0000000000000000 .Ldebug_macro33
C:\Users\CYMR90~1\AppData\Local\Temp\ccj5QhVO.s:24919  .debug_str:000000000000f557 .LASF850
C:\Users\CYMR90~1\AppData\Local\Temp\ccj5QhVO.s:27306  .debug_str:0000000000018fba .LASF851
C:\Users\CYMR90~1\AppData\Local\Temp\ccj5QhVO.s:6756   .debug_macro:0000000000000000 .Ldebug_macro34
C:\Users\CYMR90~1\AppData\Local\Temp\ccj5QhVO.s:6881   .debug_macro:0000000000000000 .Ldebug_macro35
C:\Users\CYMR90~1\AppData\Local\Temp\ccj5QhVO.s:21425  .debug_str:000000000000150d .LASF951
C:\Users\CYMR90~1\AppData\Local\Temp\ccj5QhVO.s:7093   .debug_macro:0000000000000000 .Ldebug_macro36
C:\Users\CYMR90~1\AppData\Local\Temp\ccj5QhVO.s:23159  .debug_str:000000000000844d .LASF957
C:\Users\CYMR90~1\AppData\Local\Temp\ccj5QhVO.s:22711  .debug_str:00000000000065b0 .LASF958
C:\Users\CYMR90~1\AppData\Local\Temp\ccj5QhVO.s:21597  .debug_str:0000000000001ff1 .LASF959
C:\Users\CYMR90~1\AppData\Local\Temp\ccj5QhVO.s:7113   .debug_macro:0000000000000000 .Ldebug_macro37
C:\Users\CYMR90~1\AppData\Local\Temp\ccj5QhVO.s:7205   .debug_macro:0000000000000000 .Ldebug_macro38
C:\Users\CYMR90~1\AppData\Local\Temp\ccj5QhVO.s:8851   .debug_macro:0000000000000000 .Ldebug_macro39
C:\Users\CYMR90~1\AppData\Local\Temp\ccj5QhVO.s:8943   .debug_macro:0000000000000000 .Ldebug_macro40
C:\Users\CYMR90~1\AppData\Local\Temp\ccj5QhVO.s:8999   .debug_macro:0000000000000000 .Ldebug_macro41
C:\Users\CYMR90~1\AppData\Local\Temp\ccj5QhVO.s:9013   .debug_macro:0000000000000000 .Ldebug_macro42
C:\Users\CYMR90~1\AppData\Local\Temp\ccj5QhVO.s:26627  .debug_str:00000000000162eb .LASF1655
C:\Users\CYMR90~1\AppData\Local\Temp\ccj5QhVO.s:23533  .debug_str:0000000000009bd5 .LASF1656
C:\Users\CYMR90~1\AppData\Local\Temp\ccj5QhVO.s:9237   .debug_macro:0000000000000000 .Ldebug_macro43
C:\Users\CYMR90~1\AppData\Local\Temp\ccj5QhVO.s:9284   .debug_macro:0000000000000000 .Ldebug_macro44
C:\Users\CYMR90~1\AppData\Local\Temp\ccj5QhVO.s:9439   .debug_macro:0000000000000000 .Ldebug_macro45
C:\Users\CYMR90~1\AppData\Local\Temp\ccj5QhVO.s:9495   .debug_macro:0000000000000000 .Ldebug_macro46
C:\Users\CYMR90~1\AppData\Local\Temp\ccj5QhVO.s:9506   .debug_macro:0000000000000000 .Ldebug_macro47
C:\Users\CYMR90~1\AppData\Local\Temp\ccj5QhVO.s:31576  .debug_str:0000000000029ef9 .LASF1782
C:\Users\CYMR90~1\AppData\Local\Temp\ccj5QhVO.s:26395  .debug_str:000000000001549d .LASF1783
C:\Users\CYMR90~1\AppData\Local\Temp\ccj5QhVO.s:9637   .debug_macro:0000000000000000 .Ldebug_macro48
C:\Users\CYMR90~1\AppData\Local\Temp\ccj5QhVO.s:10209  .debug_macro:0000000000000000 .Ldebug_macro49
C:\Users\CYMR90~1\AppData\Local\Temp\ccj5QhVO.s:10496  .debug_macro:0000000000000000 .Ldebug_macro50
C:\Users\CYMR90~1\AppData\Local\Temp\ccj5QhVO.s:10525  .debug_macro:0000000000000000 .Ldebug_macro51
C:\Users\CYMR90~1\AppData\Local\Temp\ccj5QhVO.s:10602  .debug_macro:0000000000000000 .Ldebug_macro52
C:\Users\CYMR90~1\AppData\Local\Temp\ccj5QhVO.s:11135  .debug_macro:0000000000000000 .Ldebug_macro53
C:\Users\CYMR90~1\AppData\Local\Temp\ccj5QhVO.s:11158  .debug_macro:0000000000000000 .Ldebug_macro54
C:\Users\CYMR90~1\AppData\Local\Temp\ccj5QhVO.s:11424  .debug_macro:0000000000000000 .Ldebug_macro55
C:\Users\CYMR90~1\AppData\Local\Temp\ccj5QhVO.s:11903  .debug_macro:0000000000000000 .Ldebug_macro56
C:\Users\CYMR90~1\AppData\Local\Temp\ccj5QhVO.s:12232  .debug_macro:0000000000000000 .Ldebug_macro57
C:\Users\CYMR90~1\AppData\Local\Temp\ccj5QhVO.s:12321  .debug_macro:0000000000000000 .Ldebug_macro58
C:\Users\CYMR90~1\AppData\Local\Temp\ccj5QhVO.s:13136  .debug_macro:0000000000000000 .Ldebug_macro59
C:\Users\CYMR90~1\AppData\Local\Temp\ccj5QhVO.s:13327  .debug_macro:0000000000000000 .Ldebug_macro60
C:\Users\CYMR90~1\AppData\Local\Temp\ccj5QhVO.s:13830  .debug_macro:0000000000000000 .Ldebug_macro61
C:\Users\CYMR90~1\AppData\Local\Temp\ccj5QhVO.s:13976  .debug_macro:0000000000000000 .Ldebug_macro62
C:\Users\CYMR90~1\AppData\Local\Temp\ccj5QhVO.s:14398  .debug_macro:0000000000000000 .Ldebug_macro63
C:\Users\CYMR90~1\AppData\Local\Temp\ccj5QhVO.s:17172  .debug_macro:0000000000000000 .Ldebug_macro64
C:\Users\CYMR90~1\AppData\Local\Temp\ccj5QhVO.s:18248  .debug_macro:0000000000000000 .Ldebug_macro65
C:\Users\CYMR90~1\AppData\Local\Temp\ccj5QhVO.s:18517  .debug_macro:0000000000000000 .Ldebug_macro66
C:\Users\CYMR90~1\AppData\Local\Temp\ccj5QhVO.s:18789  .debug_macro:0000000000000000 .Ldebug_macro67
C:\Users\CYMR90~1\AppData\Local\Temp\ccj5QhVO.s:19817  .debug_macro:0000000000000000 .Ldebug_macro68
C:\Users\CYMR90~1\AppData\Local\Temp\ccj5QhVO.s:19861  .debug_macro:0000000000000000 .Ldebug_macro69
C:\Users\CYMR90~1\AppData\Local\Temp\ccj5QhVO.s:20487  .debug_macro:0000000000000000 .Ldebug_macro70
C:\Users\CYMR90~1\AppData\Local\Temp\ccj5QhVO.s:20546  .debug_macro:0000000000000000 .Ldebug_macro71
C:\Users\CYMR90~1\AppData\Local\Temp\ccj5QhVO.s:22447  .debug_str:0000000000005613 .LASF0
C:\Users\CYMR90~1\AppData\Local\Temp\ccj5QhVO.s:26826  .debug_str:00000000000171d2 .LASF1
C:\Users\CYMR90~1\AppData\Local\Temp\ccj5QhVO.s:25089  .debug_str:000000000001004b .LASF2
C:\Users\CYMR90~1\AppData\Local\Temp\ccj5QhVO.s:25147  .debug_str:00000000000103a4 .LASF3
C:\Users\CYMR90~1\AppData\Local\Temp\ccj5QhVO.s:26439  .debug_str:00000000000156f1 .LASF4
C:\Users\CYMR90~1\AppData\Local\Temp\ccj5QhVO.s:31978  .debug_str:000000000002b741 .LASF5
C:\Users\CYMR90~1\AppData\Local\Temp\ccj5QhVO.s:22681  .debug_str:000000000000640a .LASF6
C:\Users\CYMR90~1\AppData\Local\Temp\ccj5QhVO.s:31296  .debug_str:0000000000028e45 .LASF7
C:\Users\CYMR90~1\AppData\Local\Temp\ccj5QhVO.s:30242  .debug_str:00000000000248fb .LASF8
C:\Users\CYMR90~1\AppData\Local\Temp\ccj5QhVO.s:28158  .debug_str:000000000001c6e9 .LASF9
C:\Users\CYMR90~1\AppData\Local\Temp\ccj5QhVO.s:27504  .debug_str:0000000000019d38 .LASF10
C:\Users\CYMR90~1\AppData\Local\Temp\ccj5QhVO.s:27362  .debug_str:00000000000193be .LASF11
C:\Users\CYMR90~1\AppData\Local\Temp\ccj5QhVO.s:31820  .debug_str:000000000002ad38 .LASF12
C:\Users\CYMR90~1\AppData\Local\Temp\ccj5QhVO.s:27374  .debug_str:0000000000019472 .LASF13
C:\Users\CYMR90~1\AppData\Local\Temp\ccj5QhVO.s:23695  .debug_str:000000000000a62c .LASF14
C:\Users\CYMR90~1\AppData\Local\Temp\ccj5QhVO.s:28736  .debug_str:000000000001ecf4 .LASF15
C:\Users\CYMR90~1\AppData\Local\Temp\ccj5QhVO.s:29484  .debug_str:0000000000021a77 .LASF16
C:\Users\CYMR90~1\AppData\Local\Temp\ccj5QhVO.s:23741  .debug_str:000000000000a8ef .LASF17
C:\Users\CYMR90~1\AppData\Local\Temp\ccj5QhVO.s:30526  .debug_str:0000000000025d63 .LASF18
C:\Users\CYMR90~1\AppData\Local\Temp\ccj5QhVO.s:24701  .debug_str:000000000000e82e .LASF19
C:\Users\CYMR90~1\AppData\Local\Temp\ccj5QhVO.s:30334  .debug_str:0000000000024f60 .LASF20
C:\Users\CYMR90~1\AppData\Local\Temp\ccj5QhVO.s:27172  .debug_str:00000000000186c2 .LASF21
C:\Users\CYMR90~1\AppData\Local\Temp\ccj5QhVO.s:27170  .debug_str:00000000000186a8 .LASF22
C:\Users\CYMR90~1\AppData\Local\Temp\ccj5QhVO.s:29792  .debug_str:0000000000022d65 .LASF23
C:\Users\CYMR90~1\AppData\Local\Temp\ccj5QhVO.s:25827  .debug_str:0000000000013061 .LASF24
C:\Users\CYMR90~1\AppData\Local\Temp\ccj5QhVO.s:21989  .debug_str:00000000000038e3 .LASF25
C:\Users\CYMR90~1\AppData\Local\Temp\ccj5QhVO.s:26563  .debug_str:0000000000015eb9 .LASF26
C:\Users\CYMR90~1\AppData\Local\Temp\ccj5QhVO.s:29796  .debug_str:0000000000022d9b .LASF27
C:\Users\CYMR90~1\AppData\Local\Temp\ccj5QhVO.s:29492  .debug_str:0000000000021ad4 .LASF28
C:\Users\CYMR90~1\AppData\Local\Temp\ccj5QhVO.s:22399  .debug_str:0000000000005355 .LASF29
C:\Users\CYMR90~1\AppData\Local\Temp\ccj5QhVO.s:28512  .debug_str:000000000001df57 .LASF30
C:\Users\CYMR90~1\AppData\Local\Temp\ccj5QhVO.s:21371  .debug_str:0000000000001212 .LASF31
C:\Users\CYMR90~1\AppData\Local\Temp\ccj5QhVO.s:28974  .debug_str:000000000001fadb .LASF32
C:\Users\CYMR90~1\AppData\Local\Temp\ccj5QhVO.s:23573  .debug_str:0000000000009e38 .LASF33
C:\Users\CYMR90~1\AppData\Local\Temp\ccj5QhVO.s:23425  .debug_str:0000000000009499 .LASF34
C:\Users\CYMR90~1\AppData\Local\Temp\ccj5QhVO.s:24731  .debug_str:000000000000ea12 .LASF35
C:\Users\CYMR90~1\AppData\Local\Temp\ccj5QhVO.s:27618  .debug_str:000000000001a3da .LASF36
C:\Users\CYMR90~1\AppData\Local\Temp\ccj5QhVO.s:22929  .debug_str:0000000000007421 .LASF37
C:\Users\CYMR90~1\AppData\Local\Temp\ccj5QhVO.s:25087  .debug_str:0000000000010028 .LASF38
C:\Users\CYMR90~1\AppData\Local\Temp\ccj5QhVO.s:21957  .debug_str:0000000000003693 .LASF39
C:\Users\CYMR90~1\AppData\Local\Temp\ccj5QhVO.s:21759  .debug_str:00000000000029ba .LASF40
C:\Users\CYMR90~1\AppData\Local\Temp\ccj5QhVO.s:25251  .debug_str:0000000000010a51 .LASF41
C:\Users\CYMR90~1\AppData\Local\Temp\ccj5QhVO.s:25687  .debug_str:0000000000012717 .LASF42
C:\Users\CYMR90~1\AppData\Local\Temp\ccj5QhVO.s:25955  .debug_str:000000000001395f .LASF43
C:\Users\CYMR90~1\AppData\Local\Temp\ccj5QhVO.s:27608  .debug_str:000000000001a348 .LASF44
C:\Users\CYMR90~1\AppData\Local\Temp\ccj5QhVO.s:25545  .debug_str:0000000000011e02 .LASF45
C:\Users\CYMR90~1\AppData\Local\Temp\ccj5QhVO.s:22223  .debug_str:0000000000004828 .LASF46
C:\Users\CYMR90~1\AppData\Local\Temp\ccj5QhVO.s:28518  .debug_str:000000000001dfbc .LASF47
C:\Users\CYMR90~1\AppData\Local\Temp\ccj5QhVO.s:30244  .debug_str:0000000000024910 .LASF48
C:\Users\CYMR90~1\AppData\Local\Temp\ccj5QhVO.s:24479  .debug_str:000000000000dabb .LASF49
C:\Users\CYMR90~1\AppData\Local\Temp\ccj5QhVO.s:21593  .debug_str:0000000000001fbe .LASF50
C:\Users\CYMR90~1\AppData\Local\Temp\ccj5QhVO.s:21095  .debug_str:0000000000000148 .LASF51
C:\Users\CYMR90~1\AppData\Local\Temp\ccj5QhVO.s:31588  .debug_str:0000000000029f8e .LASF52
C:\Users\CYMR90~1\AppData\Local\Temp\ccj5QhVO.s:24293  .debug_str:000000000000ce91 .LASF53
C:\Users\CYMR90~1\AppData\Local\Temp\ccj5QhVO.s:26029  .debug_str:0000000000013dc9 .LASF54
C:\Users\CYMR90~1\AppData\Local\Temp\ccj5QhVO.s:25053  .debug_str:000000000000fdd3 .LASF55
C:\Users\CYMR90~1\AppData\Local\Temp\ccj5QhVO.s:23021  .debug_str:00000000000079f7 .LASF56
C:\Users\CYMR90~1\AppData\Local\Temp\ccj5QhVO.s:26417  .debug_str:00000000000155b4 .LASF57
C:\Users\CYMR90~1\AppData\Local\Temp\ccj5QhVO.s:21325  .debug_str:0000000000000f91 .LASF58
C:\Users\CYMR90~1\AppData\Local\Temp\ccj5QhVO.s:30530  .debug_str:0000000000025da3 .LASF59
C:\Users\CYMR90~1\AppData\Local\Temp\ccj5QhVO.s:25963  .debug_str:00000000000139ba .LASF60
C:\Users\CYMR90~1\AppData\Local\Temp\ccj5QhVO.s:27894  .debug_str:000000000001b700 .LASF61
C:\Users\CYMR90~1\AppData\Local\Temp\ccj5QhVO.s:21823  .debug_str:0000000000002dff .LASF62
C:\Users\CYMR90~1\AppData\Local\Temp\ccj5QhVO.s:24473  .debug_str:000000000000da77 .LASF63
C:\Users\CYMR90~1\AppData\Local\Temp\ccj5QhVO.s:24211  .debug_str:000000000000c8f1 .LASF64
C:\Users\CYMR90~1\AppData\Local\Temp\ccj5QhVO.s:27594  .debug_str:000000000001a27f .LASF65
C:\Users\CYMR90~1\AppData\Local\Temp\ccj5QhVO.s:26251  .debug_str:0000000000014b0b .LASF66
C:\Users\CYMR90~1\AppData\Local\Temp\ccj5QhVO.s:31370  .debug_str:00000000000292b5 .LASF67
C:\Users\CYMR90~1\AppData\Local\Temp\ccj5QhVO.s:31822  .debug_str:000000000002ad4b .LASF68
C:\Users\CYMR90~1\AppData\Local\Temp\ccj5QhVO.s:25499  .debug_str:0000000000011ac5 .LASF69
C:\Users\CYMR90~1\AppData\Local\Temp\ccj5QhVO.s:24627  .debug_str:000000000000e379 .LASF70
C:\Users\CYMR90~1\AppData\Local\Temp\ccj5QhVO.s:22235  .debug_str:000000000000497b .LASF71
C:\Users\CYMR90~1\AppData\Local\Temp\ccj5QhVO.s:25533  .debug_str:0000000000011d3f .LASF72
C:\Users\CYMR90~1\AppData\Local\Temp\ccj5QhVO.s:25155  .debug_str:0000000000010415 .LASF73
C:\Users\CYMR90~1\AppData\Local\Temp\ccj5QhVO.s:25767  .debug_str:0000000000012c91 .LASF74
C:\Users\CYMR90~1\AppData\Local\Temp\ccj5QhVO.s:25605  .debug_str:00000000000121d3 .LASF75
C:\Users\CYMR90~1\AppData\Local\Temp\ccj5QhVO.s:25707  .debug_str:000000000001286e .LASF76
C:\Users\CYMR90~1\AppData\Local\Temp\ccj5QhVO.s:30162  .debug_str:00000000000243b1 .LASF77
C:\Users\CYMR90~1\AppData\Local\Temp\ccj5QhVO.s:28084  .debug_str:000000000001c2b6 .LASF78
C:\Users\CYMR90~1\AppData\Local\Temp\ccj5QhVO.s:28482  .debug_str:000000000001dd23 .LASF79
C:\Users\CYMR90~1\AppData\Local\Temp\ccj5QhVO.s:31348  .debug_str:000000000002914f .LASF80
C:\Users\CYMR90~1\AppData\Local\Temp\ccj5QhVO.s:23525  .debug_str:0000000000009b41 .LASF81
C:\Users\CYMR90~1\AppData\Local\Temp\ccj5QhVO.s:23727  .debug_str:000000000000a7c3 .LASF82
C:\Users\CYMR90~1\AppData\Local\Temp\ccj5QhVO.s:31480  .debug_str:0000000000029967 .LASF83
C:\Users\CYMR90~1\AppData\Local\Temp\ccj5QhVO.s:23463  .debug_str:0000000000009721 .LASF84
C:\Users\CYMR90~1\AppData\Local\Temp\ccj5QhVO.s:22749  .debug_str:000000000000681c .LASF85
C:\Users\CYMR90~1\AppData\Local\Temp\ccj5QhVO.s:27798  .debug_str:000000000001b0d2 .LASF86
C:\Users\CYMR90~1\AppData\Local\Temp\ccj5QhVO.s:31510  .debug_str:0000000000029af1 .LASF87
C:\Users\CYMR90~1\AppData\Local\Temp\ccj5QhVO.s:28914  .debug_str:000000000001f755 .LASF88
C:\Users\CYMR90~1\AppData\Local\Temp\ccj5QhVO.s:27714  .debug_str:000000000001ab7b .LASF89
C:\Users\CYMR90~1\AppData\Local\Temp\ccj5QhVO.s:28944  .debug_str:000000000001f916 .LASF90
C:\Users\CYMR90~1\AppData\Local\Temp\ccj5QhVO.s:31724  .debug_str:000000000002a777 .LASF91
C:\Users\CYMR90~1\AppData\Local\Temp\ccj5QhVO.s:30538  .debug_str:0000000000025e1b .LASF92
C:\Users\CYMR90~1\AppData\Local\Temp\ccj5QhVO.s:23601  .debug_str:000000000000a013 .LASF93
C:\Users\CYMR90~1\AppData\Local\Temp\ccj5QhVO.s:28364  .debug_str:000000000001d5aa .LASF94
C:\Users\CYMR90~1\AppData\Local\Temp\ccj5QhVO.s:25991  .debug_str:0000000000013b73 .LASF95
C:\Users\CYMR90~1\AppData\Local\Temp\ccj5QhVO.s:25975  .debug_str:0000000000013a83 .LASF96
C:\Users\CYMR90~1\AppData\Local\Temp\ccj5QhVO.s:32026  .debug_str:000000000002ba5f .LASF97
C:\Users\CYMR90~1\AppData\Local\Temp\ccj5QhVO.s:25621  .debug_str:000000000001230d .LASF98
C:\Users\CYMR90~1\AppData\Local\Temp\ccj5QhVO.s:29510  .debug_str:0000000000021bf8 .LASF99
C:\Users\CYMR90~1\AppData\Local\Temp\ccj5QhVO.s:22963  .debug_str:0000000000007630 .LASF100
C:\Users\CYMR90~1\AppData\Local\Temp\ccj5QhVO.s:25101  .debug_str:00000000000100d6 .LASF101
C:\Users\CYMR90~1\AppData\Local\Temp\ccj5QhVO.s:26479  .debug_str:0000000000015928 .LASF102
C:\Users\CYMR90~1\AppData\Local\Temp\ccj5QhVO.s:25381  .debug_str:0000000000011290 .LASF103
C:\Users\CYMR90~1\AppData\Local\Temp\ccj5QhVO.s:24389  .debug_str:000000000000d4d8 .LASF104
C:\Users\CYMR90~1\AppData\Local\Temp\ccj5QhVO.s:25555  .debug_str:0000000000011e99 .LASF105
C:\Users\CYMR90~1\AppData\Local\Temp\ccj5QhVO.s:28184  .debug_str:000000000001c882 .LASF106
C:\Users\CYMR90~1\AppData\Local\Temp\ccj5QhVO.s:25375  .debug_str:000000000001122b .LASF107
C:\Users\CYMR90~1\AppData\Local\Temp\ccj5QhVO.s:24385  .debug_str:000000000000d4b4 .LASF108
C:\Users\CYMR90~1\AppData\Local\Temp\ccj5QhVO.s:25821  .debug_str:0000000000012ffa .LASF109
C:\Users\CYMR90~1\AppData\Local\Temp\ccj5QhVO.s:24755  .debug_str:000000000000ebac .LASF110
C:\Users\CYMR90~1\AppData\Local\Temp\ccj5QhVO.s:27226  .debug_str:00000000000189da .LASF111
C:\Users\CYMR90~1\AppData\Local\Temp\ccj5QhVO.s:23865  .debug_str:000000000000b230 .LASF112
C:\Users\CYMR90~1\AppData\Local\Temp\ccj5QhVO.s:23599  .debug_str:0000000000009fea .LASF113
C:\Users\CYMR90~1\AppData\Local\Temp\ccj5QhVO.s:26511  .debug_str:0000000000015b28 .LASF114
C:\Users\CYMR90~1\AppData\Local\Temp\ccj5QhVO.s:29012  .debug_str:000000000001fd56 .LASF115
C:\Users\CYMR90~1\AppData\Local\Temp\ccj5QhVO.s:30046  .debug_str:0000000000023c5a .LASF116
C:\Users\CYMR90~1\AppData\Local\Temp\ccj5QhVO.s:23357  .debug_str:00000000000090a9 .LASF117
C:\Users\CYMR90~1\AppData\Local\Temp\ccj5QhVO.s:27950  .debug_str:000000000001ba7b .LASF118
C:\Users\CYMR90~1\AppData\Local\Temp\ccj5QhVO.s:32128  .debug_str:000000000002c163 .LASF119
C:\Users\CYMR90~1\AppData\Local\Temp\ccj5QhVO.s:24671  .debug_str:000000000000e600 .LASF120
C:\Users\CYMR90~1\AppData\Local\Temp\ccj5QhVO.s:30144  .debug_str:00000000000241e0 .LASF121
C:\Users\CYMR90~1\AppData\Local\Temp\ccj5QhVO.s:24173  .debug_str:000000000000c68a .LASF122
C:\Users\CYMR90~1\AppData\Local\Temp\ccj5QhVO.s:24281  .debug_str:000000000000ce0f .LASF123
C:\Users\CYMR90~1\AppData\Local\Temp\ccj5QhVO.s:21927  .debug_str:00000000000034ca .LASF124
C:\Users\CYMR90~1\AppData\Local\Temp\ccj5QhVO.s:22199  .debug_str:0000000000004673 .LASF125
C:\Users\CYMR90~1\AppData\Local\Temp\ccj5QhVO.s:31086  .debug_str:0000000000028007 .LASF126
C:\Users\CYMR90~1\AppData\Local\Temp\ccj5QhVO.s:25561  .debug_str:0000000000011ed7 .LASF127
C:\Users\CYMR90~1\AppData\Local\Temp\ccj5QhVO.s:28340  .debug_str:000000000001d44c .LASF128
C:\Users\CYMR90~1\AppData\Local\Temp\ccj5QhVO.s:23433  .debug_str:0000000000009511 .LASF129
C:\Users\CYMR90~1\AppData\Local\Temp\ccj5QhVO.s:30646  .debug_str:0000000000026496 .LASF130
C:\Users\CYMR90~1\AppData\Local\Temp\ccj5QhVO.s:30962  .debug_str:0000000000027833 .LASF131
C:\Users\CYMR90~1\AppData\Local\Temp\ccj5QhVO.s:30766  .debug_str:0000000000026bc6 .LASF132
C:\Users\CYMR90~1\AppData\Local\Temp\ccj5QhVO.s:24649  .debug_str:000000000000e4a8 .LASF133
C:\Users\CYMR90~1\AppData\Local\Temp\ccj5QhVO.s:30064  .debug_str:0000000000023d6a .LASF134
C:\Users\CYMR90~1\AppData\Local\Temp\ccj5QhVO.s:22193  .debug_str:000000000000460c .LASF135
C:\Users\CYMR90~1\AppData\Local\Temp\ccj5QhVO.s:23067  .debug_str:0000000000007cf9 .LASF136
C:\Users\CYMR90~1\AppData\Local\Temp\ccj5QhVO.s:31814  .debug_str:000000000002ace1 .LASF137
C:\Users\CYMR90~1\AppData\Local\Temp\ccj5QhVO.s:29900  .debug_str:000000000002331f .LASF138
C:\Users\CYMR90~1\AppData\Local\Temp\ccj5QhVO.s:31294  .debug_str:0000000000028e35 .LASF139
C:\Users\CYMR90~1\AppData\Local\Temp\ccj5QhVO.s:30420  .debug_str:000000000002559d .LASF140
C:\Users\CYMR90~1\AppData\Local\Temp\ccj5QhVO.s:28042  .debug_str:000000000001c00c .LASF141
C:\Users\CYMR90~1\AppData\Local\Temp\ccj5QhVO.s:23563  .debug_str:0000000000009d97 .LASF142
C:\Users\CYMR90~1\AppData\Local\Temp\ccj5QhVO.s:31888  .debug_str:000000000002b12a .LASF143
C:\Users\CYMR90~1\AppData\Local\Temp\ccj5QhVO.s:27196  .debug_str:0000000000018825 .LASF144
C:\Users\CYMR90~1\AppData\Local\Temp\ccj5QhVO.s:26263  .debug_str:0000000000014bf0 .LASF145
C:\Users\CYMR90~1\AppData\Local\Temp\ccj5QhVO.s:24245  .debug_str:000000000000cbcd .LASF146
C:\Users\CYMR90~1\AppData\Local\Temp\ccj5QhVO.s:22233  .debug_str:0000000000004964 .LASF147
C:\Users\CYMR90~1\AppData\Local\Temp\ccj5QhVO.s:24797  .debug_str:000000000000ee22 .LASF148
C:\Users\CYMR90~1\AppData\Local\Temp\ccj5QhVO.s:27174  .debug_str:00000000000186d6 .LASF149
C:\Users\CYMR90~1\AppData\Local\Temp\ccj5QhVO.s:21169  .debug_str:000000000000059a .LASF150
C:\Users\CYMR90~1\AppData\Local\Temp\ccj5QhVO.s:32362  .debug_str:000000000002d08d .LASF151
C:\Users\CYMR90~1\AppData\Local\Temp\ccj5QhVO.s:25811  .debug_str:0000000000012f46 .LASF152
C:\Users\CYMR90~1\AppData\Local\Temp\ccj5QhVO.s:30426  .debug_str:00000000000255f0 .LASF153
C:\Users\CYMR90~1\AppData\Local\Temp\ccj5QhVO.s:28244  .debug_str:000000000001ccda .LASF154
C:\Users\CYMR90~1\AppData\Local\Temp\ccj5QhVO.s:25211  .debug_str:0000000000010821 .LASF155
C:\Users\CYMR90~1\AppData\Local\Temp\ccj5QhVO.s:28256  .debug_str:000000000001cdc0 .LASF156
C:\Users\CYMR90~1\AppData\Local\Temp\ccj5QhVO.s:28370  .debug_str:000000000001d612 .LASF157
C:\Users\CYMR90~1\AppData\Local\Temp\ccj5QhVO.s:24097  .debug_str:000000000000c1d7 .LASF158
C:\Users\CYMR90~1\AppData\Local\Temp\ccj5QhVO.s:23163  .debug_str:000000000000846f .LASF159
C:\Users\CYMR90~1\AppData\Local\Temp\ccj5QhVO.s:27900  .debug_str:000000000001b754 .LASF160
C:\Users\CYMR90~1\AppData\Local\Temp\ccj5QhVO.s:29320  .debug_str:0000000000021026 .LASF161
C:\Users\CYMR90~1\AppData\Local\Temp\ccj5QhVO.s:27496  .debug_str:0000000000019ca6 .LASF162
C:\Users\CYMR90~1\AppData\Local\Temp\ccj5QhVO.s:30054  .debug_str:0000000000023ccc .LASF163
C:\Users\CYMR90~1\AppData\Local\Temp\ccj5QhVO.s:31710  .debug_str:000000000002a6ab .LASF164
C:\Users\CYMR90~1\AppData\Local\Temp\ccj5QhVO.s:22919  .debug_str:000000000000739d .LASF165
C:\Users\CYMR90~1\AppData\Local\Temp\ccj5QhVO.s:31398  .debug_str:0000000000029478 .LASF166
C:\Users\CYMR90~1\AppData\Local\Temp\ccj5QhVO.s:31216  .debug_str:0000000000028976 .LASF167
C:\Users\CYMR90~1\AppData\Local\Temp\ccj5QhVO.s:29970  .debug_str:0000000000023769 .LASF168
C:\Users\CYMR90~1\AppData\Local\Temp\ccj5QhVO.s:26964  .debug_str:00000000000179eb .LASF169
C:\Users\CYMR90~1\AppData\Local\Temp\ccj5QhVO.s:30828  .debug_str:0000000000026f75 .LASF170
C:\Users\CYMR90~1\AppData\Local\Temp\ccj5QhVO.s:26591  .debug_str:0000000000016072 .LASF171
C:\Users\CYMR90~1\AppData\Local\Temp\ccj5QhVO.s:28164  .debug_str:000000000001c748 .LASF172
C:\Users\CYMR90~1\AppData\Local\Temp\ccj5QhVO.s:23555  .debug_str:0000000000009d23 .LASF173
C:\Users\CYMR90~1\AppData\Local\Temp\ccj5QhVO.s:29860  .debug_str:0000000000023149 .LASF174
C:\Users\CYMR90~1\AppData\Local\Temp\ccj5QhVO.s:22573  .debug_str:0000000000005d98 .LASF175
C:\Users\CYMR90~1\AppData\Local\Temp\ccj5QhVO.s:23401  .debug_str:0000000000009345 .LASF176
C:\Users\CYMR90~1\AppData\Local\Temp\ccj5QhVO.s:22069  .debug_str:0000000000003dd9 .LASF177
C:\Users\CYMR90~1\AppData\Local\Temp\ccj5QhVO.s:27370  .debug_str:0000000000019430 .LASF178
C:\Users\CYMR90~1\AppData\Local\Temp\ccj5QhVO.s:24331  .debug_str:000000000000d10f .LASF179
C:\Users\CYMR90~1\AppData\Local\Temp\ccj5QhVO.s:21587  .debug_str:0000000000001f52 .LASF180
C:\Users\CYMR90~1\AppData\Local\Temp\ccj5QhVO.s:32022  .debug_str:000000000002ba34 .LASF181
C:\Users\CYMR90~1\AppData\Local\Temp\ccj5QhVO.s:21357  .debug_str:000000000000116f .LASF182
C:\Users\CYMR90~1\AppData\Local\Temp\ccj5QhVO.s:25929  .debug_str:0000000000013795 .LASF183
C:\Users\CYMR90~1\AppData\Local\Temp\ccj5QhVO.s:26329  .debug_str:000000000001504f .LASF184
C:\Users\CYMR90~1\AppData\Local\Temp\ccj5QhVO.s:31226  .debug_str:0000000000028a25 .LASF185
C:\Users\CYMR90~1\AppData\Local\Temp\ccj5QhVO.s:24427  .debug_str:000000000000d7f7 .LASF186
C:\Users\CYMR90~1\AppData\Local\Temp\ccj5QhVO.s:22903  .debug_str:000000000000723c .LASF187
C:\Users\CYMR90~1\AppData\Local\Temp\ccj5QhVO.s:28894  .debug_str:000000000001f660 .LASF188
C:\Users\CYMR90~1\AppData\Local\Temp\ccj5QhVO.s:24691  .debug_str:000000000000e7b2 .LASF189
C:\Users\CYMR90~1\AppData\Local\Temp\ccj5QhVO.s:26035  .debug_str:0000000000013e28 .LASF190
C:\Users\CYMR90~1\AppData\Local\Temp\ccj5QhVO.s:29378  .debug_str:000000000002134a .LASF191
C:\Users\CYMR90~1\AppData\Local\Temp\ccj5QhVO.s:26751  .debug_str:0000000000016b13 .LASF192
C:\Users\CYMR90~1\AppData\Local\Temp\ccj5QhVO.s:29606  .debug_str:00000000000221e1 .LASF193
C:\Users\CYMR90~1\AppData\Local\Temp\ccj5QhVO.s:22529  .debug_str:0000000000005b43 .LASF194
C:\Users\CYMR90~1\AppData\Local\Temp\ccj5QhVO.s:21897  .debug_str:00000000000032be .LASF195
C:\Users\CYMR90~1\AppData\Local\Temp\ccj5QhVO.s:24523  .debug_str:000000000000dd22 .LASF196
C:\Users\CYMR90~1\AppData\Local\Temp\ccj5QhVO.s:25441  .debug_str:0000000000011635 .LASF197
C:\Users\CYMR90~1\AppData\Local\Temp\ccj5QhVO.s:22383  .debug_str:000000000000524a .LASF198
C:\Users\CYMR90~1\AppData\Local\Temp\ccj5QhVO.s:31116  .debug_str:0000000000028228 .LASF199
C:\Users\CYMR90~1\AppData\Local\Temp\ccj5QhVO.s:29262  .debug_str:0000000000020c96 .LASF200
C:\Users\CYMR90~1\AppData\Local\Temp\ccj5QhVO.s:28378  .debug_str:000000000001d670 .LASF201
C:\Users\CYMR90~1\AppData\Local\Temp\ccj5QhVO.s:23529  .debug_str:0000000000009b74 .LASF202
C:\Users\CYMR90~1\AppData\Local\Temp\ccj5QhVO.s:31568  .debug_str:0000000000029e68 .LASF203
C:\Users\CYMR90~1\AppData\Local\Temp\ccj5QhVO.s:21909  .debug_str:000000000000338f .LASF204
C:\Users\CYMR90~1\AppData\Local\Temp\ccj5QhVO.s:24925  .debug_str:000000000000f5b1 .LASF205
C:\Users\CYMR90~1\AppData\Local\Temp\ccj5QhVO.s:31304  .debug_str:0000000000028ea6 .LASF206
C:\Users\CYMR90~1\AppData\Local\Temp\ccj5QhVO.s:26153  .debug_str:0000000000014570 .LASF207
C:\Users\CYMR90~1\AppData\Local\Temp\ccj5QhVO.s:28932  .debug_str:000000000001f874 .LASF208
C:\Users\CYMR90~1\AppData\Local\Temp\ccj5QhVO.s:24167  .debug_str:000000000000c639 .LASF209
C:\Users\CYMR90~1\AppData\Local\Temp\ccj5QhVO.s:32224  .debug_str:000000000002c770 .LASF210
C:\Users\CYMR90~1\AppData\Local\Temp\ccj5QhVO.s:26123  .debug_str:00000000000143ab .LASF211
C:\Users\CYMR90~1\AppData\Local\Temp\ccj5QhVO.s:28776  .debug_str:000000000001ef34 .LASF212
C:\Users\CYMR90~1\AppData\Local\Temp\ccj5QhVO.s:27390  .debug_str:000000000001955e .LASF213
C:\Users\CYMR90~1\AppData\Local\Temp\ccj5QhVO.s:22617  .debug_str:0000000000006020 .LASF214
C:\Users\CYMR90~1\AppData\Local\Temp\ccj5QhVO.s:26131  .debug_str:000000000001441b .LASF215
C:\Users\CYMR90~1\AppData\Local\Temp\ccj5QhVO.s:28080  .debug_str:000000000001c266 .LASF216
C:\Users\CYMR90~1\AppData\Local\Temp\ccj5QhVO.s:29042  .debug_str:000000000001fee7 .LASF217
C:\Users\CYMR90~1\AppData\Local\Temp\ccj5QhVO.s:25005  .debug_str:000000000000fad6 .LASF218
C:\Users\CYMR90~1\AppData\Local\Temp\ccj5QhVO.s:30428  .debug_str:000000000002562c .LASF219
C:\Users\CYMR90~1\AppData\Local\Temp\ccj5QhVO.s:30236  .debug_str:00000000000248a2 .LASF220
C:\Users\CYMR90~1\AppData\Local\Temp\ccj5QhVO.s:29752  .debug_str:0000000000022a95 .LASF221
C:\Users\CYMR90~1\AppData\Local\Temp\ccj5QhVO.s:26403  .debug_str:00000000000154fb .LASF222
C:\Users\CYMR90~1\AppData\Local\Temp\ccj5QhVO.s:22585  .debug_str:0000000000005e3f .LASF223
C:\Users\CYMR90~1\AppData\Local\Temp\ccj5QhVO.s:23263  .debug_str:0000000000008aa7 .LASF224
C:\Users\CYMR90~1\AppData\Local\Temp\ccj5QhVO.s:31896  .debug_str:000000000002b197 .LASF225
C:\Users\CYMR90~1\AppData\Local\Temp\ccj5QhVO.s:24593  .debug_str:000000000000e17d .LASF226
C:\Users\CYMR90~1\AppData\Local\Temp\ccj5QhVO.s:28240  .debug_str:000000000001ccac .LASF227
C:\Users\CYMR90~1\AppData\Local\Temp\ccj5QhVO.s:28090  .debug_str:000000000001c30c .LASF228
C:\Users\CYMR90~1\AppData\Local\Temp\ccj5QhVO.s:24537  .debug_str:000000000000dde7 .LASF229
C:\Users\CYMR90~1\AppData\Local\Temp\ccj5QhVO.s:28816  .debug_str:000000000001f189 .LASF230
C:\Users\CYMR90~1\AppData\Local\Temp\ccj5QhVO.s:23317  .debug_str:0000000000008e31 .LASF231
C:\Users\CYMR90~1\AppData\Local\Temp\ccj5QhVO.s:24683  .debug_str:000000000000e6c3 .LASF232
C:\Users\CYMR90~1\AppData\Local\Temp\ccj5QhVO.s:23215  .debug_str:0000000000008774 .LASF233
C:\Users\CYMR90~1\AppData\Local\Temp\ccj5QhVO.s:25203  .debug_str:000000000001070c .LASF234
C:\Users\CYMR90~1\AppData\Local\Temp\ccj5QhVO.s:24921  .debug_str:000000000000f569 .LASF235
C:\Users\CYMR90~1\AppData\Local\Temp\ccj5QhVO.s:29978  .debug_str:0000000000023815 .LASF236
C:\Users\CYMR90~1\AppData\Local\Temp\ccj5QhVO.s:32338  .debug_str:000000000002cf49 .LASF237
C:\Users\CYMR90~1\AppData\Local\Temp\ccj5QhVO.s:30642  .debug_str:000000000002645a .LASF238
C:\Users\CYMR90~1\AppData\Local\Temp\ccj5QhVO.s:29962  .debug_str:00000000000236ea .LASF239
C:\Users\CYMR90~1\AppData\Local\Temp\ccj5QhVO.s:30202  .debug_str:0000000000024690 .LASF240
C:\Users\CYMR90~1\AppData\Local\Temp\ccj5QhVO.s:23035  .debug_str:0000000000007b1b .LASF241
C:\Users\CYMR90~1\AppData\Local\Temp\ccj5QhVO.s:24613  .debug_str:000000000000e298 .LASF242
C:\Users\CYMR90~1\AppData\Local\Temp\ccj5QhVO.s:25601  .debug_str:000000000001216b .LASF243
C:\Users\CYMR90~1\AppData\Local\Temp\ccj5QhVO.s:29990  .debug_str:00000000000238bf .LASF244
C:\Users\CYMR90~1\AppData\Local\Temp\ccj5QhVO.s:25795  .debug_str:0000000000012e26 .LASF245
C:\Users\CYMR90~1\AppData\Local\Temp\ccj5QhVO.s:28826  .debug_str:000000000001f24a .LASF246
C:\Users\CYMR90~1\AppData\Local\Temp\ccj5QhVO.s:27158  .debug_str:00000000000185b5 .LASF247
C:\Users\CYMR90~1\AppData\Local\Temp\ccj5QhVO.s:26679  .debug_str:00000000000165e1 .LASF248
C:\Users\CYMR90~1\AppData\Local\Temp\ccj5QhVO.s:28180  .debug_str:000000000001c852 .LASF249
C:\Users\CYMR90~1\AppData\Local\Temp\ccj5QhVO.s:27554  .debug_str:000000000001a01b .LASF250
C:\Users\CYMR90~1\AppData\Local\Temp\ccj5QhVO.s:28110  .debug_str:000000000001c441 .LASF251
C:\Users\CYMR90~1\AppData\Local\Temp\ccj5QhVO.s:29804  .debug_str:0000000000022e20 .LASF252
C:\Users\CYMR90~1\AppData\Local\Temp\ccj5QhVO.s:24507  .debug_str:000000000000dc5d .LASF253
C:\Users\CYMR90~1\AppData\Local\Temp\ccj5QhVO.s:30500  .debug_str:0000000000025bbb .LASF254
C:\Users\CYMR90~1\AppData\Local\Temp\ccj5QhVO.s:24371  .debug_str:000000000000d3aa .LASF255
C:\Users\CYMR90~1\AppData\Local\Temp\ccj5QhVO.s:27462  .debug_str:0000000000019a6c .LASF256
C:\Users\CYMR90~1\AppData\Local\Temp\ccj5QhVO.s:24609  .debug_str:000000000000e266 .LASF257
C:\Users\CYMR90~1\AppData\Local\Temp\ccj5QhVO.s:28762  .debug_str:000000000001ee41 .LASF258
C:\Users\CYMR90~1\AppData\Local\Temp\ccj5QhVO.s:23825  .debug_str:000000000000aee4 .LASF259
C:\Users\CYMR90~1\AppData\Local\Temp\ccj5QhVO.s:21247  .debug_str:0000000000000a5e .LASF260
C:\Users\CYMR90~1\AppData\Local\Temp\ccj5QhVO.s:31630  .debug_str:000000000002a1ea .LASF261
C:\Users\CYMR90~1\AppData\Local\Temp\ccj5QhVO.s:31098  .debug_str:00000000000280ad .LASF262
C:\Users\CYMR90~1\AppData\Local\Temp\ccj5QhVO.s:26103  .debug_str:000000000001421f .LASF263
C:\Users\CYMR90~1\AppData\Local\Temp\ccj5QhVO.s:28064  .debug_str:000000000001c179 .LASF264
C:\Users\CYMR90~1\AppData\Local\Temp\ccj5QhVO.s:25057  .debug_str:000000000000fe1a .LASF265
C:\Users\CYMR90~1\AppData\Local\Temp\ccj5QhVO.s:24539  .debug_str:000000000000de28 .LASF266
C:\Users\CYMR90~1\AppData\Local\Temp\ccj5QhVO.s:23877  .debug_str:000000000000b2f5 .LASF267
C:\Users\CYMR90~1\AppData\Local\Temp\ccj5QhVO.s:28168  .debug_str:000000000001c76f .LASF268
C:\Users\CYMR90~1\AppData\Local\Temp\ccj5QhVO.s:24191  .debug_str:000000000000c7cc .LASF269
C:\Users\CYMR90~1\AppData\Local\Temp\ccj5QhVO.s:25119  .debug_str:000000000001020a .LASF270
C:\Users\CYMR90~1\AppData\Local\Temp\ccj5QhVO.s:26375  .debug_str:0000000000015331 .LASF271
C:\Users\CYMR90~1\AppData\Local\Temp\ccj5QhVO.s:30748  .debug_str:0000000000026acc .LASF272
C:\Users\CYMR90~1\AppData\Local\Temp\ccj5QhVO.s:22793  .debug_str:0000000000006abb .LASF273
C:\Users\CYMR90~1\AppData\Local\Temp\ccj5QhVO.s:21707  .debug_str:0000000000002615 .LASF274
C:\Users\CYMR90~1\AppData\Local\Temp\ccj5QhVO.s:22887  .debug_str:0000000000007125 .LASF275
C:\Users\CYMR90~1\AppData\Local\Temp\ccj5QhVO.s:24253  .debug_str:000000000000cc30 .LASF276
C:\Users\CYMR90~1\AppData\Local\Temp\ccj5QhVO.s:24081  .debug_str:000000000000c0d0 .LASF277
C:\Users\CYMR90~1\AppData\Local\Temp\ccj5QhVO.s:21381  .debug_str:0000000000001286 .LASF278
C:\Users\CYMR90~1\AppData\Local\Temp\ccj5QhVO.s:22715  .debug_str:00000000000065da .LASF279
C:\Users\CYMR90~1\AppData\Local\Temp\ccj5QhVO.s:31420  .debug_str:0000000000029598 .LASF280
C:\Users\CYMR90~1\AppData\Local\Temp\ccj5QhVO.s:23577  .debug_str:0000000000009e70 .LASF281
C:\Users\CYMR90~1\AppData\Local\Temp\ccj5QhVO.s:22677  .debug_str:00000000000063cd .LASF282
C:\Users\CYMR90~1\AppData\Local\Temp\ccj5QhVO.s:22577  .debug_str:0000000000005dc8 .LASF283
C:\Users\CYMR90~1\AppData\Local\Temp\ccj5QhVO.s:22339  .debug_str:0000000000004fce .LASF284
C:\Users\CYMR90~1\AppData\Local\Temp\ccj5QhVO.s:30302  .debug_str:0000000000024d2b .LASF285
C:\Users\CYMR90~1\AppData\Local\Temp\ccj5QhVO.s:31128  .debug_str:000000000002831e .LASF286
C:\Users\CYMR90~1\AppData\Local\Temp\ccj5QhVO.s:31406  .debug_str:00000000000294d5 .LASF287
C:\Users\CYMR90~1\AppData\Local\Temp\ccj5QhVO.s:31318  .debug_str:0000000000028f5e .LASF288
C:\Users\CYMR90~1\AppData\Local\Temp\ccj5QhVO.s:32156  .debug_str:000000000002c312 .LASF289
C:\Users\CYMR90~1\AppData\Local\Temp\ccj5QhVO.s:27104  .debug_str:000000000001828e .LASF290
C:\Users\CYMR90~1\AppData\Local\Temp\ccj5QhVO.s:26157  .debug_str:0000000000014596 .LASF291
C:\Users\CYMR90~1\AppData\Local\Temp\ccj5QhVO.s:30340  .debug_str:0000000000024f8f .LASF292
C:\Users\CYMR90~1\AppData\Local\Temp\ccj5QhVO.s:21983  .debug_str:000000000000387b .LASF293
C:\Users\CYMR90~1\AppData\Local\Temp\ccj5QhVO.s:29274  .debug_str:0000000000020d5b .LASF294
C:\Users\CYMR90~1\AppData\Local\Temp\ccj5QhVO.s:22259  .debug_str:0000000000004aee .LASF295
C:\Users\CYMR90~1\AppData\Local\Temp\ccj5QhVO.s:31756  .debug_str:000000000002a981 .LASF296
C:\Users\CYMR90~1\AppData\Local\Temp\ccj5QhVO.s:31944  .debug_str:000000000002b4d7 .LASF297
C:\Users\CYMR90~1\AppData\Local\Temp\ccj5QhVO.s:26984  .debug_str:0000000000017b73 .LASF298
C:\Users\CYMR90~1\AppData\Local\Temp\ccj5QhVO.s:21231  .debug_str:0000000000000958 .LASF299
C:\Users\CYMR90~1\AppData\Local\Temp\ccj5QhVO.s:25025  .debug_str:000000000000fc0e .LASF300
C:\Users\CYMR90~1\AppData\Local\Temp\ccj5QhVO.s:27738  .debug_str:000000000001acf3 .LASF301
C:\Users\CYMR90~1\AppData\Local\Temp\ccj5QhVO.s:26257  .debug_str:0000000000014b62 .LASF302
C:\Users\CYMR90~1\AppData\Local\Temp\ccj5QhVO.s:25743  .debug_str:0000000000012ae1 .LASF303
C:\Users\CYMR90~1\AppData\Local\Temp\ccj5QhVO.s:21629  .debug_str:0000000000002180 .LASF304
C:\Users\CYMR90~1\AppData\Local\Temp\ccj5QhVO.s:24199  .debug_str:000000000000c850 .LASF305
C:\Users\CYMR90~1\AppData\Local\Temp\ccj5QhVO.s:29476  .debug_str:0000000000021a11 .LASF306
C:\Users\CYMR90~1\AppData\Local\Temp\ccj5QhVO.s:25043  .debug_str:000000000000fd3b .LASF307
C:\Users\CYMR90~1\AppData\Local\Temp\ccj5QhVO.s:30324  .debug_str:0000000000024e88 .LASF308
C:\Users\CYMR90~1\AppData\Local\Temp\ccj5QhVO.s:29928  .debug_str:00000000000234d6 .LASF309
C:\Users\CYMR90~1\AppData\Local\Temp\ccj5QhVO.s:24595  .debug_str:000000000000e196 .LASF310
C:\Users\CYMR90~1\AppData\Local\Temp\ccj5QhVO.s:30638  .debug_str:000000000002642f .LASF311
C:\Users\CYMR90~1\AppData\Local\Temp\ccj5QhVO.s:30154  .debug_str:0000000000024354 .LASF312
C:\Users\CYMR90~1\AppData\Local\Temp\ccj5QhVO.s:24313  .debug_str:000000000000cfaf .LASF313
C:\Users\CYMR90~1\AppData\Local\Temp\ccj5QhVO.s:27246  .debug_str:0000000000018b34 .LASF316
C:\Users\CYMR90~1\AppData\Local\Temp\ccj5QhVO.s:27610  .debug_str:000000000001a365 .LASF317
C:\Users\CYMR90~1\AppData\Local\Temp\ccj5QhVO.s:27956  .debug_str:000000000001bab9 .LASF318
C:\Users\CYMR90~1\AppData\Local\Temp\ccj5QhVO.s:25033  .debug_str:000000000000fcab .LASF319
C:\Users\CYMR90~1\AppData\Local\Temp\ccj5QhVO.s:23949  .debug_str:000000000000b7a4 .LASF320
C:\Users\CYMR90~1\AppData\Local\Temp\ccj5QhVO.s:31368  .debug_str:00000000000292a9 .LASF321
C:\Users\CYMR90~1\AppData\Local\Temp\ccj5QhVO.s:24505  .debug_str:000000000000dc50 .LASF322
C:\Users\CYMR90~1\AppData\Local\Temp\ccj5QhVO.s:30590  .debug_str:0000000000026103 .LASF323
C:\Users\CYMR90~1\AppData\Local\Temp\ccj5QhVO.s:21109  .debug_str:0000000000000224 .LASF324
C:\Users\CYMR90~1\AppData\Local\Temp\ccj5QhVO.s:31778  .debug_str:000000000002aab6 .LASF325
C:\Users\CYMR90~1\AppData\Local\Temp\ccj5QhVO.s:22039  .debug_str:0000000000003be1 .LASF326
C:\Users\CYMR90~1\AppData\Local\Temp\ccj5QhVO.s:26091  .debug_str:0000000000014162 .LASF327
C:\Users\CYMR90~1\AppData\Local\Temp\ccj5QhVO.s:25745  .debug_str:0000000000012af6 .LASF328
C:\Users\CYMR90~1\AppData\Local\Temp\ccj5QhVO.s:28612  .debug_str:000000000001e549 .LASF329
C:\Users\CYMR90~1\AppData\Local\Temp\ccj5QhVO.s:28604  .debug_str:000000000001e4f8 .LASF330
C:\Users\CYMR90~1\AppData\Local\Temp\ccj5QhVO.s:30788  .debug_str:0000000000026d33 .LASF331
C:\Users\CYMR90~1\AppData\Local\Temp\ccj5QhVO.s:31346  .debug_str:0000000000029140 .LASF332
C:\Users\CYMR90~1\AppData\Local\Temp\ccj5QhVO.s:31534  .debug_str:0000000000029c5e .LASF333
C:\Users\CYMR90~1\AppData\Local\Temp\ccj5QhVO.s:27584  .debug_str:000000000001a1ea .LASF334
C:\Users\CYMR90~1\AppData\Local\Temp\ccj5QhVO.s:27026  .debug_str:0000000000017df8 .LASF335
C:\Users\CYMR90~1\AppData\Local\Temp\ccj5QhVO.s:31388  .debug_str:00000000000293e9 .LASF336
C:\Users\CYMR90~1\AppData\Local\Temp\ccj5QhVO.s:25669  .debug_str:0000000000012612 .LASF337
C:\Users\CYMR90~1\AppData\Local\Temp\ccj5QhVO.s:29328  .debug_str:0000000000021092 .LASF338
C:\Users\CYMR90~1\AppData\Local\Temp\ccj5QhVO.s:23699  .debug_str:000000000000a655 .LASF339
C:\Users\CYMR90~1\AppData\Local\Temp\ccj5QhVO.s:25879  .debug_str:00000000000133de .LASF340
C:\Users\CYMR90~1\AppData\Local\Temp\ccj5QhVO.s:27790  .debug_str:000000000001b01b .LASF341
C:\Users\CYMR90~1\AppData\Local\Temp\ccj5QhVO.s:24015  .debug_str:000000000000bc07 .LASF342
C:\Users\CYMR90~1\AppData\Local\Temp\ccj5QhVO.s:21363  .debug_str:00000000000011ba .LASF343
C:\Users\CYMR90~1\AppData\Local\Temp\ccj5QhVO.s:31500  .debug_str:0000000000029a60 .LASF344
C:\Users\CYMR90~1\AppData\Local\Temp\ccj5QhVO.s:32100  .debug_str:000000000002bf35 .LASF345
C:\Users\CYMR90~1\AppData\Local\Temp\ccj5QhVO.s:24911  .debug_str:000000000000f4e1 .LASF346
C:\Users\CYMR90~1\AppData\Local\Temp\ccj5QhVO.s:21217  .debug_str:000000000000088a .LASF347
C:\Users\CYMR90~1\AppData\Local\Temp\ccj5QhVO.s:29124  .debug_str:00000000000203d9 .LASF348
C:\Users\CYMR90~1\AppData\Local\Temp\ccj5QhVO.s:31108  .debug_str:000000000002817c .LASF349
C:\Users\CYMR90~1\AppData\Local\Temp\ccj5QhVO.s:28606  .debug_str:000000000001e504 .LASF350
C:\Users\CYMR90~1\AppData\Local\Temp\ccj5QhVO.s:21149  .debug_str:0000000000000496 .LASF351
C:\Users\CYMR90~1\AppData\Local\Temp\ccj5QhVO.s:28898  .debug_str:000000000001f690 .LASF352
C:\Users\CYMR90~1\AppData\Local\Temp\ccj5QhVO.s:30582  .debug_str:0000000000026099 .LASF353
C:\Users\CYMR90~1\AppData\Local\Temp\ccj5QhVO.s:28226  .debug_str:000000000001cbed .LASF354
C:\Users\CYMR90~1\AppData\Local\Temp\ccj5QhVO.s:28396  .debug_str:000000000001d7c4 .LASF355
C:\Users\CYMR90~1\AppData\Local\Temp\ccj5QhVO.s:24395  .debug_str:000000000000d5ce .LASF356
C:\Users\CYMR90~1\AppData\Local\Temp\ccj5QhVO.s:27538  .debug_str:0000000000019f49 .LASF357
C:\Users\CYMR90~1\AppData\Local\Temp\ccj5QhVO.s:31016  .debug_str:0000000000027b39 .LASF358
C:\Users\CYMR90~1\AppData\Local\Temp\ccj5QhVO.s:25735  .debug_str:0000000000012a36 .LASF359
C:\Users\CYMR90~1\AppData\Local\Temp\ccj5QhVO.s:23795  .debug_str:000000000000ad1c .LASF360
C:\Users\CYMR90~1\AppData\Local\Temp\ccj5QhVO.s:28778  .debug_str:000000000001ef4c .LASF361
C:\Users\CYMR90~1\AppData\Local\Temp\ccj5QhVO.s:25467  .debug_str:00000000000117ec .LASF362
C:\Users\CYMR90~1\AppData\Local\Temp\ccj5QhVO.s:31284  .debug_str:0000000000028d93 .LASF363
C:\Users\CYMR90~1\AppData\Local\Temp\ccj5QhVO.s:23341  .debug_str:0000000000008fc8 .LASF364
C:\Users\CYMR90~1\AppData\Local\Temp\ccj5QhVO.s:31178  .debug_str:00000000000286b5 .LASF365
C:\Users\CYMR90~1\AppData\Local\Temp\ccj5QhVO.s:22753  .debug_str:0000000000006881 .LASF366
C:\Users\CYMR90~1\AppData\Local\Temp\ccj5QhVO.s:25869  .debug_str:000000000001331a .LASF367
C:\Users\CYMR90~1\AppData\Local\Temp\ccj5QhVO.s:23043  .debug_str:0000000000007b99 .LASF368
C:\Users\CYMR90~1\AppData\Local\Temp\ccj5QhVO.s:27072  .debug_str:00000000000180ab .LASF372
C:\Users\CYMR90~1\AppData\Local\Temp\ccj5QhVO.s:30830  .debug_str:0000000000026fba .LASF373
C:\Users\CYMR90~1\AppData\Local\Temp\ccj5QhVO.s:23777  .debug_str:000000000000abea .LASF374
C:\Users\CYMR90~1\AppData\Local\Temp\ccj5QhVO.s:26868  .debug_str:000000000001742a .LASF375
C:\Users\CYMR90~1\AppData\Local\Temp\ccj5QhVO.s:27058  .debug_str:0000000000017fe3 .LASF376
C:\Users\CYMR90~1\AppData\Local\Temp\ccj5QhVO.s:29570  .debug_str:0000000000021fd9 .LASF377
C:\Users\CYMR90~1\AppData\Local\Temp\ccj5QhVO.s:28242  .debug_str:000000000001ccc5 .LASF378
C:\Users\CYMR90~1\AppData\Local\Temp\ccj5QhVO.s:31936  .debug_str:000000000002b457 .LASF379
C:\Users\CYMR90~1\AppData\Local\Temp\ccj5QhVO.s:21723  .debug_str:000000000000274c .LASF380
C:\Users\CYMR90~1\AppData\Local\Temp\ccj5QhVO.s:31880  .debug_str:000000000002b0c2 .LASF381
C:\Users\CYMR90~1\AppData\Local\Temp\ccj5QhVO.s:27964  .debug_str:000000000001bb0a .LASF382
C:\Users\CYMR90~1\AppData\Local\Temp\ccj5QhVO.s:22811  .debug_str:0000000000006be6 .LASF383
C:\Users\CYMR90~1\AppData\Local\Temp\ccj5QhVO.s:24169  .debug_str:000000000000c654 .LASF384
C:\Users\CYMR90~1\AppData\Local\Temp\ccj5QhVO.s:27478  .debug_str:0000000000019b89 .LASF385
C:\Users\CYMR90~1\AppData\Local\Temp\ccj5QhVO.s:25151  .debug_str:00000000000103e6 .LASF386
C:\Users\CYMR90~1\AppData\Local\Temp\ccj5QhVO.s:21655  .debug_str:000000000000231f .LASF387
C:\Users\CYMR90~1\AppData\Local\Temp\ccj5QhVO.s:24757  .debug_str:000000000000ebcc .LASF388
C:\Users\CYMR90~1\AppData\Local\Temp\ccj5QhVO.s:23315  .debug_str:0000000000008e1d .LASF389
C:\Users\CYMR90~1\AppData\Local\Temp\ccj5QhVO.s:22129  .debug_str:0000000000004222 .LASF391
C:\Users\CYMR90~1\AppData\Local\Temp\ccj5QhVO.s:25159  .debug_str:0000000000010452 .LASF392
C:\Users\CYMR90~1\AppData\Local\Temp\ccj5QhVO.s:29224  .debug_str:0000000000020a3f .LASF393
C:\Users\CYMR90~1\AppData\Local\Temp\ccj5QhVO.s:30976  .debug_str:00000000000278ff .LASF394
C:\Users\CYMR90~1\AppData\Local\Temp\ccj5QhVO.s:21681  .debug_str:0000000000002477 .LASF395
C:\Users\CYMR90~1\AppData\Local\Temp\ccj5QhVO.s:23819  .debug_str:000000000000ae80 .LASF396
C:\Users\CYMR90~1\AppData\Local\Temp\ccj5QhVO.s:27590  .debug_str:000000000001a24a .LASF397
C:\Users\CYMR90~1\AppData\Local\Temp\ccj5QhVO.s:31754  .debug_str:000000000002a96f .LASF398
C:\Users\CYMR90~1\AppData\Local\Temp\ccj5QhVO.s:26429  .debug_str:000000000001567d .LASF399
C:\Users\CYMR90~1\AppData\Local\Temp\ccj5QhVO.s:28856  .debug_str:000000000001f423 .LASF400
C:\Users\CYMR90~1\AppData\Local\Temp\ccj5QhVO.s:23303  .debug_str:0000000000008d06 .LASF401
C:\Users\CYMR90~1\AppData\Local\Temp\ccj5QhVO.s:26918  .debug_str:0000000000017718 .LASF402
C:\Users\CYMR90~1\AppData\Local\Temp\ccj5QhVO.s:22645  .debug_str:00000000000061cc .LASF403
C:\Users\CYMR90~1\AppData\Local\Temp\ccj5QhVO.s:23753  .debug_str:000000000000aa5b .LASF404
C:\Users\CYMR90~1\AppData\Local\Temp\ccj5QhVO.s:24813  .debug_str:000000000000eef1 .LASF405
C:\Users\CYMR90~1\AppData\Local\Temp\ccj5QhVO.s:28150  .debug_str:000000000001c67d .LASF406
C:\Users\CYMR90~1\AppData\Local\Temp\ccj5QhVO.s:26353  .debug_str:00000000000151f8 .LASF407
C:\Users\CYMR90~1\AppData\Local\Temp\ccj5QhVO.s:27322  .debug_str:000000000001907a .LASF408
C:\Users\CYMR90~1\AppData\Local\Temp\ccj5QhVO.s:29520  .debug_str:0000000000021cb6 .LASF409
C:\Users\CYMR90~1\AppData\Local\Temp\ccj5QhVO.s:22597  .debug_str:0000000000005efa .LASF410
C:\Users\CYMR90~1\AppData\Local\Temp\ccj5QhVO.s:26537  .debug_str:0000000000015cbe .LASF411
C:\Users\CYMR90~1\AppData\Local\Temp\ccj5QhVO.s:29640  .debug_str:00000000000223f0 .LASF412
C:\Users\CYMR90~1\AppData\Local\Temp\ccj5QhVO.s:22785  .debug_str:0000000000006a62 .LASF413
C:\Users\CYMR90~1\AppData\Local\Temp\ccj5QhVO.s:31382  .debug_str:0000000000029382 .LASF414
C:\Users\CYMR90~1\AppData\Local\Temp\ccj5QhVO.s:24913  .debug_str:000000000000f4ef .LASF415
C:\Users\CYMR90~1\AppData\Local\Temp\ccj5QhVO.s:30700  .debug_str:00000000000267df .LASF416
C:\Users\CYMR90~1\AppData\Local\Temp\ccj5QhVO.s:32222  .debug_str:000000000002c765 .LASF417
C:\Users\CYMR90~1\AppData\Local\Temp\ccj5QhVO.s:23233  .debug_str:00000000000088ab .LASF418
C:\Users\CYMR90~1\AppData\Local\Temp\ccj5QhVO.s:31594  .debug_str:0000000000029fe5 .LASF419
C:\Users\CYMR90~1\AppData\Local\Temp\ccj5QhVO.s:22855  .debug_str:0000000000006f0d .LASF420
C:\Users\CYMR90~1\AppData\Local\Temp\ccj5QhVO.s:31798  .debug_str:000000000002abcc .LASF421
C:\Users\CYMR90~1\AppData\Local\Temp\ccj5QhVO.s:24091  .debug_str:000000000000c187 .LASF422
C:\Users\CYMR90~1\AppData\Local\Temp\ccj5QhVO.s:24291  .debug_str:000000000000ce85 .LASF423
C:\Users\CYMR90~1\AppData\Local\Temp\ccj5QhVO.s:28756  .debug_str:000000000001ee00 .LASF424
C:\Users\CYMR90~1\AppData\Local\Temp\ccj5QhVO.s:27360  .debug_str:00000000000193a5 .LASF425
C:\Users\CYMR90~1\AppData\Local\Temp\ccj5QhVO.s:21121  .debug_str:00000000000002ed .LASF426
C:\Users\CYMR90~1\AppData\Local\Temp\ccj5QhVO.s:31292  .debug_str:0000000000028e12 .LASF427
C:\Users\CYMR90~1\AppData\Local\Temp\ccj5QhVO.s:26619  .debug_str:0000000000016267 .LASF428
C:\Users\CYMR90~1\AppData\Local\Temp\ccj5QhVO.s:28530  .debug_str:000000000001e0a9 .LASF429
C:\Users\CYMR90~1\AppData\Local\Temp\ccj5QhVO.s:25099  .debug_str:00000000000100cd .LASF430
C:\Users\CYMR90~1\AppData\Local\Temp\ccj5QhVO.s:26820  .debug_str:000000000001716f .LASF431
C:\Users\CYMR90~1\AppData\Local\Temp\ccj5QhVO.s:29592  .debug_str:0000000000022107 .LASF432
C:\Users\CYMR90~1\AppData\Local\Temp\ccj5QhVO.s:24277  .debug_str:000000000000cdd0 .LASF434
C:\Users\CYMR90~1\AppData\Local\Temp\ccj5QhVO.s:22315  .debug_str:0000000000004e61 .LASF435
C:\Users\CYMR90~1\AppData\Local\Temp\ccj5QhVO.s:27002  .debug_str:0000000000017c8d .LASF436
C:\Users\CYMR90~1\AppData\Local\Temp\ccj5QhVO.s:22873  .debug_str:0000000000007036 .LASF437
C:\Users\CYMR90~1\AppData\Local\Temp\ccj5QhVO.s:31308  .debug_str:0000000000028ec9 .LASF438
C:\Users\CYMR90~1\AppData\Local\Temp\ccj5QhVO.s:21087  .debug_str:00000000000000e5 .LASF439
C:\Users\CYMR90~1\AppData\Local\Temp\ccj5QhVO.s:28794  .debug_str:000000000001f037 .LASF440
C:\Users\CYMR90~1\AppData\Local\Temp\ccj5QhVO.s:24513  .debug_str:000000000000dcb8 .LASF441
C:\Users\CYMR90~1\AppData\Local\Temp\ccj5QhVO.s:29832  .debug_str:0000000000022fae .LASF442
C:\Users\CYMR90~1\AppData\Local\Temp\ccj5QhVO.s:28730  .debug_str:000000000001ec91 .LASF443
C:\Users\CYMR90~1\AppData\Local\Temp\ccj5QhVO.s:25233  .debug_str:0000000000010956 .LASF444
C:\Users\CYMR90~1\AppData\Local\Temp\ccj5QhVO.s:32216  .debug_str:000000000002c719 .LASF445
C:\Users\CYMR90~1\AppData\Local\Temp\ccj5QhVO.s:32154  .debug_str:000000000002c30c .LASF446
C:\Users\CYMR90~1\AppData\Local\Temp\ccj5QhVO.s:25587  .debug_str:0000000000012086 .LASF447
C:\Users\CYMR90~1\AppData\Local\Temp\ccj5QhVO.s:29806  .debug_str:0000000000022e32 .LASF448
C:\Users\CYMR90~1\AppData\Local\Temp\ccj5QhVO.s:22141  .debug_str:00000000000042da .LASF449
C:\Users\CYMR90~1\AppData\Local\Temp\ccj5QhVO.s:22895  .debug_str:00000000000071b3 .LASF450
C:\Users\CYMR90~1\AppData\Local\Temp\ccj5QhVO.s:23499  .debug_str:0000000000009997 .LASF451
C:\Users\CYMR90~1\AppData\Local\Temp\ccj5QhVO.s:26265  .debug_str:0000000000014c04 .LASF452
C:\Users\CYMR90~1\AppData\Local\Temp\ccj5QhVO.s:21599  .debug_str:0000000000002007 .LASF453
C:\Users\CYMR90~1\AppData\Local\Temp\ccj5QhVO.s:32160  .debug_str:000000000002c345 .LASF454
C:\Users\CYMR90~1\AppData\Local\Temp\ccj5QhVO.s:24677  .debug_str:000000000000e667 .LASF455
C:\Users\CYMR90~1\AppData\Local\Temp\ccj5QhVO.s:29422  .debug_str:00000000000216aa .LASF456
C:\Users\CYMR90~1\AppData\Local\Temp\ccj5QhVO.s:24367  .debug_str:000000000000d388 .LASF457
C:\Users\CYMR90~1\AppData\Local\Temp\ccj5QhVO.s:22657  .debug_str:0000000000006279 .LASF458
C:\Users\CYMR90~1\AppData\Local\Temp\ccj5QhVO.s:25303  .debug_str:0000000000010e66 .LASF459
C:\Users\CYMR90~1\AppData\Local\Temp\ccj5QhVO.s:29176  .debug_str:000000000002078d .LASF460
C:\Users\CYMR90~1\AppData\Local\Temp\ccj5QhVO.s:30328  .debug_str:0000000000024ebe .LASF461
C:\Users\CYMR90~1\AppData\Local\Temp\ccj5QhVO.s:26783  .debug_str:0000000000016d6b .LASF462
C:\Users\CYMR90~1\AppData\Local\Temp\ccj5QhVO.s:27642  .debug_str:000000000001a6d7 .LASF463
C:\Users\CYMR90~1\AppData\Local\Temp\ccj5QhVO.s:24531  .debug_str:000000000000dd92 .LASF464
C:\Users\CYMR90~1\AppData\Local\Temp\ccj5QhVO.s:25681  .debug_str:00000000000126bc .LASF465
C:\Users\CYMR90~1\AppData\Local\Temp\ccj5QhVO.s:22803  .debug_str:0000000000006b82 .LASF466
C:\Users\CYMR90~1\AppData\Local\Temp\ccj5QhVO.s:23359  .debug_str:00000000000090b8 .LASF467
C:\Users\CYMR90~1\AppData\Local\Temp\ccj5QhVO.s:25439  .debug_str:000000000001161e .LASF468
C:\Users\CYMR90~1\AppData\Local\Temp\ccj5QhVO.s:21941  .debug_str:00000000000035b7 .LASF469
C:\Users\CYMR90~1\AppData\Local\Temp\ccj5QhVO.s:25193  .debug_str:0000000000010652 .LASF470
C:\Users\CYMR90~1\AppData\Local\Temp\ccj5QhVO.s:25075  .debug_str:000000000000ff42 .LASF471
C:\Users\CYMR90~1\AppData\Local\Temp\ccj5QhVO.s:24653  .debug_str:000000000000e4f4 .LASF472
C:\Users\CYMR90~1\AppData\Local\Temp\ccj5QhVO.s:21303  .debug_str:0000000000000dd9 .LASF473
C:\Users\CYMR90~1\AppData\Local\Temp\ccj5QhVO.s:22921  .debug_str:00000000000073b4 .LASF474
C:\Users\CYMR90~1\AppData\Local\Temp\ccj5QhVO.s:21249  .debug_str:0000000000000a9c .LASF475
C:\Users\CYMR90~1\AppData\Local\Temp\ccj5QhVO.s:22109  .debug_str:000000000000404d .LASF476
C:\Users\CYMR90~1\AppData\Local\Temp\ccj5QhVO.s:21471  .debug_str:0000000000001875 .LASF477
C:\Users\CYMR90~1\AppData\Local\Temp\ccj5QhVO.s:26565  .debug_str:0000000000015ed6 .LASF478
C:\Users\CYMR90~1\AppData\Local\Temp\ccj5QhVO.s:23969  .debug_str:000000000000b926 .LASF479
C:\Users\CYMR90~1\AppData\Local\Temp\ccj5QhVO.s:31794  .debug_str:000000000002ab9c .LASF480
C:\Users\CYMR90~1\AppData\Local\Temp\ccj5QhVO.s:27154  .debug_str:0000000000018581 .LASF481
C:\Users\CYMR90~1\AppData\Local\Temp\ccj5QhVO.s:23887  .debug_str:000000000000b38a .LASF482
C:\Users\CYMR90~1\AppData\Local\Temp\ccj5QhVO.s:22699  .debug_str:0000000000006503 .LASF483
C:\Users\CYMR90~1\AppData\Local\Temp\ccj5QhVO.s:21213  .debug_str:0000000000000843 .LASF484
C:\Users\CYMR90~1\AppData\Local\Temp\ccj5QhVO.s:27102  .debug_str:000000000001826b .LASF485
C:\Users\CYMR90~1\AppData\Local\Temp\ccj5QhVO.s:22325  .debug_str:0000000000004eff .LASF486
C:\Users\CYMR90~1\AppData\Local\Temp\ccj5QhVO.s:26033  .debug_str:0000000000013e12 .LASF487
C:\Users\CYMR90~1\AppData\Local\Temp\ccj5QhVO.s:25221  .debug_str:00000000000108b2 .LASF488
C:\Users\CYMR90~1\AppData\Local\Temp\ccj5QhVO.s:25799  .debug_str:0000000000012e88 .LASF489
C:\Users\CYMR90~1\AppData\Local\Temp\ccj5QhVO.s:24255  .debug_str:000000000000cc71 .LASF490
C:\Users\CYMR90~1\AppData\Local\Temp\ccj5QhVO.s:23231  .debug_str:000000000000889d .LASF491
C:\Users\CYMR90~1\AppData\Local\Temp\ccj5QhVO.s:24871  .debug_str:000000000000f260 .LASF492
C:\Users\CYMR90~1\AppData\Local\Temp\ccj5QhVO.s:25183  .debug_str:00000000000105d6 .LASF493
C:\Users\CYMR90~1\AppData\Local\Temp\ccj5QhVO.s:25081  .debug_str:000000000000ffb6 .LASF494
C:\Users\CYMR90~1\AppData\Local\Temp\ccj5QhVO.s:27350  .debug_str:0000000000019322 .LASF495
C:\Users\CYMR90~1\AppData\Local\Temp\ccj5QhVO.s:32240  .debug_str:000000000002c862 .LASF496
C:\Users\CYMR90~1\AppData\Local\Temp\ccj5QhVO.s:32178  .debug_str:000000000002c4aa .LASF497
C:\Users\CYMR90~1\AppData\Local\Temp\ccj5QhVO.s:24917  .debug_str:000000000000f536 .LASF498
C:\Users\CYMR90~1\AppData\Local\Temp\ccj5QhVO.s:31404  .debug_str:00000000000294b0 .LASF499
C:\Users\CYMR90~1\AppData\Local\Temp\ccj5QhVO.s:31504  .debug_str:0000000000029a83 .LASF500
C:\Users\CYMR90~1\AppData\Local\Temp\ccj5QhVO.s:26231  .debug_str:00000000000149e3 .LASF501
C:\Users\CYMR90~1\AppData\Local\Temp\ccj5QhVO.s:31458  .debug_str:00000000000297fd .LASF502
C:\Users\CYMR90~1\AppData\Local\Temp\ccj5QhVO.s:26187  .debug_str:0000000000014722 .LASF503
C:\Users\CYMR90~1\AppData\Local\Temp\ccj5QhVO.s:21809  .debug_str:0000000000002d1e .LASF504
C:\Users\CYMR90~1\AppData\Local\Temp\ccj5QhVO.s:30096  .debug_str:0000000000023f19 .LASF505
C:\Users\CYMR90~1\AppData\Local\Temp\ccj5QhVO.s:30972  .debug_str:00000000000278c4 .LASF506
C:\Users\CYMR90~1\AppData\Local\Temp\ccj5QhVO.s:30542  .debug_str:0000000000025e48 .LASF507
C:\Users\CYMR90~1\AppData\Local\Temp\ccj5QhVO.s:27268  .debug_str:0000000000018c97 .LASF508
C:\Users\CYMR90~1\AppData\Local\Temp\ccj5QhVO.s:29508  .debug_str:0000000000021bba .LASF509
C:\Users\CYMR90~1\AppData\Local\Temp\ccj5QhVO.s:31198  .debug_str:0000000000028819 .LASF510
C:\Users\CYMR90~1\AppData\Local\Temp\ccj5QhVO.s:27046  .debug_str:0000000000017f0c .LASF511
C:\Users\CYMR90~1\AppData\Local\Temp\ccj5QhVO.s:30818  .debug_str:0000000000026ec5 .LASF512
C:\Users\CYMR90~1\AppData\Local\Temp\ccj5QhVO.s:30944  .debug_str:0000000000027730 .LASF513
C:\Users\CYMR90~1\AppData\Local\Temp\ccj5QhVO.s:31386  .debug_str:00000000000293ae .LASF514
C:\Users\CYMR90~1\AppData\Local\Temp\ccj5QhVO.s:25967  .debug_str:0000000000013a06 .LASF515
C:\Users\CYMR90~1\AppData\Local\Temp\ccj5QhVO.s:31260  .debug_str:0000000000028c38 .LASF516
C:\Users\CYMR90~1\AppData\Local\Temp\ccj5QhVO.s:27418  .debug_str:0000000000019700 .LASF517
C:\Users\CYMR90~1\AppData\Local\Temp\ccj5QhVO.s:31206  .debug_str:00000000000288cd .LASF518
C:\Users\CYMR90~1\AppData\Local\Temp\ccj5QhVO.s:28072  .debug_str:000000000001c1e1 .LASF519
C:\Users\CYMR90~1\AppData\Local\Temp\ccj5QhVO.s:32148  .debug_str:000000000002c2aa .LASF520
C:\Users\CYMR90~1\AppData\Local\Temp\ccj5QhVO.s:28336  .debug_str:000000000001d403 .LASF521
C:\Users\CYMR90~1\AppData\Local\Temp\ccj5QhVO.s:30448  .debug_str:000000000002577e .LASF522
C:\Users\CYMR90~1\AppData\Local\Temp\ccj5QhVO.s:25843  .debug_str:0000000000013152 .LASF523
C:\Users\CYMR90~1\AppData\Local\Temp\ccj5QhVO.s:30004  .debug_str:00000000000239c8 .LASF524
C:\Users\CYMR90~1\AppData\Local\Temp\ccj5QhVO.s:23441  .debug_str:000000000000957d .LASF525
C:\Users\CYMR90~1\AppData\Local\Temp\ccj5QhVO.s:32170  .debug_str:000000000002c3be .LASF526
C:\Users\CYMR90~1\AppData\Local\Temp\ccj5QhVO.s:24685  .debug_str:000000000000e706 .LASF527
C:\Users\CYMR90~1\AppData\Local\Temp\ccj5QhVO.s:25705  .debug_str:0000000000012830 .LASF528
C:\Users\CYMR90~1\AppData\Local\Temp\ccj5QhVO.s:26543  .debug_str:0000000000015d2e .LASF529
C:\Users\CYMR90~1\AppData\Local\Temp\ccj5QhVO.s:26577  .debug_str:0000000000015f83 .LASF530
C:\Users\CYMR90~1\AppData\Local\Temp\ccj5QhVO.s:25629  .debug_str:0000000000012392 .LASF531
C:\Users\CYMR90~1\AppData\Local\Temp\ccj5QhVO.s:21871  .debug_str:00000000000030c9 .LASF532
C:\Users\CYMR90~1\AppData\Local\Temp\ccj5QhVO.s:24373  .debug_str:000000000000d3c2 .LASF533
C:\Users\CYMR90~1\AppData\Local\Temp\ccj5QhVO.s:32016  .debug_str:000000000002b977 .LASF534
C:\Users\CYMR90~1\AppData\Local\Temp\ccj5QhVO.s:24869  .debug_str:000000000000f214 .LASF535
C:\Users\CYMR90~1\AppData\Local\Temp\ccj5QhVO.s:30190  .debug_str:00000000000245b6 .LASF536
C:\Users\CYMR90~1\AppData\Local\Temp\ccj5QhVO.s:31666  .debug_str:000000000002a3c0 .LASF537
C:\Users\CYMR90~1\AppData\Local\Temp\ccj5QhVO.s:25455  .debug_str:000000000001170d .LASF538
C:\Users\CYMR90~1\AppData\Local\Temp\ccj5QhVO.s:30372  .debug_str:0000000000025195 .LASF539
C:\Users\CYMR90~1\AppData\Local\Temp\ccj5QhVO.s:28130  .debug_str:000000000001c56b .LASF540
C:\Users\CYMR90~1\AppData\Local\Temp\ccj5QhVO.s:29710  .debug_str:0000000000022800 .LASF541
C:\Users\CYMR90~1\AppData\Local\Temp\ccj5QhVO.s:28426  .debug_str:000000000001d9ad .LASF542
C:\Users\CYMR90~1\AppData\Local\Temp\ccj5QhVO.s:22213  .debug_str:000000000000476c .LASF543
C:\Users\CYMR90~1\AppData\Local\Temp\ccj5QhVO.s:24621  .debug_str:000000000000e300 .LASF544
C:\Users\CYMR90~1\AppData\Local\Temp\ccj5QhVO.s:31444  .debug_str:0000000000029719 .LASF545
C:\Users\CYMR90~1\AppData\Local\Temp\ccj5QhVO.s:25977  .debug_str:0000000000013a95 .LASF546
C:\Users\CYMR90~1\AppData\Local\Temp\ccj5QhVO.s:29692  .debug_str:00000000000226db .LASF547
C:\Users\CYMR90~1\AppData\Local\Temp\ccj5QhVO.s:31932  .debug_str:000000000002b429 .LASF548
C:\Users\CYMR90~1\AppData\Local\Temp\ccj5QhVO.s:21915  .debug_str:00000000000033f5 .LASF549
C:\Users\CYMR90~1\AppData\Local\Temp\ccj5QhVO.s:23071  .debug_str:0000000000007d39 .LASF550
C:\Users\CYMR90~1\AppData\Local\Temp\ccj5QhVO.s:30708  .debug_str:0000000000026842 .LASF551
C:\Users\CYMR90~1\AppData\Local\Temp\ccj5QhVO.s:22625  .debug_str:00000000000060ac .LASF552
C:\Users\CYMR90~1\AppData\Local\Temp\ccj5QhVO.s:31684  .debug_str:000000000002a4b9 .LASF553
C:\Users\CYMR90~1\AppData\Local\Temp\ccj5QhVO.s:24043  .debug_str:000000000000bdcf .LASF554
C:\Users\CYMR90~1\AppData\Local\Temp\ccj5QhVO.s:24231  .debug_str:000000000000caae .LASF555
C:\Users\CYMR90~1\AppData\Local\Temp\ccj5QhVO.s:22751  .debug_str:000000000000682e .LASF556
C:\Users\CYMR90~1\AppData\Local\Temp\ccj5QhVO.s:22453  .debug_str:000000000000565f .LASF557
C:\Users\CYMR90~1\AppData\Local\Temp\ccj5QhVO.s:25573  .debug_str:0000000000011fab .LASF558
C:\Users\CYMR90~1\AppData\Local\Temp\ccj5QhVO.s:27296  .debug_str:0000000000018eed .LASF559
C:\Users\CYMR90~1\AppData\Local\Temp\ccj5QhVO.s:31250  .debug_str:0000000000028b90 .LASF560
C:\Users\CYMR90~1\AppData\Local\Temp\ccj5QhVO.s:24039  .debug_str:000000000000bd6b .LASF561
C:\Users\CYMR90~1\AppData\Local\Temp\ccj5QhVO.s:25031  .debug_str:000000000000fc60 .LASF562
C:\Users\CYMR90~1\AppData\Local\Temp\ccj5QhVO.s:24415  .debug_str:000000000000d6ff .LASF563
C:\Users\CYMR90~1\AppData\Local\Temp\ccj5QhVO.s:23737  .debug_str:000000000000a872 .LASF564
C:\Users\CYMR90~1\AppData\Local\Temp\ccj5QhVO.s:29450  .debug_str:0000000000021859 .LASF565
C:\Users\CYMR90~1\AppData\Local\Temp\ccj5QhVO.s:28672  .debug_str:000000000001e901 .LASF566
C:\Users\CYMR90~1\AppData\Local\Temp\ccj5QhVO.s:25569  .debug_str:0000000000011f63 .LASF567
C:\Users\CYMR90~1\AppData\Local\Temp\ccj5QhVO.s:22627  .debug_str:00000000000060c0 .LASF568
C:\Users\CYMR90~1\AppData\Local\Temp\ccj5QhVO.s:21275  .debug_str:0000000000000c65 .LASF570
C:\Users\CYMR90~1\AppData\Local\Temp\ccj5QhVO.s:26932  .debug_str:00000000000177e5 .LASF571
C:\Users\CYMR90~1\AppData\Local\Temp\ccj5QhVO.s:28068  .debug_str:000000000001c1bb .LASF574
C:\Users\CYMR90~1\AppData\Local\Temp\ccj5QhVO.s:22183  .debug_str:0000000000004577 .LASF575
C:\Users\CYMR90~1\AppData\Local\Temp\ccj5QhVO.s:26193  .debug_str:000000000001479b .LASF576
C:\Users\CYMR90~1\AppData\Local\Temp\ccj5QhVO.s:23161  .debug_str:0000000000008461 .LASF577
C:\Users\CYMR90~1\AppData\Local\Temp\ccj5QhVO.s:29350  .debug_str:00000000000211c3 .LASF579
C:\Users\CYMR90~1\AppData\Local\Temp\ccj5QhVO.s:28546  .debug_str:000000000001e185 .LASF580
C:\Users\CYMR90~1\AppData\Local\Temp\ccj5QhVO.s:30094  .debug_str:0000000000023f10 .LASF581
C:\Users\CYMR90~1\AppData\Local\Temp\ccj5QhVO.s:22581  .debug_str:0000000000005e04 .LASF582
C:\Users\CYMR90~1\AppData\Local\Temp\ccj5QhVO.s:25177  .debug_str:0000000000010576 .LASF583
C:\Users\CYMR90~1\AppData\Local\Temp\ccj5QhVO.s:21765  .debug_str:0000000000002a32 .LASF584
C:\Users\CYMR90~1\AppData\Local\Temp\ccj5QhVO.s:31540  .debug_str:0000000000029cbd .LASF585
C:\Users\CYMR90~1\AppData\Local\Temp\ccj5QhVO.s:29740  .debug_str:00000000000229f0 .LASF586
C:\Users\CYMR90~1\AppData\Local\Temp\ccj5QhVO.s:27952  .debug_str:000000000001ba97 .LASF587
C:\Users\CYMR90~1\AppData\Local\Temp\ccj5QhVO.s:23735  .debug_str:000000000000a862 .LASF588
C:\Users\CYMR90~1\AppData\Local\Temp\ccj5QhVO.s:27206  .debug_str:00000000000188b9 .LASF589
C:\Users\CYMR90~1\AppData\Local\Temp\ccj5QhVO.s:27586  .debug_str:000000000001a1f3 .LASF590
C:\Users\CYMR90~1\AppData\Local\Temp\ccj5QhVO.s:28418  .debug_str:000000000001d94d .LASF591
C:\Users\CYMR90~1\AppData\Local\Temp\ccj5QhVO.s:28208  .debug_str:000000000001cac0 .LASF592
C:\Users\CYMR90~1\AppData\Local\Temp\ccj5QhVO.s:30082  .debug_str:0000000000023e6d .LASF593
C:\Users\CYMR90~1\AppData\Local\Temp\ccj5QhVO.s:25141  .debug_str:000000000001034c .LASF594
C:\Users\CYMR90~1\AppData\Local\Temp\ccj5QhVO.s:26031  .debug_str:0000000000013df2 .LASF595
C:\Users\CYMR90~1\AppData\Local\Temp\ccj5QhVO.s:25759  .debug_str:0000000000012be3 .LASF596
C:\Users\CYMR90~1\AppData\Local\Temp\ccj5QhVO.s:22923  .debug_str:00000000000073d3 .LASF597
C:\Users\CYMR90~1\AppData\Local\Temp\ccj5QhVO.s:31068  .debug_str:0000000000027ef6 .LASF598
C:\Users\CYMR90~1\AppData\Local\Temp\ccj5QhVO.s:25921  .debug_str:0000000000013719 .LASF599
C:\Users\CYMR90~1\AppData\Local\Temp\ccj5QhVO.s:28876  .debug_str:000000000001f554 .LASF600
C:\Users\CYMR90~1\AppData\Local\Temp\ccj5QhVO.s:28138  .debug_str:000000000001c5d7 .LASF601
C:\Users\CYMR90~1\AppData\Local\Temp\ccj5QhVO.s:30548  .debug_str:0000000000025e9b .LASF602
C:\Users\CYMR90~1\AppData\Local\Temp\ccj5QhVO.s:31266  .debug_str:0000000000028c9a .LASF603
C:\Users\CYMR90~1\AppData\Local\Temp\ccj5QhVO.s:31154  .debug_str:0000000000028549 .LASF604
C:\Users\CYMR90~1\AppData\Local\Temp\ccj5QhVO.s:25867  .debug_str:0000000000013302 .LASF605
C:\Users\CYMR90~1\AppData\Local\Temp\ccj5QhVO.s:29886  .debug_str:000000000002327a .LASF606
C:\Users\CYMR90~1\AppData\Local\Temp\ccj5QhVO.s:23509  .debug_str:0000000000009a51 .LASF607
C:\Users\CYMR90~1\AppData\Local\Temp\ccj5QhVO.s:23025  .debug_str:0000000000007a40 .LASF608
C:\Users\CYMR90~1\AppData\Local\Temp\ccj5QhVO.s:23797  .debug_str:000000000000ad2a .LASF609
C:\Users\CYMR90~1\AppData\Local\Temp\ccj5QhVO.s:27990  .debug_str:000000000001bc7f .LASF610
C:\Users\CYMR90~1\AppData\Local\Temp\ccj5QhVO.s:22545  .debug_str:0000000000005c35 .LASF611
C:\Users\CYMR90~1\AppData\Local\Temp\ccj5QhVO.s:29664  .debug_str:0000000000022539 .LASF612
C:\Users\CYMR90~1\AppData\Local\Temp\ccj5QhVO.s:26411  .debug_str:0000000000015554 .LASF613
C:\Users\CYMR90~1\AppData\Local\Temp\ccj5QhVO.s:23091  .debug_str:0000000000007f1d .LASF614
C:\Users\CYMR90~1\AppData\Local\Temp\ccj5QhVO.s:21173  .debug_str:00000000000005c7 .LASF615
C:\Users\CYMR90~1\AppData\Local\Temp\ccj5QhVO.s:26647  .debug_str:00000000000163ec .LASF616
C:\Users\CYMR90~1\AppData\Local\Temp\ccj5QhVO.s:27624  .debug_str:000000000001a437 .LASF617
C:\Users\CYMR90~1\AppData\Local\Temp\ccj5QhVO.s:26785  .debug_str:0000000000016d7a .LASF618
C:\Users\CYMR90~1\AppData\Local\Temp\ccj5QhVO.s:29750  .debug_str:0000000000022a7b .LASF619
C:\Users\CYMR90~1\AppData\Local\Temp\ccj5QhVO.s:24059  .debug_str:000000000000bf69 .LASF620
C:\Users\CYMR90~1\AppData\Local\Temp\ccj5QhVO.s:22833  .debug_str:0000000000006d82 .LASF621
C:\Users\CYMR90~1\AppData\Local\Temp\ccj5QhVO.s:29948  .debug_str:00000000000235fa .LASF622
C:\Users\CYMR90~1\AppData\Local\Temp\ccj5QhVO.s:29054  .debug_str:000000000001ffd8 .LASF623
C:\Users\CYMR90~1\AppData\Local\Temp\ccj5QhVO.s:31024  .debug_str:0000000000027bae .LASF624
C:\Users\CYMR90~1\AppData\Local\Temp\ccj5QhVO.s:31638  .debug_str:000000000002a261 .LASF625
C:\Users\CYMR90~1\AppData\Local\Temp\ccj5QhVO.s:26099  .debug_str:00000000000141be .LASF626
C:\Users\CYMR90~1\AppData\Local\Temp\ccj5QhVO.s:31898  .debug_str:000000000002b1ae .LASF627
C:\Users\CYMR90~1\AppData\Local\Temp\ccj5QhVO.s:26499  .debug_str:0000000000015a6d .LASF628
C:\Users\CYMR90~1\AppData\Local\Temp\ccj5QhVO.s:29690  .debug_str:00000000000226a3 .LASF629
C:\Users\CYMR90~1\AppData\Local\Temp\ccj5QhVO.s:23239  .debug_str:0000000000008922 .LASF630
C:\Users\CYMR90~1\AppData\Local\Temp\ccj5QhVO.s:24453  .debug_str:000000000000d958 .LASF631
C:\Users\CYMR90~1\AppData\Local\Temp\ccj5QhVO.s:29654  .debug_str:0000000000022499 .LASF632
C:\Users\CYMR90~1\AppData\Local\Temp\ccj5QhVO.s:24175  .debug_str:000000000000c6b5 .LASF633
C:\Users\CYMR90~1\AppData\Local\Temp\ccj5QhVO.s:21265  .debug_str:0000000000000bcf .LASF634
C:\Users\CYMR90~1\AppData\Local\Temp\ccj5QhVO.s:27526  .debug_str:0000000000019e7f .LASF635
C:\Users\CYMR90~1\AppData\Local\Temp\ccj5QhVO.s:26707  .debug_str:00000000000167f2 .LASF636
C:\Users\CYMR90~1\AppData\Local\Temp\ccj5QhVO.s:28306  .debug_str:000000000001d22c .LASF637
C:\Users\CYMR90~1\AppData\Local\Temp\ccj5QhVO.s:21975  .debug_str:00000000000037ca .LASF638
C:\Users\CYMR90~1\AppData\Local\Temp\ccj5QhVO.s:25521  .debug_str:0000000000011c91 .LASF639
C:\Users\CYMR90~1\AppData\Local\Temp\ccj5QhVO.s:23103  .debug_str:0000000000007fc5 .LASF640
C:\Users\CYMR90~1\AppData\Local\Temp\ccj5QhVO.s:25741  .debug_str:0000000000012aa5 .LASF641
C:\Users\CYMR90~1\AppData\Local\Temp\ccj5QhVO.s:23957  .debug_str:000000000000b81e .LASF642
C:\Users\CYMR90~1\AppData\Local\Temp\ccj5QhVO.s:31008  .debug_str:0000000000027a9e .LASF643
C:\Users\CYMR90~1\AppData\Local\Temp\ccj5QhVO.s:24329  .debug_str:000000000000d0cd .LASF644
C:\Users\CYMR90~1\AppData\Local\Temp\ccj5QhVO.s:22157  .debug_str:0000000000004398 .LASF645
C:\Users\CYMR90~1\AppData\Local\Temp\ccj5QhVO.s:22981  .debug_str:0000000000007749 .LASF646
C:\Users\CYMR90~1\AppData\Local\Temp\ccj5QhVO.s:21907  .debug_str:000000000000335b .LASF647
C:\Users\CYMR90~1\AppData\Local\Temp\ccj5QhVO.s:22269  .debug_str:0000000000004b78 .LASF648
C:\Users\CYMR90~1\AppData\Local\Temp\ccj5QhVO.s:31538  .debug_str:0000000000029c7e .LASF649
C:\Users\CYMR90~1\AppData\Local\Temp\ccj5QhVO.s:25435  .debug_str:00000000000115ab .LASF650
C:\Users\CYMR90~1\AppData\Local\Temp\ccj5QhVO.s:31656  .debug_str:000000000002a357 .LASF651
C:\Users\CYMR90~1\AppData\Local\Temp\ccj5QhVO.s:25041  .debug_str:000000000000fd21 .LASF652
C:\Users\CYMR90~1\AppData\Local\Temp\ccj5QhVO.s:21153  .debug_str:00000000000004b6 .LASF653
C:\Users\CYMR90~1\AppData\Local\Temp\ccj5QhVO.s:31884  .debug_str:000000000002b0ed .LASF654
C:\Users\CYMR90~1\AppData\Local\Temp\ccj5QhVO.s:23331  .debug_str:0000000000008f37 .LASF655
C:\Users\CYMR90~1\AppData\Local\Temp\ccj5QhVO.s:31084  .debug_str:0000000000027fef .LASF656
C:\Users\CYMR90~1\AppData\Local\Temp\ccj5QhVO.s:21207  .debug_str:0000000000000801 .LASF657
C:\Users\CYMR90~1\AppData\Local\Temp\ccj5QhVO.s:31706  .debug_str:000000000002a633 .LASF658
C:\Users\CYMR90~1\AppData\Local\Temp\ccj5QhVO.s:25837  .debug_str:0000000000013104 .LASF659
C:\Users\CYMR90~1\AppData\Local\Temp\ccj5QhVO.s:28238  .debug_str:000000000001cc99 .LASF660
C:\Users\CYMR90~1\AppData\Local\Temp\ccj5QhVO.s:24723  .debug_str:000000000000e9a9 .LASF661
C:\Users\CYMR90~1\AppData\Local\Temp\ccj5QhVO.s:28904  .debug_str:000000000001f6db .LASF662
C:\Users\CYMR90~1\AppData\Local\Temp\ccj5QhVO.s:30860  .debug_str:000000000002716f .LASF663
C:\Users\CYMR90~1\AppData\Local\Temp\ccj5QhVO.s:25413  .debug_str:0000000000011465 .LASF664
C:\Users\CYMR90~1\AppData\Local\Temp\ccj5QhVO.s:25403  .debug_str:00000000000113f6 .LASF665
C:\Users\CYMR90~1\AppData\Local\Temp\ccj5QhVO.s:27304  .debug_str:0000000000018fa6 .LASF666
C:\Users\CYMR90~1\AppData\Local\Temp\ccj5QhVO.s:22557  .debug_str:0000000000005ccd .LASF667
C:\Users\CYMR90~1\AppData\Local\Temp\ccj5QhVO.s:32372  .debug_str:000000000002d13b .LASF668
C:\Users\CYMR90~1\AppData\Local\Temp\ccj5QhVO.s:22947  .debug_str:000000000000753f .LASF669
C:\Users\CYMR90~1\AppData\Local\Temp\ccj5QhVO.s:29542  .debug_str:0000000000021e21 .LASF670
C:\Users\CYMR90~1\AppData\Local\Temp\ccj5QhVO.s:25819  .debug_str:0000000000012fe6 .LASF671
C:\Users\CYMR90~1\AppData\Local\Temp\ccj5QhVO.s:28954  .debug_str:000000000001f995 .LASF672
C:\Users\CYMR90~1\AppData\Local\Temp\ccj5QhVO.s:29666  .debug_str:0000000000022552 .LASF673
C:\Users\CYMR90~1\AppData\Local\Temp\ccj5QhVO.s:21545  .debug_str:0000000000001ce9 .LASF674
C:\Users\CYMR90~1\AppData\Local\Temp\ccj5QhVO.s:26485  .debug_str:000000000001598e .LASF676
C:\Users\CYMR90~1\AppData\Local\Temp\ccj5QhVO.s:30112  .debug_str:0000000000024030 .LASF677
C:\Users\CYMR90~1\AppData\Local\Temp\ccj5QhVO.s:27540  .debug_str:0000000000019f55 .LASF678
C:\Users\CYMR90~1\AppData\Local\Temp\ccj5QhVO.s:30210  .debug_str:000000000002471b .LASF679
C:\Users\CYMR90~1\AppData\Local\Temp\ccj5QhVO.s:28668  .debug_str:000000000001e8d5 .LASF680
C:\Users\CYMR90~1\AppData\Local\Temp\ccj5QhVO.s:31552  .debug_str:0000000000029d7b .LASF681
C:\Users\CYMR90~1\AppData\Local\Temp\ccj5QhVO.s:22159  .debug_str:00000000000043d6 .LASF682
C:\Users\CYMR90~1\AppData\Local\Temp\ccj5QhVO.s:22079  .debug_str:0000000000003e5e .LASF683
C:\Users\CYMR90~1\AppData\Local\Temp\ccj5QhVO.s:23465  .debug_str:0000000000009734 .LASF684
C:\Users\CYMR90~1\AppData\Local\Temp\ccj5QhVO.s:27994  .debug_str:000000000001bcac .LASF685
C:\Users\CYMR90~1\AppData\Local\Temp\ccj5QhVO.s:29406  .debug_str:00000000000215a3 .LASF686
C:\Users\CYMR90~1\AppData\Local\Temp\ccj5QhVO.s:26763  .debug_str:0000000000016bab .LASF687
C:\Users\CYMR90~1\AppData\Local\Temp\ccj5QhVO.s:25339  .debug_str:0000000000011024 .LASF688
C:\Users\CYMR90~1\AppData\Local\Temp\ccj5QhVO.s:21959  .debug_str:00000000000036b5 .LASF689
C:\Users\CYMR90~1\AppData\Local\Temp\ccj5QhVO.s:22839  .debug_str:0000000000006e01 .LASF690
C:\Users\CYMR90~1\AppData\Local\Temp\ccj5QhVO.s:25689  .debug_str:0000000000012730 .LASF691
C:\Users\CYMR90~1\AppData\Local\Temp\ccj5QhVO.s:26523  .debug_str:0000000000015bd7 .LASF692
C:\Users\CYMR90~1\AppData\Local\Temp\ccj5QhVO.s:22527  .debug_str:0000000000005b31 .LASF695
C:\Users\CYMR90~1\AppData\Local\Temp\ccj5QhVO.s:26930  .debug_str:00000000000177ce .LASF696
C:\Users\CYMR90~1\AppData\Local\Temp\ccj5QhVO.s:26830  .debug_str:0000000000017207 .LASF697
C:\Users\CYMR90~1\AppData\Local\Temp\ccj5QhVO.s:27962  .debug_str:000000000001baf8 .LASF698
C:\Users\CYMR90~1\AppData\Local\Temp\ccj5QhVO.s:30148  .debug_str:0000000000024213 .LASF699
C:\Users\CYMR90~1\AppData\Local\Temp\ccj5QhVO.s:26261  .debug_str:0000000000014b81 .LASF702
C:\Users\CYMR90~1\AppData\Local\Temp\ccj5QhVO.s:23487  .debug_str:000000000000988b .LASF703
C:\Users\CYMR90~1\AppData\Local\Temp\ccj5QhVO.s:28846  .debug_str:000000000001f393 .LASF704
C:\Users\CYMR90~1\AppData\Local\Temp\ccj5QhVO.s:22347  .debug_str:000000000000502b .LASF705
C:\Users\CYMR90~1\AppData\Local\Temp\ccj5QhVO.s:26589  .debug_str:0000000000016064 .LASF706
C:\Users\CYMR90~1\AppData\Local\Temp\ccj5QhVO.s:24915  .debug_str:000000000000f510 .LASF707
C:\Users\CYMR90~1\AppData\Local\Temp\ccj5QhVO.s:31280  .debug_str:0000000000028d67 .LASF708
C:\Users\CYMR90~1\AppData\Local\Temp\ccj5QhVO.s:30520  .debug_str:0000000000025cf8 .LASF709
C:\Users\CYMR90~1\AppData\Local\Temp\ccj5QhVO.s:24567  .debug_str:000000000000e023 .LASF710
C:\Users\CYMR90~1\AppData\Local\Temp\ccj5QhVO.s:25079  .debug_str:000000000000ff83 .LASF711
C:\Users\CYMR90~1\AppData\Local\Temp\ccj5QhVO.s:26737  .debug_str:00000000000169b9 .LASF712
C:\Users\CYMR90~1\AppData\Local\Temp\ccj5QhVO.s:23731  .debug_str:000000000000a808 .LASF713
C:\Users\CYMR90~1\AppData\Local\Temp\ccj5QhVO.s:32094  .debug_str:000000000002beb6 .LASF714
C:\Users\CYMR90~1\AppData\Local\Temp\ccj5QhVO.s:23087  .debug_str:0000000000007eb8 .LASF715
C:\Users\CYMR90~1\AppData\Local\Temp\ccj5QhVO.s:24001  .debug_str:000000000000bae8 .LASF716
C:\Users\CYMR90~1\AppData\Local\Temp\ccj5QhVO.s:29070  .debug_str:00000000000200ea .LASF717
C:\Users\CYMR90~1\AppData\Local\Temp\ccj5QhVO.s:30474  .debug_str:000000000002598f .LASF718
C:\Users\CYMR90~1\AppData\Local\Temp\ccj5QhVO.s:30252  .debug_str:0000000000024994 .LASF719
C:\Users\CYMR90~1\AppData\Local\Temp\ccj5QhVO.s:27240  .debug_str:0000000000018ae2 .LASF720
C:\Users\CYMR90~1\AppData\Local\Temp\ccj5QhVO.s:21603  .debug_str:000000000000203c .LASF721
C:\Users\CYMR90~1\AppData\Local\Temp\ccj5QhVO.s:29180  .debug_str:00000000000207c1 .LASF722
C:\Users\CYMR90~1\AppData\Local\Temp\ccj5QhVO.s:28152  .debug_str:000000000001c68d .LASF723
C:\Users\CYMR90~1\AppData\Local\Temp\ccj5QhVO.s:28722  .debug_str:000000000001ec38 .LASF724
C:\Users\CYMR90~1\AppData\Local\Temp\ccj5QhVO.s:29646  .debug_str:0000000000022447 .LASF725
C:\Users\CYMR90~1\AppData\Local\Temp\ccj5QhVO.s:25937  .debug_str:0000000000013825 .LASF726
C:\Users\CYMR90~1\AppData\Local\Temp\ccj5QhVO.s:23725  .debug_str:000000000000a7ae .LASF727
C:\Users\CYMR90~1\AppData\Local\Temp\ccj5QhVO.s:30608  .debug_str:000000000002626e .LASF728
C:\Users\CYMR90~1\AppData\Local\Temp\ccj5QhVO.s:28960  .debug_str:000000000001fa13 .LASF729
C:\Users\CYMR90~1\AppData\Local\Temp\ccj5QhVO.s:27430  .debug_str:00000000000197bf .LASF730
C:\Users\CYMR90~1\AppData\Local\Temp\ccj5QhVO.s:25907  .debug_str:000000000001361f .LASF731
C:\Users\CYMR90~1\AppData\Local\Temp\ccj5QhVO.s:30550  .debug_str:0000000000025ed6 .LASF732
C:\Users\CYMR90~1\AppData\Local\Temp\ccj5QhVO.s:32300  .debug_str:000000000002cc98 .LASF733
C:\Users\CYMR90~1\AppData\Local\Temp\ccj5QhVO.s:25389  .debug_str:000000000001130b .LASF734
C:\Users\CYMR90~1\AppData\Local\Temp\ccj5QhVO.s:25315  .debug_str:0000000000010ef4 .LASF735
C:\Users\CYMR90~1\AppData\Local\Temp\ccj5QhVO.s:32226  .debug_str:000000000002c786 .LASF736
C:\Users\CYMR90~1\AppData\Local\Temp\ccj5QhVO.s:24299  .debug_str:000000000000cee4 .LASF737
C:\Users\CYMR90~1\AppData\Local\Temp\ccj5QhVO.s:32158  .debug_str:000000000002c334 .LASF738
C:\Users\CYMR90~1\AppData\Local\Temp\ccj5QhVO.s:31984  .debug_str:000000000002b786 .LASF739
C:\Users\CYMR90~1\AppData\Local\Temp\ccj5QhVO.s:21511  .debug_str:0000000000001adb .LASF740
C:\Users\CYMR90~1\AppData\Local\Temp\ccj5QhVO.s:24237  .debug_str:000000000000cb1e .LASF741
C:\Users\CYMR90~1\AppData\Local\Temp\ccj5QhVO.s:21481  .debug_str:0000000000001916 .LASF742
C:\Users\CYMR90~1\AppData\Local\Temp\ccj5QhVO.s:25347  .debug_str:000000000001107d .LASF743
C:\Users\CYMR90~1\AppData\Local\Temp\ccj5QhVO.s:21945  .debug_str:00000000000035f4 .LASF744
C:\Users\CYMR90~1\AppData\Local\Temp\ccj5QhVO.s:23339  .debug_str:0000000000008fb3 .LASF745
C:\Users\CYMR90~1\AppData\Local\Temp\ccj5QhVO.s:29658  .debug_str:00000000000224e8 .LASF746
C:\Users\CYMR90~1\AppData\Local\Temp\ccj5QhVO.s:21377  .debug_str:0000000000001257 .LASF747
C:\Users\CYMR90~1\AppData\Local\Temp\ccj5QhVO.s:31410  .debug_str:0000000000029507 .LASF748
C:\Users\CYMR90~1\AppData\Local\Temp\ccj5QhVO.s:22509  .debug_str:00000000000059de .LASF750
C:\Users\CYMR90~1\AppData\Local\Temp\ccj5QhVO.s:25265  .debug_str:0000000000010b05 .LASF751
C:\Users\CYMR90~1\AppData\Local\Temp\ccj5QhVO.s:31440  .debug_str:00000000000296f2 .LASF752
C:\Users\CYMR90~1\AppData\Local\Temp\ccj5QhVO.s:25201  .debug_str:0000000000010701 .LASF753
C:\Users\CYMR90~1\AppData\Local\Temp\ccj5QhVO.s:22389  .debug_str:00000000000052bc .LASF754
C:\Users\CYMR90~1\AppData\Local\Temp\ccj5QhVO.s:23983  .debug_str:000000000000b9e1 .LASF755
C:\Users\CYMR90~1\AppData\Local\Temp\ccj5QhVO.s:27502  .debug_str:0000000000019d20 .LASF756
C:\Users\CYMR90~1\AppData\Local\Temp\ccj5QhVO.s:23475  .debug_str:00000000000097e3 .LASF757
C:\Users\CYMR90~1\AppData\Local\Temp\ccj5QhVO.s:30502  .debug_str:0000000000025bd8 .LASF758
C:\Users\CYMR90~1\AppData\Local\Temp\ccj5QhVO.s:32340  .debug_str:000000000002cf5b .LASF759
C:\Users\CYMR90~1\AppData\Local\Temp\ccj5QhVO.s:27878  .debug_str:000000000001b5fa .LASF760
C:\Users\CYMR90~1\AppData\Local\Temp\ccj5QhVO.s:32076  .debug_str:000000000002bd70 .LASF761
C:\Users\CYMR90~1\AppData\Local\Temp\ccj5QhVO.s:23905  .debug_str:000000000000b46b .LASF762
C:\Users\CYMR90~1\AppData\Local\Temp\ccj5QhVO.s:27886  .debug_str:000000000001b68e .LASF765
C:\Users\CYMR90~1\AppData\Local\Temp\ccj5QhVO.s:26559  .debug_str:0000000000015e37 .LASF766
C:\Users\CYMR90~1\AppData\Local\Temp\ccj5QhVO.s:29550  .debug_str:0000000000021e80 .LASF767
C:\Users\CYMR90~1\AppData\Local\Temp\ccj5QhVO.s:26549  .debug_str:0000000000015dc7 .LASF768
C:\Users\CYMR90~1\AppData\Local\Temp\ccj5QhVO.s:21753  .debug_str:0000000000002971 .LASF769
C:\Users\CYMR90~1\AppData\Local\Temp\ccj5QhVO.s:28008  .debug_str:000000000001bdd0 .LASF770
C:\Users\CYMR90~1\AppData\Local\Temp\ccj5QhVO.s:26643  .debug_str:00000000000163c6 .LASF771
C:\Users\CYMR90~1\AppData\Local\Temp\ccj5QhVO.s:30218  .debug_str:0000000000024789 .LASF772
C:\Users\CYMR90~1\AppData\Local\Temp\ccj5QhVO.s:29844  .debug_str:0000000000023051 .LASF773
C:\Users\CYMR90~1\AppData\Local\Temp\ccj5QhVO.s:24643  .debug_str:000000000000e471 .LASF774
C:\Users\CYMR90~1\AppData\Local\Temp\ccj5QhVO.s:30552  .debug_str:0000000000025eec .LASF775
C:\Users\CYMR90~1\AppData\Local\Temp\ccj5QhVO.s:23623  .debug_str:000000000000a1ae .LASF776
C:\Users\CYMR90~1\AppData\Local\Temp\ccj5QhVO.s:23639  .debug_str:000000000000a2b2 .LASF777
C:\Users\CYMR90~1\AppData\Local\Temp\ccj5QhVO.s:28658  .debug_str:000000000001e834 .LASF778
C:\Users\CYMR90~1\AppData\Local\Temp\ccj5QhVO.s:25143  .debug_str:0000000000010374 .LASF779
C:\Users\CYMR90~1\AppData\Local\Temp\ccj5QhVO.s:28910  .debug_str:000000000001f72b .LASF780
C:\Users\CYMR90~1\AppData\Local\Temp\ccj5QhVO.s:29546  .debug_str:0000000000021e67 .LASF781
C:\Users\CYMR90~1\AppData\Local\Temp\ccj5QhVO.s:25639  .debug_str:0000000000012439 .LASF782
C:\Users\CYMR90~1\AppData\Local\Temp\ccj5QhVO.s:26771  .debug_str:0000000000016cce .LASF783
C:\Users\CYMR90~1\AppData\Local\Temp\ccj5QhVO.s:25537  .debug_str:0000000000011d8f .LASF784
C:\Users\CYMR90~1\AppData\Local\Temp\ccj5QhVO.s:24821  .debug_str:000000000000ef62 .LASF785
C:\Users\CYMR90~1\AppData\Local\Temp\ccj5QhVO.s:29916  .debug_str:000000000002341d .LASF786
C:\Users\CYMR90~1\AppData\Local\Temp\ccj5QhVO.s:26275  .debug_str:0000000000014ca6 .LASF787
C:\Users\CYMR90~1\AppData\Local\Temp\ccj5QhVO.s:28592  .debug_str:000000000001e43f .LASF788
C:\Users\CYMR90~1\AppData\Local\Temp\ccj5QhVO.s:25001  .debug_str:000000000000faaf .LASF789
C:\Users\CYMR90~1\AppData\Local\Temp\ccj5QhVO.s:22439  .debug_str:00000000000055ae .LASF790
C:\Users\CYMR90~1\AppData\Local\Temp\ccj5QhVO.s:30908  .debug_str:00000000000274ef .LASF791
C:\Users\CYMR90~1\AppData\Local\Temp\ccj5QhVO.s:23205  .debug_str:00000000000086e2 .LASF792
C:\Users\CYMR90~1\AppData\Local\Temp\ccj5QhVO.s:32306  .debug_str:000000000002cce6 .LASF793
C:\Users\CYMR90~1\AppData\Local\Temp\ccj5QhVO.s:22995  .debug_str:000000000000785d .LASF794
C:\Users\CYMR90~1\AppData\Local\Temp\ccj5QhVO.s:31160  .debug_str:00000000000285a8 .LASF795
C:\Users\CYMR90~1\AppData\Local\Temp\ccj5QhVO.s:29154  .debug_str:00000000000205cd .LASF796
C:\Users\CYMR90~1\AppData\Local\Temp\ccj5QhVO.s:31876  .debug_str:000000000002b09c .LASF797
C:\Users\CYMR90~1\AppData\Local\Temp\ccj5QhVO.s:22823  .debug_str:0000000000006cdf .LASF798
C:\Users\CYMR90~1\AppData\Local\Temp\ccj5QhVO.s:31222  .debug_str:00000000000289f5 .LASF799
C:\Users\CYMR90~1\AppData\Local\Temp\ccj5QhVO.s:22405  .debug_str:00000000000053b3 .LASF800
C:\Users\CYMR90~1\AppData\Local\Temp\ccj5QhVO.s:27644  .debug_str:000000000001a6e4 .LASF801
C:\Users\CYMR90~1\AppData\Local\Temp\ccj5QhVO.s:27676  .debug_str:000000000001a8b4 .LASF802
C:\Users\CYMR90~1\AppData\Local\Temp\ccj5QhVO.s:23541  .debug_str:0000000000009c49 .LASF803
C:\Users\CYMR90~1\AppData\Local\Temp\ccj5QhVO.s:26039  .debug_str:0000000000013e58 .LASF804
C:\Users\CYMR90~1\AppData\Local\Temp\ccj5QhVO.s:22837  .debug_str:0000000000006da6 .LASF805
C:\Users\CYMR90~1\AppData\Local\Temp\ccj5QhVO.s:25491  .debug_str:0000000000011a01 .LASF806
C:\Users\CYMR90~1\AppData\Local\Temp\ccj5QhVO.s:28614  .debug_str:000000000001e555 .LASF807
C:\Users\CYMR90~1\AppData\Local\Temp\ccj5QhVO.s:28204  .debug_str:000000000001ca70 .LASF808
C:\Users\CYMR90~1\AppData\Local\Temp\ccj5QhVO.s:30618  .debug_str:0000000000026305 .LASF809
C:\Users\CYMR90~1\AppData\Local\Temp\ccj5QhVO.s:32080  .debug_str:000000000002bdc5 .LASF810
C:\Users\CYMR90~1\AppData\Local\Temp\ccj5QhVO.s:23229  .debug_str:0000000000008864 .LASF811
C:\Users\CYMR90~1\AppData\Local\Temp\ccj5QhVO.s:22137  .debug_str:000000000000429a .LASF812
C:\Users\CYMR90~1\AppData\Local\Temp\ccj5QhVO.s:32112  .debug_str:000000000002c061 .LASF813
C:\Users\CYMR90~1\AppData\Local\Temp\ccj5QhVO.s:22505  .debug_str:00000000000059b7 .LASF814
C:\Users\CYMR90~1\AppData\Local\Temp\ccj5QhVO.s:22733  .debug_str:00000000000066f3 .LASF815
C:\Users\CYMR90~1\AppData\Local\Temp\ccj5QhVO.s:27978  .debug_str:000000000001bbd9 .LASF816
C:\Users\CYMR90~1\AppData\Local\Temp\ccj5QhVO.s:23405  .debug_str:0000000000009376 .LASF817
C:\Users\CYMR90~1\AppData\Local\Temp\ccj5QhVO.s:28118  .debug_str:000000000001c4c7 .LASF818
C:\Users\CYMR90~1\AppData\Local\Temp\ccj5QhVO.s:28012  .debug_str:000000000001bde8 .LASF819
C:\Users\CYMR90~1\AppData\Local\Temp\ccj5QhVO.s:21251  .debug_str:0000000000000ad5 .LASF820
C:\Users\CYMR90~1\AppData\Local\Temp\ccj5QhVO.s:31708  .debug_str:000000000002a643 .LASF821
C:\Users\CYMR90~1\AppData\Local\Temp\ccj5QhVO.s:30214  .debug_str:0000000000024759 .LASF822
C:\Users\CYMR90~1\AppData\Local\Temp\ccj5QhVO.s:23371  .debug_str:0000000000009158 .LASF823
C:\Users\CYMR90~1\AppData\Local\Temp\ccj5QhVO.s:26693  .debug_str:0000000000016729 .LASF824
C:\Users\CYMR90~1\AppData\Local\Temp\ccj5QhVO.s:28308  .debug_str:000000000001d256 .LASF825
C:\Users\CYMR90~1\AppData\Local\Temp\ccj5QhVO.s:26483  .debug_str:000000000001596d .LASF826
C:\Users\CYMR90~1\AppData\Local\Temp\ccj5QhVO.s:22025  .debug_str:0000000000003b13 .LASF827
C:\Users\CYMR90~1\AppData\Local\Temp\ccj5QhVO.s:24801  .debug_str:000000000000ee55 .LASF828
C:\Users\CYMR90~1\AppData\Local\Temp\ccj5QhVO.s:23549  .debug_str:0000000000009cac .LASF829
C:\Users\CYMR90~1\AppData\Local\Temp\ccj5QhVO.s:30492  .debug_str:0000000000025b18 .LASF830
C:\Users\CYMR90~1\AppData\Local\Temp\ccj5QhVO.s:23989  .debug_str:000000000000ba3c .LASF831
C:\Users\CYMR90~1\AppData\Local\Temp\ccj5QhVO.s:24747  .debug_str:000000000000eb33 .LASF832
C:\Users\CYMR90~1\AppData\Local\Temp\ccj5QhVO.s:22589  .debug_str:0000000000005e70 .LASF833
C:\Users\CYMR90~1\AppData\Local\Temp\ccj5QhVO.s:25391  .debug_str:000000000001131c .LASF834
C:\Users\CYMR90~1\AppData\Local\Temp\ccj5QhVO.s:27162  .debug_str:0000000000018621 .LASF835
C:\Users\CYMR90~1\AppData\Local\Temp\ccj5QhVO.s:25297  .debug_str:0000000000010d81 .LASF836
C:\Users\CYMR90~1\AppData\Local\Temp\ccj5QhVO.s:29062  .debug_str:000000000002007a .LASF837
C:\Users\CYMR90~1\AppData\Local\Temp\ccj5QhVO.s:23275  .debug_str:0000000000008b7e .LASF838
C:\Users\CYMR90~1\AppData\Local\Temp\ccj5QhVO.s:22427  .debug_str:000000000000550f .LASF839
C:\Users\CYMR90~1\AppData\Local\Temp\ccj5QhVO.s:25189  .debug_str:000000000001061b .LASF840
C:\Users\CYMR90~1\AppData\Local\Temp\ccj5QhVO.s:23861  .debug_str:000000000000b201 .LASF841
C:\Users\CYMR90~1\AppData\Local\Temp\ccj5QhVO.s:28220  .debug_str:000000000001cb86 .LASF842
C:\Users\CYMR90~1\AppData\Local\Temp\ccj5QhVO.s:21321  .debug_str:0000000000000f6c .LASF843
C:\Users\CYMR90~1\AppData\Local\Temp\ccj5QhVO.s:21689  .debug_str:0000000000002521 .LASF844
C:\Users\CYMR90~1\AppData\Local\Temp\ccj5QhVO.s:30072  .debug_str:0000000000023dde .LASF845
C:\Users\CYMR90~1\AppData\Local\Temp\ccj5QhVO.s:21083  .debug_str:00000000000000b4 .LASF846
C:\Users\CYMR90~1\AppData\Local\Temp\ccj5QhVO.s:23077  .debug_str:0000000000007e41 .LASF847
C:\Users\CYMR90~1\AppData\Local\Temp\ccj5QhVO.s:28916  .debug_str:000000000001f779 .LASF848
C:\Users\CYMR90~1\AppData\Local\Temp\ccj5QhVO.s:23045  .debug_str:0000000000007bab .LASF849
C:\Users\CYMR90~1\AppData\Local\Temp\ccj5QhVO.s:24411  .debug_str:000000000000d6d1 .LASF852
C:\Users\CYMR90~1\AppData\Local\Temp\ccj5QhVO.s:29846  .debug_str:000000000002305f .LASF853
C:\Users\CYMR90~1\AppData\Local\Temp\ccj5QhVO.s:26335  .debug_str:00000000000150dd .LASF854
C:\Users\CYMR90~1\AppData\Local\Temp\ccj5QhVO.s:29556  .debug_str:0000000000021f15 .LASF856
C:\Users\CYMR90~1\AppData\Local\Temp\ccj5QhVO.s:28444  .debug_str:000000000001dafa .LASF857
C:\Users\CYMR90~1\AppData\Local\Temp\ccj5QhVO.s:31096  .debug_str:00000000000280a3 .LASF858
C:\Users\CYMR90~1\AppData\Local\Temp\ccj5QhVO.s:24399  .debug_str:000000000000d5f7 .LASF859
C:\Users\CYMR90~1\AppData\Local\Temp\ccj5QhVO.s:25345  .debug_str:0000000000011073 .LASF860
C:\Users\CYMR90~1\AppData\Local\Temp\ccj5QhVO.s:29488  .debug_str:0000000000021aa5 .LASF861
C:\Users\CYMR90~1\AppData\Local\Temp\ccj5QhVO.s:26045  .debug_str:0000000000013ed0 .LASF862
C:\Users\CYMR90~1\AppData\Local\Temp\ccj5QhVO.s:21419  .debug_str:00000000000014cc .LASF863
C:\Users\CYMR90~1\AppData\Local\Temp\ccj5QhVO.s:22083  .debug_str:0000000000003e8c .LASF864
C:\Users\CYMR90~1\AppData\Local\Temp\ccj5QhVO.s:22477  .debug_str:0000000000005810 .LASF865
C:\Users\CYMR90~1\AppData\Local\Temp\ccj5QhVO.s:23673  .debug_str:000000000000a4ee .LASF866
C:\Users\CYMR90~1\AppData\Local\Temp\ccj5QhVO.s:23145  .debug_str:000000000000833f .LASF867
C:\Users\CYMR90~1\AppData\Local\Temp\ccj5QhVO.s:28374  .debug_str:000000000001d642 .LASF868
C:\Users\CYMR90~1\AppData\Local\Temp\ccj5QhVO.s:29002  .debug_str:000000000001fcc0 .LASF869
C:\Users\CYMR90~1\AppData\Local\Temp\ccj5QhVO.s:30088  .debug_str:0000000000023ec9 .LASF870
C:\Users\CYMR90~1\AppData\Local\Temp\ccj5QhVO.s:23313  .debug_str:0000000000008e11 .LASF871
C:\Users\CYMR90~1\AppData\Local\Temp\ccj5QhVO.s:23749  .debug_str:000000000000aa39 .LASF872
C:\Users\CYMR90~1\AppData\Local\Temp\ccj5QhVO.s:28212  .debug_str:000000000001cb14 .LASF873
C:\Users\CYMR90~1\AppData\Local\Temp\ccj5QhVO.s:30790  .debug_str:0000000000026d3c .LASF874
C:\Users\CYMR90~1\AppData\Local\Temp\ccj5QhVO.s:25557  .debug_str:0000000000011ea7 .LASF875
C:\Users\CYMR90~1\AppData\Local\Temp\ccj5QhVO.s:26241  .debug_str:0000000000014a9d .LASF876
C:\Users\CYMR90~1\AppData\Local\Temp\ccj5QhVO.s:23547  .debug_str:0000000000009c9e .LASF877
C:\Users\CYMR90~1\AppData\Local\Temp\ccj5QhVO.s:27918  .debug_str:000000000001b87b .LASF878
C:\Users\CYMR90~1\AppData\Local\Temp\ccj5QhVO.s:31560  .debug_str:0000000000029dfe .LASF879
C:\Users\CYMR90~1\AppData\Local\Temp\ccj5QhVO.s:26882  .debug_str:00000000000174f6 .LASF880
C:\Users\CYMR90~1\AppData\Local\Temp\ccj5QhVO.s:22407  .debug_str:00000000000053cc .LASF881
C:\Users\CYMR90~1\AppData\Local\Temp\ccj5QhVO.s:25779  .debug_str:0000000000012d5b .LASF882
C:\Users\CYMR90~1\AppData\Local\Temp\ccj5QhVO.s:28890  .debug_str:000000000001f622 .LASF883
C:\Users\CYMR90~1\AppData\Local\Temp\ccj5QhVO.s:29074  .debug_str:0000000000020117 .LASF884
C:\Users\CYMR90~1\AppData\Local\Temp\ccj5QhVO.s:24693  .debug_str:000000000000e7ca .LASF885
C:\Users\CYMR90~1\AppData\Local\Temp\ccj5QhVO.s:27924  .debug_str:000000000001b8d3 .LASF886
C:\Users\CYMR90~1\AppData\Local\Temp\ccj5QhVO.s:23417  .debug_str:000000000000941d .LASF887
C:\Users\CYMR90~1\AppData\Local\Temp\ccj5QhVO.s:30036  .debug_str:0000000000023bda .LASF888
C:\Users\CYMR90~1\AppData\Local\Temp\ccj5QhVO.s:25717  .debug_str:000000000001291c .LASF889
C:\Users\CYMR90~1\AppData\Local\Temp\ccj5QhVO.s:29966  .debug_str:0000000000023721 .LASF890
C:\Users\CYMR90~1\AppData\Local\Temp\ccj5QhVO.s:22229  .debug_str:0000000000004917 .LASF891
C:\Users\CYMR90~1\AppData\Local\Temp\ccj5QhVO.s:24695  .debug_str:000000000000e7e4 .LASF892
C:\Users\CYMR90~1\AppData\Local\Temp\ccj5QhVO.s:30736  .debug_str:0000000000026a18 .LASF893
C:\Users\CYMR90~1\AppData\Local\Temp\ccj5QhVO.s:30130  .debug_str:0000000000024120 .LASF894
C:\Users\CYMR90~1\AppData\Local\Temp\ccj5QhVO.s:21389  .debug_str:0000000000001301 .LASF895
C:\Users\CYMR90~1\AppData\Local\Temp\ccj5QhVO.s:26101  .debug_str:00000000000141f6 .LASF896
C:\Users\CYMR90~1\AppData\Local\Temp\ccj5QhVO.s:22319  .debug_str:0000000000004e8c .LASF897
C:\Users\CYMR90~1\AppData\Local\Temp\ccj5QhVO.s:23537  .debug_str:0000000000009c0a .LASF898
C:\Users\CYMR90~1\AppData\Local\Temp\ccj5QhVO.s:31036  .debug_str:0000000000027cbe .LASF899
C:\Users\CYMR90~1\AppData\Local\Temp\ccj5QhVO.s:23863  .debug_str:000000000000b216 .LASF900
C:\Users\CYMR90~1\AppData\Local\Temp\ccj5QhVO.s:27968  .debug_str:000000000001bb2e .LASF901
C:\Users\CYMR90~1\AppData\Local\Temp\ccj5QhVO.s:31574  .debug_str:0000000000029ece .LASF902
C:\Users\CYMR90~1\AppData\Local\Temp\ccj5QhVO.s:30320  .debug_str:0000000000024e49 .LASF903
C:\Users\CYMR90~1\AppData\Local\Temp\ccj5QhVO.s:31182  .debug_str:0000000000028702 .LASF904
C:\Users\CYMR90~1\AppData\Local\Temp\ccj5QhVO.s:25763  .debug_str:0000000000012c4d .LASF905
C:\Users\CYMR90~1\AppData\Local\Temp\ccj5QhVO.s:23193  .debug_str:0000000000008648 .LASF906
C:\Users\CYMR90~1\AppData\Local\Temp\ccj5QhVO.s:31752  .debug_str:000000000002a953 .LASF907
C:\Users\CYMR90~1\AppData\Local\Temp\ccj5QhVO.s:24689  .debug_str:000000000000e787 .LASF908
C:\Users\CYMR90~1\AppData\Local\Temp\ccj5QhVO.s:31012  .debug_str:0000000000027afe .LASF909
C:\Users\CYMR90~1\AppData\Local\Temp\ccj5QhVO.s:25317  .debug_str:0000000000010f05 .LASF910
C:\Users\CYMR90~1\AppData\Local\Temp\ccj5QhVO.s:21783  .debug_str:0000000000002b7c .LASF911
C:\Users\CYMR90~1\AppData\Local\Temp\ccj5QhVO.s:21361  .debug_str:00000000000011a0 .LASF912
C:\Users\CYMR90~1\AppData\Local\Temp\ccj5QhVO.s:29408  .debug_str:00000000000215c7 .LASF913
C:\Users\CYMR90~1\AppData\Local\Temp\ccj5QhVO.s:30300  .debug_str:0000000000024d00 .LASF914
C:\Users\CYMR90~1\AppData\Local\Temp\ccj5QhVO.s:24249  .debug_str:000000000000cbf0 .LASF915
C:\Users\CYMR90~1\AppData\Local\Temp\ccj5QhVO.s:24555  .debug_str:000000000000df4a .LASF916
C:\Users\CYMR90~1\AppData\Local\Temp\ccj5QhVO.s:25125  .debug_str:0000000000010254 .LASF917
C:\Users\CYMR90~1\AppData\Local\Temp\ccj5QhVO.s:31826  .debug_str:000000000002ad74 .LASF918
C:\Users\CYMR90~1\AppData\Local\Temp\ccj5QhVO.s:21347  .debug_str:00000000000010c3 .LASF919
C:\Users\CYMR90~1\AppData\Local\Temp\ccj5QhVO.s:23849  .debug_str:000000000000b128 .LASF920
C:\Users\CYMR90~1\AppData\Local\Temp\ccj5QhVO.s:30254  .debug_str:00000000000249a9 .LASF921
C:\Users\CYMR90~1\AppData\Local\Temp\ccj5QhVO.s:27670  .debug_str:000000000001a842 .LASF922
C:\Users\CYMR90~1\AppData\Local\Temp\ccj5QhVO.s:30770  .debug_str:0000000000026c0d .LASF923
C:\Users\CYMR90~1\AppData\Local\Temp\ccj5QhVO.s:26810  .debug_str:00000000000170d5 .LASF924
C:\Users\CYMR90~1\AppData\Local\Temp\ccj5QhVO.s:21743  .debug_str:00000000000028c2 .LASF925
C:\Users\CYMR90~1\AppData\Local\Temp\ccj5QhVO.s:27880  .debug_str:000000000001b634 .LASF926
C:\Users\CYMR90~1\AppData\Local\Temp\ccj5QhVO.s:21461  .debug_str:00000000000017be .LASF927
C:\Users\CYMR90~1\AppData\Local\Temp\ccj5QhVO.s:26267  .debug_str:0000000000014c20 .LASF928
C:\Users\CYMR90~1\AppData\Local\Temp\ccj5QhVO.s:28950  .debug_str:000000000001f95c .LASF929
C:\Users\CYMR90~1\AppData\Local\Temp\ccj5QhVO.s:32078  .debug_str:000000000002bda8 .LASF930
C:\Users\CYMR90~1\AppData\Local\Temp\ccj5QhVO.s:32298  .debug_str:000000000002cc7a .LASF931
C:\Users\CYMR90~1\AppData\Local\Temp\ccj5QhVO.s:28848  .debug_str:000000000001f3a7 .LASF932
C:\Users\CYMR90~1\AppData\Local\Temp\ccj5QhVO.s:31554  .debug_str:0000000000029d8b .LASF933
C:\Users\CYMR90~1\AppData\Local\Temp\ccj5QhVO.s:26607  .debug_str:00000000000161a1 .LASF934
C:\Users\CYMR90~1\AppData\Local\Temp\ccj5QhVO.s:27436  .debug_str:000000000001980f .LASF935
C:\Users\CYMR90~1\AppData\Local\Temp\ccj5QhVO.s:26487  .debug_str:00000000000159a2 .LASF936
C:\Users\CYMR90~1\AppData\Local\Temp\ccj5QhVO.s:30394  .debug_str:0000000000025367 .LASF937
C:\Users\CYMR90~1\AppData\Local\Temp\ccj5QhVO.s:21269  .debug_str:0000000000000c08 .LASF938
C:\Users\CYMR90~1\AppData\Local\Temp\ccj5QhVO.s:29220  .debug_str:0000000000020a10 .LASF939
C:\Users\CYMR90~1\AppData\Local\Temp\ccj5QhVO.s:30476  .debug_str:000000000002599b .LASF940
C:\Users\CYMR90~1\AppData\Local\Temp\ccj5QhVO.s:23991  .debug_str:000000000000ba5a .LASF941
C:\Users\CYMR90~1\AppData\Local\Temp\ccj5QhVO.s:27658  .debug_str:000000000001a789 .LASF942
C:\Users\CYMR90~1\AppData\Local\Temp\ccj5QhVO.s:24735  .debug_str:000000000000ea41 .LASF943
C:\Users\CYMR90~1\AppData\Local\Temp\ccj5QhVO.s:30596  .debug_str:0000000000026196 .LASF944
C:\Users\CYMR90~1\AppData\Local\Temp\ccj5QhVO.s:28062  .debug_str:000000000001c161 .LASF945
C:\Users\CYMR90~1\AppData\Local\Temp\ccj5QhVO.s:24937  .debug_str:000000000000f65e .LASF946
C:\Users\CYMR90~1\AppData\Local\Temp\ccj5QhVO.s:26956  .debug_str:0000000000017969 .LASF947
C:\Users\CYMR90~1\AppData\Local\Temp\ccj5QhVO.s:28576  .debug_str:000000000001e359 .LASF948
C:\Users\CYMR90~1\AppData\Local\Temp\ccj5QhVO.s:25293  .debug_str:0000000000010d43 .LASF949
C:\Users\CYMR90~1\AppData\Local\Temp\ccj5QhVO.s:24305  .debug_str:000000000000cf3a .LASF950
C:\Users\CYMR90~1\AppData\Local\Temp\ccj5QhVO.s:22899  .debug_str:0000000000007210 .LASF952
C:\Users\CYMR90~1\AppData\Local\Temp\ccj5QhVO.s:26413  .debug_str:000000000001556b .LASF953
C:\Users\CYMR90~1\AppData\Local\Temp\ccj5QhVO.s:24339  .debug_str:000000000000d185 .LASF954
C:\Users\CYMR90~1\AppData\Local\Temp\ccj5QhVO.s:32290  .debug_str:000000000002cc05 .LASF955
C:\Users\CYMR90~1\AppData\Local\Temp\ccj5QhVO.s:31454  .debug_str:0000000000029780 .LASF956
C:\Users\CYMR90~1\AppData\Local\Temp\ccj5QhVO.s:31544  .debug_str:0000000000029cf5 .LASF960
C:\Users\CYMR90~1\AppData\Local\Temp\ccj5QhVO.s:23443  .debug_str:0000000000009609 .LASF961
C:\Users\CYMR90~1\AppData\Local\Temp\ccj5QhVO.s:30800  .debug_str:0000000000026dd2 .LASF962
C:\Users\CYMR90~1\AppData\Local\Temp\ccj5QhVO.s:25529  .debug_str:0000000000011d13 .LASF963
C:\Users\CYMR90~1\AppData\Local\Temp\ccj5QhVO.s:22925  .debug_str:00000000000073f7 .LASF964
C:\Users\CYMR90~1\AppData\Local\Temp\ccj5QhVO.s:29586  .debug_str:00000000000220bd .LASF965
C:\Users\CYMR90~1\AppData\Local\Temp\ccj5QhVO.s:27874  .debug_str:000000000001b5b9 .LASF966
C:\Users\CYMR90~1\AppData\Local\Temp\ccj5QhVO.s:30742  .debug_str:0000000000026a74 .LASF967
C:\Users\CYMR90~1\AppData\Local\Temp\ccj5QhVO.s:31870  .debug_str:000000000002b02e .LASF968
C:\Users\CYMR90~1\AppData\Local\Temp\ccj5QhVO.s:22649  .debug_str:00000000000061fb .LASF969
C:\Users\CYMR90~1\AppData\Local\Temp\ccj5QhVO.s:26141  .debug_str:00000000000144b6 .LASF970
C:\Users\CYMR90~1\AppData\Local\Temp\ccj5QhVO.s:31956  .debug_str:000000000002b5b3 .LASF971
C:\Users\CYMR90~1\AppData\Local\Temp\ccj5QhVO.s:24745  .debug_str:000000000000eb0d .LASF972
C:\Users\CYMR90~1\AppData\Local\Temp\ccj5QhVO.s:24715  .debug_str:000000000000e925 .LASF973
C:\Users\CYMR90~1\AppData\Local\Temp\ccj5QhVO.s:24363  .debug_str:000000000000d319 .LASF974
C:\Users\CYMR90~1\AppData\Local\Temp\ccj5QhVO.s:26743  .debug_str:0000000000016a33 .LASF975
C:\Users\CYMR90~1\AppData\Local\Temp\ccj5QhVO.s:32324  .debug_str:000000000002cdb9 .LASF976
C:\Users\CYMR90~1\AppData\Local\Temp\ccj5QhVO.s:24301  .debug_str:000000000000cef5 .LASF977
C:\Users\CYMR90~1\AppData\Local\Temp\ccj5QhVO.s:32352  .debug_str:000000000002d020 .LASF978
C:\Users\CYMR90~1\AppData\Local\Temp\ccj5QhVO.s:30578  .debug_str:000000000002605d .LASF979
C:\Users\CYMR90~1\AppData\Local\Temp\ccj5QhVO.s:30636  .debug_str:0000000000026419 .LASF980
C:\Users\CYMR90~1\AppData\Local\Temp\ccj5QhVO.s:24799  .debug_str:000000000000ee3b .LASF981
C:\Users\CYMR90~1\AppData\Local\Temp\ccj5QhVO.s:22355  .debug_str:00000000000050b1 .LASF982
C:\Users\CYMR90~1\AppData\Local\Temp\ccj5QhVO.s:25553  .debug_str:0000000000011e8a .LASF983
C:\Users\CYMR90~1\AppData\Local\Temp\ccj5QhVO.s:28284  .debug_str:000000000001d032 .LASF984
C:\Users\CYMR90~1\AppData\Local\Temp\ccj5QhVO.s:28300  .debug_str:000000000001d144 .LASF985
C:\Users\CYMR90~1\AppData\Local\Temp\ccj5QhVO.s:29878  .debug_str:0000000000023228 .LASF986
C:\Users\CYMR90~1\AppData\Local\Temp\ccj5QhVO.s:26555  .debug_str:0000000000015e13 .LASF987
C:\Users\CYMR90~1\AppData\Local\Temp\ccj5QhVO.s:21801  .debug_str:0000000000002c8f .LASF988
C:\Users\CYMR90~1\AppData\Local\Temp\ccj5QhVO.s:29790  .debug_str:0000000000022d4e .LASF989
C:\Users\CYMR90~1\AppData\Local\Temp\ccj5QhVO.s:27254  .debug_str:0000000000018ba3 .LASF990
C:\Users\CYMR90~1\AppData\Local\Temp\ccj5QhVO.s:24297  .debug_str:000000000000cecd .LASF991
C:\Users\CYMR90~1\AppData\Local\Temp\ccj5QhVO.s:30744  .debug_str:0000000000026a9c .LASF992
C:\Users\CYMR90~1\AppData\Local\Temp\ccj5QhVO.s:22943  .debug_str:0000000000007506 .LASF993
C:\Users\CYMR90~1\AppData\Local\Temp\ccj5QhVO.s:30562  .debug_str:0000000000025f56 .LASF994
C:\Users\CYMR90~1\AppData\Local\Temp\ccj5QhVO.s:27338  .debug_str:0000000000019261 .LASF995
C:\Users\CYMR90~1\AppData\Local\Temp\ccj5QhVO.s:31360  .debug_str:000000000002923d .LASF996
C:\Users\CYMR90~1\AppData\Local\Temp\ccj5QhVO.s:28484  .debug_str:000000000001dd35 .LASF997
C:\Users\CYMR90~1\AppData\Local\Temp\ccj5QhVO.s:28556  .debug_str:000000000001e206 .LASF998
C:\Users\CYMR90~1\AppData\Local\Temp\ccj5QhVO.s:21701  .debug_str:00000000000025b5 .LASF999
C:\Users\CYMR90~1\AppData\Local\Temp\ccj5QhVO.s:22031  .debug_str:0000000000003b6b .LASF1000
C:\Users\CYMR90~1\AppData\Local\Temp\ccj5QhVO.s:30230  .debug_str:0000000000024849 .LASF1001
C:\Users\CYMR90~1\AppData\Local\Temp\ccj5QhVO.s:25133  .debug_str:00000000000102dc .LASF1002
C:\Users\CYMR90~1\AppData\Local\Temp\ccj5QhVO.s:22311  .debug_str:0000000000004e33 .LASF1003
C:\Users\CYMR90~1\AppData\Local\Temp\ccj5QhVO.s:28102  .debug_str:000000000001c3d3 .LASF1004
C:\Users\CYMR90~1\AppData\Local\Temp\ccj5QhVO.s:25507  .debug_str:0000000000011b2e .LASF1005
C:\Users\CYMR90~1\AppData\Local\Temp\ccj5QhVO.s:24265  .debug_str:000000000000cd13 .LASF1006
C:\Users\CYMR90~1\AppData\Local\Temp\ccj5QhVO.s:22623  .debug_str:000000000000608e .LASF1007
C:\Users\CYMR90~1\AppData\Local\Temp\ccj5QhVO.s:29582  .debug_str:0000000000022085 .LASF1008
C:\Users\CYMR90~1\AppData\Local\Temp\ccj5QhVO.s:27032  .debug_str:0000000000017e3c .LASF1009
C:\Users\CYMR90~1\AppData\Local\Temp\ccj5QhVO.s:27186  .debug_str:0000000000018776 .LASF1010
C:\Users\CYMR90~1\AppData\Local\Temp\ccj5QhVO.s:24573  .debug_str:000000000000e071 .LASF1011
C:\Users\CYMR90~1\AppData\Local\Temp\ccj5QhVO.s:28344  .debug_str:000000000001d481 .LASF1012
C:\Users\CYMR90~1\AppData\Local\Temp\ccj5QhVO.s:24761  .debug_str:000000000000ec00 .LASF1013
C:\Users\CYMR90~1\AppData\Local\Temp\ccj5QhVO.s:27454  .debug_str:0000000000019999 .LASF1014
C:\Users\CYMR90~1\AppData\Local\Temp\ccj5QhVO.s:22029  .debug_str:0000000000003b55 .LASF1015
C:\Users\CYMR90~1\AppData\Local\Temp\ccj5QhVO.s:22513  .debug_str:0000000000005a14 .LASF1016
C:\Users\CYMR90~1\AppData\Local\Temp\ccj5QhVO.s:22465  .debug_str:0000000000005753 .LASF1017
C:\Users\CYMR90~1\AppData\Local\Temp\ccj5QhVO.s:30898  .debug_str:00000000000273af .LASF1018
C:\Users\CYMR90~1\AppData\Local\Temp\ccj5QhVO.s:24809  .debug_str:000000000000eebd .LASF1019
C:\Users\CYMR90~1\AppData\Local\Temp\ccj5QhVO.s:21695  .debug_str:000000000000256c .LASF1020
C:\Users\CYMR90~1\AppData\Local\Temp\ccj5QhVO.s:27070  .debug_str:000000000001808e .LASF1021
C:\Users\CYMR90~1\AppData\Local\Temp\ccj5QhVO.s:24119  .debug_str:000000000000c351 .LASF1022
C:\Users\CYMR90~1\AppData\Local\Temp\ccj5QhVO.s:30820  .debug_str:0000000000026ef0 .LASF1023
C:\Users\CYMR90~1\AppData\Local\Temp\ccj5QhVO.s:23351  .debug_str:0000000000009058 .LASF1024
C:\Users\CYMR90~1\AppData\Local\Temp\ccj5QhVO.s:27646  .debug_str:000000000001a6fe .LASF1025
C:\Users\CYMR90~1\AppData\Local\Temp\ccj5QhVO.s:25321  .debug_str:0000000000010f46 .LASF1026
C:\Users\CYMR90~1\AppData\Local\Temp\ccj5QhVO.s:26259  .debug_str:0000000000014b6c .LASF1027
C:\Users\CYMR90~1\AppData\Local\Temp\ccj5QhVO.s:28424  .debug_str:000000000001d998 .LASF1028
C:\Users\CYMR90~1\AppData\Local\Temp\ccj5QhVO.s:28808  .debug_str:000000000001f117 .LASF1029
C:\Users\CYMR90~1\AppData\Local\Temp\ccj5QhVO.s:30106  .debug_str:0000000000023fde .LASF1030
C:\Users\CYMR90~1\AppData\Local\Temp\ccj5QhVO.s:29174  .debug_str:000000000002077b .LASF1031
C:\Users\CYMR90~1\AppData\Local\Temp\ccj5QhVO.s:31456  .debug_str:00000000000297e8 .LASF1032
C:\Users\CYMR90~1\AppData\Local\Temp\ccj5QhVO.s:23497  .debug_str:0000000000009986 .LASF1033
C:\Users\CYMR90~1\AppData\Local\Temp\ccj5QhVO.s:22363  .debug_str:0000000000005133 .LASF1034
C:\Users\CYMR90~1\AppData\Local\Temp\ccj5QhVO.s:27382  .debug_str:00000000000194e8 .LASF1035
C:\Users\CYMR90~1\AppData\Local\Temp\ccj5QhVO.s:27648  .debug_str:000000000001a713 .LASF1036
C:\Users\CYMR90~1\AppData\Local\Temp\ccj5QhVO.s:29892  .debug_str:00000000000232bf .LASF1037
C:\Users\CYMR90~1\AppData\Local\Temp\ccj5QhVO.s:24979  .debug_str:000000000000f98d .LASF1038
C:\Users\CYMR90~1\AppData\Local\Temp\ccj5QhVO.s:28526  .debug_str:000000000001e059 .LASF1039
C:\Users\CYMR90~1\AppData\Local\Temp\ccj5QhVO.s:26427  .debug_str:000000000001566b .LASF1040
C:\Users\CYMR90~1\AppData\Local\Temp\ccj5QhVO.s:24885  .debug_str:000000000000f33b .LASF1041
C:\Users\CYMR90~1\AppData\Local\Temp\ccj5QhVO.s:30628  .debug_str:00000000000263a2 .LASF1042
C:\Users\CYMR90~1\AppData\Local\Temp\ccj5QhVO.s:25135  .debug_str:00000000000102f3 .LASF1043
C:\Users\CYMR90~1\AppData\Local\Temp\ccj5QhVO.s:21101  .debug_str:00000000000001ad .LASF1044
C:\Users\CYMR90~1\AppData\Local\Temp\ccj5QhVO.s:23363  .debug_str:00000000000090ea .LASF1045
C:\Users\CYMR90~1\AppData\Local\Temp\ccj5QhVO.s:27576  .debug_str:000000000001a17a .LASF1046
C:\Users\CYMR90~1\AppData\Local\Temp\ccj5QhVO.s:26675  .debug_str:000000000001659b .LASF1047
C:\Users\CYMR90~1\AppData\Local\Temp\ccj5QhVO.s:29938  .debug_str:000000000002355d .LASF1048
C:\Users\CYMR90~1\AppData\Local\Temp\ccj5QhVO.s:28774  .debug_str:000000000001ef1c .LASF1049
C:\Users\CYMR90~1\AppData\Local\Temp\ccj5QhVO.s:21877  .debug_str:000000000000317b .LASF1050
C:\Users\CYMR90~1\AppData\Local\Temp\ccj5QhVO.s:28784  .debug_str:000000000001efa7 .LASF1051
C:\Users\CYMR90~1\AppData\Local\Temp\ccj5QhVO.s:28984  .debug_str:000000000001fb9b .LASF1052
C:\Users\CYMR90~1\AppData\Local\Temp\ccj5QhVO.s:28166  .debug_str:000000000001c75d .LASF1053
C:\Users\CYMR90~1\AppData\Local\Temp\ccj5QhVO.s:29834  .debug_str:0000000000022fc8 .LASF1054
C:\Users\CYMR90~1\AppData\Local\Temp\ccj5QhVO.s:25805  .debug_str:0000000000012ef1 .LASF1055
C:\Users\CYMR90~1\AppData\Local\Temp\ccj5QhVO.s:24741  .debug_str:000000000000eabb .LASF1056
C:\Users\CYMR90~1\AppData\Local\Temp\ccj5QhVO.s:31074  .debug_str:0000000000027f56 .LASF1057
C:\Users\CYMR90~1\AppData\Local\Temp\ccj5QhVO.s:31670  .debug_str:000000000002a3e5 .LASF1058
C:\Users\CYMR90~1\AppData\Local\Temp\ccj5QhVO.s:30392  .debug_str:0000000000025345 .LASF1059
C:\Users\CYMR90~1\AppData\Local\Temp\ccj5QhVO.s:23689  .debug_str:000000000000a5e5 .LASF1060
C:\Users\CYMR90~1\AppData\Local\Temp\ccj5QhVO.s:23171  .debug_str:00000000000084f1 .LASF1061
C:\Users\CYMR90~1\AppData\Local\Temp\ccj5QhVO.s:21233  .debug_str:000000000000096d .LASF1062
C:\Users\CYMR90~1\AppData\Local\Temp\ccj5QhVO.s:26179  .debug_str:00000000000146b8 .LASF1063
C:\Users\CYMR90~1\AppData\Local\Temp\ccj5QhVO.s:22081  .debug_str:0000000000003e75 .LASF1064
C:\Users\CYMR90~1\AppData\Local\Temp\ccj5QhVO.s:21171  .debug_str:00000000000005b0 .LASF1065
C:\Users\CYMR90~1\AppData\Local\Temp\ccj5QhVO.s:32358  .debug_str:000000000002d069 .LASF1066
C:\Users\CYMR90~1\AppData\Local\Temp\ccj5QhVO.s:30232  .debug_str:0000000000024861 .LASF1067
C:\Users\CYMR90~1\AppData\Local\Temp\ccj5QhVO.s:26741  .debug_str:0000000000016a19 .LASF1068
C:\Users\CYMR90~1\AppData\Local\Temp\ccj5QhVO.s:28316  .debug_str:000000000001d2ba .LASF1069
C:\Users\CYMR90~1\AppData\Local\Temp\ccj5QhVO.s:21287  .debug_str:0000000000000cfd .LASF1070
C:\Users\CYMR90~1\AppData\Local\Temp\ccj5QhVO.s:23629  .debug_str:000000000000a202 .LASF1071
C:\Users\CYMR90~1\AppData\Local\Temp\ccj5QhVO.s:29734  .debug_str:0000000000022992 .LASF1072
C:\Users\CYMR90~1\AppData\Local\Temp\ccj5QhVO.s:28280  .debug_str:000000000001cff0 .LASF1073
C:\Users\CYMR90~1\AppData\Local\Temp\ccj5QhVO.s:31324  .debug_str:0000000000028fd3 .LASF1074
C:\Users\CYMR90~1\AppData\Local\Temp\ccj5QhVO.s:26890  .debug_str:0000000000017557 .LASF1075
C:\Users\CYMR90~1\AppData\Local\Temp\ccj5QhVO.s:21737  .debug_str:0000000000002872 .LASF1076
C:\Users\CYMR90~1\AppData\Local\Temp\ccj5QhVO.s:31758  .debug_str:000000000002a9a2 .LASF1077
C:\Users\CYMR90~1\AppData\Local\Temp\ccj5QhVO.s:22685  .debug_str:0000000000006434 .LASF1078
C:\Users\CYMR90~1\AppData\Local\Temp\ccj5QhVO.s:29218  .debug_str:00000000000209fe .LASF1079
C:\Users\CYMR90~1\AppData\Local\Temp\ccj5QhVO.s:29308  .debug_str:0000000000020f77 .LASF1080
C:\Users\CYMR90~1\AppData\Local\Temp\ccj5QhVO.s:28082  .debug_str:000000000001c2a4 .LASF1081
C:\Users\CYMR90~1\AppData\Local\Temp\ccj5QhVO.s:30928  .debug_str:0000000000027636 .LASF1082
C:\Users\CYMR90~1\AppData\Local\Temp\ccj5QhVO.s:26369  .debug_str:00000000000152f2 .LASF1083
C:\Users\CYMR90~1\AppData\Local\Temp\ccj5QhVO.s:29432  .debug_str:0000000000021765 .LASF1084
C:\Users\CYMR90~1\AppData\Local\Temp\ccj5QhVO.s:22385  .debug_str:0000000000005284 .LASF1085
C:\Users\CYMR90~1\AppData\Local\Temp\ccj5QhVO.s:21495  .debug_str:00000000000019e6 .LASF1086
C:\Users\CYMR90~1\AppData\Local\Temp\ccj5QhVO.s:24617  .debug_str:000000000000e2d5 .LASF1087
C:\Users\CYMR90~1\AppData\Local\Temp\ccj5QhVO.s:30634  .debug_str:000000000002640a .LASF1088
C:\Users\CYMR90~1\AppData\Local\Temp\ccj5QhVO.s:29728  .debug_str:000000000002293a .LASF1089
C:\Users\CYMR90~1\AppData\Local\Temp\ccj5QhVO.s:21341  .debug_str:0000000000001067 .LASF1090
C:\Users\CYMR90~1\AppData\Local\Temp\ccj5QhVO.s:32286  .debug_str:000000000002cbad .LASF1091
C:\Users\CYMR90~1\AppData\Local\Temp\ccj5QhVO.s:31034  .debug_str:0000000000027ca6 .LASF1092
C:\Users\CYMR90~1\AppData\Local\Temp\ccj5QhVO.s:24959  .debug_str:000000000000f797 .LASF1093
C:\Users\CYMR90~1\AppData\Local\Temp\ccj5QhVO.s:30678  .debug_str:000000000002666f .LASF1094
C:\Users\CYMR90~1\AppData\Local\Temp\ccj5QhVO.s:26443  .debug_str:0000000000015728 .LASF1095
C:\Users\CYMR90~1\AppData\Local\Temp\ccj5QhVO.s:27898  .debug_str:000000000001b734 .LASF1096
C:\Users\CYMR90~1\AppData\Local\Temp\ccj5QhVO.s:28428  .debug_str:000000000001d9ea .LASF1097
C:\Users\CYMR90~1\AppData\Local\Temp\ccj5QhVO.s:22673  .debug_str:000000000000638f .LASF1098
C:\Users\CYMR90~1\AppData\Local\Temp\ccj5QhVO.s:25825  .debug_str:000000000001302a .LASF1099
C:\Users\CYMR90~1\AppData\Local\Temp\ccj5QhVO.s:25129  .debug_str:00000000000102ab .LASF1100
C:\Users\CYMR90~1\AppData\Local\Temp\ccj5QhVO.s:30020  .debug_str:0000000000023ade .LASF1101
C:\Users\CYMR90~1\AppData\Local\Temp\ccj5QhVO.s:24311  .debug_str:000000000000cf94 .LASF1102
C:\Users\CYMR90~1\AppData\Local\Temp\ccj5QhVO.s:29672  .debug_str:0000000000022593 .LASF1103
C:\Users\CYMR90~1\AppData\Local\Temp\ccj5QhVO.s:31270  .debug_str:0000000000028ce8 .LASF1104
C:\Users\CYMR90~1\AppData\Local\Temp\ccj5QhVO.s:29108  .debug_str:00000000000202f6 .LASF1105
C:\Users\CYMR90~1\AppData\Local\Temp\ccj5QhVO.s:26007  .debug_str:0000000000013c5f .LASF1106
C:\Users\CYMR90~1\AppData\Local\Temp\ccj5QhVO.s:29934  .debug_str:0000000000023527 .LASF1107
C:\Users\CYMR90~1\AppData\Local\Temp\ccj5QhVO.s:27818  .debug_str:000000000001b223 .LASF1108
C:\Users\CYMR90~1\AppData\Local\Temp\ccj5QhVO.s:22689  .debug_str:0000000000006470 .LASF1109
C:\Users\CYMR90~1\AppData\Local\Temp\ccj5QhVO.s:23659  .debug_str:000000000000a3db .LASF1110
C:\Users\CYMR90~1\AppData\Local\Temp\ccj5QhVO.s:21563  .debug_str:0000000000001e0e .LASF1111
C:\Users\CYMR90~1\AppData\Local\Temp\ccj5QhVO.s:22779  .debug_str:0000000000006a0b .LASF1112
C:\Users\CYMR90~1\AppData\Local\Temp\ccj5QhVO.s:23885  .debug_str:000000000000b369 .LASF1113
C:\Users\CYMR90~1\AppData\Local\Temp\ccj5QhVO.s:22431  .debug_str:0000000000005537 .LASF1114
C:\Users\CYMR90~1\AppData\Local\Temp\ccj5QhVO.s:23447  .debug_str:000000000000962c .LASF1115
C:\Users\CYMR90~1\AppData\Local\Temp\ccj5QhVO.s:31114  .debug_str:000000000002820f .LASF1116
C:\Users\CYMR90~1\AppData\Local\Temp\ccj5QhVO.s:31618  .debug_str:000000000002a118 .LASF1117
C:\Users\CYMR90~1\AppData\Local\Temp\ccj5QhVO.s:22591  .debug_str:0000000000005e9a .LASF1118
C:\Users\CYMR90~1\AppData\Local\Temp\ccj5QhVO.s:27048  .debug_str:0000000000017f38 .LASF1119
C:\Users\CYMR90~1\AppData\Local\Temp\ccj5QhVO.s:23143  .debug_str:0000000000008322 .LASF1120
C:\Users\CYMR90~1\AppData\Local\Temp\ccj5QhVO.s:23345  .debug_str:0000000000008ff5 .LASF1121
C:\Users\CYMR90~1\AppData\Local\Temp\ccj5QhVO.s:25945  .debug_str:0000000000013893 .LASF1122
C:\Users\CYMR90~1\AppData\Local\Temp\ccj5QhVO.s:25579  .debug_str:0000000000012015 .LASF1123
C:\Users\CYMR90~1\AppData\Local\Temp\ccj5QhVO.s:29192  .debug_str:0000000000020869 .LASF1124
C:\Users\CYMR90~1\AppData\Local\Temp\ccj5QhVO.s:26373  .debug_str:000000000001531b .LASF1125
C:\Users\CYMR90~1\AppData\Local\Temp\ccj5QhVO.s:26463  .debug_str:0000000000015861 .LASF1126
C:\Users\CYMR90~1\AppData\Local\Temp\ccj5QhVO.s:29824  .debug_str:0000000000022f2a .LASF1127
C:\Users\CYMR90~1\AppData\Local\Temp\ccj5QhVO.s:30926  .debug_str:0000000000027621 .LASF1128
C:\Users\CYMR90~1\AppData\Local\Temp\ccj5QhVO.s:22479  .debug_str:000000000000581d .LASF1129
C:\Users\CYMR90~1\AppData\Local\Temp\ccj5QhVO.s:26461  .debug_str:000000000001584c .LASF1130
C:\Users\CYMR90~1\AppData\Local\Temp\ccj5QhVO.s:31452  .debug_str:000000000002976b .LASF1131
C:\Users\CYMR90~1\AppData\Local\Temp\ccj5QhVO.s:31860  .debug_str:000000000002afaa .LASF1132
C:\Users\CYMR90~1\AppData\Local\Temp\ccj5QhVO.s:27156  .debug_str:000000000001859c .LASF1133
C:\Users\CYMR90~1\AppData\Local\Temp\ccj5QhVO.s:29988  .debug_str:00000000000238a9 .LASF1134
C:\Users\CYMR90~1\AppData\Local\Temp\ccj5QhVO.s:23033  .debug_str:0000000000007b05 .LASF1135
C:\Users\CYMR90~1\AppData\Local\Temp\ccj5QhVO.s:22253  .debug_str:0000000000004a8a .LASF1136
C:\Users\CYMR90~1\AppData\Local\Temp\ccj5QhVO.s:22085  .debug_str:0000000000003e97 .LASF1137
C:\Users\CYMR90~1\AppData\Local\Temp\ccj5QhVO.s:31462  .debug_str:0000000000029847 .LASF1138
C:\Users\CYMR90~1\AppData\Local\Temp\ccj5QhVO.s:28560  .debug_str:000000000001e23f .LASF1139
C:\Users\CYMR90~1\AppData\Local\Temp\ccj5QhVO.s:31448  .debug_str:000000000002973e .LASF1140
C:\Users\CYMR90~1\AppData\Local\Temp\ccj5QhVO.s:21145  .debug_str:0000000000000452 .LASF1141
C:\Users\CYMR90~1\AppData\Local\Temp\ccj5QhVO.s:25367  .debug_str:00000000000111c0 .LASF1142
C:\Users\CYMR90~1\AppData\Local\Temp\ccj5QhVO.s:24623  .debug_str:000000000000e348 .LASF1143
C:\Users\CYMR90~1\AppData\Local\Temp\ccj5QhVO.s:30984  .debug_str:000000000002795f .LASF1144
C:\Users\CYMR90~1\AppData\Local\Temp\ccj5QhVO.s:29152  .debug_str:00000000000205b3 .LASF1145
C:\Users\CYMR90~1\AppData\Local\Temp\ccj5QhVO.s:24157  .debug_str:000000000000c5a3 .LASF1146
C:\Users\CYMR90~1\AppData\Local\Temp\ccj5QhVO.s:32282  .debug_str:000000000002cb6b .LASF1147
C:\Users\CYMR90~1\AppData\Local\Temp\ccj5QhVO.s:26914  .debug_str:00000000000176b7 .LASF1148
C:\Users\CYMR90~1\AppData\Local\Temp\ccj5QhVO.s:27164  .debug_str:0000000000018649 .LASF1149
C:\Users\CYMR90~1\AppData\Local\Temp\ccj5QhVO.s:27916  .debug_str:000000000001b840 .LASF1150
C:\Users\CYMR90~1\AppData\Local\Temp\ccj5QhVO.s:21565  .debug_str:0000000000001e2c .LASF1151
C:\Users\CYMR90~1\AppData\Local\Temp\ccj5QhVO.s:28334  .debug_str:000000000001d3ec .LASF1152
C:\Users\CYMR90~1\AppData\Local\Temp\ccj5QhVO.s:23469  .debug_str:0000000000009755 .LASF1153
C:\Users\CYMR90~1\AppData\Local\Temp\ccj5QhVO.s:29446  .debug_str:0000000000021817 .LASF1154
C:\Users\CYMR90~1\AppData\Local\Temp\ccj5QhVO.s:28690  .debug_str:000000000001ea60 .LASF1155
C:\Users\CYMR90~1\AppData\Local\Temp\ccj5QhVO.s:22367  .debug_str:000000000000515f .LASF1156
C:\Users\CYMR90~1\AppData\Local\Temp\ccj5QhVO.s:28520  .debug_str:000000000001dfde .LASF1157
C:\Users\CYMR90~1\AppData\Local\Temp\ccj5QhVO.s:23903  .debug_str:000000000000b459 .LASF1158
C:\Users\CYMR90~1\AppData\Local\Temp\ccj5QhVO.s:31636  .debug_str:000000000002a24f .LASF1159
C:\Users\CYMR90~1\AppData\Local\Temp\ccj5QhVO.s:21445  .debug_str:0000000000001655 .LASF1160
C:\Users\CYMR90~1\AppData\Local\Temp\ccj5QhVO.s:31718  .debug_str:000000000002a722 .LASF1161
C:\Users\CYMR90~1\AppData\Local\Temp\ccj5QhVO.s:31402  .debug_str:00000000000294a8 .LASF1162
C:\Users\CYMR90~1\AppData\Local\Temp\ccj5QhVO.s:28414  .debug_str:000000000001d91f .LASF1163
C:\Users\CYMR90~1\AppData\Local\Temp\ccj5QhVO.s:27542  .debug_str:0000000000019f66 .LASF1164
C:\Users\CYMR90~1\AppData\Local\Temp\ccj5QhVO.s:24443  .debug_str:000000000000d8e2 .LASF1165
C:\Users\CYMR90~1\AppData\Local\Temp\ccj5QhVO.s:29078  .debug_str:0000000000020157 .LASF1166
C:\Users\CYMR90~1\AppData\Local\Temp\ccj5QhVO.s:25329  .debug_str:0000000000010faf .LASF1167
C:\Users\CYMR90~1\AppData\Local\Temp\ccj5QhVO.s:23467  .debug_str:000000000000974b .LASF1168
C:\Users\CYMR90~1\AppData\Local\Temp\ccj5QhVO.s:26405  .debug_str:000000000001550c .LASF1169
C:\Users\CYMR90~1\AppData\Local\Temp\ccj5QhVO.s:27756  .debug_str:000000000001ae0e .LASF1170
C:\Users\CYMR90~1\AppData\Local\Temp\ccj5QhVO.s:27456  .debug_str:00000000000199b0 .LASF1171
C:\Users\CYMR90~1\AppData\Local\Temp\ccj5QhVO.s:31664  .debug_str:000000000002a3b3 .LASF1172
C:\Users\CYMR90~1\AppData\Local\Temp\ccj5QhVO.s:26687  .debug_str:0000000000016646 .LASF1173
C:\Users\CYMR90~1\AppData\Local\Temp\ccj5QhVO.s:21267  .debug_str:0000000000000bfa .LASF1174
C:\Users\CYMR90~1\AppData\Local\Temp\ccj5QhVO.s:21675  .debug_str:0000000000002433 .LASF1175
C:\Users\CYMR90~1\AppData\Local\Temp\ccj5QhVO.s:25911  .debug_str:0000000000013672 .LASF1176
C:\Users\CYMR90~1\AppData\Local\Temp\ccj5QhVO.s:24261  .debug_str:000000000000cce3 .LASF1177
C:\Users\CYMR90~1\AppData\Local\Temp\ccj5QhVO.s:28470  .debug_str:000000000001dc89 .LASF1178
C:\Users\CYMR90~1\AppData\Local\Temp\ccj5QhVO.s:24853  .debug_str:000000000000f127 .LASF1179
C:\Users\CYMR90~1\AppData\Local\Temp\ccj5QhVO.s:24429  .debug_str:000000000000d833 .LASF1180
C:\Users\CYMR90~1\AppData\Local\Temp\ccj5QhVO.s:30194  .debug_str:000000000002461d .LASF1181
C:\Users\CYMR90~1\AppData\Local\Temp\ccj5QhVO.s:31408  .debug_str:00000000000294f3 .LASF1182
C:\Users\CYMR90~1\AppData\Local\Temp\ccj5QhVO.s:21843  .debug_str:0000000000002f36 .LASF1183
C:\Users\CYMR90~1\AppData\Local\Temp\ccj5QhVO.s:28796  .debug_str:000000000001f04c .LASF1184
C:\Users\CYMR90~1\AppData\Local\Temp\ccj5QhVO.s:29248  .debug_str:0000000000020bb0 .LASF1185
C:\Users\CYMR90~1\AppData\Local\Temp\ccj5QhVO.s:30430  .debug_str:0000000000025645 .LASF1186
C:\Users\CYMR90~1\AppData\Local\Temp\ccj5QhVO.s:21567  .debug_str:0000000000001e45 .LASF1187
C:\Users\CYMR90~1\AppData\Local\Temp\ccj5QhVO.s:22489  .debug_str:00000000000058ad .LASF1188
C:\Users\CYMR90~1\AppData\Local\Temp\ccj5QhVO.s:29788  .debug_str:0000000000022d3a .LASF1189
C:\Users\CYMR90~1\AppData\Local\Temp\ccj5QhVO.s:23037  .debug_str:0000000000007b36 .LASF1190
C:\Users\CYMR90~1\AppData\Local\Temp\ccj5QhVO.s:29766  .debug_str:0000000000022b8f .LASF1191
C:\Users\CYMR90~1\AppData\Local\Temp\ccj5QhVO.s:24235  .debug_str:000000000000cb0c .LASF1192
C:\Users\CYMR90~1\AppData\Local\Temp\ccj5QhVO.s:29434  .debug_str:0000000000021777 .LASF1193
C:\Users\CYMR90~1\AppData\Local\Temp\ccj5QhVO.s:24475  .debug_str:000000000000da99 .LASF1194
C:\Users\CYMR90~1\AppData\Local\Temp\ccj5QhVO.s:28010  .debug_str:000000000001bddd .LASF1195
C:\Users\CYMR90~1\AppData\Local\Temp\ccj5QhVO.s:26057  .debug_str:0000000000013f5d .LASF1196
C:\Users\CYMR90~1\AppData\Local\Temp\ccj5QhVO.s:29468  .debug_str:0000000000021994 .LASF1197
C:\Users\CYMR90~1\AppData\Local\Temp\ccj5QhVO.s:31662  .debug_str:000000000002a3a4 .LASF1198
C:\Users\CYMR90~1\AppData\Local\Temp\ccj5QhVO.s:26711  .debug_str:000000000001683c .LASF1199
C:\Users\CYMR90~1\AppData\Local\Temp\ccj5QhVO.s:31668  .debug_str:000000000002a3da .LASF1200
C:\Users\CYMR90~1\AppData\Local\Temp\ccj5QhVO.s:23723  .debug_str:000000000000a7a2 .LASF1201
C:\Users\CYMR90~1\AppData\Local\Temp\ccj5QhVO.s:23381  .debug_str:0000000000009217 .LASF1202
C:\Users\CYMR90~1\AppData\Local\Temp\ccj5QhVO.s:26902  .debug_str:0000000000017616 .LASF1203
C:\Users\CYMR90~1\AppData\Local\Temp\ccj5QhVO.s:30756  .debug_str:0000000000026b45 .LASF1204
C:\Users\CYMR90~1\AppData\Local\Temp\ccj5QhVO.s:25971  .debug_str:0000000000013a53 .LASF1205
C:\Users\CYMR90~1\AppData\Local\Temp\ccj5QhVO.s:25023  .debug_str:000000000000fc02 .LASF1206
C:\Users\CYMR90~1\AppData\Local\Temp\ccj5QhVO.s:31632  .debug_str:000000000002a22b .LASF1207
C:\Users\CYMR90~1\AppData\Local\Temp\ccj5QhVO.s:30282  .debug_str:0000000000024beb .LASF1208
C:\Users\CYMR90~1\AppData\Local\Temp\ccj5QhVO.s:24951  .debug_str:000000000000f73a .LASF1209
C:\Users\CYMR90~1\AppData\Local\Temp\ccj5QhVO.s:22379  .debug_str:000000000000521c .LASF1210
C:\Users\CYMR90~1\AppData\Local\Temp\ccj5QhVO.s:22481  .debug_str:0000000000005833 .LASF1211
C:\Users\CYMR90~1\AppData\Local\Temp\ccj5QhVO.s:23175  .debug_str:0000000000008535 .LASF1212
C:\Users\CYMR90~1\AppData\Local\Temp\ccj5QhVO.s:22773  .debug_str:000000000000698b .LASF1213
C:\Users\CYMR90~1\AppData\Local\Temp\ccj5QhVO.s:21685  .debug_str:00000000000024e9 .LASF1214
C:\Users\CYMR90~1\AppData\Local\Temp\ccj5QhVO.s:23513  .debug_str:0000000000009a93 .LASF1215
C:\Users\CYMR90~1\AppData\Local\Temp\ccj5QhVO.s:21627  .debug_str:000000000000216a .LASF1216
C:\Users\CYMR90~1\AppData\Local\Temp\ccj5QhVO.s:29888  .debug_str:0000000000023292 .LASF1217
C:\Users\CYMR90~1\AppData\Local\Temp\ccj5QhVO.s:29904  .debug_str:000000000002335f .LASF1218
C:\Users\CYMR90~1\AppData\Local\Temp\ccj5QhVO.s:30338  .debug_str:0000000000024f7f .LASF1219
C:\Users\CYMR90~1\AppData\Local\Temp\ccj5QhVO.s:27902  .debug_str:000000000001b768 .LASF1220
C:\Users\CYMR90~1\AppData\Local\Temp\ccj5QhVO.s:24515  .debug_str:000000000000dccd .LASF1221
C:\Users\CYMR90~1\AppData\Local\Temp\ccj5QhVO.s:26227  .debug_str:00000000000149c1 .LASF1222
C:\Users\CYMR90~1\AppData\Local\Temp\ccj5QhVO.s:21861  .debug_str:0000000000003053 .LASF1223
C:\Users\CYMR90~1\AppData\Local\Temp\ccj5QhVO.s:27640  .debug_str:000000000001a6c8 .LASF1224
C:\Users\CYMR90~1\AppData\Local\Temp\ccj5QhVO.s:30948  .debug_str:0000000000027772 .LASF1225
C:\Users\CYMR90~1\AppData\Local\Temp\ccj5QhVO.s:23997  .debug_str:000000000000bab5 .LASF1226
C:\Users\CYMR90~1\AppData\Local\Temp\ccj5QhVO.s:22915  .debug_str:000000000000734d .LASF1227
C:\Users\CYMR90~1\AppData\Local\Temp\ccj5QhVO.s:21953  .debug_str:0000000000003665 .LASF1228
C:\Users\CYMR90~1\AppData\Local\Temp\ccj5QhVO.s:32342  .debug_str:000000000002cf75 .LASF1229
C:\Users\CYMR90~1\AppData\Local\Temp\ccj5QhVO.s:31384  .debug_str:0000000000029398 .LASF1230
C:\Users\CYMR90~1\AppData\Local\Temp\ccj5QhVO.s:30400  .debug_str:00000000000253bc .LASF1231
C:\Users\CYMR90~1\AppData\Local\Temp\ccj5QhVO.s:27812  .debug_str:000000000001b1d4 .LASF1232
C:\Users\CYMR90~1\AppData\Local\Temp\ccj5QhVO.s:29306  .debug_str:0000000000020f60 .LASF1233
C:\Users\CYMR90~1\AppData\Local\Temp\ccj5QhVO.s:28352  .debug_str:000000000001d4e4 .LASF1234
C:\Users\CYMR90~1\AppData\Local\Temp\ccj5QhVO.s:27412  .debug_str:00000000000196bf .LASF1235
C:\Users\CYMR90~1\AppData\Local\Temp\ccj5QhVO.s:26125  .debug_str:00000000000143c3 .LASF1236
C:\Users\CYMR90~1\AppData\Local\Temp\ccj5QhVO.s:25497  .debug_str:0000000000011aae .LASF1237
C:\Users\CYMR90~1\AppData\Local\Temp\ccj5QhVO.s:26802  .debug_str:0000000000017050 .LASF1238
C:\Users\CYMR90~1\AppData\Local\Temp\ccj5QhVO.s:23585  .debug_str:0000000000009eea .LASF1239
C:\Users\CYMR90~1\AppData\Local\Temp\ccj5QhVO.s:22587  .debug_str:0000000000005e59 .LASF1240
C:\Users\CYMR90~1\AppData\Local\Temp\ccj5QhVO.s:21643  .debug_str:0000000000002256 .LASF1241
C:\Users\CYMR90~1\AppData\Local\Temp\ccj5QhVO.s:32050  .debug_str:000000000002bc04 .LASF1242
C:\Users\CYMR90~1\AppData\Local\Temp\ccj5QhVO.s:21159  .debug_str:0000000000000506 .LASF1243
C:\Users\CYMR90~1\AppData\Local\Temp\ccj5QhVO.s:31528  .debug_str:0000000000029c0a .LASF1244
C:\Users\CYMR90~1\AppData\Local\Temp\ccj5QhVO.s:30544  .debug_str:0000000000025e72 .LASF1245
C:\Users\CYMR90~1\AppData\Local\Temp\ccj5QhVO.s:29572  .debug_str:0000000000021ff0 .LASF1246
C:\Users\CYMR90~1\AppData\Local\Temp\ccj5QhVO.s:28598  .debug_str:000000000001e487 .LASF1247
C:\Users\CYMR90~1\AppData\Local\Temp\ccj5QhVO.s:27700  .debug_str:000000000001aa95 .LASF1248
C:\Users\CYMR90~1\AppData\Local\Temp\ccj5QhVO.s:26755  .debug_str:0000000000016b3a .LASF1249
C:\Users\CYMR90~1\AppData\Local\Temp\ccj5QhVO.s:25831  .debug_str:000000000001309c .LASF1250
C:\Users\CYMR90~1\AppData\Local\Temp\ccj5QhVO.s:24859  .debug_str:000000000000f16c .LASF1251
C:\Users\CYMR90~1\AppData\Local\Temp\ccj5QhVO.s:27012  .debug_str:0000000000017d2f .LASF1252
C:\Users\CYMR90~1\AppData\Local\Temp\ccj5QhVO.s:24369  .debug_str:000000000000d393 .LASF1253
C:\Users\CYMR90~1\AppData\Local\Temp\ccj5QhVO.s:23395  .debug_str:00000000000092e6 .LASF1254
C:\Users\CYMR90~1\AppData\Local\Temp\ccj5QhVO.s:21403  .debug_str:00000000000013fc .LASF1255
C:\Users\CYMR90~1\AppData\Local\Temp\ccj5QhVO.s:24289  .debug_str:000000000000ce77 .LASF1256
C:\Users\CYMR90~1\AppData\Local\Temp\ccj5QhVO.s:22541  .debug_str:0000000000005c0d .LASF1257
C:\Users\CYMR90~1\AppData\Local\Temp\ccj5QhVO.s:27282  .debug_str:0000000000018e2c .LASF1258
C:\Users\CYMR90~1\AppData\Local\Temp\ccj5QhVO.s:27284  .debug_str:0000000000018e3f .LASF1259
C:\Users\CYMR90~1\AppData\Local\Temp\ccj5QhVO.s:29770  .debug_str:0000000000022bbf .LASF1260
C:\Users\CYMR90~1\AppData\Local\Temp\ccj5QhVO.s:27896  .debug_str:000000000001b721 .LASF1261
C:\Users\CYMR90~1\AppData\Local\Temp\ccj5QhVO.s:25299  .debug_str:0000000000010e47 .LASF1262
C:\Users\CYMR90~1\AppData\Local\Temp\ccj5QhVO.s:22435  .debug_str:000000000000557a .LASF1263
C:\Users\CYMR90~1\AppData\Local\Temp\ccj5QhVO.s:24599  .debug_str:000000000000e1c7 .LASF1264
C:\Users\CYMR90~1\AppData\Local\Temp\ccj5QhVO.s:26779  .debug_str:0000000000016d47 .LASF1265
C:\Users\CYMR90~1\AppData\Local\Temp\ccj5QhVO.s:24647  .debug_str:000000000000e496 .LASF1266
C:\Users\CYMR90~1\AppData\Local\Temp\ccj5QhVO.s:29800  .debug_str:0000000000022de7 .LASF1267
C:\Users\CYMR90~1\AppData\Local\Temp\ccj5QhVO.s:29982  .debug_str:000000000002385f .LASF1268
C:\Users\CYMR90~1\AppData\Local\Temp\ccj5QhVO.s:25429  .debug_str:0000000000011563 .LASF1269
C:\Users\CYMR90~1\AppData\Local\Temp\ccj5QhVO.s:32102  .debug_str:000000000002bf3f .LASF1270
C:\Users\CYMR90~1\AppData\Local\Temp\ccj5QhVO.s:27014  .debug_str:0000000000017d46 .LASF1271
C:\Users\CYMR90~1\AppData\Local\Temp\ccj5QhVO.s:31488  .debug_str:00000000000299bf .LASF1272
C:\Users\CYMR90~1\AppData\Local\Temp\ccj5QhVO.s:28472  .debug_str:000000000001dc96 .LASF1273
C:\Users\CYMR90~1\AppData\Local\Temp\ccj5QhVO.s:21221  .debug_str:00000000000008c8 .LASF1274
C:\Users\CYMR90~1\AppData\Local\Temp\ccj5QhVO.s:27292  .debug_str:0000000000018ec2 .LASF1275
C:\Users\CYMR90~1\AppData\Local\Temp\ccj5QhVO.s:21331  .debug_str:0000000000000fe3 .LASF1276
C:\Users\CYMR90~1\AppData\Local\Temp\ccj5QhVO.s:23609  .debug_str:000000000000a0a4 .LASF1277
C:\Users\CYMR90~1\AppData\Local\Temp\ccj5QhVO.s:22607  .debug_str:0000000000005f8b .LASF1278
C:\Users\CYMR90~1\AppData\Local\Temp\ccj5QhVO.s:21673  .debug_str:0000000000002421 .LASF1279
C:\Users\CYMR90~1\AppData\Local\Temp\ccj5QhVO.s:32070  .debug_str:000000000002bd21 .LASF1280
C:\Users\CYMR90~1\AppData\Local\Temp\ccj5QhVO.s:22501  .debug_str:0000000000005978 .LASF1281
C:\Users\CYMR90~1\AppData\Local\Temp\ccj5QhVO.s:21555  .debug_str:0000000000001d8a .LASF1282
C:\Users\CYMR90~1\AppData\Local\Temp\ccj5QhVO.s:28640  .debug_str:000000000001e72f .LASF1283
C:\Users\CYMR90~1\AppData\Local\Temp\ccj5QhVO.s:21295  .debug_str:0000000000000d6d .LASF1284
C:\Users\CYMR90~1\AppData\Local\Temp\ccj5QhVO.s:30008  .debug_str:0000000000023a28 .LASF1285
C:\Users\CYMR90~1\AppData\Local\Temp\ccj5QhVO.s:29028  .debug_str:000000000001fe38 .LASF1286
C:\Users\CYMR90~1\AppData\Local\Temp\ccj5QhVO.s:28076  .debug_str:000000000001c225 .LASF1287
C:\Users\CYMR90~1\AppData\Local\Temp\ccj5QhVO.s:27120  .debug_str:0000000000018388 .LASF1288
C:\Users\CYMR90~1\AppData\Local\Temp\ccj5QhVO.s:26167  .debug_str:000000000001462a .LASF1289
C:\Users\CYMR90~1\AppData\Local\Temp\ccj5QhVO.s:25225  .debug_str:00000000000108e3 .LASF1290
C:\Users\CYMR90~1\AppData\Local\Temp\ccj5QhVO.s:29524  .debug_str:0000000000021cf3 .LASF1291
C:\Users\CYMR90~1\AppData\Local\Temp\ccj5QhVO.s:28548  .debug_str:000000000001e195 .LASF1292
C:\Users\CYMR90~1\AppData\Local\Temp\ccj5QhVO.s:27638  .debug_str:000000000001a6b4 .LASF1293
C:\Users\CYMR90~1\AppData\Local\Temp\ccj5QhVO.s:26639  .debug_str:000000000001639a .LASF1294
C:\Users\CYMR90~1\AppData\Local\Temp\ccj5QhVO.s:25725  .debug_str:00000000000129a7 .LASF1295
C:\Users\CYMR90~1\AppData\Local\Temp\ccj5QhVO.s:24753  .debug_str:000000000000eb98 .LASF1296
C:\Users\CYMR90~1\AppData\Local\Temp\ccj5QhVO.s:24133  .debug_str:000000000000c444 .LASF1297
C:\Users\CYMR90~1\AppData\Local\Temp\ccj5QhVO.s:28994  .debug_str:000000000001fc17 .LASF1298
C:\Users\CYMR90~1\AppData\Local\Temp\ccj5QhVO.s:28050  .debug_str:000000000001c091 .LASF1299
C:\Users\CYMR90~1\AppData\Local\Temp\ccj5QhVO.s:21411  .debug_str:000000000000146b .LASF1300
C:\Users\CYMR90~1\AppData\Local\Temp\ccj5QhVO.s:28022  .debug_str:000000000001beb1 .LASF1301
C:\Users\CYMR90~1\AppData\Local\Temp\ccj5QhVO.s:29244  .debug_str:0000000000020b8d .LASF1302
C:\Users\CYMR90~1\AppData\Local\Temp\ccj5QhVO.s:26685  .debug_str:0000000000016633 .LASF1303
C:\Users\CYMR90~1\AppData\Local\Temp\ccj5QhVO.s:27552  .debug_str:000000000001a00a .LASF1304
C:\Users\CYMR90~1\AppData\Local\Temp\ccj5QhVO.s:27522  .debug_str:0000000000019e50 .LASF1305
C:\Users\CYMR90~1\AppData\Local\Temp\ccj5QhVO.s:23289  .debug_str:0000000000008c50 .LASF1306
C:\Users\CYMR90~1\AppData\Local\Temp\ccj5QhVO.s:22283  .debug_str:0000000000004c89 .LASF1307
C:\Users\CYMR90~1\AppData\Local\Temp\ccj5QhVO.s:21343  .debug_str:0000000000001079 .LASF1308
C:\Users\CYMR90~1\AppData\Local\Temp\ccj5QhVO.s:31734  .debug_str:000000000002a828 .LASF1309
C:\Users\CYMR90~1\AppData\Local\Temp\ccj5QhVO.s:30752  .debug_str:0000000000026b0a .LASF1310
C:\Users\CYMR90~1\AppData\Local\Temp\ccj5QhVO.s:29776  .debug_str:0000000000022c04 .LASF1311
C:\Users\CYMR90~1\AppData\Local\Temp\ccj5QhVO.s:26037  .debug_str:0000000000013e41 .LASF1312
C:\Users\CYMR90~1\AppData\Local\Temp\ccj5QhVO.s:24611  .debug_str:000000000000e280 .LASF1313
C:\Users\CYMR90~1\AppData\Local\Temp\ccj5QhVO.s:25883  .debug_str:000000000001340d .LASF1314
C:\Users\CYMR90~1\AppData\Local\Temp\ccj5QhVO.s:31954  .debug_str:000000000002b59b .LASF1315
C:\Users\CYMR90~1\AppData\Local\Temp\ccj5QhVO.s:30470  .debug_str:0000000000025940 .LASF1316
C:\Users\CYMR90~1\AppData\Local\Temp\ccj5QhVO.s:29998  .debug_str:000000000002395d .LASF1317
C:\Users\CYMR90~1\AppData\Local\Temp\ccj5QhVO.s:29020  .debug_str:000000000001fdcb .LASF1318
C:\Users\CYMR90~1\AppData\Local\Temp\ccj5QhVO.s:28086  .debug_str:000000000001c2cf .LASF1319
C:\Users\CYMR90~1\AppData\Local\Temp\ccj5QhVO.s:27130  .debug_str:0000000000018436 .LASF1320
C:\Users\CYMR90~1\AppData\Local\Temp\ccj5QhVO.s:26177  .debug_str:00000000000146a0 .LASF1321
C:\Users\CYMR90~1\AppData\Local\Temp\ccj5QhVO.s:25231  .debug_str:000000000001093e .LASF1322
C:\Users\CYMR90~1\AppData\Local\Temp\ccj5QhVO.s:25699  .debug_str:00000000000127d9 .LASF1323
C:\Users\CYMR90~1\AppData\Local\Temp\ccj5QhVO.s:24137  .debug_str:000000000000c469 .LASF1324
C:\Users\CYMR90~1\AppData\Local\Temp\ccj5QhVO.s:23773  .debug_str:000000000000ab9d .LASF1325
C:\Users\CYMR90~1\AppData\Local\Temp\ccj5QhVO.s:22781  .debug_str:0000000000006a27 .LASF1326
C:\Users\CYMR90~1\AppData\Local\Temp\ccj5QhVO.s:21819  .debug_str:0000000000002dc2 .LASF1327
C:\Users\CYMR90~1\AppData\Local\Temp\ccj5QhVO.s:32218  .debug_str:000000000002c734 .LASF1328
C:\Users\CYMR90~1\AppData\Local\Temp\ccj5QhVO.s:31300  .debug_str:0000000000028e74 .LASF1329
C:\Users\CYMR90~1\AppData\Local\Temp\ccj5QhVO.s:30318  .debug_str:0000000000024e31 .LASF1330
C:\Users\CYMR90~1\AppData\Local\Temp\ccj5QhVO.s:29344  .debug_str:000000000002116d .LASF1331
C:\Users\CYMR90~1\AppData\Local\Temp\ccj5QhVO.s:28384  .debug_str:000000000001d6ee .LASF1332
C:\Users\CYMR90~1\AppData\Local\Temp\ccj5QhVO.s:28818  .debug_str:000000000001f1c5 .LASF1333
C:\Users\CYMR90~1\AppData\Local\Temp\ccj5QhVO.s:27910  .debug_str:000000000001b7e4 .LASF1334
C:\Users\CYMR90~1\AppData\Local\Temp\ccj5QhVO.s:26603  .debug_str:000000000001616f .LASF1335
C:\Users\CYMR90~1\AppData\Local\Temp\ccj5QhVO.s:24285  .debug_str:000000000000ce4c .LASF1336
C:\Users\CYMR90~1\AppData\Local\Temp\ccj5QhVO.s:29038  .debug_str:000000000001feac .LASF1337
C:\Users\CYMR90~1\AppData\Local\Temp\ccj5QhVO.s:25577  .debug_str:0000000000012000 .LASF1338
C:\Users\CYMR90~1\AppData\Local\Temp\ccj5QhVO.s:21449  .debug_str:000000000000168d .LASF1339
C:\Users\CYMR90~1\AppData\Local\Temp\ccj5QhVO.s:23559  .debug_str:0000000000009d5e .LASF1340
C:\Users\CYMR90~1\AppData\Local\Temp\ccj5QhVO.s:22555  .debug_str:0000000000005cb8 .LASF1341
C:\Users\CYMR90~1\AppData\Local\Temp\ccj5QhVO.s:21611  .debug_str:000000000000208f .LASF1342
C:\Users\CYMR90~1\AppData\Local\Temp\ccj5QhVO.s:32032  .debug_str:000000000002bab5 .LASF1343
C:\Users\CYMR90~1\AppData\Local\Temp\ccj5QhVO.s:31824  .debug_str:000000000002ad5e .LASF1344
C:\Users\CYMR90~1\AppData\Local\Temp\ccj5QhVO.s:30836  .debug_str:000000000002701e .LASF1345
C:\Users\CYMR90~1\AppData\Local\Temp\ccj5QhVO.s:29868  .debug_str:000000000002319b .LASF1346
C:\Users\CYMR90~1\AppData\Local\Temp\ccj5QhVO.s:31254  .debug_str:0000000000028bf3 .LASF1347
C:\Users\CYMR90~1\AppData\Local\Temp\ccj5QhVO.s:27954  .debug_str:000000000001baa3 .LASF1348
C:\Users\CYMR90~1\AppData\Local\Temp\ccj5QhVO.s:28462  .debug_str:000000000001dc08 .LASF1349
C:\Users\CYMR90~1\AppData\Local\Temp\ccj5QhVO.s:26049  .debug_str:0000000000013eef .LASF1350
C:\Users\CYMR90~1\AppData\Local\Temp\ccj5QhVO.s:29178  .debug_str:00000000000207ab .LASF1351
C:\Users\CYMR90~1\AppData\Local\Temp\ccj5QhVO.s:24151  .debug_str:000000000000c562 .LASF1352
C:\Users\CYMR90~1\AppData\Local\Temp\ccj5QhVO.s:23079  .debug_str:0000000000007e53 .LASF1353
C:\Users\CYMR90~1\AppData\Local\Temp\ccj5QhVO.s:23643  .debug_str:000000000000a2e7 .LASF1354
C:\Users\CYMR90~1\AppData\Local\Temp\ccj5QhVO.s:22639  .debug_str:000000000000617f .LASF1355
C:\Users\CYMR90~1\AppData\Local\Temp\ccj5QhVO.s:21697  .debug_str:0000000000002589 .LASF1356
C:\Users\CYMR90~1\AppData\Local\Temp\ccj5QhVO.s:32098  .debug_str:000000000002bf1f .LASF1357
C:\Users\CYMR90~1\AppData\Local\Temp\ccj5QhVO.s:26137  .debug_str:000000000001448b .LASF1358
C:\Users\CYMR90~1\AppData\Local\Temp\ccj5QhVO.s:22775  .debug_str:00000000000069cf .LASF1359
C:\Users\CYMR90~1\AppData\Local\Temp\ccj5QhVO.s:29226  .debug_str:0000000000020a67 .LASF1360
C:\Users\CYMR90~1\AppData\Local\Temp\ccj5QhVO.s:28182  .debug_str:000000000001c86c .LASF1361
C:\Users\CYMR90~1\AppData\Local\Temp\ccj5QhVO.s:27224  .debug_str:00000000000189c4 .LASF1362
C:\Users\CYMR90~1\AppData\Local\Temp\ccj5QhVO.s:31264  .debug_str:0000000000028c84 .LASF1363
C:\Users\CYMR90~1\AppData\Local\Temp\ccj5QhVO.s:26525  .debug_str:0000000000015bf1 .LASF1364
C:\Users\CYMR90~1\AppData\Local\Temp\ccj5QhVO.s:23195  .debug_str:0000000000008662 .LASF1365
C:\Users\CYMR90~1\AppData\Local\Temp\ccj5QhVO.s:30866  .debug_str:00000000000271c8 .LASF1366
C:\Users\CYMR90~1\AppData\Local\Temp\ccj5QhVO.s:30114  .debug_str:0000000000024041 .LASF1367
C:\Users\CYMR90~1\AppData\Local\Temp\ccj5QhVO.s:29118  .debug_str:0000000000020383 .LASF1368
C:\Users\CYMR90~1\AppData\Local\Temp\ccj5QhVO.s:27386  .debug_str:0000000000019514 .LASF1369
C:\Users\CYMR90~1\AppData\Local\Temp\ccj5QhVO.s:31992  .debug_str:000000000002b7fc .LASF1370
C:\Users\CYMR90~1\AppData\Local\Temp\ccj5QhVO.s:28398  .debug_str:000000000001d7d7 .LASF1371
C:\Users\CYMR90~1\AppData\Local\Temp\ccj5QhVO.s:21741  .debug_str:00000000000028af .LASF1372
C:\Users\CYMR90~1\AppData\Local\Temp\ccj5QhVO.s:24327  .debug_str:000000000000d0b6 .LASF1373
C:\Users\CYMR90~1\AppData\Local\Temp\ccj5QhVO.s:27434  .debug_str:00000000000197f8 .LASF1374
C:\Users\CYMR90~1\AppData\Local\Temp\ccj5QhVO.s:30536  .debug_str:0000000000025e04 .LASF1375
C:\Users\CYMR90~1\AppData\Local\Temp\ccj5QhVO.s:22313  .debug_str:0000000000004e4a .LASF1376
C:\Users\CYMR90~1\AppData\Local\Temp\ccj5QhVO.s:25483  .debug_str:0000000000011916 .LASF1377
C:\Users\CYMR90~1\AppData\Local\Temp\ccj5QhVO.s:28554  .debug_str:000000000001e1ef .LASF1378
C:\Users\CYMR90~1\AppData\Local\Temp\ccj5QhVO.s:31730  .debug_str:000000000002a7eb .LASF1379
C:\Users\CYMR90~1\AppData\Local\Temp\ccj5QhVO.s:31698  .debug_str:000000000002a5c3 .LASF1380
C:\Users\CYMR90~1\AppData\Local\Temp\ccj5QhVO.s:23407  .debug_str:0000000000009396 .LASF1381
C:\Users\CYMR90~1\AppData\Local\Temp\ccj5QhVO.s:26497  .debug_str:0000000000015a55 .LASF1382
C:\Users\CYMR90~1\AppData\Local\Temp\ccj5QhVO.s:29618  .debug_str:00000000000222a0 .LASF1383
C:\Users\CYMR90~1\AppData\Local\Temp\ccj5QhVO.s:21421  .debug_str:00000000000014d5 .LASF1384
C:\Users\CYMR90~1\AppData\Local\Temp\ccj5QhVO.s:25957  .debug_str:0000000000013977 .LASF1385
C:\Users\CYMR90~1\AppData\Local\Temp\ccj5QhVO.s:27734  .debug_str:000000000001acbf .LASF1386
C:\Users\CYMR90~1\AppData\Local\Temp\ccj5QhVO.s:30826  .debug_str:0000000000026f5d .LASF1387
C:\Users\CYMR90~1\AppData\Local\Temp\ccj5QhVO.s:22593  .debug_str:0000000000005ebc .LASF1388
C:\Users\CYMR90~1\AppData\Local\Temp\ccj5QhVO.s:25683  .debug_str:00000000000126df .LASF1389
C:\Users\CYMR90~1\AppData\Local\Temp\ccj5QhVO.s:25029  .debug_str:000000000000fc48 .LASF1390
C:\Users\CYMR90~1\AppData\Local\Temp\ccj5QhVO.s:28034  .debug_str:000000000001bf7d .LASF1391
C:\Users\CYMR90~1\AppData\Local\Temp\ccj5QhVO.s:31168  .debug_str:0000000000028619 .LASF1392
C:\Users\CYMR90~1\AppData\Local\Temp\ccj5QhVO.s:22953  .debug_str:00000000000075a6 .LASF1393
C:\Users\CYMR90~1\AppData\Local\Temp\ccj5QhVO.s:26075  .debug_str:0000000000014068 .LASF1394
C:\Users\CYMR90~1\AppData\Local\Temp\ccj5QhVO.s:26225  .debug_str:00000000000149a9 .LASF1395
C:\Users\CYMR90~1\AppData\Local\Temp\ccj5QhVO.s:32394  .debug_str:000000000002d27d .LASF1396
C:\Users\CYMR90~1\AppData\Local\Temp\ccj5QhVO.s:24209  .debug_str:000000000000c8d9 .LASF1397
C:\Users\CYMR90~1\AppData\Local\Temp\ccj5QhVO.s:27308  .debug_str:0000000000018fc5 .LASF1398
C:\Users\CYMR90~1\AppData\Local\Temp\ccj5QhVO.s:25383  .debug_str:00000000000112b5 .LASF1399
C:\Users\CYMR90~1\AppData\Local\Temp\ccj5QhVO.s:26665  .debug_str:0000000000016522 .LASF1400
C:\Users\CYMR90~1\AppData\Local\Temp\ccj5QhVO.s:21375  .debug_str:000000000000123f .LASF1401
C:\Users\CYMR90~1\AppData\Local\Temp\ccj5QhVO.s:29100  .debug_str:000000000002029f .LASF1402
C:\Users\CYMR90~1\AppData\Local\Temp\ccj5QhVO.s:24033  .debug_str:000000000000bd1d .LASF1403
C:\Users\CYMR90~1\AppData\Local\Temp\ccj5QhVO.s:28866  .debug_str:000000000001f4cc .LASF1404
C:\Users\CYMR90~1\AppData\Local\Temp\ccj5QhVO.s:22099  .debug_str:0000000000003fea .LASF1405
C:\Users\CYMR90~1\AppData\Local\Temp\ccj5QhVO.s:31658  .debug_str:000000000002a374 .LASF1406
C:\Users\CYMR90~1\AppData\Local\Temp\ccj5QhVO.s:29822  .debug_str:0000000000022f12 .LASF1407
C:\Users\CYMR90~1\AppData\Local\Temp\ccj5QhVO.s:29986  .debug_str:0000000000023891 .LASF1408
C:\Users\CYMR90~1\AppData\Local\Temp\ccj5QhVO.s:21773  .debug_str:0000000000002ab3 .LASF1409
C:\Users\CYMR90~1\AppData\Local\Temp\ccj5QhVO.s:24931  .debug_str:000000000000f60c .LASF1410
C:\Users\CYMR90~1\AppData\Local\Temp\ccj5QhVO.s:31400  .debug_str:000000000002948f .LASF1411
C:\Users\CYMR90~1\AppData\Local\Temp\ccj5QhVO.s:23181  .debug_str:000000000000858a .LASF1412
C:\Users\CYMR90~1\AppData\Local\Temp\ccj5QhVO.s:26289  .debug_str:0000000000014d8a .LASF1413
C:\Users\CYMR90~1\AppData\Local\Temp\ccj5QhVO.s:29402  .debug_str:000000000002156c .LASF1414
C:\Users\CYMR90~1\AppData\Local\Temp\ccj5QhVO.s:21223  .debug_str:00000000000008db .LASF1415
C:\Users\CYMR90~1\AppData\Local\Temp\ccj5QhVO.s:24295  .debug_str:000000000000ceb4 .LASF1416
C:\Users\CYMR90~1\AppData\Local\Temp\ccj5QhVO.s:27410  .debug_str:00000000000196a6 .LASF1417
C:\Users\CYMR90~1\AppData\Local\Temp\ccj5QhVO.s:28928  .debug_str:000000000001f82f .LASF1418
C:\Users\CYMR90~1\AppData\Local\Temp\ccj5QhVO.s:22293  .debug_str:0000000000004d06 .LASF1419
C:\Users\CYMR90~1\AppData\Local\Temp\ccj5QhVO.s:25369  .debug_str:00000000000111d6 .LASF1420
C:\Users\CYMR90~1\AppData\Local\Temp\ccj5QhVO.s:24711  .debug_str:000000000000e8e4 .LASF1421
C:\Users\CYMR90~1\AppData\Local\Temp\ccj5QhVO.s:27850  .debug_str:000000000001b449 .LASF1422
C:\Users\CYMR90~1\AppData\Local\Temp\ccj5QhVO.s:30946  .debug_str:0000000000027759 .LASF1423
C:\Users\CYMR90~1\AppData\Local\Temp\ccj5QhVO.s:21847  .debug_str:0000000000002f6f .LASF1424
C:\Users\CYMR90~1\AppData\Local\Temp\ccj5QhVO.s:25887  .debug_str:000000000001343b .LASF1425
C:\Users\CYMR90~1\AppData\Local\Temp\ccj5QhVO.s:28858  .debug_str:000000000001f433 .LASF1426
C:\Users\CYMR90~1\AppData\Local\Temp\ccj5QhVO.s:32106  .debug_str:000000000002bffa .LASF1427
C:\Users\CYMR90~1\AppData\Local\Temp\ccj5QhVO.s:23901  .debug_str:000000000000b440 .LASF1428
C:\Users\CYMR90~1\AppData\Local\Temp\ccj5QhVO.s:26990  .debug_str:0000000000017be2 .LASF1429
C:\Users\CYMR90~1\AppData\Local\Temp\ccj5QhVO.s:30124  .debug_str:00000000000240e1 .LASF1430
C:\Users\CYMR90~1\AppData\Local\Temp\ccj5QhVO.s:28868  .debug_str:000000000001f4e4 .LASF1431
C:\Users\CYMR90~1\AppData\Local\Temp\ccj5QhVO.s:21183  .debug_str:000000000000067f .LASF1432
C:\Users\CYMR90~1\AppData\Local\Temp\ccj5QhVO.s:25409  .debug_str:0000000000011441 .LASF1433
C:\Users\CYMR90~1\AppData\Local\Temp\ccj5QhVO.s:29104  .debug_str:00000000000202c9 .LASF1434
C:\Users\CYMR90~1\AppData\Local\Temp\ccj5QhVO.s:28146  .debug_str:000000000001c649 .LASF1435
C:\Users\CYMR90~1\AppData\Local\Temp\ccj5QhVO.s:27192  .debug_str:00000000000187ec .LASF1436
C:\Users\CYMR90~1\AppData\Local\Temp\ccj5QhVO.s:26623  .debug_str:00000000000162b9 .LASF1437
C:\Users\CYMR90~1\AppData\Local\Temp\ccj5QhVO.s:30978  .debug_str:0000000000027910 .LASF1438
C:\Users\CYMR90~1\AppData\Local\Temp\ccj5QhVO.s:30006  .debug_str:0000000000023a14 .LASF1439
C:\Users\CYMR90~1\AppData\Local\Temp\ccj5QhVO.s:29026  .debug_str:000000000001fe24 .LASF1440
C:\Users\CYMR90~1\AppData\Local\Temp\ccj5QhVO.s:28074  .debug_str:000000000001c211 .LASF1441
C:\Users\CYMR90~1\AppData\Local\Temp\ccj5QhVO.s:27118  .debug_str:0000000000018374 .LASF1442
C:\Users\CYMR90~1\AppData\Local\Temp\ccj5QhVO.s:26165  .debug_str:0000000000014616 .LASF1443
C:\Users\CYMR90~1\AppData\Local\Temp\ccj5QhVO.s:25223  .debug_str:00000000000108cf .LASF1444
C:\Users\CYMR90~1\AppData\Local\Temp\ccj5QhVO.s:32066  .debug_str:000000000002bce9 .LASF1445
C:\Users\CYMR90~1\AppData\Local\Temp\ccj5QhVO.s:23297  .debug_str:0000000000008cbe .LASF1446
C:\Users\CYMR90~1\AppData\Local\Temp\ccj5QhVO.s:24845  .debug_str:000000000000f0b5 .LASF1447
C:\Users\CYMR90~1\AppData\Local\Temp\ccj5QhVO.s:30354  .debug_str:0000000000025078 .LASF1448
C:\Users\CYMR90~1\AppData\Local\Temp\ccj5QhVO.s:29380  .debug_str:0000000000021360 .LASF1449
C:\Users\CYMR90~1\AppData\Local\Temp\ccj5QhVO.s:28406  .debug_str:000000000001d8b6 .LASF1450
C:\Users\CYMR90~1\AppData\Local\Temp\ccj5QhVO.s:27476  .debug_str:0000000000019b74 .LASF1451
C:\Users\CYMR90~1\AppData\Local\Temp\ccj5QhVO.s:26495  .debug_str:0000000000015a40 .LASF1452
C:\Users\CYMR90~1\AppData\Local\Temp\ccj5QhVO.s:23899  .debug_str:000000000000b42d .LASF1453
C:\Users\CYMR90~1\AppData\Local\Temp\ccj5QhVO.s:22507  .debug_str:00000000000059ce .LASF1454
C:\Users\CYMR90~1\AppData\Local\Temp\ccj5QhVO.s:23705  .debug_str:000000000000a6a3 .LASF1455
C:\Users\CYMR90~1\AppData\Local\Temp\ccj5QhVO.s:28772  .debug_str:000000000001ef09 .LASF1456
C:\Users\CYMR90~1\AppData\Local\Temp\ccj5QhVO.s:30408  .debug_str:000000000002544b .LASF1457
C:\Users\CYMR90~1\AppData\Local\Temp\ccj5QhVO.s:22473  .debug_str:00000000000057da .LASF1458
C:\Users\CYMR90~1\AppData\Local\Temp\ccj5QhVO.s:28852  .debug_str:000000000001f3e5 .LASF1459
C:\Users\CYMR90~1\AppData\Local\Temp\ccj5QhVO.s:25703  .debug_str:000000000001281a .LASF1460
C:\Users\CYMR90~1\AppData\Local\Temp\ccj5QhVO.s:23809  .debug_str:000000000000adeb .LASF1461
C:\Users\CYMR90~1\AppData\Local\Temp\ccj5QhVO.s:24989  .debug_str:000000000000fa1a .LASF1462
C:\Users\CYMR90~1\AppData\Local\Temp\ccj5QhVO.s:25489  .debug_str:00000000000119f1 .LASF1463
C:\Users\CYMR90~1\AppData\Local\Temp\ccj5QhVO.s:26557  .debug_str:0000000000015e1f .LASF1464
C:\Users\CYMR90~1\AppData\Local\Temp\ccj5QhVO.s:31850  .debug_str:000000000002af14 .LASF1465
C:\Users\CYMR90~1\AppData\Local\Temp\ccj5QhVO.s:27746  .debug_str:000000000001ad84 .LASF1466
C:\Users\CYMR90~1\AppData\Local\Temp\ccj5QhVO.s:26169  .debug_str:000000000001463d .LASF1467
C:\Users\CYMR90~1\AppData\Local\Temp\ccj5QhVO.s:30856  .debug_str:0000000000027139 .LASF1468
C:\Users\CYMR90~1\AppData\Local\Temp\ccj5QhVO.s:25163  .debug_str:0000000000010486 .LASF1469
C:\Users\CYMR90~1\AppData\Local\Temp\ccj5QhVO.s:23255  .debug_str:0000000000008a3d .LASF1470
C:\Users\CYMR90~1\AppData\Local\Temp\ccj5QhVO.s:25459  .debug_str:0000000000011765 .LASF1471
C:\Users\CYMR90~1\AppData\Local\Temp\ccj5QhVO.s:27016  .debug_str:0000000000017d59 .LASF1472
C:\Users\CYMR90~1\AppData\Local\Temp\ccj5QhVO.s:30306  .debug_str:0000000000024d76 .LASF1473
C:\Users\CYMR90~1\AppData\Local\Temp\ccj5QhVO.s:30952  .debug_str:00000000000277aa .LASF1474
C:\Users\CYMR90~1\AppData\Local\Temp\ccj5QhVO.s:21277  .debug_str:0000000000000c76 .LASF1475
C:\Users\CYMR90~1\AppData\Local\Temp\ccj5QhVO.s:23183  .debug_str:00000000000085a3 .LASF1476
C:\Users\CYMR90~1\AppData\Local\Temp\ccj5QhVO.s:21797  .debug_str:0000000000002c5f .LASF1477
C:\Users\CYMR90~1\AppData\Local\Temp\ccj5QhVO.s:31134  .debug_str:0000000000028372 .LASF1478
C:\Users\CYMR90~1\AppData\Local\Temp\ccj5QhVO.s:30156  .debug_str:0000000000024365 .LASF1479
C:\Users\CYMR90~1\AppData\Local\Temp\ccj5QhVO.s:21919  .debug_str:000000000000343a .LASF1480
C:\Users\CYMR90~1\AppData\Local\Temp\ccj5QhVO.s:24161  .debug_str:000000000000c5d4 .LASF1481
C:\Users\CYMR90~1\AppData\Local\Temp\ccj5QhVO.s:30274  .debug_str:0000000000024b82 .LASF1482
C:\Users\CYMR90~1\AppData\Local\Temp\ccj5QhVO.s:23489  .debug_str:00000000000098fa .LASF1483
C:\Users\CYMR90~1\AppData\Local\Temp\ccj5QhVO.s:22299  .debug_str:0000000000004d5f .LASF1484
C:\Users\CYMR90~1\AppData\Local\Temp\ccj5QhVO.s:24719  .debug_str:000000000000e973 .LASF1485
C:\Users\CYMR90~1\AppData\Local\Temp\ccj5QhVO.s:26135  .debug_str:0000000000014478 .LASF1486
C:\Users\CYMR90~1\AppData\Local\Temp\ccj5QhVO.s:27730  .debug_str:000000000001ac90 .LASF1487
C:\Users\CYMR90~1\AppData\Local\Temp\ccj5QhVO.s:21107  .debug_str:0000000000000211 .LASF1488
C:\Users\CYMR90~1\AppData\Local\Temp\ccj5QhVO.s:26513  .debug_str:0000000000015b3d .LASF1489
C:\Users\CYMR90~1\AppData\Local\Temp\ccj5QhVO.s:24521  .debug_str:000000000000dd0b .LASF1490
C:\Users\CYMR90~1\AppData\Local\Temp\ccj5QhVO.s:31366  .debug_str:0000000000029292 .LASF1491
C:\Users\CYMR90~1\AppData\Local\Temp\ccj5QhVO.s:21767  .debug_str:0000000000002a4c .LASF1492
C:\Users\CYMR90~1\AppData\Local\Temp\ccj5QhVO.s:29334  .debug_str:00000000000210ee .LASF1493
C:\Users\CYMR90~1\AppData\Local\Temp\ccj5QhVO.s:31582  .debug_str:0000000000029f45 .LASF1494
C:\Users\CYMR90~1\AppData\Local\Temp\ccj5QhVO.s:22939  .debug_str:00000000000074db .LASF1495
C:\Users\CYMR90~1\AppData\Local\Temp\ccj5QhVO.s:30624  .debug_str:0000000000026360 .LASF1496
C:\Users\CYMR90~1\AppData\Local\Temp\ccj5QhVO.s:31336  .debug_str:00000000000290ae .LASF1497
C:\Users\CYMR90~1\AppData\Local\Temp\ccj5QhVO.s:22735  .debug_str:000000000000670e .LASF1498
C:\Users\CYMR90~1\AppData\Local\Temp\ccj5QhVO.s:23581  .debug_str:0000000000009eab .LASF1499
C:\Users\CYMR90~1\AppData\Local\Temp\ccj5QhVO.s:32270  .debug_str:000000000002caa7 .LASF1500
C:\Users\CYMR90~1\AppData\Local\Temp\ccj5QhVO.s:31498  .debug_str:0000000000029a4c .LASF1501
C:\Users\CYMR90~1\AppData\Local\Temp\ccj5QhVO.s:29236  .debug_str:0000000000020b1d .LASF1502
C:\Users\CYMR90~1\AppData\Local\Temp\ccj5QhVO.s:22713  .debug_str:00000000000065c1 .LASF1503
C:\Users\CYMR90~1\AppData\Local\Temp\ccj5QhVO.s:31584  .debug_str:0000000000029f53 .LASF1504
C:\Users\CYMR90~1\AppData\Local\Temp\ccj5QhVO.s:28610  .debug_str:000000000001e535 .LASF1505
C:\Users\CYMR90~1\AppData\Local\Temp\ccj5QhVO.s:27932  .debug_str:000000000001b949 .LASF1506
C:\Users\CYMR90~1\AppData\Local\Temp\ccj5QhVO.s:24839  .debug_str:000000000000f066 .LASF1507
C:\Users\CYMR90~1\AppData\Local\Temp\ccj5QhVO.s:29436  .debug_str:0000000000021782 .LASF1508
C:\Users\CYMR90~1\AppData\Local\Temp\ccj5QhVO.s:25647  .debug_str:000000000001248f .LASF1509
C:\Users\CYMR90~1\AppData\Local\Temp\ccj5QhVO.s:31238  .debug_str:0000000000028ae3 .LASF1510
C:\Users\CYMR90~1\AppData\Local\Temp\ccj5QhVO.s:30022  .debug_str:0000000000023afe .LASF1511
C:\Users\CYMR90~1\AppData\Local\Temp\ccj5QhVO.s:21961  .debug_str:00000000000036cf .LASF1512
C:\Users\CYMR90~1\AppData\Local\Temp\ccj5QhVO.s:26579  .debug_str:0000000000015fe6 .LASF1513
C:\Users\CYMR90~1\AppData\Local\Temp\ccj5QhVO.s:30432  .debug_str:0000000000025659 .LASF1514
C:\Users\CYMR90~1\AppData\Local\Temp\ccj5QhVO.s:28828  .debug_str:000000000001f28b .LASF1515
C:\Users\CYMR90~1\AppData\Local\Temp\ccj5QhVO.s:32012  .debug_str:000000000002b943 .LASF1516
C:\Users\CYMR90~1\AppData\Local\Temp\ccj5QhVO.s:28660  .debug_str:000000000001e842 .LASF1517
C:\Users\CYMR90~1\AppData\Local\Temp\ccj5QhVO.s:30658  .debug_str:0000000000026549 .LASF1518
C:\Users\CYMR90~1\AppData\Local\Temp\ccj5QhVO.s:25637  .debug_str:000000000001241e .LASF1519
C:\Users\CYMR90~1\AppData\Local\Temp\ccj5QhVO.s:29052  .debug_str:000000000001ffbd .LASF1520
C:\Users\CYMR90~1\AppData\Local\Temp\ccj5QhVO.s:28104  .debug_str:000000000001c3e9 .LASF1521
C:\Users\CYMR90~1\AppData\Local\Temp\ccj5QhVO.s:29372  .debug_str:00000000000212f1 .LASF1522
C:\Users\CYMR90~1\AppData\Local\Temp\ccj5QhVO.s:27384  .debug_str:00000000000194f8 .LASF1523
C:\Users\CYMR90~1\AppData\Local\Temp\ccj5QhVO.s:30024  .debug_str:0000000000023b14 .LASF1524
C:\Users\CYMR90~1\AppData\Local\Temp\ccj5QhVO.s:22369  .debug_str:0000000000005176 .LASF1525
C:\Users\CYMR90~1\AppData\Local\Temp\ccj5QhVO.s:28048  .debug_str:000000000001c076 .LASF1526
C:\Users\CYMR90~1\AppData\Local\Temp\ccj5QhVO.s:24183  .debug_str:000000000000c736 .LASF1527
C:\Users\CYMR90~1\AppData\Local\Temp\ccj5QhVO.s:29768  .debug_str:0000000000022ba3 .LASF1528
C:\Users\CYMR90~1\AppData\Local\Temp\ccj5QhVO.s:31030  .debug_str:0000000000027c16 .LASF1529
C:\Users\CYMR90~1\AppData\Local\Temp\ccj5QhVO.s:30266  .debug_str:0000000000024a6f .LASF1530
C:\Users\CYMR90~1\AppData\Local\Temp\ccj5QhVO.s:30332  .debug_str:0000000000024f01 .LASF1531
C:\Users\CYMR90~1\AppData\Local\Temp\ccj5QhVO.s:22121  .debug_str:0000000000004104 .LASF1532
C:\Users\CYMR90~1\AppData\Local\Temp\ccj5QhVO.s:27334  .debug_str:000000000001914d .LASF1533
C:\Users\CYMR90~1\AppData\Local\Temp\ccj5QhVO.s:30150  .debug_str:0000000000024225 .LASF1534
C:\Users\CYMR90~1\AppData\Local\Temp\ccj5QhVO.s:23743  .debug_str:000000000000a901 .LASF1535
C:\Users\CYMR90~1\AppData\Local\Temp\ccj5QhVO.s:30336  .debug_str:0000000000024f73 .LASF1536
C:\Users\CYMR90~1\AppData\Local\Temp\ccj5QhVO.s:29670  .debug_str:0000000000022583 .LASF1537
C:\Users\CYMR90~1\AppData\Local\Temp\ccj5QhVO.s:30904  .debug_str:0000000000027411 .LASF1538
C:\Users\CYMR90~1\AppData\Local\Temp\ccj5QhVO.s:30792  .debug_str:0000000000026d45 .LASF1539
C:\Users\CYMR90~1\AppData\Local\Temp\ccj5QhVO.s:25515  .debug_str:0000000000011c2a .LASF1540
C:\Users\CYMR90~1\AppData\Local\Temp\ccj5QhVO.s:31526  .debug_str:0000000000029bed .LASF1541
C:\Users\CYMR90~1\AppData\Local\Temp\ccj5QhVO.s:24499  .debug_str:000000000000dbf4 .LASF1542
C:\Users\CYMR90~1\AppData\Local\Temp\ccj5QhVO.s:21887  .debug_str:00000000000031ed .LASF1543
C:\Users\CYMR90~1\AppData\Local\Temp\ccj5QhVO.s:25073  .debug_str:000000000000ff15 .LASF1544
C:\Users\CYMR90~1\AppData\Local\Temp\ccj5QhVO.s:23121  .debug_str:000000000000818c .LASF1545
C:\Users\CYMR90~1\AppData\Local\Temp\ccj5QhVO.s:23589  .debug_str:0000000000009f24 .LASF1546
C:\Users\CYMR90~1\AppData\Local\Temp\ccj5QhVO.s:24239  .debug_str:000000000000cb31 .LASF1547
C:\Users\CYMR90~1\AppData\Local\Temp\ccj5QhVO.s:31112  .debug_str:00000000000281b7 .LASF1548
C:\Users\CYMR90~1\AppData\Local\Temp\ccj5QhVO.s:30594  .debug_str:0000000000026134 .LASF1549
C:\Users\CYMR90~1\AppData\Local\Temp\ccj5QhVO.s:27998  .debug_str:000000000001bce9 .LASF1550
C:\Users\CYMR90~1\AppData\Local\Temp\ccj5QhVO.s:25379  .debug_str:0000000000011267 .LASF1551
C:\Users\CYMR90~1\AppData\Local\Temp\ccj5QhVO.s:27966  .debug_str:000000000001bb18 .LASF1552
C:\Users\CYMR90~1\AppData\Local\Temp\ccj5QhVO.s:21345  .debug_str:0000000000001090 .LASF1553
C:\Users\CYMR90~1\AppData\Local\Temp\ccj5QhVO.s:21667  .debug_str:00000000000023b6 .LASF1554
C:\Users\CYMR90~1\AppData\Local\Temp\ccj5QhVO.s:28696  .debug_str:000000000001eaaa .LASF1555
C:\Users\CYMR90~1\AppData\Local\Temp\ccj5QhVO.s:27286  .debug_str:0000000000018e4e .LASF1556
C:\Users\CYMR90~1\AppData\Local\Temp\ccj5QhVO.s:27310  .debug_str:0000000000018fdd .LASF1557
C:\Users\CYMR90~1\AppData\Local\Temp\ccj5QhVO.s:24527  .debug_str:000000000000dd5f .LASF1558
C:\Users\CYMR90~1\AppData\Local\Temp\ccj5QhVO.s:25217  .debug_str:000000000001089c .LASF1559
C:\Users\CYMR90~1\AppData\Local\Temp\ccj5QhVO.s:30034  .debug_str:0000000000023b8d .LASF1560
C:\Users\CYMR90~1\AppData\Local\Temp\ccj5QhVO.s:30456  .debug_str:000000000002582b .LASF1561
C:\Users\CYMR90~1\AppData\Local\Temp\ccj5QhVO.s:25333  .debug_str:0000000000010fdd .LASF1562
C:\Users\CYMR90~1\AppData\Local\Temp\ccj5QhVO.s:22549  .debug_str:0000000000005c68 .LASF1563
C:\Users\CYMR90~1\AppData\Local\Temp\ccj5QhVO.s:32104  .debug_str:000000000002bf54 .LASF1564
C:\Users\CYMR90~1\AppData\Local\Temp\ccj5QhVO.s:22743  .debug_str:0000000000006777 .LASF1565
C:\Users\CYMR90~1\AppData\Local\Temp\ccj5QhVO.s:28404  .debug_str:000000000001d828 .LASF1566
C:\Users\CYMR90~1\AppData\Local\Temp\ccj5QhVO.s:27684  .debug_str:000000000001a940 .LASF1567
C:\Users\CYMR90~1\AppData\Local\Temp\ccj5QhVO.s:29170  .debug_str:00000000000206d6 .LASF1568
C:\Users\CYMR90~1\AppData\Local\Temp\ccj5QhVO.s:25513  .debug_str:0000000000011b83 .LASF1569
C:\Users\CYMR90~1\AppData\Local\Temp\ccj5QhVO.s:30486  .debug_str:0000000000025a46 .LASF1570
C:\Users\CYMR90~1\AppData\Local\Temp\ccj5QhVO.s:25909  .debug_str:0000000000013632 .LASF1571
C:\Users\CYMR90~1\AppData\Local\Temp\ccj5QhVO.s:22419  .debug_str:0000000000005483 .LASF1572
C:\Users\CYMR90~1\AppData\Local\Temp\ccj5QhVO.s:26321  .debug_str:0000000000014fdb .LASF1573
C:\Users\CYMR90~1\AppData\Local\Temp\ccj5QhVO.s:31224  .debug_str:0000000000028a0e .LASF1574
C:\Users\CYMR90~1\AppData\Local\Temp\ccj5QhVO.s:26792  .debug_str:0000000000016fa4 .LASF1575
C:\Users\CYMR90~1\AppData\Local\Temp\ccj5QhVO.s:24873  .debug_str:000000000000f270 .LASF1576
C:\Users\CYMR90~1\AppData\Local\Temp\ccj5QhVO.s:28700  .debug_str:000000000001eaec .LASF1577
C:\Users\CYMR90~1\AppData\Local\Temp\ccj5QhVO.s:31722  .debug_str:000000000002a746 .LASF1578
C:\Users\CYMR90~1\AppData\Local\Temp\ccj5QhVO.s:21677  .debug_str:0000000000002441 .LASF1579
C:\Users\CYMR90~1\AppData\Local\Temp\ccj5QhVO.s:28248  .debug_str:000000000001cd48 .LASF1580
C:\Users\CYMR90~1\AppData\Local\Temp\ccj5QhVO.s:23711  .debug_str:000000000000a6f6 .LASF1581
C:\Users\CYMR90~1\AppData\Local\Temp\ccj5QhVO.s:24417  .debug_str:000000000000d745 .LASF1582
C:\Users\CYMR90~1\AppData\Local\Temp\ccj5QhVO.s:23111  .debug_str:0000000000008060 .LASF1583
C:\Users\CYMR90~1\AppData\Local\Temp\ccj5QhVO.s:30906  .debug_str:000000000002742f .LASF1584
C:\Users\CYMR90~1\AppData\Local\Temp\ccj5QhVO.s:28502  .debug_str:000000000001de4b .LASF1585
C:\Users\CYMR90~1\AppData\Local\Temp\ccj5QhVO.s:32326  .debug_str:000000000002cdcb .LASF1586
C:\Users\CYMR90~1\AppData\Local\Temp\ccj5QhVO.s:24391  .debug_str:000000000000d4f0 .LASF1587
C:\Users\CYMR90~1\AppData\Local\Temp\ccj5QhVO.s:23073  .debug_str:0000000000007d68 .LASF1588
C:\Users\CYMR90~1\AppData\Local\Temp\ccj5QhVO.s:26767  .debug_str:0000000000016bf5 .LASF1589
C:\Users\CYMR90~1\AppData\Local\Temp\ccj5QhVO.s:23927  .debug_str:000000000000b5b4 .LASF1590
C:\Users\CYMR90~1\AppData\Local\Temp\ccj5QhVO.s:26691  .debug_str:0000000000016675 .LASF1591
C:\Users\CYMR90~1\AppData\Local\Temp\ccj5QhVO.s:23309  .debug_str:0000000000008d4e .LASF1592
C:\Users\CYMR90~1\AppData\Local\Temp\ccj5QhVO.s:25901  .debug_str:000000000001354d .LASF1593
C:\Users\CYMR90~1\AppData\Local\Temp\ccj5QhVO.s:25209  .debug_str:000000000001076d .LASF1594
C:\Users\CYMR90~1\AppData\Local\Temp\ccj5QhVO.s:31142  .debug_str:00000000000283f0 .LASF1595
C:\Users\CYMR90~1\AppData\Local\Temp\ccj5QhVO.s:21311  .debug_str:0000000000000e4a .LASF1596
C:\Users\CYMR90~1\AppData\Local\Temp\ccj5QhVO.s:28274  .debug_str:000000000001cf07 .LASF1597
C:\Users\CYMR90~1\AppData\Local\Temp\ccj5QhVO.s:22227  .debug_str:0000000000004863 .LASF1598
C:\Users\CYMR90~1\AppData\Local\Temp\ccj5QhVO.s:30410  .debug_str:000000000002545a .LASF1599
C:\Users\CYMR90~1\AppData\Local\Temp\ccj5QhVO.s:21455  .debug_str:00000000000016e6 .LASF1600
C:\Users\CYMR90~1\AppData\Local\Temp\ccj5QhVO.s:24961  .debug_str:000000000000f7af .LASF1601
C:\Users\CYMR90~1\AppData\Local\Temp\ccj5QhVO.s:29396  .debug_str:000000000002146f .LASF1602
C:\Users\CYMR90~1\AppData\Local\Temp\ccj5QhVO.s:28302  .debug_str:000000000001d153 .LASF1603
C:\Users\CYMR90~1\AppData\Local\Temp\ccj5QhVO.s:28194  .debug_str:000000000001c923 .LASF1604
C:\Users\CYMR90~1\AppData\Local\Temp\ccj5QhVO.s:30390  .debug_str:0000000000025299 .LASF1605
C:\Users\CYMR90~1\AppData\Local\Temp\ccj5QhVO.s:30308  .debug_str:0000000000024d8c .LASF1606
C:\Users\CYMR90~1\AppData\Local\Temp\ccj5QhVO.s:30260  .debug_str:0000000000024a1b .LASF1607
C:\Users\CYMR90~1\AppData\Local\Temp\ccj5QhVO.s:27230  .debug_str:0000000000018a16 .LASF1608
C:\Users\CYMR90~1\AppData\Local\Temp\ccj5QhVO.s:22205  .debug_str:00000000000046dd .LASF1609
C:\Users\CYMR90~1\AppData\Local\Temp\ccj5QhVO.s:29602  .debug_str:00000000000221a5 .LASF1610
C:\Users\CYMR90~1\AppData\Local\Temp\ccj5QhVO.s:28434  .debug_str:000000000001da4c .LASF1611
C:\Users\CYMR90~1\AppData\Local\Temp\ccj5QhVO.s:28142  .debug_str:000000000001c60d .LASF1612
C:\Users\CYMR90~1\AppData\Local\Temp\ccj5QhVO.s:23947  .debug_str:000000000000b780 .LASF1613
C:\Users\CYMR90~1\AppData\Local\Temp\ccj5QhVO.s:23575  .debug_str:0000000000009e4d .LASF1614
C:\Users\CYMR90~1\AppData\Local\Temp\ccj5QhVO.s:27834  .debug_str:000000000001b328 .LASF1615
C:\Users\CYMR90~1\AppData\Local\Temp\ccj5QhVO.s:29490  .debug_str:0000000000021ab1 .LASF1616
C:\Users\CYMR90~1\AppData\Local\Temp\ccj5QhVO.s:26295  .debug_str:0000000000014de2 .LASF1617
C:\Users\CYMR90~1\AppData\Local\Temp\ccj5QhVO.s:28206  .debug_str:000000000001ca9f .LASF1618
C:\Users\CYMR90~1\AppData\Local\Temp\ccj5QhVO.s:22251  .debug_str:0000000000004a6c .LASF1619
C:\Users\CYMR90~1\AppData\Local\Temp\ccj5QhVO.s:23967  .debug_str:000000000000b8e0 .LASF1620
C:\Users\CYMR90~1\AppData\Local\Temp\ccj5QhVO.s:24793  .debug_str:000000000000edeb .LASF1621
C:\Users\CYMR90~1\AppData\Local\Temp\ccj5QhVO.s:21825  .debug_str:0000000000002e21 .LASF1622
C:\Users\CYMR90~1\AppData\Local\Temp\ccj5QhVO.s:29200  .debug_str:00000000000208ca .LASF1623
C:\Users\CYMR90~1\AppData\Local\Temp\ccj5QhVO.s:25903  .debug_str:00000000000135e8 .LASF1624
C:\Users\CYMR90~1\AppData\Local\Temp\ccj5QhVO.s:24065  .debug_str:000000000000bfc6 .LASF1625
C:\Users\CYMR90~1\AppData\Local\Temp\ccj5QhVO.s:29898  .debug_str:000000000002330a .LASF1626
C:\Users\CYMR90~1\AppData\Local\Temp\ccj5QhVO.s:22739  .debug_str:0000000000006749 .LASF1627
C:\Users\CYMR90~1\AppData\Local\Temp\ccj5QhVO.s:28946  .debug_str:000000000001f93c .LASF1628
C:\Users\CYMR90~1\AppData\Local\Temp\ccj5QhVO.s:23821  .debug_str:000000000000aead .LASF1629
C:\Users\CYMR90~1\AppData\Local\Temp\ccj5QhVO.s:29680  .debug_str:00000000000225ef .LASF1630
C:\Users\CYMR90~1\AppData\Local\Temp\ccj5QhVO.s:23291  .debug_str:0000000000008c67 .LASF1631
C:\Users\CYMR90~1\AppData\Local\Temp\ccj5QhVO.s:21409  .debug_str:0000000000001458 .LASF1632
C:\Users\CYMR90~1\AppData\Local\Temp\ccj5QhVO.s:27944  .debug_str:000000000001ba30 .LASF1633
C:\Users\CYMR90~1\AppData\Local\Temp\ccj5QhVO.s:26926  .debug_str:0000000000017793 .LASF1634
C:\Users\CYMR90~1\AppData\Local\Temp\ccj5QhVO.s:24047  .debug_str:000000000000be49 .LASF1635
C:\Users\CYMR90~1\AppData\Local\Temp\ccj5QhVO.s:24155  .debug_str:000000000000c58e .LASF1636
C:\Users\CYMR90~1\AppData\Local\Temp\ccj5QhVO.s:22841  .debug_str:0000000000006e1b .LASF1637
C:\Users\CYMR90~1\AppData\Local\Temp\ccj5QhVO.s:24223  .debug_str:000000000000ca1e .LASF1638
C:\Users\CYMR90~1\AppData\Local\Temp\ccj5QhVO.s:23937  .debug_str:000000000000b6d9 .LASF1639
C:\Users\CYMR90~1\AppData\Local\Temp\ccj5QhVO.s:27134  .debug_str:0000000000018467 .LASF1640
C:\Users\CYMR90~1\AppData\Local\Temp\ccj5QhVO.s:25169  .debug_str:00000000000104e2 .LASF1641
C:\Users\CYMR90~1\AppData\Local\Temp\ccj5QhVO.s:30250  .debug_str:000000000002497f .LASF1642
C:\Users\CYMR90~1\AppData\Local\Temp\ccj5QhVO.s:25523  .debug_str:0000000000011ccb .LASF1643
C:\Users\CYMR90~1\AppData\Local\Temp\ccj5QhVO.s:29088  .debug_str:00000000000201f1 .LASF1644
C:\Users\CYMR90~1\AppData\Local\Temp\ccj5QhVO.s:32196  .debug_str:000000000002c5f8 .LASF1645
C:\Users\CYMR90~1\AppData\Local\Temp\ccj5QhVO.s:21815  .debug_str:0000000000002d99 .LASF1646
C:\Users\CYMR90~1\AppData\Local\Temp\ccj5QhVO.s:26729  .debug_str:000000000001694b .LASF1647
C:\Users\CYMR90~1\AppData\Local\Temp\ccj5QhVO.s:26840  .debug_str:00000000000172a2 .LASF1648
C:\Users\CYMR90~1\AppData\Local\Temp\ccj5QhVO.s:21615  .debug_str:00000000000020c3 .LASF1649
C:\Users\CYMR90~1\AppData\Local\Temp\ccj5QhVO.s:23137  .debug_str:00000000000082c3 .LASF1650
C:\Users\CYMR90~1\AppData\Local\Temp\ccj5QhVO.s:29914  .debug_str:0000000000023407 .LASF1651
C:\Users\CYMR90~1\AppData\Local\Temp\ccj5QhVO.s:25267  .debug_str:0000000000010b13 .LASF1652
C:\Users\CYMR90~1\AppData\Local\Temp\ccj5QhVO.s:23031  .debug_str:0000000000007a90 .LASF1653
C:\Users\CYMR90~1\AppData\Local\Temp\ccj5QhVO.s:21349  .debug_str:00000000000010e7 .LASF1654
C:\Users\CYMR90~1\AppData\Local\Temp\ccj5QhVO.s:27028  .debug_str:0000000000017e02 .LASF1657
C:\Users\CYMR90~1\AppData\Local\Temp\ccj5QhVO.s:31774  .debug_str:000000000002aa90 .LASF1658
C:\Users\CYMR90~1\AppData\Local\Temp\ccj5QhVO.s:25301  .debug_str:0000000000010e55 .LASF1659
C:\Users\CYMR90~1\AppData\Local\Temp\ccj5QhVO.s:27358  .debug_str:0000000000019394 .LASF1660
C:\Users\CYMR90~1\AppData\Local\Temp\ccj5QhVO.s:32008  .debug_str:000000000002b904 .LASF1661
C:\Users\CYMR90~1\AppData\Local\Temp\ccj5QhVO.s:32038  .debug_str:000000000002bb25 .LASF1662
C:\Users\CYMR90~1\AppData\Local\Temp\ccj5QhVO.s:29286  .debug_str:0000000000020e2d .LASF1663
C:\Users\CYMR90~1\AppData\Local\Temp\ccj5QhVO.s:26255  .debug_str:0000000000014b3e .LASF1664
C:\Users\CYMR90~1\AppData\Local\Temp\ccj5QhVO.s:28450  .debug_str:000000000001db4a .LASF1665
C:\Users\CYMR90~1\AppData\Local\Temp\ccj5QhVO.s:29374  .debug_str:000000000002130c .LASF1666
C:\Users\CYMR90~1\AppData\Local\Temp\ccj5QhVO.s:30482  .debug_str:0000000000025a02 .LASF1667
C:\Users\CYMR90~1\AppData\Local\Temp\ccj5QhVO.s:24705  .debug_str:000000000000e86e .LASF1668
C:\Users\CYMR90~1\AppData\Local\Temp\ccj5QhVO.s:22045  .debug_str:0000000000003c2e .LASF1669
C:\Users\CYMR90~1\AppData\Local\Temp\ccj5QhVO.s:23329  .debug_str:0000000000008f1a .LASF1670
C:\Users\CYMR90~1\AppData\Local\Temp\ccj5QhVO.s:22265  .debug_str:0000000000004b4a .LASF1671
C:\Users\CYMR90~1\AppData\Local\Temp\ccj5QhVO.s:21157  .debug_str:00000000000004ec .LASF1672
C:\Users\CYMR90~1\AppData\Local\Temp\ccj5QhVO.s:22845  .debug_str:0000000000006e49 .LASF1673
C:\Users\CYMR90~1\AppData\Local\Temp\ccj5QhVO.s:25595  .debug_str:00000000000120f5 .LASF1674
C:\Users\CYMR90~1\AppData\Local\Temp\ccj5QhVO.s:24743  .debug_str:000000000000ead0 .LASF1675
C:\Users\CYMR90~1\AppData\Local\Temp\ccj5QhVO.s:30272  .debug_str:0000000000024b68 .LASF1676
C:\Users\CYMR90~1\AppData\Local\Temp\ccj5QhVO.s:25729  .debug_str:00000000000129d0 .LASF1677
C:\Users\CYMR90~1\AppData\Local\Temp\ccj5QhVO.s:32198  .debug_str:000000000002c60d .LASF1678
C:\Users\CYMR90~1\AppData\Local\Temp\ccj5QhVO.s:21725  .debug_str:0000000000002763 .LASF1679
C:\Users\CYMR90~1\AppData\Local\Temp\ccj5QhVO.s:25247  .debug_str:0000000000010a25 .LASF1680
C:\Users\CYMR90~1\AppData\Local\Temp\ccj5QhVO.s:26425  .debug_str:000000000001563c .LASF1681
C:\Users\CYMR90~1\AppData\Local\Temp\ccj5QhVO.s:25093  .debug_str:000000000001007a .LASF1682
C:\Users\CYMR90~1\AppData\Local\Temp\ccj5QhVO.s:27788  .debug_str:000000000001afec .LASF1683
C:\Users\CYMR90~1\AppData\Local\Temp\ccj5QhVO.s:29862  .debug_str:0000000000023161 .LASF1684
C:\Users\CYMR90~1\AppData\Local\Temp\ccj5QhVO.s:30784  .debug_str:0000000000026cea .LASF1685
C:\Users\CYMR90~1\AppData\Local\Temp\ccj5QhVO.s:25245  .debug_str:0000000000010a0d .LASF1686
C:\Users\CYMR90~1\AppData\Local\Temp\ccj5QhVO.s:29182  .debug_str:00000000000207d4 .LASF1687
C:\Users\CYMR90~1\AppData\Local\Temp\ccj5QhVO.s:31514  .debug_str:0000000000029b29 .LASF1688
C:\Users\CYMR90~1\AppData\Local\Temp\ccj5QhVO.s:30050  .debug_str:0000000000023c97 .LASF1689
C:\Users\CYMR90~1\AppData\Local\Temp\ccj5QhVO.s:27906  .debug_str:000000000001b796 .LASF1690
C:\Users\CYMR90~1\AppData\Local\Temp\ccj5QhVO.s:25995  .debug_str:0000000000013bba .LASF1691
C:\Users\CYMR90~1\AppData\Local\Temp\ccj5QhVO.s:29584  .debug_str:00000000000220a1 .LASF1692
C:\Users\CYMR90~1\AppData\Local\Temp\ccj5QhVO.s:27218  .debug_str:0000000000018979 .LASF1693
C:\Users\CYMR90~1\AppData\Local\Temp\ccj5QhVO.s:23131  .debug_str:000000000000824f .LASF1694
C:\Users\CYMR90~1\AppData\Local\Temp\ccj5QhVO.s:25165  .debug_str:0000000000010496 .LASF1695
C:\Users\CYMR90~1\AppData\Local\Temp\ccj5QhVO.s:27000  .debug_str:0000000000017c69 .LASF1696
C:\Users\CYMR90~1\AppData\Local\Temp\ccj5QhVO.s:26303  .debug_str:0000000000014e75 .LASF1697
C:\Users\CYMR90~1\AppData\Local\Temp\ccj5QhVO.s:28842  .debug_str:000000000001f344 .LASF1698
C:\Users\CYMR90~1\AppData\Local\Temp\ccj5QhVO.s:27394  .debug_str:00000000000195ad .LASF1699
C:\Users\CYMR90~1\AppData\Local\Temp\ccj5QhVO.s:29298  .debug_str:0000000000020ef2 .LASF1700
C:\Users\CYMR90~1\AppData\Local\Temp\ccj5QhVO.s:28838  .debug_str:000000000001f307 .LASF1701
C:\Users\CYMR90~1\AppData\Local\Temp\ccj5QhVO.s:30098  .debug_str:0000000000023f56 .LASF1702
C:\Users\CYMR90~1\AppData\Local\Temp\ccj5QhVO.s:30056  .debug_str:0000000000023ce6 .LASF1703
C:\Users\CYMR90~1\AppData\Local\Temp\ccj5QhVO.s:29574  .debug_str:0000000000022007 .LASF1704
C:\Users\CYMR90~1\AppData\Local\Temp\ccj5QhVO.s:28030  .debug_str:000000000001bf22 .LASF1705
C:\Users\CYMR90~1\AppData\Local\Temp\ccj5QhVO.s:29438  .debug_str:0000000000021796 .LASF1706
C:\Users\CYMR90~1\AppData\Local\Temp\ccj5QhVO.s:26912  .debug_str:0000000000017693 .LASF1707
C:\Users\CYMR90~1\AppData\Local\Temp\ccj5QhVO.s:25905  .debug_str:00000000000135fb .LASF1708
C:\Users\CYMR90~1\AppData\Local\Temp\ccj5QhVO.s:28590  .debug_str:000000000001e41d .LASF1709
C:\Users\CYMR90~1\AppData\Local\Temp\ccj5QhVO.s:27136  .debug_str:000000000001847c .LASF1710
C:\Users\CYMR90~1\AppData\Local\Temp\ccj5QhVO.s:30986  .debug_str:0000000000027976 .LASF1711
C:\Users\CYMR90~1\AppData\Local\Temp\ccj5QhVO.s:25543  .debug_str:0000000000011dde .LASF1712
C:\Users\CYMR90~1\AppData\Local\Temp\ccj5QhVO.s:22661  .debug_str:00000000000062ad .LASF1713
C:\Users\CYMR90~1\AppData\Local\Temp\ccj5QhVO.s:25007  .debug_str:000000000000faed .LASF1714
C:\Users\CYMR90~1\AppData\Local\Temp\ccj5QhVO.s:21939  .debug_str:000000000000358b .LASF1715
C:\Users\CYMR90~1\AppData\Local\Temp\ccj5QhVO.s:25243  .debug_str:00000000000109e1 .LASF1716
C:\Users\CYMR90~1\AppData\Local\Temp\ccj5QhVO.s:28558  .debug_str:000000000001e21d .LASF1717
C:\Users\CYMR90~1\AppData\Local\Temp\ccj5QhVO.s:27100  .debug_str:0000000000018249 .LASF1718
C:\Users\CYMR90~1\AppData\Local\Temp\ccj5QhVO.s:25487  .debug_str:0000000000011943 .LASF1719
C:\Users\CYMR90~1\AppData\Local\Temp\ccj5QhVO.s:27458  .debug_str:00000000000199bd .LASF1720
C:\Users\CYMR90~1\AppData\Local\Temp\ccj5QhVO.s:25987  .debug_str:0000000000013b37 .LASF1721
C:\Users\CYMR90~1\AppData\Local\Temp\ccj5QhVO.s:21653  .debug_str:00000000000022fd .LASF1722
C:\Users\CYMR90~1\AppData\Local\Temp\ccj5QhVO.s:27796  .debug_str:000000000001b08b .LASF1723
C:\Users\CYMR90~1\AppData\Local\Temp\ccj5QhVO.s:21717  .debug_str:00000000000026ed .LASF1724
C:\Users\CYMR90~1\AppData\Local\Temp\ccj5QhVO.s:26491  .debug_str:00000000000159e3 .LASF1725
C:\Users\CYMR90~1\AppData\Local\Temp\ccj5QhVO.s:31312  .debug_str:0000000000028f03 .LASF1726
C:\Users\CYMR90~1\AppData\Local\Temp\ccj5QhVO.s:29718  .debug_str:000000000002286e .LASF1727
C:\Users\CYMR90~1\AppData\Local\Temp\ccj5QhVO.s:30954  .debug_str:00000000000277be .LASF1728
C:\Users\CYMR90~1\AppData\Local\Temp\ccj5QhVO.s:28246  .debug_str:000000000001cd11 .LASF1729
C:\Users\CYMR90~1\AppData\Local\Temp\ccj5QhVO.s:32108  .debug_str:000000000002c013 .LASF1730
C:\Users\CYMR90~1\AppData\Local\Temp\ccj5QhVO.s:30774  .debug_str:0000000000026c4f .LASF1731
C:\Users\CYMR90~1\AppData\Local\Temp\ccj5QhVO.s:25417  .debug_str:0000000000011494 .LASF1732
C:\Users\CYMR90~1\AppData\Local\Temp\ccj5QhVO.s:23437  .debug_str:0000000000009538 .LASF1733
C:\Users\CYMR90~1\AppData\Local\Temp\ccj5QhVO.s:21413  .debug_str:000000000000147c .LASF1734
C:\Users\CYMR90~1\AppData\Local\Temp\ccj5QhVO.s:26870  .debug_str:000000000001743d .LASF1735
C:\Users\CYMR90~1\AppData\Local\Temp\ccj5QhVO.s:29014  .debug_str:000000000001fd6f .LASF1736
C:\Users\CYMR90~1\AppData\Local\Temp\ccj5QhVO.s:23429  .debug_str:00000000000094c2 .LASF1737
C:\Users\CYMR90~1\AppData\Local\Temp\ccj5QhVO.s:23151  .debug_str:000000000000839f .LASF1738
C:\Users\CYMR90~1\AppData\Local\Temp\ccj5QhVO.s:30780  .debug_str:0000000000026cbb .LASF1739
C:\Users\CYMR90~1\AppData\Local\Temp\ccj5QhVO.s:24767  .debug_str:000000000000ec5e .LASF1740
C:\Users\CYMR90~1\AppData\Local\Temp\ccj5QhVO.s:23775  .debug_str:000000000000abb5 .LASF1741
C:\Users\CYMR90~1\AppData\Local\Temp\ccj5QhVO.s:28864  .debug_str:000000000001f499 .LASF1742
C:\Users\CYMR90~1\AppData\Local\Temp\ccj5QhVO.s:24271  .debug_str:000000000000cd65 .LASF1743
C:\Users\CYMR90~1\AppData\Local\Temp\ccj5QhVO.s:31066  .debug_str:0000000000027e9e .LASF1744
C:\Users\CYMR90~1\AppData\Local\Temp\ccj5QhVO.s:23155  .debug_str:00000000000083e9 .LASF1745
C:\Users\CYMR90~1\AppData\Local\Temp\ccj5QhVO.s:25065  .debug_str:000000000000fe88 .LASF1746
C:\Users\CYMR90~1\AppData\Local\Temp\ccj5QhVO.s:30102  .debug_str:0000000000023f9c .LASF1747
C:\Users\CYMR90~1\AppData\Local\Temp\ccj5QhVO.s:29688  .debug_str:0000000000022680 .LASF1748
C:\Users\CYMR90~1\AppData\Local\Temp\ccj5QhVO.s:25241  .debug_str:00000000000109be .LASF1749
C:\Users\CYMR90~1\AppData\Local\Temp\ccj5QhVO.s:23933  .debug_str:000000000000b690 .LASF1750
C:\Users\CYMR90~1\AppData\Local\Temp\ccj5QhVO.s:27034  .debug_str:0000000000017e58 .LASF1751
C:\Users\CYMR90~1\AppData\Local\Temp\ccj5QhVO.s:22301  .debug_str:0000000000004d73 .LASF1752
C:\Users\CYMR90~1\AppData\Local\Temp\ccj5QhVO.s:27770  .debug_str:000000000001aee4 .LASF1753
C:\Users\CYMR90~1\AppData\Local\Temp\ccj5QhVO.s:27668  .debug_str:000000000001a81c .LASF1754
C:\Users\CYMR90~1\AppData\Local\Temp\ccj5QhVO.s:24213  .debug_str:000000000000c91d .LASF1755
C:\Users\CYMR90~1\AppData\Local\Temp\ccj5QhVO.s:25797  .debug_str:0000000000012e65 .LASF1756
C:\Users\CYMR90~1\AppData\Local\Temp\ccj5QhVO.s:27864  .debug_str:000000000001b51e .LASF1757
C:\Users\CYMR90~1\AppData\Local\Temp\ccj5QhVO.s:24861  .debug_str:000000000000f183 .LASF1758
C:\Users\CYMR90~1\AppData\Local\Temp\ccj5QhVO.s:22969  .debug_str:0000000000007697 .LASF1759
C:\Users\CYMR90~1\AppData\Local\Temp\ccj5QhVO.s:27606  .debug_str:000000000001a31f .LASF1760
C:\Users\CYMR90~1\AppData\Local\Temp\ccj5QhVO.s:23257  .debug_str:0000000000008a4f .LASF1761
C:\Users\CYMR90~1\AppData\Local\Temp\ccj5QhVO.s:21475  .debug_str:00000000000018bd .LASF1762
C:\Users\CYMR90~1\AppData\Local\Temp\ccj5QhVO.s:30288  .debug_str:0000000000024c37 .LASF1763
C:\Users\CYMR90~1\AppData\Local\Temp\ccj5QhVO.s:23001  .debug_str:00000000000078b2 .LASF1764
C:\Users\CYMR90~1\AppData\Local\Temp\ccj5QhVO.s:22675  .debug_str:00000000000063a6 .LASF1765
C:\Users\CYMR90~1\AppData\Local\Temp\ccj5QhVO.s:23459  .debug_str:00000000000096e1 .LASF1766
C:\Users\CYMR90~1\AppData\Local\Temp\ccj5QhVO.s:27972  .debug_str:000000000001bb71 .LASF1767
C:\Users\CYMR90~1\AppData\Local\Temp\ccj5QhVO.s:21521  .debug_str:0000000000001b8d .LASF1768
C:\Users\CYMR90~1\AppData\Local\Temp\ccj5QhVO.s:26191  .debug_str:0000000000014773 .LASF1769
C:\Users\CYMR90~1\AppData\Local\Temp\ccj5QhVO.s:32182  .debug_str:000000000002c509 .LASF1770
C:\Users\CYMR90~1\AppData\Local\Temp\ccj5QhVO.s:24099  .debug_str:000000000000c1ee .LASF1771
C:\Users\CYMR90~1\AppData\Local\Temp\ccj5QhVO.s:23683  .debug_str:000000000000a55f .LASF1772
C:\Users\CYMR90~1\AppData\Local\Temp\ccj5QhVO.s:32244  .debug_str:000000000002c8a5 .LASF1773
C:\Users\CYMR90~1\AppData\Local\Temp\ccj5QhVO.s:21241  .debug_str:00000000000009dc .LASF1774
C:\Users\CYMR90~1\AppData\Local\Temp\ccj5QhVO.s:31214  .debug_str:000000000002894f .LASF1775
C:\Users\CYMR90~1\AppData\Local\Temp\ccj5QhVO.s:26205  .debug_str:0000000000014879 .LASF1776
C:\Users\CYMR90~1\AppData\Local\Temp\ccj5QhVO.s:24941  .debug_str:000000000000f693 .LASF1777
C:\Users\CYMR90~1\AppData\Local\Temp\ccj5QhVO.s:27024  .debug_str:0000000000017dd1 .LASF1778
C:\Users\CYMR90~1\AppData\Local\Temp\ccj5QhVO.s:22395  .debug_str:0000000000005318 .LASF1779
C:\Users\CYMR90~1\AppData\Local\Temp\ccj5QhVO.s:30528  .debug_str:0000000000025d7a .LASF1780
C:\Users\CYMR90~1\AppData\Local\Temp\ccj5QhVO.s:29722  .debug_str:00000000000228d7 .LASF1781
C:\Users\CYMR90~1\AppData\Local\Temp\ccj5QhVO.s:28254  .debug_str:000000000001cdb3 .LASF1784
C:\Users\CYMR90~1\AppData\Local\Temp\ccj5QhVO.s:27406  .debug_str:0000000000019660 .LASF1785
C:\Users\CYMR90~1\AppData\Local\Temp\ccj5QhVO.s:27252  .debug_str:0000000000018b81 .LASF1786
C:\Users\CYMR90~1\AppData\Local\Temp\ccj5QhVO.s:26243  .debug_str:0000000000014aa7 .LASF1787
C:\Users\CYMR90~1\AppData\Local\Temp\ccj5QhVO.s:31648  .debug_str:000000000002a2d9 .LASF1788
C:\Users\CYMR90~1\AppData\Local\Temp\ccj5QhVO.s:31958  .debug_str:000000000002b5d9 .LASF1789
C:\Users\CYMR90~1\AppData\Local\Temp\ccj5QhVO.s:21981  .debug_str:0000000000003858 .LASF1790
C:\Users\CYMR90~1\AppData\Local\Temp\ccj5QhVO.s:21103  .debug_str:00000000000001db .LASF1791
C:\Users\CYMR90~1\AppData\Local\Temp\ccj5QhVO.s:30868  .debug_str:00000000000271dc .LASF1792
C:\Users\CYMR90~1\AppData\Local\Temp\ccj5QhVO.s:29944  .debug_str:00000000000235b3 .LASF1793
C:\Users\CYMR90~1\AppData\Local\Temp\ccj5QhVO.s:31842  .debug_str:000000000002ae7c .LASF1794
C:\Users\CYMR90~1\AppData\Local\Temp\ccj5QhVO.s:31146  .debug_str:00000000000284c1 .LASF1795
C:\Users\CYMR90~1\AppData\Local\Temp\ccj5QhVO.s:25917  .debug_str:00000000000136c5 .LASF1796
C:\Users\CYMR90~1\AppData\Local\Temp\ccj5QhVO.s:26195  .debug_str:00000000000147a4 .LASF1797
C:\Users\CYMR90~1\AppData\Local\Temp\ccj5QhVO.s:25305  .debug_str:0000000000010e72 .LASF1798
C:\Users\CYMR90~1\AppData\Local\Temp\ccj5QhVO.s:24127  .debug_str:000000000000c3dd .LASF1799
C:\Users\CYMR90~1\AppData\Local\Temp\ccj5QhVO.s:26942  .debug_str:0000000000017885 .LASF1800
C:\Users\CYMR90~1\AppData\Local\Temp\ccj5QhVO.s:27244  .debug_str:0000000000018b10 .LASF1801
C:\Users\CYMR90~1\AppData\Local\Temp\ccj5QhVO.s:26325  .debug_str:0000000000015015 .LASF1802
C:\Users\CYMR90~1\AppData\Local\Temp\ccj5QhVO.s:25363  .debug_str:0000000000011185 .LASF1803
C:\Users\CYMR90~1\AppData\Local\Temp\ccj5QhVO.s:24841  .debug_str:000000000000f07d .LASF1804
C:\Users\CYMR90~1\AppData\Local\Temp\ccj5QhVO.s:29522  .debug_str:0000000000021ccc .LASF1805
C:\Users\CYMR90~1\AppData\Local\Temp\ccj5QhVO.s:26213  .debug_str:00000000000148fd .LASF1806
C:\Users\CYMR90~1\AppData\Local\Temp\ccj5QhVO.s:29128  .debug_str:0000000000020400 .LASF1807
C:\Users\CYMR90~1\AppData\Local\Temp\ccj5QhVO.s:26349  .debug_str:00000000000151a7 .LASF1808
C:\Users\CYMR90~1\AppData\Local\Temp\ccj5QhVO.s:31138  .debug_str:00000000000283af .LASF1809
C:\Users\CYMR90~1\AppData\Local\Temp\ccj5QhVO.s:28348  .debug_str:000000000001d4b3 .LASF1810
C:\Users\CYMR90~1\AppData\Local\Temp\ccj5QhVO.s:27040  .debug_str:0000000000017ecd .LASF1811
C:\Users\CYMR90~1\AppData\Local\Temp\ccj5QhVO.s:21437  .debug_str:00000000000015d1 .LASF1812
C:\Users\CYMR90~1\AppData\Local\Temp\ccj5QhVO.s:25253  .debug_str:0000000000010a6b .LASF1813
C:\Users\CYMR90~1\AppData\Local\Temp\ccj5QhVO.s:25527  .debug_str:0000000000011cfd .LASF1814
C:\Users\CYMR90~1\AppData\Local\Temp\ccj5QhVO.s:28330  .debug_str:000000000001d3bb .LASF1815
C:\Users\CYMR90~1\AppData\Local\Temp\ccj5QhVO.s:27006  .debug_str:0000000000017cdb .LASF1816
C:\Users\CYMR90~1\AppData\Local\Temp\ccj5QhVO.s:28338  .debug_str:000000000001d439 .LASF1817
C:\Users\CYMR90~1\AppData\Local\Temp\ccj5QhVO.s:28788  .debug_str:000000000001efdf .LASF1818
C:\Users\CYMR90~1\AppData\Local\Temp\ccj5QhVO.s:25063  .debug_str:000000000000fe73 .LASF1819
C:\Users\CYMR90~1\AppData\Local\Temp\ccj5QhVO.s:29268  .debug_str:0000000000020d08 .LASF1820
C:\Users\CYMR90~1\AppData\Local\Temp\ccj5QhVO.s:22705  .debug_str:0000000000006555 .LASF1821
C:\Users\CYMR90~1\AppData\Local\Temp\ccj5QhVO.s:23093  .debug_str:0000000000007f33 .LASF1822
C:\Users\CYMR90~1\AppData\Local\Temp\ccj5QhVO.s:28720  .debug_str:000000000001ec21 .LASF1823
C:\Users\CYMR90~1\AppData\Local\Temp\ccj5QhVO.s:31424  .debug_str:00000000000295d9 .LASF1824
C:\Users\CYMR90~1\AppData\Local\Temp\ccj5QhVO.s:24005  .debug_str:000000000000bb90 .LASF1825
C:\Users\CYMR90~1\AppData\Local\Temp\ccj5QhVO.s:29362  .debug_str:0000000000021256 .LASF1826
C:\Users\CYMR90~1\AppData\Local\Temp\ccj5QhVO.s:31780  .debug_str:000000000002aaca .LASF1827
C:\Users\CYMR90~1\AppData\Local\Temp\ccj5QhVO.s:24811  .debug_str:000000000000eedd .LASF1828
C:\Users\CYMR90~1\AppData\Local\Temp\ccj5QhVO.s:24881  .debug_str:000000000000f2ff .LASF1829
C:\Users\CYMR90~1\AppData\Local\Temp\ccj5QhVO.s:25675  .debug_str:000000000001266d .LASF1830
C:\Users\CYMR90~1\AppData\Local\Temp\ccj5QhVO.s:23457  .debug_str:00000000000096cb .LASF1831
C:\Users\CYMR90~1\AppData\Local\Temp\ccj5QhVO.s:30810  .debug_str:0000000000026e47 .LASF1832
C:\Users\CYMR90~1\AppData\Local\Temp\ccj5QhVO.s:24269  .debug_str:000000000000cd4a .LASF1833
C:\Users\CYMR90~1\AppData\Local\Temp\ccj5QhVO.s:22911  .debug_str:000000000000730e .LASF1834
C:\Users\CYMR90~1\AppData\Local\Temp\ccj5QhVO.s:26641  .debug_str:00000000000163ae .LASF1835
C:\Users\CYMR90~1\AppData\Local\Temp\ccj5QhVO.s:30672  .debug_str:0000000000026618 .LASF1836
C:\Users\CYMR90~1\AppData\Local\Temp\ccj5QhVO.s:26611  .debug_str:00000000000161ee .LASF1837
C:\Users\CYMR90~1\AppData\Local\Temp\ccj5QhVO.s:27332  .debug_str:0000000000019135 .LASF1838
C:\Users\CYMR90~1\AppData\Local\Temp\ccj5QhVO.s:25309  .debug_str:0000000000010eaa .LASF1839
C:\Users\CYMR90~1\AppData\Local\Temp\ccj5QhVO.s:28286  .debug_str:000000000001d043 .LASF1840
C:\Users\CYMR90~1\AppData\Local\Temp\ccj5QhVO.s:27568  .debug_str:000000000001a102 .LASF1841
C:\Users\CYMR90~1\AppData\Local\Temp\ccj5QhVO.s:30370  .debug_str:000000000002517c .LASF1842
C:\Users\CYMR90~1\AppData\Local\Temp\ccj5QhVO.s:30764  .debug_str:0000000000026bae .LASF1843
C:\Users\CYMR90~1\AppData\Local\Temp\ccj5QhVO.s:31976  .debug_str:000000000002b729 .LASF1844
C:\Users\CYMR90~1\AppData\Local\Temp\ccj5QhVO.s:31836  .debug_str:000000000002ae29 .LASF1845
C:\Users\CYMR90~1\AppData\Local\Temp\ccj5QhVO.s:23191  .debug_str:0000000000008631 .LASF1846
C:\Users\CYMR90~1\AppData\Local\Temp\ccj5QhVO.s:28486  .debug_str:000000000001dd4c .LASF1847
C:\Users\CYMR90~1\AppData\Local\Temp\ccj5QhVO.s:29628  .debug_str:000000000002232e .LASF1848
C:\Users\CYMR90~1\AppData\Local\Temp\ccj5QhVO.s:29642  .debug_str:0000000000022401 .LASF1849
C:\Users\CYMR90~1\AppData\Local\Temp\ccj5QhVO.s:28874  .debug_str:000000000001f537 .LASF1850
C:\Users\CYMR90~1\AppData\Local\Temp\ccj5QhVO.s:23249  .debug_str:00000000000089cc .LASF1851
C:\Users\CYMR90~1\AppData\Local\Temp\ccj5QhVO.s:30716  .debug_str:00000000000268d8 .LASF1852
C:\Users\CYMR90~1\AppData\Local\Temp\ccj5QhVO.s:24501  .debug_str:000000000000dc11 .LASF1853
C:\Users\CYMR90~1\AppData\Local\Temp\ccj5QhVO.s:21893  .debug_str:0000000000003281 .LASF1854
C:\Users\CYMR90~1\AppData\Local\Temp\ccj5QhVO.s:28368  .debug_str:000000000001d5f8 .LASF1855
C:\Users\CYMR90~1\AppData\Local\Temp\ccj5QhVO.s:30992  .debug_str:00000000000279e4 .LASF1856
C:\Users\CYMR90~1\AppData\Local\Temp\ccj5QhVO.s:28108  .debug_str:000000000001c425 .LASF1857
C:\Users\CYMR90~1\AppData\Local\Temp\ccj5QhVO.s:24195  .debug_str:000000000000c810 .LASF1858
C:\Users\CYMR90~1\AppData\Local\Temp\ccj5QhVO.s:31088  .debug_str:0000000000028025 .LASF1859
C:\Users\CYMR90~1\AppData\Local\Temp\ccj5QhVO.s:26357  .debug_str:000000000001522e .LASF1860
C:\Users\CYMR90~1\AppData\Local\Temp\ccj5QhVO.s:27274  .debug_str:0000000000018d7f .LASF1861
C:\Users\CYMR90~1\AppData\Local\Temp\ccj5QhVO.s:25111  .debug_str:0000000000010172 .LASF1862
C:\Users\CYMR90~1\AppData\Local\Temp\ccj5QhVO.s:22863  .debug_str:0000000000006f70 .LASF1863
C:\Users\CYMR90~1\AppData\Local\Temp\ccj5QhVO.s:27184  .debug_str:0000000000018755 .LASF1864
C:\Users\CYMR90~1\AppData\Local\Temp\ccj5QhVO.s:22503  .debug_str:000000000000598b .LASF1865
C:\Users\CYMR90~1\AppData\Local\Temp\ccj5QhVO.s:29830  .debug_str:0000000000022f8e .LASF1866
C:\Users\CYMR90~1\AppData\Local\Temp\ccj5QhVO.s:29058  .debug_str:0000000000020023 .LASF1867
C:\Users\CYMR90~1\AppData\Local\Temp\ccj5QhVO.s:24125  .debug_str:000000000000c3ad .LASF1868
C:\Users\CYMR90~1\AppData\Local\Temp\ccj5QhVO.s:21219  .debug_str:0000000000000897 .LASF1869
C:\Users\CYMR90~1\AppData\Local\Temp\ccj5QhVO.s:21591  .debug_str:0000000000001f86 .LASF1870
C:\Users\CYMR90~1\AppData\Local\Temp\ccj5QhVO.s:31374  .debug_str:00000000000292e5 .LASF1871
C:\Users\CYMR90~1\AppData\Local\Temp\ccj5QhVO.s:30462  .debug_str:00000000000258ad .LASF1872
C:\Users\CYMR90~1\AppData\Local\Temp\ccj5QhVO.s:26481  .debug_str:0000000000015944 .LASF1873
C:\Users\CYMR90~1\AppData\Local\Temp\ccj5QhVO.s:23039  .debug_str:0000000000007b4a .LASF1874
C:\Users\CYMR90~1\AppData\Local\Temp\ccj5QhVO.s:23913  .debug_str:000000000000b4e5 .LASF1875
C:\Users\CYMR90~1\AppData\Local\Temp\ccj5QhVO.s:31550  .debug_str:0000000000029d52 .LASF1876
C:\Users\CYMR90~1\AppData\Local\Temp\ccj5QhVO.s:27806  .debug_str:000000000001b171 .LASF1877
C:\Users\CYMR90~1\AppData\Local\Temp\ccj5QhVO.s:28550  .debug_str:000000000001e1a9 .LASF1878
C:\Users\CYMR90~1\AppData\Local\Temp\ccj5QhVO.s:24945  .debug_str:000000000000f6c7 .LASF1879
C:\Users\CYMR90~1\AppData\Local\Temp\ccj5QhVO.s:23293  .debug_str:0000000000008c7e .LASF1880
C:\Users\CYMR90~1\AppData\Local\Temp\ccj5QhVO.s:28854  .debug_str:000000000001f3fa .LASF1881
C:\Users\CYMR90~1\AppData\Local\Temp\ccj5QhVO.s:21333  .debug_str:0000000000000ff1 .LASF1882
C:\Users\CYMR90~1\AppData\Local\Temp\ccj5QhVO.s:29258  .debug_str:0000000000020c46 .LASF1883
C:\Users\CYMR90~1\AppData\Local\Temp\ccj5QhVO.s:31972  .debug_str:000000000002b6e1 .LASF1884
C:\Users\CYMR90~1\AppData\Local\Temp\ccj5QhVO.s:28964  .debug_str:000000000001fa4c .LASF1885
C:\Users\CYMR90~1\AppData\Local\Temp\ccj5QhVO.s:31104  .debug_str:0000000000028125 .LASF1886
C:\Users\CYMR90~1\AppData\Local\Temp\ccj5QhVO.s:23511  .debug_str:0000000000009a69 .LASF1887
C:\Users\CYMR90~1\AppData\Local\Temp\ccj5QhVO.s:23325  .debug_str:0000000000008edc .LASF1888
C:\Users\CYMR90~1\AppData\Local\Temp\ccj5QhVO.s:32004  .debug_str:000000000002b8c2 .LASF1889
C:\Users\CYMR90~1\AppData\Local\Temp\ccj5QhVO.s:27422  .debug_str:000000000001971f .LASF1890
C:\Users\CYMR90~1\AppData\Local\Temp\ccj5QhVO.s:23503  .debug_str:00000000000099c3 .LASF1891
C:\Users\CYMR90~1\AppData\Local\Temp\ccj5QhVO.s:23595  .debug_str:0000000000009fa4 .LASF1892
C:\Users\CYMR90~1\AppData\Local\Temp\ccj5QhVO.s:28176  .debug_str:000000000001c7f6 .LASF1893
C:\Users\CYMR90~1\AppData\Local\Temp\ccj5QhVO.s:23319  .debug_str:0000000000008e70 .LASF1894
C:\Users\CYMR90~1\AppData\Local\Temp\ccj5QhVO.s:24569  .debug_str:000000000000e037 .LASF1895
C:\Users\CYMR90~1\AppData\Local\Temp\ccj5QhVO.s:26880  .debug_str:00000000000174d1 .LASF1896
C:\Users\CYMR90~1\AppData\Local\Temp\ccj5QhVO.s:21541  .debug_str:0000000000001cba .LASF1897
C:\Users\CYMR90~1\AppData\Local\Temp\ccj5QhVO.s:30834  .debug_str:0000000000026ff8 .LASF1898
C:\Users\CYMR90~1\AppData\Local\Temp\ccj5QhVO.s:27674  .debug_str:000000000001a88e .LASF1899
C:\Users\CYMR90~1\AppData\Local\Temp\ccj5QhVO.s:24393  .debug_str:000000000000d5a8 .LASF1900
C:\Users\CYMR90~1\AppData\Local\Temp\ccj5QhVO.s:21139  .debug_str:0000000000000403 .LASF1901
C:\Users\CYMR90~1\AppData\Local\Temp\ccj5QhVO.s:21967  .debug_str:000000000000373e .LASF1902
C:\Users\CYMR90~1\AppData\Local\Temp\ccj5QhVO.s:24027  .debug_str:000000000000bc9e .LASF1903
C:\Users\CYMR90~1\AppData\Local\Temp\ccj5QhVO.s:32246  .debug_str:000000000002c8cc .LASF1904
C:\Users\CYMR90~1\AppData\Local\Temp\ccj5QhVO.s:26747  .debug_str:0000000000016ab4 .LASF1905
C:\Users\CYMR90~1\AppData\Local\Temp\ccj5QhVO.s:23471  .debug_str:0000000000009770 .LASF1906
C:\Users\CYMR90~1\AppData\Local\Temp\ccj5QhVO.s:31180  .debug_str:00000000000286c6 .LASF1907
C:\Users\CYMR90~1\AppData\Local\Temp\ccj5QhVO.s:28214  .debug_str:000000000001cb21 .LASF1908
C:\Users\CYMR90~1\AppData\Local\Temp\ccj5QhVO.s:22491  .debug_str:00000000000058c1 .LASF1909
C:\Users\CYMR90~1\AppData\Local\Temp\ccj5QhVO.s:31542  .debug_str:0000000000029cd5 .LASF1910
C:\Users\CYMR90~1\AppData\Local\Temp\ccj5QhVO.s:27852  .debug_str:000000000001b462 .LASF1911
C:\Users\CYMR90~1\AppData\Local\Temp\ccj5QhVO.s:27520  .debug_str:0000000000019e31 .LASF1912
C:\Users\CYMR90~1\AppData\Local\Temp\ccj5QhVO.s:23931  .debug_str:000000000000b671 .LASF1913
C:\Users\CYMR90~1\AppData\Local\Temp\ccj5QhVO.s:23771  .debug_str:000000000000ab5d .LASF1914
C:\Users\CYMR90~1\AppData\Local\Temp\ccj5QhVO.s:29160  .debug_str:000000000002061d .LASF1915
C:\Users\CYMR90~1\AppData\Local\Temp\ccj5QhVO.s:30440  .debug_str:0000000000025702 .LASF1916
C:\Users\CYMR90~1\AppData\Local\Temp\ccj5QhVO.s:27038  .debug_str:0000000000017ea1 .LASF1917
C:\Users\CYMR90~1\AppData\Local\Temp\ccj5QhVO.s:23675  .debug_str:000000000000a4f5 .LASF1918
C:\Users\CYMR90~1\AppData\Local\Temp\ccj5QhVO.s:31598  .debug_str:0000000000029ff4 .LASF1919
C:\Users\CYMR90~1\AppData\Local\Temp\ccj5QhVO.s:28186  .debug_str:000000000001c899 .LASF1920
C:\Users\CYMR90~1\AppData\Local\Temp\ccj5QhVO.s:24357  .debug_str:000000000000d2a6 .LASF1921
C:\Users\CYMR90~1\AppData\Local\Temp\ccj5QhVO.s:22885  .debug_str:00000000000070f9 .LASF1922
C:\Users\CYMR90~1\AppData\Local\Temp\ccj5QhVO.s:29230  .debug_str:0000000000020aa1 .LASF1923
C:\Users\CYMR90~1\AppData\Local\Temp\ccj5QhVO.s:31326  .debug_str:0000000000028fef .LASF1924
C:\Users\CYMR90~1\AppData\Local\Temp\ccj5QhVO.s:23791  .debug_str:000000000000acc8 .LASF1925
C:\Users\CYMR90~1\AppData\Local\Temp\ccj5QhVO.s:29056  .debug_str:000000000001fff5 .LASF1926
C:\Users\CYMR90~1\AppData\Local\Temp\ccj5QhVO.s:28078  .debug_str:000000000001c238 .LASF1927
C:\Users\CYMR90~1\AppData\Local\Temp\ccj5QhVO.s:22005  .debug_str:00000000000039b4 .LASF1928
C:\Users\CYMR90~1\AppData\Local\Temp\ccj5QhVO.s:22935  .debug_str:000000000000747f .LASF1929
C:\Users\CYMR90~1\AppData\Local\Temp\ccj5QhVO.s:28982  .debug_str:000000000001fb6c .LASF1930
C:\Users\CYMR90~1\AppData\Local\Temp\ccj5QhVO.s:32278  .debug_str:000000000002cb14 .LASF1931
C:\Users\CYMR90~1\AppData\Local\Temp\ccj5QhVO.s:31964  .debug_str:000000000002b647 .LASF1932
C:\Users\CYMR90~1\AppData\Local\Temp\ccj5QhVO.s:23051  .debug_str:0000000000007bf4 .LASF1933
C:\Users\CYMR90~1\AppData\Local\Temp\ccj5QhVO.s:24105  .debug_str:000000000000c261 .LASF1934
C:\Users\CYMR90~1\AppData\Local\Temp\ccj5QhVO.s:28156  .debug_str:000000000001c6c4 .LASF1935
C:\Users\CYMR90~1\AppData\Local\Temp\ccj5QhVO.s:22531  .debug_str:0000000000005b5d .LASF1936
C:\Users\CYMR90~1\AppData\Local\Temp\ccj5QhVO.s:28014  .debug_str:000000000001be0f .LASF1937
C:\Users\CYMR90~1\AppData\Local\Temp\ccj5QhVO.s:26988  .debug_str:0000000000017bb6 .LASF1938
C:\Users\CYMR90~1\AppData\Local\Temp\ccj5QhVO.s:26305  .debug_str:0000000000014ea1 .LASF1939
C:\Users\CYMR90~1\AppData\Local\Temp\ccj5QhVO.s:23235  .debug_str:00000000000088c1 .LASF1940
C:\Users\CYMR90~1\AppData\Local\Temp\ccj5QhVO.s:31392  .debug_str:0000000000029419 .LASF1941
C:\Users\CYMR90~1\AppData\Local\Temp\ccj5QhVO.s:28266  .debug_str:000000000001ce70 .LASF1942
C:\Users\CYMR90~1\AppData\Local\Temp\ccj5QhVO.s:24165  .debug_str:000000000000c61a .LASF1943
C:\Users\CYMR90~1\AppData\Local\Temp\ccj5QhVO.s:25291  .debug_str:0000000000010d24 .LASF1944
C:\Users\CYMR90~1\AppData\Local\Temp\ccj5QhVO.s:29092  .debug_str:000000000002022d .LASF1945
C:\Users\CYMR90~1\AppData\Local\Temp\ccj5QhVO.s:26027  .debug_str:0000000000013daa .LASF1946
C:\Users\CYMR90~1\AppData\Local\Temp\ccj5QhVO.s:22829  .debug_str:0000000000006d3d .LASF1947
C:\Users\CYMR90~1\AppData\Local\Temp\ccj5QhVO.s:21749  .debug_str:0000000000002928 .LASF1948
C:\Users\CYMR90~1\AppData\Local\Temp\ccj5QhVO.s:27904  .debug_str:000000000001b777 .LASF1949
C:\Users\CYMR90~1\AppData\Local\Temp\ccj5QhVO.s:24829  .debug_str:000000000000efc0 .LASF1950
C:\Users\CYMR90~1\AppData\Local\Temp\ccj5QhVO.s:21613  .debug_str:00000000000020a4 .LASF1951
C:\Users\CYMR90~1\AppData\Local\Temp\ccj5QhVO.s:29848  .debug_str:000000000002307b .LASF1952
C:\Users\CYMR90~1\AppData\Local\Temp\ccj5QhVO.s:30570  .debug_str:0000000000025fd3 .LASF1953
C:\Users\CYMR90~1\AppData\Local\Temp\ccj5QhVO.s:26151  .debug_str:0000000000014555 .LASF1954
C:\Users\CYMR90~1\AppData\Local\Temp\ccj5QhVO.s:29376  .debug_str:000000000002132f .LASF1955
C:\Users\CYMR90~1\AppData\Local\Temp\ccj5QhVO.s:30052  .debug_str:0000000000023caf .LASF1956
C:\Users\CYMR90~1\AppData\Local\Temp\ccj5QhVO.s:21669  .debug_str:00000000000023e0 .LASF1957
C:\Users\CYMR90~1\AppData\Local\Temp\ccj5QhVO.s:31806  .debug_str:000000000002ac51 .LASF1958
C:\Users\CYMR90~1\AppData\Local\Temp\ccj5QhVO.s:23057  .debug_str:0000000000007c66 .LASF1959
C:\Users\CYMR90~1\AppData\Local\Temp\ccj5QhVO.s:31376  .debug_str:0000000000029324 .LASF1960
C:\Users\CYMR90~1\AppData\Local\Temp\ccj5QhVO.s:28222  .debug_str:000000000001cba7 .LASF1961
C:\Users\CYMR90~1\AppData\Local\Temp\ccj5QhVO.s:21181  .debug_str:0000000000000640 .LASF1962
C:\Users\CYMR90~1\AppData\Local\Temp\ccj5QhVO.s:26527  .debug_str:0000000000015c07 .LASF1963
C:\Users\CYMR90~1\AppData\Local\Temp\ccj5QhVO.s:30422  .debug_str:00000000000255b5 .LASF1964
C:\Users\CYMR90~1\AppData\Local\Temp\ccj5QhVO.s:22889  .debug_str:0000000000007164 .LASF1965
C:\Users\CYMR90~1\AppData\Local\Temp\ccj5QhVO.s:28358  .debug_str:000000000001d53c .LASF1966
C:\Users\CYMR90~1\AppData\Local\Temp\ccj5QhVO.s:31904  .debug_str:000000000002b215 .LASF1967
C:\Users\CYMR90~1\AppData\Local\Temp\ccj5QhVO.s:28200  .debug_str:000000000001ca28 .LASF1968
C:\Users\CYMR90~1\AppData\Local\Temp\ccj5QhVO.s:29726  .debug_str:0000000000022917 .LASF1969
C:\Users\CYMR90~1\AppData\Local\Temp\ccj5QhVO.s:22871  .debug_str:0000000000007013 .LASF1970
C:\Users\CYMR90~1\AppData\Local\Temp\ccj5QhVO.s:29730  .debug_str:0000000000022948 .LASF1971
C:\Users\CYMR90~1\AppData\Local\Temp\ccj5QhVO.s:30454  .debug_str:0000000000025803 .LASF1972
C:\Users\CYMR90~1\AppData\Local\Temp\ccj5QhVO.s:27508  .debug_str:0000000000019d71 .LASF1973
C:\Users\CYMR90~1\AppData\Local\Temp\ccj5QhVO.s:27316  .debug_str:000000000001903f .LASF1974
C:\Users\CYMR90~1\AppData\Local\Temp\ccj5QhVO.s:31856  .debug_str:000000000002af63 .LASF1975
C:\Users\CYMR90~1\AppData\Local\Temp\ccj5QhVO.s:23075  .debug_str:0000000000007e1e .LASF1976
C:\Users\CYMR90~1\AppData\Local\Temp\ccj5QhVO.s:23423  .debug_str:0000000000009479 .LASF1977
C:\Users\CYMR90~1\AppData\Local\Temp\ccj5QhVO.s:31620  .debug_str:000000000002a135 .LASF1978
C:\Users\CYMR90~1\AppData\Local\Temp\ccj5QhVO.s:22351  .debug_str:0000000000005065 .LASF1979
C:\Users\CYMR90~1\AppData\Local\Temp\ccj5QhVO.s:30360  .debug_str:00000000000250e7 .LASF1980
C:\Users\CYMR90~1\AppData\Local\Temp\ccj5QhVO.s:30216  .debug_str:0000000000024766 .LASF1981
C:\Users\CYMR90~1\AppData\Local\Temp\ccj5QhVO.s:30060  .debug_str:0000000000023d36 .LASF1982
C:\Users\CYMR90~1\AppData\Local\Temp\ccj5QhVO.s:30886  .debug_str:00000000000272bc .LASF1983
C:\Users\CYMR90~1\AppData\Local\Temp\ccj5QhVO.s:31810  .debug_str:000000000002aca7 .LASF1984
C:\Users\CYMR90~1\AppData\Local\Temp\ccj5QhVO.s:28748  .debug_str:000000000001ed72 .LASF1985
C:\Users\CYMR90~1\AppData\Local\Temp\ccj5QhVO.s:27934  .debug_str:000000000001b962 .LASF1986
C:\Users\CYMR90~1\AppData\Local\Temp\ccj5QhVO.s:26223  .debug_str:0000000000014986 .LASF1987
C:\Users\CYMR90~1\AppData\Local\Temp\ccj5QhVO.s:27214  .debug_str:0000000000018940 .LASF1988
C:\Users\CYMR90~1\AppData\Local\Temp\ccj5QhVO.s:24263  .debug_str:000000000000ccf0 .LASF1989
C:\Users\CYMR90~1\AppData\Local\Temp\ccj5QhVO.s:23285  .debug_str:0000000000008c0d .LASF1990
C:\Users\CYMR90~1\AppData\Local\Temp\ccj5QhVO.s:24319  .debug_str:000000000000d016 .LASF1991
C:\Users\CYMR90~1\AppData\Local\Temp\ccj5QhVO.s:27560  .debug_str:000000000001a073 .LASF1992
C:\Users\CYMR90~1\AppData\Local\Temp\ccj5QhVO.s:22257  .debug_str:0000000000004acc .LASF1993
C:\Users\CYMR90~1\AppData\Local\Temp\ccj5QhVO.s:21329  .debug_str:0000000000000fc1 .LASF1994
C:\Users\CYMR90~1\AppData\Local\Temp\ccj5QhVO.s:30472  .debug_str:0000000000025958 .LASF1995
C:\Users\CYMR90~1\AppData\Local\Temp\ccj5QhVO.s:21965  .debug_str:000000000000370a .LASF1996
C:\Users\CYMR90~1\AppData\Local\Temp\ccj5QhVO.s:30940  .debug_str:00000000000276ee .LASF1997
C:\Users\CYMR90~1\AppData\Local\Temp\ccj5QhVO.s:23207  .debug_str:00000000000086f8 .LASF1998
C:\Users\CYMR90~1\AppData\Local\Temp\ccj5QhVO.s:27142  .debug_str:00000000000184e6 .LASF1999
C:\Users\CYMR90~1\AppData\Local\Temp\ccj5QhVO.s:26629  .debug_str:0000000000016303 .LASF2000
C:\Users\CYMR90~1\AppData\Local\Temp\ccj5QhVO.s:25451  .debug_str:00000000000116d0 .LASF2001
C:\Users\CYMR90~1\AppData\Local\Temp\ccj5QhVO.s:29738  .debug_str:00000000000229da .LASF2002
C:\Users\CYMR90~1\AppData\Local\Temp\ccj5QhVO.s:31158  .debug_str:000000000002858a .LASF2003
C:\Users\CYMR90~1\AppData\Local\Temp\ccj5QhVO.s:25003  .debug_str:000000000000fabb .LASF2004
C:\Users\CYMR90~1\AppData\Local\Temp\ccj5QhVO.s:29630  .debug_str:0000000000022349 .LASF2005
C:\Users\CYMR90~1\AppData\Local\Temp\ccj5QhVO.s:26842  .debug_str:00000000000172b6 .LASF2006
C:\Users\CYMR90~1\AppData\Local\Temp\ccj5QhVO.s:32052  .debug_str:000000000002bc1b .LASF2007
C:\Users\CYMR90~1\AppData\Local\Temp\ccj5QhVO.s:22397  .debug_str:0000000000005340 .LASF2008
C:\Users\CYMR90~1\AppData\Local\Temp\ccj5QhVO.s:25959  .debug_str:000000000001398f .LASF2009
C:\Users\CYMR90~1\AppData\Local\Temp\ccj5QhVO.s:28642  .debug_str:000000000001e742 .LASF2010
C:\Users\CYMR90~1\AppData\Local\Temp\ccj5QhVO.s:24287  .debug_str:000000000000ce62 .LASF2011
C:\Users\CYMR90~1\AppData\Local\Temp\ccj5QhVO.s:21523  .debug_str:0000000000001bb8 .LASF2012
C:\Users\CYMR90~1\AppData\Local\Temp\ccj5QhVO.s:29930  .debug_str:00000000000234ef .LASF2013
C:\Users\CYMR90~1\AppData\Local\Temp\ccj5QhVO.s:29678  .debug_str:00000000000225d7 .LASF2014
C:\Users\CYMR90~1\AppData\Local\Temp\ccj5QhVO.s:27652  .debug_str:000000000001a731 .LASF2015
C:\Users\CYMR90~1\AppData\Local\Temp\ccj5QhVO.s:31530  .debug_str:0000000000029c21 .LASF2016
C:\Users\CYMR90~1\AppData\Local\Temp\ccj5QhVO.s:29838  .debug_str:0000000000023008 .LASF2017
C:\Users\CYMR90~1\AppData\Local\Temp\ccj5QhVO.s:31966  .debug_str:000000000002b677 .LASF2018
C:\Users\CYMR90~1\AppData\Local\Temp\ccj5QhVO.s:28402  .debug_str:000000000001d812 .LASF2019
C:\Users\CYMR90~1\AppData\Local\Temp\ccj5QhVO.s:22767  .debug_str:000000000000693f .LASF2020
C:\Users\CYMR90~1\AppData\Local\Temp\ccj5QhVO.s:29882  .debug_str:000000000002324a .LASF2021
C:\Users\CYMR90~1\AppData\Local\Temp\ccj5QhVO.s:30876  .debug_str:000000000002723e .LASF2022
C:\Users\CYMR90~1\AppData\Local\Temp\ccj5QhVO.s:25335  .debug_str:0000000000010ff4 .LASF2023
C:\Users\CYMR90~1\AppData\Local\Temp\ccj5QhVO.s:30812  .debug_str:0000000000026e5c .LASF2024
C:\Users\CYMR90~1\AppData\Local\Temp\ccj5QhVO.s:24003  .debug_str:000000000000bb75 .LASF2025
C:\Users\CYMR90~1\AppData\Local\Temp\ccj5QhVO.s:31918  .debug_str:000000000002b2e4 .LASF2026
C:\Users\CYMR90~1\AppData\Local\Temp\ccj5QhVO.s:21931  .debug_str:0000000000003509 .LASF2027
C:\Users\CYMR90~1\AppData\Local\Temp\ccj5QhVO.s:29942  .debug_str:0000000000023595 .LASF2028
C:\Users\CYMR90~1\AppData\Local\Temp\ccj5QhVO.s:28952  .debug_str:000000000001f978 .LASF2029
C:\Users\CYMR90~1\AppData\Local\Temp\ccj5QhVO.s:21091  .debug_str:000000000000011d .LASF2030
C:\Users\CYMR90~1\AppData\Local\Temp\ccj5QhVO.s:27042  .debug_str:0000000000017ee2 .LASF2031
C:\Users\CYMR90~1\AppData\Local\Temp\ccj5QhVO.s:23765  .debug_str:000000000000ab18 .LASF2032
C:\Users\CYMR90~1\AppData\Local\Temp\ccj5QhVO.s:24965  .debug_str:000000000000f89b .LASF2033
C:\Users\CYMR90~1\AppData\Local\Temp\ccj5QhVO.s:23979  .debug_str:000000000000b9a9 .LASF2034
C:\Users\CYMR90~1\AppData\Local\Temp\ccj5QhVO.s:25525  .debug_str:0000000000011ce0 .LASF2035
C:\Users\CYMR90~1\AppData\Local\Temp\ccj5QhVO.s:29410  .debug_str:00000000000215e3 .LASF2036
C:\Users\CYMR90~1\AppData\Local\Temp\ccj5QhVO.s:29816  .debug_str:0000000000022ec1 .LASF2037
C:\Users\CYMR90~1\AppData\Local\Temp\ccj5QhVO.s:30404  .debug_str:00000000000253f0 .LASF2038
C:\Users\CYMR90~1\AppData\Local\Temp\ccj5QhVO.s:25623  .debug_str:0000000000012327 .LASF2039
C:\Users\CYMR90~1\AppData\Local\Temp\ccj5QhVO.s:27588  .debug_str:000000000001a22a .LASF2040
C:\Users\CYMR90~1\AppData\Local\Temp\ccj5QhVO.s:24315  .debug_str:000000000000cfc6 .LASF2041
C:\Users\CYMR90~1\AppData\Local\Temp\ccj5QhVO.s:21757  .debug_str:000000000000299b .LASF2042
C:\Users\CYMR90~1\AppData\Local\Temp\ccj5QhVO.s:22493  .debug_str:00000000000058ff .LASF2043
C:\Users\CYMR90~1\AppData\Local\Temp\ccj5QhVO.s:32328  .debug_str:000000000002ce81 .LASF2044
C:\Users\CYMR90~1\AppData\Local\Temp\ccj5QhVO.s:25925  .debug_str:0000000000013750 .LASF2045
C:\Users\CYMR90~1\AppData\Local\Temp\ccj5QhVO.s:29694  .debug_str:00000000000226ee .LASF2046
C:\Users\CYMR90~1\AppData\Local\Temp\ccj5QhVO.s:31338  .debug_str:00000000000290c2 .LASF2047
C:\Users\CYMR90~1\AppData\Local\Temp\ccj5QhVO.s:28060  .debug_str:000000000001c11f .LASF2048
C:\Users\CYMR90~1\AppData\Local\Temp\ccj5QhVO.s:28600  .debug_str:000000000001e49e .LASF2049
C:\Users\CYMR90~1\AppData\Local\Temp\ccj5QhVO.s:22551  .debug_str:0000000000005c82 .LASF2050
C:\Users\CYMR90~1\AppData\Local\Temp\ccj5QhVO.s:21917  .debug_str:000000000000340f .LASF2051
C:\Users\CYMR90~1\AppData\Local\Temp\ccj5QhVO.s:23879  .debug_str:000000000000b307 .LASF2052
C:\Users\CYMR90~1\AppData\Local\Temp\ccj5QhVO.s:30438  .debug_str:00000000000256bb .LASF2053
C:\Users\CYMR90~1\AppData\Local\Temp\ccj5QhVO.s:31764  .debug_str:000000000002a9f0 .LASF2054
C:\Users\CYMR90~1\AppData\Local\Temp\ccj5QhVO.s:22361  .debug_str:000000000000510d .LASF2055
C:\Users\CYMR90~1\AppData\Local\Temp\ccj5QhVO.s:30768  .debug_str:0000000000026be5 .LASF2056
C:\Users\CYMR90~1\AppData\Local\Temp\ccj5QhVO.s:28766  .debug_str:000000000001ee95 .LASF2057
C:\Users\CYMR90~1\AppData\Local\Temp\ccj5QhVO.s:26898  .debug_str:00000000000175db .LASF2058
C:\Users\CYMR90~1\AppData\Local\Temp\ccj5QhVO.s:23755  .debug_str:000000000000aa6c .LASF2059
C:\Users\CYMR90~1\AppData\Local\Temp\ccj5QhVO.s:24559  .debug_str:000000000000df9d .LASF2060
C:\Users\CYMR90~1\AppData\Local\Temp\ccj5QhVO.s:29216  .debug_str:00000000000209de .LASF2061
C:\Users\CYMR90~1\AppData\Local\Temp\ccj5QhVO.s:26055  .debug_str:0000000000013f3c .LASF2062
C:\Users\CYMR90~1\AppData\Local\Temp\ccj5QhVO.s:21727  .debug_str:000000000000279c .LASF2063
C:\Users\CYMR90~1\AppData\Local\Temp\ccj5QhVO.s:27794  .debug_str:000000000001b05f .LASF2064
C:\Users\CYMR90~1\AppData\Local\Temp\ccj5QhVO.s:26661  .debug_str:00000000000164e8 .LASF2065
C:\Users\CYMR90~1\AppData\Local\Temp\ccj5QhVO.s:23439  .debug_str:0000000000009559 .LASF2066
C:\Users\CYMR90~1\AppData\Local\Temp\ccj5QhVO.s:23907  .debug_str:000000000000b487 .LASF2067
C:\Users\CYMR90~1\AppData\Local\Temp\ccj5QhVO.s:26994  .debug_str:0000000000017c1f .LASF2068
C:\Users\CYMR90~1\AppData\Local\Temp\ccj5QhVO.s:26605  .debug_str:0000000000016185 .LASF2069
C:\Users\CYMR90~1\AppData\Local\Temp\ccj5QhVO.s:24449  .debug_str:000000000000d915 .LASF2070
C:\Users\CYMR90~1\AppData\Local\Temp\ccj5QhVO.s:22525  .debug_str:0000000000005b16 .LASF2071
C:\Users\CYMR90~1\AppData\Local\Temp\ccj5QhVO.s:25781  .debug_str:0000000000012d74 .LASF2072
C:\Users\CYMR90~1\AppData\Local\Temp\ccj5QhVO.s:24789  .debug_str:000000000000edbe .LASF2073
C:\Users\CYMR90~1\AppData\Local\Temp\ccj5QhVO.s:24041  .debug_str:000000000000bdbc .LASF2074
C:\Users\CYMR90~1\AppData\Local\Temp\ccj5QhVO.s:32130  .debug_str:000000000002c173 .LASF2075
C:\Users\CYMR90~1\AppData\Local\Temp\ccj5QhVO.s:23311  .debug_str:0000000000008e04 .LASF2076
C:\Users\CYMR90~1\AppData\Local\Temp\ccj5QhVO.s:31416  .debug_str:000000000002955e .LASF2077
C:\Users\CYMR90~1\AppData\Local\Temp\ccj5QhVO.s:22375  .debug_str:00000000000051de .LASF2078
C:\Users\CYMR90~1\AppData\Local\Temp\ccj5QhVO.s:21485  .debug_str:000000000000193f .LASF2079
C:\Users\CYMR90~1\AppData\Local\Temp\ccj5QhVO.s:29972  .debug_str:00000000000237b0 .LASF2080
C:\Users\CYMR90~1\AppData\Local\Temp\ccj5QhVO.s:31302  .debug_str:0000000000028e8c .LASF2081
C:\Users\CYMR90~1\AppData\Local\Temp\ccj5QhVO.s:31394  .debug_str:0000000000029441 .LASF2082
C:\Users\CYMR90~1\AppData\Local\Temp\ccj5QhVO.s:25649  .debug_str:00000000000124a3 .LASF2083
C:\Users\CYMR90~1\AppData\Local\Temp\ccj5QhVO.s:23097  .debug_str:0000000000007f73 .LASF2084
C:\Users\CYMR90~1\AppData\Local\Temp\ccj5QhVO.s:29854  .debug_str:00000000000230d9 .LASF2085
C:\Users\CYMR90~1\AppData\Local\Temp\ccj5QhVO.s:21379  .debug_str:000000000000126a .LASF2086
C:\Users\CYMR90~1\AppData\Local\Temp\ccj5QhVO.s:21235  .debug_str:000000000000098a .LASF2087
C:\Users\CYMR90~1\AppData\Local\Temp\ccj5QhVO.s:27856  .debug_str:000000000001b4a8 .LASF2088
C:\Users\CYMR90~1\AppData\Local\Temp\ccj5QhVO.s:28922  .debug_str:000000000001f7d7 .LASF2089
C:\Users\CYMR90~1\AppData\Local\Temp\ccj5QhVO.s:26828  .debug_str:00000000000171eb .LASF2090
C:\Users\CYMR90~1\AppData\Local\Temp\ccj5QhVO.s:25581  .debug_str:000000000001202a .LASF2091
C:\Users\CYMR90~1\AppData\Local\Temp\ccj5QhVO.s:26922  .debug_str:0000000000017754 .LASF2092
C:\Users\CYMR90~1\AppData\Local\Temp\ccj5QhVO.s:26083  .debug_str:00000000000140ed .LASF2093
C:\Users\CYMR90~1\AppData\Local\Temp\ccj5QhVO.s:32124  .debug_str:000000000002c11f .LASF2094
C:\Users\CYMR90~1\AppData\Local\Temp\ccj5QhVO.s:22127  .debug_str:0000000000004204 .LASF2095
C:\Users\CYMR90~1\AppData\Local\Temp\ccj5QhVO.s:23551  .debug_str:0000000000009cd7 .LASF2096
C:\Users\CYMR90~1\AppData\Local\Temp\ccj5QhVO.s:21889  .debug_str:000000000000321e .LASF2097
C:\Users\CYMR90~1\AppData\Local\Temp\ccj5QhVO.s:30580  .debug_str:0000000000026071 .LASF2098
C:\Users\CYMR90~1\AppData\Local\Temp\ccj5QhVO.s:25123  .debug_str:0000000000010243 .LASF2099
C:\Users\CYMR90~1\AppData\Local\Temp\ccj5QhVO.s:23915  .debug_str:000000000000b50e .LASF2100
C:\Users\CYMR90~1\AppData\Local\Temp\ccj5QhVO.s:22703  .debug_str:0000000000006532 .LASF2101
C:\Users\CYMR90~1\AppData\Local\Temp\ccj5QhVO.s:21803  .debug_str:0000000000002ca5 .LASF2102
C:\Users\CYMR90~1\AppData\Local\Temp\ccj5QhVO.s:23587  .debug_str:0000000000009f01 .LASF2103
C:\Users\CYMR90~1\AppData\Local\Temp\ccj5QhVO.s:32082  .debug_str:000000000002bdf7 .LASF2104
C:\Users\CYMR90~1\AppData\Local\Temp\ccj5QhVO.s:26920  .debug_str:0000000000017730 .LASF2105
C:\Users\CYMR90~1\AppData\Local\Temp\ccj5QhVO.s:21905  .debug_str:0000000000003337 .LASF2106
C:\Users\CYMR90~1\AppData\Local\Temp\ccj5QhVO.s:31362  .debug_str:0000000000029255 .LASF2107
C:\Users\CYMR90~1\AppData\Local\Temp\ccj5QhVO.s:25617  .debug_str:00000000000122ad .LASF2108
C:\Users\CYMR90~1\AppData\Local\Temp\ccj5QhVO.s:21921  .debug_str:000000000000344d .LASF2109
C:\Users\CYMR90~1\AppData\Local\Temp\ccj5QhVO.s:24359  .debug_str:000000000000d2d2 .LASF2110
C:\Users\CYMR90~1\AppData\Local\Temp\ccj5QhVO.s:26874  .debug_str:0000000000017475 .LASF2111
C:\Users\CYMR90~1\AppData\Local\Temp\ccj5QhVO.s:28942  .debug_str:000000000001f8f2 .LASF2112
C:\Users\CYMR90~1\AppData\Local\Temp\ccj5QhVO.s:31524  .debug_str:0000000000029bc7 .LASF2113
C:\Users\CYMR90~1\AppData\Local\Temp\ccj5QhVO.s:30920  .debug_str:00000000000275ae .LASF2114
C:\Users\CYMR90~1\AppData\Local\Temp\ccj5QhVO.s:25981  .debug_str:0000000000013ac7 .LASF2115
C:\Users\CYMR90~1\AppData\Local\Temp\ccj5QhVO.s:27782  .debug_str:000000000001af81 .LASF2116
C:\Users\CYMR90~1\AppData\Local\Temp\ccj5QhVO.s:26163  .debug_str:00000000000145f2 .LASF2117
C:\Users\CYMR90~1\AppData\Local\Temp\ccj5QhVO.s:30208  .debug_str:00000000000246f7 .LASF2118
C:\Users\CYMR90~1\AppData\Local\Temp\ccj5QhVO.s:28786  .debug_str:000000000001efb9 .LASF2119
C:\Users\CYMR90~1\AppData\Local\Temp\ccj5QhVO.s:21761  .debug_str:00000000000029d2 .LASF2120
C:\Users\CYMR90~1\AppData\Local\Temp\ccj5QhVO.s:29318  .debug_str:0000000000020fff .LASF2121
C:\Users\CYMR90~1\AppData\Local\Temp\ccj5QhVO.s:23165  .debug_str:0000000000008487 .LASF2122
C:\Users\CYMR90~1\AppData\Local\Temp\ccj5QhVO.s:26025  .debug_str:0000000000013d86 .LASF2123
C:\Users\CYMR90~1\AppData\Local\Temp\ccj5QhVO.s:28626  .debug_str:000000000001e630 .LASF2124
C:\Users\CYMR90~1\AppData\Local\Temp\ccj5QhVO.s:25875  .debug_str:0000000000013394 .LASF2125
C:\Users\CYMR90~1\AppData\Local\Temp\ccj5QhVO.s:26986  .debug_str:0000000000017b8f .LASF2126
C:\Users\CYMR90~1\AppData\Local\Temp\ccj5QhVO.s:30900  .debug_str:00000000000273c7 .LASF2127
C:\Users\CYMR90~1\AppData\Local\Temp\ccj5QhVO.s:29424  .debug_str:00000000000216b8 .LASF2128
C:\Users\CYMR90~1\AppData\Local\Temp\ccj5QhVO.s:25331  .debug_str:0000000000010fb9 .LASF2129
C:\Users\CYMR90~1\AppData\Local\Temp\ccj5QhVO.s:29332  .debug_str:00000000000210ca .LASF2130
C:\Users\CYMR90~1\AppData\Local\Temp\ccj5QhVO.s:27204  .debug_str:0000000000018893 .LASF2131
C:\Users\CYMR90~1\AppData\Local\Temp\ccj5QhVO.s:29156  .debug_str:00000000000205d8 .LASF2132
C:\Users\CYMR90~1\AppData\Local\Temp\ccj5QhVO.s:25519  .debug_str:0000000000011c6a .LASF2133
C:\Users\CYMR90~1\AppData\Local\Temp\ccj5QhVO.s:21895  .debug_str:0000000000003299 .LASF2134
C:\Users\CYMR90~1\AppData\Local\Temp\ccj5QhVO.s:21639  .debug_str:0000000000002217 .LASF2135
C:\Users\CYMR90~1\AppData\Local\Temp\ccj5QhVO.s:27364  .debug_str:00000000000193d1 .LASF2136
C:\Users\CYMR90~1\AppData\Local\Temp\ccj5QhVO.s:31628  .debug_str:000000000002a1c4 .LASF2137
C:\Users\CYMR90~1\AppData\Local\Temp\ccj5QhVO.s:23167  .debug_str:00000000000084ac .LASF2138
C:\Users\CYMR90~1\AppData\Local\Temp\ccj5QhVO.s:29516  .debug_str:0000000000021c6e .LASF2139
C:\Users\CYMR90~1\AppData\Local\Temp\ccj5QhVO.s:25427  .debug_str:000000000001153e .LASF2140
C:\Users\CYMR90~1\AppData\Local\Temp\ccj5QhVO.s:24905  .debug_str:000000000000f489 .LASF2141
C:\Users\CYMR90~1\AppData\Local\Temp\ccj5QhVO.s:28902  .debug_str:000000000001f6b7 .LASF2142
C:\Users\CYMR90~1\AppData\Local\Temp\ccj5QhVO.s:29448  .debug_str:0000000000021833 .LASF2143
C:\Users\CYMR90~1\AppData\Local\Temp\ccj5QhVO.s:25715  .debug_str:00000000000128f5 .LASF2144
C:\Users\CYMR90~1\AppData\Local\Temp\ccj5QhVO.s:21923  .debug_str:0000000000003474 .LASF2145
C:\Users\CYMR90~1\AppData\Local\Temp\ccj5QhVO.s:21097  .debug_str:0000000000000166 .LASF2146
C:\Users\CYMR90~1\AppData\Local\Temp\ccj5QhVO.s:21515  .debug_str:0000000000001b1c .LASF2147
C:\Users\CYMR90~1\AppData\Local\Temp\ccj5QhVO.s:26928  .debug_str:00000000000177aa .LASF2148
C:\Users\CYMR90~1\AppData\Local\Temp\ccj5QhVO.s:31328  .debug_str:000000000002902f .LASF2149
C:\Users\CYMR90~1\AppData\Local\Temp\ccj5QhVO.s:30922  .debug_str:00000000000275d5 .LASF2150
C:\Users\CYMR90~1\AppData\Local\Temp\ccj5QhVO.s:25983  .debug_str:0000000000013aee .LASF2151
C:\Users\CYMR90~1\AppData\Local\Temp\ccj5QhVO.s:24529  .debug_str:000000000000dd6d .LASF2152
C:\Users\CYMR90~1\AppData\Local\Temp\ccj5QhVO.s:31478  .debug_str:0000000000029951 .LASF2153
C:\Users\CYMR90~1\AppData\Local\Temp\ccj5QhVO.s:26709  .debug_str:0000000000016826 .LASF2154
C:\Users\CYMR90~1\AppData\Local\Temp\ccj5QhVO.s:21441  .debug_str:0000000000001621 .LASF2155
C:\Users\CYMR90~1\AppData\Local\Temp\ccj5QhVO.s:21993  .debug_str:0000000000003914 .LASF2156
C:\Users\CYMR90~1\AppData\Local\Temp\ccj5QhVO.s:30888  .debug_str:00000000000272df .LASF2157
C:\Users\CYMR90~1\AppData\Local\Temp\ccj5QhVO.s:25365  .debug_str:00000000000111a9 .LASF2158
C:\Users\CYMR90~1\AppData\Local\Temp\ccj5QhVO.s:27266  .debug_str:0000000000018c80 .LASF2159
C:\Users\CYMR90~1\AppData\Local\Temp\ccj5QhVO.s:30682  .debug_str:00000000000266ca .LASF2160
C:\Users\CYMR90~1\AppData\Local\Temp\ccj5QhVO.s:23337  .debug_str:0000000000008f9c .LASF2161
C:\Users\CYMR90~1\AppData\Local\Temp\ccj5QhVO.s:31608  .debug_str:000000000002a09a .LASF2162
C:\Users\CYMR90~1\AppData\Local\Temp\ccj5QhVO.s:32316  .debug_str:000000000002cd5f .LASF2163
C:\Users\CYMR90~1\AppData\Local\Temp\ccj5QhVO.s:22027  .debug_str:0000000000003b3d .LASF2164
C:\Users\CYMR90~1\AppData\Local\Temp\ccj5QhVO.s:30480  .debug_str:00000000000259ea .LASF2165
C:\Users\CYMR90~1\AppData\Local\Temp\ccj5QhVO.s:27348  .debug_str:000000000001930a .LASF2166
C:\Users\CYMR90~1\AppData\Local\Temp\ccj5QhVO.s:24899  .debug_str:000000000000f432 .LASF2167
C:\Users\CYMR90~1\AppData\Local\Temp\ccj5QhVO.s:23199  .debug_str:000000000000868c .LASF2168
C:\Users\CYMR90~1\AppData\Local\Temp\ccj5QhVO.s:28452  .debug_str:000000000001db6e .LASF2169
C:\Users\CYMR90~1\AppData\Local\Temp\ccj5QhVO.s:26651  .debug_str:0000000000016450 .LASF2170
C:\Users\CYMR90~1\AppData\Local\Temp\ccj5QhVO.s:24675  .debug_str:000000000000e64f .LASF2171
C:\Users\CYMR90~1\AppData\Local\Temp\ccj5QhVO.s:24817  .debug_str:000000000000ef1f .LASF2172
C:\Users\CYMR90~1\AppData\Local\Temp\ccj5QhVO.s:28906  .debug_str:000000000001f6ee .LASF2173
C:\Users\CYMR90~1\AppData\Local\Temp\ccj5QhVO.s:26593  .debug_str:00000000000160bb .LASF2174
C:\Users\CYMR90~1\AppData\Local\Temp\ccj5QhVO.s:25575  .debug_str:0000000000011fe8 .LASF2175
C:\Users\CYMR90~1\AppData\Local\Temp\ccj5QhVO.s:28694  .debug_str:000000000001ea8e .LASF2176
C:\Users\CYMR90~1\AppData\Local\Temp\ccj5QhVO.s:23917  .debug_str:000000000000b51d .LASF2177
C:\Users\CYMR90~1\AppData\Local\Temp\ccj5QhVO.s:29590  .debug_str:00000000000220f0 .LASF2178
C:\Users\CYMR90~1\AppData\Local\Temp\ccj5QhVO.s:24541  .debug_str:000000000000de40 .LASF2179
C:\Users\CYMR90~1\AppData\Local\Temp\ccj5QhVO.s:23047  .debug_str:0000000000007bbe .LASF2180
C:\Users\CYMR90~1\AppData\Local\Temp\ccj5QhVO.s:25817  .debug_str:0000000000012fc8 .LASF2181
C:\Users\CYMR90~1\AppData\Local\Temp\ccj5QhVO.s:24709  .debug_str:000000000000e8ca .LASF2182
C:\Users\CYMR90~1\AppData\Local\Temp\ccj5QhVO.s:26625  .debug_str:00000000000162cd .LASF2183
C:\Users\CYMR90~1\AppData\Local\Temp\ccj5QhVO.s:22151  .debug_str:000000000000434a .LASF2184
C:\Users\CYMR90~1\AppData\Local\Temp\ccj5QhVO.s:24993  .debug_str:000000000000fa47 .LASF2185
C:\Users\CYMR90~1\AppData\Local\Temp\ccj5QhVO.s:31878  .debug_str:000000000002b0a7 .LASF2186
C:\Users\CYMR90~1\AppData\Local\Temp\ccj5QhVO.s:28704  .debug_str:000000000001eb2e .LASF2187
C:\Users\CYMR90~1\AppData\Local\Temp\ccj5QhVO.s:23535  .debug_str:0000000000009bef .LASF2188
C:\Users\CYMR90~1\AppData\Local\Temp\ccj5QhVO.s:27688  .debug_str:000000000001a9fa .LASF2189
C:\Users\CYMR90~1\AppData\Local\Temp\ccj5QhVO.s:22087  .debug_str:0000000000003eae .LASF2190
C:\Users\CYMR90~1\AppData\Local\Temp\ccj5QhVO.s:23637  .debug_str:000000000000a276 .LASF2191
C:\Users\CYMR90~1\AppData\Local\Temp\ccj5QhVO.s:30358  .debug_str:00000000000250ab .LASF2192
C:\Users\CYMR90~1\AppData\Local\Temp\ccj5QhVO.s:22009  .debug_str:0000000000003a01 .LASF2193
C:\Users\CYMR90~1\AppData\Local\Temp\ccj5QhVO.s:25457  .debug_str:0000000000011726 .LASF2194
C:\Users\CYMR90~1\AppData\Local\Temp\ccj5QhVO.s:21781  .debug_str:0000000000002b3d .LASF2195
C:\Users\CYMR90~1\AppData\Local\Temp\ccj5QhVO.s:22991  .debug_str:00000000000077fc .LASF2196
C:\Users\CYMR90~1\AppData\Local\Temp\ccj5QhVO.s:26319  .debug_str:0000000000014f9a .LASF2197
C:\Users\CYMR90~1\AppData\Local\Temp\ccj5QhVO.s:23265  .debug_str:0000000000008ac3 .LASF2198
C:\Users\CYMR90~1\AppData\Local\Temp\ccj5QhVO.s:29150  .debug_str:000000000002058f .LASF2199
C:\Users\CYMR90~1\AppData\Local\Temp\ccj5QhVO.s:23779  .debug_str:000000000000abf7 .LASF2200
C:\Users\CYMR90~1\AppData\Local\Temp\ccj5QhVO.s:29656  .debug_str:00000000000224c4 .LASF2201
C:\Users\CYMR90~1\AppData\Local\Temp\ccj5QhVO.s:28986  .debug_str:000000000001fbad .LASF2202
C:\Users\CYMR90~1\AppData\Local\Temp\ccj5QhVO.s:30174  .debug_str:0000000000024488 .LASF2203
C:\Users\CYMR90~1\AppData\Local\Temp\ccj5QhVO.s:30754  .debug_str:0000000000026b21 .LASF2204
C:\Users\CYMR90~1\AppData\Local\Temp\ccj5QhVO.s:30584  .debug_str:00000000000260a4 .LASF2205
C:\Users\CYMR90~1\AppData\Local\Temp\ccj5QhVO.s:30224  .debug_str:00000000000247cd .LASF2206
C:\Users\CYMR90~1\AppData\Local\Temp\ccj5QhVO.s:29282  .debug_str:0000000000020dec .LASF2207
C:\Users\CYMR90~1\AppData\Local\Temp\ccj5QhVO.s:25171  .debug_str:00000000000104f7 .LASF2208
C:\Users\CYMR90~1\AppData\Local\Temp\ccj5QhVO.s:27312  .debug_str:0000000000018ff1 .LASF2209
C:\Users\CYMR90~1\AppData\Local\Temp\ccj5QhVO.s:29130  .debug_str:0000000000020414 .LASF2210
C:\Users\CYMR90~1\AppData\Local\Temp\ccj5QhVO.s:24053  .debug_str:000000000000bec5 .LASF2211
C:\Users\CYMR90~1\AppData\Local\Temp\ccj5QhVO.s:22765  .debug_str:0000000000006917 .LASF2212
C:\Users\CYMR90~1\AppData\Local\Temp\ccj5QhVO.s:25353  .debug_str:00000000000110d2 .LASF2213
C:\Users\CYMR90~1\AppData\Local\Temp\ccj5QhVO.s:32132  .debug_str:000000000002c184 .LASF2214
C:\Users\CYMR90~1\AppData\Local\Temp\ccj5QhVO.s:26069  .debug_str:0000000000014002 .LASF2215
C:\Users\CYMR90~1\AppData\Local\Temp\ccj5QhVO.s:23739  .debug_str:000000000000a8b0 .LASF2216
C:\Users\CYMR90~1\AppData\Local\Temp\ccj5QhVO.s:27930  .debug_str:000000000001b92a .LASF2217
C:\Users\CYMR90~1\AppData\Local\Temp\ccj5QhVO.s:27238  .debug_str:0000000000018ac0 .LASF2218
C:\Users\CYMR90~1\AppData\Local\Temp\ccj5QhVO.s:31908  .debug_str:000000000002b252 .LASF2219
C:\Users\CYMR90~1\AppData\Local\Temp\ccj5QhVO.s:28476  .debug_str:000000000001dcc9 .LASF2220
C:\Users\CYMR90~1\AppData\Local\Temp\ccj5QhVO.s:27326  .debug_str:00000000000190b6 .LASF2221
C:\Users\CYMR90~1\AppData\Local\Temp\ccj5QhVO.s:25751  .debug_str:0000000000012b57 .LASF2222
C:\Users\CYMR90~1\AppData\Local\Temp\ccj5QhVO.s:27970  .debug_str:000000000001bb4a .LASF2223
C:\Users\CYMR90~1\AppData\Local\Temp\ccj5QhVO.s:30576  .debug_str:0000000000026036 .LASF2224
C:\Users\CYMR90~1\AppData\Local\Temp\ccj5QhVO.s:21117  .debug_str:0000000000000291 .LASF2225
C:\Users\CYMR90~1\AppData\Local\Temp\ccj5QhVO.s:22221  .debug_str:0000000000004802 .LASF2226
C:\Users\CYMR90~1\AppData\Local\Temp\ccj5QhVO.s:27510  .debug_str:0000000000019d82 .LASF2227
C:\Users\CYMR90~1\AppData\Local\Temp\ccj5QhVO.s:26798  .debug_str:0000000000017005 .LASF2228
C:\Users\CYMR90~1\AppData\Local\Temp\ccj5QhVO.s:28528  .debug_str:000000000001e06f .LASF2229
C:\Users\CYMR90~1\AppData\Local\Temp\ccj5QhVO.s:22191  .debug_str:00000000000045eb .LASF2230
C:\Users\CYMR90~1\AppData\Local\Temp\ccj5QhVO.s:28758  .debug_str:000000000001ee0a .LASF2231
C:\Users\CYMR90~1\AppData\Local\Temp\ccj5QhVO.s:21497  .debug_str:00000000000019f8 .LASF2232
C:\Users\CYMR90~1\AppData\Local\Temp\ccj5QhVO.s:27498  .debug_str:0000000000019cbe .LASF2233
C:\Users\CYMR90~1\AppData\Local\Temp\ccj5QhVO.s:24227  .debug_str:000000000000ca62 .LASF2234
C:\Users\CYMR90~1\AppData\Local\Temp\ccj5QhVO.s:22425  .debug_str:00000000000054f0 .LASF2235
C:\Users\CYMR90~1\AppData\Local\Temp\ccj5QhVO.s:32088  .debug_str:000000000002be54 .LASF2236
C:\Users\CYMR90~1\AppData\Local\Temp\ccj5QhVO.s:24679  .debug_str:000000000000e68a .LASF2237
C:\Users\CYMR90~1\AppData\Local\Temp\ccj5QhVO.s:29400  .debug_str:0000000000021547 .LASF2238
C:\Users\CYMR90~1\AppData\Local\Temp\ccj5QhVO.s:28432  .debug_str:000000000001da27 .LASF2239
C:\Users\CYMR90~1\AppData\Local\Temp\ccj5QhVO.s:28362  .debug_str:000000000001d579 .LASF2240
C:\Users\CYMR90~1\AppData\Local\Temp\ccj5QhVO.s:21561  .debug_str:0000000000001ddc .LASF2241
C:\Users\CYMR90~1\AppData\Local\Temp\ccj5QhVO.s:29418  .debug_str:0000000000021665 .LASF2242
C:\Users\CYMR90~1\AppData\Local\Temp\ccj5QhVO.s:30968  .debug_str:0000000000027878 .LASF2243
C:\Users\CYMR90~1\AppData\Local\Temp\ccj5QhVO.s:25597  .debug_str:0000000000012112 .LASF2244
C:\Users\CYMR90~1\AppData\Local\Temp\ccj5QhVO.s:26808  .debug_str:00000000000170a1 .LASF2245
C:\Users\CYMR90~1\AppData\Local\Temp\ccj5QhVO.s:23729  .debug_str:000000000000a7d5 .LASF2246
C:\Users\CYMR90~1\AppData\Local\Temp\ccj5QhVO.s:26385  .debug_str:00000000000153da .LASF2247
C:\Users\CYMR90~1\AppData\Local\Temp\ccj5QhVO.s:21925  .debug_str:000000000000349b .LASF2248
C:\Users\CYMR90~1\AppData\Local\Temp\ccj5QhVO.s:28780  .debug_str:000000000001ef5f .LASF2249
C:\Users\CYMR90~1\AppData\Local\Temp\ccj5QhVO.s:27908  .debug_str:000000000001b7b5 .LASF2250
C:\Users\CYMR90~1\AppData\Local\Temp\ccj5QhVO.s:26962  .debug_str:00000000000179bc .LASF2251
C:\Users\CYMR90~1\AppData\Local\Temp\ccj5QhVO.s:30182  .debug_str:0000000000024521 .LASF2252
C:\Users\CYMR90~1\AppData\Local\Temp\ccj5QhVO.s:25757  .debug_str:0000000000012bb6 .LASF2253
C:\Users\CYMR90~1\AppData\Local\Temp\ccj5QhVO.s:24491  .debug_str:000000000000db6b .LASF2254
C:\Users\CYMR90~1\AppData\Local\Temp\ccj5QhVO.s:23251  .debug_str:00000000000089e9 .LASF2255
C:\Users\CYMR90~1\AppData\Local\Temp\ccj5QhVO.s:25149  .debug_str:00000000000103b6 .LASF2256
C:\Users\CYMR90~1\AppData\Local\Temp\ccj5QhVO.s:28178  .debug_str:000000000001c822 .LASF2257
C:\Users\CYMR90~1\AppData\Local\Temp\ccj5QhVO.s:25447  .debug_str:0000000000011684 .LASF2258
C:\Users\CYMR90~1\AppData\Local\Temp\ccj5QhVO.s:30000  .debug_str:0000000000023975 .LASF2259
C:\Users\CYMR90~1\AppData\Local\Temp\ccj5QhVO.s:25349  .debug_str:0000000000011090 .LASF2260
C:\Users\CYMR90~1\AppData\Local\Temp\ccj5QhVO.s:26433  .debug_str:00000000000156a5 .LASF2261
C:\Users\CYMR90~1\AppData\Local\Temp\ccj5QhVO.s:21621  .debug_str:0000000000002115 .LASF2262
C:\Users\CYMR90~1\AppData\Local\Temp\ccj5QhVO.s:24729  .debug_str:000000000000e9f6 .LASF2263
C:\Users\CYMR90~1\AppData\Local\Temp\ccj5QhVO.s:28552  .debug_str:000000000001e1d3 .LASF2264
C:\Users\CYMR90~1\AppData\Local\Temp\ccj5QhVO.s:27602  .debug_str:000000000001a2e3 .LASF2265
C:\Users\CYMR90~1\AppData\Local\Temp\ccj5QhVO.s:24577  .debug_str:000000000000e0a6 .LASF2266
C:\Users\CYMR90~1\AppData\Local\Temp\ccj5QhVO.s:23929  .debug_str:000000000000b651 .LASF2267
C:\Users\CYMR90~1\AppData\Local\Temp\ccj5QhVO.s:26970  .debug_str:0000000000017a76 .LASF2268
C:\Users\CYMR90~1\AppData\Local\Temp\ccj5QhVO.s:31828  .debug_str:000000000002ad96 .LASF2269
C:\Users\CYMR90~1\AppData\Local\Temp\ccj5QhVO.s:22243  .debug_str:00000000000049e6 .LASF2270
C:\Users\CYMR90~1\AppData\Local\Temp\ccj5QhVO.s:28056  .debug_str:000000000001c0df .LASF2271
C:\Users\CYMR90~1\AppData\Local\Temp\ccj5QhVO.s:28454  .debug_str:000000000001db86 .LASF2272
C:\Users\CYMR90~1\AppData\Local\Temp\ccj5QhVO.s:26273  .debug_str:0000000000014c89 .LASF2273
C:\Users\CYMR90~1\AppData\Local\Temp\ccj5QhVO.s:31174  .debug_str:0000000000028671 .LASF2274
C:\Users\CYMR90~1\AppData\Local\Temp\ccj5QhVO.s:27814  .debug_str:000000000001b1ea .LASF2275
C:\Users\CYMR90~1\AppData\Local\Temp\ccj5QhVO.s:24497  .debug_str:000000000000dbd6 .LASF2276
C:\Users\CYMR90~1\AppData\Local\Temp\ccj5QhVO.s:22021  .debug_str:0000000000003ad7 .LASF2277
C:\Users\CYMR90~1\AppData\Local\Temp\ccj5QhVO.s:21291  .debug_str:0000000000000d38 .LASF2278
C:\Users\CYMR90~1\AppData\Local\Temp\ccj5QhVO.s:31028  .debug_str:0000000000027bf8 .LASF2279
C:\Users\CYMR90~1\AppData\Local\Temp\ccj5QhVO.s:29404  .debug_str:0000000000021585 .LASF2280
C:\Users\CYMR90~1\AppData\Local\Temp\ccj5QhVO.s:22429  .debug_str:0000000000005524 .LASF2281
C:\Users\CYMR90~1\AppData\Local\Temp\ccj5QhVO.s:27534  .debug_str:0000000000019f18 .LASF2282
C:\Users\CYMR90~1\AppData\Local\Temp\ccj5QhVO.s:26862  .debug_str:00000000000173be .LASF2283
C:\Users\CYMR90~1\AppData\Local\Temp\ccj5QhVO.s:28234  .debug_str:000000000001cc53 .LASF2284
C:\Users\CYMR90~1\AppData\Local\Temp\ccj5QhVO.s:27768  .debug_str:000000000001aebe .LASF2285
C:\Users\CYMR90~1\AppData\Local\Temp\ccj5QhVO.s:30950  .debug_str:0000000000027784 .LASF2286
C:\Users\CYMR90~1\AppData\Local\Temp\ccj5QhVO.s:25355  .debug_str:00000000000110fa .LASF2287
C:\Users\CYMR90~1\AppData\Local\Temp\ccj5QhVO.s:29554  .debug_str:0000000000021eec .LASF2288
C:\Users\CYMR90~1\AppData\Local\Temp\ccj5QhVO.s:31490  .debug_str:00000000000299ce .LASF2289
C:\Users\CYMR90~1\AppData\Local\Temp\ccj5QhVO.s:25567  .debug_str:0000000000011f3d .LASF2290
C:\Users\CYMR90~1\AppData\Local\Temp\ccj5QhVO.s:31960  .debug_str:000000000002b5fd .LASF2291
C:\Users\CYMR90~1\AppData\Local\Temp\ccj5QhVO.s:28646  .debug_str:000000000001e78f .LASF2292
C:\Users\CYMR90~1\AppData\Local\Temp\ccj5QhVO.s:22327  .debug_str:0000000000004f12 .LASF2293
C:\Users\CYMR90~1\AppData\Local\Temp\ccj5QhVO.s:31352  .debug_str:0000000000029193 .LASF2294
C:\Users\CYMR90~1\AppData\Local\Temp\ccj5QhVO.s:31924  .debug_str:000000000002b37b .LASF2295
C:\Users\CYMR90~1\AppData\Local\Temp\ccj5QhVO.s:24557  .debug_str:000000000000df72 .LASF2296
C:\Users\CYMR90~1\AppData\Local\Temp\ccj5QhVO.s:24533  .debug_str:000000000000dda3 .LASF2297
C:\Users\CYMR90~1\AppData\Local\Temp\ccj5QhVO.s:23909  .debug_str:000000000000b498 .LASF2298
C:\Users\CYMR90~1\AppData\Local\Temp\ccj5QhVO.s:26081  .debug_str:00000000000140c2 .LASF2299
C:\Users\CYMR90~1\AppData\Local\Temp\ccj5QhVO.s:31188  .debug_str:000000000002876b .LASF2300
C:\Users\CYMR90~1\AppData\Local\Temp\ccj5QhVO.s:24877  .debug_str:000000000000f2ac .LASF2301
C:\Users\CYMR90~1\AppData\Local\Temp\ccj5QhVO.s:28004  .debug_str:000000000001bd89 .LASF2302
C:\Users\CYMR90~1\AppData\Local\Temp\ccj5QhVO.s:30312  .debug_str:0000000000024dd0 .LASF2303
C:\Users\CYMR90~1\AppData\Local\Temp\ccj5QhVO.s:24489  .debug_str:000000000000db44 .LASF2304
C:\Users\CYMR90~1\AppData\Local\Temp\ccj5QhVO.s:29452  .debug_str:000000000002186e .LASF2305
C:\Users\CYMR90~1\AppData\Local\Temp\ccj5QhVO.s:21369  .debug_str:00000000000011eb .LASF2306
C:\Users\CYMR90~1\AppData\Local\Temp\ccj5QhVO.s:27712  .debug_str:000000000001ab54 .LASF2307
C:\Users\CYMR90~1\AppData\Local\Temp\ccj5QhVO.s:28198  .debug_str:000000000001c9ff .LASF2308
C:\Users\CYMR90~1\AppData\Local\Temp\ccj5QhVO.s:21875  .debug_str:0000000000003152 .LASF2309
C:\Users\CYMR90~1\AppData\Local\Temp\ccj5QhVO.s:30598  .debug_str:00000000000261b0 .LASF2310
C:\Users\CYMR90~1\AppData\Local\Temp\ccj5QhVO.s:31428  .debug_str:0000000000029611 .LASF2311
C:\Users\CYMR90~1\AppData\Local\Temp\ccj5QhVO.s:26119  .debug_str:0000000000014350 .LASF2312
C:\Users\CYMR90~1\AppData\Local\Temp\ccj5QhVO.s:31140  .debug_str:00000000000283c4 .LASF2313
C:\Users\CYMR90~1\AppData\Local\Temp\ccj5QhVO.s:22951  .debug_str:000000000000757a .LASF2314
C:\Users\CYMR90~1\AppData\Local\Temp\ccj5QhVO.s:29234  .debug_str:0000000000020af1 .LASF2315
C:\Users\CYMR90~1\AppData\Local\Temp\ccj5QhVO.s:23015  .debug_str:0000000000007983 .LASF2316
C:\Users\CYMR90~1\AppData\Local\Temp\ccj5QhVO.s:28020  .debug_str:000000000001be85 .LASF2317
C:\Users\CYMR90~1\AppData\Local\Temp\ccj5QhVO.s:31184  .debug_str:000000000002872a .LASF2318
C:\Users\CYMR90~1\AppData\Local\Temp\ccj5QhVO.s:24765  .debug_str:000000000000ec32 .LASF2319
C:\Users\CYMR90~1\AppData\Local\Temp\ccj5QhVO.s:22255  .debug_str:0000000000004aa2 .LASF2320
C:\Users\CYMR90~1\AppData\Local\Temp\ccj5QhVO.s:21795  .debug_str:0000000000002c49 .LASF2321
C:\Users\CYMR90~1\AppData\Local\Temp\ccj5QhVO.s:32398  .debug_str:000000000002d2aa .LASF2322
C:\Users\CYMR90~1\AppData\Local\Temp\ccj5QhVO.s:22619  .debug_str:0000000000006060 .LASF2323
C:\Users\CYMR90~1\AppData\Local\Temp\ccj5QhVO.s:26237  .debug_str:0000000000014a61 .LASF2324
C:\Users\CYMR90~1\AppData\Local\Temp\ccj5QhVO.s:31986  .debug_str:000000000002b797 .LASF2325
C:\Users\CYMR90~1\AppData\Local\Temp\ccj5QhVO.s:23707  .debug_str:000000000000a6b8 .LASF2326
C:\Users\CYMR90~1\AppData\Local\Temp\ccj5QhVO.s:27198  .debug_str:0000000000018835 .LASF2327
C:\Users\CYMR90~1\AppData\Local\Temp\ccj5QhVO.s:21657  .debug_str:0000000000002335 .LASF2328
C:\Users\CYMR90~1\AppData\Local\Temp\ccj5QhVO.s:26155  .debug_str:0000000000014580 .LASF2329
C:\Users\CYMR90~1\AppData\Local\Temp\ccj5QhVO.s:23007  .debug_str:0000000000007910 .LASF2330
C:\Users\CYMR90~1\AppData\Local\Temp\ccj5QhVO.s:24159  .debug_str:000000000000c5bb .LASF2331
C:\Users\CYMR90~1\AppData\Local\Temp\ccj5QhVO.s:25191  .debug_str:0000000000010636 .LASF2332
C:\Users\CYMR90~1\AppData\Local\Temp\ccj5QhVO.s:29360  .debug_str:0000000000021239 .LASF2333
C:\Users\CYMR90~1\AppData\Local\Temp\ccj5QhVO.s:30778  .debug_str:0000000000026ca4 .LASF2334
C:\Users\CYMR90~1\AppData\Local\Temp\ccj5QhVO.s:25205  .debug_str:0000000000010725 .LASF2335
C:\Users\CYMR90~1\AppData\Local\Temp\ccj5QhVO.s:25609  .debug_str:0000000000012223 .LASF2336
C:\Users\CYMR90~1\AppData\Local\Temp\ccj5QhVO.s:24657  .debug_str:000000000000e535 .LASF2337
C:\Users\CYMR90~1\AppData\Local\Temp\ccj5QhVO.s:22633  .debug_str:0000000000006131 .LASF2338
C:\Users\CYMR90~1\AppData\Local\Temp\ccj5QhVO.s:21703  .debug_str:00000000000025cb .LASF2339
C:\Users\CYMR90~1\AppData\Local\Temp\ccj5QhVO.s:28420  .debug_str:000000000001d96a .LASF2340
C:\Users\CYMR90~1\AppData\Local\Temp\ccj5QhVO.s:30656  .debug_str:0000000000026531 .LASF2341
C:\Users\CYMR90~1\AppData\Local\Temp\ccj5QhVO.s:29016  .debug_str:000000000001fd91 .LASF2342
C:\Users\CYMR90~1\AppData\Local\Temp\ccj5QhVO.s:29032  .debug_str:000000000001fe69 .LASF2343
C:\Users\CYMR90~1\AppData\Local\Temp\ccj5QhVO.s:30080  .debug_str:0000000000023e54 .LASF2344
C:\Users\CYMR90~1\AppData\Local\Temp\ccj5QhVO.s:30890  .debug_str:00000000000272f5 .LASF2345
C:\Users\CYMR90~1\AppData\Local\Temp\ccj5QhVO.s:28120  .debug_str:000000000001c4eb .LASF2346
C:\Users\CYMR90~1\AppData\Local\Temp\ccj5QhVO.s:28290  .debug_str:000000000001d081 .LASF2347
C:\Users\CYMR90~1\AppData\Local\Temp\ccj5QhVO.s:23221  .debug_str:00000000000087e7 .LASF2348
C:\Users\CYMR90~1\AppData\Local\Temp\ccj5QhVO.s:25969  .debug_str:0000000000013a39 .LASF2349
C:\Users\CYMR90~1\AppData\Local\Temp\ccj5QhVO.s:29500  .debug_str:0000000000021b3d .LASF2350
C:\Users\CYMR90~1\AppData\Local\Temp\ccj5QhVO.s:31792  .debug_str:000000000002ab7d .LASF2351
C:\Users\CYMR90~1\AppData\Local\Temp\ccj5QhVO.s:30298  .debug_str:0000000000024ce1 .LASF2352
C:\Users\CYMR90~1\AppData\Local\Temp\ccj5QhVO.s:22791  .debug_str:0000000000006aa1 .LASF2353
C:\Users\CYMR90~1\AppData\Local\Temp\ccj5QhVO.s:25103  .debug_str:00000000000100ec .LASF2354
C:\Users\CYMR90~1\AppData\Local\Temp\ccj5QhVO.s:22737  .debug_str:0000000000006725 .LASF2355
C:\Users\CYMR90~1\AppData\Local\Temp\ccj5QhVO.s:32190  .debug_str:000000000002c595 .LASF2356
C:\Users\CYMR90~1\AppData\Local\Temp\ccj5QhVO.s:31614  .debug_str:000000000002a0d7 .LASF2357
C:\Users\CYMR90~1\AppData\Local\Temp\ccj5QhVO.s:24407  .debug_str:000000000000d692 .LASF2358
C:\Users\CYMR90~1\AppData\Local\Temp\ccj5QhVO.s:23449  .debug_str:0000000000009648 .LASF2359
C:\Users\CYMR90~1\AppData\Local\Temp\ccj5QhVO.s:22015  .debug_str:0000000000003a8a .LASF2360
C:\Users\CYMR90~1\AppData\Local\Temp\ccj5QhVO.s:25113  .debug_str:000000000001018c .LASF2361
C:\Users\CYMR90~1\AppData\Local\Temp\ccj5QhVO.s:23889  .debug_str:000000000000b3a3 .LASF2362
C:\Users\CYMR90~1\AppData\Local\Temp\ccj5QhVO.s:22663  .debug_str:00000000000062d3 .LASF2363
C:\Users\CYMR90~1\AppData\Local\Temp\ccj5QhVO.s:30086  .debug_str:0000000000023ea4 .LASF2364
C:\Users\CYMR90~1\AppData\Local\Temp\ccj5QhVO.s:29242  .debug_str:0000000000020b6c .LASF2365
C:\Users\CYMR90~1\AppData\Local\Temp\ccj5QhVO.s:25671  .debug_str:0000000000012620 .LASF2366
C:\Users\CYMR90~1\AppData\Local\Temp\ccj5QhVO.s:23993  .debug_str:000000000000ba70 .LASF2367
C:\Users\CYMR90~1\AppData\Local\Temp\ccj5QhVO.s:30964  .debug_str:000000000002784b .LASF2368
C:\Users\CYMR90~1\AppData\Local\Temp\ccj5QhVO.s:23435  .debug_str:0000000000009529 .LASF2369
C:\Users\CYMR90~1\AppData\Local\Temp\ccj5QhVO.s:24759  .debug_str:000000000000ebdb .LASF2370
C:\Users\CYMR90~1\AppData\Local\Temp\ccj5QhVO.s:22801  .debug_str:0000000000006b5e .LASF2371
C:\Users\CYMR90~1\AppData\Local\Temp\ccj5QhVO.s:25167  .debug_str:00000000000104be .LASF2372
C:\Users\CYMR90~1\AppData\Local\Temp\ccj5QhVO.s:32068  .debug_str:000000000002bcfd .LASF2373
C:\Users\CYMR90~1\AppData\Local\Temp\ccj5QhVO.s:30730  .debug_str:00000000000269c5 .LASF2374
C:\Users\CYMR90~1\AppData\Local\Temp\ccj5QhVO.s:21229  .debug_str:0000000000000936 .LASF2375
C:\Users\CYMR90~1\AppData\Local\Temp\ccj5QhVO.s:25571  .debug_str:0000000000011f92 .LASF2376
C:\Users\CYMR90~1\AppData\Local\Temp\ccj5QhVO.s:28726  .debug_str:000000000001ec60 .LASF2377
C:\Users\CYMR90~1\AppData\Local\Temp\ccj5QhVO.s:32018  .debug_str:000000000002b9ee .LASF2378
C:\Users\CYMR90~1\AppData\Local\Temp\ccj5QhVO.s:23891  .debug_str:000000000000b3c8 .LASF2379
C:\Users\CYMR90~1\AppData\Local\Temp\ccj5QhVO.s:29952  .debug_str:0000000000023631 .LASF2380
C:\Users\CYMR90~1\AppData\Local\Temp\ccj5QhVO.s:30290  .debug_str:0000000000024c5e .LASF2381
C:\Users\CYMR90~1\AppData\Local\Temp\ccj5QhVO.s:30040  .debug_str:0000000000023c0e .LASF2382
C:\Users\CYMR90~1\AppData\Local\Temp\ccj5QhVO.s:25341  .debug_str:0000000000011048 .LASF2383
C:\Users\CYMR90~1\AppData\Local\Temp\ccj5QhVO.s:28496  .debug_str:000000000001ddfb .LASF2384
C:\Users\CYMR90~1\AppData\Local\Temp\ccj5QhVO.s:31762  .debug_str:000000000002a9d7 .LASF2385
C:\Users\CYMR90~1\AppData\Local\Temp\ccj5QhVO.s:21535  .debug_str:0000000000001c74 .LASF2386
C:\Users\CYMR90~1\AppData\Local\Temp\ccj5QhVO.s:26245  .debug_str:0000000000014ac9 .LASF2387
C:\Users\CYMR90~1\AppData\Local\Temp\ccj5QhVO.s:30966  .debug_str:000000000002785d .LASF2388
C:\Users\CYMR90~1\AppData\Local\Temp\ccj5QhVO.s:27868  .debug_str:000000000001b55f .LASF2389
C:\Users\CYMR90~1\AppData\Local\Temp\ccj5QhVO.s:29024  .debug_str:000000000001fe09 .LASF2390
C:\Users\CYMR90~1\AppData\Local\Temp\ccj5QhVO.s:22401  .debug_str:000000000000537c .LASF2391
C:\Users\CYMR90~1\AppData\Local\Temp\ccj5QhVO.s:27124  .debug_str:00000000000183bc .LASF2392
C:\Users\CYMR90~1\AppData\Local\Temp\ccj5QhVO.s:31864  .debug_str:000000000002afcd .LASF2393
C:\Users\CYMR90~1\AppData\Local\Temp\ccj5QhVO.s:27980  .debug_str:000000000001bbf5 .LASF2394
C:\Users\CYMR90~1\AppData\Local\Temp\ccj5QhVO.s:31022  .debug_str:0000000000027b93 .LASF2395
C:\Users\CYMR90~1\AppData\Local\Temp\ccj5QhVO.s:24419  .debug_str:000000000000d75b .LASF2396
C:\Users\CYMR90~1\AppData\Local\Temp\ccj5QhVO.s:29080  .debug_str:0000000000020162 .LASF2397
C:\Users\CYMR90~1\AppData\Local\Temp\ccj5QhVO.s:22449  .debug_str:000000000000561e .LASF2398
C:\Users\CYMR90~1\AppData\Local\Temp\ccj5QhVO.s:27176  .debug_str:00000000000186ea .LASF2399
C:\Users\CYMR90~1\AppData\Local\Temp\ccj5QhVO.s:31920  .debug_str:000000000002b34a .LASF2400
C:\Users\CYMR90~1\AppData\Local\Temp\ccj5QhVO.s:31796  .debug_str:000000000002abb5 .LASF2401
C:\Users\CYMR90~1\AppData\Local\Temp\ccj5QhVO.s:23681  .debug_str:000000000000a548 .LASF2402
C:\Users\CYMR90~1\AppData\Local\Temp\ccj5QhVO.s:26878  .debug_str:00000000000174ba .LASF2403
C:\Users\CYMR90~1\AppData\Local\Temp\ccj5QhVO.s:30090  .debug_str:0000000000023ed5 .LASF2404
C:\Users\CYMR90~1\AppData\Local\Temp\ccj5QhVO.s:22043  .debug_str:0000000000003c17 .LASF2405
C:\Users\CYMR90~1\AppData\Local\Temp\ccj5QhVO.s:25213  .debug_str:000000000001085b .LASF2406
C:\Users\CYMR90~1\AppData\Local\Temp\ccj5QhVO.s:28394  .debug_str:000000000001d7ad .LASF2407
C:\Users\CYMR90~1\AppData\Local\Temp\ccj5QhVO.s:31640  .debug_str:000000000002a27f .LASF2408
C:\Users\CYMR90~1\AppData\Local\Temp\ccj5QhVO.s:26013  .debug_str:0000000000013cbd .LASF2409
C:\Users\CYMR90~1\AppData\Local\Temp\ccj5QhVO.s:24397  .debug_str:000000000000d5e0 .LASF2410
C:\Users\CYMR90~1\AppData\Local\Temp\ccj5QhVO.s:27758  .debug_str:000000000001ae1b .LASF2411
C:\Users\CYMR90~1\AppData\Local\Temp\ccj5QhVO.s:21111  .debug_str:0000000000000235 .LASF2412
C:\Users\CYMR90~1\AppData\Local\Temp\ccj5QhVO.s:27786  .debug_str:000000000001afd3 .LASF2413
C:\Users\CYMR90~1\AppData\Local\Temp\ccj5QhVO.s:30504  .debug_str:0000000000025bf2 .LASF2414
C:\Users\CYMR90~1\AppData\Local\Temp\ccj5QhVO.s:23925  .debug_str:000000000000b59b .LASF2415
C:\Users\CYMR90~1\AppData\Local\Temp\ccj5QhVO.s:28568  .debug_str:000000000001e2c4 .LASF2416
C:\Users\CYMR90~1\AppData\Local\Temp\ccj5QhVO.s:24257  .debug_str:000000000000cc8a .LASF2417
C:\Users\CYMR90~1\AppData\Local\Temp\ccj5QhVO.s:26669  .debug_str:0000000000016548 .LASF2418
C:\Users\CYMR90~1\AppData\Local\Temp\ccj5QhVO.s:28782  .debug_str:000000000001ef8e .LASF2419
C:\Users\CYMR90~1\AppData\Local\Temp\ccj5QhVO.s:25881  .debug_str:00000000000133f4 .LASF2420
C:\Users\CYMR90~1\AppData\Local\Temp\ccj5QhVO.s:30556  .debug_str:0000000000025f10 .LASF2421
C:\Users\CYMR90~1\AppData\Local\Temp\ccj5QhVO.s:23971  .debug_str:000000000000b93d .LASF2422
C:\Users\CYMR90~1\AppData\Local\Temp\ccj5QhVO.s:28618  .debug_str:000000000001e5c7 .LASF2423
C:\Users\CYMR90~1\AppData\Local\Temp\ccj5QhVO.s:22011  .debug_str:0000000000003a3f .LASF2424
C:\Users\CYMR90~1\AppData\Local\Temp\ccj5QhVO.s:26731  .debug_str:0000000000016960 .LASF2425
C:\Users\CYMR90~1\AppData\Local\Temp\ccj5QhVO.s:23805  .debug_str:000000000000adb2 .LASF2426
C:\Users\CYMR90~1\AppData\Local\Temp\ccj5QhVO.s:26904  .debug_str:0000000000017622 .LASF2427
C:\Users\CYMR90~1\AppData\Local\Temp\ccj5QhVO.s:30126  .debug_str:00000000000240fa .LASF2428
C:\Users\CYMR90~1\AppData\Local\Temp\ccj5QhVO.s:21995  .debug_str:000000000000392a .LASF2429
C:\Users\CYMR90~1\AppData\Local\Temp\ccj5QhVO.s:25249  .debug_str:0000000000010a3a .LASF2430
C:\Users\CYMR90~1\AppData\Local\Temp\ccj5QhVO.s:25501  .debug_str:0000000000011ad9 .LASF2431
C:\Users\CYMR90~1\AppData\Local\Temp\ccj5QhVO.s:31682  .debug_str:000000000002a4a2 .LASF2432
C:\Users\CYMR90~1\AppData\Local\Temp\ccj5QhVO.s:22197  .debug_str:000000000000465c .LASF2433
C:\Users\CYMR90~1\AppData\Local\Temp\ccj5QhVO.s:30932  .debug_str:0000000000027681 .LASF2434
C:\Users\CYMR90~1\AppData\Local\Temp\ccj5QhVO.s:29880  .debug_str:0000000000023233 .LASF2435
C:\Users\CYMR90~1\AppData\Local\Temp\ccj5QhVO.s:31246  .debug_str:0000000000028b48 .LASF2436
C:\Users\CYMR90~1\AppData\Local\Temp\ccj5QhVO.s:24631  .debug_str:000000000000e3b6 .LASF2437
C:\Users\CYMR90~1\AppData\Local\Temp\ccj5QhVO.s:29302  .debug_str:0000000000020f21 .LASF2438
C:\Users\CYMR90~1\AppData\Local\Temp\ccj5QhVO.s:22683  .debug_str:000000000000641b .LASF2439
C:\Users\CYMR90~1\AppData\Local\Temp\ccj5QhVO.s:27416  .debug_str:00000000000196e7 .LASF2440
C:\Users\CYMR90~1\AppData\Local\Temp\ccj5QhVO.s:27802  .debug_str:000000000001b142 .LASF2441
C:\Users\CYMR90~1\AppData\Local\Temp\ccj5QhVO.s:25509  .debug_str:0000000000011b46 .LASF2442
C:\Users\CYMR90~1\AppData\Local\Temp\ccj5QhVO.s:30192  .debug_str:0000000000024604 .LASF2443
C:\Users\CYMR90~1\AppData\Local\Temp\ccj5QhVO.s:28264  .debug_str:000000000001ce57 .LASF2444
C:\Users\CYMR90~1\AppData\Local\Temp\ccj5QhVO.s:29354  .debug_str:00000000000211df .LASF2445
C:\Users\CYMR90~1\AppData\Local\Temp\ccj5QhVO.s:22741  .debug_str:000000000000675e .LASF2446
C:\Users\CYMR90~1\AppData\Local\Temp\ccj5QhVO.s:27464  .debug_str:0000000000019a86 .LASF2447
C:\Users\CYMR90~1\AppData\Local\Temp\ccj5QhVO.s:32186  .debug_str:000000000002c556 .LASF2448
C:\Users\CYMR90~1\AppData\Local\Temp\ccj5QhVO.s:25563  .debug_str:0000000000011eef .LASF2449
C:\Users\CYMR90~1\AppData\Local\Temp\ccj5QhVO.s:30240  .debug_str:00000000000248e2 .LASF2450
C:\Users\CYMR90~1\AppData\Local\Temp\ccj5QhVO.s:29046  .debug_str:000000000001ff50 .LASF2451
C:\Users\CYMR90~1\AppData\Local\Temp\ccj5QhVO.s:30352  .debug_str:0000000000025061 .LASF2452
C:\Users\CYMR90~1\AppData\Local\Temp\ccj5QhVO.s:28692  .debug_str:000000000001ea77 .LASF2453
C:\Users\CYMR90~1\AppData\Local\Temp\ccj5QhVO.s:27088  .debug_str:000000000001817e .LASF2454
C:\Users\CYMR90~1\AppData\Local\Temp\ccj5QhVO.s:30506  .debug_str:0000000000025c0b .LASF2455
C:\Users\CYMR90~1\AppData\Local\Temp\ccj5QhVO.s:23869  .debug_str:000000000000b28b .LASF2456
C:\Users\CYMR90~1\AppData\Local\Temp\ccj5QhVO.s:25643  .debug_str:0000000000012460 .LASF2457
C:\Users\CYMR90~1\AppData\Local\Temp\ccj5QhVO.s:28790  .debug_str:000000000001eff4 .LASF2458
C:\Users\CYMR90~1\AppData\Local\Temp\ccj5QhVO.s:30280  .debug_str:0000000000024bd4 .LASF2459
C:\Users\CYMR90~1\AppData\Local\Temp\ccj5QhVO.s:23873  .debug_str:000000000000b2c8 .LASF2460
C:\Users\CYMR90~1\AppData\Local\Temp\ccj5QhVO.s:29918  .debug_str:0000000000023426 .LASF2461
C:\Users\CYMR90~1\AppData\Local\Temp\ccj5QhVO.s:32014  .debug_str:000000000002b95e .LASF2462
C:\Users\CYMR90~1\AppData\Local\Temp\ccj5QhVO.s:28276  .debug_str:000000000001cfc1 .LASF2463
C:\Users\CYMR90~1\AppData\Local\Temp\ccj5QhVO.s:21663  .debug_str:0000000000002381 .LASF2464
C:\Users\CYMR90~1\AppData\Local\Temp\ccj5QhVO.s:26365  .debug_str:000000000001529d .LASF2465
C:\Users\CYMR90~1\AppData\Local\Temp\ccj5QhVO.s:31092  .debug_str:000000000002806b .LASF2466
C:\Users\CYMR90~1\AppData\Local\Temp\ccj5QhVO.s:24481  .debug_str:000000000000dadb .LASF2467
C:\Users\CYMR90~1\AppData\Local\Temp\ccj5QhVO.s:29146  .debug_str:0000000000020547 .LASF2468
C:\Users\CYMR90~1\AppData\Local\Temp\ccj5QhVO.s:27250  .debug_str:0000000000018b68 .LASF2469
C:\Users\CYMR90~1\AppData\Local\Temp\ccj5QhVO.s:22075  .debug_str:0000000000003e21 .LASF2470
C:\Users\CYMR90~1\AppData\Local\Temp\ccj5QhVO.s:21719  .debug_str:000000000000270f .LASF2471
C:\Users\CYMR90~1\AppData\Local\Temp\ccj5QhVO.s:25935  .debug_str:000000000001380c .LASF2472
C:\Users\CYMR90~1\AppData\Local\Temp\ccj5QhVO.s:31144  .debug_str:00000000000284a8 .LASF2473
C:\Users\CYMR90~1\AppData\Local\Temp\ccj5QhVO.s:24535  .debug_str:000000000000ddce .LASF2474
C:\Users\CYMR90~1\AppData\Local\Temp\ccj5QhVO.s:29202  .debug_str:00000000000208e1 .LASF2475
C:\Users\CYMR90~1\AppData\Local\Temp\ccj5QhVO.s:31372  .debug_str:00000000000292cc .LASF2476
C:\Users\CYMR90~1\AppData\Local\Temp\ccj5QhVO.s:22629  .debug_str:00000000000060f5 .LASF2477
C:\Users\CYMR90~1\AppData\Local\Temp\ccj5QhVO.s:26445  .debug_str:0000000000015742 .LASF2478
C:\Users\CYMR90~1\AppData\Local\Temp\ccj5QhVO.s:31130  .debug_str:000000000002833c .LASF2479
C:\Users\CYMR90~1\AppData\Local\Temp\ccj5QhVO.s:29470  .debug_str:00000000000219a3 .LASF2480
C:\Users\CYMR90~1\AppData\Local\Temp\ccj5QhVO.s:27872  .debug_str:000000000001b5a0 .LASF2481
C:\Users\CYMR90~1\AppData\Local\Temp\ccj5QhVO.s:27986  .debug_str:000000000001bc40 .LASF2482
C:\Users\CYMR90~1\AppData\Local\Temp\ccj5QhVO.s:31218  .debug_str:00000000000289b8 .LASF2483
C:\Users\CYMR90~1\AppData\Local\Temp\ccj5QhVO.s:23101  .debug_str:0000000000007fac .LASF2484
C:\Users\CYMR90~1\AppData\Local\Temp\ccj5QhVO.s:26219  .debug_str:0000000000014956 .LASF2485
C:\Users\CYMR90~1\AppData\Local\Temp\ccj5QhVO.s:25939  .debug_str:0000000000013839 .LASF2486
C:\Users\CYMR90~1\AppData\Local\Temp\ccj5QhVO.s:30612  .debug_str:00000000000262a5 .LASF2487
C:\Users\CYMR90~1\AppData\Local\Temp\ccj5QhVO.s:24023  .debug_str:000000000000bc6c .LASF2488
C:\Users\CYMR90~1\AppData\Local\Temp\ccj5QhVO.s:28670  .debug_str:000000000001e8e6 .LASF2489
C:\Users\CYMR90~1\AppData\Local\Temp\ccj5QhVO.s:22063  .debug_str:0000000000003d7a .LASF2490
C:\Users\CYMR90~1\AppData\Local\Temp\ccj5QhVO.s:26794  .debug_str:0000000000016fc0 .LASF2491
C:\Users\CYMR90~1\AppData\Local\Temp\ccj5QhVO.s:31508  .debug_str:0000000000029ad6 .LASF2492
C:\Users\CYMR90~1\AppData\Local\Temp\ccj5QhVO.s:24889  .debug_str:000000000000f362 .LASF2493
C:\Users\CYMR90~1\AppData\Local\Temp\ccj5QhVO.s:22957  .debug_str:00000000000075cb .LASF2494
C:\Users\CYMR90~1\AppData\Local\Temp\ccj5QhVO.s:24075  .debug_str:000000000000c06c .LASF2495
C:\Users\CYMR90~1\AppData\Local\Temp\ccj5QhVO.s:28716  .debug_str:000000000001ebeb .LASF2496
C:\Users\CYMR90~1\AppData\Local\Temp\ccj5QhVO.s:22113  .debug_str:0000000000004086 .LASF2497
C:\Users\CYMR90~1\AppData\Local\Temp\ccj5QhVO.s:21499  .debug_str:0000000000001a19 .LASF2498
C:\Users\CYMR90~1\AppData\Local\Temp\ccj5QhVO.s:31562  .debug_str:0000000000029e0c .LASF2499
C:\Users\CYMR90~1\AppData\Local\Temp\ccj5QhVO.s:24953  .debug_str:000000000000f746 .LASF2500
C:\Users\CYMR90~1\AppData\Local\Temp\ccj5QhVO.s:24669  .debug_str:000000000000e5ed .LASF2501
C:\Users\CYMR90~1\AppData\Local\Temp\ccj5QhVO.s:27882  .debug_str:000000000001b65d .LASF2502
C:\Users\CYMR90~1\AppData\Local\Temp\ccj5QhVO.s:31102  .debug_str:0000000000028112 .LASF2503
C:\Users\CYMR90~1\AppData\Local\Temp\ccj5QhVO.s:22973  .debug_str:00000000000076e6 .LASF2504
C:\Users\CYMR90~1\AppData\Local\Temp\ccj5QhVO.s:26105  .debug_str:0000000000014237 .LASF2505
C:\Users\CYMR90~1\AppData\Local\Temp\ccj5QhVO.s:29300  .debug_str:0000000000020f0e .LASF2506
C:\Users\CYMR90~1\AppData\Local\Temp\ccj5QhVO.s:31494  .debug_str:0000000000029a13 .LASF2507
C:\Users\CYMR90~1\AppData\Local\Temp\ccj5QhVO.s:24447  .debug_str:000000000000d902 .LASF2508
C:\Users\CYMR90~1\AppData\Local\Temp\ccj5QhVO.s:27664  .debug_str:000000000001a7e3 .LASF2509
C:\Users\CYMR90~1\AppData\Local\Temp\ccj5QhVO.s:30854  .debug_str:0000000000027126 .LASF2510
C:\Users\CYMR90~1\AppData\Local\Temp\ccj5QhVO.s:31186  .debug_str:0000000000028756 .LASF2511
C:\Users\CYMR90~1\AppData\Local\Temp\ccj5QhVO.s:24579  .debug_str:000000000000e0c6 .LASF2512
C:\Users\CYMR90~1\AppData\Local\Temp\ccj5QhVO.s:29246  .debug_str:0000000000020b9b .LASF2513
C:\Users\CYMR90~1\AppData\Local\Temp\ccj5QhVO.s:22611  .debug_str:0000000000005fc9 .LASF2514
C:\Users\CYMR90~1\AppData\Local\Temp\ccj5QhVO.s:27354  .debug_str:0000000000019371 .LASF2515
C:\Users\CYMR90~1\AppData\Local\Temp\ccj5QhVO.s:28124  .debug_str:000000000001c527 .LASF2516
C:\Users\CYMR90~1\AppData\Local\Temp\ccj5QhVO.s:25445  .debug_str:000000000001166f .LASF2517
C:\Users\CYMR90~1\AppData\Local\Temp\ccj5QhVO.s:30136  .debug_str:000000000002416a .LASF2518
C:\Users\CYMR90~1\AppData\Local\Temp\ccj5QhVO.s:28216  .debug_str:000000000001cb5c .LASF2519
C:\Users\CYMR90~1\AppData\Local\Temp\ccj5QhVO.s:29388  .debug_str:00000000000213ec .LASF2520
C:\Users\CYMR90~1\AppData\Local\Temp\ccj5QhVO.s:22771  .debug_str:0000000000006976 .LASF2521
C:\Users\CYMR90~1\AppData\Local\Temp\ccj5QhVO.s:27488  .debug_str:0000000000019c26 .LASF2522
C:\Users\CYMR90~1\AppData\Local\Temp\ccj5QhVO.s:32214  .debug_str:000000000002c704 .LASF2523
C:\Users\CYMR90~1\AppData\Local\Temp\ccj5QhVO.s:25589  .debug_str:0000000000012097 .LASF2524
C:\Users\CYMR90~1\AppData\Local\Temp\ccj5QhVO.s:30262  .debug_str:0000000000024a3d .LASF2525
C:\Users\CYMR90~1\AppData\Local\Temp\ccj5QhVO.s:25791  .debug_str:0000000000012def .LASF2526
C:\Users\CYMR90~1\AppData\Local\Temp\ccj5QhVO.s:21949  .debug_str:0000000000003632 .LASF2527
C:\Users\CYMR90~1\AppData\Local\Temp\ccj5QhVO.s:27148  .debug_str:000000000001852a .LASF2528
C:\Users\CYMR90~1\AppData\Local\Temp\ccj5QhVO.s:23507  .debug_str:0000000000009a2e .LASF2529
C:\Users\CYMR90~1\AppData\Local\Temp\ccj5QhVO.s:22279  .debug_str:0000000000004c3b .LASF2530
C:\Users\CYMR90~1\AppData\Local\Temp\ccj5QhVO.s:30572  .debug_str:0000000000025ff3 .LASF2531
C:\Users\CYMR90~1\AppData\Local\Temp\ccj5QhVO.s:26569  .debug_str:0000000000015f09 .LASF2532
C:\Users\CYMR90~1\AppData\Local\Temp\ccj5QhVO.s:26333  .debug_str:00000000000150b9 .LASF2533
C:\Users\CYMR90~1\AppData\Local\Temp\ccj5QhVO.s:26715  .debug_str:0000000000016869 .LASF2534
C:\Users\CYMR90~1\AppData\Local\Temp\ccj5QhVO.s:23571  .debug_str:0000000000009e14 .LASF2535
C:\Users\CYMR90~1\AppData\Local\Temp\ccj5QhVO.s:22819  .debug_str:0000000000006c81 .LASF2536
C:\Users\CYMR90~1\AppData\Local\Temp\ccj5QhVO.s:31320  .debug_str:0000000000028f80 .LASF2537
C:\Users\CYMR90~1\AppData\Local\Temp\ccj5QhVO.s:21191  .debug_str:00000000000006f7 .LASF2538
C:\Users\CYMR90~1\AppData\Local\Temp\ccj5QhVO.s:22997  .debug_str:0000000000007868 .LASF2539
C:\Users\CYMR90~1\AppData\Local\Temp\ccj5QhVO.s:21987  .debug_str:00000000000038bf .LASF2540
C:\Users\CYMR90~1\AppData\Local\Temp\ccj5QhVO.s:30468  .debug_str:000000000002591c .LASF2541
C:\Users\CYMR90~1\AppData\Local\Temp\ccj5QhVO.s:25591  .debug_str:00000000000120ac .LASF2542
C:\Users\CYMR90~1\AppData\Local\Temp\ccj5QhVO.s:24361  .debug_str:000000000000d2f7 .LASF2543
C:\Users\CYMR90~1\AppData\Local\Temp\ccj5QhVO.s:28978  .debug_str:000000000001fb24 .LASF2544
C:\Users\CYMR90~1\AppData\Local\Temp\ccj5QhVO.s:28092  .debug_str:000000000001c348 .LASF2545
C:\Users\CYMR90~1\AppData\Local\Temp\ccj5QhVO.s:22035  .debug_str:0000000000003b98 .LASF2546
C:\Users\CYMR90~1\AppData\Local\Temp\ccj5QhVO.s:30620  .debug_str:0000000000026335 .LASF2547
C:\Users\CYMR90~1\AppData\Local\Temp\ccj5QhVO.s:24335  .debug_str:000000000000d13d .LASF2548
C:\Users\CYMR90~1\AppData\Local\Temp\ccj5QhVO.s:23413  .debug_str:00000000000093e1 .LASF2549
C:\Users\CYMR90~1\AppData\Local\Temp\ccj5QhVO.s:22371  .debug_str:0000000000005191 .LASF2550
C:\Users\CYMR90~1\AppData\Local\Temp\ccj5QhVO.s:30974  .debug_str:00000000000278dd .LASF2551
C:\Users\CYMR90~1\AppData\Local\Temp\ccj5QhVO.s:31272  .debug_str:0000000000028cfc .LASF2552
C:\Users\CYMR90~1\AppData\Local\Temp\ccj5QhVO.s:25443  .debug_str:000000000001164d .LASF2553
C:\Users\CYMR90~1\AppData\Local\Temp\ccj5QhVO.s:29338  .debug_str:0000000000021117 .LASF2554
C:\Users\CYMR90~1\AppData\Local\Temp\ccj5QhVO.s:26489  .debug_str:00000000000159c1 .LASF2555
C:\Users\CYMR90~1\AppData\Local\Temp\ccj5QhVO.s:27050  .debug_str:0000000000017f55 .LASF2556
C:\Users\CYMR90~1\AppData\Local\Temp\ccj5QhVO.s:25915  .debug_str:00000000000136a3 .LASF2557
C:\Users\CYMR90~1\AppData\Local\Temp\ccj5QhVO.s:26391  .debug_str:0000000000015463 .LASF2558
C:\Users\CYMR90~1\AppData\Local\Temp\ccj5QhVO.s:25107  .debug_str:000000000001012b .LASF2559
C:\Users\CYMR90~1\AppData\Local\Temp\ccj5QhVO.s:25393  .debug_str:0000000000011346 .LASF2560
C:\Users\CYMR90~1\AppData\Local\Temp\ccj5QhVO.s:24485  .debug_str:000000000000db09 .LASF2561
C:\Users\CYMR90~1\AppData\Local\Temp\ccj5QhVO.s:23485  .debug_str:0000000000009868 .LASF2562
C:\Users\CYMR90~1\AppData\Local\Temp\ccj5QhVO.s:31980  .debug_str:000000000002b74d .LASF2563
C:\Users\CYMR90~1\AppData\Local\Temp\ccj5QhVO.s:25131  .debug_str:00000000000102c5 .LASF2564
C:\Users\CYMR90~1\AppData\Local\Temp\ccj5QhVO.s:31314  .debug_str:0000000000028f23 .LASF2565
C:\Users\CYMR90~1\AppData\Local\Temp\ccj5QhVO.s:30028  .debug_str:0000000000023b47 .LASF2566
C:\Users\CYMR90~1\AppData\Local\Temp\ccj5QhVO.s:26886  .debug_str:0000000000017529 .LASF2567
C:\Users\CYMR90~1\AppData\Local\Temp\ccj5QhVO.s:26507  .debug_str:0000000000015af7 .LASF2568
C:\Users\CYMR90~1\AppData\Local\Temp\ccj5QhVO.s:26637  .debug_str:0000000000016388 .LASF2569
C:\Users\CYMR90~1\AppData\Local\Temp\ccj5QhVO.s:30996  .debug_str:0000000000027a13 .LASF2570
C:\Users\CYMR90~1\AppData\Local\Temp\ccj5QhVO.s:24351  .debug_str:000000000000d241 .LASF2571
C:\Users\CYMR90~1\AppData\Local\Temp\ccj5QhVO.s:28682  .debug_str:000000000001e9c7 .LASF2572
C:\Users\CYMR90~1\AppData\Local\Temp\ccj5QhVO.s:22893  .debug_str:000000000000719e .LASF2573
C:\Users\CYMR90~1\AppData\Local\Temp\ccj5QhVO.s:21335  .debug_str:000000000000101c .LASF2574
C:\Users\CYMR90~1\AppData\Local\Temp\ccj5QhVO.s:27748  .debug_str:000000000001ad97 .LASF2575
C:\Users\CYMR90~1\AppData\Local\Temp\ccj5QhVO.s:23751  .debug_str:000000000000aa45 .LASF2576
C:\Users\CYMR90~1\AppData\Local\Temp\ccj5QhVO.s:26617  .debug_str:0000000000016251 .LASF2577
C:\Users\CYMR90~1\AppData\Local\Temp\ccj5QhVO.s:24073  .debug_str:000000000000c054 .LASF2578
C:\Users\CYMR90~1\AppData\Local\Temp\ccj5QhVO.s:24205  .debug_str:000000000000c89d .LASF2579
C:\Users\CYMR90~1\AppData\Local\Temp\ccj5QhVO.s:28134  .debug_str:000000000001c5a0 .LASF2580
C:\Users\CYMR90~1\AppData\Local\Temp\ccj5QhVO.s:22317  .debug_str:0000000000004e76 .LASF2581
C:\Users\CYMR90~1\AppData\Local\Temp\ccj5QhVO.s:27992  .debug_str:000000000001bc97 .LASF2582
C:\Users\CYMR90~1\AppData\Local\Temp\ccj5QhVO.s:26493  .debug_str:0000000000015a2a .LASF2583
C:\Users\CYMR90~1\AppData\Local\Temp\ccj5QhVO.s:31460  .debug_str:0000000000029830 .LASF2584
C:\Users\CYMR90~1\AppData\Local\Temp\ccj5QhVO.s:29620  .debug_str:00000000000222b8 .LASF2585
C:\Users\CYMR90~1\AppData\Local\Temp\ccj5QhVO.s:22285  .debug_str:0000000000004ca0 .LASF2586
C:\Users\CYMR90~1\AppData\Local\Temp\ccj5QhVO.s:29364  .debug_str:000000000002126e .LASF2587
C:\Users\CYMR90~1\AppData\Local\Temp\ccj5QhVO.s:31740  .debug_str:000000000002a87b .LASF2588
C:\Users\CYMR90~1\AppData\Local\Temp\ccj5QhVO.s:21289  .debug_str:0000000000000d18 .LASF2589
C:\Users\CYMR90~1\AppData\Local\Temp\ccj5QhVO.s:23019  .debug_str:00000000000079d5 .LASF2590
C:\Users\CYMR90~1\AppData\Local\Temp\ccj5QhVO.s:23483  .debug_str:0000000000009848 .LASF2591
C:\Users\CYMR90~1\AppData\Local\Temp\ccj5QhVO.s:25771  .debug_str:0000000000012ccd .LASF2592
C:\Users\CYMR90~1\AppData\Local\Temp\ccj5QhVO.s:23543  .debug_str:0000000000009c65 .LASF2593
C:\Users\CYMR90~1\AppData\Local\Temp\ccj5QhVO.s:22077  .debug_str:0000000000003e3a .LASF2594
C:\Users\CYMR90~1\AppData\Local\Temp\ccj5QhVO.s:28002  .debug_str:000000000001bd67 .LASF2595
C:\Users\CYMR90~1\AppData\Local\Temp\ccj5QhVO.s:27140  .debug_str:00000000000184c2 .LASF2596
C:\Users\CYMR90~1\AppData\Local\Temp\ccj5QhVO.s:23605  .debug_str:000000000000a067 .LASF2597
C:\Users\CYMR90~1\AppData\Local\Temp\ccj5QhVO.s:32308  .debug_str:000000000002ccf6 .LASF2598
C:\Users\CYMR90~1\AppData\Local\Temp\ccj5QhVO.s:21531  .debug_str:0000000000001c2e .LASF2599
C:\Users\CYMR90~1\AppData\Local\Temp\ccj5QhVO.s:26023  .debug_str:0000000000013d62 .LASF2600
C:\Users\CYMR90~1\AppData\Local\Temp\ccj5QhVO.s:29596  .debug_str:0000000000022138 .LASF2601
C:\Users\CYMR90~1\AppData\Local\Temp\ccj5QhVO.s:32086  .debug_str:000000000002be36 .LASF2602
C:\Users\CYMR90~1\AppData\Local\Temp\ccj5QhVO.s:25449  .debug_str:00000000000116b3 .LASF2603
C:\Users\CYMR90~1\AppData\Local\Temp\ccj5QhVO.s:24781  .debug_str:000000000000ed5c .LASF2604
C:\Users\CYMR90~1\AppData\Local\Temp\ccj5QhVO.s:28260  .debug_str:000000000001ce25 .LASF2605
C:\Users\CYMR90~1\AppData\Local\Temp\ccj5QhVO.s:27524  .debug_str:0000000000019e63 .LASF2606
C:\Users\CYMR90~1\AppData\Local\Temp\ccj5QhVO.s:22335  .debug_str:0000000000004f94 .LASF2607
C:\Users\CYMR90~1\AppData\Local\Temp\ccj5QhVO.s:22249  .debug_str:0000000000004a51 .LASF2608
C:\Users\CYMR90~1\AppData\Local\Temp\ccj5QhVO.s:32344  .debug_str:000000000002cf8b .LASF2609
C:\Users\CYMR90~1\AppData\Local\Temp\ccj5QhVO.s:28884  .debug_str:000000000001f5be .LASF2610
C:\Users\CYMR90~1\AppData\Local\Temp\ccj5QhVO.s:23169  .debug_str:00000000000084d3 .LASF2611
C:\Users\CYMR90~1\AppData\Local\Temp\ccj5QhVO.s:23157  .debug_str:0000000000008432 .LASF2612
C:\Users\CYMR90~1\AppData\Local\Temp\ccj5QhVO.s:30512  .debug_str:0000000000025c65 .LASF2613
C:\Users\CYMR90~1\AppData\Local\Temp\ccj5QhVO.s:25405  .debug_str:0000000000011409 .LASF2614
C:\Users\CYMR90~1\AppData\Local\Temp\ccj5QhVO.s:26635  .debug_str:0000000000016364 .LASF2615
C:\Users\CYMR90~1\AppData\Local\Temp\ccj5QhVO.s:27948  .debug_str:000000000001ba61 .LASF2616
C:\Users\CYMR90~1\AppData\Local\Temp\ccj5QhVO.s:31252  .debug_str:0000000000028bd7 .LASF2617
C:\Users\CYMR90~1\AppData\Local\Temp\ccj5QhVO.s:30078  .debug_str:0000000000023e2f .LASF2618
C:\Users\CYMR90~1\AppData\Local\Temp\ccj5QhVO.s:28500  .debug_str:000000000001de26 .LASF2619
C:\Users\CYMR90~1\AppData\Local\Temp\ccj5QhVO.s:27500  .debug_str:0000000000019cfb .LASF2620
C:\Users\CYMR90~1\AppData\Local\Temp\ccj5QhVO.s:26595  .debug_str:00000000000160d9 .LASF2621
C:\Users\CYMR90~1\AppData\Local\Temp\ccj5QhVO.s:25679  .debug_str:0000000000012697 .LASF2622
C:\Users\CYMR90~1\AppData\Local\Temp\ccj5QhVO.s:23759  .debug_str:000000000000aabe .LASF2623
C:\Users\CYMR90~1\AppData\Local\Temp\ccj5QhVO.s:26423  .debug_str:0000000000015617 .LASF2624
C:\Users\CYMR90~1\AppData\Local\Temp\ccj5QhVO.s:22177  .debug_str:000000000000450d .LASF2625
C:\Users\CYMR90~1\AppData\Local\Temp\ccj5QhVO.s:21885  .debug_str:00000000000031d3 .LASF2626
C:\Users\CYMR90~1\AppData\Local\Temp\ccj5QhVO.s:23415  .debug_str:0000000000009403 .LASF2627
C:\Users\CYMR90~1\AppData\Local\Temp\ccj5QhVO.s:21285  .debug_str:0000000000000ce1 .LASF2628
C:\Users\CYMR90~1\AppData\Local\Temp\ccj5QhVO.s:24575  .debug_str:000000000000e088 .LASF2629
C:\Users\CYMR90~1\AppData\Local\Temp\ccj5QhVO.s:23227  .debug_str:0000000000008849 .LASF2630
C:\Users\CYMR90~1\AppData\Local\Temp\ccj5QhVO.s:21581  .debug_str:0000000000001f0d .LASF2631
C:\Users\CYMR90~1\AppData\Local\Temp\ccj5QhVO.s:24037  .debug_str:000000000000bd4c .LASF2632
C:\Users\CYMR90~1\AppData\Local\Temp\ccj5QhVO.s:21385  .debug_str:00000000000012bc .LASF2633
C:\Users\CYMR90~1\AppData\Local\Temp\ccj5QhVO.s:27632  .debug_str:000000000001a65f .LASF2634
C:\Users\CYMR90~1\AppData\Local\Temp\ccj5QhVO.s:27414  .debug_str:00000000000196d6 .LASF2635
C:\Users\CYMR90~1\AppData\Local\Temp\ccj5QhVO.s:25949  .debug_str:00000000000138e5 .LASF2636
C:\Users\CYMR90~1\AppData\Local\Temp\ccj5QhVO.s:31152  .debug_str:0000000000028522 .LASF2637
C:\Users\CYMR90~1\AppData\Local\Temp\ccj5QhVO.s:23613  .debug_str:000000000000a0e8 .LASF2638
C:\Users\CYMR90~1\AppData\Local\Temp\ccj5QhVO.s:27678  .debug_str:000000000001a8d0 .LASF2639
C:\Users\CYMR90~1\AppData\Local\Temp\ccj5QhVO.s:28310  .debug_str:000000000001d264 .LASF2640
C:\Users\CYMR90~1\AppData\Local\Temp\ccj5QhVO.s:26822  .debug_str:000000000001717e .LASF2641
C:\Users\CYMR90~1\AppData\Local\Temp\ccj5QhVO.s:30740  .debug_str:0000000000026a5b .LASF2642
C:\Users\CYMR90~1\AppData\Local\Temp\ccj5QhVO.s:25885  .debug_str:0000000000013425 .LASF2643
C:\Users\CYMR90~1\AppData\Local\Temp\ccj5QhVO.s:21151  .debug_str:00000000000004a0 .LASF2644
C:\Users\CYMR90~1\AppData\Local\Temp\ccj5QhVO.s:21647  .debug_str:0000000000002286 .LASF2645
C:\Users\CYMR90~1\AppData\Local\Temp\ccj5QhVO.s:26453  .debug_str:00000000000157b2 .LASF2646
C:\Users\CYMR90~1\AppData\Local\Temp\ccj5QhVO.s:21273  .debug_str:0000000000000c40 .LASF2647
C:\Users\CYMR90~1\AppData\Local\Temp\ccj5QhVO.s:28408  .debug_str:000000000001d8cb .LASF2648
C:\Users\CYMR90~1\AppData\Local\Temp\ccj5QhVO.s:28980  .debug_str:000000000001fb46 .LASF2649
C:\Users\CYMR90~1\AppData\Local\Temp\ccj5QhVO.s:30310  .debug_str:0000000000024daa .LASF2650
C:\Users\CYMR90~1\AppData\Local\Temp\ccj5QhVO.s:22433  .debug_str:0000000000005553 .LASF2651
C:\Users\CYMR90~1\AppData\Local\Temp\ccj5QhVO.s:22037  .debug_str:0000000000003bba .LASF2652
C:\Users\CYMR90~1\AppData\Local\Temp\ccj5QhVO.s:26149  .debug_str:0000000000014528 .LASF2653
C:\Users\CYMR90~1\AppData\Local\Temp\ccj5QhVO.s:24111  .debug_str:000000000000c2d1 .LASF2654
C:\Users\CYMR90~1\AppData\Local\Temp\ccj5QhVO.s:28870  .debug_str:000000000001f4fd .LASF2655
C:\Users\CYMR90~1\AppData\Local\Temp\ccj5QhVO.s:24655  .debug_str:000000000000e510 .LASF2656
C:\Users\CYMR90~1\AppData\Local\Temp\ccj5QhVO.s:29764  .debug_str:0000000000022b65 .LASF2657
C:\Users\CYMR90~1\AppData\Local\Temp\ccj5QhVO.s:32292  .debug_str:000000000002cc20 .LASF2658
C:\Users\CYMR90~1\AppData\Local\Temp\ccj5QhVO.s:22547  .debug_str:0000000000005c4a .LASF2659
C:\Users\CYMR90~1\AppData\Local\Temp\ccj5QhVO.s:27662  .debug_str:000000000001a7c5 .LASF2660
C:\Users\CYMR90~1\AppData\Local\Temp\ccj5QhVO.s:23827  .debug_str:000000000000af27 .LASF2661
C:\Users\CYMR90~1\AppData\Local\Temp\ccj5QhVO.s:30446  .debug_str:000000000002576c .LASF2662
C:\Users\CYMR90~1\AppData\Local\Temp\ccj5QhVO.s:21833  .debug_str:0000000000002e90 .LASF2663
C:\Users\CYMR90~1\AppData\Local\Temp\ccj5QhVO.s:32172  .debug_str:000000000002c41d .LASF2664
C:\Users\CYMR90~1\AppData\Local\Temp\ccj5QhVO.s:21423  .debug_str:00000000000014ed .LASF2665
C:\Users\CYMR90~1\AppData\Local\Temp\ccj5QhVO.s:21189  .debug_str:00000000000006ca .LASF2666
C:\Users\CYMR90~1\AppData\Local\Temp\ccj5QhVO.s:29636  .debug_str:00000000000223a7 .LASF2667
C:\Users\CYMR90~1\AppData\Local\Temp\ccj5QhVO.s:26043  .debug_str:0000000000013ea2 .LASF2668
C:\Users\CYMR90~1\AppData\Local\Temp\ccj5QhVO.s:25835  .debug_str:00000000000130d7 .LASF2669
C:\Users\CYMR90~1\AppData\Local\Temp\ccj5QhVO.s:28676  .debug_str:000000000001e95c .LASF2670
C:\Users\CYMR90~1\AppData\Local\Temp\ccj5QhVO.s:23961  .debug_str:000000000000b878 .LASF2671
C:\Users\CYMR90~1\AppData\Local\Temp\ccj5QhVO.s:22827  .debug_str:0000000000006d10 .LASF2672
C:\Users\CYMR90~1\AppData\Local\Temp\ccj5QhVO.s:28976  .debug_str:000000000001faf6 .LASF2673
C:\Users\CYMR90~1\AppData\Local\Temp\ccj5QhVO.s:31516  .debug_str:0000000000029b3d .LASF2674
C:\Users\CYMR90~1\AppData\Local\Temp\ccj5QhVO.s:26968  .debug_str:0000000000017a46 .LASF2675
C:\Users\CYMR90~1\AppData\Local\Temp\ccj5QhVO.s:28324  .debug_str:000000000001d34a .LASF2676
C:\Users\CYMR90~1\AppData\Local\Temp\ccj5QhVO.s:26207  .debug_str:00000000000148a1 .LASF2677
C:\Users\CYMR90~1\AppData\Local\Temp\ccj5QhVO.s:24487  .debug_str:000000000000db2c .LASF2678
C:\Users\CYMR90~1\AppData\Local\Temp\ccj5QhVO.s:27844  .debug_str:000000000001b3d9 .LASF2679
C:\Users\CYMR90~1\AppData\Local\Temp\ccj5QhVO.s:31900  .debug_str:000000000002b1e4 .LASF2680
C:\Users\CYMR90~1\AppData\Local\Temp\ccj5QhVO.s:22345  .debug_str:0000000000005013 .LASF2681
C:\Users\CYMR90~1\AppData\Local\Temp\ccj5QhVO.s:22985  .debug_str:00000000000077a2 .LASF2682
C:\Users\CYMR90~1\AppData\Local\Temp\ccj5QhVO.s:31330  .debug_str:0000000000029055 .LASF2683
C:\Users\CYMR90~1\AppData\Local\Temp\ccj5QhVO.s:27340  .debug_str:0000000000019279 .LASF2684
C:\Users\CYMR90~1\AppData\Local\Temp\ccj5QhVO.s:30388  .debug_str:000000000002527f .LASF2685
C:\Users\CYMR90~1\AppData\Local\Temp\ccj5QhVO.s:24343  .debug_str:000000000000d1b3 .LASF2686
C:\Users\CYMR90~1\AppData\Local\Temp\ccj5QhVO.s:29534  .debug_str:0000000000021d91 .LASF2687
C:\Users\CYMR90~1\AppData\Local\Temp\ccj5QhVO.s:29784  .debug_str:0000000000022c81 .LASF2688
C:\Users\CYMR90~1\AppData\Local\Temp\ccj5QhVO.s:25437  .debug_str:0000000000011603 .LASF2689
C:\Users\CYMR90~1\AppData\Local\Temp\ccj5QhVO.s:22019  .debug_str:0000000000003abc .LASF2690
C:\Users\CYMR90~1\AppData\Local\Temp\ccj5QhVO.s:27294  .debug_str:0000000000018ed2 .LASF2691
C:\Users\CYMR90~1\AppData\Local\Temp\ccj5QhVO.s:21203  .debug_str:00000000000007ad .LASF2692
C:\Users\CYMR90~1\AppData\Local\Temp\ccj5QhVO.s:29072  .debug_str:00000000000200fc .LASF2693
C:\Users\CYMR90~1\AppData\Local\Temp\ccj5QhVO.s:31240  .debug_str:0000000000028afe .LASF2694
C:\Users\CYMR90~1\AppData\Local\Temp\ccj5QhVO.s:23127  .debug_str:0000000000008213 .LASF2695
C:\Users\CYMR90~1\AppData\Local\Temp\ccj5QhVO.s:23763  .debug_str:000000000000ab02 .LASF2696
C:\Users\CYMR90~1\AppData\Local\Temp\ccj5QhVO.s:29530  .debug_str:0000000000021d55 .LASF2697
C:\Users\CYMR90~1\AppData\Local\Temp\ccj5QhVO.s:21337  .debug_str:000000000000102e .LASF2698
C:\Users\CYMR90~1\AppData\Local\Temp\ccj5QhVO.s:24587  .debug_str:000000000000e11f .LASF2699
C:\Users\CYMR90~1\AppData\Local\Temp\ccj5QhVO.s:27808  .debug_str:000000000001b19a .LASF2700
C:\Users\CYMR90~1\AppData\Local\Temp\ccj5QhVO.s:30998  .debug_str:0000000000027a26 .LASF2701
C:\Users\CYMR90~1\AppData\Local\Temp\ccj5QhVO.s:22869  .debug_str:0000000000006ffd .LASF2702
C:\Users\CYMR90~1\AppData\Local\Temp\ccj5QhVO.s:26097  .debug_str:00000000000141a8 .LASF2703
C:\Users\CYMR90~1\AppData\Local\Temp\ccj5QhVO.s:22543  .debug_str:0000000000005c1d .LASF2704
C:\Users\CYMR90~1\AppData\Local\Temp\ccj5QhVO.s:27288  .debug_str:0000000000018e75 .LASF2705
C:\Users\CYMR90~1\AppData\Local\Temp\ccj5QhVO.s:32024  .debug_str:000000000002ba47 .LASF2706
C:\Users\CYMR90~1\AppData\Local\Temp\ccj5QhVO.s:25385  .debug_str:00000000000112cd .LASF2707
C:\Users\CYMR90~1\AppData\Local\Temp\ccj5QhVO.s:30066  .debug_str:0000000000023d8a .LASF2708
C:\Users\CYMR90~1\AppData\Local\Temp\ccj5QhVO.s:23461  .debug_str:0000000000009709 .LASF2709
C:\Users\CYMR90~1\AppData\Local\Temp\ccj5QhVO.s:23839  .debug_str:000000000000b0b0 .LASF2710
C:\Users\CYMR90~1\AppData\Local\Temp\ccj5QhVO.s:24495  .debug_str:000000000000dbbc .LASF2711
C:\Users\CYMR90~1\AppData\Local\Temp\ccj5QhVO.s:29778  .debug_str:0000000000022c1b .LASF2712
C:\Users\CYMR90~1\AppData\Local\Temp\ccj5QhVO.s:27018  .debug_str:0000000000017d6d .LASF2713
C:\Users\CYMR90~1\AppData\Local\Temp\ccj5QhVO.s:22263  .debug_str:0000000000004b30 .LASF2714
C:\Users\CYMR90~1\AppData\Local\Temp\ccj5QhVO.s:23713  .debug_str:000000000000a70d .LASF2715
C:\Users\CYMR90~1\AppData\Local\Temp\ccj5QhVO.s:28900  .debug_str:000000000001f69b .LASF2716
C:\Users\CYMR90~1\AppData\Local\Temp\ccj5QhVO.s:22463  .debug_str:0000000000005737 .LASF2717
C:\Users\CYMR90~1\AppData\Local\Temp\ccj5QhVO.s:28006  .debug_str:000000000001bdb4 .LASF2718
C:\Users\CYMR90~1\AppData\Local\Temp\ccj5QhVO.s:24203  .debug_str:000000000000c881 .LASF2719
C:\Users\CYMR90~1\AppData\Local\Temp\ccj5QhVO.s:23939  .debug_str:000000000000b6ec .LASF2720
C:\Users\CYMR90~1\AppData\Local\Temp\ccj5QhVO.s:29142  .debug_str:0000000000020506 .LASF2721
C:\Users\CYMR90~1\AppData\Local\Temp\ccj5QhVO.s:23083  .debug_str:0000000000007e77 .LASF2722
C:\Users\CYMR90~1\AppData\Local\Temp\ccj5QhVO.s:28228  .debug_str:000000000001cbfc .LASF2723
C:\Users\CYMR90~1\AppData\Local\Temp\ccj5QhVO.s:22133  .debug_str:0000000000004264 .LASF2724
C:\Users\CYMR90~1\AppData\Local\Temp\ccj5QhVO.s:30042  .debug_str:0000000000023c27 .LASF2725
C:\Users\CYMR90~1\AppData\Local\Temp\ccj5QhVO.s:27320  .debug_str:0000000000019062 .LASF2726
C:\Users\CYMR90~1\AppData\Local\Temp\ccj5QhVO.s:21607  .debug_str:0000000000002062 .LASF2727
C:\Users\CYMR90~1\AppData\Local\Temp\ccj5QhVO.s:21955  .debug_str:000000000000367b .LASF2728
C:\Users\CYMR90~1\AppData\Local\Temp\ccj5QhVO.s:30518  .debug_str:0000000000025ce0 .LASF2729
C:\Users\CYMR90~1\AppData\Local\Temp\ccj5QhVO.s:27866  .debug_str:000000000001b547 .LASF2730
C:\Users\CYMR90~1\AppData\Local\Temp\ccj5QhVO.s:27008  .debug_str:0000000000017cf2 .LASF2731
C:\Users\CYMR90~1\AppData\Local\Temp\ccj5QhVO.s:32200  .debug_str:000000000002c626 .LASF2732
C:\Users\CYMR90~1\AppData\Local\Temp\ccj5QhVO.s:26095  .debug_str:000000000001418e .LASF2733
C:\Users\CYMR90~1\AppData\Local\Temp\ccj5QhVO.s:31354  .debug_str:00000000000291bc .LASF2734
C:\Users\CYMR90~1\AppData\Local\Temp\ccj5QhVO.s:25187  .debug_str:0000000000010601 .LASF2735
C:\Users\CYMR90~1\AppData\Local\Temp\ccj5QhVO.s:27764  .debug_str:000000000001ae86 .LASF2736
C:\Users\CYMR90~1\AppData\Local\Temp\ccj5QhVO.s:21641  .debug_str:000000000000223b .LASF2737
C:\Users\CYMR90~1\AppData\Local\Temp\ccj5QhVO.s:26812  .debug_str:00000000000170f9 .LASF2738
C:\Users\CYMR90~1\AppData\Local\Temp\ccj5QhVO.s:26129  .debug_str:0000000000014400 .LASF2739
C:\Users\CYMR90~1\AppData\Local\Temp\ccj5QhVO.s:25899  .debug_str:0000000000013532 .LASF2740
C:\Users\CYMR90~1\AppData\Local\Temp\ccj5QhVO.s:24785  .debug_str:000000000000ed8d .LASF2741
C:\Users\CYMR90~1\AppData\Local\Temp\ccj5QhVO.s:31902  .debug_str:000000000002b1fc .LASF2742
C:\Users\CYMR90~1\AppData\Local\Temp\ccj5QhVO.s:23781  .debug_str:000000000000ac1b .LASF2743
C:\Users\CYMR90~1\AppData\Local\Temp\ccj5QhVO.s:26966  .debug_str:0000000000017a2d .LASF2744
C:\Users\CYMR90~1\AppData\Local\Temp\ccj5QhVO.s:30188  .debug_str:000000000002459d .LASF2745
C:\Users\CYMR90~1\AppData\Local\Temp\ccj5QhVO.s:22061  .debug_str:0000000000003d61 .LASF2746
C:\Users\CYMR90~1\AppData\Local\Temp\ccj5QhVO.s:25319  .debug_str:0000000000010f2d .LASF2747
C:\Users\CYMR90~1\AppData\Local\Temp\ccj5QhVO.s:28478  .debug_str:000000000001dcef .LASF2748
C:\Users\CYMR90~1\AppData\Local\Temp\ccj5QhVO.s:31652  .debug_str:000000000002a319 .LASF2749
C:\Users\CYMR90~1\AppData\Local\Temp\ccj5QhVO.s:23539  .debug_str:0000000000009c30 .LASF2750
C:\Users\CYMR90~1\AppData\Local\Temp\ccj5QhVO.s:26733  .debug_str:0000000000016979 .LASF2751
C:\Users\CYMR90~1\AppData\Local\Temp\ccj5QhVO.s:28718  .debug_str:000000000001ec06 .LASF2752
C:\Users\CYMR90~1\AppData\Local\Temp\ccj5QhVO.s:22115  .debug_str:00000000000040a1 .LASF2753
C:\Users\CYMR90~1\AppData\Local\Temp\ccj5QhVO.s:26848  .debug_str:00000000000172f0 .LASF2754
C:\Users\CYMR90~1\AppData\Local\Temp\ccj5QhVO.s:31564  .debug_str:0000000000029e27 .LASF2755
C:\Users\CYMR90~1\AppData\Local\Temp\ccj5QhVO.s:24955  .debug_str:000000000000f761 .LASF2756
C:\Users\CYMR90~1\AppData\Local\Temp\ccj5QhVO.s:29614  .debug_str:000000000002226e .LASF2757
C:\Users\CYMR90~1\AppData\Local\Temp\ccj5QhVO.s:23003  .debug_str:00000000000078d9 .LASF2758
C:\Users\CYMR90~1\AppData\Local\Temp\ccj5QhVO.s:26221  .debug_str:000000000001496f .LASF2759
C:\Users\CYMR90~1\AppData\Local\Temp\ccj5QhVO.s:29326  .debug_str:000000000002107b .LASF2760
C:\Users\CYMR90~1\AppData\Local\Temp\ccj5QhVO.s:21237  .debug_str:00000000000009a6 .LASF2761
C:\Users\CYMR90~1\AppData\Local\Temp\ccj5QhVO.s:24477  .debug_str:000000000000daa4 .LASF2762
C:\Users\CYMR90~1\AppData\Local\Temp\ccj5QhVO.s:27694  .debug_str:000000000001aa4b .LASF2763
C:\Users\CYMR90~1\AppData\Local\Temp\ccj5QhVO.s:30882  .debug_str:0000000000027291 .LASF2764
C:\Users\CYMR90~1\AppData\Local\Temp\ccj5QhVO.s:22759  .debug_str:00000000000068c3 .LASF2765
C:\Users\CYMR90~1\AppData\Local\Temp\ccj5QhVO.s:26001  .debug_str:0000000000013c11 .LASF2766
C:\Users\CYMR90~1\AppData\Local\Temp\ccj5QhVO.s:29188  .debug_str:000000000002082e .LASF2767
C:\Users\CYMR90~1\AppData\Local\Temp\ccj5QhVO.s:26521  .debug_str:0000000000015bbe .LASF2768
C:\Users\CYMR90~1\AppData\Local\Temp\ccj5QhVO.s:31256  .debug_str:0000000000028c09 .LASF2769
C:\Users\CYMR90~1\AppData\Local\Temp\ccj5QhVO.s:24639  .debug_str:000000000000e440 .LASF2770
C:\Users\CYMR90~1\AppData\Local\Temp\ccj5QhVO.s:22691  .debug_str:0000000000006485 .LASF2771
C:\Users\CYMR90~1\AppData\Local\Temp\ccj5QhVO.s:27428  .debug_str:00000000000197a6 .LASF2772
C:\Users\CYMR90~1\AppData\Local\Temp\ccj5QhVO.s:25961  .debug_str:00000000000139a5 .LASF2773
C:\Users\CYMR90~1\AppData\Local\Temp\ccj5QhVO.s:29132  .debug_str:000000000002043d .LASF2774
C:\Users\CYMR90~1\AppData\Local\Temp\ccj5QhVO.s:32378  .debug_str:000000000002d188 .LASF2775
C:\Users\CYMR90~1\AppData\Local\Temp\ccj5QhVO.s:28094  .debug_str:000000000001c36a .LASF2776
C:\Users\CYMR90~1\AppData\Local\Temp\ccj5QhVO.s:30172  .debug_str:0000000000024473 .LASF2777
C:\Users\CYMR90~1\AppData\Local\Temp\ccj5QhVO.s:30586  .debug_str:00000000000260c8 .LASF2778
C:\Users\CYMR90~1\AppData\Local\Temp\ccj5QhVO.s:24483  .debug_str:000000000000daf4 .LASF2779
C:\Users\CYMR90~1\AppData\Local\Temp\ccj5QhVO.s:25727  .debug_str:00000000000129bb .LASF2780
C:\Users\CYMR90~1\AppData\Local\Temp\ccj5QhVO.s:28872  .debug_str:000000000001f522 .LASF2781
C:\Users\CYMR90~1\AppData\Local\Temp\ccj5QhVO.s:32150  .debug_str:000000000002c2d8 .LASF2782
C:\Users\CYMR90~1\AppData\Local\Temp\ccj5QhVO.s:29616  .debug_str:0000000000022289 .LASF2783
C:\Users\CYMR90~1\AppData\Local\Temp\ccj5QhVO.s:31624  .debug_str:000000000002a187 .LASF2784
C:\Users\CYMR90~1\AppData\Local\Temp\ccj5QhVO.s:22033  .debug_str:0000000000003b81 .LASF2785
C:\Users\CYMR90~1\AppData\Local\Temp\ccj5QhVO.s:26757  .debug_str:0000000000016b51 .LASF2786
C:\Users\CYMR90~1\AppData\Local\Temp\ccj5QhVO.s:31482  .debug_str:000000000002997e .LASF2787
C:\Users\CYMR90~1\AppData\Local\Temp\ccj5QhVO.s:24867  .debug_str:000000000000f1fd .LASF2788
C:\Users\CYMR90~1\AppData\Local\Temp\ccj5QhVO.s:26723  .debug_str:00000000000168f4 .LASF2789
C:\Users\CYMR90~1\AppData\Local\Temp\ccj5QhVO.s:31450  .debug_str:0000000000029756 .LASF2790
C:\Users\CYMR90~1\AppData\Local\Temp\ccj5QhVO.s:24843  .debug_str:000000000000f0a0 .LASF2791
C:\Users\CYMR90~1\AppData\Local\Temp\ccj5QhVO.s:29504  .debug_str:0000000000021b7e .LASF2792
C:\Users\CYMR90~1\AppData\Local\Temp\ccj5QhVO.s:26011  .debug_str:0000000000013ca8 .LASF2793
C:\Users\CYMR90~1\AppData\Local\Temp\ccj5QhVO.s:21547  .debug_str:0000000000001cfe .LASF2794
C:\Users\CYMR90~1\AppData\Local\Temp\ccj5QhVO.s:26253  .debug_str:0000000000014b29 .LASF2795
C:\Users\CYMR90~1\AppData\Local\Temp\ccj5QhVO.s:30980  .debug_str:0000000000027924 .LASF2796
C:\Users\CYMR90~1\AppData\Local\Temp\ccj5QhVO.s:24379  .debug_str:000000000000d46b .LASF2797
C:\Users\CYMR90~1\AppData\Local\Temp\ccj5QhVO.s:29036  .debug_str:000000000001fe97 .LASF2798
C:\Users\CYMR90~1\AppData\Local\Temp\ccj5QhVO.s:24011  .debug_str:000000000000bbdb .LASF2799
C:\Users\CYMR90~1\AppData\Local\Temp\ccj5QhVO.s:28662  .debug_str:000000000001e858 .LASF2800
C:\Users\CYMR90~1\AppData\Local\Temp\ccj5QhVO.s:22049  .debug_str:0000000000003c79 .LASF2801
C:\Users\CYMR90~1\AppData\Local\Temp\ccj5QhVO.s:26773  .debug_str:0000000000016cdc .LASF2802
C:\Users\CYMR90~1\AppData\Local\Temp\ccj5QhVO.s:23383  .debug_str:0000000000009224 .LASF2803
C:\Users\CYMR90~1\AppData\Local\Temp\ccj5QhVO.s:30142  .debug_str:00000000000241ca .LASF2804
C:\Users\CYMR90~1\AppData\Local\Temp\ccj5QhVO.s:21557  .debug_str:0000000000001d9d .LASF2805
C:\Users\CYMR90~1\AppData\Local\Temp\ccj5QhVO.s:24807  .debug_str:000000000000eea8 .LASF2806
C:\Users\CYMR90~1\AppData\Local\Temp\ccj5QhVO.s:30938  .debug_str:00000000000276d9 .LASF2807
C:\Users\CYMR90~1\AppData\Local\Temp\ccj5QhVO.s:31228  .debug_str:0000000000028a5f .LASF2808
C:\Users\CYMR90~1\AppData\Local\Temp\ccj5QhVO.s:23013  .debug_str:000000000000796e .LASF2809
C:\Users\CYMR90~1\AppData\Local\Temp\ccj5QhVO.s:26229  .debug_str:00000000000149ce .LASF2810
C:\Users\CYMR90~1\AppData\Local\Temp\ccj5QhVO.s:29420  .debug_str:0000000000021695 .LASF2811
C:\Users\CYMR90~1\AppData\Local\Temp\ccj5QhVO.s:21323  .debug_str:0000000000000f7c .LASF2812
C:\Users\CYMR90~1\AppData\Local\Temp\ccj5QhVO.s:24571  .debug_str:000000000000e05c .LASF2813
C:\Users\CYMR90~1\AppData\Local\Temp\ccj5QhVO.s:32228  .debug_str:000000000002c797 .LASF2814
C:\Users\CYMR90~1\AppData\Local\Temp\ccj5QhVO.s:27066  .debug_str:0000000000018065 .LASF2815
C:\Users\CYMR90~1\AppData\Local\Temp\ccj5QhVO.s:31812  .debug_str:000000000002acca .LASF2816
C:\Users\CYMR90~1\AppData\Local\Temp\ccj5QhVO.s:25185  .debug_str:00000000000105ea .LASF2817
C:\Users\CYMR90~1\AppData\Local\Temp\ccj5QhVO.s:29864  .debug_str:000000000002317a .LASF2818
C:\Users\CYMR90~1\AppData\Local\Temp\ccj5QhVO.s:26393  .debug_str:0000000000015486 .LASF2819
C:\Users\CYMR90~1\AppData\Local\Temp\ccj5QhVO.s:27958  .debug_str:000000000001bac9 .LASF2820
C:\Users\CYMR90~1\AppData\Local\Temp\ccj5QhVO.s:25371  .debug_str:00000000000111ef .LASF2821
C:\Users\CYMR90~1\AppData\Local\Temp\ccj5QhVO.s:31676  .debug_str:000000000002a436 .LASF2822
C:\Users\CYMR90~1\AppData\Local\Temp\ccj5QhVO.s:27582  .debug_str:000000000001a1cf .LASF2823
C:\Users\CYMR90~1\AppData\Local\Temp\ccj5QhVO.s:23201  .debug_str:00000000000086a3 .LASF2824
C:\Users\CYMR90~1\AppData\Local\Temp\ccj5QhVO.s:24179  .debug_str:000000000000c6ea .LASF2825
C:\Users\CYMR90~1\AppData\Local\Temp\ccj5QhVO.s:31692  .debug_str:000000000002a547 .LASF2826
C:\Users\CYMR90~1\AppData\Local\Temp\ccj5QhVO.s:21963  .debug_str:00000000000036ed .LASF2827
C:\Users\CYMR90~1\AppData\Local\Temp\ccj5QhVO.s:26910  .debug_str:0000000000017676 .LASF2828
C:\Users\CYMR90~1\AppData\Local\Temp\ccj5QhVO.s:22323  .debug_str:0000000000004ee2 .LASF2829
C:\Users\CYMR90~1\AppData\Local\Temp\ccj5QhVO.s:25721  .debug_str:0000000000012958 .LASF2830
C:\Users\CYMR90~1\AppData\Local\Temp\ccj5QhVO.s:22365  .debug_str:0000000000005144 .LASF2831
C:\Users\CYMR90~1\AppData\Local\Temp\ccj5QhVO.s:29198  .debug_str:00000000000208ad .LASF2832
C:\Users\CYMR90~1\AppData\Local\Temp\ccj5QhVO.s:25997  .debug_str:0000000000013bd5 .LASF2833
C:\Users\CYMR90~1\AppData\Local\Temp\ccj5QhVO.s:24775  .debug_str:000000000000ecf1 .LASF2834
C:\Users\CYMR90~1\AppData\Local\Temp\ccj5QhVO.s:23831  .debug_str:000000000000af7c .LASF2835
C:\Users\CYMR90~1\AppData\Local\Temp\ccj5QhVO.s:21383  .debug_str:000000000000129e .LASF2836
C:\Users\CYMR90~1\AppData\Local\Temp\ccj5QhVO.s:24215  .debug_str:000000000000c943 .LASF2837
C:\Users\CYMR90~1\AppData\Local\Temp\ccj5QhVO.s:26005  .debug_str:0000000000013c4c .LASF2838
C:\Users\CYMR90~1\AppData\Local\Temp\ccj5QhVO.s:29194  .debug_str:000000000002087e .LASF2839
C:\Users\CYMR90~1\AppData\Local\Temp\ccj5QhVO.s:21105  .debug_str:00000000000001fe .LASF2840
C:\Users\CYMR90~1\AppData\Local\Temp\ccj5QhVO.s:24341  .debug_str:000000000000d1a0 .LASF2841
C:\Users\CYMR90~1\AppData\Local\Temp\ccj5QhVO.s:27528  .debug_str:0000000000019eb9 .LASF2842
C:\Users\CYMR90~1\AppData\Local\Temp\ccj5QhVO.s:21301  .debug_str:0000000000000dc6 .LASF2843
C:\Users\CYMR90~1\AppData\Local\Temp\ccj5QhVO.s:31004  .debug_str:0000000000027a71 .LASF2844
C:\Users\CYMR90~1\AppData\Local\Temp\ccj5QhVO.s:29352  .debug_str:00000000000211cc .LASF2845
C:\Users\CYMR90~1\AppData\Local\Temp\ccj5QhVO.s:27772  .debug_str:000000000001af0a .LASF2846
C:\Users\CYMR90~1\AppData\Local\Temp\ccj5QhVO.s:32208  .debug_str:000000000002c6a9 .LASF2847
C:\Users\CYMR90~1\AppData\Local\Temp\ccj5QhVO.s:21417  .debug_str:00000000000014b7 .LASF2848
C:\Users\CYMR90~1\AppData\Local\Temp\ccj5QhVO.s:26139  .debug_str:00000000000144a1 .LASF2849
C:\Users\CYMR90~1\AppData\Local\Temp\ccj5QhVO.s:30846  .debug_str:00000000000270bf .LASF2850
C:\Users\CYMR90~1\AppData\Local\Temp\ccj5QhVO.s:31894  .debug_str:000000000002b182 .LASF2851
C:\Users\CYMR90~1\AppData\Local\Temp\ccj5QhVO.s:28098  .debug_str:000000000001c398 .LASF2852
C:\Users\CYMR90~1\AppData\Local\Temp\ccj5QhVO.s:24387  .debug_str:000000000000d4c3 .LASF2853
C:\Users\CYMR90~1\AppData\Local\Temp\ccj5QhVO.s:29650  .debug_str:000000000002246f .LASF2854
C:\Users\CYMR90~1\AppData\Local\Temp\ccj5QhVO.s:21539  .debug_str:0000000000001ca7 .LASF2855
C:\Users\CYMR90~1\AppData\Local\Temp\ccj5QhVO.s:24791  .debug_str:000000000000edd8 .LASF2856
C:\Users\CYMR90~1\AppData\Local\Temp\ccj5QhVO.s:27982  .debug_str:000000000001bc10 .LASF2857
C:\Users\CYMR90~1\AppData\Local\Temp\ccj5QhVO.s:31122  .debug_str:00000000000282b4 .LASF2858
C:\Users\CYMR90~1\AppData\Local\Temp\ccj5QhVO.s:29494  .debug_str:0000000000021aee .LASF2859
C:\Users\CYMR90~1\AppData\Local\Temp\ccj5QhVO.s:26215  .debug_str:000000000001491f .LASF2860
C:\Users\CYMR90~1\AppData\Local\Temp\ccj5QhVO.s:26247  .debug_str:0000000000014ae4 .LASF2861
C:\Users\CYMR90~1\AppData\Local\Temp\ccj5QhVO.s:21315  .debug_str:0000000000000f1d .LASF2862
C:\Users\CYMR90~1\AppData\Local\Temp\ccj5QhVO.s:21459  .debug_str:00000000000017ab .LASF2863
C:\Users\CYMR90~1\AppData\Local\Temp\ccj5QhVO.s:26781  .debug_str:0000000000016d56 .LASF2864
C:\Users\CYMR90~1\AppData\Local\Temp\ccj5QhVO.s:29648  .debug_str:000000000002245a .LASF2865
C:\Users\CYMR90~1\AppData\Local\Temp\ccj5QhVO.s:24887  .debug_str:000000000000f34d .LASF2866
C:\Users\CYMR90~1\AppData\Local\Temp\ccj5QhVO.s:29552  .debug_str:0000000000021ed7 .LASF2867
C:\Users\CYMR90~1\AppData\Local\Temp\ccj5QhVO.s:29716  .debug_str:0000000000022859 .LASF2868
C:\Users\CYMR90~1\AppData\Local\Temp\ccj5QhVO.s:27686  .debug_str:000000000001a9e5 .LASF2869
C:\Users\CYMR90~1\AppData\Local\Temp\ccj5QhVO.s:26936  .debug_str:0000000000017811 .LASF2870
C:\Users\CYMR90~1\AppData\Local\Temp\ccj5QhVO.s:24659  .debug_str:000000000000e54f .LASF2871
C:\Users\CYMR90~1\AppData\Local\Temp\ccj5QhVO.s:25845  .debug_str:000000000001317f .LASF2872
C:\Users\CYMR90~1\AppData\Local\Temp\ccj5QhVO.s:25809  .debug_str:0000000000012f2d .LASF2873
C:\Users\CYMR90~1\AppData\Local\Temp\ccj5QhVO.s:21879  .debug_str:000000000000318d .LASF2874
C:\Users\CYMR90~1\AppData\Local\Temp\ccj5QhVO.s:21763  .debug_str:00000000000029f9 .LASF2875
C:\Users\CYMR90~1\AppData\Local\Temp\ccj5QhVO.s:29316  .debug_str:0000000000020fe4 .LASF2876
C:\Users\CYMR90~1\AppData\Local\Temp\ccj5QhVO.s:30316  .debug_str:0000000000024e14 .LASF2877
C:\Users\CYMR90~1\AppData\Local\Temp\ccj5QhVO.s:29992  .debug_str:0000000000023903 .LASF2878
C:\Users\CYMR90~1\AppData\Local\Temp\ccj5QhVO.s:23893  .debug_str:000000000000b3e1 .LASF2879
C:\Users\CYMR90~1\AppData\Local\Temp\ccj5QhVO.s:27068  .debug_str:000000000001807c .LASF2880
C:\Users\CYMR90~1\AppData\Local\Temp\ccj5QhVO.s:30292  .debug_str:0000000000024c77 .LASF2881
C:\Users\CYMR90~1\AppData\Local\Temp\ccj5QhVO.s:22169  .debug_str:000000000000448b .LASF2882
C:\Users\CYMR90~1\AppData\Local\Temp\ccj5QhVO.s:25343  .debug_str:0000000000011061 .LASF2883
C:\Users\CYMR90~1\AppData\Local\Temp\ccj5QhVO.s:28498  .debug_str:000000000001de14 .LASF2884
C:\Users\CYMR90~1\AppData\Local\Temp\ccj5QhVO.s:32312  .debug_str:000000000002cd40 .LASF2885
C:\Users\CYMR90~1\AppData\Local\Temp\ccj5QhVO.s:23653  .debug_str:000000000000a381 .LASF2886
C:\Users\CYMR90~1\AppData\Local\Temp\ccj5QhVO.s:26854  .debug_str:000000000001734d .LASF2887
C:\Users\CYMR90~1\AppData\Local\Temp\ccj5QhVO.s:30062  .debug_str:0000000000023d58 .LASF2888
C:\Users\CYMR90~1\AppData\Local\Temp\ccj5QhVO.s:28232  .debug_str:000000000001cc3f .LASF2889
C:\Users\CYMR90~1\AppData\Local\Temp\ccj5QhVO.s:21605  .debug_str:000000000000204e .LASF2890
C:\Users\CYMR90~1\AppData\Local\Temp\ccj5QhVO.s:26311  .debug_str:0000000000014f18 .LASF2891
C:\Users\CYMR90~1\AppData\Local\Temp\ccj5QhVO.s:31038  .debug_str:0000000000027cdd .LASF2892
C:\Users\CYMR90~1\AppData\Local\Temp\ccj5QhVO.s:24435  .debug_str:000000000000d87e .LASF2893
C:\Users\CYMR90~1\AppData\Local\Temp\ccj5QhVO.s:29098  .debug_str:000000000002028b .LASF2894
C:\Users\CYMR90~1\AppData\Local\Temp\ccj5QhVO.s:31716  .debug_str:000000000002a70a .LASF2895
C:\Users\CYMR90~1\AppData\Local\Temp\ccj5QhVO.s:31930  .debug_str:000000000002b3e6 .LASF2896
C:\Users\CYMR90~1\AppData\Local\Temp\ccj5QhVO.s:27722  .debug_str:000000000001abe4 .LASF2897
C:\Users\CYMR90~1\AppData\Local\Temp\ccj5QhVO.s:22905  .debug_str:000000000000727d .LASF2898
C:\Users\CYMR90~1\AppData\Local\Temp\ccj5QhVO.s:23209  .debug_str:000000000000871b .LASF2899
C:\Users\CYMR90~1\AppData\Local\Temp\ccj5QhVO.s:27128  .debug_str:00000000000183ef .LASF2900
C:\Users\CYMR90~1\AppData\Local\Temp\ccj5QhVO.s:32028  .debug_str:000000000002ba74 .LASF2901
C:\Users\CYMR90~1\AppData\Local\Temp\ccj5QhVO.s:25585  .debug_str:0000000000012065 .LASF2902
C:\Users\CYMR90~1\AppData\Local\Temp\ccj5QhVO.s:26409  .debug_str:0000000000015533 .LASF2903
C:\Users\CYMR90~1\AppData\Local\Temp\ccj5QhVO.s:22601  .debug_str:0000000000005f22 .LASF2904
C:\Users\CYMR90~1\AppData\Local\Temp\ccj5QhVO.s:29340  .debug_str:0000000000021139 .LASF2905
C:\Users\CYMR90~1\AppData\Local\Temp\ccj5QhVO.s:30728  .debug_str:00000000000269a5 .LASF2906
C:\Users\CYMR90~1\AppData\Local\Temp\ccj5QhVO.s:32122  .debug_str:000000000002c0ff .LASF2907
C:\Users\CYMR90~1\AppData\Local\Temp\ccj5QhVO.s:22123  .debug_str:00000000000041be .LASF2908
C:\Users\CYMR90~1\AppData\Local\Temp\ccj5QhVO.s:25853  .debug_str:000000000001320d .LASF2909
C:\Users\CYMR90~1\AppData\Local\Temp\ccj5QhVO.s:31232  .debug_str:0000000000028a8d .LASF2910
C:\Users\CYMR90~1\AppData\Local\Temp\ccj5QhVO.s:29162  .debug_str:000000000002064b .LASF2911
C:\Users\CYMR90~1\AppData\Local\Temp\ccj5QhVO.s:28058  .debug_str:000000000001c0fc .LASF2912
C:\Users\CYMR90~1\AppData\Local\Temp\ccj5QhVO.s:27630  .debug_str:000000000001a621 .LASF2913
C:\Users\CYMR90~1\AppData\Local\Temp\ccj5QhVO.s:27548  .debug_str:0000000000019fbe .LASF2914
C:\Users\CYMR90~1\AppData\Local\Temp\ccj5QhVO.s:29758  .debug_str:0000000000022af1 .LASF2915
C:\Users\CYMR90~1\AppData\Local\Temp\ccj5QhVO.s:28054  .debug_str:000000000001c0cf .LASF2916
C:\Users\CYMR90~1\AppData\Local\Temp\ccj5QhVO.s:27190  .debug_str:00000000000187dc .LASF2917
C:\Users\CYMR90~1\AppData\Local\Temp\ccj5QhVO.s:28580  .debug_str:000000000001e399 .LASF2918
C:\Users\CYMR90~1\AppData\Local\Temp\ccj5QhVO.s:25787  .debug_str:0000000000012dc1 .LASF2919
C:\Users\CYMR90~1\AppData\Local\Temp\ccj5QhVO.s:24519  .debug_str:000000000000dcfb .LASF2920
C:\Users\CYMR90~1\AppData\Local\Temp\ccj5QhVO.s:23647  .debug_str:000000000000a31e .LASF2921
C:\Users\CYMR90~1\AppData\Local\Temp\ccj5QhVO.s:22745  .debug_str:00000000000067f1 .LASF2922
C:\Users\CYMR90~1\AppData\Local\Temp\ccj5QhVO.s:21883  .debug_str:00000000000031c3 .LASF2923
C:\Users\CYMR90~1\AppData\Local\Temp\ccj5QhVO.s:32360  .debug_str:000000000002d07d .LASF2924
C:\Users\CYMR90~1\AppData\Local\Temp\ccj5QhVO.s:31486  .debug_str:00000000000299af .LASF2925
C:\Users\CYMR90~1\AppData\Local\Temp\ccj5QhVO.s:30222  .debug_str:00000000000247bb .LASF2926
C:\Users\CYMR90~1\AppData\Local\Temp\ccj5QhVO.s:22089  .debug_str:0000000000003f4b .LASF2927
C:\Users\CYMR90~1\AppData\Local\Temp\ccj5QhVO.s:25357  .debug_str:0000000000011121 .LASF2928
C:\Users\CYMR90~1\AppData\Local\Temp\ccj5QhVO.s:28516  .debug_str:000000000001dfaa .LASF2929
C:\Users\CYMR90~1\AppData\Local\Temp\ccj5QhVO.s:31782  .debug_str:000000000002aae0 .LASF2930
C:\Users\CYMR90~1\AppData\Local\Temp\ccj5QhVO.s:23667  .debug_str:000000000000a48f .LASF2931
C:\Users\CYMR90~1\AppData\Local\Temp\ccj5QhVO.s:29842  .debug_str:0000000000023040 .LASF2932
C:\Users\CYMR90~1\AppData\Local\Temp\ccj5QhVO.s:32314  .debug_str:000000000002cd52 .LASF2933
C:\Users\CYMR90~1\AppData\Local\Temp\ccj5QhVO.s:25613  .debug_str:0000000000012266 .LASF2934
C:\Users\CYMR90~1\AppData\Local\Temp\ccj5QhVO.s:24121  .debug_str:000000000000c369 .LASF2935
C:\Users\CYMR90~1\AppData\Local\Temp\ccj5QhVO.s:21691  .debug_str:0000000000002531 .LASF2936
C:\Users\CYMR90~1\AppData\Local\Temp\ccj5QhVO.s:28304  .debug_str:000000000001d20b .LASF2937
C:\Users\CYMR90~1\AppData\Local\Temp\ccj5QhVO.s:27690  .debug_str:000000000001aa13 .LASF2938
C:\Users\CYMR90~1\AppData\Local\Temp\ccj5QhVO.s:27728  .debug_str:000000000001ac6f .LASF2939
C:\Users\CYMR90~1\AppData\Local\Temp\ccj5QhVO.s:26689  .debug_str:0000000000016654 .LASF2940
C:\Users\CYMR90~1\AppData\Local\Temp\ccj5QhVO.s:23963  .debug_str:000000000000b8a6 .LASF2941
C:\Users\CYMR90~1\AppData\Local\Temp\ccj5QhVO.s:26089  .debug_str:0000000000014141 .LASF2942
C:\Users\CYMR90~1\AppData\Local\Temp\ccj5QhVO.s:30640  .debug_str:0000000000026439 .LASF2943
C:\Users\CYMR90~1\AppData\Local\Temp\ccj5QhVO.s:27890  .debug_str:000000000001b6b9 .LASF2944
C:\Users\CYMR90~1\AppData\Local\Temp\ccj5QhVO.s:22583  .debug_str:0000000000005e1c .LASF2945
C:\Users\CYMR90~1\AppData\Local\Temp\ccj5QhVO.s:24517  .debug_str:000000000000dcd9 .LASF2946
C:\Users\CYMR90~1\AppData\Local\Temp\ccj5QhVO.s:26389  .debug_str:0000000000015426 .LASF2947
C:\Users\CYMR90~1\AppData\Local\Temp\ccj5QhVO.s:31014  .debug_str:0000000000027b24 .LASF2948
C:\Users\CYMR90~1\AppData\Local\Temp\ccj5QhVO.s:24089  .debug_str:000000000000c173 .LASF2949
C:\Users\CYMR90~1\AppData\Local\Temp\ccj5QhVO.s:24641  .debug_str:000000000000e459 .LASF2950
C:\Users\CYMR90~1\AppData\Local\Temp\ccj5QhVO.s:28624  .debug_str:000000000001e61d .LASF2951
C:\Users\CYMR90~1\AppData\Local\Temp\ccj5QhVO.s:22343  .debug_str:0000000000004ffd .LASF2952
C:\Users\CYMR90~1\AppData\Local\Temp\ccj5QhVO.s:31890  .debug_str:000000000002b140 .LASF2953
C:\Users\CYMR90~1\AppData\Local\Temp\ccj5QhVO.s:30076  .debug_str:0000000000023e1a .LASF2954
C:\Users\CYMR90~1\AppData\Local\Temp\ccj5QhVO.s:30884  .debug_str:00000000000272a8 .LASF2955
C:\Users\CYMR90~1\AppData\Local\Temp\ccj5QhVO.s:22787  .debug_str:0000000000006a72 .LASF2956
C:\Users\CYMR90~1\AppData\Local\Temp\ccj5QhVO.s:32382  .debug_str:000000000002d1bc .LASF2957
C:\Users\CYMR90~1\AppData\Local\Temp\ccj5QhVO.s:21855  .debug_str:0000000000002ff4 .LASF2958
C:\Users\CYMR90~1\AppData\Local\Temp\ccj5QhVO.s:21583  .debug_str:0000000000001f2f .LASF2959
C:\Users\CYMR90~1\AppData\Local\Temp\ccj5QhVO.s:28652  .debug_str:000000000001e7ec .LASF2960
C:\Users\CYMR90~1\AppData\Local\Temp\ccj5QhVO.s:21831  .debug_str:0000000000002e79 .LASF2961
C:\Users\CYMR90~1\AppData\Local\Temp\ccj5QhVO.s:21125  .debug_str:000000000000033b .LASF2962
C:\Users\CYMR90~1\AppData\Local\Temp\ccj5QhVO.s:32168  .debug_str:000000000002c3a8 .LASF2963
C:\Users\CYMR90~1\AppData\Local\Temp\ccj5QhVO.s:30782  .debug_str:0000000000026cd6 .LASF2964
C:\Users\CYMR90~1\AppData\Local\Temp\ccj5QhVO.s:22567  .debug_str:0000000000005d5c .LASF2965
C:\Users\CYMR90~1\AppData\Local\Temp\ccj5QhVO.s:30994  .debug_str:00000000000279fe .LASF2966
C:\Users\CYMR90~1\AppData\Local\Temp\ccj5QhVO.s:28218  .debug_str:000000000001cb71 .LASF2967
C:\Users\CYMR90~1\AppData\Local\Temp\ccj5QhVO.s:29214  .debug_str:00000000000209b8 .LASF2968
C:\Users\CYMR90~1\AppData\Local\Temp\ccj5QhVO.s:25013  .debug_str:000000000000fb5b .LASF2969
C:\Users\CYMR90~1\AppData\Local\Temp\ccj5QhVO.s:24163  .debug_str:000000000000c5e8 .LASF2970
C:\Users\CYMR90~1\AppData\Local\Temp\ccj5QhVO.s:27946  .debug_str:000000000001ba45 .LASF2971
C:\Users\CYMR90~1\AppData\Local\Temp\ccj5QhVO.s:31192  .debug_str:00000000000287b6 .LASF2972
C:\Users\CYMR90~1\AppData\Local\Temp\ccj5QhVO.s:29608  .debug_str:00000000000221f9 .LASF2973
C:\Users\CYMR90~1\AppData\Local\Temp\ccj5QhVO.s:27938  .debug_str:000000000001b9a9 .LASF2974
C:\Users\CYMR90~1\AppData\Local\Temp\ccj5QhVO.s:22179  .debug_str:0000000000004529 .LASF2975
C:\Users\CYMR90~1\AppData\Local\Temp\ccj5QhVO.s:27030  .debug_str:0000000000017e1a .LASF2976
C:\Users\CYMR90~1\AppData\Local\Temp\ccj5QhVO.s:29518  .debug_str:0000000000021c95 .LASF2977
C:\Users\CYMR90~1\AppData\Local\Temp\ccj5QhVO.s:23063  .debug_str:0000000000007cb4 .LASF2978
C:\Users\CYMR90~1\AppData\Local\Temp\ccj5QhVO.s:28400  .debug_str:000000000001d7e7 .LASF2979
C:\Users\CYMR90~1\AppData\Local\Temp\ccj5QhVO.s:24461  .debug_str:000000000000d9dd .LASF2980
C:\Users\CYMR90~1\AppData\Local\Temp\ccj5QhVO.s:31952  .debug_str:000000000002b56e .LASF2981
C:\Users\CYMR90~1\AppData\Local\Temp\ccj5QhVO.s:27062  .debug_str:0000000000018013 .LASF2982
C:\Users\CYMR90~1\AppData\Local\Temp\ccj5QhVO.s:22047  .debug_str:0000000000003c56 .LASF2983
C:\Users\CYMR90~1\AppData\Local\Temp\ccj5QhVO.s:27290  .debug_str:0000000000018e8d .LASF2984
C:\Users\CYMR90~1\AppData\Local\Temp\ccj5QhVO.s:21099  .debug_str:000000000000018b .LASF2985
C:\Users\CYMR90~1\AppData\Local\Temp\ccj5QhVO.s:24833  .debug_str:000000000000eff9 .LASF2986
C:\Users\CYMR90~1\AppData\Local\Temp\ccj5QhVO.s:26293  .debug_str:0000000000014dc1 .LASF2987
C:\Users\CYMR90~1\AppData\Local\Temp\ccj5QhVO.s:26203  .debug_str:000000000001484e .LASF2988
C:\Users\CYMR90~1\AppData\Local\Temp\ccj5QhVO.s:24857  .debug_str:000000000000f151 .LASF2989
C:\Users\CYMR90~1\AppData\Local\Temp\ccj5QhVO.s:24543  .debug_str:000000000000de5e .LASF2990
C:\Users\CYMR90~1\AppData\Local\Temp\ccj5QhVO.s:30010  .debug_str:0000000000023a3b .LASF2991
C:\Users\CYMR90~1\AppData\Local\Temp\ccj5QhVO.s:26884  .debug_str:0000000000017504 .LASF2992
C:\Users\CYMR90~1\AppData\Local\Temp\ccj5QhVO.s:25993  .debug_str:0000000000013b8b .LASF2993
C:\Users\CYMR90~1\AppData\Local\Temp\ccj5QhVO.s:23277  .debug_str:0000000000008b9c .LASF2994
C:\Users\CYMR90~1\AppData\Local\Temp\ccj5QhVO.s:31702  .debug_str:000000000002a5ff .LASF2995
C:\Users\CYMR90~1\AppData\Local\Temp\ccj5QhVO.s:26291  .debug_str:0000000000014da3 .LASF2996
C:\Users\CYMR90~1\AppData\Local\Temp\ccj5QhVO.s:26381  .debug_str:0000000000015396 .LASF2997
C:\Users\CYMR90~1\AppData\Local\Temp\ccj5QhVO.s:22417  .debug_str:0000000000005458 .LASF2998
C:\Users\CYMR90~1\AppData\Local\Temp\ccj5QhVO.s:26561  .debug_str:0000000000015e8c .LASF2999
C:\Users\CYMR90~1\AppData\Local\Temp\ccj5QhVO.s:29736  .debug_str:00000000000229ad .LASF3000
C:\Users\CYMR90~1\AppData\Local\Temp\ccj5QhVO.s:25207  .debug_str:0000000000010740 .LASF3001
C:\Users\CYMR90~1\AppData\Local\Temp\ccj5QhVO.s:29386  .debug_str:00000000000213be .LASF3002
C:\Users\CYMR90~1\AppData\Local\Temp\ccj5QhVO.s:21225  .debug_str:00000000000008f4 .LASF3003
C:\Users\CYMR90~1\AppData\Local\Temp\ccj5QhVO.s:29208  .debug_str:0000000000020939 .LASF3004
C:\Users\CYMR90~1\AppData\Local\Temp\ccj5QhVO.s:32230  .debug_str:000000000002c7ac .LASF3005
C:\Users\CYMR90~1\AppData\Local\Temp\ccj5QhVO.s:30138  .debug_str:000000000002417f .LASF3006
C:\Users\CYMR90~1\AppData\Local\Temp\ccj5QhVO.s:29514  .debug_str:0000000000021c42 .LASF3007
C:\Users\CYMR90~1\AppData\Local\Temp\ccj5QhVO.s:22373  .debug_str:00000000000051b3 .LASF3008
C:\Users\CYMR90~1\AppData\Local\Temp\ccj5QhVO.s:32364  .debug_str:000000000002d0a3 .LASF3009
C:\Users\CYMR90~1\AppData\Local\Temp\ccj5QhVO.s:24733  .debug_str:000000000000ea2d .LASF3010
C:\Users\CYMR90~1\AppData\Local\Temp\ccj5QhVO.s:28070  .debug_str:000000000001c1ca .LASF3011
C:\Users\CYMR90~1\AppData\Local\Temp\ccj5QhVO.s:21415  .debug_str:00000000000014a0 .LASF3012
C:\Users\CYMR90~1\AppData\Local\Temp\ccj5QhVO.s:25337  .debug_str:000000000001100d .LASF3013
C:\Users\CYMR90~1\AppData\Local\Temp\ccj5QhVO.s:24459  .debug_str:000000000000d9c4 .LASF3014
C:\Users\CYMR90~1\AppData\Local\Temp\ccj5QhVO.s:21609  .debug_str:000000000000207a .LASF3015
C:\Users\CYMR90~1\AppData\Local\Temp\ccj5QhVO.s:28764  .debug_str:000000000001ee7f .LASF3016
C:\Users\CYMR90~1\AppData\Local\Temp\ccj5QhVO.s:24113  .debug_str:000000000000c2ff .LASF3017
C:\Users\CYMR90~1\AppData\Local\Temp\ccj5QhVO.s:22891  .debug_str:0000000000007187 .LASF3018
C:\Users\CYMR90~1\AppData\Local\Temp\ccj5QhVO.s:27216  .debug_str:0000000000018963 .LASF3019
C:\Users\CYMR90~1\AppData\Local\Temp\ccj5QhVO.s:25059  .debug_str:000000000000fe35 .LASF3020
C:\Users\CYMR90~1\AppData\Local\Temp\ccj5QhVO.s:21841  .debug_str:0000000000002f1f .LASF3021
C:\Users\CYMR90~1\AppData\Local\Temp\ccj5QhVO.s:24177  .debug_str:000000000000c6d6 .LASF3022
C:\Users\CYMR90~1\AppData\Local\Temp\ccj5QhVO.s:24665  .debug_str:000000000000e5b1 .LASF3023
C:\Users\CYMR90~1\AppData\Local\Temp\ccj5QhVO.s:31982  .debug_str:000000000002b770 .LASF3024
C:\Users\CYMR90~1\AppData\Local\Temp\ccj5QhVO.s:22859  .debug_str:0000000000006f31 .LASF3025
C:\Users\CYMR90~1\AppData\Local\Temp\ccj5QhVO.s:29094  .debug_str:000000000002024c .LASF3026
C:\Users\CYMR90~1\AppData\Local\Temp\ccj5QhVO.s:25047  .debug_str:000000000000fd62 .LASF3027
C:\Users\CYMR90~1\AppData\Local\Temp\ccj5QhVO.s:26896  .debug_str:00000000000175c4 .LASF3028
C:\Users\CYMR90~1\AppData\Local\Temp\ccj5QhVO.s:22331  .debug_str:0000000000004f56 .LASF3029
C:\Users\CYMR90~1\AppData\Local\Temp\ccj5QhVO.s:31910  .debug_str:000000000002b272 .LASF3030
C:\Users\CYMR90~1\AppData\Local\Temp\ccj5QhVO.s:24619  .debug_str:000000000000e2e7 .LASF3031
C:\Users\CYMR90~1\AppData\Local\Temp\ccj5QhVO.s:23721  .debug_str:000000000000a789 .LASF3032
C:\Users\CYMR90~1\AppData\Local\Temp\ccj5QhVO.s:30364  .debug_str:0000000000025130 .LASF3033
C:\Users\CYMR90~1\AppData\Local\Temp\ccj5QhVO.s:24787  .debug_str:000000000000eda8 .LASF3034
C:\Users\CYMR90~1\AppData\Local\Temp\ccj5QhVO.s:24591  .debug_str:000000000000e165 .LASF3035
C:\Users\CYMR90~1\AppData\Local\Temp\ccj5QhVO.s:31118  .debug_str:0000000000028267 .LASF3036
C:\Users\CYMR90~1\AppData\Local\Temp\ccj5QhVO.s:23245  .debug_str:0000000000008992 .LASF3037
C:\Users\CYMR90~1\AppData\Local\Temp\ccj5QhVO.s:32054  .debug_str:000000000002bc30 .LASF3038
C:\Users\CYMR90~1\AppData\Local\Temp\ccj5QhVO.s:31212  .debug_str:0000000000028935 .LASF3039
C:\Users\CYMR90~1\AppData\Local\Temp\ccj5QhVO.s:21113  .debug_str:000000000000024e .LASF3040
C:\Users\CYMR90~1\AppData\Local\Temp\ccj5QhVO.s:22097  .debug_str:0000000000003fcd .LASF3041
C:\Users\CYMR90~1\AppData\Local\Temp\ccj5QhVO.s:28122  .debug_str:000000000001c508 .LASF3042
C:\Users\CYMR90~1\AppData\Local\Temp\ccj5QhVO.s:27928  .debug_str:000000000001b90d .LASF3043
C:\Users\CYMR90~1\AppData\Local\Temp\ccj5QhVO.s:30380  .debug_str:0000000000025209 .LASF3044
C:\Users\CYMR90~1\AppData\Local\Temp\ccj5QhVO.s:24465  .debug_str:000000000000da21 .LASF3045
C:\Users\CYMR90~1\AppData\Local\Temp\ccj5QhVO.s:27536  .debug_str:0000000000019f2b .LASF3046
C:\Users\CYMR90~1\AppData\Local\Temp\ccj5QhVO.s:21355  .debug_str:0000000000001151 .LASF3047
C:\Users\CYMR90~1\AppData\Local\Temp\ccj5QhVO.s:24831  .debug_str:000000000000efdf .LASF3048
C:\Users\CYMR90~1\AppData\Local\Temp\ccj5QhVO.s:28126  .debug_str:000000000001c53c .LASF3049
C:\Users\CYMR90~1\AppData\Local\Temp\ccj5QhVO.s:31492  .debug_str:00000000000299f4 .LASF3050
C:\Users\CYMR90~1\AppData\Local\Temp\ccj5QhVO.s:21491  .debug_str:000000000000199e .LASF3051
C:\Users\CYMR90~1\AppData\Local\Temp\ccj5QhVO.s:23569  .debug_str:0000000000009df9 .LASF3052
C:\Users\CYMR90~1\AppData\Local\Temp\ccj5QhVO.s:30914  .debug_str:0000000000027553 .LASF3053
C:\Users\CYMR90~1\AppData\Local\Temp\ccj5QhVO.s:23135  .debug_str:00000000000082a8 .LASF3054
C:\Users\CYMR90~1\AppData\Local\Temp\ccj5QhVO.s:24625  .debug_str:000000000000e360 .LASF3055
C:\Users\CYMR90~1\AppData\Local\Temp\ccj5QhVO.s:30140  .debug_str:00000000000241ab .LASF3056
C:\Users\CYMR90~1\AppData\Local\Temp\ccj5QhVO.s:27466  .debug_str:0000000000019a9f .LASF3057
C:\Users\CYMR90~1\AppData\Local\Temp\ccj5QhVO.s:23521  .debug_str:0000000000009b07 .LASF3058
C:\Users\CYMR90~1\AppData\Local\Temp\ccj5QhVO.s:28882  .debug_str:000000000001f5ab .LASF3059
C:\Users\CYMR90~1\AppData\Local\Temp\ccj5QhVO.s:23109  .debug_str:000000000000804b .LASF3060
C:\Users\CYMR90~1\AppData\Local\Temp\ccj5QhVO.s:31106  .debug_str:0000000000028164 .LASF3061
C:\Users\CYMR90~1\AppData\Local\Temp\ccj5QhVO.s:30762  .debug_str:0000000000026b99 .LASF3062
C:\Users\CYMR90~1\AppData\Local\Temp\ccj5QhVO.s:25433  .debug_str:0000000000011594 .LASF3063
C:\Users\CYMR90~1\AppData\Local\Temp\ccj5QhVO.s:30268  .debug_str:0000000000024b2f .LASF3064
C:\Users\CYMR90~1\AppData\Local\Temp\ccj5QhVO.s:29342  .debug_str:0000000000021159 .LASF3065
C:\Users\CYMR90~1\AppData\Local\Temp\ccj5QhVO.s:25323  .debug_str:0000000000010f5b .LASF3066
C:\Users\CYMR90~1\AppData\Local\Temp\ccj5QhVO.s:30852  .debug_str:000000000002710e .LASF3067
C:\Users\CYMR90~1\AppData\Local\Temp\ccj5QhVO.s:30014  .debug_str:0000000000023a78 .LASF3068
C:\Users\CYMR90~1\AppData\Local\Temp\ccj5QhVO.s:26844  .debug_str:00000000000172cb .LASF3069
C:\Users\CYMR90~1\AppData\Local\Temp\ccj5QhVO.s:26581  .debug_str:0000000000015ffb .LASF3070
C:\Users\CYMR90~1\AppData\Local\Temp\ccj5QhVO.s:28836  .debug_str:000000000001f2ef .LASF3071
C:\Users\CYMR90~1\AppData\Local\Temp\ccj5QhVO.s:25281  .debug_str:0000000000010c73 .LASF3072
C:\Users\CYMR90~1\AppData\Local\Temp\ccj5QhVO.s:25407  .debug_str:000000000001142d .LASF3073
C:\Users\CYMR90~1\AppData\Local\Temp\ccj5QhVO.s:24803  .debug_str:000000000000ee77 .LASF3074
C:\Users\CYMR90~1\AppData\Local\Temp\ccj5QhVO.s:24935  .debug_str:000000000000f644 .LASF3075
C:\Users\CYMR90~1\AppData\Local\Temp\ccj5QhVO.s:28566  .debug_str:000000000001e2ad .LASF3076
C:\Users\CYMR90~1\AppData\Local\Temp\ccj5QhVO.s:31230  .debug_str:0000000000028a74 .LASF3077
C:\Users\CYMR90~1\AppData\Local\Temp\ccj5QhVO.s:26703  .debug_str:00000000000167b8 .LASF3078
C:\Users\CYMR90~1\AppData\Local\Temp\ccj5QhVO.s:30134  .debug_str:0000000000024150 .LASF3079
C:\Users\CYMR90~1\AppData\Local\Temp\ccj5QhVO.s:21645  .debug_str:000000000000226d .LASF3080
C:\Users\CYMR90~1\AppData\Local\Temp\ccj5QhVO.s:22883  .debug_str:00000000000070df .LASF3081
C:\Users\CYMR90~1\AppData\Local\Temp\ccj5QhVO.s:31282  .debug_str:0000000000028d78 .LASF3082
C:\Users\CYMR90~1\AppData\Local\Temp\ccj5QhVO.s:23625  .debug_str:000000000000a1bc .LASF3083
C:\Users\CYMR90~1\AppData\Local\Temp\ccj5QhVO.s:26093  .debug_str:0000000000014177 .LASF3084
C:\Users\CYMR90~1\AppData\Local\Temp\ccj5QhVO.s:24763  .debug_str:000000000000ec18 .LASF3085
C:\Users\CYMR90~1\AppData\Local\Temp\ccj5QhVO.s:26431  .debug_str:000000000001568b .LASF3086
C:\Users\CYMR90~1\AppData\Local\Temp\ccj5QhVO.s:29284  .debug_str:0000000000020e14 .LASF3087
C:\Users\CYMR90~1\AppData\Local\Temp\ccj5QhVO.s:27188  .debug_str:000000000001878d .LASF3088
C:\Users\CYMR90~1\AppData\Local\Temp\ccj5QhVO.s:29140  .debug_str:00000000000204b1 .LASF3089
C:\Users\CYMR90~1\AppData\Local\Temp\ccj5QhVO.s:31378  .debug_str:0000000000029344 .LASF3090
C:\Users\CYMR90~1\AppData\Local\Temp\ccj5QhVO.s:29786  .debug_str:0000000000022c9c .LASF3091
C:\Users\CYMR90~1\AppData\Local\Temp\ccj5QhVO.s:24189  .debug_str:000000000000c785 .LASF3092
C:\Users\CYMR90~1\AppData\Local\Temp\ccj5QhVO.s:32180  .debug_str:000000000002c4cf .LASF3093
C:\Users\CYMR90~1\AppData\Local\Temp\ccj5QhVO.s:28930  .debug_str:000000000001f848 .LASF3094
C:\Users\CYMR90~1\AppData\Local\Temp\ccj5QhVO.s:30896  .debug_str:0000000000027383 .LASF3095
C:\Users\CYMR90~1\AppData\Local\Temp\ccj5QhVO.s:30630  .debug_str:00000000000263cb .LASF3096
C:\Users\CYMR90~1\AppData\Local\Temp\ccj5QhVO.s:24087  .debug_str:000000000000c14b .LASF3097
C:\Users\CYMR90~1\AppData\Local\Temp\ccj5QhVO.s:26477  .debug_str:000000000001590d .LASF3098
C:\Users\CYMR90~1\AppData\Local\Temp\ccj5QhVO.s:26383  .debug_str:00000000000153c1 .LASF3099
C:\Users\CYMR90~1\AppData\Local\Temp\ccj5QhVO.s:27280  .debug_str:0000000000018e0b .LASF3100
C:\Users\CYMR90~1\AppData\Local\Temp\ccj5QhVO.s:28966  .debug_str:000000000001fa77 .LASF3101
C:\Users\CYMR90~1\AppData\Local\Temp\ccj5QhVO.s:29480  .debug_str:0000000000021a34 .LASF3102
C:\Users\CYMR90~1\AppData\Local\Temp\ccj5QhVO.s:32318  .debug_str:000000000002cd76 .LASF3103
C:\Users\CYMR90~1\AppData\Local\Temp\ccj5QhVO.s:24995  .debug_str:000000000000fa67 .LASF3104
C:\Users\CYMR90~1\AppData\Local\Temp\ccj5QhVO.s:21853  .debug_str:0000000000002fc8 .LASF3105
C:\Users\CYMR90~1\AppData\Local\Temp\ccj5QhVO.s:24847  .debug_str:000000000000f0ca .LASF3106
C:\Users\CYMR90~1\AppData\Local\Temp\ccj5QhVO.s:29164  .debug_str:0000000000020670 .LASF3107
C:\Users\CYMR90~1\AppData\Local\Temp\ccj5QhVO.s:26455  .debug_str:00000000000157d7 .LASF3108
C:\Users\CYMR90~1\AppData\Local\Temp\ccj5QhVO.s:25477  .debug_str:000000000001188f .LASF3109
C:\Users\CYMR90~1\AppData\Local\Temp\ccj5QhVO.s:28066  .debug_str:000000000001c193 .LASF3110
C:\Users\CYMR90~1\AppData\Local\Temp\ccj5QhVO.s:27096  .debug_str:00000000000181ef .LASF3111
C:\Users\CYMR90~1\AppData\Local\Temp\ccj5QhVO.s:29000  .debug_str:000000000001fc98 .LASF3112
C:\Users\CYMR90~1\AppData\Local\Temp\ccj5QhVO.s:25285  .debug_str:0000000000010cb9 .LASF3113
C:\Users\CYMR90~1\AppData\Local\Temp\ccj5QhVO.s:31162  .debug_str:00000000000285b3 .LASF3114
C:\Users\CYMR90~1\AppData\Local\Temp\ccj5QhVO.s:23343  .debug_str:0000000000008fcd .LASF3115
C:\Users\CYMR90~1\AppData\Local\Temp\ccj5QhVO.s:22423  .debug_str:00000000000054c8 .LASF3116
C:\Users\CYMR90~1\AppData\Local\Temp\ccj5QhVO.s:21473  .debug_str:0000000000001895 .LASF3117
C:\Users\CYMR90~1\AppData\Local\Temp\ccj5QhVO.s:31874  .debug_str:000000000002b074 .LASF3118
C:\Users\CYMR90~1\AppData\Local\Temp\ccj5QhVO.s:29428  .debug_str:0000000000021703 .LASF3119
C:\Users\CYMR90~1\AppData\Local\Temp\ccj5QhVO.s:28458  .debug_str:000000000001dbca .LASF3120
C:\Users\CYMR90~1\AppData\Local\Temp\ccj5QhVO.s:27622  .debug_str:000000000001a40e .LASF3121
C:\Users\CYMR90~1\AppData\Local\Temp\ccj5QhVO.s:26621  .debug_str:0000000000016290 .LASF3122
C:\Users\CYMR90~1\AppData\Local\Temp\ccj5QhVO.s:25701  .debug_str:00000000000127f1 .LASF3123
C:\Users\CYMR90~1\AppData\Local\Temp\ccj5QhVO.s:24725  .debug_str:000000000000e9bc .LASF3124
C:\Users\CYMR90~1\AppData\Local\Temp\ccj5QhVO.s:24863  .debug_str:000000000000f1aa .LASF3125
C:\Users\CYMR90~1\AppData\Local\Temp\ccj5QhVO.s:30844  .debug_str:0000000000027092 .LASF3126
C:\Users\CYMR90~1\AppData\Local\Temp\ccj5QhVO.s:30626  .debug_str:0000000000026375 .LASF3127
C:\Users\CYMR90~1\AppData\Local\Temp\ccj5QhVO.s:25181  .debug_str:00000000000105a9 .LASF3128
C:\Users\CYMR90~1\AppData\Local\Temp\ccj5QhVO.s:24045  .debug_str:000000000000be1c .LASF3129
C:\Users\CYMR90~1\AppData\Local\Temp\ccj5QhVO.s:22937  .debug_str:00000000000074ae .LASF3130
C:\Users\CYMR90~1\AppData\Local\Temp\ccj5QhVO.s:28296  .debug_str:000000000001d0f2 .LASF3131
C:\Users\CYMR90~1\AppData\Local\Temp\ccj5QhVO.s:29908  .debug_str:000000000002339b .LASF3132
C:\Users\CYMR90~1\AppData\Local\Temp\ccj5QhVO.s:24225  .debug_str:000000000000ca31 .LASF3133
C:\Users\CYMR90~1\AppData\Local\Temp\ccj5QhVO.s:22495  .debug_str:000000000000591e .LASF3134
C:\Users\CYMR90~1\AppData\Local\Temp\ccj5QhVO.s:22275  .debug_str:0000000000004bee .LASF3135
C:\Users\CYMR90~1\AppData\Local\Temp\ccj5QhVO.s:28210  .debug_str:000000000001cae7 .LASF3136
C:\Users\CYMR90~1\AppData\Local\Temp\ccj5QhVO.s:26719  .debug_str:00000000000168ae .LASF3137
C:\Users\CYMR90~1\AppData\Local\Temp\ccj5QhVO.s:21785  .debug_str:0000000000002b9b .LASF3138
C:\Users\CYMR90~1\AppData\Local\Temp\ccj5QhVO.s:32254  .debug_str:000000000002c979 .LASF3139
C:\Users\CYMR90~1\AppData\Local\Temp\ccj5QhVO.s:31202  .debug_str:0000000000028867 .LASF3140
C:\Users\CYMR90~1\AppData\Local\Temp\ccj5QhVO.s:22245  .debug_str:0000000000004a03 .LASF3141
C:\Users\CYMR90~1\AppData\Local\Temp\ccj5QhVO.s:28046  .debug_str:000000000001c048 .LASF3142
C:\Users\CYMR90~1\AppData\Local\Temp\ccj5QhVO.s:25289  .debug_str:0000000000010cfe .LASF3143
C:\Users\CYMR90~1\AppData\Local\Temp\ccj5QhVO.s:28346  .debug_str:000000000001d499 .LASF3144
C:\Users\CYMR90~1\AppData\Local\Temp\ccj5QhVO.s:21165  .debug_str:000000000000056d .LASF3145
C:\Users\CYMR90~1\AppData\Local\Temp\ccj5QhVO.s:25873  .debug_str:0000000000013378 .LASF3146
C:\Users\CYMR90~1\AppData\Local\Temp\ccj5QhVO.s:30574  .debug_str:0000000000026014 .LASF3147
C:\Users\CYMR90~1\AppData\Local\Temp\ccj5QhVO.s:25783  .debug_str:0000000000012d8d .LASF3148
C:\Users\CYMR90~1\AppData\Local\Temp\ccj5QhVO.s:22647  .debug_str:00000000000061db .LASF3149
C:\Users\CYMR90~1\AppData\Local\Temp\ccj5QhVO.s:27060  .debug_str:0000000000017ffb .LASF3150
C:\Users\CYMR90~1\AppData\Local\Temp\ccj5QhVO.s:25539  .debug_str:0000000000011d9d .LASF3151
C:\Users\CYMR90~1\AppData\Local\Temp\ccj5QhVO.s:24085  .debug_str:000000000000c12f .LASF3152
C:\Users\CYMR90~1\AppData\Local\Temp\ccj5QhVO.s:27914  .debug_str:000000000001b81e .LASF3153
C:\Users\CYMR90~1\AppData\Local\Temp\ccj5QhVO.s:24433  .debug_str:000000000000d860 .LASF3154
C:\Users\CYMR90~1\AppData\Local\Temp\ccj5QhVO.s:23411  .debug_str:00000000000093c1 .LASF3155
C:\Users\CYMR90~1\AppData\Local\Temp\ccj5QhVO.s:30278  .debug_str:0000000000024bb2 .LASF3156
C:\Users\CYMR90~1\AppData\Local\Temp\ccj5QhVO.s:25583  .debug_str:0000000000012045 .LASF3157
C:\Users\CYMR90~1\AppData\Local\Temp\ccj5QhVO.s:29876  .debug_str:0000000000023208 .LASF3158
C:\Users\CYMR90~1\AppData\Local\Temp\ccj5QhVO.s:23747  .debug_str:000000000000aa21 .LASF3159
C:\Users\CYMR90~1\AppData\Local\Temp\ccj5QhVO.s:27480  .debug_str:0000000000019bac .LASF3160
C:\Users\CYMR90~1\AppData\Local\Temp\ccj5QhVO.s:30806  .debug_str:0000000000026e17 .LASF3161
C:\Users\CYMR90~1\AppData\Local\Temp\ccj5QhVO.s:24463  .debug_str:000000000000d9fc .LASF3162
C:\Users\CYMR90~1\AppData\Local\Temp\ccj5QhVO.s:22539  .debug_str:0000000000005be7 .LASF3163
C:\Users\CYMR90~1\AppData\Local\Temp\ccj5QhVO.s:24069  .debug_str:000000000000c003 .LASF3164
C:\Users\CYMR90~1\AppData\Local\Temp\ccj5QhVO.s:22843  .debug_str:0000000000006e30 .LASF3165
C:\Users\CYMR90~1\AppData\Local\Temp\ccj5QhVO.s:24751  .debug_str:000000000000eb81 .LASF3166
C:\Users\CYMR90~1\AppData\Local\Temp\ccj5QhVO.s:21313  .debug_str:0000000000000f00 .LASF3167
C:\Users\CYMR90~1\AppData\Local\Temp\ccj5QhVO.s:32006  .debug_str:000000000002b8ec .LASF3168
C:\Users\CYMR90~1\AppData\Local\Temp\ccj5QhVO.s:31600  .debug_str:000000000002a020 .LASF3169
C:\Users\CYMR90~1\AppData\Local\Temp\ccj5QhVO.s:26934  .debug_str:00000000000177f5 .LASF3170
C:\Users\CYMR90~1\AppData\Local\Temp\ccj5QhVO.s:30132  .debug_str:0000000000024138 .LASF3171
C:\Users\CYMR90~1\AppData\Local\Temp\ccj5QhVO.s:28584  .debug_str:000000000001e3cf .LASF3172
C:\Users\CYMR90~1\AppData\Local\Temp\ccj5QhVO.s:28972  .debug_str:000000000001fac1 .LASF3173
C:\Users\CYMR90~1\AppData\Local\Temp\ccj5QhVO.s:30956  .debug_str:00000000000277d8 .LASF3174
C:\Users\CYMR90~1\AppData\Local\Temp\ccj5QhVO.s:26171  .debug_str:0000000000014651 .LASF3175
C:\Users\CYMR90~1\AppData\Local\Temp\ccj5QhVO.s:26725  .debug_str:0000000000016909 .LASF3176
C:\Users\CYMR90~1\AppData\Local\Temp\ccj5QhVO.s:21573  .debug_str:0000000000001e9c .LASF3177
C:\Users\CYMR90~1\AppData\Local\Temp\ccj5QhVO.s:28958  .debug_str:000000000001f9d9 .LASF3178
C:\Users\CYMR90~1\AppData\Local\Temp\ccj5QhVO.s:28908  .debug_str:000000000001f70c .LASF3179
C:\Users\CYMR90~1\AppData\Local\Temp\ccj5QhVO.s:28018  .debug_str:000000000001be63 .LASF3180
C:\Users\CYMR90~1\AppData\Local\Temp\ccj5QhVO.s:21747  .debug_str:0000000000002904 .LASF3181
C:\Users\CYMR90~1\AppData\Local\Temp\ccj5QhVO.s:30444  .debug_str:000000000002574d .LASF3182
C:\Users\CYMR90~1\AppData\Local\Temp\ccj5QhVO.s:24353  .debug_str:000000000000d254 .LASF3183
C:\Users\CYMR90~1\AppData\Local\Temp\ccj5QhVO.s:22095  .debug_str:0000000000003fa7 .LASF3184
C:\Users\CYMR90~1\AppData\Local\Temp\ccj5QhVO.s:21837  .debug_str:0000000000002ed4 .LASF3185
C:\Users\CYMR90~1\AppData\Local\Temp\ccj5QhVO.s:23241  .debug_str:0000000000008958 .LASF3186
C:\Users\CYMR90~1\AppData\Local\Temp\ccj5QhVO.s:28572  .debug_str:000000000001e2f8 .LASF3187
C:\Users\CYMR90~1\AppData\Local\Temp\ccj5QhVO.s:29708  .debug_str:00000000000227da .LASF3188
C:\Users\CYMR90~1\AppData\Local\Temp\ccj5QhVO.s:23617  .debug_str:000000000000a149 .LASF3189
C:\Users\CYMR90~1\AppData\Local\Temp\ccj5QhVO.s:24549  .debug_str:000000000000deaf .LASF3190
C:\Users\CYMR90~1\AppData\Local\Temp\ccj5QhVO.s:26517  .debug_str:0000000000015b86 .LASF3191
C:\Users\CYMR90~1\AppData\Local\Temp\ccj5QhVO.s:22659  .debug_str:0000000000006286 .LASF3192
C:\Users\CYMR90~1\AppData\Local\Temp\ccj5QhVO.s:30058  .debug_str:0000000000023d0a .LASF3193
C:\Users\CYMR90~1\AppData\Local\Temp\ccj5QhVO.s:27440  .debug_str:0000000000019869 .LASF3194
C:\Users\CYMR90~1\AppData\Local\Temp\ccj5QhVO.s:24077  .debug_str:000000000000c087 .LASF3195
C:\Users\CYMR90~1\AppData\Local\Temp\ccj5QhVO.s:29168  .debug_str:00000000000206b2 .LASF3196
C:\Users\CYMR90~1\AppData\Local\Temp\ccj5QhVO.s:26996  .debug_str:0000000000017c2c .LASF3197
C:\Users\CYMR90~1\AppData\Local\Temp\ccj5QhVO.s:31196  .debug_str:00000000000287f5 .LASF3198
C:\Users\CYMR90~1\AppData\Local\Temp\ccj5QhVO.s:28678  .debug_str:000000000001e98b .LASF3199
C:\Users\CYMR90~1\AppData\Local\Temp\ccj5QhVO.s:27996  .debug_str:000000000001bcc3 .LASF3200
C:\Users\CYMR90~1\AppData\Local\Temp\ccj5QhVO.s:31076  .debug_str:0000000000027f6b .LASF3201
C:\Users\CYMR90~1\AppData\Local\Temp\ccj5QhVO.s:21601  .debug_str:000000000000201d .LASF3202
C:\Users\CYMR90~1\AppData\Local\Temp\ccj5QhVO.s:24777  .debug_str:000000000000ed0f .LASF3203
C:\Users\CYMR90~1\AppData\Local\Temp\ccj5QhVO.s:24819  .debug_str:000000000000ef38 .LASF3204
C:\Users\CYMR90~1\AppData\Local\Temp\ccj5QhVO.s:30714  .debug_str:00000000000268b0 .LASF3205
C:\Users\CYMR90~1\AppData\Local\Temp\ccj5QhVO.s:31082  .debug_str:0000000000027fcb .LASF3206
C:\Users\CYMR90~1\AppData\Local\Temp\ccj5QhVO.s:28656  .debug_str:000000000001e822 .LASF3207
C:\Users\CYMR90~1\AppData\Local\Temp\ccj5QhVO.s:24135  .debug_str:000000000000c456 .LASF3208
C:\Users\CYMR90~1\AppData\Local\Temp\ccj5QhVO.s:23701  .debug_str:000000000000a666 .LASF3209
C:\Users\CYMR90~1\AppData\Local\Temp\ccj5QhVO.s:26659  .debug_str:00000000000164c4 .LASF3210
C:\Users\CYMR90~1\AppData\Local\Temp\ccj5QhVO.s:27616  .debug_str:000000000001a3b6 .LASF3211
C:\Users\CYMR90~1\AppData\Local\Temp\ccj5QhVO.s:25709  .debug_str:000000000001287e .LASF3212
C:\Users\CYMR90~1\AppData\Local\Temp\ccj5QhVO.s:25097  .debug_str:00000000000100a8 .LASF3213
C:\Users\CYMR90~1\AppData\Local\Temp\ccj5QhVO.s:32262  .debug_str:000000000002ca0a .LASF3214
C:\Users\CYMR90~1\AppData\Local\Temp\ccj5QhVO.s:26982  .debug_str:0000000000017b4f .LASF3215
C:\Users\CYMR90~1\AppData\Local\Temp\ccj5QhVO.s:29624  .debug_str:00000000000222eb .LASF3216
C:\Users\CYMR90~1\AppData\Local\Temp\ccj5QhVO.s:29684  .debug_str:000000000002263e .LASF3217
C:\Users\CYMR90~1\AppData\Local\Temp\ccj5QhVO.s:29910  .debug_str:00000000000233c8 .LASF3218
C:\Users\CYMR90~1\AppData\Local\Temp\ccj5QhVO.s:26077  .debug_str:0000000000014080 .LASF3219
C:\Users\CYMR90~1\AppData\Local\Temp\ccj5QhVO.s:28802  .debug_str:000000000001f09d .LASF3220
C:\Users\CYMR90~1\AppData\Local\Temp\ccj5QhVO.s:24849  .debug_str:000000000000f0ec .LASF3221
C:\Users\CYMR90~1\AppData\Local\Temp\ccj5QhVO.s:31654  .debug_str:000000000002a332 .LASF3222
C:\Users\CYMR90~1\AppData\Local\Temp\ccj5QhVO.s:28422  .debug_str:000000000001d981 .LASF3223
C:\Users\CYMR90~1\AppData\Local\Temp\ccj5QhVO.s:31258  .debug_str:0000000000028c22 .LASF3224
C:\Users\CYMR90~1\AppData\Local\Temp\ccj5QhVO.s:26361  .debug_str:0000000000015270 .LASF3225
C:\Users\CYMR90~1\AppData\Local\Temp\ccj5QhVO.s:25503  .debug_str:0000000000011af0 .LASF3226
C:\Users\CYMR90~1\AppData\Local\Temp\ccj5QhVO.s:23391  .debug_str:00000000000092a5 .LASF3227
C:\Users\CYMR90~1\AppData\Local\Temp\ccj5QhVO.s:22975  .debug_str:00000000000076f9 .LASF3228
C:\Users\CYMR90~1\AppData\Local\Temp\ccj5QhVO.s:32376  .debug_str:000000000002d170 .LASF3229
C:\Users\CYMR90~1\AppData\Local\Temp\ccj5QhVO.s:22145  .debug_str:00000000000042f2 .LASF3230
C:\Users\CYMR90~1\AppData\Local\Temp\ccj5QhVO.s:31916  .debug_str:000000000002b2cc .LASF3231
C:\Users\CYMR90~1\AppData\Local\Temp\ccj5QhVO.s:24471  .debug_str:000000000000da61 .LASF3232
C:\Users\CYMR90~1\AppData\Local\Temp\ccj5QhVO.s:27146  .debug_str:0000000000018514 .LASF3233
C:\Users\CYMR90~1\AppData\Local\Temp\ccj5QhVO.s:26599  .debug_str:0000000000016135 .LASF3234
C:\Users\CYMR90~1\AppData\Local\Temp\ccj5QhVO.s:29922  .debug_str:000000000002345f .LASF3235
C:\Users\CYMR90~1\AppData\Local\Temp\ccj5QhVO.s:21365  .debug_str:00000000000011c7 .LASF3236
C:\Users\CYMR90~1\AppData\Local\Temp\ccj5QhVO.s:27804  .debug_str:000000000001b15b .LASF3237
C:\Users\CYMR90~1\AppData\Local\Temp\ccj5QhVO.s:29780  .debug_str:0000000000022c35 .LASF3238
C:\Users\CYMR90~1\AppData\Local\Temp\ccj5QhVO.s:22553  .debug_str:0000000000005ca1 .LASF3239
C:\Users\CYMR90~1\AppData\Local\Temp\ccj5QhVO.s:30108  .debug_str:0000000000023ff3 .LASF3240
C:\Users\CYMR90~1\AppData\Local\Temp\ccj5QhVO.s:30524  .debug_str:0000000000025d48 .LASF3241
C:\Users\CYMR90~1\AppData\Local\Temp\ccj5QhVO.s:29240  .debug_str:0000000000020b56 .LASF3242
C:\Users\CYMR90~1\AppData\Local\Temp\ccj5QhVO.s:26501  .debug_str:0000000000015aa5 .LASF3243
C:\Users\CYMR90~1\AppData\Local\Temp\ccj5QhVO.s:26249  .debug_str:0000000000014af7 .LASF3244
C:\Users\CYMR90~1\AppData\Local\Temp\ccj5QhVO.s:26972  .debug_str:0000000000017a96 .LASF3245
C:\Users\CYMR90~1\AppData\Local\Temp\ccj5QhVO.s:29134  .debug_str:0000000000020452 .LASF3246
C:\Users\CYMR90~1\AppData\Local\Temp\ccj5QhVO.s:22941  .debug_str:00000000000074f0 .LASF3247
C:\Users\CYMR90~1\AppData\Local\Temp\ccj5QhVO.s:21129  .debug_str:0000000000000374 .LASF3248
C:\Users\CYMR90~1\AppData\Local\Temp\ccj5QhVO.s:31278  .debug_str:0000000000028d4f .LASF3249
C:\Users\CYMR90~1\AppData\Local\Temp\ccj5QhVO.s:21263  .debug_str:0000000000000bb9 .LASF3250
C:\Users\CYMR90~1\AppData\Local\Temp\ccj5QhVO.s:29604  .debug_str:00000000000221c9 .LASF3251
C:\Users\CYMR90~1\AppData\Local\Temp\ccj5QhVO.s:26399  .debug_str:00000000000154c5 .LASF3252
C:\Users\CYMR90~1\AppData\Local\Temp\ccj5QhVO.s:26059  .debug_str:0000000000013f68 .LASF3253
C:\Users\CYMR90~1\AppData\Local\Temp\ccj5QhVO.s:24345  .debug_str:000000000000d1cd .LASF3254
C:\Users\CYMR90~1\AppData\Local\Temp\ccj5QhVO.s:29912  .debug_str:00000000000233ee .LASF3255
C:\Users\CYMR90~1\AppData\Local\Temp\ccj5QhVO.s:27884  .debug_str:000000000001b670 .LASF3256
C:\Users\CYMR90~1\AppData\Local\Temp\ccj5QhVO.s:26657  .debug_str:00000000000164a7 .LASF3257
C:\Users\CYMR90~1\AppData\Local\Temp\ccj5QhVO.s:30366  .debug_str:0000000000025147 .LASF3258
C:\Users\CYMR90~1\AppData\Local\Temp\ccj5QhVO.s:24987  .debug_str:000000000000f9fd .LASF3259
C:\Users\CYMR90~1\AppData\Local\Temp\ccj5QhVO.s:29826  .debug_str:0000000000022f3f .LASF3260
C:\Users\CYMR90~1\AppData\Local\Temp\ccj5QhVO.s:25895  .debug_str:0000000000013503 .LASF3261
C:\Users\CYMR90~1\AppData\Local\Temp\ccj5QhVO.s:28372  .debug_str:000000000001d627 .LASF3262
C:\Users\CYMR90~1\AppData\Local\Temp\ccj5QhVO.s:31042  .debug_str:0000000000027d15 .LASF3263
C:\Users\CYMR90~1\AppData\Local\Temp\ccj5QhVO.s:32302  .debug_str:000000000002cca8 .LASF3264
C:\Users\CYMR90~1\AppData\Local\Temp\ccj5QhVO.s:31442  .debug_str:00000000000296ff .LASF3265
C:\Users\CYMR90~1\AppData\Local\Temp\ccj5QhVO.s:22073  .debug_str:0000000000003e07 .LASF3266
C:\Users\CYMR90~1\AppData\Local\Temp\ccj5QhVO.s:31988  .debug_str:000000000002b7b0 .LASF3267
C:\Users\CYMR90~1\AppData\Local\Temp\ccj5QhVO.s:23853  .debug_str:000000000000b16a .LASF3268
C:\Users\CYMR90~1\AppData\Local\Temp\ccj5QhVO.s:26053  .debug_str:0000000000013f1a .LASF3269
C:\Users\CYMR90~1\AppData\Local\Temp\ccj5QhVO.s:22341  .debug_str:0000000000004fde .LASF3270
C:\Users\CYMR90~1\AppData\Local\Temp\ccj5QhVO.s:30864  .debug_str:00000000000271b0 .LASF3271
C:\Users\CYMR90~1\AppData\Local\Temp\ccj5QhVO.s:22535  .debug_str:0000000000005b9e .LASF3272
C:\Users\CYMR90~1\AppData\Local\Temp\ccj5QhVO.s:23953  .debug_str:000000000000b7d6 .LASF3273
C:\Users\CYMR90~1\AppData\Local\Temp\ccj5QhVO.s:22471  .debug_str:000000000000579e .LASF3274
C:\Users\CYMR90~1\AppData\Local\Temp\ccj5QhVO.s:25611  .debug_str:000000000001223d .LASF3275
C:\Users\CYMR90~1\AppData\Local\Temp\ccj5QhVO.s:31032  .debug_str:0000000000027c78 .LASF3276
C:\Users\CYMR90~1\AppData\Local\Temp\ccj5QhVO.s:27402  .debug_str:000000000001961b .LASF3277
C:\Users\CYMR90~1\AppData\Local\Temp\ccj5QhVO.s:26199  .debug_str:00000000000147f1 .LASF3278
C:\Users\CYMR90~1\AppData\Local\Temp\ccj5QhVO.s:32334  .debug_str:000000000002cf00 .LASF3279
C:\Users\CYMR90~1\AppData\Local\Temp\ccj5QhVO.s:28880  .debug_str:000000000001f584 .LASF3280
C:\Users\CYMR90~1\AppData\Local\Temp\ccj5QhVO.s:25541  .debug_str:0000000000011db7 .LASF3281
C:\Users\CYMR90~1\AppData\Local\Temp\ccj5QhVO.s:22949  .debug_str:0000000000007553 .LASF3282
C:\Users\CYMR90~1\AppData\Local\Temp\ccj5QhVO.s:29968  .debug_str:0000000000023742 .LASF3283
C:\Users\CYMR90~1\AppData\Local\Temp\ccj5QhVO.s:26553  .debug_str:0000000000015dec .LASF3284
C:\Users\CYMR90~1\AppData\Local\Temp\ccj5QhVO.s:23177  .debug_str:0000000000008546 .LASF3285
C:\Users\CYMR90~1\AppData\Local\Temp\ccj5QhVO.s:27092  .debug_str:00000000000181a6 .LASF3286
C:\Users\CYMR90~1\AppData\Local\Temp\ccj5QhVO.s:32046  .debug_str:000000000002bba3 .LASF3287
C:\Users\CYMR90~1\AppData\Local\Temp\ccj5QhVO.s:30592  .debug_str:0000000000026110 .LASF3288
C:\Users\CYMR90~1\AppData\Local\Temp\ccj5QhVO.s:21467  .debug_str:0000000000001829 .LASF3289
C:\Users\CYMR90~1\AppData\Local\Temp\ccj5QhVO.s:22511  .debug_str:00000000000059ed .LASF3290
C:\Users\CYMR90~1\AppData\Local\Temp\ccj5QhVO.s:28664  .debug_str:000000000001e86e .LASF3291
C:\Users\CYMR90~1\AppData\Local\Temp\ccj5QhVO.s:28888  .debug_str:000000000001f5e2 .LASF3292
C:\Users\CYMR90~1\AppData\Local\Temp\ccj5QhVO.s:30018  .debug_str:0000000000023abf .LASF3293
C:\Users\CYMR90~1\AppData\Local\Temp\ccj5QhVO.s:21463  .debug_str:00000000000017e2 .LASF3294
C:\Users\CYMR90~1\AppData\Local\Temp\ccj5QhVO.s:27202  .debug_str:0000000000018871 .LASF3295
C:\Users\CYMR90~1\AppData\Local\Temp\ccj5QhVO.s:32284  .debug_str:000000000002cb8b .LASF3296
C:\Users\CYMR90~1\AppData\Local\Temp\ccj5QhVO.s:23923  .debug_str:000000000000b55c .LASF3297
C:\Users\CYMR90~1\AppData\Local\Temp\ccj5QhVO.s:27074  .debug_str:00000000000180c1 .LASF3298
C:\Users\CYMR90~1\AppData\Local\Temp\ccj5QhVO.s:21397  .debug_str:00000000000013a1 .LASF3299
C:\Users\CYMR90~1\AppData\Local\Temp\ccj5QhVO.s:28148  .debug_str:000000000001c65c .LASF3300
C:\Users\CYMR90~1\AppData\Local\Temp\ccj5QhVO.s:24143  .debug_str:000000000000c4cc .LASF3301
C:\Users\CYMR90~1\AppData\Local\Temp\ccj5QhVO.s:24405  .debug_str:000000000000d652 .LASF3302
C:\Users\CYMR90~1\AppData\Local\Temp\ccj5QhVO.s:32042  .debug_str:000000000002bb58 .LASF3303
C:\Users\CYMR90~1\AppData\Local\Temp\ccj5QhVO.s:29084  .debug_str:00000000000201a4 .LASF3304
C:\Users\CYMR90~1\AppData\Local\Temp\ccj5QhVO.s:24879  .debug_str:000000000000f2d7 .LASF3305
C:\Users\CYMR90~1\AppData\Local\Temp\ccj5QhVO.s:30522  .debug_str:0000000000025d20 .LASF3306
C:\Users\CYMR90~1\AppData\Local\Temp\ccj5QhVO.s:29460  .debug_str:00000000000218ff .LASF3307
C:\Users\CYMR90~1\AppData\Local\Temp\ccj5QhVO.s:25137  .debug_str:000000000001031b .LASF3308
C:\Users\CYMR90~1\AppData\Local\Temp\ccj5QhVO.s:29082  .debug_str:000000000002017d .LASF3309
C:\Users\CYMR90~1\AppData\Local\Temp\ccj5QhVO.s:30488  .debug_str:0000000000025ad4 .LASF3310
C:\Users\CYMR90~1\AppData\Local\Temp\ccj5QhVO.s:31926  .debug_str:000000000002b3a4 .LASF3311
C:\Users\CYMR90~1\AppData\Local\Temp\ccj5QhVO.s:25275  .debug_str:0000000000010bd2 .LASF3312
C:\Users\CYMR90~1\AppData\Local\Temp\ccj5QhVO.s:29114  .debug_str:000000000002033e .LASF3313
C:\Users\CYMR90~1\AppData\Local\Temp\ccj5QhVO.s:30650  .debug_str:00000000000264d5 .LASF3314
C:\Users\CYMR90~1\AppData\Local\Temp\ccj5QhVO.s:32336  .debug_str:000000000002cf27 .LASF3315
C:\Users\CYMR90~1\AppData\Local\Temp\ccj5QhVO.s:23565  .debug_str:0000000000009db8 .LASF3316
C:\Users\CYMR90~1\AppData\Local\Temp\ccj5QhVO.s:27442  .debug_str:000000000001988c .LASF3317
C:\Users\CYMR90~1\AppData\Local\Temp\ccj5QhVO.s:24855  .debug_str:000000000000f132 .LASF3318
C:\Users\CYMR90~1\AppData\Local\Temp\ccj5QhVO.s:28800  .debug_str:000000000001f07f .LASF3319
C:\Users\CYMR90~1\AppData\Local\Temp\ccj5QhVO.s:27256  .debug_str:0000000000018bba .LASF3320
C:\Users\CYMR90~1\AppData\Local\Temp\ccj5QhVO.s:31854  .debug_str:000000000002af43 .LASF3321
C:\Users\CYMR90~1\AppData\Local\Temp\ccj5QhVO.s:28032  .debug_str:000000000001bf4c .LASF3322
C:\Users\CYMR90~1\AppData\Local\Temp\ccj5QhVO.s:22059  .debug_str:0000000000003d34 .LASF3323
C:\Users\CYMR90~1\AppData\Local\Temp\ccj5QhVO.s:23835  .debug_str:000000000000afb8 .LASF3324
C:\Users\CYMR90~1\AppData\Local\Temp\ccj5QhVO.s:24875  .debug_str:000000000000f289 .LASF3325
C:\Users\CYMR90~1\AppData\Local\Temp\ccj5QhVO.s:29538  .debug_str:0000000000021dcf .LASF3326
C:\Users\CYMR90~1\AppData\Local\Temp\ccj5QhVO.s:26769  .debug_str:0000000000016cad .LASF3327
C:\Users\CYMR90~1\AppData\Local\Temp\ccj5QhVO.s:28562  .debug_str:000000000001e259 .LASF3328
C:\Users\CYMR90~1\AppData\Local\Temp\ccj5QhVO.s:28456  .debug_str:000000000001dba3 .LASF3329
C:\Users\CYMR90~1\AppData\Local\Temp\ccj5QhVO.s:29558  .debug_str:0000000000021f1b .LASF3330
C:\Users\CYMR90~1\AppData\Local\Temp\ccj5QhVO.s:23801  .debug_str:000000000000ad74 .LASF3331
C:\Users\CYMR90~1\AppData\Local\Temp\ccj5QhVO.s:26173  .debug_str:000000000001466b .LASF3332
C:\Users\CYMR90~1\AppData\Local\Temp\ccj5QhVO.s:22605  .debug_str:0000000000005f6d .LASF3333
C:\Users\CYMR90~1\AppData\Local\Temp\ccj5QhVO.s:29296  .debug_str:0000000000020ed2 .LASF3334
C:\Users\CYMR90~1\AppData\Local\Temp\ccj5QhVO.s:25789  .debug_str:0000000000012dd1 .LASF3335
C:\Users\CYMR90~1\AppData\Local\Temp\ccj5QhVO.s:27862  .debug_str:000000000001b500 .LASF3336
C:\Users\CYMR90~1\AppData\Local\Temp\ccj5QhVO.s:27732  .debug_str:000000000001aca5 .LASF3337
C:\Users\CYMR90~1\AppData\Local\Temp\ccj5QhVO.s:22359  .debug_str:00000000000050f3 .LASF3338
C:\Users\CYMR90~1\AppData\Local\Temp\ccj5QhVO.s:29158  .debug_str:00000000000205ff .LASF3339
C:\Users\CYMR90~1\AppData\Local\Temp\ccj5QhVO.s:25861  .debug_str:000000000001329d .LASF3340
C:\Users\CYMR90~1\AppData\Local\Temp\ccj5QhVO.s:23677  .debug_str:000000000000a521 .LASF3341
C:\Users\CYMR90~1\AppData\Local\Temp\ccj5QhVO.s:28192  .debug_str:000000000001c905 .LASF3342
C:\Users\CYMR90~1\AppData\Local\Temp\ccj5QhVO.s:22877  .debug_str:000000000000706a .LASF3343
C:\Users\CYMR90~1\AppData\Local\Temp\ccj5QhVO.s:30842  .debug_str:0000000000027070 .LASF3344
C:\Users\CYMR90~1\AppData\Local\Temp\ccj5QhVO.s:22273  .debug_str:0000000000004bca .LASF3345
C:\Users\CYMR90~1\AppData\Local\Temp\ccj5QhVO.s:22603  .debug_str:0000000000005f5c .LASF3346
C:\Users\CYMR90~1\AppData\Local\Temp\ccj5QhVO.s:21585  .debug_str:0000000000001f45 .LASF3347
C:\Users\CYMR90~1\AppData\Local\Temp\ccj5QhVO.s:27150  .debug_str:000000000001854b .LASF3348
C:\Users\CYMR90~1\AppData\Local\Temp\ccj5QhVO.s:26876  .debug_str:0000000000017499 .LASF3349
C:\Users\CYMR90~1\AppData\Local\Temp\ccj5QhVO.s:27912  .debug_str:000000000001b7fc .LASF3350
C:\Users\CYMR90~1\AppData\Local\Temp\ccj5QhVO.s:24561  .debug_str:000000000000dfbe .LASF3351
C:\Users\CYMR90~1\AppData\Local\Temp\ccj5QhVO.s:29290  .debug_str:0000000000020e5e .LASF3352
C:\Users\CYMR90~1\AppData\Local\Temp\ccj5QhVO.s:30170  .debug_str:000000000002444e .LASF3353
C:\Users\CYMR90~1\AppData\Local\Temp\ccj5QhVO.s:31044  .debug_str:0000000000027d2c .LASF3354
C:\Users\CYMR90~1\AppData\Local\Temp\ccj5QhVO.s:29412  .debug_str:0000000000021600 .LASF3355
C:\Users\CYMR90~1\AppData\Local\Temp\ccj5QhVO.s:30674  .debug_str:0000000000026633 .LASF3356
C:\Users\CYMR90~1\AppData\Local\Temp\ccj5QhVO.s:22897  .debug_str:00000000000071ec .LASF3357
C:\Users\CYMR90~1\AppData\Local\Temp\ccj5QhVO.s:27920  .debug_str:000000000001b889 .LASF3358
C:\Users\CYMR90~1\AppData\Local\Temp\ccj5QhVO.s:23593  .debug_str:0000000000009f80 .LASF3359
C:\Users\CYMR90~1\AppData\Local\Temp\ccj5QhVO.s:30436  .debug_str:0000000000025697 .LASF3360
C:\Users\CYMR90~1\AppData\Local\Temp\ccj5QhVO.s:24149  .debug_str:000000000000c53e .LASF3361
C:\Users\CYMR90~1\AppData\Local\Temp\ccj5QhVO.s:26631  .debug_str:000000000001631a .LASF3362
C:\Users\CYMR90~1\AppData\Local\Temp\ccj5QhVO.s:30880  .debug_str:000000000002726e .LASF3363
C:\Users\CYMR90~1\AppData\Local\Temp\ccj5QhVO.s:23789  .debug_str:000000000000aca4 .LASF3364
C:\Users\CYMR90~1\AppData\Local\Temp\ccj5QhVO.s:24635  .debug_str:000000000000e3f6 .LASF3365
C:\Users\CYMR90~1\AppData\Local\Temp\ccj5QhVO.s:22277  .debug_str:0000000000004c19 .LASF3366
C:\Users\CYMR90~1\AppData\Local\Temp\ccj5QhVO.s:21257  .debug_str:0000000000000b3f .LASF3367
C:\Users\CYMR90~1\AppData\Local\Temp\ccj5QhVO.s:29568  .debug_str:0000000000021fb1 .LASF3368
C:\Users\CYMR90~1\AppData\Local\Temp\ccj5QhVO.s:23807  .debug_str:000000000000adc9 .LASF3369
C:\Users\CYMR90~1\AppData\Local\Temp\ccj5QhVO.s:21971  .debug_str:000000000000378a .LASF3370
C:\Users\CYMR90~1\AppData\Local\Temp\ccj5QhVO.s:21427  .debug_str:0000000000001521 .LASF3371
C:\Users\CYMR90~1\AppData\Local\Temp\ccj5QhVO.s:27168  .debug_str:000000000001868f .LASF3372
C:\Users\CYMR90~1\AppData\Local\Temp\ccj5QhVO.s:26653  .debug_str:0000000000016467 .LASF3373
C:\Users\CYMR90~1\AppData\Local\Temp\ccj5QhVO.s:25851  .debug_str:00000000000131f1 .LASF3374
C:\Users\CYMR90~1\AppData\Local\Temp\ccj5QhVO.s:27518  .debug_str:0000000000019e12 .LASF3375
C:\Users\CYMR90~1\AppData\Local\Temp\ccj5QhVO.s:31816  .debug_str:000000000002acf5 .LASF3376
C:\Users\CYMR90~1\AppData\Local\Temp\ccj5QhVO.s:26721  .debug_str:00000000000168db .LASF3377
C:\Users\CYMR90~1\AppData\Local\Temp\ccj5QhVO.s:25769  .debug_str:0000000000012cb4 .LASF3378
C:\Users\CYMR90~1\AppData\Local\Temp\ccj5QhVO.s:27820  .debug_str:000000000001b23d .LASF3379
C:\Users\CYMR90~1\AppData\Local\Temp\ccj5QhVO.s:30706  .debug_str:0000000000026829 .LASF3380
C:\Users\CYMR90~1\AppData\Local\Temp\ccj5QhVO.s:23117  .debug_str:0000000000008157 .LASF3381
C:\Users\CYMR90~1\AppData\Local\Temp\ccj5QhVO.s:21799  .debug_str:0000000000002c75 .LASF3382
C:\Users\CYMR90~1\AppData\Local\Temp\ccj5QhVO.s:29496  .debug_str:0000000000021b01 .LASF3383
C:\Users\CYMR90~1\AppData\Local\Temp\ccj5QhVO.s:28834  .debug_str:000000000001f2d4 .LASF3384
C:\Users\CYMR90~1\AppData\Local\Temp\ccj5QhVO.s:29126  .debug_str:00000000000203e6 .LASF3385
C:\Users\CYMR90~1\AppData\Local\Temp\ccj5QhVO.s:29652  .debug_str:0000000000022482 .LASF3386
C:\Users\CYMR90~1\AppData\Local\Temp\ccj5QhVO.s:25273  .debug_str:0000000000010bba .LASF3387
C:\Users\CYMR90~1\AppData\Local\Temp\ccj5QhVO.s:22825  .debug_str:0000000000006cf6 .LASF3388
C:\Users\CYMR90~1\AppData\Local\Temp\ccj5QhVO.s:31974  .debug_str:000000000002b70c .LASF3389
C:\Users\CYMR90~1\AppData\Local\Temp\ccj5QhVO.s:31804  .debug_str:000000000002ac34 .LASF3390
C:\Users\CYMR90~1\AppData\Local\Temp\ccj5QhVO.s:28510  .debug_str:000000000001df3b .LASF3391
C:\Users\CYMR90~1\AppData\Local\Temp\ccj5QhVO.s:21239  .debug_str:00000000000009bd .LASF3392
C:\Users\CYMR90~1\AppData\Local\Temp\ccj5QhVO.s:30808  .debug_str:0000000000026e28 .LASF3393
C:\Users\CYMR90~1\AppData\Local\Temp\ccj5QhVO.s:25055  .debug_str:000000000000fdfb .LASF3394
C:\Users\CYMR90~1\AppData\Local\Temp\ccj5QhVO.s:32272  .debug_str:000000000002cabe .LASF3395
C:\Users\CYMR90~1\AppData\Local\Temp\ccj5QhVO.s:27336  .debug_str:0000000000019246 .LASF3396
C:\Users\CYMR90~1\AppData\Local\Temp\ccj5QhVO.s:31912  .debug_str:000000000002b289 .LASF3397
C:\Users\CYMR90~1\AppData\Local\Temp\ccj5QhVO.s:27378  .debug_str:00000000000194a7 .LASF3398
C:\Users\CYMR90~1\AppData\Local\Temp\ccj5QhVO.s:29638  .debug_str:00000000000223d6 .LASF3399
C:\Users\CYMR90~1\AppData\Local\Temp\ccj5QhVO.s:26107  .debug_str:000000000001424a .LASF3400
C:\Users\CYMR90~1\AppData\Local\Temp\ccj5QhVO.s:24247  .debug_str:000000000000cbdb .LASF3401
C:\Users\CYMR90~1\AppData\Local\Temp\ccj5QhVO.s:21863  .debug_str:0000000000003063 .LASF3402
C:\Users\CYMR90~1\AppData\Local\Temp\ccj5QhVO.s:27698  .debug_str:000000000001aa7b .LASF3403
C:\Users\CYMR90~1\AppData\Local\Temp\ccj5QhVO.s:28912  .debug_str:000000000001f739 .LASF3404
C:\Users\CYMR90~1\AppData\Local\Temp\ccj5QhVO.s:31604  .debug_str:000000000002a05d .LASF3405
C:\Users\CYMR90~1\AppData\Local\Temp\ccj5QhVO.s:30794  .debug_str:0000000000026d87 .LASF3406
C:\Users\CYMR90~1\AppData\Local\Temp\ccj5QhVO.s:29698  .debug_str:0000000000022732 .LASF3407
C:\Users\CYMR90~1\AppData\Local\Temp\ccj5QhVO.s:30384  .debug_str:000000000002524a .LASF3408
C:\Users\CYMR90~1\AppData\Local\Temp\ccj5QhVO.s:28508  .debug_str:000000000001df1f .LASF3409
C:\Users\CYMR90~1\AppData\Local\Temp\ccj5QhVO.s:28570  .debug_str:000000000001e2dd .LASF3410
C:\Users\CYMR90~1\AppData\Local\Temp\ccj5QhVO.s:27604  .debug_str:000000000001a303 .LASF3411
C:\Users\CYMR90~1\AppData\Local\Temp\ccj5QhVO.s:21137  .debug_str:00000000000003ed .LASF3412
C:\Users\CYMR90~1\AppData\Local\Temp\ccj5QhVO.s:26960  .debug_str:00000000000179a3 .LASF3413
C:\Users\CYMR90~1\AppData\Local\Temp\ccj5QhVO.s:30564  .debug_str:0000000000025f6e .LASF3414
C:\Users\CYMR90~1\AppData\Local\Temp\ccj5QhVO.s:22391  .debug_str:00000000000052d4 .LASF3415
C:\Users\CYMR90~1\AppData\Local\Temp\ccj5QhVO.s:21477  .debug_str:00000000000018e4 .LASF3416
C:\Users\CYMR90~1\AppData\Local\Temp\ccj5QhVO.s:26509  .debug_str:0000000000015b0c .LASF3417
C:\Users\CYMR90~1\AppData\Local\Temp\ccj5QhVO.s:24957  .debug_str:000000000000f77c .LASF3418
C:\Users\CYMR90~1\AppData\Local\Temp\ccj5QhVO.s:23477  .debug_str:00000000000097fc .LASF3419
C:\Users\CYMR90~1\AppData\Local\Temp\ccj5QhVO.s:28588  .debug_str:000000000001e401 .LASF3420
C:\Users\CYMR90~1\AppData\Local\Temp\ccj5QhVO.s:21577  .debug_str:0000000000001ecf .LASF3421
C:\Users\CYMR90~1\AppData\Local\Temp\ccj5QhVO.s:28896  .debug_str:000000000001f676 .LASF3422
C:\Users\CYMR90~1\AppData\Local\Temp\ccj5QhVO.s:23455  .debug_str:00000000000096b0 .LASF3423
C:\Users\CYMR90~1\AppData\Local\Temp\ccj5QhVO.s:27082  .debug_str:0000000000018143 .LASF3424
C:\Users\CYMR90~1\AppData\Local\Temp\ccj5QhVO.s:30662  .debug_str:000000000002657b .LASF3425
C:\Users\CYMR90~1\AppData\Local\Temp\ccj5QhVO.s:22847  .debug_str:0000000000006e82 .LASF3426
C:\Users\CYMR90~1\AppData\Local\Temp\ccj5QhVO.s:28648  .debug_str:000000000001e7b8 .LASF3427
C:\Users\CYMR90~1\AppData\Local\Temp\ccj5QhVO.s:32166  .debug_str:000000000002c38b .LASF3428
C:\Users\CYMR90~1\AppData\Local\Temp\ccj5QhVO.s:24903  .debug_str:000000000000f46e .LASF3429
C:\Users\CYMR90~1\AppData\Local\Temp\ccj5QhVO.s:28936  .debug_str:000000000001f8ab .LASF3430
C:\Users\CYMR90~1\AppData\Local\Temp\ccj5QhVO.s:22261  .debug_str:0000000000004b12 .LASF3431
C:\Users\CYMR90~1\AppData\Local\Temp\ccj5QhVO.s:28830  .debug_str:000000000001f2a0 .LASF3432
C:\Users\CYMR90~1\AppData\Local\Temp\ccj5QhVO.s:24607  .debug_str:000000000000e24a .LASF3433
C:\Users\CYMR90~1\AppData\Local\Temp\ccj5QhVO.s:31928  .debug_str:000000000002b3cb .LASF3434
C:\Users\CYMR90~1\AppData\Local\Temp\ccj5QhVO.s:29486  .debug_str:0000000000021a88 .LASF3435
C:\Users\CYMR90~1\AppData\Local\Temp\ccj5QhVO.s:26858  .debug_str:000000000001737c .LASF3436
C:\Users\CYMR90~1\AppData\Local\Temp\ccj5QhVO.s:28382  .debug_str:000000000001d6d4 .LASF3437
C:\Users\CYMR90~1\AppData\Local\Temp\ccj5QhVO.s:26906  .debug_str:0000000000017639 .LASF3438
C:\Users\CYMR90~1\AppData\Local\Temp\ccj5QhVO.s:30402  .debug_str:00000000000253d2 .LASF3439
C:\Users\CYMR90~1\AppData\Local\Temp\ccj5QhVO.s:28532  .debug_str:000000000001e0cb .LASF3440
C:\Users\CYMR90~1\AppData\Local\Temp\ccj5QhVO.s:29462  .debug_str:000000000002193e .LASF3441
C:\Users\CYMR90~1\AppData\Local\Temp\ccj5QhVO.s:25161  .debug_str:000000000001046c .LASF3442
C:\Users\CYMR90~1\AppData\Local\Temp\ccj5QhVO.s:26299  .debug_str:0000000000014e28 .LASF3443
C:\Users\CYMR90~1\AppData\Local\Temp\ccj5QhVO.s:32294  .debug_str:000000000002cc4a .LASF3444
C:\Users\CYMR90~1\AppData\Local\Temp\ccj5QhVO.s:24333  .debug_str:000000000000d126 .LASF3445
C:\Users\CYMR90~1\AppData\Local\Temp\ccj5QhVO.s:27132  .debug_str:000000000001844e .LASF3446
C:\Users\CYMR90~1\AppData\Local\Temp\ccj5QhVO.s:23481  .debug_str:000000000000982e .LASF3447
C:\Users\CYMR90~1\AppData\Local\Temp\ccj5QhVO.s:30660  .debug_str:000000000002655e .LASF3448
C:\Users\CYMR90~1\AppData\Local\Temp\ccj5QhVO.s:31746  .debug_str:000000000002a8db .LASF3449
C:\Users\CYMR90~1\AppData\Local\Temp\ccj5QhVO.s:24035  .debug_str:000000000000bd31 .LASF3450
C:\Users\CYMR90~1\AppData\Local\Temp\ccj5QhVO.s:31150  .debug_str:0000000000028507 .LASF3451
C:\Users\CYMR90~1\AppData\Local\Temp\ccj5QhVO.s:28038  .debug_str:000000000001bfc4 .LASF3452
C:\Users\CYMR90~1\AppData\Local\Temp\ccj5QhVO.s:31616  .debug_str:000000000002a0ff .LASF3453
C:\Users\CYMR90~1\AppData\Local\Temp\ccj5QhVO.s:21651  .debug_str:00000000000022e4 .LASF3454
C:\Users\CYMR90~1\AppData\Local\Temp\ccj5QhVO.s:30720  .debug_str:000000000002692c .LASF3455
C:\Users\CYMR90~1\AppData\Local\Temp\ccj5QhVO.s:27472  .debug_str:0000000000019b30 .LASF3456
C:\Users\CYMR90~1\AppData\Local\Temp\ccj5QhVO.s:27396  .debug_str:00000000000195c9 .LASF3457
C:\Users\CYMR90~1\AppData\Local\Temp\ccj5QhVO.s:27824  .debug_str:000000000001b27d .LASF3458
C:\Users\CYMR90~1\AppData\Local\Temp\ccj5QhVO.s:21659  .debug_str:000000000000234e .LASF3459
C:\Users\CYMR90~1\AppData\Local\Temp\ccj5QhVO.s:31072  .debug_str:0000000000027f3b .LASF3460
C:\Users\CYMR90~1\AppData\Local\Temp\ccj5QhVO.s:28468  .debug_str:000000000001dc6e .LASF3461
C:\Users\CYMR90~1\AppData\Local\Temp\ccj5QhVO.s:27222  .debug_str:00000000000189a9 .LASF3462
C:\Users\CYMR90~1\AppData\Local\Temp\ccj5QhVO.s:29700  .debug_str:000000000002274e .LASF3463
C:\Users\CYMR90~1\AppData\Local\Temp\ccj5QhVO.s:29250  .debug_str:0000000000020bc4 .LASF3464
C:\Users\CYMR90~1\AppData\Local\Temp\ccj5QhVO.s:32120  .debug_str:000000000002c0e4 .LASF3465
C:\Users\CYMR90~1\AppData\Local\Temp\ccj5QhVO.s:31872  .debug_str:000000000002b058 .LASF3466
C:\Users\CYMR90~1\AppData\Local\Temp\ccj5QhVO.s:21195  .debug_str:0000000000000741 .LASF3467
C:\Users\CYMR90~1\AppData\Local\Temp\ccj5QhVO.s:24823  .debug_str:000000000000ef6b .LASF3468
C:\Users\CYMR90~1\AppData\Local\Temp\ccj5QhVO.s:30322  .debug_str:0000000000024e6f .LASF3469
C:\Users\CYMR90~1\AppData\Local\Temp\ccj5QhVO.s:30030  .debug_str:0000000000023b5c .LASF3470
C:\Users\CYMR90~1\AppData\Local\Temp\ccj5QhVO.s:27654  .debug_str:000000000001a749 .LASF3471
C:\Users\CYMR90~1\AppData\Local\Temp\ccj5QhVO.s:26804  .debug_str:0000000000017067 .LASF3472
C:\Users\CYMR90~1\AppData\Local\Temp\ccj5QhVO.s:27242  .debug_str:0000000000018af7 .LASF3473
C:\Users\CYMR90~1\AppData\Local\Temp\ccj5QhVO.s:31690  .debug_str:000000000002a52b .LASF3474
C:\Users\CYMR90~1\AppData\Local\Temp\ccj5QhVO.s:24381  .debug_str:000000000000d480 .LASF3475
C:\Users\CYMR90~1\AppData\Local\Temp\ccj5QhVO.s:26856  .debug_str:000000000001735f .LASF3476
C:\Users\CYMR90~1\AppData\Local\Temp\ccj5QhVO.s:26189  .debug_str:000000000001475b .LASF3477
C:\Users\CYMR90~1\AppData\Local\Temp\ccj5QhVO.s:26271  .debug_str:0000000000014c6c .LASF3478
C:\Users\CYMR90~1\AppData\Local\Temp\ccj5QhVO.s:28616  .debug_str:000000000001e5ae .LASF3479
C:\Users\CYMR90~1\AppData\Local\Temp\ccj5QhVO.s:31484  .debug_str:0000000000029995 .LASF3480
C:\Users\CYMR90~1\AppData\Local\Temp\ccj5QhVO.s:21793  .debug_str:0000000000002c2f .LASF3481
C:\Users\CYMR90~1\AppData\Local\Temp\ccj5QhVO.s:28814  .debug_str:000000000001f16c .LASF3482
C:\Users\CYMR90~1\AppData\Local\Temp\ccj5QhVO.s:23607  .debug_str:000000000000a089 .LASF3483
C:\Users\CYMR90~1\AppData\Local\Temp\ccj5QhVO.s:21913  .debug_str:00000000000033dd .LASF3484
C:\Users\CYMR90~1\AppData\Local\Temp\ccj5QhVO.s:23851  .debug_str:000000000000b151 .LASF3485
C:\Users\CYMR90~1\AppData\Local\Temp\ccj5QhVO.s:22789  .debug_str:0000000000006a86 .LASF3486
C:\Users\CYMR90~1\AppData\Local\Temp\ccj5QhVO.s:30342  .debug_str:0000000000024fac .LASF3487
C:\Users\CYMR90~1\AppData\Local\Temp\ccj5QhVO.s:27718  .debug_str:000000000001abb0 .LASF3488
C:\Users\CYMR90~1\AppData\Local\Temp\ccj5QhVO.s:27574  .debug_str:000000000001a160 .LASF3489
C:\Users\CYMR90~1\AppData\Local\Temp\ccj5QhVO.s:22747  .debug_str:0000000000006801 .LASF3490
C:\Users\CYMR90~1\AppData\Local\Temp\ccj5QhVO.s:23703  .debug_str:000000000000a689 .LASF3491
C:\Users\CYMR90~1\AppData\Local\Temp\ccj5QhVO.s:24545  .debug_str:000000000000de7a .LASF3492
C:\Users\CYMR90~1\AppData\Local\Temp\ccj5QhVO.s:23179  .debug_str:000000000000856d .LASF3493
C:\Users\CYMR90~1\AppData\Local\Temp\ccj5QhVO.s:23369  .debug_str:000000000000913e .LASF3494
C:\Users\CYMR90~1\AppData\Local\Temp\ccj5QhVO.s:23955  .debug_str:000000000000b7f8 .LASF3495
C:\Users\CYMR90~1\AppData\Local\Temp\ccj5QhVO.s:21937  .debug_str:0000000000003562 .LASF3496
C:\Users\CYMR90~1\AppData\Local\Temp\ccj5QhVO.s:23299  .debug_str:0000000000008cd2 .LASF3497
C:\Users\CYMR90~1\AppData\Local\Temp\ccj5QhVO.s:21119  .debug_str:00000000000002d2 .LASF3498
C:\Users\CYMR90~1\AppData\Local\Temp\ccj5QhVO.s:26852  .debug_str:0000000000017331 .LASF3499
C:\Users\CYMR90~1\AppData\Local\Temp\ccj5QhVO.s:24109  .debug_str:000000000000c2b6 .LASF3500
C:\Users\CYMR90~1\AppData\Local\Temp\ccj5QhVO.s:29964  .debug_str:0000000000023708 .LASF3501
C:\Users\CYMR90~1\AppData\Local\Temp\ccj5QhVO.s:32040  .debug_str:000000000002bb3e .LASF3502
C:\Users\CYMR90~1\AppData\Local\Temp\ccj5QhVO.s:25665  .debug_str:00000000000125d2 .LASF3503
C:\Users\CYMR90~1\AppData\Local\Temp\ccj5QhVO.s:25517  .debug_str:0000000000011c54 .LASF3504
C:\Users\CYMR90~1\AppData\Local\Temp\ccj5QhVO.s:27838  .debug_str:000000000001b38f .LASF3505
C:\Users\CYMR90~1\AppData\Local\Temp\ccj5QhVO.s:29976  .debug_str:00000000000237f8 .LASF3506
C:\Users\CYMR90~1\AppData\Local\Temp\ccj5QhVO.s:31418  .debug_str:000000000002957e .LASF3507
C:\Users\CYMR90~1\AppData\Local\Temp\ccj5QhVO.s:27486  .debug_str:0000000000019c09 .LASF3508
C:\Users\CYMR90~1\AppData\Local\Temp\ccj5QhVO.s:28798  .debug_str:000000000001f060 .LASF3509
C:\Users\CYMR90~1\AppData\Local\Temp\ccj5QhVO.s:28538  .debug_str:000000000001e126 .LASF3510
C:\Users\CYMR90~1\AppData\Local\Temp\ccj5QhVO.s:30750  .debug_str:0000000000026ae6 .LASF3511
C:\Users\CYMR90~1\AppData\Local\Temp\ccj5QhVO.s:21299  .debug_str:0000000000000da2 .LASF3512
C:\Users\CYMR90~1\AppData\Local\Temp\ccj5QhVO.s:24769  .debug_str:000000000000ec93 .LASF3513
C:\Users\CYMR90~1\AppData\Local\Temp\ccj5QhVO.s:32116  .debug_str:000000000002c0b3 .LASF3514
C:\Users\CYMR90~1\AppData\Local\Temp\ccj5QhVO.s:30894  .debug_str:0000000000027333 .LASF3515
C:\Users\CYMR90~1\AppData\Local\Temp\ccj5QhVO.s:21779  .debug_str:0000000000002aff .LASF3516
C:\Users\CYMR90~1\AppData\Local\Temp\ccj5QhVO.s:21451  .debug_str:00000000000016a2 .LASF3517
C:\Users\CYMR90~1\AppData\Local\Temp\ccj5QhVO.s:22907  .debug_str:00000000000072c0 .LASF3518
C:\Users\CYMR90~1\AppData\Local\Temp\ccj5QhVO.s:24307  .debug_str:000000000000cf56 .LASF3519
C:\Users\CYMR90~1\AppData\Local\Temp\ccj5QhVO.s:22643  .debug_str:00000000000061b4 .LASF3520
C:\Users\CYMR90~1\AppData\Local\Temp\ccj5QhVO.s:29348  .debug_str:00000000000211ab .LASF3521
C:\Users\CYMR90~1\AppData\Local\Temp\ccj5QhVO.s:29610  .debug_str:0000000000022213 .LASF3522
C:\Users\CYMR90~1\AppData\Local\Temp\ccj5QhVO.s:28708  .debug_str:000000000001eb5f .LASF3523
C:\Users\CYMR90~1\AppData\Local\Temp\ccj5QhVO.s:30026  .debug_str:0000000000023b2e .LASF3524
C:\Users\CYMR90~1\AppData\Local\Temp\ccj5QhVO.s:32238  .debug_str:000000000002c849 .LASF3525
C:\Users\CYMR90~1\AppData\Local\Temp\ccj5QhVO.s:25095  .debug_str:000000000001008f .LASF3526
C:\Users\CYMR90~1\AppData\Local\Temp\ccj5QhVO.s:24597  .debug_str:000000000000e1ae .LASF3527
C:\Users\CYMR90~1\AppData\Local\Temp\ccj5QhVO.s:28740  .debug_str:000000000001ed18 .LASF3528
C:\Users\CYMR90~1\AppData\Local\Temp\ccj5QhVO.s:22225  .debug_str:000000000000484b .LASF3529
C:\Users\CYMR90~1\AppData\Local\Temp\ccj5QhVO.s:21527  .debug_str:0000000000001bf4 .LASF3530
C:\Users\CYMR90~1\AppData\Local\Temp\ccj5QhVO.s:23545  .debug_str:0000000000009c87 .LASF3531
C:\Users\CYMR90~1\AppData\Local\Temp\ccj5QhVO.s:29874  .debug_str:00000000000231f0 .LASF3532
C:\Users\CYMR90~1\AppData\Local\Temp\ccj5QhVO.s:25549  .debug_str:0000000000011e51 .LASF3533
C:\Users\CYMR90~1\AppData\Local\Temp\ccj5QhVO.s:26087  .debug_str:000000000001412c .LASF3534
C:\Users\CYMR90~1\AppData\Local\Temp\ccj5QhVO.s:23427  .debug_str:00000000000094ac .LASF3535
C:\Users\CYMR90~1\AppData\Local\Temp\ccj5QhVO.s:27736  .debug_str:000000000001acd7 .LASF3536
C:\Users\CYMR90~1\AppData\Local\Temp\ccj5QhVO.s:27318  .debug_str:000000000001904c .LASF3537
C:\Users\CYMR90~1\AppData\Local\Temp\ccj5QhVO.s:29196  .debug_str:0000000000020891 .LASF3538
C:\Users\CYMR90~1\AppData\Local\Temp\ccj5QhVO.s:27004  .debug_str:0000000000017ca1 .LASF3539
C:\Users\CYMR90~1\AppData\Local\Temp\ccj5QhVO.s:31190  .debug_str:0000000000028796 .LASF3540
C:\Users\CYMR90~1\AppData\Local\Temp\ccj5QhVO.s:24605  .debug_str:000000000000e22b .LASF3541
C:\Users\CYMR90~1\AppData\Local\Temp\ccj5QhVO.s:23099  .debug_str:0000000000007f8c .LASF3542
C:\Users\CYMR90~1\AppData\Local\Temp\ccj5QhVO.s:32174  .debug_str:000000000002c43d .LASF3543
C:\Users\CYMR90~1\AppData\Local\Temp\ccj5QhVO.s:26401  .debug_str:00000000000154de .LASF3544
C:\Users\CYMR90~1\AppData\Local\Temp\ccj5QhVO.s:28112  .debug_str:000000000001c458 .LASF3545
C:\Users\CYMR90~1\AppData\Local\Temp\ccj5QhVO.s:27546  .debug_str:0000000000019fa1 .LASF3546
C:\Users\CYMR90~1\AppData\Local\Temp\ccj5QhVO.s:30168  .debug_str:0000000000024411 .LASF3547
C:\Users\CYMR90~1\AppData\Local\Temp\ccj5QhVO.s:29398  .debug_str:0000000000021525 .LASF3548
C:\Users\CYMR90~1\AppData\Local\Temp\ccj5QhVO.s:23987  .debug_str:000000000000ba1a .LASF3549
C:\Users\CYMR90~1\AppData\Local\Temp\ccj5QhVO.s:27596  .debug_str:000000000001a293 .LASF3550
C:\Users\CYMR90~1\AppData\Local\Temp\ccj5QhVO.s:21089  .debug_str:00000000000000fa .LASF3551
C:\Users\CYMR90~1\AppData\Local\Temp\ccj5QhVO.s:25511  .debug_str:0000000000011b5f .LASF3552
C:\Users\CYMR90~1\AppData\Local\Temp\ccj5QhVO.s:29440  .debug_str:00000000000217c4 .LASF3553
C:\Users\CYMR90~1\AppData\Local\Temp\ccj5QhVO.s:29696  .debug_str:000000000002270d .LASF3554
C:\Users\CYMR90~1\AppData\Local\Temp\ccj5QhVO.s:26587  .debug_str:000000000001603f .LASF3555
C:\Users\CYMR90~1\AppData\Local\Temp\ccj5QhVO.s:31548  .debug_str:0000000000029d2d .LASF3556
C:\Users\CYMR90~1\AppData\Local\Temp\ccj5QhVO.s:24217  .debug_str:000000000000c961 .LASF3557
C:\Users\CYMR90~1\AppData\Local\Temp\ccj5QhVO.s:25695  .debug_str:000000000001279c .LASF3558
C:\Users\CYMR90~1\AppData\Local\Temp\ccj5QhVO.s:30002  .debug_str:00000000000239a4 .LASF3559
C:\Users\CYMR90~1\AppData\Local\Temp\ccj5QhVO.s:30434  .debug_str:0000000000025673 .LASF3560
C:\Users\CYMR90~1\AppData\Local\Temp\ccj5QhVO.s:25551  .debug_str:0000000000011e66 .LASF3561
C:\Users\CYMR90~1\AppData\Local\Temp\ccj5QhVO.s:25913  .debug_str:000000000001367e .LASF3562
C:\Users\CYMR90~1\AppData\Local\Temp\ccj5QhVO.s:21551  .debug_str:0000000000001d2b .LASF3563
C:\Users\CYMR90~1\AppData\Local\Temp\ccj5QhVO.s:22875  .debug_str:0000000000007046 .LASF3564
C:\Users\CYMR90~1\AppData\Local\Temp\ccj5QhVO.s:32000  .debug_str:000000000002b877 .LASF3565
C:\Users\CYMR90~1\AppData\Local\Temp\ccj5QhVO.s:26615  .debug_str:000000000001622d .LASF3566
C:\Users\CYMR90~1\AppData\Local\Temp\ccj5QhVO.s:27408  .debug_str:0000000000019682 .LASF3567
C:\Users\CYMR90~1\AppData\Local\Temp\ccj5QhVO.s:24107  .debug_str:000000000000c291 .LASF3568
C:\Users\CYMR90~1\AppData\Local\Temp\ccj5QhVO.s:25761  .debug_str:0000000000012c0d .LASF3569
C:\Users\CYMR90~1\AppData\Local\Temp\ccj5QhVO.s:21319  .debug_str:0000000000000f4a .LASF3570
C:\Users\CYMR90~1\AppData\Local\Temp\ccj5QhVO.s:27682  .debug_str:000000000001a91e .LASF3571
C:\Users\CYMR90~1\AppData\Local\Temp\ccj5QhVO.s:22149  .debug_str:0000000000004328 .LASF3572
C:\Users\CYMR90~1\AppData\Local\Temp\ccj5QhVO.s:27926  .debug_str:000000000001b8eb .LASF3573
C:\Users\CYMR90~1\AppData\Local\Temp\ccj5QhVO.s:22411  .debug_str:00000000000053f4 .LASF3574
C:\Users\CYMR90~1\AppData\Local\Temp\ccj5QhVO.s:23527  .debug_str:0000000000009b52 .LASF3575
C:\Users\CYMR90~1\AppData\Local\Temp\ccj5QhVO.s:22687  .debug_str:000000000000644e .LASF3576
C:\Users\CYMR90~1\AppData\Local\Temp\ccj5QhVO.s:28430  .debug_str:000000000001da05 .LASF3577
C:\Users\CYMR90~1\AppData\Local\Temp\ccj5QhVO.s:30918  .debug_str:000000000002758c .LASF3578
C:\Users\CYMR90~1\AppData\Local\Temp\ccj5QhVO.s:29632  .debug_str:000000000002235e .LASF3579
C:\Users\CYMR90~1\AppData\Local\Temp\ccj5QhVO.s:22731  .debug_str:00000000000066cf .LASF3580
C:\Users\CYMR90~1\AppData\Local\Temp\ccj5QhVO.s:31558  .debug_str:0000000000029dda .LASF3581
C:\Users\CYMR90~1\AppData\Local\Temp\ccj5QhVO.s:28892  .debug_str:000000000001f63c .LASF3582
C:\Users\CYMR90~1\AppData\Local\Temp\ccj5QhVO.s:24795  .debug_str:000000000000edfe .LASF3583
C:\Users\CYMR90~1\AppData\Local\Temp\ccj5QhVO.s:23803  .debug_str:000000000000ad8e .LASF3584
C:\Users\CYMR90~1\AppData\Local\Temp\ccj5QhVO.s:21179  .debug_str:000000000000061c .LASF3585
C:\Users\CYMR90~1\AppData\Local\Temp\ccj5QhVO.s:25039  .debug_str:000000000000fcfd .LASF3586
C:\Users\CYMR90~1\AppData\Local\Temp\ccj5QhVO.s:23995  .debug_str:000000000000ba91 .LASF3587
C:\Users\CYMR90~1\AppData\Local\Temp\ccj5QhVO.s:24749  .debug_str:000000000000eb5d .LASF3588
C:\Users\CYMR90~1\AppData\Local\Temp\ccj5QhVO.s:22913  .debug_str:0000000000007329 .LASF3589
C:\Users\CYMR90~1\AppData\Local\Temp\ccj5QhVO.s:30988  .debug_str:000000000002799a .LASF3590
C:\Users\CYMR90~1\AppData\Local\Temp\ccj5QhVO.s:28354  .debug_str:000000000001d4fb .LASF3591
C:\Users\CYMR90~1\AppData\Local\Temp\ccj5QhVO.s:25855  .debug_str:0000000000013231 .LASF3592
C:\Users\CYMR90~1\AppData\Local\Temp\ccj5QhVO.s:27940  .debug_str:000000000001b9e6 .LASF3593
C:\Users\CYMR90~1\AppData\Local\Temp\ccj5QhVO.s:31962  .debug_str:000000000002b623 .LASF3594
C:\Users\CYMR90~1\AppData\Local\Temp\ccj5QhVO.s:29390  .debug_str:0000000000021401 .LASF3595
C:\Users\CYMR90~1\AppData\Local\Temp\ccj5QhVO.s:31220  .debug_str:00000000000289d1 .LASF3596
C:\Users\CYMR90~1\AppData\Local\Temp\ccj5QhVO.s:24197  .debug_str:000000000000c82c .LASF3597
C:\Users\CYMR90~1\AppData\Local\Temp\ccj5QhVO.s:21635  .debug_str:00000000000021d1 .LASF3598
C:\Users\CYMR90~1\AppData\Local\Temp\ccj5QhVO.s:25157  .debug_str:000000000001042e .LASF3599
C:\Users\CYMR90~1\AppData\Local\Temp\ccj5QhVO.s:25077  .debug_str:000000000000ff5f .LASF3600
C:\Users\CYMR90~1\AppData\Local\Temp\ccj5QhVO.s:25295  .debug_str:0000000000010d5d .LASF3601
C:\Users\CYMR90~1\AppData\Local\Temp\ccj5QhVO.s:29612  .debug_str:000000000002222b .LASF3602
C:\Users\CYMR90~1\AppData\Local\Temp\ccj5QhVO.s:25979  .debug_str:0000000000013aa0 .LASF3603
C:\Users\CYMR90~1\AppData\Local\Temp\ccj5QhVO.s:23089  .debug_str:0000000000007ef7 .LASF3604
C:\Users\CYMR90~1\AppData\Local\Temp\ccj5QhVO.s:29850  .debug_str:000000000002309a .LASF3605
C:\Users\CYMR90~1\AppData\Local\Temp\ccj5QhVO.s:32002  .debug_str:000000000002b89b .LASF3606
C:\Users\CYMR90~1\AppData\Local\Temp\ccj5QhVO.s:31532  .debug_str:0000000000029c37 .LASF3607
C:\Users\CYMR90~1\AppData\Local\Temp\ccj5QhVO.s:28028  .debug_str:000000000001befc .LASF3608
C:\Users\CYMR90~1\AppData\Local\Temp\ccj5QhVO.s:22881  .debug_str:000000000000709c .LASF3609
C:\Users\CYMR90~1\AppData\Local\Temp\ccj5QhVO.s:22459  .debug_str:00000000000056ef .LASF3610
C:\Users\CYMR90~1\AppData\Local\Temp\ccj5QhVO.s:22967  .debug_str:0000000000007675 .LASF3611
C:\Users\CYMR90~1\AppData\Local\Temp\ccj5QhVO.s:21929  .debug_str:00000000000034e7 .LASF3612
C:\Users\CYMR90~1\AppData\Local\Temp\ccj5QhVO.s:30246  .debug_str:0000000000024937 .LASF3613
C:\Users\CYMR90~1\AppData\Local\Temp\ccj5QhVO.s:25105  .debug_str:0000000000010109 .LASF3614
C:\Users\CYMR90~1\AppData\Local\Temp\ccj5QhVO.s:23273  .debug_str:0000000000008b3b .LASF3615
C:\Users\CYMR90~1\AppData\Local\Temp\ccj5QhVO.s:23379  .debug_str:00000000000091f1 .LASF3616
C:\Users\CYMR90~1\AppData\Local\Temp\ccj5QhVO.s:29506  .debug_str:0000000000021b93 .LASF3617
C:\Users\CYMR90~1\AppData\Local\Temp\ccj5QhVO.s:31466  .debug_str:0000000000029877 .LASF3618
C:\Users\CYMR90~1\AppData\Local\Temp\ccj5QhVO.s:29756  .debug_str:0000000000022aca .LASF3619
C:\Users\CYMR90~1\AppData\Local\Temp\ccj5QhVO.s:31358  .debug_str:00000000000291fa .LASF3620
C:\Users\CYMR90~1\AppData\Local\Temp\ccj5QhVO.s:21211  .debug_str:0000000000000821 .LASF3621
C:\Users\CYMR90~1\AppData\Local\Temp\ccj5QhVO.s:29794  .debug_str:0000000000022d79 .LASF3622
C:\Users\CYMR90~1\AppData\Local\Temp\ccj5QhVO.s:26806  .debug_str:000000000001707f .LASF3623
C:\Users\CYMR90~1\AppData\Local\Temp\ccj5QhVO.s:23811  .debug_str:000000000000ae02 .LASF3624
C:\Users\CYMR90~1\AppData\Local\Temp\ccj5QhVO.s:24365  .debug_str:000000000000d366 .LASF3625
C:\Users\CYMR90~1\AppData\Local\Temp\ccj5QhVO.s:22865  .debug_str:0000000000006f97 .LASF3626
C:\Users\CYMR90~1\AppData\Local\Temp\ccj5QhVO.s:26419  .debug_str:00000000000155cb .LASF3627
C:\Users\CYMR90~1\AppData\Local\Temp\ccj5QhVO.s:24243  .debug_str:000000000000cbab .LASF3628
C:\Users\CYMR90~1\AppData\Local\Temp\ccj5QhVO.s:29870  .debug_str:00000000000231b1 .LASF3629
C:\Users\CYMR90~1\AppData\Local\Temp\ccj5QhVO.s:27836  .debug_str:000000000001b34c .LASF3630
C:\Users\CYMR90~1\AppData\Local\Temp\ccj5QhVO.s:29802  .debug_str:0000000000022df9 .LASF3631
C:\Users\CYMR90~1\AppData\Local\Temp\ccj5QhVO.s:26946  .debug_str:00000000000178c7 .LASF3632
C:\Users\CYMR90~1\AppData\Local\Temp\ccj5QhVO.s:24667  .debug_str:000000000000e5c7 .LASF3633
C:\Users\CYMR90~1\AppData\Local\Temp\ccj5QhVO.s:28860  .debug_str:000000000001f44c .LASF3634
C:\Users\CYMR90~1\AppData\Local\Temp\ccj5QhVO.s:23867  .debug_str:000000000000b249 .LASF3635
C:\Users\CYMR90~1\AppData\Local\Temp\ccj5QhVO.s:26133  .debug_str:0000000000014456 .LASF3636
C:\Users\CYMR90~1\AppData\Local\Temp\ccj5QhVO.s:27080  .debug_str:0000000000018121 .LASF3637
C:\Users\CYMR90~1\AppData\Local\Temp\ccj5QhVO.s:30804  .debug_str:0000000000026df5 .LASF3638
C:\Users\CYMR90~1\AppData\Local\Temp\ccj5QhVO.s:23655  .debug_str:000000000000a393 .LASF3639
C:\Users\CYMR90~1\AppData\Local\Temp\ccj5QhVO.s:22381  .debug_str:0000000000005228 .LASF3640
C:\Users\CYMR90~1\AppData\Local\Temp\ccj5QhVO.s:27376  .debug_str:0000000000019485 .LASF3641
C:\Users\CYMR90~1\AppData\Local\Temp\ccj5QhVO.s:23911  .debug_str:000000000000b4c3 .LASF3642
C:\Users\CYMR90~1\AppData\Local\Temp\ccj5QhVO.s:24637  .debug_str:000000000000e41e .LASF3643
C:\Users\CYMR90~1\AppData\Local\Temp\ccj5QhVO.s:32096  .debug_str:000000000002befd .LASF3644
C:\Users\CYMR90~1\AppData\Local\Temp\ccj5QhVO.s:31948  .debug_str:000000000002b525 .LASF3645
C:\Users\CYMR90~1\AppData\Local\Temp\ccj5QhVO.s:24503  .debug_str:000000000000dc2c .LASF3646
C:\Users\CYMR90~1\AppData\Local\Temp\ccj5QhVO.s:22469  .debug_str:000000000000577a .LASF3647
C:\Users\CYMR90~1\AppData\Local\Temp\ccj5QhVO.s:31586  .debug_str:0000000000029f6a .LASF3648
C:\Users\CYMR90~1\AppData\Local\Temp\ccj5QhVO.s:29312  .debug_str:0000000000020fa2 .LASF3649
C:\Users\CYMR90~1\AppData\Local\Temp\ccj5QhVO.s:29228  .debug_str:0000000000020a7d .LASF3650
C:\Users\CYMR90~1\AppData\Local\Temp\ccj5QhVO.s:26535  .debug_str:0000000000015c9a .LASF3651
C:\Users\CYMR90~1\AppData\Local\Temp\ccj5QhVO.s:22565  .debug_str:0000000000005d38 .LASF3652
C:\Users\CYMR90~1\AppData\Local\Temp\ccj5QhVO.s:26021  .debug_str:0000000000013d3e .LASF3653
C:\Users\CYMR90~1\AppData\Local\Temp\ccj5QhVO.s:29498  .debug_str:0000000000021b19 .LASF3654
C:\Users\CYMR90~1\AppData\Local\Temp\ccj5QhVO.s:30610  .debug_str:0000000000026281 .LASF3655
C:\Users\CYMR90~1\AppData\Local\Temp\ccj5QhVO.s:22297  .debug_str:0000000000004d3b .LASF3656
C:\Users\CYMR90~1\AppData\Local\Temp\ccj5QhVO.s:30092  .debug_str:0000000000023eec .LASF3657
C:\Users\CYMR90~1\AppData\Local\Temp\ccj5QhVO.s:29232  .debug_str:0000000000020acd .LASF3658
C:\Users\CYMR90~1\AppData\Local\Temp\ccj5QhVO.s:31742  .debug_str:000000000002a896 .LASF3659
C:\Users\CYMR90~1\AppData\Local\Temp\ccj5QhVO.s:24771  .debug_str:000000000000ecab .LASF3660
C:\Users\CYMR90~1\AppData\Local\Temp\ccj5QhVO.s:22483  .debug_str:0000000000005842 .LASF3661
C:\Users\CYMR90~1\AppData\Local\Temp\ccj5QhVO.s:21533  .debug_str:0000000000001c50 .LASF3662
C:\Users\CYMR90~1\AppData\Local\Temp\ccj5QhVO.s:29322  .debug_str:0000000000021035 .LASF3663
C:\Users\CYMR90~1\AppData\Local\Temp\ccj5QhVO.s:27180  .debug_str:000000000001871d .LASF3664
C:\Users\CYMR90~1\AppData\Local\Temp\ccj5QhVO.s:28270  .debug_str:000000000001ceb8 .LASF3665
C:\Users\CYMR90~1\AppData\Local\Temp\ccj5QhVO.s:31332  .debug_str:000000000002906f .LASF3666
C:\Users\CYMR90~1\AppData\Local\Temp\ccj5QhVO.s:29144  .debug_str:0000000000020523 .LASF3667
C:\Users\CYMR90~1\AppData\Local\Temp\ccj5QhVO.s:32266  .debug_str:000000000002ca54 .LASF3668
C:\Users\CYMR90~1\AppData\Local\Temp\ccj5QhVO.s:21969  .debug_str:0000000000003765 .LASF3669
C:\Users\CYMR90~1\AppData\Local\Temp\ccj5QhVO.s:30418  .debug_str:0000000000025573 .LASF3670
C:\Users\CYMR90~1\AppData\Local\Temp\ccj5QhVO.s:21339  .debug_str:0000000000001044 .LASF3671
C:\Users\CYMR90~1\AppData\Local\Temp\ccj5QhVO.s:28392  .debug_str:000000000001d76d .LASF3672
C:\Users\CYMR90~1\AppData\Local\Temp\ccj5QhVO.s:25889  .debug_str:0000000000013454 .LASF3673
C:\Users\CYMR90~1\AppData\Local\Temp\ccj5QhVO.s:32356  .debug_str:000000000002d03f .LASF3674
C:\Users\CYMR90~1\AppData\Local\Temp\ccj5QhVO.s:21769  .debug_str:0000000000002a61 .LASF3675
C:\Users\CYMR90~1\AppData\Local\Temp\ccj5QhVO.s:30862  .debug_str:0000000000027183 .LASF3676
C:\Users\CYMR90~1\AppData\Local\Temp\ccj5QhVO.s:25747  .debug_str:0000000000012b07 .LASF3677
C:\Users\CYMR90~1\AppData\Local\Temp\ccj5QhVO.s:29136  .debug_str:0000000000020469 .LASF3678
C:\Users\CYMR90~1\AppData\Local\Temp\ccj5QhVO.s:29276  .debug_str:0000000000020d7a .LASF3679
C:\Users\CYMR90~1\AppData\Local\Temp\ccj5QhVO.s:21297  .debug_str:0000000000000d80 .LASF3680
C:\Users\CYMR90~1\AppData\Local\Temp\ccj5QhVO.s:28494  .debug_str:000000000001ddcf .LASF3681
C:\Users\CYMR90~1\AppData\Local\Temp\ccj5QhVO.s:21393  .debug_str:0000000000001338 .LASF3682
C:\Users\CYMR90~1\AppData\Local\Temp\ccj5QhVO.s:31120  .debug_str:0000000000028284 .LASF3683
C:\Users\CYMR90~1\AppData\Local\Temp\ccj5QhVO.s:25651  .debug_str:00000000000124bd .LASF3684
C:\Users\CYMR90~1\AppData\Local\Temp\ccj5QhVO.s:28636  .debug_str:000000000001e6d9 .LASF3685
C:\Users\CYMR90~1\AppData\Local\Temp\ccj5QhVO.s:27544  .debug_str:0000000000019f71 .LASF3686
C:\Users\CYMR90~1\AppData\Local\Temp\ccj5QhVO.s:26307  .debug_str:0000000000014ec9 .LASF3687
C:\Users\CYMR90~1\AppData\Local\Temp\ccj5QhVO.s:25127  .debug_str:000000000001027b .LASF3688
C:\Users\CYMR90~1\AppData\Local\Temp\ccj5QhVO.s:31990  .debug_str:000000000002b7cc .LASF3689
C:\Users\CYMR90~1\AppData\Local\Temp\ccj5QhVO.s:30330  .debug_str:0000000000024ed1 .LASF3690
C:\Users\CYMR90~1\AppData\Local\Temp\ccj5QhVO.s:21513  .debug_str:0000000000001aec .LASF3691
C:\Users\CYMR90~1\AppData\Local\Temp\ccj5QhVO.s:31110  .debug_str:0000000000028186 .LASF3692
C:\Users\CYMR90~1\AppData\Local\Temp\ccj5QhVO.s:31350  .debug_str:0000000000029161 .LASF3693
C:\Users\CYMR90~1\AppData\Local\Temp\ccj5QhVO.s:24323  .debug_str:000000000000d05e .LASF3694
C:\Users\CYMR90~1\AppData\Local\Temp\ccj5QhVO.s:32212  .debug_str:000000000002c6d2 .LASF3695
C:\Users\CYMR90~1\AppData\Local\Temp\ccj5QhVO.s:23757  .debug_str:000000000000aa8c .LASF3696
C:\Users\CYMR90~1\AppData\Local\Temp\ccj5QhVO.s:30346  .debug_str:0000000000024fe6 .LASF3697
C:\Users\CYMR90~1\AppData\Local\Temp\ccj5QhVO.s:23611  .debug_str:000000000000a0b6 .LASF3698
C:\Users\CYMR90~1\AppData\Local\Temp\ccj5QhVO.s:29382  .debug_str:0000000000021375 .LASF3699
C:\Users\CYMR90~1\AppData\Local\Temp\ccj5QhVO.s:21805  .debug_str:0000000000002cc8 .LASF3700
C:\Users\CYMR90~1\AppData\Local\Temp\ccj5QhVO.s:27562  .debug_str:000000000001a095 .LASF3701
C:\Users\CYMR90~1\AppData\Local\Temp\ccj5QhVO.s:24421  .debug_str:000000000000d776 .LASF3702
C:\Users\CYMR90~1\AppData\Local\Temp\ccj5QhVO.s:22519  .debug_str:0000000000005a82 .LASF3703
C:\Users\CYMR90~1\AppData\Local\Temp\ccj5QhVO.s:31026  .debug_str:0000000000027bc6 .LASF3704
C:\Users\CYMR90~1\AppData\Local\Temp\ccj5QhVO.s:24897  .debug_str:000000000000f400 .LASF3705
C:\Users\CYMR90~1\AppData\Local\Temp\ccj5QhVO.s:24103  .debug_str:000000000000c22f .LASF3706
C:\Users\CYMR90~1\AppData\Local\Temp\ccj5QhVO.s:29980  .debug_str:000000000002382d .LASF3707
C:\Users\CYMR90~1\AppData\Local\Temp\ccj5QhVO.s:21243  .debug_str:0000000000000a08 .LASF3708
C:\Users\CYMR90~1\AppData\Local\Temp\ccj5QhVO.s:25547  .debug_str:0000000000011e1f .LASF3709
C:\Users\CYMR90~1\AppData\Local\Temp\ccj5QhVO.s:29798  .debug_str:0000000000022db5 .LASF3710
C:\Users\CYMR90~1\AppData\Local\Temp\ccj5QhVO.s:22669  .debug_str:0000000000006326 .LASF3711
C:\Users\CYMR90~1\AppData\Local\Temp\ccj5QhVO.s:24031  .debug_str:000000000000bceb .LASF3712
C:\Users\CYMR90~1\AppData\Local\Temp\ccj5QhVO.s:25115  .debug_str:00000000000101b2 .LASF3713
C:\Users\CYMR90~1\AppData\Local\Temp\ccj5QhVO.s:29358  .debug_str:0000000000021207 .LASF3714
C:\Users\CYMR90~1\AppData\Local\Temp\ccj5QhVO.s:22307  .debug_str:0000000000004de5 .LASF3715
C:\Users\CYMR90~1\AppData\Local\Temp\ccj5QhVO.s:26515  .debug_str:0000000000015b54 .LASF3716
C:\Users\CYMR90~1\AppData\Local\Temp\ccj5QhVO.s:30822  .debug_str:0000000000026f05 .LASF3717
C:\Users\CYMR90~1\AppData\Local\Temp\ccj5QhVO.s:23799  .debug_str:000000000000ad42 .LASF3718
C:\Users\CYMR90~1\AppData\Local\Temp\ccj5QhVO.s:26109  .debug_str:0000000000014265 .LASF3719
C:\Users\CYMR90~1\AppData\Local\Temp\ccj5QhVO.s:28522  .debug_str:000000000001dffc .LASF3720
C:\Users\CYMR90~1\AppData\Local\Temp\ccj5QhVO.s:24303  .debug_str:000000000000cf08 .LASF3721
C:\Users\CYMR90~1\AppData\Local\Temp\ccj5QhVO.s:29544  .debug_str:0000000000021e35 .LASF3722
C:\Users\CYMR90~1\AppData\Local\Temp\ccj5QhVO.s:22517  .debug_str:0000000000005a50 .LASF3723
C:\Users\CYMR90~1\AppData\Local\Temp\ccj5QhVO.s:31946  .debug_str:000000000002b4f3 .LASF3724
C:\Users\CYMR90~1\AppData\Local\Temp\ccj5QhVO.s:24891  .debug_str:000000000000f37d .LASF3725
C:\Users\CYMR90~1\AppData\Local\Temp\ccj5QhVO.s:29048  .debug_str:000000000001ff67 .LASF3726
C:\Users\CYMR90~1\AppData\Local\Temp\ccj5QhVO.s:22013  .debug_str:0000000000003a58 .LASF3727
C:\Users\CYMR90~1\AppData\Local\Temp\ccj5QhVO.s:24969  .debug_str:000000000000f8dc .LASF3728
C:\Users\CYMR90~1\AppData\Local\Temp\ccj5QhVO.s:30600  .debug_str:00000000000261d9 .LASF3729
C:\Users\CYMR90~1\AppData\Local\Temp\ccj5QhVO.s:23495  .debug_str:0000000000009954 .LASF3730
C:\Users\CYMR90~1\AppData\Local\Temp\ccj5QhVO.s:27792  .debug_str:000000000001b02d .LASF3731
C:\Users\CYMR90~1\AppData\Local\Temp\ccj5QhVO.s:22117  .debug_str:00000000000040bc .LASF3732
C:\Users\CYMR90~1\AppData\Local\Temp\ccj5QhVO.s:30166  .debug_str:00000000000243df .LASF3733
C:\Users\CYMR90~1\AppData\Local\Temp\ccj5QhVO.s:23141  .debug_str:00000000000082f0 .LASF3734
C:\Users\CYMR90~1\AppData\Local\Temp\ccj5QhVO.s:24739  .debug_str:000000000000ea89 .LASF3735
C:\Users\CYMR90~1\AppData\Local\Temp\ccj5QhVO.s:31622  .debug_str:000000000002a155 .LASF3736
C:\Users\CYMR90~1\AppData\Local\Temp\ccj5QhVO.s:22965  .debug_str:0000000000007643 .LASF3737
C:\Users\CYMR90~1\AppData\Local\Temp\ccj5QhVO.s:28920  .debug_str:000000000001f7a5 .LASF3738
C:\Users\CYMR90~1\AppData\Local\Temp\ccj5QhVO.s:21729  .debug_str:00000000000027c7 .LASF3739
C:\Users\CYMR90~1\AppData\Local\Temp\ccj5QhVO.s:27114  .debug_str:0000000000018323 .LASF3740
C:\Users\CYMR90~1\AppData\Local\Temp\ccj5QhVO.s:30296  .debug_str:0000000000024caf .LASF3741
C:\Users\CYMR90~1\AppData\Local\Temp\ccj5QhVO.s:23149  .debug_str:000000000000836d .LASF3742
C:\Users\CYMR90~1\AppData\Local\Temp\ccj5QhVO.s:30566  .debug_str:0000000000025f87 .LASF3743
C:\Users\CYMR90~1\AppData\Local\Temp\ccj5QhVO.s:25693  .debug_str:000000000001276a .LASF3744
C:\Users\CYMR90~1\AppData\Local\Temp\ccj5QhVO.s:29856  .debug_str:00000000000230f5 .LASF3745
C:\Users\CYMR90~1\AppData\Local\Temp\ccj5QhVO.s:22817  .debug_str:0000000000006c4f .LASF3746
C:\Users\CYMR90~1\AppData\Local\Temp\ccj5QhVO.s:25737  .debug_str:0000000000012a47 .LASF3747
C:\Users\CYMR90~1\AppData\Local\Temp\ccj5QhVO.s:29050  .debug_str:000000000001ff99 .LASF3748
C:\Users\CYMR90~1\AppData\Local\Temp\ccj5QhVO.s:25657  .debug_str:000000000001254a .LASF3749
C:\Users\CYMR90~1\AppData\Local\Temp\ccj5QhVO.s:30602  .debug_str:000000000002620b .LASF3750
C:\Users\CYMR90~1\AppData\Local\Temp\ccj5QhVO.s:22001  .debug_str:0000000000003971 .LASF3751
C:\Users\CYMR90~1\AppData\Local\Temp\ccj5QhVO.s:24259  .debug_str:000000000000cca3 .LASF3752
C:\Users\CYMR90~1\AppData\Local\Temp\ccj5QhVO.s:26683  .debug_str:0000000000016611 .LASF3753
C:\Users\CYMR90~1\AppData\Local\Temp\ccj5QhVO.s:26601  .debug_str:000000000001614d .LASF3754
C:\Users\CYMR90~1\AppData\Local\Temp\ccj5QhVO.s:26531  .debug_str:0000000000015c49 .LASF3755
C:\Users\CYMR90~1\AppData\Local\Temp\ccj5QhVO.s:26958  .debug_str:0000000000017981 .LASF3756
C:\Users\CYMR90~1\AppData\Local\Temp\ccj5QhVO.s:23985  .debug_str:000000000000b9f8 .LASF3757
C:\Users\CYMR90~1\AppData\Local\Temp\ccj5QhVO.s:26315  .debug_str:0000000000014f52 .LASF3758
C:\Users\CYMR90~1\AppData\Local\Temp\ccj5QhVO.s:29256  .debug_str:0000000000020c24 .LASF3759
C:\Users\CYMR90~1\AppData\Local\Temp\ccj5QhVO.s:26339  .debug_str:0000000000015107 .LASF3760
C:\Users\CYMR90~1\AppData\Local\Temp\ccj5QhVO.s:23353  .debug_str:000000000000906f .LASF3761
C:\Users\CYMR90~1\AppData\Local\Temp\ccj5QhVO.s:27400  .debug_str:00000000000195f8 .LASF3762
C:\Users\CYMR90~1\AppData\Local\Temp\ccj5QhVO.s:25395  .debug_str:0000000000011369 .LASF3763
C:\Users\CYMR90~1\AppData\Local\Temp\ccj5QhVO.s:23065  .debug_str:0000000000007cd5 .LASF3764
C:\Users\CYMR90~1\AppData\Local\Temp\ccj5QhVO.s:21405  .debug_str:000000000000140e .LASF3765
C:\Users\CYMR90~1\AppData\Local\Temp\ccj5QhVO.s:25035  .debug_str:000000000000fcb7 .LASF3766
C:\Users\CYMR90~1\AppData\Local\Temp\ccj5QhVO.s:25973  .debug_str:0000000000013a5f .LASF3767
C:\Users\CYMR90~1\AppData\Local\Temp\ccj5QhVO.s:22437  .debug_str:000000000000558a .LASF3768
C:\Users\CYMR90~1\AppData\Local\Temp\ccj5QhVO.s:27212  .debug_str:000000000001891c .LASF3769
C:\Users\CYMR90~1\AppData\Local\Temp\ccj5QhVO.s:26992  .debug_str:0000000000017bfb .LASF3770
C:\Users\CYMR90~1\AppData\Local\Temp\ccj5QhVO.s:23621  .debug_str:000000000000a18a .LASF3771
C:\Users\CYMR90~1\AppData\Local\Temp\ccj5QhVO.s:25071  .debug_str:000000000000fef1 .LASF3772
C:\Users\CYMR90~1\AppData\Local\Temp\ccj5QhVO.s:26924  .debug_str:000000000001776f .LASF3773
C:\Users\CYMR90~1\AppData\Local\Temp\ccj5QhVO.s:26377  .debug_str:000000000001534c .LASF3774
C:\Users\CYMR90~1\AppData\Local\Temp\ccj5QhVO.s:25775  .debug_str:0000000000012d18 .LASF3775
C:\Users\CYMR90~1\AppData\Local\Temp\ccj5QhVO.s:28106  .debug_str:000000000001c401 .LASF3776
C:\Users\CYMR90~1\AppData\Local\Temp\ccj5QhVO.s:24687  .debug_str:000000000000e763 .LASF3777
C:\Users\CYMR90~1\AppData\Local\Temp\ccj5QhVO.s:21281  .debug_str:0000000000000ca4 .LASF3778
C:\Users\CYMR90~1\AppData\Local\Temp\ccj5QhVO.s:31356  .debug_str:00000000000291d6 .LASF3779
C:\Users\CYMR90~1\AppData\Local\Temp\ccj5QhVO.s:25839  .debug_str:0000000000013116 .LASF3780
C:\Users\CYMR90~1\AppData\Local\Temp\ccj5QhVO.s:28446  .debug_str:000000000001db02 .LASF3781
C:\Users\CYMR90~1\AppData\Local\Temp\ccj5QhVO.s:21671  .debug_str:00000000000023fd .LASF3782
C:\Users\CYMR90~1\AppData\Local\Temp\ccj5QhVO.s:21579  .debug_str:0000000000001ee9 .LASF3783
C:\Users\CYMR90~1\AppData\Local\Temp\ccj5QhVO.s:30412  .debug_str:0000000000025512 .LASF3784
C:\Users\CYMR90~1\AppData\Local\Temp\ccj5QhVO.s:30186  .debug_str:0000000000024579 .LASF3785
C:\Users\CYMR90~1\AppData\Local\Temp\ccj5QhVO.s:26800  .debug_str:000000000001702c .LASF3786
C:\Users\CYMR90~1\AppData\Local\Temp\ccj5QhVO.s:26115  .debug_str:0000000000014302 .LASF3787
C:\Users\CYMR90~1\AppData\Local\Temp\ccj5QhVO.s:31344  .debug_str:000000000002911c .LASF3788
C:\Users\CYMR90~1\AppData\Local\Temp\ccj5QhVO.s:27936  .debug_str:000000000001b985 .LASF3789
C:\Users\CYMR90~1\AppData\Local\Temp\ccj5QhVO.s:21807  .debug_str:0000000000002cfa .LASF3790
C:\Users\CYMR90~1\AppData\Local\Temp\ccj5QhVO.s:31726  .debug_str:000000000002a78f .LASF3791
C:\Users\CYMR90~1\AppData\Local\Temp\ccj5QhVO.s:28488  .debug_str:000000000001dd69 .LASF3792
C:\Users\CYMR90~1\AppData\Local\Temp\ccj5QhVO.s:23783  .debug_str:000000000000ac34 .LASF3793
C:\Users\CYMR90~1\AppData\Local\Temp\ccj5QhVO.s:22305  .debug_str:0000000000004dc1 .LASF3794
C:\Users\CYMR90~1\AppData\Local\Temp\ccj5QhVO.s:32248  .debug_str:000000000002c909 .LASF3795
C:\Users\CYMR90~1\AppData\Local\Temp\ccj5QhVO.s:25531  .debug_str:0000000000011d1b .LASF3796
C:\Users\CYMR90~1\AppData\Local\Temp\ccj5QhVO.s:22091  .debug_str:0000000000003f5d .LASF3797
C:\Users\CYMR90~1\AppData\Local\Temp\ccj5QhVO.s:30048  .debug_str:0000000000023c73 .LASF3798
C:\Users\CYMR90~1\AppData\Local\Temp\ccj5QhVO.s:26633  .debug_str:0000000000016340 .LASF3799
C:\Users\CYMR90~1\AppData\Local\Temp\ccj5QhVO.s:25085  .debug_str:0000000000010004 .LASF3800
C:\Users\CYMR90~1\AppData\Local\Temp\ccj5QhVO.s:31200  .debug_str:0000000000028843 .LASF3801
C:\Users\CYMR90~1\AppData\Local\Temp\ccj5QhVO.s:29190  .debug_str:0000000000020845 .LASF3802
C:\Users\CYMR90~1\AppData\Local\Temp\ccj5QhVO.s:23107  .debug_str:0000000000008027 .LASF3803
C:\Users\CYMR90~1\AppData\Local\Temp\ccj5QhVO.s:31040  .debug_str:0000000000027cf1 .LASF3804
C:\Users\CYMR90~1\AppData\Local\Temp\ccj5QhVO.s:27660  .debug_str:000000000001a7a1 .LASF3805
C:\Users\CYMR90~1\AppData\Local\Temp\ccj5QhVO.s:24275  .debug_str:000000000000cdac .LASF3806
C:\Users\CYMR90~1\AppData\Local\Temp\ccj5QhVO.s:32192  .debug_str:000000000002c5bc .LASF3807
C:\Users\CYMR90~1\AppData\Local\Temp\ccj5QhVO.s:22203  .debug_str:00000000000046b9 .LASF3808
C:\Users\CYMR90~1\AppData\Local\Temp\ccj5QhVO.s:25399  .debug_str:00000000000113a4 .LASF3809
C:\Users\CYMR90~1\AppData\Local\Temp\ccj5QhVO.s:28288  .debug_str:000000000001d05d .LASF3810
C:\Users\CYMR90~1\AppData\Local\Temp\ccj5QhVO.s:29902  .debug_str:000000000002333b .LASF3811
C:\Users\CYMR90~1\AppData\Local\Temp\ccj5QhVO.s:31276  .debug_str:0000000000028d2b .LASF3812
C:\Users\CYMR90~1\AppData\Local\Temp\ccj5QhVO.s:21811  .debug_str:0000000000002d53 .LASF3813
C:\Users\CYMR90~1\AppData\Local\Temp\ccj5QhVO.s:27876  .debug_str:000000000001b5d6 .LASF3814
C:\Users\CYMR90~1\AppData\Local\Temp\ccj5QhVO.s:26347  .debug_str:0000000000015183 .LASF3815
C:\Users\CYMR90~1\AppData\Local\Temp\ccj5QhVO.s:22959  .debug_str:00000000000075e6 .LASF3816
C:\Users\CYMR90~1\AppData\Local\Temp\ccj5QhVO.s:23085  .debug_str:0000000000007e94 .LASF3817
C:\Users\CYMR90~1\AppData\Local\Temp\ccj5QhVO.s:29984  .debug_str:000000000002386d .LASF3818
C:\Users\CYMR90~1\AppData\Local\Temp\ccj5QhVO.s:24123  .debug_str:000000000000c389 .LASF3819
C:\Users\CYMR90~1\AppData\Local\Temp\ccj5QhVO.s:32058  .debug_str:000000000002bc61 .LASF3820
C:\Users\CYMR90~1\AppData\Local\Temp\ccj5QhVO.s:21721  .debug_str:0000000000002728 .LASF3821
C:\Users\CYMR90~1\AppData\Local\Temp\ccj5QhVO.s:30070  .debug_str:0000000000023dba .LASF3822
C:\Users\CYMR90~1\AppData\Local\Temp\ccj5QhVO.s:31996  .debug_str:000000000002b834 .LASF3823
C:\Users\CYMR90~1\AppData\Local\Temp\ccj5QhVO.s:28448  .debug_str:000000000001db26 .LASF3824
C:\Users\CYMR90~1\AppData\Local\Temp\ccj5QhVO.s:25109  .debug_str:000000000001014e .LASF3825
C:\Users\CYMR90~1\AppData\Local\Temp\ccj5QhVO.s:21517  .debug_str:0000000000001b40 .LASF3826
C:\Users\CYMR90~1\AppData\Local\Temp\ccj5QhVO.s:29594  .debug_str:0000000000022114 .LASF3827
C:\Users\CYMR90~1\AppData\Local\Temp\ccj5QhVO.s:26217  .debug_str:0000000000014932 .LASF3828
C:\Users\CYMR90~1\AppData\Local\Temp\ccj5QhVO.s:24901  .debug_str:000000000000f44a .LASF3829
C:\Users\CYMR90~1\AppData\Local\Temp\ccj5QhVO.s:27482  .debug_str:0000000000019bbf .LASF3830
C:\Users\CYMR90~1\AppData\Local\Temp\ccj5QhVO.s:27366  .debug_str:00000000000193f5 .LASF3831
C:\Users\CYMR90~1\AppData\Local\Temp\ccj5QhVO.s:28752  .debug_str:000000000001edc0 .LASF3832
C:\Users\CYMR90~1\AppData\Local\Temp\ccj5QhVO.s:30680  .debug_str:00000000000266a6 .LASF3833
C:\Users\CYMR90~1\AppData\Local\Temp\ccj5QhVO.s:24865  .debug_str:000000000000f1d9 .LASF3834
C:\Users\CYMR90~1\AppData\Local\Temp\ccj5QhVO.s:23431  .debug_str:00000000000094ed .LASF3835
C:\Users\CYMR90~1\AppData\Local\Temp\ccj5QhVO.s:23491  .debug_str:000000000000990e .LASF3836
C:\Users\CYMR90~1\AppData\Local\Temp\ccj5QhVO.s:28326  .debug_str:000000000001d376 .LASF3837
C:\Users\CYMR90~1\AppData\Local\Temp\ccj5QhVO.s:29536  .debug_str:0000000000021dab .LASF3838
C:\Users\CYMR90~1\AppData\Local\Temp\ccj5QhVO.s:21525  .debug_str:0000000000001bd0 .LASF3839
C:\Users\CYMR90~1\AppData\Local\Temp\ccj5QhVO.s:29454  .debug_str:0000000000021895 .LASF3840
C:\Users\CYMR90~1\AppData\Local\Temp\ccj5QhVO.s:26071  .debug_str:000000000001402b .LASF3841
C:\Users\CYMR90~1\AppData\Local\Temp\ccj5QhVO.s:31738  .debug_str:000000000002a857 .LASF3842
C:\Users\CYMR90~1\AppData\Local\Temp\ccj5QhVO.s:29392  .debug_str:0000000000021425 .LASF3843
C:\Users\CYMR90~1\AppData\Local\Temp\ccj5QhVO.s:26017  .debug_str:0000000000013d03 .LASF3844
C:\Users\CYMR90~1\AppData\Local\Temp\ccj5QhVO.s:30698  .debug_str:00000000000267bb .LASF3845
C:\Users\CYMR90~1\AppData\Local\Temp\ccj5QhVO.s:30534  .debug_str:0000000000025de0 .LASF3846
C:\Users\CYMR90~1\AppData\Local\Temp\ccj5QhVO.s:27138  .debug_str:000000000001849e .LASF3847
C:\Users\CYMR90~1\AppData\Local\Temp\ccj5QhVO.s:32304  .debug_str:000000000002ccc2 .LASF3848
C:\Users\CYMR90~1\AppData\Local\Temp\ccj5QhVO.s:31694  .debug_str:000000000002a564 .LASF3849
C:\Users\CYMR90~1\AppData\Local\Temp\ccj5QhVO.s:29600  .debug_str:0000000000022181 .LASF3850
C:\Users\CYMR90~1\AppData\Local\Temp\ccj5QhVO.s:28464  .debug_str:000000000001dc1e .LASF3851
C:\Users\CYMR90~1\AppData\Local\Temp\ccj5QhVO.s:22867  .debug_str:0000000000006fd8 .LASF3852
C:\Users\CYMR90~1\AppData\Local\Temp\ccj5QhVO.s:23017  .debug_str:00000000000079af .LASF3853
C:\Users\CYMR90~1\AppData\Local\Temp\ccj5QhVO.s:27022  .debug_str:0000000000017dab .LASF3854
C:\Users\CYMR90~1\AppData\Local\Temp\ccj5QhVO.s:30982  .debug_str:0000000000027939 .LASF3855
C:\Users\CYMR90~1\AppData\Local\Temp\ccj5QhVO.s:29746  .debug_str:0000000000022a2f .LASF3856
C:\Users\CYMR90~1\AppData\Local\Temp\ccj5QhVO.s:32126  .debug_str:000000000002c13d .LASF3857
C:\Users\CYMR90~1\AppData\Local\Temp\ccj5QhVO.s:23123  .debug_str:00000000000081c7 .LASF3858
C:\Users\CYMR90~1\AppData\Local\Temp\ccj5QhVO.s:25463  .debug_str:00000000000117a0 .LASF3859
C:\Users\CYMR90~1\AppData\Local\Temp\ccj5QhVO.s:27988  .debug_str:000000000001bc59 .LASF3860
C:\Users\CYMR90~1\AppData\Local\Temp\ccj5QhVO.s:32048  .debug_str:000000000002bbde .LASF3861
C:\Users\CYMR90~1\AppData\Local\Temp\ccj5QhVO.s:26159  .debug_str:00000000000145b5 .LASF3862
C:\Users\CYMR90~1\AppData\Local\Temp\ccj5QhVO.s:28582  .debug_str:000000000001e3a9 .LASF3863
C:\Users\CYMR90~1\AppData\Local\Temp\ccj5QhVO.s:30910  .debug_str:0000000000027501 .LASF3864
C:\Users\CYMR90~1\AppData\Local\Temp\ccj5QhVO.s:21951  .debug_str:000000000000363f .LASF3865
C:\Users\CYMR90~1\AppData\Local\Temp\ccj5QhVO.s:24321  .debug_str:000000000000d038 .LASF3866
C:\Users\CYMR90~1\AppData\Local\Temp\ccj5QhVO.s:21865  .debug_str:000000000000307e .LASF3867
C:\Users\CYMR90~1\AppData\Local\Temp\ccj5QhVO.s:28926  .debug_str:000000000001f809 .LASF3868
C:\Users\CYMR90~1\AppData\Local\Temp\ccj5QhVO.s:31310  .debug_str:0000000000028edd .LASF3869
C:\Users\CYMR90~1\AppData\Local\Temp\ccj5QhVO.s:25793  .debug_str:0000000000012e00 .LASF3870
C:\Users\CYMR90~1\AppData\Local\Temp\ccj5QhVO.s:24581  .debug_str:000000000000e0db .LASF3871
C:\Users\CYMR90~1\AppData\Local\Temp\ccj5QhVO.s:21617  .debug_str:00000000000020d6 .LASF3872
C:\Users\CYMR90~1\AppData\Local\Temp\ccj5QhVO.s:23147  .debug_str:0000000000008347 .LASF3873
C:\Users\CYMR90~1\AppData\Local\Temp\ccj5QhVO.s:25493  .debug_str:0000000000011a5c .LASF3874
C:\Users\CYMR90~1\AppData\Local\Temp\ccj5QhVO.s:28230  .debug_str:000000000001cc19 .LASF3875
C:\Users\CYMR90~1\AppData\Local\Temp\ccj5QhVO.s:25453  .debug_str:00000000000116e7 .LASF3876
C:\Users\CYMR90~1\AppData\Local\Temp\ccj5QhVO.s:21163  .debug_str:0000000000000547 .LASF3877
C:\Users\CYMR90~1\AppData\Local\Temp\ccj5QhVO.s:27870  .debug_str:000000000001b57a .LASF3878
C:\Users\CYMR90~1\AppData\Local\Temp\ccj5QhVO.s:26699  .debug_str:000000000001677a .LASF3879
C:\Users\CYMR90~1\AppData\Local\Temp\ccj5QhVO.s:24511  .debug_str:000000000000dc92 .LASF3880
C:\Users\CYMR90~1\AppData\Local\Temp\ccj5QhVO.s:23523  .debug_str:0000000000009b1b .LASF3881
C:\Users\CYMR90~1\AppData\Local\Temp\ccj5QhVO.s:27432  .debug_str:00000000000197d2 .LASF3882
C:\Users\CYMR90~1\AppData\Local\Temp\ccj5QhVO.s:23399  .debug_str:000000000000931f .LASF3883
C:\Users\CYMR90~1\AppData\Local\Temp\ccj5QhVO.s:27328  .debug_str:00000000000190f7 .LASF3884
C:\Users\CYMR90~1\AppData\Local\Temp\ccj5QhVO.s:31268  .debug_str:0000000000028cc2 .LASF3885
C:\Users\CYMR90~1\AppData\Local\Temp\ccj5QhVO.s:26279  .debug_str:0000000000014cc7 .LASF3886
C:\Users\CYMR90~1\AppData\Local\Temp\ccj5QhVO.s:27828  .debug_str:000000000001b2bc .LASF3887
C:\Users\CYMR90~1\AppData\Local\Temp\ccj5QhVO.s:31846  .debug_str:000000000002aedb .LASF3888
C:\Users\CYMR90~1\AppData\Local\Temp\ccj5QhVO.s:24451  .debug_str:000000000000d932 .LASF3889
C:\Users\CYMR90~1\AppData\Local\Temp\ccj5QhVO.s:23579  .debug_str:0000000000009e85 .LASF3890
C:\Users\CYMR90~1\AppData\Local\Temp\ccj5QhVO.s:25927  .debug_str:000000000001376f .LASF3891
C:\Users\CYMR90~1\AppData\Local\Temp\ccj5QhVO.s:29346  .debug_str:0000000000021185 .LASF3892
C:\Users\CYMR90~1\AppData\Local\Temp\ccj5QhVO.s:27258  .debug_str:0000000000018bd9 .LASF3893
C:\Users\CYMR90~1\AppData\Local\Temp\ccj5QhVO.s:28416  .debug_str:000000000001d927 .LASF3894
C:\Users\CYMR90~1\AppData\Local\Temp\ccj5QhVO.s:23817  .debug_str:000000000000ae5a .LASF3895
C:\Users\CYMR90~1\AppData\Local\Temp\ccj5QhVO.s:27762  .debug_str:000000000001ae60 .LASF3896
C:\Users\CYMR90~1\AppData\Local\Temp\ccj5QhVO.s:31772  .debug_str:000000000002aa6a .LASF3897
C:\Users\CYMR90~1\AppData\Local\Temp\ccj5QhVO.s:27078  .debug_str:00000000000180fb .LASF3898
C:\Users\CYMR90~1\AppData\Local\Temp\ccj5QhVO.s:25893  .debug_str:00000000000134dd .LASF3899
C:\Users\CYMR90~1\AppData\Local\Temp\ccj5QhVO.s:32250  .debug_str:000000000002c92d .LASF3900
C:\Users\CYMR90~1\AppData\Local\Temp\ccj5QhVO.s:25461  .debug_str:000000000001177a .LASF3901
C:\Users\CYMR90~1\AppData\Local\Temp\ccj5QhVO.s:21899  .debug_str:00000000000032d3 .LASF3902
C:\Users\CYMR90~1\AppData\Local\Temp\ccj5QhVO.s:31136  .debug_str:0000000000028389 .LASF3903
C:\Users\CYMR90~1\AppData\Local\Temp\ccj5QhVO.s:31714  .debug_str:000000000002a6e4 .LASF3904
C:\Users\CYMR90~1\AppData\Local\Temp\ccj5QhVO.s:22693  .debug_str:000000000000649e .LASF3905
C:\Users\CYMR90~1\AppData\Local\Temp\ccj5QhVO.s:31704  .debug_str:000000000002a60d .LASF3906
C:\Users\CYMR90~1\AppData\Local\Temp\ccj5QhVO.s:24325  .debug_str:000000000000d090 .LASF3907
C:\Users\CYMR90~1\AppData\Local\Temp\ccj5QhVO.s:28224  .debug_str:000000000001cbc7 .LASF3908
C:\Users\CYMR90~1\AppData\Local\Temp\ccj5QhVO.s:32188  .debug_str:000000000002c56f .LASF3909
C:\Users\CYMR90~1\AppData\Local\Temp\ccj5QhVO.s:23125  .debug_str:00000000000081ed .LASF3910
C:\Users\CYMR90~1\AppData\Local\Temp\ccj5QhVO.s:26269  .debug_str:0000000000014c46 .LASF3911
C:\Users\CYMR90~1\AppData\Local\Temp\ccj5QhVO.s:25807  .debug_str:0000000000012f07 .LASF3912
C:\Users\CYMR90~1\AppData\Local\Temp\ccj5QhVO.s:23687  .debug_str:000000000000a5bf .LASF3913
C:\Users\CYMR90~1\AppData\Local\Temp\ccj5QhVO.s:27614  .debug_str:000000000001a390 .LASF3914
C:\Users\CYMR90~1\AppData\Local\Temp\ccj5QhVO.s:25117  .debug_str:00000000000101e4 .LASF3915
C:\Users\CYMR90~1\AppData\Local\Temp\ccj5QhVO.s:28000  .debug_str:000000000001bd41 .LASF3916
C:\Users\CYMR90~1\AppData\Local\Temp\ccj5QhVO.s:28154  .debug_str:000000000001c69e .LASF3917
C:\Users\CYMR90~1\AppData\Local\Temp\ccj5QhVO.s:29456  .debug_str:00000000000218b9 .LASF3918
C:\Users\CYMR90~1\AppData\Local\Temp\ccj5QhVO.s:24721  .debug_str:000000000000e983 .LASF3919
C:\Users\CYMR90~1\AppData\Local\Temp\ccj5QhVO.s:28608  .debug_str:000000000001e50f .LASF3920
C:\Users\CYMR90~1\AppData\Local\Temp\ccj5QhVO.s:21255  .debug_str:0000000000000b19 .LASF3921
C:\Users\CYMR90~1\AppData\Local\Temp\ccj5QhVO.s:28160  .debug_str:000000000001c6fc .LASF3922
C:\Users\CYMR90~1\AppData\Local\Temp\ccj5QhVO.s:29720  .debug_str:00000000000228b1 .LASF3923
C:\Users\CYMR90~1\AppData\Local\Temp\ccj5QhVO.s:31570  .debug_str:0000000000029e7f .LASF3924
C:\Users\CYMR90~1\AppData\Local\Temp\ccj5QhVO.s:24193  .debug_str:000000000000c7ea .LASF3925
C:\Users\CYMR90~1\AppData\Local\Temp\ccj5QhVO.s:22697  .debug_str:00000000000064dd .LASF3926
C:\Users\CYMR90~1\AppData\Local\Temp\ccj5QhVO.s:32062  .debug_str:000000000002bc9d .LASF3927
C:\Users\CYMR90~1\AppData\Local\Temp\ccj5QhVO.s:28634  .debug_str:000000000001e6b3 .LASF3928
C:\Users\CYMR90~1\AppData\Local\Temp\ccj5QhVO.s:23011  .debug_str:0000000000007948 .LASF3929
C:\Users\CYMR90~1\AppData\Local\Temp\ccj5QhVO.s:21193  .debug_str:000000000000071b .LASF3930
C:\Users\CYMR90~1\AppData\Local\Temp\ccj5QhVO.s:32236  .debug_str:000000000002c823 .LASF3931
C:\Users\CYMR90~1\AppData\Local\Temp\ccj5QhVO.s:22171  .debug_str:000000000000449d .LASF3932
C:\Users\CYMR90~1\AppData\Local\Temp\ccj5QhVO.s:31506  .debug_str:0000000000029ab0 .LASF3933
C:\Users\CYMR90~1\AppData\Local\Temp\ccj5QhVO.s:27490  .debug_str:0000000000019c3b .LASF3934
C:\Users\CYMR90~1\AppData\Local\Temp\ccj5QhVO.s:29810  .debug_str:0000000000022e57 .LASF3935
C:\Users\CYMR90~1\AppData\Local\Temp\ccj5QhVO.s:32010  .debug_str:000000000002b91d .LASF3936
C:\Users\CYMR90~1\AppData\Local\Temp\ccj5QhVO.s:24601  .debug_str:000000000000e1d9 .LASF3937
C:\Users\CYMR90~1\AppData\Local\Temp\ccj5QhVO.s:22461  .debug_str:0000000000005711 .LASF3938
C:\Users\CYMR90~1\AppData\Local\Temp\ccj5QhVO.s:21123  .debug_str:0000000000000315 .LASF3939
C:\Users\CYMR90~1\AppData\Local\Temp\ccj5QhVO.s:25673  .debug_str:0000000000012647 .LASF3940
C:\Users\CYMR90~1\AppData\Local\Temp\ccj5QhVO.s:22041  .debug_str:0000000000003bf1 .LASF3941
C:\Users\CYMR90~1\AppData\Local\Temp\ccj5QhVO.s:26147  .debug_str:0000000000014502 .LASF3942
C:\Users\CYMR90~1\AppData\Local\Temp\ccj5QhVO.s:24061  .debug_str:000000000000bf7f .LASF3943
C:\Users\CYMR90~1\AppData\Local\Temp\ccj5QhVO.s:21407  .debug_str:0000000000001432 .LASF3944
C:\Users\CYMR90~1\AppData\Local\Temp\ccj5QhVO.s:24375  .debug_str:000000000000d41a .LASF3945
C:\Users\CYMR90~1\AppData\Local\Temp\ccj5QhVO.s:28806  .debug_str:000000000001f0f1 .LASF3946
C:\Users\CYMR90~1\AppData\Local\Temp\ccj5QhVO.s:30160  .debug_str:000000000002438b .LASF3947
C:\Users\CYMR90~1\AppData\Local\Temp\ccj5QhVO.s:32392  .debug_str:000000000002d257 .LASF3948
C:\Users\CYMR90~1\AppData\Local\Temp\ccj5QhVO.s:21401  .debug_str:00000000000013d6 .LASF3949
C:\Users\CYMR90~1\AppData\Local\Temp\ccj5QhVO.s:25599  .debug_str:0000000000012145 .LASF3950
C:\Users\CYMR90~1\AppData\Local\Temp\ccj5QhVO.s:27922  .debug_str:000000000001b8ad .LASF3951
C:\Users\CYMR90~1\AppData\Local\Temp\ccj5QhVO.s:30588  .debug_str:00000000000260dd .LASF3952
C:\Users\CYMR90~1\AppData\Local\Temp\ccj5QhVO.s:26317  .debug_str:0000000000014f74 .LASF3953
C:\Users\CYMR90~1\AppData\Local\Temp\ccj5QhVO.s:29532  .debug_str:0000000000021d6b .LASF3954
C:\Users\CYMR90~1\AppData\Local\Temp\ccj5QhVO.s:21857  .debug_str:0000000000003009 .LASF3955
C:\Users\CYMR90~1\AppData\Local\Temp\ccj5QhVO.s:23187  .debug_str:00000000000085e1 .LASF3956
C:\Users\CYMR90~1\AppData\Local\Temp\ccj5QhVO.s:27108  .debug_str:00000000000182c6 .LASF3957
C:\Users\CYMR90~1\AppData\Local\Temp\ccj5QhVO.s:31060  .debug_str:0000000000027e48 .LASF3958
C:\Users\CYMR90~1\AppData\Local\Temp\ccj5QhVO.s:31052  .debug_str:0000000000027dbe .LASF3959
C:\Users\CYMR90~1\AppData\Local\Temp\ccj5QhVO.s:32252  .debug_str:000000000002c953 .LASF3960
C:\Users\CYMR90~1\AppData\Local\Temp\ccj5QhVO.s:31626  .debug_str:000000000002a19e .LASF3961
C:\Users\CYMR90~1\AppData\Local\Temp\ccj5QhVO.s:27314  .debug_str:0000000000019019 .LASF3962
C:\Users\CYMR90~1\AppData\Local\Temp\ccj5QhVO.s:21735  .debug_str:000000000000284c .LASF3963
C:\Users\CYMR90~1\AppData\Local\Temp\ccj5QhVO.s:30498  .debug_str:0000000000025b95 .LASF3964
C:\Users\CYMR90~1\AppData\Local\Temp\ccj5QhVO.s:23129  .debug_str:0000000000008229 .LASF3965
C:\Users\CYMR90~1\AppData\Local\Temp\ccj5QhVO.s:27036  .debug_str:0000000000017e7b .LASF3966
C:\Users\CYMR90~1\AppData\Local\Temp\ccj5QhVO.s:31838  .debug_str:000000000002ae40 .LASF3967
C:\Users\CYMR90~1\AppData\Local\Temp\ccj5QhVO.s:22065  .debug_str:0000000000003d95 .LASF3968
C:\Users\CYMR90~1\AppData\Local\Temp\ccj5QhVO.s:27532  .debug_str:0000000000019ef2 .LASF3969
C:\Users\CYMR90~1\AppData\Local\Temp\ccj5QhVO.s:31566  .debug_str:0000000000029e42 .LASF3970
C:\Users\CYMR90~1\AppData\Local\Temp\ccj5QhVO.s:29974  .debug_str:00000000000237d2 .LASF3971
C:\Users\CYMR90~1\AppData\Local\Temp\ccj5QhVO.s:29022  .debug_str:000000000001fde3 .LASF3972
C:\Users\CYMR90~1\AppData\Local\Temp\ccj5QhVO.s:30326  .debug_str:0000000000024e98 .LASF3973
C:\Users\CYMR90~1\AppData\Local\Temp\ccj5QhVO.s:23055  .debug_str:0000000000007c40 .LASF3974
C:\Users\CYMR90~1\AppData\Local\Temp\ccj5QhVO.s:26978  .debug_str:0000000000017b03 .LASF3975
C:\Users\CYMR90~1\AppData\Local\Temp\ccj5QhVO.s:23279  .debug_str:0000000000008bad .LASF3976
C:\Users\CYMR90~1\AppData\Local\Temp\ccj5QhVO.s:27706  .debug_str:000000000001aaef .LASF3977
C:\Users\CYMR90~1\AppData\Local\Temp\ccj5QhVO.s:27942  .debug_str:000000000001ba0a .LASF3978
C:\Users\CYMR90~1\AppData\Local\Temp\ccj5QhVO.s:31496  .debug_str:0000000000029a26 .LASF3979
C:\Users\CYMR90~1\AppData\Local\Temp\ccj5QhVO.s:24117  .debug_str:000000000000c32b .LASF3980
C:\Users\CYMR90~1\AppData\Local\Temp\ccj5QhVO.s:24525  .debug_str:000000000000dd39 .LASF3981
C:\Users\CYMR90~1\AppData\Local\Temp\ccj5QhVO.s:24981  .debug_str:000000000000f99f .LASF3982
C:\Users\CYMR90~1\AppData\Local\Temp\ccj5QhVO.s:22987  .debug_str:00000000000077ba .LASF3983
C:\Users\CYMR90~1\AppData\Local\Temp\ccj5QhVO.s:26916  .debug_str:00000000000176f2 .LASF3984
C:\Users\CYMR90~1\AppData\Local\Temp\ccj5QhVO.s:29954  .debug_str:000000000002364a .LASF3985
C:\Users\CYMR90~1\AppData\Local\Temp\ccj5QhVO.s:29076  .debug_str:0000000000020131 .LASF3986
C:\Users\CYMR90~1\AppData\Local\Temp\ccj5QhVO.s:32310  .debug_str:000000000002cd1a .LASF3987
C:\Users\CYMR90~1\AppData\Local\Temp\ccj5QhVO.s:31436  .debug_str:00000000000296ac .LASF3988
C:\Users\CYMR90~1\AppData\Local\Temp\ccj5QhVO.s:24055  .debug_str:000000000000bf06 .LASF3989
C:\Users\CYMR90~1\AppData\Local\Temp\ccj5QhVO.s:28016  .debug_str:000000000001be3d .LASF3990
C:\Users\CYMR90~1\AppData\Local\Temp\ccj5QhVO.s:30348  .debug_str:0000000000025018 .LASF3991
C:\Users\CYMR90~1\AppData\Local\Temp\ccj5QhVO.s:26379  .debug_str:0000000000015370 .LASF3992
C:\Users\CYMR90~1\AppData\Local\Temp\ccj5QhVO.s:26860  .debug_str:0000000000017398 .LASF3993
C:\Users\CYMR90~1\AppData\Local\Temp\ccj5QhVO.s:28768  .debug_str:000000000001eeb9 .LASF3994
C:\Users\CYMR90~1\AppData\Local\Temp\ccj5QhVO.s:21307  .debug_str:0000000000000e0e .LASF3995
C:\Users\CYMR90~1\AppData\Local\Temp\ccj5QhVO.s:27344  .debug_str:00000000000192c0 .LASF3996
C:\Users\CYMR90~1\AppData\Local\Temp\ccj5QhVO.s:26866  .debug_str:0000000000017404 .LASF3997
C:\Users\CYMR90~1\AppData\Local\Temp\ccj5QhVO.s:23115  .debug_str:0000000000008131 .LASF3998
C:\Users\CYMR90~1\AppData\Local\Temp\ccj5QhVO.s:31546  .debug_str:0000000000029d07 .LASF3999
C:\Users\CYMR90~1\AppData\Local\Temp\ccj5QhVO.s:31858  .debug_str:000000000002af84 .LASF4000
C:\Users\CYMR90~1\AppData\Local\Temp\ccj5QhVO.s:24895  .debug_str:000000000000f3da .LASF4001
C:\Users\CYMR90~1\AppData\Local\Temp\ccj5QhVO.s:32260  .debug_str:000000000002c9e4 .LASF4002
C:\Users\CYMR90~1\AppData\Local\Temp\ccj5QhVO.s:30724  .debug_str:0000000000026959 .LASF4003
C:\Users\CYMR90~1\AppData\Local\Temp\ccj5QhVO.s:23347  .debug_str:000000000000900a .LASF4004
C:\Users\CYMR90~1\AppData\Local\Temp\ccj5QhVO.s:27276  .debug_str:0000000000018dbf .LASF4005
C:\Users\CYMR90~1\AppData\Local\Temp\ccj5QhVO.s:30374  .debug_str:00000000000251b5 .LASF4006
C:\Users\CYMR90~1\AppData\Local\Temp\ccj5QhVO.s:30200  .debug_str:000000000002466a .LASF4007
C:\Users\CYMR90~1\AppData\Local\Temp\ccj5QhVO.s:27854  .debug_str:000000000001b482 .LASF4008
C:\Users\CYMR90~1\AppData\Local\Temp\ccj5QhVO.s:31786  .debug_str:000000000002ab18 .LASF4009
C:\Users\CYMR90~1\AppData\Local\Temp\ccj5QhVO.s:24403  .debug_str:000000000000d62c .LASF4010
C:\Users\CYMR90~1\AppData\Local\Temp\ccj5QhVO.s:30726  .debug_str:000000000002697f .LASF4011
C:\Users\CYMR90~1\AppData\Local\Temp\ccj5QhVO.s:26761  .debug_str:0000000000016b85 .LASF4012
C:\Users\CYMR90~1\AppData\Local\Temp\ccj5QhVO.s:23283  .debug_str:0000000000008be7 .LASF4013
C:\Users\CYMR90~1\AppData\Local\Temp\ccj5QhVO.s:27200  .debug_str:000000000001884b .LASF4014
C:\Users\CYMR90~1\AppData\Local\Temp\ccj5QhVO.s:25255  .debug_str:0000000000010a86 .LASF4015
C:\Users\CYMR90~1\AppData\Local\Temp\ccj5QhVO.s:23857  .debug_str:000000000000b1b0 .LASF4016
C:\Users\CYMR90~1\AppData\Local\Temp\ccj5QhVO.s:27236  .debug_str:0000000000018a9a .LASF4017
C:\Users\CYMR90~1\AppData\Local\Temp\ccj5QhVO.s:27452  .debug_str:0000000000019973 .LASF4018
C:\Users\CYMR90~1\AppData\Local\Temp\ccj5QhVO.s:31940  .debug_str:000000000002b487 .LASF4019
C:\Users\CYMR90~1\AppData\Local\Temp\ccj5QhVO.s:22909  .debug_str:00000000000072e8 .LASF4020
C:\Users\CYMR90~1\AppData\Local\Temp\ccj5QhVO.s:32202  .debug_str:000000000002c640 .LASF4021
C:\Users\CYMR90~1\AppData\Local\Temp\ccj5QhVO.s:29238  .debug_str:0000000000020b30 .LASF4022
C:\Users\CYMR90~1\AppData\Local\Temp\ccj5QhVO.s:22851  .debug_str:0000000000006ec1 .LASF4023
C:\Users\CYMR90~1\AppData\Local\Temp\ccj5QhVO.s:31172  .debug_str:000000000002864b .LASF4024
C:\Users\CYMR90~1\AppData\Local\Temp\ccj5QhVO.s:23787  .debug_str:000000000000ac7e .LASF4025
C:\Users\CYMR90~1\AppData\Local\Temp\ccj5QhVO.s:22451  .debug_str:0000000000005639 .LASF4026
C:\Users\CYMR90~1\AppData\Local\Temp\ccj5QhVO.s:23225  .debug_str:0000000000008823 .LASF4027
C:\Users\CYMR90~1\AppData\Local\Temp\ccj5QhVO.s:24283  .debug_str:000000000000ce26 .LASF4028
C:\Users\CYMR90~1\AppData\Local\Temp\ccj5QhVO.s:28174  .debug_str:000000000001c7d0 .LASF4029
C:\Users\CYMR90~1\AppData\Local\Temp\ccj5QhVO.s:32136  .debug_str:000000000002c1b7 .LASF4030
C:\Users\CYMR90~1\AppData\Local\Temp\ccj5QhVO.s:24835  .debug_str:000000000000f025 .LASF4031
C:\Users\CYMR90~1\AppData\Local\Temp\ccj5QhVO.s:28962  .debug_str:000000000001fa26 .LASF4032
C:\Users\CYMR90~1\AppData\Local\Temp\ccj5QhVO.s:29580  .debug_str:000000000002205f .LASF4033
C:\Users\CYMR90~1\AppData\Local\Temp\ccj5QhVO.s:31968  .debug_str:000000000002b68d .LASF4034
C:\Users\CYMR90~1\AppData\Local\Temp\ccj5QhVO.s:27666  .debug_str:000000000001a7f6 .LASF4035
C:\Users\CYMR90~1\AppData\Local\Temp\ccj5QhVO.s:30304  .debug_str:0000000000024d50 .LASF4036
C:\Users\CYMR90~1\AppData\Local\Temp\ccj5QhVO.s:27634  .debug_str:000000000001a672 .LASF4037
C:\Users\CYMR90~1\AppData\Local\Temp\ccj5QhVO.s:28100  .debug_str:000000000001c3ad .LASF4038
C:\Users\CYMR90~1\AppData\Local\Temp\ccj5QhVO.s:21199  .debug_str:0000000000000772 .LASF4039
C:\Users\CYMR90~1\AppData\Local\Temp\ccj5QhVO.s:24207  .debug_str:000000000000c8b3 .LASF4040
C:\Users\CYMR90~1\AppData\Local\Temp\ccj5QhVO.s:22161  .debug_str:00000000000043f3 .LASF4041
C:\Users\CYMR90~1\AppData\Local\Temp\ccj5QhVO.s:22523  .debug_str:0000000000005af0 .LASF4042
C:\Users\CYMR90~1\AppData\Local\Temp\ccj5QhVO.s:23657  .debug_str:000000000000a3b5 .LASF4043
C:\Users\CYMR90~1\AppData\Local\Temp\ccj5QhVO.s:27578  .debug_str:000000000001a192 .LASF4044
C:\Users\CYMR90~1\AppData\Local\Temp\ccj5QhVO.s:31518  .debug_str:0000000000029b6d .LASF4045
C:\Users\CYMR90~1\AppData\Local\Temp\ccj5QhVO.s:24141  .debug_str:000000000000c4a6 .LASF4046
C:\Users\CYMR90~1\AppData\Local\Temp\ccj5QhVO.s:28044  .debug_str:000000000001c022 .LASF4047
C:\Users\CYMR90~1\AppData\Local\Temp\ccj5QhVO.s:28282  .debug_str:000000000001d00c .LASF4048
C:\Users\CYMR90~1\AppData\Local\Temp\ccj5QhVO.s:27726  .debug_str:000000000001ac49 .LASF4049
C:\Users\CYMR90~1\AppData\Local\Temp\ccj5QhVO.s:28578  .debug_str:000000000001e373 .LASF4050
C:\Users\CYMR90~1\AppData\Local\Temp\ccj5QhVO.s:32204  .debug_str:000000000002c666 .LASF4051
C:\Users\CYMR90~1\AppData\Local\Temp\ccj5QhVO.s:23745  .debug_str:000000000000a9fb .LASF4052
C:\Users\CYMR90~1\AppData\Local\Temp\ccj5QhVO.s:22195  .debug_str:0000000000004636 .LASF4053
C:\Users\CYMR90~1\AppData\Local\Temp\ccj5QhVO.s:26239  .debug_str:0000000000014a77 .LASF4054
C:\Users\CYMR90~1\AppData\Local\Temp\ccj5QhVO.s:30176  .debug_str:00000000000244ac .LASF4055
C:\Users\CYMR90~1\AppData\Local\Temp\ccj5QhVO.s:22777  .debug_str:00000000000069e5 .LASF4056
C:\Users\CYMR90~1\AppData\Local\Temp\ccj5QhVO.s:29660  .debug_str:00000000000224fb .LASF4057
C:\Users\CYMR90~1\AppData\Local\Temp\ccj5QhVO.s:32044  .debug_str:000000000002bb7d .LASF4058
C:\Users\CYMR90~1\AppData\Local\Temp\ccj5QhVO.s:22761  .debug_str:00000000000068da .LASF4059
C:\Users\CYMR90~1\AppData\Local\Temp\ccj5QhVO.s:27194  .debug_str:00000000000187ff .LASF4060
C:\Users\CYMR90~1\AppData\Local\Temp\ccj5QhVO.s:31234  .debug_str:0000000000028ab2 .LASF4061
C:\Users\CYMR90~1\AppData\Local\Temp\ccj5QhVO.s:28202  .debug_str:000000000001ca4a .LASF4062
C:\Users\CYMR90~1\AppData\Local\Temp\ccj5QhVO.s:26183  .debug_str:00000000000146de .LASF4063
C:\Users\CYMR90~1\AppData\Local\Temp\ccj5QhVO.s:30258  .debug_str:00000000000249f5 .LASF4064
C:\Users\CYMR90~1\AppData\Local\Temp\ccj5QhVO.s:30858  .debug_str:0000000000027149 .LASF4065
C:\Users\CYMR90~1\AppData\Local\Temp\ccj5QhVO.s:28380  .debug_str:000000000001d6ae .LASF4066
C:\Users\CYMR90~1\AppData\Local\Temp\ccj5QhVO.s:29116  .debug_str:000000000002035d .LASF4067
C:\Users\CYMR90~1\AppData\Local\Temp\ccj5QhVO.s:25237  .debug_str:000000000001097c .LASF4068
C:\Users\CYMR90~1\AppData\Local\Temp\ccj5QhVO.s:28820  .debug_str:000000000001f1dd .LASF4069
C:\Users\CYMR90~1\AppData\Local\Temp\ccj5QhVO.s:23583  .debug_str:0000000000009ec4 .LASF4070
C:\Users\CYMR90~1\AppData\Local\Temp\ccj5QhVO.s:23105  .debug_str:0000000000008001 .LASF4071
C:\Users\CYMR90~1\AppData\Local\Temp\ccj5QhVO.s:32184  .debug_str:000000000002c530 .LASF4072
C:\Users\CYMR90~1\AppData\Local\Temp\ccj5QhVO.s:32064  .debug_str:000000000002bcc3 .LASF4073
C:\Users\CYMR90~1\AppData\Local\Temp\ccj5QhVO.s:23451  .debug_str:0000000000009668 .LASF4074
C:\Users\CYMR90~1\AppData\Local\Temp\ccj5QhVO.s:26573  .debug_str:0000000000015f41 .LASF4075
C:\Users\CYMR90~1\AppData\Local\Temp\ccj5QhVO.s:30516  .debug_str:0000000000025cba .LASF4076
C:\Users\CYMR90~1\AppData\Local\Temp\ccj5QhVO.s:25667  .debug_str:00000000000125ec .LASF4077
C:\Users\CYMR90~1\AppData\Local\Temp\ccj5QhVO.s:25711  .debug_str:00000000000128a3 .LASF4078
C:\Users\CYMR90~1\AppData\Local\Temp\ccj5QhVO.s:24309  .debug_str:000000000000cf6e .LASF4079
C:\Users\CYMR90~1\AppData\Local\Temp\ccj5QhVO.s:23717  .debug_str:000000000000a742 .LASF4080
C:\Users\CYMR90~1\AppData\Local\Temp\ccj5QhVO.s:27656  .debug_str:000000000001a763 .LASF4081
C:\Users\CYMR90~1\AppData\Local\Temp\ccj5QhVO.s:24717  .debug_str:000000000000e94d .LASF4082
C:\Users\CYMR90~1\AppData\Local\Temp\ccj5QhVO.s:22563  .debug_str:0000000000005d12 .LASF4083
C:\Users\CYMR90~1\AppData\Local\Temp\ccj5QhVO.s:28850  .debug_str:000000000001f3bf .LASF4084
C:\Users\CYMR90~1\AppData\Local\Temp\ccj5QhVO.s:30450  .debug_str:00000000000257b1 .LASF4085
C:\Users\CYMR90~1\AppData\Local\Temp\ccj5QhVO.s:30238  .debug_str:00000000000248bc .LASF4086
C:\Users\CYMR90~1\AppData\Local\Temp\ccj5QhVO.s:22125  .debug_str:00000000000041de .LASF4087
C:\Users\CYMR90~1\AppData\Local\Temp\ccj5QhVO.s:27826  .debug_str:000000000001b296 .LASF4088
C:\Users\CYMR90~1\AppData\Local\Temp\ccj5QhVO.s:25325  .debug_str:0000000000010f70 .LASF4089
C:\Users\CYMR90~1\AppData\Local\Temp\ccj5QhVO.s:27570  .debug_str:000000000001a11b .LASF4090
C:\Users\CYMR90~1\AppData\Local\Temp\ccj5QhVO.s:31512  .debug_str:0000000000029b03 .LASF4091
C:\Users\CYMR90~1\AppData\Local\Temp\ccj5QhVO.s:30840  .debug_str:000000000002704a .LASF4092
C:\Users\CYMR90~1\AppData\Local\Temp\ccj5QhVO.s:26449  .debug_str:0000000000015774 .LASF4093
C:\Users\CYMR90~1\AppData\Local\Temp\ccj5QhVO.s:32146  .debug_str:000000000002c284 .LASF4094
C:\Users\CYMR90~1\AppData\Local\Temp\ccj5QhVO.s:22999  .debug_str:000000000000788c .LASF4095
C:\Users\CYMR90~1\AppData\Local\Temp\ccj5QhVO.s:30398  .debug_str:0000000000025396 .LASF4096
C:\Users\CYMR90~1\AppData\Local\Temp\ccj5QhVO.s:32384  .debug_str:000000000002d1d3 .LASF4097
C:\Users\CYMR90~1\AppData\Local\Temp\ccj5QhVO.s:22291  .debug_str:0000000000004ce0 .LASF4098
C:\Users\CYMR90~1\AppData\Local\Temp\ccj5QhVO.s:27506  .debug_str:0000000000019d4b .LASF4099
C:\Users\CYMR90~1\AppData\Local\Temp\ccj5QhVO.s:26980  .debug_str:0000000000017b29 .LASF4100
C:\Users\CYMR90~1\AppData\Local\Temp\ccj5QhVO.s:24067  .debug_str:000000000000bfdd .LASF4101
C:\Users\CYMR90~1\AppData\Local\Temp\ccj5QhVO.s:25387  .debug_str:00000000000112e5 .LASF4102
C:\Users\CYMR90~1\AppData\Local\Temp\ccj5QhVO.s:23553  .debug_str:0000000000009cfd .LASF4103
C:\Users\CYMR90~1\AppData\Local\Temp\ccj5QhVO.s:30606  .debug_str:0000000000026248 .LASF4104
C:\Users\CYMR90~1\AppData\Local\Temp\ccj5QhVO.s:26950  .debug_str:0000000000017906 .LASF4105
C:\Users\CYMR90~1\AppData\Local\Temp\ccj5QhVO.s:27444  .debug_str:00000000000198c9 .LASF4106
C:\Users\CYMR90~1\AppData\Local\Temp\ccj5QhVO.s:28162  .debug_str:000000000001c722 .LASF4107
C:\Users\CYMR90~1\AppData\Local\Temp\ccj5QhVO.s:27448  .debug_str:0000000000019928 .LASF4108
C:\Users\CYMR90~1\AppData\Local\Temp\ccj5QhVO.s:31390  .debug_str:00000000000293f3 .LASF4109
C:\Users\CYMR90~1\AppData\Local\Temp\ccj5QhVO.s:21501  .debug_str:0000000000001a34 .LASF4110
C:\Users\CYMR90~1\AppData\Local\Temp\ccj5QhVO.s:23871  .debug_str:000000000000b2a2 .LASF4111
C:\Users\CYMR90~1\AppData\Local\Temp\ccj5QhVO.s:25011  .debug_str:000000000000fb35 .LASF4112
C:\Users\CYMR90~1\AppData\Local\Temp\ccj5QhVO.s:22861  .debug_str:0000000000006f4a .LASF4113
C:\Users\CYMR90~1\AppData\Local\Temp\ccj5QhVO.s:26894  .debug_str:000000000001759e .LASF4114
C:\Users\CYMR90~1\AppData\Local\Temp\ccj5QhVO.s:30832  .debug_str:0000000000026fd2 .LASF4115
C:\Users\CYMR90~1\AppData\Local\Temp\ccj5QhVO.s:29330  .debug_str:00000000000210a4 .LASF4116
C:\Users\CYMR90~1\AppData\Local\Temp\ccj5QhVO.s:27380  .debug_str:00000000000194c2 .LASF4117
C:\Users\CYMR90~1\AppData\Local\Temp\ccj5QhVO.s:22679  .debug_str:00000000000063e4 .LASF4118
C:\Users\CYMR90~1\AppData\Local\Temp\ccj5QhVO.s:23935  .debug_str:000000000000b6b3 .LASF4119
C:\Users\CYMR90~1\AppData\Local\Temp\ccj5QhVO.s:27372  .debug_str:000000000001944c .LASF4120
C:\Users\CYMR90~1\AppData\Local\Temp\ccj5QhVO.s:25559  .debug_str:0000000000011eb1 .LASF4121
C:\Users\CYMR90~1\AppData\Local\Temp\ccj5QhVO.s:22595  .debug_str:0000000000005ed4 .LASF4122
C:\Users\CYMR90~1\AppData\Local\Temp\ccj5QhVO.s:26834  .debug_str:0000000000017231 .LASF4123
C:\Users\CYMR90~1\AppData\Local\Temp\ccj5QhVO.s:30760  .debug_str:0000000000026b73 .LASF4124
C:\Users\CYMR90~1\AppData\Local\Temp\ccj5QhVO.s:23385  .debug_str:000000000000923a .LASF4125
C:\Users\CYMR90~1\AppData\Local\Temp\ccj5QhVO.s:21465  .debug_str:0000000000001803 .LASF4126
C:\Users\CYMR90~1\AppData\Local\Temp\ccj5QhVO.s:27484  .debug_str:0000000000019be3 .LASF4127
C:\Users\CYMR90~1\AppData\Local\Temp\ccj5QhVO.s:28514  .debug_str:000000000001df84 .LASF4128
C:\Users\CYMR90~1\AppData\Local\Temp\ccj5QhVO.s:27816  .debug_str:000000000001b1fd .LASF4129
C:\Users\CYMR90~1\AppData\Local\Temp\ccj5QhVO.s:31732  .debug_str:000000000002a802 .LASF4130
C:\Users\CYMR90~1\AppData\Local\Temp\ccj5QhVO.s:24441  .debug_str:000000000000d8bc .LASF4131
C:\Users\CYMR90~1\AppData\Local\Temp\ccj5QhVO.s:21469  .debug_str:000000000000184f .LASF4132
C:\Users\CYMR90~1\AppData\Local\Temp\ccj5QhVO.s:30696  .debug_str:0000000000026795 .LASF4133
C:\Users\CYMR90~1\AppData\Local\Temp\ccj5QhVO.s:25083  .debug_str:000000000000ffde .LASF4134
C:\Users\CYMR90~1\AppData\Local\Temp\ccj5QhVO.s:27550  .debug_str:0000000000019fe4 .LASF4135
C:\Users\CYMR90~1\AppData\Local\Temp\ccj5QhVO.s:29714  .debug_str:0000000000022833 .LASF4136
C:\Users\CYMR90~1\AppData\Local\Temp\ccj5QhVO.s:32092  .debug_str:000000000002be90 .LASF4137
C:\Users\CYMR90~1\AppData\Local\Temp\ccj5QhVO.s:27752  .debug_str:000000000001adc2 .LASF4138
C:\Users\CYMR90~1\AppData\Local\Temp\ccj5QhVO.s:31672  .debug_str:000000000002a3fb .LASF4139
C:\Users\CYMR90~1\AppData\Local\Temp\ccj5QhVO.s:28594  .debug_str:000000000001e448 .LASF4140
C:\Users\CYMR90~1\AppData\Local\Temp\ccj5QhVO.s:25027  .debug_str:000000000000fc22 .LASF4141
C:\Users\CYMR90~1\AppData\Local\Temp\ccj5QhVO.s:25373  .debug_str:0000000000011205 .LASF4142
C:\Users\CYMR90~1\AppData\Local\Temp\ccj5QhVO.s:23253  .debug_str:0000000000008a17 .LASF4143
C:\Users\CYMR90~1\AppData\Local\Temp\ccj5QhVO.s:27166  .debug_str:0000000000018669 .LASF4144
C:\Users\CYMR90~1\AppData\Local\Temp\ccj5QhVO.s:28314  .debug_str:000000000001d294 .LASF4145
C:\Users\CYMR90~1\AppData\Local\Temp\ccj5QhVO.s:25351  .debug_str:00000000000110ac .LASF4146
C:\Users\CYMR90~1\AppData\Local\Temp\ccj5QhVO.s:27680  .debug_str:000000000001a8f8 .LASF4147
C:\Users\CYMR90~1\AppData\Local\Temp\ccj5QhVO.s:26065  .debug_str:0000000000013fc7 .LASF4148
C:\Users\CYMR90~1\AppData\Local\Temp\ccj5QhVO.s:28638  .debug_str:000000000001e709 .LASF4149
C:\Users\CYMR90~1\AppData\Local\Temp\ccj5QhVO.s:29394  .debug_str:0000000000021449 .LASF4150
C:\Users\CYMR90~1\AppData\Local\Temp\ccj5QhVO.s:25505  .debug_str:0000000000011b08 .LASF4151
C:\Users\CYMR90~1\AppData\Local\Temp\ccj5QhVO.s:23785  .debug_str:000000000000ac58 .LASF4152
C:\Users\CYMR90~1\AppData\Local\Temp\ccj5QhVO.s:21903  .debug_str:0000000000003311 .LASF4153
C:\Users\CYMR90~1\AppData\Local\Temp\ccj5QhVO.s:25865  .debug_str:00000000000132dc .LASF4154
C:\Users\CYMR90~1\AppData\Local\Temp\ccj5QhVO.s:29426  .debug_str:00000000000216dd .LASF4155
C:\Users\CYMR90~1\AppData\Local\Temp\ccj5QhVO.s:22357  .debug_str:00000000000050cd .LASF4156
C:\Users\CYMR90~1\AppData\Local\Temp\ccj5QhVO.s:26313  .debug_str:0000000000014f2c .LASF4157
C:\Users\CYMR90~1\AppData\Local\Temp\ccj5QhVO.s:30248  .debug_str:0000000000024959 .LASF4158
C:\Users\CYMR90~1\AppData\Local\Temp\ccj5QhVO.s:22853  .debug_str:0000000000006ee7 .LASF4159
C:\Users\CYMR90~1\AppData\Local\Temp\ccj5QhVO.s:22139  .debug_str:00000000000042b4 .LASF4160
C:\Users\CYMR90~1\AppData\Local\Temp\ccj5QhVO.s:30824  .debug_str:0000000000026f37 .LASF4161
C:\Users\CYMR90~1\AppData\Local\Temp\ccj5QhVO.s:29040  .debug_str:000000000001fec1 .LASF4162
C:\Users\CYMR90~1\AppData\Local\Temp\ccj5QhVO.s:25815  .debug_str:0000000000012fa2 .LASF4163
C:\Users\CYMR90~1\AppData\Local\Temp\ccj5QhVO.s:29704  .debug_str:0000000000022781 .LASF4164
C:\Users\CYMR90~1\AppData\Local\Temp\ccj5QhVO.s:25653  .debug_str:00000000000124ed .LASF4165
C:\Users\CYMR90~1\AppData\Local\Temp\ccj5QhVO.s:26359  .debug_str:000000000001524a .LASF4166
C:\Users\CYMR90~1\AppData\Local\Temp\ccj5QhVO.s:32256  .debug_str:000000000002c9a6 .LASF4167
C:\Users\CYMR90~1\AppData\Local\Temp\ccj5QhVO.s:30990  .debug_str:00000000000279be .LASF4168
C:\Users\CYMR90~1\AppData\Local\Temp\ccj5QhVO.s:26727  .debug_str:0000000000016925 .LASF4169
C:\Users\CYMR90~1\AppData\Local\Temp\ccj5QhVO.s:25229  .debug_str:0000000000010918 .LASF4170
C:\Users\CYMR90~1\AppData\Local\Temp\ccj5QhVO.s:23377  .debug_str:00000000000091cb .LASF4171
C:\Users\CYMR90~1\AppData\Local\Temp\ccj5QhVO.s:31784  .debug_str:000000000002aaf2 .LASF4172
C:\Users\CYMR90~1\AppData\Local\Temp\ccj5QhVO.s:29634  .debug_str:0000000000022381 .LASF4173
C:\Users\CYMR90~1\AppData\Local\Temp\ccj5QhVO.s:26609  .debug_str:00000000000161c8 .LASF4174
C:\Users\CYMR90~1\AppData\Local\Temp\ccj5QhVO.s:29818  .debug_str:0000000000022edf .LASF4175
C:\Users\CYMR90~1\AppData\Local\Temp\ccj5QhVO.s:24929  .debug_str:000000000000f5e6 .LASF4176
C:\Users\CYMR90~1\AppData\Local\Temp\ccj5QhVO.s:22721  .debug_str:000000000000662d .LASF4177
C:\Users\CYMR90~1\AppData\Local\Temp\ccj5QhVO.s:26655  .debug_str:0000000000016481 .LASF4178
C:\Users\CYMR90~1\AppData\Local\Temp\ccj5QhVO.s:30688  .debug_str:000000000002671b .LASF4179
C:\Users\CYMR90~1\AppData\Local\Temp\ccj5QhVO.s:23321  .debug_str:0000000000008eac .LASF4180
C:\Users\CYMR90~1\AppData\Local\Temp\ccj5QhVO.s:27232  .debug_str:0000000000018a3a .LASF4181
C:\Users\CYMR90~1\AppData\Local\Temp\ccj5QhVO.s:24337  .debug_str:000000000000d15f .LASF4182
C:\Users\CYMR90~1\AppData\Local\Temp\ccj5QhVO.s:22175  .debug_str:00000000000044e7 .LASF4183
C:\Users\CYMR90~1\AppData\Local\Temp\ccj5QhVO.s:26127  .debug_str:00000000000143da .LASF4184
C:\Users\CYMR90~1\AppData\Local\Temp\ccj5QhVO.s:24187  .debug_str:000000000000c75f .LASF4185
C:\Users\CYMR90~1\AppData\Local\Temp\ccj5QhVO.s:22651  .debug_str:0000000000006223 .LASF4186
C:\Users\CYMR90~1\AppData\Local\Temp\ccj5QhVO.s:21787  .debug_str:0000000000002bc8 .LASF4187
C:\Users\CYMR90~1\AppData\Local\Temp\ccj5QhVO.s:32264  .debug_str:000000000002ca2e .LASF4188
C:\Users\CYMR90~1\AppData\Local\Temp\ccj5QhVO.s:23267  .debug_str:0000000000008ae7 .LASF4189
C:\Users\CYMR90~1\AppData\Local\Temp\ccj5QhVO.s:27160  .debug_str:00000000000185fb .LASF4190
C:\Users\CYMR90~1\AppData\Local\Temp\ccj5QhVO.s:28294  .debug_str:000000000001d0cc .LASF4191
C:\Users\CYMR90~1\AppData\Local\Temp\ccj5QhVO.s:28170  .debug_str:000000000001c78b .LASF4192
C:\Users\CYMR90~1\AppData\Local\Temp\ccj5QhVO.s:26061  .debug_str:0000000000013f84 .LASF4193
C:\Users\CYMR90~1\AppData\Local\Temp\ccj5QhVO.s:29994  .debug_str:0000000000023922 .LASF4194
C:\Users\CYMR90~1\AppData\Local\Temp\ccj5QhVO.s:26459  .debug_str:0000000000015826 .LASF4195
C:\Users\CYMR90~1\AppData\Local\Temp\ccj5QhVO.s:31164  .debug_str:00000000000285db .LASF4196
C:\Users\CYMR90~1\AppData\Local\Temp\ccj5QhVO.s:24457  .debug_str:000000000000d99e .LASF4197
C:\Users\CYMR90~1\AppData\Local\Temp\ccj5QhVO.s:23173  .debug_str:000000000000850f .LASF4198
C:\Users\CYMR90~1\AppData\Local\Temp\ccj5QhVO.s:29086  .debug_str:00000000000201cb .LASF4199
C:\Users\CYMR90~1\AppData\Local\Temp\ccj5QhVO.s:31048  .debug_str:0000000000027d76 .LASF4200
C:\Users\CYMR90~1\AppData\Local\Temp\ccj5QhVO.s:23661  .debug_str:000000000000a3f3 .LASF4201
C:\Users\CYMR90~1\AppData\Local\Temp\ccj5QhVO.s:32074  .debug_str:000000000002bd4a .LASF4202
C:\Users\CYMR90~1\AppData\Local\Temp\ccj5QhVO.s:22961  .debug_str:000000000000760a .LASF4203
C:\Users\CYMR90~1\AppData\Local\Temp\ccj5QhVO.s:22515  .debug_str:0000000000005a2a .LASF4204
C:\Users\CYMR90~1\AppData\Local\Temp\ccj5QhVO.s:25633  .debug_str:00000000000123dc .LASF4205
C:\Users\CYMR90~1\AppData\Local\Temp\ccj5QhVO.s:25421  .debug_str:00000000000114de .LASF4206
C:\Users\CYMR90~1\AppData\Local\Temp\ccj5QhVO.s:30270  .debug_str:0000000000024b42 .LASF4207
C:\Users\CYMR90~1\AppData\Local\Temp\ccj5QhVO.s:26695  .debug_str:0000000000016736 .LASF4208
C:\Users\CYMR90~1\AppData\Local\Temp\ccj5QhVO.s:23649  .debug_str:000000000000a32e .LASF4209
C:\Users\CYMR90~1\AppData\Local\Temp\ccj5QhVO.s:21771  .debug_str:0000000000002a8d .LASF4210
C:\Users\CYMR90~1\AppData\Local\Temp\ccj5QhVO.s:29060  .debug_str:0000000000020054 .LASF4211
C:\Users\CYMR90~1\AppData\Local\Temp\ccj5QhVO.s:23855  .debug_str:000000000000b18a .LASF4212
C:\Users\CYMR90~1\AppData\Local\Temp\ccj5QhVO.s:22445  .debug_str:00000000000055ed .LASF4213
C:\Users\CYMR90~1\AppData\Local\Temp\ccj5QhVO.s:23069  .debug_str:0000000000007d13 .LASF4214
C:\Users\CYMR90~1\AppData\Local\Temp\ccj5QhVO.s:31476  .debug_str:000000000002992b .LASF4215
C:\Users\CYMR90~1\AppData\Local\Temp\ccj5QhVO.s:23041  .debug_str:0000000000007b73 .LASF4216
C:\Users\CYMR90~1\AppData\Local\Temp\ccj5QhVO.s:22613  .debug_str:0000000000005fde .LASF4217
C:\Users\CYMR90~1\AppData\Local\Temp\ccj5QhVO.s:23393  .debug_str:00000000000092c0 .LASF4218
C:\Users\CYMR90~1\AppData\Local\Temp\ccj5QhVO.s:30074  .debug_str:0000000000023df4 .LASF4219
C:\Users\CYMR90~1\AppData\Local\Temp\ccj5QhVO.s:22219  .debug_str:00000000000047dc .LASF4220
C:\Users\CYMR90~1\AppData\Local\Temp\ccj5QhVO.s:22813  .debug_str:0000000000006bfc .LASF4221
C:\Users\CYMR90~1\AppData\Local\Temp\ccj5QhVO.s:31950  .debug_str:000000000002b548 .LASF4222
C:\Users\CYMR90~1\AppData\Local\Temp\ccj5QhVO.s:22387  .debug_str:0000000000005296 .LASF4223
C:\Users\CYMR90~1\AppData\Local\Temp\ccj5QhVO.s:23671  .debug_str:000000000000a4c8 .LASF4224
C:\Users\CYMR90~1\AppData\Local\Temp\ccj5QhVO.s:22971  .debug_str:00000000000076c0 .LASF4225
C:\Users\CYMR90~1\AppData\Local\Temp\ccj5QhVO.s:28320  .debug_str:000000000001d2f9 .LASF4226
C:\Users\CYMR90~1\AppData\Local\Temp\ccj5QhVO.s:30652  .debug_str:00000000000264f6 .LASF4227
C:\Users\CYMR90~1\AppData\Local\Temp\ccj5QhVO.s:27672  .debug_str:000000000001a868 .LASF4228
C:\Users\CYMR90~1\AppData\Local\Temp\ccj5QhVO.s:24029  .debug_str:000000000000bcc5 .LASF4229
C:\Users\CYMR90~1\AppData\Local\Temp\ccj5QhVO.s:31422  .debug_str:00000000000295b3 .LASF4230
C:\Users\CYMR90~1\AppData\Local\Temp\ccj5QhVO.s:23793  .debug_str:000000000000acf6 .LASF4231
C:\Users\CYMR90~1\AppData\Local\Temp\ccj5QhVO.s:25615  .debug_str:0000000000012287 .LASF4232
C:\Users\CYMR90~1\AppData\Local\Temp\ccj5QhVO.s:30294  .debug_str:0000000000024c89 .LASF4233
C:\Users\CYMR90~1\AppData\Local\Temp\ccj5QhVO.s:29482  .debug_str:0000000000021a51 .LASF4234
C:\Users\CYMR90~1\AppData\Local\Temp\ccj5QhVO.s:26850  .debug_str:000000000001730b .LASF4235
C:\Users\CYMR90~1\AppData\Local\Temp\ccj5QhVO.s:30776  .debug_str:0000000000026c7e .LASF4236
C:\Users\CYMR90~1\AppData\Local\Temp\ccj5QhVO.s:26974  .debug_str:0000000000017aac .LASF4237
C:\Users\CYMR90~1\AppData\Local\Temp\ccj5QhVO.s:27754  .debug_str:000000000001ade8 .LASF4238
C:\Users\CYMR90~1\AppData\Local\Temp\ccj5QhVO.s:30738  .debug_str:0000000000026a35 .LASF4239
C:\Users\CYMR90~1\AppData\Local\Temp\ccj5QhVO.s:23975  .debug_str:000000000000b96c .LASF4240
C:\Users\CYMR90~1\AppData\Local\Temp\ccj5QhVO.s:27892  .debug_str:000000000001b6da .LASF4241
C:\Users\CYMR90~1\AppData\Local\Temp\ccj5QhVO.s:29926  .debug_str:00000000000234b0 .LASF4242
C:\Users\CYMR90~1\AppData\Local\Temp\ccj5QhVO.s:22831  .debug_str:0000000000006d5c .LASF4243
C:\Users\CYMR90~1\AppData\Local\Temp\ccj5QhVO.s:26775  .debug_str:0000000000016cf2 .LASF4244
C:\Users\CYMR90~1\AppData\Local\Temp\ccj5QhVO.s:26355  .debug_str:0000000000015208 .LASF4245
C:\Users\CYMR90~1\AppData\Local\Temp\ccj5QhVO.s:22165  .debug_str:000000000000443f .LASF4246
C:\Users\CYMR90~1\AppData\Local\Temp\ccj5QhVO.s:27278  .debug_str:0000000000018de5 .LASF4247
C:\Users\CYMR90~1\AppData\Local\Temp\ccj5QhVO.s:25931  .debug_str:00000000000137cf .LASF4248
C:\Users\CYMR90~1\AppData\Local\Temp\ccj5QhVO.s:28024  .debug_str:000000000001bec0 .LASF4249
C:\Users\CYMR90~1\AppData\Local\Temp\ccj5QhVO.s:27848  .debug_str:000000000001b423 .LASF4250
C:\Users\CYMR90~1\AppData\Local\Temp\ccj5QhVO.s:26283  .debug_str:0000000000014d01 .LASF4251
C:\Users\CYMR90~1\AppData\Local\Temp\ccj5QhVO.s:22167  .debug_str:0000000000004465 .LASF4252
C:\Users\CYMR90~1\AppData\Local\Temp\ccj5QhVO.s:21507  .debug_str:0000000000001a90 .LASF4253
C:\Users\CYMR90~1\AppData\Local\Temp\ccj5QhVO.s:25465  .debug_str:00000000000117c6 .LASF4254
C:\Users\CYMR90~1\AppData\Local\Temp\ccj5QhVO.s:29370  .debug_str:00000000000212cb .LASF4255
C:\Users\CYMR90~1\AppData\Local\Temp\ccj5QhVO.s:21977  .debug_str:0000000000003804 .LASF4256
C:\Users\CYMR90~1\AppData\Local\Temp\ccj5QhVO.s:25953  .debug_str:0000000000013939 .LASF4257
C:\Users\CYMR90~1\AppData\Local\Temp\ccj5QhVO.s:29278  .debug_str:0000000000020d9b .LASF4258
C:\Users\CYMR90~1\AppData\Local\Temp\ccj5QhVO.s:28140  .debug_str:000000000001c5e7 .LASF4259
C:\Users\CYMR90~1\AppData\Local\Temp\ccj5QhVO.s:27298  .debug_str:0000000000018f3a .LASF4260
C:\Users\CYMR90~1\AppData\Local\Temp\ccj5QhVO.s:28862  .debug_str:000000000001f473 .LASF4261
C:\Users\CYMR90~1\AppData\Local\Temp\ccj5QhVO.s:22163  .debug_str:0000000000004419 .LASF4262
C:\Users\CYMR90~1\AppData\Local\Temp\ccj5QhVO.s:22093  .debug_str:0000000000003f81 .LASF4263
C:\Users\CYMR90~1\AppData\Local\Temp\ccj5QhVO.s:29304  .debug_str:0000000000020f3a .LASF4264
C:\Users\CYMR90~1\AppData\Local\Temp\ccj5QhVO.s:27260  .debug_str:0000000000018bff .LASF4265
C:\Users\CYMR90~1\AppData\Local\Temp\ccj5QhVO.s:25985  .debug_str:0000000000013b15 .LASF4266
C:\Users\CYMR90~1\AppData\Local\Temp\ccj5QhVO.s:29812  .debug_str:0000000000022e7d .LASF4267
C:\Users\CYMR90~1\AppData\Local\Temp\ccj5QhVO.s:32366  .debug_str:000000000002d0b9 .LASF4268
C:\Users\CYMR90~1\AppData\Local\Temp\ccj5QhVO.s:23769  .debug_str:000000000000ab4c .LASF4269
C:\Users\CYMR90~1\AppData\Local\Temp\ccj5QhVO.s:24439  .debug_str:000000000000d8af .LASF4270
C:\Users\CYMR90~1\AppData\Local\Temp\ccj5QhVO.s:29946  .debug_str:00000000000235d6 .LASF4271
C:\Users\CYMR90~1\AppData\Local\Temp\ccj5QhVO.s:28490  .debug_str:000000000001dd8d .LASF4272
C:\Users\CYMR90~1\AppData\Local\Temp\ccj5QhVO.s:21155  .debug_str:00000000000004c9 .LASF4273
C:\Users\CYMR90~1\AppData\Local\Temp\ccj5QhVO.s:22211  .debug_str:0000000000004748 .LASF4274
C:\Users\CYMR90~1\AppData\Local\Temp\ccj5QhVO.s:24615  .debug_str:000000000000e2b2 .LASF4275
C:\Users\CYMR90~1\AppData\Local\Temp\ccj5QhVO.s:22783  .debug_str:0000000000006a3f .LASF4276
C:\Users\CYMR90~1\AppData\Local\Temp\ccj5QhVO.s:26003  .debug_str:0000000000013c28 .LASF4277
C:\Users\CYMR90~1\AppData\Local\Temp\ccj5QhVO.s:25631  .debug_str:00000000000123b5 .LASF4278
C:\Users\CYMR90~1\AppData\Local\Temp\ccj5QhVO.s:21849  .debug_str:0000000000002f88 .LASF4279
C:\Users\CYMR90~1\AppData\Local\Temp\ccj5QhVO.s:23591  .debug_str:0000000000009f5d .LASF4280
C:\Users\CYMR90~1\AppData\Local\Temp\ccj5QhVO.s:21933  .debug_str:0000000000003527 .LASF4281
C:\Users\CYMR90~1\AppData\Local\Temp\ccj5QhVO.s:21115  .debug_str:0000000000000269 .LASF4282
C:\Users\CYMR90~1\AppData\Local\Temp\ccj5QhVO.s:23387  .debug_str:0000000000009260 .LASF4283
C:\Users\CYMR90~1\AppData\Local\Temp\ccj5QhVO.s:26749  .debug_str:0000000000016af0 .LASF4284
C:\Users\CYMR90~1\AppData\Local\Temp\ccj5QhVO.s:21839  .debug_str:0000000000002efb .LASF4285
C:\Users\CYMR90~1\AppData\Local\Temp\ccj5QhVO.s:30798  .debug_str:0000000000026dae .LASF4286
C:\Users\CYMR90~1\AppData\Local\Temp\ccj5QhVO.s:26613  .debug_str:0000000000016209 .LASF4287
C:\Users\CYMR90~1\AppData\Local\Temp\ccj5QhVO.s:27272  .debug_str:0000000000018d58 .LASF4288
C:\Users\CYMR90~1\AppData\Local\Temp\ccj5QhVO.s:29958  .debug_str:00000000000236a7 .LASF4289
C:\Users\CYMR90~1\AppData\Local\Temp\ccj5QhVO.s:29732  .debug_str:000000000002296e .LASF4290
C:\Users\CYMR90~1\AppData\Local\Temp\ccj5QhVO.s:25833  .debug_str:00000000000130b3 .LASF4291
C:\Users\CYMR90~1\AppData\Local\Temp\ccj5QhVO.s:22993  .debug_str:0000000000007839 .LASF4292
C:\Users\CYMR90~1\AppData\Local\Temp\ccj5QhVO.s:31700  .debug_str:000000000002a5db .LASF4293
C:\Users\CYMR90~1\AppData\Local\Temp\ccj5QhVO.s:21859  .debug_str:000000000000302f .LASF4294
C:\Users\CYMR90~1\AppData\Local\Temp\ccj5QhVO.s:31678  .debug_str:000000000002a451 .LASF4295
C:\Users\CYMR90~1\AppData\Local\Temp\ccj5QhVO.s:25359  .debug_str:0000000000011133 .LASF4296
C:\Users\CYMR90~1\AppData\Local\Temp\ccj5QhVO.s:28544  .debug_str:000000000001e161 .LASF4297
C:\Users\CYMR90~1\AppData\Local\Temp\ccj5QhVO.s:23557  .debug_str:0000000000009d3a .LASF4298
C:\Users\CYMR90~1\AppData\Local\Temp\ccj5QhVO.s:27810  .debug_str:000000000001b1b0 .LASF4299
C:\Users\CYMR90~1\AppData\Local\Temp\ccj5QhVO.s:28386  .debug_str:000000000001d706 .LASF4300
C:\Users\CYMR90~1\AppData\Local\Temp\ccj5QhVO.s:23951  .debug_str:000000000000b7b1 .LASF4301
C:\Users\CYMR90~1\AppData\Local\Temp\ccj5QhVO.s:26954  .debug_str:0000000000017944 .LASF4302
C:\Users\CYMR90~1\AppData\Local\Temp\ccj5QhVO.s:28088  .debug_str:000000000001c2e7 .LASF4303
C:\Users\CYMR90~1\AppData\Local\Temp\ccj5QhVO.s:25765  .debug_str:0000000000012c6c .LASF4304
C:\Users\CYMR90~1\AppData\Local\Temp\ccj5QhVO.s:29260  .debug_str:0000000000020c71 .LASF4305
C:\Users\CYMR90~1\AppData\Local\Temp\ccj5QhVO.s:23881  .debug_str:000000000000b326 .LASF4306
C:\Users\CYMR90~1\AppData\Local\Temp\ccj5QhVO.s:21509  .debug_str:0000000000001ab6 .LASF4307
C:\Users\CYMR90~1\AppData\Local\Temp\ccj5QhVO.s:26457  .debug_str:0000000000015801 .LASF4308
C:\Users\CYMR90~1\AppData\Local\Temp\ccj5QhVO.s:25813  .debug_str:0000000000012f7d .LASF4309
C:\Users\CYMR90~1\AppData\Local\Temp\ccj5QhVO.s:32072  .debug_str:000000000002bd33 .LASF4310
C:\Users\CYMR90~1\AppData\Local\Temp\ccj5QhVO.s:27398  .debug_str:00000000000195e1 .LASF4311
C:\Users\CYMR90~1\AppData\Local\Temp\ccj5QhVO.s:26952  .debug_str:000000000001792c .LASF4312
C:\Users\CYMR90~1\AppData\Local\Temp\ccj5QhVO.s:28412  .debug_str:000000000001d906 .LASF4313
C:\Users\CYMR90~1\AppData\Local\Temp\ccj5QhVO.s:30084  .debug_str:0000000000023e8b .LASF4314
C:\Users\CYMR90~1\AppData\Local\Temp\ccj5QhVO.s:22443  .debug_str:00000000000055d4 .LASF4315
C:\Users\CYMR90~1\AppData\Local\Temp\ccj5QhVO.s:21399  .debug_str:00000000000013c2 .LASF4316
C:\Users\CYMR90~1\AppData\Local\Temp\ccj5QhVO.s:28728  .debug_str:000000000001ec79 .LASF4317
C:\Users\CYMR90~1\AppData\Local\Temp\ccj5QhVO.s:29444  .debug_str:00000000000217ff .LASF4318
C:\Users\CYMR90~1\AppData\Local\Temp\ccj5QhVO.s:31644  .debug_str:000000000002a2ad .LASF4319
C:\Users\CYMR90~1\AppData\Local\Temp\ccj5QhVO.s:25485  .debug_str:000000000001192d .LASF4320
C:\Users\CYMR90~1\AppData\Local\Temp\ccj5QhVO.s:31298  .debug_str:0000000000028e5b .LASF4321
C:\Users\CYMR90~1\AppData\Local\Temp\ccj5QhVO.s:30848  .debug_str:00000000000270d4 .LASF4322
C:\Users\CYMR90~1\AppData\Local\Temp\ccj5QhVO.s:23841  .debug_str:000000000000b0ca .LASF4323
C:\Users\CYMR90~1\AppData\Local\Temp\ccj5QhVO.s:29222  .debug_str:0000000000020a28 .LASF4324
C:\Users\CYMR90~1\AppData\Local\Temp\ccj5QhVO.s:23281  .debug_str:0000000000008bd3 .LASF4325
C:\Users\CYMR90~1\AppData\Local\Temp\ccj5QhVO.s:26872  .debug_str:0000000000017460 .LASF4326
C:\Users\CYMR90~1\AppData\Local\Temp\ccj5QhVO.s:30044  .debug_str:0000000000023c44 .LASF4327
C:\Users\CYMR90~1\AppData\Local\Temp\ccj5QhVO.s:30872  .debug_str:0000000000027215 .LASF4328
C:\Users\CYMR90~1\AppData\Local\Temp\ccj5QhVO.s:26281  .debug_str:0000000000014ced .LASF4329
C:\Users\CYMR90~1\AppData\Local\Temp\ccj5QhVO.s:28632  .debug_str:000000000001e69c .LASF4330
C:\Users\CYMR90~1\AppData\Local\Temp\ccj5QhVO.s:24267  .debug_str:000000000000cd33 .LASF4331
C:\Users\CYMR90~1\AppData\Local\Temp\ccj5QhVO.s:26067  .debug_str:0000000000013fed .LASF4332
C:\Users\CYMR90~1\AppData\Local\Temp\ccj5QhVO.s:28460  .debug_str:000000000001dbf3 .LASF4333
C:\Users\CYMR90~1\AppData\Local\Temp\ccj5QhVO.s:25841  .debug_str:000000000001313a .LASF4334
C:\Users\CYMR90~1\AppData\Local\Temp\ccj5QhVO.s:29292  .debug_str:0000000000020e83 .LASF4335
C:\Users\CYMR90~1\AppData\Local\Temp\ccj5QhVO.s:24805  .debug_str:000000000000ee93 .LASF4336
C:\Users\CYMR90~1\AppData\Local\Temp\ccj5QhVO.s:28410  .debug_str:000000000001d8f1 .LASF4337
C:\Users\CYMR90~1\AppData\Local\Temp\ccj5QhVO.s:21817  .debug_str:0000000000002dae .LASF4338
C:\Users\CYMR90~1\AppData\Local\Temp\ccj5QhVO.s:21595  .debug_str:0000000000001fdd .LASF4339
C:\Users\CYMR90~1\AppData\Local\Temp\ccj5QhVO.s:28128  .debug_str:000000000001c557 .LASF4340
C:\Users\CYMR90~1\AppData\Local\Temp\ccj5QhVO.s:23197  .debug_str:0000000000008678 .LASF4341
C:\Users\CYMR90~1\AppData\Local\Temp\ccj5QhVO.s:31776  .debug_str:000000000002aaa1 .LASF4342
C:\Users\CYMR90~1\AppData\Local\Temp\ccj5QhVO.s:23053  .debug_str:0000000000007c29 .LASF4343
C:\Users\CYMR90~1\AppData\Local\Temp\ccj5QhVO.s:21167  .debug_str:0000000000000585 .LASF4344
C:\Users\CYMR90~1\AppData\Local\Temp\ccj5QhVO.s:30286  .debug_str:0000000000024c20 .LASF4345
C:\Users\CYMR90~1\AppData\Local\Temp\ccj5QhVO.s:27178  .debug_str:0000000000018705 .LASF4346
C:\Users\CYMR90~1\AppData\Local\Temp\ccj5QhVO.s:24909  .debug_str:000000000000f4c9 .LASF4347
C:\Users\CYMR90~1\AppData\Local\Temp\ccj5QhVO.s:29884  .debug_str:0000000000023265 .LASF4348
C:\Users\CYMR90~1\AppData\Local\Temp\ccj5QhVO.s:31592  .debug_str:0000000000029fd0 .LASF4349
C:\Users\CYMR90~1\AppData\Local\Temp\ccj5QhVO.s:24115  .debug_str:000000000000c317 .LASF4350
C:\Users\CYMR90~1\AppData\Local\Temp\ccj5QhVO.s:22635  .debug_str:000000000000614b .LASF4351
C:\Users\CYMR90~1\AppData\Local\Temp\ccj5QhVO.s:22267  .debug_str:0000000000004b62 .LASF4352
C:\Users\CYMR90~1\AppData\Local\Temp\ccj5QhVO.s:30632  .debug_str:00000000000263f4 .LASF4353
C:\Users\CYMR90~1\AppData\Local\Temp\ccj5QhVO.s:21197  .debug_str:000000000000075b .LASF4354
C:\Users\CYMR90~1\AppData\Local\Temp\ccj5QhVO.s:25923  .debug_str:0000000000013739 .LASF4355
C:\Users\CYMR90~1\AppData\Local\Temp\ccj5QhVO.s:29034  .debug_str:000000000001fe82 .LASF4356
C:\Users\CYMR90~1\AppData\Local\Temp\ccj5QhVO.s:26465  .debug_str:0000000000015877 .LASF4357
C:\Users\CYMR90~1\AppData\Local\Temp\ccj5QhVO.s:30424  .debug_str:00000000000255d8 .LASF4358
C:\Users\CYMR90~1\AppData\Local\Temp\ccj5QhVO.s:21699  .debug_str:000000000000259f .LASF4359
C:\Users\CYMR90~1\AppData\Local\Temp\ccj5QhVO.s:24851  .debug_str:000000000000f111 .LASF4360
C:\Users\CYMR90~1\AppData\Local\Temp\ccj5QhVO.s:21309  .debug_str:0000000000000e34 .LASF4361
C:\Users\CYMR90~1\AppData\Local\Temp\ccj5QhVO.s:25313  .debug_str:0000000000010ed8 .LASF4362
C:\Users\CYMR90~1\AppData\Local\Temp\ccj5QhVO.s:23999  .debug_str:000000000000bacb .LASF4363
C:\Users\CYMR90~1\AppData\Local\Temp\ccj5QhVO.s:28990  .debug_str:000000000001fbe8 .LASF4364
C:\Users\CYMR90~1\AppData\Local\Temp\ccj5QhVO.s:27960  .debug_str:000000000001bae0 .LASF4365
C:\Users\CYMR90~1\AppData\Local\Temp\ccj5QhVO.s:25731  .debug_str:0000000000012a09 .LASF4366
C:\Users\CYMR90~1\AppData\Local\Temp\ccj5QhVO.s:21693  .debug_str:0000000000002552 .LASF4367
C:\Users\CYMR90~1\AppData\Local\Temp\ccj5QhVO.s:28360  .debug_str:000000000001d55f .LASF4368
C:\Users\CYMR90~1\AppData\Local\Temp\ccj5QhVO.s:24241  .debug_str:000000000000cb93 .LASF4369
C:\Users\CYMR90~1\AppData\Local\Temp\ccj5QhVO.s:31760  .debug_str:000000000002a9bc .LASF4370
C:\Users\CYMR90~1\AppData\Local\Temp\ccj5QhVO.s:27636  .debug_str:000000000001a698 .LASF4371
C:\Users\CYMR90~1\AppData\Local\Temp\ccj5QhVO.s:29852  .debug_str:00000000000230c0 .LASF4372
C:\Users\CYMR90~1\AppData\Local\Temp\ccj5QhVO.s:31430  .debug_str:000000000002963a .LASF4373
C:\Users\CYMR90~1\AppData\Local\Temp\ccj5QhVO.s:26713  .debug_str:000000000001684d .LASF4374
C:\Users\CYMR90~1\AppData\Local\Temp\ccj5QhVO.s:27368  .debug_str:0000000000019419 .LASF4375
C:\Users\CYMR90~1\AppData\Local\Temp\ccj5QhVO.s:22441  .debug_str:00000000000055bb .LASF4376
C:\Users\CYMR90~1\AppData\Local\Temp\ccj5QhVO.s:26143  .debug_str:00000000000144d8 .LASF4377
C:\Users\CYMR90~1\AppData\Local\Temp\ccj5QhVO.s:25091  .debug_str:000000000001005d .LASF4378
C:\Users\CYMR90~1\AppData\Local\Temp\ccj5QhVO.s:28262  .debug_str:000000000001ce3e .LASF4379
C:\Users\CYMR90~1\AppData\Local\Temp\ccj5QhVO.s:21353  .debug_str:0000000000001138 .LASF4380
C:\Users\CYMR90~1\AppData\Local\Temp\ccj5QhVO.s:24469  .debug_str:000000000000da4b .LASF4381
C:\Users\CYMR90~1\AppData\Local\Temp\ccj5QhVO.s:31922  .debug_str:000000000002b365 .LASF4382
C:\Users\CYMR90~1\AppData\Local\Temp\ccj5QhVO.s:24017  .debug_str:000000000000bc18 .LASF4383
C:\Users\CYMR90~1\AppData\Local\Temp\ccj5QhVO.s:29172  .debug_str:0000000000020762 .LASF4384
C:\Users\CYMR90~1\AppData\Local\Temp\ccj5QhVO.s:26571  .debug_str:0000000000015f2b .LASF4385
C:\Users\CYMR90~1\AppData\Local\Temp\ccj5QhVO.s:30032  .debug_str:0000000000023b77 .LASF4386
C:\Users\CYMR90~1\AppData\Local\Temp\ccj5QhVO.s:24645  .debug_str:000000000000e47f .LASF4387
C:\Users\CYMR90~1\AppData\Local\Temp\ccj5QhVO.s:29366  .debug_str:0000000000021288 .LASF4388
C:\Users\CYMR90~1\AppData\Local\Temp\ccj5QhVO.s:29702  .debug_str:0000000000022769 .LASF4389
C:\Users\CYMR90~1\AppData\Local\Temp\ccj5QhVO.s:26701  .debug_str:00000000000167a0 .LASF4390
C:\Users\CYMR90~1\AppData\Local\Temp\ccj5QhVO.s:23243  .debug_str:000000000000897f .LASF4391
C:\Users\CYMR90~1\AppData\Local\Temp\ccj5QhVO.s:30458  .debug_str:0000000000025878 .LASF4392
C:\Users\CYMR90~1\AppData\Local\Temp\ccj5QhVO.s:27692  .debug_str:000000000001aa34 .LASF4393
C:\Users\CYMR90~1\AppData\Local\Temp\ccj5QhVO.s:21305  .debug_str:0000000000000df6 .LASF4394
C:\Users\CYMR90~1\AppData\Local\Temp\ccj5QhVO.s:29676  .debug_str:00000000000225c2 .LASF4395
C:\Users\CYMR90~1\AppData\Local\Temp\ccj5QhVO.s:31414  .debug_str:0000000000029546 .LASF4396
C:\Users\CYMR90~1\AppData\Local\Temp\ccj5QhVO.s:21777  .debug_str:0000000000002ae7 .LASF4397
C:\Users\CYMR90~1\AppData\Local\Temp\ccj5QhVO.s:24783  .debug_str:000000000000ed75 .LASF4398
C:\Users\CYMR90~1\AppData\Local\Temp\ccj5QhVO.s:28706  .debug_str:000000000001eb47 .LASF4399
C:\Users\CYMR90~1\AppData\Local\Temp\ccj5QhVO.s:21997  .debug_str:0000000000003941 .LASF4400
C:\Users\CYMR90~1\AppData\Local\Temp\ccj5QhVO.s:23301  .debug_str:0000000000008cef .LASF4401
C:\Users\CYMR90~1\AppData\Local\Temp\ccj5QhVO.s:30378  .debug_str:00000000000251f3 .LASF4402
C:\Users\CYMR90~1\AppData\Local\Temp\ccj5QhVO.s:25045  .debug_str:000000000000fd4c .LASF4403
C:\Users\CYMR90~1\AppData\Local\Temp\ccj5QhVO.s:26051  .debug_str:0000000000013f05 .LASF4404
C:\Users\CYMR90~1\AppData\Local\Temp\ccj5QhVO.s:22559  .debug_str:0000000000005ce1 .LASF4405
C:\Users\CYMR90~1\AppData\Local\Temp\ccj5QhVO.s:22155  .debug_str:0000000000004382 .LASF4406
C:\Users\CYMR90~1\AppData\Local\Temp\ccj5QhVO.s:29478  .debug_str:0000000000021a1f .LASF4407
C:\Users\CYMR90~1\AppData\Local\Temp\ccj5QhVO.s:29006  .debug_str:000000000001fce6 .LASF4408
C:\Users\CYMR90~1\AppData\Local\Temp\ccj5QhVO.s:22241  .debug_str:00000000000049cd .LASF4409
C:\Users\CYMR90~1\AppData\Local\Temp\ccj5QhVO.s:29272  .debug_str:0000000000020d41 .LASF4410
C:\Users\CYMR90~1\AppData\Local\Temp\ccj5QhVO.s:30686  .debug_str:0000000000026704 .LASF4411
C:\Users\CYMR90~1\AppData\Local\Temp\ccj5QhVO.s:31882  .debug_str:000000000002b0d8 .LASF4412
C:\Users\CYMR90~1\AppData\Local\Temp\ccj5QhVO.s:30604  .debug_str:000000000002622f .LASF4413
C:\Users\CYMR90~1\AppData\Local\Temp\ccj5QhVO.s:21453  .debug_str:00000000000016cd .LASF4414
C:\Users\CYMR90~1\AppData\Local\Temp\ccj5QhVO.s:28596  .debug_str:000000000001e46e .LASF4415
C:\Users\CYMR90~1\AppData\Local\Temp\ccj5QhVO.s:30916  .debug_str:0000000000027571 .LASF4416
C:\Users\CYMR90~1\AppData\Local\Temp\ccj5QhVO.s:23693  .debug_str:000000000000a60d .LASF4417
C:\Users\CYMR90~1\AppData\Local\Temp\ccj5QhVO.s:32220  .debug_str:000000000002c74c .LASF4418
C:\Users\CYMR90~1\AppData\Local\Temp\ccj5QhVO.s:31580  .debug_str:0000000000029f2c .LASF4419
C:\Users\CYMR90~1\AppData\Local\Temp\ccj5QhVO.s:23059  .debug_str:0000000000007c84 .LASF4420
C:\Users\CYMR90~1\AppData\Local\Temp\ccj5QhVO.s:22135  .debug_str:0000000000004281 .LASF4421
C:\Users\CYMR90~1\AppData\Local\Temp\ccj5QhVO.s:30772  .debug_str:0000000000026c36 .LASF4422
C:\Users\CYMR90~1\AppData\Local\Temp\ccj5QhVO.s:28144  .debug_str:000000000001c630 .LASF4423
C:\Users\CYMR90~1\AppData\Local\Temp\ccj5QhVO.s:30746  .debug_str:0000000000026ab3 .LASF4424
C:\Users\CYMR90~1\AppData\Local\Temp\ccj5QhVO.s:26079  .debug_str:00000000000140a9 .LASF4425
C:\Users\CYMR90~1\AppData\Local\Temp\ccj5QhVO.s:24983  .debug_str:000000000000f9c5 .LASF4426
C:\Users\CYMR90~1\AppData\Local\Temp\ccj5QhVO.s:28698  .debug_str:000000000001ead3 .LASF4427
C:\Users\CYMR90~1\AppData\Local\Temp\ccj5QhVO.s:22499  .debug_str:000000000000595e .LASF4428
C:\Users\CYMR90~1\AppData\Local\Temp\ccj5QhVO.s:29906  .debug_str:0000000000023381 .LASF4429
C:\Users\CYMR90~1\AppData\Local\Temp\ccj5QhVO.s:27300  .debug_str:0000000000018f60 .LASF4430
C:\Users\CYMR90~1\AppData\Local\Temp\ccj5QhVO.s:21661  .debug_str:0000000000002367 .LASF4431
C:\Users\CYMR90~1\AppData\Local\Temp\ccj5QhVO.s:21867  .debug_str:00000000000030a4 .LASF4432
C:\Users\CYMR90~1\AppData\Local\Temp\ccj5QhVO.s:30568  .debug_str:0000000000025fb9 .LASF4433
C:\Users\CYMR90~1\AppData\Local\Temp\ccj5QhVO.s:26471  .debug_str:00000000000158c3 .LASF4434
C:\Users\CYMR90~1\AppData\Local\Temp\ccj5QhVO.s:25179  .debug_str:000000000001058f .LASF4435
C:\Users\CYMR90~1\AppData\Local\Temp\ccj5QhVO.s:23361  .debug_str:00000000000090d0 .LASF4436
C:\Users\CYMR90~1\AppData\Local\Temp\ccj5QhVO.s:31170  .debug_str:0000000000028631 .LASF4437
C:\Users\CYMR90~1\AppData\Local\Temp\ccj5QhVO.s:32370  .debug_str:000000000002d102 .LASF4438
C:\Users\CYMR90~1\AppData\Local\Temp\ccj5QhVO.s:28524  .debug_str:000000000001e02e .LASF4439
C:\Users\CYMR90~1\AppData\Local\Temp\ccj5QhVO.s:22821  .debug_str:0000000000006ca5 .LASF4440
C:\Users\CYMR90~1\AppData\Local\Temp\ccj5QhVO.s:22281  .debug_str:0000000000004c5d .LASF4441
C:\Users\CYMR90~1\AppData\Local\Temp\ccj5QhVO.s:26824  .debug_str:0000000000017196 .LASF4442
C:\Users\CYMR90~1\AppData\Local\Temp\ccj5QhVO.s:32020  .debug_str:000000000002ba07 .LASF4443
C:\Users\CYMR90~1\AppData\Local\Temp\ccj5QhVO.s:25863  .debug_str:00000000000132bd .LASF4444
C:\Users\CYMR90~1\AppData\Local\Temp\ccj5QhVO.s:31646  .debug_str:000000000002a2c6 .LASF4445
C:\Users\CYMR90~1\AppData\Local\Temp\ccj5QhVO.s:30718  .debug_str:00000000000268f2 .LASF4446
C:\Users\CYMR90~1\AppData\Local\Temp\ccj5QhVO.s:30942  .debug_str:0000000000027704 .LASF4447
C:\Users\CYMR90~1\AppData\Local\Temp\ccj5QhVO.s:31474  .debug_str:00000000000298f0 .LASF4448
C:\Users\CYMR90~1\AppData\Local\Temp\ccj5QhVO.s:28052  .debug_str:000000000001c0a2 .LASF4449
C:\Users\CYMR90~1\AppData\Local\Temp\ccj5QhVO.s:27514  .debug_str:0000000000019dc8 .LASF4450
C:\Users\CYMR90~1\AppData\Local\Temp\ccj5QhVO.s:23113  .debug_str:0000000000008118 .LASF4451
C:\Users\CYMR90~1\AppData\Local\Temp\ccj5QhVO.s:28918  .debug_str:000000000001f78c .LASF4452
C:\Users\CYMR90~1\AppData\Local\Temp\ccj5QhVO.s:27830  .debug_str:000000000001b2e2 .LASF4453
C:\Users\CYMR90~1\AppData\Local\Temp\ccj5QhVO.s:29744  .debug_str:0000000000022a16 .LASF4454
C:\Users\CYMR90~1\AppData\Local\Temp\ccj5QhVO.s:30670  .debug_str:00000000000265ff .LASF4455
C:\Users\CYMR90~1\AppData\Local\Temp\ccj5QhVO.s:21569  .debug_str:0000000000001e59 .LASF4456
C:\Users\CYMR90~1\AppData\Local\Temp\ccj5QhVO.s:26645  .debug_str:00000000000163d3 .LASF4457
C:\Users\CYMR90~1\AppData\Local\Temp\ccj5QhVO.s:21881  .debug_str:00000000000031aa .LASF4458
C:\Users\CYMR90~1\AppData\Local\Temp\ccj5QhVO.s:24083  .debug_str:000000000000c116 .LASF4459
C:\Users\CYMR90~1\AppData\Local\Temp\ccj5QhVO.s:28710  .debug_str:000000000001eb77 .LASF4460
C:\Users\CYMR90~1\AppData\Local\Temp\ccj5QhVO.s:21359  .debug_str:0000000000001187 .LASF4461
C:\Users\CYMR90~1\AppData\Local\Temp\ccj5QhVO.s:30406  .debug_str:000000000002540e .LASF4462
C:\Users\CYMR90~1\AppData\Local\Temp\ccj5QhVO.s:23219  .debug_str:00000000000087af .LASF4463
C:\Users\CYMR90~1\AppData\Local\Temp\ccj5QhVO.s:28332  .debug_str:000000000001d3d1 .LASF4464
C:\Users\CYMR90~1\AppData\Local\Temp\ccj5QhVO.s:28350  .debug_str:000000000001d4c8 .LASF4465
C:\Users\CYMR90~1\AppData\Local\Temp\ccj5QhVO.s:29314  .debug_str:0000000000020fc6 .LASF4466
C:\Users\CYMR90~1\AppData\Local\Temp\ccj5QhVO.s:27766  .debug_str:000000000001aea1 .LASF4467
C:\Users\CYMR90~1\AppData\Local\Temp\ccj5QhVO.s:22533  .debug_str:0000000000005b83 .LASF4468
C:\Users\CYMR90~1\AppData\Local\Temp\ccj5QhVO.s:31132  .debug_str:0000000000028355 .LASF4469
C:\Users\CYMR90~1\AppData\Local\Temp\ccj5QhVO.s:30038  .debug_str:0000000000023bf3 .LASF4470
C:\Users\CYMR90~1\AppData\Local\Temp\ccj5QhVO.s:26367  .debug_str:00000000000152b6 .LASF4471
C:\Users\CYMR90~1\AppData\Local\Temp\ccj5QhVO.s:32268  .debug_str:000000000002ca7a .LASF4472
C:\Users\CYMR90~1\AppData\Local\Temp\ccj5QhVO.s:21845  .debug_str:0000000000002f4a .LASF4473
C:\Users\CYMR90~1\AppData\Local\Temp\ccj5QhVO.s:22215  .debug_str:00000000000047af .LASF4474
C:\Users\CYMR90~1\AppData\Local\Temp\ccj5QhVO.s:27468  .debug_str:0000000000019aba .LASF4475
C:\Users\CYMR90~1\AppData\Local\Temp\ccj5QhVO.s:25257  .debug_str:0000000000010aac .LASF4476
C:\Users\CYMR90~1\AppData\Local\Temp\ccj5QhVO.s:22153  .debug_str:000000000000436a .LASF4477
C:\Users\CYMR90~1\AppData\Local\Temp\ccj5QhVO.s:27404  .debug_str:0000000000019648 .LASF4478
C:\Users\CYMR90~1\AppData\Local\Temp\ccj5QhVO.s:24101  .debug_str:000000000000c217 .LASF4479
C:\Users\CYMR90~1\AppData\Local\Temp\ccj5QhVO.s:21127  .debug_str:0000000000000351 .LASF4480
C:\Users\CYMR90~1\AppData\Local\Temp\ccj5QhVO.s:21175  .debug_str:00000000000005d3 .LASF4481
C:\Users\CYMR90~1\AppData\Local\Temp\ccj5QhVO.s:31396  .debug_str:000000000002945a .LASF4482
C:\Users\CYMR90~1\AppData\Local\Temp\ccj5QhVO.s:26415  .debug_str:0000000000015586 .LASF4483
C:\Users\CYMR90~1\AppData\Local\Temp\ccj5QhVO.s:23833  .debug_str:000000000000af9a .LASF4484
C:\Users\CYMR90~1\AppData\Local\Temp\ccj5QhVO.s:21147  .debug_str:0000000000000468 .LASF4485
C:\Users\CYMR90~1\AppData\Local\Temp\ccj5QhVO.s:28686  .debug_str:000000000001ea11 .LASF4486
C:\Users\CYMR90~1\AppData\Local\Temp\ccj5QhVO.s:26836  .debug_str:0000000000017257 .LASF4487
C:\Users\CYMR90~1\AppData\Local\Temp\ccj5QhVO.s:21711  .debug_str:000000000000267b .LASF4488
C:\Users\CYMR90~1\AppData\Local\Temp\ccj5QhVO.s:30838  .debug_str:0000000000027034 .LASF4489
C:\Users\CYMR90~1\AppData\Local\Temp\ccj5QhVO.s:32176  .debug_str:000000000002c478 .LASF4490
C:\Users\CYMR90~1\AppData\Local\Temp\ccj5QhVO.s:29138  .debug_str:0000000000020489 .LASF4491
C:\Users\CYMR90~1\AppData\Local\Temp\ccj5QhVO.s:24181  .debug_str:000000000000c707 .LASF4492
C:\Users\CYMR90~1\AppData\Local\Temp\ccj5QhVO.s:29754  .debug_str:0000000000022aab .LASF4493
C:\Users\CYMR90~1\AppData\Local\Temp\ccj5QhVO.s:24079  .debug_str:000000000000c0b2 .LASF4494
C:\Users\CYMR90~1\AppData\Local\Temp\ccj5QhVO.s:29742  .debug_str:00000000000229f8 .LASF4495
C:\Users\CYMR90~1\AppData\Local\Temp\ccj5QhVO.s:31288  .debug_str:0000000000028dc4 .LASF4496
C:\Users\CYMR90~1\AppData\Local\Temp\ccj5QhVO.s:22575  .debug_str:0000000000005dae .LASF4497
C:\Users\CYMR90~1\AppData\Local\Temp\ccj5QhVO.s:25377  .debug_str:0000000000011246 .LASF4498
C:\Users\CYMR90~1\AppData\Local\Temp\ccj5QhVO.s:24553  .debug_str:000000000000df0b .LASF4499
C:\Users\CYMR90~1\AppData\Local\Temp\ccj5QhVO.s:22231  .debug_str:0000000000004933 .LASF4500
C:\Users\CYMR90~1\AppData\Local\Temp\ccj5QhVO.s:23505  .debug_str:00000000000099ed .LASF4501
C:\Users\CYMR90~1\AppData\Local\Temp\ccj5QhVO.s:26041  .debug_str:0000000000013e70 .LASF4502
C:\Users\CYMR90~1\AppData\Local\Temp\ccj5QhVO.s:22051  .debug_str:0000000000003c8f .LASF4503
C:\Users\CYMR90~1\AppData\Local\Temp\ccj5QhVO.s:22815  .debug_str:0000000000006c22 .LASF4504
C:\Users\CYMR90~1\AppData\Local\Temp\ccj5QhVO.s:21077  .debug_str:000000000000002e .LASF4505
C:\Users\CYMR90~1\AppData\Local\Temp\ccj5QhVO.s:25361  .debug_str:0000000000011157 .LASF4506
C:\Users\CYMR90~1\AppData\Local\Temp\ccj5QhVO.s:27724  .debug_str:000000000001ac0b .LASF4507
C:\Users\CYMR90~1\AppData\Local\Temp\ccj5QhVO.s:26777  .debug_str:0000000000016d18 .LASF4508
C:\Users\CYMR90~1\AppData\Local\Temp\ccj5QhVO.s:32114  .debug_str:000000000002c074 .LASF4509
C:\Users\CYMR90~1\AppData\Local\Temp\ccj5QhVO.s:30178  .debug_str:00000000000244d2 .LASF4510
C:\Users\CYMR90~1\AppData\Local\Temp\ccj5QhVO.s:24651  .debug_str:000000000000e4c8 .LASF4511
C:\Users\CYMR90~1\AppData\Local\Temp\ccj5QhVO.s:28810  .debug_str:000000000001f12e .LASF4512
C:\Users\CYMR90~1\AppData\Local\Temp\ccj5QhVO.s:26297  .debug_str:0000000000014e03 .LASF4513
C:\Users\CYMR90~1\AppData\Local\Temp\ccj5QhVO.s:25069  .debug_str:000000000000feca .LASF4514
C:\Users\CYMR90~1\AppData\Local\Temp\ccj5QhVO.s:27324  .debug_str:000000000001908f .LASF4515
C:\Users\CYMR90~1\AppData\Local\Temp\ccj5QhVO.s:25891  .debug_str:0000000000013484 .LASF4516
C:\Users\CYMR90~1\AppData\Local\Temp\ccj5QhVO.s:21705  .debug_str:00000000000025e5 .LASF4517
C:\Users\CYMR90~1\AppData\Local\Temp\ccj5QhVO.s:28792  .debug_str:000000000001f00b .LASF4518
C:\Users\CYMR90~1\AppData\Local\Temp\ccj5QhVO.s:23685  .debug_str:000000000000a586 .LASF4519
C:\Users\CYMR90~1\AppData\Local\Temp\ccj5QhVO.s:21205  .debug_str:00000000000007c8 .LASF4520
C:\Users\CYMR90~1\AppData\Local\Temp\ccj5QhVO.s:27740  .debug_str:000000000001ad0a .LASF4521
C:\Users\CYMR90~1\AppData\Local\Temp\ccj5QhVO.s:31054  .debug_str:0000000000027de4 .LASF4522
C:\Users\CYMR90~1\AppData\Local\Temp\ccj5QhVO.s:26441  .debug_str:0000000000015703 .LASF4523
C:\Users\CYMR90~1\AppData\Local\Temp\ccj5QhVO.s:27388  .debug_str:0000000000019526 .LASF4524
C:\Users\CYMR90~1\AppData\Local\Temp\ccj5QhVO.s:24071  .debug_str:000000000000c02a .LASF4525
C:\Users\CYMR90~1\AppData\Local\Temp\ccj5QhVO.s:27446  .debug_str:00000000000198ef .LASF4526
C:\Users\CYMR90~1\AppData\Local\Temp\ccj5QhVO.s:29368  .debug_str:00000000000212a0 .LASF4527
C:\Users\CYMR90~1\AppData\Local\Temp\ccj5QhVO.s:27470  .debug_str:0000000000019af5 .LASF4528
C:\Users\CYMR90~1\AppData\Local\Temp\ccj5QhVO.s:22131  .debug_str:0000000000004238 .LASF4529
C:\Users\CYMR90~1\AppData\Local\Temp\ccj5QhVO.s:23733  .debug_str:000000000000a829 .LASF4530
C:\Users\CYMR90~1\AppData\Local\Temp\ccj5QhVO.s:24425  .debug_str:000000000000d7cc .LASF4531
C:\Users\CYMR90~1\AppData\Local\Temp\ccj5QhVO.s:29210  .debug_str:0000000000020965 .LASF4532
C:\Users\CYMR90~1\AppData\Local\Temp\ccj5QhVO.s:28804  .debug_str:000000000001f0c5 .LASF4533
C:\Users\CYMR90~1\AppData\Local\Temp\ccj5QhVO.s:24551  .debug_str:000000000000decf .LASF4534
C:\Users\CYMR90~1\AppData\Local\Temp\ccj5QhVO.s:28630  .debug_str:000000000001e66f .LASF4535
C:\Users\CYMR90~1\AppData\Local\Temp\ccj5QhVO.s:31696  .debug_str:000000000002a588 .LASF4536
C:\Users\CYMR90~1\AppData\Local\Temp\ccj5QhVO.s:25279  .debug_str:0000000000010c38 .LASF4537
C:\Users\CYMR90~1\AppData\Local\Temp\ccj5QhVO.s:26009  .debug_str:0000000000013c75 .LASF4538
C:\Users\CYMR90~1\AppData\Local\Temp\ccj5QhVO.s:29644  .debug_str:000000000002241c .LASF4539
C:\Users\CYMR90~1\AppData\Local\Temp\ccj5QhVO.s:31802  .debug_str:000000000002ac0b .LASF4540
C:\Users\CYMR90~1\AppData\Local\Temp\ccj5QhVO.s:25061  .debug_str:000000000000fe4b .LASF4541
C:\Users\CYMR90~1\AppData\Local\Temp\ccj5QhVO.s:29706  .debug_str:00000000000227a7 .LASF4542
C:\Users\CYMR90~1\AppData\Local\Temp\ccj5QhVO.s:32034  .debug_str:000000000002baca .LASF4543
C:\Users\CYMR90~1\AppData\Local\Temp\ccj5QhVO.s:30220  .debug_str:0000000000024796 .LASF4544
C:\Users\CYMR90~1\AppData\Local\Temp\ccj5QhVO.s:26717  .debug_str:000000000001688a .LASF4545
C:\Users\CYMR90~1\AppData\Local\Temp\ccj5QhVO.s:28196  .debug_str:000000000001c9db .LASF4546
C:\Users\CYMR90~1\AppData\Local\Temp\ccj5QhVO.s:27494  .debug_str:0000000000019c7e .LASF4547
C:\Users\CYMR90~1\AppData\Local\Temp\ccj5QhVO.s:25195  .debug_str:0000000000010672 .LASF4548
C:\Users\CYMR90~1\AppData\Local\Temp\ccj5QhVO.s:25641  .debug_str:0000000000012447 .LASF4549
C:\Users\CYMR90~1\AppData\Local\Temp\ccj5QhVO.s:21935  .debug_str:0000000000003549 .LASF4550
C:\Users\CYMR90~1\AppData\Local\Temp\ccj5QhVO.s:22805  .debug_str:0000000000006b98 .LASF4551
C:\Users\CYMR90~1\AppData\Local\Temp\ccj5QhVO.s:25697  .debug_str:00000000000127c0 .LASF4552
C:\Users\CYMR90~1\AppData\Local\Temp\ccj5QhVO.s:31844  .debug_str:000000000002ae9e .LASF4553
C:\Users\CYMR90~1\AppData\Local\Temp\ccj5QhVO.s:29288  .debug_str:0000000000020e45 .LASF4554
C:\Users\CYMR90~1\AppData\Local\Temp\ccj5QhVO.s:27598  .debug_str:000000000001a2b5 .LASF4555
C:\Users\CYMR90~1\AppData\Local\Temp\ccj5QhVO.s:21293  .debug_str:0000000000000d56 .LASF4556
C:\Users\CYMR90~1\AppData\Local\Temp\ccj5QhVO.s:31058  .debug_str:0000000000027e31 .LASF4557
C:\Users\CYMR90~1\AppData\Local\Temp\ccj5QhVO.s:32288  .debug_str:000000000002cbc9 .LASF4558
C:\Users\CYMR90~1\AppData\Local\Temp\ccj5QhVO.s:24455  .debug_str:000000000000d97f .LASF4559
C:\Users\CYMR90~1\AppData\Local\Temp\ccj5QhVO.s:27116  .debug_str:0000000000018355 .LASF4560
C:\Users\CYMR90~1\AppData\Local\Temp\ccj5QhVO.s:21443  .debug_str:0000000000001637 .LASF4561
C:\Users\CYMR90~1\AppData\Local\Temp\ccj5QhVO.s:30100  .debug_str:0000000000023f7e .LASF4562
C:\Users\CYMR90~1\AppData\Local\Temp\ccj5QhVO.s:26585  .debug_str:0000000000016021 .LASF4563
C:\Users\CYMR90~1\AppData\Local\Temp\ccj5QhVO.s:31766  .debug_str:000000000002aa14 .LASF4564
C:\Users\CYMR90~1\AppData\Local\Temp\ccj5QhVO.s:30702  .debug_str:00000000000267f1 .LASF4565
C:\Users\CYMR90~1\AppData\Local\Temp\ccj5QhVO.s:31768  .debug_str:000000000002aa32 .LASF4566
C:\Users\CYMR90~1\AppData\Local\Temp\ccj5QhVO.s:28132  .debug_str:000000000001c585 .LASF4567
C:\Users\CYMR90~1\AppData\Local\Temp\ccj5QhVO.s:21387  .debug_str:00000000000012e6 .LASF4568
C:\Users\CYMR90~1\AppData\Local\Temp\ccj5QhVO.s:30478  .debug_str:00000000000259b3 .LASF4569
C:\Users\CYMR90~1\AppData\Local\Temp\ccj5QhVO.s:28036  .debug_str:000000000001bf95 .LASF4570
C:\Users\CYMR90~1\AppData\Local\Temp\ccj5QhVO.s:23943  .debug_str:000000000000b72e .LASF4571
C:\Users\CYMR90~1\AppData\Local\Temp\ccj5QhVO.s:24673  .debug_str:000000000000e622 .LASF4572
C:\Users\CYMR90~1\AppData\Local\Temp\ccj5QhVO.s:29148  .debug_str:0000000000020560 .LASF4573
C:\Users\CYMR90~1\AppData\Local\Temp\ccj5QhVO.s:25829  .debug_str:0000000000013070 .LASF4574
C:\Users\CYMR90~1\AppData\Local\Temp\ccj5QhVO.s:30850  .debug_str:00000000000270ed .LASF4575
C:\Users\CYMR90~1\AppData\Local\Temp\ccj5QhVO.s:26351  .debug_str:00000000000151bb .LASF4576
C:\Users\CYMR90~1\AppData\Local\Temp\ccj5QhVO.s:26111  .debug_str:0000000000014297 .LASF4577
C:\Users\CYMR90~1\AppData\Local\Temp\ccj5QhVO.s:24171  .debug_str:000000000000c668 .LASF4578
C:\Users\CYMR90~1\AppData\Local\Temp\ccj5QhVO.s:29018  .debug_str:000000000001fda9 .LASF4579
C:\Users\CYMR90~1\AppData\Local\Temp\ccj5QhVO.s:24773  .debug_str:000000000000eccf .LASF4580
C:\Users\CYMR90~1\AppData\Local\Temp\ccj5QhVO.s:22485  .debug_str:0000000000005866 .LASF4581
C:\Users\CYMR90~1\AppData\Local\Temp\ccj5QhVO.s:31602  .debug_str:000000000002a03b .LASF4582
C:\Users\CYMR90~1\AppData\Local\Temp\ccj5QhVO.s:29324  .debug_str:0000000000021059 .LASF4583
C:\Users\CYMR90~1\AppData\Local\Temp\ccj5QhVO.s:32110  .debug_str:000000000002c03f .LASF4584
C:\Users\CYMR90~1\AppData\Local\Temp\ccj5QhVO.s:24975  .debug_str:000000000000f950 .LASF4585
C:\Users\CYMR90~1\AppData\Local\Temp\ccj5QhVO.s:23397  .debug_str:00000000000092fd .LASF4586
C:\Users\CYMR90~1\AppData\Local\Temp\ccj5QhVO.s:31800  .debug_str:000000000002abe9 .LASF4587
C:\Users\CYMR90~1\AppData\Local\Temp\ccj5QhVO.s:29414  .debug_str:0000000000021625 .LASF4588
C:\Users\CYMR90~1\AppData\Local\Temp\ccj5QhVO.s:31262  .debug_str:0000000000028c60 .LASF4589
C:\Users\CYMR90~1\AppData\Local\Temp\ccj5QhVO.s:22795  .debug_str:0000000000006afa .LASF4590
C:\Users\CYMR90~1\AppData\Local\Temp\ccj5QhVO.s:29562  .debug_str:0000000000021f40 .LASF4591
C:\Users\CYMR90~1\AppData\Local\Temp\ccj5QhVO.s:31426  .debug_str:00000000000295f0 .LASF4592
C:\Users\CYMR90~1\AppData\Local\Temp\ccj5QhVO.s:31156  .debug_str:0000000000028567 .LASF4593
C:\Users\CYMR90~1\AppData\Local\Temp\ccj5QhVO.s:30442  .debug_str:000000000002572e .LASF4594
C:\Users\CYMR90~1\AppData\Local\Temp\ccj5QhVO.s:27572  .debug_str:000000000001a141 .LASF4595
C:\Users\CYMR90~1\AppData\Local\Temp\ccj5QhVO.s:23567  .debug_str:0000000000009dda .LASF4596
C:\Users\CYMR90~1\AppData\Local\Temp\ccj5QhVO.s:24977  .debug_str:000000000000f972 .LASF4597
C:\Users\CYMR90~1\AppData\Local\Temp\ccj5QhVO.s:21665  .debug_str:000000000000239a .LASF4598
C:\Users\CYMR90~1\AppData\Local\Temp\ccj5QhVO.s:23719  .debug_str:000000000000a768 .LASF4599
C:\Users\CYMR90~1\AppData\Local\Temp\ccj5QhVO.s:28654  .debug_str:000000000001e801 .LASF4600
C:\Users\CYMR90~1\AppData\Local\Temp\ccj5QhVO.s:26900  .debug_str:00000000000175f8 .LASF4601
C:\Users\CYMR90~1\AppData\Local\Temp\ccj5QhVO.s:24377  .debug_str:000000000000d440 .LASF4602
C:\Users\CYMR90~1\AppData\Local\Temp\ccj5QhVO.s:32164  .debug_str:000000000002c364 .LASF4603
C:\Users\CYMR90~1\AppData\Local\Temp\ccj5QhVO.s:26735  .debug_str:0000000000016992 .LASF4604
C:\Users\CYMR90~1\AppData\Local\Temp\ccj5QhVO.s:25173  .debug_str:000000000001051f .LASF4605
C:\Users\CYMR90~1\AppData\Local\Temp\ccj5QhVO.s:21873  .debug_str:000000000000312c .LASF4606
C:\Users\CYMR90~1\AppData\Local\Temp\ccj5QhVO.s:21395  .debug_str:0000000000001385 .LASF4607
C:\Users\CYMR90~1\AppData\Local\Temp\ccj5QhVO.s:26745  .debug_str:0000000000016a98 .LASF4608
C:\Users\CYMR90~1\AppData\Local\Temp\ccj5QhVO.s:23287  .debug_str:0000000000008c30 .LASF4609
C:\Users\CYMR90~1\AppData\Local\Temp\ccj5QhVO.s:30936  .debug_str:00000000000276b9 .LASF4610
C:\Users\CYMR90~1\AppData\Local\Temp\ccj5QhVO.s:29858  .debug_str:0000000000023127 .LASF4611
C:\Users\CYMR90~1\AppData\Local\Temp\ccj5QhVO.s:21637  .debug_str:00000000000021f5 .LASF4612
C:\Users\CYMR90~1\AppData\Local\Temp\ccj5QhVO.s:22755  .debug_str:000000000000688d .LASF4613
C:\Users\CYMR90~1\AppData\Local\Temp\ccj5QhVO.s:31078  .debug_str:0000000000027f8f .LASF4614
C:\Users\CYMR90~1\AppData\Local\Temp\ccj5QhVO.s:28586  .debug_str:000000000001e3e7 .LASF4615
C:\Users\CYMR90~1\AppData\Local\Temp\ccj5QhVO.s:23119  .debug_str:000000000000816f .LASF4616
C:\Users\CYMR90~1\AppData\Local\Temp\ccj5QhVO.s:24437  .debug_str:000000000000d892 .LASF4617
C:\Users\CYMR90~1\AppData\Local\Temp\ccj5QhVO.s:24837  .debug_str:000000000000f04b .LASF4618
C:\Users\CYMR90~1\AppData\Local\Temp\ccj5QhVO.s:28268  .debug_str:000000000001ce98 .LASF4619
C:\Users\CYMR90~1\AppData\Local\Temp\ccj5QhVO.s:25691  .debug_str:000000000001274a .LASF4620
C:\Users\CYMR90~1\AppData\Local\Temp\ccj5QhVO.s:21619  .debug_str:00000000000020fc .LASF4621
C:\Users\CYMR90~1\AppData\Local\Temp\ccj5QhVO.s:30228  .debug_str:0000000000024830 .LASF4622
C:\Users\CYMR90~1\AppData\Local\Temp\ccj5QhVO.s:31578  .debug_str:0000000000029f0d .LASF4623
C:\Users\CYMR90~1\AppData\Local\Temp\ccj5QhVO.s:24815  .debug_str:000000000000ef04 .LASF4624
C:\Users\CYMR90~1\AppData\Local\Temp\ccj5QhVO.s:28188  .debug_str:000000000001c8c5 .LASF4625
C:\Users\CYMR90~1\AppData\Local\Temp\ccj5QhVO.s:23897  .debug_str:000000000000b41c .LASF4626
C:\Users\CYMR90~1\AppData\Local\Temp\ccj5QhVO.s:27044  .debug_str:0000000000017eff .LASF4627
C:\Users\CYMR90~1\AppData\Local\Temp\ccj5QhVO.s:25227  .debug_str:00000000000108f6 .LASF4628
C:\Users\CYMR90~1\AppData\Local\Temp\ccj5QhVO.s:21709  .debug_str:0000000000002659 .LASF4629
C:\Users\CYMR90~1\AppData\Local\Temp\ccj5QhVO.s:29840  .debug_str:000000000002301e .LASF4630
C:\Users\CYMR90~1\AppData\Local\Temp\ccj5QhVO.s:21429  .debug_str:0000000000001539 .LASF4631
C:\Users\CYMR90~1\AppData\Local\Temp\ccj5QhVO.s:21261  .debug_str:0000000000000b94 .LASF4632
C:\Users\CYMR90~1\AppData\Local\Temp\ccj5QhVO.s:22333  .debug_str:0000000000004f72 .LASF4633
C:\Users\CYMR90~1\AppData\Local\Temp\ccj5QhVO.s:22977  .debug_str:0000000000007710 .LASF4634
C:\Users\CYMR90~1\AppData\Local\Temp\ccj5QhVO.s:30654  .debug_str:000000000002651c .LASF4635
C:\Users\CYMR90~1\AppData\Local\Temp\ccj5QhVO.s:21625  .debug_str:0000000000002155 .LASF4636
C:\Users\CYMR90~1\AppData\Local\Temp\ccj5QhVO.s:29384  .debug_str:00000000000213a7 .LASF4637
C:\Users\CYMR90~1\AppData\Local\Temp\ccj5QhVO.s:23977  .debug_str:000000000000b992 .LASF4638
C:\Users\CYMR90~1\AppData\Local\Temp\ccj5QhVO.s:26818  .debug_str:0000000000017159 .LASF4639
C:\Users\CYMR90~1\AppData\Local\Temp\ccj5QhVO.s:23327  .debug_str:0000000000008f07 .LASF4640
C:\Users\CYMR90~1\AppData\Local\Temp\ccj5QhVO.s:29004  .debug_str:000000000001fcd0 .LASF4641
C:\Users\CYMR90~1\AppData\Local\Temp\ccj5QhVO.s:29622  .debug_str:00000000000222d3 .LASF4642
C:\Users\CYMR90~1\AppData\Local\Temp\ccj5QhVO.s:27182  .debug_str:0000000000018741 .LASF4643
C:\Users\CYMR90~1\AppData\Local\Temp\ccj5QhVO.s:29712  .debug_str:000000000002281d .LASF4644
C:\Users\CYMR90~1\AppData\Local\Temp\ccj5QhVO.s:26663  .debug_str:000000000001650b .LASF4645
C:\Users\CYMR90~1\AppData\Local\Temp\ccj5QhVO.s:26567  .debug_str:0000000000015ef2 .LASF4646
C:\Users\CYMR90~1\AppData\Local\Temp\ccj5QhVO.s:26161  .debug_str:00000000000145db .LASF4647
C:\Users\CYMR90~1\AppData\Local\Temp\ccj5QhVO.s:28724  .debug_str:000000000001ec4a .LASF4648
C:\Users\CYMR90~1\AppData\Local\Temp\ccj5QhVO.s:25397  .debug_str:000000000001138d .LASF4649
C:\Users\CYMR90~1\AppData\Local\Temp\ccj5QhVO.s:28442  .debug_str:000000000001dae3 .LASF4650
C:\Users\CYMR90~1\AppData\Local\Temp\ccj5QhVO.s:32350  .debug_str:000000000002d009 .LASF4651
C:\Users\CYMR90~1\AppData\Local\Temp\ccj5QhVO.s:24661  .debug_str:000000000000e56b .LASF4652
C:\Users\CYMR90~1\AppData\Local\Temp\ccj5QhVO.s:27144  .debug_str:00000000000184fe .LASF4653
C:\Users\CYMR90~1\AppData\Local\Temp\ccj5QhVO.s:21479  .debug_str:00000000000018ff .LASF4654
C:\Users\CYMR90~1\AppData\Local\Temp\ccj5QhVO.s:22119  .debug_str:00000000000040ee .LASF4655
C:\Users\CYMR90~1\AppData\Local\Temp\ccj5QhVO.s:31674  .debug_str:000000000002a421 .LASF4656
C:\Users\CYMR90~1\AppData\Local\Temp\ccj5QhVO.s:25311  .debug_str:0000000000010ec4 .LASF4657
C:\Users\CYMR90~1\AppData\Local\Temp\ccj5QhVO.s:30120  .debug_str:00000000000240a7 .LASF4658
C:\Users\CYMR90~1\AppData\Local\Temp\ccj5QhVO.s:24007  .debug_str:000000000000bbaa .LASF4659
C:\Users\CYMR90~1\AppData\Local\Temp\ccj5QhVO.s:21143  .debug_str:000000000000043a .LASF4660
C:\Users\CYMR90~1\AppData\Local\Temp\ccj5QhVO.s:29264  .debug_str:0000000000020cd0 .LASF4661
C:\Users\CYMR90~1\AppData\Local\Temp\ccj5QhVO.s:29996  .debug_str:0000000000023948 .LASF4662
C:\Users\CYMR90~1\AppData\Local\Temp\ccj5QhVO.s:30540  .debug_str:0000000000025e2f .LASF4663
C:\Users\CYMR90~1\AppData\Local\Temp\ccj5QhVO.s:30180  .debug_str:0000000000024502 .LASF4664
C:\Users\CYMR90~1\AppData\Local\Temp\ccj5QhVO.s:23445  .debug_str:0000000000009613 .LASF4665
C:\Users\CYMR90~1\AppData\Local\Temp\ccj5QhVO.s:26447  .debug_str:000000000001575b .LASF4666
C:\Users\CYMR90~1\AppData\Local\Temp\ccj5QhVO.s:31970  .debug_str:000000000002b6b3 .LASF4667
C:\Users\CYMR90~1\AppData\Local\Temp\ccj5QhVO.s:30226  .debug_str:000000000002480e .LASF4668
C:\Users\CYMR90~1\AppData\Local\Temp\ccj5QhVO.s:22933  .debug_str:0000000000007455 .LASF4669
C:\Users\CYMR90~1\AppData\Local\Temp\ccj5QhVO.s:28466  .debug_str:000000000001dc42 .LASF4670
C:\Users\CYMR90~1\AppData\Local\Temp\ccj5QhVO.s:26649  .debug_str:000000000001641f .LASF4671
C:\Users\CYMR90~1\AppData\Local\Temp\ccj5QhVO.s:23335  .debug_str:0000000000008f76 .LASF4672
C:\Users\CYMR90~1\AppData\Local\Temp\ccj5QhVO.s:25277  .debug_str:0000000000010c12 .LASF4673
C:\Users\CYMR90~1\AppData\Local\Temp\ccj5QhVO.s:27234  .debug_str:0000000000018a60 .LASF4674
C:\Users\CYMR90~1\AppData\Local\Temp\ccj5QhVO.s:26908  .debug_str:0000000000017654 .LASF4675
C:\Users\CYMR90~1\AppData\Local\Temp\ccj5QhVO.s:26677  .debug_str:00000000000165b6 .LASF4676
C:\Users\CYMR90~1\AppData\Local\Temp\ccj5QhVO.s:22067  .debug_str:0000000000003dbb .LASF4677
C:\Users\CYMR90~1\AppData\Local\Temp\ccj5QhVO.s:30958  .debug_str:00000000000277f3 .LASF4678
C:\Users\CYMR90~1\AppData\Local\Temp\ccj5QhVO.s:24633  .debug_str:000000000000e3cf .LASF4679
C:\Users\CYMR90~1\AppData\Local\Temp\ccj5QhVO.s:22111  .debug_str:000000000000406b .LASF4680
C:\Users\CYMR90~1\AppData\Local\Temp\ccj5QhVO.s:26287  .debug_str:0000000000014d5b .LASF4681
C:\Users\CYMR90~1\AppData\Local\Temp\ccj5QhVO.s:24629  .debug_str:000000000000e390 .LASF4682
C:\Users\CYMR90~1\AppData\Local\Temp\ccj5QhVO.s:21649  .debug_str:00000000000022bf .LASF4683
C:\Users\CYMR90~1\AppData\Local\Temp\ccj5QhVO.s:31808  .debug_str:000000000002ac6f .LASF4684
C:\Users\CYMR90~1\AppData\Local\Temp\ccj5QhVO.s:23237  .debug_str:00000000000088e9 .LASF4685
C:\Users\CYMR90~1\AppData\Local\Temp\ccj5QhVO.s:21829  .debug_str:0000000000002e63 .LASF4686
C:\Users\CYMR90~1\AppData\Local\Temp\ccj5QhVO.s:31610  .debug_str:000000000002a0b1 .LASF4687
C:\Users\CYMR90~1\AppData\Local\Temp\ccj5QhVO.s:31536  .debug_str:0000000000029c68 .LASF4688
C:\Users\CYMR90~1\AppData\Local\Temp\ccj5QhVO.s:31062  .debug_str:0000000000027e6e .LASF4689
C:\Users\CYMR90~1\AppData\Local\Temp\ccj5QhVO.s:27600  .debug_str:000000000001a2cc .LASF4690
C:\Users\CYMR90~1\AppData\Local\Temp\ccj5QhVO.s:30484  .debug_str:0000000000025a2f .LASF4691
C:\Users\CYMR90~1\AppData\Local\Temp\ccj5QhVO.s:26387  .debug_str:000000000001540e .LASF4692
C:\Users\CYMR90~1\AppData\Local\Temp\ccj5QhVO.s:32320  .debug_str:000000000002cd93 .LASF4693
C:\Users\CYMR90~1\AppData\Local\Temp\ccj5QhVO.s:31208  .debug_str:00000000000288fc .LASF4694
C:\Users\CYMR90~1\AppData\Local\Temp\ccj5QhVO.s:29940  .debug_str:0000000000023574 .LASF4695
C:\Users\CYMR90~1\AppData\Local\Temp\ccj5QhVO.s:28754  .debug_str:000000000001ede4 .LASF4696
C:\Users\CYMR90~1\AppData\Local\Temp\ccj5QhVO.s:25199  .debug_str:00000000000106e5 .LASF4697
C:\Users\CYMR90~1\AppData\Local\Temp\ccj5QhVO.s:32206  .debug_str:000000000002c68c .LASF4698
C:\Users\CYMR90~1\AppData\Local\Temp\ccj5QhVO.s:30356  .debug_str:000000000002508d .LASF4699
C:\Users\CYMR90~1\AppData\Local\Temp\ccj5QhVO.s:30264  .debug_str:0000000000024a52 .LASF4700
C:\Users\CYMR90~1\AppData\Local\Temp\ccj5QhVO.s:22849  .debug_str:0000000000006e9f .LASF4701
C:\Users\CYMR90~1\AppData\Local\Temp\ccj5QhVO.s:26705  .debug_str:00000000000167cf .LASF4702
C:\Users\CYMR90~1\AppData\Local\Temp\ccj5QhVO.s:31020  .debug_str:0000000000027b6d .LASF4703
C:\Users\CYMR90~1\AppData\Local\Temp\ccj5QhVO.s:28250  .debug_str:000000000001cd5c .LASF4704
C:\Users\CYMR90~1\AppData\Local\Temp\ccj5QhVO.s:30814  .debug_str:0000000000026e80 .LASF4705
C:\Users\CYMR90~1\AppData\Local\Temp\ccj5QhVO.s:27010  .debug_str:0000000000017d0c .LASF4706
C:\Users\CYMR90~1\AppData\Local\Temp\ccj5QhVO.s:29960  .debug_str:00000000000236ce .LASF4707
C:\Users\CYMR90~1\AppData\Local\Temp\ccj5QhVO.s:23139  .debug_str:00000000000082d6 .LASF4708
C:\Users\CYMR90~1\AppData\Local\Temp\ccj5QhVO.s:28236  .debug_str:000000000001cc79 .LASF4709
C:\Users\CYMR90~1\AppData\Local\Temp\ccj5QhVO.s:21813  .debug_str:0000000000002d77 .LASF4710
C:\Users\CYMR90~1\AppData\Local\Temp\ccj5QhVO.s:22723  .debug_str:0000000000006653 .LASF4711
C:\Users\CYMR90~1\AppData\Local\Temp\ccj5QhVO.s:26697  .debug_str:000000000001675c .LASF4712
C:\Users\CYMR90~1\AppData\Local\Temp\ccj5QhVO.s:27860  .debug_str:000000000001b4e4 .LASF4713
C:\Users\CYMR90~1\AppData\Local\Temp\ccj5QhVO.s:22101  .debug_str:0000000000004002 .LASF4714
C:\Users\CYMR90~1\AppData\Local\Temp\ccj5QhVO.s:30558  .debug_str:0000000000025f29 .LASF4715
C:\Users\CYMR90~1\AppData\Local\Temp\ccj5QhVO.s:24713  .debug_str:000000000000e8fd .LASF4716
C:\Users\CYMR90~1\AppData\Local\Temp\ccj5QhVO.s:28322  .debug_str:000000000001d31f .LASF4717
C:\Users\CYMR90~1\AppData\Local\Temp\ccj5QhVO.s:26197  .debug_str:00000000000147c6 .LASF4718
C:\Users\CYMR90~1\AppData\Local\Temp\ccj5QhVO.s:23859  .debug_str:000000000000b1d6 .LASF4719
C:\Users\CYMR90~1\AppData\Local\Temp\ccj5QhVO.s:29280  .debug_str:0000000000020dc1 .LASF4720
C:\Users\CYMR90~1\AppData\Local\Temp\ccj5QhVO.s:30666  .debug_str:00000000000265af .LASF4721
C:\Users\CYMR90~1\AppData\Local\Temp\ccj5QhVO.s:28968  .debug_str:000000000001fa94 .LASF4722
C:\Users\CYMR90~1\AppData\Local\Temp\ccj5QhVO.s:29564  .debug_str:0000000000021f64 .LASF4723
C:\Users\CYMR90~1\AppData\Local\Temp\ccj5QhVO.s:27832  .debug_str:000000000001b2fb .LASF4724
C:\Users\CYMR90~1\AppData\Local\Temp\ccj5QhVO.s:29120  .debug_str:0000000000020394 .LASF4725
C:\Users\CYMR90~1\AppData\Local\Temp\ccj5QhVO.s:30616  .debug_str:00000000000262d8 .LASF4726
C:\Users\CYMR90~1\AppData\Local\Temp\ccj5QhVO.s:30104  .debug_str:0000000000023fbe .LASF4727
C:\Users\CYMR90~1\AppData\Local\Temp\ccj5QhVO.s:27858  .debug_str:000000000001b4c2 .LASF4728
C:\Users\CYMR90~1\AppData\Local\Temp\ccj5QhVO.s:32374  .debug_str:000000000002d14e .LASF4729
C:\Users\CYMR90~1\AppData\Local\Temp\ccj5QhVO.s:22717  .debug_str:00000000000065f4 .LASF4730
C:\Users\CYMR90~1\AppData\Local\Temp\ccj5QhVO.s:23217  .debug_str:000000000000878b .LASF4731
C:\Users\CYMR90~1\AppData\Local\Temp\ccj5QhVO.s:29814  .debug_str:0000000000022e9f .LASF4732
C:\Users\CYMR90~1\AppData\Local\Temp\ccj5QhVO.s:29762  .debug_str:0000000000022b43 .LASF4733
C:\Users\CYMR90~1\AppData\Local\Temp\ccj5QhVO.s:26209  .debug_str:00000000000148cd .LASF4734
C:\Users\CYMR90~1\AppData\Local\Temp\ccj5QhVO.s:21245  .debug_str:0000000000000a3a .LASF4735
C:\Users\CYMR90~1\AppData\Local\Temp\ccj5QhVO.s:25989  .debug_str:0000000000013b51 .LASF4736
C:\Users\CYMR90~1\AppData\Local\Temp\ccj5QhVO.s:27094  .debug_str:00000000000181cd .LASF4737
C:\Users\CYMR90~1\AppData\Local\Temp\ccj5QhVO.s:28388  .debug_str:000000000001d72b .LASF4738
C:\Users\CYMR90~1\AppData\Local\Temp\ccj5QhVO.s:28298  .debug_str:000000000001d11f .LASF4739
C:\Users\CYMR90~1\AppData\Local\Temp\ccj5QhVO.s:26323  .debug_str:0000000000014ff2 .LASF4740
C:\Users\CYMR90~1\AppData\Local\Temp\ccj5QhVO.s:21633  .debug_str:00000000000021ae .LASF4741
C:\Users\CYMR90~1\AppData\Local\Temp\ccj5QhVO.s:23095  .debug_str:0000000000007f4f .LASF4742
C:\Users\CYMR90~1\AppData\Local\Temp\ccj5QhVO.s:24139  .debug_str:000000000000c481 .LASF4743
C:\Users\CYMR90~1\AppData\Local\Temp\ccj5QhVO.s:26467  .debug_str:000000000001588c .LASF4744
C:\Users\CYMR90~1\AppData\Local\Temp\ccj5QhVO.s:27984  .debug_str:000000000001bc23 .LASF4745
C:\Users\CYMR90~1\AppData\Local\Temp\ccj5QhVO.s:31720  .debug_str:000000000002a72a .LASF4746
C:\Users\CYMR90~1\AppData\Local\Temp\ccj5QhVO.s:23213  .debug_str:0000000000008759 .LASF4747
C:\Users\CYMR90~1\AppData\Local\Temp\ccj5QhVO.s:22237  .debug_str:0000000000004994 .LASF4748
C:\Users\CYMR90~1\AppData\Local\Temp\ccj5QhVO.s:28564  .debug_str:000000000001e28b .LASF4749
C:\Users\CYMR90~1\AppData\Local\Temp\ccj5QhVO.s:30198  .debug_str:0000000000024647 .LASF4750
C:\Users\CYMR90~1\AppData\Local\Temp\ccj5QhVO.s:31712  .debug_str:000000000002a6c0 .LASF4751
C:\Users\CYMR90~1\AppData\Local\Temp\ccj5QhVO.s:25049  .debug_str:000000000000fd7c .LASF4752
C:\Users\CYMR90~1\AppData\Local\Temp\ccj5QhVO.s:29588  .debug_str:00000000000220cc .LASF4753
C:\Users\CYMR90~1\AppData\Local\Temp\ccj5QhVO.s:31148  .debug_str:00000000000284e3 .LASF4754
C:\Users\CYMR90~1\AppData\Local\Temp\ccj5QhVO.s:27020  .debug_str:0000000000017d87 .LASF4755
C:\Users\CYMR90~1\AppData\Local\Temp\ccj5QhVO.s:26343  .debug_str:0000000000015142 .LASF4756
C:\Users\CYMR90~1\AppData\Local\Temp\ccj5QhVO.s:31914  .debug_str:000000000002b2a3 .LASF4757
C:\Users\CYMR90~1\AppData\Local\Temp\ccj5QhVO.s:23895  .debug_str:000000000000b3f3 .LASF4758
C:\Users\CYMR90~1\AppData\Local\Temp\ccj5QhVO.s:31412  .debug_str:000000000002951d .LASF4759
C:\Users\CYMR90~1\AppData\Local\Temp\ccj5QhVO.s:26421  .debug_str:00000000000155ee .LASF4760
C:\Users\CYMR90~1\AppData\Local\Temp\ccj5QhVO.s:29472  .debug_str:00000000000219bc .LASF4761
C:\Users\CYMR90~1\AppData\Local\Temp\ccj5QhVO.s:31818  .debug_str:000000000002ad0d .LASF4762
C:\Users\CYMR90~1\AppData\Local\Temp\ccj5QhVO.s:21215  .debug_str:000000000000085f .LASF4763
C:\Users\CYMR90~1\AppData\Local\Temp\ccj5QhVO.s:21161  .debug_str:000000000000051d .LASF4764
C:\Users\CYMR90~1\AppData\Local\Temp\ccj5QhVO.s:28770  .debug_str:000000000001eedf .LASF4765
C:\Users\CYMR90~1\AppData\Local\Temp\ccj5QhVO.s:23635  .debug_str:000000000000a24c .LASF4766
C:\Users\CYMR90~1\AppData\Local\Temp\ccj5QhVO.s:22457  .debug_str:00000000000056c5 .LASF4767
C:\Users\CYMR90~1\AppData\Local\Temp\ccj5QhVO.s:24973  .debug_str:000000000000f926 .LASF4768
C:\Users\CYMR90~1\AppData\Local\Temp\ccj5QhVO.s:27228  .debug_str:00000000000189ee .LASF4769
C:\Users\CYMR90~1\AppData\Local\Temp\ccj5QhVO.s:21731  .debug_str:00000000000027f9 .LASF4770
C:\Users\CYMR90~1\AppData\Local\Temp\ccj5QhVO.s:27474  .debug_str:0000000000019b48 .LASF4771
C:\Users\CYMR90~1\AppData\Local\Temp\ccj5QhVO.s:28824  .debug_str:000000000001f220 .LASF4772
C:\Users\CYMR90~1\AppData\Local\Temp\ccj5QhVO.s:21253  .debug_str:0000000000000b00 .LASF4773
C:\Users\CYMR90~1\AppData\Local\Temp\ccj5QhVO.s:22695  .debug_str:00000000000064c4 .LASF4774
C:\Users\CYMR90~1\AppData\Local\Temp\ccj5QhVO.s:25739  .debug_str:0000000000012a8c .LASF4775
C:\Users\CYMR90~1\AppData\Local\Temp\ccj5QhVO.s:28096  .debug_str:000000000001c37f .LASF4776
C:\Users\CYMR90~1\AppData\Local\Temp\ccj5QhVO.s:28312  .debug_str:000000000001d27d .LASF4777
C:\Users\CYMR90~1\AppData\Local\Temp\ccj5QhVO.s:31868  .debug_str:000000000002b00d .LASF4778
C:\Users\CYMR90~1\AppData\Local\Temp\ccj5QhVO.s:24057  .debug_str:000000000000bf2c .LASF4779
C:\Users\CYMR90~1\AppData\Local\Temp\ccj5QhVO.s:27064  .debug_str:0000000000018042 .LASF4780
C:\Users\CYMR90~1\AppData\Local\Temp\ccj5QhVO.s:26085  .debug_str:0000000000014109 .LASF4781
C:\Users\CYMR90~1\AppData\Local\Temp\ccj5QhVO.s:28714  .debug_str:000000000001ebc8 .LASF4782
C:\Users\CYMR90~1\AppData\Local\Temp\ccj5QhVO.s:29266  .debug_str:0000000000020ce6 .LASF4783
C:\Users\CYMR90~1\AppData\Local\Temp\ccj5QhVO.s:29270  .debug_str:0000000000020d1f .LASF4784
C:\Users\CYMR90~1\AppData\Local\Temp\ccj5QhVO.s:26201  .debug_str:000000000001482c .LASF4785
C:\Users\CYMR90~1\AppData\Local\Temp\ccj5QhVO.s:25145  .debug_str:0000000000010382 .LASF4786
C:\Users\CYMR90~1\AppData\Local\Temp\ccj5QhVO.s:31606  .debug_str:000000000002a078 .LASF4787
C:\Users\CYMR90~1\AppData\Local\Temp\ccj5QhVO.s:23247  .debug_str:00000000000089aa .LASF4788
C:\Users\CYMR90~1\AppData\Local\Temp\ccj5QhVO.s:25009  .debug_str:000000000000fb13 .LASF4789
C:\Users\CYMR90~1\AppData\Local\Temp\ccj5QhVO.s:21791  .debug_str:0000000000002c0d .LASF4790
C:\Users\CYMR90~1\AppData\Local\Temp\ccj5QhVO.s:25037  .debug_str:000000000000fcdb .LASF4791
C:\Users\CYMR90~1\AppData\Local\Temp\ccj5QhVO.s:26864  .debug_str:00000000000173e2 .LASF4792
C:\Users\CYMR90~1\AppData\Local\Temp\ccj5QhVO.s:24493  .debug_str:000000000000db99 .LASF4793
C:\Users\CYMR90~1\AppData\Local\Temp\ccj5QhVO.s:26940  .debug_str:0000000000017862 .LASF4794
C:\Users\CYMR90~1\AppData\Local\Temp\ccj5QhVO.s:23517  .debug_str:0000000000009acc .LASF4795
C:\Users\CYMR90~1\AppData\Local\Temp\ccj5QhVO.s:26337  .debug_str:00000000000150e4 .LASF4796
C:\Users\CYMR90~1\AppData\Local\Temp\ccj5QhVO.s:23269  .debug_str:0000000000008b0d .LASF4797
C:\Users\CYMR90~1\AppData\Local\Temp\ccj5QhVO.s:23203  .debug_str:00000000000086bf .LASF4798
C:\Users\CYMR90~1\AppData\Local\Temp\ccj5QhVO.s:31866  .debug_str:000000000002afe8 .LASF4799
C:\Users\CYMR90~1\AppData\Local\Temp\ccj5QhVO.s:30152  .debug_str:000000000002431d .LASF4800
C:\Users\CYMR90~1\AppData\Local\Temp\ccj5QhVO.s:31852  .debug_str:000000000002af27 .LASF4801
C:\Users\CYMR90~1\AppData\Local\Temp\ccj5QhVO.s:27126  .debug_str:00000000000183d7 .LASF4802
C:\Users\CYMR90~1\AppData\Local\Temp\ccj5QhVO.s:31340  .debug_str:00000000000290e1 .LASF4803
C:\Users\CYMR90~1\AppData\Local\Temp\ccj5QhVO.s:31018  .debug_str:0000000000027b4b .LASF4804
C:\Users\CYMR90~1\AppData\Local\Temp\ccj5QhVO.s:23493  .debug_str:0000000000009932 .LASF4805
C:\Users\CYMR90~1\AppData\Local\Temp\ccj5QhVO.s:30758  .debug_str:0000000000026b51 .LASF4806
C:\Users\CYMR90~1\AppData\Local\Temp\ccj5QhVO.s:27110  .debug_str:00000000000182ec .LASF4807
C:\Users\CYMR90~1\AppData\Local\Temp\ccj5QhVO.s:25719  .debug_str:0000000000012935 .LASF4808
C:\Users\CYMR90~1\AppData\Local\Temp\ccj5QhVO.s:30892  .debug_str:0000000000027310 .LASF4809
C:\Users\CYMR90~1\AppData\Local\Temp\ccj5QhVO.s:24893  .debug_str:000000000000f3af .LASF4810
C:\Users\CYMR90~1\AppData\Local\Temp\ccj5QhVO.s:28272  .debug_str:000000000001cedc .LASF4811
C:\Users\CYMR90~1\AppData\Local\Temp\ccj5QhVO.s:27302  .debug_str:0000000000018f7a .LASF4812
C:\Users\CYMR90~1\AppData\Local\Temp\ccj5QhVO.s:24221  .debug_str:000000000000c9ef .LASF4813
C:\Users\CYMR90~1\AppData\Local\Temp\ccj5QhVO.s:30414  .debug_str:0000000000025536 .LASF4814
C:\Users\CYMR90~1\AppData\Local\Temp\ccj5QhVO.s:23627  .debug_str:000000000000a1d6 .LASF4815
C:\Users\CYMR90~1\AppData\Local\Temp\ccj5QhVO.s:30234  .debug_str:0000000000024875 .LASF4816
C:\Users\CYMR90~1\AppData\Local\Temp\ccj5QhVO.s:28040  .debug_str:000000000001bfdf .LASF4817
C:\Users\CYMR90~1\AppData\Local\Temp\ccj5QhVO.s:24355  .debug_str:000000000000d279 .LASF4818
C:\Users\CYMR90~1\AppData\Local\Temp\ccj5QhVO.s:25215  .debug_str:0000000000010872 .LASF4819
C:\Users\CYMR90~1\AppData\Local\Temp\ccj5QhVO.s:21571  .debug_str:0000000000001e72 .LASF4820
C:\Users\CYMR90~1\AppData\Local\Temp\ccj5QhVO.s:26814  .debug_str:0000000000017114 .LASF4821
C:\Users\CYMR90~1\AppData\Local\Temp\ccj5QhVO.s:28116  .debug_str:000000000001c49c .LASF4822
C:\Users\CYMR90~1\AppData\Local\Temp\ccj5QhVO.s:26235  .debug_str:0000000000014a35 .LASF4823
C:\Users\CYMR90~1\AppData\Local\Temp\ccj5QhVO.s:22181  .debug_str:000000000000454b .LASF4824
C:\Users\CYMR90~1\AppData\Local\Temp\ccj5QhVO.s:27760  .debug_str:000000000001ae34 .LASF4825
C:\Users\CYMR90~1\AppData\Local\Temp\ccj5QhVO.s:30508  .debug_str:0000000000025c22 .LASF4826
C:\Users\CYMR90~1\AppData\Local\Temp\ccj5QhVO.s:24949  .debug_str:000000000000f70f .LASF4827
C:\Users\CYMR90~1\AppData\Local\Temp\ccj5QhVO.s:24051  .debug_str:000000000000be98 .LASF4828
C:\Users\CYMR90~1\AppData\Local\Temp\ccj5QhVO.s:21081  .debug_str:0000000000000088 .LASF4829
C:\Users\CYMR90~1\AppData\Local\Temp\ccj5QhVO.s:24129  .debug_str:000000000000c3fe .LASF4830
C:\Users\CYMR90~1\AppData\Local\Temp\ccj5QhVO.s:22719  .debug_str:0000000000006617 .LASF4831
C:\Users\CYMR90~1\AppData\Local\Temp\ccj5QhVO.s:32056  .debug_str:000000000002bc49 .LASF4832
C:\Users\CYMR90~1\AppData\Local\Temp\ccj5QhVO.s:26473  .debug_str:00000000000158dd .LASF4833
C:\Users\CYMR90~1\AppData\Local\Temp\ccj5QhVO.s:24013  .debug_str:000000000000bbf1 .LASF4834
C:\Users\CYMR90~1\AppData\Local\Temp\ccj5QhVO.s:26327  .debug_str:0000000000015039 .LASF4835
C:\Users\CYMR90~1\AppData\Local\Temp\ccj5QhVO.s:23965  .debug_str:000000000000b8c7 .LASF4836
C:\Users\CYMR90~1\AppData\Local\Temp\ccj5QhVO.s:26519  .debug_str:0000000000015ba7 .LASF4837
C:\Users\CYMR90~1\AppData\Local\Temp\ccj5QhVO.s:25415  .debug_str:0000000000011479 .LASF4838
C:\Users\CYMR90~1\AppData\Local\Temp\ccj5QhVO.s:30676  .debug_str:0000000000026658 .LASF4839
C:\Users\CYMR90~1\AppData\Local\Temp\ccj5QhVO.s:24147  .debug_str:000000000000c527 .LASF4840
C:\Users\CYMR90~1\AppData\Local\Temp\ccj5QhVO.s:26397  .debug_str:00000000000154ae .LASF4841
C:\Users\CYMR90~1\AppData\Local\Temp\ccj5QhVO.s:25327  .debug_str:0000000000010f96 .LASF4842
C:\Users\CYMR90~1\AppData\Local\Temp\ccj5QhVO.s:31210  .debug_str:000000000002891e .LASF4843
C:\Users\CYMR90~1\AppData\Local\Temp\ccj5QhVO.s:22979  .debug_str:0000000000007732 .LASF4844
C:\Users\CYMR90~1\AppData\Local\Temp\ccj5QhVO.s:26345  .debug_str:000000000001516b .LASF4845
C:\Users\CYMR90~1\AppData\Local\Temp\ccj5QhVO.s:32118  .debug_str:000000000002c0cc .LASF4846
C:\Users\CYMR90~1\AppData\Local\Temp\ccj5QhVO.s:22409  .debug_str:00000000000053db .LASF4847
C:\Users\CYMR90~1\AppData\Local\Temp\ccj5QhVO.s:21279  .debug_str:0000000000000c8c .LASF4848
C:\Users\CYMR90~1\AppData\Local\Temp\ccj5QhVO.s:24009  .debug_str:000000000000bbc2 .LASF4849
C:\Users\CYMR90~1\AppData\Local\Temp\ccj5QhVO.s:26938  .debug_str:000000000001784a .LASF4850
C:\Users\CYMR90~1\AppData\Local\Temp\ccj5QhVO.s:22707  .debug_str:000000000000656c .LASF4851
C:\Users\CYMR90~1\AppData\Local\Temp\ccj5QhVO.s:22309  .debug_str:0000000000004e17 .LASF4852
C:\Users\CYMR90~1\AppData\Local\Temp\ccj5QhVO.s:25849  .debug_str:00000000000131d3 .LASF4853
C:\Users\CYMR90~1\AppData\Local\Temp\ccj5QhVO.s:25261  .debug_str:0000000000010ada .LASF4854
C:\Users\CYMR90~1\AppData\Local\Temp\ccj5QhVO.s:29576  .debug_str:0000000000022031 .LASF4855
C:\Users\CYMR90~1\AppData\Local\Temp\ccj5QhVO.s:28628  .debug_str:000000000001e654 .LASF4856
C:\Users\CYMR90~1\AppData\Local\Temp\ccj5QhVO.s:22377  .debug_str:0000000000005200 .LASF4857
C:\Users\CYMR90~1\AppData\Local\Temp\ccj5QhVO.s:29416  .debug_str:0000000000021649 .LASF4858
C:\Users\CYMR90~1\AppData\Local\Temp\ccj5QhVO.s:26575  .debug_str:0000000000015f67 .LASF4859
C:\Users\CYMR90~1\AppData\Local\Temp\ccj5QhVO.s:22615  .debug_str:0000000000006004 .LASF4860
C:\Users\CYMR90~1\AppData\Local\Temp\ccj5QhVO.s:27558  .debug_str:000000000001a057 .LASF4861
C:\Users\CYMR90~1\AppData\Local\Temp\ccj5QhVO.s:26407  .debug_str:0000000000015517 .LASF4862
C:\Users\CYMR90~1\AppData\Local\Temp\ccj5QhVO.s:29068  .debug_str:00000000000200ce .LASF4863
C:\Users\CYMR90~1\AppData\Local\Temp\ccj5QhVO.s:31242  .debug_str:0000000000028b14 .LASF4864
C:\Users\CYMR90~1\AppData\Local\Temp\ccj5QhVO.s:26063  .debug_str:0000000000013faa .LASF4865
C:\Users\CYMR90~1\AppData\Local\Temp\ccj5QhVO.s:25999  .debug_str:0000000000013bf3 .LASF4866
C:\Users\CYMR90~1\AppData\Local\Temp\ccj5QhVO.s:21683  .debug_str:00000000000024cb .LASF4867
C:\Users\CYMR90~1\AppData\Local\Temp\ccj5QhVO.s:28680  .debug_str:000000000001e9a9 .LASF4868
C:\Users\CYMR90~1\AppData\Local\Temp\ccj5QhVO.s:28136  .debug_str:000000000001c5b9 .LASF4869
C:\Users\CYMR90~1\AppData\Local\Temp\ccj5QhVO.s:30460  .debug_str:000000000002588f .LASF4870
C:\Users\CYMR90~1\AppData\Local\Temp\ccj5QhVO.s:22763  .debug_str:0000000000006900 .LASF4871
C:\Users\CYMR90~1\AppData\Local\Temp\ccj5QhVO.s:21537  .debug_str:0000000000001c8f .LASF4872
C:\Users\CYMR90~1\AppData\Local\Temp\ccj5QhVO.s:23355  .debug_str:0000000000009091 .LASF4873
C:\Users\CYMR90~1\AppData\Local\Temp\ccj5QhVO.s:23519  .debug_str:0000000000009aef .LASF4874
C:\Users\CYMR90~1\AppData\Local\Temp\ccj5QhVO.s:21549  .debug_str:0000000000001d13 .LASF4875
C:\Users\CYMR90~1\AppData\Local\Temp\ccj5QhVO.s:32142  .debug_str:000000000002c22e .LASF4876
C:\Users\CYMR90~1\AppData\Local\Temp\ccj5QhVO.s:26277  .debug_str:0000000000014caf .LASF4877
C:\Users\CYMR90~1\AppData\Local\Temp\ccj5QhVO.s:26681  .debug_str:00000000000165f9 .LASF4878
C:\Users\CYMR90~1\AppData\Local\Temp\ccj5QhVO.s:25785  .debug_str:0000000000012da9 .LASF4879
C:\Users\CYMR90~1\AppData\Local\Temp\ccj5QhVO.s:23843  .debug_str:000000000000b0e3 .LASF4880
C:\Users\CYMR90~1\AppData\Local\Temp\ccj5QhVO.s:26341  .debug_str:0000000000015129 .LASF4881
C:\Users\CYMR90~1\AppData\Local\Temp\ccj5QhVO.s:22901  .debug_str:0000000000007223 .LASF4882
C:\Users\CYMR90~1\AppData\Local\Temp\ccj5QhVO.s:27106  .debug_str:00000000000182af .LASF4883
C:\Users\CYMR90~1\AppData\Local\Temp\ccj5QhVO.s:24997  .debug_str:000000000000fa7f .LASF4884
C:\Users\CYMR90~1\AppData\Local\Temp\ccj5QhVO.s:26503  .debug_str:0000000000015ab9 .LASF4885
C:\Users\CYMR90~1\AppData\Local\Temp\ccj5QhVO.s:23049  .debug_str:0000000000007bdc .LASF4886
C:\Users\CYMR90~1\AppData\Local\Temp\ccj5QhVO.s:27780  .debug_str:000000000001af69 .LASF4887
C:\Users\CYMR90~1\AppData\Local\Temp\ccj5QhVO.s:32388  .debug_str:000000000002d21f .LASF4888
C:\Users\CYMR90~1\AppData\Local\Temp\ccj5QhVO.s:31660  .debug_str:000000000002a38c .LASF4889
C:\Users\CYMR90~1\AppData\Local\Temp\ccj5QhVO.s:25645  .debug_str:0000000000012477 .LASF4890
C:\Users\CYMR90~1\AppData\Local\Temp\ccj5QhVO.s:29774  .debug_str:0000000000022be7 .LASF4891
C:\Users\CYMR90~1\AppData\Local\Temp\ccj5QhVO.s:22337  .debug_str:0000000000004fb0 .LASF4892
C:\Users\CYMR90~1\AppData\Local\Temp\ccj5QhVO.s:21553  .debug_str:0000000000001d6c .LASF4893
C:\Users\CYMR90~1\AppData\Local\Temp\ccj5QhVO.s:23515  .debug_str:0000000000009aab .LASF4894
C:\Users\CYMR90~1\AppData\Local\Temp\ccj5QhVO.s:24413  .debug_str:000000000000d6e1 .LASF4895
C:\Users\CYMR90~1\AppData\Local\Temp\ccj5QhVO.s:21631  .debug_str:0000000000002191 .LASF4896
C:\Users\CYMR90~1\AppData\Local\Temp\ccj5QhVO.s:25663  .debug_str:00000000000125b3 .LASF4897
C:\Users\CYMR90~1\AppData\Local\Temp\ccj5QhVO.s:29184  .debug_str:0000000000020809 .LASF4898
C:\Users\CYMR90~1\AppData\Local\Temp\ccj5QhVO.s:30902  .debug_str:00000000000273ee .LASF4899
C:\Users\CYMR90~1\AppData\Local\Temp\ccj5QhVO.s:21489  .debug_str:000000000000197f .LASF4900
C:\Users\CYMR90~1\AppData\Local\Temp\ccj5QhVO.s:25017  .debug_str:000000000000fb9a .LASF4901
C:\Users\CYMR90~1\AppData\Local\Temp\ccj5QhVO.s:23403  .debug_str:0000000000009355 .LASF4902
C:\Users\CYMR90~1\AppData\Local\Temp\ccj5QhVO.s:30350  .debug_str:000000000002503e .LASF4903
C:\Users\CYMR90~1\AppData\Local\Temp\ccj5QhVO.s:31834  .debug_str:000000000002ae06 .LASF4904
C:\Users\CYMR90~1\AppData\Local\Temp\ccj5QhVO.s:26838  .debug_str:0000000000017285 .LASF4905
C:\Users\CYMR90~1\AppData\Local\Temp\ccj5QhVO.s:26944  .debug_str:00000000000178a9 .LASF4906
C:\Users\CYMR90~1\AppData\Local\Temp\ccj5QhVO.s:28492  .debug_str:000000000001ddb1 .LASF4907
C:\Users\CYMR90~1\AppData\Local\Temp\ccj5QhVO.s:23645  .debug_str:000000000000a2fd .LASF4908
C:\Users\CYMR90~1\AppData\Local\Temp\ccj5QhVO.s:28934  .debug_str:000000000001f88d .LASF4909
C:\Users\CYMR90~1\AppData\Local\Temp\ccj5QhVO.s:30118  .debug_str:000000000002408a .LASF4910
C:\Users\CYMR90~1\AppData\Local\Temp\ccj5QhVO.s:25777  .debug_str:0000000000012d3c .LASF4911
C:\Users\CYMR90~1\AppData\Local\Temp\ccj5QhVO.s:21973  .debug_str:00000000000037ab .LASF4912
C:\Users\CYMR90~1\AppData\Local\Temp\ccj5QhVO.s:25941  .debug_str:0000000000013854 .LASF4913
C:\Users\CYMR90~1\AppData\Local\Temp\ccj5QhVO.s:31056  .debug_str:0000000000027e12 .LASF4914
C:\Users\CYMR90~1\AppData\Local\Temp\ccj5QhVO.s:25431  .debug_str:0000000000011573 .LASF4915
C:\Users\CYMR90~1\AppData\Local\Temp\ccj5QhVO.s:24019  .debug_str:000000000000bc34 .LASF4916
C:\Users\CYMR90~1\AppData\Local\Temp\ccj5QhVO.s:30110  .debug_str:000000000002400d .LASF4917
C:\Users\CYMR90~1\AppData\Local\Temp\ccj5QhVO.s:30212  .debug_str:0000000000024736 .LASF4918
C:\Users\CYMR90~1\AppData\Local\Temp\ccj5QhVO.s:26475  .debug_str:00000000000158f3 .LASF4919
C:\Users\CYMR90~1\AppData\Local\Temp\ccj5QhVO.s:21999  .debug_str:0000000000003958 .LASF4920
C:\Users\CYMR90~1\AppData\Local\Temp\ccj5QhVO.s:26816  .debug_str:000000000001713e .LASF4921
C:\Users\CYMR90~1\AppData\Local\Temp\ccj5QhVO.s:21943  .debug_str:00000000000035da .LASF4922
C:\Users\CYMR90~1\AppData\Local\Temp\ccj5QhVO.s:22271  .debug_str:0000000000004bb0 .LASF4923
C:\Users\CYMR90~1\AppData\Local\Temp\ccj5QhVO.s:22667  .debug_str:000000000000630d .LASF4924
C:\Users\CYMR90~1\AppData\Local\Temp\ccj5QhVO.s:30690  .debug_str:0000000000026741 .LASF4925
C:\Users\CYMR90~1\AppData\Local\Temp\ccj5QhVO.s:24509  .debug_str:000000000000dc78 .LASF4926
C:\Users\CYMR90~1\AppData\Local\Temp\ccj5QhVO.s:21187  .debug_str:00000000000006b0 .LASF4927
C:\Users\CYMR90~1\AppData\Local\Temp\ccj5QhVO.s:27696  .debug_str:000000000001aa62 .LASF4928
C:\Users\CYMR90~1\AppData\Local\Temp\ccj5QhVO.s:32084  .debug_str:000000000002be1a .LASF4929
C:\Users\CYMR90~1\AppData\Local\Temp\ccj5QhVO.s:23829  .debug_str:000000000000af61 .LASF4930
C:\Users\CYMR90~1\AppData\Local\Temp\ccj5QhVO.s:22757  .debug_str:00000000000068a8 .LASF4931
C:\Users\CYMR90~1\AppData\Local\Temp\ccj5QhVO.s:31006  .debug_str:0000000000027a84 .LASF4932
C:\Users\CYMR90~1\AppData\Local\Temp\ccj5QhVO.s:27720  .debug_str:000000000001abc9 .LASF4933
C:\Users\CYMR90~1\AppData\Local\Temp\ccj5QhVO.s:28840  .debug_str:000000000001f329 .LASF4934
C:\Users\CYMR90~1\AppData\Local\Temp\ccj5QhVO.s:27976  .debug_str:000000000001bbbe .LASF4935
C:\Users\CYMR90~1\AppData\Local\Temp\ccj5QhVO.s:22455  .debug_str:00000000000056ac .LASF4936
C:\Users\CYMR90~1\AppData\Local\Temp\ccj5QhVO.s:29872  .debug_str:00000000000231d4 .LASF4937
C:\Users\CYMR90~1\AppData\Local\Temp\ccj5QhVO.s:29890  .debug_str:00000000000232a3 .LASF4938
C:\Users\CYMR90~1\AppData\Local\Temp\ccj5QhVO.s:30386  .debug_str:0000000000025265 .LASF4939
C:\Users\CYMR90~1\AppData\Local\Temp\ccj5QhVO.s:31316  .debug_str:0000000000028f3e .LASF4940
C:\Users\CYMR90~1\AppData\Local\Temp\ccj5QhVO.s:29932  .debug_str:0000000000023507 .LASF4941
C:\Users\CYMR90~1\AppData\Local\Temp\ccj5QhVO.s:31438  .debug_str:00000000000296d2 .LASF4942
C:\Users\CYMR90~1\AppData\Local\Temp\ccj5QhVO.s:21135  .debug_str:00000000000003cd .LASF4943
C:\Users\CYMR90~1\AppData\Local\Temp\ccj5QhVO.s:25685  .debug_str:00000000000126f7 .LASF4944
C:\Users\CYMR90~1\AppData\Local\Temp\ccj5QhVO.s:29458  .debug_str:00000000000218df .LASF4945
C:\Users\CYMR90~1\AppData\Local\Temp\ccj5QhVO.s:31688  .debug_str:000000000002a50b .LASF4946
C:\Users\CYMR90~1\AppData\Local\Temp\ccj5QhVO.s:25857  .debug_str:0000000000013255 .LASF4947
C:\Users\CYMR90~1\AppData\Local\Temp\ccj5QhVO.s:28480  .debug_str:000000000001dd08 .LASF4948
C:\Users\CYMR90~1\AppData\Local\Temp\ccj5QhVO.s:30802  .debug_str:0000000000026ddb .LASF4949
C:\Users\CYMR90~1\AppData\Local\Temp\ccj5QhVO.s:29442  .debug_str:00000000000217e8 .LASF4950
C:\Users\CYMR90~1\AppData\Local\Temp\ccj5QhVO.s:26753  .debug_str:0000000000016b23 .LASF4951
C:\Users\CYMR90~1\AppData\Local\Temp\ccj5QhVO.s:21851  .debug_str:0000000000002faf .LASF4952
C:\Users\CYMR90~1\AppData\Local\Temp\ccj5QhVO.s:28744  .debug_str:000000000001ed47 .LASF4953
C:\Users\CYMR90~1\AppData\Local\Temp\ccj5QhVO.s:29674  .debug_str:00000000000225aa .LASF4954
C:\Users\CYMR90~1\AppData\Local\Temp\ccj5QhVO.s:22621  .debug_str:0000000000006076 .LASF4955
C:\Users\CYMR90~1\AppData\Local\Temp\ccj5QhVO.s:30146  .debug_str:00000000000241f6 .LASF4956
C:\Users\CYMR90~1\AppData\Local\Temp\ccj5QhVO.s:28376  .debug_str:000000000001d652 .LASF4957
C:\Users\CYMR90~1\AppData\Local\Temp\ccj5QhVO.s:28356  .debug_str:000000000001d51f .LASF4958
C:\Users\CYMR90~1\AppData\Local\Temp\ccj5QhVO.s:29464  .debug_str:000000000002195d .LASF4959
C:\Users\CYMR90~1\AppData\Local\Temp\ccj5QhVO.s:25733  .debug_str:0000000000012a1e .LASF4960
C:\Users\CYMR90~1\AppData\Local\Temp\ccj5QhVO.s:27122  .debug_str:000000000001839b .LASF4961
C:\Users\CYMR90~1\AppData\Local\Temp\ccj5QhVO.s:22927  .debug_str:00000000000073fe .LASF4962
C:\Users\CYMR90~1\AppData\Local\Temp\ccj5QhVO.s:27702  .debug_str:000000000001aaac .LASF4963
C:\Users\CYMR90~1\AppData\Local\Temp\ccj5QhVO.s:31556  .debug_str:0000000000029db7 .LASF4964
C:\Users\CYMR90~1\AppData\Local\Temp\ccj5QhVO.s:24201  .debug_str:000000000000c85e .LASF4965
C:\Users\CYMR90~1\AppData\Local\Temp\ccj5QhVO.s:23813  .debug_str:000000000000ae24 .LASF4966
C:\Users\CYMR90~1\AppData\Local\Temp\ccj5QhVO.s:24825  .debug_str:000000000000ef85 .LASF4967
C:\Users\CYMR90~1\AppData\Local\Temp\ccj5QhVO.s:22797  .debug_str:0000000000006b1e .LASF4968
C:\Users\CYMR90~1\AppData\Local\Temp\ccj5QhVO.s:29110  .debug_str:0000000000020309 .LASF4969
C:\Users\CYMR90~1\AppData\Local\Temp\ccj5QhVO.s:21687  .debug_str:0000000000002501 .LASF4970
C:\Users\CYMR90~1\AppData\Local\Temp\ccj5QhVO.s:29920  .debug_str:000000000002343f .LASF4971
C:\Users\CYMR90~1\AppData\Local\Temp\ccj5QhVO.s:26739  .debug_str:00000000000169f9 .LASF4972
C:\Users\CYMR90~1\AppData\Local\Temp\ccj5QhVO.s:31788  .debug_str:000000000002ab3e .LASF4973
C:\Users\CYMR90~1\AppData\Local\Temp\ccj5QhVO.s:25015  .debug_str:000000000000fb7a .LASF4974
C:\Users\CYMR90~1\AppData\Local\Temp\ccj5QhVO.s:31100  .debug_str:00000000000280f2 .LASF4975
C:\Users\CYMR90~1\AppData\Local\Temp\ccj5QhVO.s:23005  .debug_str:00000000000078f0 .LASF4976
C:\Users\CYMR90~1\AppData\Local\Temp\ccj5QhVO.s:24431  .debug_str:000000000000d83f .LASF4977
C:\Users\CYMR90~1\AppData\Local\Temp\ccj5QhVO.s:32274  .debug_str:000000000002cadd .LASF4978
C:\Users\CYMR90~1\AppData\Local\Temp\ccj5QhVO.s:24063  .debug_str:000000000000bfa5 .LASF4979
C:\Users\CYMR90~1\AppData\Local\Temp\ccj5QhVO.s:23619  .debug_str:000000000000a169 .LASF4980
C:\Users\CYMR90~1\AppData\Local\Temp\ccj5QhVO.s:31010  .debug_str:0000000000027adc .LASF4981
C:\Users\CYMR90~1\AppData\Local\Temp\ccj5QhVO.s:25473  .debug_str:0000000000011847 .LASF4982
C:\Users\CYMR90~1\AppData\Local\Temp\ccj5QhVO.s:22247  .debug_str:0000000000004a2d .LASF4983
C:\Users\CYMR90~1\AppData\Local\Temp\ccj5QhVO.s:23561  .debug_str:0000000000009d73 .LASF4984
C:\Users\CYMR90~1\AppData\Local\Temp\ccj5QhVO.s:27346  .debug_str:00000000000192e6 .LASF4985
C:\Users\CYMR90~1\AppData\Local\Temp\ccj5QhVO.s:28318  .debug_str:000000000001d2d5 .LASF4986
C:\Users\CYMR90~1\AppData\Local\Temp\ccj5QhVO.s:28534  .debug_str:000000000001e0ea .LASF4987
C:\Users\CYMR90~1\AppData\Local\Temp\ccj5QhVO.s:24279  .debug_str:000000000000cdeb .LASF4988
C:\Users\CYMR90~1\AppData\Local\Temp\ccj5QhVO.s:26533  .debug_str:0000000000015c6b .LASF4989
C:\Users\CYMR90~1\AppData\Local\Temp\ccj5QhVO.s:24663  .debug_str:000000000000e580 .LASF4990
C:\Users\CYMR90~1\AppData\Local\Temp\ccj5QhVO.s:27516  .debug_str:0000000000019de1 .LASF4991
C:\Users\CYMR90~1\AppData\Local\Temp\ccj5QhVO.s:27262  .debug_str:0000000000018c3b .LASF4992
C:\Users\CYMR90~1\AppData\Local\Temp\ccj5QhVO.s:25175  .debug_str:0000000000010545 .LASF4993
C:\Users\CYMR90~1\AppData\Local\Temp\ccj5QhVO.s:22207  .debug_str:0000000000004702 .LASF4994
C:\Users\CYMR90~1\AppData\Local\Temp\ccj5QhVO.s:21259  .debug_str:0000000000000b63 .LASF4995
C:\Users\CYMR90~1\AppData\Local\Temp\ccj5QhVO.s:25565  .debug_str:0000000000011f08 .LASF4996
C:\Users\CYMR90~1\AppData\Local\Temp\ccj5QhVO.s:26301  .debug_str:0000000000014e3f .LASF4997
C:\Users\CYMR90~1\AppData\Local\Temp\ccj5QhVO.s:32144  .debug_str:000000000002c246 .LASF4998
C:\Users\CYMR90~1\AppData\Local\Temp\ccj5QhVO.s:26113  .debug_str:00000000000142da .LASF4999
C:\Users\CYMR90~1\AppData\Local\Temp\ccj5QhVO.s:23709  .debug_str:000000000000a6ce .LASF5000
C:\Users\CYMR90~1\AppData\Local\Temp\ccj5QhVO.s:27352  .debug_str:0000000000019348 .LASF5001
C:\Users\CYMR90~1\AppData\Local\Temp\ccj5QhVO.s:24603  .debug_str:000000000000e1ff .LASF5002
C:\Users\CYMR90~1\AppData\Local\Temp\ccj5QhVO.s:26437  .debug_str:00000000000156c9 .LASF5003
C:\Users\CYMR90~1\AppData\Local\Temp\ccj5QhVO.s:21493  .debug_str:00000000000019bd .LASF5004
C:\Users\CYMR90~1\AppData\Local\Temp\ccj5QhVO.s:31090  .debug_str:0000000000028041 .LASF5005
C:\Users\CYMR90~1\AppData\Local\Temp\ccj5QhVO.s:28436  .debug_str:000000000001da71 .LASF5006
C:\Users\CYMR90~1\AppData\Local\Temp\ccj5QhVO.s:26796  .debug_str:0000000000016fdb .LASF5007
C:\Users\CYMR90~1\AppData\Local\Temp\ccj5QhVO.s:23669  .debug_str:000000000000a4a1 .LASF5008
C:\Users\CYMR90~1\AppData\Local\Temp\ccj5QhVO.s:29502  .debug_str:0000000000021b56 .LASF5009
C:\Users\CYMR90~1\AppData\Local\Temp\ccj5QhVO.s:25859  .debug_str:0000000000013275 .LASF5010
C:\Users\CYMR90~1\AppData\Local\Temp\ccj5QhVO.s:27248  .debug_str:0000000000018b3f .LASF5011
C:\Users\CYMR90~1\AppData\Local\Temp\ccj5QhVO.s:25965  .debug_str:00000000000139dc .LASF5012
C:\Users\CYMR90~1\AppData\Local\Temp\ccj5QhVO.s:30184  .debug_str:000000000002454f .LASF5013
C:\Users\CYMR90~1\AppData\Local\Temp\ccj5QhVO.s:23189  .debug_str:0000000000008607 .LASF5014
C:\Users\CYMR90~1\AppData\Local\Temp\ccj5QhVO.s:21751  .debug_str:0000000000002947 .LASF5015
C:\Users\CYMR90~1\AppData\Local\Temp\ccj5QhVO.s:25535  .debug_str:0000000000011d66 .LASF5016
C:\Users\CYMR90~1\AppData\Local\Temp\ccj5QhVO.s:29066  .debug_str:00000000000200a3 .LASF5017
C:\Users\CYMR90~1\AppData\Local\Temp\ccj5QhVO.s:31942  .debug_str:000000000002b4ad .LASF5018
C:\Users\CYMR90~1\AppData\Local\Temp\ccj5QhVO.s:28998  .debug_str:000000000001fc59 .LASF5019
C:\Users\CYMR90~1\AppData\Local\Temp\ccj5QhVO.s:25951  .debug_str:000000000001390c .LASF5020
C:\Users\CYMR90~1\AppData\Local\Temp\ccj5QhVO.s:31432  .debug_str:0000000000029656 .LASF5021
C:\Users\CYMR90~1\AppData\Local\Temp\ccj5QhVO.s:23651  .debug_str:000000000000a354 .LASF5022
C:\Users\CYMR90~1\AppData\Local\Temp\ccj5QhVO.s:27342  .debug_str:0000000000019293 .LASF5023
C:\Users\CYMR90~1\AppData\Local\Temp\ccj5QhVO.s:31686  .debug_str:000000000002a4de .LASF5024
C:\Users\CYMR90~1\AppData\Local\Temp\ccj5QhVO.s:22709  .debug_str:0000000000006583 .LASF5025
C:\Users\CYMR90~1\AppData\Local\Temp\ccj5QhVO.s:31680  .debug_str:000000000002a475 .LASF5026
C:\Users\CYMR90~1\AppData\Local\Temp\ccj5QhVO.s:21827  .debug_str:0000000000002e36 .LASF5027
C:\Users\CYMR90~1\AppData\Local\Temp\ccj5QhVO.s:27784  .debug_str:000000000001afa6 .LASF5028
C:\Users\CYMR90~1\AppData\Local\Temp\ccj5QhVO.s:24923  .debug_str:000000000000f583 .LASF5029
C:\Users\CYMR90~1\AppData\Local\Temp\ccj5QhVO.s:26121  .debug_str:000000000001437c .LASF5030
C:\Users\CYMR90~1\AppData\Local\Temp\ccj5QhVO.s:31322  .debug_str:0000000000028fa4 .LASF5031
C:\Users\CYMR90~1\AppData\Local\Temp\ccj5QhVO.s:23375  .debug_str:000000000000919c .LASF5032
C:\Users\CYMR90~1\AppData\Local\Temp\ccj5QhVO.s:28292  .debug_str:000000000001d09d .LASF5033
C:\Users\CYMR90~1\AppData\Local\Temp\ccj5QhVO.s:28440  .debug_str:000000000001dab4 .LASF5034
C:\Users\CYMR90~1\AppData\Local\Temp\ccj5QhVO.s:22201  .debug_str:000000000000468a .LASF5035
C:\Users\CYMR90~1\AppData\Local\Temp\ccj5QhVO.s:30464  .debug_str:00000000000258d6 .LASF5036
C:\Users\CYMR90~1\AppData\Local\Temp\ccj5QhVO.s:28956  .debug_str:000000000001f9aa .LASF5037
C:\Users\CYMR90~1\AppData\Local\Temp\ccj5QhVO.s:28114  .debug_str:000000000001c474 .LASF5038
C:\Users\CYMR90~1\AppData\Local\Temp\ccj5QhVO.s:29090  .debug_str:0000000000020204 .LASF5039
C:\Users\CYMR90~1\AppData\Local\Temp\ccj5QhVO.s:32346  .debug_str:000000000002cfaa .LASF5040
C:\Users\CYMR90~1\AppData\Local\Temp\ccj5QhVO.s:21947  .debug_str:0000000000003609 .LASF5041
C:\Users\CYMR90~1\AppData\Local\Temp\ccj5QhVO.s:28702  .debug_str:000000000001eb05 .LASF5042
C:\Users\CYMR90~1\AppData\Local\Temp\ccj5QhVO.s:29474  .debug_str:00000000000219e8 .LASF5043
C:\Users\CYMR90~1\AppData\Local\Temp\ccj5QhVO.s:21519  .debug_str:0000000000001b64 .LASF5044
C:\Users\CYMR90~1\AppData\Local\Temp\ccj5QhVO.s:25773  .debug_str:0000000000012cef .LASF5045
C:\Users\CYMR90~1\AppData\Local\Temp\ccj5QhVO.s:27052  .debug_str:0000000000017f77 .LASF5046
C:\Users\CYMR90~1\AppData\Local\Temp\ccj5QhVO.s:25269  .debug_str:0000000000010b88 .LASF5047
C:\Users\CYMR90~1\AppData\Local\Temp\ccj5QhVO.s:26505  .debug_str:0000000000015ad1 .LASF5048
C:\Users\CYMR90~1\AppData\Local\Temp\ccj5QhVO.s:27742  .debug_str:000000000001ad49 .LASF5049
C:\Users\CYMR90~1\AppData\Local\Temp\ccj5QhVO.s:29096  .debug_str:0000000000020265 .LASF5050
C:\Users\CYMR90~1\AppData\Local\Temp\ccj5QhVO.s:24703  .debug_str:000000000000e841 .LASF5051
C:\Users\CYMR90~1\AppData\Local\Temp\ccj5QhVO.s:24401  .debug_str:000000000000d5fc .LASF5052
C:\Users\CYMR90~1\AppData\Local\Temp\ccj5QhVO.s:27592  .debug_str:000000000001a25a .LASF5053
C:\Users\CYMR90~1\AppData\Local\Temp\ccj5QhVO.s:21979  .debug_str:000000000000382a .LASF5054
C:\Users\CYMR90~1\AppData\Local\Temp\ccj5QhVO.s:30206  .debug_str:00000000000246af .LASF5055
C:\Users\CYMR90~1\AppData\Local\Temp\ccj5QhVO.s:31094  .debug_str:0000000000028084 .LASF5056
C:\Users\CYMR90~1\AppData\Local\Temp\ccj5QhVO.s:23027  .debug_str:0000000000007a58 .LASF5057
C:\Users\CYMR90~1\AppData\Local\Temp\ccj5QhVO.s:32152  .debug_str:000000000002c2ed .LASF5058
C:\Users\CYMR90~1\AppData\Local\Temp\ccj5QhVO.s:24779  .debug_str:000000000000ed2f .LASF5059
C:\Users\CYMR90~1\AppData\Local\Temp\ccj5QhVO.s:26976  .debug_str:0000000000017ad2 .LASF5060
C:\Users\CYMR90~1\AppData\Local\Temp\ccj5QhVO.s:23133  .debug_str:0000000000008277 .LASF5061
C:\Users\CYMR90~1\AppData\Local\Temp\ccj5QhVO.s:22727  .debug_str:0000000000006691 .LASF5062
C:\Users\CYMR90~1\AppData\Local\Temp\ccj5QhVO.s:22321  .debug_str:0000000000004eb0 .LASF5063
C:\Users\CYMR90~1\AppData\Local\Temp\ccj5QhVO.s:30912  .debug_str:0000000000027527 .LASF5064
C:\Users\CYMR90~1\AppData\Local\Temp\ccj5QhVO.s:27098  .debug_str:0000000000018217 .LASF5065
C:\Users\CYMR90~1\AppData\Local\Temp\ccj5QhVO.s:25713  .debug_str:00000000000128c9 .LASF5066
C:\Users\CYMR90~1\AppData\Local\Temp\ccj5QhVO.s:24229  .debug_str:000000000000ca81 .LASF5067
C:\Users\CYMR90~1\AppData\Local\Temp\ccj5QhVO.s:28684  .debug_str:000000000001e9db .LASF5068
C:\Users\CYMR90~1\AppData\Local\Temp\ccj5QhVO.s:23373  .debug_str:000000000000916b .LASF5069
C:\Users\CYMR90~1\AppData\Local\Temp\ccj5QhVO.s:31892  .debug_str:000000000002b158 .LASF5070
C:\Users\CYMR90~1\AppData\Local\Temp\ccj5QhVO.s:28674  .debug_str:000000000001e915 .LASF5071
C:\Users\CYMR90~1\AppData\Local\Temp\ccj5QhVO.s:23223  .debug_str:0000000000008802 .LASF5072
C:\Users\CYMR90~1\AppData\Local\Temp\ccj5QhVO.s:31002  .debug_str:0000000000027a52 .LASF5073
C:\Users\CYMR90~1\AppData\Local\Temp\ccj5QhVO.s:32380  .debug_str:000000000002d19d .LASF5074
C:\Users\CYMR90~1\AppData\Local\Temp\ccj5QhVO.s:29008  .debug_str:000000000001fcff .LASF5075
C:\Users\CYMR90~1\AppData\Local\Temp\ccj5QhVO.s:31290  .debug_str:0000000000028de2 .LASF5076
C:\Users\CYMR90~1\AppData\Local\Temp\ccj5QhVO.s:22303  .debug_str:0000000000004d99 .LASF5077
C:\Users\CYMR90~1\AppData\Local\Temp\ccj5QhVO.s:22641  .debug_str:0000000000006195 .LASF5078
C:\Users\CYMR90~1\AppData\Local\Temp\ccj5QhVO.s:27612  .debug_str:000000000001a371 .LASF5079
C:\Users\CYMR90~1\AppData\Local\Temp\ccj5QhVO.s:26309  .debug_str:0000000000014ef9 .LASF5080
C:\Users\CYMR90~1\AppData\Local\Temp\ccj5QhVO.s:25067  .debug_str:000000000000feab .LASF5081
C:\Users\CYMR90~1\AppData\Local\Temp\ccj5QhVO.s:31748  .debug_str:000000000002a8f6 .LASF5082
C:\Users\CYMR90~1\AppData\Local\Temp\ccj5QhVO.s:31176  .debug_str:000000000002868f .LASF5083
C:\Users\CYMR90~1\AppData\Local\Temp\ccj5QhVO.s:29540  .debug_str:0000000000021dfb .LASF5084
C:\Users\CYMR90~1\AppData\Local\Temp\ccj5QhVO.s:27822  .debug_str:000000000001b256 .LASF5085
C:\Users\CYMR90~1\AppData\Local\Temp\ccj5QhVO.s:23421  .debug_str:000000000000944e .LASF5086
C:\Users\CYMR90~1\AppData\Local\Temp\ccj5QhVO.s:21131  .debug_str:000000000000038c .LASF5087
C:\Users\CYMR90~1\AppData\Local\Temp\ccj5QhVO.s:25495  .debug_str:0000000000011a82 .LASF5088
C:\Users\CYMR90~1\AppData\Local\Temp\ccj5QhVO.s:21733  .debug_str:0000000000002821 .LASF5089
C:\Users\CYMR90~1\AppData\Local\Temp\ccj5QhVO.s:28732  .debug_str:000000000001ecac .LASF5090
C:\Users\CYMR90~1\AppData\Local\Temp\ccj5QhVO.s:26331  .debug_str:000000000001508e .LASF5091
C:\Users\CYMR90~1\AppData\Local\Temp\ccj5QhVO.s:21075  .debug_str:0000000000000000 .LASF5092
C:\Users\CYMR90~1\AppData\Local\Temp\ccj5QhVO.s:25019  .debug_str:000000000000fbbb .LASF5093
C:\Users\CYMR90~1\AppData\Local\Temp\ccj5QhVO.s:31434  .debug_str:0000000000029683 .LASF5094
C:\Users\CYMR90~1\AppData\Local\Temp\ccj5QhVO.s:30284  .debug_str:0000000000024bf7 .LASF5095
C:\Users\CYMR90~1\AppData\Local\Temp\ccj5QhVO.s:28750  .debug_str:000000000001ed95 .LASF5096
C:\Users\CYMR90~1\AppData\Local\Temp\ccj5QhVO.s:22421  .debug_str:000000000000549f .LASF5097
C:\Users\CYMR90~1\AppData\Local\Temp\ccj5QhVO.s:26765  .debug_str:0000000000016bcf .LASF5098
C:\Users\CYMR90~1\AppData\Local\Temp\ccj5QhVO.s:29044  .debug_str:000000000001ff29 .LASF5099
C:\Users\CYMR90~1\AppData\Local\Temp\ccj5QhVO.s:27708  .debug_str:000000000001ab15 .LASF5100
C:\Users\CYMR90~1\AppData\Local\Temp\ccj5QhVO.s:32368  .debug_str:000000000002d0db .LASF5101
C:\Users\CYMR90~1\AppData\Local\Temp\ccj5QhVO.s:26892  .debug_str:0000000000017573 .LASF5102
C:\Users\CYMR90~1\AppData\Local\Temp\ccj5QhVO.s:22609  .debug_str:0000000000005f9d .LASF5103
C:\Users\CYMR90~1\AppData\Local\Temp\ccj5QhVO.s:24883  .debug_str:000000000000f313 .LASF5104
C:\Users\CYMR90~1\AppData\Local\Temp\ccj5QhVO.s:25603  .debug_str:00000000000121aa .LASF5105
C:\Users\CYMR90~1\AppData\Local\Temp\ccj5QhVO.s:27210  .debug_str:00000000000188f2 .LASF5106
C:\Users\CYMR90~1\AppData\Local\Temp\ccj5QhVO.s:22393  .debug_str:00000000000052ed .LASF5107
C:\Users\CYMR90~1\AppData\Local\Temp\ccj5QhVO.s:30452  .debug_str:00000000000257d7 .LASF5108
C:\Users\CYMR90~1\AppData\Local\Temp\ccj5QhVO.s:31248  .debug_str:0000000000028b61 .LASF5109
C:\Users\CYMR90~1\AppData\Local\Temp\ccj5QhVO.s:30694  .debug_str:0000000000026768 .LASF5110
C:\Users\CYMR90~1\AppData\Local\Temp\ccj5QhVO.s:25401  .debug_str:00000000000113c8 .LASF5111
C:\Users\CYMR90~1\AppData\Local\Temp\ccj5QhVO.s:24317  .debug_str:000000000000cfe6 .LASF5112
C:\Users\CYMR90~1\AppData\Local\Temp\ccj5QhVO.s:29206  .debug_str:0000000000020909 .LASF5113
C:\Users\CYMR90~1\AppData\Local\Temp\ccj5QhVO.s:24963  .debug_str:000000000000f869 .LASF5114
C:\Users\CYMR90~1\AppData\Local\Temp\ccj5QhVO.s:28844  .debug_str:000000000001f368 .LASF5115
C:\Users\CYMR90~1\AppData\Local\Temp\ccj5QhVO.s:30668  .debug_str:00000000000265d9 .LASF5116
C:\Users\CYMR90~1\AppData\Local\Temp\ccj5QhVO.s:25871  .debug_str:0000000000013352 .LASF5117
C:\Users\CYMR90~1\AppData\Local\Temp\ccj5QhVO.s:24093  .debug_str:000000000000c195 .LASF5118
C:\Users\CYMR90~1\AppData\Local\Temp\ccj5QhVO.s:21985  .debug_str:0000000000003899 .LASF5119
C:\Users\CYMR90~1\AppData\Local\Temp\ccj5QhVO.s:22917  .debug_str:0000000000007363 .LASF5120
C:\Users\CYMR90~1\AppData\Local\Temp\ccj5QhVO.s:24967  .debug_str:000000000000f8b8 .LASF5121
C:\Users\CYMR90~1\AppData\Local\Temp\ccj5QhVO.s:22487  .debug_str:0000000000005888 .LASF5122
C:\Users\CYMR90~1\AppData\Local\Temp\ccj5QhVO.s:31124  .debug_str:00000000000282c7 .LASF5123
C:\Users\CYMR90~1\AppData\Local\Temp\ccj5QhVO.s:25661  .debug_str:0000000000012591 .LASF5124
C:\Users\CYMR90~1\AppData\Local\Temp\ccj5QhVO.s:21821  .debug_str:0000000000002dda .LASF5125
C:\Users\CYMR90~1\AppData\Local\Temp\ccj5QhVO.s:30532  .debug_str:0000000000025dbb .LASF5126
C:\Users\CYMR90~1\AppData\Local\Temp\ccj5QhVO.s:30924  .debug_str:00000000000275fc .LASF5127
C:\Users\CYMR90~1\AppData\Local\Temp\ccj5QhVO.s:25419  .debug_str:00000000000114b9 .LASF5128
C:\Users\CYMR90~1\AppData\Local\Temp\ccj5QhVO.s:26597  .debug_str:00000000000160fe .LASF5129
C:\Users\CYMR90~1\AppData\Local\Temp\ccj5QhVO.s:29924  .debug_str:0000000000023478 .LASF5130
C:\Users\CYMR90~1\AppData\Local\Temp\ccj5QhVO.s:28666  .debug_str:000000000001e895 .LASF5131
C:\Users\CYMR90~1\AppData\Local\Temp\ccj5QhVO.s:29566  .debug_str:0000000000021f8c .LASF5132
C:\Users\CYMR90~1\AppData\Local\Temp\ccj5QhVO.s:32386  .debug_str:000000000002d1f9 .LASF5133
C:\Users\CYMR90~1\AppData\Local\Temp\ccj5QhVO.s:29748  .debug_str:0000000000022a55 .LASF5134
C:\Users\CYMR90~1\AppData\Local\Temp\ccj5QhVO.s:30362  .debug_str:000000000002510a .LASF5135
C:\Users\CYMR90~1\AppData\Local\Temp\ccj5QhVO.s:23009  .debug_str:0000000000007926 .LASF5136
C:\Users\CYMR90~1\AppData\Local\Temp\ccj5QhVO.s:22353  .debug_str:0000000000005088 .LASF5137
C:\Users\CYMR90~1\AppData\Local\Temp\ccj5QhVO.s:29782  .debug_str:0000000000022c4e .LASF5138
C:\Users\CYMR90~1\AppData\Local\Temp\ccj5QhVO.s:25723  .debug_str:0000000000012973 .LASF5139
C:\Users\CYMR90~1\AppData\Local\Temp\ccj5QhVO.s:30256  .debug_str:00000000000249cd .LASF5140
C:\Users\CYMR90~1\AppData\Local\Temp\ccj5QhVO.s:31572  .debug_str:0000000000029ea5 .LASF5141
C:\Users\CYMR90~1\AppData\Local\Temp\ccj5QhVO.s:29836  .debug_str:0000000000022fe0 .LASF5142
C:\Users\CYMR90~1\AppData\Local\Temp\ccj5QhVO.s:30496  .debug_str:0000000000025b6c .LASF5143
C:\Users\CYMR90~1\AppData\Local\Temp\ccj5QhVO.s:30546  .debug_str:0000000000025e89 .LASF5144
C:\Users\CYMR90~1\AppData\Local\Temp\ccj5QhVO.s:29356  .debug_str:00000000000211f8 .LASF5145
C:\Users\CYMR90~1\AppData\Local\Temp\ccj5QhVO.s:25753  .debug_str:0000000000012b7d .LASF5146
C:\Users\CYMR90~1\AppData\Local\Temp\ccj5QhVO.s:25475  .debug_str:000000000001186b .LASF5147
C:\Users\CYMR90~1\AppData\Local\Temp\ccj5QhVO.s:30382  .debug_str:0000000000025226 .LASF5148
C:\Users\CYMR90~1\AppData\Local\Temp\ccj5QhVO.s:23767  .debug_str:000000000000ab35 .LASF5149
C:\Users\CYMR90~1\AppData\Local\Temp\ccj5QhVO.s:25271  .debug_str:0000000000010ba7 .LASF5150
C:\Users\CYMR90~1\AppData\Local\Temp\ccj5QhVO.s:31840  .debug_str:000000000002ae66 .LASF5151
C:\Users\CYMR90~1\AppData\Local\Temp\ccj5QhVO.s:23295  .debug_str:0000000000008ca8 .LASF5152
C:\Users\CYMR90~1\AppData\Local\Temp\ccj5QhVO.s:23875  .debug_str:000000000000b2df .LASF5153
C:\Users\CYMR90~1\AppData\Local\Temp\ccj5QhVO.s:30554  .debug_str:0000000000025efa .LASF5154
C:\Users\CYMR90~1\AppData\Local\Temp\ccj5QhVO.s:21351  .debug_str:0000000000001122 .LASF5155
C:\Users\CYMR90~1\AppData\Local\Temp\ccj5QhVO.s:26673  .debug_str:000000000001657e .LASF5156
C:\Users\CYMR90~1\AppData\Local\Temp\ccj5QhVO.s:28746  .debug_str:000000000001ed5f .LASF5157
C:\Users\CYMR90~1\AppData\Local\Temp\ccj5QhVO.s:31050  .debug_str:0000000000027d9c .LASF5158
C:\Users\CYMR90~1\AppData\Local\Temp\ccj5QhVO.s:24727  .debug_str:000000000000e9e5 .LASF5159
C:\Users\CYMR90~1\AppData\Local\Temp\ccj5QhVO.s:31080  .debug_str:0000000000027faa .LASF5160
C:\Users\CYMR90~1\AppData\Local\Temp\ccj5QhVO.s:28688  .debug_str:000000000001ea2f .LASF5161
C:\Users\CYMR90~1\AppData\Local\Temp\ccj5QhVO.s:25479  .debug_str:00000000000118b6 .LASF5162
C:\Users\CYMR90~1\AppData\Local\Temp\ccj5QhVO.s:28996  .debug_str:000000000001fc28 .LASF5163
C:\Users\CYMR90~1\AppData\Local\Temp\ccj5QhVO.s:29526  .debug_str:0000000000021d07 .LASF5164
C:\Users\CYMR90~1\AppData\Local\Temp\ccj5QhVO.s:26015  .debug_str:0000000000013cd4 .LASF5165
C:\Users\CYMR90~1\AppData\Local\Temp\ccj5QhVO.s:25481  .debug_str:00000000000118e7 .LASF5166
C:\Users\CYMR90~1\AppData\Local\Temp\ccj5QhVO.s:24589  .debug_str:000000000000e135 .LASF5167
C:\Users\CYMR90~1\AppData\Local\Temp\ccj5QhVO.s:28252  .debug_str:000000000001cd82 .LASF5168
C:\Users\CYMR90~1\AppData\Local\Temp\ccj5QhVO.s:24707  .debug_str:000000000000e899 .LASF5169
C:\Users\CYMR90~1\AppData\Local\Temp\ccj5QhVO.s:31468  .debug_str:000000000002989d .LASF5170
C:\Users\CYMR90~1\AppData\Local\Temp\ccj5QhVO.s:32232  .debug_str:000000000002c7d6 .LASF5171
C:\Users\CYMR90~1\AppData\Local\Temp\ccj5QhVO.s:24737  .debug_str:000000000000ea59 .LASF5172
C:\Users\CYMR90~1\AppData\Local\Temp\ccj5QhVO.s:21433  .debug_str:000000000000157f .LASF5173
C:\Users\CYMR90~1\AppData\Local\Temp\ccj5QhVO.s:30196  .debug_str:0000000000024631 .LASF5174
C:\Users\CYMR90~1\AppData\Local\Temp\ccj5QhVO.s:30878  .debug_str:0000000000027257 .LASF5175
C:\Users\CYMR90~1\AppData\Local\Temp\ccj5QhVO.s:27750  .debug_str:000000000001adac .LASF5176
C:\Users\CYMR90~1\AppData\Local\Temp\ccj5QhVO.s:28742  .debug_str:000000000001ed31 .LASF5177
C:\Users\CYMR90~1\AppData\Local\Temp\ccj5QhVO.s:21283  .debug_str:0000000000000cc8 .LASF5178
C:\Users\CYMR90~1\AppData\Local\Temp\ccj5QhVO.s:29336  .debug_str:00000000000210fe .LASF5179
C:\Users\CYMR90~1\AppData\Local\Temp\ccj5QhVO.s:24233  .debug_str:000000000000caf5 .LASF5180
C:\Users\CYMR90~1\AppData\Local\Temp\ccj5QhVO.s:26541  .debug_str:0000000000015d16 .LASF5181
C:\Users\CYMR90~1\AppData\Local\Temp\ccj5QhVO.s:24991  .debug_str:000000000000fa2e .LASF5182
C:\Users\CYMR90~1\AppData\Local\Temp\ccj5QhVO.s:27152  .debug_str:000000000001856c .LASF5183
C:\Users\CYMR90~1\AppData\Local\Temp\ccj5QhVO.s:31736  .debug_str:000000000002a83f .LASF5184
C:\Users\CYMR90~1\AppData\Local\Temp\ccj5QhVO.s:25947  .debug_str:00000000000138cf .LASF5185
C:\Users\CYMR90~1\AppData\Local\Temp\ccj5QhVO.s:28924  .debug_str:000000000001f7f3 .LASF5186
C:\Users\CYMR90~1\AppData\Local\Temp\ccj5QhVO.s:22983  .debug_str:000000000000778b .LASF5187
C:\Users\CYMR90~1\AppData\Local\Temp\ccj5QhVO.s:31634  .debug_str:000000000002a237 .LASF5188
C:\Users\CYMR90~1\AppData\Local\Temp\ccj5QhVO.s:22857  .debug_str:0000000000006f17 .LASF5189
C:\Users\CYMR90~1\AppData\Local\Temp\ccj5QhVO.s:30960  .debug_str:0000000000027818 .LASF5190
C:\Users\CYMR90~1\AppData\Local\Temp\ccj5QhVO.s:31446  .debug_str:0000000000029723 .LASF5191
C:\Users\CYMR90~1\AppData\Local\Temp\ccj5QhVO.s:29662  .debug_str:0000000000022521 .LASF5192
C:\Users\CYMR90~1\AppData\Local\Temp\ccj5QhVO.s:26451  .debug_str:000000000001579a .LASF5193
C:\Users\CYMR90~1\AppData\Local\Temp\ccj5QhVO.s:31364  .debug_str:000000000002927b .LASF5194
C:\Users\CYMR90~1\AppData\Local\Temp\ccj5QhVO.s:21901  .debug_str:00000000000032f9 .LASF5195
C:\Users\CYMR90~1\AppData\Local\Temp\ccj5QhVO.s:32140  .debug_str:000000000002c216 .LASF5196
C:\Users\CYMR90~1\AppData\Local\Temp\ccj5QhVO.s:23479  .debug_str:0000000000009817 .LASF5197
C:\Users\CYMR90~1\AppData\Local\Temp\ccj5QhVO.s:23305  .debug_str:0000000000008d16 .LASF5198
C:\Users\CYMR90~1\AppData\Local\Temp\ccj5QhVO.s:31642  .debug_str:000000000002a296 .LASF5199
C:\Users\CYMR90~1\AppData\Local\Temp\ccj5QhVO.s:24827  .debug_str:000000000000efa8 .LASF5200
C:\Users\CYMR90~1\AppData\Local\Temp\ccj5QhVO.s:31334  .debug_str:0000000000029093 .LASF5201
C:\Users\CYMR90~1\AppData\Local\Temp\ccj5QhVO.s:23419  .debug_str:0000000000009436 .LASF5202
C:\Users\CYMR90~1\AppData\Local\Temp\ccj5QhVO.s:32036  .debug_str:000000000002bb0d .LASF5203
C:\Users\CYMR90~1\AppData\Local\Temp\ccj5QhVO.s:30614  .debug_str:00000000000262c0 .LASF5204
C:\Users\CYMR90~1\AppData\Local\Temp\ccj5QhVO.s:24971  .debug_str:000000000000f90e .LASF5205
C:\Users\CYMR90~1\AppData\Local\Temp\ccj5QhVO.s:22185  .debug_str:0000000000004586 .LASF5206
C:\Users\CYMR90~1\AppData\Local\Temp\ccj5QhVO.s:27710  .debug_str:000000000001ab3c .LASF5207
C:\Users\CYMR90~1\AppData\Local\Temp\ccj5QhVO.s:30376  .debug_str:00000000000251db .LASF5208
C:\Users\CYMR90~1\AppData\Local\Temp\ccj5QhVO.s:24907  .debug_str:000000000000f4ad .LASF5209
C:\Users\CYMR90~1\AppData\Local\Temp\ccj5QhVO.s:21185  .debug_str:0000000000000698 .LASF5210
C:\Users\CYMR90~1\AppData\Local\Temp\ccj5QhVO.s:21133  .debug_str:00000000000003b6 .LASF5211
C:\Users\CYMR90~1\AppData\Local\Temp\ccj5QhVO.s:21483  .debug_str:0000000000001928 .LASF5212
C:\Users\CYMR90~1\AppData\Local\Temp\ccj5QhVO.s:30012  .debug_str:0000000000023a61 .LASF5213
C:\Users\CYMR90~1\AppData\Local\Temp\ccj5QhVO.s:30664  .debug_str:0000000000026598 .LASF5214
C:\Users\CYMR90~1\AppData\Local\Temp\ccj5QhVO.s:25823  .debug_str:0000000000013013 .LASF5215
C:\Users\CYMR90~1\AppData\Local\Temp\ccj5QhVO.s:27744  .debug_str:000000000001ad6d .LASF5216
C:\Users\CYMR90~1\AppData\Local\Temp\ccj5QhVO.s:29064  .debug_str:000000000002008c .LASF5217
C:\Users\CYMR90~1\AppData\Local\Temp\ccj5QhVO.s:26547  .debug_str:0000000000015daf .LASF5218
C:\Users\CYMR90~1\AppData\Local\Temp\ccj5QhVO.s:29122  .debug_str:00000000000203c1 .LASF5219
C:\Users\CYMR90~1\AppData\Local\Temp\ccj5QhVO.s:28438  .debug_str:000000000001da9b .LASF5220
C:\Users\CYMR90~1\AppData\Local\Temp\ccj5QhVO.s:23211  .debug_str:0000000000008742 .LASF5221
C:\Users\CYMR90~1\AppData\Local\Temp\ccj5QhVO.s:29808  .debug_str:0000000000022e3f .LASF5222
C:\Users\CYMR90~1\AppData\Local\Temp\ccj5QhVO.s:29102  .debug_str:00000000000202b1 .LASF5223
C:\Users\CYMR90~1\AppData\Local\Temp\ccj5QhVO.s:22239  .debug_str:00000000000049b6 .LASF5224
C:\Users\CYMR90~1\AppData\Local\Temp\ccj5QhVO.s:22665  .debug_str:00000000000062f6 .LASF5225
C:\Users\CYMR90~1\AppData\Local\Temp\ccj5QhVO.s:29760  .debug_str:0000000000022b24 .LASF5226
C:\Users\CYMR90~1\AppData\Local\Temp\ccj5QhVO.s:31522  .debug_str:0000000000029bac .LASF5227
C:\Users\CYMR90~1\AppData\Local\Temp\ccj5QhVO.s:27330  .debug_str:000000000001911d .LASF5228
C:\Users\CYMR90~1\AppData\Local\Temp\ccj5QhVO.s:24131  .debug_str:000000000000c428 .LASF5229
C:\Users\CYMR90~1\AppData\Local\Temp\ccj5QhVO.s:28822  .debug_str:000000000001f203 .LASF5230
C:\Users\CYMR90~1\AppData\Local\Temp\ccj5QhVO.s:22147  .debug_str:0000000000004311 .LASF5231
C:\Users\CYMR90~1\AppData\Local\Temp\ccj5QhVO.s:29212  .debug_str:000000000002099f .LASF5232
C:\Users\CYMR90~1\AppData\Local\Temp\ccj5QhVO.s:26019  .debug_str:0000000000013d27 .LASF5233
C:\Users\CYMR90~1\AppData\Local\Temp\ccj5QhVO.s:31472  .debug_str:00000000000298d8 .LASF5234
C:\Users\CYMR90~1\AppData\Local\Temp\ccj5QhVO.s:25153  .debug_str:00000000000103fd .LASF5235
C:\Users\CYMR90~1\AppData\Local\Temp\ccj5QhVO.s:24383  .debug_str:000000000000d49d .LASF5236
C:\Users\CYMR90~1\AppData\Local\Temp\ccj5QhVO.s:28832  .debug_str:000000000001f2bc .LASF5237
C:\Users\CYMR90~1\AppData\Local\Temp\ccj5QhVO.s:32060  .debug_str:000000000002bc85 .LASF5238
C:\Users\CYMR90~1\AppData\Local\Temp\ccj5QhVO.s:30874  .debug_str:0000000000027227 .LASF5239
C:\Users\CYMR90~1\AppData\Local\Temp\ccj5QhVO.s:29936  .debug_str:0000000000023546 .LASF5240
C:\Users\CYMR90~1\AppData\Local\Temp\ccj5QhVO.s:23919  .debug_str:000000000000b536 .LASF5241
C:\Users\CYMR90~1\AppData\Local\Temp\ccj5QhVO.s:30068  .debug_str:0000000000023da2 .LASF5242
C:\Users\CYMR90~1\AppData\Local\Temp\ccj5QhVO.s:31166  .debug_str:0000000000028601 .LASF5243
C:\Users\CYMR90~1\AppData\Local\Temp\ccj5QhVO.s:27580  .debug_str:000000000001a1b8 .LASF5244
C:\Users\CYMR90~1\AppData\Local\Temp\ccj5QhVO.s:27112  .debug_str:000000000001830e .LASF5245
C:\Users\CYMR90~1\AppData\Local\Temp\ccj5QhVO.s:31000  .debug_str:0000000000027a3c .LASF5246
C:\Users\CYMR90~1\AppData\Local\Temp\ccj5QhVO.s:30368  .debug_str:0000000000025165 .LASF5247
C:\Users\CYMR90~1\AppData\Local\Temp\ccj5QhVO.s:23061  .debug_str:0000000000007c9d .LASF5248
C:\Users\CYMR90~1\AppData\Local\Temp\ccj5QhVO.s:22497  .debug_str:0000000000005947 .LASF5249
C:\Users\CYMR90~1\AppData\Local\Temp\ccj5QhVO.s:22807  .debug_str:0000000000006bb1 .LASF5250
C:\Users\CYMR90~1\AppData\Local\Temp\ccj5QhVO.s:24273  .debug_str:000000000000cd95 .LASF5251
C:\Users\CYMR90~1\AppData\Local\Temp\ccj5QhVO.s:25627  .debug_str:000000000001237b .LASF5252
C:\Users\CYMR90~1\AppData\Local\Temp\ccj5QhVO.s:24021  .debug_str:000000000000bc55 .LASF5253
C:\Users\CYMR90~1\AppData\Local\Temp\ccj5QhVO.s:31070  .debug_str:0000000000027f24 .LASF5254
C:\Users\CYMR90~1\AppData\Local\Temp\ccj5QhVO.s:30648  .debug_str:00000000000264be .LASF5255
C:\Users\CYMR90~1\AppData\Local\Temp\ccj5QhVO.s:26363  .debug_str:0000000000015286 .LASF5256
C:\Users\CYMR90~1\AppData\Local\Temp\ccj5QhVO.s:28992  .debug_str:000000000001fc00 .LASF5257
C:\Users\CYMR90~1\AppData\Local\Temp\ccj5QhVO.s:25933  .debug_str:00000000000137f5 .LASF5258
C:\Users\CYMR90~1\AppData\Local\Temp\ccj5QhVO.s:32210  .debug_str:000000000002c6bc .LASF5259
C:\Users\CYMR90~1\AppData\Local\Temp\ccj5QhVO.s:24153  .debug_str:000000000000c578 .LASF5260
C:\Users\CYMR90~1\AppData\Local\Temp\ccj5QhVO.s:28278  .debug_str:000000000001cfda .LASF5261
C:\Users\CYMR90~1\AppData\Local\Temp\ccj5QhVO.s:31830  .debug_str:000000000002adb6 .LASF5262
C:\Users\CYMR90~1\AppData\Local\Temp\ccj5QhVO.s:24347  .debug_str:000000000000d1ed .LASF5263
C:\Users\CYMR90~1\AppData\Local\Temp\ccj5QhVO.s:31464  .debug_str:0000000000029861 .LASF5264
C:\Users\CYMR90~1\AppData\Local\Temp\ccj5QhVO.s:26998  .debug_str:0000000000017c52 .LASF5265
C:\Users\CYMR90~1\AppData\Local\Temp\ccj5QhVO.s:26175  .debug_str:0000000000014689 .LASF5266
C:\Users\CYMR90~1\AppData\Local\Temp\ccj5QhVO.s:27056  .debug_str:0000000000017fcc .LASF5267
C:\Users\CYMR90~1\AppData\Local\Temp\ccj5QhVO.s:26371  .debug_str:0000000000015304 .LASF5268
C:\Users\CYMR90~1\AppData\Local\Temp\ccj5QhVO.s:24409  .debug_str:000000000000d6ba .LASF5269
C:\Users\CYMR90~1\AppData\Local\Temp\ccj5QhVO.s:26047  .debug_str:0000000000013ed8 .LASF5270
C:\Users\CYMR90~1\AppData\Local\Temp\ccj5QhVO.s:21775  .debug_str:0000000000002acb .LASF5271
C:\Users\CYMR90~1\AppData\Local\Temp\ccj5QhVO.s:23597  .debug_str:0000000000009fce .LASF5272
C:\Users\CYMR90~1\AppData\Local\Temp\ccj5QhVO.s:30396  .debug_str:0000000000025381 .LASF5273
C:\Users\CYMR90~1\AppData\Local\Temp\ccj5QhVO.s:28342  .debug_str:000000000001d46a .LASF5274
C:\Users\CYMR90~1\AppData\Local\Temp\ccj5QhVO.s:32296  .debug_str:000000000002cc61 .LASF5275
C:\Users\CYMR90~1\AppData\Local\Temp\ccj5QhVO.s:26551  .debug_str:0000000000015dd5 .LASF5276
C:\Users\CYMR90~1\AppData\Local\Temp\ccj5QhVO.s:23633  .debug_str:000000000000a234 .LASF5277
C:\Users\CYMR90~1\AppData\Local\Temp\ccj5QhVO.s:24445  .debug_str:000000000000d8eb .LASF5278
C:\Users\CYMR90~1\AppData\Local\Temp\ccj5QhVO.s:29112  .debug_str:0000000000020327 .LASF5279
C:\Users\CYMR90~1\AppData\Local\Temp\ccj5QhVO.s:30490  .debug_str:0000000000025afb .LASF5280
C:\Users\CYMR90~1\AppData\Local\Temp\ccj5QhVO.s:24251  .debug_str:000000000000cc16 .LASF5281
C:\Users\CYMR90~1\AppData\Local\Temp\ccj5QhVO.s:23663  .debug_str:000000000000a419 .LASF5282
C:\Users\CYMR90~1\AppData\Local\Temp\ccj5QhVO.s:27800  .debug_str:000000000001b0e7 .LASF5283
C:\Users\CYMR90~1\AppData\Local\Temp\ccj5QhVO.s:25051  .debug_str:000000000000fda0 .LASF5284
C:\Users\CYMR90~1\AppData\Local\Temp\ccj5QhVO.s:27270  .debug_str:0000000000018cb8 .LASF5285
C:\Users\CYMR90~1\AppData\Local\Temp\ccj5QhVO.s:24219  .debug_str:000000000000c9a2 .LASF5286
C:\Users\CYMR90~1\AppData\Local\Temp\ccj5QhVO.s:24349  .debug_str:000000000000d205 .LASF5287
C:\Users\CYMR90~1\AppData\Local\Temp\ccj5QhVO.s:25423  .debug_str:0000000000011504 .LASF5288
C:\Users\CYMR90~1\AppData\Local\Temp\ccj5QhVO.s:28474  .debug_str:000000000001dca7 .LASF5289
C:\Users\CYMR90~1\AppData\Local\Temp\ccj5QhVO.s:23389  .debug_str:0000000000009283 .LASF5290
C:\Users\CYMR90~1\AppData\Local\Temp\ccj5QhVO.s:23453  .debug_str:000000000000968e .LASF5291
C:\Users\CYMR90~1\AppData\Local\Temp\ccj5QhVO.s:28366  .debug_str:000000000001d5d7 .LASF5292
C:\Users\CYMR90~1\AppData\Local\Temp\ccj5QhVO.s:31286  .debug_str:0000000000028da2 .LASF5293
C:\Users\CYMR90~1\AppData\Local\Temp\ccj5QhVO.s:29682  .debug_str:0000000000022608 .LASF5294
C:\Users\CYMR90~1\AppData\Local\Temp\ccj5QhVO.s:21085  .debug_str:00000000000000c4 .LASF5295
C:\Users\CYMR90~1\AppData\Local\Temp\ccj5QhVO.s:23307  .debug_str:0000000000008d2c .LASF5296
C:\Users\CYMR90~1\AppData\Local\Temp\ccj5QhVO.s:32348  .debug_str:000000000002cfd3 .LASF5297
C:\Users\CYMR90~1\AppData\Local\Temp\ccj5QhVO.s:28504  .debug_str:000000000001dee6 .LASF5298
C:\Users\CYMR90~1\AppData\Local\Temp\ccj5QhVO.s:29896  .debug_str:00000000000232e7 .LASF5299
C:\Users\CYMR90~1\AppData\Local\Temp\ccj5QhVO.s:21713  .debug_str:000000000000269e .LASF5300
C:\Users\CYMR90~1\AppData\Local\Temp\ccj5QhVO.s:29310  .debug_str:0000000000020f89 .LASF5301
C:\Users\CYMR90~1\AppData\Local\Temp\ccj5QhVO.s:31194  .debug_str:00000000000287dc .LASF5302
C:\Users\CYMR90~1\AppData\Local\Temp\ccj5QhVO.s:21177  .debug_str:0000000000000604 .LASF5303
C:\Users\CYMR90~1\AppData\Local\Temp\ccj5QhVO.s:25655  .debug_str:0000000000012513 .LASF5304
C:\Users\CYMR90~1\AppData\Local\Temp\ccj5QhVO.s:26073  .debug_str:000000000001404f .LASF5305
C:\Users\CYMR90~1\AppData\Local\Temp\ccj5QhVO.s:25625  .debug_str:0000000000012362 .LASF5306
C:\Users\CYMR90~1\AppData\Local\Temp\ccj5QhVO.s:22671  .debug_str:0000000000006358 .LASF5307
C:\Users\CYMR90~1\AppData\Local\Temp\ccj5QhVO.s:28812  .debug_str:000000000001f153 .LASF5308
C:\Users\CYMR90~1\AppData\Local\Temp\ccj5QhVO.s:26948  .debug_str:00000000000178ed .LASF5309
C:\Users\CYMR90~1\AppData\Local\Temp\ccj5QhVO.s:21439  .debug_str:00000000000015e6 .LASF5310
C:\Users\CYMR90~1\AppData\Local\Temp\ccj5QhVO.s:29030  .debug_str:000000000001fe4b .LASF5311
C:\Users\CYMR90~1\AppData\Local\Temp\ccj5QhVO.s:21789  .debug_str:0000000000002bee .LASF5312
C:\Users\CYMR90~1\AppData\Local\Temp\ccj5QhVO.s:29956  .debug_str:0000000000023670 .LASF5313
C:\Users\CYMR90~1\AppData\Local\Temp\ccj5QhVO.s:21391  .debug_str:000000000000131b .LASF5314
C:\Users\CYMR90~1\AppData\Local\Temp\ccj5QhVO.s:30816  .debug_str:0000000000026ea5 .LASF5315
C:\Users\CYMR90~1\AppData\Local\Temp\ccj5QhVO.s:31728  .debug_str:000000000002a7b3 .LASF5316
C:\Users\CYMR90~1\AppData\Local\Temp\ccj5QhVO.s:22007  .debug_str:00000000000039e3 .LASF5317
C:\Users\CYMR90~1\AppData\Local\Temp\ccj5QhVO.s:23883  .debug_str:000000000000b34b .LASF5318
C:\Users\CYMR90~1\AppData\Local\Temp\ccj5QhVO.s:30116  .debug_str:0000000000024053 .LASF5319
C:\Users\CYMR90~1\AppData\Local\Temp\ccj5QhVO.s:22571  .debug_str:0000000000005d7b .LASF5320
C:\Users\CYMR90~1\AppData\Local\Temp\ccj5QhVO.s:30970  .debug_str:00000000000278a9 .LASF5321
C:\Users\CYMR90~1\AppData\Local\Temp\ccj5QhVO.s:23153  .debug_str:00000000000083b3 .LASF5322
C:\Users\CYMR90~1\AppData\Local\Temp\ccj5QhVO.s:31938  .debug_str:000000000002b46d .LASF5323
C:\Users\CYMR90~1\AppData\Local\Temp\ccj5QhVO.s:29106  .debug_str:00000000000202dc .LASF5324
C:\Users\CYMR90~1\AppData\Local\Temp\ccj5QhVO.s:27424  .debug_str:000000000001974a .LASF5325
C:\Users\CYMR90~1\AppData\Local\Temp\ccj5QhVO.s:21317  .debug_str:0000000000000f30 .LASF5326
C:\Users\CYMR90~1\AppData\Local\Temp\ccj5QhVO.s:28938  .debug_str:000000000001f8c8 .LASF5327
C:\Users\CYMR90~1\AppData\Local\Temp\ccj5QhVO.s:22521  .debug_str:0000000000005ab4 .LASF5328
C:\Users\CYMR90~1\AppData\Local\Temp\ccj5QhVO.s:31906  .debug_str:000000000002b237 .LASF5329
C:\Users\CYMR90~1\AppData\Local\Temp\ccj5QhVO.s:26671  .debug_str:0000000000016561 .LASF5330
C:\Users\CYMR90~1\AppData\Local\Temp\ccj5QhVO.s:26469  .debug_str:00000000000158a8 .LASF5331
C:\Users\CYMR90~1\AppData\Local\Temp\ccj5QhVO.s:27492  .debug_str:0000000000019c61 .LASF5332
C:\Users\CYMR90~1\AppData\Local\Temp\ccj5QhVO.s:30712  .debug_str:0000000000026877 .LASF5333
C:\Users\CYMR90~1\AppData\Local\Temp\ccj5QhVO.s:30276  .debug_str:0000000000024b96 .LASF5334
C:\Users\CYMR90~1\AppData\Local\Temp\ccj5QhVO.s:31886  .debug_str:000000000002b10e .LASF5335
C:\Users\CYMR90~1\AppData\Local\Temp\ccj5QhVO.s:22057  .debug_str:0000000000003cfd .LASF5336
C:\Users\CYMR90~1\AppData\Local\Temp\ccj5QhVO.s:28734  .debug_str:000000000001ecd8 .LASF5337
C:\Users\CYMR90~1\AppData\Local\Temp\ccj5QhVO.s:28172  .debug_str:000000000001c7b1 .LASF5338
C:\Users\CYMR90~1\AppData\Local\Temp\ccj5QhVO.s:25847  .debug_str:000000000001319c .LASF5339
C:\Users\CYMR90~1\AppData\Local\Temp\ccj5QhVO.s:22475  .debug_str:00000000000057ea .LASF5340
C:\Users\CYMR90~1\AppData\Local\Temp\ccj5QhVO.s:29512  .debug_str:0000000000021c1b .LASF5341
C:\Users\CYMR90~1\AppData\Local\Temp\ccj5QhVO.s:23473  .debug_str:00000000000097ac .LASF5342
C:\Users\CYMR90~1\AppData\Local\Temp\ccj5QhVO.s:32280  .debug_str:000000000002cb44 .LASF5343
C:\Users\CYMR90~1\AppData\Local\Temp\ccj5QhVO.s:31342  .debug_str:00000000000290f4 .LASF5344
C:\Users\CYMR90~1\AppData\Local\Temp\ccj5QhVO.s:21891  .debug_str:0000000000003249 .LASF5345
C:\Users\CYMR90~1\AppData\Local\Temp\ccj5QhVO.s:29466  .debug_str:0000000000021975 .LASF5346
C:\Users\CYMR90~1\AppData\Local\Temp\ccj5QhVO.s:32242  .debug_str:000000000002c885 .LASF5347
C:\Users\CYMR90~1\AppData\Local\Temp\ccj5QhVO.s:28712  .debug_str:000000000001eb90 .LASF5348
C:\Users\CYMR90~1\AppData\Local\Temp\ccj5QhVO.s:31590  .debug_str:0000000000029fb1 .LASF5349
C:\Users\CYMR90~1\AppData\Local\Temp\ccj5QhVO.s:26545  .debug_str:0000000000015d8f .LASF5350
C:\Users\CYMR90~1\AppData\Local\Temp\ccj5QhVO.s:28644  .debug_str:000000000001e757 .LASF5351
C:\Users\CYMR90~1\AppData\Local\Temp\ccj5QhVO.s:24939  .debug_str:000000000000f678 .LASF5352
C:\Users\CYMR90~1\AppData\Local\Temp\ccj5QhVO.s:24927  .debug_str:000000000000f5cb .LASF5353
C:\Users\CYMR90~1\AppData\Local\Temp\ccj5QhVO.s:29010  .debug_str:000000000001fd1e .LASF5354
C:\Users\CYMR90~1\AppData\Local\Temp\ccj5QhVO.s:30704  .debug_str:000000000002680e .LASF5355
C:\Users\CYMR90~1\AppData\Local\Temp\ccj5QhVO.s:25021  .debug_str:000000000000fbe8 .LASF5356
C:\Users\CYMR90~1\AppData\Local\Temp\ccj5QhVO.s:27438  .debug_str:000000000001982d .LASF5357
C:\Users\CYMR90~1\AppData\Local\Temp\ccj5QhVO.s:22329  .debug_str:0000000000004f3b .LASF5358
C:\Users\CYMR90~1\AppData\Local\Temp\ccj5QhVO.s:26759  .debug_str:0000000000016b68 .LASF5359
C:\Users\CYMR90~1\AppData\Local\Temp\ccj5QhVO.s:21589  .debug_str:0000000000001f6b .LASF5360
C:\Users\CYMR90~1\AppData\Local\Temp\ccj5QhVO.s:21911  .debug_str:00000000000033a8 .LASF5361
C:\Users\CYMR90~1\AppData\Local\Temp\ccj5QhVO.s:24681  .debug_str:000000000000e6a9 .LASF5362
C:\Users\CYMR90~1\AppData\Local\Temp\ccj5QhVO.s:25425  .debug_str:0000000000011526 .LASF5363
C:\Users\CYMR90~1\AppData\Local\Temp\ccj5QhVO.s:23815  .debug_str:000000000000ae47 .LASF5364
C:\Users\CYMR90~1\AppData\Local\Temp\ccj5QhVO.s:22105  .debug_str:000000000000402e .LASF5365
C:\Users\CYMR90~1\AppData\Local\Temp\ccj5QhVO.s:31994  .debug_str:000000000002b80d .LASF5366
C:\Users\CYMR90~1\AppData\Local\Temp\ccj5QhVO.s:23641  .debug_str:000000000000a2c0 .LASF5367
C:\Users\CYMR90~1\AppData\Local\Temp\ccj5QhVO.s:29254  .debug_str:0000000000020bfc .LASF5368
C:\Users\CYMR90~1\AppData\Local\Temp\ccj5QhVO.s:29950  .debug_str:0000000000023619 .LASF5369
C:\Users\CYMR90~1\AppData\Local\Temp\ccj5QhVO.s:32030  .debug_str:000000000002ba9d .LASF5370
C:\Users\CYMR90~1\AppData\Local\Temp\ccj5QhVO.s:21373  .debug_str:0000000000001227 .LASF5371
C:\Users\CYMR90~1\AppData\Local\Temp\ccj5QhVO.s:26832  .debug_str:0000000000017219 .LASF5372
C:\Users\CYMR90~1\AppData\Local\Temp\ccj5QhVO.s:29578  .debug_str:0000000000022049 .LASF5373
C:\Users\CYMR90~1\AppData\Local\Temp\ccj5QhVO.s:28506  .debug_str:000000000001df08 .LASF5374
C:\Users\CYMR90~1\AppData\Local\Temp\ccj5QhVO.s:31832  .debug_str:000000000002adcd .LASF5375
C:\Users\CYMR90~1\AppData\Local\Temp\ccj5QhVO.s:21559  .debug_str:0000000000001db2 .LASF5376
C:\Users\CYMR90~1\AppData\Local\Temp\ccj5QhVO.s:27778  .debug_str:000000000001af3f .LASF5377
C:\Users\CYMR90~1\AppData\Local\Temp\ccj5QhVO.s:24563  .debug_str:000000000000dfdf .LASF5378
C:\Users\CYMR90~1\AppData\Local\Temp\ccj5QhVO.s:26117  .debug_str:0000000000014326 .LASF5379
C:\Users\CYMR90~1\AppData\Local\Temp\ccj5QhVO.s:31204  .debug_str:0000000000028894 .LASF5380
C:\Users\CYMR90~1\AppData\Local\Temp\ccj5QhVO.s:32138  .debug_str:000000000002c1dd .LASF5381
C:\Users\CYMR90~1\AppData\Local\Temp\ccj5QhVO.s:29820  .debug_str:0000000000022f05 .LASF5382
C:\Users\CYMR90~1\AppData\Local\Temp\ccj5QhVO.s:21431  .debug_str:000000000000155b .LASF5383
C:\Users\CYMR90~1\AppData\Local\Temp\ccj5QhVO.s:21739  .debug_str:000000000000288c .LASF5384
C:\Users\CYMR90~1\AppData\Local\Temp\ccj5QhVO.s:21835  .debug_str:0000000000002eb0 .LASF5385
C:\Users\CYMR90~1\AppData\Local\Temp\ccj5QhVO.s:22631  .debug_str:000000000000610e .LASF5386
C:\Users\CYMR90~1\AppData\Local\Temp\ccj5QhVO.s:25877  .debug_str:00000000000133ba .LASF5387
C:\Users\CYMR90~1\AppData\Local\Temp\ccj5QhVO.s:24423  .debug_str:000000000000d7a8 .LASF5388
C:\Users\CYMR90~1\AppData\Local\Temp\ccj5QhVO.s:21623  .debug_str:0000000000002131 .LASF5389
C:\Users\CYMR90~1\AppData\Local\Temp\ccj5QhVO.s:27450  .debug_str:000000000001994e .LASF5390
C:\Users\CYMR90~1\AppData\Local\Temp\ccj5QhVO.s:22579  .debug_str:0000000000005ddf .LASF5391
C:\Users\CYMR90~1\AppData\Local\Temp\ccj5QhVO.s:22413  .debug_str:0000000000005416 .LASF5392
C:\Users\CYMR90~1\AppData\Local\Temp\ccj5QhVO.s:23941  .debug_str:000000000000b709 .LASF5393
C:\Users\CYMR90~1\AppData\Local\Temp\ccj5QhVO.s:22173  .debug_str:00000000000044c3 .LASF5394
C:\Users\CYMR90~1\AppData\Local\Temp\ccj5QhVO.s:25307  .debug_str:0000000000010e94 .LASF5395
C:\Users\CYMR90~1\AppData\Local\Temp\ccj5QhVO.s:29772  .debug_str:0000000000022bd0 .LASF5396
C:\Users\CYMR90~1\AppData\Local\Temp\ccj5QhVO.s:22187  .debug_str:000000000000459e .LASF5397
C:\Users\CYMR90~1\AppData\Local\Temp\ccj5QhVO.s:24025  .debug_str:000000000000bc87 .LASF5398
C:\Users\CYMR90~1\AppData\Local\Temp\ccj5QhVO.s:23973  .debug_str:000000000000b956 .LASF5399
C:\Users\CYMR90~1\AppData\Local\Temp\ccj5QhVO.s:26888  .debug_str:000000000001753f .LASF5400
C:\Users\CYMR90~1\AppData\Local\Temp\ccj5QhVO.s:30466  .debug_str:0000000000025905 .LASF5401
C:\Users\CYMR90~1\AppData\Local\Temp\ccj5QhVO.s:23697  .debug_str:000000000000a63f .LASF5402
C:\Users\CYMR90~1\AppData\Local\Temp\ccj5QhVO.s:21715  .debug_str:00000000000026d7 .LASF5403
C:\Users\CYMR90~1\AppData\Local\Temp\ccj5QhVO.s:27888  .debug_str:000000000001b69f .LASF5404
C:\Users\CYMR90~1\AppData\Local\Temp\ccj5QhVO.s:22287  .debug_str:0000000000004cbb .LASF5405
C:\Users\CYMR90~1\AppData\Local\Temp\ccj5QhVO.s:27264  .debug_str:0000000000018c6c .LASF5406
C:\Users\CYMR90~1\AppData\Local\Temp\ccj5QhVO.s:22879  .debug_str:0000000000007088 .LASF5407
C:\Users\CYMR90~1\AppData\Local\Temp\ccj5QhVO.s:21575  .debug_str:0000000000001eb9 .LASF5408
C:\Users\CYMR90~1\AppData\Local\Temp\ccj5QhVO.s:27620  .debug_str:000000000001a3f8 .LASF5409
C:\Users\CYMR90~1\AppData\Local\Temp\ccj5QhVO.s:22701  .debug_str:000000000000651b .LASF5410
C:\Users\CYMR90~1\AppData\Local\Temp\ccj5QhVO.s:23631  .debug_str:000000000000a21d .LASF5411
C:\Users\CYMR90~1\AppData\Local\Temp\ccj5QhVO.s:32258  .debug_str:000000000002c9cc .LASF5412
C:\Users\CYMR90~1\AppData\Local\Temp\ccj5QhVO.s:22653  .debug_str:0000000000006249 .LASF5413
C:\Users\CYMR90~1\AppData\Local\Temp\ccj5QhVO.s:21201  .debug_str:0000000000000798 .LASF5414
C:\Users\CYMR90~1\AppData\Local\Temp\ccj5QhVO.s:22103  .debug_str:0000000000004016 .LASF5415
C:\Users\CYMR90~1\AppData\Local\Temp\ccj5QhVO.s:22599  .debug_str:0000000000005f0b .LASF5416
C:\Users\CYMR90~1\AppData\Local\Temp\ccj5QhVO.s:22403  .debug_str:0000000000005397 .LASF5417
C:\Users\CYMR90~1\AppData\Local\Temp\ccj5QhVO.s:31770  .debug_str:000000000002aa4f .LASF5418
C:\Users\CYMR90~1\AppData\Local\Temp\ccj5QhVO.s:24095  .debug_str:000000000000c1bb .LASF5419
C:\Users\CYMR90~1\AppData\Local\Temp\ccj5QhVO.s:21755  .debug_str:000000000000297f .LASF5420
C:\Users\CYMR90~1\AppData\Local\Temp\ccj5QhVO.s:29668  .debug_str:0000000000022566 .LASF5421
C:\Users\CYMR90~1\AppData\Local\Temp\ccj5QhVO.s:21745  .debug_str:00000000000028e8 .LASF5422
C:\Users\CYMR90~1\AppData\Local\Temp\ccj5QhVO.s:21327  .debug_str:0000000000000fa9 .LASF5423
C:\Users\CYMR90~1\AppData\Local\Temp\ccj5QhVO.s:22415  .debug_str:000000000000543a .LASF5424
C:\Users\CYMR90~1\AppData\Local\Temp\ccj5QhVO.s:22537  .debug_str:0000000000005bc8 .LASF5425
C:\Users\CYMR90~1\AppData\Local\Temp\ccj5QhVO.s:23945  .debug_str:000000000000b763 .LASF5426
C:\Users\CYMR90~1\AppData\Local\Temp\ccj5QhVO.s:31650  .debug_str:000000000002a2fd .LASF5427
C:\Users\CYMR90~1\AppData\Local\Temp\ccj5QhVO.s:29686  .debug_str:0000000000022662 .LASF5428
C:\Users\CYMR90~1\AppData\Local\Temp\ccj5QhVO.s:23981  .debug_str:000000000000b9c6 .LASF5429
C:\Users\CYMR90~1\AppData\Local\Temp\ccj5QhVO.s:27076  .debug_str:00000000000180e1 .LASF5430
C:\Users\CYMR90~1\AppData\Local\Temp\ccj5QhVO.s:24933  .debug_str:000000000000f624 .LASF5431
C:\Users\CYMR90~1\AppData\Local\Temp\ccj5QhVO.s:23715  .debug_str:000000000000a729 .LASF5432
C:\Users\CYMR90~1\AppData\Local\Temp\ccj5QhVO.s:31502  .debug_str:0000000000029a69 .LASF5433
C:\Users\CYMR90~1\AppData\Local\Temp\ccj5QhVO.s:27716  .debug_str:000000000001ab91 .LASF5434
C:\Users\CYMR90~1\AppData\Local\Temp\ccj5QhVO.s:22799  .debug_str:0000000000006b41 .LASF5435
C:\Users\CYMR90~1\AppData\Local\Temp\ccj5QhVO.s:21487  .debug_str:0000000000001961 .LASF5436
C:\Users\CYMR90~1\AppData\Local\Temp\ccj5QhVO.s:28622  .debug_str:000000000001e600 .LASF5437
C:\Users\CYMR90~1\AppData\Local\Temp\ccj5QhVO.s:23959  .debug_str:000000000000b85a .LASF5438
C:\Users\CYMR90~1\AppData\Local\Temp\ccj5QhVO.s:21503  .debug_str:0000000000001a5a .LASF5439
C:\Users\CYMR90~1\AppData\Local\Temp\ccj5QhVO.s:26529  .debug_str:0000000000015c2a .LASF5440
C:\Users\CYMR90~1\AppData\Local\Temp\ccj5QhVO.s:30344  .debug_str:0000000000024fc8 .LASF5441
C:\Users\CYMR90~1\AppData\Local\Temp\ccj5QhVO.s:29724  .debug_str:00000000000228f8 .LASF5442
C:\Users\CYMR90~1\AppData\Local\Temp\ccj5QhVO.s:25943  .debug_str:0000000000013877 .LASF5443
C:\Users\CYMR90~1\AppData\Local\Temp\ccj5QhVO.s:23365  .debug_str:0000000000009102 .LASF5444
C:\Users\CYMR90~1\AppData\Local\Temp\ccj5QhVO.s:32234  .debug_str:000000000002c808 .LASF5445
C:\Users\CYMR90~1\AppData\Local\Temp\ccj5QhVO.s:30644  .debug_str:0000000000026476 .LASF5446
C:\Users\CYMR90~1\AppData\Local\Temp\ccj5QhVO.s:22055  .debug_str:0000000000003ce6 .LASF5447
C:\Users\CYMR90~1\AppData\Local\Temp\ccj5QhVO.s:29528  .debug_str:0000000000021d38 .LASF5448
C:\Users\CYMR90~1\AppData\Local\Temp\ccj5QhVO.s:22023  .debug_str:0000000000003af5 .LASF5449
C:\Users\CYMR90~1\AppData\Local\Temp\ccj5QhVO.s:22003  .debug_str:0000000000003995 .LASF5450
C:\Users\CYMR90~1\AppData\Local\Temp\ccj5QhVO.s:25239  .debug_str:00000000000109a2 .LASF5451
C:\Users\CYMR90~1\AppData\Local\Temp\ccj5QhVO.s:22769  .debug_str:000000000000695a .LASF5452
C:\Users\CYMR90~1\AppData\Local\Temp\ccj5QhVO.s:25635  .debug_str:0000000000012402 .LASF5453
C:\Users\CYMR90~1\AppData\Local\Temp\ccj5QhVO.s:25287  .debug_str:0000000000010ce1 .LASF5454
C:\Users\CYMR90~1\AppData\Local\Temp\ccj5QhVO.s:23023  .debug_str:0000000000007a24 .LASF5455
C:\Users\CYMR90~1\AppData\Local\Temp\ccj5QhVO.s:22989  .debug_str:00000000000077e0 .LASF5456
C:\Users\CYMR90~1\AppData\Local\Temp\ccj5QhVO.s:24565  .debug_str:000000000000e009 .LASF5457
C:\Users\CYMR90~1\AppData\Local\Temp\ccj5QhVO.s:32194  .debug_str:000000000002c5e0 .LASF5458
C:\Users\CYMR90~1\AppData\Local\Temp\ccj5QhVO.s:28026  .debug_str:000000000001bee6 .LASF5459
C:\Users\CYMR90~1\AppData\Local\Temp\ccj5QhVO.s:29166  .debug_str:000000000002069c .LASF5460
C:\Users\CYMR90~1\AppData\Local\Temp\ccj5QhVO.s:22561  .debug_str:0000000000005cf7 .LASF5461
C:\Users\CYMR90~1\AppData\Local\Temp\ccj5QhVO.s:23501  .debug_str:00000000000099a6 .LASF5462
C:\Users\CYMR90~1\AppData\Local\Temp\ccj5QhVO.s:31520  .debug_str:0000000000029b93 .LASF5463
C:\Users\CYMR90~1\AppData\Local\Temp\ccj5QhVO.s:23367  .debug_str:000000000000911f .LASF5464
C:\Users\CYMR90~1\AppData\Local\Temp\ccj5QhVO.s:25121  .debug_str:0000000000010223 .LASF5465
C:\Users\CYMR90~1\AppData\Local\Temp\ccj5QhVO.s:32090  .debug_str:000000000002be73 .LASF5466
C:\Users\CYMR90~1\AppData\Local\Temp\ccj5QhVO.s:22637  .debug_str:0000000000006161 .LASF5467
C:\Users\CYMR90~1\AppData\Local\Temp\ccj5QhVO.s:24947  .debug_str:000000000000f6f0 .LASF5468
C:\Users\CYMR90~1\AppData\Local\Temp\ccj5QhVO.s:30734  .debug_str:00000000000269f9 .LASF5469
C:\Users\CYMR90~1\AppData\Local\Temp\ccj5QhVO.s:29626  .debug_str:000000000002230f .LASF5470
C:\Users\CYMR90~1\AppData\Local\Temp\ccj5QhVO.s:32390  .debug_str:000000000002d237 .LASF5471
C:\Users\CYMR90~1\AppData\Local\Temp\ccj5QhVO.s:29252  .debug_str:0000000000020bdd .LASF5472
C:\Users\CYMR90~1\AppData\Local\Temp\ccj5QhVO.s:24699  .debug_str:000000000000e811 .LASF5473
C:\Users\CYMR90~1\AppData\Local\Temp\ccj5QhVO.s:22053  .debug_str:0000000000003cc9 .LASF5474
C:\Users\CYMR90~1\AppData\Local\Temp\ccj5QhVO.s:27704  .debug_str:000000000001aacf .LASF5475
C:\Users\CYMR90~1\AppData\Local\Temp\ccj5QhVO.s:28620  .debug_str:000000000001e5e0 .LASF5476
C:\Users\CYMR90~1\AppData\Local\Temp\ccj5QhVO.s:26185  .debug_str:0000000000014704 .LASF5477
C:\Users\CYMR90~1\AppData\Local\Temp\ccj5QhVO.s:22809  .debug_str:0000000000006bc8 .LASF5478
C:\Users\CYMR90~1\AppData\Local\Temp\ccj5QhVO.s:25593  .debug_str:00000000000120ce .LASF5479
C:\Users\CYMR90~1\AppData\Local\Temp\ccj5QhVO.s:27564  .debug_str:000000000001a0c7 .LASF5480
C:\Users\CYMR90~1\AppData\Local\Temp\ccj5QhVO.s:23603  .debug_str:000000000000a031 .LASF5481
C:\Users\CYMR90~1\AppData\Local\Temp\ccj5QhVO.s:28536  .debug_str:000000000001e10e .LASF5482
C:\Users\CYMR90~1\AppData\Local\Temp\ccj5QhVO.s:27460  .debug_str:0000000000019a54 .LASF5483
C:\Users\CYMR90~1\AppData\Local\Temp\ccj5QhVO.s:27774  .debug_str:000000000001af1d .LASF5484
C:\Users\CYMR90~1\AppData\Local\Temp\ccj5QhVO.s:31244  .debug_str:0000000000028b30 .LASF5485
C:\Users\CYMR90~1\AppData\Local\Temp\ccj5QhVO.s:24583  .debug_str:000000000000e101 .LASF5486
C:\Users\CYMR90~1\AppData\Local\Temp\ccj5QhVO.s:25469  .debug_str:00000000000117fa .LASF5487
C:\Users\CYMR90~1\AppData\Local\Temp\ccj5QhVO.s:21991  .debug_str:00000000000038fc .LASF5488
C:\Users\CYMR90~1\AppData\Local\Temp\ccj5QhVO.s:24547  .debug_str:000000000000de97 .LASF5489
C:\Users\CYMR90~1\AppData\Local\Temp\ccj5QhVO.s:25471  .debug_str:0000000000011812 .LASF5490
C:\Users\CYMR90~1\AppData\Local\Temp\ccj5QhVO.s:22945  .debug_str:000000000000751e .LASF5491
C:\Users\CYMR90~1\AppData\Local\Temp\ccj5QhVO.s:21271  .debug_str:0000000000000c22 .LASF5492
C:\Users\CYMR90~1\AppData\Local\Temp\ccj5QhVO.s:30494  .debug_str:0000000000025b37 .LASF5493
C:\Users\CYMR90~1\AppData\Local\Temp\ccj5QhVO.s:27426  .debug_str:0000000000019782 .LASF5494
C:\Users\CYMR90~1\AppData\Local\Temp\ccj5QhVO.s:21435  .debug_str:00000000000015b0 .LASF5495
C:\Users\CYMR90~1\AppData\Local\Temp\ccj5QhVO.s:25283  .debug_str:0000000000010c8b .LASF5496
C:\Users\CYMR90~1\AppData\Local\Temp\ccj5QhVO.s:25659  .debug_str:000000000001256e .LASF5497
C:\Users\CYMR90~1\AppData\Local\Temp\ccj5QhVO.s:23761  .debug_str:000000000000aae3 .LASF5498
C:\Users\CYMR90~1\AppData\Local\Temp\ccj5QhVO.s:31998  .debug_str:000000000002b858 .LASF5499
C:\Users\CYMR90~1\AppData\Local\Temp\ccj5QhVO.s:23845  .debug_str:000000000000b0fc .LASF5500
C:\Users\CYMR90~1\AppData\Local\Temp\ccj5QhVO.s:27512  .debug_str:0000000000019da9 .LASF5501
C:\Users\CYMR90~1\AppData\Local\Temp\ccj5QhVO.s:31750  .debug_str:000000000002a91b .LASF5502
C:\Users\CYMR90~1\AppData\Local\Temp\ccj5QhVO.s:22725  .debug_str:0000000000006675 .LASF5503
C:\Users\CYMR90~1\AppData\Local\Temp\ccj5QhVO.s:31790  .debug_str:000000000002ab5e .LASF5504
C:\Users\CYMR90~1\AppData\Local\Temp\ccj5QhVO.s:23531  .debug_str:0000000000009bb5 .LASF5505
C:\Users\CYMR90~1\AppData\Local\Temp\ccj5QhVO.s:28390  .debug_str:000000000001d74f .LASF5506
C:\Users\CYMR90~1\AppData\Local\Temp\ccj5QhVO.s:31046  .debug_str:0000000000027d51 .LASF5507
C:\Users\CYMR90~1\AppData\Local\Temp\ccj5QhVO.s:30122  .debug_str:00000000000240be .LASF5508
C:\Users\CYMR90~1\AppData\Local\Temp\ccj5QhVO.s:26233  .debug_str:0000000000014a10 .LASF5509
C:\Users\CYMR90~1\AppData\Local\Temp\ccj5QhVO.s:27974  .debug_str:000000000001bb9b .LASF5510
C:\Users\CYMR90~1\AppData\Local\Temp\ccj5QhVO.s:28190  .debug_str:000000000001c8e0 .LASF5511
C:\Users\CYMR90~1\AppData\Local\Temp\ccj5QhVO.s:30684  .debug_str:00000000000266e1 .LASF5512
C:\Users\CYMR90~1\AppData\Local\Temp\ccj5QhVO.s:21529  .debug_str:0000000000001c09 .LASF5513
C:\Users\CYMR90~1\AppData\Local\Temp\ccj5QhVO.s:27840  .debug_str:000000000001b3ac .LASF5514
C:\Users\CYMR90~1\AppData\Local\Temp\ccj5QhVO.s:30934  .debug_str:0000000000027698 .LASF5515
C:\Users\CYMR90~1\AppData\Local\Temp\ccj5QhVO.s:23261  .debug_str:0000000000008a88 .LASF5516
C:\Users\CYMR90~1\AppData\Local\Temp\ccj5QhVO.s:29598  .debug_str:0000000000022155 .LASF5517
C:\Users\CYMR90~1\AppData\Local\Temp\ccj5QhVO.s:27530  .debug_str:0000000000019ecc .LASF5518
C:\Users\CYMR90~1\AppData\Local\Temp\ccj5QhVO.s:23349  .debug_str:0000000000009030 .LASF5519
C:\Users\CYMR90~1\AppData\Local\Temp\ccj5QhVO.s:28328  .debug_str:000000000001d39a .LASF5520
C:\Users\CYMR90~1\AppData\Local\Temp\ccj5QhVO.s:25803  .debug_str:0000000000012ed0 .LASF5521
C:\Users\CYMR90~1\AppData\Local\Temp\ccj5QhVO.s:23823  .debug_str:000000000000aec2 .LASF5522
C:\Users\CYMR90~1\AppData\Local\Temp\ccj5QhVO.s:28258  .debug_str:000000000001cdfe .LASF5523
C:\Users\CYMR90~1\AppData\Local\Temp\ccj5QhVO.s:23185  .debug_str:00000000000085b7 .LASF5524
C:\Users\CYMR90~1\AppData\Local\Temp\ccj5QhVO.s:22295  .debug_str:0000000000004d1f .LASF5525
C:\Users\CYMR90~1\AppData\Local\Temp\ccj5QhVO.s:21079  .debug_str:000000000000006a .LASF5526
C:\Users\CYMR90~1\AppData\Local\Temp\ccj5QhVO.s:30560  .debug_str:0000000000025f3c .LASF5527
C:\Users\CYMR90~1\AppData\Local\Temp\ccj5QhVO.s:27556  .debug_str:000000000001a036 .LASF5528
C:\Users\CYMR90~1\AppData\Local\Temp\ccj5QhVO.s:27566  .debug_str:000000000001a0e7 .LASF5529
C:\Users\CYMR90~1\AppData\Local\Temp\ccj5QhVO.s:25919  .debug_str:00000000000136e7 .LASF5530
C:\Users\CYMR90~1\AppData\Local\Temp\ccj5QhVO.s:26285  .debug_str:0000000000014d27 .LASF5531
C:\Users\CYMR90~1\AppData\Local\Temp\ccj5QhVO.s:30514  .debug_str:0000000000025c82 .LASF5532
C:\Users\CYMR90~1\AppData\Local\Temp\ccj5QhVO.s:29294  .debug_str:0000000000020e9b .LASF5533
C:\Users\CYMR90~1\AppData\Local\Temp\ccj5QhVO.s:30930  .debug_str:0000000000027648 .LASF5534
C:\Users\CYMR90~1\AppData\Local\Temp\ccj5QhVO.s:22189  .debug_str:00000000000045b4 .LASF5535
C:\Users\CYMR90~1\AppData\Local\Temp\ccj5QhVO.s:32330  .debug_str:000000000002cebb .LASF5536
C:\Users\CYMR90~1\AppData\Local\Temp\ccj5QhVO.s:28602  .debug_str:000000000001e4c1 .LASF5537
C:\Users\CYMR90~1\AppData\Local\Temp\ccj5QhVO.s:25619  .debug_str:00000000000122d4 .LASF5538
C:\Users\CYMR90~1\AppData\Local\Temp\ccj5QhVO.s:25607  .debug_str:00000000000121ec .LASF5539
C:\Users\CYMR90~1\AppData\Local\Temp\ccj5QhVO.s:25801  .debug_str:0000000000012e97 .LASF5540
C:\Users\CYMR90~1\AppData\Local\Temp\ccj5QhVO.s:29828  .debug_str:0000000000022f5b .LASF5541
C:\Users\CYMR90~1\AppData\Local\Temp\ccj5QhVO.s:25197  .debug_str:00000000000106b0 .LASF5542
C:\Users\CYMR90~1\AppData\Local\Temp\ccj5QhVO.s:23615  .debug_str:000000000000a10f .LASF5543
C:\Users\CYMR90~1\AppData\Local\Temp\ccj5QhVO.s:24049  .debug_str:000000000000be5e .LASF5544
C:\Users\CYMR90~1\AppData\Local\Temp\ccj5QhVO.s:23665  .debug_str:000000000000a46a .LASF5545
C:\Users\CYMR90~1\AppData\Local\Temp\ccj5QhVO.s:22349  .debug_str:000000000000503e .LASF5546
C:\Users\CYMR90~1\AppData\Local\Temp\ccj5QhVO.s:31744  .debug_str:000000000002a8ba .LASF5547
C:\Users\CYMR90~1\AppData\Local\Temp\ccj5QhVO.s:30016  .debug_str:0000000000023a8f .LASF5548
C:\Users\CYMR90~1\AppData\Local\Temp\ccj5QhVO.s:21447  .debug_str:000000000000165d .LASF5549
C:\Users\CYMR90~1\AppData\Local\Temp\ccj5QhVO.s:31126  .debug_str:00000000000282ec .LASF5550
C:\Users\CYMR90~1\AppData\Local\Temp\ccj5QhVO.s:27846  .debug_str:000000000001b3f1 .LASF5551
C:\Users\CYMR90~1\AppData\Local\Temp\ccj5QhVO.s:28574  .debug_str:000000000001e320 .LASF5552
C:\Users\CYMR90~1\AppData\Local\Temp\ccj5QhVO.s:29430  .debug_str:000000000002172c .LASF5553
C:\Users\CYMR90~1\AppData\Local\Temp\ccj5QhVO.s:21505  .debug_str:0000000000001a77 .LASF5554
C:\Users\CYMR90~1\AppData\Local\Temp\ccj5QhVO.s:30314  .debug_str:0000000000024dfb .LASF5555
                           .group:0000000000000000 wm4.0.10abbef32179bc1260444192115bdf5e
                           .group:0000000000000000 wm4.stddef.h.39.144cf5ddcd53cbfdac30259dc1a6c87f
                           .group:0000000000000000 wm4._newlib_version.h.4.bfdf54b0af045d4a71376ae00f63a22c
                           .group:0000000000000000 wm4.newlib.h.18.08a2ecba46890ca2aa56bbe21686e6c3
                           .group:0000000000000000 wm4.ieeefp.h.202.4f2759f5758fd82153cfbf98692f2ced
                           .group:0000000000000000 wm4.features.h.22.fad1cec3bc7ff06488171438dbdcfd02
                           .group:0000000000000000 wm4.config.h.83.13bbc8852bfac55b724c9822481355b5
                           .group:0000000000000000 wm4._ansi.h.31.de524f58584151836e90d8620a16f8e8
                           .group:0000000000000000 wm4.stdio.h.31.7c0e28c411445f3f9c5b11accf882760
                           .group:0000000000000000 wm4._default_types.h.6.959254cf5f09734ea7516c89e8bb21bd
                           .group:0000000000000000 wm4.stddef.h.155.ba788add86a0e365f264484f110c3c29
                           .group:0000000000000000 wm4.cdefs.h.49.39045112216f6a021dbdffe3bf5accce
                           .group:0000000000000000 wm4.stdarg.h.34.3a23a216c0c293b3d2ea2e89281481e6
                           .group:0000000000000000 wm4._types.h.20.dd0d04dca3800a0d2a6129b87f3adbb2
                           .group:0000000000000000 wm4.stddef.h.155.3588ebfdd1e8c7ede80509bb9c3b8009
                           .group:0000000000000000 wm4._types.h.127.34941de1b2539d59d5cac00e0dd27a45
                           .group:0000000000000000 wm4.reent.h.17.e292bf8b0bec6c96e131a54347145a30
                           .group:0000000000000000 wm4.lock.h.2.c0958401bd0ce484d507ee19aacab817
                           .group:0000000000000000 wm4.reent.h.77.dcd6129ff07fe81bd5636db29abe53b2
                           .group:0000000000000000 wm4.types.h.40.8b6acba56cefbb11746718204edc8f5e
                           .group:0000000000000000 wm4._stdint.h.10.c24fa3af3bc1706662bb5593a907e841
                           .group:0000000000000000 wm4._endian.h.18.1bf9649e8e5bbc91042012680270b9ed
                           .group:0000000000000000 wm4.endian.h.9.49f3a4695c1b61e8a0808de3c4a106cb
                           .group:0000000000000000 wm4._timeval.h.32.bec3221fa7a9bb0bdde696c9c57e47d2
                           .group:0000000000000000 wm4.timespec.h.41.d855182eb0e690443ab8651bcedca6e1
                           .group:0000000000000000 wm4.select.h.19.40cd3f2bfc456b193b790c2754690ebf
                           .group:0000000000000000 wm4.types.h.51.5571ec98f267d17d3c670b7a3ba33afa
                           .group:0000000000000000 wm4.sched.h.22.c60982713a5c428609783c78f9c78d95
                           .group:0000000000000000 wm4._pthreadtypes.h.36.fcee9961c35163dde6267ef772ad1972
                           .group:0000000000000000 wm4.stdio.h.2.4aa87247282eca6c8f36f9de33d8df1a
                           .group:0000000000000000 wm4.stdio.h.81.932d0c162786b883f622b8d05c120c78
                           .group:0000000000000000 wm4.gd32vw55x.h.47.379378190858578060a317909b2c8d8a
                           .group:0000000000000000 wm4._intsup.h.10.48bafbb683905c4daa4565a85aeeb264
                           .group:0000000000000000 wm4.stdint.h.23.d53047a68f4a85177f80b422d52785ed
                           .group:0000000000000000 wm4.nmsis_version.h.19.ffa173da8efb17b1050904994d6f500e
                           .group:0000000000000000 wm4.riscv_bits.h.19.ee94eb3d39937793d4cd0a62363e5d00
                           .group:0000000000000000 wm4.riscv_encoding.h.35.f5d37fad7abbab8278b4bb6f1e32fa65
                           .group:0000000000000000 wm4.nmsis_gcc.h.61.5d70d7598ffc79c3c991d847a574cf23
                           .group:0000000000000000 wm4.core_feature_base.h.20.e99d3e75c26a8f3341d35bf20d0e1d20
                           .group:0000000000000000 wm4.core_feature_fpu.h.19.695f2200274659b530cb97cda749ff4f
                           .group:0000000000000000 wm4.core_feature_dsp.h.19.e8f8d7aa42f197807aefedb6584486cd
                           .group:0000000000000000 wm4.core_compatiable.h.19.5b8282d61b1f6889a82895616b730084
                           .group:0000000000000000 wm4.core_feature_eclic.h.19.e0c091d0cbda79e8b3b031b979ebd5a1
                           .group:0000000000000000 wm4.core_feature_timer.h.19.21a5151282de34c37dfa6d84e262aa54
                           .group:0000000000000000 wm4.system_gd32vw55x.h.32.f1fcb1212d387c35ac955b0e96ada468
                           .group:0000000000000000 wm4.gd32vw55x.h.231.3529c650aff38c9372f7e03177fd2c8a
                           .group:0000000000000000 wm4.gd32vw55x_adc.h.42.ae73acec1704ef509ccecb41a875b50e
                           .group:0000000000000000 wm4.gd32vw55x_cau.h.36.c98428fe1eae7edb4721da5c8078c974
                           .group:0000000000000000 wm4.gd32vw55x_crc.h.37.c58f296814c2300a4b067c08bd88d54e
                           .group:0000000000000000 wm4.gd32vw55x_dbg.h.36.311650c8545549d482ceca8befc5a232
                           .group:0000000000000000 wm4.gd32vw55x_dma.h.36.f4adc751172b2a7b1533dda72e948737
                           .group:0000000000000000 wm4.gd32vw55x_eclic.h.36.0411499f2b2493c67246e32ccae096c1
                           .group:0000000000000000 wm4.gd32vw55x_efuse.h.36.091404cecbab70359dfd93faec5fdb62
                           .group:0000000000000000 wm4.gd32vw55x_exti.h.36.de7508334dd12f1a6a673521a1a835f5
                           .group:0000000000000000 wm4.gd32vw55x_fmc.h.36.a4b0b94c47ffe23a2fa09260c5ed4850
                           .group:0000000000000000 wm4.gd32vw55x_fwdgt.h.36.4846b6900fd24b5bfce4986c9a8ce677
                           .group:0000000000000000 wm4.gd32vw55x_gpio.h.36.adfee1371bb58d3d9043c47bdb25a90f
                           .group:0000000000000000 wm4.gd32vw55x_hau.h.36.f3cbcbd7b67c9e5bdc7a1100b1bf3458
                           .group:0000000000000000 wm4.gd32vw55x_i2c.h.36.3848990933925e084eb427083790c53f
                           .group:0000000000000000 wm4.gd32vw55x_pkcau.h.36.bb2235f4cf4967063a51bfa9aca5ef27
                           .group:0000000000000000 wm4.gd32vw55x_qspi.h.36.2d2c181cfe19b935a9641008fc786613
                           .group:0000000000000000 wm4.gd32vw55x_rcu.h.36.780a8a45c00d563711cceb445027ef47
                           .group:0000000000000000 wm4.gd32vw55x_rtc.h.36.3172855e8715659e080e0eab46fdf175
                           .group:0000000000000000 wm4.gd32vw55x_spi.h.36.9fa1be2b09fb73e4b5886e97f0e96d58
                           .group:0000000000000000 wm4.gd32vw55x_syscfg.h.36.010551f05591f5e34051d2e15df0352b
                           .group:0000000000000000 wm4.gd32vw55x_timer.h.38.2cbee78ea60d47145be361b2d2c55070
                           .group:0000000000000000 wm4.gd32vw55x_trng.h.36.c9e7807af1b1ab68d3bbb54f4ed5cd73
                           .group:0000000000000000 wm4.gd32vw55x_usart.h.36.f5c497cca17945a34f154b0e17017d02
                           .group:0000000000000000 wm4.gd32vw55x_wwdgt.h.36.f7a443b7302efc0e5c335888582ee197
                           .group:0000000000000000 wm4.gd32vw55x_pmu.h.41.40fc8670203e5a97b95f50a9b1d8ec32

UNDEFINED SYMBOLS
rcu_periph_reset_enable
rcu_periph_reset_disable
