   1              		.file	"gd32vw55x_wwdgt.c"
   2              		.option nopic
   3              		.attribute arch, "rv32i2p0_m2p0_a2p0_c2p0"
   4              		.attribute unaligned_access, 0
   5              		.attribute stack_align, 16
   6              		.text
   7              	.Ltext0:
   8              		.cfi_sections	.debug_frame
   9              		.section	.text.wwdgt_deinit,"ax",@progbits
  10              		.align	1
  11              		.globl	wwdgt_deinit
  13              	wwdgt_deinit:
  14              	.LFB347:
  15              		.file 1 "../Firmware/GD32VW55x_standard_peripheral/Source/gd32vw55x_wwdgt.c"
   1:../Firmware/GD32VW55x_standard_peripheral/Source/gd32vw55x_wwdgt.c **** /*!
   2:../Firmware/GD32VW55x_standard_peripheral/Source/gd32vw55x_wwdgt.c ****     \file    gd32vw55x_wwdgt.c
   3:../Firmware/GD32VW55x_standard_peripheral/Source/gd32vw55x_wwdgt.c ****     \brief   WWDGT driver
   4:../Firmware/GD32VW55x_standard_peripheral/Source/gd32vw55x_wwdgt.c **** 
   5:../Firmware/GD32VW55x_standard_peripheral/Source/gd32vw55x_wwdgt.c ****     \version 2025-01-16, V1.4.0, firmware for GD32VW55x
   6:../Firmware/GD32VW55x_standard_peripheral/Source/gd32vw55x_wwdgt.c **** */
   7:../Firmware/GD32VW55x_standard_peripheral/Source/gd32vw55x_wwdgt.c **** 
   8:../Firmware/GD32VW55x_standard_peripheral/Source/gd32vw55x_wwdgt.c **** /*
   9:../Firmware/GD32VW55x_standard_peripheral/Source/gd32vw55x_wwdgt.c ****     Copyright (c) 2025, GigaDevice Semiconductor Inc.
  10:../Firmware/GD32VW55x_standard_peripheral/Source/gd32vw55x_wwdgt.c **** 
  11:../Firmware/GD32VW55x_standard_peripheral/Source/gd32vw55x_wwdgt.c ****     Redistribution and use in source and binary forms, with or without modification,
  12:../Firmware/GD32VW55x_standard_peripheral/Source/gd32vw55x_wwdgt.c **** are permitted provided that the following conditions are met:
  13:../Firmware/GD32VW55x_standard_peripheral/Source/gd32vw55x_wwdgt.c **** 
  14:../Firmware/GD32VW55x_standard_peripheral/Source/gd32vw55x_wwdgt.c ****     1. Redistributions of source code must retain the above copyright notice, this
  15:../Firmware/GD32VW55x_standard_peripheral/Source/gd32vw55x_wwdgt.c ****        list of conditions and the following disclaimer.
  16:../Firmware/GD32VW55x_standard_peripheral/Source/gd32vw55x_wwdgt.c ****     2. Redistributions in binary form must reproduce the above copyright notice,
  17:../Firmware/GD32VW55x_standard_peripheral/Source/gd32vw55x_wwdgt.c ****        this list of conditions and the following disclaimer in the documentation
  18:../Firmware/GD32VW55x_standard_peripheral/Source/gd32vw55x_wwdgt.c ****        and/or other materials provided with the distribution.
  19:../Firmware/GD32VW55x_standard_peripheral/Source/gd32vw55x_wwdgt.c ****     3. Neither the name of the copyright holder nor the names of its contributors
  20:../Firmware/GD32VW55x_standard_peripheral/Source/gd32vw55x_wwdgt.c ****        may be used to endorse or promote products derived from this software without
  21:../Firmware/GD32VW55x_standard_peripheral/Source/gd32vw55x_wwdgt.c ****        specific prior written permission.
  22:../Firmware/GD32VW55x_standard_peripheral/Source/gd32vw55x_wwdgt.c **** 
  23:../Firmware/GD32VW55x_standard_peripheral/Source/gd32vw55x_wwdgt.c ****     THIS SOFTWARE IS PROVIDED BY THE COPYRIGHT HOLDERS AND CONTRIBUTORS "AS IS"
  24:../Firmware/GD32VW55x_standard_peripheral/Source/gd32vw55x_wwdgt.c **** AND ANY EXPRESS OR IMPLIED WARRANTIES, INCLUDING, BUT NOT LIMITED TO, THE IMPLIED
  25:../Firmware/GD32VW55x_standard_peripheral/Source/gd32vw55x_wwdgt.c **** WARRANTIES OF MERCHANTABILITY AND FITNESS FOR A PARTICULAR PURPOSE ARE DISCLAIMED.
  26:../Firmware/GD32VW55x_standard_peripheral/Source/gd32vw55x_wwdgt.c **** IN NO EVENT SHALL THE COPYRIGHT HOLDER OR CONTRIBUTORS BE LIABLE FOR ANY DIRECT,
  27:../Firmware/GD32VW55x_standard_peripheral/Source/gd32vw55x_wwdgt.c **** INDIRECT, INCIDENTAL, SPECIAL, EXEMPLARY, OR CONSEQUENTIAL DAMAGES (INCLUDING, BUT
  28:../Firmware/GD32VW55x_standard_peripheral/Source/gd32vw55x_wwdgt.c **** NOT LIMITED TO, PROCUREMENT OF SUBSTITUTE GOODS OR SERVICES; LOSS OF USE, DATA, OR
  29:../Firmware/GD32VW55x_standard_peripheral/Source/gd32vw55x_wwdgt.c **** PROFITS; OR BUSINESS INTERRUPTION) HOWEVER CAUSED AND ON ANY THEORY OF LIABILITY,
  30:../Firmware/GD32VW55x_standard_peripheral/Source/gd32vw55x_wwdgt.c **** WHETHER IN CONTRACT, STRICT LIABILITY, OR TORT (INCLUDING NEGLIGENCE OR OTHERWISE)
  31:../Firmware/GD32VW55x_standard_peripheral/Source/gd32vw55x_wwdgt.c **** ARISING IN ANY WAY OUT OF THE USE OF THIS SOFTWARE, EVEN IF ADVISED OF THE POSSIBILITY
  32:../Firmware/GD32VW55x_standard_peripheral/Source/gd32vw55x_wwdgt.c **** OF SUCH DAMAGE.
  33:../Firmware/GD32VW55x_standard_peripheral/Source/gd32vw55x_wwdgt.c **** */
  34:../Firmware/GD32VW55x_standard_peripheral/Source/gd32vw55x_wwdgt.c **** 
  35:../Firmware/GD32VW55x_standard_peripheral/Source/gd32vw55x_wwdgt.c **** #include "gd32vw55x_wwdgt.h"
  36:../Firmware/GD32VW55x_standard_peripheral/Source/gd32vw55x_wwdgt.c **** 
  37:../Firmware/GD32VW55x_standard_peripheral/Source/gd32vw55x_wwdgt.c **** /*!
  38:../Firmware/GD32VW55x_standard_peripheral/Source/gd32vw55x_wwdgt.c ****     \brief      reset the window watchdog timer configuration
  39:../Firmware/GD32VW55x_standard_peripheral/Source/gd32vw55x_wwdgt.c ****     \param[in]  none
  40:../Firmware/GD32VW55x_standard_peripheral/Source/gd32vw55x_wwdgt.c ****     \param[out] none
  41:../Firmware/GD32VW55x_standard_peripheral/Source/gd32vw55x_wwdgt.c ****     \retval     none
  42:../Firmware/GD32VW55x_standard_peripheral/Source/gd32vw55x_wwdgt.c **** */
  43:../Firmware/GD32VW55x_standard_peripheral/Source/gd32vw55x_wwdgt.c **** void wwdgt_deinit(void)
  44:../Firmware/GD32VW55x_standard_peripheral/Source/gd32vw55x_wwdgt.c **** {
  16              		.loc 1 44 1
  17              		.cfi_startproc
  18 0000 4111     		addi	sp,sp,-16
  19              		.cfi_def_cfa_offset 16
  20 0002 06C6     		sw	ra,12(sp)
  21 0004 22C4     		sw	s0,8(sp)
  22              		.cfi_offset 1, -4
  23              		.cfi_offset 8, -8
  24 0006 0008     		addi	s0,sp,16
  25              		.cfi_def_cfa 8, 0
  45:../Firmware/GD32VW55x_standard_peripheral/Source/gd32vw55x_wwdgt.c ****     rcu_periph_reset_enable(RCU_WWDGTRST);
  26              		.loc 1 45 5
  27 0008 8567     		li	a5,4096
  28 000a 1385B780 		addi	a0,a5,-2037
  29 000e 97000000 		call	rcu_periph_reset_enable
  29      E7800000 
  46:../Firmware/GD32VW55x_standard_peripheral/Source/gd32vw55x_wwdgt.c ****     rcu_periph_reset_disable(RCU_WWDGTRST);
  30              		.loc 1 46 5
  31 0016 8567     		li	a5,4096
  32 0018 1385B780 		addi	a0,a5,-2037
  33 001c 97000000 		call	rcu_periph_reset_disable
  33      E7800000 
  47:../Firmware/GD32VW55x_standard_peripheral/Source/gd32vw55x_wwdgt.c **** }
  34              		.loc 1 47 1
  35 0024 0100     		nop
  36 0026 B240     		lw	ra,12(sp)
  37              		.cfi_restore 1
  38 0028 2244     		lw	s0,8(sp)
  39              		.cfi_restore 8
  40              		.cfi_def_cfa 2, 16
  41 002a 4101     		addi	sp,sp,16
  42              		.cfi_def_cfa_offset 0
  43 002c 8280     		jr	ra
  44              		.cfi_endproc
  45              	.LFE347:
  47              		.section	.text.wwdgt_enable,"ax",@progbits
  48              		.align	1
  49              		.globl	wwdgt_enable
  51              	wwdgt_enable:
  52              	.LFB348:
  48:../Firmware/GD32VW55x_standard_peripheral/Source/gd32vw55x_wwdgt.c **** 
  49:../Firmware/GD32VW55x_standard_peripheral/Source/gd32vw55x_wwdgt.c **** /*!
  50:../Firmware/GD32VW55x_standard_peripheral/Source/gd32vw55x_wwdgt.c ****     \brief      start the WWDGT counter
  51:../Firmware/GD32VW55x_standard_peripheral/Source/gd32vw55x_wwdgt.c ****     \param[in]  none
  52:../Firmware/GD32VW55x_standard_peripheral/Source/gd32vw55x_wwdgt.c ****     \param[out] none
  53:../Firmware/GD32VW55x_standard_peripheral/Source/gd32vw55x_wwdgt.c ****     \retval     none
  54:../Firmware/GD32VW55x_standard_peripheral/Source/gd32vw55x_wwdgt.c **** */
  55:../Firmware/GD32VW55x_standard_peripheral/Source/gd32vw55x_wwdgt.c **** void wwdgt_enable(void)
  56:../Firmware/GD32VW55x_standard_peripheral/Source/gd32vw55x_wwdgt.c **** {
  53              		.loc 1 56 1
  54              		.cfi_startproc
  55 0000 4111     		addi	sp,sp,-16
  56              		.cfi_def_cfa_offset 16
  57 0002 22C6     		sw	s0,12(sp)
  58              		.cfi_offset 8, -4
  59 0004 0008     		addi	s0,sp,16
  60              		.cfi_def_cfa 8, 0
  57:../Firmware/GD32VW55x_standard_peripheral/Source/gd32vw55x_wwdgt.c ****     WWDGT_CTL |= WWDGT_CTL_WDGTEN;
  61              		.loc 1 57 15
  62 0006 B7370040 		li	a5,1073754112
  63 000a 938707C0 		addi	a5,a5,-1024
  64 000e 9843     		lw	a4,0(a5)
  65 0010 B7370040 		li	a5,1073754112
  66 0014 938707C0 		addi	a5,a5,-1024
  67 0018 13670708 		ori	a4,a4,128
  68 001c 98C3     		sw	a4,0(a5)
  58:../Firmware/GD32VW55x_standard_peripheral/Source/gd32vw55x_wwdgt.c **** }
  69              		.loc 1 58 1
  70 001e 0100     		nop
  71 0020 3244     		lw	s0,12(sp)
  72              		.cfi_restore 8
  73              		.cfi_def_cfa 2, 16
  74 0022 4101     		addi	sp,sp,16
  75              		.cfi_def_cfa_offset 0
  76 0024 8280     		jr	ra
  77              		.cfi_endproc
  78              	.LFE348:
  80              		.section	.text.wwdgt_counter_update,"ax",@progbits
  81              		.align	1
  82              		.globl	wwdgt_counter_update
  84              	wwdgt_counter_update:
  85              	.LFB349:
  59:../Firmware/GD32VW55x_standard_peripheral/Source/gd32vw55x_wwdgt.c **** 
  60:../Firmware/GD32VW55x_standard_peripheral/Source/gd32vw55x_wwdgt.c **** /*!
  61:../Firmware/GD32VW55x_standard_peripheral/Source/gd32vw55x_wwdgt.c ****     \brief      configure the WWDGT counter value
  62:../Firmware/GD32VW55x_standard_peripheral/Source/gd32vw55x_wwdgt.c ****     \param[in]  counter_value: 0x00 - 0x7F
  63:../Firmware/GD32VW55x_standard_peripheral/Source/gd32vw55x_wwdgt.c ****     \param[out] none
  64:../Firmware/GD32VW55x_standard_peripheral/Source/gd32vw55x_wwdgt.c ****     \retval     none
  65:../Firmware/GD32VW55x_standard_peripheral/Source/gd32vw55x_wwdgt.c **** */
  66:../Firmware/GD32VW55x_standard_peripheral/Source/gd32vw55x_wwdgt.c **** void wwdgt_counter_update(uint16_t counter_value)
  67:../Firmware/GD32VW55x_standard_peripheral/Source/gd32vw55x_wwdgt.c **** {
  86              		.loc 1 67 1
  87              		.cfi_startproc
  88 0000 0111     		addi	sp,sp,-32
  89              		.cfi_def_cfa_offset 32
  90 0002 22CE     		sw	s0,28(sp)
  91              		.cfi_offset 8, -4
  92 0004 0010     		addi	s0,sp,32
  93              		.cfi_def_cfa 8, 0
  94 0006 AA87     		mv	a5,a0
  95 0008 2317F4FE 		sh	a5,-18(s0)
  68:../Firmware/GD32VW55x_standard_peripheral/Source/gd32vw55x_wwdgt.c ****     WWDGT_CTL = (uint32_t)(CTL_CNT(counter_value));
  96              		.loc 1 68 28
  97 000c 0357E4FE 		lhu	a4,-18(s0)
  98              		.loc 1 68 5
  99 0010 B7370040 		li	a5,1073754112
 100 0014 938707C0 		addi	a5,a5,-1024
 101              		.loc 1 68 17
 102 0018 1377F707 		andi	a4,a4,127
 103              		.loc 1 68 15
 104 001c 98C3     		sw	a4,0(a5)
  69:../Firmware/GD32VW55x_standard_peripheral/Source/gd32vw55x_wwdgt.c **** }
 105              		.loc 1 69 1
 106 001e 0100     		nop
 107 0020 7244     		lw	s0,28(sp)
 108              		.cfi_restore 8
 109              		.cfi_def_cfa 2, 32
 110 0022 0561     		addi	sp,sp,32
 111              		.cfi_def_cfa_offset 0
 112 0024 8280     		jr	ra
 113              		.cfi_endproc
 114              	.LFE349:
 116              		.section	.text.wwdgt_config,"ax",@progbits
 117              		.align	1
 118              		.globl	wwdgt_config
 120              	wwdgt_config:
 121              	.LFB350:
  70:../Firmware/GD32VW55x_standard_peripheral/Source/gd32vw55x_wwdgt.c **** 
  71:../Firmware/GD32VW55x_standard_peripheral/Source/gd32vw55x_wwdgt.c **** /*!
  72:../Firmware/GD32VW55x_standard_peripheral/Source/gd32vw55x_wwdgt.c ****     \brief      configure counter value, window value, and prescaler divider value
  73:../Firmware/GD32VW55x_standard_peripheral/Source/gd32vw55x_wwdgt.c ****     \param[in]  counter: 0x0000 - 0x007F
  74:../Firmware/GD32VW55x_standard_peripheral/Source/gd32vw55x_wwdgt.c ****     \param[in]  window: 0x0000 - 0x007F
  75:../Firmware/GD32VW55x_standard_peripheral/Source/gd32vw55x_wwdgt.c ****     \param[in]  prescaler: WWDGT prescaler value
  76:../Firmware/GD32VW55x_standard_peripheral/Source/gd32vw55x_wwdgt.c ****                 only one parameter can be selected which is shown as below:
  77:../Firmware/GD32VW55x_standard_peripheral/Source/gd32vw55x_wwdgt.c ****       \arg        WWDGT_CFG_PSC_DIV1: the time base of window watchdog counter = (PCLK1/4096)/1
  78:../Firmware/GD32VW55x_standard_peripheral/Source/gd32vw55x_wwdgt.c ****       \arg        WWDGT_CFG_PSC_DIV2: the time base of window watchdog counter = (PCLK1/4096)/2
  79:../Firmware/GD32VW55x_standard_peripheral/Source/gd32vw55x_wwdgt.c ****       \arg        WWDGT_CFG_PSC_DIV4: the time base of window watchdog counter = (PCLK1/4096)/4
  80:../Firmware/GD32VW55x_standard_peripheral/Source/gd32vw55x_wwdgt.c ****       \arg        WWDGT_CFG_PSC_DIV8: the time base of window watchdog counter = (PCLK1/4096)/8
  81:../Firmware/GD32VW55x_standard_peripheral/Source/gd32vw55x_wwdgt.c ****     \param[out] none
  82:../Firmware/GD32VW55x_standard_peripheral/Source/gd32vw55x_wwdgt.c ****     \retval     none
  83:../Firmware/GD32VW55x_standard_peripheral/Source/gd32vw55x_wwdgt.c **** */
  84:../Firmware/GD32VW55x_standard_peripheral/Source/gd32vw55x_wwdgt.c **** void wwdgt_config(uint16_t counter, uint16_t window, uint32_t prescaler)
  85:../Firmware/GD32VW55x_standard_peripheral/Source/gd32vw55x_wwdgt.c **** {
 122              		.loc 1 85 1
 123              		.cfi_startproc
 124 0000 0111     		addi	sp,sp,-32
 125              		.cfi_def_cfa_offset 32
 126 0002 22CE     		sw	s0,28(sp)
 127              		.cfi_offset 8, -4
 128 0004 0010     		addi	s0,sp,32
 129              		.cfi_def_cfa 8, 0
 130 0006 AA87     		mv	a5,a0
 131 0008 2E87     		mv	a4,a1
 132 000a 2324C4FE 		sw	a2,-24(s0)
 133 000e 2317F4FE 		sh	a5,-18(s0)
 134 0012 BA87     		mv	a5,a4
 135 0014 2316F4FE 		sh	a5,-20(s0)
  86:../Firmware/GD32VW55x_standard_peripheral/Source/gd32vw55x_wwdgt.c ****     WWDGT_CTL = (uint32_t)(CTL_CNT(counter));
 136              		.loc 1 86 28
 137 0018 0357E4FE 		lhu	a4,-18(s0)
 138              		.loc 1 86 5
 139 001c B7370040 		li	a5,1073754112
 140 0020 938707C0 		addi	a5,a5,-1024
 141              		.loc 1 86 17
 142 0024 1377F707 		andi	a4,a4,127
 143              		.loc 1 86 15
 144 0028 98C3     		sw	a4,0(a5)
  87:../Firmware/GD32VW55x_standard_peripheral/Source/gd32vw55x_wwdgt.c ****     WWDGT_CFG = (uint32_t)(CFG_WIN(window) | prescaler);
 145              		.loc 1 87 28
 146 002a 8357C4FE 		lhu	a5,-20(s0)
 147 002e 93F6F707 		andi	a3,a5,127
 148              		.loc 1 87 5
 149 0032 B7370040 		li	a5,1073754112
 150 0036 938747C0 		addi	a5,a5,-1020
 151              		.loc 1 87 17
 152 003a 032784FE 		lw	a4,-24(s0)
 153 003e 558F     		or	a4,a3,a4
 154              		.loc 1 87 15
 155 0040 98C3     		sw	a4,0(a5)
  88:../Firmware/GD32VW55x_standard_peripheral/Source/gd32vw55x_wwdgt.c **** }
 156              		.loc 1 88 1
 157 0042 0100     		nop
 158 0044 7244     		lw	s0,28(sp)
 159              		.cfi_restore 8
 160              		.cfi_def_cfa 2, 32
 161 0046 0561     		addi	sp,sp,32
 162              		.cfi_def_cfa_offset 0
 163 0048 8280     		jr	ra
 164              		.cfi_endproc
 165              	.LFE350:
 167              		.section	.text.wwdgt_interrupt_enable,"ax",@progbits
 168              		.align	1
 169              		.globl	wwdgt_interrupt_enable
 171              	wwdgt_interrupt_enable:
 172              	.LFB351:
  89:../Firmware/GD32VW55x_standard_peripheral/Source/gd32vw55x_wwdgt.c **** 
  90:../Firmware/GD32VW55x_standard_peripheral/Source/gd32vw55x_wwdgt.c **** /*!
  91:../Firmware/GD32VW55x_standard_peripheral/Source/gd32vw55x_wwdgt.c ****     \brief      enable early wakeup interrupt of WWDGT
  92:../Firmware/GD32VW55x_standard_peripheral/Source/gd32vw55x_wwdgt.c ****     \param[in]  none
  93:../Firmware/GD32VW55x_standard_peripheral/Source/gd32vw55x_wwdgt.c ****     \param[out] none
  94:../Firmware/GD32VW55x_standard_peripheral/Source/gd32vw55x_wwdgt.c ****     \retval     none
  95:../Firmware/GD32VW55x_standard_peripheral/Source/gd32vw55x_wwdgt.c **** */
  96:../Firmware/GD32VW55x_standard_peripheral/Source/gd32vw55x_wwdgt.c **** void wwdgt_interrupt_enable(void)
  97:../Firmware/GD32VW55x_standard_peripheral/Source/gd32vw55x_wwdgt.c **** {
 173              		.loc 1 97 1
 174              		.cfi_startproc
 175 0000 4111     		addi	sp,sp,-16
 176              		.cfi_def_cfa_offset 16
 177 0002 22C6     		sw	s0,12(sp)
 178              		.cfi_offset 8, -4
 179 0004 0008     		addi	s0,sp,16
 180              		.cfi_def_cfa 8, 0
  98:../Firmware/GD32VW55x_standard_peripheral/Source/gd32vw55x_wwdgt.c ****     WWDGT_CFG |= WWDGT_CFG_EWIE;
 181              		.loc 1 98 15
 182 0006 B7370040 		li	a5,1073754112
 183 000a 938747C0 		addi	a5,a5,-1020
 184 000e 9843     		lw	a4,0(a5)
 185 0010 B7370040 		li	a5,1073754112
 186 0014 938747C0 		addi	a5,a5,-1020
 187 0018 13670720 		ori	a4,a4,512
 188 001c 98C3     		sw	a4,0(a5)
  99:../Firmware/GD32VW55x_standard_peripheral/Source/gd32vw55x_wwdgt.c **** }
 189              		.loc 1 99 1
 190 001e 0100     		nop
 191 0020 3244     		lw	s0,12(sp)
 192              		.cfi_restore 8
 193              		.cfi_def_cfa 2, 16
 194 0022 4101     		addi	sp,sp,16
 195              		.cfi_def_cfa_offset 0
 196 0024 8280     		jr	ra
 197              		.cfi_endproc
 198              	.LFE351:
 200              		.section	.text.wwdgt_flag_get,"ax",@progbits
 201              		.align	1
 202              		.globl	wwdgt_flag_get
 204              	wwdgt_flag_get:
 205              	.LFB352:
 100:../Firmware/GD32VW55x_standard_peripheral/Source/gd32vw55x_wwdgt.c **** 
 101:../Firmware/GD32VW55x_standard_peripheral/Source/gd32vw55x_wwdgt.c **** /*!
 102:../Firmware/GD32VW55x_standard_peripheral/Source/gd32vw55x_wwdgt.c ****     \brief      check early wakeup interrupt state of WWDGT
 103:../Firmware/GD32VW55x_standard_peripheral/Source/gd32vw55x_wwdgt.c ****     \param[in]  none
 104:../Firmware/GD32VW55x_standard_peripheral/Source/gd32vw55x_wwdgt.c ****     \param[out] none
 105:../Firmware/GD32VW55x_standard_peripheral/Source/gd32vw55x_wwdgt.c ****     \retval     FlagStatus: SET or RESET
 106:../Firmware/GD32VW55x_standard_peripheral/Source/gd32vw55x_wwdgt.c **** */
 107:../Firmware/GD32VW55x_standard_peripheral/Source/gd32vw55x_wwdgt.c **** FlagStatus wwdgt_flag_get(void)
 108:../Firmware/GD32VW55x_standard_peripheral/Source/gd32vw55x_wwdgt.c **** {
 206              		.loc 1 108 1
 207              		.cfi_startproc
 208 0000 4111     		addi	sp,sp,-16
 209              		.cfi_def_cfa_offset 16
 210 0002 22C6     		sw	s0,12(sp)
 211              		.cfi_offset 8, -4
 212 0004 0008     		addi	s0,sp,16
 213              		.cfi_def_cfa 8, 0
 109:../Firmware/GD32VW55x_standard_peripheral/Source/gd32vw55x_wwdgt.c ****     if (RESET != (WWDGT_STAT & WWDGT_STAT_EWIF)){
 214              		.loc 1 109 19
 215 0006 B7370040 		li	a5,1073754112
 216 000a 938787C0 		addi	a5,a5,-1016
 217 000e 9C43     		lw	a5,0(a5)
 218              		.loc 1 109 30
 219 0010 858B     		andi	a5,a5,1
 220              		.loc 1 109 8
 221 0012 99C3     		beq	a5,zero,.L7
 110:../Firmware/GD32VW55x_standard_peripheral/Source/gd32vw55x_wwdgt.c ****         return SET;
 222              		.loc 1 110 16
 223 0014 8547     		li	a5,1
 224 0016 11A0     		j	.L8
 225              	.L7:
 111:../Firmware/GD32VW55x_standard_peripheral/Source/gd32vw55x_wwdgt.c ****     }
 112:../Firmware/GD32VW55x_standard_peripheral/Source/gd32vw55x_wwdgt.c **** 
 113:../Firmware/GD32VW55x_standard_peripheral/Source/gd32vw55x_wwdgt.c ****     return RESET;
 226              		.loc 1 113 12
 227 0018 8147     		li	a5,0
 228              	.L8:
 114:../Firmware/GD32VW55x_standard_peripheral/Source/gd32vw55x_wwdgt.c **** }
 229              		.loc 1 114 1
 230 001a 3E85     		mv	a0,a5
 231 001c 3244     		lw	s0,12(sp)
 232              		.cfi_restore 8
 233              		.cfi_def_cfa 2, 16
 234 001e 4101     		addi	sp,sp,16
 235              		.cfi_def_cfa_offset 0
 236 0020 8280     		jr	ra
 237              		.cfi_endproc
 238              	.LFE352:
 240              		.section	.text.wwdgt_flag_clear,"ax",@progbits
 241              		.align	1
 242              		.globl	wwdgt_flag_clear
 244              	wwdgt_flag_clear:
 245              	.LFB353:
 115:../Firmware/GD32VW55x_standard_peripheral/Source/gd32vw55x_wwdgt.c **** 
 116:../Firmware/GD32VW55x_standard_peripheral/Source/gd32vw55x_wwdgt.c **** /*!
 117:../Firmware/GD32VW55x_standard_peripheral/Source/gd32vw55x_wwdgt.c ****     \brief      clear early wakeup interrupt state of WWDGT
 118:../Firmware/GD32VW55x_standard_peripheral/Source/gd32vw55x_wwdgt.c ****     \param[in]  none
 119:../Firmware/GD32VW55x_standard_peripheral/Source/gd32vw55x_wwdgt.c ****     \param[out] none
 120:../Firmware/GD32VW55x_standard_peripheral/Source/gd32vw55x_wwdgt.c ****     \retval     none
 121:../Firmware/GD32VW55x_standard_peripheral/Source/gd32vw55x_wwdgt.c **** */
 122:../Firmware/GD32VW55x_standard_peripheral/Source/gd32vw55x_wwdgt.c **** void wwdgt_flag_clear(void)
 123:../Firmware/GD32VW55x_standard_peripheral/Source/gd32vw55x_wwdgt.c **** {
 246              		.loc 1 123 1
 247              		.cfi_startproc
 248 0000 4111     		addi	sp,sp,-16
 249              		.cfi_def_cfa_offset 16
 250 0002 22C6     		sw	s0,12(sp)
 251              		.cfi_offset 8, -4
 252 0004 0008     		addi	s0,sp,16
 253              		.cfi_def_cfa 8, 0
 124:../Firmware/GD32VW55x_standard_peripheral/Source/gd32vw55x_wwdgt.c ****     WWDGT_STAT = ((uint32_t)RESET);
 254              		.loc 1 124 5
 255 0006 B7370040 		li	a5,1073754112
 256 000a 938787C0 		addi	a5,a5,-1016
 257              		.loc 1 124 16
 258 000e 23A00700 		sw	zero,0(a5)
 125:../Firmware/GD32VW55x_standard_peripheral/Source/gd32vw55x_wwdgt.c **** }
 259              		.loc 1 125 1
 260 0012 0100     		nop
 261 0014 3244     		lw	s0,12(sp)
 262              		.cfi_restore 8
 263              		.cfi_def_cfa 2, 16
 264 0016 4101     		addi	sp,sp,16
 265              		.cfi_def_cfa_offset 0
 266 0018 8280     		jr	ra
 267              		.cfi_endproc
 268              	.LFE353:
 270              		.text
 271              	.Letext0:
 272              		.file 2 "e:\\gd32\\gd32embeddedbuilder_v1.5.2.30854\\tools\\nuclei_riscv_newlibc_prebuilt_win32_20
 273              		.file 3 "e:\\gd32\\gd32embeddedbuilder_v1.5.2.30854\\tools\\nuclei_riscv_newlibc_prebuilt_win32_20
 274              		.file 4 "../Firmware/GD32VW55x_standard_peripheral/gd32vw55x.h"
 275              		.file 5 "../Firmware/GD32VW55x_standard_peripheral/Include/gd32vw55x_rcu.h"