   1              		.file	"gd32vw55x_eclic.c"
   2              		.option nopic
   3              		.attribute arch, "rv32i2p0_m2p0_a2p0_c2p0"
   4              		.attribute unaligned_access, 0
   5              		.attribute stack_align, 16
   6              		.text
   7              	.Ltext0:
   8              		.cfi_sections	.debug_frame
   9              		.section	.text.eclic_global_interrupt_enable,"ax",@progbits
  10              		.align	1
  11              		.globl	eclic_global_interrupt_enable
  13              	eclic_global_interrupt_enable:
  14              	.LFB347:
  15              		.file 1 "../Firmware/GD32VW55x_standard_peripheral/Source/gd32vw55x_eclic.c"
   1:../Firmware/GD32VW55x_standard_peripheral/Source/gd32vw55x_eclic.c **** /*!
   2:../Firmware/GD32VW55x_standard_peripheral/Source/gd32vw55x_eclic.c ****     \file    gd32vw55x_eclic.c
   3:../Firmware/GD32VW55x_standard_peripheral/Source/gd32vw55x_eclic.c ****     \brief   ECLIC(Enhancement Core-Local Interrupt Controller) driver
   4:../Firmware/GD32VW55x_standard_peripheral/Source/gd32vw55x_eclic.c **** 
   5:../Firmware/GD32VW55x_standard_peripheral/Source/gd32vw55x_eclic.c ****     \version 2025-01-16, V1.4.0, firmware for GD32VW55x
   6:../Firmware/GD32VW55x_standard_peripheral/Source/gd32vw55x_eclic.c **** */
   7:../Firmware/GD32VW55x_standard_peripheral/Source/gd32vw55x_eclic.c **** 
   8:../Firmware/GD32VW55x_standard_peripheral/Source/gd32vw55x_eclic.c **** /*
   9:../Firmware/GD32VW55x_standard_peripheral/Source/gd32vw55x_eclic.c ****     Copyright (c) 2025, GigaDevice Semiconductor Inc.
  10:../Firmware/GD32VW55x_standard_peripheral/Source/gd32vw55x_eclic.c **** 
  11:../Firmware/GD32VW55x_standard_peripheral/Source/gd32vw55x_eclic.c ****     Redistribution and use in source and binary forms, with or without modification,
  12:../Firmware/GD32VW55x_standard_peripheral/Source/gd32vw55x_eclic.c **** are permitted provided that the following conditions are met:
  13:../Firmware/GD32VW55x_standard_peripheral/Source/gd32vw55x_eclic.c **** 
  14:../Firmware/GD32VW55x_standard_peripheral/Source/gd32vw55x_eclic.c ****     1. Redistributions of source code must retain the above copyright notice, this
  15:../Firmware/GD32VW55x_standard_peripheral/Source/gd32vw55x_eclic.c ****        list of conditions and the following disclaimer.
  16:../Firmware/GD32VW55x_standard_peripheral/Source/gd32vw55x_eclic.c ****     2. Redistributions in binary form must reproduce the above copyright notice,
  17:../Firmware/GD32VW55x_standard_peripheral/Source/gd32vw55x_eclic.c ****        this list of conditions and the following disclaimer in the documentation
  18:../Firmware/GD32VW55x_standard_peripheral/Source/gd32vw55x_eclic.c ****        and/or other materials provided with the distribution.
  19:../Firmware/GD32VW55x_standard_peripheral/Source/gd32vw55x_eclic.c ****     3. Neither the name of the copyright holder nor the names of its contributors
  20:../Firmware/GD32VW55x_standard_peripheral/Source/gd32vw55x_eclic.c ****        may be used to endorse or promote products derived from this software without
  21:../Firmware/GD32VW55x_standard_peripheral/Source/gd32vw55x_eclic.c ****        specific prior written permission.
  22:../Firmware/GD32VW55x_standard_peripheral/Source/gd32vw55x_eclic.c **** 
  23:../Firmware/GD32VW55x_standard_peripheral/Source/gd32vw55x_eclic.c ****     THIS SOFTWARE IS PROVIDED BY THE COPYRIGHT HOLDERS AND CONTRIBUTORS "AS IS"
  24:../Firmware/GD32VW55x_standard_peripheral/Source/gd32vw55x_eclic.c **** AND ANY EXPRESS OR IMPLIED WARRANTIES, INCLUDING, BUT NOT LIMITED TO, THE IMPLIED
  25:../Firmware/GD32VW55x_standard_peripheral/Source/gd32vw55x_eclic.c **** WARRANTIES OF MERCHANTABILITY AND FITNESS FOR A PARTICULAR PURPOSE ARE DISCLAIMED.
  26:../Firmware/GD32VW55x_standard_peripheral/Source/gd32vw55x_eclic.c **** IN NO EVENT SHALL THE COPYRIGHT HOLDER OR CONTRIBUTORS BE LIABLE FOR ANY DIRECT,
  27:../Firmware/GD32VW55x_standard_peripheral/Source/gd32vw55x_eclic.c **** INDIRECT, INCIDENTAL, SPECIAL, EXEMPLARY, OR CONSEQUENTIAL DAMAGES (INCLUDING, BUT
  28:../Firmware/GD32VW55x_standard_peripheral/Source/gd32vw55x_eclic.c **** NOT LIMITED TO, PROCUREMENT OF SUBSTITUTE GOODS OR SERVICES; LOSS OF USE, DATA, OR
  29:../Firmware/GD32VW55x_standard_peripheral/Source/gd32vw55x_eclic.c **** PROFITS; OR BUSINESS INTERRUPTION) HOWEVER CAUSED AND ON ANY THEORY OF LIABILITY,
  30:../Firmware/GD32VW55x_standard_peripheral/Source/gd32vw55x_eclic.c **** WHETHER IN CONTRACT, STRICT LIABILITY, OR TORT (INCLUDING NEGLIGENCE OR OTHERWISE)
  31:../Firmware/GD32VW55x_standard_peripheral/Source/gd32vw55x_eclic.c **** ARISING IN ANY WAY OUT OF THE USE OF THIS SOFTWARE, EVEN IF ADVISED OF THE POSSIBILITY
  32:../Firmware/GD32VW55x_standard_peripheral/Source/gd32vw55x_eclic.c **** OF SUCH DAMAGE.
  33:../Firmware/GD32VW55x_standard_peripheral/Source/gd32vw55x_eclic.c **** */
  34:../Firmware/GD32VW55x_standard_peripheral/Source/gd32vw55x_eclic.c **** 
  35:../Firmware/GD32VW55x_standard_peripheral/Source/gd32vw55x_eclic.c **** #include "gd32vw55x_eclic.h"
  36:../Firmware/GD32VW55x_standard_peripheral/Source/gd32vw55x_eclic.c **** #include "riscv_encoding.h"
  37:../Firmware/GD32VW55x_standard_peripheral/Source/gd32vw55x_eclic.c **** 
  38:../Firmware/GD32VW55x_standard_peripheral/Source/gd32vw55x_eclic.c **** /*!
  39:../Firmware/GD32VW55x_standard_peripheral/Source/gd32vw55x_eclic.c ****     \brief      enable the global interrupt
  40:../Firmware/GD32VW55x_standard_peripheral/Source/gd32vw55x_eclic.c ****     \param[in]  none
  41:../Firmware/GD32VW55x_standard_peripheral/Source/gd32vw55x_eclic.c ****     \param[out] none
  42:../Firmware/GD32VW55x_standard_peripheral/Source/gd32vw55x_eclic.c ****     \retval     none
  43:../Firmware/GD32VW55x_standard_peripheral/Source/gd32vw55x_eclic.c **** */
  44:../Firmware/GD32VW55x_standard_peripheral/Source/gd32vw55x_eclic.c **** void eclic_global_interrupt_enable(void)
  45:../Firmware/GD32VW55x_standard_peripheral/Source/gd32vw55x_eclic.c **** {
  16              		.loc 1 45 1
  17              		.cfi_startproc
  18 0000 4111     		addi	sp,sp,-16
  19              		.cfi_def_cfa_offset 16
  20 0002 22C6     		sw	s0,12(sp)
  21 0004 26C4     		sw	s1,8(sp)
  22              		.cfi_offset 8, -4
  23              		.cfi_offset 9, -8
  24 0006 0008     		addi	s0,sp,16
  25              		.cfi_def_cfa 8, 0
  26              	.LBB48:
  27              	.LBB49:
  28              	.LBB50:
  29              		.file 2 "../Firmware/RISCV/drivers/core_feature_base.h"
   1:../Firmware/RISCV/drivers/core_feature_base.h **** /*
   2:../Firmware/RISCV/drivers/core_feature_base.h ****  * Copyright (c) 2019 Nuclei Limited. All rights reserved.
   3:../Firmware/RISCV/drivers/core_feature_base.h ****  *
   4:../Firmware/RISCV/drivers/core_feature_base.h ****  * SPDX-License-Identifier: Apache-2.0
   5:../Firmware/RISCV/drivers/core_feature_base.h ****  *
   6:../Firmware/RISCV/drivers/core_feature_base.h ****  * Licensed under the Apache License, Version 2.0 (the License); you may
   7:../Firmware/RISCV/drivers/core_feature_base.h ****  * not use this file except in compliance with the License.
   8:../Firmware/RISCV/drivers/core_feature_base.h ****  * You may obtain a copy of the License at
   9:../Firmware/RISCV/drivers/core_feature_base.h ****  *
  10:../Firmware/RISCV/drivers/core_feature_base.h ****  * www.apache.org/licenses/LICENSE-2.0
  11:../Firmware/RISCV/drivers/core_feature_base.h ****  *
  12:../Firmware/RISCV/drivers/core_feature_base.h ****  * Unless required by applicable law or agreed to in writing, software
  13:../Firmware/RISCV/drivers/core_feature_base.h ****  * distributed under the License is distributed on an AS IS BASIS, WITHOUT
  14:../Firmware/RISCV/drivers/core_feature_base.h ****  * WARRANTIES OR CONDITIONS OF ANY KIND, either express or implied.
  15:../Firmware/RISCV/drivers/core_feature_base.h ****  * See the License for the specific language governing permissions and
  16:../Firmware/RISCV/drivers/core_feature_base.h ****  * limitations under the License.
  17:../Firmware/RISCV/drivers/core_feature_base.h ****  */
  18:../Firmware/RISCV/drivers/core_feature_base.h **** 
  19:../Firmware/RISCV/drivers/core_feature_base.h **** #ifndef __CORE_FEATURE_BASE__
  20:../Firmware/RISCV/drivers/core_feature_base.h **** #define __CORE_FEATURE_BASE__
  21:../Firmware/RISCV/drivers/core_feature_base.h **** /*!
  22:../Firmware/RISCV/drivers/core_feature_base.h ****  * @file     core_feature_base.h
  23:../Firmware/RISCV/drivers/core_feature_base.h ****  * @brief    Base core feature API for Nuclei N/NX Core
  24:../Firmware/RISCV/drivers/core_feature_base.h ****  */
  25:../Firmware/RISCV/drivers/core_feature_base.h **** #include <stdint.h>
  26:../Firmware/RISCV/drivers/core_feature_base.h **** #include "riscv_encoding.h"
  27:../Firmware/RISCV/drivers/core_feature_base.h **** 
  28:../Firmware/RISCV/drivers/core_feature_base.h **** #ifdef __cplusplus
  29:../Firmware/RISCV/drivers/core_feature_base.h ****  extern "C" {
  30:../Firmware/RISCV/drivers/core_feature_base.h **** #endif
  31:../Firmware/RISCV/drivers/core_feature_base.h **** 
  32:../Firmware/RISCV/drivers/core_feature_base.h **** /**
  33:../Firmware/RISCV/drivers/core_feature_base.h ****  * \defgroup NMSIS_Core_Registers     Register Define and Type Definitions
  34:../Firmware/RISCV/drivers/core_feature_base.h ****  * \brief   Type definitions and defines for core registers.
  35:../Firmware/RISCV/drivers/core_feature_base.h ****  *
  36:../Firmware/RISCV/drivers/core_feature_base.h ****  * @{
  37:../Firmware/RISCV/drivers/core_feature_base.h ****  */
  38:../Firmware/RISCV/drivers/core_feature_base.h **** #ifndef __RISCV_XLEN
  39:../Firmware/RISCV/drivers/core_feature_base.h ****   /** \brief Refer to the width of an integer register in bits(either 32 or 64) */
  40:../Firmware/RISCV/drivers/core_feature_base.h ****   #ifndef __riscv_xlen
  41:../Firmware/RISCV/drivers/core_feature_base.h ****     #define __RISCV_XLEN    32
  42:../Firmware/RISCV/drivers/core_feature_base.h ****   #else
  43:../Firmware/RISCV/drivers/core_feature_base.h ****     #define __RISCV_XLEN    __riscv_xlen
  44:../Firmware/RISCV/drivers/core_feature_base.h ****   #endif
  45:../Firmware/RISCV/drivers/core_feature_base.h **** #endif /* __RISCV_XLEN */
  46:../Firmware/RISCV/drivers/core_feature_base.h **** 
  47:../Firmware/RISCV/drivers/core_feature_base.h **** /** \brief Type of Control and Status Register(CSR), depends on the XLEN defined in RISC-V */
  48:../Firmware/RISCV/drivers/core_feature_base.h **** #if __RISCV_XLEN == 32
  49:../Firmware/RISCV/drivers/core_feature_base.h ****   typedef uint32_t rv_csr_t;
  50:../Firmware/RISCV/drivers/core_feature_base.h **** #elif __RISCV_XLEN == 64
  51:../Firmware/RISCV/drivers/core_feature_base.h ****   typedef uint64_t rv_csr_t;
  52:../Firmware/RISCV/drivers/core_feature_base.h **** #else
  53:../Firmware/RISCV/drivers/core_feature_base.h ****   typedef uint32_t rv_csr_t;
  54:../Firmware/RISCV/drivers/core_feature_base.h **** #endif
  55:../Firmware/RISCV/drivers/core_feature_base.h **** /** @} */ /* End of Doxygen Group NMSIS_Core_Registers */
  56:../Firmware/RISCV/drivers/core_feature_base.h **** /**
  57:../Firmware/RISCV/drivers/core_feature_base.h ****  * \defgroup NMSIS_Core_Base_Registers     Base Register Define and Type Definitions
  58:../Firmware/RISCV/drivers/core_feature_base.h ****  * \ingroup NMSIS_Core_Registers
  59:../Firmware/RISCV/drivers/core_feature_base.h ****  * \brief   Type definitions and defines for base core registers.
  60:../Firmware/RISCV/drivers/core_feature_base.h ****  *
  61:../Firmware/RISCV/drivers/core_feature_base.h ****  * @{
  62:../Firmware/RISCV/drivers/core_feature_base.h ****  */
  63:../Firmware/RISCV/drivers/core_feature_base.h **** /**
  64:../Firmware/RISCV/drivers/core_feature_base.h ****  * \brief  Union type to access MISA CSR register.
  65:../Firmware/RISCV/drivers/core_feature_base.h ****  */
  66:../Firmware/RISCV/drivers/core_feature_base.h **** typedef union {
  67:../Firmware/RISCV/drivers/core_feature_base.h ****     struct {
  68:../Firmware/RISCV/drivers/core_feature_base.h ****         rv_csr_t a:1;                           /*!< bit:     0  Atomic extension */
  69:../Firmware/RISCV/drivers/core_feature_base.h ****         rv_csr_t b:1;                           /*!< bit:     1  Tentatively reserved for Bit-Manip
  70:../Firmware/RISCV/drivers/core_feature_base.h ****         rv_csr_t c:1;                           /*!< bit:     2  Compressed extension */
  71:../Firmware/RISCV/drivers/core_feature_base.h ****         rv_csr_t d:1;                           /*!< bit:     3  Double-precision floating-point ex
  72:../Firmware/RISCV/drivers/core_feature_base.h ****         rv_csr_t e:1;                           /*!< bit:     4  RV32E base ISA */
  73:../Firmware/RISCV/drivers/core_feature_base.h ****         rv_csr_t f:1;                           /*!< bit:     5  Single-precision floating-point ex
  74:../Firmware/RISCV/drivers/core_feature_base.h ****         rv_csr_t g:1;                           /*!< bit:     6  Additional standard extensions pre
  75:../Firmware/RISCV/drivers/core_feature_base.h ****         rv_csr_t h:1;                           /*!< bit:     7  Hypervisor extension */
  76:../Firmware/RISCV/drivers/core_feature_base.h ****         rv_csr_t i:1;                           /*!< bit:     8  RV32I/64I/128I base ISA */
  77:../Firmware/RISCV/drivers/core_feature_base.h ****         rv_csr_t j:1;                           /*!< bit:     9  Tentatively reserved for Dynamical
  78:../Firmware/RISCV/drivers/core_feature_base.h ****         rv_csr_t _reserved1:1;                  /*!< bit:     10 Reserved  */
  79:../Firmware/RISCV/drivers/core_feature_base.h ****         rv_csr_t l:1;                           /*!< bit:     11 Tentatively reserved for Decimal F
  80:../Firmware/RISCV/drivers/core_feature_base.h ****         rv_csr_t m:1;                           /*!< bit:     12 Integer Multiply/Divide extension 
  81:../Firmware/RISCV/drivers/core_feature_base.h ****         rv_csr_t n:1;                           /*!< bit:     13 User-level interrupts supported  *
  82:../Firmware/RISCV/drivers/core_feature_base.h ****         rv_csr_t _reserved2:1;                  /*!< bit:     14 Reserved  */
  83:../Firmware/RISCV/drivers/core_feature_base.h ****         rv_csr_t p:1;                           /*!< bit:     15 Tentatively reserved for Packed-SI
  84:../Firmware/RISCV/drivers/core_feature_base.h ****         rv_csr_t q:1;                           /*!< bit:     16 Quad-precision floating-point exte
  85:../Firmware/RISCV/drivers/core_feature_base.h ****         rv_csr_t _resreved3:1;                  /*!< bit:     17 Reserved  */
  86:../Firmware/RISCV/drivers/core_feature_base.h ****         rv_csr_t s:1;                           /*!< bit:     18 Supervisor mode implemented  */
  87:../Firmware/RISCV/drivers/core_feature_base.h ****         rv_csr_t t:1;                           /*!< bit:     19 Tentatively reserved for Transacti
  88:../Firmware/RISCV/drivers/core_feature_base.h ****         rv_csr_t u:1;                           /*!< bit:     20 User mode implemented  */
  89:../Firmware/RISCV/drivers/core_feature_base.h ****         rv_csr_t v:1;                           /*!< bit:     21 Tentatively reserved for Vector ex
  90:../Firmware/RISCV/drivers/core_feature_base.h ****         rv_csr_t _reserved4:1;                  /*!< bit:     22 Reserved  */
  91:../Firmware/RISCV/drivers/core_feature_base.h ****         rv_csr_t x:1;                           /*!< bit:     23 Non-standard extensions present  *
  92:../Firmware/RISCV/drivers/core_feature_base.h **** #if defined(__RISCV_XLEN) && __RISCV_XLEN == 64
  93:../Firmware/RISCV/drivers/core_feature_base.h ****         rv_csr_t _reserved5:38;                 /*!< bit:     24..61 Reserved  */
  94:../Firmware/RISCV/drivers/core_feature_base.h ****         rv_csr_t mxl:2;                         /*!< bit:     62..63 Machine XLEN  */
  95:../Firmware/RISCV/drivers/core_feature_base.h **** #else
  96:../Firmware/RISCV/drivers/core_feature_base.h ****         rv_csr_t _reserved5:6;                  /*!< bit:     24..29 Reserved  */
  97:../Firmware/RISCV/drivers/core_feature_base.h ****         rv_csr_t mxl:2;                         /*!< bit:     30..31 Machine XLEN  */
  98:../Firmware/RISCV/drivers/core_feature_base.h **** #endif
  99:../Firmware/RISCV/drivers/core_feature_base.h ****     } b;                                        /*!< Structure used for bit  access */
 100:../Firmware/RISCV/drivers/core_feature_base.h ****     rv_csr_t d;                                 /*!< Type      used for csr data access */
 101:../Firmware/RISCV/drivers/core_feature_base.h **** } CSR_MISA_Type;
 102:../Firmware/RISCV/drivers/core_feature_base.h **** 
 103:../Firmware/RISCV/drivers/core_feature_base.h **** /**
 104:../Firmware/RISCV/drivers/core_feature_base.h ****  * \brief  Union type to access MSTATUS CSR register.
 105:../Firmware/RISCV/drivers/core_feature_base.h ****  */
 106:../Firmware/RISCV/drivers/core_feature_base.h **** typedef union {
 107:../Firmware/RISCV/drivers/core_feature_base.h ****     struct {
 108:../Firmware/RISCV/drivers/core_feature_base.h **** #if defined(__RISCV_XLEN) && __RISCV_XLEN == 64
 109:../Firmware/RISCV/drivers/core_feature_base.h ****         rv_csr_t _reserved0:3;                  /*!< bit:     0..2  Reserved */
 110:../Firmware/RISCV/drivers/core_feature_base.h ****         rv_csr_t mie:1;                         /*!< bit:     3  Machine mode interrupt enable flag
 111:../Firmware/RISCV/drivers/core_feature_base.h ****         rv_csr_t _reserved1:3;                  /*!< bit:     4..6  Reserved */
 112:../Firmware/RISCV/drivers/core_feature_base.h ****         rv_csr_t mpie:1;                        /*!< bit:     7  mirror of MIE flag */
 113:../Firmware/RISCV/drivers/core_feature_base.h ****         rv_csr_t _reserved2:3;                  /*!< bit:     8..10  Reserved */
 114:../Firmware/RISCV/drivers/core_feature_base.h ****         rv_csr_t mpp:2;                         /*!< bit:     11..12 mirror of Privilege Mode */
 115:../Firmware/RISCV/drivers/core_feature_base.h ****         rv_csr_t fs:2;                          /*!< bit:     13..14 FS status flag */
 116:../Firmware/RISCV/drivers/core_feature_base.h ****         rv_csr_t xs:2;                          /*!< bit:     15..16 XS status flag */
 117:../Firmware/RISCV/drivers/core_feature_base.h ****         rv_csr_t mprv:1;                        /*!< bit:     Machine mode PMP */
 118:../Firmware/RISCV/drivers/core_feature_base.h ****         rv_csr_t _reserved3:14;                 /*!< bit:     18..31 Reserved */
 119:../Firmware/RISCV/drivers/core_feature_base.h ****         rv_csr_t uxl:2;                         /*!< bit:     32..33 user mode xlen */
 120:../Firmware/RISCV/drivers/core_feature_base.h ****         rv_csr_t _reserved6:29;                 /*!< bit:     34..62 Reserved  */
 121:../Firmware/RISCV/drivers/core_feature_base.h ****         rv_csr_t sd:1;                          /*!< bit:     Dirty status for XS or FS */
 122:../Firmware/RISCV/drivers/core_feature_base.h **** #else
 123:../Firmware/RISCV/drivers/core_feature_base.h ****         rv_csr_t _reserved0:1;                  /*!< bit:     0  Reserved */
 124:../Firmware/RISCV/drivers/core_feature_base.h ****         rv_csr_t sie:1;                         /*!< bit:     1  supervisor interrupt enable flag *
 125:../Firmware/RISCV/drivers/core_feature_base.h ****         rv_csr_t _reserved1:1;                  /*!< bit:     2  Reserved */
 126:../Firmware/RISCV/drivers/core_feature_base.h ****         rv_csr_t mie:1;                         /*!< bit:     3  Machine mode interrupt enable flag
 127:../Firmware/RISCV/drivers/core_feature_base.h ****         rv_csr_t _reserved2:1;                  /*!< bit:     4  Reserved */
 128:../Firmware/RISCV/drivers/core_feature_base.h ****         rv_csr_t spie:1;                        /*!< bit:     3  Supervisor Privilede mode interrup
 129:../Firmware/RISCV/drivers/core_feature_base.h ****         rv_csr_t _reserved3:1;                  /*!< bit:     Reserved */
 130:../Firmware/RISCV/drivers/core_feature_base.h ****         rv_csr_t mpie:1;                        /*!< bit:     mirror of MIE flag */
 131:../Firmware/RISCV/drivers/core_feature_base.h ****         rv_csr_t _reserved4:3;                  /*!< bit:     Reserved */
 132:../Firmware/RISCV/drivers/core_feature_base.h ****         rv_csr_t mpp:2;                         /*!< bit:     mirror of Privilege Mode */
 133:../Firmware/RISCV/drivers/core_feature_base.h ****         rv_csr_t fs:2;                          /*!< bit:     FS status flag */
 134:../Firmware/RISCV/drivers/core_feature_base.h ****         rv_csr_t xs:2;                          /*!< bit:     XS status flag */
 135:../Firmware/RISCV/drivers/core_feature_base.h ****         rv_csr_t mprv:1;                        /*!< bit:     Machine mode PMP */
 136:../Firmware/RISCV/drivers/core_feature_base.h ****         rv_csr_t sum:1;                         /*!< bit:     Supervisor Mode load and store protec
 137:../Firmware/RISCV/drivers/core_feature_base.h ****         rv_csr_t _reserved6:12;                 /*!< bit:     19..30 Reserved  */
 138:../Firmware/RISCV/drivers/core_feature_base.h ****         rv_csr_t sd:1;                          /*!< bit:     Dirty status for XS or FS */
 139:../Firmware/RISCV/drivers/core_feature_base.h **** #endif
 140:../Firmware/RISCV/drivers/core_feature_base.h ****     } b;                                        /*!< Structure used for bit  access */
 141:../Firmware/RISCV/drivers/core_feature_base.h ****     rv_csr_t d;                                 /*!< Type      used for csr data access */
 142:../Firmware/RISCV/drivers/core_feature_base.h **** } CSR_MSTATUS_Type;
 143:../Firmware/RISCV/drivers/core_feature_base.h **** 
 144:../Firmware/RISCV/drivers/core_feature_base.h **** /**
 145:../Firmware/RISCV/drivers/core_feature_base.h ****  * \brief  Union type to access MTVEC CSR register.
 146:../Firmware/RISCV/drivers/core_feature_base.h ****  */
 147:../Firmware/RISCV/drivers/core_feature_base.h **** typedef union {
 148:../Firmware/RISCV/drivers/core_feature_base.h ****     struct {
 149:../Firmware/RISCV/drivers/core_feature_base.h ****         rv_csr_t mode:6;                        /*!< bit:     0..5   interrupt mode control */
 150:../Firmware/RISCV/drivers/core_feature_base.h **** #if defined(__RISCV_XLEN) && __RISCV_XLEN == 64
 151:../Firmware/RISCV/drivers/core_feature_base.h ****         rv_csr_t addr:58;                       /*!< bit:     6..63  mtvec address */
 152:../Firmware/RISCV/drivers/core_feature_base.h **** #else
 153:../Firmware/RISCV/drivers/core_feature_base.h ****         rv_csr_t addr:26;                       /*!< bit:     6..31  mtvec address */
 154:../Firmware/RISCV/drivers/core_feature_base.h **** #endif
 155:../Firmware/RISCV/drivers/core_feature_base.h ****     } b;                                        /*!< Structure used for bit  access */
 156:../Firmware/RISCV/drivers/core_feature_base.h ****     rv_csr_t d;                                 /*!< Type      used for csr data access */
 157:../Firmware/RISCV/drivers/core_feature_base.h **** } CSR_MTVEC_Type;
 158:../Firmware/RISCV/drivers/core_feature_base.h **** 
 159:../Firmware/RISCV/drivers/core_feature_base.h **** /**
 160:../Firmware/RISCV/drivers/core_feature_base.h ****  * \brief  Union type to access MCAUSE CSR register.
 161:../Firmware/RISCV/drivers/core_feature_base.h ****  */
 162:../Firmware/RISCV/drivers/core_feature_base.h **** typedef union {
 163:../Firmware/RISCV/drivers/core_feature_base.h ****     struct {
 164:../Firmware/RISCV/drivers/core_feature_base.h ****         rv_csr_t exccode:12;                    /*!< bit:     11..0  exception or interrupt code */
 165:../Firmware/RISCV/drivers/core_feature_base.h ****         rv_csr_t _reserved0:4;                  /*!< bit:     15..12  Reserved */
 166:../Firmware/RISCV/drivers/core_feature_base.h ****         rv_csr_t mpil:8;                        /*!< bit:     23..16  Previous interrupt level */
 167:../Firmware/RISCV/drivers/core_feature_base.h ****         rv_csr_t _reserved1:3;                  /*!< bit:     26..24  Reserved */
 168:../Firmware/RISCV/drivers/core_feature_base.h ****         rv_csr_t mpie:1;                        /*!< bit:     27  Interrupt enable flag before ente
 169:../Firmware/RISCV/drivers/core_feature_base.h ****         rv_csr_t mpp:2;                         /*!< bit:     29..28  Privilede mode flag before en
 170:../Firmware/RISCV/drivers/core_feature_base.h ****         rv_csr_t minhv:1;                       /*!< bit:     30  Machine interrupt vector table */
 171:../Firmware/RISCV/drivers/core_feature_base.h **** #if defined(__RISCV_XLEN) && __RISCV_XLEN == 64
 172:../Firmware/RISCV/drivers/core_feature_base.h ****         rv_csr_t _reserved2:32;                 /*!< bit:     31..62  Reserved */
 173:../Firmware/RISCV/drivers/core_feature_base.h ****         rv_csr_t interrupt:1;                   /*!< bit:     63  trap type. 0 means exception and 
 174:../Firmware/RISCV/drivers/core_feature_base.h **** #else
 175:../Firmware/RISCV/drivers/core_feature_base.h ****         rv_csr_t interrupt:1;                   /*!< bit:     31  trap type. 0 means exception and 
 176:../Firmware/RISCV/drivers/core_feature_base.h **** #endif
 177:../Firmware/RISCV/drivers/core_feature_base.h ****     } b;                                        /*!< Structure used for bit  access */
 178:../Firmware/RISCV/drivers/core_feature_base.h ****     rv_csr_t d;                                 /*!< Type      used for csr data access */
 179:../Firmware/RISCV/drivers/core_feature_base.h **** } CSR_MCAUSE_Type;
 180:../Firmware/RISCV/drivers/core_feature_base.h **** 
 181:../Firmware/RISCV/drivers/core_feature_base.h **** /**
 182:../Firmware/RISCV/drivers/core_feature_base.h ****  * \brief  Union type to access MCOUNTINHIBIT CSR register.
 183:../Firmware/RISCV/drivers/core_feature_base.h ****  */
 184:../Firmware/RISCV/drivers/core_feature_base.h **** typedef union {
 185:../Firmware/RISCV/drivers/core_feature_base.h ****     struct {
 186:../Firmware/RISCV/drivers/core_feature_base.h ****         rv_csr_t cy:1;                          /*!< bit:     0     1 means disable mcycle counter 
 187:../Firmware/RISCV/drivers/core_feature_base.h ****         rv_csr_t _reserved0:1;                  /*!< bit:     1     Reserved */
 188:../Firmware/RISCV/drivers/core_feature_base.h ****         rv_csr_t ir:1;                          /*!< bit:     2     1 means disable minstret counte
 189:../Firmware/RISCV/drivers/core_feature_base.h **** #if defined(__RISCV_XLEN) && __RISCV_XLEN == 64
 190:../Firmware/RISCV/drivers/core_feature_base.h ****         rv_csr_t _reserved1:61;                 /*!< bit:     3..63 Reserved */
 191:../Firmware/RISCV/drivers/core_feature_base.h **** #else
 192:../Firmware/RISCV/drivers/core_feature_base.h ****         rv_csr_t _reserved1:29;                 /*!< bit:     3..31 Reserved */
 193:../Firmware/RISCV/drivers/core_feature_base.h **** #endif
 194:../Firmware/RISCV/drivers/core_feature_base.h ****     } b;                                        /*!< Structure used for bit  access */
 195:../Firmware/RISCV/drivers/core_feature_base.h ****     rv_csr_t d;                                 /*!< Type      used for csr data access */
 196:../Firmware/RISCV/drivers/core_feature_base.h **** } CSR_MCOUNTINHIBIT_Type;
 197:../Firmware/RISCV/drivers/core_feature_base.h **** 
 198:../Firmware/RISCV/drivers/core_feature_base.h **** /**
 199:../Firmware/RISCV/drivers/core_feature_base.h ****  * \brief  Union type to access MSUBM CSR register.
 200:../Firmware/RISCV/drivers/core_feature_base.h ****  */
 201:../Firmware/RISCV/drivers/core_feature_base.h **** typedef union {
 202:../Firmware/RISCV/drivers/core_feature_base.h ****     struct {
 203:../Firmware/RISCV/drivers/core_feature_base.h ****         rv_csr_t _reserved0:6;                  /*!< bit:     0..5   Reserved */
 204:../Firmware/RISCV/drivers/core_feature_base.h ****         rv_csr_t typ:2;                         /*!< bit:     6..7   current trap type */
 205:../Firmware/RISCV/drivers/core_feature_base.h ****         rv_csr_t ptyp:2;                        /*!< bit:     8..9   previous trap type */
 206:../Firmware/RISCV/drivers/core_feature_base.h **** #if defined(__RISCV_XLEN) && __RISCV_XLEN == 64
 207:../Firmware/RISCV/drivers/core_feature_base.h ****         rv_csr_t _reserved1:54;                 /*!< bit:     10..63 Reserved */
 208:../Firmware/RISCV/drivers/core_feature_base.h **** #else
 209:../Firmware/RISCV/drivers/core_feature_base.h ****         rv_csr_t _reserved1:22;                 /*!< bit:     10..31 Reserved */
 210:../Firmware/RISCV/drivers/core_feature_base.h **** #endif
 211:../Firmware/RISCV/drivers/core_feature_base.h ****     } b;                                        /*!< Structure used for bit  access */
 212:../Firmware/RISCV/drivers/core_feature_base.h ****     rv_csr_t d;                                 /*!< Type      used for csr data access */
 213:../Firmware/RISCV/drivers/core_feature_base.h **** } CSR_MSUBM_Type;
 214:../Firmware/RISCV/drivers/core_feature_base.h **** 
 215:../Firmware/RISCV/drivers/core_feature_base.h **** /**
 216:../Firmware/RISCV/drivers/core_feature_base.h ****  * \brief  Union type to access MDCAUSE CSR register.
 217:../Firmware/RISCV/drivers/core_feature_base.h ****  */
 218:../Firmware/RISCV/drivers/core_feature_base.h **** typedef union {
 219:../Firmware/RISCV/drivers/core_feature_base.h ****     struct {
 220:../Firmware/RISCV/drivers/core_feature_base.h ****         rv_csr_t mdcause:2;                     /*!< bit:     0..1   More detailed exception inform
 221:../Firmware/RISCV/drivers/core_feature_base.h ****         rv_csr_t _reserved0:__RISCV_XLEN-2;     /*!< bit:     2..XLEN-1 Reserved */
 222:../Firmware/RISCV/drivers/core_feature_base.h ****     } b;                                        /*!< Structure used for bit  access */
 223:../Firmware/RISCV/drivers/core_feature_base.h ****     rv_csr_t d;                                 /*!< Type      used for csr data access */
 224:../Firmware/RISCV/drivers/core_feature_base.h **** } CSR_MDCAUSE_Type;
 225:../Firmware/RISCV/drivers/core_feature_base.h **** 
 226:../Firmware/RISCV/drivers/core_feature_base.h **** /**
 227:../Firmware/RISCV/drivers/core_feature_base.h ****  * \brief  Union type to access MMISC_CTRL CSR register.
 228:../Firmware/RISCV/drivers/core_feature_base.h ****  */
 229:../Firmware/RISCV/drivers/core_feature_base.h **** typedef union {
 230:../Firmware/RISCV/drivers/core_feature_base.h ****     struct {
 231:../Firmware/RISCV/drivers/core_feature_base.h ****         rv_csr_t _reserved0:3;                  /*!< bit:     0..2  Reserved */
 232:../Firmware/RISCV/drivers/core_feature_base.h ****         rv_csr_t bpu:1;                         /*!< bit:     3     dynamic prediction enable flag 
 233:../Firmware/RISCV/drivers/core_feature_base.h ****         rv_csr_t _reserved1:2;                  /*!< bit:     4..5  Reserved */
 234:../Firmware/RISCV/drivers/core_feature_base.h ****         rv_csr_t misalign:1;                    /*!< bit:     6     misaligned access support flag 
 235:../Firmware/RISCV/drivers/core_feature_base.h ****         rv_csr_t _reserved2:2;                  /*!< bit:     7..8  Reserved */
 236:../Firmware/RISCV/drivers/core_feature_base.h ****         rv_csr_t nmi_cause:1;                   /*!< bit:     9     mnvec control and nmi mcase exc
 237:../Firmware/RISCV/drivers/core_feature_base.h **** #if defined(__RISCV_XLEN) && __RISCV_XLEN == 64
 238:../Firmware/RISCV/drivers/core_feature_base.h ****         rv_csr_t _reserved3:54;                 /*!< bit:     10..63 Reserved */
 239:../Firmware/RISCV/drivers/core_feature_base.h **** #else
 240:../Firmware/RISCV/drivers/core_feature_base.h ****         rv_csr_t _reserved3:22;                 /*!< bit:     10..31 Reserved */
 241:../Firmware/RISCV/drivers/core_feature_base.h **** #endif
 242:../Firmware/RISCV/drivers/core_feature_base.h ****     } b;                                        /*!< Structure used for bit  access */
 243:../Firmware/RISCV/drivers/core_feature_base.h ****     rv_csr_t d;                                 /*!< Type      used for csr data access */
 244:../Firmware/RISCV/drivers/core_feature_base.h **** } CSR_MMISCCTRL_Type;
 245:../Firmware/RISCV/drivers/core_feature_base.h **** 
 246:../Firmware/RISCV/drivers/core_feature_base.h **** typedef CSR_MMISCCTRL_Type CSR_MMISCCTL_Type;
 247:../Firmware/RISCV/drivers/core_feature_base.h **** 
 248:../Firmware/RISCV/drivers/core_feature_base.h **** /**
 249:../Firmware/RISCV/drivers/core_feature_base.h ****  * \brief  Union type to access MCACHE_CTL CSR register.
 250:../Firmware/RISCV/drivers/core_feature_base.h ****  */
 251:../Firmware/RISCV/drivers/core_feature_base.h **** typedef union {
 252:../Firmware/RISCV/drivers/core_feature_base.h ****     struct {
 253:../Firmware/RISCV/drivers/core_feature_base.h ****         rv_csr_t ic_en:1;                       /*!< I-Cache enable */
 254:../Firmware/RISCV/drivers/core_feature_base.h ****         rv_csr_t ic_scpd_mod:1;                 /*!< Scratchpad mode, 0: Scratchpad as ICache Data 
 255:../Firmware/RISCV/drivers/core_feature_base.h ****         rv_csr_t ic_ecc_en:1;                   /*!< I-Cache ECC enable */
 256:../Firmware/RISCV/drivers/core_feature_base.h ****         rv_csr_t ic_ecc_excp_en:1;              /*!< I-Cache 2bit ECC error exception enable */
 257:../Firmware/RISCV/drivers/core_feature_base.h ****         rv_csr_t ic_rwtecc:1;                   /*!< Control I-Cache Tag Ram ECC code injection */
 258:../Firmware/RISCV/drivers/core_feature_base.h ****         rv_csr_t ic_rwdecc:1;                   /*!< Control I-Cache Data Ram ECC code injection */
 259:../Firmware/RISCV/drivers/core_feature_base.h ****         rv_csr_t _reserved0:10;
 260:../Firmware/RISCV/drivers/core_feature_base.h ****         rv_csr_t dc_en:1;                       /*!< DCache enable */
 261:../Firmware/RISCV/drivers/core_feature_base.h ****         rv_csr_t dc_ecc_en:1;                   /*!< D-Cache ECC enable */
 262:../Firmware/RISCV/drivers/core_feature_base.h ****         rv_csr_t dc_ecc_excp_en:1;              /*!< D-Cache 2bit ECC error exception enable */
 263:../Firmware/RISCV/drivers/core_feature_base.h ****         rv_csr_t dc_rwtecc:1;                   /*!< Control D-Cache Tag Ram ECC code injection */
 264:../Firmware/RISCV/drivers/core_feature_base.h ****         rv_csr_t dc_rwdecc:1;                   /*!< Control D-Cache Data Ram ECC code injection */
 265:../Firmware/RISCV/drivers/core_feature_base.h ****         rv_csr_t _reserved1:__RISCV_XLEN-21;
 266:../Firmware/RISCV/drivers/core_feature_base.h ****     } b;                                        /*!< Structure used for bit  access */
 267:../Firmware/RISCV/drivers/core_feature_base.h ****     rv_csr_t d;                                 /*!< Type      used for csr data access */
 268:../Firmware/RISCV/drivers/core_feature_base.h **** } CSR_MCACHECTL_Type;
 269:../Firmware/RISCV/drivers/core_feature_base.h **** 
 270:../Firmware/RISCV/drivers/core_feature_base.h **** /**
 271:../Firmware/RISCV/drivers/core_feature_base.h ****  * \brief  Union type to access MSAVESTATUS CSR register.
 272:../Firmware/RISCV/drivers/core_feature_base.h ****  */
 273:../Firmware/RISCV/drivers/core_feature_base.h **** typedef union {
 274:../Firmware/RISCV/drivers/core_feature_base.h ****     struct {
 275:../Firmware/RISCV/drivers/core_feature_base.h ****         rv_csr_t mpie1:1;                       /*!< bit:     0     interrupt enable flag of fisrt 
 276:../Firmware/RISCV/drivers/core_feature_base.h ****         rv_csr_t mpp1:2;                        /*!< bit:     1..2  privilede mode of fisrt level N
 277:../Firmware/RISCV/drivers/core_feature_base.h ****         rv_csr_t _reserved0:3;                  /*!< bit:     3..5  Reserved */
 278:../Firmware/RISCV/drivers/core_feature_base.h ****         rv_csr_t ptyp1:2;                       /*!< bit:     6..7  NMI/exception type of before fi
 279:../Firmware/RISCV/drivers/core_feature_base.h ****         rv_csr_t mpie2:1;                       /*!< bit:     8     interrupt enable flag of second
 280:../Firmware/RISCV/drivers/core_feature_base.h ****         rv_csr_t mpp2:2;                        /*!< bit:     9..10 privilede mode of second level 
 281:../Firmware/RISCV/drivers/core_feature_base.h ****         rv_csr_t _reserved1:3;                  /*!< bit:     11..13     Reserved */
 282:../Firmware/RISCV/drivers/core_feature_base.h ****         rv_csr_t ptyp2:2;                       /*!< bit:     14..15     NMI/exception type of befo
 283:../Firmware/RISCV/drivers/core_feature_base.h **** #if defined(__RISCV_XLEN) && __RISCV_XLEN == 64
 284:../Firmware/RISCV/drivers/core_feature_base.h ****         rv_csr_t _reserved2:48;                 /*!< bit:     16..63 Reserved*/
 285:../Firmware/RISCV/drivers/core_feature_base.h **** #else
 286:../Firmware/RISCV/drivers/core_feature_base.h ****         rv_csr_t _reserved2:16;                 /*!< bit:     16..31 Reserved*/
 287:../Firmware/RISCV/drivers/core_feature_base.h **** #endif
 288:../Firmware/RISCV/drivers/core_feature_base.h ****     } b;                                        /*!< Structure used for bit  access */
 289:../Firmware/RISCV/drivers/core_feature_base.h ****     rv_csr_t w;                                 /*!< Type      used for csr data access */
 290:../Firmware/RISCV/drivers/core_feature_base.h **** } CSR_MSAVESTATUS_Type;
 291:../Firmware/RISCV/drivers/core_feature_base.h **** 
 292:../Firmware/RISCV/drivers/core_feature_base.h **** /**
 293:../Firmware/RISCV/drivers/core_feature_base.h ****  * \brief  Union type to access MILM_CTL CSR register.
 294:../Firmware/RISCV/drivers/core_feature_base.h ****  */
 295:../Firmware/RISCV/drivers/core_feature_base.h **** typedef union {
 296:../Firmware/RISCV/drivers/core_feature_base.h ****     struct {
 297:../Firmware/RISCV/drivers/core_feature_base.h ****         rv_csr_t ilm_en:1;                      /*!< ILM enable */
 298:../Firmware/RISCV/drivers/core_feature_base.h ****         rv_csr_t ilm_ecc_en:1;                  /*!< ILM ECC eanble */
 299:../Firmware/RISCV/drivers/core_feature_base.h ****         rv_csr_t ilm_ecc_excp_en:1;             /*!< ILM ECC exception enable */
 300:../Firmware/RISCV/drivers/core_feature_base.h ****         rv_csr_t ilm_rwecc:1;                   /*!< Control mecc_code write to ilm, simulate error
 301:../Firmware/RISCV/drivers/core_feature_base.h ****         rv_csr_t _reserved0:6;                  /*!< Reserved */
 302:../Firmware/RISCV/drivers/core_feature_base.h ****         rv_csr_t ilm_bpa:__RISCV_XLEN-10;       /*!< ILM base address */
 303:../Firmware/RISCV/drivers/core_feature_base.h ****     } b;                                        /*!< Structure used for bit  access */
 304:../Firmware/RISCV/drivers/core_feature_base.h ****     rv_csr_t d;                                 /*!< Type      used for csr data access */
 305:../Firmware/RISCV/drivers/core_feature_base.h **** } CSR_MILMCTL_Type;
 306:../Firmware/RISCV/drivers/core_feature_base.h **** 
 307:../Firmware/RISCV/drivers/core_feature_base.h **** /**
 308:../Firmware/RISCV/drivers/core_feature_base.h ****  * \brief  Union type to access MDLM_CTL CSR register.
 309:../Firmware/RISCV/drivers/core_feature_base.h ****  */
 310:../Firmware/RISCV/drivers/core_feature_base.h **** typedef union {
 311:../Firmware/RISCV/drivers/core_feature_base.h ****     struct {
 312:../Firmware/RISCV/drivers/core_feature_base.h ****         rv_csr_t dlm_en:1;                      /*!< DLM enable */
 313:../Firmware/RISCV/drivers/core_feature_base.h ****         rv_csr_t dlm_ecc_en:1;                  /*!< DLM ECC eanble */
 314:../Firmware/RISCV/drivers/core_feature_base.h ****         rv_csr_t dlm_ecc_excp_en:1;             /*!< DLM ECC exception enable */
 315:../Firmware/RISCV/drivers/core_feature_base.h ****         rv_csr_t dlm_rwecc:1;                   /*!< Control mecc_code write to dlm, simulate error
 316:../Firmware/RISCV/drivers/core_feature_base.h ****         rv_csr_t _reserved0:6;                  /*!< Reserved */
 317:../Firmware/RISCV/drivers/core_feature_base.h ****         rv_csr_t dlm_bpa:__RISCV_XLEN-10;       /*!< DLM base address */
 318:../Firmware/RISCV/drivers/core_feature_base.h ****     } b;                                        /*!< Structure used for bit  access */
 319:../Firmware/RISCV/drivers/core_feature_base.h ****     rv_csr_t d;                                 /*!< Type      used for csr data access */
 320:../Firmware/RISCV/drivers/core_feature_base.h **** } CSR_MDLMCTL_Type;
 321:../Firmware/RISCV/drivers/core_feature_base.h **** 
 322:../Firmware/RISCV/drivers/core_feature_base.h **** /**
 323:../Firmware/RISCV/drivers/core_feature_base.h ****  * \brief  Union type to access MCFG_INFO CSR register.
 324:../Firmware/RISCV/drivers/core_feature_base.h ****  */
 325:../Firmware/RISCV/drivers/core_feature_base.h **** typedef union {
 326:../Firmware/RISCV/drivers/core_feature_base.h ****     struct {
 327:../Firmware/RISCV/drivers/core_feature_base.h ****         rv_csr_t tee:1;                         /*!< TEE present */
 328:../Firmware/RISCV/drivers/core_feature_base.h ****         rv_csr_t ecc:1;                         /*!< ECC present */
 329:../Firmware/RISCV/drivers/core_feature_base.h ****         rv_csr_t clic:1;                        /*!< CLIC present */
 330:../Firmware/RISCV/drivers/core_feature_base.h ****         rv_csr_t plic:1;                        /*!< PLIC present */
 331:../Firmware/RISCV/drivers/core_feature_base.h ****         rv_csr_t fio:1;                         /*!< FIO present */
 332:../Firmware/RISCV/drivers/core_feature_base.h ****         rv_csr_t ppi:1;                         /*!< PPI present */
 333:../Firmware/RISCV/drivers/core_feature_base.h ****         rv_csr_t nice:1;                        /*!< NICE present */
 334:../Firmware/RISCV/drivers/core_feature_base.h ****         rv_csr_t ilm:1;                         /*!< ILM present */
 335:../Firmware/RISCV/drivers/core_feature_base.h ****         rv_csr_t dlm:1;                         /*!< DLM present */
 336:../Firmware/RISCV/drivers/core_feature_base.h ****         rv_csr_t icache:1;                      /*!< ICache present */
 337:../Firmware/RISCV/drivers/core_feature_base.h ****         rv_csr_t dcache:1;                      /*!< DCache present */
 338:../Firmware/RISCV/drivers/core_feature_base.h ****         rv_csr_t _reserved0:__RISCV_XLEN-11;
 339:../Firmware/RISCV/drivers/core_feature_base.h ****     } b;                                        /*!< Structure used for bit  access */
 340:../Firmware/RISCV/drivers/core_feature_base.h ****     rv_csr_t d;                                 /*!< Type      used for csr data access */
 341:../Firmware/RISCV/drivers/core_feature_base.h **** } CSR_MCFGINFO_Type;
 342:../Firmware/RISCV/drivers/core_feature_base.h **** 
 343:../Firmware/RISCV/drivers/core_feature_base.h **** /**
 344:../Firmware/RISCV/drivers/core_feature_base.h ****  * \brief  Union type to access MICFG_INFO CSR register.
 345:../Firmware/RISCV/drivers/core_feature_base.h ****  */
 346:../Firmware/RISCV/drivers/core_feature_base.h **** typedef union {
 347:../Firmware/RISCV/drivers/core_feature_base.h ****     struct {
 348:../Firmware/RISCV/drivers/core_feature_base.h ****         rv_csr_t set:4;                         /*!< I-Cache sets per way */
 349:../Firmware/RISCV/drivers/core_feature_base.h ****         rv_csr_t way:3;                         /*!< I-Cache way */
 350:../Firmware/RISCV/drivers/core_feature_base.h ****         rv_csr_t lsize:3;                       /*!< I-Cache line size */
 351:../Firmware/RISCV/drivers/core_feature_base.h ****         rv_csr_t cache_ecc:1;                   /*!< I-Cache ECC present */
 352:../Firmware/RISCV/drivers/core_feature_base.h ****         rv_csr_t _reserved0:5;
 353:../Firmware/RISCV/drivers/core_feature_base.h ****         rv_csr_t lm_size:5;                     /*!< ILM size, need to be 2^n size */
 354:../Firmware/RISCV/drivers/core_feature_base.h ****         rv_csr_t lm_xonly:1;                    /*!< ILM Execute only permission */
 355:../Firmware/RISCV/drivers/core_feature_base.h ****         rv_csr_t lm_ecc:1;                      /*!< ILM ECC present */
 356:../Firmware/RISCV/drivers/core_feature_base.h ****         rv_csr_t _reserved1:__RISCV_XLEN-23;
 357:../Firmware/RISCV/drivers/core_feature_base.h ****     } b;                                        /*!< Structure used for bit  access */
 358:../Firmware/RISCV/drivers/core_feature_base.h ****     rv_csr_t d;                                 /*!< Type      used for csr data access */
 359:../Firmware/RISCV/drivers/core_feature_base.h **** } CSR_MICFGINFO_Type;
 360:../Firmware/RISCV/drivers/core_feature_base.h **** 
 361:../Firmware/RISCV/drivers/core_feature_base.h **** /**
 362:../Firmware/RISCV/drivers/core_feature_base.h ****  * \brief  Union type to access MDCFG_INFO CSR register.
 363:../Firmware/RISCV/drivers/core_feature_base.h ****  */
 364:../Firmware/RISCV/drivers/core_feature_base.h **** typedef union {
 365:../Firmware/RISCV/drivers/core_feature_base.h ****     struct {
 366:../Firmware/RISCV/drivers/core_feature_base.h ****         rv_csr_t set:4;                         /*!< D-Cache sets per way */
 367:../Firmware/RISCV/drivers/core_feature_base.h ****         rv_csr_t way:3;                         /*!< D-Cache way */
 368:../Firmware/RISCV/drivers/core_feature_base.h ****         rv_csr_t lsize:3;                       /*!< D-Cache line size */
 369:../Firmware/RISCV/drivers/core_feature_base.h ****         rv_csr_t cache_ecc:1;                   /*!< D-Cache ECC present */
 370:../Firmware/RISCV/drivers/core_feature_base.h ****         rv_csr_t _reserved0:5;
 371:../Firmware/RISCV/drivers/core_feature_base.h ****         rv_csr_t lm_size:5;                     /*!< DLM size, need to be 2^n size */
 372:../Firmware/RISCV/drivers/core_feature_base.h ****         rv_csr_t lm_xonly:1;                    /*!< DLM Execute only permission */
 373:../Firmware/RISCV/drivers/core_feature_base.h ****         rv_csr_t lm_ecc:1;                      /*!< DLM ECC present */
 374:../Firmware/RISCV/drivers/core_feature_base.h ****         rv_csr_t _reserved1:__RISCV_XLEN-23;
 375:../Firmware/RISCV/drivers/core_feature_base.h ****     } b;                                        /*!< Structure used for bit  access */
 376:../Firmware/RISCV/drivers/core_feature_base.h ****     rv_csr_t d;                                 /*!< Type      used for csr data access */
 377:../Firmware/RISCV/drivers/core_feature_base.h **** } CSR_MDCFGINFO_Type;
 378:../Firmware/RISCV/drivers/core_feature_base.h **** 
 379:../Firmware/RISCV/drivers/core_feature_base.h **** /**
 380:../Firmware/RISCV/drivers/core_feature_base.h ****  * \brief  Union type to access MPPICFG_INFO CSR register.
 381:../Firmware/RISCV/drivers/core_feature_base.h ****  */
 382:../Firmware/RISCV/drivers/core_feature_base.h **** typedef union {
 383:../Firmware/RISCV/drivers/core_feature_base.h ****     struct {
 384:../Firmware/RISCV/drivers/core_feature_base.h ****         rv_csr_t _reserved0:1;                  /*!< Reserved */
 385:../Firmware/RISCV/drivers/core_feature_base.h ****         rv_csr_t ppi_size:5;                    /*!< PPI size, need to be 2^n size */
 386:../Firmware/RISCV/drivers/core_feature_base.h ****         rv_csr_t _reserved1:4;                  /*!< Reserved */
 387:../Firmware/RISCV/drivers/core_feature_base.h ****         rv_csr_t ppi_bpa:__RISCV_XLEN-10;       /*!< PPI base address */
 388:../Firmware/RISCV/drivers/core_feature_base.h ****     } b;                                        /*!< Structure used for bit  access */
 389:../Firmware/RISCV/drivers/core_feature_base.h ****     rv_csr_t d;                                 /*!< Type      used for csr data access */
 390:../Firmware/RISCV/drivers/core_feature_base.h **** } CSR_MPPICFGINFO_Type;
 391:../Firmware/RISCV/drivers/core_feature_base.h **** 
 392:../Firmware/RISCV/drivers/core_feature_base.h **** /**
 393:../Firmware/RISCV/drivers/core_feature_base.h ****  * \brief  Union type to access MFIOCFG_INFO CSR register.
 394:../Firmware/RISCV/drivers/core_feature_base.h ****  */
 395:../Firmware/RISCV/drivers/core_feature_base.h **** typedef union {
 396:../Firmware/RISCV/drivers/core_feature_base.h ****     struct {
 397:../Firmware/RISCV/drivers/core_feature_base.h ****         rv_csr_t _reserved0:1;                  /*!< Reserved */
 398:../Firmware/RISCV/drivers/core_feature_base.h ****         rv_csr_t fio_size:5;                    /*!< FIO size, need to be 2^n size */
 399:../Firmware/RISCV/drivers/core_feature_base.h ****         rv_csr_t _reserved1:4;                  /*!< Reserved */
 400:../Firmware/RISCV/drivers/core_feature_base.h ****         rv_csr_t fio_bpa:__RISCV_XLEN-10;       /*!< FIO base address */
 401:../Firmware/RISCV/drivers/core_feature_base.h ****     } b;                                        /*!< Structure used for bit  access */
 402:../Firmware/RISCV/drivers/core_feature_base.h ****     rv_csr_t d;                                 /*!< Type      used for csr data access */
 403:../Firmware/RISCV/drivers/core_feature_base.h **** } CSR_MFIOCFGINFO_Type;
 404:../Firmware/RISCV/drivers/core_feature_base.h **** 
 405:../Firmware/RISCV/drivers/core_feature_base.h **** /**
 406:../Firmware/RISCV/drivers/core_feature_base.h ****  * \brief  Union type to access MECC_LOCK CSR register.
 407:../Firmware/RISCV/drivers/core_feature_base.h ****  */
 408:../Firmware/RISCV/drivers/core_feature_base.h **** typedef union {
 409:../Firmware/RISCV/drivers/core_feature_base.h ****     struct {
 410:../Firmware/RISCV/drivers/core_feature_base.h ****         rv_csr_t ecc_lock:1;                    /*!< RW permission, ECC Lock configure */
 411:../Firmware/RISCV/drivers/core_feature_base.h ****         rv_csr_t _reserved0:__RISCV_XLEN-1;     /*!< Reserved */
 412:../Firmware/RISCV/drivers/core_feature_base.h ****     } b;                                        /*!< Structure used for bit  access */
 413:../Firmware/RISCV/drivers/core_feature_base.h ****     rv_csr_t d;                                 /*!< Type      used for csr data access */
 414:../Firmware/RISCV/drivers/core_feature_base.h **** } CSR_MECCLOCK_Type;
 415:../Firmware/RISCV/drivers/core_feature_base.h **** 
 416:../Firmware/RISCV/drivers/core_feature_base.h **** /**
 417:../Firmware/RISCV/drivers/core_feature_base.h ****  * \brief  Union type to access MECC_CODE CSR register.
 418:../Firmware/RISCV/drivers/core_feature_base.h ****  */
 419:../Firmware/RISCV/drivers/core_feature_base.h **** typedef union {
 420:../Firmware/RISCV/drivers/core_feature_base.h ****     struct {
 421:../Firmware/RISCV/drivers/core_feature_base.h ****         rv_csr_t code:9;                        /*!< Used to inject ECC check code */
 422:../Firmware/RISCV/drivers/core_feature_base.h ****         rv_csr_t _reserved0:7;                  /*!< Reserved */
 423:../Firmware/RISCV/drivers/core_feature_base.h ****         rv_csr_t ramid:5;                       /*!< Indicate 2bit ECC error, software can clear th
 424:../Firmware/RISCV/drivers/core_feature_base.h ****         rv_csr_t _reserved1:3;                  /*!< Reserved */
 425:../Firmware/RISCV/drivers/core_feature_base.h ****         rv_csr_t sramid:5;                      /*!< Indicate 1bit ECC error, software can clear th
 426:../Firmware/RISCV/drivers/core_feature_base.h ****         rv_csr_t _reserved2:__RISCV_XLEN-29;    /*!< Reserved */
 427:../Firmware/RISCV/drivers/core_feature_base.h ****     } b;                                        /*!< Structure used for bit  access */
 428:../Firmware/RISCV/drivers/core_feature_base.h ****     rv_csr_t d;                                 /*!< Type      used for csr data access */
 429:../Firmware/RISCV/drivers/core_feature_base.h **** } CSR_MECCCODE_Type;
 430:../Firmware/RISCV/drivers/core_feature_base.h **** 
 431:../Firmware/RISCV/drivers/core_feature_base.h **** /** @} */ /* End of Doxygen Group NMSIS_Core_Base_Registers */
 432:../Firmware/RISCV/drivers/core_feature_base.h **** 
 433:../Firmware/RISCV/drivers/core_feature_base.h **** /* ###########################  Core Function Access  ########################### */
 434:../Firmware/RISCV/drivers/core_feature_base.h **** /**
 435:../Firmware/RISCV/drivers/core_feature_base.h ****  * \defgroup NMSIS_Core_CSR_Register_Access    Core CSR Register Access
 436:../Firmware/RISCV/drivers/core_feature_base.h ****  * \ingroup  NMSIS_Core
 437:../Firmware/RISCV/drivers/core_feature_base.h ****  * \brief    Functions to access the Core CSR Registers
 438:../Firmware/RISCV/drivers/core_feature_base.h ****  * \details
 439:../Firmware/RISCV/drivers/core_feature_base.h ****  *
 440:../Firmware/RISCV/drivers/core_feature_base.h ****  * The following functions or macros provide access to Core CSR registers.
 441:../Firmware/RISCV/drivers/core_feature_base.h ****  * - \ref NMSIS_Core_CSR_Encoding
 442:../Firmware/RISCV/drivers/core_feature_base.h ****  * - \ref NMSIS_Core_CSR_Registers
 443:../Firmware/RISCV/drivers/core_feature_base.h ****  *   @{
 444:../Firmware/RISCV/drivers/core_feature_base.h ****  */
 445:../Firmware/RISCV/drivers/core_feature_base.h **** 
 446:../Firmware/RISCV/drivers/core_feature_base.h **** 
 447:../Firmware/RISCV/drivers/core_feature_base.h **** #ifndef __ASSEMBLY__
 448:../Firmware/RISCV/drivers/core_feature_base.h **** 
 449:../Firmware/RISCV/drivers/core_feature_base.h **** /**
 450:../Firmware/RISCV/drivers/core_feature_base.h ****  * \brief CSR operation Macro for csrrw instruction.
 451:../Firmware/RISCV/drivers/core_feature_base.h ****  * \details
 452:../Firmware/RISCV/drivers/core_feature_base.h ****  * Read the content of csr register to __v,
 453:../Firmware/RISCV/drivers/core_feature_base.h ****  * then write content of val into csr register, then return __v
 454:../Firmware/RISCV/drivers/core_feature_base.h ****  * \param csr   CSR macro definition defined in
 455:../Firmware/RISCV/drivers/core_feature_base.h ****  *              \ref NMSIS_Core_CSR_Registers, eg. \ref CSR_MSTATUS
 456:../Firmware/RISCV/drivers/core_feature_base.h ****  * \param val   value to store into the CSR register
 457:../Firmware/RISCV/drivers/core_feature_base.h ****  * \return the CSR register value before written
 458:../Firmware/RISCV/drivers/core_feature_base.h ****  */
 459:../Firmware/RISCV/drivers/core_feature_base.h **** #define __RV_CSR_SWAP(csr, val)                                 \
 460:../Firmware/RISCV/drivers/core_feature_base.h ****     ({                                                          \
 461:../Firmware/RISCV/drivers/core_feature_base.h ****         register rv_csr_t __v = (unsigned long)(val);           \
 462:../Firmware/RISCV/drivers/core_feature_base.h ****         __ASM volatile("csrrw %0, " STRINGIFY(csr) ", %1"       \
 463:../Firmware/RISCV/drivers/core_feature_base.h ****                      : "=r"(__v)                                \
 464:../Firmware/RISCV/drivers/core_feature_base.h ****                      : "r"(__v)                                \
 465:../Firmware/RISCV/drivers/core_feature_base.h ****                      : "memory");                               \
 466:../Firmware/RISCV/drivers/core_feature_base.h ****         __v;                                                    \
 467:../Firmware/RISCV/drivers/core_feature_base.h ****     })
 468:../Firmware/RISCV/drivers/core_feature_base.h **** 
 469:../Firmware/RISCV/drivers/core_feature_base.h **** /**
 470:../Firmware/RISCV/drivers/core_feature_base.h ****  * \brief CSR operation Macro for csrr instruction.
 471:../Firmware/RISCV/drivers/core_feature_base.h ****  * \details
 472:../Firmware/RISCV/drivers/core_feature_base.h ****  * Read the content of csr register to __v and return it
 473:../Firmware/RISCV/drivers/core_feature_base.h ****  * \param csr   CSR macro definition defined in
 474:../Firmware/RISCV/drivers/core_feature_base.h ****  *              \ref NMSIS_Core_CSR_Registers, eg. \ref CSR_MSTATUS
 475:../Firmware/RISCV/drivers/core_feature_base.h ****  * \return the CSR register value
 476:../Firmware/RISCV/drivers/core_feature_base.h ****  */
 477:../Firmware/RISCV/drivers/core_feature_base.h **** #define __RV_CSR_READ(csr)                                      \
 478:../Firmware/RISCV/drivers/core_feature_base.h ****     ({                                                          \
 479:../Firmware/RISCV/drivers/core_feature_base.h ****         register rv_csr_t __v;                                  \
 480:../Firmware/RISCV/drivers/core_feature_base.h ****         __ASM volatile("csrr %0, " STRINGIFY(csr)               \
 481:../Firmware/RISCV/drivers/core_feature_base.h ****                      : "=r"(__v)                                \
 482:../Firmware/RISCV/drivers/core_feature_base.h ****                      :                                          \
 483:../Firmware/RISCV/drivers/core_feature_base.h ****                      : "memory");                               \
 484:../Firmware/RISCV/drivers/core_feature_base.h ****         __v;                                                    \
 485:../Firmware/RISCV/drivers/core_feature_base.h ****     })
 486:../Firmware/RISCV/drivers/core_feature_base.h **** 
 487:../Firmware/RISCV/drivers/core_feature_base.h **** /**
 488:../Firmware/RISCV/drivers/core_feature_base.h ****  * \brief CSR operation Macro for csrw instruction.
 489:../Firmware/RISCV/drivers/core_feature_base.h ****  * \details
 490:../Firmware/RISCV/drivers/core_feature_base.h ****  * Write the content of val to csr register
 491:../Firmware/RISCV/drivers/core_feature_base.h ****  * \param csr   CSR macro definition defined in
 492:../Firmware/RISCV/drivers/core_feature_base.h ****  *              \ref NMSIS_Core_CSR_Registers, eg. \ref CSR_MSTATUS
 493:../Firmware/RISCV/drivers/core_feature_base.h ****  * \param val   value to store into the CSR register
 494:../Firmware/RISCV/drivers/core_feature_base.h ****  */
 495:../Firmware/RISCV/drivers/core_feature_base.h **** #define __RV_CSR_WRITE(csr, val)                                \
 496:../Firmware/RISCV/drivers/core_feature_base.h ****     ({                                                          \
 497:../Firmware/RISCV/drivers/core_feature_base.h ****         register rv_csr_t __v = (rv_csr_t)(val);                \
 498:../Firmware/RISCV/drivers/core_feature_base.h ****         __ASM volatile("csrw " STRINGIFY(csr) ", %0"            \
 499:../Firmware/RISCV/drivers/core_feature_base.h ****                      :                                          \
 500:../Firmware/RISCV/drivers/core_feature_base.h ****                      : "r"(__v)                                \
 501:../Firmware/RISCV/drivers/core_feature_base.h ****                      : "memory");                               \
 502:../Firmware/RISCV/drivers/core_feature_base.h ****     })
 503:../Firmware/RISCV/drivers/core_feature_base.h **** 
 504:../Firmware/RISCV/drivers/core_feature_base.h **** /**
 505:../Firmware/RISCV/drivers/core_feature_base.h ****  * \brief CSR operation Macro for csrrs instruction.
 506:../Firmware/RISCV/drivers/core_feature_base.h ****  * \details
 507:../Firmware/RISCV/drivers/core_feature_base.h ****  * Read the content of csr register to __v,
 508:../Firmware/RISCV/drivers/core_feature_base.h ****  * then set csr register to be __v | val, then return __v
 509:../Firmware/RISCV/drivers/core_feature_base.h ****  * \param csr   CSR macro definition defined in
 510:../Firmware/RISCV/drivers/core_feature_base.h ****  *              \ref NMSIS_Core_CSR_Registers, eg. \ref CSR_MSTATUS
 511:../Firmware/RISCV/drivers/core_feature_base.h ****  * \param val   Mask value to be used wih csrrs instruction
 512:../Firmware/RISCV/drivers/core_feature_base.h ****  * \return the CSR register value before written
 513:../Firmware/RISCV/drivers/core_feature_base.h ****  */
 514:../Firmware/RISCV/drivers/core_feature_base.h **** #define __RV_CSR_READ_SET(csr, val)                             \
 515:../Firmware/RISCV/drivers/core_feature_base.h ****     ({                                                          \
 516:../Firmware/RISCV/drivers/core_feature_base.h ****         register rv_csr_t __v = (rv_csr_t)(val);                \
 517:../Firmware/RISCV/drivers/core_feature_base.h ****         __ASM volatile("csrrs %0, " STRINGIFY(csr) ", %1"       \
 518:../Firmware/RISCV/drivers/core_feature_base.h ****                      : "=r"(__v)                                \
 519:../Firmware/RISCV/drivers/core_feature_base.h ****                      : "r"(__v)                                \
 520:../Firmware/RISCV/drivers/core_feature_base.h ****                      : "memory");                               \
 521:../Firmware/RISCV/drivers/core_feature_base.h ****         __v;                                                    \
 522:../Firmware/RISCV/drivers/core_feature_base.h ****     })
 523:../Firmware/RISCV/drivers/core_feature_base.h **** 
 524:../Firmware/RISCV/drivers/core_feature_base.h **** /**
 525:../Firmware/RISCV/drivers/core_feature_base.h ****  * \brief CSR operation Macro for csrs instruction.
 526:../Firmware/RISCV/drivers/core_feature_base.h ****  * \details
 527:../Firmware/RISCV/drivers/core_feature_base.h ****  * Set csr register to be csr_content | val
 528:../Firmware/RISCV/drivers/core_feature_base.h ****  * \param csr   CSR macro definition defined in
 529:../Firmware/RISCV/drivers/core_feature_base.h ****  *              \ref NMSIS_Core_CSR_Registers, eg. \ref CSR_MSTATUS
 530:../Firmware/RISCV/drivers/core_feature_base.h ****  * \param val   Mask value to be used wih csrs instruction
 531:../Firmware/RISCV/drivers/core_feature_base.h ****  */
 532:../Firmware/RISCV/drivers/core_feature_base.h **** #define __RV_CSR_SET(csr, val)                                  \
 533:../Firmware/RISCV/drivers/core_feature_base.h ****     ({                                                          \
 534:../Firmware/RISCV/drivers/core_feature_base.h ****         register rv_csr_t __v = (rv_csr_t)(val);                \
 535:../Firmware/RISCV/drivers/core_feature_base.h ****         __ASM volatile("csrs " STRINGIFY(csr) ", %0"            \
 536:../Firmware/RISCV/drivers/core_feature_base.h ****                      :                                          \
 537:../Firmware/RISCV/drivers/core_feature_base.h ****                      : "r"(__v)                                \
 538:../Firmware/RISCV/drivers/core_feature_base.h ****                      : "memory");                               \
 539:../Firmware/RISCV/drivers/core_feature_base.h ****     })
 540:../Firmware/RISCV/drivers/core_feature_base.h **** 
 541:../Firmware/RISCV/drivers/core_feature_base.h **** /**
 542:../Firmware/RISCV/drivers/core_feature_base.h ****  * \brief CSR operation Macro for csrrc instruction.
 543:../Firmware/RISCV/drivers/core_feature_base.h ****  * \details
 544:../Firmware/RISCV/drivers/core_feature_base.h ****  * Read the content of csr register to __v,
 545:../Firmware/RISCV/drivers/core_feature_base.h ****  * then set csr register to be __v & ~val, then return __v
 546:../Firmware/RISCV/drivers/core_feature_base.h ****  * \param csr   CSR macro definition defined in
 547:../Firmware/RISCV/drivers/core_feature_base.h ****  *              \ref NMSIS_Core_CSR_Registers, eg. \ref CSR_MSTATUS
 548:../Firmware/RISCV/drivers/core_feature_base.h ****  * \param val   Mask value to be used wih csrrc instruction
 549:../Firmware/RISCV/drivers/core_feature_base.h ****  * \return the CSR register value before written
 550:../Firmware/RISCV/drivers/core_feature_base.h ****  */
 551:../Firmware/RISCV/drivers/core_feature_base.h **** #define __RV_CSR_READ_CLEAR(csr, val)                           \
 552:../Firmware/RISCV/drivers/core_feature_base.h ****     ({                                                          \
 553:../Firmware/RISCV/drivers/core_feature_base.h ****         register rv_csr_t __v = (rv_csr_t)(val);                \
 554:../Firmware/RISCV/drivers/core_feature_base.h ****         __ASM volatile("csrrc %0, " STRINGIFY(csr) ", %1"       \
 555:../Firmware/RISCV/drivers/core_feature_base.h ****                      : "=r"(__v)                                \
 556:../Firmware/RISCV/drivers/core_feature_base.h ****                      : "r"(__v)                                \
 557:../Firmware/RISCV/drivers/core_feature_base.h ****                      : "memory");                               \
 558:../Firmware/RISCV/drivers/core_feature_base.h ****         __v;                                                    \
 559:../Firmware/RISCV/drivers/core_feature_base.h ****     })
 560:../Firmware/RISCV/drivers/core_feature_base.h **** 
 561:../Firmware/RISCV/drivers/core_feature_base.h **** /**
 562:../Firmware/RISCV/drivers/core_feature_base.h ****  * \brief CSR operation Macro for csrc instruction.
 563:../Firmware/RISCV/drivers/core_feature_base.h ****  * \details
 564:../Firmware/RISCV/drivers/core_feature_base.h ****  * Set csr register to be csr_content & ~val
 565:../Firmware/RISCV/drivers/core_feature_base.h ****  * \param csr   CSR macro definition defined in
 566:../Firmware/RISCV/drivers/core_feature_base.h ****  *              \ref NMSIS_Core_CSR_Registers, eg. \ref CSR_MSTATUS
 567:../Firmware/RISCV/drivers/core_feature_base.h ****  * \param val   Mask value to be used wih csrc instruction
 568:../Firmware/RISCV/drivers/core_feature_base.h ****  */
 569:../Firmware/RISCV/drivers/core_feature_base.h **** #define __RV_CSR_CLEAR(csr, val)                                \
 570:../Firmware/RISCV/drivers/core_feature_base.h ****     ({                                                          \
 571:../Firmware/RISCV/drivers/core_feature_base.h ****         register rv_csr_t __v = (rv_csr_t)(val);                \
 572:../Firmware/RISCV/drivers/core_feature_base.h ****         __ASM volatile("csrc " STRINGIFY(csr) ", %0"            \
 573:../Firmware/RISCV/drivers/core_feature_base.h ****                      :                                          \
 574:../Firmware/RISCV/drivers/core_feature_base.h ****                      : "r"(__v)                                \
 575:../Firmware/RISCV/drivers/core_feature_base.h ****                      : "memory");                               \
 576:../Firmware/RISCV/drivers/core_feature_base.h ****     })
 577:../Firmware/RISCV/drivers/core_feature_base.h **** #endif /* __ASSEMBLY__ */
 578:../Firmware/RISCV/drivers/core_feature_base.h **** 
 579:../Firmware/RISCV/drivers/core_feature_base.h **** /**
 580:../Firmware/RISCV/drivers/core_feature_base.h ****  * \brief   Enable IRQ Interrupts
 581:../Firmware/RISCV/drivers/core_feature_base.h ****  * \details Enables IRQ interrupts by setting the MIE-bit in the MSTATUS Register.
 582:../Firmware/RISCV/drivers/core_feature_base.h ****  * \remarks
 583:../Firmware/RISCV/drivers/core_feature_base.h ****  *          Can only be executed in Privileged modes.
 584:../Firmware/RISCV/drivers/core_feature_base.h ****  */
 585:../Firmware/RISCV/drivers/core_feature_base.h **** __STATIC_FORCEINLINE void __enable_irq(void)
 586:../Firmware/RISCV/drivers/core_feature_base.h **** {
 587:../Firmware/RISCV/drivers/core_feature_base.h ****     __RV_CSR_SET(CSR_MSTATUS, MSTATUS_MIE);
  30              		.loc 2 587 5
  31 0008 A144     		li	s1,8
  32              	 #APP
  33              	# 587 "../Firmware/RISCV/drivers/core_feature_base.h" 1
 588              	}
  34              		csrs 0x300, s1
  35              	# 0 "" 2
  36              	 #NO_APP
  37              	.LBE50:
  38              		.loc 2 588 1
  39 000e 0100     		nop
  40              	.LBE49:
  41              	.LBE48:
  46:../Firmware/GD32VW55x_standard_peripheral/Source/gd32vw55x_eclic.c ****     __enable_irq();
  47:../Firmware/GD32VW55x_standard_peripheral/Source/gd32vw55x_eclic.c **** }
  42              		.loc 1 47 1
  43 0010 0100     		nop
  44 0012 3244     		lw	s0,12(sp)
  45              		.cfi_restore 8
  46              		.cfi_def_cfa 2, 16
  47 0014 A244     		lw	s1,8(sp)
  48              		.cfi_restore 9
  49 0016 4101     		addi	sp,sp,16
  50              		.cfi_def_cfa_offset 0
  51 0018 8280     		jr	ra
  52              		.cfi_endproc
  53              	.LFE347:
  55              		.section	.text.eclic_global_interrupt_disable,"ax",@progbits
  56              		.align	1
  57              		.globl	eclic_global_interrupt_disable
  59              	eclic_global_interrupt_disable:
  60              	.LFB348:
  48:../Firmware/GD32VW55x_standard_peripheral/Source/gd32vw55x_eclic.c **** 
  49:../Firmware/GD32VW55x_standard_peripheral/Source/gd32vw55x_eclic.c **** /*!
  50:../Firmware/GD32VW55x_standard_peripheral/Source/gd32vw55x_eclic.c ****     \brief      disable the global interrupt
  51:../Firmware/GD32VW55x_standard_peripheral/Source/gd32vw55x_eclic.c ****     \param[in]  none
  52:../Firmware/GD32VW55x_standard_peripheral/Source/gd32vw55x_eclic.c ****     \param[out] none
  53:../Firmware/GD32VW55x_standard_peripheral/Source/gd32vw55x_eclic.c ****     \retval     none
  54:../Firmware/GD32VW55x_standard_peripheral/Source/gd32vw55x_eclic.c **** */
  55:../Firmware/GD32VW55x_standard_peripheral/Source/gd32vw55x_eclic.c **** void eclic_global_interrupt_disable(void)
  56:../Firmware/GD32VW55x_standard_peripheral/Source/gd32vw55x_eclic.c **** {
  61              		.loc 1 56 1
  62              		.cfi_startproc
  63 0000 4111     		addi	sp,sp,-16
  64              		.cfi_def_cfa_offset 16
  65 0002 22C6     		sw	s0,12(sp)
  66 0004 26C4     		sw	s1,8(sp)
  67              		.cfi_offset 8, -4
  68              		.cfi_offset 9, -8
  69 0006 0008     		addi	s0,sp,16
  70              		.cfi_def_cfa 8, 0
  71              	.LBB51:
  72              	.LBB52:
  73              	.LBB53:
 589:../Firmware/RISCV/drivers/core_feature_base.h **** 
 590:../Firmware/RISCV/drivers/core_feature_base.h **** /**
 591:../Firmware/RISCV/drivers/core_feature_base.h ****  * \brief   Disable IRQ Interrupts
 592:../Firmware/RISCV/drivers/core_feature_base.h ****  * \details Disables IRQ interrupts by clearing the MIE-bit in the MSTATUS Register.
 593:../Firmware/RISCV/drivers/core_feature_base.h ****  * \remarks
 594:../Firmware/RISCV/drivers/core_feature_base.h ****  *          Can only be executed in Privileged modes.
 595:../Firmware/RISCV/drivers/core_feature_base.h ****  */
 596:../Firmware/RISCV/drivers/core_feature_base.h **** __STATIC_FORCEINLINE void __disable_irq(void)
 597:../Firmware/RISCV/drivers/core_feature_base.h **** {
 598:../Firmware/RISCV/drivers/core_feature_base.h ****     __RV_CSR_CLEAR(CSR_MSTATUS, MSTATUS_MIE);
  74              		.loc 2 598 5
  75 0008 A144     		li	s1,8
  76              	 #APP
  77              	# 598 "../Firmware/RISCV/drivers/core_feature_base.h" 1
 599              	}
  78              		csrc 0x300, s1
  79              	# 0 "" 2
  80              	 #NO_APP
  81              	.LBE53:
  82              		.loc 2 599 1
  83 000e 0100     		nop
  84              	.LBE52:
  85              	.LBE51:
  57:../Firmware/GD32VW55x_standard_peripheral/Source/gd32vw55x_eclic.c ****     __disable_irq();
  58:../Firmware/GD32VW55x_standard_peripheral/Source/gd32vw55x_eclic.c **** }
  86              		.loc 1 58 1
  87 0010 0100     		nop
  88 0012 3244     		lw	s0,12(sp)
  89              		.cfi_restore 8
  90              		.cfi_def_cfa 2, 16
  91 0014 A244     		lw	s1,8(sp)
  92              		.cfi_restore 9
  93 0016 4101     		addi	sp,sp,16
  94              		.cfi_def_cfa_offset 0
  95 0018 8280     		jr	ra
  96              		.cfi_endproc
  97              	.LFE348:
  99              		.section	.text.eclic_level_threshold_set,"ax",@progbits
 100              		.align	1
 101              		.globl	eclic_level_threshold_set
 103              	eclic_level_threshold_set:
 104              	.LFB349:
  59:../Firmware/GD32VW55x_standard_peripheral/Source/gd32vw55x_eclic.c **** 
  60:../Firmware/GD32VW55x_standard_peripheral/Source/gd32vw55x_eclic.c **** /*!
  61:../Firmware/GD32VW55x_standard_peripheral/Source/gd32vw55x_eclic.c ****     \brief      set machine mode interrupt level threshold
  62:../Firmware/GD32VW55x_standard_peripheral/Source/gd32vw55x_eclic.c ****     \param[in]  threshold: the level threshold needed to set (0 ~ 15)
  63:../Firmware/GD32VW55x_standard_peripheral/Source/gd32vw55x_eclic.c ****     \param[out] none
  64:../Firmware/GD32VW55x_standard_peripheral/Source/gd32vw55x_eclic.c ****     \retval     none
  65:../Firmware/GD32VW55x_standard_peripheral/Source/gd32vw55x_eclic.c **** */
  66:../Firmware/GD32VW55x_standard_peripheral/Source/gd32vw55x_eclic.c **** void eclic_level_threshold_set(uint8_t threshold)
  67:../Firmware/GD32VW55x_standard_peripheral/Source/gd32vw55x_eclic.c **** {
 105              		.loc 1 67 1
 106              		.cfi_startproc
 107 0000 7971     		addi	sp,sp,-48
 108              		.cfi_def_cfa_offset 48
 109 0002 22D6     		sw	s0,44(sp)
 110              		.cfi_offset 8, -4
 111 0004 0018     		addi	s0,sp,48
 112              		.cfi_def_cfa 8, 0
 113 0006 AA87     		mv	a5,a0
 114 0008 A30FF4FC 		sb	a5,-33(s0)
 115 000c 8347F4FD 		lbu	a5,-33(s0)
 116 0010 A307F4FE 		sb	a5,-17(s0)
 117              	.LBB54:
 118              	.LBB55:
 119              		.file 3 "../Firmware/RISCV/drivers/core_feature_eclic.h"
   1:../Firmware/RISCV/drivers/core_feature_eclic.h **** /*
   2:../Firmware/RISCV/drivers/core_feature_eclic.h ****  * Copyright (c) 2019 Nuclei Limited. All rights reserved.
   3:../Firmware/RISCV/drivers/core_feature_eclic.h ****  *
   4:../Firmware/RISCV/drivers/core_feature_eclic.h ****  * SPDX-License-Identifier: Apache-2.0
   5:../Firmware/RISCV/drivers/core_feature_eclic.h ****  *
   6:../Firmware/RISCV/drivers/core_feature_eclic.h ****  * Licensed under the Apache License, Version 2.0 (the License); you may
   7:../Firmware/RISCV/drivers/core_feature_eclic.h ****  * not use this file except in compliance with the License.
   8:../Firmware/RISCV/drivers/core_feature_eclic.h ****  * You may obtain a copy of the License at
   9:../Firmware/RISCV/drivers/core_feature_eclic.h ****  *
  10:../Firmware/RISCV/drivers/core_feature_eclic.h ****  * www.apache.org/licenses/LICENSE-2.0
  11:../Firmware/RISCV/drivers/core_feature_eclic.h ****  *
  12:../Firmware/RISCV/drivers/core_feature_eclic.h ****  * Unless required by applicable law or agreed to in writing, software
  13:../Firmware/RISCV/drivers/core_feature_eclic.h ****  * distributed under the License is distributed on an AS IS BASIS, WITHOUT
  14:../Firmware/RISCV/drivers/core_feature_eclic.h ****  * WARRANTIES OR CONDITIONS OF ANY KIND, either express or implied.
  15:../Firmware/RISCV/drivers/core_feature_eclic.h ****  * See the License for the specific language governing permissions and
  16:../Firmware/RISCV/drivers/core_feature_eclic.h ****  * limitations under the License.
  17:../Firmware/RISCV/drivers/core_feature_eclic.h ****  */
  18:../Firmware/RISCV/drivers/core_feature_eclic.h **** #ifndef __CORE_FEATURE_ECLIC__
  19:../Firmware/RISCV/drivers/core_feature_eclic.h **** #define __CORE_FEATURE_ECLIC__
  20:../Firmware/RISCV/drivers/core_feature_eclic.h **** /*!
  21:../Firmware/RISCV/drivers/core_feature_eclic.h ****  * @file     core_feature_eclic.h
  22:../Firmware/RISCV/drivers/core_feature_eclic.h ****  * @brief    ECLIC feature API header file for Nuclei N/NX Core
  23:../Firmware/RISCV/drivers/core_feature_eclic.h ****  */
  24:../Firmware/RISCV/drivers/core_feature_eclic.h **** /*
  25:../Firmware/RISCV/drivers/core_feature_eclic.h ****  * ECLIC Feature Configuration Macro:
  26:../Firmware/RISCV/drivers/core_feature_eclic.h ****  * 1. __ECLIC_PRESENT:  Define whether Enhanced Core Local Interrupt Controller (ECLIC) Unit is pre
  27:../Firmware/RISCV/drivers/core_feature_eclic.h ****  *   * 0: Not present
  28:../Firmware/RISCV/drivers/core_feature_eclic.h ****  *   * 1: Present
  29:../Firmware/RISCV/drivers/core_feature_eclic.h ****  * 2. __ECLIC_BASEADDR:  Base address of the ECLIC unit.
  30:../Firmware/RISCV/drivers/core_feature_eclic.h ****  * 3. ECLIC_GetInfoCtlbits():  Define the number of hardware bits are actually implemented in the c
  31:../Firmware/RISCV/drivers/core_feature_eclic.h ****  *   Valid number is 1 - 8.
  32:../Firmware/RISCV/drivers/core_feature_eclic.h ****  * 4. __ECLIC_INTNUM  : Define the external interrupt number of ECLIC Unit
  33:../Firmware/RISCV/drivers/core_feature_eclic.h ****  *
  34:../Firmware/RISCV/drivers/core_feature_eclic.h ****  */
  35:../Firmware/RISCV/drivers/core_feature_eclic.h **** #ifdef __cplusplus
  36:../Firmware/RISCV/drivers/core_feature_eclic.h ****  extern "C" {
  37:../Firmware/RISCV/drivers/core_feature_eclic.h **** #endif
  38:../Firmware/RISCV/drivers/core_feature_eclic.h **** 
  39:../Firmware/RISCV/drivers/core_feature_eclic.h **** #if defined(__ECLIC_PRESENT) && (__ECLIC_PRESENT == 1)
  40:../Firmware/RISCV/drivers/core_feature_eclic.h **** /**
  41:../Firmware/RISCV/drivers/core_feature_eclic.h ****  * \defgroup NMSIS_Core_ECLIC_Registers     Register Define and Type Definitions Of ECLIC
  42:../Firmware/RISCV/drivers/core_feature_eclic.h ****  * \ingroup NMSIS_Core_Registers
  43:../Firmware/RISCV/drivers/core_feature_eclic.h ****  * \brief   Type definitions and defines for eclic registers.
  44:../Firmware/RISCV/drivers/core_feature_eclic.h ****  *
  45:../Firmware/RISCV/drivers/core_feature_eclic.h ****  * @{
  46:../Firmware/RISCV/drivers/core_feature_eclic.h ****  */
  47:../Firmware/RISCV/drivers/core_feature_eclic.h **** 
  48:../Firmware/RISCV/drivers/core_feature_eclic.h **** /**
  49:../Firmware/RISCV/drivers/core_feature_eclic.h ****  * \brief  Union type to access CLICFG configure register.
  50:../Firmware/RISCV/drivers/core_feature_eclic.h ****  */
  51:../Firmware/RISCV/drivers/core_feature_eclic.h **** typedef union
  52:../Firmware/RISCV/drivers/core_feature_eclic.h **** {
  53:../Firmware/RISCV/drivers/core_feature_eclic.h ****     struct {
  54:../Firmware/RISCV/drivers/core_feature_eclic.h ****         uint8_t _reserved0:1;                   /*!< bit:     0   Overflow condition code flag */
  55:../Firmware/RISCV/drivers/core_feature_eclic.h ****         uint8_t nlbits:4;                       /*!< bit:     29  Carry condition code flag */
  56:../Firmware/RISCV/drivers/core_feature_eclic.h ****         uint8_t _reserved1:2;                   /*!< bit:     30  Zero condition code flag */
  57:../Firmware/RISCV/drivers/core_feature_eclic.h ****         uint8_t _reserved2:1;                   /*!< bit:     31  Negative condition code flag */
  58:../Firmware/RISCV/drivers/core_feature_eclic.h ****     } b;                                        /*!< Structure used for bit  access */
  59:../Firmware/RISCV/drivers/core_feature_eclic.h ****     uint8_t w;                                  /*!< Type      used for byte access */
  60:../Firmware/RISCV/drivers/core_feature_eclic.h **** } CLICCFG_Type;
  61:../Firmware/RISCV/drivers/core_feature_eclic.h **** 
  62:../Firmware/RISCV/drivers/core_feature_eclic.h **** /**
  63:../Firmware/RISCV/drivers/core_feature_eclic.h ****  * \brief  Union type to access CLICINFO information register.
  64:../Firmware/RISCV/drivers/core_feature_eclic.h ****  */
  65:../Firmware/RISCV/drivers/core_feature_eclic.h **** typedef union {
  66:../Firmware/RISCV/drivers/core_feature_eclic.h ****     struct {
  67:../Firmware/RISCV/drivers/core_feature_eclic.h ****         uint32_t numint:13;                     /*!< bit:  0..12   number of maximum interrupt inpu
  68:../Firmware/RISCV/drivers/core_feature_eclic.h ****         uint32_t version:8;                     /*!< bit:  13..20  20:17 for architecture version,1
  69:../Firmware/RISCV/drivers/core_feature_eclic.h ****         uint32_t intctlbits:4;                  /*!< bit:  21..24  specifies how many hardware bits
  70:../Firmware/RISCV/drivers/core_feature_eclic.h ****         uint32_t _reserved0:7;                  /*!< bit:  25..31  Reserved */
  71:../Firmware/RISCV/drivers/core_feature_eclic.h ****     } b;                                        /*!< Structure used for bit  access */
  72:../Firmware/RISCV/drivers/core_feature_eclic.h ****     uint32_t w;                                 /*!< Type      used for word access */
  73:../Firmware/RISCV/drivers/core_feature_eclic.h **** } CLICINFO_Type;
  74:../Firmware/RISCV/drivers/core_feature_eclic.h **** 
  75:../Firmware/RISCV/drivers/core_feature_eclic.h **** /**
  76:../Firmware/RISCV/drivers/core_feature_eclic.h ****  * \brief Access to the structure of a vector interrupt controller.
  77:../Firmware/RISCV/drivers/core_feature_eclic.h ****  */
  78:../Firmware/RISCV/drivers/core_feature_eclic.h **** typedef struct {
  79:../Firmware/RISCV/drivers/core_feature_eclic.h ****     __IOM uint8_t  INTIP;                       /*!< Offset: 0x000 (R/W)  Interrupt set pending reg
  80:../Firmware/RISCV/drivers/core_feature_eclic.h ****     __IOM uint8_t  INTIE;                       /*!< Offset: 0x001 (R/W)  Interrupt set enable regi
  81:../Firmware/RISCV/drivers/core_feature_eclic.h ****     __IOM uint8_t  INTATTR;                     /*!< Offset: 0x002 (R/W)  Interrupt set attributes 
  82:../Firmware/RISCV/drivers/core_feature_eclic.h ****     __IOM uint8_t  INTCTRL;                     /*!< Offset: 0x003 (R/W)  Interrupt configure regis
  83:../Firmware/RISCV/drivers/core_feature_eclic.h **** } CLIC_CTRL_Type;
  84:../Firmware/RISCV/drivers/core_feature_eclic.h **** 
  85:../Firmware/RISCV/drivers/core_feature_eclic.h **** typedef struct {
  86:../Firmware/RISCV/drivers/core_feature_eclic.h ****     __IOM uint8_t   CFG;                        /*!< Offset: 0x000 (R/W)  CLIC configuration regist
  87:../Firmware/RISCV/drivers/core_feature_eclic.h ****     uint8_t RESERVED0[3];
  88:../Firmware/RISCV/drivers/core_feature_eclic.h ****     __IM uint32_t  INFO;                        /*!< Offset: 0x004 (R/ )  CLIC information register
  89:../Firmware/RISCV/drivers/core_feature_eclic.h ****     uint8_t RESERVED1[3];
  90:../Firmware/RISCV/drivers/core_feature_eclic.h ****     __IOM uint8_t  MTH;                         /*!< Offset: 0x00B (R/W)  CLIC machine mode thresho
  91:../Firmware/RISCV/drivers/core_feature_eclic.h ****     uint32_t RESERVED2[0x3FD];
  92:../Firmware/RISCV/drivers/core_feature_eclic.h ****     CLIC_CTRL_Type CTRL[4096];                  /*!< Offset: 0x1000 (R/W) CLIC register structure f
  93:../Firmware/RISCV/drivers/core_feature_eclic.h **** } CLIC_Type;
  94:../Firmware/RISCV/drivers/core_feature_eclic.h **** 
  95:../Firmware/RISCV/drivers/core_feature_eclic.h **** #define CLIC_CLICCFG_NLBIT_Pos                 1U                                       /*!< CLIC C
  96:../Firmware/RISCV/drivers/core_feature_eclic.h **** #define CLIC_CLICCFG_NLBIT_Msk                 (0xFUL << CLIC_CLICCFG_NLBIT_Pos)        /*!< CLIC C
  97:../Firmware/RISCV/drivers/core_feature_eclic.h **** 
  98:../Firmware/RISCV/drivers/core_feature_eclic.h **** #define CLIC_CLICINFO_CTLBIT_Pos                21U                                     /*!< CLIC I
  99:../Firmware/RISCV/drivers/core_feature_eclic.h **** #define CLIC_CLICINFO_CTLBIT_Msk                (0xFUL << CLIC_CLICINFO_CTLBIT_Pos)     /*!< CLIC I
 100:../Firmware/RISCV/drivers/core_feature_eclic.h **** 
 101:../Firmware/RISCV/drivers/core_feature_eclic.h **** #define CLIC_CLICINFO_VER_Pos                  13U                                      /*!< CLIC C
 102:../Firmware/RISCV/drivers/core_feature_eclic.h **** #define CLIC_CLICINFO_VER_Msk                  (0xFFUL << CLIC_CLICCFG_NLBIT_Pos)       /*!< CLIC C
 103:../Firmware/RISCV/drivers/core_feature_eclic.h **** 
 104:../Firmware/RISCV/drivers/core_feature_eclic.h **** #define CLIC_CLICINFO_NUM_Pos                  0U                                       /*!< CLIC C
 105:../Firmware/RISCV/drivers/core_feature_eclic.h **** #define CLIC_CLICINFO_NUM_Msk                  (0xFFFUL << CLIC_CLICINFO_NUM_Pos)       /*!< CLIC C
 106:../Firmware/RISCV/drivers/core_feature_eclic.h **** 
 107:../Firmware/RISCV/drivers/core_feature_eclic.h **** #define CLIC_INTIP_IP_Pos                      0U                                       /*!< CLIC I
 108:../Firmware/RISCV/drivers/core_feature_eclic.h **** #define CLIC_INTIP_IP_Msk                      (0x1UL << CLIC_INTIP_IP_Pos)             /*!< CLIC I
 109:../Firmware/RISCV/drivers/core_feature_eclic.h **** 
 110:../Firmware/RISCV/drivers/core_feature_eclic.h **** #define CLIC_INTIE_IE_Pos                      0U                                       /*!< CLIC I
 111:../Firmware/RISCV/drivers/core_feature_eclic.h **** #define CLIC_INTIE_IE_Msk                      (0x1UL << CLIC_INTIE_IE_Pos)             /*!< CLIC I
 112:../Firmware/RISCV/drivers/core_feature_eclic.h **** 
 113:../Firmware/RISCV/drivers/core_feature_eclic.h **** #define CLIC_INTATTR_TRIG_Pos                  1U                                       /*!< CLIC I
 114:../Firmware/RISCV/drivers/core_feature_eclic.h **** #define CLIC_INTATTR_TRIG_Msk                  (0x3UL << CLIC_INTATTR_TRIG_Pos)         /*!< CLIC I
 115:../Firmware/RISCV/drivers/core_feature_eclic.h **** 
 116:../Firmware/RISCV/drivers/core_feature_eclic.h **** #define CLIC_INTATTR_SHV_Pos                   0U                                       /*!< CLIC I
 117:../Firmware/RISCV/drivers/core_feature_eclic.h **** #define CLIC_INTATTR_SHV_Msk                   (0x1UL << CLIC_INTATTR_SHV_Pos)          /*!< CLIC I
 118:../Firmware/RISCV/drivers/core_feature_eclic.h **** 
 119:../Firmware/RISCV/drivers/core_feature_eclic.h **** #define ECLIC_MAX_NLBITS                       8U                                       /*!< Max nl
 120:../Firmware/RISCV/drivers/core_feature_eclic.h **** #define ECLIC_MODE_MTVEC_Msk                   3U                                       /*!< ECLIC 
 121:../Firmware/RISCV/drivers/core_feature_eclic.h **** 
 122:../Firmware/RISCV/drivers/core_feature_eclic.h **** #define ECLIC_NON_VECTOR_INTERRUPT             0x0                                      /*!< Non-Ve
 123:../Firmware/RISCV/drivers/core_feature_eclic.h **** #define ECLIC_VECTOR_INTERRUPT                 0x1                                      /*!< Vector
 124:../Firmware/RISCV/drivers/core_feature_eclic.h **** 
 125:../Firmware/RISCV/drivers/core_feature_eclic.h **** /**\brief ECLIC Trigger Enum for different Trigger Type */
 126:../Firmware/RISCV/drivers/core_feature_eclic.h **** typedef enum ECLIC_TRIGGER {
 127:../Firmware/RISCV/drivers/core_feature_eclic.h ****     ECLIC_LEVEL_TRIGGER = 0x0,          /*!< Level Triggerred, trig[0] = 0 */
 128:../Firmware/RISCV/drivers/core_feature_eclic.h ****     ECLIC_POSTIVE_EDGE_TRIGGER = 0x1,   /*!< Postive/Rising Edge Triggered, trig[0] = 1, trig[1] = 
 129:../Firmware/RISCV/drivers/core_feature_eclic.h ****     ECLIC_NEGTIVE_EDGE_TRIGGER = 0x3,   /*!< Negtive/Falling Edge Triggered, trig[0] = 1, trig[1] =
 130:../Firmware/RISCV/drivers/core_feature_eclic.h ****     ECLIC_MAX_TRIGGER = 0x3             /*!< MAX Supported Trigger Mode */
 131:../Firmware/RISCV/drivers/core_feature_eclic.h **** } ECLIC_TRIGGER_Type;
 132:../Firmware/RISCV/drivers/core_feature_eclic.h **** 
 133:../Firmware/RISCV/drivers/core_feature_eclic.h **** #ifndef __ECLIC_BASEADDR
 134:../Firmware/RISCV/drivers/core_feature_eclic.h **** /* Base address of ECLIC(__ECLIC_BASEADDR) should be defined in <Device.h> */
 135:../Firmware/RISCV/drivers/core_feature_eclic.h **** #error "__ECLIC_BASEADDR is not defined, please check!"
 136:../Firmware/RISCV/drivers/core_feature_eclic.h **** #endif
 137:../Firmware/RISCV/drivers/core_feature_eclic.h **** 
 138:../Firmware/RISCV/drivers/core_feature_eclic.h **** #ifndef __ECLIC_INTCTLBITS
 139:../Firmware/RISCV/drivers/core_feature_eclic.h **** /* Define __ECLIC_INTCTLBITS to get via ECLIC->INFO if not defined */
 140:../Firmware/RISCV/drivers/core_feature_eclic.h **** #define __ECLIC_INTCTLBITS                  (__ECLIC_GetInfoCtlbits())
 141:../Firmware/RISCV/drivers/core_feature_eclic.h **** #endif
 142:../Firmware/RISCV/drivers/core_feature_eclic.h **** 
 143:../Firmware/RISCV/drivers/core_feature_eclic.h **** /* ECLIC Memory mapping of Device */
 144:../Firmware/RISCV/drivers/core_feature_eclic.h **** #define ECLIC_BASE                          __ECLIC_BASEADDR                            /*!< ECLIC 
 145:../Firmware/RISCV/drivers/core_feature_eclic.h **** #define ECLIC                               ((CLIC_Type *) ECLIC_BASE)                  /*!< CLIC c
 146:../Firmware/RISCV/drivers/core_feature_eclic.h **** 
 147:../Firmware/RISCV/drivers/core_feature_eclic.h **** /** @} */ /* end of group NMSIS_Core_ECLIC_Registers */
 148:../Firmware/RISCV/drivers/core_feature_eclic.h **** 
 149:../Firmware/RISCV/drivers/core_feature_eclic.h **** /* ##########################   ECLIC functions  #################################### */
 150:../Firmware/RISCV/drivers/core_feature_eclic.h **** /**
 151:../Firmware/RISCV/drivers/core_feature_eclic.h ****  * \defgroup   NMSIS_Core_IntExc        Interrupts and Exceptions
 152:../Firmware/RISCV/drivers/core_feature_eclic.h ****  * \brief Functions that manage interrupts and exceptions via the ECLIC.
 153:../Firmware/RISCV/drivers/core_feature_eclic.h ****  *
 154:../Firmware/RISCV/drivers/core_feature_eclic.h ****  * @{
 155:../Firmware/RISCV/drivers/core_feature_eclic.h ****  */
 156:../Firmware/RISCV/drivers/core_feature_eclic.h **** 
 157:../Firmware/RISCV/drivers/core_feature_eclic.h **** /**
 158:../Firmware/RISCV/drivers/core_feature_eclic.h ****  * \brief  Definition of IRQn numbers
 159:../Firmware/RISCV/drivers/core_feature_eclic.h ****  * \details
 160:../Firmware/RISCV/drivers/core_feature_eclic.h ****  * The core interrupt enumeration names for IRQn values are defined in the file <b><Device>.h</b>.
 161:../Firmware/RISCV/drivers/core_feature_eclic.h ****  * - Interrupt ID(IRQn) from 0 to 18 are reserved for core internal interrupts.
 162:../Firmware/RISCV/drivers/core_feature_eclic.h ****  * - Interrupt ID(IRQn) start from 19 represent device-specific external interrupts.
 163:../Firmware/RISCV/drivers/core_feature_eclic.h ****  * - The first device-specific interrupt has the IRQn value 19.
 164:../Firmware/RISCV/drivers/core_feature_eclic.h ****  *
 165:../Firmware/RISCV/drivers/core_feature_eclic.h ****  * The table below describes the core interrupt names and their availability in various Nuclei Core
 166:../Firmware/RISCV/drivers/core_feature_eclic.h ****  */
 167:../Firmware/RISCV/drivers/core_feature_eclic.h **** /* The following enum IRQn definition in this file
 168:../Firmware/RISCV/drivers/core_feature_eclic.h ****  * is only used for doxygen documentation generation,
 169:../Firmware/RISCV/drivers/core_feature_eclic.h ****  * The <Device>.h is the real file to define it by vendor
 170:../Firmware/RISCV/drivers/core_feature_eclic.h ****  */
 171:../Firmware/RISCV/drivers/core_feature_eclic.h **** #if defined(__ONLY_FOR_DOXYGEN_DOCUMENT_GENERATION__)
 172:../Firmware/RISCV/drivers/core_feature_eclic.h **** typedef enum IRQn {
 173:../Firmware/RISCV/drivers/core_feature_eclic.h ****     /* ========= Nuclei N/NX Core Specific Interrupt Numbers  =========== */
 174:../Firmware/RISCV/drivers/core_feature_eclic.h ****     /* Core Internal Interrupt IRQn definitions */
 175:../Firmware/RISCV/drivers/core_feature_eclic.h ****     Reserved0_IRQn            =   0,              /*!<  Internal reserved */
 176:../Firmware/RISCV/drivers/core_feature_eclic.h ****     Reserved1_IRQn            =   1,              /*!<  Internal reserved */
 177:../Firmware/RISCV/drivers/core_feature_eclic.h ****     Reserved2_IRQn            =   2,              /*!<  Internal reserved */
 178:../Firmware/RISCV/drivers/core_feature_eclic.h ****     SysTimerSW_IRQn           =   3,              /*!<  System Timer SW interrupt */
 179:../Firmware/RISCV/drivers/core_feature_eclic.h ****     Reserved3_IRQn            =   4,              /*!<  Internal reserved */
 180:../Firmware/RISCV/drivers/core_feature_eclic.h ****     Reserved4_IRQn            =   5,              /*!<  Internal reserved */
 181:../Firmware/RISCV/drivers/core_feature_eclic.h ****     Reserved5_IRQn            =   6,              /*!<  Internal reserved */
 182:../Firmware/RISCV/drivers/core_feature_eclic.h ****     SysTimer_IRQn             =   7,              /*!<  System Timer Interrupt */
 183:../Firmware/RISCV/drivers/core_feature_eclic.h ****     Reserved6_IRQn            =   8,              /*!<  Internal reserved */
 184:../Firmware/RISCV/drivers/core_feature_eclic.h ****     Reserved7_IRQn            =   9,              /*!<  Internal reserved */
 185:../Firmware/RISCV/drivers/core_feature_eclic.h ****     Reserved8_IRQn            =  10,              /*!<  Internal reserved */
 186:../Firmware/RISCV/drivers/core_feature_eclic.h ****     Reserved9_IRQn            =  11,              /*!<  Internal reserved */
 187:../Firmware/RISCV/drivers/core_feature_eclic.h ****     Reserved10_IRQn           =  12,              /*!<  Internal reserved */
 188:../Firmware/RISCV/drivers/core_feature_eclic.h ****     Reserved11_IRQn           =  13,              /*!<  Internal reserved */
 189:../Firmware/RISCV/drivers/core_feature_eclic.h ****     Reserved12_IRQn           =  14,              /*!<  Internal reserved */
 190:../Firmware/RISCV/drivers/core_feature_eclic.h ****     Reserved13_IRQn           =  15,              /*!<  Internal reserved */
 191:../Firmware/RISCV/drivers/core_feature_eclic.h ****     Reserved14_IRQn           =  16,              /*!<  Internal reserved */
 192:../Firmware/RISCV/drivers/core_feature_eclic.h ****     Reserved15_IRQn           =  17,              /*!<  Internal reserved */
 193:../Firmware/RISCV/drivers/core_feature_eclic.h ****     Reserved16_IRQn           =  18,              /*!<  Internal reserved */
 194:../Firmware/RISCV/drivers/core_feature_eclic.h **** 
 195:../Firmware/RISCV/drivers/core_feature_eclic.h ****     /* ========= Device Specific Interrupt Numbers  =================== */
 196:../Firmware/RISCV/drivers/core_feature_eclic.h ****     /* ToDo: add here your device specific external interrupt numbers.
 197:../Firmware/RISCV/drivers/core_feature_eclic.h ****      * 19~max(NUM_INTERRUPT, 1023) is reserved number for user.
 198:../Firmware/RISCV/drivers/core_feature_eclic.h ****      * Maxmum interrupt supported could get from clicinfo.NUM_INTERRUPT.
 199:../Firmware/RISCV/drivers/core_feature_eclic.h ****      * According the interrupt handlers defined in startup_Device.S
 200:../Firmware/RISCV/drivers/core_feature_eclic.h ****      * eg.: Interrupt for Timer#1       eclic_tim1_handler   ->   TIM1_IRQn */
 201:../Firmware/RISCV/drivers/core_feature_eclic.h ****     FirstDeviceSpecificInterrupt_IRQn    = 19,    /*!< First Device Specific Interrupt */
 202:../Firmware/RISCV/drivers/core_feature_eclic.h ****     SOC_INT_MAX,                                  /*!< Number of total interrupts */
 203:../Firmware/RISCV/drivers/core_feature_eclic.h **** } IRQn_Type;
 204:../Firmware/RISCV/drivers/core_feature_eclic.h **** #endif /* __ONLY_FOR_DOXYGEN_DOCUMENT_GENERATION__ */
 205:../Firmware/RISCV/drivers/core_feature_eclic.h **** 
 206:../Firmware/RISCV/drivers/core_feature_eclic.h **** #ifdef NMSIS_ECLIC_VIRTUAL
 207:../Firmware/RISCV/drivers/core_feature_eclic.h ****     #ifndef NMSIS_ECLIC_VIRTUAL_HEADER_FILE
 208:../Firmware/RISCV/drivers/core_feature_eclic.h ****         #define NMSIS_ECLIC_VIRTUAL_HEADER_FILE "nmsis_eclic_virtual.h"
 209:../Firmware/RISCV/drivers/core_feature_eclic.h ****     #endif
 210:../Firmware/RISCV/drivers/core_feature_eclic.h ****     #include NMSIS_ECLIC_VIRTUAL_HEADER_FILE
 211:../Firmware/RISCV/drivers/core_feature_eclic.h **** #else
 212:../Firmware/RISCV/drivers/core_feature_eclic.h ****     #define ECLIC_SetCfgNlbits            __ECLIC_SetCfgNlbits
 213:../Firmware/RISCV/drivers/core_feature_eclic.h ****     #define ECLIC_GetCfgNlbits            __ECLIC_GetCfgNlbits
 214:../Firmware/RISCV/drivers/core_feature_eclic.h ****     #define ECLIC_GetInfoVer              __ECLIC_GetInfoVer
 215:../Firmware/RISCV/drivers/core_feature_eclic.h ****     #define ECLIC_GetInfoCtlbits          __ECLIC_GetInfoCtlbits
 216:../Firmware/RISCV/drivers/core_feature_eclic.h ****     #define ECLIC_GetInfoNum              __ECLIC_GetInfoNum
 217:../Firmware/RISCV/drivers/core_feature_eclic.h ****     #define ECLIC_SetMth                  __ECLIC_SetMth
 218:../Firmware/RISCV/drivers/core_feature_eclic.h ****     #define ECLIC_GetMth                  __ECLIC_GetMth
 219:../Firmware/RISCV/drivers/core_feature_eclic.h ****     #define ECLIC_EnableIRQ               __ECLIC_EnableIRQ
 220:../Firmware/RISCV/drivers/core_feature_eclic.h ****     #define ECLIC_GetEnableIRQ            __ECLIC_GetEnableIRQ
 221:../Firmware/RISCV/drivers/core_feature_eclic.h ****     #define ECLIC_DisableIRQ              __ECLIC_DisableIRQ
 222:../Firmware/RISCV/drivers/core_feature_eclic.h ****     #define ECLIC_SetPendingIRQ           __ECLIC_SetPendingIRQ
 223:../Firmware/RISCV/drivers/core_feature_eclic.h ****     #define ECLIC_GetPendingIRQ           __ECLIC_GetPendingIRQ
 224:../Firmware/RISCV/drivers/core_feature_eclic.h ****     #define ECLIC_ClearPendingIRQ         __ECLIC_ClearPendingIRQ
 225:../Firmware/RISCV/drivers/core_feature_eclic.h ****     #define ECLIC_SetTrigIRQ              __ECLIC_SetTrigIRQ
 226:../Firmware/RISCV/drivers/core_feature_eclic.h ****     #define ECLIC_GetTrigIRQ              __ECLIC_GetTrigIRQ
 227:../Firmware/RISCV/drivers/core_feature_eclic.h ****     #define ECLIC_SetShvIRQ               __ECLIC_SetShvIRQ
 228:../Firmware/RISCV/drivers/core_feature_eclic.h ****     #define ECLIC_GetShvIRQ               __ECLIC_GetShvIRQ
 229:../Firmware/RISCV/drivers/core_feature_eclic.h ****     #define ECLIC_SetCtrlIRQ              __ECLIC_SetCtrlIRQ
 230:../Firmware/RISCV/drivers/core_feature_eclic.h ****     #define ECLIC_GetCtrlIRQ              __ECLIC_GetCtrlIRQ
 231:../Firmware/RISCV/drivers/core_feature_eclic.h ****     #define ECLIC_SetLevelIRQ             __ECLIC_SetLevelIRQ
 232:../Firmware/RISCV/drivers/core_feature_eclic.h ****     #define ECLIC_GetLevelIRQ             __ECLIC_GetLevelIRQ
 233:../Firmware/RISCV/drivers/core_feature_eclic.h ****     #define ECLIC_SetPriorityIRQ          __ECLIC_SetPriorityIRQ
 234:../Firmware/RISCV/drivers/core_feature_eclic.h ****     #define ECLIC_GetPriorityIRQ          __ECLIC_GetPriorityIRQ
 235:../Firmware/RISCV/drivers/core_feature_eclic.h **** 
 236:../Firmware/RISCV/drivers/core_feature_eclic.h **** #endif /* NMSIS_ECLIC_VIRTUAL */
 237:../Firmware/RISCV/drivers/core_feature_eclic.h **** 
 238:../Firmware/RISCV/drivers/core_feature_eclic.h **** #ifdef NMSIS_VECTAB_VIRTUAL
 239:../Firmware/RISCV/drivers/core_feature_eclic.h ****     #ifndef NMSIS_VECTAB_VIRTUAL_HEADER_FILE
 240:../Firmware/RISCV/drivers/core_feature_eclic.h ****         #define NMSIS_VECTAB_VIRTUAL_HEADER_FILE "nmsis_vectab_virtual.h"
 241:../Firmware/RISCV/drivers/core_feature_eclic.h ****     #endif
 242:../Firmware/RISCV/drivers/core_feature_eclic.h ****     #include NMSIS_VECTAB_VIRTUAL_HEADER_FILE
 243:../Firmware/RISCV/drivers/core_feature_eclic.h **** #else
 244:../Firmware/RISCV/drivers/core_feature_eclic.h ****     #define ECLIC_SetVector              __ECLIC_SetVector
 245:../Firmware/RISCV/drivers/core_feature_eclic.h ****     #define ECLIC_GetVector              __ECLIC_GetVector
 246:../Firmware/RISCV/drivers/core_feature_eclic.h **** #endif  /* (NMSIS_VECTAB_VIRTUAL) */
 247:../Firmware/RISCV/drivers/core_feature_eclic.h **** 
 248:../Firmware/RISCV/drivers/core_feature_eclic.h **** /**
 249:../Firmware/RISCV/drivers/core_feature_eclic.h ****  * \brief  Set nlbits value
 250:../Firmware/RISCV/drivers/core_feature_eclic.h ****  * \details
 251:../Firmware/RISCV/drivers/core_feature_eclic.h ****  * This function set the nlbits value of CLICCFG register.
 252:../Firmware/RISCV/drivers/core_feature_eclic.h ****  * \param [in]    nlbits    nlbits value
 253:../Firmware/RISCV/drivers/core_feature_eclic.h ****  * \remarks
 254:../Firmware/RISCV/drivers/core_feature_eclic.h ****  * - nlbits is used to set the width of level in the CLICINTCTL[i].
 255:../Firmware/RISCV/drivers/core_feature_eclic.h ****  * \sa
 256:../Firmware/RISCV/drivers/core_feature_eclic.h ****  * - \ref ECLIC_GetCfgNlbits
 257:../Firmware/RISCV/drivers/core_feature_eclic.h ****  */
 258:../Firmware/RISCV/drivers/core_feature_eclic.h **** __STATIC_FORCEINLINE void __ECLIC_SetCfgNlbits(uint32_t nlbits)
 259:../Firmware/RISCV/drivers/core_feature_eclic.h **** {
 260:../Firmware/RISCV/drivers/core_feature_eclic.h ****     ECLIC->CFG &= ~CLIC_CLICCFG_NLBIT_Msk;
 261:../Firmware/RISCV/drivers/core_feature_eclic.h ****     ECLIC->CFG |= (uint8_t)((nlbits <<CLIC_CLICCFG_NLBIT_Pos) & CLIC_CLICCFG_NLBIT_Msk);
 262:../Firmware/RISCV/drivers/core_feature_eclic.h **** }
 263:../Firmware/RISCV/drivers/core_feature_eclic.h **** 
 264:../Firmware/RISCV/drivers/core_feature_eclic.h **** /**
 265:../Firmware/RISCV/drivers/core_feature_eclic.h ****  * \brief  Get nlbits value
 266:../Firmware/RISCV/drivers/core_feature_eclic.h ****  * \details
 267:../Firmware/RISCV/drivers/core_feature_eclic.h ****  * This function get the nlbits value of CLICCFG register.
 268:../Firmware/RISCV/drivers/core_feature_eclic.h ****  * \return   nlbits value of CLICCFG register
 269:../Firmware/RISCV/drivers/core_feature_eclic.h ****  * \remarks
 270:../Firmware/RISCV/drivers/core_feature_eclic.h ****  * - nlbits is used to set the width of level in the CLICINTCTL[i].
 271:../Firmware/RISCV/drivers/core_feature_eclic.h ****  * \sa
 272:../Firmware/RISCV/drivers/core_feature_eclic.h ****  * - \ref ECLIC_SetCfgNlbits
 273:../Firmware/RISCV/drivers/core_feature_eclic.h ****  */
 274:../Firmware/RISCV/drivers/core_feature_eclic.h **** __STATIC_FORCEINLINE uint32_t __ECLIC_GetCfgNlbits(void)
 275:../Firmware/RISCV/drivers/core_feature_eclic.h **** {
 276:../Firmware/RISCV/drivers/core_feature_eclic.h ****     return ((uint32_t)((ECLIC->CFG & CLIC_CLICCFG_NLBIT_Msk) >> CLIC_CLICCFG_NLBIT_Pos));
 277:../Firmware/RISCV/drivers/core_feature_eclic.h **** }
 278:../Firmware/RISCV/drivers/core_feature_eclic.h **** 
 279:../Firmware/RISCV/drivers/core_feature_eclic.h **** /**
 280:../Firmware/RISCV/drivers/core_feature_eclic.h ****  * \brief  Get the ECLIC version number
 281:../Firmware/RISCV/drivers/core_feature_eclic.h ****  * \details
 282:../Firmware/RISCV/drivers/core_feature_eclic.h ****  * This function gets the hardware version information from CLICINFO register.
 283:../Firmware/RISCV/drivers/core_feature_eclic.h ****  * \return   hardware version number in CLICINFO register.
 284:../Firmware/RISCV/drivers/core_feature_eclic.h ****  * \remarks
 285:../Firmware/RISCV/drivers/core_feature_eclic.h ****  * - This function gets harware version information from CLICINFO register.
 286:../Firmware/RISCV/drivers/core_feature_eclic.h ****  * - Bit 20:17 for architecture version, bit 16:13 for implementation version.
 287:../Firmware/RISCV/drivers/core_feature_eclic.h ****  * \sa
 288:../Firmware/RISCV/drivers/core_feature_eclic.h ****  * - \ref ECLIC_GetInfoNum
 289:../Firmware/RISCV/drivers/core_feature_eclic.h **** */
 290:../Firmware/RISCV/drivers/core_feature_eclic.h **** __STATIC_FORCEINLINE uint32_t __ECLIC_GetInfoVer(void)
 291:../Firmware/RISCV/drivers/core_feature_eclic.h **** {
 292:../Firmware/RISCV/drivers/core_feature_eclic.h ****     return ((uint32_t)((ECLIC->INFO & CLIC_CLICINFO_VER_Msk) >> CLIC_CLICINFO_VER_Pos));
 293:../Firmware/RISCV/drivers/core_feature_eclic.h **** }
 294:../Firmware/RISCV/drivers/core_feature_eclic.h **** 
 295:../Firmware/RISCV/drivers/core_feature_eclic.h **** /**
 296:../Firmware/RISCV/drivers/core_feature_eclic.h ****  * \brief  Get CLICINTCTLBITS
 297:../Firmware/RISCV/drivers/core_feature_eclic.h ****  * \details
 298:../Firmware/RISCV/drivers/core_feature_eclic.h ****  * This function gets CLICINTCTLBITS from CLICINFO register.
 299:../Firmware/RISCV/drivers/core_feature_eclic.h ****  * \return  CLICINTCTLBITS from CLICINFO register.
 300:../Firmware/RISCV/drivers/core_feature_eclic.h ****  * \remarks
 301:../Firmware/RISCV/drivers/core_feature_eclic.h ****  * - In the CLICINTCTL[i] registers, with 2 <= CLICINTCTLBITS <= 8.
 302:../Firmware/RISCV/drivers/core_feature_eclic.h ****  * - The implemented bits are kept left-justified in the most-significant bits of each 8-bit
 303:../Firmware/RISCV/drivers/core_feature_eclic.h ****  *   CLICINTCTL[I] register, with the lower unimplemented bits treated as hardwired to 1.
 304:../Firmware/RISCV/drivers/core_feature_eclic.h ****  * \sa
 305:../Firmware/RISCV/drivers/core_feature_eclic.h ****  * - \ref ECLIC_GetInfoNum
 306:../Firmware/RISCV/drivers/core_feature_eclic.h ****  */
 307:../Firmware/RISCV/drivers/core_feature_eclic.h **** __STATIC_FORCEINLINE uint32_t __ECLIC_GetInfoCtlbits(void)
 308:../Firmware/RISCV/drivers/core_feature_eclic.h **** {
 309:../Firmware/RISCV/drivers/core_feature_eclic.h ****     return ((uint32_t)((ECLIC->INFO & CLIC_CLICINFO_CTLBIT_Msk) >> CLIC_CLICINFO_CTLBIT_Pos));
 310:../Firmware/RISCV/drivers/core_feature_eclic.h **** }
 311:../Firmware/RISCV/drivers/core_feature_eclic.h **** 
 312:../Firmware/RISCV/drivers/core_feature_eclic.h **** /**
 313:../Firmware/RISCV/drivers/core_feature_eclic.h ****  * \brief  Get number of maximum interrupt inputs supported
 314:../Firmware/RISCV/drivers/core_feature_eclic.h ****  * \details
 315:../Firmware/RISCV/drivers/core_feature_eclic.h ****  * This function gets number of maximum interrupt inputs supported from CLICINFO register.
 316:../Firmware/RISCV/drivers/core_feature_eclic.h ****  * \return  number of maximum interrupt inputs supported from CLICINFO register.
 317:../Firmware/RISCV/drivers/core_feature_eclic.h ****  * \remarks
 318:../Firmware/RISCV/drivers/core_feature_eclic.h ****  * - This function gets number of maximum interrupt inputs supported from CLICINFO register.
 319:../Firmware/RISCV/drivers/core_feature_eclic.h ****  * - The num_interrupt field specifies the actual number of maximum interrupt inputs supported in t
 320:../Firmware/RISCV/drivers/core_feature_eclic.h ****  * \sa
 321:../Firmware/RISCV/drivers/core_feature_eclic.h ****  * - \ref ECLIC_GetInfoCtlbits
 322:../Firmware/RISCV/drivers/core_feature_eclic.h ****  */
 323:../Firmware/RISCV/drivers/core_feature_eclic.h **** __STATIC_FORCEINLINE uint32_t __ECLIC_GetInfoNum(void)
 324:../Firmware/RISCV/drivers/core_feature_eclic.h **** {
 325:../Firmware/RISCV/drivers/core_feature_eclic.h ****     return ((uint32_t)((ECLIC->INFO & CLIC_CLICINFO_NUM_Msk) >> CLIC_CLICINFO_NUM_Pos));
 326:../Firmware/RISCV/drivers/core_feature_eclic.h **** }
 327:../Firmware/RISCV/drivers/core_feature_eclic.h **** 
 328:../Firmware/RISCV/drivers/core_feature_eclic.h **** /**
 329:../Firmware/RISCV/drivers/core_feature_eclic.h ****  * \brief  Set Machine Mode Interrupt Level Threshold
 330:../Firmware/RISCV/drivers/core_feature_eclic.h ****  * \details
 331:../Firmware/RISCV/drivers/core_feature_eclic.h ****  * This function sets machine mode interrupt level threshold.
 332:../Firmware/RISCV/drivers/core_feature_eclic.h ****  * \param [in]  mth       Interrupt Level Threshold.
 333:../Firmware/RISCV/drivers/core_feature_eclic.h ****  * \sa
 334:../Firmware/RISCV/drivers/core_feature_eclic.h ****  * - \ref ECLIC_GetMth
 335:../Firmware/RISCV/drivers/core_feature_eclic.h ****  */
 336:../Firmware/RISCV/drivers/core_feature_eclic.h **** __STATIC_FORCEINLINE void __ECLIC_SetMth(uint8_t mth)
 337:../Firmware/RISCV/drivers/core_feature_eclic.h **** {
 338:../Firmware/RISCV/drivers/core_feature_eclic.h ****     ECLIC->MTH = mth;
 120              		.loc 3 338 10
 121 0014 B70700D2 		li	a5,-771751936
 122              		.loc 3 338 16
 123 0018 0347F4FE 		lbu	a4,-17(s0)
 124 001c A385E700 		sb	a4,11(a5)
 339:../Firmware/RISCV/drivers/core_feature_eclic.h **** }
 125              		.loc 3 339 1
 126 0020 0100     		nop
 127              	.LBE55:
 128              	.LBE54:
  68:../Firmware/GD32VW55x_standard_peripheral/Source/gd32vw55x_eclic.c ****     ECLIC_SetMth(threshold);
  69:../Firmware/GD32VW55x_standard_peripheral/Source/gd32vw55x_eclic.c **** }
 129              		.loc 1 69 1
 130 0022 0100     		nop
 131 0024 3254     		lw	s0,44(sp)
 132              		.cfi_restore 8
 133              		.cfi_def_cfa 2, 48
 134 0026 4561     		addi	sp,sp,48
 135              		.cfi_def_cfa_offset 0
 136 0028 8280     		jr	ra
 137              		.cfi_endproc
 138              	.LFE349:
 140              		.section	.text.eclic_priority_group_set,"ax",@progbits
 141              		.align	1
 142              		.globl	eclic_priority_group_set
 144              	eclic_priority_group_set:
 145              	.LFB350:
  70:../Firmware/GD32VW55x_standard_peripheral/Source/gd32vw55x_eclic.c **** 
  71:../Firmware/GD32VW55x_standard_peripheral/Source/gd32vw55x_eclic.c **** /*!
  72:../Firmware/GD32VW55x_standard_peripheral/Source/gd32vw55x_eclic.c ****     \brief      set the priority group
  73:../Firmware/GD32VW55x_standard_peripheral/Source/gd32vw55x_eclic.c ****     \param[in]  prigroup: specify the priority group
  74:../Firmware/GD32VW55x_standard_peripheral/Source/gd32vw55x_eclic.c ****       \arg        ECLIC_PRIGROUP_LEVEL0_PRIO4
  75:../Firmware/GD32VW55x_standard_peripheral/Source/gd32vw55x_eclic.c ****       \arg        ECLIC_PRIGROUP_LEVEL1_PRIO3
  76:../Firmware/GD32VW55x_standard_peripheral/Source/gd32vw55x_eclic.c ****       \arg        ECLIC_PRIGROUP_LEVEL2_PRIO2
  77:../Firmware/GD32VW55x_standard_peripheral/Source/gd32vw55x_eclic.c ****       \arg        ECLIC_PRIGROUP_LEVEL3_PRIO1
  78:../Firmware/GD32VW55x_standard_peripheral/Source/gd32vw55x_eclic.c ****       \arg        ECLIC_PRIGROUP_LEVEL4_PRIO0
  79:../Firmware/GD32VW55x_standard_peripheral/Source/gd32vw55x_eclic.c ****     \param[out] none
  80:../Firmware/GD32VW55x_standard_peripheral/Source/gd32vw55x_eclic.c ****     \retval     none
  81:../Firmware/GD32VW55x_standard_peripheral/Source/gd32vw55x_eclic.c **** */
  82:../Firmware/GD32VW55x_standard_peripheral/Source/gd32vw55x_eclic.c **** void eclic_priority_group_set(uint8_t prigroup)
  83:../Firmware/GD32VW55x_standard_peripheral/Source/gd32vw55x_eclic.c **** {
 146              		.loc 1 83 1
 147              		.cfi_startproc
 148 0000 7971     		addi	sp,sp,-48
 149              		.cfi_def_cfa_offset 48
 150 0002 22D6     		sw	s0,44(sp)
 151              		.cfi_offset 8, -4
 152 0004 0018     		addi	s0,sp,48
 153              		.cfi_def_cfa 8, 0
 154 0006 AA87     		mv	a5,a0
 155 0008 A30FF4FC 		sb	a5,-33(s0)
  84:../Firmware/GD32VW55x_standard_peripheral/Source/gd32vw55x_eclic.c ****     ECLIC_SetCfgNlbits(prigroup);
 156              		.loc 1 84 5
 157 000c 8347F4FD 		lbu	a5,-33(s0)
 158 0010 2326F4FE 		sw	a5,-20(s0)
 159              	.LBB56:
 160              	.LBB57:
 260:../Firmware/RISCV/drivers/core_feature_eclic.h ****     ECLIC->CFG |= (uint8_t)((nlbits <<CLIC_CLICCFG_NLBIT_Pos) & CLIC_CLICCFG_NLBIT_Msk);
 161              		.loc 3 260 16
 162 0014 B70700D2 		li	a5,-771751936
 163 0018 83C70700 		lbu	a5,0(a5)
 164 001c 13F7F70F 		andi	a4,a5,0xff
 165 0020 B70700D2 		li	a5,-771751936
 166 0024 059B     		andi	a4,a4,-31
 167 0026 1377F70F 		andi	a4,a4,0xff
 168 002a 2380E700 		sb	a4,0(a5)
 261:../Firmware/RISCV/drivers/core_feature_eclic.h **** }
 169              		.loc 3 261 16
 170 002e B70700D2 		li	a5,-771751936
 171 0032 83C70700 		lbu	a5,0(a5)
 172 0036 93F7F70F 		andi	a5,a5,0xff
 173 003a 13978701 		slli	a4,a5,24
 174 003e 6187     		srai	a4,a4,24
 261:../Firmware/RISCV/drivers/core_feature_eclic.h **** }
 175              		.loc 3 261 37
 176 0040 8327C4FE 		lw	a5,-20(s0)
 177 0044 93F7F70F 		andi	a5,a5,0xff
 178 0048 8607     		slli	a5,a5,1
 179 004a 93F7F70F 		andi	a5,a5,0xff
 180 004e E207     		slli	a5,a5,24
 181 0050 E187     		srai	a5,a5,24
 261:../Firmware/RISCV/drivers/core_feature_eclic.h **** }
 182              		.loc 3 261 19
 183 0052 F98B     		andi	a5,a5,30
 184 0054 E207     		slli	a5,a5,24
 185 0056 E187     		srai	a5,a5,24
 261:../Firmware/RISCV/drivers/core_feature_eclic.h **** }
 186              		.loc 3 261 16
 187 0058 D98F     		or	a5,a4,a5
 188 005a 13978701 		slli	a4,a5,24
 189 005e 6187     		srai	a4,a4,24
 190 0060 B70700D2 		li	a5,-771751936
 191 0064 1377F70F 		andi	a4,a4,0xff
 192 0068 2380E700 		sb	a4,0(a5)
 262:../Firmware/RISCV/drivers/core_feature_eclic.h **** 
 193              		.loc 3 262 1
 194 006c 0100     		nop
 195              	.LBE57:
 196              	.LBE56:
  85:../Firmware/GD32VW55x_standard_peripheral/Source/gd32vw55x_eclic.c **** }
 197              		.loc 1 85 1
 198 006e 0100     		nop
 199 0070 3254     		lw	s0,44(sp)
 200              		.cfi_restore 8
 201              		.cfi_def_cfa 2, 48
 202 0072 4561     		addi	sp,sp,48
 203              		.cfi_def_cfa_offset 0
 204 0074 8280     		jr	ra
 205              		.cfi_endproc
 206              	.LFE350:
 208              		.section	.text.eclic_irq_enable,"ax",@progbits
 209              		.align	1
 210              		.globl	eclic_irq_enable
 212              	eclic_irq_enable:
 213              	.LFB351:
  86:../Firmware/GD32VW55x_standard_peripheral/Source/gd32vw55x_eclic.c **** 
  87:../Firmware/GD32VW55x_standard_peripheral/Source/gd32vw55x_eclic.c **** /*!
  88:../Firmware/GD32VW55x_standard_peripheral/Source/gd32vw55x_eclic.c ****     \brief      enable the interrupt request
  89:../Firmware/GD32VW55x_standard_peripheral/Source/gd32vw55x_eclic.c ****     \param[in]  source: interrupt request, detailed in IRQn_Type
  90:../Firmware/GD32VW55x_standard_peripheral/Source/gd32vw55x_eclic.c ****     \param[in]  level: the level needed to set (maximum is 15, refer to the priority group)
  91:../Firmware/GD32VW55x_standard_peripheral/Source/gd32vw55x_eclic.c ****     \param[in]  priority: the priority needed to set (maximum is 15, refer to the priority group)
  92:../Firmware/GD32VW55x_standard_peripheral/Source/gd32vw55x_eclic.c ****     \param[out] none
  93:../Firmware/GD32VW55x_standard_peripheral/Source/gd32vw55x_eclic.c ****     \retval     none
  94:../Firmware/GD32VW55x_standard_peripheral/Source/gd32vw55x_eclic.c **** */
  95:../Firmware/GD32VW55x_standard_peripheral/Source/gd32vw55x_eclic.c **** void eclic_irq_enable(IRQn_Type source, uint8_t level, uint8_t priority)
  96:../Firmware/GD32VW55x_standard_peripheral/Source/gd32vw55x_eclic.c **** {
 214              		.loc 1 96 1
 215              		.cfi_startproc
 216 0000 1D71     		addi	sp,sp,-96
 217              		.cfi_def_cfa_offset 96
 218 0002 A2CE     		sw	s0,92(sp)
 219              		.cfi_offset 8, -4
 220 0004 8010     		addi	s0,sp,96
 221              		.cfi_def_cfa 8, 0
 222 0006 2326A4FA 		sw	a0,-84(s0)
 223 000a AE87     		mv	a5,a1
 224 000c 3287     		mv	a4,a2
 225 000e A305F4FA 		sb	a5,-85(s0)
 226 0012 BA87     		mv	a5,a4
 227 0014 2305F4FA 		sb	a5,-86(s0)
 228 0018 8327C4FA 		lw	a5,-84(s0)
 229 001c 2326F4FC 		sw	a5,-52(s0)
 230 0020 8347B4FA 		lbu	a5,-85(s0)
 231 0024 A305F4FC 		sb	a5,-53(s0)
 232              	.LBB58:
 233              	.LBB59:
 234              	.LBB60:
 235              	.LBB61:
 276:../Firmware/RISCV/drivers/core_feature_eclic.h **** }
 236              		.loc 3 276 30
 237 0028 B70700D2 		li	a5,-771751936
 238 002c 83C70700 		lbu	a5,0(a5)
 239 0030 93F7F70F 		andi	a5,a5,0xff
 276:../Firmware/RISCV/drivers/core_feature_eclic.h **** }
 240              		.loc 3 276 13
 241 0034 8583     		srli	a5,a5,1
 242 0036 BD8B     		andi	a5,a5,15
 243              	.LBE61:
 244              	.LBE60:
 340:../Firmware/RISCV/drivers/core_feature_eclic.h **** 
 341:../Firmware/RISCV/drivers/core_feature_eclic.h **** /**
 342:../Firmware/RISCV/drivers/core_feature_eclic.h ****  * \brief  Get Machine Mode Interrupt Level Threshold
 343:../Firmware/RISCV/drivers/core_feature_eclic.h ****  * \details
 344:../Firmware/RISCV/drivers/core_feature_eclic.h ****  * This function gets machine mode interrupt level threshold.
 345:../Firmware/RISCV/drivers/core_feature_eclic.h ****  * \return       Interrupt Level Threshold.
 346:../Firmware/RISCV/drivers/core_feature_eclic.h ****  * \sa
 347:../Firmware/RISCV/drivers/core_feature_eclic.h ****  * - \ref ECLIC_SetMth
 348:../Firmware/RISCV/drivers/core_feature_eclic.h ****  */
 349:../Firmware/RISCV/drivers/core_feature_eclic.h **** __STATIC_FORCEINLINE uint8_t __ECLIC_GetMth(void)
 350:../Firmware/RISCV/drivers/core_feature_eclic.h **** {
 351:../Firmware/RISCV/drivers/core_feature_eclic.h ****     return (ECLIC->MTH);
 352:../Firmware/RISCV/drivers/core_feature_eclic.h **** }
 353:../Firmware/RISCV/drivers/core_feature_eclic.h **** 
 354:../Firmware/RISCV/drivers/core_feature_eclic.h **** 
 355:../Firmware/RISCV/drivers/core_feature_eclic.h **** /**
 356:../Firmware/RISCV/drivers/core_feature_eclic.h ****  * \brief  Enable a specific interrupt
 357:../Firmware/RISCV/drivers/core_feature_eclic.h ****  * \details
 358:../Firmware/RISCV/drivers/core_feature_eclic.h ****  * This function enables the specific interrupt \em IRQn.
 359:../Firmware/RISCV/drivers/core_feature_eclic.h ****  * \param [in]  IRQn  Interrupt number
 360:../Firmware/RISCV/drivers/core_feature_eclic.h ****  * \remarks
 361:../Firmware/RISCV/drivers/core_feature_eclic.h ****  * - IRQn must not be negative.
 362:../Firmware/RISCV/drivers/core_feature_eclic.h ****  * \sa
 363:../Firmware/RISCV/drivers/core_feature_eclic.h ****  * - \ref ECLIC_DisableIRQ
 364:../Firmware/RISCV/drivers/core_feature_eclic.h ****  */
 365:../Firmware/RISCV/drivers/core_feature_eclic.h **** __STATIC_FORCEINLINE void __ECLIC_EnableIRQ(IRQn_Type IRQn)
 366:../Firmware/RISCV/drivers/core_feature_eclic.h **** {
 367:../Firmware/RISCV/drivers/core_feature_eclic.h ****     ECLIC->CTRL[IRQn].INTIE |= CLIC_INTIE_IE_Msk;
 368:../Firmware/RISCV/drivers/core_feature_eclic.h **** }
 369:../Firmware/RISCV/drivers/core_feature_eclic.h **** 
 370:../Firmware/RISCV/drivers/core_feature_eclic.h **** /**
 371:../Firmware/RISCV/drivers/core_feature_eclic.h ****  * \brief  Get a specific interrupt enable status
 372:../Firmware/RISCV/drivers/core_feature_eclic.h ****  * \details
 373:../Firmware/RISCV/drivers/core_feature_eclic.h ****  * This function returns the interrupt enable status for the specific interrupt \em IRQn.
 374:../Firmware/RISCV/drivers/core_feature_eclic.h ****  * \param [in]  IRQn  Interrupt number
 375:../Firmware/RISCV/drivers/core_feature_eclic.h ****  * \returns
 376:../Firmware/RISCV/drivers/core_feature_eclic.h ****  * - 0  Interrupt is not enabled
 377:../Firmware/RISCV/drivers/core_feature_eclic.h ****  * - 1  Interrupt is pending
 378:../Firmware/RISCV/drivers/core_feature_eclic.h ****  * \remarks
 379:../Firmware/RISCV/drivers/core_feature_eclic.h ****  * - IRQn must not be negative.
 380:../Firmware/RISCV/drivers/core_feature_eclic.h ****  * \sa
 381:../Firmware/RISCV/drivers/core_feature_eclic.h ****  * - \ref ECLIC_EnableIRQ
 382:../Firmware/RISCV/drivers/core_feature_eclic.h ****  * - \ref ECLIC_DisableIRQ
 383:../Firmware/RISCV/drivers/core_feature_eclic.h ****  */
 384:../Firmware/RISCV/drivers/core_feature_eclic.h **** __STATIC_FORCEINLINE uint32_t __ECLIC_GetEnableIRQ(IRQn_Type IRQn)
 385:../Firmware/RISCV/drivers/core_feature_eclic.h **** {
 386:../Firmware/RISCV/drivers/core_feature_eclic.h ****     return((uint32_t) (ECLIC->CTRL[IRQn].INTIE) & CLIC_INTIE_IE_Msk);
 387:../Firmware/RISCV/drivers/core_feature_eclic.h **** }
 388:../Firmware/RISCV/drivers/core_feature_eclic.h **** 
 389:../Firmware/RISCV/drivers/core_feature_eclic.h **** /**
 390:../Firmware/RISCV/drivers/core_feature_eclic.h ****  * \brief  Disable a specific interrupt
 391:../Firmware/RISCV/drivers/core_feature_eclic.h ****  * \details
 392:../Firmware/RISCV/drivers/core_feature_eclic.h ****  * This function disables the specific interrupt \em IRQn.
 393:../Firmware/RISCV/drivers/core_feature_eclic.h ****  * \param [in]  IRQn  Number of the external interrupt to disable
 394:../Firmware/RISCV/drivers/core_feature_eclic.h ****  * \remarks
 395:../Firmware/RISCV/drivers/core_feature_eclic.h ****  * - IRQn must not be negative.
 396:../Firmware/RISCV/drivers/core_feature_eclic.h ****  * \sa
 397:../Firmware/RISCV/drivers/core_feature_eclic.h ****  * - \ref ECLIC_EnableIRQ
 398:../Firmware/RISCV/drivers/core_feature_eclic.h ****  */
 399:../Firmware/RISCV/drivers/core_feature_eclic.h **** __STATIC_FORCEINLINE void __ECLIC_DisableIRQ(IRQn_Type IRQn)
 400:../Firmware/RISCV/drivers/core_feature_eclic.h **** {
 401:../Firmware/RISCV/drivers/core_feature_eclic.h ****     ECLIC->CTRL[IRQn].INTIE &= ~CLIC_INTIE_IE_Msk;
 402:../Firmware/RISCV/drivers/core_feature_eclic.h **** }
 403:../Firmware/RISCV/drivers/core_feature_eclic.h **** 
 404:../Firmware/RISCV/drivers/core_feature_eclic.h **** /**
 405:../Firmware/RISCV/drivers/core_feature_eclic.h ****  * \brief  Get the pending specific interrupt
 406:../Firmware/RISCV/drivers/core_feature_eclic.h ****  * \details
 407:../Firmware/RISCV/drivers/core_feature_eclic.h ****  * This function returns the pending status of the specific interrupt \em IRQn.
 408:../Firmware/RISCV/drivers/core_feature_eclic.h ****  * \param [in]      IRQn  Interrupt number
 409:../Firmware/RISCV/drivers/core_feature_eclic.h ****  * \returns
 410:../Firmware/RISCV/drivers/core_feature_eclic.h ****  * - 0  Interrupt is not pending
 411:../Firmware/RISCV/drivers/core_feature_eclic.h ****  * - 1  Interrupt is pending
 412:../Firmware/RISCV/drivers/core_feature_eclic.h ****  * \remarks
 413:../Firmware/RISCV/drivers/core_feature_eclic.h ****  * - IRQn must not be negative.
 414:../Firmware/RISCV/drivers/core_feature_eclic.h ****  * \sa
 415:../Firmware/RISCV/drivers/core_feature_eclic.h ****  * - \ref ECLIC_SetPendingIRQ
 416:../Firmware/RISCV/drivers/core_feature_eclic.h ****  * - \ref ECLIC_ClearPendingIRQ
 417:../Firmware/RISCV/drivers/core_feature_eclic.h ****  */
 418:../Firmware/RISCV/drivers/core_feature_eclic.h **** __STATIC_FORCEINLINE int32_t __ECLIC_GetPendingIRQ(IRQn_Type IRQn)
 419:../Firmware/RISCV/drivers/core_feature_eclic.h **** {
 420:../Firmware/RISCV/drivers/core_feature_eclic.h ****     return((uint32_t)(ECLIC->CTRL[IRQn].INTIP) & CLIC_INTIP_IP_Msk);
 421:../Firmware/RISCV/drivers/core_feature_eclic.h **** }
 422:../Firmware/RISCV/drivers/core_feature_eclic.h **** 
 423:../Firmware/RISCV/drivers/core_feature_eclic.h **** /**
 424:../Firmware/RISCV/drivers/core_feature_eclic.h ****  * \brief  Set a specific interrupt to pending
 425:../Firmware/RISCV/drivers/core_feature_eclic.h ****  * \details
 426:../Firmware/RISCV/drivers/core_feature_eclic.h ****  * This function sets the pending bit for the specific interrupt \em IRQn.
 427:../Firmware/RISCV/drivers/core_feature_eclic.h ****  * \param [in]      IRQn  Interrupt number
 428:../Firmware/RISCV/drivers/core_feature_eclic.h ****  * \remarks
 429:../Firmware/RISCV/drivers/core_feature_eclic.h ****  * - IRQn must not be negative.
 430:../Firmware/RISCV/drivers/core_feature_eclic.h ****  * \sa
 431:../Firmware/RISCV/drivers/core_feature_eclic.h ****  * - \ref ECLIC_GetPendingIRQ
 432:../Firmware/RISCV/drivers/core_feature_eclic.h ****  * - \ref ECLIC_ClearPendingIRQ
 433:../Firmware/RISCV/drivers/core_feature_eclic.h ****  */
 434:../Firmware/RISCV/drivers/core_feature_eclic.h **** __STATIC_FORCEINLINE void __ECLIC_SetPendingIRQ(IRQn_Type IRQn)
 435:../Firmware/RISCV/drivers/core_feature_eclic.h **** {
 436:../Firmware/RISCV/drivers/core_feature_eclic.h ****     ECLIC->CTRL[IRQn].INTIP |= CLIC_INTIP_IP_Msk;
 437:../Firmware/RISCV/drivers/core_feature_eclic.h **** }
 438:../Firmware/RISCV/drivers/core_feature_eclic.h **** 
 439:../Firmware/RISCV/drivers/core_feature_eclic.h **** /**
 440:../Firmware/RISCV/drivers/core_feature_eclic.h ****  * \brief  Clear a specific interrupt from pending
 441:../Firmware/RISCV/drivers/core_feature_eclic.h ****  * \details
 442:../Firmware/RISCV/drivers/core_feature_eclic.h ****  * This function removes the pending state of the specific interrupt \em IRQn.
 443:../Firmware/RISCV/drivers/core_feature_eclic.h ****  * \em IRQn cannot be a negative number.
 444:../Firmware/RISCV/drivers/core_feature_eclic.h ****  * \param [in]      IRQn  Interrupt number
 445:../Firmware/RISCV/drivers/core_feature_eclic.h ****  * \remarks
 446:../Firmware/RISCV/drivers/core_feature_eclic.h ****  * - IRQn must not be negative.
 447:../Firmware/RISCV/drivers/core_feature_eclic.h ****  * \sa
 448:../Firmware/RISCV/drivers/core_feature_eclic.h ****  * - \ref ECLIC_SetPendingIRQ
 449:../Firmware/RISCV/drivers/core_feature_eclic.h ****  * - \ref ECLIC_GetPendingIRQ
 450:../Firmware/RISCV/drivers/core_feature_eclic.h ****  */
 451:../Firmware/RISCV/drivers/core_feature_eclic.h **** __STATIC_FORCEINLINE void __ECLIC_ClearPendingIRQ(IRQn_Type IRQn)
 452:../Firmware/RISCV/drivers/core_feature_eclic.h **** {
 453:../Firmware/RISCV/drivers/core_feature_eclic.h ****     ECLIC->CTRL[IRQn].INTIP &= ~ CLIC_INTIP_IP_Msk;
 454:../Firmware/RISCV/drivers/core_feature_eclic.h **** }
 455:../Firmware/RISCV/drivers/core_feature_eclic.h **** 
 456:../Firmware/RISCV/drivers/core_feature_eclic.h **** /**
 457:../Firmware/RISCV/drivers/core_feature_eclic.h ****  * \brief  Set trigger mode and polarity for a specific interrupt
 458:../Firmware/RISCV/drivers/core_feature_eclic.h ****  * \details
 459:../Firmware/RISCV/drivers/core_feature_eclic.h ****  * This function set trigger mode and polarity of the specific interrupt \em IRQn.
 460:../Firmware/RISCV/drivers/core_feature_eclic.h ****  * \param [in]      IRQn  Interrupt number
 461:../Firmware/RISCV/drivers/core_feature_eclic.h ****  * \param [in]      trig
 462:../Firmware/RISCV/drivers/core_feature_eclic.h ****  *                   - 00  level trigger, \ref ECLIC_LEVEL_TRIGGER
 463:../Firmware/RISCV/drivers/core_feature_eclic.h ****  *                   - 01  positive edge trigger, \ref ECLIC_POSTIVE_EDGE_TRIGGER
 464:../Firmware/RISCV/drivers/core_feature_eclic.h ****  *                   - 02  level trigger, \ref ECLIC_LEVEL_TRIGGER
 465:../Firmware/RISCV/drivers/core_feature_eclic.h ****  *                   - 03  negative edge trigger, \ref ECLIC_NEGTIVE_EDGE_TRIGGER
 466:../Firmware/RISCV/drivers/core_feature_eclic.h ****  * \remarks
 467:../Firmware/RISCV/drivers/core_feature_eclic.h ****  * - IRQn must not be negative.
 468:../Firmware/RISCV/drivers/core_feature_eclic.h ****  *
 469:../Firmware/RISCV/drivers/core_feature_eclic.h ****  * \sa
 470:../Firmware/RISCV/drivers/core_feature_eclic.h ****  * - \ref ECLIC_GetTrigIRQ
 471:../Firmware/RISCV/drivers/core_feature_eclic.h ****  */
 472:../Firmware/RISCV/drivers/core_feature_eclic.h **** __STATIC_FORCEINLINE void __ECLIC_SetTrigIRQ(IRQn_Type IRQn, uint32_t trig)
 473:../Firmware/RISCV/drivers/core_feature_eclic.h **** {
 474:../Firmware/RISCV/drivers/core_feature_eclic.h ****     ECLIC->CTRL[IRQn].INTATTR &= ~CLIC_INTATTR_TRIG_Msk;
 475:../Firmware/RISCV/drivers/core_feature_eclic.h ****     ECLIC->CTRL[IRQn].INTATTR |= (uint8_t)(trig<<CLIC_INTATTR_TRIG_Pos);
 476:../Firmware/RISCV/drivers/core_feature_eclic.h **** }
 477:../Firmware/RISCV/drivers/core_feature_eclic.h **** 
 478:../Firmware/RISCV/drivers/core_feature_eclic.h **** /**
 479:../Firmware/RISCV/drivers/core_feature_eclic.h ****  * \brief  Get trigger mode and polarity for a specific interrupt
 480:../Firmware/RISCV/drivers/core_feature_eclic.h ****  * \details
 481:../Firmware/RISCV/drivers/core_feature_eclic.h ****  * This function get trigger mode and polarity of the specific interrupt \em IRQn.
 482:../Firmware/RISCV/drivers/core_feature_eclic.h ****  * \param [in]      IRQn  Interrupt number
 483:../Firmware/RISCV/drivers/core_feature_eclic.h ****  * \return
 484:../Firmware/RISCV/drivers/core_feature_eclic.h ****  *                 - 00  level trigger, \ref ECLIC_LEVEL_TRIGGER
 485:../Firmware/RISCV/drivers/core_feature_eclic.h ****  *                 - 01  positive edge trigger, \ref ECLIC_POSTIVE_EDGE_TRIGGER
 486:../Firmware/RISCV/drivers/core_feature_eclic.h ****  *                 - 02  level trigger, \ref ECLIC_LEVEL_TRIGGER
 487:../Firmware/RISCV/drivers/core_feature_eclic.h ****  *                 - 03  negative edge trigger, \ref ECLIC_NEGTIVE_EDGE_TRIGGER
 488:../Firmware/RISCV/drivers/core_feature_eclic.h ****  * \remarks
 489:../Firmware/RISCV/drivers/core_feature_eclic.h ****  *     - IRQn must not be negative.
 490:../Firmware/RISCV/drivers/core_feature_eclic.h ****  * \sa
 491:../Firmware/RISCV/drivers/core_feature_eclic.h ****  *     - \ref ECLIC_SetTrigIRQ
 492:../Firmware/RISCV/drivers/core_feature_eclic.h ****  */
 493:../Firmware/RISCV/drivers/core_feature_eclic.h **** __STATIC_FORCEINLINE uint32_t __ECLIC_GetTrigIRQ(IRQn_Type IRQn)
 494:../Firmware/RISCV/drivers/core_feature_eclic.h **** {
 495:../Firmware/RISCV/drivers/core_feature_eclic.h ****     return ((int32_t)(((ECLIC->CTRL[IRQn].INTATTR) & CLIC_INTATTR_TRIG_Msk)>>CLIC_INTATTR_TRIG_Pos)
 496:../Firmware/RISCV/drivers/core_feature_eclic.h **** }
 497:../Firmware/RISCV/drivers/core_feature_eclic.h **** 
 498:../Firmware/RISCV/drivers/core_feature_eclic.h **** /**
 499:../Firmware/RISCV/drivers/core_feature_eclic.h ****  * \brief  Set interrupt working mode for a specific interrupt
 500:../Firmware/RISCV/drivers/core_feature_eclic.h ****  * \details
 501:../Firmware/RISCV/drivers/core_feature_eclic.h ****  * This function set selective hardware vector or non-vector working mode of the specific interrupt
 502:../Firmware/RISCV/drivers/core_feature_eclic.h ****  * \param [in]      IRQn  Interrupt number
 503:../Firmware/RISCV/drivers/core_feature_eclic.h ****  * \param [in]      shv
 504:../Firmware/RISCV/drivers/core_feature_eclic.h ****  *                        - 0  non-vector mode, \ref ECLIC_NON_VECTOR_INTERRUPT
 505:../Firmware/RISCV/drivers/core_feature_eclic.h ****  *                        - 1  vector mode, \ref ECLIC_VECTOR_INTERRUPT
 506:../Firmware/RISCV/drivers/core_feature_eclic.h ****  * \remarks
 507:../Firmware/RISCV/drivers/core_feature_eclic.h ****  * - IRQn must not be negative.
 508:../Firmware/RISCV/drivers/core_feature_eclic.h ****  * \sa
 509:../Firmware/RISCV/drivers/core_feature_eclic.h ****  * - \ref ECLIC_GetShvIRQ
 510:../Firmware/RISCV/drivers/core_feature_eclic.h ****  */
 511:../Firmware/RISCV/drivers/core_feature_eclic.h **** __STATIC_FORCEINLINE void __ECLIC_SetShvIRQ(IRQn_Type IRQn, uint32_t shv)
 512:../Firmware/RISCV/drivers/core_feature_eclic.h **** {
 513:../Firmware/RISCV/drivers/core_feature_eclic.h ****     ECLIC->CTRL[IRQn].INTATTR &= ~CLIC_INTATTR_SHV_Msk;
 514:../Firmware/RISCV/drivers/core_feature_eclic.h ****     ECLIC->CTRL[IRQn].INTATTR |= (uint8_t)(shv<<CLIC_INTATTR_SHV_Pos);
 515:../Firmware/RISCV/drivers/core_feature_eclic.h **** }
 516:../Firmware/RISCV/drivers/core_feature_eclic.h **** 
 517:../Firmware/RISCV/drivers/core_feature_eclic.h **** /**
 518:../Firmware/RISCV/drivers/core_feature_eclic.h ****  * \brief  Get interrupt working mode for a specific interrupt
 519:../Firmware/RISCV/drivers/core_feature_eclic.h ****  * \details
 520:../Firmware/RISCV/drivers/core_feature_eclic.h ****  * This function get selective hardware vector or non-vector working mode of the specific interrupt
 521:../Firmware/RISCV/drivers/core_feature_eclic.h ****  * \param [in]      IRQn  Interrupt number
 522:../Firmware/RISCV/drivers/core_feature_eclic.h ****  * \return       shv
 523:../Firmware/RISCV/drivers/core_feature_eclic.h ****  *                        - 0  non-vector mode, \ref ECLIC_NON_VECTOR_INTERRUPT
 524:../Firmware/RISCV/drivers/core_feature_eclic.h ****  *                        - 1  vector mode, \ref ECLIC_VECTOR_INTERRUPT
 525:../Firmware/RISCV/drivers/core_feature_eclic.h ****  * \remarks
 526:../Firmware/RISCV/drivers/core_feature_eclic.h ****  * - IRQn must not be negative.
 527:../Firmware/RISCV/drivers/core_feature_eclic.h ****  * \sa
 528:../Firmware/RISCV/drivers/core_feature_eclic.h ****  * - \ref ECLIC_SetShvIRQ
 529:../Firmware/RISCV/drivers/core_feature_eclic.h ****  */
 530:../Firmware/RISCV/drivers/core_feature_eclic.h **** __STATIC_FORCEINLINE uint32_t __ECLIC_GetShvIRQ(IRQn_Type IRQn)
 531:../Firmware/RISCV/drivers/core_feature_eclic.h **** {
 532:../Firmware/RISCV/drivers/core_feature_eclic.h ****     return ((int32_t)(((ECLIC->CTRL[IRQn].INTATTR) & CLIC_INTATTR_SHV_Msk)>>CLIC_INTATTR_SHV_Pos));
 533:../Firmware/RISCV/drivers/core_feature_eclic.h **** }
 534:../Firmware/RISCV/drivers/core_feature_eclic.h **** 
 535:../Firmware/RISCV/drivers/core_feature_eclic.h **** /**
 536:../Firmware/RISCV/drivers/core_feature_eclic.h ****  * \brief  Modify ECLIC Interrupt Input Control Register for a specific interrupt
 537:../Firmware/RISCV/drivers/core_feature_eclic.h ****  * \details
 538:../Firmware/RISCV/drivers/core_feature_eclic.h ****  * This function modify ECLIC Interrupt Input Control(CLICINTCTL[i]) register of the specific inter
 539:../Firmware/RISCV/drivers/core_feature_eclic.h ****  * \param [in]      IRQn  Interrupt number
 540:../Firmware/RISCV/drivers/core_feature_eclic.h ****  * \param [in]      intctrl  Set value for CLICINTCTL[i] register
 541:../Firmware/RISCV/drivers/core_feature_eclic.h ****  * \remarks
 542:../Firmware/RISCV/drivers/core_feature_eclic.h ****  * - IRQn must not be negative.
 543:../Firmware/RISCV/drivers/core_feature_eclic.h ****  * \sa
 544:../Firmware/RISCV/drivers/core_feature_eclic.h ****  * - \ref ECLIC_GetCtrlIRQ
 545:../Firmware/RISCV/drivers/core_feature_eclic.h ****  */
 546:../Firmware/RISCV/drivers/core_feature_eclic.h **** __STATIC_FORCEINLINE void __ECLIC_SetCtrlIRQ(IRQn_Type IRQn, uint8_t intctrl)
 547:../Firmware/RISCV/drivers/core_feature_eclic.h **** {
 548:../Firmware/RISCV/drivers/core_feature_eclic.h ****     ECLIC->CTRL[IRQn].INTCTRL = intctrl;
 549:../Firmware/RISCV/drivers/core_feature_eclic.h **** }
 550:../Firmware/RISCV/drivers/core_feature_eclic.h **** 
 551:../Firmware/RISCV/drivers/core_feature_eclic.h **** /**
 552:../Firmware/RISCV/drivers/core_feature_eclic.h ****  * \brief  Get ECLIC Interrupt Input Control Register value for a specific interrupt
 553:../Firmware/RISCV/drivers/core_feature_eclic.h ****  * \details
 554:../Firmware/RISCV/drivers/core_feature_eclic.h ****  * This function modify ECLIC Interrupt Input Control register of the specific interrupt \em IRQn.
 555:../Firmware/RISCV/drivers/core_feature_eclic.h ****  * \param [in]      IRQn  Interrupt number
 556:../Firmware/RISCV/drivers/core_feature_eclic.h ****  * \return       value of ECLIC Interrupt Input Control register
 557:../Firmware/RISCV/drivers/core_feature_eclic.h ****  * \remarks
 558:../Firmware/RISCV/drivers/core_feature_eclic.h ****  * - IRQn must not be negative.
 559:../Firmware/RISCV/drivers/core_feature_eclic.h ****  * \sa
 560:../Firmware/RISCV/drivers/core_feature_eclic.h ****  * - \ref ECLIC_SetCtrlIRQ
 561:../Firmware/RISCV/drivers/core_feature_eclic.h ****  */
 562:../Firmware/RISCV/drivers/core_feature_eclic.h **** __STATIC_FORCEINLINE uint8_t __ECLIC_GetCtrlIRQ(IRQn_Type IRQn)
 563:../Firmware/RISCV/drivers/core_feature_eclic.h **** {
 564:../Firmware/RISCV/drivers/core_feature_eclic.h ****     return (ECLIC->CTRL[IRQn].INTCTRL);
 565:../Firmware/RISCV/drivers/core_feature_eclic.h **** }
 566:../Firmware/RISCV/drivers/core_feature_eclic.h **** 
 567:../Firmware/RISCV/drivers/core_feature_eclic.h **** /**
 568:../Firmware/RISCV/drivers/core_feature_eclic.h ****  * \brief  Set ECLIC Interrupt level of a specific interrupt
 569:../Firmware/RISCV/drivers/core_feature_eclic.h ****  * \details
 570:../Firmware/RISCV/drivers/core_feature_eclic.h ****  * This function set interrupt level of the specific interrupt \em IRQn.
 571:../Firmware/RISCV/drivers/core_feature_eclic.h ****  * \param [in]      IRQn  Interrupt number
 572:../Firmware/RISCV/drivers/core_feature_eclic.h ****  * \param [in]      lvl_abs   Interrupt level
 573:../Firmware/RISCV/drivers/core_feature_eclic.h ****  * \remarks
 574:../Firmware/RISCV/drivers/core_feature_eclic.h ****  * - IRQn must not be negative.
 575:../Firmware/RISCV/drivers/core_feature_eclic.h ****  * - If lvl_abs to be set is larger than the max level allowed, it will be force to be max level.
 576:../Firmware/RISCV/drivers/core_feature_eclic.h ****  * - When you set level value you need use clciinfo.nlbits to get the width of level.
 577:../Firmware/RISCV/drivers/core_feature_eclic.h ****  *   Then we could know the maximum of level. CLICINTCTLBITS is how many total bits are
 578:../Firmware/RISCV/drivers/core_feature_eclic.h ****  *   present in the CLICINTCTL register.
 579:../Firmware/RISCV/drivers/core_feature_eclic.h ****  * \sa
 580:../Firmware/RISCV/drivers/core_feature_eclic.h ****  * - \ref ECLIC_GetLevelIRQ
 581:../Firmware/RISCV/drivers/core_feature_eclic.h ****  */
 582:../Firmware/RISCV/drivers/core_feature_eclic.h **** __STATIC_FORCEINLINE void __ECLIC_SetLevelIRQ(IRQn_Type IRQn, uint8_t lvl_abs)
 583:../Firmware/RISCV/drivers/core_feature_eclic.h **** {
 584:../Firmware/RISCV/drivers/core_feature_eclic.h ****     uint8_t nlbits = __ECLIC_GetCfgNlbits();
 245              		.loc 3 584 13
 246 0038 2305F4FC 		sb	a5,-54(s0)
 585:../Firmware/RISCV/drivers/core_feature_eclic.h ****     uint8_t intctlbits = (uint8_t)__ECLIC_INTCTLBITS;
 247              		.loc 3 585 13
 248 003c 9147     		li	a5,4
 249 003e A304F4FC 		sb	a5,-55(s0)
 586:../Firmware/RISCV/drivers/core_feature_eclic.h **** 
 587:../Firmware/RISCV/drivers/core_feature_eclic.h ****     if (nlbits == 0) {
 250              		.loc 3 587 8
 251 0042 8347A4FC 		lbu	a5,-54(s0)
 252 0046 F1C7     		beq	a5,zero,.L17
 588:../Firmware/RISCV/drivers/core_feature_eclic.h ****         return;
 589:../Firmware/RISCV/drivers/core_feature_eclic.h ****     }
 590:../Firmware/RISCV/drivers/core_feature_eclic.h **** 
 591:../Firmware/RISCV/drivers/core_feature_eclic.h ****     if (nlbits > intctlbits) {
 253              		.loc 3 591 8
 254 0048 0347A4FC 		lbu	a4,-54(s0)
 255 004c 834794FC 		lbu	a5,-55(s0)
 256 0050 63F6E700 		bleu	a4,a5,.L9
 592:../Firmware/RISCV/drivers/core_feature_eclic.h ****         nlbits = intctlbits;
 257              		.loc 3 592 16
 258 0054 834794FC 		lbu	a5,-55(s0)
 259 0058 2305F4FC 		sb	a5,-54(s0)
 260              	.L9:
 593:../Firmware/RISCV/drivers/core_feature_eclic.h ****     }
 594:../Firmware/RISCV/drivers/core_feature_eclic.h ****     uint8_t maxlvl = ((1 << nlbits) - 1);
 261              		.loc 3 594 26
 262 005c 8347A4FC 		lbu	a5,-54(s0)
 263 0060 0547     		li	a4,1
 264 0062 B317F700 		sll	a5,a4,a5
 265              		.loc 3 594 37
 266 0066 93F7F70F 		andi	a5,a5,0xff
 267              		.loc 3 594 13
 268 006a FD17     		addi	a5,a5,-1
 269 006c 2304F4FC 		sb	a5,-56(s0)
 595:../Firmware/RISCV/drivers/core_feature_eclic.h ****     if (lvl_abs > maxlvl) {
 270              		.loc 3 595 8
 271 0070 0347B4FC 		lbu	a4,-53(s0)
 272 0074 834784FC 		lbu	a5,-56(s0)
 273 0078 63F6E700 		bleu	a4,a5,.L10
 596:../Firmware/RISCV/drivers/core_feature_eclic.h ****         lvl_abs = maxlvl;
 274              		.loc 3 596 17
 275 007c 834784FC 		lbu	a5,-56(s0)
 276 0080 A305F4FC 		sb	a5,-53(s0)
 277              	.L10:
 597:../Firmware/RISCV/drivers/core_feature_eclic.h ****     }
 598:../Firmware/RISCV/drivers/core_feature_eclic.h ****     uint8_t lvl = lvl_abs << (ECLIC_MAX_NLBITS - nlbits);
 278              		.loc 3 598 27
 279 0084 0347B4FC 		lbu	a4,-53(s0)
 280              		.loc 3 598 48
 281 0088 8347A4FC 		lbu	a5,-54(s0)
 282 008c A146     		li	a3,8
 283 008e B387F640 		sub	a5,a3,a5
 284              		.loc 3 598 27
 285 0092 B317F700 		sll	a5,a4,a5
 286              		.loc 3 598 13
 287 0096 A303F4FC 		sb	a5,-57(s0)
 288 009a 8327C4FC 		lw	a5,-52(s0)
 289 009e 2320F4FC 		sw	a5,-64(s0)
 290              	.LBB62:
 291              	.LBB63:
 564:../Firmware/RISCV/drivers/core_feature_eclic.h **** }
 292              		.loc 3 564 18
 293 00a2 370700D2 		li	a4,-771751936
 564:../Firmware/RISCV/drivers/core_feature_eclic.h **** }
 294              		.loc 3 564 30
 295 00a6 832704FC 		lw	a5,-64(s0)
 296 00aa 93870740 		addi	a5,a5,1024
 297 00ae 8A07     		slli	a5,a5,2
 298 00b0 BA97     		add	a5,a4,a5
 299 00b2 83C73700 		lbu	a5,3(a5)
 300 00b6 93F7F70F 		andi	a5,a5,0xff
 301              	.LBE63:
 302              	.LBE62:
 599:../Firmware/RISCV/drivers/core_feature_eclic.h ****     uint8_t cur_ctrl = __ECLIC_GetCtrlIRQ(IRQn);
 303              		.loc 3 599 24
 304 00ba A30FF4FA 		sb	a5,-65(s0)
 600:../Firmware/RISCV/drivers/core_feature_eclic.h ****     cur_ctrl = cur_ctrl << nlbits;
 305              		.loc 3 600 25
 306 00be 0347F4FB 		lbu	a4,-65(s0)
 307 00c2 8347A4FC 		lbu	a5,-54(s0)
 308 00c6 B317F700 		sll	a5,a4,a5
 309              		.loc 3 600 14
 310 00ca A30FF4FA 		sb	a5,-65(s0)
 601:../Firmware/RISCV/drivers/core_feature_eclic.h ****     cur_ctrl = cur_ctrl >> nlbits;
 311              		.loc 3 601 25
 312 00ce 0347F4FB 		lbu	a4,-65(s0)
 313 00d2 8347A4FC 		lbu	a5,-54(s0)
 314 00d6 B357F740 		sra	a5,a4,a5
 315              		.loc 3 601 14
 316 00da A30FF4FA 		sb	a5,-65(s0)
 602:../Firmware/RISCV/drivers/core_feature_eclic.h ****     __ECLIC_SetCtrlIRQ(IRQn, (cur_ctrl | lvl));
 317              		.loc 3 602 5
 318 00de 034774FC 		lbu	a4,-57(s0)
 319 00e2 8347F4FB 		lbu	a5,-65(s0)
 320 00e6 D98F     		or	a5,a4,a5
 321 00e8 93F7F70F 		andi	a5,a5,0xff
 322 00ec 0327C4FC 		lw	a4,-52(s0)
 323 00f0 232CE4FA 		sw	a4,-72(s0)
 324 00f4 A30BF4FA 		sb	a5,-73(s0)
 325              	.LBB64:
 326              	.LBB65:
 548:../Firmware/RISCV/drivers/core_feature_eclic.h **** }
 327              		.loc 3 548 10
 328 00f8 370700D2 		li	a4,-771751936
 548:../Firmware/RISCV/drivers/core_feature_eclic.h **** }
 329              		.loc 3 548 31
 330 00fc 832784FB 		lw	a5,-72(s0)
 331 0100 93870740 		addi	a5,a5,1024
 332 0104 8A07     		slli	a5,a5,2
 333 0106 BA97     		add	a5,a4,a5
 334 0108 034774FB 		lbu	a4,-73(s0)
 335 010c A381E700 		sb	a4,3(a5)
 549:../Firmware/RISCV/drivers/core_feature_eclic.h **** 
 336              		.loc 3 549 1
 337 0110 11A0     		j	.L8
 338              	.L17:
 339              	.LBE65:
 340              	.LBE64:
 588:../Firmware/RISCV/drivers/core_feature_eclic.h ****     }
 341              		.loc 3 588 9
 342 0112 0100     		nop
 343              	.L8:
 344 0114 8327C4FA 		lw	a5,-84(s0)
 345 0118 2324F4FE 		sw	a5,-24(s0)
 346 011c 8347A4FA 		lbu	a5,-86(s0)
 347 0120 A303F4FE 		sb	a5,-25(s0)
 348              	.LBE59:
 349              	.LBE58:
 350              	.LBB66:
 351              	.LBB67:
 352              	.LBB68:
 353              	.LBB69:
 276:../Firmware/RISCV/drivers/core_feature_eclic.h **** }
 354              		.loc 3 276 30
 355 0124 B70700D2 		li	a5,-771751936
 356 0128 83C70700 		lbu	a5,0(a5)
 357 012c 93F7F70F 		andi	a5,a5,0xff
 276:../Firmware/RISCV/drivers/core_feature_eclic.h **** }
 358              		.loc 3 276 13
 359 0130 8583     		srli	a5,a5,1
 360 0132 BD8B     		andi	a5,a5,15
 361              	.LBE69:
 362              	.LBE68:
 603:../Firmware/RISCV/drivers/core_feature_eclic.h **** }
 604:../Firmware/RISCV/drivers/core_feature_eclic.h **** 
 605:../Firmware/RISCV/drivers/core_feature_eclic.h **** /**
 606:../Firmware/RISCV/drivers/core_feature_eclic.h ****  * \brief  Get ECLIC Interrupt level of a specific interrupt
 607:../Firmware/RISCV/drivers/core_feature_eclic.h ****  * \details
 608:../Firmware/RISCV/drivers/core_feature_eclic.h ****  * This function get interrupt level of the specific interrupt \em IRQn.
 609:../Firmware/RISCV/drivers/core_feature_eclic.h ****  * \param [in]      IRQn  Interrupt number
 610:../Firmware/RISCV/drivers/core_feature_eclic.h ****  * \return         Interrupt level
 611:../Firmware/RISCV/drivers/core_feature_eclic.h ****  * \remarks
 612:../Firmware/RISCV/drivers/core_feature_eclic.h ****  * - IRQn must not be negative.
 613:../Firmware/RISCV/drivers/core_feature_eclic.h ****  * \sa
 614:../Firmware/RISCV/drivers/core_feature_eclic.h ****  * - \ref ECLIC_SetLevelIRQ
 615:../Firmware/RISCV/drivers/core_feature_eclic.h ****  */
 616:../Firmware/RISCV/drivers/core_feature_eclic.h **** __STATIC_FORCEINLINE uint8_t __ECLIC_GetLevelIRQ(IRQn_Type IRQn)
 617:../Firmware/RISCV/drivers/core_feature_eclic.h **** {
 618:../Firmware/RISCV/drivers/core_feature_eclic.h ****     uint8_t nlbits = __ECLIC_GetCfgNlbits();
 619:../Firmware/RISCV/drivers/core_feature_eclic.h ****     uint8_t intctlbits = (uint8_t)__ECLIC_INTCTLBITS;
 620:../Firmware/RISCV/drivers/core_feature_eclic.h **** 
 621:../Firmware/RISCV/drivers/core_feature_eclic.h ****     if (nlbits == 0) {
 622:../Firmware/RISCV/drivers/core_feature_eclic.h ****         return 0;
 623:../Firmware/RISCV/drivers/core_feature_eclic.h ****     }
 624:../Firmware/RISCV/drivers/core_feature_eclic.h **** 
 625:../Firmware/RISCV/drivers/core_feature_eclic.h ****     if (nlbits > intctlbits) {
 626:../Firmware/RISCV/drivers/core_feature_eclic.h ****         nlbits = intctlbits;
 627:../Firmware/RISCV/drivers/core_feature_eclic.h ****     }
 628:../Firmware/RISCV/drivers/core_feature_eclic.h ****     uint8_t intctrl = __ECLIC_GetCtrlIRQ(IRQn);
 629:../Firmware/RISCV/drivers/core_feature_eclic.h ****     uint8_t lvl_abs = intctrl >> (ECLIC_MAX_NLBITS - nlbits);
 630:../Firmware/RISCV/drivers/core_feature_eclic.h ****     return lvl_abs;
 631:../Firmware/RISCV/drivers/core_feature_eclic.h **** }
 632:../Firmware/RISCV/drivers/core_feature_eclic.h **** 
 633:../Firmware/RISCV/drivers/core_feature_eclic.h **** /**
 634:../Firmware/RISCV/drivers/core_feature_eclic.h ****  * \brief  Get ECLIC Interrupt priority of a specific interrupt
 635:../Firmware/RISCV/drivers/core_feature_eclic.h ****  * \details
 636:../Firmware/RISCV/drivers/core_feature_eclic.h ****  * This function get interrupt priority of the specific interrupt \em IRQn.
 637:../Firmware/RISCV/drivers/core_feature_eclic.h ****  * \param [in]      IRQn  Interrupt number
 638:../Firmware/RISCV/drivers/core_feature_eclic.h ****  * \param [in]      pri   Interrupt priority
 639:../Firmware/RISCV/drivers/core_feature_eclic.h ****  * \remarks
 640:../Firmware/RISCV/drivers/core_feature_eclic.h ****  * - IRQn must not be negative.
 641:../Firmware/RISCV/drivers/core_feature_eclic.h ****  * - If pri to be set is larger than the max priority allowed, it will be force to be max priority.
 642:../Firmware/RISCV/drivers/core_feature_eclic.h ****  * - Priority width is CLICINTCTLBITS minus clciinfo.nlbits if clciinfo.nlbits
 643:../Firmware/RISCV/drivers/core_feature_eclic.h ****  *   is less than CLICINTCTLBITS. Otherwise priority width is 0.
 644:../Firmware/RISCV/drivers/core_feature_eclic.h ****  * \sa
 645:../Firmware/RISCV/drivers/core_feature_eclic.h ****  * - \ref ECLIC_GetPriorityIRQ
 646:../Firmware/RISCV/drivers/core_feature_eclic.h ****  */
 647:../Firmware/RISCV/drivers/core_feature_eclic.h **** __STATIC_FORCEINLINE void __ECLIC_SetPriorityIRQ(IRQn_Type IRQn, uint8_t pri)
 648:../Firmware/RISCV/drivers/core_feature_eclic.h **** {
 649:../Firmware/RISCV/drivers/core_feature_eclic.h ****     uint8_t nlbits = __ECLIC_GetCfgNlbits();
 363              		.loc 3 649 13
 364 0134 2303F4FE 		sb	a5,-26(s0)
 650:../Firmware/RISCV/drivers/core_feature_eclic.h ****     uint8_t intctlbits = (uint8_t)__ECLIC_INTCTLBITS;
 365              		.loc 3 650 13
 366 0138 9147     		li	a5,4
 367 013a A302F4FE 		sb	a5,-27(s0)
 651:../Firmware/RISCV/drivers/core_feature_eclic.h ****     if (nlbits < intctlbits) {
 368              		.loc 3 651 8
 369 013e 034764FE 		lbu	a4,-26(s0)
 370 0142 834754FE 		lbu	a5,-27(s0)
 371 0146 6376F70E 		bgeu	a4,a5,.L18
 372              	.LBB70:
 652:../Firmware/RISCV/drivers/core_feature_eclic.h ****         uint8_t maxpri = ((1 << (intctlbits - nlbits)) - 1);
 373              		.loc 3 652 45
 374 014a 034754FE 		lbu	a4,-27(s0)
 375 014e 834764FE 		lbu	a5,-26(s0)
 376 0152 B307F740 		sub	a5,a4,a5
 377              		.loc 3 652 30
 378 0156 0547     		li	a4,1
 379 0158 B317F700 		sll	a5,a4,a5
 380              		.loc 3 652 56
 381 015c 93F7F70F 		andi	a5,a5,0xff
 382              		.loc 3 652 17
 383 0160 FD17     		addi	a5,a5,-1
 384 0162 2302F4FE 		sb	a5,-28(s0)
 653:../Firmware/RISCV/drivers/core_feature_eclic.h ****         if (pri > maxpri) {
 385              		.loc 3 653 12
 386 0166 034774FE 		lbu	a4,-25(s0)
 387 016a 834744FE 		lbu	a5,-28(s0)
 388 016e 63F6E700 		bleu	a4,a5,.L14
 654:../Firmware/RISCV/drivers/core_feature_eclic.h ****             pri = maxpri;
 389              		.loc 3 654 17
 390 0172 834744FE 		lbu	a5,-28(s0)
 391 0176 A303F4FE 		sb	a5,-25(s0)
 392              	.L14:
 655:../Firmware/RISCV/drivers/core_feature_eclic.h ****         }
 656:../Firmware/RISCV/drivers/core_feature_eclic.h ****         pri = pri << (ECLIC_MAX_NLBITS - intctlbits);
 393              		.loc 3 656 19
 394 017a 034774FE 		lbu	a4,-25(s0)
 395              		.loc 3 656 40
 396 017e 834754FE 		lbu	a5,-27(s0)
 397 0182 A146     		li	a3,8
 398 0184 B387F640 		sub	a5,a3,a5
 399              		.loc 3 656 19
 400 0188 B317F700 		sll	a5,a4,a5
 401              		.loc 3 656 13
 402 018c A303F4FE 		sb	a5,-25(s0)
 657:../Firmware/RISCV/drivers/core_feature_eclic.h ****         uint8_t mask = ((uint8_t)(-1)) >> intctlbits;
 403              		.loc 3 657 40
 404 0190 834754FE 		lbu	a5,-27(s0)
 405 0194 1307F00F 		li	a4,255
 406 0198 B357F740 		sra	a5,a4,a5
 407              		.loc 3 657 17
 408 019c A301F4FE 		sb	a5,-29(s0)
 658:../Firmware/RISCV/drivers/core_feature_eclic.h ****         pri = pri | mask;
 409              		.loc 3 658 13
 410 01a0 034774FE 		lbu	a4,-25(s0)
 411 01a4 834734FE 		lbu	a5,-29(s0)
 412 01a8 D98F     		or	a5,a4,a5
 413 01aa A303F4FE 		sb	a5,-25(s0)
 414 01ae 832784FE 		lw	a5,-24(s0)
 415 01b2 232EF4FC 		sw	a5,-36(s0)
 416              	.LBB71:
 417              	.LBB72:
 564:../Firmware/RISCV/drivers/core_feature_eclic.h **** }
 418              		.loc 3 564 18
 419 01b6 370700D2 		li	a4,-771751936
 564:../Firmware/RISCV/drivers/core_feature_eclic.h **** }
 420              		.loc 3 564 30
 421 01ba 8327C4FD 		lw	a5,-36(s0)
 422 01be 93870740 		addi	a5,a5,1024
 423 01c2 8A07     		slli	a5,a5,2
 424 01c4 BA97     		add	a5,a4,a5
 425 01c6 83C73700 		lbu	a5,3(a5)
 426 01ca 93F7F70F 		andi	a5,a5,0xff
 427              	.LBE72:
 428              	.LBE71:
 659:../Firmware/RISCV/drivers/core_feature_eclic.h ****         uint8_t cur_ctrl = __ECLIC_GetCtrlIRQ(IRQn);
 429              		.loc 3 659 28
 430 01ce A30DF4FC 		sb	a5,-37(s0)
 660:../Firmware/RISCV/drivers/core_feature_eclic.h ****         cur_ctrl = cur_ctrl >> (ECLIC_MAX_NLBITS - nlbits);
 431              		.loc 3 660 29
 432 01d2 0347B4FD 		lbu	a4,-37(s0)
 433              		.loc 3 660 50
 434 01d6 834764FE 		lbu	a5,-26(s0)
 435 01da A146     		li	a3,8
 436 01dc B387F640 		sub	a5,a3,a5
 437              		.loc 3 660 29
 438 01e0 B357F740 		sra	a5,a4,a5
 439              		.loc 3 660 18
 440 01e4 A30DF4FC 		sb	a5,-37(s0)
 661:../Firmware/RISCV/drivers/core_feature_eclic.h ****         cur_ctrl = cur_ctrl << (ECLIC_MAX_NLBITS - nlbits);
 441              		.loc 3 661 29
 442 01e8 0347B4FD 		lbu	a4,-37(s0)
 443              		.loc 3 661 50
 444 01ec 834764FE 		lbu	a5,-26(s0)
 445 01f0 A146     		li	a3,8
 446 01f2 B387F640 		sub	a5,a3,a5
 447              		.loc 3 661 29
 448 01f6 B317F700 		sll	a5,a4,a5
 449              		.loc 3 661 18
 450 01fa A30DF4FC 		sb	a5,-37(s0)
 662:../Firmware/RISCV/drivers/core_feature_eclic.h ****         __ECLIC_SetCtrlIRQ(IRQn, (cur_ctrl | pri));
 451              		.loc 3 662 9
 452 01fe 034774FE 		lbu	a4,-25(s0)
 453 0202 8347B4FD 		lbu	a5,-37(s0)
 454 0206 D98F     		or	a5,a4,a5
 455 0208 93F7F70F 		andi	a5,a5,0xff
 456 020c 032784FE 		lw	a4,-24(s0)
 457 0210 232AE4FC 		sw	a4,-44(s0)
 458 0214 A309F4FC 		sb	a5,-45(s0)
 459              	.LBB73:
 460              	.LBB74:
 548:../Firmware/RISCV/drivers/core_feature_eclic.h **** }
 461              		.loc 3 548 10
 462 0218 370700D2 		li	a4,-771751936
 548:../Firmware/RISCV/drivers/core_feature_eclic.h **** }
 463              		.loc 3 548 31
 464 021c 832744FD 		lw	a5,-44(s0)
 465 0220 93870740 		addi	a5,a5,1024
 466 0224 8A07     		slli	a5,a5,2
 467 0226 BA97     		add	a5,a4,a5
 468 0228 034734FD 		lbu	a4,-45(s0)
 469 022c A381E700 		sb	a4,3(a5)
 549:../Firmware/RISCV/drivers/core_feature_eclic.h **** 
 470              		.loc 3 549 1
 471 0230 0100     		nop
 472              	.L18:
 473              	.LBE74:
 474              	.LBE73:
 475              	.LBE70:
 663:../Firmware/RISCV/drivers/core_feature_eclic.h ****     }
 664:../Firmware/RISCV/drivers/core_feature_eclic.h **** }
 476              		.loc 3 664 1
 477 0232 0100     		nop
 478 0234 8327C4FA 		lw	a5,-84(s0)
 479 0238 2326F4FE 		sw	a5,-20(s0)
 480              	.LBE67:
 481              	.LBE66:
 482              	.LBB75:
 483              	.LBB76:
 367:../Firmware/RISCV/drivers/core_feature_eclic.h **** }
 484              		.loc 3 367 29
 485 023c 370700D2 		li	a4,-771751936
 486 0240 8327C4FE 		lw	a5,-20(s0)
 487 0244 93870740 		addi	a5,a5,1024
 488 0248 8A07     		slli	a5,a5,2
 489 024a BA97     		add	a5,a4,a5
 490 024c 83C71700 		lbu	a5,1(a5)
 491 0250 93F7F70F 		andi	a5,a5,0xff
 492 0254 B70600D2 		li	a3,-771751936
 493 0258 93E71700 		ori	a5,a5,1
 494 025c 13F7F70F 		andi	a4,a5,0xff
 495 0260 8327C4FE 		lw	a5,-20(s0)
 496 0264 93870740 		addi	a5,a5,1024
 497 0268 8A07     		slli	a5,a5,2
 498 026a B697     		add	a5,a3,a5
 499 026c A380E700 		sb	a4,1(a5)
 368:../Firmware/RISCV/drivers/core_feature_eclic.h **** 
 500              		.loc 3 368 1
 501 0270 0100     		nop
 502              	.LBE76:
 503              	.LBE75:
  97:../Firmware/GD32VW55x_standard_peripheral/Source/gd32vw55x_eclic.c ****     /* level trigger, non-vector mode */
  98:../Firmware/GD32VW55x_standard_peripheral/Source/gd32vw55x_eclic.c ****     ECLIC_SetLevelIRQ(source, level);
  99:../Firmware/GD32VW55x_standard_peripheral/Source/gd32vw55x_eclic.c ****     ECLIC_SetPriorityIRQ(source, priority);
 100:../Firmware/GD32VW55x_standard_peripheral/Source/gd32vw55x_eclic.c ****     ECLIC_EnableIRQ(source);
 101:../Firmware/GD32VW55x_standard_peripheral/Source/gd32vw55x_eclic.c **** }
 504              		.loc 1 101 1
 505 0272 0100     		nop
 506 0274 7644     		lw	s0,92(sp)
 507              		.cfi_restore 8
 508              		.cfi_def_cfa 2, 96
 509 0276 2561     		addi	sp,sp,96
 510              		.cfi_def_cfa_offset 0
 511 0278 8280     		jr	ra
 512              		.cfi_endproc
 513              	.LFE351:
 515              		.section	.text.eclic_irq_disable,"ax",@progbits
 516              		.align	1
 517              		.globl	eclic_irq_disable
 519              	eclic_irq_disable:
 520              	.LFB352:
 102:../Firmware/GD32VW55x_standard_peripheral/Source/gd32vw55x_eclic.c **** 
 103:../Firmware/GD32VW55x_standard_peripheral/Source/gd32vw55x_eclic.c **** /*!
 104:../Firmware/GD32VW55x_standard_peripheral/Source/gd32vw55x_eclic.c ****     \brief      disable the interrupt request
 105:../Firmware/GD32VW55x_standard_peripheral/Source/gd32vw55x_eclic.c ****     \param[in]  source: interrupt request, detailed in IRQn_Type
 106:../Firmware/GD32VW55x_standard_peripheral/Source/gd32vw55x_eclic.c ****     \param[out] none
 107:../Firmware/GD32VW55x_standard_peripheral/Source/gd32vw55x_eclic.c ****     \retval     none
 108:../Firmware/GD32VW55x_standard_peripheral/Source/gd32vw55x_eclic.c **** */
 109:../Firmware/GD32VW55x_standard_peripheral/Source/gd32vw55x_eclic.c **** void eclic_irq_disable(IRQn_Type source)
 110:../Firmware/GD32VW55x_standard_peripheral/Source/gd32vw55x_eclic.c **** {
 521              		.loc 1 110 1
 522              		.cfi_startproc
 523 0000 7971     		addi	sp,sp,-48
 524              		.cfi_def_cfa_offset 48
 525 0002 22D6     		sw	s0,44(sp)
 526              		.cfi_offset 8, -4
 527 0004 0018     		addi	s0,sp,48
 528              		.cfi_def_cfa 8, 0
 529 0006 232EA4FC 		sw	a0,-36(s0)
 530 000a 8327C4FD 		lw	a5,-36(s0)
 531 000e 2326F4FE 		sw	a5,-20(s0)
 532              	.LBB77:
 533              	.LBB78:
 401:../Firmware/RISCV/drivers/core_feature_eclic.h **** }
 534              		.loc 3 401 29
 535 0012 370700D2 		li	a4,-771751936
 536 0016 8327C4FE 		lw	a5,-20(s0)
 537 001a 93870740 		addi	a5,a5,1024
 538 001e 8A07     		slli	a5,a5,2
 539 0020 BA97     		add	a5,a4,a5
 540 0022 83C71700 		lbu	a5,1(a5)
 541 0026 93F7F70F 		andi	a5,a5,0xff
 542 002a B70600D2 		li	a3,-771751936
 543 002e F99B     		andi	a5,a5,-2
 544 0030 13F7F70F 		andi	a4,a5,0xff
 545 0034 8327C4FE 		lw	a5,-20(s0)
 546 0038 93870740 		addi	a5,a5,1024
 547 003c 8A07     		slli	a5,a5,2
 548 003e B697     		add	a5,a3,a5
 549 0040 A380E700 		sb	a4,1(a5)
 402:../Firmware/RISCV/drivers/core_feature_eclic.h **** 
 550              		.loc 3 402 1
 551 0044 0100     		nop
 552              	.LBE78:
 553              	.LBE77:
 111:../Firmware/GD32VW55x_standard_peripheral/Source/gd32vw55x_eclic.c ****     ECLIC_DisableIRQ(source);
 112:../Firmware/GD32VW55x_standard_peripheral/Source/gd32vw55x_eclic.c **** }
 554              		.loc 1 112 1
 555 0046 0100     		nop
 556 0048 3254     		lw	s0,44(sp)
 557              		.cfi_restore 8
 558              		.cfi_def_cfa 2, 48
 559 004a 4561     		addi	sp,sp,48
 560              		.cfi_def_cfa_offset 0
 561 004c 8280     		jr	ra
 562              		.cfi_endproc
 563              	.LFE352:
 565              		.section	.text.eclic_system_reset,"ax",@progbits
 566              		.align	1
 567              		.globl	eclic_system_reset
 569              	eclic_system_reset:
 570              	.LFB353:
 113:../Firmware/GD32VW55x_standard_peripheral/Source/gd32vw55x_eclic.c **** 
 114:../Firmware/GD32VW55x_standard_peripheral/Source/gd32vw55x_eclic.c **** /*!
 115:../Firmware/GD32VW55x_standard_peripheral/Source/gd32vw55x_eclic.c ****     \brief      reset system
 116:../Firmware/GD32VW55x_standard_peripheral/Source/gd32vw55x_eclic.c ****     \param[in]  none
 117:../Firmware/GD32VW55x_standard_peripheral/Source/gd32vw55x_eclic.c ****     \param[out] none
 118:../Firmware/GD32VW55x_standard_peripheral/Source/gd32vw55x_eclic.c ****     \retval     none
 119:../Firmware/GD32VW55x_standard_peripheral/Source/gd32vw55x_eclic.c **** */
 120:../Firmware/GD32VW55x_standard_peripheral/Source/gd32vw55x_eclic.c **** void eclic_system_reset(void)
 121:../Firmware/GD32VW55x_standard_peripheral/Source/gd32vw55x_eclic.c **** {
 571              		.loc 1 121 1
 572              		.cfi_startproc
 573 0000 4111     		addi	sp,sp,-16
 574              		.cfi_def_cfa_offset 16
 575 0002 22C6     		sw	s0,12(sp)
 576              		.cfi_offset 8, -4
 577 0004 0008     		addi	s0,sp,16
 578              		.cfi_def_cfa 8, 0
 579              	.LBB79:
 580              	.LBB80:
 581              		.file 4 "../Firmware/RISCV/drivers/core_feature_timer.h"
   1:../Firmware/RISCV/drivers/core_feature_timer.h **** /*
   2:../Firmware/RISCV/drivers/core_feature_timer.h ****  * Copyright (c) 2019 Nuclei Limited. All rights reserved.
   3:../Firmware/RISCV/drivers/core_feature_timer.h ****  *
   4:../Firmware/RISCV/drivers/core_feature_timer.h ****  * SPDX-License-Identifier: Apache-2.0
   5:../Firmware/RISCV/drivers/core_feature_timer.h ****  *
   6:../Firmware/RISCV/drivers/core_feature_timer.h ****  * Licensed under the Apache License, Version 2.0 (the License); you may
   7:../Firmware/RISCV/drivers/core_feature_timer.h ****  * not use this file except in compliance with the License.
   8:../Firmware/RISCV/drivers/core_feature_timer.h ****  * You may obtain a copy of the License at
   9:../Firmware/RISCV/drivers/core_feature_timer.h ****  *
  10:../Firmware/RISCV/drivers/core_feature_timer.h ****  * www.apache.org/licenses/LICENSE-2.0
  11:../Firmware/RISCV/drivers/core_feature_timer.h ****  *
  12:../Firmware/RISCV/drivers/core_feature_timer.h ****  * Unless required by applicable law or agreed to in writing, software
  13:../Firmware/RISCV/drivers/core_feature_timer.h ****  * distributed under the License is distributed on an AS IS BASIS, WITHOUT
  14:../Firmware/RISCV/drivers/core_feature_timer.h ****  * WARRANTIES OR CONDITIONS OF ANY KIND, either express or implied.
  15:../Firmware/RISCV/drivers/core_feature_timer.h ****  * See the License for the specific language governing permissions and
  16:../Firmware/RISCV/drivers/core_feature_timer.h ****  * limitations under the License.
  17:../Firmware/RISCV/drivers/core_feature_timer.h ****  */
  18:../Firmware/RISCV/drivers/core_feature_timer.h **** #ifndef __CORE_FEATURE_TIMER_H__
  19:../Firmware/RISCV/drivers/core_feature_timer.h **** #define __CORE_FEATURE_TIMER_H__
  20:../Firmware/RISCV/drivers/core_feature_timer.h **** /*!
  21:../Firmware/RISCV/drivers/core_feature_timer.h ****  * @file     core_feature_timer.h
  22:../Firmware/RISCV/drivers/core_feature_timer.h ****  * @brief    System Timer feature API header file for Nuclei N/NX Core
  23:../Firmware/RISCV/drivers/core_feature_timer.h ****  */
  24:../Firmware/RISCV/drivers/core_feature_timer.h **** /*
  25:../Firmware/RISCV/drivers/core_feature_timer.h ****  * System Timer Feature Configuration Macro:
  26:../Firmware/RISCV/drivers/core_feature_timer.h ****  * 1. __SYSTIMER_PRESENT:  Define whether Private System Timer is present or not.
  27:../Firmware/RISCV/drivers/core_feature_timer.h ****  *   * 0: Not present
  28:../Firmware/RISCV/drivers/core_feature_timer.h ****  *   * 1: Present
  29:../Firmware/RISCV/drivers/core_feature_timer.h ****  * 2. __SYSTIMER_BASEADDR:  Define the base address of the System Timer.
  30:../Firmware/RISCV/drivers/core_feature_timer.h ****  */
  31:../Firmware/RISCV/drivers/core_feature_timer.h **** #ifdef __cplusplus
  32:../Firmware/RISCV/drivers/core_feature_timer.h ****  extern "C" {
  33:../Firmware/RISCV/drivers/core_feature_timer.h **** #endif
  34:../Firmware/RISCV/drivers/core_feature_timer.h **** 
  35:../Firmware/RISCV/drivers/core_feature_timer.h **** #if defined(__SYSTIMER_PRESENT) && (__SYSTIMER_PRESENT == 1)
  36:../Firmware/RISCV/drivers/core_feature_timer.h **** /**
  37:../Firmware/RISCV/drivers/core_feature_timer.h ****  * \defgroup NMSIS_Core_SysTimer_Registers     Register Define and Type Definitions Of System Timer
  38:../Firmware/RISCV/drivers/core_feature_timer.h ****  * \ingroup NMSIS_Core_Registers
  39:../Firmware/RISCV/drivers/core_feature_timer.h ****  * \brief   Type definitions and defines for system timer registers.
  40:../Firmware/RISCV/drivers/core_feature_timer.h ****  *
  41:../Firmware/RISCV/drivers/core_feature_timer.h ****  * @{
  42:../Firmware/RISCV/drivers/core_feature_timer.h ****  */
  43:../Firmware/RISCV/drivers/core_feature_timer.h **** /**
  44:../Firmware/RISCV/drivers/core_feature_timer.h ****  * \brief  Structure type to access the System Timer (SysTimer).
  45:../Firmware/RISCV/drivers/core_feature_timer.h ****  * \details
  46:../Firmware/RISCV/drivers/core_feature_timer.h ****  * Structure definition to access the system timer(SysTimer).
  47:../Firmware/RISCV/drivers/core_feature_timer.h ****  * \remarks
  48:../Firmware/RISCV/drivers/core_feature_timer.h ****  * - MSFTRST register is introduced in Nuclei N Core version 1.3(\ref __NUCLEI_N_REV >= 0x0103)
  49:../Firmware/RISCV/drivers/core_feature_timer.h ****  * - MSTOP register is renamed to MTIMECTL register in Nuclei N Core version 1.4(\ref __NUCLEI_N_RE
  50:../Firmware/RISCV/drivers/core_feature_timer.h ****  * - CMPCLREN and CLKSRC bit in MTIMECTL register is introduced in Nuclei N Core version 1.4(\ref _
  51:../Firmware/RISCV/drivers/core_feature_timer.h ****  */
  52:../Firmware/RISCV/drivers/core_feature_timer.h **** typedef struct {
  53:../Firmware/RISCV/drivers/core_feature_timer.h ****     __IOM uint64_t MTIMER;                  /*!< Offset: 0x000 (R/W)  System Timer current value 64
  54:../Firmware/RISCV/drivers/core_feature_timer.h ****     __IOM uint64_t MTIMERCMP;               /*!< Offset: 0x008 (R/W)  System Timer compare Value 64
  55:../Firmware/RISCV/drivers/core_feature_timer.h ****     __IOM uint32_t RESERVED0[0x3F8];        /*!< Offset: 0x010 - 0xFEC Reserved */
  56:../Firmware/RISCV/drivers/core_feature_timer.h ****     __IOM uint32_t MSFTRST;                 /*!< Offset: 0xFF0 (R/W)  System Timer Software Core Re
  57:../Firmware/RISCV/drivers/core_feature_timer.h ****     __IOM uint32_t RESERVED1;               /*!< Offset: 0xFF4 Reserved */
  58:../Firmware/RISCV/drivers/core_feature_timer.h ****     __IOM uint32_t MTIMECTL;                /*!< Offset: 0xFF8 (R/W)  System Timer Control Register
  59:../Firmware/RISCV/drivers/core_feature_timer.h ****     __IOM uint32_t MSIP;                    /*!< Offset: 0xFFC (R/W)  System Timer SW interrupt Reg
  60:../Firmware/RISCV/drivers/core_feature_timer.h **** } SysTimer_Type;
  61:../Firmware/RISCV/drivers/core_feature_timer.h **** 
  62:../Firmware/RISCV/drivers/core_feature_timer.h **** /* Timer Control / Status Register Definitions */
  63:../Firmware/RISCV/drivers/core_feature_timer.h **** #define SysTimer_MTIMECTL_TIMESTOP_Pos      0U                                          /*!< SysTic
  64:../Firmware/RISCV/drivers/core_feature_timer.h **** #define SysTimer_MTIMECTL_TIMESTOP_Msk      (1UL << SysTimer_MTIMECTL_TIMESTOP_Pos)     /*!< SysTic
  65:../Firmware/RISCV/drivers/core_feature_timer.h **** #define SysTimer_MTIMECTL_CMPCLREN_Pos      1U                                          /*!< SysTic
  66:../Firmware/RISCV/drivers/core_feature_timer.h **** #define SysTimer_MTIMECTL_CMPCLREN_Msk      (1UL << SysTimer_MTIMECTL_CMPCLREN_Pos)     /*!< SysTic
  67:../Firmware/RISCV/drivers/core_feature_timer.h **** #define SysTimer_MTIMECTL_CLKSRC_Pos        2U                                          /*!< SysTic
  68:../Firmware/RISCV/drivers/core_feature_timer.h **** #define SysTimer_MTIMECTL_CLKSRC_Msk        (1UL << SysTimer_MTIMECTL_CLKSRC_Pos)       /*!< SysTic
  69:../Firmware/RISCV/drivers/core_feature_timer.h **** 
  70:../Firmware/RISCV/drivers/core_feature_timer.h **** #define SysTimer_MSIP_MSIP_Pos              0U                                          /*!< SysTic
  71:../Firmware/RISCV/drivers/core_feature_timer.h **** #define SysTimer_MSIP_MSIP_Msk              (1UL << SysTimer_MSIP_MSIP_Pos)             /*!< SysTic
  72:../Firmware/RISCV/drivers/core_feature_timer.h **** 
  73:../Firmware/RISCV/drivers/core_feature_timer.h **** #define SysTimer_MTIMER_Msk                 (0xFFFFFFFFFFFFFFFFULL)                     /*!< SysTic
  74:../Firmware/RISCV/drivers/core_feature_timer.h **** #define SysTimer_MTIMERCMP_Msk              (0xFFFFFFFFFFFFFFFFULL)                     /*!< SysTic
  75:../Firmware/RISCV/drivers/core_feature_timer.h **** #define SysTimer_MTIMECTL_Msk               (0xFFFFFFFFUL)                              /*!< SysTic
  76:../Firmware/RISCV/drivers/core_feature_timer.h **** #define SysTimer_MSIP_Msk                   (0xFFFFFFFFUL)                              /*!< SysTic
  77:../Firmware/RISCV/drivers/core_feature_timer.h **** #define SysTimer_MSFTRST_Msk                (0xFFFFFFFFUL)                              /*!< SysTic
  78:../Firmware/RISCV/drivers/core_feature_timer.h **** 
  79:../Firmware/RISCV/drivers/core_feature_timer.h **** #define SysTimer_MSFRST_KEY                 (0x80000A5FUL)                              /*!< SysTic
  80:../Firmware/RISCV/drivers/core_feature_timer.h **** 
  81:../Firmware/RISCV/drivers/core_feature_timer.h **** #ifndef __SYSTIMER_BASEADDR
  82:../Firmware/RISCV/drivers/core_feature_timer.h **** /* Base address of SYSTIMER(__SYSTIMER_BASEADDR) should be defined in <Device.h> */
  83:../Firmware/RISCV/drivers/core_feature_timer.h **** #error "__SYSTIMER_BASEADDR is not defined, please check!"
  84:../Firmware/RISCV/drivers/core_feature_timer.h **** #endif
  85:../Firmware/RISCV/drivers/core_feature_timer.h **** /* System Timer Memory mapping of Device  */
  86:../Firmware/RISCV/drivers/core_feature_timer.h **** #define SysTimer_BASE                       __SYSTIMER_BASEADDR                         /*!< SysTic
  87:../Firmware/RISCV/drivers/core_feature_timer.h **** #define SysTimer                            ((SysTimer_Type *) SysTimer_BASE)           /*!< SysTic
  88:../Firmware/RISCV/drivers/core_feature_timer.h **** /** @} */ /* end of group NMSIS_Core_SysTimer_Registers */
  89:../Firmware/RISCV/drivers/core_feature_timer.h **** 
  90:../Firmware/RISCV/drivers/core_feature_timer.h **** /* ##################################    SysTimer function  #######################################
  91:../Firmware/RISCV/drivers/core_feature_timer.h **** /**
  92:../Firmware/RISCV/drivers/core_feature_timer.h ****  * \defgroup NMSIS_Core_SysTimer SysTimer Functions
  93:../Firmware/RISCV/drivers/core_feature_timer.h ****  * \brief    Functions that configure the Core System Timer.
  94:../Firmware/RISCV/drivers/core_feature_timer.h ****  * @{
  95:../Firmware/RISCV/drivers/core_feature_timer.h ****  */
  96:../Firmware/RISCV/drivers/core_feature_timer.h **** /**
  97:../Firmware/RISCV/drivers/core_feature_timer.h ****  * \brief  Set system timer load value
  98:../Firmware/RISCV/drivers/core_feature_timer.h ****  * \details
  99:../Firmware/RISCV/drivers/core_feature_timer.h ****  * This function set the system timer load value in MTIMER register.
 100:../Firmware/RISCV/drivers/core_feature_timer.h ****  * \param [in]  value   value to set system timer MTIMER register.
 101:../Firmware/RISCV/drivers/core_feature_timer.h ****  * \remarks
 102:../Firmware/RISCV/drivers/core_feature_timer.h ****  * - Load value is 64bits wide.
 103:../Firmware/RISCV/drivers/core_feature_timer.h ****  * - \ref SysTimer_GetLoadValue
 104:../Firmware/RISCV/drivers/core_feature_timer.h ****  */
 105:../Firmware/RISCV/drivers/core_feature_timer.h **** __STATIC_FORCEINLINE void SysTimer_SetLoadValue(uint64_t value)
 106:../Firmware/RISCV/drivers/core_feature_timer.h **** {
 107:../Firmware/RISCV/drivers/core_feature_timer.h ****     SysTimer->MTIMER = value;
 108:../Firmware/RISCV/drivers/core_feature_timer.h **** }
 109:../Firmware/RISCV/drivers/core_feature_timer.h **** 
 110:../Firmware/RISCV/drivers/core_feature_timer.h **** /**
 111:../Firmware/RISCV/drivers/core_feature_timer.h ****  * \brief  Get system timer load value
 112:../Firmware/RISCV/drivers/core_feature_timer.h ****  * \details
 113:../Firmware/RISCV/drivers/core_feature_timer.h ****  * This function get the system timer current value in MTIMER register.
 114:../Firmware/RISCV/drivers/core_feature_timer.h ****  * \return  current value(64bit) of system timer MTIMER register.
 115:../Firmware/RISCV/drivers/core_feature_timer.h ****  * \remarks
 116:../Firmware/RISCV/drivers/core_feature_timer.h ****  * - Load value is 64bits wide.
 117:../Firmware/RISCV/drivers/core_feature_timer.h ****  * - \ref SysTimer_SetLoadValue
 118:../Firmware/RISCV/drivers/core_feature_timer.h ****  */
 119:../Firmware/RISCV/drivers/core_feature_timer.h **** __STATIC_FORCEINLINE uint64_t SysTimer_GetLoadValue(void)
 120:../Firmware/RISCV/drivers/core_feature_timer.h **** {
 121:../Firmware/RISCV/drivers/core_feature_timer.h ****     return SysTimer->MTIMER;
 122:../Firmware/RISCV/drivers/core_feature_timer.h **** }
 123:../Firmware/RISCV/drivers/core_feature_timer.h **** 
 124:../Firmware/RISCV/drivers/core_feature_timer.h **** /**
 125:../Firmware/RISCV/drivers/core_feature_timer.h ****  * \brief  Set system timer compare value
 126:../Firmware/RISCV/drivers/core_feature_timer.h ****  * \details
 127:../Firmware/RISCV/drivers/core_feature_timer.h ****  * This function set the system Timer compare value in MTIMERCMP register.
 128:../Firmware/RISCV/drivers/core_feature_timer.h ****  * \param [in]  value   compare value to set system timer MTIMERCMP register.
 129:../Firmware/RISCV/drivers/core_feature_timer.h ****  * \remarks
 130:../Firmware/RISCV/drivers/core_feature_timer.h ****  * - Compare value is 64bits wide.
 131:../Firmware/RISCV/drivers/core_feature_timer.h ****  * - If compare value is larger than current value timer interrupt generate.
 132:../Firmware/RISCV/drivers/core_feature_timer.h ****  * - Modify the load value or compare value less to clear the interrupt.
 133:../Firmware/RISCV/drivers/core_feature_timer.h ****  * - \ref SysTimer_GetCompareValue
 134:../Firmware/RISCV/drivers/core_feature_timer.h ****  */
 135:../Firmware/RISCV/drivers/core_feature_timer.h **** __STATIC_FORCEINLINE void SysTimer_SetCompareValue(uint64_t value)
 136:../Firmware/RISCV/drivers/core_feature_timer.h **** {
 137:../Firmware/RISCV/drivers/core_feature_timer.h ****     SysTimer->MTIMERCMP = value;
 138:../Firmware/RISCV/drivers/core_feature_timer.h **** }
 139:../Firmware/RISCV/drivers/core_feature_timer.h **** 
 140:../Firmware/RISCV/drivers/core_feature_timer.h **** /**
 141:../Firmware/RISCV/drivers/core_feature_timer.h ****  * \brief  Get system timer compare value
 142:../Firmware/RISCV/drivers/core_feature_timer.h ****  * \details
 143:../Firmware/RISCV/drivers/core_feature_timer.h ****  * This function get the system timer compare value in MTIMERCMP register.
 144:../Firmware/RISCV/drivers/core_feature_timer.h ****  * \return  compare value of system timer MTIMERCMP register.
 145:../Firmware/RISCV/drivers/core_feature_timer.h ****  * \remarks
 146:../Firmware/RISCV/drivers/core_feature_timer.h ****  * - Compare value is 64bits wide.
 147:../Firmware/RISCV/drivers/core_feature_timer.h ****  * - \ref SysTimer_SetCompareValue
 148:../Firmware/RISCV/drivers/core_feature_timer.h ****  */
 149:../Firmware/RISCV/drivers/core_feature_timer.h **** __STATIC_FORCEINLINE uint64_t SysTimer_GetCompareValue(void)
 150:../Firmware/RISCV/drivers/core_feature_timer.h **** {
 151:../Firmware/RISCV/drivers/core_feature_timer.h ****     return SysTimer->MTIMERCMP;
 152:../Firmware/RISCV/drivers/core_feature_timer.h **** }
 153:../Firmware/RISCV/drivers/core_feature_timer.h **** 
 154:../Firmware/RISCV/drivers/core_feature_timer.h **** /**
 155:../Firmware/RISCV/drivers/core_feature_timer.h ****  * \brief  Enable system timer counter running
 156:../Firmware/RISCV/drivers/core_feature_timer.h ****  * \details
 157:../Firmware/RISCV/drivers/core_feature_timer.h ****  * Enable system timer counter running by clear
 158:../Firmware/RISCV/drivers/core_feature_timer.h ****  * TIMESTOP bit in MTIMECTL register.
 159:../Firmware/RISCV/drivers/core_feature_timer.h ****  */
 160:../Firmware/RISCV/drivers/core_feature_timer.h **** __STATIC_FORCEINLINE void SysTimer_Start(void)
 161:../Firmware/RISCV/drivers/core_feature_timer.h **** {
 162:../Firmware/RISCV/drivers/core_feature_timer.h ****     SysTimer->MTIMECTL &= ~(SysTimer_MTIMECTL_TIMESTOP_Msk);
 163:../Firmware/RISCV/drivers/core_feature_timer.h **** }
 164:../Firmware/RISCV/drivers/core_feature_timer.h **** 
 165:../Firmware/RISCV/drivers/core_feature_timer.h **** /**
 166:../Firmware/RISCV/drivers/core_feature_timer.h ****  * \brief  Stop system timer counter running
 167:../Firmware/RISCV/drivers/core_feature_timer.h ****  * \details
 168:../Firmware/RISCV/drivers/core_feature_timer.h ****  * Stop system timer counter running by set
 169:../Firmware/RISCV/drivers/core_feature_timer.h ****  * TIMESTOP bit in MTIMECTL register.
 170:../Firmware/RISCV/drivers/core_feature_timer.h ****  */
 171:../Firmware/RISCV/drivers/core_feature_timer.h **** __STATIC_FORCEINLINE void SysTimer_Stop(void)
 172:../Firmware/RISCV/drivers/core_feature_timer.h **** {
 173:../Firmware/RISCV/drivers/core_feature_timer.h ****     SysTimer->MTIMECTL |= SysTimer_MTIMECTL_TIMESTOP_Msk;
 174:../Firmware/RISCV/drivers/core_feature_timer.h **** }
 175:../Firmware/RISCV/drivers/core_feature_timer.h **** 
 176:../Firmware/RISCV/drivers/core_feature_timer.h **** /**
 177:../Firmware/RISCV/drivers/core_feature_timer.h ****  * \brief  Set system timer control value
 178:../Firmware/RISCV/drivers/core_feature_timer.h ****  * \details
 179:../Firmware/RISCV/drivers/core_feature_timer.h ****  * This function set the system timer MTIMECTL register value.
 180:../Firmware/RISCV/drivers/core_feature_timer.h ****  * \param [in]  mctl    value to set MTIMECTL register
 181:../Firmware/RISCV/drivers/core_feature_timer.h ****  * \remarks
 182:../Firmware/RISCV/drivers/core_feature_timer.h ****  * - Bit TIMESTOP is used to start and stop timer.
 183:../Firmware/RISCV/drivers/core_feature_timer.h ****  *   Clear TIMESTOP bit to 0 to start timer, otherwise to stop timer.
 184:../Firmware/RISCV/drivers/core_feature_timer.h ****  * - Bit CMPCLREN is used to enable auto MTIMER clear to zero when MTIMER >= MTIMERCMP.
 185:../Firmware/RISCV/drivers/core_feature_timer.h ****  *   Clear CMPCLREN bit to 0 to stop auto clear MTIMER feature, otherwise to enable it.
 186:../Firmware/RISCV/drivers/core_feature_timer.h ****  * - Bit CLKSRC is used to select timer clock source.
 187:../Firmware/RISCV/drivers/core_feature_timer.h ****  *   Clear CLKSRC bit to 0 to use *mtime_toggle_a*, otherwise use *core_clk_aon*
 188:../Firmware/RISCV/drivers/core_feature_timer.h ****  * - \ref SysTimer_GetControlValue
 189:../Firmware/RISCV/drivers/core_feature_timer.h ****  */
 190:../Firmware/RISCV/drivers/core_feature_timer.h **** __STATIC_FORCEINLINE void SysTimer_SetControlValue(uint32_t mctl)
 191:../Firmware/RISCV/drivers/core_feature_timer.h **** {
 192:../Firmware/RISCV/drivers/core_feature_timer.h ****     SysTimer->MTIMECTL = (mctl & SysTimer_MTIMECTL_Msk);
 193:../Firmware/RISCV/drivers/core_feature_timer.h **** }
 194:../Firmware/RISCV/drivers/core_feature_timer.h **** 
 195:../Firmware/RISCV/drivers/core_feature_timer.h **** /**
 196:../Firmware/RISCV/drivers/core_feature_timer.h ****  * \brief  Get system timer control value
 197:../Firmware/RISCV/drivers/core_feature_timer.h ****  * \details
 198:../Firmware/RISCV/drivers/core_feature_timer.h ****  * This function get the system timer MTIMECTL register value.
 199:../Firmware/RISCV/drivers/core_feature_timer.h ****  * \return  MTIMECTL register value
 200:../Firmware/RISCV/drivers/core_feature_timer.h ****  * \remarks
 201:../Firmware/RISCV/drivers/core_feature_timer.h ****  * - \ref SysTimer_SetControlValue
 202:../Firmware/RISCV/drivers/core_feature_timer.h ****  */
 203:../Firmware/RISCV/drivers/core_feature_timer.h **** __STATIC_FORCEINLINE uint32_t SysTimer_GetControlValue(void)
 204:../Firmware/RISCV/drivers/core_feature_timer.h **** {
 205:../Firmware/RISCV/drivers/core_feature_timer.h ****     return (SysTimer->MTIMECTL & SysTimer_MTIMECTL_Msk);
 206:../Firmware/RISCV/drivers/core_feature_timer.h **** }
 207:../Firmware/RISCV/drivers/core_feature_timer.h **** 
 208:../Firmware/RISCV/drivers/core_feature_timer.h **** /**
 209:../Firmware/RISCV/drivers/core_feature_timer.h ****  * \brief  Trigger or set software interrupt via system timer
 210:../Firmware/RISCV/drivers/core_feature_timer.h ****  * \details
 211:../Firmware/RISCV/drivers/core_feature_timer.h ****  * This function set the system timer MSIP bit in MSIP register.
 212:../Firmware/RISCV/drivers/core_feature_timer.h ****  * \remarks
 213:../Firmware/RISCV/drivers/core_feature_timer.h ****  * - Set system timer MSIP bit and generate a SW interrupt.
 214:../Firmware/RISCV/drivers/core_feature_timer.h ****  * - \ref SysTimer_ClearSWIRQ
 215:../Firmware/RISCV/drivers/core_feature_timer.h ****  * - \ref SysTimer_GetMsipValue
 216:../Firmware/RISCV/drivers/core_feature_timer.h ****  */
 217:../Firmware/RISCV/drivers/core_feature_timer.h **** __STATIC_FORCEINLINE void SysTimer_SetSWIRQ(void)
 218:../Firmware/RISCV/drivers/core_feature_timer.h **** {
 219:../Firmware/RISCV/drivers/core_feature_timer.h ****     SysTimer->MSIP |= SysTimer_MSIP_MSIP_Msk;
 220:../Firmware/RISCV/drivers/core_feature_timer.h **** }
 221:../Firmware/RISCV/drivers/core_feature_timer.h **** 
 222:../Firmware/RISCV/drivers/core_feature_timer.h **** /**
 223:../Firmware/RISCV/drivers/core_feature_timer.h ****  * \brief  Clear system timer software interrupt pending request
 224:../Firmware/RISCV/drivers/core_feature_timer.h ****  * \details
 225:../Firmware/RISCV/drivers/core_feature_timer.h ****  * This function clear the system timer MSIP bit in MSIP register.
 226:../Firmware/RISCV/drivers/core_feature_timer.h ****  * \remarks
 227:../Firmware/RISCV/drivers/core_feature_timer.h ****  * - Clear system timer MSIP bit in MSIP register to clear the software interrupt pending.
 228:../Firmware/RISCV/drivers/core_feature_timer.h ****  * - \ref SysTimer_SetSWIRQ
 229:../Firmware/RISCV/drivers/core_feature_timer.h ****  * - \ref SysTimer_GetMsipValue
 230:../Firmware/RISCV/drivers/core_feature_timer.h ****  */
 231:../Firmware/RISCV/drivers/core_feature_timer.h **** __STATIC_FORCEINLINE void SysTimer_ClearSWIRQ(void)
 232:../Firmware/RISCV/drivers/core_feature_timer.h **** {
 233:../Firmware/RISCV/drivers/core_feature_timer.h ****     SysTimer->MSIP &= ~SysTimer_MSIP_MSIP_Msk;
 234:../Firmware/RISCV/drivers/core_feature_timer.h **** }
 235:../Firmware/RISCV/drivers/core_feature_timer.h **** 
 236:../Firmware/RISCV/drivers/core_feature_timer.h **** /**
 237:../Firmware/RISCV/drivers/core_feature_timer.h ****  * \brief  Get system timer MSIP register value
 238:../Firmware/RISCV/drivers/core_feature_timer.h ****  * \details
 239:../Firmware/RISCV/drivers/core_feature_timer.h ****  * This function get the system timer MSIP register value.
 240:../Firmware/RISCV/drivers/core_feature_timer.h ****  * \return    Value of Timer MSIP register.
 241:../Firmware/RISCV/drivers/core_feature_timer.h ****  * \remarks
 242:../Firmware/RISCV/drivers/core_feature_timer.h ****  * - Bit0 is SW interrupt flag.
 243:../Firmware/RISCV/drivers/core_feature_timer.h ****  *   Bit0 is 1 then SW interrupt set. Bit0 is 0 then SW interrupt clear.
 244:../Firmware/RISCV/drivers/core_feature_timer.h ****  * - \ref SysTimer_SetSWIRQ
 245:../Firmware/RISCV/drivers/core_feature_timer.h ****  * - \ref SysTimer_ClearSWIRQ
 246:../Firmware/RISCV/drivers/core_feature_timer.h ****  */
 247:../Firmware/RISCV/drivers/core_feature_timer.h **** __STATIC_FORCEINLINE uint32_t SysTimer_GetMsipValue(void)
 248:../Firmware/RISCV/drivers/core_feature_timer.h **** {
 249:../Firmware/RISCV/drivers/core_feature_timer.h ****     return (uint32_t)(SysTimer->MSIP & SysTimer_MSIP_Msk);
 250:../Firmware/RISCV/drivers/core_feature_timer.h **** }
 251:../Firmware/RISCV/drivers/core_feature_timer.h **** 
 252:../Firmware/RISCV/drivers/core_feature_timer.h **** /**
 253:../Firmware/RISCV/drivers/core_feature_timer.h ****  * \brief  Set system timer MSIP register value
 254:../Firmware/RISCV/drivers/core_feature_timer.h ****  * \details
 255:../Firmware/RISCV/drivers/core_feature_timer.h ****  * This function set the system timer MSIP register value.
 256:../Firmware/RISCV/drivers/core_feature_timer.h ****  * \param [in]  msip   value to set MSIP register
 257:../Firmware/RISCV/drivers/core_feature_timer.h ****  */
 258:../Firmware/RISCV/drivers/core_feature_timer.h **** __STATIC_FORCEINLINE void SysTimer_SetMsipValue(uint32_t msip)
 259:../Firmware/RISCV/drivers/core_feature_timer.h **** {
 260:../Firmware/RISCV/drivers/core_feature_timer.h ****     SysTimer->MSIP = (msip & SysTimer_MSIP_Msk);
 261:../Firmware/RISCV/drivers/core_feature_timer.h **** }
 262:../Firmware/RISCV/drivers/core_feature_timer.h **** 
 263:../Firmware/RISCV/drivers/core_feature_timer.h **** /**
 264:../Firmware/RISCV/drivers/core_feature_timer.h ****  * \brief  Do software reset request
 265:../Firmware/RISCV/drivers/core_feature_timer.h ****  * \details
 266:../Firmware/RISCV/drivers/core_feature_timer.h ****  * This function will do software reset request through MTIMER
 267:../Firmware/RISCV/drivers/core_feature_timer.h ****  * - Software need to write \ref SysTimer_MSFRST_KEY to generate software reset request
 268:../Firmware/RISCV/drivers/core_feature_timer.h ****  * - The software request flag can be cleared by reset operation to clear
 269:../Firmware/RISCV/drivers/core_feature_timer.h ****  * \remarks
 270:../Firmware/RISCV/drivers/core_feature_timer.h ****  * - The software reset is sent to SoC, SoC need to generate reset signal and send back to Core
 271:../Firmware/RISCV/drivers/core_feature_timer.h ****  * - This function will not return, it will do while(1) to wait the Core reset happened
 272:../Firmware/RISCV/drivers/core_feature_timer.h ****  */
 273:../Firmware/RISCV/drivers/core_feature_timer.h **** __STATIC_FORCEINLINE void SysTimer_SoftwareReset(void)
 274:../Firmware/RISCV/drivers/core_feature_timer.h **** {
 275:../Firmware/RISCV/drivers/core_feature_timer.h ****     SysTimer->MSFTRST = SysTimer_MSFRST_KEY;
 582              		.loc 4 275 13
 583 0006 370700D1 		li	a4,-788529152
 584              		.loc 4 275 23
 585 000a 8567     		li	a5,4096
 586 000c BA97     		add	a5,a4,a5
 587 000e 37170080 		li	a4,-2147479552
 588 0012 1307F7A5 		addi	a4,a4,-1441
 589 0016 23A8E7FE 		sw	a4,-16(a5)
 590              	.L21:
 276:../Firmware/RISCV/drivers/core_feature_timer.h ****     while(1);
 591              		.loc 4 276 10
 592 001a 01A0     		j	.L21
 593              	.LBE80:
 594              	.LBE79:
 595              		.cfi_endproc
 596              	.LFE353:
 598              		.text
 599              	.Letext0:
 600              		.file 5 "e:\\gd32\\gd32embeddedbuilder_v1.5.2.30854\\tools\\nuclei_riscv_newlibc_prebuilt_win32_20
 601              		.file 6 "e:\\gd32\\gd32embeddedbuilder_v1.5.2.30854\\tools\\nuclei_riscv_newlibc_prebuilt_win32_20
 602              		.file 7 "../Firmware/GD32VW55x_standard_peripheral/gd32vw55x.h"
DEFINED SYMBOLS
                            *ABS*:0000000000000000 gd32vw55x_eclic.c
C:\Users\CYMR90~1\AppData\Local\Temp\ccyjM0JL.s:13     .text.eclic_global_interrupt_enable:0000000000000000 eclic_global_interrupt_enable
C:\Users\CYMR90~1\AppData\Local\Temp\ccyjM0JL.s:17     .text.eclic_global_interrupt_enable:0000000000000000 .L0 
C:\Users\CYMR90~1\AppData\Local\Temp\ccyjM0JL.s:18     .text.eclic_global_interrupt_enable:0000000000000000 .L0 
C:\Users\CYMR90~1\AppData\Local\Temp\ccyjM0JL.s:19     .text.eclic_global_interrupt_enable:0000000000000002 .L0 
C:\Users\CYMR90~1\AppData\Local\Temp\ccyjM0JL.s:22     .text.eclic_global_interrupt_enable:0000000000000006 .L0 
C:\Users\CYMR90~1\AppData\Local\Temp\ccyjM0JL.s:23     .text.eclic_global_interrupt_enable:0000000000000006 .L0 
C:\Users\CYMR90~1\AppData\Local\Temp\ccyjM0JL.s:25     .text.eclic_global_interrupt_enable:0000000000000008 .L0 
C:\Users\CYMR90~1\AppData\Local\Temp\ccyjM0JL.s:31     .text.eclic_global_interrupt_enable:0000000000000008 .L0 
C:\Users\CYMR90~1\AppData\Local\Temp\ccyjM0JL.s:39     .text.eclic_global_interrupt_enable:000000000000000e .L0 
C:\Users\CYMR90~1\AppData\Local\Temp\ccyjM0JL.s:43     .text.eclic_global_interrupt_enable:0000000000000010 .L0 
C:\Users\CYMR90~1\AppData\Local\Temp\ccyjM0JL.s:45     .text.eclic_global_interrupt_enable:0000000000000014 .L0 
C:\Users\CYMR90~1\AppData\Local\Temp\ccyjM0JL.s:46     .text.eclic_global_interrupt_enable:0000000000000014 .L0 
C:\Users\CYMR90~1\AppData\Local\Temp\ccyjM0JL.s:48     .text.eclic_global_interrupt_enable:0000000000000016 .L0 
C:\Users\CYMR90~1\AppData\Local\Temp\ccyjM0JL.s:50     .text.eclic_global_interrupt_enable:0000000000000018 .L0 
C:\Users\CYMR90~1\AppData\Local\Temp\ccyjM0JL.s:52     .text.eclic_global_interrupt_enable:000000000000001a .L0 
C:\Users\CYMR90~1\AppData\Local\Temp\ccyjM0JL.s:59     .text.eclic_global_interrupt_disable:0000000000000000 eclic_global_interrupt_disable
C:\Users\CYMR90~1\AppData\Local\Temp\ccyjM0JL.s:62     .text.eclic_global_interrupt_disable:0000000000000000 .L0 
C:\Users\CYMR90~1\AppData\Local\Temp\ccyjM0JL.s:63     .text.eclic_global_interrupt_disable:0000000000000000 .L0 
C:\Users\CYMR90~1\AppData\Local\Temp\ccyjM0JL.s:64     .text.eclic_global_interrupt_disable:0000000000000002 .L0 
C:\Users\CYMR90~1\AppData\Local\Temp\ccyjM0JL.s:67     .text.eclic_global_interrupt_disable:0000000000000006 .L0 
C:\Users\CYMR90~1\AppData\Local\Temp\ccyjM0JL.s:68     .text.eclic_global_interrupt_disable:0000000000000006 .L0 
C:\Users\CYMR90~1\AppData\Local\Temp\ccyjM0JL.s:70     .text.eclic_global_interrupt_disable:0000000000000008 .L0 
C:\Users\CYMR90~1\AppData\Local\Temp\ccyjM0JL.s:75     .text.eclic_global_interrupt_disable:0000000000000008 .L0 
C:\Users\CYMR90~1\AppData\Local\Temp\ccyjM0JL.s:83     .text.eclic_global_interrupt_disable:000000000000000e .L0 
C:\Users\CYMR90~1\AppData\Local\Temp\ccyjM0JL.s:87     .text.eclic_global_interrupt_disable:0000000000000010 .L0 
C:\Users\CYMR90~1\AppData\Local\Temp\ccyjM0JL.s:89     .text.eclic_global_interrupt_disable:0000000000000014 .L0 
C:\Users\CYMR90~1\AppData\Local\Temp\ccyjM0JL.s:90     .text.eclic_global_interrupt_disable:0000000000000014 .L0 
C:\Users\CYMR90~1\AppData\Local\Temp\ccyjM0JL.s:92     .text.eclic_global_interrupt_disable:0000000000000016 .L0 
C:\Users\CYMR90~1\AppData\Local\Temp\ccyjM0JL.s:94     .text.eclic_global_interrupt_disable:0000000000000018 .L0 
C:\Users\CYMR90~1\AppData\Local\Temp\ccyjM0JL.s:96     .text.eclic_global_interrupt_disable:000000000000001a .L0 
C:\Users\CYMR90~1\AppData\Local\Temp\ccyjM0JL.s:103    .text.eclic_level_threshold_set:0000000000000000 eclic_level_threshold_set
C:\Users\CYMR90~1\AppData\Local\Temp\ccyjM0JL.s:106    .text.eclic_level_threshold_set:0000000000000000 .L0 
C:\Users\CYMR90~1\AppData\Local\Temp\ccyjM0JL.s:107    .text.eclic_level_threshold_set:0000000000000000 .L0 
C:\Users\CYMR90~1\AppData\Local\Temp\ccyjM0JL.s:108    .text.eclic_level_threshold_set:0000000000000002 .L0 
C:\Users\CYMR90~1\AppData\Local\Temp\ccyjM0JL.s:110    .text.eclic_level_threshold_set:0000000000000004 .L0 
C:\Users\CYMR90~1\AppData\Local\Temp\ccyjM0JL.s:112    .text.eclic_level_threshold_set:0000000000000006 .L0 
C:\Users\CYMR90~1\AppData\Local\Temp\ccyjM0JL.s:121    .text.eclic_level_threshold_set:0000000000000014 .L0 
C:\Users\CYMR90~1\AppData\Local\Temp\ccyjM0JL.s:123    .text.eclic_level_threshold_set:0000000000000018 .L0 
C:\Users\CYMR90~1\AppData\Local\Temp\ccyjM0JL.s:126    .text.eclic_level_threshold_set:0000000000000020 .L0 
C:\Users\CYMR90~1\AppData\Local\Temp\ccyjM0JL.s:130    .text.eclic_level_threshold_set:0000000000000022 .L0 
C:\Users\CYMR90~1\AppData\Local\Temp\ccyjM0JL.s:132    .text.eclic_level_threshold_set:0000000000000026 .L0 
C:\Users\CYMR90~1\AppData\Local\Temp\ccyjM0JL.s:133    .text.eclic_level_threshold_set:0000000000000026 .L0 
C:\Users\CYMR90~1\AppData\Local\Temp\ccyjM0JL.s:135    .text.eclic_level_threshold_set:0000000000000028 .L0 
C:\Users\CYMR90~1\AppData\Local\Temp\ccyjM0JL.s:137    .text.eclic_level_threshold_set:000000000000002a .L0 
C:\Users\CYMR90~1\AppData\Local\Temp\ccyjM0JL.s:144    .text.eclic_priority_group_set:0000000000000000 eclic_priority_group_set
C:\Users\CYMR90~1\AppData\Local\Temp\ccyjM0JL.s:147    .text.eclic_priority_group_set:0000000000000000 .L0 
C:\Users\CYMR90~1\AppData\Local\Temp\ccyjM0JL.s:148    .text.eclic_priority_group_set:0000000000000000 .L0 
C:\Users\CYMR90~1\AppData\Local\Temp\ccyjM0JL.s:149    .text.eclic_priority_group_set:0000000000000002 .L0 
C:\Users\CYMR90~1\AppData\Local\Temp\ccyjM0JL.s:151    .text.eclic_priority_group_set:0000000000000004 .L0 
C:\Users\CYMR90~1\AppData\Local\Temp\ccyjM0JL.s:153    .text.eclic_priority_group_set:0000000000000006 .L0 
C:\Users\CYMR90~1\AppData\Local\Temp\ccyjM0JL.s:157    .text.eclic_priority_group_set:000000000000000c .L0 
C:\Users\CYMR90~1\AppData\Local\Temp\ccyjM0JL.s:162    .text.eclic_priority_group_set:0000000000000014 .L0 
C:\Users\CYMR90~1\AppData\Local\Temp\ccyjM0JL.s:170    .text.eclic_priority_group_set:000000000000002e .L0 
C:\Users\CYMR90~1\AppData\Local\Temp\ccyjM0JL.s:176    .text.eclic_priority_group_set:0000000000000040 .L0 
C:\Users\CYMR90~1\AppData\Local\Temp\ccyjM0JL.s:183    .text.eclic_priority_group_set:0000000000000052 .L0 
C:\Users\CYMR90~1\AppData\Local\Temp\ccyjM0JL.s:187    .text.eclic_priority_group_set:0000000000000058 .L0 
C:\Users\CYMR90~1\AppData\Local\Temp\ccyjM0JL.s:194    .text.eclic_priority_group_set:000000000000006c .L0 
C:\Users\CYMR90~1\AppData\Local\Temp\ccyjM0JL.s:198    .text.eclic_priority_group_set:000000000000006e .L0 
C:\Users\CYMR90~1\AppData\Local\Temp\ccyjM0JL.s:200    .text.eclic_priority_group_set:0000000000000072 .L0 
C:\Users\CYMR90~1\AppData\Local\Temp\ccyjM0JL.s:201    .text.eclic_priority_group_set:0000000000000072 .L0 
C:\Users\CYMR90~1\AppData\Local\Temp\ccyjM0JL.s:203    .text.eclic_priority_group_set:0000000000000074 .L0 
C:\Users\CYMR90~1\AppData\Local\Temp\ccyjM0JL.s:205    .text.eclic_priority_group_set:0000000000000076 .L0 
C:\Users\CYMR90~1\AppData\Local\Temp\ccyjM0JL.s:212    .text.eclic_irq_enable:0000000000000000 eclic_irq_enable
C:\Users\CYMR90~1\AppData\Local\Temp\ccyjM0JL.s:215    .text.eclic_irq_enable:0000000000000000 .L0 
C:\Users\CYMR90~1\AppData\Local\Temp\ccyjM0JL.s:216    .text.eclic_irq_enable:0000000000000000 .L0 
C:\Users\CYMR90~1\AppData\Local\Temp\ccyjM0JL.s:217    .text.eclic_irq_enable:0000000000000002 .L0 
C:\Users\CYMR90~1\AppData\Local\Temp\ccyjM0JL.s:219    .text.eclic_irq_enable:0000000000000004 .L0 
C:\Users\CYMR90~1\AppData\Local\Temp\ccyjM0JL.s:221    .text.eclic_irq_enable:0000000000000006 .L0 
C:\Users\CYMR90~1\AppData\Local\Temp\ccyjM0JL.s:237    .text.eclic_irq_enable:0000000000000028 .L0 
C:\Users\CYMR90~1\AppData\Local\Temp\ccyjM0JL.s:241    .text.eclic_irq_enable:0000000000000034 .L0 
C:\Users\CYMR90~1\AppData\Local\Temp\ccyjM0JL.s:246    .text.eclic_irq_enable:0000000000000038 .L0 
C:\Users\CYMR90~1\AppData\Local\Temp\ccyjM0JL.s:248    .text.eclic_irq_enable:000000000000003c .L0 
C:\Users\CYMR90~1\AppData\Local\Temp\ccyjM0JL.s:251    .text.eclic_irq_enable:0000000000000042 .L0 
C:\Users\CYMR90~1\AppData\Local\Temp\ccyjM0JL.s:254    .text.eclic_irq_enable:0000000000000048 .L0 
C:\Users\CYMR90~1\AppData\Local\Temp\ccyjM0JL.s:258    .text.eclic_irq_enable:0000000000000054 .L0 
C:\Users\CYMR90~1\AppData\Local\Temp\ccyjM0JL.s:262    .text.eclic_irq_enable:000000000000005c .L0 
C:\Users\CYMR90~1\AppData\Local\Temp\ccyjM0JL.s:266    .text.eclic_irq_enable:0000000000000066 .L0 
C:\Users\CYMR90~1\AppData\Local\Temp\ccyjM0JL.s:268    .text.eclic_irq_enable:000000000000006a .L0 
C:\Users\CYMR90~1\AppData\Local\Temp\ccyjM0JL.s:271    .text.eclic_irq_enable:0000000000000070 .L0 
C:\Users\CYMR90~1\AppData\Local\Temp\ccyjM0JL.s:275    .text.eclic_irq_enable:000000000000007c .L0 
C:\Users\CYMR90~1\AppData\Local\Temp\ccyjM0JL.s:279    .text.eclic_irq_enable:0000000000000084 .L0 
C:\Users\CYMR90~1\AppData\Local\Temp\ccyjM0JL.s:281    .text.eclic_irq_enable:0000000000000088 .L0 
C:\Users\CYMR90~1\AppData\Local\Temp\ccyjM0JL.s:285    .text.eclic_irq_enable:0000000000000092 .L0 
C:\Users\CYMR90~1\AppData\Local\Temp\ccyjM0JL.s:287    .text.eclic_irq_enable:0000000000000096 .L0 
C:\Users\CYMR90~1\AppData\Local\Temp\ccyjM0JL.s:293    .text.eclic_irq_enable:00000000000000a2 .L0 
C:\Users\CYMR90~1\AppData\Local\Temp\ccyjM0JL.s:295    .text.eclic_irq_enable:00000000000000a6 .L0 
C:\Users\CYMR90~1\AppData\Local\Temp\ccyjM0JL.s:304    .text.eclic_irq_enable:00000000000000ba .L0 
C:\Users\CYMR90~1\AppData\Local\Temp\ccyjM0JL.s:306    .text.eclic_irq_enable:00000000000000be .L0 
C:\Users\CYMR90~1\AppData\Local\Temp\ccyjM0JL.s:310    .text.eclic_irq_enable:00000000000000ca .L0 
C:\Users\CYMR90~1\AppData\Local\Temp\ccyjM0JL.s:312    .text.eclic_irq_enable:00000000000000ce .L0 
C:\Users\CYMR90~1\AppData\Local\Temp\ccyjM0JL.s:316    .text.eclic_irq_enable:00000000000000da .L0 
C:\Users\CYMR90~1\AppData\Local\Temp\ccyjM0JL.s:318    .text.eclic_irq_enable:00000000000000de .L0 
C:\Users\CYMR90~1\AppData\Local\Temp\ccyjM0JL.s:328    .text.eclic_irq_enable:00000000000000f8 .L0 
C:\Users\CYMR90~1\AppData\Local\Temp\ccyjM0JL.s:330    .text.eclic_irq_enable:00000000000000fc .L0 
C:\Users\CYMR90~1\AppData\Local\Temp\ccyjM0JL.s:337    .text.eclic_irq_enable:0000000000000110 .L0 
C:\Users\CYMR90~1\AppData\Local\Temp\ccyjM0JL.s:342    .text.eclic_irq_enable:0000000000000112 .L0 
C:\Users\CYMR90~1\AppData\Local\Temp\ccyjM0JL.s:355    .text.eclic_irq_enable:0000000000000124 .L0 
C:\Users\CYMR90~1\AppData\Local\Temp\ccyjM0JL.s:359    .text.eclic_irq_enable:0000000000000130 .L0 
C:\Users\CYMR90~1\AppData\Local\Temp\ccyjM0JL.s:364    .text.eclic_irq_enable:0000000000000134 .L0 
C:\Users\CYMR90~1\AppData\Local\Temp\ccyjM0JL.s:366    .text.eclic_irq_enable:0000000000000138 .L0 
C:\Users\CYMR90~1\AppData\Local\Temp\ccyjM0JL.s:369    .text.eclic_irq_enable:000000000000013e .L0 
C:\Users\CYMR90~1\AppData\Local\Temp\ccyjM0JL.s:374    .text.eclic_irq_enable:000000000000014a .L0 
C:\Users\CYMR90~1\AppData\Local\Temp\ccyjM0JL.s:378    .text.eclic_irq_enable:0000000000000156 .L0 
C:\Users\CYMR90~1\AppData\Local\Temp\ccyjM0JL.s:381    .text.eclic_irq_enable:000000000000015c .L0 
C:\Users\CYMR90~1\AppData\Local\Temp\ccyjM0JL.s:383    .text.eclic_irq_enable:0000000000000160 .L0 
C:\Users\CYMR90~1\AppData\Local\Temp\ccyjM0JL.s:386    .text.eclic_irq_enable:0000000000000166 .L0 
C:\Users\CYMR90~1\AppData\Local\Temp\ccyjM0JL.s:390    .text.eclic_irq_enable:0000000000000172 .L0 
C:\Users\CYMR90~1\AppData\Local\Temp\ccyjM0JL.s:394    .text.eclic_irq_enable:000000000000017a .L0 
C:\Users\CYMR90~1\AppData\Local\Temp\ccyjM0JL.s:396    .text.eclic_irq_enable:000000000000017e .L0 
C:\Users\CYMR90~1\AppData\Local\Temp\ccyjM0JL.s:400    .text.eclic_irq_enable:0000000000000188 .L0 
C:\Users\CYMR90~1\AppData\Local\Temp\ccyjM0JL.s:402    .text.eclic_irq_enable:000000000000018c .L0 
C:\Users\CYMR90~1\AppData\Local\Temp\ccyjM0JL.s:404    .text.eclic_irq_enable:0000000000000190 .L0 
C:\Users\CYMR90~1\AppData\Local\Temp\ccyjM0JL.s:408    .text.eclic_irq_enable:000000000000019c .L0 
C:\Users\CYMR90~1\AppData\Local\Temp\ccyjM0JL.s:410    .text.eclic_irq_enable:00000000000001a0 .L0 
C:\Users\CYMR90~1\AppData\Local\Temp\ccyjM0JL.s:419    .text.eclic_irq_enable:00000000000001b6 .L0 
C:\Users\CYMR90~1\AppData\Local\Temp\ccyjM0JL.s:421    .text.eclic_irq_enable:00000000000001ba .L0 
C:\Users\CYMR90~1\AppData\Local\Temp\ccyjM0JL.s:430    .text.eclic_irq_enable:00000000000001ce .L0 
C:\Users\CYMR90~1\AppData\Local\Temp\ccyjM0JL.s:432    .text.eclic_irq_enable:00000000000001d2 .L0 
C:\Users\CYMR90~1\AppData\Local\Temp\ccyjM0JL.s:434    .text.eclic_irq_enable:00000000000001d6 .L0 
C:\Users\CYMR90~1\AppData\Local\Temp\ccyjM0JL.s:438    .text.eclic_irq_enable:00000000000001e0 .L0 
C:\Users\CYMR90~1\AppData\Local\Temp\ccyjM0JL.s:440    .text.eclic_irq_enable:00000000000001e4 .L0 
C:\Users\CYMR90~1\AppData\Local\Temp\ccyjM0JL.s:442    .text.eclic_irq_enable:00000000000001e8 .L0 
C:\Users\CYMR90~1\AppData\Local\Temp\ccyjM0JL.s:444    .text.eclic_irq_enable:00000000000001ec .L0 
C:\Users\CYMR90~1\AppData\Local\Temp\ccyjM0JL.s:448    .text.eclic_irq_enable:00000000000001f6 .L0 
C:\Users\CYMR90~1\AppData\Local\Temp\ccyjM0JL.s:450    .text.eclic_irq_enable:00000000000001fa .L0 
C:\Users\CYMR90~1\AppData\Local\Temp\ccyjM0JL.s:452    .text.eclic_irq_enable:00000000000001fe .L0 
C:\Users\CYMR90~1\AppData\Local\Temp\ccyjM0JL.s:462    .text.eclic_irq_enable:0000000000000218 .L0 
C:\Users\CYMR90~1\AppData\Local\Temp\ccyjM0JL.s:464    .text.eclic_irq_enable:000000000000021c .L0 
C:\Users\CYMR90~1\AppData\Local\Temp\ccyjM0JL.s:471    .text.eclic_irq_enable:0000000000000230 .L0 
C:\Users\CYMR90~1\AppData\Local\Temp\ccyjM0JL.s:477    .text.eclic_irq_enable:0000000000000232 .L0 
C:\Users\CYMR90~1\AppData\Local\Temp\ccyjM0JL.s:485    .text.eclic_irq_enable:000000000000023c .L0 
C:\Users\CYMR90~1\AppData\Local\Temp\ccyjM0JL.s:501    .text.eclic_irq_enable:0000000000000270 .L0 
C:\Users\CYMR90~1\AppData\Local\Temp\ccyjM0JL.s:505    .text.eclic_irq_enable:0000000000000272 .L0 
C:\Users\CYMR90~1\AppData\Local\Temp\ccyjM0JL.s:507    .text.eclic_irq_enable:0000000000000276 .L0 
C:\Users\CYMR90~1\AppData\Local\Temp\ccyjM0JL.s:508    .text.eclic_irq_enable:0000000000000276 .L0 
C:\Users\CYMR90~1\AppData\Local\Temp\ccyjM0JL.s:510    .text.eclic_irq_enable:0000000000000278 .L0 
C:\Users\CYMR90~1\AppData\Local\Temp\ccyjM0JL.s:512    .text.eclic_irq_enable:000000000000027a .L0 
C:\Users\CYMR90~1\AppData\Local\Temp\ccyjM0JL.s:519    .text.eclic_irq_disable:0000000000000000 eclic_irq_disable
C:\Users\CYMR90~1\AppData\Local\Temp\ccyjM0JL.s:522    .text.eclic_irq_disable:0000000000000000 .L0 
C:\Users\CYMR90~1\AppData\Local\Temp\ccyjM0JL.s:523    .text.eclic_irq_disable:0000000000000000 .L0 
C:\Users\CYMR90~1\AppData\Local\Temp\ccyjM0JL.s:524    .text.eclic_irq_disable:0000000000000002 .L0 
C:\Users\CYMR90~1\AppData\Local\Temp\ccyjM0JL.s:526    .text.eclic_irq_disable:0000000000000004 .L0 
C:\Users\CYMR90~1\AppData\Local\Temp\ccyjM0JL.s:528    .text.eclic_irq_disable:0000000000000006 .L0 
C:\Users\CYMR90~1\AppData\Local\Temp\ccyjM0JL.s:535    .text.eclic_irq_disable:0000000000000012 .L0 
C:\Users\CYMR90~1\AppData\Local\Temp\ccyjM0JL.s:551    .text.eclic_irq_disable:0000000000000044 .L0 
C:\Users\CYMR90~1\AppData\Local\Temp\ccyjM0JL.s:555    .text.eclic_irq_disable:0000000000000046 .L0 
C:\Users\CYMR90~1\AppData\Local\Temp\ccyjM0JL.s:557    .text.eclic_irq_disable:000000000000004a .L0 
C:\Users\CYMR90~1\AppData\Local\Temp\ccyjM0JL.s:558    .text.eclic_irq_disable:000000000000004a .L0 
C:\Users\CYMR90~1\AppData\Local\Temp\ccyjM0JL.s:560    .text.eclic_irq_disable:000000000000004c .L0 
C:\Users\CYMR90~1\AppData\Local\Temp\ccyjM0JL.s:562    .text.eclic_irq_disable:000000000000004e .L0 
C:\Users\CYMR90~1\AppData\Local\Temp\ccyjM0JL.s:569    .text.eclic_system_reset:0000000000000000 eclic_system_reset
C:\Users\CYMR90~1\AppData\Local\Temp\ccyjM0JL.s:572    .text.eclic_system_reset:0000000000000000 .L0 
C:\Users\CYMR90~1\AppData\Local\Temp\ccyjM0JL.s:573    .text.eclic_system_reset:0000000000000000 .L0 
C:\Users\CYMR90~1\AppData\Local\Temp\ccyjM0JL.s:574    .text.eclic_system_reset:0000000000000002 .L0 
C:\Users\CYMR90~1\AppData\Local\Temp\ccyjM0JL.s:576    .text.eclic_system_reset:0000000000000004 .L0 
C:\Users\CYMR90~1\AppData\Local\Temp\ccyjM0JL.s:578    .text.eclic_system_reset:0000000000000006 .L0 
C:\Users\CYMR90~1\AppData\Local\Temp\ccyjM0JL.s:583    .text.eclic_system_reset:0000000000000006 .L0 
C:\Users\CYMR90~1\AppData\Local\Temp\ccyjM0JL.s:585    .text.eclic_system_reset:000000000000000a .L0 
C:\Users\CYMR90~1\AppData\Local\Temp\ccyjM0JL.s:592    .text.eclic_system_reset:000000000000001a .L0 
C:\Users\CYMR90~1\AppData\Local\Temp\ccyjM0JL.s:595    .text.eclic_system_reset:000000000000001c .L0 
C:\Users\CYMR90~1\AppData\Local\Temp\ccyjM0JL.s:55     .text.eclic_global_interrupt_enable:000000000000001a .L0 
C:\Users\CYMR90~1\AppData\Local\Temp\ccyjM0JL.s:99     .text.eclic_global_interrupt_disable:000000000000001a .L0 
C:\Users\CYMR90~1\AppData\Local\Temp\ccyjM0JL.s:140    .text.eclic_level_threshold_set:000000000000002a .L0 
C:\Users\CYMR90~1\AppData\Local\Temp\ccyjM0JL.s:208    .text.eclic_priority_group_set:0000000000000076 .L0 
C:\Users\CYMR90~1\AppData\Local\Temp\ccyjM0JL.s:515    .text.eclic_irq_enable:000000000000027a .L0 
C:\Users\CYMR90~1\AppData\Local\Temp\ccyjM0JL.s:565    .text.eclic_irq_disable:000000000000004e .L0 
C:\Users\CYMR90~1\AppData\Local\Temp\ccyjM0JL.s:598    .text.eclic_system_reset:000000000000001c .L0 
                     .debug_frame:0000000000000000 .L0 
C:\Users\CYMR90~1\AppData\Local\Temp\ccyjM0JL.s:338    .text.eclic_irq_enable:0000000000000112 .L17
C:\Users\CYMR90~1\AppData\Local\Temp\ccyjM0JL.s:260    .text.eclic_irq_enable:000000000000005c .L9
C:\Users\CYMR90~1\AppData\Local\Temp\ccyjM0JL.s:277    .text.eclic_irq_enable:0000000000000084 .L10
C:\Users\CYMR90~1\AppData\Local\Temp\ccyjM0JL.s:343    .text.eclic_irq_enable:0000000000000114 .L8
C:\Users\CYMR90~1\AppData\Local\Temp\ccyjM0JL.s:472    .text.eclic_irq_enable:0000000000000232 .L18
C:\Users\CYMR90~1\AppData\Local\Temp\ccyjM0JL.s:392    .text.eclic_irq_enable:000000000000017a .L14
C:\Users\CYMR90~1\AppData\Local\Temp\ccyjM0JL.s:590    .text.eclic_system_reset:000000000000001a .L21
C:\Users\CYMR90~1\AppData\Local\Temp\ccyjM0JL.s:1801   .debug_abbrev:0000000000000000 .Ldebug_abbrev0
C:\Users\CYMR90~1\AppData\Local\Temp\ccyjM0JL.s:22813  .debug_str:000000000000b019 .LASF5700
C:\Users\CYMR90~1\AppData\Local\Temp\ccyjM0JL.s:26958  .debug_str:000000000001ba2d .LASF5701
C:\Users\CYMR90~1\AppData\Local\Temp\ccyjM0JL.s:23121  .debug_str:000000000000c4bd .LASF5702
C:\Users\CYMR90~1\AppData\Local\Temp\ccyjM0JL.s:2375   .debug_ranges:0000000000000000 .Ldebug_ranges0
C:\Users\CYMR90~1\AppData\Local\Temp\ccyjM0JL.s:20031  .debug_line:0000000000000000 .Ldebug_line0
C:\Users\CYMR90~1\AppData\Local\Temp\ccyjM0JL.s:2393   .debug_macro:0000000000000000 .Ldebug_macro0
C:\Users\CYMR90~1\AppData\Local\Temp\ccyjM0JL.s:31404  .debug_str:000000000002d23d .LASF5556
C:\Users\CYMR90~1\AppData\Local\Temp\ccyjM0JL.s:20051  .debug_str:0000000000000131 .LASF5557
C:\Users\CYMR90~1\AppData\Local\Temp\ccyjM0JL.s:20987  .debug_str:0000000000003b8e .LASF5558
C:\Users\CYMR90~1\AppData\Local\Temp\ccyjM0JL.s:26220  .debug_str:000000000001886c .LASF5559
C:\Users\CYMR90~1\AppData\Local\Temp\ccyjM0JL.s:22297  .debug_str:0000000000008f40 .LASF5564
C:\Users\CYMR90~1\AppData\Local\Temp\ccyjM0JL.s:25669  .debug_str:00000000000164d7 .LASF5560
C:\Users\CYMR90~1\AppData\Local\Temp\ccyjM0JL.s:27562  .debug_str:000000000001e0e1 .LASF5561
C:\Users\CYMR90~1\AppData\Local\Temp\ccyjM0JL.s:25131  .debug_str:00000000000144a5 .LASF5562
C:\Users\CYMR90~1\AppData\Local\Temp\ccyjM0JL.s:27968  .debug_str:000000000001f92e .LASF5563
C:\Users\CYMR90~1\AppData\Local\Temp\ccyjM0JL.s:26428  .debug_str:000000000001969c .LASF5565
C:\Users\CYMR90~1\AppData\Local\Temp\ccyjM0JL.s:20177  .debug_str:00000000000008ad .LASF5566
C:\Users\CYMR90~1\AppData\Local\Temp\ccyjM0JL.s:30998  .debug_str:000000000002b728 .LASF5567
C:\Users\CYMR90~1\AppData\Local\Temp\ccyjM0JL.s:29556  .debug_str:0000000000025d35 .LASF5568
C:\Users\CYMR90~1\AppData\Local\Temp\ccyjM0JL.s:25936  .debug_str:000000000001775d .LASF855
C:\Users\CYMR90~1\AppData\Local\Temp\ccyjM0JL.s:25433  .debug_str:0000000000015673 .LASF5569
C:\Users\CYMR90~1\AppData\Local\Temp\ccyjM0JL.s:29670  .debug_str:0000000000026445 .LASF5570
C:\Users\CYMR90~1\AppData\Local\Temp\ccyjM0JL.s:23763  .debug_str:000000000000ed7c .LASF5571
C:\Users\CYMR90~1\AppData\Local\Temp\ccyjM0JL.s:28170  .debug_str:000000000002057b .LASF5683
C:\Users\CYMR90~1\AppData\Local\Temp\ccyjM0JL.s:25333  .debug_str:00000000000150eb .LASF5572
C:\Users\CYMR90~1\AppData\Local\Temp\ccyjM0JL.s:20829  .debug_str:0000000000003125 .LASF5573
C:\Users\CYMR90~1\AppData\Local\Temp\ccyjM0JL.s:23701  .debug_str:000000000000e9af .LASF5574
C:\Users\CYMR90~1\AppData\Local\Temp\ccyjM0JL.s:23805  .debug_str:000000000000ef6a .LASF5575
C:\Users\CYMR90~1\AppData\Local\Temp\ccyjM0JL.s:28926  .debug_str:000000000002333e .LASF5576
C:\Users\CYMR90~1\AppData\Local\Temp\ccyjM0JL.s:30690  .debug_str:000000000002a4ad .LASF5577
C:\Users\CYMR90~1\AppData\Local\Temp\ccyjM0JL.s:21521  .debug_str:0000000000005d83 .LASF5578
C:\Users\CYMR90~1\AppData\Local\Temp\ccyjM0JL.s:30402  .debug_str:00000000000293a4 .LASF5579
C:\Users\CYMR90~1\AppData\Local\Temp\ccyjM0JL.s:26064  .debug_str:0000000000017f59 .LASF5580
C:\Users\CYMR90~1\AppData\Local\Temp\ccyjM0JL.s:29680  .debug_str:00000000000264e2 .LASF5581
C:\Users\CYMR90~1\AppData\Local\Temp\ccyjM0JL.s:21829  .debug_str:0000000000006ff3 .LASF5582
C:\Users\CYMR90~1\AppData\Local\Temp\ccyjM0JL.s:25339  .debug_str:0000000000015122 .LASF5583
C:\Users\CYMR90~1\AppData\Local\Temp\ccyjM0JL.s:30570  .debug_str:0000000000029dae .LASF5584
C:\Users\CYMR90~1\AppData\Local\Temp\ccyjM0JL.s:29420  .debug_str:000000000002525e .LASF5585
C:\Users\CYMR90~1\AppData\Local\Temp\ccyjM0JL.s:21563  .debug_str:0000000000005fa3 .LASF5586
C:\Users\CYMR90~1\AppData\Local\Temp\ccyjM0JL.s:29640  .debug_str:0000000000026224 .LASF5587
C:\Users\CYMR90~1\AppData\Local\Temp\ccyjM0JL.s:28686  .debug_str:0000000000022529 .LASF5588
C:\Users\CYMR90~1\AppData\Local\Temp\ccyjM0JL.s:20853  .debug_str:00000000000032b1 .LASF5589
C:\Users\CYMR90~1\AppData\Local\Temp\ccyjM0JL.s:24453  .debug_str:000000000001181b .LASF5590
C:\Users\CYMR90~1\AppData\Local\Temp\ccyjM0JL.s:27918  .debug_str:000000000001f658 .LASF5591
C:\Users\CYMR90~1\AppData\Local\Temp\ccyjM0JL.s:24929  .debug_str:000000000001386f .LASF5592
C:\Users\CYMR90~1\AppData\Local\Temp\ccyjM0JL.s:26130  .debug_str:0000000000018316 .LASF5593
C:\Users\CYMR90~1\AppData\Local\Temp\ccyjM0JL.s:25189  .debug_str:0000000000014849 .LASF5594
C:\Users\CYMR90~1\AppData\Local\Temp\ccyjM0JL.s:27524  .debug_str:000000000001de71 .LASF5595
C:\Users\CYMR90~1\AppData\Local\Temp\ccyjM0JL.s:26590  .debug_str:000000000001a145 .LASF5596
C:\Users\CYMR90~1\AppData\Local\Temp\ccyjM0JL.s:23093  .debug_str:000000000000c320 .LASF5597
C:\Users\CYMR90~1\AppData\Local\Temp\ccyjM0JL.s:22421  .debug_str:0000000000009699 .LASF5598
C:\Users\CYMR90~1\AppData\Local\Temp\ccyjM0JL.s:27990  .debug_str:000000000001fa97 .LASF5599
C:\Users\CYMR90~1\AppData\Local\Temp\ccyjM0JL.s:20205  .debug_str:0000000000000a2a .LASF5600
C:\Users\CYMR90~1\AppData\Local\Temp\ccyjM0JL.s:30836  .debug_str:000000000002ad73 .LASF5601
C:\Users\CYMR90~1\AppData\Local\Temp\ccyjM0JL.s:28010  .debug_str:000000000001fbc8 .LASF5602
C:\Users\CYMR90~1\AppData\Local\Temp\ccyjM0JL.s:24059  .debug_str:000000000000ff82 .LASF5603
C:\Users\CYMR90~1\AppData\Local\Temp\ccyjM0JL.s:21247  .debug_str:0000000000004d0a .LASF5604
C:\Users\CYMR90~1\AppData\Local\Temp\ccyjM0JL.s:23765  .debug_str:000000000000ed85 .LASF5605
C:\Users\CYMR90~1\AppData\Local\Temp\ccyjM0JL.s:21115  .debug_str:00000000000043e7 .LASF5606
C:\Users\CYMR90~1\AppData\Local\Temp\ccyjM0JL.s:26876  .debug_str:000000000001b51a .LASF5607
C:\Users\CYMR90~1\AppData\Local\Temp\ccyjM0JL.s:30390  .debug_str:00000000000292ee .LASF5608
C:\Users\CYMR90~1\AppData\Local\Temp\ccyjM0JL.s:26436  .debug_str:0000000000019723 .LASF5609
C:\Users\CYMR90~1\AppData\Local\Temp\ccyjM0JL.s:24183  .debug_str:00000000000106eb .LASF5610
C:\Users\CYMR90~1\AppData\Local\Temp\ccyjM0JL.s:24473  .debug_str:00000000000119fa .LASF5611
C:\Users\CYMR90~1\AppData\Local\Temp\ccyjM0JL.s:20527  .debug_str:0000000000001eb5 .LASF5612
C:\Users\CYMR90~1\AppData\Local\Temp\ccyjM0JL.s:24139  .debug_str:0000000000010468 .LASF5613
C:\Users\CYMR90~1\AppData\Local\Temp\ccyjM0JL.s:28270  .debug_str:0000000000020baa .LASF5614
C:\Users\CYMR90~1\AppData\Local\Temp\ccyjM0JL.s:26388  .debug_str:000000000001943f .LASF5615
C:\Users\CYMR90~1\AppData\Local\Temp\ccyjM0JL.s:30916  .debug_str:000000000002b222 .LASF5616
C:\Users\CYMR90~1\AppData\Local\Temp\ccyjM0JL.s:22335  .debug_str:0000000000009144 .LASF5617
C:\Users\CYMR90~1\AppData\Local\Temp\ccyjM0JL.s:30304  .debug_str:0000000000028dd1 .LASF5618
C:\Users\CYMR90~1\AppData\Local\Temp\ccyjM0JL.s:20161  .debug_str:00000000000007c7 .LASF5619
C:\Users\CYMR90~1\AppData\Local\Temp\ccyjM0JL.s:22087  .debug_str:00000000000081ed .LASF5620
C:\Users\CYMR90~1\AppData\Local\Temp\ccyjM0JL.s:24739  .debug_str:0000000000012bb5 .LASF5621
C:\Users\CYMR90~1\AppData\Local\Temp\ccyjM0JL.s:31286  .debug_str:000000000002ca40 .LASF5622
C:\Users\CYMR90~1\AppData\Local\Temp\ccyjM0JL.s:25219  .debug_str:00000000000149e6 .LASF5623
C:\Users\CYMR90~1\AppData\Local\Temp\ccyjM0JL.s:27312  .debug_str:000000000001d0da .LASF5624
C:\Users\CYMR90~1\AppData\Local\Temp\ccyjM0JL.s:24147  .debug_str:00000000000104ca .LASF5625
C:\Users\CYMR90~1\AppData\Local\Temp\ccyjM0JL.s:27612  .debug_str:000000000001e3c6 .LASF5626
C:\Users\CYMR90~1\AppData\Local\Temp\ccyjM0JL.s:31270  .debug_str:000000000002c971 .LASF5627
C:\Users\CYMR90~1\AppData\Local\Temp\ccyjM0JL.s:23431  .debug_str:000000000000d93f .LASF5628
C:\Users\CYMR90~1\AppData\Local\Temp\ccyjM0JL.s:21423  .debug_str:0000000000005771 .LASF5629
C:\Users\CYMR90~1\AppData\Local\Temp\ccyjM0JL.s:30516  .debug_str:0000000000029a8d .LASF5630
C:\Users\CYMR90~1\AppData\Local\Temp\ccyjM0JL.s:22687  .debug_str:000000000000a721 .LASF5631
C:\Users\CYMR90~1\AppData\Local\Temp\ccyjM0JL.s:26172  .debug_str:0000000000018596 .LASF5632
C:\Users\CYMR90~1\AppData\Local\Temp\ccyjM0JL.s:25804  .debug_str:0000000000016fe3 .LASF5633
C:\Users\CYMR90~1\AppData\Local\Temp\ccyjM0JL.s:25331  .debug_str:00000000000150e2 .LASF5634
C:\Users\CYMR90~1\AppData\Local\Temp\ccyjM0JL.s:30762  .debug_str:000000000002a922 .LASF5635
C:\Users\CYMR90~1\AppData\Local\Temp\ccyjM0JL.s:20049  .debug_str:0000000000000123 .LASF5636
C:\Users\CYMR90~1\AppData\Local\Temp\ccyjM0JL.s:21543  .debug_str:0000000000005e97 .LASF5637
C:\Users\CYMR90~1\AppData\Local\Temp\ccyjM0JL.s:24715  .debug_str:0000000000012a1c .LASF5638
C:\Users\CYMR90~1\AppData\Local\Temp\ccyjM0JL.s:28384  .debug_str:0000000000021224 .LASF5639
C:\Users\CYMR90~1\AppData\Local\Temp\ccyjM0JL.s:20559  .debug_str:0000000000002078 .LASF5640
C:\Users\CYMR90~1\AppData\Local\Temp\ccyjM0JL.s:24089  .debug_str:000000000001012e .LASF5641
C:\Users\CYMR90~1\AppData\Local\Temp\ccyjM0JL.s:21891  .debug_str:0000000000007446 .LASF5642
C:\Users\CYMR90~1\AppData\Local\Temp\ccyjM0JL.s:25914  .debug_str:0000000000017630 .LASF5643
C:\Users\CYMR90~1\AppData\Local\Temp\ccyjM0JL.s:25609  .debug_str:000000000001615e .LASF5644
C:\Users\CYMR90~1\AppData\Local\Temp\ccyjM0JL.s:20561  .debug_str:0000000000002090 .LASF5645
C:\Users\CYMR90~1\AppData\Local\Temp\ccyjM0JL.s:29736  .debug_str:000000000002680c .LASF5646
C:\Users\CYMR90~1\AppData\Local\Temp\ccyjM0JL.s:29508  .debug_str:0000000000025981 .LASF5647
C:\Users\CYMR90~1\AppData\Local\Temp\ccyjM0JL.s:22045  .debug_str:0000000000007ec1 .LASF5648
C:\Users\CYMR90~1\AppData\Local\Temp\ccyjM0JL.s:23403  .debug_str:000000000000d79c .LASF5649
C:\Users\CYMR90~1\AppData\Local\Temp\ccyjM0JL.s:23989  .debug_str:000000000000fb08 .LASF5650
C:\Users\CYMR90~1\AppData\Local\Temp\ccyjM0JL.s:23063  .debug_str:000000000000c15c .LASF5651
C:\Users\CYMR90~1\AppData\Local\Temp\ccyjM0JL.s:27114  .debug_str:000000000001c3dd .LASF5652
C:\Users\CYMR90~1\AppData\Local\Temp\ccyjM0JL.s:30514  .debug_str:0000000000029a84 .LASF5653
C:\Users\CYMR90~1\AppData\Local\Temp\ccyjM0JL.s:25375  .debug_str:000000000001532e .LASF5654
C:\Users\CYMR90~1\AppData\Local\Temp\ccyjM0JL.s:27410  .debug_str:000000000001d75f .LASF5655
C:\Users\CYMR90~1\AppData\Local\Temp\ccyjM0JL.s:30192  .debug_str:0000000000028664 .LASF5656
C:\Users\CYMR90~1\AppData\Local\Temp\ccyjM0JL.s:29388  .debug_str:0000000000025082 .LASF5657
C:\Users\CYMR90~1\AppData\Local\Temp\ccyjM0JL.s:31120  .debug_str:000000000002bf1e .LASF5658
C:\Users\CYMR90~1\AppData\Local\Temp\ccyjM0JL.s:22845  .debug_str:000000000000b2c8 .LASF5659
C:\Users\CYMR90~1\AppData\Local\Temp\ccyjM0JL.s:28252  .debug_str:0000000000020aa0 .LASF5660
C:\Users\CYMR90~1\AppData\Local\Temp\ccyjM0JL.s:22849  .debug_str:000000000000b2e9 .LASF5661
C:\Users\CYMR90~1\AppData\Local\Temp\ccyjM0JL.s:25211  .debug_str:0000000000014997 .LASF5662
C:\Users\CYMR90~1\AppData\Local\Temp\ccyjM0JL.s:29106  .debug_str:0000000000023de3 .LASF5663
C:\Users\CYMR90~1\AppData\Local\Temp\ccyjM0JL.s:30598  .debug_str:0000000000029f44 .LASF5664
C:\Users\CYMR90~1\AppData\Local\Temp\ccyjM0JL.s:25277  .debug_str:0000000000014d39 .LASF5665
C:\Users\CYMR90~1\AppData\Local\Temp\ccyjM0JL.s:27778  .debug_str:000000000001ed9a .LASF5666
C:\Users\CYMR90~1\AppData\Local\Temp\ccyjM0JL.s:20179  .debug_str:00000000000008bf .LASF5667
C:\Users\CYMR90~1\AppData\Local\Temp\ccyjM0JL.s:25551  .debug_str:0000000000015d60 .LASF5668
C:\Users\CYMR90~1\AppData\Local\Temp\ccyjM0JL.s:24157  .debug_str:0000000000010555 .LASF5669
C:\Users\CYMR90~1\AppData\Local\Temp\ccyjM0JL.s:29580  .debug_str:0000000000025eb3 .LASF5670
C:\Users\CYMR90~1\AppData\Local\Temp\ccyjM0JL.s:28784  .debug_str:0000000000022ad3 .LASF5671
C:\Users\CYMR90~1\AppData\Local\Temp\ccyjM0JL.s:570    .text.eclic_system_reset:0000000000000000 .LFB353
C:\Users\CYMR90~1\AppData\Local\Temp\ccyjM0JL.s:596    .text.eclic_system_reset:000000000000001c .LFE353
C:\Users\CYMR90~1\AppData\Local\Temp\ccyjM0JL.s:579    .text.eclic_system_reset:0000000000000006 .LBB79
C:\Users\CYMR90~1\AppData\Local\Temp\ccyjM0JL.s:594    .text.eclic_system_reset:000000000000001c .LBE79
C:\Users\CYMR90~1\AppData\Local\Temp\ccyjM0JL.s:27222  .debug_str:000000000001caac .LASF5672
C:\Users\CYMR90~1\AppData\Local\Temp\ccyjM0JL.s:520    .text.eclic_irq_disable:0000000000000000 .LFB352
C:\Users\CYMR90~1\AppData\Local\Temp\ccyjM0JL.s:563    .text.eclic_irq_disable:000000000000004e .LFE352
C:\Users\CYMR90~1\AppData\Local\Temp\ccyjM0JL.s:27188  .debug_str:000000000001c7c2 .LASF5674
C:\Users\CYMR90~1\AppData\Local\Temp\ccyjM0JL.s:532    .text.eclic_irq_disable:0000000000000012 .LBB77
C:\Users\CYMR90~1\AppData\Local\Temp\ccyjM0JL.s:553    .text.eclic_irq_disable:0000000000000046 .LBE77
C:\Users\CYMR90~1\AppData\Local\Temp\ccyjM0JL.s:26146  .debug_str:0000000000018401 .LASF5673
C:\Users\CYMR90~1\AppData\Local\Temp\ccyjM0JL.s:213    .text.eclic_irq_enable:0000000000000000 .LFB351
C:\Users\CYMR90~1\AppData\Local\Temp\ccyjM0JL.s:513    .text.eclic_irq_enable:000000000000027a .LFE351
C:\Users\CYMR90~1\AppData\Local\Temp\ccyjM0JL.s:25275  .debug_str:0000000000014d33 .LASF5675
C:\Users\CYMR90~1\AppData\Local\Temp\ccyjM0JL.s:22295  .debug_str:0000000000008f37 .LASF5676
C:\Users\CYMR90~1\AppData\Local\Temp\ccyjM0JL.s:232    .text.eclic_irq_enable:0000000000000028 .LBB58
C:\Users\CYMR90~1\AppData\Local\Temp\ccyjM0JL.s:349    .text.eclic_irq_enable:0000000000000124 .LBE58
C:\Users\CYMR90~1\AppData\Local\Temp\ccyjM0JL.s:234    .text.eclic_irq_enable:0000000000000028 .LBB60
C:\Users\CYMR90~1\AppData\Local\Temp\ccyjM0JL.s:244    .text.eclic_irq_enable:0000000000000038 .LBE60
C:\Users\CYMR90~1\AppData\Local\Temp\ccyjM0JL.s:290    .text.eclic_irq_enable:00000000000000a2 .LBB62
C:\Users\CYMR90~1\AppData\Local\Temp\ccyjM0JL.s:302    .text.eclic_irq_enable:00000000000000ba .LBE62
C:\Users\CYMR90~1\AppData\Local\Temp\ccyjM0JL.s:325    .text.eclic_irq_enable:00000000000000f8 .LBB64
C:\Users\CYMR90~1\AppData\Local\Temp\ccyjM0JL.s:340    .text.eclic_irq_enable:0000000000000112 .LBE64
C:\Users\CYMR90~1\AppData\Local\Temp\ccyjM0JL.s:350    .text.eclic_irq_enable:0000000000000124 .LBB66
C:\Users\CYMR90~1\AppData\Local\Temp\ccyjM0JL.s:481    .text.eclic_irq_enable:000000000000023c .LBE66
C:\Users\CYMR90~1\AppData\Local\Temp\ccyjM0JL.s:352    .text.eclic_irq_enable:0000000000000124 .LBB68
C:\Users\CYMR90~1\AppData\Local\Temp\ccyjM0JL.s:362    .text.eclic_irq_enable:0000000000000134 .LBE68
C:\Users\CYMR90~1\AppData\Local\Temp\ccyjM0JL.s:372    .text.eclic_irq_enable:000000000000014a .LBB70
C:\Users\CYMR90~1\AppData\Local\Temp\ccyjM0JL.s:475    .text.eclic_irq_enable:0000000000000232 .LBE70
C:\Users\CYMR90~1\AppData\Local\Temp\ccyjM0JL.s:416    .text.eclic_irq_enable:00000000000001b6 .LBB71
C:\Users\CYMR90~1\AppData\Local\Temp\ccyjM0JL.s:428    .text.eclic_irq_enable:00000000000001ce .LBE71
C:\Users\CYMR90~1\AppData\Local\Temp\ccyjM0JL.s:459    .text.eclic_irq_enable:0000000000000218 .LBB73
C:\Users\CYMR90~1\AppData\Local\Temp\ccyjM0JL.s:474    .text.eclic_irq_enable:0000000000000232 .LBE73
C:\Users\CYMR90~1\AppData\Local\Temp\ccyjM0JL.s:482    .text.eclic_irq_enable:000000000000023c .LBB75
C:\Users\CYMR90~1\AppData\Local\Temp\ccyjM0JL.s:503    .text.eclic_irq_enable:0000000000000272 .LBE75
C:\Users\CYMR90~1\AppData\Local\Temp\ccyjM0JL.s:29586  .debug_str:0000000000025eec .LASF5677
C:\Users\CYMR90~1\AppData\Local\Temp\ccyjM0JL.s:145    .text.eclic_priority_group_set:0000000000000000 .LFB350
C:\Users\CYMR90~1\AppData\Local\Temp\ccyjM0JL.s:206    .text.eclic_priority_group_set:0000000000000076 .LFE350
C:\Users\CYMR90~1\AppData\Local\Temp\ccyjM0JL.s:23023  .debug_str:000000000000be89 .LASF5678
C:\Users\CYMR90~1\AppData\Local\Temp\ccyjM0JL.s:159    .text.eclic_priority_group_set:0000000000000014 .LBB56
C:\Users\CYMR90~1\AppData\Local\Temp\ccyjM0JL.s:196    .text.eclic_priority_group_set:000000000000006e .LBE56
C:\Users\CYMR90~1\AppData\Local\Temp\ccyjM0JL.s:31410  .debug_str:000000000002d288 .LASF5679
C:\Users\CYMR90~1\AppData\Local\Temp\ccyjM0JL.s:104    .text.eclic_level_threshold_set:0000000000000000 .LFB349
C:\Users\CYMR90~1\AppData\Local\Temp\ccyjM0JL.s:138    .text.eclic_level_threshold_set:000000000000002a .LFE349
C:\Users\CYMR90~1\AppData\Local\Temp\ccyjM0JL.s:27092  .debug_str:000000000001c279 .LASF5680
C:\Users\CYMR90~1\AppData\Local\Temp\ccyjM0JL.s:117    .text.eclic_level_threshold_set:0000000000000014 .LBB54
C:\Users\CYMR90~1\AppData\Local\Temp\ccyjM0JL.s:128    .text.eclic_level_threshold_set:0000000000000022 .LBE54
C:\Users\CYMR90~1\AppData\Local\Temp\ccyjM0JL.s:30086  .debug_str:0000000000027e84 .LASF5681
C:\Users\CYMR90~1\AppData\Local\Temp\ccyjM0JL.s:60     .text.eclic_global_interrupt_disable:0000000000000000 .LFB348
C:\Users\CYMR90~1\AppData\Local\Temp\ccyjM0JL.s:97     .text.eclic_global_interrupt_disable:000000000000001a .LFE348
C:\Users\CYMR90~1\AppData\Local\Temp\ccyjM0JL.s:71     .text.eclic_global_interrupt_disable:0000000000000008 .LBB51
C:\Users\CYMR90~1\AppData\Local\Temp\ccyjM0JL.s:85     .text.eclic_global_interrupt_disable:0000000000000010 .LBE51
C:\Users\CYMR90~1\AppData\Local\Temp\ccyjM0JL.s:73     .text.eclic_global_interrupt_disable:0000000000000008 .LBB53
C:\Users\CYMR90~1\AppData\Local\Temp\ccyjM0JL.s:81     .text.eclic_global_interrupt_disable:000000000000000e .LBE53
C:\Users\CYMR90~1\AppData\Local\Temp\ccyjM0JL.s:25481  .debug_str:0000000000015912 .LASF5682
C:\Users\CYMR90~1\AppData\Local\Temp\ccyjM0JL.s:14     .text.eclic_global_interrupt_enable:0000000000000000 .LFB347
C:\Users\CYMR90~1\AppData\Local\Temp\ccyjM0JL.s:53     .text.eclic_global_interrupt_enable:000000000000001a .LFE347
C:\Users\CYMR90~1\AppData\Local\Temp\ccyjM0JL.s:26     .text.eclic_global_interrupt_enable:0000000000000008 .LBB48
C:\Users\CYMR90~1\AppData\Local\Temp\ccyjM0JL.s:41     .text.eclic_global_interrupt_enable:0000000000000010 .LBE48
C:\Users\CYMR90~1\AppData\Local\Temp\ccyjM0JL.s:28     .text.eclic_global_interrupt_enable:0000000000000008 .LBB50
C:\Users\CYMR90~1\AppData\Local\Temp\ccyjM0JL.s:37     .text.eclic_global_interrupt_enable:000000000000000e .LBE50
C:\Users\CYMR90~1\AppData\Local\Temp\ccyjM0JL.s:23331  .debug_str:000000000000d248 .LASF5703
C:\Users\CYMR90~1\AppData\Local\Temp\ccyjM0JL.s:21147  .debug_str:00000000000045f1 .LASF5689
C:\Users\CYMR90~1\AppData\Local\Temp\ccyjM0JL.s:21761  .debug_str:0000000000006bcd .LASF5684
C:\Users\CYMR90~1\AppData\Local\Temp\ccyjM0JL.s:25952  .debug_str:0000000000017859 .LASF5685
C:\Users\CYMR90~1\AppData\Local\Temp\ccyjM0JL.s:28978  .debug_str:000000000002362b .LASF5686
C:\Users\CYMR90~1\AppData\Local\Temp\ccyjM0JL.s:24367  .debug_str:00000000000112e8 .LASF5687
C:\Users\CYMR90~1\AppData\Local\Temp\ccyjM0JL.s:30892  .debug_str:000000000002b0b4 .LASF5688
C:\Users\CYMR90~1\AppData\Local\Temp\ccyjM0JL.s:28240  .debug_str:0000000000020a05 .LASF5690
C:\Users\CYMR90~1\AppData\Local\Temp\ccyjM0JL.s:24499  .debug_str:0000000000011bed .LASF5691
C:\Users\CYMR90~1\AppData\Local\Temp\ccyjM0JL.s:27148  .debug_str:000000000001c5ad .LASF5692
C:\Users\CYMR90~1\AppData\Local\Temp\ccyjM0JL.s:20085  .debug_str:000000000000035d .LASF5704
C:\Users\CYMR90~1\AppData\Local\Temp\ccyjM0JL.s:25291  .debug_str:0000000000014e02 .LASF5693
C:\Users\CYMR90~1\AppData\Local\Temp\ccyjM0JL.s:29190  .debug_str:0000000000024356 .LASF5694
C:\Users\CYMR90~1\AppData\Local\Temp\ccyjM0JL.s:24143  .debug_str:000000000001048f .LASF5695
C:\Users\CYMR90~1\AppData\Local\Temp\ccyjM0JL.s:21453  .debug_str:000000000000594b .LASF5696
C:\Users\CYMR90~1\AppData\Local\Temp\ccyjM0JL.s:22269  .debug_str:0000000000008d5b .LASF5697
C:\Users\CYMR90~1\AppData\Local\Temp\ccyjM0JL.s:24115  .debug_str:000000000001030d .LASF5705
C:\Users\CYMR90~1\AppData\Local\Temp\ccyjM0JL.s:20095  .debug_str:00000000000003ea .LASF5698
C:\Users\CYMR90~1\AppData\Local\Temp\ccyjM0JL.s:22047  .debug_str:0000000000007ecc .LASF5699
C:\Users\CYMR90~1\AppData\Local\Temp\ccyjM0JL.s:30320  .debug_str:0000000000028ec5 .LASF5706
C:\Users\CYMR90~1\AppData\Local\Temp\ccyjM0JL.s:604    .debug_info:0000000000000000 .Ldebug_info0
C:\Users\CYMR90~1\AppData\Local\Temp\ccyjM0JL.s:3016   .debug_macro:0000000000000000 .Ldebug_macro2
C:\Users\CYMR90~1\AppData\Local\Temp\ccyjM0JL.s:26812  .debug_str:000000000001b0fe .LASF314
C:\Users\CYMR90~1\AppData\Local\Temp\ccyjM0JL.s:25844  .debug_str:000000000001723f .LASF315
C:\Users\CYMR90~1\AppData\Local\Temp\ccyjM0JL.s:3963   .debug_macro:0000000000000000 .Ldebug_macro3
C:\Users\CYMR90~1\AppData\Local\Temp\ccyjM0JL.s:22245  .debug_str:0000000000008be1 .LASF369
C:\Users\CYMR90~1\AppData\Local\Temp\ccyjM0JL.s:21801  .debug_str:0000000000006e3a .LASF370
C:\Users\CYMR90~1\AppData\Local\Temp\ccyjM0JL.s:26092  .debug_str:00000000000180df .LASF371
C:\Users\CYMR90~1\AppData\Local\Temp\ccyjM0JL.s:4127   .debug_macro:0000000000000000 .Ldebug_macro4
C:\Users\CYMR90~1\AppData\Local\Temp\ccyjM0JL.s:4147   .debug_macro:0000000000000000 .Ldebug_macro5
C:\Users\CYMR90~1\AppData\Local\Temp\ccyjM0JL.s:24733  .debug_str:0000000000012b5c .LASF390
C:\Users\CYMR90~1\AppData\Local\Temp\ccyjM0JL.s:4191   .debug_macro:0000000000000000 .Ldebug_macro6
C:\Users\CYMR90~1\AppData\Local\Temp\ccyjM0JL.s:4205   .debug_macro:0000000000000000 .Ldebug_macro7
C:\Users\CYMR90~1\AppData\Local\Temp\ccyjM0JL.s:4273   .debug_macro:0000000000000000 .Ldebug_macro8
C:\Users\CYMR90~1\AppData\Local\Temp\ccyjM0JL.s:4299   .debug_macro:0000000000000000 .Ldebug_macro9
C:\Users\CYMR90~1\AppData\Local\Temp\ccyjM0JL.s:4328   .debug_macro:0000000000000000 .Ldebug_macro10
C:\Users\CYMR90~1\AppData\Local\Temp\ccyjM0JL.s:26232  .debug_str:0000000000018920 .LASF433
C:\Users\CYMR90~1\AppData\Local\Temp\ccyjM0JL.s:4342   .debug_macro:0000000000000000 .Ldebug_macro11
C:\Users\CYMR90~1\AppData\Local\Temp\ccyjM0JL.s:4386   .debug_macro:0000000000000000 .Ldebug_macro12
C:\Users\CYMR90~1\AppData\Local\Temp\ccyjM0JL.s:4412   .debug_macro:0000000000000000 .Ldebug_macro13
C:\Users\CYMR90~1\AppData\Local\Temp\ccyjM0JL.s:29836  .debug_str:0000000000026e72 .LASF569
C:\Users\CYMR90~1\AppData\Local\Temp\ccyjM0JL.s:4783   .debug_macro:0000000000000000 .Ldebug_macro14
C:\Users\CYMR90~1\AppData\Local\Temp\ccyjM0JL.s:24243  .debug_str:0000000000010af5 .LASF572
C:\Users\CYMR90~1\AppData\Local\Temp\ccyjM0JL.s:29166  .debug_str:000000000002414a .LASF573
C:\Users\CYMR90~1\AppData\Local\Temp\ccyjM0JL.s:4794   .debug_macro:0000000000000000 .Ldebug_macro15
C:\Users\CYMR90~1\AppData\Local\Temp\ccyjM0JL.s:4808   .debug_macro:0000000000000000 .Ldebug_macro16
C:\Users\CYMR90~1\AppData\Local\Temp\ccyjM0JL.s:21977  .debug_str:00000000000079b2 .LASF578
C:\Users\CYMR90~1\AppData\Local\Temp\ccyjM0JL.s:4840   .debug_macro:0000000000000000 .Ldebug_macro17
C:\Users\CYMR90~1\AppData\Local\Temp\ccyjM0JL.s:4866   .debug_macro:0000000000000000 .Ldebug_macro18
C:\Users\CYMR90~1\AppData\Local\Temp\ccyjM0JL.s:4877   .debug_macro:0000000000000000 .Ldebug_macro19
C:\Users\CYMR90~1\AppData\Local\Temp\ccyjM0JL.s:4921   .debug_macro:0000000000000000 .Ldebug_macro20
C:\Users\CYMR90~1\AppData\Local\Temp\ccyjM0JL.s:5091   .debug_macro:0000000000000000 .Ldebug_macro21
C:\Users\CYMR90~1\AppData\Local\Temp\ccyjM0JL.s:5102   .debug_macro:0000000000000000 .Ldebug_macro22
C:\Users\CYMR90~1\AppData\Local\Temp\ccyjM0JL.s:24471  .debug_str:00000000000119e4 .LASF675
C:\Users\CYMR90~1\AppData\Local\Temp\ccyjM0JL.s:5158   .debug_macro:0000000000000000 .Ldebug_macro23
C:\Users\CYMR90~1\AppData\Local\Temp\ccyjM0JL.s:5175   .debug_macro:0000000000000000 .Ldebug_macro24
C:\Users\CYMR90~1\AppData\Local\Temp\ccyjM0JL.s:27960  .debug_str:000000000001f8be .LASF693
C:\Users\CYMR90~1\AppData\Local\Temp\ccyjM0JL.s:26098  .debug_str:0000000000018110 .LASF694
C:\Users\CYMR90~1\AppData\Local\Temp\ccyjM0JL.s:5219   .debug_macro:0000000000000000 .Ldebug_macro25
C:\Users\CYMR90~1\AppData\Local\Temp\ccyjM0JL.s:21261  .debug_str:0000000000004dd9 .LASF700
C:\Users\CYMR90~1\AppData\Local\Temp\ccyjM0JL.s:22385  .debug_str:0000000000009434 .LASF701
C:\Users\CYMR90~1\AppData\Local\Temp\ccyjM0JL.s:5239   .debug_macro:0000000000000000 .Ldebug_macro26
C:\Users\CYMR90~1\AppData\Local\Temp\ccyjM0JL.s:5250   .debug_macro:0000000000000000 .Ldebug_macro27
C:\Users\CYMR90~1\AppData\Local\Temp\ccyjM0JL.s:5294   .debug_macro:0000000000000000 .Ldebug_macro28
C:\Users\CYMR90~1\AppData\Local\Temp\ccyjM0JL.s:21625  .debug_str:000000000000636e .LASF749
C:\Users\CYMR90~1\AppData\Local\Temp\ccyjM0JL.s:5395   .debug_macro:0000000000000000 .Ldebug_macro29
C:\Users\CYMR90~1\AppData\Local\Temp\ccyjM0JL.s:5412   .debug_macro:0000000000000000 .Ldebug_macro30
C:\Users\CYMR90~1\AppData\Local\Temp\ccyjM0JL.s:20105  .debug_str:0000000000000470 .LASF763
C:\Users\CYMR90~1\AppData\Local\Temp\ccyjM0JL.s:21437  .debug_str:0000000000005873 .LASF764
C:\Users\CYMR90~1\AppData\Local\Temp\ccyjM0JL.s:5444   .debug_macro:0000000000000000 .Ldebug_macro31
C:\Users\CYMR90~1\AppData\Local\Temp\ccyjM0JL.s:5458   .debug_macro:0000000000000000 .Ldebug_macro32
C:\Users\CYMR90~1\AppData\Local\Temp\ccyjM0JL.s:5628   .debug_macro:0000000000000000 .Ldebug_macro33
C:\Users\CYMR90~1\AppData\Local\Temp\ccyjM0JL.s:23903  .debug_str:000000000000f55e .LASF850
C:\Users\CYMR90~1\AppData\Local\Temp\ccyjM0JL.s:26318  .debug_str:0000000000018f4f .LASF851
C:\Users\CYMR90~1\AppData\Local\Temp\ccyjM0JL.s:5714   .debug_macro:0000000000000000 .Ldebug_macro34
C:\Users\CYMR90~1\AppData\Local\Temp\ccyjM0JL.s:5839   .debug_macro:0000000000000000 .Ldebug_macro35
C:\Users\CYMR90~1\AppData\Local\Temp\ccyjM0JL.s:20397  .debug_str:0000000000001616 .LASF951
C:\Users\CYMR90~1\AppData\Local\Temp\ccyjM0JL.s:6051   .debug_macro:0000000000000000 .Ldebug_macro36
C:\Users\CYMR90~1\AppData\Local\Temp\ccyjM0JL.s:22131  .debug_str:0000000000008500 .LASF957
C:\Users\CYMR90~1\AppData\Local\Temp\ccyjM0JL.s:21677  .debug_str:0000000000006678 .LASF958
C:\Users\CYMR90~1\AppData\Local\Temp\ccyjM0JL.s:24723  .debug_str:0000000000012aa6 .LASF959
C:\Users\CYMR90~1\AppData\Local\Temp\ccyjM0JL.s:6071   .debug_macro:0000000000000000 .Ldebug_macro37
C:\Users\CYMR90~1\AppData\Local\Temp\ccyjM0JL.s:6163   .debug_macro:0000000000000000 .Ldebug_macro38
C:\Users\CYMR90~1\AppData\Local\Temp\ccyjM0JL.s:7809   .debug_macro:0000000000000000 .Ldebug_macro39
C:\Users\CYMR90~1\AppData\Local\Temp\ccyjM0JL.s:7901   .debug_macro:0000000000000000 .Ldebug_macro40
C:\Users\CYMR90~1\AppData\Local\Temp\ccyjM0JL.s:7957   .debug_macro:0000000000000000 .Ldebug_macro41
C:\Users\CYMR90~1\AppData\Local\Temp\ccyjM0JL.s:7971   .debug_macro:0000000000000000 .Ldebug_macro42
C:\Users\CYMR90~1\AppData\Local\Temp\ccyjM0JL.s:25629  .debug_str:0000000000016295 .LASF1655
C:\Users\CYMR90~1\AppData\Local\Temp\ccyjM0JL.s:22507  .debug_str:0000000000009c28 .LASF1656
C:\Users\CYMR90~1\AppData\Local\Temp\ccyjM0JL.s:8195   .debug_macro:0000000000000000 .Ldebug_macro43
C:\Users\CYMR90~1\AppData\Local\Temp\ccyjM0JL.s:8242   .debug_macro:0000000000000000 .Ldebug_macro44
C:\Users\CYMR90~1\AppData\Local\Temp\ccyjM0JL.s:8397   .debug_macro:0000000000000000 .Ldebug_macro45
C:\Users\CYMR90~1\AppData\Local\Temp\ccyjM0JL.s:8453   .debug_macro:0000000000000000 .Ldebug_macro46
C:\Users\CYMR90~1\AppData\Local\Temp\ccyjM0JL.s:8464   .debug_macro:0000000000000000 .Ldebug_macro47
C:\Users\CYMR90~1\AppData\Local\Temp\ccyjM0JL.s:30626  .debug_str:000000000002a0f5 .LASF1782
C:\Users\CYMR90~1\AppData\Local\Temp\ccyjM0JL.s:25393  .debug_str:0000000000015457 .LASF1783
C:\Users\CYMR90~1\AppData\Local\Temp\ccyjM0JL.s:8595   .debug_macro:0000000000000000 .Ldebug_macro48
C:\Users\CYMR90~1\AppData\Local\Temp\ccyjM0JL.s:9167   .debug_macro:0000000000000000 .Ldebug_macro49
C:\Users\CYMR90~1\AppData\Local\Temp\ccyjM0JL.s:9454   .debug_macro:0000000000000000 .Ldebug_macro50
C:\Users\CYMR90~1\AppData\Local\Temp\ccyjM0JL.s:9483   .debug_macro:0000000000000000 .Ldebug_macro51
C:\Users\CYMR90~1\AppData\Local\Temp\ccyjM0JL.s:9560   .debug_macro:0000000000000000 .Ldebug_macro52
C:\Users\CYMR90~1\AppData\Local\Temp\ccyjM0JL.s:10093  .debug_macro:0000000000000000 .Ldebug_macro53
C:\Users\CYMR90~1\AppData\Local\Temp\ccyjM0JL.s:10359  .debug_macro:0000000000000000 .Ldebug_macro54
C:\Users\CYMR90~1\AppData\Local\Temp\ccyjM0JL.s:10838  .debug_macro:0000000000000000 .Ldebug_macro55
C:\Users\CYMR90~1\AppData\Local\Temp\ccyjM0JL.s:11167  .debug_macro:0000000000000000 .Ldebug_macro56
C:\Users\CYMR90~1\AppData\Local\Temp\ccyjM0JL.s:11256  .debug_macro:0000000000000000 .Ldebug_macro57
C:\Users\CYMR90~1\AppData\Local\Temp\ccyjM0JL.s:12071  .debug_macro:0000000000000000 .Ldebug_macro58
C:\Users\CYMR90~1\AppData\Local\Temp\ccyjM0JL.s:12262  .debug_macro:0000000000000000 .Ldebug_macro59
C:\Users\CYMR90~1\AppData\Local\Temp\ccyjM0JL.s:12765  .debug_macro:0000000000000000 .Ldebug_macro60
C:\Users\CYMR90~1\AppData\Local\Temp\ccyjM0JL.s:12911  .debug_macro:0000000000000000 .Ldebug_macro61
C:\Users\CYMR90~1\AppData\Local\Temp\ccyjM0JL.s:13441  .debug_macro:0000000000000000 .Ldebug_macro62
C:\Users\CYMR90~1\AppData\Local\Temp\ccyjM0JL.s:13863  .debug_macro:0000000000000000 .Ldebug_macro63
C:\Users\CYMR90~1\AppData\Local\Temp\ccyjM0JL.s:16637  .debug_macro:0000000000000000 .Ldebug_macro64
C:\Users\CYMR90~1\AppData\Local\Temp\ccyjM0JL.s:17713  .debug_macro:0000000000000000 .Ldebug_macro65
C:\Users\CYMR90~1\AppData\Local\Temp\ccyjM0JL.s:17982  .debug_macro:0000000000000000 .Ldebug_macro66
C:\Users\CYMR90~1\AppData\Local\Temp\ccyjM0JL.s:18254  .debug_macro:0000000000000000 .Ldebug_macro67
C:\Users\CYMR90~1\AppData\Local\Temp\ccyjM0JL.s:19282  .debug_macro:0000000000000000 .Ldebug_macro68
C:\Users\CYMR90~1\AppData\Local\Temp\ccyjM0JL.s:19326  .debug_macro:0000000000000000 .Ldebug_macro69
C:\Users\CYMR90~1\AppData\Local\Temp\ccyjM0JL.s:19952  .debug_macro:0000000000000000 .Ldebug_macro70
C:\Users\CYMR90~1\AppData\Local\Temp\ccyjM0JL.s:20011  .debug_macro:0000000000000000 .Ldebug_macro71
C:\Users\CYMR90~1\AppData\Local\Temp\ccyjM0JL.s:21419  .debug_str:000000000000574b .LASF0
C:\Users\CYMR90~1\AppData\Local\Temp\ccyjM0JL.s:25826  .debug_str:000000000001713f .LASF1
C:\Users\CYMR90~1\AppData\Local\Temp\ccyjM0JL.s:24069  .debug_str:0000000000010024 .LASF2
C:\Users\CYMR90~1\AppData\Local\Temp\ccyjM0JL.s:24125  .debug_str:00000000000103a0 .LASF3
C:\Users\CYMR90~1\AppData\Local\Temp\ccyjM0JL.s:25437  .debug_str:0000000000015691 .LASF4
C:\Users\CYMR90~1\AppData\Local\Temp\ccyjM0JL.s:31036  .debug_str:000000000002b9ad .LASF5
C:\Users\CYMR90~1\AppData\Local\Temp\ccyjM0JL.s:21651  .debug_str:0000000000006516 .LASF6
C:\Users\CYMR90~1\AppData\Local\Temp\ccyjM0JL.s:24917  .debug_str:0000000000013798 .LASF7
C:\Users\CYMR90~1\AppData\Local\Temp\ccyjM0JL.s:29284  .debug_str:00000000000249a1 .LASF8
C:\Users\CYMR90~1\AppData\Local\Temp\ccyjM0JL.s:27178  .debug_str:000000000001c732 .LASF9
C:\Users\CYMR90~1\AppData\Local\Temp\ccyjM0JL.s:26516  .debug_str:0000000000019ce6 .LASF10
C:\Users\CYMR90~1\AppData\Local\Temp\ccyjM0JL.s:26372  .debug_str:0000000000019356 .LASF11
C:\Users\CYMR90~1\AppData\Local\Temp\ccyjM0JL.s:30868  .debug_str:000000000002af5a .LASF12
C:\Users\CYMR90~1\AppData\Local\Temp\ccyjM0JL.s:26384  .debug_str:000000000001940a .LASF13
C:\Users\CYMR90~1\AppData\Local\Temp\ccyjM0JL.s:22665  .debug_str:000000000000a60a .LASF14
C:\Users\CYMR90~1\AppData\Local\Temp\ccyjM0JL.s:27758  .debug_str:000000000001ec9e .LASF15
C:\Users\CYMR90~1\AppData\Local\Temp\ccyjM0JL.s:28526  .debug_str:0000000000021b7d .LASF16
C:\Users\CYMR90~1\AppData\Local\Temp\ccyjM0JL.s:22713  .debug_str:000000000000a8e9 .LASF17
C:\Users\CYMR90~1\AppData\Local\Temp\ccyjM0JL.s:29570  .debug_str:0000000000025e12 .LASF18
C:\Users\CYMR90~1\AppData\Local\Temp\ccyjM0JL.s:23685  .debug_str:000000000000e8a3 .LASF19
C:\Users\CYMR90~1\AppData\Local\Temp\ccyjM0JL.s:29378  .debug_str:000000000002501a .LASF20
C:\Users\CYMR90~1\AppData\Local\Temp\ccyjM0JL.s:26184  .debug_str:000000000001863d .LASF21
C:\Users\CYMR90~1\AppData\Local\Temp\ccyjM0JL.s:26182  .debug_str:0000000000018623 .LASF22
C:\Users\CYMR90~1\AppData\Local\Temp\ccyjM0JL.s:28838  .debug_str:0000000000022e5f .LASF23
C:\Users\CYMR90~1\AppData\Local\Temp\ccyjM0JL.s:27126  .debug_str:000000000001c474 .LASF24
C:\Users\CYMR90~1\AppData\Local\Temp\ccyjM0JL.s:20961  .debug_str:00000000000039d3 .LASF25
C:\Users\CYMR90~1\AppData\Local\Temp\ccyjM0JL.s:25561  .debug_str:0000000000015e0f .LASF26
C:\Users\CYMR90~1\AppData\Local\Temp\ccyjM0JL.s:28842  .debug_str:0000000000022e95 .LASF27
C:\Users\CYMR90~1\AppData\Local\Temp\ccyjM0JL.s:28534  .debug_str:0000000000021bda .LASF28
C:\Users\CYMR90~1\AppData\Local\Temp\ccyjM0JL.s:21371  .debug_str:0000000000005479 .LASF29
C:\Users\CYMR90~1\AppData\Local\Temp\ccyjM0JL.s:27536  .debug_str:000000000001df09 .LASF30
C:\Users\CYMR90~1\AppData\Local\Temp\ccyjM0JL.s:20343  .debug_str:0000000000001308 .LASF31
C:\Users\CYMR90~1\AppData\Local\Temp\ccyjM0JL.s:27996  .debug_str:000000000001fad2 .LASF32
C:\Users\CYMR90~1\AppData\Local\Temp\ccyjM0JL.s:22547  .debug_str:0000000000009e75 .LASF33
C:\Users\CYMR90~1\AppData\Local\Temp\ccyjM0JL.s:22401  .debug_str:000000000000951f .LASF34
C:\Users\CYMR90~1\AppData\Local\Temp\ccyjM0JL.s:23717  .debug_str:000000000000ea7f .LASF35
C:\Users\CYMR90~1\AppData\Local\Temp\ccyjM0JL.s:26626  .debug_str:000000000001a344 .LASF36
C:\Users\CYMR90~1\AppData\Local\Temp\ccyjM0JL.s:21895  .debug_str:0000000000007485 .LASF37
C:\Users\CYMR90~1\AppData\Local\Temp\ccyjM0JL.s:24067  .debug_str:0000000000010001 .LASF38
C:\Users\CYMR90~1\AppData\Local\Temp\ccyjM0JL.s:29790  .debug_str:0000000000026ba0 .LASF39
C:\Users\CYMR90~1\AppData\Local\Temp\ccyjM0JL.s:20721  .debug_str:0000000000002a58 .LASF40
C:\Users\CYMR90~1\AppData\Local\Temp\ccyjM0JL.s:24233  .debug_str:0000000000010a68 .LASF41
C:\Users\CYMR90~1\AppData\Local\Temp\ccyjM0JL.s:24667  .debug_str:00000000000126db .LASF42
C:\Users\CYMR90~1\AppData\Local\Temp\ccyjM0JL.s:24931  .debug_str:0000000000013881 .LASF43
C:\Users\CYMR90~1\AppData\Local\Temp\ccyjM0JL.s:26616  .debug_str:000000000001a2b2 .LASF44
C:\Users\CYMR90~1\AppData\Local\Temp\ccyjM0JL.s:24525  .debug_str:0000000000011d66 .LASF45
C:\Users\CYMR90~1\AppData\Local\Temp\ccyjM0JL.s:21197  .debug_str:0000000000004968 .LASF46
C:\Users\CYMR90~1\AppData\Local\Temp\ccyjM0JL.s:27542  .debug_str:000000000001df6e .LASF47
C:\Users\CYMR90~1\AppData\Local\Temp\ccyjM0JL.s:29286  .debug_str:00000000000249b6 .LASF48
C:\Users\CYMR90~1\AppData\Local\Temp\ccyjM0JL.s:23465  .debug_str:000000000000db1b .LASF49
C:\Users\CYMR90~1\AppData\Local\Temp\ccyjM0JL.s:20557  .debug_str:0000000000002059 .LASF50
C:\Users\CYMR90~1\AppData\Local\Temp\ccyjM0JL.s:20053  .debug_str:000000000000013f .LASF51
C:\Users\CYMR90~1\AppData\Local\Temp\ccyjM0JL.s:30638  .debug_str:000000000002a18a .LASF52
C:\Users\CYMR90~1\AppData\Local\Temp\ccyjM0JL.s:28914  .debug_str:0000000000023299 .LASF53
C:\Users\CYMR90~1\AppData\Local\Temp\ccyjM0JL.s:25013  .debug_str:0000000000013d44 .LASF54
C:\Users\CYMR90~1\AppData\Local\Temp\ccyjM0JL.s:24029  .debug_str:000000000000fd80 .LASF55
C:\Users\CYMR90~1\AppData\Local\Temp\ccyjM0JL.s:21989  .debug_str:0000000000007a70 .LASF56
C:\Users\CYMR90~1\AppData\Local\Temp\ccyjM0JL.s:25415  .debug_str:0000000000015566 .LASF57
C:\Users\CYMR90~1\AppData\Local\Temp\ccyjM0JL.s:20297  .debug_str:0000000000001061 .LASF58
C:\Users\CYMR90~1\AppData\Local\Temp\ccyjM0JL.s:29574  .debug_str:0000000000025e52 .LASF59
C:\Users\CYMR90~1\AppData\Local\Temp\ccyjM0JL.s:24939  .debug_str:00000000000138cd .LASF60
C:\Users\CYMR90~1\AppData\Local\Temp\ccyjM0JL.s:26904  .debug_str:000000000001b6c1 .LASF61
C:\Users\CYMR90~1\AppData\Local\Temp\ccyjM0JL.s:20787  .debug_str:0000000000002eaa .LASF62
C:\Users\CYMR90~1\AppData\Local\Temp\ccyjM0JL.s:23457  .debug_str:000000000000dab1 .LASF63
C:\Users\CYMR90~1\AppData\Local\Temp\ccyjM0JL.s:23189  .debug_str:000000000000c8e2 .LASF64
C:\Users\CYMR90~1\AppData\Local\Temp\ccyjM0JL.s:26602  .debug_str:000000000001a1e9 .LASF65
C:\Users\CYMR90~1\AppData\Local\Temp\ccyjM0JL.s:25247  .debug_str:0000000000014b78 .LASF66
C:\Users\CYMR90~1\AppData\Local\Temp\ccyjM0JL.s:30412  .debug_str:000000000002940e .LASF67
C:\Users\CYMR90~1\AppData\Local\Temp\ccyjM0JL.s:30870  .debug_str:000000000002af6d .LASF68
C:\Users\CYMR90~1\AppData\Local\Temp\ccyjM0JL.s:24479  .debug_str:0000000000011a48 .LASF69
C:\Users\CYMR90~1\AppData\Local\Temp\ccyjM0JL.s:23613  .debug_str:000000000000e41b .LASF70
C:\Users\CYMR90~1\AppData\Local\Temp\ccyjM0JL.s:21209  .debug_str:0000000000004abb .LASF71
C:\Users\CYMR90~1\AppData\Local\Temp\ccyjM0JL.s:24513  .debug_str:0000000000011ca3 .LASF72
C:\Users\CYMR90~1\AppData\Local\Temp\ccyjM0JL.s:24133  .debug_str:0000000000010411 .LASF73
C:\Users\CYMR90~1\AppData\Local\Temp\ccyjM0JL.s:24751  .debug_str:0000000000012c98 .LASF74
C:\Users\CYMR90~1\AppData\Local\Temp\ccyjM0JL.s:24585  .debug_str:000000000001212d .LASF75
C:\Users\CYMR90~1\AppData\Local\Temp\ccyjM0JL.s:24687  .debug_str:0000000000012846 .LASF76
C:\Users\CYMR90~1\AppData\Local\Temp\ccyjM0JL.s:29202  .debug_str:0000000000024422 .LASF77
C:\Users\CYMR90~1\AppData\Local\Temp\ccyjM0JL.s:27102  .debug_str:000000000001c314 .LASF78
C:\Users\CYMR90~1\AppData\Local\Temp\ccyjM0JL.s:27504  .debug_str:000000000001dd37 .LASF79
C:\Users\CYMR90~1\AppData\Local\Temp\ccyjM0JL.s:30392  .debug_str:00000000000292f9 .LASF80
C:\Users\CYMR90~1\AppData\Local\Temp\ccyjM0JL.s:22501  .debug_str:0000000000009bb4 .LASF81
C:\Users\CYMR90~1\AppData\Local\Temp\ccyjM0JL.s:22699  .debug_str:000000000000a7b5 .LASF82
C:\Users\CYMR90~1\AppData\Local\Temp\ccyjM0JL.s:30524  .debug_str:0000000000029b17 .LASF83
C:\Users\CYMR90~1\AppData\Local\Temp\ccyjM0JL.s:22441  .debug_str:00000000000097b8 .LASF84
C:\Users\CYMR90~1\AppData\Local\Temp\ccyjM0JL.s:21715  .debug_str:00000000000068ec .LASF85
C:\Users\CYMR90~1\AppData\Local\Temp\ccyjM0JL.s:26796  .debug_str:000000000001afc8 .LASF86
C:\Users\CYMR90~1\AppData\Local\Temp\ccyjM0JL.s:30554  .debug_str:0000000000029cae .LASF87
C:\Users\CYMR90~1\AppData\Local\Temp\ccyjM0JL.s:27936  .debug_str:000000000001f749 .LASF88
C:\Users\CYMR90~1\AppData\Local\Temp\ccyjM0JL.s:26718  .debug_str:000000000001aac3 .LASF89
C:\Users\CYMR90~1\AppData\Local\Temp\ccyjM0JL.s:27964  .debug_str:000000000001f8f1 .LASF90
C:\Users\CYMR90~1\AppData\Local\Temp\ccyjM0JL.s:30774  .debug_str:000000000002a9c5 .LASF91
C:\Users\CYMR90~1\AppData\Local\Temp\ccyjM0JL.s:29584  .debug_str:0000000000025ed8 .LASF92
C:\Users\CYMR90~1\AppData\Local\Temp\ccyjM0JL.s:22579  .debug_str:000000000000a074 .LASF93
C:\Users\CYMR90~1\AppData\Local\Temp\ccyjM0JL.s:27382  .debug_str:000000000001d5a3 .LASF94
C:\Users\CYMR90~1\AppData\Local\Temp\ccyjM0JL.s:24971  .debug_str:0000000000013ad1 .LASF95
C:\Users\CYMR90~1\AppData\Local\Temp\ccyjM0JL.s:24953  .debug_str:00000000000139b8 .LASF96
C:\Users\CYMR90~1\AppData\Local\Temp\ccyjM0JL.s:31086  .debug_str:000000000002bcf3 .LASF97
C:\Users\CYMR90~1\AppData\Local\Temp\ccyjM0JL.s:24601  .debug_str:00000000000122c0 .LASF98
C:\Users\CYMR90~1\AppData\Local\Temp\ccyjM0JL.s:28552  .debug_str:0000000000021cfe .LASF99
C:\Users\CYMR90~1\AppData\Local\Temp\ccyjM0JL.s:21933  .debug_str:00000000000076ca .LASF100
C:\Users\CYMR90~1\AppData\Local\Temp\ccyjM0JL.s:24079  .debug_str:0000000000010092 .LASF101
C:\Users\CYMR90~1\AppData\Local\Temp\ccyjM0JL.s:25479  .debug_str:00000000000158f6 .LASF102
C:\Users\CYMR90~1\AppData\Local\Temp\ccyjM0JL.s:24361  .debug_str:0000000000011293 .LASF103
C:\Users\CYMR90~1\AppData\Local\Temp\ccyjM0JL.s:23373  .debug_str:000000000000d518 .LASF104
C:\Users\CYMR90~1\AppData\Local\Temp\ccyjM0JL.s:24535  .debug_str:0000000000011dfd .LASF105
C:\Users\CYMR90~1\AppData\Local\Temp\ccyjM0JL.s:21253  .debug_str:0000000000004d64 .LASF106
C:\Users\CYMR90~1\AppData\Local\Temp\ccyjM0JL.s:24355  .debug_str:000000000001122e .LASF107
C:\Users\CYMR90~1\AppData\Local\Temp\ccyjM0JL.s:23369  .debug_str:000000000000d4f4 .LASF108
C:\Users\CYMR90~1\AppData\Local\Temp\ccyjM0JL.s:24805  .debug_str:0000000000012fff .LASF109
C:\Users\CYMR90~1\AppData\Local\Temp\ccyjM0JL.s:23741  .debug_str:000000000000ec19 .LASF110
C:\Users\CYMR90~1\AppData\Local\Temp\ccyjM0JL.s:26238  .debug_str:000000000001897c .LASF111
C:\Users\CYMR90~1\AppData\Local\Temp\ccyjM0JL.s:22839  .debug_str:000000000000b256 .LASF112
C:\Users\CYMR90~1\AppData\Local\Temp\ccyjM0JL.s:22577  .debug_str:000000000000a04b .LASF113
C:\Users\CYMR90~1\AppData\Local\Temp\ccyjM0JL.s:25511  .debug_str:0000000000015aeb .LASF114
C:\Users\CYMR90~1\AppData\Local\Temp\ccyjM0JL.s:28034  .debug_str:000000000001fd43 .LASF115
C:\Users\CYMR90~1\AppData\Local\Temp\ccyjM0JL.s:29086  .debug_str:0000000000023cc7 .LASF116
C:\Users\CYMR90~1\AppData\Local\Temp\ccyjM0JL.s:22333  .debug_str:0000000000009135 .LASF117
C:\Users\CYMR90~1\AppData\Local\Temp\ccyjM0JL.s:26966  .debug_str:000000000001babb .LASF118
C:\Users\CYMR90~1\AppData\Local\Temp\ccyjM0JL.s:31192  .debug_str:000000000002c426 .LASF119
C:\Users\CYMR90~1\AppData\Local\Temp\ccyjM0JL.s:23659  .debug_str:000000000000e6c2 .LASF120
C:\Users\CYMR90~1\AppData\Local\Temp\ccyjM0JL.s:29182  .debug_str:0000000000024219 .LASF121
C:\Users\CYMR90~1\AppData\Local\Temp\ccyjM0JL.s:23151  .debug_str:000000000000c680 .LASF122
C:\Users\CYMR90~1\AppData\Local\Temp\ccyjM0JL.s:23259  .debug_str:000000000000ce00 .LASF123
C:\Users\CYMR90~1\AppData\Local\Temp\ccyjM0JL.s:20899  .debug_str:00000000000035ce .LASF124
C:\Users\CYMR90~1\AppData\Local\Temp\ccyjM0JL.s:21173  .debug_str:00000000000047ac .LASF125
C:\Users\CYMR90~1\AppData\Local\Temp\ccyjM0JL.s:30130  .debug_str:0000000000028183 .LASF126
C:\Users\CYMR90~1\AppData\Local\Temp\ccyjM0JL.s:24541  .debug_str:0000000000011e3b .LASF127
C:\Users\CYMR90~1\AppData\Local\Temp\ccyjM0JL.s:27358  .debug_str:000000000001d445 .LASF128
C:\Users\CYMR90~1\AppData\Local\Temp\ccyjM0JL.s:22409  .debug_str:0000000000009597 .LASF129
C:\Users\CYMR90~1\AppData\Local\Temp\ccyjM0JL.s:29696  .debug_str:000000000002659b .LASF130
C:\Users\CYMR90~1\AppData\Local\Temp\ccyjM0JL.s:30004  .debug_str:0000000000027953 .LASF131
C:\Users\CYMR90~1\AppData\Local\Temp\ccyjM0JL.s:29816  .debug_str:0000000000026d17 .LASF132
C:\Users\CYMR90~1\AppData\Local\Temp\ccyjM0JL.s:23635  .debug_str:000000000000e551 .LASF133
C:\Users\CYMR90~1\AppData\Local\Temp\ccyjM0JL.s:29102  .debug_str:0000000000023dab .LASF134
C:\Users\CYMR90~1\AppData\Local\Temp\ccyjM0JL.s:21165  .debug_str:000000000000471a .LASF135
C:\Users\CYMR90~1\AppData\Local\Temp\ccyjM0JL.s:22033  .debug_str:0000000000007d67 .LASF136
C:\Users\CYMR90~1\AppData\Local\Temp\ccyjM0JL.s:30862  .debug_str:000000000002af03 .LASF137
C:\Users\CYMR90~1\AppData\Local\Temp\ccyjM0JL.s:24801  .debug_str:0000000000012fcf .LASF138
C:\Users\CYMR90~1\AppData\Local\Temp\ccyjM0JL.s:30340  .debug_str:0000000000028fdc .LASF139
C:\Users\CYMR90~1\AppData\Local\Temp\ccyjM0JL.s:29464  .debug_str:000000000002564b .LASF140
C:\Users\CYMR90~1\AppData\Local\Temp\ccyjM0JL.s:27056  .debug_str:000000000001c032 .LASF141
C:\Users\CYMR90~1\AppData\Local\Temp\ccyjM0JL.s:22537  .debug_str:0000000000009dd4 .LASF142
C:\Users\CYMR90~1\AppData\Local\Temp\ccyjM0JL.s:30942  .debug_str:000000000002b388 .LASF143
C:\Users\CYMR90~1\AppData\Local\Temp\ccyjM0JL.s:26208  .debug_str:00000000000187ab .LASF144
C:\Users\CYMR90~1\AppData\Local\Temp\ccyjM0JL.s:25261  .debug_str:0000000000014c74 .LASF145
C:\Users\CYMR90~1\AppData\Local\Temp\ccyjM0JL.s:23223  .debug_str:000000000000cbbe .LASF146
C:\Users\CYMR90~1\AppData\Local\Temp\ccyjM0JL.s:21207  .debug_str:0000000000004aa4 .LASF147
C:\Users\CYMR90~1\AppData\Local\Temp\ccyjM0JL.s:23783  .debug_str:000000000000ee54 .LASF148
C:\Users\CYMR90~1\AppData\Local\Temp\ccyjM0JL.s:26186  .debug_str:0000000000018651 .LASF149
C:\Users\CYMR90~1\AppData\Local\Temp\ccyjM0JL.s:20135  .debug_str:0000000000000626 .LASF150
C:\Users\CYMR90~1\AppData\Local\Temp\ccyjM0JL.s:31412  .debug_str:000000000002d2a2 .LASF151
C:\Users\CYMR90~1\AppData\Local\Temp\ccyjM0JL.s:24795  .debug_str:0000000000012f4d .LASF152
C:\Users\CYMR90~1\AppData\Local\Temp\ccyjM0JL.s:29470  .debug_str:000000000002569e .LASF153
C:\Users\CYMR90~1\AppData\Local\Temp\ccyjM0JL.s:27264  .debug_str:000000000001cd0f .LASF154
C:\Users\CYMR90~1\AppData\Local\Temp\ccyjM0JL.s:24193  .debug_str:000000000001080f .LASF155
C:\Users\CYMR90~1\AppData\Local\Temp\ccyjM0JL.s:27276  .debug_str:000000000001cde8 .LASF156
C:\Users\CYMR90~1\AppData\Local\Temp\ccyjM0JL.s:27388  .debug_str:000000000001d60b .LASF157
C:\Users\CYMR90~1\AppData\Local\Temp\ccyjM0JL.s:23073  .debug_str:000000000000c1cc .LASF158
C:\Users\CYMR90~1\AppData\Local\Temp\ccyjM0JL.s:22135  .debug_str:0000000000008522 .LASF159
C:\Users\CYMR90~1\AppData\Local\Temp\ccyjM0JL.s:26910  .debug_str:000000000001b715 .LASF160
C:\Users\CYMR90~1\AppData\Local\Temp\ccyjM0JL.s:28352  .debug_str:000000000002107e .LASF161
C:\Users\CYMR90~1\AppData\Local\Temp\ccyjM0JL.s:26508  .debug_str:0000000000019c54 .LASF162
C:\Users\CYMR90~1\AppData\Local\Temp\ccyjM0JL.s:29094  .debug_str:0000000000023d39 .LASF163
C:\Users\CYMR90~1\AppData\Local\Temp\ccyjM0JL.s:30760  .debug_str:000000000002a90d .LASF164
C:\Users\CYMR90~1\AppData\Local\Temp\ccyjM0JL.s:21885  .debug_str:00000000000073ec .LASF165
C:\Users\CYMR90~1\AppData\Local\Temp\ccyjM0JL.s:30442  .debug_str:0000000000029601 .LASF166
C:\Users\CYMR90~1\AppData\Local\Temp\ccyjM0JL.s:30264  .debug_str:0000000000028b32 .LASF167
C:\Users\CYMR90~1\AppData\Local\Temp\ccyjM0JL.s:27824  .debug_str:000000000001f05d .LASF168
C:\Users\CYMR90~1\AppData\Local\Temp\ccyjM0JL.s:25970  .debug_str:0000000000017962 .LASF169
C:\Users\CYMR90~1\AppData\Local\Temp\ccyjM0JL.s:29876  .debug_str:00000000000270b8 .LASF170
C:\Users\CYMR90~1\AppData\Local\Temp\ccyjM0JL.s:25589  .debug_str:0000000000015fce .LASF171
C:\Users\CYMR90~1\AppData\Local\Temp\ccyjM0JL.s:27184  .debug_str:000000000001c791 .LASF172
C:\Users\CYMR90~1\AppData\Local\Temp\ccyjM0JL.s:22529  .debug_str:0000000000009d60 .LASF173
C:\Users\CYMR90~1\AppData\Local\Temp\ccyjM0JL.s:28906  .debug_str:000000000002322c .LASF174
C:\Users\CYMR90~1\AppData\Local\Temp\ccyjM0JL.s:21547  .debug_str:0000000000005ec6 .LASF175
C:\Users\CYMR90~1\AppData\Local\Temp\ccyjM0JL.s:22377  .debug_str:00000000000093cb .LASF176
C:\Users\CYMR90~1\AppData\Local\Temp\ccyjM0JL.s:21037  .debug_str:0000000000003e9a .LASF177
C:\Users\CYMR90~1\AppData\Local\Temp\ccyjM0JL.s:26380  .debug_str:00000000000193c8 .LASF178
C:\Users\CYMR90~1\AppData\Local\Temp\ccyjM0JL.s:23315  .debug_str:000000000000d16a .LASF179
C:\Users\CYMR90~1\AppData\Local\Temp\ccyjM0JL.s:21711  .debug_str:00000000000068b8 .LASF180
C:\Users\CYMR90~1\AppData\Local\Temp\ccyjM0JL.s:31082  .debug_str:000000000002bcc8 .LASF181
C:\Users\CYMR90~1\AppData\Local\Temp\ccyjM0JL.s:20329  .debug_str:0000000000001241 .LASF182
C:\Users\CYMR90~1\AppData\Local\Temp\ccyjM0JL.s:24909  .debug_str:0000000000013708 .LASF183
C:\Users\CYMR90~1\AppData\Local\Temp\ccyjM0JL.s:25329  .debug_str:00000000000150a3 .LASF184
C:\Users\CYMR90~1\AppData\Local\Temp\ccyjM0JL.s:30274  .debug_str:0000000000028be1 .LASF185
C:\Users\CYMR90~1\AppData\Local\Temp\ccyjM0JL.s:23413  .debug_str:000000000000d842 .LASF186
C:\Users\CYMR90~1\AppData\Local\Temp\ccyjM0JL.s:21869  .debug_str:000000000000728b .LASF187
C:\Users\CYMR90~1\AppData\Local\Temp\ccyjM0JL.s:27912  .debug_str:000000000001f61d .LASF188
C:\Users\CYMR90~1\AppData\Local\Temp\ccyjM0JL.s:23679  .debug_str:000000000000e853 .LASF189
C:\Users\CYMR90~1\AppData\Local\Temp\ccyjM0JL.s:25019  .debug_str:0000000000013da3 .LASF190
C:\Users\CYMR90~1\AppData\Local\Temp\ccyjM0JL.s:28414  .debug_str:00000000000213f9 .LASF191
C:\Users\CYMR90~1\AppData\Local\Temp\ccyjM0JL.s:25751  .debug_str:0000000000016a8e .LASF192
C:\Users\CYMR90~1\AppData\Local\Temp\ccyjM0JL.s:28652  .debug_str:0000000000022320 .LASF193
C:\Users\CYMR90~1\AppData\Local\Temp\ccyjM0JL.s:21501  .debug_str:0000000000005c59 .LASF194
C:\Users\CYMR90~1\AppData\Local\Temp\ccyjM0JL.s:20867  .debug_str:00000000000033af .LASF195
C:\Users\CYMR90~1\AppData\Local\Temp\ccyjM0JL.s:23509  .debug_str:000000000000dd7f .LASF196
C:\Users\CYMR90~1\AppData\Local\Temp\ccyjM0JL.s:24423  .debug_str:0000000000011640 .LASF197
C:\Users\CYMR90~1\AppData\Local\Temp\ccyjM0JL.s:21357  .debug_str:0000000000005399 .LASF198
C:\Users\CYMR90~1\AppData\Local\Temp\ccyjM0JL.s:30162  .debug_str:00000000000283ca .LASF199
C:\Users\CYMR90~1\AppData\Local\Temp\ccyjM0JL.s:28292  .debug_str:0000000000020ce3 .LASF200
C:\Users\CYMR90~1\AppData\Local\Temp\ccyjM0JL.s:27396  .debug_str:000000000001d669 .LASF201
C:\Users\CYMR90~1\AppData\Local\Temp\ccyjM0JL.s:22505  .debug_str:0000000000009be7 .LASF202
C:\Users\CYMR90~1\AppData\Local\Temp\ccyjM0JL.s:30618  .debug_str:000000000002a064 .LASF203
C:\Users\CYMR90~1\AppData\Local\Temp\ccyjM0JL.s:20881  .debug_str:0000000000003491 .LASF204
C:\Users\CYMR90~1\AppData\Local\Temp\ccyjM0JL.s:23909  .debug_str:000000000000f5b8 .LASF205
C:\Users\CYMR90~1\AppData\Local\Temp\ccyjM0JL.s:30348  .debug_str:0000000000029037 .LASF206
C:\Users\CYMR90~1\AppData\Local\Temp\ccyjM0JL.s:25139  .debug_str:0000000000014526 .LASF207
C:\Users\CYMR90~1\AppData\Local\Temp\ccyjM0JL.s:27952  .debug_str:000000000001f84f .LASF208
C:\Users\CYMR90~1\AppData\Local\Temp\ccyjM0JL.s:23145  .debug_str:000000000000c62f .LASF209
C:\Users\CYMR90~1\AppData\Local\Temp\ccyjM0JL.s:31288  .debug_str:000000000002ca4f .LASF210
C:\Users\CYMR90~1\AppData\Local\Temp\ccyjM0JL.s:25109  .debug_str:0000000000014345 .LASF211
C:\Users\CYMR90~1\AppData\Local\Temp\ccyjM0JL.s:27796  .debug_str:000000000001ee9d .LASF212
C:\Users\CYMR90~1\AppData\Local\Temp\ccyjM0JL.s:26400  .debug_str:00000000000194ec .LASF213
C:\Users\CYMR90~1\AppData\Local\Temp\ccyjM0JL.s:21587  .debug_str:0000000000006102 .LASF214
C:\Users\CYMR90~1\AppData\Local\Temp\ccyjM0JL.s:25117  .debug_str:00000000000143cb .LASF215
C:\Users\CYMR90~1\AppData\Local\Temp\ccyjM0JL.s:27098  .debug_str:000000000001c2c4 .LASF216
C:\Users\CYMR90~1\AppData\Local\Temp\ccyjM0JL.s:28064  .debug_str:000000000001feee .LASF217
C:\Users\CYMR90~1\AppData\Local\Temp\ccyjM0JL.s:23985  .debug_str:000000000000facb .LASF218
C:\Users\CYMR90~1\AppData\Local\Temp\ccyjM0JL.s:29472  .debug_str:00000000000256da .LASF219
C:\Users\CYMR90~1\AppData\Local\Temp\ccyjM0JL.s:29278  .debug_str:000000000002493d .LASF220
C:\Users\CYMR90~1\AppData\Local\Temp\ccyjM0JL.s:28802  .debug_str:0000000000022bc3 .LASF221
C:\Users\CYMR90~1\AppData\Local\Temp\ccyjM0JL.s:25401  .debug_str:00000000000154b5 .LASF222
C:\Users\CYMR90~1\AppData\Local\Temp\ccyjM0JL.s:21557  .debug_str:0000000000005f48 .LASF223
C:\Users\CYMR90~1\AppData\Local\Temp\ccyjM0JL.s:22237  .debug_str:0000000000008b58 .LASF224
C:\Users\CYMR90~1\AppData\Local\Temp\ccyjM0JL.s:30952  .debug_str:000000000002b40c .LASF225
C:\Users\CYMR90~1\AppData\Local\Temp\ccyjM0JL.s:23577  .debug_str:000000000000e1f1 .LASF226
C:\Users\CYMR90~1\AppData\Local\Temp\ccyjM0JL.s:27260  .debug_str:000000000001cce1 .LASF227
C:\Users\CYMR90~1\AppData\Local\Temp\ccyjM0JL.s:27108  .debug_str:000000000001c36a .LASF228
C:\Users\CYMR90~1\AppData\Local\Temp\ccyjM0JL.s:23523  .debug_str:000000000000de5c .LASF229
C:\Users\CYMR90~1\AppData\Local\Temp\ccyjM0JL.s:27834  .debug_str:000000000001f116 .LASF230
C:\Users\CYMR90~1\AppData\Local\Temp\ccyjM0JL.s:23009  .debug_str:000000000000bd33 .LASF231
C:\Users\CYMR90~1\AppData\Local\Temp\ccyjM0JL.s:21599  .debug_str:00000000000061d7 .LASF232
C:\Users\CYMR90~1\AppData\Local\Temp\ccyjM0JL.s:22185  .debug_str:00000000000087ef .LASF233
C:\Users\CYMR90~1\AppData\Local\Temp\ccyjM0JL.s:24185  .debug_str:00000000000106fa .LASF234
C:\Users\CYMR90~1\AppData\Local\Temp\ccyjM0JL.s:23905  .debug_str:000000000000f570 .LASF235
C:\Users\CYMR90~1\AppData\Local\Temp\ccyjM0JL.s:29022  .debug_str:00000000000238d9 .LASF236
C:\Users\CYMR90~1\AppData\Local\Temp\ccyjM0JL.s:23927  .debug_str:000000000000f6c1 .LASF237
C:\Users\CYMR90~1\AppData\Local\Temp\ccyjM0JL.s:29692  .debug_str:000000000002655f .LASF238
C:\Users\CYMR90~1\AppData\Local\Temp\ccyjM0JL.s:29006  .debug_str:00000000000237d8 .LASF239
C:\Users\CYMR90~1\AppData\Local\Temp\ccyjM0JL.s:29242  .debug_str:000000000002470f .LASF240
C:\Users\CYMR90~1\AppData\Local\Temp\ccyjM0JL.s:22001  .debug_str:0000000000007b7b .LASF241
C:\Users\CYMR90~1\AppData\Local\Temp\ccyjM0JL.s:23599  .debug_str:000000000000e33a .LASF242
C:\Users\CYMR90~1\AppData\Local\Temp\ccyjM0JL.s:24581  .debug_str:00000000000120c5 .LASF243
C:\Users\CYMR90~1\AppData\Local\Temp\ccyjM0JL.s:29032  .debug_str:0000000000023951 .LASF244
C:\Users\CYMR90~1\AppData\Local\Temp\ccyjM0JL.s:24779  .debug_str:0000000000012e2d .LASF245
C:\Users\CYMR90~1\AppData\Local\Temp\ccyjM0JL.s:27846  .debug_str:000000000001f1fb .LASF246
C:\Users\CYMR90~1\AppData\Local\Temp\ccyjM0JL.s:26168  .debug_str:000000000001852a .LASF247
C:\Users\CYMR90~1\AppData\Local\Temp\ccyjM0JL.s:25681  .debug_str:000000000001657e .LASF248
C:\Users\CYMR90~1\AppData\Local\Temp\ccyjM0JL.s:27200  .debug_str:000000000001c8ab .LASF249
C:\Users\CYMR90~1\AppData\Local\Temp\ccyjM0JL.s:26564  .debug_str:0000000000019f9e .LASF250
C:\Users\CYMR90~1\AppData\Local\Temp\ccyjM0JL.s:27128  .debug_str:000000000001c483 .LASF251
C:\Users\CYMR90~1\AppData\Local\Temp\ccyjM0JL.s:28850  .debug_str:0000000000022f1a .LASF252
C:\Users\CYMR90~1\AppData\Local\Temp\ccyjM0JL.s:23493  .debug_str:000000000000dcbd .LASF253
C:\Users\CYMR90~1\AppData\Local\Temp\ccyjM0JL.s:29546  .debug_str:0000000000025ca2 .LASF254
C:\Users\CYMR90~1\AppData\Local\Temp\ccyjM0JL.s:23355  .debug_str:000000000000d3ea .LASF255
C:\Users\CYMR90~1\AppData\Local\Temp\ccyjM0JL.s:26472  .debug_str:0000000000019a03 .LASF256
C:\Users\CYMR90~1\AppData\Local\Temp\ccyjM0JL.s:23595  .debug_str:000000000000e2f3 .LASF257
C:\Users\CYMR90~1\AppData\Local\Temp\ccyjM0JL.s:27782  .debug_str:000000000001edb8 .LASF258
C:\Users\CYMR90~1\AppData\Local\Temp\ccyjM0JL.s:22799  .debug_str:000000000000aefb .LASF259
C:\Users\CYMR90~1\AppData\Local\Temp\ccyjM0JL.s:20213  .debug_str:0000000000000ab8 .LASF260
C:\Users\CYMR90~1\AppData\Local\Temp\ccyjM0JL.s:30678  .debug_str:000000000002a3dc .LASF261
C:\Users\CYMR90~1\AppData\Local\Temp\ccyjM0JL.s:30142  .debug_str:0000000000028229 .LASF262
C:\Users\CYMR90~1\AppData\Local\Temp\ccyjM0JL.s:25087  .debug_str:00000000000141a9 .LASF263
C:\Users\CYMR90~1\AppData\Local\Temp\ccyjM0JL.s:27080  .debug_str:000000000001c1c3 .LASF264
C:\Users\CYMR90~1\AppData\Local\Temp\ccyjM0JL.s:24033  .debug_str:000000000000fdc7 .LASF265
C:\Users\CYMR90~1\AppData\Local\Temp\ccyjM0JL.s:23525  .debug_str:000000000000de9d .LASF266
C:\Users\CYMR90~1\AppData\Local\Temp\ccyjM0JL.s:22851  .debug_str:000000000000b2f3 .LASF267
C:\Users\CYMR90~1\AppData\Local\Temp\ccyjM0JL.s:27186  .debug_str:000000000001c7a6 .LASF268
C:\Users\CYMR90~1\AppData\Local\Temp\ccyjM0JL.s:23169  .debug_str:000000000000c7be .LASF269
C:\Users\CYMR90~1\AppData\Local\Temp\ccyjM0JL.s:24099  .debug_str:00000000000101fd .LASF270
C:\Users\CYMR90~1\AppData\Local\Temp\ccyjM0JL.s:25373  .debug_str:0000000000015313 .LASF271
C:\Users\CYMR90~1\AppData\Local\Temp\ccyjM0JL.s:29796  .debug_str:0000000000026bf2 .LASF272
C:\Users\CYMR90~1\AppData\Local\Temp\ccyjM0JL.s:21759  .debug_str:0000000000006b8e .LASF273
C:\Users\CYMR90~1\AppData\Local\Temp\ccyjM0JL.s:20671  .debug_str:00000000000026cf .LASF274
C:\Users\CYMR90~1\AppData\Local\Temp\ccyjM0JL.s:21853  .debug_str:0000000000007174 .LASF275
C:\Users\CYMR90~1\AppData\Local\Temp\ccyjM0JL.s:23231  .debug_str:000000000000cc21 .LASF276
C:\Users\CYMR90~1\AppData\Local\Temp\ccyjM0JL.s:23055  .debug_str:000000000000c0ca .LASF277
C:\Users\CYMR90~1\AppData\Local\Temp\ccyjM0JL.s:20355  .debug_str:00000000000013a9 .LASF278
C:\Users\CYMR90~1\AppData\Local\Temp\ccyjM0JL.s:21681  .debug_str:00000000000066a2 .LASF279
C:\Users\CYMR90~1\AppData\Local\Temp\ccyjM0JL.s:30464  .debug_str:0000000000029721 .LASF280
C:\Users\CYMR90~1\AppData\Local\Temp\ccyjM0JL.s:22553  .debug_str:0000000000009ebf .LASF281
C:\Users\CYMR90~1\AppData\Local\Temp\ccyjM0JL.s:21647  .debug_str:00000000000064d9 .LASF282
C:\Users\CYMR90~1\AppData\Local\Temp\ccyjM0JL.s:21551  .debug_str:0000000000005ef6 .LASF283
C:\Users\CYMR90~1\AppData\Local\Temp\ccyjM0JL.s:21313  .debug_str:0000000000005115 .LASF284
C:\Users\CYMR90~1\AppData\Local\Temp\ccyjM0JL.s:29348  .debug_str:0000000000024dec .LASF285
C:\Users\CYMR90~1\AppData\Local\Temp\ccyjM0JL.s:30174  .debug_str:00000000000284c1 .LASF286
C:\Users\CYMR90~1\AppData\Local\Temp\ccyjM0JL.s:30450  .debug_str:000000000002965e .LASF287
C:\Users\CYMR90~1\AppData\Local\Temp\ccyjM0JL.s:30362  .debug_str:0000000000029108 .LASF288
C:\Users\CYMR90~1\AppData\Local\Temp\ccyjM0JL.s:31220  .debug_str:000000000002c5e3 .LASF289
C:\Users\CYMR90~1\AppData\Local\Temp\ccyjM0JL.s:26112  .debug_str:0000000000018209 .LASF290
C:\Users\CYMR90~1\AppData\Local\Temp\ccyjM0JL.s:25143  .debug_str:000000000001454c .LASF291
C:\Users\CYMR90~1\AppData\Local\Temp\ccyjM0JL.s:29384  .debug_str:0000000000025049 .LASF292
C:\Users\CYMR90~1\AppData\Local\Temp\ccyjM0JL.s:20955  .debug_str:000000000000396b .LASF293
C:\Users\CYMR90~1\AppData\Local\Temp\ccyjM0JL.s:28304  .debug_str:0000000000020da8 .LASF294
C:\Users\CYMR90~1\AppData\Local\Temp\ccyjM0JL.s:21233  .debug_str:0000000000004c2e .LASF295
C:\Users\CYMR90~1\AppData\Local\Temp\ccyjM0JL.s:30804  .debug_str:000000000002aba8 .LASF296
C:\Users\CYMR90~1\AppData\Local\Temp\ccyjM0JL.s:31002  .debug_str:000000000002b750 .LASF297
C:\Users\CYMR90~1\AppData\Local\Temp\ccyjM0JL.s:25990  .debug_str:0000000000017adb .LASF298
C:\Users\CYMR90~1\AppData\Local\Temp\ccyjM0JL.s:20197  .debug_str:00000000000009c5 .LASF299
C:\Users\CYMR90~1\AppData\Local\Temp\ccyjM0JL.s:24005  .debug_str:000000000000fbf5 .LASF300
C:\Users\CYMR90~1\AppData\Local\Temp\ccyjM0JL.s:26742  .debug_str:000000000001ac3b .LASF301
C:\Users\CYMR90~1\AppData\Local\Temp\ccyjM0JL.s:25255  .debug_str:0000000000014be6 .LASF302
C:\Users\CYMR90~1\AppData\Local\Temp\ccyjM0JL.s:24727  .debug_str:0000000000012af8 .LASF303
C:\Users\CYMR90~1\AppData\Local\Temp\ccyjM0JL.s:20591  .debug_str:00000000000021fd .LASF304
C:\Users\CYMR90~1\AppData\Local\Temp\ccyjM0JL.s:23177  .debug_str:000000000000c842 .LASF305
C:\Users\CYMR90~1\AppData\Local\Temp\ccyjM0JL.s:28518  .debug_str:0000000000021b17 .LASF306
C:\Users\CYMR90~1\AppData\Local\Temp\ccyjM0JL.s:24021  .debug_str:000000000000fcfe .LASF307
C:\Users\CYMR90~1\AppData\Local\Temp\ccyjM0JL.s:29368  .debug_str:0000000000024f42 .LASF308
C:\Users\CYMR90~1\AppData\Local\Temp\ccyjM0JL.s:28972  .debug_str:00000000000235da .LASF309
C:\Users\CYMR90~1\AppData\Local\Temp\ccyjM0JL.s:23579  .debug_str:000000000000e20a .LASF310
C:\Users\CYMR90~1\AppData\Local\Temp\ccyjM0JL.s:29688  .debug_str:0000000000026534 .LASF311
C:\Users\CYMR90~1\AppData\Local\Temp\ccyjM0JL.s:29194  .debug_str:0000000000024395 .LASF312
C:\Users\CYMR90~1\AppData\Local\Temp\ccyjM0JL.s:23295  .debug_str:000000000000cff4 .LASF313
C:\Users\CYMR90~1\AppData\Local\Temp\ccyjM0JL.s:26258  .debug_str:0000000000018ad6 .LASF316
C:\Users\CYMR90~1\AppData\Local\Temp\ccyjM0JL.s:26618  .debug_str:000000000001a2cf .LASF317
C:\Users\CYMR90~1\AppData\Local\Temp\ccyjM0JL.s:26972  .debug_str:000000000001baf9 .LASF318
C:\Users\CYMR90~1\AppData\Local\Temp\ccyjM0JL.s:24013  .debug_str:000000000000fc92 .LASF319
C:\Users\CYMR90~1\AppData\Local\Temp\ccyjM0JL.s:22921  .debug_str:000000000000b7a1 .LASF320
C:\Users\CYMR90~1\AppData\Local\Temp\ccyjM0JL.s:30410  .debug_str:0000000000029402 .LASF321
C:\Users\CYMR90~1\AppData\Local\Temp\ccyjM0JL.s:23491  .debug_str:000000000000dcb0 .LASF322
C:\Users\CYMR90~1\AppData\Local\Temp\ccyjM0JL.s:29638  .debug_str:0000000000026217 .LASF323
C:\Users\CYMR90~1\AppData\Local\Temp\ccyjM0JL.s:20071  .debug_str:000000000000026c .LASF324
C:\Users\CYMR90~1\AppData\Local\Temp\ccyjM0JL.s:30826  .debug_str:000000000002acec .LASF325
C:\Users\CYMR90~1\AppData\Local\Temp\ccyjM0JL.s:21009  .debug_str:0000000000003cbf .LASF326
C:\Users\CYMR90~1\AppData\Local\Temp\ccyjM0JL.s:25075  .debug_str:00000000000140ec .LASF327
C:\Users\CYMR90~1\AppData\Local\Temp\ccyjM0JL.s:24729  .debug_str:0000000000012b0d .LASF328
C:\Users\CYMR90~1\AppData\Local\Temp\ccyjM0JL.s:27636  .debug_str:000000000001e505 .LASF329
C:\Users\CYMR90~1\AppData\Local\Temp\ccyjM0JL.s:27628  .debug_str:000000000001e4b4 .LASF330
C:\Users\CYMR90~1\AppData\Local\Temp\ccyjM0JL.s:29838  .debug_str:0000000000026e84 .LASF331
C:\Users\CYMR90~1\AppData\Local\Temp\ccyjM0JL.s:28558  .debug_str:0000000000021d74 .LASF332
C:\Users\CYMR90~1\AppData\Local\Temp\ccyjM0JL.s:30578  .debug_str:0000000000029e0d .LASF333
C:\Users\CYMR90~1\AppData\Local\Temp\ccyjM0JL.s:26592  .debug_str:000000000001a154 .LASF334
C:\Users\CYMR90~1\AppData\Local\Temp\ccyjM0JL.s:26034  .debug_str:0000000000017d7b .LASF335
C:\Users\CYMR90~1\AppData\Local\Temp\ccyjM0JL.s:30432  .debug_str:0000000000029572 .LASF336
C:\Users\CYMR90~1\AppData\Local\Temp\ccyjM0JL.s:24649  .debug_str:00000000000125bd .LASF337
C:\Users\CYMR90~1\AppData\Local\Temp\ccyjM0JL.s:28360  .debug_str:00000000000210ea .LASF338
C:\Users\CYMR90~1\AppData\Local\Temp\ccyjM0JL.s:22669  .debug_str:000000000000a633 .LASF339
C:\Users\CYMR90~1\AppData\Local\Temp\ccyjM0JL.s:24863  .debug_str:00000000000133d6 .LASF340
C:\Users\CYMR90~1\AppData\Local\Temp\ccyjM0JL.s:26788  .debug_str:000000000001af16 .LASF341
C:\Users\CYMR90~1\AppData\Local\Temp\ccyjM0JL.s:22987  .debug_str:000000000000bbee .LASF342
C:\Users\CYMR90~1\AppData\Local\Temp\ccyjM0JL.s:20335  .debug_str:000000000000128c .LASF343
C:\Users\CYMR90~1\AppData\Local\Temp\ccyjM0JL.s:30544  .debug_str:0000000000029c1d .LASF344
C:\Users\CYMR90~1\AppData\Local\Temp\ccyjM0JL.s:31162  .debug_str:000000000002c1e0 .LASF345
C:\Users\CYMR90~1\AppData\Local\Temp\ccyjM0JL.s:23895  .debug_str:000000000000f4e8 .LASF346
C:\Users\CYMR90~1\AppData\Local\Temp\ccyjM0JL.s:20185  .debug_str:000000000000090e .LASF347
C:\Users\CYMR90~1\AppData\Local\Temp\ccyjM0JL.s:28150  .debug_str:0000000000020418 .LASF348
C:\Users\CYMR90~1\AppData\Local\Temp\ccyjM0JL.s:30152  .debug_str:00000000000282f8 .LASF349
C:\Users\CYMR90~1\AppData\Local\Temp\ccyjM0JL.s:27630  .debug_str:000000000001e4c0 .LASF350
C:\Users\CYMR90~1\AppData\Local\Temp\ccyjM0JL.s:20113  .debug_str:0000000000000504 .LASF351
C:\Users\CYMR90~1\AppData\Local\Temp\ccyjM0JL.s:27916  .debug_str:000000000001f64d .LASF352
C:\Users\CYMR90~1\AppData\Local\Temp\ccyjM0JL.s:29630  .debug_str:00000000000261ad .LASF353
C:\Users\CYMR90~1\AppData\Local\Temp\ccyjM0JL.s:27246  .debug_str:000000000001cc2f .LASF354
C:\Users\CYMR90~1\AppData\Local\Temp\ccyjM0JL.s:27412  .debug_str:000000000001d765 .LASF355
C:\Users\CYMR90~1\AppData\Local\Temp\ccyjM0JL.s:23379  .debug_str:000000000000d60e .LASF356
C:\Users\CYMR90~1\AppData\Local\Temp\ccyjM0JL.s:26548  .debug_str:0000000000019ecc .LASF357
C:\Users\CYMR90~1\AppData\Local\Temp\ccyjM0JL.s:30060  .debug_str:0000000000027caa .LASF358
C:\Users\CYMR90~1\AppData\Local\Temp\ccyjM0JL.s:24719  .debug_str:0000000000012a50 .LASF359
C:\Users\CYMR90~1\AppData\Local\Temp\ccyjM0JL.s:22769  .debug_str:000000000000ad33 .LASF360
C:\Users\CYMR90~1\AppData\Local\Temp\ccyjM0JL.s:25910  .debug_str:00000000000175e2 .LASF361
C:\Users\CYMR90~1\AppData\Local\Temp\ccyjM0JL.s:24447  .debug_str:00000000000117d1 .LASF362
C:\Users\CYMR90~1\AppData\Local\Temp\ccyjM0JL.s:30330  .debug_str:0000000000028f3a .LASF363
C:\Users\CYMR90~1\AppData\Local\Temp\ccyjM0JL.s:22317  .debug_str:0000000000009061 .LASF364
C:\Users\CYMR90~1\AppData\Local\Temp\ccyjM0JL.s:30226  .debug_str:0000000000028871 .LASF365
C:\Users\CYMR90~1\AppData\Local\Temp\ccyjM0JL.s:21719  .debug_str:0000000000006951 .LASF366
C:\Users\CYMR90~1\AppData\Local\Temp\ccyjM0JL.s:24855  .debug_str:0000000000013338 .LASF367
C:\Users\CYMR90~1\AppData\Local\Temp\ccyjM0JL.s:22009  .debug_str:0000000000007bf9 .LASF368
C:\Users\CYMR90~1\AppData\Local\Temp\ccyjM0JL.s:26080  .debug_str:000000000001802c .LASF372
C:\Users\CYMR90~1\AppData\Local\Temp\ccyjM0JL.s:29878  .debug_str:00000000000270fd .LASF373
C:\Users\CYMR90~1\AppData\Local\Temp\ccyjM0JL.s:22751  .debug_str:000000000000ac01 .LASF374
C:\Users\CYMR90~1\AppData\Local\Temp\ccyjM0JL.s:25866  .debug_str:0000000000017386 .LASF375
C:\Users\CYMR90~1\AppData\Local\Temp\ccyjM0JL.s:26066  .debug_str:0000000000017f64 .LASF376
C:\Users\CYMR90~1\AppData\Local\Temp\ccyjM0JL.s:28616  .debug_str:0000000000022105 .LASF377
C:\Users\CYMR90~1\AppData\Local\Temp\ccyjM0JL.s:27262  .debug_str:000000000001ccfa .LASF378
C:\Users\CYMR90~1\AppData\Local\Temp\ccyjM0JL.s:30994  .debug_str:000000000002b6f8 .LASF379
C:\Users\CYMR90~1\AppData\Local\Temp\ccyjM0JL.s:20687  .debug_str:0000000000002806 .LASF380
C:\Users\CYMR90~1\AppData\Local\Temp\ccyjM0JL.s:30932  .debug_str:000000000002b308 .LASF381
C:\Users\CYMR90~1\AppData\Local\Temp\ccyjM0JL.s:26980  .debug_str:000000000001bb4a .LASF382
C:\Users\CYMR90~1\AppData\Local\Temp\ccyjM0JL.s:21777  .debug_str:0000000000006c9c .LASF383
C:\Users\CYMR90~1\AppData\Local\Temp\ccyjM0JL.s:23147  .debug_str:000000000000c64a .LASF384
C:\Users\CYMR90~1\AppData\Local\Temp\ccyjM0JL.s:26490  .debug_str:0000000000019b37 .LASF385
C:\Users\CYMR90~1\AppData\Local\Temp\ccyjM0JL.s:24129  .debug_str:00000000000103e2 .LASF386
C:\Users\CYMR90~1\AppData\Local\Temp\ccyjM0JL.s:20619  .debug_str:00000000000023c9 .LASF387
C:\Users\CYMR90~1\AppData\Local\Temp\ccyjM0JL.s:23743  .debug_str:000000000000ec39 .LASF388
C:\Users\CYMR90~1\AppData\Local\Temp\ccyjM0JL.s:22287  .debug_str:0000000000008eb0 .LASF389
C:\Users\CYMR90~1\AppData\Local\Temp\ccyjM0JL.s:21095  .debug_str:00000000000042ca .LASF391
C:\Users\CYMR90~1\AppData\Local\Temp\ccyjM0JL.s:24137  .debug_str:000000000001044e .LASF392
C:\Users\CYMR90~1\AppData\Local\Temp\ccyjM0JL.s:21281  .debug_str:0000000000004f22 .LASF393
C:\Users\CYMR90~1\AppData\Local\Temp\ccyjM0JL.s:30018  .debug_str:0000000000027a1f .LASF394
C:\Users\CYMR90~1\AppData\Local\Temp\ccyjM0JL.s:20645  .debug_str:0000000000002527 .LASF395
C:\Users\CYMR90~1\AppData\Local\Temp\ccyjM0JL.s:22793  .debug_str:000000000000ae97 .LASF396
C:\Users\CYMR90~1\AppData\Local\Temp\ccyjM0JL.s:26598  .debug_str:000000000001a1b4 .LASF397
C:\Users\CYMR90~1\AppData\Local\Temp\ccyjM0JL.s:30802  .debug_str:000000000002ab96 .LASF398
C:\Users\CYMR90~1\AppData\Local\Temp\ccyjM0JL.s:25427  .debug_str:000000000001562f .LASF399
C:\Users\CYMR90~1\AppData\Local\Temp\ccyjM0JL.s:27876  .debug_str:000000000001f3c6 .LASF400
C:\Users\CYMR90~1\AppData\Local\Temp\ccyjM0JL.s:22279  .debug_str:0000000000008dc8 .LASF401
C:\Users\CYMR90~1\AppData\Local\Temp\ccyjM0JL.s:25918  .debug_str:000000000001765c .LASF402
C:\Users\CYMR90~1\AppData\Local\Temp\ccyjM0JL.s:21615  .debug_str:00000000000062d8 .LASF403
C:\Users\CYMR90~1\AppData\Local\Temp\ccyjM0JL.s:22725  .debug_str:000000000000aa55 .LASF404
C:\Users\CYMR90~1\AppData\Local\Temp\ccyjM0JL.s:23799  .debug_str:000000000000ef23 .LASF405
C:\Users\CYMR90~1\AppData\Local\Temp\ccyjM0JL.s:27170  .debug_str:000000000001c6c6 .LASF406
C:\Users\CYMR90~1\AppData\Local\Temp\ccyjM0JL.s:25353  .debug_str:0000000000015200 .LASF407
C:\Users\CYMR90~1\AppData\Local\Temp\ccyjM0JL.s:26332  .debug_str:0000000000018ffa .LASF408
C:\Users\CYMR90~1\AppData\Local\Temp\ccyjM0JL.s:28564  .debug_str:0000000000021dcb .LASF409
C:\Users\CYMR90~1\AppData\Local\Temp\ccyjM0JL.s:21569  .debug_str:0000000000005ff3 .LASF410
C:\Users\CYMR90~1\AppData\Local\Temp\ccyjM0JL.s:25535  .debug_str:0000000000015c4c .LASF411
C:\Users\CYMR90~1\AppData\Local\Temp\ccyjM0JL.s:28688  .debug_str:000000000002253b .LASF412
C:\Users\CYMR90~1\AppData\Local\Temp\ccyjM0JL.s:21751  .debug_str:0000000000006b2e .LASF413
C:\Users\CYMR90~1\AppData\Local\Temp\ccyjM0JL.s:30424  .debug_str:00000000000294e4 .LASF414
C:\Users\CYMR90~1\AppData\Local\Temp\ccyjM0JL.s:23897  .debug_str:000000000000f4f6 .LASF415
C:\Users\CYMR90~1\AppData\Local\Temp\ccyjM0JL.s:29748  .debug_str:00000000000268d8 .LASF416
C:\Users\CYMR90~1\AppData\Local\Temp\ccyjM0JL.s:29252  .debug_str:00000000000247c8 .LASF417
C:\Users\CYMR90~1\AppData\Local\Temp\ccyjM0JL.s:22203  .debug_str:0000000000008918 .LASF418
C:\Users\CYMR90~1\AppData\Local\Temp\ccyjM0JL.s:30644  .debug_str:000000000002a1e1 .LASF419
C:\Users\CYMR90~1\AppData\Local\Temp\ccyjM0JL.s:21823  .debug_str:0000000000006fb6 .LASF420
C:\Users\CYMR90~1\AppData\Local\Temp\ccyjM0JL.s:30846  .debug_str:000000000002adee .LASF421
C:\Users\CYMR90~1\AppData\Local\Temp\ccyjM0JL.s:23067  .debug_str:000000000000c17c .LASF422
C:\Users\CYMR90~1\AppData\Local\Temp\ccyjM0JL.s:23271  .debug_str:000000000000cea1 .LASF423
C:\Users\CYMR90~1\AppData\Local\Temp\ccyjM0JL.s:27776  .debug_str:000000000001ed90 .LASF424
C:\Users\CYMR90~1\AppData\Local\Temp\ccyjM0JL.s:26370  .debug_str:000000000001933d .LASF425
C:\Users\CYMR90~1\AppData\Local\Temp\ccyjM0JL.s:20083  .debug_str:0000000000000335 .LASF426
C:\Users\CYMR90~1\AppData\Local\Temp\ccyjM0JL.s:30338  .debug_str:0000000000028fb9 .LASF427
C:\Users\CYMR90~1\AppData\Local\Temp\ccyjM0JL.s:25621  .debug_str:0000000000016211 .LASF428
C:\Users\CYMR90~1\AppData\Local\Temp\ccyjM0JL.s:27554  .debug_str:000000000001e05b .LASF429
C:\Users\CYMR90~1\AppData\Local\Temp\ccyjM0JL.s:24077  .debug_str:0000000000010089 .LASF430
C:\Users\CYMR90~1\AppData\Local\Temp\ccyjM0JL.s:25820  .debug_str:00000000000170dc .LASF431
C:\Users\CYMR90~1\AppData\Local\Temp\ccyjM0JL.s:30730  .debug_str:000000000002a6cd .LASF432
C:\Users\CYMR90~1\AppData\Local\Temp\ccyjM0JL.s:23255  .debug_str:000000000000cdc1 .LASF434
C:\Users\CYMR90~1\AppData\Local\Temp\ccyjM0JL.s:21287  .debug_str:0000000000004f78 .LASF435
C:\Users\CYMR90~1\AppData\Local\Temp\ccyjM0JL.s:26008  .debug_str:0000000000017bed .LASF436
C:\Users\CYMR90~1\AppData\Local\Temp\ccyjM0JL.s:21841  .debug_str:0000000000007099 .LASF437
C:\Users\CYMR90~1\AppData\Local\Temp\ccyjM0JL.s:30352  .debug_str:0000000000029073 .LASF438
C:\Users\CYMR90~1\AppData\Local\Temp\ccyjM0JL.s:20043  .debug_str:00000000000000c7 .LASF439
C:\Users\CYMR90~1\AppData\Local\Temp\ccyjM0JL.s:27812  .debug_str:000000000001efa3 .LASF440
C:\Users\CYMR90~1\AppData\Local\Temp\ccyjM0JL.s:23499  .debug_str:000000000000dd15 .LASF441
C:\Users\CYMR90~1\AppData\Local\Temp\ccyjM0JL.s:28878  .debug_str:00000000000230a8 .LASF442
C:\Users\CYMR90~1\AppData\Local\Temp\ccyjM0JL.s:24377  .debug_str:0000000000011361 .LASF443
C:\Users\CYMR90~1\AppData\Local\Temp\ccyjM0JL.s:24215  .debug_str:0000000000010953 .LASF444
C:\Users\CYMR90~1\AppData\Local\Temp\ccyjM0JL.s:31280  .debug_str:000000000002c9f4 .LASF445
C:\Users\CYMR90~1\AppData\Local\Temp\ccyjM0JL.s:31218  .debug_str:000000000002c5dd .LASF446
C:\Users\CYMR90~1\AppData\Local\Temp\ccyjM0JL.s:30830  .debug_str:000000000002ad16 .LASF447
C:\Users\CYMR90~1\AppData\Local\Temp\ccyjM0JL.s:28852  .debug_str:0000000000022f2c .LASF448
C:\Users\CYMR90~1\AppData\Local\Temp\ccyjM0JL.s:21107  .debug_str:0000000000004382 .LASF449
C:\Users\CYMR90~1\AppData\Local\Temp\ccyjM0JL.s:21861  .debug_str:0000000000007202 .LASF450
C:\Users\CYMR90~1\AppData\Local\Temp\ccyjM0JL.s:22475  .debug_str:0000000000009a0a .LASF451
C:\Users\CYMR90~1\AppData\Local\Temp\ccyjM0JL.s:25263  .debug_str:0000000000014c88 .LASF452
C:\Users\CYMR90~1\AppData\Local\Temp\ccyjM0JL.s:20563  .debug_str:00000000000020a8 .LASF453
C:\Users\CYMR90~1\AppData\Local\Temp\ccyjM0JL.s:31224  .debug_str:000000000002c616 .LASF454
C:\Users\CYMR90~1\AppData\Local\Temp\ccyjM0JL.s:23665  .debug_str:000000000000e729 .LASF455
C:\Users\CYMR90~1\AppData\Local\Temp\ccyjM0JL.s:28460  .debug_str:000000000002176a .LASF456
C:\Users\CYMR90~1\AppData\Local\Temp\ccyjM0JL.s:23351  .debug_str:000000000000d3c8 .LASF457
C:\Users\CYMR90~1\AppData\Local\Temp\ccyjM0JL.s:21627  .debug_str:0000000000006385 .LASF458
C:\Users\CYMR90~1\AppData\Local\Temp\ccyjM0JL.s:24281  .debug_str:0000000000010e33 .LASF459
C:\Users\CYMR90~1\AppData\Local\Temp\ccyjM0JL.s:28204  .debug_str:00000000000207e7 .LASF460
C:\Users\CYMR90~1\AppData\Local\Temp\ccyjM0JL.s:29372  .debug_str:0000000000024f78 .LASF461
C:\Users\CYMR90~1\AppData\Local\Temp\ccyjM0JL.s:25783  .debug_str:0000000000016ce6 .LASF462
C:\Users\CYMR90~1\AppData\Local\Temp\ccyjM0JL.s:26648  .debug_str:000000000001a62b .LASF463
C:\Users\CYMR90~1\AppData\Local\Temp\ccyjM0JL.s:23515  .debug_str:000000000000dde1 .LASF464
C:\Users\CYMR90~1\AppData\Local\Temp\ccyjM0JL.s:24661  .debug_str:0000000000012680 .LASF465
C:\Users\CYMR90~1\AppData\Local\Temp\ccyjM0JL.s:21769  .debug_str:0000000000006c38 .LASF466
C:\Users\CYMR90~1\AppData\Local\Temp\ccyjM0JL.s:28608  .debug_str:0000000000022078 .LASF467
C:\Users\CYMR90~1\AppData\Local\Temp\ccyjM0JL.s:24421  .debug_str:0000000000011629 .LASF468
C:\Users\CYMR90~1\AppData\Local\Temp\ccyjM0JL.s:20913  .debug_str:00000000000036bb .LASF469
C:\Users\CYMR90~1\AppData\Local\Temp\ccyjM0JL.s:24177  .debug_str:0000000000010671 .LASF470
C:\Users\CYMR90~1\AppData\Local\Temp\ccyjM0JL.s:24053  .debug_str:000000000000ff0e .LASF471
C:\Users\CYMR90~1\AppData\Local\Temp\ccyjM0JL.s:23639  .debug_str:000000000000e59d .LASF472
C:\Users\CYMR90~1\AppData\Local\Temp\ccyjM0JL.s:20269  .debug_str:0000000000000e2e .LASF473
C:\Users\CYMR90~1\AppData\Local\Temp\ccyjM0JL.s:21887  .debug_str:0000000000007403 .LASF474
C:\Users\CYMR90~1\AppData\Local\Temp\ccyjM0JL.s:20215  .debug_str:0000000000000af6 .LASF475
C:\Users\CYMR90~1\AppData\Local\Temp\ccyjM0JL.s:21071  .debug_str:00000000000040c6 .LASF476
C:\Users\CYMR90~1\AppData\Local\Temp\ccyjM0JL.s:20443  .debug_str:000000000000199f .LASF477
C:\Users\CYMR90~1\AppData\Local\Temp\ccyjM0JL.s:25563  .debug_str:0000000000015e2c .LASF478
C:\Users\CYMR90~1\AppData\Local\Temp\ccyjM0JL.s:22939  .debug_str:000000000000b8fb .LASF479
C:\Users\CYMR90~1\AppData\Local\Temp\ccyjM0JL.s:30842  .debug_str:000000000002adbe .LASF480
C:\Users\CYMR90~1\AppData\Local\Temp\ccyjM0JL.s:26162  .debug_str:00000000000184d0 .LASF481
C:\Users\CYMR90~1\AppData\Local\Temp\ccyjM0JL.s:22861  .debug_str:000000000000b388 .LASF482
C:\Users\CYMR90~1\AppData\Local\Temp\ccyjM0JL.s:21669  .debug_str:000000000000660f .LASF483
C:\Users\CYMR90~1\AppData\Local\Temp\ccyjM0JL.s:20181  .debug_str:00000000000008c7 .LASF484
C:\Users\CYMR90~1\AppData\Local\Temp\ccyjM0JL.s:26110  .debug_str:00000000000181e6 .LASF485
C:\Users\CYMR90~1\AppData\Local\Temp\ccyjM0JL.s:21297  .debug_str:0000000000005016 .LASF486
C:\Users\CYMR90~1\AppData\Local\Temp\ccyjM0JL.s:25017  .debug_str:0000000000013d8d .LASF487
C:\Users\CYMR90~1\AppData\Local\Temp\ccyjM0JL.s:24201  .debug_str:0000000000010899 .LASF488
C:\Users\CYMR90~1\AppData\Local\Temp\ccyjM0JL.s:24783  .debug_str:0000000000012e8f .LASF489
C:\Users\CYMR90~1\AppData\Local\Temp\ccyjM0JL.s:23233  .debug_str:000000000000cc62 .LASF490
C:\Users\CYMR90~1\AppData\Local\Temp\ccyjM0JL.s:22201  .debug_str:000000000000890a .LASF491
C:\Users\CYMR90~1\AppData\Local\Temp\ccyjM0JL.s:23855  .debug_str:000000000000f26b .LASF492
C:\Users\CYMR90~1\AppData\Local\Temp\ccyjM0JL.s:22209  .debug_str:000000000000898f .LASF493
C:\Users\CYMR90~1\AppData\Local\Temp\ccyjM0JL.s:24061  .debug_str:000000000000ff8f .LASF494
C:\Users\CYMR90~1\AppData\Local\Temp\ccyjM0JL.s:26360  .debug_str:00000000000192a2 .LASF495
C:\Users\CYMR90~1\AppData\Local\Temp\ccyjM0JL.s:31304  .debug_str:000000000002cb51 .LASF496
C:\Users\CYMR90~1\AppData\Local\Temp\ccyjM0JL.s:31240  .debug_str:000000000002c770 .LASF497
C:\Users\CYMR90~1\AppData\Local\Temp\ccyjM0JL.s:23901  .debug_str:000000000000f53d .LASF498
C:\Users\CYMR90~1\AppData\Local\Temp\ccyjM0JL.s:30448  .debug_str:0000000000029639 .LASF499
C:\Users\CYMR90~1\AppData\Local\Temp\ccyjM0JL.s:30548  .debug_str:0000000000029c40 .LASF500
C:\Users\CYMR90~1\AppData\Local\Temp\ccyjM0JL.s:25225  .debug_str:0000000000014a37 .LASF501
C:\Users\CYMR90~1\AppData\Local\Temp\ccyjM0JL.s:30502  .debug_str:00000000000299a1 .LASF502
C:\Users\CYMR90~1\AppData\Local\Temp\ccyjM0JL.s:25171  .debug_str:00000000000146cc .LASF503
C:\Users\CYMR90~1\AppData\Local\Temp\ccyjM0JL.s:20773  .debug_str:0000000000002dc3 .LASF504
C:\Users\CYMR90~1\AppData\Local\Temp\ccyjM0JL.s:29132  .debug_str:0000000000023f20 .LASF505
C:\Users\CYMR90~1\AppData\Local\Temp\ccyjM0JL.s:30014  .debug_str:00000000000279e4 .LASF506
C:\Users\CYMR90~1\AppData\Local\Temp\ccyjM0JL.s:29588  .debug_str:0000000000025f05 .LASF507
C:\Users\CYMR90~1\AppData\Local\Temp\ccyjM0JL.s:26280  .debug_str:0000000000018c2c .LASF508
C:\Users\CYMR90~1\AppData\Local\Temp\ccyjM0JL.s:28550  .debug_str:0000000000021cc0 .LASF509
C:\Users\CYMR90~1\AppData\Local\Temp\ccyjM0JL.s:30246  .debug_str:00000000000289d5 .LASF510
C:\Users\CYMR90~1\AppData\Local\Temp\ccyjM0JL.s:26054  .debug_str:0000000000017e8f .LASF511
C:\Users\CYMR90~1\AppData\Local\Temp\ccyjM0JL.s:29866  .debug_str:0000000000027008 .LASF512
C:\Users\CYMR90~1\AppData\Local\Temp\ccyjM0JL.s:29986  .debug_str:0000000000027860 .LASF513
C:\Users\CYMR90~1\AppData\Local\Temp\ccyjM0JL.s:30430  .debug_str:0000000000029537 .LASF514
C:\Users\CYMR90~1\AppData\Local\Temp\ccyjM0JL.s:24943  .debug_str:0000000000013919 .LASF515
C:\Users\CYMR90~1\AppData\Local\Temp\ccyjM0JL.s:30306  .debug_str:0000000000028ddf .LASF516
C:\Users\CYMR90~1\AppData\Local\Temp\ccyjM0JL.s:26426  .debug_str:0000000000019688 .LASF517
C:\Users\CYMR90~1\AppData\Local\Temp\ccyjM0JL.s:30254  .debug_str:0000000000028a89 .LASF518
C:\Users\CYMR90~1\AppData\Local\Temp\ccyjM0JL.s:27090  .debug_str:000000000001c249 .LASF519
C:\Users\CYMR90~1\AppData\Local\Temp\ccyjM0JL.s:31212  .debug_str:000000000002c57b .LASF520
C:\Users\CYMR90~1\AppData\Local\Temp\ccyjM0JL.s:27354  .debug_str:000000000001d3fc .LASF521
C:\Users\CYMR90~1\AppData\Local\Temp\ccyjM0JL.s:29492  .debug_str:000000000002582c .LASF522
C:\Users\CYMR90~1\AppData\Local\Temp\ccyjM0JL.s:24827  .debug_str:000000000001315d .LASF523
C:\Users\CYMR90~1\AppData\Local\Temp\ccyjM0JL.s:29044  .debug_str:0000000000023a47 .LASF524
C:\Users\CYMR90~1\AppData\Local\Temp\ccyjM0JL.s:22417  .debug_str:0000000000009603 .LASF525
C:\Users\CYMR90~1\AppData\Local\Temp\ccyjM0JL.s:31232  .debug_str:000000000002c684 .LASF526
C:\Users\CYMR90~1\AppData\Local\Temp\ccyjM0JL.s:23673  .debug_str:000000000000e7a7 .LASF527
C:\Users\CYMR90~1\AppData\Local\Temp\ccyjM0JL.s:24685  .debug_str:0000000000012808 .LASF528
C:\Users\CYMR90~1\AppData\Local\Temp\ccyjM0JL.s:25539  .debug_str:0000000000015c7b .LASF529
C:\Users\CYMR90~1\AppData\Local\Temp\ccyjM0JL.s:25575  .debug_str:0000000000015ed9 .LASF530
C:\Users\CYMR90~1\AppData\Local\Temp\ccyjM0JL.s:24609  .debug_str:0000000000012345 .LASF531
C:\Users\CYMR90~1\AppData\Local\Temp\ccyjM0JL.s:20837  .debug_str:000000000000318d .LASF532
C:\Users\CYMR90~1\AppData\Local\Temp\ccyjM0JL.s:23357  .debug_str:000000000000d402 .LASF533
C:\Users\CYMR90~1\AppData\Local\Temp\ccyjM0JL.s:31076  .debug_str:000000000002bc0b .LASF534
C:\Users\CYMR90~1\AppData\Local\Temp\ccyjM0JL.s:23853  .debug_str:000000000000f21f .LASF535
C:\Users\CYMR90~1\AppData\Local\Temp\ccyjM0JL.s:29230  .debug_str:000000000002462f .LASF536
C:\Users\CYMR90~1\AppData\Local\Temp\ccyjM0JL.s:30712  .debug_str:000000000002a5d1 .LASF537
C:\Users\CYMR90~1\AppData\Local\Temp\ccyjM0JL.s:24437  .debug_str:0000000000011718 .LASF538
C:\Users\CYMR90~1\AppData\Local\Temp\ccyjM0JL.s:29414  .debug_str:0000000000025210 .LASF539
C:\Users\CYMR90~1\AppData\Local\Temp\ccyjM0JL.s:27150  .debug_str:000000000001c5b4 .LASF540
C:\Users\CYMR90~1\AppData\Local\Temp\ccyjM0JL.s:23451  .debug_str:000000000000da68 .LASF541
C:\Users\CYMR90~1\AppData\Local\Temp\ccyjM0JL.s:27444  .debug_str:000000000001d97a .LASF542
C:\Users\CYMR90~1\AppData\Local\Temp\ccyjM0JL.s:21187  .debug_str:00000000000048a6 .LASF543
C:\Users\CYMR90~1\AppData\Local\Temp\ccyjM0JL.s:23607  .debug_str:000000000000e3a2 .LASF544
C:\Users\CYMR90~1\AppData\Local\Temp\ccyjM0JL.s:30488  .debug_str:00000000000298bd .LASF545
C:\Users\CYMR90~1\AppData\Local\Temp\ccyjM0JL.s:24955  .debug_str:00000000000139ca .LASF546
C:\Users\CYMR90~1\AppData\Local\Temp\ccyjM0JL.s:28742  .debug_str:0000000000022815 .LASF547
C:\Users\CYMR90~1\AppData\Local\Temp\ccyjM0JL.s:30990  .debug_str:000000000002b6b7 .LASF548
C:\Users\CYMR90~1\AppData\Local\Temp\ccyjM0JL.s:26700  .debug_str:000000000001a9a9 .LASF549
C:\Users\CYMR90~1\AppData\Local\Temp\ccyjM0JL.s:22037  .debug_str:0000000000007da7 .LASF550
C:\Users\CYMR90~1\AppData\Local\Temp\ccyjM0JL.s:29756  .debug_str:000000000002693b .LASF551
C:\Users\CYMR90~1\AppData\Local\Temp\ccyjM0JL.s:21595  .debug_str:000000000000618e .LASF552
C:\Users\CYMR90~1\AppData\Local\Temp\ccyjM0JL.s:30732  .debug_str:000000000002a6da .LASF553
C:\Users\CYMR90~1\AppData\Local\Temp\ccyjM0JL.s:23015  .debug_str:000000000000bdd6 .LASF554
C:\Users\CYMR90~1\AppData\Local\Temp\ccyjM0JL.s:23209  .debug_str:000000000000ca9f .LASF555
C:\Users\CYMR90~1\AppData\Local\Temp\ccyjM0JL.s:21717  .debug_str:00000000000068fe .LASF556
C:\Users\CYMR90~1\AppData\Local\Temp\ccyjM0JL.s:21425  .debug_str:0000000000005784 .LASF557
C:\Users\CYMR90~1\AppData\Local\Temp\ccyjM0JL.s:24553  .debug_str:0000000000011f00 .LASF558
C:\Users\CYMR90~1\AppData\Local\Temp\ccyjM0JL.s:26308  .debug_str:0000000000018e82 .LASF559
C:\Users\CYMR90~1\AppData\Local\Temp\ccyjM0JL.s:30296  .debug_str:0000000000028d3f .LASF560
C:\Users\CYMR90~1\AppData\Local\Temp\ccyjM0JL.s:23011  .debug_str:000000000000bd72 .LASF561
C:\Users\CYMR90~1\AppData\Local\Temp\ccyjM0JL.s:24011  .debug_str:000000000000fc47 .LASF562
C:\Users\CYMR90~1\AppData\Local\Temp\ccyjM0JL.s:23401  .debug_str:000000000000d756 .LASF563
C:\Users\CYMR90~1\AppData\Local\Temp\ccyjM0JL.s:22709  .debug_str:000000000000a86c .LASF564
C:\Users\CYMR90~1\AppData\Local\Temp\ccyjM0JL.s:28488  .debug_str:0000000000021902 .LASF565
C:\Users\CYMR90~1\AppData\Local\Temp\ccyjM0JL.s:27696  .debug_str:000000000001e899 .LASF566
C:\Users\CYMR90~1\AppData\Local\Temp\ccyjM0JL.s:24549  .debug_str:0000000000011eb8 .LASF567
C:\Users\CYMR90~1\AppData\Local\Temp\ccyjM0JL.s:21597  .debug_str:00000000000061a2 .LASF568
C:\Users\CYMR90~1\AppData\Local\Temp\ccyjM0JL.s:20239  .debug_str:0000000000000c91 .LASF570
C:\Users\CYMR90~1\AppData\Local\Temp\ccyjM0JL.s:25934  .debug_str:000000000001774d .LASF571
C:\Users\CYMR90~1\AppData\Local\Temp\ccyjM0JL.s:27084  .debug_str:000000000001c205 .LASF574
C:\Users\CYMR90~1\AppData\Local\Temp\ccyjM0JL.s:21155  .debug_str:000000000000467f .LASF575
C:\Users\CYMR90~1\AppData\Local\Temp\ccyjM0JL.s:25177  .debug_str:0000000000014756 .LASF576
C:\Users\CYMR90~1\AppData\Local\Temp\ccyjM0JL.s:22133  .debug_str:0000000000008514 .LASF577
C:\Users\CYMR90~1\AppData\Local\Temp\ccyjM0JL.s:28382  .debug_str:000000000002121b .LASF579
C:\Users\CYMR90~1\AppData\Local\Temp\ccyjM0JL.s:27568  .debug_str:000000000001e135 .LASF580
C:\Users\CYMR90~1\AppData\Local\Temp\ccyjM0JL.s:29130  .debug_str:0000000000023f17 .LASF581
C:\Users\CYMR90~1\AppData\Local\Temp\ccyjM0JL.s:21553  .debug_str:0000000000005f0d .LASF582
C:\Users\CYMR90~1\AppData\Local\Temp\ccyjM0JL.s:24161  .debug_str:000000000001057b .LASF583
C:\Users\CYMR90~1\AppData\Local\Temp\ccyjM0JL.s:20727  .debug_str:0000000000002ad0 .LASF584
C:\Users\CYMR90~1\AppData\Local\Temp\ccyjM0JL.s:30584  .debug_str:0000000000029e6c .LASF585
C:\Users\CYMR90~1\AppData\Local\Temp\ccyjM0JL.s:28792  .debug_str:0000000000022b44 .LASF586
C:\Users\CYMR90~1\AppData\Local\Temp\ccyjM0JL.s:26968  .debug_str:000000000001bad7 .LASF587
C:\Users\CYMR90~1\AppData\Local\Temp\ccyjM0JL.s:21785  .debug_str:0000000000006d37 .LASF588
C:\Users\CYMR90~1\AppData\Local\Temp\ccyjM0JL.s:26218  .debug_str:000000000001883f .LASF589
C:\Users\CYMR90~1\AppData\Local\Temp\ccyjM0JL.s:26594  .debug_str:000000000001a15d .LASF590
C:\Users\CYMR90~1\AppData\Local\Temp\ccyjM0JL.s:27436  .debug_str:000000000001d90e .LASF591
C:\Users\CYMR90~1\AppData\Local\Temp\ccyjM0JL.s:29894  .debug_str:0000000000027202 .LASF592
C:\Users\CYMR90~1\AppData\Local\Temp\ccyjM0JL.s:29118  .debug_str:0000000000023e74 .LASF593
C:\Users\CYMR90~1\AppData\Local\Temp\ccyjM0JL.s:24119  .debug_str:0000000000010348 .LASF594
C:\Users\CYMR90~1\AppData\Local\Temp\ccyjM0JL.s:25015  .debug_str:0000000000013d6d .LASF595
C:\Users\CYMR90~1\AppData\Local\Temp\ccyjM0JL.s:24743  .debug_str:0000000000012bea .LASF596
C:\Users\CYMR90~1\AppData\Local\Temp\ccyjM0JL.s:21889  .debug_str:0000000000007422 .LASF597
C:\Users\CYMR90~1\AppData\Local\Temp\ccyjM0JL.s:30112  .debug_str:0000000000028072 .LASF598
C:\Users\CYMR90~1\AppData\Local\Temp\ccyjM0JL.s:24901  .debug_str:000000000001368c .LASF599
C:\Users\CYMR90~1\AppData\Local\Temp\ccyjM0JL.s:27896  .debug_str:000000000001f4f7 .LASF600
C:\Users\CYMR90~1\AppData\Local\Temp\ccyjM0JL.s:27158  .debug_str:000000000001c620 .LASF601
C:\Users\CYMR90~1\AppData\Local\Temp\ccyjM0JL.s:29594  .debug_str:0000000000025f58 .LASF602
C:\Users\CYMR90~1\AppData\Local\Temp\ccyjM0JL.s:30312  .debug_str:0000000000028e41 .LASF603
C:\Users\CYMR90~1\AppData\Local\Temp\ccyjM0JL.s:30202  .debug_str:00000000000286f4 .LASF604
C:\Users\CYMR90~1\AppData\Local\Temp\ccyjM0JL.s:24853  .debug_str:0000000000013320 .LASF605
C:\Users\CYMR90~1\AppData\Local\Temp\ccyjM0JL.s:25876  .debug_str:0000000000017416 .LASF606
C:\Users\CYMR90~1\AppData\Local\Temp\ccyjM0JL.s:22485  .debug_str:0000000000009ac4 .LASF607
C:\Users\CYMR90~1\AppData\Local\Temp\ccyjM0JL.s:21993  .debug_str:0000000000007ab9 .LASF608
C:\Users\CYMR90~1\AppData\Local\Temp\ccyjM0JL.s:22771  .debug_str:000000000000ad41 .LASF609
C:\Users\CYMR90~1\AppData\Local\Temp\ccyjM0JL.s:27004  .debug_str:000000000001bc9c .LASF610
C:\Users\CYMR90~1\AppData\Local\Temp\ccyjM0JL.s:21519  .debug_str:0000000000005d6e .LASF611
C:\Users\CYMR90~1\AppData\Local\Temp\ccyjM0JL.s:28712  .debug_str:0000000000022680 .LASF612
C:\Users\CYMR90~1\AppData\Local\Temp\ccyjM0JL.s:25409  .debug_str:000000000001550e .LASF613
C:\Users\CYMR90~1\AppData\Local\Temp\ccyjM0JL.s:22057  .debug_str:0000000000007f7a .LASF614
C:\Users\CYMR90~1\AppData\Local\Temp\ccyjM0JL.s:20139  .debug_str:0000000000000653 .LASF615
C:\Users\CYMR90~1\AppData\Local\Temp\ccyjM0JL.s:25649  .debug_str:000000000001639c .LASF616
C:\Users\CYMR90~1\AppData\Local\Temp\ccyjM0JL.s:26630  .debug_str:000000000001a38b .LASF617
C:\Users\CYMR90~1\AppData\Local\Temp\ccyjM0JL.s:25785  .debug_str:0000000000016cf5 .LASF618
C:\Users\CYMR90~1\AppData\Local\Temp\ccyjM0JL.s:28800  .debug_str:0000000000022ba9 .LASF619
C:\Users\CYMR90~1\AppData\Local\Temp\ccyjM0JL.s:23033  .debug_str:000000000000bf63 .LASF620
C:\Users\CYMR90~1\AppData\Local\Temp\ccyjM0JL.s:21799  .debug_str:0000000000006e24 .LASF621
C:\Users\CYMR90~1\AppData\Local\Temp\ccyjM0JL.s:28994  .debug_str:0000000000023705 .LASF622
C:\Users\CYMR90~1\AppData\Local\Temp\ccyjM0JL.s:28076  .debug_str:000000000001ffdf .LASF623
C:\Users\CYMR90~1\AppData\Local\Temp\ccyjM0JL.s:30068  .debug_str:0000000000027d1f .LASF624
C:\Users\CYMR90~1\AppData\Local\Temp\ccyjM0JL.s:30686  .debug_str:000000000002a478 .LASF625
C:\Users\CYMR90~1\AppData\Local\Temp\ccyjM0JL.s:25083  .debug_str:0000000000014148 .LASF626
C:\Users\CYMR90~1\AppData\Local\Temp\ccyjM0JL.s:30954  .debug_str:000000000002b423 .LASF627
C:\Users\CYMR90~1\AppData\Local\Temp\ccyjM0JL.s:25499  .debug_str:0000000000015a30 .LASF628
C:\Users\CYMR90~1\AppData\Local\Temp\ccyjM0JL.s:28740  .debug_str:00000000000227dd .LASF629
C:\Users\CYMR90~1\AppData\Local\Temp\ccyjM0JL.s:24109  .debug_str:0000000000010298 .LASF630
C:\Users\CYMR90~1\AppData\Local\Temp\ccyjM0JL.s:27220  .debug_str:000000000001ca85 .LASF631
C:\Users\CYMR90~1\AppData\Local\Temp\ccyjM0JL.s:28702  .debug_str:00000000000225e4 .LASF632
C:\Users\CYMR90~1\AppData\Local\Temp\ccyjM0JL.s:23153  .debug_str:000000000000c6ab .LASF633
C:\Users\CYMR90~1\AppData\Local\Temp\ccyjM0JL.s:20655  .debug_str:00000000000025e1 .LASF634
C:\Users\CYMR90~1\AppData\Local\Temp\ccyjM0JL.s:26538  .debug_str:0000000000019e28 .LASF635
C:\Users\CYMR90~1\AppData\Local\Temp\ccyjM0JL.s:25707  .debug_str:000000000001676d .LASF636
C:\Users\CYMR90~1\AppData\Local\Temp\ccyjM0JL.s:27324  .debug_str:000000000001d222 .LASF637
C:\Users\CYMR90~1\AppData\Local\Temp\ccyjM0JL.s:20947  .debug_str:00000000000038c4 .LASF638
C:\Users\CYMR90~1\AppData\Local\Temp\ccyjM0JL.s:24501  .debug_str:0000000000011bf5 .LASF639
C:\Users\CYMR90~1\AppData\Local\Temp\ccyjM0JL.s:22069  .debug_str:0000000000008022 .LASF640
C:\Users\CYMR90~1\AppData\Local\Temp\ccyjM0JL.s:24725  .debug_str:0000000000012abc .LASF641
C:\Users\CYMR90~1\AppData\Local\Temp\ccyjM0JL.s:22929  .debug_str:000000000000b81b .LASF642
C:\Users\CYMR90~1\AppData\Local\Temp\ccyjM0JL.s:30050  .debug_str:0000000000027bd5 .LASF643
C:\Users\CYMR90~1\AppData\Local\Temp\ccyjM0JL.s:23313  .debug_str:000000000000d128 .LASF644
C:\Users\CYMR90~1\AppData\Local\Temp\ccyjM0JL.s:21123  .debug_str:0000000000004441 .LASF645
C:\Users\CYMR90~1\AppData\Local\Temp\ccyjM0JL.s:21953  .debug_str:0000000000007807 .LASF646
C:\Users\CYMR90~1\AppData\Local\Temp\ccyjM0JL.s:20879  .debug_str:000000000000345d .LASF647
C:\Users\CYMR90~1\AppData\Local\Temp\ccyjM0JL.s:21243  .debug_str:0000000000004cb8 .LASF648
C:\Users\CYMR90~1\AppData\Local\Temp\ccyjM0JL.s:30582  .debug_str:0000000000029e2d .LASF649
C:\Users\CYMR90~1\AppData\Local\Temp\ccyjM0JL.s:24417  .debug_str:00000000000115b9 .LASF650
C:\Users\CYMR90~1\AppData\Local\Temp\ccyjM0JL.s:30704  .debug_str:000000000002a560 .LASF651
C:\Users\CYMR90~1\AppData\Local\Temp\ccyjM0JL.s:24019  .debug_str:000000000000fce4 .LASF652
C:\Users\CYMR90~1\AppData\Local\Temp\ccyjM0JL.s:20117  .debug_str:0000000000000524 .LASF653
C:\Users\CYMR90~1\AppData\Local\Temp\ccyjM0JL.s:30936  .debug_str:000000000002b333 .LASF654
C:\Users\CYMR90~1\AppData\Local\Temp\ccyjM0JL.s:22307  .debug_str:0000000000008fcb .LASF655
C:\Users\CYMR90~1\AppData\Local\Temp\ccyjM0JL.s:30128  .debug_str:000000000002816b .LASF656
C:\Users\CYMR90~1\AppData\Local\Temp\ccyjM0JL.s:20175  .debug_str:000000000000089f .LASF657
C:\Users\CYMR90~1\AppData\Local\Temp\ccyjM0JL.s:30756  .debug_str:000000000002a895 .LASF658
C:\Users\CYMR90~1\AppData\Local\Temp\ccyjM0JL.s:24819  .debug_str:00000000000130f8 .LASF659
C:\Users\CYMR90~1\AppData\Local\Temp\ccyjM0JL.s:27258  .debug_str:000000000001ccce .LASF660
C:\Users\CYMR90~1\AppData\Local\Temp\ccyjM0JL.s:23709  .debug_str:000000000000ea16 .LASF661
C:\Users\CYMR90~1\AppData\Local\Temp\ccyjM0JL.s:27924  .debug_str:000000000001f6aa .LASF662
C:\Users\CYMR90~1\AppData\Local\Temp\ccyjM0JL.s:29908  .debug_str:00000000000272e5 .LASF663
C:\Users\CYMR90~1\AppData\Local\Temp\ccyjM0JL.s:24395  .debug_str:000000000001147a .LASF664
C:\Users\CYMR90~1\AppData\Local\Temp\ccyjM0JL.s:24387  .debug_str:0000000000011409 .LASF665
C:\Users\CYMR90~1\AppData\Local\Temp\ccyjM0JL.s:26316  .debug_str:0000000000018f3b .LASF666
C:\Users\CYMR90~1\AppData\Local\Temp\ccyjM0JL.s:21533  .debug_str:0000000000005e0f .LASF667
C:\Users\CYMR90~1\AppData\Local\Temp\ccyjM0JL.s:31428  .debug_str:000000000002d3c0 .LASF668
C:\Users\CYMR90~1\AppData\Local\Temp\ccyjM0JL.s:21915  .debug_str:00000000000075b1 .LASF669
C:\Users\CYMR90~1\AppData\Local\Temp\ccyjM0JL.s:28586  .debug_str:0000000000021f17 .LASF670
C:\Users\CYMR90~1\AppData\Local\Temp\ccyjM0JL.s:24803  .debug_str:0000000000012feb .LASF671
C:\Users\CYMR90~1\AppData\Local\Temp\ccyjM0JL.s:27974  .debug_str:000000000001f970 .LASF672
C:\Users\CYMR90~1\AppData\Local\Temp\ccyjM0JL.s:28716  .debug_str:00000000000226b1 .LASF673
C:\Users\CYMR90~1\AppData\Local\Temp\ccyjM0JL.s:20511  .debug_str:0000000000001dc2 .LASF674
C:\Users\CYMR90~1\AppData\Local\Temp\ccyjM0JL.s:25485  .debug_str:0000000000015951 .LASF676
C:\Users\CYMR90~1\AppData\Local\Temp\ccyjM0JL.s:29148  .debug_str:0000000000024037 .LASF677
C:\Users\CYMR90~1\AppData\Local\Temp\ccyjM0JL.s:26550  .debug_str:0000000000019ed8 .LASF678
C:\Users\CYMR90~1\AppData\Local\Temp\ccyjM0JL.s:29250  .debug_str:00000000000247ad .LASF679
C:\Users\CYMR90~1\AppData\Local\Temp\ccyjM0JL.s:27692  .debug_str:000000000001e86d .LASF680
C:\Users\CYMR90~1\AppData\Local\Temp\ccyjM0JL.s:30602  .debug_str:0000000000029f77 .LASF681
C:\Users\CYMR90~1\AppData\Local\Temp\ccyjM0JL.s:21125  .debug_str:000000000000447f .LASF682
C:\Users\CYMR90~1\AppData\Local\Temp\ccyjM0JL.s:21045  .debug_str:0000000000003f0b .LASF683
C:\Users\CYMR90~1\AppData\Local\Temp\ccyjM0JL.s:22443  .debug_str:00000000000097cb .LASF684
C:\Users\CYMR90~1\AppData\Local\Temp\ccyjM0JL.s:27008  .debug_str:000000000001bcc9 .LASF685
C:\Users\CYMR90~1\AppData\Local\Temp\ccyjM0JL.s:28444  .debug_str:0000000000021662 .LASF686
C:\Users\CYMR90~1\AppData\Local\Temp\ccyjM0JL.s:25763  .debug_str:0000000000016b26 .LASF687
C:\Users\CYMR90~1\AppData\Local\Temp\ccyjM0JL.s:24317  .debug_str:0000000000011004 .LASF688
C:\Users\CYMR90~1\AppData\Local\Temp\ccyjM0JL.s:20929  .debug_str:0000000000003797 .LASF689
C:\Users\CYMR90~1\AppData\Local\Temp\ccyjM0JL.s:21807  .debug_str:0000000000006ec7 .LASF690
C:\Users\CYMR90~1\AppData\Local\Temp\ccyjM0JL.s:24669  .debug_str:00000000000126f4 .LASF691
C:\Users\CYMR90~1\AppData\Local\Temp\ccyjM0JL.s:25525  .debug_str:0000000000015bb3 .LASF692
C:\Users\CYMR90~1\AppData\Local\Temp\ccyjM0JL.s:21499  .debug_str:0000000000005c47 .LASF695
C:\Users\CYMR90~1\AppData\Local\Temp\ccyjM0JL.s:25932  .debug_str:0000000000017736 .LASF696
C:\Users\CYMR90~1\AppData\Local\Temp\ccyjM0JL.s:23341  .debug_str:000000000000d300 .LASF697
C:\Users\CYMR90~1\AppData\Local\Temp\ccyjM0JL.s:26978  .debug_str:000000000001bb38 .LASF698
C:\Users\CYMR90~1\AppData\Local\Temp\ccyjM0JL.s:29186  .debug_str:000000000002424c .LASF699
C:\Users\CYMR90~1\AppData\Local\Temp\ccyjM0JL.s:25259  .debug_str:0000000000014c05 .LASF702
C:\Users\CYMR90~1\AppData\Local\Temp\ccyjM0JL.s:22465  .debug_str:0000000000009922 .LASF703
C:\Users\CYMR90~1\AppData\Local\Temp\ccyjM0JL.s:27866  .debug_str:000000000001f336 .LASF704
C:\Users\CYMR90~1\AppData\Local\Temp\ccyjM0JL.s:21321  .debug_str:0000000000005172 .LASF705
C:\Users\CYMR90~1\AppData\Local\Temp\ccyjM0JL.s:25587  .debug_str:0000000000015fc0 .LASF706
C:\Users\CYMR90~1\AppData\Local\Temp\ccyjM0JL.s:23899  .debug_str:000000000000f517 .LASF707
C:\Users\CYMR90~1\AppData\Local\Temp\ccyjM0JL.s:30326  .debug_str:0000000000028f0e .LASF708
C:\Users\CYMR90~1\AppData\Local\Temp\ccyjM0JL.s:29564  .debug_str:0000000000025da7 .LASF709
C:\Users\CYMR90~1\AppData\Local\Temp\ccyjM0JL.s:28590  .debug_str:0000000000021f5d .LASF710
C:\Users\CYMR90~1\AppData\Local\Temp\ccyjM0JL.s:24057  .debug_str:000000000000ff4f .LASF711
C:\Users\CYMR90~1\AppData\Local\Temp\ccyjM0JL.s:25737  .debug_str:0000000000016934 .LASF712
C:\Users\CYMR90~1\AppData\Local\Temp\ccyjM0JL.s:22703  .debug_str:000000000000a7fa .LASF713
C:\Users\CYMR90~1\AppData\Local\Temp\ccyjM0JL.s:31156  .debug_str:000000000002c161 .LASF714
C:\Users\CYMR90~1\AppData\Local\Temp\ccyjM0JL.s:22053  .debug_str:0000000000007f15 .LASF715
C:\Users\CYMR90~1\AppData\Local\Temp\ccyjM0JL.s:22971  .debug_str:000000000000bab4 .LASF716
C:\Users\CYMR90~1\AppData\Local\Temp\ccyjM0JL.s:28094  .debug_str:0000000000020103 .LASF717
C:\Users\CYMR90~1\AppData\Local\Temp\ccyjM0JL.s:29520  .debug_str:0000000000025a62 .LASF718
C:\Users\CYMR90~1\AppData\Local\Temp\ccyjM0JL.s:29294  .debug_str:0000000000024a3a .LASF719
C:\Users\CYMR90~1\AppData\Local\Temp\ccyjM0JL.s:26252  .debug_str:0000000000018a84 .LASF720
C:\Users\CYMR90~1\AppData\Local\Temp\ccyjM0JL.s:20567  .debug_str:00000000000020dd .LASF721
C:\Users\CYMR90~1\AppData\Local\Temp\ccyjM0JL.s:28208  .debug_str:000000000002081b .LASF722
C:\Users\CYMR90~1\AppData\Local\Temp\ccyjM0JL.s:27172  .debug_str:000000000001c6d6 .LASF723
C:\Users\CYMR90~1\AppData\Local\Temp\ccyjM0JL.s:27744  .debug_str:000000000001ebca .LASF724
C:\Users\CYMR90~1\AppData\Local\Temp\ccyjM0JL.s:28694  .debug_str:0000000000022592 .LASF725
C:\Users\CYMR90~1\AppData\Local\Temp\ccyjM0JL.s:25906  .debug_str:00000000000175b1 .LASF726
C:\Users\CYMR90~1\AppData\Local\Temp\ccyjM0JL.s:22697  .debug_str:000000000000a7a0 .LASF727
C:\Users\CYMR90~1\AppData\Local\Temp\ccyjM0JL.s:29656  .debug_str:000000000002635c .LASF728
C:\Users\CYMR90~1\AppData\Local\Temp\ccyjM0JL.s:27980  .debug_str:000000000001f9ee .LASF729
C:\Users\CYMR90~1\AppData\Local\Temp\ccyjM0JL.s:26438  .debug_str:0000000000019732 .LASF730
C:\Users\CYMR90~1\AppData\Local\Temp\ccyjM0JL.s:24889  .debug_str:00000000000135c4 .LASF731
C:\Users\CYMR90~1\AppData\Local\Temp\ccyjM0JL.s:29596  .debug_str:0000000000025f93 .LASF732
C:\Users\CYMR90~1\AppData\Local\Temp\ccyjM0JL.s:31358  .debug_str:000000000002cf05 .LASF733
C:\Users\CYMR90~1\AppData\Local\Temp\ccyjM0JL.s:24371  .debug_str:0000000000011313 .LASF734
C:\Users\CYMR90~1\AppData\Local\Temp\ccyjM0JL.s:24293  .debug_str:0000000000010ec1 .LASF735
C:\Users\CYMR90~1\AppData\Local\Temp\ccyjM0JL.s:31290  .debug_str:000000000002ca65 .LASF736
C:\Users\CYMR90~1\AppData\Local\Temp\ccyjM0JL.s:23279  .debug_str:000000000000cf03 .LASF737
C:\Users\CYMR90~1\AppData\Local\Temp\ccyjM0JL.s:31222  .debug_str:000000000002c605 .LASF738
C:\Users\CYMR90~1\AppData\Local\Temp\ccyjM0JL.s:31044  .debug_str:000000000002ba14 .LASF739
C:\Users\CYMR90~1\AppData\Local\Temp\ccyjM0JL.s:20477  .debug_str:0000000000001b9b .LASF740
C:\Users\CYMR90~1\AppData\Local\Temp\ccyjM0JL.s:23215  .debug_str:000000000000cb0f .LASF741
C:\Users\CYMR90~1\AppData\Local\Temp\ccyjM0JL.s:20453  .debug_str:0000000000001a40 .LASF742
C:\Users\CYMR90~1\AppData\Local\Temp\ccyjM0JL.s:24327  .debug_str:0000000000011081 .LASF743
C:\Users\CYMR90~1\AppData\Local\Temp\ccyjM0JL.s:20917  .debug_str:00000000000036f8 .LASF744
C:\Users\CYMR90~1\AppData\Local\Temp\ccyjM0JL.s:22315  .debug_str:000000000000904c .LASF745
C:\Users\CYMR90~1\AppData\Local\Temp\ccyjM0JL.s:28706  .debug_str:0000000000022633 .LASF746
C:\Users\CYMR90~1\AppData\Local\Temp\ccyjM0JL.s:20349  .debug_str:000000000000134d .LASF747
C:\Users\CYMR90~1\AppData\Local\Temp\ccyjM0JL.s:30454  .debug_str:0000000000029690 .LASF748
C:\Users\CYMR90~1\AppData\Local\Temp\ccyjM0JL.s:21479  .debug_str:0000000000005ace .LASF750
C:\Users\CYMR90~1\AppData\Local\Temp\ccyjM0JL.s:24245  .debug_str:0000000000010b07 .LASF751
C:\Users\CYMR90~1\AppData\Local\Temp\ccyjM0JL.s:30484  .debug_str:000000000002987b .LASF752
C:\Users\CYMR90~1\AppData\Local\Temp\ccyjM0JL.s:28904  .debug_str:0000000000023221 .LASF753
C:\Users\CYMR90~1\AppData\Local\Temp\ccyjM0JL.s:21363  .debug_str:000000000000540b .LASF754
C:\Users\CYMR90~1\AppData\Local\Temp\ccyjM0JL.s:22953  .debug_str:000000000000b9ad .LASF755
C:\Users\CYMR90~1\AppData\Local\Temp\ccyjM0JL.s:26514  .debug_str:0000000000019cce .LASF756
C:\Users\CYMR90~1\AppData\Local\Temp\ccyjM0JL.s:22453  .debug_str:000000000000987a .LASF757
C:\Users\CYMR90~1\AppData\Local\Temp\ccyjM0JL.s:29548  .debug_str:0000000000025cbf .LASF758
C:\Users\CYMR90~1\AppData\Local\Temp\ccyjM0JL.s:31392  .debug_str:000000000002d195 .LASF759
C:\Users\CYMR90~1\AppData\Local\Temp\ccyjM0JL.s:26888  .debug_str:000000000001b5ab .LASF760
C:\Users\CYMR90~1\AppData\Local\Temp\ccyjM0JL.s:31138  .debug_str:000000000002c01b .LASF761
C:\Users\CYMR90~1\AppData\Local\Temp\ccyjM0JL.s:22879  .debug_str:000000000000b469 .LASF762
C:\Users\CYMR90~1\AppData\Local\Temp\ccyjM0JL.s:26898  .debug_str:000000000001b669 .LASF765
C:\Users\CYMR90~1\AppData\Local\Temp\ccyjM0JL.s:25557  .debug_str:0000000000015d8d .LASF766
C:\Users\CYMR90~1\AppData\Local\Temp\ccyjM0JL.s:28596  .debug_str:0000000000021faa .LASF767
C:\Users\CYMR90~1\AppData\Local\Temp\ccyjM0JL.s:25545  .debug_str:0000000000015d14 .LASF768
C:\Users\CYMR90~1\AppData\Local\Temp\ccyjM0JL.s:20715  .debug_str:0000000000002a0f .LASF769
C:\Users\CYMR90~1\AppData\Local\Temp\ccyjM0JL.s:27024  .debug_str:000000000001be0c .LASF770
C:\Users\CYMR90~1\AppData\Local\Temp\ccyjM0JL.s:25645  .debug_str:0000000000016376 .LASF771
C:\Users\CYMR90~1\AppData\Local\Temp\ccyjM0JL.s:29260  .debug_str:0000000000024826 .LASF772
C:\Users\CYMR90~1\AppData\Local\Temp\ccyjM0JL.s:28890  .debug_str:000000000002314b .LASF773
C:\Users\CYMR90~1\AppData\Local\Temp\ccyjM0JL.s:23629  .debug_str:000000000000e513 .LASF774
C:\Users\CYMR90~1\AppData\Local\Temp\ccyjM0JL.s:29598  .debug_str:0000000000025fa9 .LASF775
C:\Users\CYMR90~1\AppData\Local\Temp\ccyjM0JL.s:22597  .debug_str:000000000000a19f .LASF776
C:\Users\CYMR90~1\AppData\Local\Temp\ccyjM0JL.s:22613  .debug_str:000000000000a2a3 .LASF777
C:\Users\CYMR90~1\AppData\Local\Temp\ccyjM0JL.s:27682  .debug_str:000000000001e7cc .LASF778
C:\Users\CYMR90~1\AppData\Local\Temp\ccyjM0JL.s:24121  .debug_str:0000000000010370 .LASF779
C:\Users\CYMR90~1\AppData\Local\Temp\ccyjM0JL.s:27932  .debug_str:000000000001f71f .LASF780
C:\Users\CYMR90~1\AppData\Local\Temp\ccyjM0JL.s:28592  .debug_str:0000000000021f71 .LASF781
C:\Users\CYMR90~1\AppData\Local\Temp\ccyjM0JL.s:24619  .debug_str:00000000000123ec .LASF782
C:\Users\CYMR90~1\AppData\Local\Temp\ccyjM0JL.s:25771  .debug_str:0000000000016c49 .LASF783
C:\Users\CYMR90~1\AppData\Local\Temp\ccyjM0JL.s:24517  .debug_str:0000000000011cf3 .LASF784
C:\Users\CYMR90~1\AppData\Local\Temp\ccyjM0JL.s:24937  .debug_str:00000000000138c4 .LASF785
C:\Users\CYMR90~1\AppData\Local\Temp\ccyjM0JL.s:28960  .debug_str:0000000000023518 .LASF786
C:\Users\CYMR90~1\AppData\Local\Temp\ccyjM0JL.s:25273  .debug_str:0000000000014d2a .LASF787
C:\Users\CYMR90~1\AppData\Local\Temp\ccyjM0JL.s:27616  .debug_str:000000000001e3fb .LASF788
C:\Users\CYMR90~1\AppData\Local\Temp\ccyjM0JL.s:23979  .debug_str:000000000000fa79 .LASF789
C:\Users\CYMR90~1\AppData\Local\Temp\ccyjM0JL.s:21411  .debug_str:00000000000056e6 .LASF790
C:\Users\CYMR90~1\AppData\Local\Temp\ccyjM0JL.s:29954  .debug_str:000000000002765d .LASF791
C:\Users\CYMR90~1\AppData\Local\Temp\ccyjM0JL.s:22175  .debug_str:000000000000875d .LASF792
C:\Users\CYMR90~1\AppData\Local\Temp\ccyjM0JL.s:31364  .debug_str:000000000002cf53 .LASF793
C:\Users\CYMR90~1\AppData\Local\Temp\ccyjM0JL.s:21965  .debug_str:00000000000078ff .LASF794
C:\Users\CYMR90~1\AppData\Local\Temp\ccyjM0JL.s:30208  .debug_str:0000000000028753 .LASF795
C:\Users\CYMR90~1\AppData\Local\Temp\ccyjM0JL.s:28182  .debug_str:0000000000020627 .LASF796
C:\Users\CYMR90~1\AppData\Local\Temp\ccyjM0JL.s:30928  .debug_str:000000000002b2e2 .LASF797
C:\Users\CYMR90~1\AppData\Local\Temp\ccyjM0JL.s:21789  .debug_str:0000000000006d81 .LASF798
C:\Users\CYMR90~1\AppData\Local\Temp\ccyjM0JL.s:30270  .debug_str:0000000000028bb1 .LASF799
C:\Users\CYMR90~1\AppData\Local\Temp\ccyjM0JL.s:21377  .debug_str:00000000000054d7 .LASF800
C:\Users\CYMR90~1\AppData\Local\Temp\ccyjM0JL.s:26650  .debug_str:000000000001a638 .LASF801
C:\Users\CYMR90~1\AppData\Local\Temp\ccyjM0JL.s:26678  .debug_str:000000000001a7e2 .LASF802
C:\Users\CYMR90~1\AppData\Local\Temp\ccyjM0JL.s:22515  .debug_str:0000000000009c9c .LASF803
C:\Users\CYMR90~1\AppData\Local\Temp\ccyjM0JL.s:25023  .debug_str:0000000000013dd3 .LASF804
C:\Users\CYMR90~1\AppData\Local\Temp\ccyjM0JL.s:21803  .debug_str:0000000000006e48 .LASF805
C:\Users\CYMR90~1\AppData\Local\Temp\ccyjM0JL.s:24469  .debug_str:0000000000011989 .LASF806
C:\Users\CYMR90~1\AppData\Local\Temp\ccyjM0JL.s:27638  .debug_str:000000000001e511 .LASF807
C:\Users\CYMR90~1\AppData\Local\Temp\ccyjM0JL.s:27224  .debug_str:000000000001cabe .LASF808
C:\Users\CYMR90~1\AppData\Local\Temp\ccyjM0JL.s:29666  .debug_str:00000000000263f3 .LASF809
C:\Users\CYMR90~1\AppData\Local\Temp\ccyjM0JL.s:31142  .debug_str:000000000002c070 .LASF810
C:\Users\CYMR90~1\AppData\Local\Temp\ccyjM0JL.s:22199  .debug_str:00000000000088d1 .LASF811
C:\Users\CYMR90~1\AppData\Local\Temp\ccyjM0JL.s:21103  .debug_str:0000000000004342 .LASF812
C:\Users\CYMR90~1\AppData\Local\Temp\ccyjM0JL.s:31176  .debug_str:000000000002c324 .LASF813
C:\Users\CYMR90~1\AppData\Local\Temp\ccyjM0JL.s:21475  .debug_str:0000000000005aa7 .LASF814
C:\Users\CYMR90~1\AppData\Local\Temp\ccyjM0JL.s:21697  .debug_str:00000000000067aa .LASF815
C:\Users\CYMR90~1\AppData\Local\Temp\ccyjM0JL.s:26992  .debug_str:000000000001bbf6 .LASF816
C:\Users\CYMR90~1\AppData\Local\Temp\ccyjM0JL.s:22381  .debug_str:00000000000093fc .LASF817
C:\Users\CYMR90~1\AppData\Local\Temp\ccyjM0JL.s:27136  .debug_str:000000000001c509 .LASF818
C:\Users\CYMR90~1\AppData\Local\Temp\ccyjM0JL.s:27028  .debug_str:000000000001be24 .LASF819
C:\Users\CYMR90~1\AppData\Local\Temp\ccyjM0JL.s:20217  .debug_str:0000000000000b2f .LASF820
C:\Users\CYMR90~1\AppData\Local\Temp\ccyjM0JL.s:30758  .debug_str:000000000002a8a5 .LASF821
C:\Users\CYMR90~1\AppData\Local\Temp\ccyjM0JL.s:29256  .debug_str:00000000000247f6 .LASF822
C:\Users\CYMR90~1\AppData\Local\Temp\ccyjM0JL.s:22345  .debug_str:00000000000091c1 .LASF823
C:\Users\CYMR90~1\AppData\Local\Temp\ccyjM0JL.s:25693  .debug_str:00000000000166a4 .LASF824
C:\Users\CYMR90~1\AppData\Local\Temp\ccyjM0JL.s:27326  .debug_str:000000000001d24c .LASF825
C:\Users\CYMR90~1\AppData\Local\Temp\ccyjM0JL.s:25483  .debug_str:0000000000015930 .LASF826
C:\Users\CYMR90~1\AppData\Local\Temp\ccyjM0JL.s:20995  .debug_str:0000000000003bf1 .LASF827
C:\Users\CYMR90~1\AppData\Local\Temp\ccyjM0JL.s:23787  .debug_str:000000000000ee87 .LASF828
C:\Users\CYMR90~1\AppData\Local\Temp\ccyjM0JL.s:29366  .debug_str:0000000000024f17 .LASF829
C:\Users\CYMR90~1\AppData\Local\Temp\ccyjM0JL.s:29538  .debug_str:0000000000025bff .LASF830
C:\Users\CYMR90~1\AppData\Local\Temp\ccyjM0JL.s:22959  .debug_str:000000000000ba08 .LASF831
C:\Users\CYMR90~1\AppData\Local\Temp\ccyjM0JL.s:23733  .debug_str:000000000000eba0 .LASF832
C:\Users\CYMR90~1\AppData\Local\Temp\ccyjM0JL.s:21561  .debug_str:0000000000005f79 .LASF833
C:\Users\CYMR90~1\AppData\Local\Temp\ccyjM0JL.s:26588  .debug_str:000000000001a11b .LASF834
C:\Users\CYMR90~1\AppData\Local\Temp\ccyjM0JL.s:26174  .debug_str:00000000000185a9 .LASF835
C:\Users\CYMR90~1\AppData\Local\Temp\ccyjM0JL.s:24275  .debug_str:0000000000010d4e .LASF836
C:\Users\CYMR90~1\AppData\Local\Temp\ccyjM0JL.s:28086  .debug_str:000000000002009e .LASF837
C:\Users\CYMR90~1\AppData\Local\Temp\ccyjM0JL.s:22249  .debug_str:0000000000008c2f .LASF838
C:\Users\CYMR90~1\AppData\Local\Temp\ccyjM0JL.s:21399  .debug_str:0000000000005647 .LASF839
C:\Users\CYMR90~1\AppData\Local\Temp\ccyjM0JL.s:24173  .debug_str:000000000001063a .LASF840
C:\Users\CYMR90~1\AppData\Local\Temp\ccyjM0JL.s:23097  .debug_str:000000000000c348 .LASF841
C:\Users\CYMR90~1\AppData\Local\Temp\ccyjM0JL.s:27240  .debug_str:000000000001cbc8 .LASF842
C:\Users\CYMR90~1\AppData\Local\Temp\ccyjM0JL.s:20293  .debug_str:000000000000103c .LASF843
C:\Users\CYMR90~1\AppData\Local\Temp\ccyjM0JL.s:20653  .debug_str:00000000000025d1 .LASF844
C:\Users\CYMR90~1\AppData\Local\Temp\ccyjM0JL.s:29110  .debug_str:0000000000023e0c .LASF845
C:\Users\CYMR90~1\AppData\Local\Temp\ccyjM0JL.s:20039  .debug_str:0000000000000096 .LASF846
C:\Users\CYMR90~1\AppData\Local\Temp\ccyjM0JL.s:22043  .debug_str:0000000000007eaf .LASF847
C:\Users\CYMR90~1\AppData\Local\Temp\ccyjM0JL.s:27938  .debug_str:000000000001f76d .LASF848
C:\Users\CYMR90~1\AppData\Local\Temp\ccyjM0JL.s:22011  .debug_str:0000000000007c0b .LASF849
C:\Users\CYMR90~1\AppData\Local\Temp\ccyjM0JL.s:23397  .debug_str:000000000000d728 .LASF852
C:\Users\CYMR90~1\AppData\Local\Temp\ccyjM0JL.s:28892  .debug_str:0000000000023159 .LASF853
C:\Users\CYMR90~1\AppData\Local\Temp\ccyjM0JL.s:25335  .debug_str:00000000000150f8 .LASF854
C:\Users\CYMR90~1\AppData\Local\Temp\ccyjM0JL.s:28602  .debug_str:000000000002203f .LASF856
C:\Users\CYMR90~1\AppData\Local\Temp\ccyjM0JL.s:27464  .debug_str:000000000001daec .LASF857
C:\Users\CYMR90~1\AppData\Local\Temp\ccyjM0JL.s:30140  .debug_str:000000000002821f .LASF858
C:\Users\CYMR90~1\AppData\Local\Temp\ccyjM0JL.s:23383  .debug_str:000000000000d637 .LASF859
C:\Users\CYMR90~1\AppData\Local\Temp\ccyjM0JL.s:25281  .debug_str:0000000000014d66 .LASF860
C:\Users\CYMR90~1\AppData\Local\Temp\ccyjM0JL.s:28530  .debug_str:0000000000021bab .LASF861
C:\Users\CYMR90~1\AppData\Local\Temp\ccyjM0JL.s:27674  .debug_str:000000000001e77c .LASF862
C:\Users\CYMR90~1\AppData\Local\Temp\ccyjM0JL.s:20391  .debug_str:00000000000015d5 .LASF863
C:\Users\CYMR90~1\AppData\Local\Temp\ccyjM0JL.s:21049  .debug_str:0000000000003f39 .LASF864
C:\Users\CYMR90~1\AppData\Local\Temp\ccyjM0JL.s:21447  .debug_str:0000000000005919 .LASF865
C:\Users\CYMR90~1\AppData\Local\Temp\ccyjM0JL.s:22647  .debug_str:000000000000a4e2 .LASF866
C:\Users\CYMR90~1\AppData\Local\Temp\ccyjM0JL.s:22115  .debug_str:00000000000083ca .LASF867
C:\Users\CYMR90~1\AppData\Local\Temp\ccyjM0JL.s:27392  .debug_str:000000000001d63b .LASF868
C:\Users\CYMR90~1\AppData\Local\Temp\ccyjM0JL.s:28024  .debug_str:000000000001fcad .LASF869
C:\Users\CYMR90~1\AppData\Local\Temp\ccyjM0JL.s:29124  .debug_str:0000000000023ed0 .LASF870
C:\Users\CYMR90~1\AppData\Local\Temp\ccyjM0JL.s:22285  .debug_str:0000000000008ea4 .LASF871
C:\Users\CYMR90~1\AppData\Local\Temp\ccyjM0JL.s:22721  .debug_str:000000000000aa33 .LASF872
C:\Users\CYMR90~1\AppData\Local\Temp\ccyjM0JL.s:27232  .debug_str:000000000001cb56 .LASF873
C:\Users\CYMR90~1\AppData\Local\Temp\ccyjM0JL.s:29840  .debug_str:0000000000026e8d .LASF874
C:\Users\CYMR90~1\AppData\Local\Temp\ccyjM0JL.s:24537  .debug_str:0000000000011e0b .LASF875
C:\Users\CYMR90~1\AppData\Local\Temp\ccyjM0JL.s:25235  .debug_str:0000000000014af1 .LASF876
C:\Users\CYMR90~1\AppData\Local\Temp\ccyjM0JL.s:22521  .debug_str:0000000000009cf1 .LASF877
C:\Users\CYMR90~1\AppData\Local\Temp\ccyjM0JL.s:26930  .debug_str:000000000001b862 .LASF878
C:\Users\CYMR90~1\AppData\Local\Temp\ccyjM0JL.s:30610  .debug_str:0000000000029ffa .LASF879
C:\Users\CYMR90~1\AppData\Local\Temp\ccyjM0JL.s:25880  .debug_str:0000000000017453 .LASF880
C:\Users\CYMR90~1\AppData\Local\Temp\ccyjM0JL.s:21379  .debug_str:00000000000054f0 .LASF881
C:\Users\CYMR90~1\AppData\Local\Temp\ccyjM0JL.s:24763  .debug_str:0000000000012d62 .LASF882
C:\Users\CYMR90~1\AppData\Local\Temp\ccyjM0JL.s:27908  .debug_str:000000000001f5df .LASF883
C:\Users\CYMR90~1\AppData\Local\Temp\ccyjM0JL.s:24373  .debug_str:0000000000011324 .LASF884
C:\Users\CYMR90~1\AppData\Local\Temp\ccyjM0JL.s:23681  .debug_str:000000000000e86b .LASF885
C:\Users\CYMR90~1\AppData\Local\Temp\ccyjM0JL.s:26936  .debug_str:000000000001b8ba .LASF886
C:\Users\CYMR90~1\AppData\Local\Temp\ccyjM0JL.s:22393  .debug_str:00000000000094a3 .LASF887
C:\Users\CYMR90~1\AppData\Local\Temp\ccyjM0JL.s:29076  .debug_str:0000000000023c47 .LASF888
C:\Users\CYMR90~1\AppData\Local\Temp\ccyjM0JL.s:24699  .debug_str:0000000000012921 .LASF889
C:\Users\CYMR90~1\AppData\Local\Temp\ccyjM0JL.s:29010  .debug_str:000000000002380f .LASF890
C:\Users\CYMR90~1\AppData\Local\Temp\ccyjM0JL.s:21203  .debug_str:0000000000004a57 .LASF891
C:\Users\CYMR90~1\AppData\Local\Temp\ccyjM0JL.s:23683  .debug_str:000000000000e885 .LASF892
C:\Users\CYMR90~1\AppData\Local\Temp\ccyjM0JL.s:29782  .debug_str:0000000000026b26 .LASF893
C:\Users\CYMR90~1\AppData\Local\Temp\ccyjM0JL.s:29168  .debug_str:0000000000024159 .LASF894
C:\Users\CYMR90~1\AppData\Local\Temp\ccyjM0JL.s:20363  .debug_str:0000000000001424 .LASF895
C:\Users\CYMR90~1\AppData\Local\Temp\ccyjM0JL.s:25085  .debug_str:0000000000014180 .LASF896
C:\Users\CYMR90~1\AppData\Local\Temp\ccyjM0JL.s:21291  .debug_str:0000000000004fa3 .LASF897
C:\Users\CYMR90~1\AppData\Local\Temp\ccyjM0JL.s:22511  .debug_str:0000000000009c5d .LASF898
C:\Users\CYMR90~1\AppData\Local\Temp\ccyjM0JL.s:30080  .debug_str:0000000000027e2d .LASF899
C:\Users\CYMR90~1\AppData\Local\Temp\ccyjM0JL.s:22837  .debug_str:000000000000b23c .LASF900
C:\Users\CYMR90~1\AppData\Local\Temp\ccyjM0JL.s:26984  .debug_str:000000000001bb6e .LASF901
C:\Users\CYMR90~1\AppData\Local\Temp\ccyjM0JL.s:30624  .debug_str:000000000002a0ca .LASF902
C:\Users\CYMR90~1\AppData\Local\Temp\ccyjM0JL.s:29364  .debug_str:0000000000024ef1 .LASF903
C:\Users\CYMR90~1\AppData\Local\Temp\ccyjM0JL.s:30230  .debug_str:00000000000288be .LASF904
C:\Users\CYMR90~1\AppData\Local\Temp\ccyjM0JL.s:24747  .debug_str:0000000000012c54 .LASF905
C:\Users\CYMR90~1\AppData\Local\Temp\ccyjM0JL.s:22163  .debug_str:00000000000086c3 .LASF906
C:\Users\CYMR90~1\AppData\Local\Temp\ccyjM0JL.s:27322  .debug_str:000000000001d206 .LASF907
C:\Users\CYMR90~1\AppData\Local\Temp\ccyjM0JL.s:23677  .debug_str:000000000000e828 .LASF908
C:\Users\CYMR90~1\AppData\Local\Temp\ccyjM0JL.s:30054  .debug_str:0000000000027c35 .LASF909
C:\Users\CYMR90~1\AppData\Local\Temp\ccyjM0JL.s:24295  .debug_str:0000000000010ed2 .LASF910
C:\Users\CYMR90~1\AppData\Local\Temp\ccyjM0JL.s:20747  .debug_str:0000000000002c21 .LASF911
C:\Users\CYMR90~1\AppData\Local\Temp\ccyjM0JL.s:20333  .debug_str:0000000000001272 .LASF912
C:\Users\CYMR90~1\AppData\Local\Temp\ccyjM0JL.s:28446  .debug_str:0000000000021686 .LASF913
C:\Users\CYMR90~1\AppData\Local\Temp\ccyjM0JL.s:29346  .debug_str:0000000000024dc1 .LASF914
C:\Users\CYMR90~1\AppData\Local\Temp\ccyjM0JL.s:23227  .debug_str:000000000000cbe1 .LASF915
C:\Users\CYMR90~1\AppData\Local\Temp\ccyjM0JL.s:23541  .debug_str:000000000000dfb8 .LASF916
C:\Users\CYMR90~1\AppData\Local\Temp\ccyjM0JL.s:24103  .debug_str:0000000000010227 .LASF917
C:\Users\CYMR90~1\AppData\Local\Temp\ccyjM0JL.s:30874  .debug_str:000000000002af96 .LASF918
C:\Users\CYMR90~1\AppData\Local\Temp\ccyjM0JL.s:20319  .debug_str:0000000000001193 .LASF919
C:\Users\CYMR90~1\AppData\Local\Temp\ccyjM0JL.s:22823  .debug_str:000000000000b151 .LASF920
C:\Users\CYMR90~1\AppData\Local\Temp\ccyjM0JL.s:29296  .debug_str:0000000000024a4f .LASF921
C:\Users\CYMR90~1\AppData\Local\Temp\ccyjM0JL.s:26672  .debug_str:000000000001a770 .LASF922
C:\Users\CYMR90~1\AppData\Local\Temp\ccyjM0JL.s:29820  .debug_str:0000000000026d5e .LASF923
C:\Users\CYMR90~1\AppData\Local\Temp\ccyjM0JL.s:25810  .debug_str:0000000000017042 .LASF924
C:\Users\CYMR90~1\AppData\Local\Temp\ccyjM0JL.s:20707  .debug_str:000000000000297c .LASF925
C:\Users\CYMR90~1\AppData\Local\Temp\ccyjM0JL.s:26890  .debug_str:000000000001b5e5 .LASF926
C:\Users\CYMR90~1\AppData\Local\Temp\ccyjM0JL.s:20431  .debug_str:00000000000018ce .LASF927
C:\Users\CYMR90~1\AppData\Local\Temp\ccyjM0JL.s:25265  .debug_str:0000000000014ca4 .LASF928
C:\Users\CYMR90~1\AppData\Local\Temp\ccyjM0JL.s:27970  .debug_str:000000000001f937 .LASF929
C:\Users\CYMR90~1\AppData\Local\Temp\ccyjM0JL.s:31140  .debug_str:000000000002c053 .LASF930
C:\Users\CYMR90~1\AppData\Local\Temp\ccyjM0JL.s:31356  .debug_str:000000000002cee7 .LASF931
C:\Users\CYMR90~1\AppData\Local\Temp\ccyjM0JL.s:27868  .debug_str:000000000001f34a .LASF932
C:\Users\CYMR90~1\AppData\Local\Temp\ccyjM0JL.s:30604  .debug_str:0000000000029f87 .LASF933
C:\Users\CYMR90~1\AppData\Local\Temp\ccyjM0JL.s:25607  .debug_str:0000000000016137 .LASF934
C:\Users\CYMR90~1\AppData\Local\Temp\ccyjM0JL.s:26446  .debug_str:00000000000197ac .LASF935
C:\Users\CYMR90~1\AppData\Local\Temp\ccyjM0JL.s:25487  .debug_str:0000000000015965 .LASF936
C:\Users\CYMR90~1\AppData\Local\Temp\ccyjM0JL.s:29434  .debug_str:00000000000253b1 .LASF937
C:\Users\CYMR90~1\AppData\Local\Temp\ccyjM0JL.s:20233  .debug_str:0000000000000c37 .LASF938
C:\Users\CYMR90~1\AppData\Local\Temp\ccyjM0JL.s:28248  .debug_str:0000000000020a71 .LASF939
C:\Users\CYMR90~1\AppData\Local\Temp\ccyjM0JL.s:29522  .debug_str:0000000000025a6e .LASF940
C:\Users\CYMR90~1\AppData\Local\Temp\ccyjM0JL.s:22961  .debug_str:000000000000ba26 .LASF941
C:\Users\CYMR90~1\AppData\Local\Temp\ccyjM0JL.s:26660  .debug_str:000000000001a6b7 .LASF942
C:\Users\CYMR90~1\AppData\Local\Temp\ccyjM0JL.s:23721  .debug_str:000000000000eaae .LASF943
C:\Users\CYMR90~1\AppData\Local\Temp\ccyjM0JL.s:29644  .debug_str:0000000000026298 .LASF944
C:\Users\CYMR90~1\AppData\Local\Temp\ccyjM0JL.s:27078  .debug_str:000000000001c1ab .LASF945
C:\Users\CYMR90~1\AppData\Local\Temp\ccyjM0JL.s:23921  .debug_str:000000000000f665 .LASF946
C:\Users\CYMR90~1\AppData\Local\Temp\ccyjM0JL.s:25962  .debug_str:00000000000178e0 .LASF947
C:\Users\CYMR90~1\AppData\Local\Temp\ccyjM0JL.s:27600  .debug_str:000000000001e31e .LASF948
C:\Users\CYMR90~1\AppData\Local\Temp\ccyjM0JL.s:24271  .debug_str:0000000000010d10 .LASF949
C:\Users\CYMR90~1\AppData\Local\Temp\ccyjM0JL.s:23287  .debug_str:000000000000cf7f .LASF950
C:\Users\CYMR90~1\AppData\Local\Temp\ccyjM0JL.s:21865  .debug_str:000000000000725f .LASF952
C:\Users\CYMR90~1\AppData\Local\Temp\ccyjM0JL.s:25411  .debug_str:0000000000015525 .LASF953
C:\Users\CYMR90~1\AppData\Local\Temp\ccyjM0JL.s:23323  .debug_str:000000000000d1e0 .LASF954
C:\Users\CYMR90~1\AppData\Local\Temp\ccyjM0JL.s:31348  .debug_str:000000000002ce72 .LASF955
C:\Users\CYMR90~1\AppData\Local\Temp\ccyjM0JL.s:30498  .debug_str:0000000000029924 .LASF956
C:\Users\CYMR90~1\AppData\Local\Temp\ccyjM0JL.s:30588  .debug_str:0000000000029ea4 .LASF960
C:\Users\CYMR90~1\AppData\Local\Temp\ccyjM0JL.s:22419  .debug_str:000000000000968f .LASF961
C:\Users\CYMR90~1\AppData\Local\Temp\ccyjM0JL.s:29848  .debug_str:0000000000026f18 .LASF962
C:\Users\CYMR90~1\AppData\Local\Temp\ccyjM0JL.s:24509  .debug_str:0000000000011c77 .LASF963
C:\Users\CYMR90~1\AppData\Local\Temp\ccyjM0JL.s:24987  .debug_str:0000000000013bc0 .LASF964
C:\Users\CYMR90~1\AppData\Local\Temp\ccyjM0JL.s:28632  .debug_str:00000000000221e9 .LASF965
C:\Users\CYMR90~1\AppData\Local\Temp\ccyjM0JL.s:26884  .debug_str:000000000001b579 .LASF966
C:\Users\CYMR90~1\AppData\Local\Temp\ccyjM0JL.s:22025  .debug_str:0000000000007ce3 .LASF967
C:\Users\CYMR90~1\AppData\Local\Temp\ccyjM0JL.s:30922  .debug_str:000000000002b274 .LASF968
C:\Users\CYMR90~1\AppData\Local\Temp\ccyjM0JL.s:21619  .debug_str:0000000000006307 .LASF969
C:\Users\CYMR90~1\AppData\Local\Temp\ccyjM0JL.s:25127  .debug_str:0000000000014466 .LASF970
C:\Users\CYMR90~1\AppData\Local\Temp\ccyjM0JL.s:31014  .debug_str:000000000002b82c .LASF971
C:\Users\CYMR90~1\AppData\Local\Temp\ccyjM0JL.s:23731  .debug_str:000000000000eb7a .LASF972
C:\Users\CYMR90~1\AppData\Local\Temp\ccyjM0JL.s:23699  .debug_str:000000000000e987 .LASF973
C:\Users\CYMR90~1\AppData\Local\Temp\ccyjM0JL.s:23347  .debug_str:000000000000d359 .LASF974
C:\Users\CYMR90~1\AppData\Local\Temp\ccyjM0JL.s:25743  .debug_str:00000000000169ae .LASF975
C:\Users\CYMR90~1\AppData\Local\Temp\ccyjM0JL.s:31380  .debug_str:000000000002d018 .LASF976
C:\Users\CYMR90~1\AppData\Local\Temp\ccyjM0JL.s:23281  .debug_str:000000000000cf14 .LASF977
C:\Users\CYMR90~1\AppData\Local\Temp\ccyjM0JL.s:31402  .debug_str:000000000002d22b .LASF978
C:\Users\CYMR90~1\AppData\Local\Temp\ccyjM0JL.s:29626  .debug_str:0000000000026171 .LASF979
C:\Users\CYMR90~1\AppData\Local\Temp\ccyjM0JL.s:29686  .debug_str:000000000002651e .LASF980
C:\Users\CYMR90~1\AppData\Local\Temp\ccyjM0JL.s:23785  .debug_str:000000000000ee6d .LASF981
C:\Users\CYMR90~1\AppData\Local\Temp\ccyjM0JL.s:30072  .debug_str:0000000000027d69 .LASF982
C:\Users\CYMR90~1\AppData\Local\Temp\ccyjM0JL.s:24533  .debug_str:0000000000011dee .LASF983
C:\Users\CYMR90~1\AppData\Local\Temp\ccyjM0JL.s:22289  .debug_str:0000000000008ec4 .LASF984
C:\Users\CYMR90~1\AppData\Local\Temp\ccyjM0JL.s:27318  .debug_str:000000000001d13f .LASF985
C:\Users\CYMR90~1\AppData\Local\Temp\ccyjM0JL.s:28924  .debug_str:0000000000023333 .LASF986
C:\Users\CYMR90~1\AppData\Local\Temp\ccyjM0JL.s:25553  .debug_str:0000000000015d69 .LASF987
C:\Users\CYMR90~1\AppData\Local\Temp\ccyjM0JL.s:20765  .debug_str:0000000000002d34 .LASF988
C:\Users\CYMR90~1\AppData\Local\Temp\ccyjM0JL.s:28836  .debug_str:0000000000022e48 .LASF989
C:\Users\CYMR90~1\AppData\Local\Temp\ccyjM0JL.s:26266  .debug_str:0000000000018b42 .LASF990
C:\Users\CYMR90~1\AppData\Local\Temp\ccyjM0JL.s:23277  .debug_str:000000000000ceec .LASF991
C:\Users\CYMR90~1\AppData\Local\Temp\ccyjM0JL.s:29792  .debug_str:0000000000026bc2 .LASF992
C:\Users\CYMR90~1\AppData\Local\Temp\ccyjM0JL.s:21911  .debug_str:0000000000007578 .LASF993
C:\Users\CYMR90~1\AppData\Local\Temp\ccyjM0JL.s:29606  .debug_str:0000000000025ff9 .LASF994
C:\Users\CYMR90~1\AppData\Local\Temp\ccyjM0JL.s:26348  .debug_str:00000000000191e1 .LASF995
C:\Users\CYMR90~1\AppData\Local\Temp\ccyjM0JL.s:30404  .debug_str:00000000000293ad .LASF996
C:\Users\CYMR90~1\AppData\Local\Temp\ccyjM0JL.s:27506  .debug_str:000000000001dd49 .LASF997
C:\Users\CYMR90~1\AppData\Local\Temp\ccyjM0JL.s:27580  .debug_str:000000000001e1dc .LASF998
C:\Users\CYMR90~1\AppData\Local\Temp\ccyjM0JL.s:20665  .debug_str:000000000000266f .LASF999
C:\Users\CYMR90~1\AppData\Local\Temp\ccyjM0JL.s:21001  .debug_str:0000000000003c49 .LASF1000
C:\Users\CYMR90~1\AppData\Local\Temp\ccyjM0JL.s:29272  .debug_str:00000000000248e4 .LASF1001
C:\Users\CYMR90~1\AppData\Local\Temp\ccyjM0JL.s:24111  .debug_str:00000000000102ce .LASF1002
C:\Users\CYMR90~1\AppData\Local\Temp\ccyjM0JL.s:21283  .debug_str:0000000000004f4a .LASF1003
C:\Users\CYMR90~1\AppData\Local\Temp\ccyjM0JL.s:27120  .debug_str:000000000001c422 .LASF1004
C:\Users\CYMR90~1\AppData\Local\Temp\ccyjM0JL.s:24487  .debug_str:0000000000011ab1 .LASF1005
C:\Users\CYMR90~1\AppData\Local\Temp\ccyjM0JL.s:23243  .debug_str:000000000000cd04 .LASF1006
C:\Users\CYMR90~1\AppData\Local\Temp\ccyjM0JL.s:21593  .debug_str:0000000000006170 .LASF1007
C:\Users\CYMR90~1\AppData\Local\Temp\ccyjM0JL.s:28628  .debug_str:00000000000221b1 .LASF1008
C:\Users\CYMR90~1\AppData\Local\Temp\ccyjM0JL.s:26040  .debug_str:0000000000017dbf .LASF1009
C:\Users\CYMR90~1\AppData\Local\Temp\ccyjM0JL.s:26198  .debug_str:00000000000186fc .LASF1010
C:\Users\CYMR90~1\AppData\Local\Temp\ccyjM0JL.s:23557  .debug_str:000000000000e0c7 .LASF1011
C:\Users\CYMR90~1\AppData\Local\Temp\ccyjM0JL.s:27362  .debug_str:000000000001d47a .LASF1012
C:\Users\CYMR90~1\AppData\Local\Temp\ccyjM0JL.s:23747  .debug_str:000000000000ec6d .LASF1013
C:\Users\CYMR90~1\AppData\Local\Temp\ccyjM0JL.s:26464  .debug_str:0000000000019930 .LASF1014
C:\Users\CYMR90~1\AppData\Local\Temp\ccyjM0JL.s:20999  .debug_str:0000000000003c33 .LASF1015
C:\Users\CYMR90~1\AppData\Local\Temp\ccyjM0JL.s:21483  .debug_str:0000000000005b04 .LASF1016
C:\Users\CYMR90~1\AppData\Local\Temp\ccyjM0JL.s:21435  .debug_str:000000000000585c .LASF1017
C:\Users\CYMR90~1\AppData\Local\Temp\ccyjM0JL.s:29944  .debug_str:000000000002751d .LASF1018
C:\Users\CYMR90~1\AppData\Local\Temp\ccyjM0JL.s:23795  .debug_str:000000000000eeef .LASF1019
C:\Users\CYMR90~1\AppData\Local\Temp\ccyjM0JL.s:20659  .debug_str:0000000000002626 .LASF1020
C:\Users\CYMR90~1\AppData\Local\Temp\ccyjM0JL.s:26078  .debug_str:000000000001800f .LASF1021
C:\Users\CYMR90~1\AppData\Local\Temp\ccyjM0JL.s:23095  .debug_str:000000000000c330 .LASF1022
C:\Users\CYMR90~1\AppData\Local\Temp\ccyjM0JL.s:29868  .debug_str:0000000000027033 .LASF1023
C:\Users\CYMR90~1\AppData\Local\Temp\ccyjM0JL.s:22327  .debug_str:00000000000090ef .LASF1024
C:\Users\CYMR90~1\AppData\Local\Temp\ccyjM0JL.s:24813  .debug_str:0000000000013092 .LASF1025
C:\Users\CYMR90~1\AppData\Local\Temp\ccyjM0JL.s:24299  .debug_str:0000000000010f13 .LASF1026
C:\Users\CYMR90~1\AppData\Local\Temp\ccyjM0JL.s:25257  .debug_str:0000000000014bf0 .LASF1027
C:\Users\CYMR90~1\AppData\Local\Temp\ccyjM0JL.s:27442  .debug_str:000000000001d965 .LASF1028
C:\Users\CYMR90~1\AppData\Local\Temp\ccyjM0JL.s:27826  .debug_str:000000000001f0a4 .LASF1029
C:\Users\CYMR90~1\AppData\Local\Temp\ccyjM0JL.s:29142  .debug_str:0000000000023fe5 .LASF1030
C:\Users\CYMR90~1\AppData\Local\Temp\ccyjM0JL.s:28202  .debug_str:00000000000207d5 .LASF1031
C:\Users\CYMR90~1\AppData\Local\Temp\ccyjM0JL.s:30500  .debug_str:000000000002998c .LASF1032
C:\Users\CYMR90~1\AppData\Local\Temp\ccyjM0JL.s:22473  .debug_str:00000000000099f9 .LASF1033
C:\Users\CYMR90~1\AppData\Local\Temp\ccyjM0JL.s:21337  .debug_str:0000000000005282 .LASF1034
C:\Users\CYMR90~1\AppData\Local\Temp\ccyjM0JL.s:26392  .debug_str:0000000000019476 .LASF1035
C:\Users\CYMR90~1\AppData\Local\Temp\ccyjM0JL.s:26652  .debug_str:000000000001a652 .LASF1036
C:\Users\CYMR90~1\AppData\Local\Temp\ccyjM0JL.s:28938  .debug_str:00000000000233d3 .LASF1037
C:\Users\CYMR90~1\AppData\Local\Temp\ccyjM0JL.s:23963  .debug_str:000000000000f9b4 .LASF1038
C:\Users\CYMR90~1\AppData\Local\Temp\ccyjM0JL.s:27550  .debug_str:000000000001e00b .LASF1039
C:\Users\CYMR90~1\AppData\Local\Temp\ccyjM0JL.s:25425  .debug_str:000000000001561d .LASF1040
C:\Users\CYMR90~1\AppData\Local\Temp\ccyjM0JL.s:23869  .debug_str:000000000000f346 .LASF1041
C:\Users\CYMR90~1\AppData\Local\Temp\ccyjM0JL.s:29676  .debug_str:0000000000026490 .LASF1042
C:\Users\CYMR90~1\AppData\Local\Temp\ccyjM0JL.s:24113  .debug_str:00000000000102e5 .LASF1043
C:\Users\CYMR90~1\AppData\Local\Temp\ccyjM0JL.s:20061  .debug_str:00000000000001d6 .LASF1044
C:\Users\CYMR90~1\AppData\Local\Temp\ccyjM0JL.s:22339  .debug_str:0000000000009170 .LASF1045
C:\Users\CYMR90~1\AppData\Local\Temp\ccyjM0JL.s:26584  .debug_str:000000000001a0dd .LASF1046
C:\Users\CYMR90~1\AppData\Local\Temp\ccyjM0JL.s:25677  .debug_str:0000000000016538 .LASF1047
C:\Users\CYMR90~1\AppData\Local\Temp\ccyjM0JL.s:28984  .debug_str:0000000000023668 .LASF1048
C:\Users\CYMR90~1\AppData\Local\Temp\ccyjM0JL.s:27794  .debug_str:000000000001ee85 .LASF1049
C:\Users\CYMR90~1\AppData\Local\Temp\ccyjM0JL.s:20843  .debug_str:000000000000323f .LASF1050
C:\Users\CYMR90~1\AppData\Local\Temp\ccyjM0JL.s:27802  .debug_str:000000000001eefd .LASF1051
C:\Users\CYMR90~1\AppData\Local\Temp\ccyjM0JL.s:28006  .debug_str:000000000001fb92 .LASF1052
C:\Users\CYMR90~1\AppData\Local\Temp\ccyjM0JL.s:22835  .debug_str:000000000000b22a .LASF1053
C:\Users\CYMR90~1\AppData\Local\Temp\ccyjM0JL.s:28880  .debug_str:00000000000230c2 .LASF1054
C:\Users\CYMR90~1\AppData\Local\Temp\ccyjM0JL.s:24789  .debug_str:0000000000012ef8 .LASF1055
C:\Users\CYMR90~1\AppData\Local\Temp\ccyjM0JL.s:23727  .debug_str:000000000000eb28 .LASF1056
C:\Users\CYMR90~1\AppData\Local\Temp\ccyjM0JL.s:30118  .debug_str:00000000000280d2 .LASF1057
C:\Users\CYMR90~1\AppData\Local\Temp\ccyjM0JL.s:30716  .debug_str:000000000002a5f6 .LASF1058
C:\Users\CYMR90~1\AppData\Local\Temp\ccyjM0JL.s:29432  .debug_str:000000000002538f .LASF1059
C:\Users\CYMR90~1\AppData\Local\Temp\ccyjM0JL.s:29014  .debug_str:0000000000023857 .LASF1060
C:\Users\CYMR90~1\AppData\Local\Temp\ccyjM0JL.s:22145  .debug_str:00000000000085c0 .LASF1061
C:\Users\CYMR90~1\AppData\Local\Temp\ccyjM0JL.s:20199  .debug_str:00000000000009da .LASF1062
C:\Users\CYMR90~1\AppData\Local\Temp\ccyjM0JL.s:25165  .debug_str:000000000001466e .LASF1063
C:\Users\CYMR90~1\AppData\Local\Temp\ccyjM0JL.s:21047  .debug_str:0000000000003f22 .LASF1064
C:\Users\CYMR90~1\AppData\Local\Temp\ccyjM0JL.s:20137  .debug_str:000000000000063c .LASF1065
C:\Users\CYMR90~1\AppData\Local\Temp\ccyjM0JL.s:31408  .debug_str:000000000002d274 .LASF1066
C:\Users\CYMR90~1\AppData\Local\Temp\ccyjM0JL.s:29274  .debug_str:00000000000248fc .LASF1067
C:\Users\CYMR90~1\AppData\Local\Temp\ccyjM0JL.s:25741  .debug_str:0000000000016994 .LASF1068
C:\Users\CYMR90~1\AppData\Local\Temp\ccyjM0JL.s:27334  .debug_str:000000000001d2bf .LASF1069
C:\Users\CYMR90~1\AppData\Local\Temp\ccyjM0JL.s:20251  .debug_str:0000000000000d29 .LASF1070
C:\Users\CYMR90~1\AppData\Local\Temp\ccyjM0JL.s:22603  .debug_str:000000000000a1f3 .LASF1071
C:\Users\CYMR90~1\AppData\Local\Temp\ccyjM0JL.s:28786  .debug_str:0000000000022ae6 .LASF1072
C:\Users\CYMR90~1\AppData\Local\Temp\ccyjM0JL.s:27300  .debug_str:000000000001d018 .LASF1073
C:\Users\CYMR90~1\AppData\Local\Temp\ccyjM0JL.s:30368  .debug_str:000000000002917d .LASF1074
C:\Users\CYMR90~1\AppData\Local\Temp\ccyjM0JL.s:25888  .debug_str:00000000000174b4 .LASF1075
C:\Users\CYMR90~1\AppData\Local\Temp\ccyjM0JL.s:20701  .debug_str:000000000000292c .LASF1076
C:\Users\CYMR90~1\AppData\Local\Temp\ccyjM0JL.s:30806  .debug_str:000000000002abc9 .LASF1077
C:\Users\CYMR90~1\AppData\Local\Temp\ccyjM0JL.s:21655  .debug_str:0000000000006540 .LASF1078
C:\Users\CYMR90~1\AppData\Local\Temp\ccyjM0JL.s:28246  .debug_str:0000000000020a5f .LASF1079
C:\Users\CYMR90~1\AppData\Local\Temp\ccyjM0JL.s:28338  .debug_str:0000000000020fc0 .LASF1080
C:\Users\CYMR90~1\AppData\Local\Temp\ccyjM0JL.s:27100  .debug_str:000000000001c302 .LASF1081
C:\Users\CYMR90~1\AppData\Local\Temp\ccyjM0JL.s:29974  .debug_str:000000000002779e .LASF1082
C:\Users\CYMR90~1\AppData\Local\Temp\ccyjM0JL.s:25367  .debug_str:00000000000152d4 .LASF1083
C:\Users\CYMR90~1\AppData\Local\Temp\ccyjM0JL.s:28470  .debug_str:000000000002180e .LASF1084
C:\Users\CYMR90~1\AppData\Local\Temp\ccyjM0JL.s:21359  .debug_str:00000000000053d3 .LASF1085
C:\Users\CYMR90~1\AppData\Local\Temp\ccyjM0JL.s:20465  .debug_str:0000000000001af2 .LASF1086
C:\Users\CYMR90~1\AppData\Local\Temp\ccyjM0JL.s:23603  .debug_str:000000000000e377 .LASF1087
C:\Users\CYMR90~1\AppData\Local\Temp\ccyjM0JL.s:29684  .debug_str:000000000002650f .LASF1088
C:\Users\CYMR90~1\AppData\Local\Temp\ccyjM0JL.s:28780  .debug_str:0000000000022a9f .LASF1089
C:\Users\CYMR90~1\AppData\Local\Temp\ccyjM0JL.s:20313  .debug_str:0000000000001137 .LASF1090
C:\Users\CYMR90~1\AppData\Local\Temp\ccyjM0JL.s:31344  .debug_str:000000000002ce1a .LASF1091
C:\Users\CYMR90~1\AppData\Local\Temp\ccyjM0JL.s:30078  .debug_str:0000000000027e15 .LASF1092
C:\Users\CYMR90~1\AppData\Local\Temp\ccyjM0JL.s:23941  .debug_str:000000000000f784 .LASF1093
C:\Users\CYMR90~1\AppData\Local\Temp\ccyjM0JL.s:29728  .debug_str:0000000000026783 .LASF1094
C:\Users\CYMR90~1\AppData\Local\Temp\ccyjM0JL.s:25441  .debug_str:00000000000156c8 .LASF1095
C:\Users\CYMR90~1\AppData\Local\Temp\ccyjM0JL.s:26908  .debug_str:000000000001b6f5 .LASF1096
C:\Users\CYMR90~1\AppData\Local\Temp\ccyjM0JL.s:27446  .debug_str:000000000001d9b7 .LASF1097
C:\Users\CYMR90~1\AppData\Local\Temp\ccyjM0JL.s:21643  .debug_str:000000000000649b .LASF1098
C:\Users\CYMR90~1\AppData\Local\Temp\ccyjM0JL.s:24809  .debug_str:000000000001302f .LASF1099
C:\Users\CYMR90~1\AppData\Local\Temp\ccyjM0JL.s:24107  .debug_str:000000000001027e .LASF1100
C:\Users\CYMR90~1\AppData\Local\Temp\ccyjM0JL.s:29058  .debug_str:0000000000023b2d .LASF1101
C:\Users\CYMR90~1\AppData\Local\Temp\ccyjM0JL.s:23293  .debug_str:000000000000cfd9 .LASF1102
C:\Users\CYMR90~1\AppData\Local\Temp\ccyjM0JL.s:28722  .debug_str:00000000000226f2 .LASF1103
C:\Users\CYMR90~1\AppData\Local\Temp\ccyjM0JL.s:30316  .debug_str:0000000000028e8f .LASF1104
C:\Users\CYMR90~1\AppData\Local\Temp\ccyjM0JL.s:28132  .debug_str:0000000000020319 .LASF1105
C:\Users\CYMR90~1\AppData\Local\Temp\ccyjM0JL.s:24991  .debug_str:0000000000013bda .LASF1106
C:\Users\CYMR90~1\AppData\Local\Temp\ccyjM0JL.s:28980  .debug_str:0000000000023632 .LASF1107
C:\Users\CYMR90~1\AppData\Local\Temp\ccyjM0JL.s:26816  .debug_str:000000000001b137 .LASF1108
C:\Users\CYMR90~1\AppData\Local\Temp\ccyjM0JL.s:21659  .debug_str:000000000000657c .LASF1109
C:\Users\CYMR90~1\AppData\Local\Temp\ccyjM0JL.s:22633  .debug_str:000000000000a3c9 .LASF1110
C:\Users\CYMR90~1\AppData\Local\Temp\ccyjM0JL.s:20529  .debug_str:0000000000001ec2 .LASF1111
C:\Users\CYMR90~1\AppData\Local\Temp\ccyjM0JL.s:21745  .debug_str:0000000000006ad7 .LASF1112
C:\Users\CYMR90~1\AppData\Local\Temp\ccyjM0JL.s:22859  .debug_str:000000000000b367 .LASF1113
C:\Users\CYMR90~1\AppData\Local\Temp\ccyjM0JL.s:21403  .debug_str:000000000000566f .LASF1114
C:\Users\CYMR90~1\AppData\Local\Temp\ccyjM0JL.s:22423  .debug_str:00000000000096ad .LASF1115
C:\Users\CYMR90~1\AppData\Local\Temp\ccyjM0JL.s:30160  .debug_str:00000000000283b1 .LASF1116
C:\Users\CYMR90~1\AppData\Local\Temp\ccyjM0JL.s:30668  .debug_str:000000000002a32a .LASF1117
C:\Users\CYMR90~1\AppData\Local\Temp\ccyjM0JL.s:20865  .debug_str:000000000000338d .LASF1118
C:\Users\CYMR90~1\AppData\Local\Temp\ccyjM0JL.s:26056  .debug_str:0000000000017ebb .LASF1119
C:\Users\CYMR90~1\AppData\Local\Temp\ccyjM0JL.s:22113  .debug_str:00000000000083ad .LASF1120
C:\Users\CYMR90~1\AppData\Local\Temp\ccyjM0JL.s:22321  .debug_str:000000000000908e .LASF1121
C:\Users\CYMR90~1\AppData\Local\Temp\ccyjM0JL.s:24921  .debug_str:00000000000137c9 .LASF1122
C:\Users\CYMR90~1\AppData\Local\Temp\ccyjM0JL.s:24559  .debug_str:0000000000011f6a .LASF1123
C:\Users\CYMR90~1\AppData\Local\Temp\ccyjM0JL.s:23581  .debug_str:000000000000e222 .LASF1124
C:\Users\CYMR90~1\AppData\Local\Temp\ccyjM0JL.s:25371  .debug_str:00000000000152fd .LASF1125
C:\Users\CYMR90~1\AppData\Local\Temp\ccyjM0JL.s:25461  .debug_str:0000000000015801 .LASF1126
C:\Users\CYMR90~1\AppData\Local\Temp\ccyjM0JL.s:28870  .debug_str:0000000000023024 .LASF1127
C:\Users\CYMR90~1\AppData\Local\Temp\ccyjM0JL.s:29972  .debug_str:0000000000027789 .LASF1128
C:\Users\CYMR90~1\AppData\Local\Temp\ccyjM0JL.s:21449  .debug_str:0000000000005926 .LASF1129
C:\Users\CYMR90~1\AppData\Local\Temp\ccyjM0JL.s:25459  .debug_str:00000000000157ec .LASF1130
C:\Users\CYMR90~1\AppData\Local\Temp\ccyjM0JL.s:30496  .debug_str:000000000002990f .LASF1131
C:\Users\CYMR90~1\AppData\Local\Temp\ccyjM0JL.s:30910  .debug_str:000000000002b1da .LASF1132
C:\Users\CYMR90~1\AppData\Local\Temp\ccyjM0JL.s:26166  .debug_str:0000000000018511 .LASF1133
C:\Users\CYMR90~1\AppData\Local\Temp\ccyjM0JL.s:29030  .debug_str:000000000002393b .LASF1134
C:\Users\CYMR90~1\AppData\Local\Temp\ccyjM0JL.s:21999  .debug_str:0000000000007b65 .LASF1135
C:\Users\CYMR90~1\AppData\Local\Temp\ccyjM0JL.s:21227  .debug_str:0000000000004bca .LASF1136
C:\Users\CYMR90~1\AppData\Local\Temp\ccyjM0JL.s:21051  .debug_str:0000000000003f44 .LASF1137
C:\Users\CYMR90~1\AppData\Local\Temp\ccyjM0JL.s:30506  .debug_str:00000000000299eb .LASF1138
C:\Users\CYMR90~1\AppData\Local\Temp\ccyjM0JL.s:27584  .debug_str:000000000001e215 .LASF1139
C:\Users\CYMR90~1\AppData\Local\Temp\ccyjM0JL.s:30492  .debug_str:00000000000298e2 .LASF1140
C:\Users\CYMR90~1\AppData\Local\Temp\ccyjM0JL.s:20109  .debug_str:00000000000004c0 .LASF1141
C:\Users\CYMR90~1\AppData\Local\Temp\ccyjM0JL.s:24593  .debug_str:0000000000012224 .LASF1142
C:\Users\CYMR90~1\AppData\Local\Temp\ccyjM0JL.s:23609  .debug_str:000000000000e3ea .LASF1143
C:\Users\CYMR90~1\AppData\Local\Temp\ccyjM0JL.s:30026  .debug_str:0000000000027a7f .LASF1144
C:\Users\CYMR90~1\AppData\Local\Temp\ccyjM0JL.s:28180  .debug_str:000000000002060d .LASF1145
C:\Users\CYMR90~1\AppData\Local\Temp\ccyjM0JL.s:23133  .debug_str:000000000000c580 .LASF1146
C:\Users\CYMR90~1\AppData\Local\Temp\ccyjM0JL.s:31340  .debug_str:000000000002cdd8 .LASF1147
C:\Users\CYMR90~1\AppData\Local\Temp\ccyjM0JL.s:25912  .debug_str:00000000000175f5 .LASF1148
C:\Users\CYMR90~1\AppData\Local\Temp\ccyjM0JL.s:26176  .debug_str:00000000000185d1 .LASF1149
C:\Users\CYMR90~1\AppData\Local\Temp\ccyjM0JL.s:26928  .debug_str:000000000001b827 .LASF1150
C:\Users\CYMR90~1\AppData\Local\Temp\ccyjM0JL.s:20531  .debug_str:0000000000001ee0 .LASF1151
C:\Users\CYMR90~1\AppData\Local\Temp\ccyjM0JL.s:27352  .debug_str:000000000001d3e5 .LASF1152
C:\Users\CYMR90~1\AppData\Local\Temp\ccyjM0JL.s:22447  .debug_str:00000000000097ec .LASF1153
C:\Users\CYMR90~1\AppData\Local\Temp\ccyjM0JL.s:28484  .debug_str:00000000000218c0 .LASF1154
C:\Users\CYMR90~1\AppData\Local\Temp\ccyjM0JL.s:31128  .debug_str:000000000002bf91 .LASF1155
C:\Users\CYMR90~1\AppData\Local\Temp\ccyjM0JL.s:21341  .debug_str:00000000000052ae .LASF1156
C:\Users\CYMR90~1\AppData\Local\Temp\ccyjM0JL.s:27544  .debug_str:000000000001df90 .LASF1157
C:\Users\CYMR90~1\AppData\Local\Temp\ccyjM0JL.s:22877  .debug_str:000000000000b457 .LASF1158
C:\Users\CYMR90~1\AppData\Local\Temp\ccyjM0JL.s:30684  .debug_str:000000000002a466 .LASF1159
C:\Users\CYMR90~1\AppData\Local\Temp\ccyjM0JL.s:20417  .debug_str:0000000000001765 .LASF1160
C:\Users\CYMR90~1\AppData\Local\Temp\ccyjM0JL.s:30768  .debug_str:000000000002a96e .LASF1161
C:\Users\CYMR90~1\AppData\Local\Temp\ccyjM0JL.s:30446  .debug_str:0000000000029631 .LASF1162
C:\Users\CYMR90~1\AppData\Local\Temp\ccyjM0JL.s:27432  .debug_str:000000000001d8e0 .LASF1163
C:\Users\CYMR90~1\AppData\Local\Temp\ccyjM0JL.s:26552  .debug_str:0000000000019ee9 .LASF1164
C:\Users\CYMR90~1\AppData\Local\Temp\ccyjM0JL.s:23429  .debug_str:000000000000d936 .LASF1165
C:\Users\CYMR90~1\AppData\Local\Temp\ccyjM0JL.s:28102  .debug_str:000000000002017a .LASF1166
C:\Users\CYMR90~1\AppData\Local\Temp\ccyjM0JL.s:24307  .debug_str:0000000000010f7c .LASF1167
C:\Users\CYMR90~1\AppData\Local\Temp\ccyjM0JL.s:22445  .debug_str:00000000000097e2 .LASF1168
C:\Users\CYMR90~1\AppData\Local\Temp\ccyjM0JL.s:25403  .debug_str:00000000000154c6 .LASF1169
C:\Users\CYMR90~1\AppData\Local\Temp\ccyjM0JL.s:26760  .debug_str:000000000001ad56 .LASF1170
C:\Users\CYMR90~1\AppData\Local\Temp\ccyjM0JL.s:26466  .debug_str:0000000000019947 .LASF1171
C:\Users\CYMR90~1\AppData\Local\Temp\ccyjM0JL.s:30710  .debug_str:000000000002a5c4 .LASF1172
C:\Users\CYMR90~1\AppData\Local\Temp\ccyjM0JL.s:25687  .debug_str:00000000000165c1 .LASF1173
C:\Users\CYMR90~1\AppData\Local\Temp\ccyjM0JL.s:20231  .debug_str:0000000000000c29 .LASF1174
C:\Users\CYMR90~1\AppData\Local\Temp\ccyjM0JL.s:20639  .debug_str:00000000000024dd .LASF1175
C:\Users\CYMR90~1\AppData\Local\Temp\ccyjM0JL.s:24893  .debug_str:0000000000013617 .LASF1176
C:\Users\CYMR90~1\AppData\Local\Temp\ccyjM0JL.s:23239  .debug_str:000000000000ccd4 .LASF1177
C:\Users\CYMR90~1\AppData\Local\Temp\ccyjM0JL.s:27492  .debug_str:000000000001dc9a .LASF1178
C:\Users\CYMR90~1\AppData\Local\Temp\ccyjM0JL.s:23837  .debug_str:000000000000f13a .LASF1179
C:\Users\CYMR90~1\AppData\Local\Temp\ccyjM0JL.s:23415  .debug_str:000000000000d87e .LASF1180
C:\Users\CYMR90~1\AppData\Local\Temp\ccyjM0JL.s:29234  .debug_str:0000000000024696 .LASF1181
C:\Users\CYMR90~1\AppData\Local\Temp\ccyjM0JL.s:30452  .debug_str:000000000002967c .LASF1182
C:\Users\CYMR90~1\AppData\Local\Temp\ccyjM0JL.s:20805  .debug_str:0000000000002fbd .LASF1183
C:\Users\CYMR90~1\AppData\Local\Temp\ccyjM0JL.s:27814  .debug_str:000000000001efb8 .LASF1184
C:\Users\CYMR90~1\AppData\Local\Temp\ccyjM0JL.s:28278  .debug_str:0000000000020bfd .LASF1185
C:\Users\CYMR90~1\AppData\Local\Temp\ccyjM0JL.s:29474  .debug_str:00000000000256f3 .LASF1186
C:\Users\CYMR90~1\AppData\Local\Temp\ccyjM0JL.s:20533  .debug_str:0000000000001ef9 .LASF1187
C:\Users\CYMR90~1\AppData\Local\Temp\ccyjM0JL.s:21459  .debug_str:00000000000059a4 .LASF1188
C:\Users\CYMR90~1\AppData\Local\Temp\ccyjM0JL.s:28834  .debug_str:0000000000022e34 .LASF1189
C:\Users\CYMR90~1\AppData\Local\Temp\ccyjM0JL.s:22003  .debug_str:0000000000007b96 .LASF1190
C:\Users\CYMR90~1\AppData\Local\Temp\ccyjM0JL.s:28816  .debug_str:0000000000022cbd .LASF1191
C:\Users\CYMR90~1\AppData\Local\Temp\ccyjM0JL.s:23213  .debug_str:000000000000cafd .LASF1192
C:\Users\CYMR90~1\AppData\Local\Temp\ccyjM0JL.s:28472  .debug_str:0000000000021820 .LASF1193
C:\Users\CYMR90~1\AppData\Local\Temp\ccyjM0JL.s:23461  .debug_str:000000000000daf9 .LASF1194
C:\Users\CYMR90~1\AppData\Local\Temp\ccyjM0JL.s:27026  .debug_str:000000000001be19 .LASF1195
C:\Users\CYMR90~1\AppData\Local\Temp\ccyjM0JL.s:25041  .debug_str:0000000000013ee7 .LASF1196
C:\Users\CYMR90~1\AppData\Local\Temp\ccyjM0JL.s:28508  .debug_str:0000000000021a8d .LASF1197
C:\Users\CYMR90~1\AppData\Local\Temp\ccyjM0JL.s:30708  .debug_str:000000000002a5b5 .LASF1198
C:\Users\CYMR90~1\AppData\Local\Temp\ccyjM0JL.s:25711  .debug_str:00000000000167b7 .LASF1199
C:\Users\CYMR90~1\AppData\Local\Temp\ccyjM0JL.s:30714  .debug_str:000000000002a5eb .LASF1200
C:\Users\CYMR90~1\AppData\Local\Temp\ccyjM0JL.s:22695  .debug_str:000000000000a794 .LASF1201
C:\Users\CYMR90~1\AppData\Local\Temp\ccyjM0JL.s:22357  .debug_str:000000000000929d .LASF1202
C:\Users\CYMR90~1\AppData\Local\Temp\ccyjM0JL.s:25900  .debug_str:0000000000017573 .LASF1203
C:\Users\CYMR90~1\AppData\Local\Temp\ccyjM0JL.s:29806  .debug_str:0000000000026c96 .LASF1204
C:\Users\CYMR90~1\AppData\Local\Temp\ccyjM0JL.s:24949  .debug_str:0000000000013988 .LASF1205
C:\Users\CYMR90~1\AppData\Local\Temp\ccyjM0JL.s:24003  .debug_str:000000000000fbe9 .LASF1206
C:\Users\CYMR90~1\AppData\Local\Temp\ccyjM0JL.s:22947  .debug_str:000000000000b96d .LASF1207
C:\Users\CYMR90~1\AppData\Local\Temp\ccyjM0JL.s:29328  .debug_str:0000000000024cbd .LASF1208
C:\Users\CYMR90~1\AppData\Local\Temp\ccyjM0JL.s:23933  .debug_str:000000000000f727 .LASF1209
C:\Users\CYMR90~1\AppData\Local\Temp\ccyjM0JL.s:21353  .debug_str:000000000000536b .LASF1210
C:\Users\CYMR90~1\AppData\Local\Temp\ccyjM0JL.s:21451  .debug_str:000000000000593c .LASF1211
C:\Users\CYMR90~1\AppData\Local\Temp\ccyjM0JL.s:22149  .debug_str:0000000000008604 .LASF1212
C:\Users\CYMR90~1\AppData\Local\Temp\ccyjM0JL.s:21739  .debug_str:0000000000006a57 .LASF1213
C:\Users\CYMR90~1\AppData\Local\Temp\ccyjM0JL.s:20649  .debug_str:0000000000002599 .LASF1214
C:\Users\CYMR90~1\AppData\Local\Temp\ccyjM0JL.s:22489  .debug_str:0000000000009b06 .LASF1215
C:\Users\CYMR90~1\AppData\Local\Temp\ccyjM0JL.s:20589  .debug_str:00000000000021e7 .LASF1216
C:\Users\CYMR90~1\AppData\Local\Temp\ccyjM0JL.s:28934  .debug_str:00000000000233a6 .LASF1217
C:\Users\CYMR90~1\AppData\Local\Temp\ccyjM0JL.s:28948  .debug_str:000000000002345a .LASF1218
C:\Users\CYMR90~1\AppData\Local\Temp\ccyjM0JL.s:29382  .debug_str:0000000000025039 .LASF1219
C:\Users\CYMR90~1\AppData\Local\Temp\ccyjM0JL.s:26912  .debug_str:000000000001b729 .LASF1220
C:\Users\CYMR90~1\AppData\Local\Temp\ccyjM0JL.s:23501  .debug_str:000000000000dd2a .LASF1221
C:\Users\CYMR90~1\AppData\Local\Temp\ccyjM0JL.s:25215  .debug_str:00000000000149c4 .LASF1222
C:\Users\CYMR90~1\AppData\Local\Temp\ccyjM0JL.s:20825  .debug_str:00000000000030ef .LASF1223
C:\Users\CYMR90~1\AppData\Local\Temp\ccyjM0JL.s:26646  .debug_str:000000000001a61c .LASF1224
C:\Users\CYMR90~1\AppData\Local\Temp\ccyjM0JL.s:29990  .debug_str:00000000000278a2 .LASF1225
C:\Users\CYMR90~1\AppData\Local\Temp\ccyjM0JL.s:22967  .debug_str:000000000000ba81 .LASF1226
C:\Users\CYMR90~1\AppData\Local\Temp\ccyjM0JL.s:21881  .debug_str:000000000000739c .LASF1227
C:\Users\CYMR90~1\AppData\Local\Temp\ccyjM0JL.s:20925  .debug_str:0000000000003769 .LASF1228
C:\Users\CYMR90~1\AppData\Local\Temp\ccyjM0JL.s:31394  .debug_str:000000000002d1af .LASF1229
C:\Users\CYMR90~1\AppData\Local\Temp\ccyjM0JL.s:30428  .debug_str:0000000000029521 .LASF1230
C:\Users\CYMR90~1\AppData\Local\Temp\ccyjM0JL.s:29442  .debug_str:000000000002542a .LASF1231
C:\Users\CYMR90~1\AppData\Local\Temp\ccyjM0JL.s:28458  .debug_str:0000000000021754 .LASF1232
C:\Users\CYMR90~1\AppData\Local\Temp\ccyjM0JL.s:28336  .debug_str:0000000000020fa9 .LASF1233
C:\Users\CYMR90~1\AppData\Local\Temp\ccyjM0JL.s:27370  .debug_str:000000000001d4dd .LASF1234
C:\Users\CYMR90~1\AppData\Local\Temp\ccyjM0JL.s:26420  .debug_str:0000000000019647 .LASF1235
C:\Users\CYMR90~1\AppData\Local\Temp\ccyjM0JL.s:24823  .debug_str:000000000001312e .LASF1236
C:\Users\CYMR90~1\AppData\Local\Temp\ccyjM0JL.s:24477  .debug_str:0000000000011a31 .LASF1237
C:\Users\CYMR90~1\AppData\Local\Temp\ccyjM0JL.s:23527  .debug_str:000000000000deb5 .LASF1238
C:\Users\CYMR90~1\AppData\Local\Temp\ccyjM0JL.s:22561  .debug_str:0000000000009f33 .LASF1239
C:\Users\CYMR90~1\AppData\Local\Temp\ccyjM0JL.s:21559  .debug_str:0000000000005f62 .LASF1240
C:\Users\CYMR90~1\AppData\Local\Temp\ccyjM0JL.s:20607  .debug_str:0000000000002300 .LASF1241
C:\Users\CYMR90~1\AppData\Local\Temp\ccyjM0JL.s:31114  .debug_str:000000000002bed3 .LASF1242
C:\Users\CYMR90~1\AppData\Local\Temp\ccyjM0JL.s:20123  .debug_str:0000000000000574 .LASF1243
C:\Users\CYMR90~1\AppData\Local\Temp\ccyjM0JL.s:30572  .debug_str:0000000000029db9 .LASF1244
C:\Users\CYMR90~1\AppData\Local\Temp\ccyjM0JL.s:29590  .debug_str:0000000000025f2f .LASF1245
C:\Users\CYMR90~1\AppData\Local\Temp\ccyjM0JL.s:28618  .debug_str:000000000002211c .LASF1246
C:\Users\CYMR90~1\AppData\Local\Temp\ccyjM0JL.s:27622  .debug_str:000000000001e443 .LASF1247
C:\Users\CYMR90~1\AppData\Local\Temp\ccyjM0JL.s:26704  .debug_str:000000000001a9dd .LASF1248
C:\Users\CYMR90~1\AppData\Local\Temp\ccyjM0JL.s:25755  .debug_str:0000000000016ab5 .LASF1249
C:\Users\CYMR90~1\AppData\Local\Temp\ccyjM0JL.s:25916  .debug_str:0000000000017645 .LASF1250
C:\Users\CYMR90~1\AppData\Local\Temp\ccyjM0JL.s:23843  .debug_str:000000000000f17f .LASF1251
C:\Users\CYMR90~1\AppData\Local\Temp\ccyjM0JL.s:26018  .debug_str:0000000000017c8f .LASF1252
C:\Users\CYMR90~1\AppData\Local\Temp\ccyjM0JL.s:23353  .debug_str:000000000000d3d3 .LASF1253
C:\Users\CYMR90~1\AppData\Local\Temp\ccyjM0JL.s:22371  .debug_str:000000000000936c .LASF1254
C:\Users\CYMR90~1\AppData\Local\Temp\ccyjM0JL.s:20377  .debug_str:0000000000001516 .LASF1255
C:\Users\CYMR90~1\AppData\Local\Temp\ccyjM0JL.s:23269  .debug_str:000000000000ce93 .LASF1256
C:\Users\CYMR90~1\AppData\Local\Temp\ccyjM0JL.s:21513  .debug_str:0000000000005d23 .LASF1257
C:\Users\CYMR90~1\AppData\Local\Temp\ccyjM0JL.s:26294  .debug_str:0000000000018dc1 .LASF1258
C:\Users\CYMR90~1\AppData\Local\Temp\ccyjM0JL.s:26296  .debug_str:0000000000018dd4 .LASF1259
C:\Users\CYMR90~1\AppData\Local\Temp\ccyjM0JL.s:28820  .debug_str:0000000000022ced .LASF1260
C:\Users\CYMR90~1\AppData\Local\Temp\ccyjM0JL.s:26906  .debug_str:000000000001b6e2 .LASF1261
C:\Users\CYMR90~1\AppData\Local\Temp\ccyjM0JL.s:24277  .debug_str:0000000000010e14 .LASF1262
C:\Users\CYMR90~1\AppData\Local\Temp\ccyjM0JL.s:21407  .debug_str:00000000000056b2 .LASF1263
C:\Users\CYMR90~1\AppData\Local\Temp\ccyjM0JL.s:23585  .debug_str:000000000000e254 .LASF1264
C:\Users\CYMR90~1\AppData\Local\Temp\ccyjM0JL.s:25779  .debug_str:0000000000016cc2 .LASF1265
C:\Users\CYMR90~1\AppData\Local\Temp\ccyjM0JL.s:23633  .debug_str:000000000000e53f .LASF1266
C:\Users\CYMR90~1\AppData\Local\Temp\ccyjM0JL.s:28846  .debug_str:0000000000022ee1 .LASF1267
C:\Users\CYMR90~1\AppData\Local\Temp\ccyjM0JL.s:29024  .debug_str:00000000000238f1 .LASF1268
C:\Users\CYMR90~1\AppData\Local\Temp\ccyjM0JL.s:24411  .debug_str:0000000000011571 .LASF1269
C:\Users\CYMR90~1\AppData\Local\Temp\ccyjM0JL.s:31164  .debug_str:000000000002c1ea .LASF1270
C:\Users\CYMR90~1\AppData\Local\Temp\ccyjM0JL.s:26020  .debug_str:0000000000017ca6 .LASF1271
C:\Users\CYMR90~1\AppData\Local\Temp\ccyjM0JL.s:30532  .debug_str:0000000000029b7c .LASF1272
C:\Users\CYMR90~1\AppData\Local\Temp\ccyjM0JL.s:20875  .debug_str:0000000000003428 .LASF1273
C:\Users\CYMR90~1\AppData\Local\Temp\ccyjM0JL.s:20189  .debug_str:000000000000094c .LASF1274
C:\Users\CYMR90~1\AppData\Local\Temp\ccyjM0JL.s:26304  .debug_str:0000000000018e57 .LASF1275
C:\Users\CYMR90~1\AppData\Local\Temp\ccyjM0JL.s:20303  .debug_str:00000000000010b3 .LASF1276
C:\Users\CYMR90~1\AppData\Local\Temp\ccyjM0JL.s:22585  .debug_str:000000000000a0cf .LASF1277
C:\Users\CYMR90~1\AppData\Local\Temp\ccyjM0JL.s:21577  .debug_str:000000000000606d .LASF1278
C:\Users\CYMR90~1\AppData\Local\Temp\ccyjM0JL.s:20637  .debug_str:00000000000024cb .LASF1279
C:\Users\CYMR90~1\AppData\Local\Temp\ccyjM0JL.s:31132  .debug_str:000000000002bfcc .LASF1280
C:\Users\CYMR90~1\AppData\Local\Temp\ccyjM0JL.s:21471  .debug_str:0000000000005a68 .LASF1281
C:\Users\CYMR90~1\AppData\Local\Temp\ccyjM0JL.s:20521  .debug_str:0000000000001e63 .LASF1282
C:\Users\CYMR90~1\AppData\Local\Temp\ccyjM0JL.s:27664  .debug_str:000000000001e6d6 .LASF1283
C:\Users\CYMR90~1\AppData\Local\Temp\ccyjM0JL.s:20259  .debug_str:0000000000000da1 .LASF1284
C:\Users\CYMR90~1\AppData\Local\Temp\ccyjM0JL.s:29048  .debug_str:0000000000023aa7 .LASF1285
C:\Users\CYMR90~1\AppData\Local\Temp\ccyjM0JL.s:28050  .debug_str:000000000001fe25 .LASF1286
C:\Users\CYMR90~1\AppData\Local\Temp\ccyjM0JL.s:27094  .debug_str:000000000001c283 .LASF1287
C:\Users\CYMR90~1\AppData\Local\Temp\ccyjM0JL.s:26128  .debug_str:0000000000018303 .LASF1288
C:\Users\CYMR90~1\AppData\Local\Temp\ccyjM0JL.s:25153  .debug_str:00000000000145e0 .LASF1289
C:\Users\CYMR90~1\AppData\Local\Temp\ccyjM0JL.s:24205  .debug_str:00000000000108ca .LASF1290
C:\Users\CYMR90~1\AppData\Local\Temp\ccyjM0JL.s:28568  .debug_str:0000000000021e08 .LASF1291
C:\Users\CYMR90~1\AppData\Local\Temp\ccyjM0JL.s:27570  .debug_str:000000000001e145 .LASF1292
C:\Users\CYMR90~1\AppData\Local\Temp\ccyjM0JL.s:26644  .debug_str:000000000001a608 .LASF1293
C:\Users\CYMR90~1\AppData\Local\Temp\ccyjM0JL.s:25641  .debug_str:000000000001634a .LASF1294
C:\Users\CYMR90~1\AppData\Local\Temp\ccyjM0JL.s:24707  .debug_str:00000000000129a5 .LASF1295
C:\Users\CYMR90~1\AppData\Local\Temp\ccyjM0JL.s:23739  .debug_str:000000000000ec05 .LASF1296
C:\Users\CYMR90~1\AppData\Local\Temp\ccyjM0JL.s:23107  .debug_str:000000000000c3ee .LASF1297
C:\Users\CYMR90~1\AppData\Local\Temp\ccyjM0JL.s:28016  .debug_str:000000000001fc04 .LASF1298
C:\Users\CYMR90~1\AppData\Local\Temp\ccyjM0JL.s:27066  .debug_str:000000000001c0db .LASF1299
C:\Users\CYMR90~1\AppData\Local\Temp\ccyjM0JL.s:26096  .debug_str:00000000000180ff .LASF1300
C:\Users\CYMR90~1\AppData\Local\Temp\ccyjM0JL.s:27038  .debug_str:000000000001beed .LASF1301
C:\Users\CYMR90~1\AppData\Local\Temp\ccyjM0JL.s:28274  .debug_str:0000000000020bda .LASF1302
C:\Users\CYMR90~1\AppData\Local\Temp\ccyjM0JL.s:25685  .debug_str:00000000000165ae .LASF1303
C:\Users\CYMR90~1\AppData\Local\Temp\ccyjM0JL.s:26562  .debug_str:0000000000019f8d .LASF1304
C:\Users\CYMR90~1\AppData\Local\Temp\ccyjM0JL.s:26534  .debug_str:0000000000019df9 .LASF1305
C:\Users\CYMR90~1\AppData\Local\Temp\ccyjM0JL.s:22263  .debug_str:0000000000008d03 .LASF1306
C:\Users\CYMR90~1\AppData\Local\Temp\ccyjM0JL.s:21257  .debug_str:0000000000004da7 .LASF1307
C:\Users\CYMR90~1\AppData\Local\Temp\ccyjM0JL.s:20315  .debug_str:0000000000001149 .LASF1308
C:\Users\CYMR90~1\AppData\Local\Temp\ccyjM0JL.s:30784  .debug_str:000000000002aa6d .LASF1309
C:\Users\CYMR90~1\AppData\Local\Temp\ccyjM0JL.s:29802  .debug_str:0000000000026c5b .LASF1310
C:\Users\CYMR90~1\AppData\Local\Temp\ccyjM0JL.s:28822  .debug_str:0000000000022cfe .LASF1311
C:\Users\CYMR90~1\AppData\Local\Temp\ccyjM0JL.s:25021  .debug_str:0000000000013dbc .LASF1312
C:\Users\CYMR90~1\AppData\Local\Temp\ccyjM0JL.s:21463  .debug_str:00000000000059f6 .LASF1313
C:\Users\CYMR90~1\AppData\Local\Temp\ccyjM0JL.s:24867  .debug_str:0000000000013405 .LASF1314
C:\Users\CYMR90~1\AppData\Local\Temp\ccyjM0JL.s:31012  .debug_str:000000000002b814 .LASF1315
C:\Users\CYMR90~1\AppData\Local\Temp\ccyjM0JL.s:29516  .debug_str:0000000000025a13 .LASF1316
C:\Users\CYMR90~1\AppData\Local\Temp\ccyjM0JL.s:29040  .debug_str:0000000000023a0b .LASF1317
C:\Users\CYMR90~1\AppData\Local\Temp\ccyjM0JL.s:28042  .debug_str:000000000001fdb8 .LASF1318
C:\Users\CYMR90~1\AppData\Local\Temp\ccyjM0JL.s:27104  .debug_str:000000000001c32d .LASF1319
C:\Users\CYMR90~1\AppData\Local\Temp\ccyjM0JL.s:26138  .debug_str:0000000000018399 .LASF1320
C:\Users\CYMR90~1\AppData\Local\Temp\ccyjM0JL.s:25163  .debug_str:0000000000014656 .LASF1321
C:\Users\CYMR90~1\AppData\Local\Temp\ccyjM0JL.s:24213  .debug_str:000000000001093b .LASF1322
C:\Users\CYMR90~1\AppData\Local\Temp\ccyjM0JL.s:24679  .debug_str:00000000000127b1 .LASF1323
C:\Users\CYMR90~1\AppData\Local\Temp\ccyjM0JL.s:23111  .debug_str:000000000000c413 .LASF1324
C:\Users\CYMR90~1\AppData\Local\Temp\ccyjM0JL.s:22747  .debug_str:000000000000abb4 .LASF1325
C:\Users\CYMR90~1\AppData\Local\Temp\ccyjM0JL.s:21747  .debug_str:0000000000006af3 .LASF1326
C:\Users\CYMR90~1\AppData\Local\Temp\ccyjM0JL.s:20783  .debug_str:0000000000002e6d .LASF1327
C:\Users\CYMR90~1\AppData\Local\Temp\ccyjM0JL.s:31282  .debug_str:000000000002ca0f .LASF1328
C:\Users\CYMR90~1\AppData\Local\Temp\ccyjM0JL.s:30344  .debug_str:0000000000029005 .LASF1329
C:\Users\CYMR90~1\AppData\Local\Temp\ccyjM0JL.s:29362  .debug_str:0000000000024ed9 .LASF1330
C:\Users\CYMR90~1\AppData\Local\Temp\ccyjM0JL.s:28376  .debug_str:00000000000211c5 .LASF1331
C:\Users\CYMR90~1\AppData\Local\Temp\ccyjM0JL.s:27402  .debug_str:000000000001d6e7 .LASF1332
C:\Users\CYMR90~1\AppData\Local\Temp\ccyjM0JL.s:27836  .debug_str:000000000001f152 .LASF1333
C:\Users\CYMR90~1\AppData\Local\Temp\ccyjM0JL.s:26920  .debug_str:000000000001b7a5 .LASF1334
C:\Users\CYMR90~1\AppData\Local\Temp\ccyjM0JL.s:25601  .debug_str:00000000000160cd .LASF1335
C:\Users\CYMR90~1\AppData\Local\Temp\ccyjM0JL.s:23265  .debug_str:000000000000ce68 .LASF1336
C:\Users\CYMR90~1\AppData\Local\Temp\ccyjM0JL.s:28058  .debug_str:000000000001fe84 .LASF1337
C:\Users\CYMR90~1\AppData\Local\Temp\ccyjM0JL.s:24557  .debug_str:0000000000011f55 .LASF1338
C:\Users\CYMR90~1\AppData\Local\Temp\ccyjM0JL.s:20421  .debug_str:000000000000179d .LASF1339
C:\Users\CYMR90~1\AppData\Local\Temp\ccyjM0JL.s:22533  .debug_str:0000000000009d9b .LASF1340
C:\Users\CYMR90~1\AppData\Local\Temp\ccyjM0JL.s:21531  .debug_str:0000000000005dfa .LASF1341
C:\Users\CYMR90~1\AppData\Local\Temp\ccyjM0JL.s:20575  .debug_str:0000000000002130 .LASF1342
C:\Users\CYMR90~1\AppData\Local\Temp\ccyjM0JL.s:31092  .debug_str:000000000002bd49 .LASF1343
C:\Users\CYMR90~1\AppData\Local\Temp\ccyjM0JL.s:30872  .debug_str:000000000002af80 .LASF1344
C:\Users\CYMR90~1\AppData\Local\Temp\ccyjM0JL.s:29884  .debug_str:0000000000027161 .LASF1345
C:\Users\CYMR90~1\AppData\Local\Temp\ccyjM0JL.s:22255  .debug_str:0000000000008c84 .LASF1346
C:\Users\CYMR90~1\AppData\Local\Temp\ccyjM0JL.s:30300  .debug_str:0000000000028da2 .LASF1347
C:\Users\CYMR90~1\AppData\Local\Temp\ccyjM0JL.s:26970  .debug_str:000000000001bae3 .LASF1348
C:\Users\CYMR90~1\AppData\Local\Temp\ccyjM0JL.s:27484  .debug_str:000000000001dc19 .LASF1349
C:\Users\CYMR90~1\AppData\Local\Temp\ccyjM0JL.s:25033  .debug_str:0000000000013e79 .LASF1350
C:\Users\CYMR90~1\AppData\Local\Temp\ccyjM0JL.s:28206  .debug_str:0000000000020805 .LASF1351
C:\Users\CYMR90~1\AppData\Local\Temp\ccyjM0JL.s:23127  .debug_str:000000000000c53f .LASF1352
C:\Users\CYMR90~1\AppData\Local\Temp\ccyjM0JL.s:20551  .debug_str:0000000000001ff0 .LASF1353
C:\Users\CYMR90~1\AppData\Local\Temp\ccyjM0JL.s:22617  .debug_str:000000000000a2d5 .LASF1354
C:\Users\CYMR90~1\AppData\Local\Temp\ccyjM0JL.s:21609  .debug_str:000000000000628b .LASF1355
C:\Users\CYMR90~1\AppData\Local\Temp\ccyjM0JL.s:20661  .debug_str:0000000000002643 .LASF1356
C:\Users\CYMR90~1\AppData\Local\Temp\ccyjM0JL.s:31160  .debug_str:000000000002c1ca .LASF1357
C:\Users\CYMR90~1\AppData\Local\Temp\ccyjM0JL.s:25123  .debug_str:000000000001443b .LASF1358
C:\Users\CYMR90~1\AppData\Local\Temp\ccyjM0JL.s:21741  .debug_str:0000000000006a9b .LASF1359
C:\Users\CYMR90~1\AppData\Local\Temp\ccyjM0JL.s:28254  .debug_str:0000000000020aa5 .LASF1360
C:\Users\CYMR90~1\AppData\Local\Temp\ccyjM0JL.s:27202  .debug_str:000000000001c8c5 .LASF1361
C:\Users\CYMR90~1\AppData\Local\Temp\ccyjM0JL.s:26236  .debug_str:0000000000018966 .LASF1362
C:\Users\CYMR90~1\AppData\Local\Temp\ccyjM0JL.s:30310  .debug_str:0000000000028e2b .LASF1363
C:\Users\CYMR90~1\AppData\Local\Temp\ccyjM0JL.s:25527  .debug_str:0000000000015bcd .LASF1364
C:\Users\CYMR90~1\AppData\Local\Temp\ccyjM0JL.s:22165  .debug_str:00000000000086dd .LASF1365
C:\Users\CYMR90~1\AppData\Local\Temp\ccyjM0JL.s:29912  .debug_str:0000000000027326 .LASF1366
C:\Users\CYMR90~1\AppData\Local\Temp\ccyjM0JL.s:29150  .debug_str:0000000000024048 .LASF1367
C:\Users\CYMR90~1\AppData\Local\Temp\ccyjM0JL.s:28144  .debug_str:00000000000203c2 .LASF1368
C:\Users\CYMR90~1\AppData\Local\Temp\ccyjM0JL.s:26396  .debug_str:00000000000194a2 .LASF1369
C:\Users\CYMR90~1\AppData\Local\Temp\ccyjM0JL.s:31052  .debug_str:000000000002ba8a .LASF1370
C:\Users\CYMR90~1\AppData\Local\Temp\ccyjM0JL.s:27414  .debug_str:000000000001d778 .LASF1371
C:\Users\CYMR90~1\AppData\Local\Temp\ccyjM0JL.s:20705  .debug_str:0000000000002969 .LASF1372
C:\Users\CYMR90~1\AppData\Local\Temp\ccyjM0JL.s:23311  .debug_str:000000000000d111 .LASF1373
C:\Users\CYMR90~1\AppData\Local\Temp\ccyjM0JL.s:26442  .debug_str:000000000001976b .LASF1374
C:\Users\CYMR90~1\AppData\Local\Temp\ccyjM0JL.s:29582  .debug_str:0000000000025ec1 .LASF1375
C:\Users\CYMR90~1\AppData\Local\Temp\ccyjM0JL.s:21285  .debug_str:0000000000004f61 .LASF1376
C:\Users\CYMR90~1\AppData\Local\Temp\ccyjM0JL.s:24461  .debug_str:000000000001189e .LASF1377
C:\Users\CYMR90~1\AppData\Local\Temp\ccyjM0JL.s:27578  .debug_str:000000000001e1c5 .LASF1378
C:\Users\CYMR90~1\AppData\Local\Temp\ccyjM0JL.s:30780  .debug_str:000000000002aa30 .LASF1379
C:\Users\CYMR90~1\AppData\Local\Temp\ccyjM0JL.s:30748  .debug_str:000000000002a825 .LASF1380
C:\Users\CYMR90~1\AppData\Local\Temp\ccyjM0JL.s:22383  .debug_str:000000000000941c .LASF1381
C:\Users\CYMR90~1\AppData\Local\Temp\ccyjM0JL.s:25497  .debug_str:0000000000015a18 .LASF1382
C:\Users\CYMR90~1\AppData\Local\Temp\ccyjM0JL.s:28664  .debug_str:00000000000223df .LASF1383
C:\Users\CYMR90~1\AppData\Local\Temp\ccyjM0JL.s:20393  .debug_str:00000000000015de .LASF1384
C:\Users\CYMR90~1\AppData\Local\Temp\ccyjM0JL.s:23569  .debug_str:000000000000e17b .LASF1385
C:\Users\CYMR90~1\AppData\Local\Temp\ccyjM0JL.s:26738  .debug_str:000000000001ac07 .LASF1386
C:\Users\CYMR90~1\AppData\Local\Temp\ccyjM0JL.s:29874  .debug_str:00000000000270a0 .LASF1387
C:\Users\CYMR90~1\AppData\Local\Temp\ccyjM0JL.s:21565  .debug_str:0000000000005fb5 .LASF1388
C:\Users\CYMR90~1\AppData\Local\Temp\ccyjM0JL.s:24663  .debug_str:00000000000126a3 .LASF1389
C:\Users\CYMR90~1\AppData\Local\Temp\ccyjM0JL.s:24009  .debug_str:000000000000fc2f .LASF1390
C:\Users\CYMR90~1\AppData\Local\Temp\ccyjM0JL.s:27048  .debug_str:000000000001bfa3 .LASF1391
C:\Users\CYMR90~1\AppData\Local\Temp\ccyjM0JL.s:30216  .debug_str:00000000000287da .LASF1392
C:\Users\CYMR90~1\AppData\Local\Temp\ccyjM0JL.s:21921  .debug_str:0000000000007618 .LASF1393
C:\Users\CYMR90~1\AppData\Local\Temp\ccyjM0JL.s:25059  .debug_str:0000000000013ff2 .LASF1394
C:\Users\CYMR90~1\AppData\Local\Temp\ccyjM0JL.s:28220  .debug_str:00000000000208e3 .LASF1395
C:\Users\CYMR90~1\AppData\Local\Temp\ccyjM0JL.s:31452  .debug_str:000000000002d518 .LASF1396
C:\Users\CYMR90~1\AppData\Local\Temp\ccyjM0JL.s:23187  .debug_str:000000000000c8ca .LASF1397
C:\Users\CYMR90~1\AppData\Local\Temp\ccyjM0JL.s:27788  .debug_str:000000000001ee30 .LASF1398
C:\Users\CYMR90~1\AppData\Local\Temp\ccyjM0JL.s:24363  .debug_str:00000000000112b8 .LASF1399
C:\Users\CYMR90~1\AppData\Local\Temp\ccyjM0JL.s:25667  .debug_str:00000000000164bf .LASF1400
C:\Users\CYMR90~1\AppData\Local\Temp\ccyjM0JL.s:20347  .debug_str:0000000000001335 .LASF1401
C:\Users\CYMR90~1\AppData\Local\Temp\ccyjM0JL.s:28124  .debug_str:00000000000202c2 .LASF1402
C:\Users\CYMR90~1\AppData\Local\Temp\ccyjM0JL.s:23005  .debug_str:000000000000bd04 .LASF1403
C:\Users\CYMR90~1\AppData\Local\Temp\ccyjM0JL.s:27886  .debug_str:000000000001f46f .LASF1404
C:\Users\CYMR90~1\AppData\Local\Temp\ccyjM0JL.s:21063  .debug_str:0000000000004071 .LASF1405
C:\Users\CYMR90~1\AppData\Local\Temp\ccyjM0JL.s:22737  .debug_str:000000000000ab17 .LASF1406
C:\Users\CYMR90~1\AppData\Local\Temp\ccyjM0JL.s:28868  .debug_str:000000000002300c .LASF1407
C:\Users\CYMR90~1\AppData\Local\Temp\ccyjM0JL.s:29028  .debug_str:0000000000023923 .LASF1408
C:\Users\CYMR90~1\AppData\Local\Temp\ccyjM0JL.s:20735  .debug_str:0000000000002b51 .LASF1409
C:\Users\CYMR90~1\AppData\Local\Temp\ccyjM0JL.s:23915  .debug_str:000000000000f613 .LASF1410
C:\Users\CYMR90~1\AppData\Local\Temp\ccyjM0JL.s:30444  .debug_str:0000000000029618 .LASF1411
C:\Users\CYMR90~1\AppData\Local\Temp\ccyjM0JL.s:22155  .debug_str:0000000000008659 .LASF1412
C:\Users\CYMR90~1\AppData\Local\Temp\ccyjM0JL.s:25289  .debug_str:0000000000014de9 .LASF1413
C:\Users\CYMR90~1\AppData\Local\Temp\ccyjM0JL.s:28440  .debug_str:000000000002161f .LASF1414
C:\Users\CYMR90~1\AppData\Local\Temp\ccyjM0JL.s:20191  .debug_str:000000000000095f .LASF1415
C:\Users\CYMR90~1\AppData\Local\Temp\ccyjM0JL.s:23275  .debug_str:000000000000ced3 .LASF1416
C:\Users\CYMR90~1\AppData\Local\Temp\ccyjM0JL.s:26418  .debug_str:000000000001962e .LASF1417
C:\Users\CYMR90~1\AppData\Local\Temp\ccyjM0JL.s:27948  .debug_str:000000000001f80a .LASF1418
C:\Users\CYMR90~1\AppData\Local\Temp\ccyjM0JL.s:21265  .debug_str:0000000000004e11 .LASF1419
C:\Users\CYMR90~1\AppData\Local\Temp\ccyjM0JL.s:24349  .debug_str:00000000000111d9 .LASF1420
C:\Users\CYMR90~1\AppData\Local\Temp\ccyjM0JL.s:23695  .debug_str:000000000000e946 .LASF1421
C:\Users\CYMR90~1\AppData\Local\Temp\ccyjM0JL.s:26850  .debug_str:000000000001b39b .LASF1422
C:\Users\CYMR90~1\AppData\Local\Temp\ccyjM0JL.s:29988  .debug_str:0000000000027889 .LASF1423
C:\Users\CYMR90~1\AppData\Local\Temp\ccyjM0JL.s:21693  .debug_str:000000000000676d .LASF1424
C:\Users\CYMR90~1\AppData\Local\Temp\ccyjM0JL.s:24871  .debug_str:0000000000013433 .LASF1425
C:\Users\CYMR90~1\AppData\Local\Temp\ccyjM0JL.s:27878  .debug_str:000000000001f3d6 .LASF1426
C:\Users\CYMR90~1\AppData\Local\Temp\ccyjM0JL.s:31170  .debug_str:000000000002c2bd .LASF1427
C:\Users\CYMR90~1\AppData\Local\Temp\ccyjM0JL.s:22875  .debug_str:000000000000b43e .LASF1428
C:\Users\CYMR90~1\AppData\Local\Temp\ccyjM0JL.s:25996  .debug_str:0000000000017b4a .LASF1429
C:\Users\CYMR90~1\AppData\Local\Temp\ccyjM0JL.s:29160  .debug_str:00000000000240e8 .LASF1430
C:\Users\CYMR90~1\AppData\Local\Temp\ccyjM0JL.s:27888  .debug_str:000000000001f487 .LASF1431
C:\Users\CYMR90~1\AppData\Local\Temp\ccyjM0JL.s:20149  .debug_str:000000000000070b .LASF1432
C:\Users\CYMR90~1\AppData\Local\Temp\ccyjM0JL.s:29114  .debug_str:0000000000023e48 .LASF1433
C:\Users\CYMR90~1\AppData\Local\Temp\ccyjM0JL.s:28128  .debug_str:00000000000202ec .LASF1434
C:\Users\CYMR90~1\AppData\Local\Temp\ccyjM0JL.s:27166  .debug_str:000000000001c692 .LASF1435
C:\Users\CYMR90~1\AppData\Local\Temp\ccyjM0JL.s:26204  .debug_str:0000000000018772 .LASF1436
C:\Users\CYMR90~1\AppData\Local\Temp\ccyjM0JL.s:25625  .debug_str:0000000000016263 .LASF1437
C:\Users\CYMR90~1\AppData\Local\Temp\ccyjM0JL.s:30020  .debug_str:0000000000027a30 .LASF1438
C:\Users\CYMR90~1\AppData\Local\Temp\ccyjM0JL.s:29046  .debug_str:0000000000023a93 .LASF1439
C:\Users\CYMR90~1\AppData\Local\Temp\ccyjM0JL.s:28048  .debug_str:000000000001fe11 .LASF1440
C:\Users\CYMR90~1\AppData\Local\Temp\ccyjM0JL.s:31432  .debug_str:000000000002d3f5 .LASF1441
C:\Users\CYMR90~1\AppData\Local\Temp\ccyjM0JL.s:26126  .debug_str:00000000000182ef .LASF1442
C:\Users\CYMR90~1\AppData\Local\Temp\ccyjM0JL.s:25151  .debug_str:00000000000145cc .LASF1443
C:\Users\CYMR90~1\AppData\Local\Temp\ccyjM0JL.s:24203  .debug_str:00000000000108b6 .LASF1444
C:\Users\CYMR90~1\AppData\Local\Temp\ccyjM0JL.s:27494  .debug_str:000000000001dca7 .LASF1445
C:\Users\CYMR90~1\AppData\Local\Temp\ccyjM0JL.s:22273  .debug_str:0000000000008d80 .LASF1446
C:\Users\CYMR90~1\AppData\Local\Temp\ccyjM0JL.s:23827  .debug_str:000000000000f0a1 .LASF1447
C:\Users\CYMR90~1\AppData\Local\Temp\ccyjM0JL.s:29398  .debug_str:000000000002511c .LASF1448
C:\Users\CYMR90~1\AppData\Local\Temp\ccyjM0JL.s:28416  .debug_str:000000000002140f .LASF1449
C:\Users\CYMR90~1\AppData\Local\Temp\ccyjM0JL.s:27424  .debug_str:000000000001d877 .LASF1450
C:\Users\CYMR90~1\AppData\Local\Temp\ccyjM0JL.s:26488  .debug_str:0000000000019b22 .LASF1451
C:\Users\CYMR90~1\AppData\Local\Temp\ccyjM0JL.s:25495  .debug_str:0000000000015a03 .LASF1452
C:\Users\CYMR90~1\AppData\Local\Temp\ccyjM0JL.s:22873  .debug_str:000000000000b42b .LASF1453
C:\Users\CYMR90~1\AppData\Local\Temp\ccyjM0JL.s:21477  .debug_str:0000000000005abe .LASF1454
C:\Users\CYMR90~1\AppData\Local\Temp\ccyjM0JL.s:22675  .debug_str:000000000000a683 .LASF1455
C:\Users\CYMR90~1\AppData\Local\Temp\ccyjM0JL.s:27792  .debug_str:000000000001ee72 .LASF1456
C:\Users\CYMR90~1\AppData\Local\Temp\ccyjM0JL.s:29450  .debug_str:00000000000254b9 .LASF1457
C:\Users\CYMR90~1\AppData\Local\Temp\ccyjM0JL.s:21443  .debug_str:00000000000058e3 .LASF1458
C:\Users\CYMR90~1\AppData\Local\Temp\ccyjM0JL.s:27872  .debug_str:000000000001f388 .LASF1459
C:\Users\CYMR90~1\AppData\Local\Temp\ccyjM0JL.s:24683  .debug_str:00000000000127f2 .LASF1460
C:\Users\CYMR90~1\AppData\Local\Temp\ccyjM0JL.s:22783  .debug_str:000000000000ae02 .LASF1461
C:\Users\CYMR90~1\AppData\Local\Temp\ccyjM0JL.s:23969  .debug_str:000000000000f9fc .LASF1462
C:\Users\CYMR90~1\AppData\Local\Temp\ccyjM0JL.s:24467  .debug_str:0000000000011979 .LASF1463
C:\Users\CYMR90~1\AppData\Local\Temp\ccyjM0JL.s:25555  .debug_str:0000000000015d75 .LASF1464
C:\Users\CYMR90~1\AppData\Local\Temp\ccyjM0JL.s:30900  .debug_str:000000000002b144 .LASF1465
C:\Users\CYMR90~1\AppData\Local\Temp\ccyjM0JL.s:26750  .debug_str:000000000001accc .LASF1466
C:\Users\CYMR90~1\AppData\Local\Temp\ccyjM0JL.s:25155  .debug_str:00000000000145f3 .LASF1467
C:\Users\CYMR90~1\AppData\Local\Temp\ccyjM0JL.s:29904  .debug_str:00000000000272af .LASF1468
C:\Users\CYMR90~1\AppData\Local\Temp\ccyjM0JL.s:22663  .debug_str:000000000000a5fa .LASF1469
C:\Users\CYMR90~1\AppData\Local\Temp\ccyjM0JL.s:22229  .debug_str:0000000000008ae9 .LASF1470
C:\Users\CYMR90~1\AppData\Local\Temp\ccyjM0JL.s:24441  .debug_str:0000000000011770 .LASF1471
C:\Users\CYMR90~1\AppData\Local\Temp\ccyjM0JL.s:26022  .debug_str:0000000000017cb9 .LASF1472
C:\Users\CYMR90~1\AppData\Local\Temp\ccyjM0JL.s:29352  .debug_str:0000000000024e37 .LASF1473
C:\Users\CYMR90~1\AppData\Local\Temp\ccyjM0JL.s:29994  .debug_str:00000000000278ca .LASF1474
C:\Users\CYMR90~1\AppData\Local\Temp\ccyjM0JL.s:20241  .debug_str:0000000000000ca2 .LASF1475
C:\Users\CYMR90~1\AppData\Local\Temp\ccyjM0JL.s:22157  .debug_str:0000000000008672 .LASF1476
C:\Users\CYMR90~1\AppData\Local\Temp\ccyjM0JL.s:20761  .debug_str:0000000000002d04 .LASF1477
C:\Users\CYMR90~1\AppData\Local\Temp\ccyjM0JL.s:30180  .debug_str:0000000000028515 .LASF1478
C:\Users\CYMR90~1\AppData\Local\Temp\ccyjM0JL.s:29196  .debug_str:00000000000243a6 .LASF1479
C:\Users\CYMR90~1\AppData\Local\Temp\ccyjM0JL.s:20891  .debug_str:000000000000353e .LASF1480
C:\Users\CYMR90~1\AppData\Local\Temp\ccyjM0JL.s:23137  .debug_str:000000000000c5b1 .LASF1481
C:\Users\CYMR90~1\AppData\Local\Temp\ccyjM0JL.s:29320  .debug_str:0000000000024c54 .LASF1482
C:\Users\CYMR90~1\AppData\Local\Temp\ccyjM0JL.s:22467  .debug_str:0000000000009991 .LASF1483
C:\Users\CYMR90~1\AppData\Local\Temp\ccyjM0JL.s:21271  .debug_str:0000000000004e6a .LASF1484
C:\Users\CYMR90~1\AppData\Local\Temp\ccyjM0JL.s:23705  .debug_str:000000000000e9e0 .LASF1485
C:\Users\CYMR90~1\AppData\Local\Temp\ccyjM0JL.s:25121  .debug_str:0000000000014428 .LASF1486
C:\Users\CYMR90~1\AppData\Local\Temp\ccyjM0JL.s:26734  .debug_str:000000000001abd8 .LASF1487
C:\Users\CYMR90~1\AppData\Local\Temp\ccyjM0JL.s:20069  .debug_str:0000000000000259 .LASF1488
C:\Users\CYMR90~1\AppData\Local\Temp\ccyjM0JL.s:25513  .debug_str:0000000000015b00 .LASF1489
C:\Users\CYMR90~1\AppData\Local\Temp\ccyjM0JL.s:23507  .debug_str:000000000000dd68 .LASF1490
C:\Users\CYMR90~1\AppData\Local\Temp\ccyjM0JL.s:30408  .debug_str:00000000000293eb .LASF1491
C:\Users\CYMR90~1\AppData\Local\Temp\ccyjM0JL.s:20729  .debug_str:0000000000002aea .LASF1492
C:\Users\CYMR90~1\AppData\Local\Temp\ccyjM0JL.s:28366  .debug_str:0000000000021146 .LASF1493
C:\Users\CYMR90~1\AppData\Local\Temp\ccyjM0JL.s:30632  .debug_str:000000000002a141 .LASF1494
C:\Users\CYMR90~1\AppData\Local\Temp\ccyjM0JL.s:21905  .debug_str:0000000000007539 .LASF1495
C:\Users\CYMR90~1\AppData\Local\Temp\ccyjM0JL.s:29672  .debug_str:000000000002644e .LASF1496
C:\Users\CYMR90~1\AppData\Local\Temp\ccyjM0JL.s:30380  .debug_str:000000000002925c .LASF1497
C:\Users\CYMR90~1\AppData\Local\Temp\ccyjM0JL.s:21699  .debug_str:00000000000067c5 .LASF1498
C:\Users\CYMR90~1\AppData\Local\Temp\ccyjM0JL.s:22557  .debug_str:0000000000009efa .LASF1499
C:\Users\CYMR90~1\AppData\Local\Temp\ccyjM0JL.s:31330  .debug_str:000000000002cd2a .LASF1500
C:\Users\CYMR90~1\AppData\Local\Temp\ccyjM0JL.s:30542  .debug_str:0000000000029c09 .LASF1501
C:\Users\CYMR90~1\AppData\Local\Temp\ccyjM0JL.s:28264  .debug_str:0000000000020b5b .LASF1502
C:\Users\CYMR90~1\AppData\Local\Temp\ccyjM0JL.s:21679  .debug_str:0000000000006689 .LASF1503
C:\Users\CYMR90~1\AppData\Local\Temp\ccyjM0JL.s:30634  .debug_str:000000000002a14f .LASF1504
C:\Users\CYMR90~1\AppData\Local\Temp\ccyjM0JL.s:27634  .debug_str:000000000001e4f1 .LASF1505
C:\Users\CYMR90~1\AppData\Local\Temp\ccyjM0JL.s:26944  .debug_str:000000000001b930 .LASF1506
C:\Users\CYMR90~1\AppData\Local\Temp\ccyjM0JL.s:22933  .debug_str:000000000000b885 .LASF1507
C:\Users\CYMR90~1\AppData\Local\Temp\ccyjM0JL.s:28474  .debug_str:000000000002182b .LASF1508
C:\Users\CYMR90~1\AppData\Local\Temp\ccyjM0JL.s:24627  .debug_str:0000000000012442 .LASF1509
C:\Users\CYMR90~1\AppData\Local\Temp\ccyjM0JL.s:30284  .debug_str:0000000000028c94 .LASF1510
C:\Users\CYMR90~1\AppData\Local\Temp\ccyjM0JL.s:29060  .debug_str:0000000000023b4d .LASF1511
C:\Users\CYMR90~1\AppData\Local\Temp\ccyjM0JL.s:20931  .debug_str:00000000000037b1 .LASF1512
C:\Users\CYMR90~1\AppData\Local\Temp\ccyjM0JL.s:25577  .debug_str:0000000000015f3c .LASF1513
C:\Users\CYMR90~1\AppData\Local\Temp\ccyjM0JL.s:29476  .debug_str:0000000000025707 .LASF1514
C:\Users\CYMR90~1\AppData\Local\Temp\ccyjM0JL.s:27848  .debug_str:000000000001f23c .LASF1515
C:\Users\CYMR90~1\AppData\Local\Temp\ccyjM0JL.s:31072  .debug_str:000000000002bbd1 .LASF1516
C:\Users\CYMR90~1\AppData\Local\Temp\ccyjM0JL.s:27684  .debug_str:000000000001e7da .LASF1517
C:\Users\CYMR90~1\AppData\Local\Temp\ccyjM0JL.s:29708  .debug_str:000000000002664e .LASF1518
C:\Users\CYMR90~1\AppData\Local\Temp\ccyjM0JL.s:24617  .debug_str:00000000000123d1 .LASF1519
C:\Users\CYMR90~1\AppData\Local\Temp\ccyjM0JL.s:28074  .debug_str:000000000001ffc4 .LASF1520
C:\Users\CYMR90~1\AppData\Local\Temp\ccyjM0JL.s:27122  .debug_str:000000000001c438 .LASF1521
C:\Users\CYMR90~1\AppData\Local\Temp\ccyjM0JL.s:28406  .debug_str:0000000000021389 .LASF1522
C:\Users\CYMR90~1\AppData\Local\Temp\ccyjM0JL.s:26394  .debug_str:0000000000019486 .LASF1523
C:\Users\CYMR90~1\AppData\Local\Temp\ccyjM0JL.s:29062  .debug_str:0000000000023b63 .LASF1524
C:\Users\CYMR90~1\AppData\Local\Temp\ccyjM0JL.s:21343  .debug_str:00000000000052c5 .LASF1525
C:\Users\CYMR90~1\AppData\Local\Temp\ccyjM0JL.s:27064  .debug_str:000000000001c0c0 .LASF1526
C:\Users\CYMR90~1\AppData\Local\Temp\ccyjM0JL.s:23161  .debug_str:000000000000c72c .LASF1527
C:\Users\CYMR90~1\AppData\Local\Temp\ccyjM0JL.s:28818  .debug_str:0000000000022cd1 .LASF1528
C:\Users\CYMR90~1\AppData\Local\Temp\ccyjM0JL.s:30074  .debug_str:0000000000027d85 .LASF1529
C:\Users\CYMR90~1\AppData\Local\Temp\ccyjM0JL.s:29312  .debug_str:0000000000024b4f .LASF1530
C:\Users\CYMR90~1\AppData\Local\Temp\ccyjM0JL.s:29376  .debug_str:0000000000024fbb .LASF1531
C:\Users\CYMR90~1\AppData\Local\Temp\ccyjM0JL.s:21083  .debug_str:000000000000417d .LASF1532
C:\Users\CYMR90~1\AppData\Local\Temp\ccyjM0JL.s:26344  .debug_str:00000000000190cd .LASF1533
C:\Users\CYMR90~1\AppData\Local\Temp\ccyjM0JL.s:29188  .debug_str:000000000002425e .LASF1534
C:\Users\CYMR90~1\AppData\Local\Temp\ccyjM0JL.s:22715  .debug_str:000000000000a8fb .LASF1535
C:\Users\CYMR90~1\AppData\Local\Temp\ccyjM0JL.s:29380  .debug_str:000000000002502d .LASF1536
C:\Users\CYMR90~1\AppData\Local\Temp\ccyjM0JL.s:28720  .debug_str:00000000000226e2 .LASF1537
C:\Users\CYMR90~1\AppData\Local\Temp\ccyjM0JL.s:29950  .debug_str:000000000002757f .LASF1538
C:\Users\CYMR90~1\AppData\Local\Temp\ccyjM0JL.s:29842  .debug_str:0000000000026e96 .LASF1539
C:\Users\CYMR90~1\AppData\Local\Temp\ccyjM0JL.s:24495  .debug_str:0000000000011bad .LASF1540
C:\Users\CYMR90~1\AppData\Local\Temp\ccyjM0JL.s:30568  .debug_str:0000000000029d91 .LASF1541
C:\Users\CYMR90~1\AppData\Local\Temp\ccyjM0JL.s:23485  .debug_str:000000000000dc54 .LASF1542
C:\Users\CYMR90~1\AppData\Local\Temp\ccyjM0JL.s:30680  .debug_str:000000000002a41d .LASF1543
C:\Users\CYMR90~1\AppData\Local\Temp\ccyjM0JL.s:24051  .debug_str:000000000000fee1 .LASF1544
C:\Users\CYMR90~1\AppData\Local\Temp\ccyjM0JL.s:22091  .debug_str:0000000000008217 .LASF1545
C:\Users\CYMR90~1\AppData\Local\Temp\ccyjM0JL.s:22567  .debug_str:0000000000009f92 .LASF1546
C:\Users\CYMR90~1\AppData\Local\Temp\ccyjM0JL.s:23217  .debug_str:000000000000cb22 .LASF1547
C:\Users\CYMR90~1\AppData\Local\Temp\ccyjM0JL.s:30156  .debug_str:0000000000028333 .LASF1548
C:\Users\CYMR90~1\AppData\Local\Temp\ccyjM0JL.s:29642  .debug_str:0000000000026236 .LASF1549
C:\Users\CYMR90~1\AppData\Local\Temp\ccyjM0JL.s:27012  .debug_str:000000000001bd06 .LASF1550
C:\Users\CYMR90~1\AppData\Local\Temp\ccyjM0JL.s:24359  .debug_str:000000000001126a .LASF1551
C:\Users\CYMR90~1\AppData\Local\Temp\ccyjM0JL.s:26982  .debug_str:000000000001bb58 .LASF1552
C:\Users\CYMR90~1\AppData\Local\Temp\ccyjM0JL.s:20317  .debug_str:0000000000001160 .LASF1553
C:\Users\CYMR90~1\AppData\Local\Temp\ccyjM0JL.s:20631  .debug_str:0000000000002460 .LASF1554
C:\Users\CYMR90~1\AppData\Local\Temp\ccyjM0JL.s:27720  .debug_str:000000000001ea53 .LASF1555
C:\Users\CYMR90~1\AppData\Local\Temp\ccyjM0JL.s:26298  .debug_str:0000000000018de3 .LASF1556
C:\Users\CYMR90~1\AppData\Local\Temp\ccyjM0JL.s:23883  .debug_str:000000000000f43d .LASF1557
C:\Users\CYMR90~1\AppData\Local\Temp\ccyjM0JL.s:30662  .debug_str:000000000002a2db .LASF1558
C:\Users\CYMR90~1\AppData\Local\Temp\ccyjM0JL.s:24199  .debug_str:000000000001088a .LASF1559
C:\Users\CYMR90~1\AppData\Local\Temp\ccyjM0JL.s:29072  .debug_str:0000000000023bdc .LASF1560
C:\Users\CYMR90~1\AppData\Local\Temp\ccyjM0JL.s:29502  .debug_str:00000000000258ff .LASF1561
C:\Users\CYMR90~1\AppData\Local\Temp\ccyjM0JL.s:24311  .debug_str:0000000000010faa .LASF1562
C:\Users\CYMR90~1\AppData\Local\Temp\ccyjM0JL.s:21525  .debug_str:0000000000005daa .LASF1563
C:\Users\CYMR90~1\AppData\Local\Temp\ccyjM0JL.s:31168  .debug_str:000000000002c217 .LASF1564
C:\Users\CYMR90~1\AppData\Local\Temp\ccyjM0JL.s:21707  .debug_str:000000000000682e .LASF1565
C:\Users\CYMR90~1\AppData\Local\Temp\ccyjM0JL.s:27422  .debug_str:000000000001d7e9 .LASF1566
C:\Users\CYMR90~1\AppData\Local\Temp\ccyjM0JL.s:26686  .debug_str:000000000001a86e .LASF1567
C:\Users\CYMR90~1\AppData\Local\Temp\ccyjM0JL.s:28198  .debug_str:0000000000020730 .LASF1568
C:\Users\CYMR90~1\AppData\Local\Temp\ccyjM0JL.s:24493  .debug_str:0000000000011b06 .LASF1569
C:\Users\CYMR90~1\AppData\Local\Temp\ccyjM0JL.s:29532  .debug_str:0000000000025b2c .LASF1570
C:\Users\CYMR90~1\AppData\Local\Temp\ccyjM0JL.s:24891  .debug_str:00000000000135d7 .LASF1571
C:\Users\CYMR90~1\AppData\Local\Temp\ccyjM0JL.s:21391  .debug_str:00000000000055bb .LASF1572
C:\Users\CYMR90~1\AppData\Local\Temp\ccyjM0JL.s:25321  .debug_str:000000000001502f .LASF1573
C:\Users\CYMR90~1\AppData\Local\Temp\ccyjM0JL.s:30272  .debug_str:0000000000028bca .LASF1574
C:\Users\CYMR90~1\AppData\Local\Temp\ccyjM0JL.s:25792  .debug_str:0000000000016f1f .LASF1575
C:\Users\CYMR90~1\AppData\Local\Temp\ccyjM0JL.s:23857  .debug_str:000000000000f27b .LASF1576
C:\Users\CYMR90~1\AppData\Local\Temp\ccyjM0JL.s:26838  .debug_str:000000000001b2c0 .LASF1577
C:\Users\CYMR90~1\AppData\Local\Temp\ccyjM0JL.s:30772  .debug_str:000000000002a994 .LASF1578
C:\Users\CYMR90~1\AppData\Local\Temp\ccyjM0JL.s:20641  .debug_str:00000000000024eb .LASF1579
C:\Users\CYMR90~1\AppData\Local\Temp\ccyjM0JL.s:27268  .debug_str:000000000001cd7d .LASF1580
C:\Users\CYMR90~1\AppData\Local\Temp\ccyjM0JL.s:22681  .debug_str:000000000000a6d6 .LASF1581
C:\Users\CYMR90~1\AppData\Local\Temp\ccyjM0JL.s:21833  .debug_str:0000000000007025 .LASF1582
C:\Users\CYMR90~1\AppData\Local\Temp\ccyjM0JL.s:22079  .debug_str:00000000000080de .LASF1583
C:\Users\CYMR90~1\AppData\Local\Temp\ccyjM0JL.s:29952  .debug_str:000000000002759d .LASF1584
C:\Users\CYMR90~1\AppData\Local\Temp\ccyjM0JL.s:24587  .debug_str:0000000000012146 .LASF1585
C:\Users\CYMR90~1\AppData\Local\Temp\ccyjM0JL.s:31382  .debug_str:000000000002d02a .LASF1586
C:\Users\CYMR90~1\AppData\Local\Temp\ccyjM0JL.s:23375  .debug_str:000000000000d530 .LASF1587
C:\Users\CYMR90~1\AppData\Local\Temp\ccyjM0JL.s:22039  .debug_str:0000000000007dd6 .LASF1588
C:\Users\CYMR90~1\AppData\Local\Temp\ccyjM0JL.s:25767  .debug_str:0000000000016b70 .LASF1589
C:\Users\CYMR90~1\AppData\Local\Temp\ccyjM0JL.s:22901  .debug_str:000000000000b5d5 .LASF1590
C:\Users\CYMR90~1\AppData\Local\Temp\ccyjM0JL.s:25691  .debug_str:00000000000165f0 .LASF1591
C:\Users\CYMR90~1\AppData\Local\Temp\ccyjM0JL.s:22283  .debug_str:0000000000008dee .LASF1592
C:\Users\CYMR90~1\AppData\Local\Temp\ccyjM0JL.s:24883  .debug_str:00000000000134f2 .LASF1593
C:\Users\CYMR90~1\AppData\Local\Temp\ccyjM0JL.s:24191  .debug_str:000000000001075b .LASF1594
C:\Users\CYMR90~1\AppData\Local\Temp\ccyjM0JL.s:30188  .debug_str:0000000000028593 .LASF1595
C:\Users\CYMR90~1\AppData\Local\Temp\ccyjM0JL.s:20279  .debug_str:0000000000000ec5 .LASF1596
C:\Users\CYMR90~1\AppData\Local\Temp\ccyjM0JL.s:27294  .debug_str:000000000001cf2f .LASF1597
C:\Users\CYMR90~1\AppData\Local\Temp\ccyjM0JL.s:21201  .debug_str:00000000000049a3 .LASF1598
C:\Users\CYMR90~1\AppData\Local\Temp\ccyjM0JL.s:29452  .debug_str:00000000000254c8 .LASF1599
C:\Users\CYMR90~1\AppData\Local\Temp\ccyjM0JL.s:20425  .debug_str:00000000000017dd .LASF1600
C:\Users\CYMR90~1\AppData\Local\Temp\ccyjM0JL.s:23943  .debug_str:000000000000f79c .LASF1601
C:\Users\CYMR90~1\AppData\Local\Temp\ccyjM0JL.s:28434  .debug_str:0000000000021522 .LASF1602
C:\Users\CYMR90~1\AppData\Local\Temp\ccyjM0JL.s:27320  .debug_str:000000000001d14e .LASF1603
C:\Users\CYMR90~1\AppData\Local\Temp\ccyjM0JL.s:27214  .debug_str:000000000001c980 .LASF1604
C:\Users\CYMR90~1\AppData\Local\Temp\ccyjM0JL.s:29430  .debug_str:00000000000252e3 .LASF1605
C:\Users\CYMR90~1\AppData\Local\Temp\ccyjM0JL.s:29354  .debug_str:0000000000024e4d .LASF1606
C:\Users\CYMR90~1\AppData\Local\Temp\ccyjM0JL.s:29304  .debug_str:0000000000024ae7 .LASF1607
C:\Users\CYMR90~1\AppData\Local\Temp\ccyjM0JL.s:26242  .debug_str:00000000000189b8 .LASF1608
C:\Users\CYMR90~1\AppData\Local\Temp\ccyjM0JL.s:21179  .debug_str:0000000000004816 .LASF1609
C:\Users\CYMR90~1\AppData\Local\Temp\ccyjM0JL.s:28648  .debug_str:00000000000222e4 .LASF1610
C:\Users\CYMR90~1\AppData\Local\Temp\ccyjM0JL.s:31292  .debug_str:000000000002ca76 .LASF1611
C:\Users\CYMR90~1\AppData\Local\Temp\ccyjM0JL.s:27162  .debug_str:000000000001c656 .LASF1612
C:\Users\CYMR90~1\AppData\Local\Temp\ccyjM0JL.s:25199  .debug_str:00000000000148ea .LASF1613
C:\Users\CYMR90~1\AppData\Local\Temp\ccyjM0JL.s:22551  .debug_str:0000000000009e9c .LASF1614
C:\Users\CYMR90~1\AppData\Local\Temp\ccyjM0JL.s:26832  .debug_str:000000000001b23c .LASF1615
C:\Users\CYMR90~1\AppData\Local\Temp\ccyjM0JL.s:28532  .debug_str:0000000000021bb7 .LASF1616
C:\Users\CYMR90~1\AppData\Local\Temp\ccyjM0JL.s:25295  .debug_str:0000000000014e36 .LASF1617
C:\Users\CYMR90~1\AppData\Local\Temp\ccyjM0JL.s:27226  .debug_str:000000000001caed .LASF1618
C:\Users\CYMR90~1\AppData\Local\Temp\ccyjM0JL.s:21225  .debug_str:0000000000004bac .LASF1619
C:\Users\CYMR90~1\AppData\Local\Temp\ccyjM0JL.s:22937  .debug_str:000000000000b8b5 .LASF1620
C:\Users\CYMR90~1\AppData\Local\Temp\ccyjM0JL.s:23779  .debug_str:000000000000ee1d .LASF1621
C:\Users\CYMR90~1\AppData\Local\Temp\ccyjM0JL.s:20789  .debug_str:0000000000002ecc .LASF1622
C:\Users\CYMR90~1\AppData\Local\Temp\ccyjM0JL.s:28228  .debug_str:0000000000020947 .LASF1623
C:\Users\CYMR90~1\AppData\Local\Temp\ccyjM0JL.s:24885  .debug_str:000000000001358d .LASF1624
C:\Users\CYMR90~1\AppData\Local\Temp\ccyjM0JL.s:23039  .debug_str:000000000000bfc0 .LASF1625
C:\Users\CYMR90~1\AppData\Local\Temp\ccyjM0JL.s:28942  .debug_str:0000000000023402 .LASF1626
C:\Users\CYMR90~1\AppData\Local\Temp\ccyjM0JL.s:21703  .debug_str:0000000000006800 .LASF1627
C:\Users\CYMR90~1\AppData\Local\Temp\ccyjM0JL.s:27966  .debug_str:000000000001f917 .LASF1628
C:\Users\CYMR90~1\AppData\Local\Temp\ccyjM0JL.s:22795  .debug_str:000000000000aec4 .LASF1629
C:\Users\CYMR90~1\AppData\Local\Temp\ccyjM0JL.s:28730  .debug_str:000000000002274e .LASF1630
C:\Users\CYMR90~1\AppData\Local\Temp\ccyjM0JL.s:22265  .debug_str:0000000000008d1a .LASF1631
C:\Users\CYMR90~1\AppData\Local\Temp\ccyjM0JL.s:20383  .debug_str:0000000000001572 .LASF1632
C:\Users\CYMR90~1\AppData\Local\Temp\ccyjM0JL.s:26960  .debug_str:000000000001ba70 .LASF1633
C:\Users\CYMR90~1\AppData\Local\Temp\ccyjM0JL.s:25928  .debug_str:00000000000176fb .LASF1634
C:\Users\CYMR90~1\AppData\Local\Temp\ccyjM0JL.s:23019  .debug_str:000000000000be50 .LASF1635
C:\Users\CYMR90~1\AppData\Local\Temp\ccyjM0JL.s:23131  .debug_str:000000000000c56b .LASF1636
C:\Users\CYMR90~1\AppData\Local\Temp\ccyjM0JL.s:26802  .debug_str:000000000001b064 .LASF1637
C:\Users\CYMR90~1\AppData\Local\Temp\ccyjM0JL.s:23201  .debug_str:000000000000ca0f .LASF1638
C:\Users\CYMR90~1\AppData\Local\Temp\ccyjM0JL.s:22911  .debug_str:000000000000b6fa .LASF1639
C:\Users\CYMR90~1\AppData\Local\Temp\ccyjM0JL.s:26142  .debug_str:00000000000183ca .LASF1640
C:\Users\CYMR90~1\AppData\Local\Temp\ccyjM0JL.s:24151  .debug_str:0000000000010501 .LASF1641
C:\Users\CYMR90~1\AppData\Local\Temp\ccyjM0JL.s:29292  .debug_str:0000000000024a25 .LASF1642
C:\Users\CYMR90~1\AppData\Local\Temp\ccyjM0JL.s:24503  .debug_str:0000000000011c2f .LASF1643
C:\Users\CYMR90~1\AppData\Local\Temp\ccyjM0JL.s:28112  .debug_str:0000000000020214 .LASF1644
C:\Users\CYMR90~1\AppData\Local\Temp\ccyjM0JL.s:31258  .debug_str:000000000002c8c0 .LASF1645
C:\Users\CYMR90~1\AppData\Local\Temp\ccyjM0JL.s:20779  .debug_str:0000000000002e3c .LASF1646
C:\Users\CYMR90~1\AppData\Local\Temp\ccyjM0JL.s:25729  .debug_str:00000000000168c6 .LASF1647
C:\Users\CYMR90~1\AppData\Local\Temp\ccyjM0JL.s:25838  .debug_str:00000000000171fe .LASF1648
C:\Users\CYMR90~1\AppData\Local\Temp\ccyjM0JL.s:20579  .debug_str:0000000000002164 .LASF1649
C:\Users\CYMR90~1\AppData\Local\Temp\ccyjM0JL.s:22107  .debug_str:000000000000834e .LASF1650
C:\Users\CYMR90~1\AppData\Local\Temp\ccyjM0JL.s:28958  .debug_str:0000000000023502 .LASF1651
C:\Users\CYMR90~1\AppData\Local\Temp\ccyjM0JL.s:24247  .debug_str:0000000000010b15 .LASF1652
C:\Users\CYMR90~1\AppData\Local\Temp\ccyjM0JL.s:21997  .debug_str:0000000000007af0 .LASF1653
C:\Users\CYMR90~1\AppData\Local\Temp\ccyjM0JL.s:20321  .debug_str:00000000000011b7 .LASF1654
C:\Users\CYMR90~1\AppData\Local\Temp\ccyjM0JL.s:26036  .debug_str:0000000000017d85 .LASF1657
C:\Users\CYMR90~1\AppData\Local\Temp\ccyjM0JL.s:30822  .debug_str:000000000002acb7 .LASF1658
C:\Users\CYMR90~1\AppData\Local\Temp\ccyjM0JL.s:24279  .debug_str:0000000000010e22 .LASF1659
C:\Users\CYMR90~1\AppData\Local\Temp\ccyjM0JL.s:26368  .debug_str:000000000001932c .LASF1660
C:\Users\CYMR90~1\AppData\Local\Temp\ccyjM0JL.s:31068  .debug_str:000000000002bb92 .LASF1661
C:\Users\CYMR90~1\AppData\Local\Temp\ccyjM0JL.s:31102  .debug_str:000000000002bdf4 .LASF1662
C:\Users\CYMR90~1\AppData\Local\Temp\ccyjM0JL.s:28318  .debug_str:0000000000020ea0 .LASF1663
C:\Users\CYMR90~1\AppData\Local\Temp\ccyjM0JL.s:25253  .debug_str:0000000000014bc2 .LASF1664
C:\Users\CYMR90~1\AppData\Local\Temp\ccyjM0JL.s:27470  .debug_str:000000000001db3c .LASF1665
C:\Users\CYMR90~1\AppData\Local\Temp\ccyjM0JL.s:28408  .debug_str:00000000000213a4 .LASF1666
C:\Users\CYMR90~1\AppData\Local\Temp\ccyjM0JL.s:23981  .debug_str:000000000000fa85 .LASF1667
C:\Users\CYMR90~1\AppData\Local\Temp\ccyjM0JL.s:23689  .debug_str:000000000000e8d0 .LASF1668
C:\Users\CYMR90~1\AppData\Local\Temp\ccyjM0JL.s:21015  .debug_str:0000000000003d0c .LASF1669
C:\Users\CYMR90~1\AppData\Local\Temp\ccyjM0JL.s:22303  .debug_str:0000000000008f88 .LASF1670
C:\Users\CYMR90~1\AppData\Local\Temp\ccyjM0JL.s:21239  .debug_str:0000000000004c8a .LASF1671
C:\Users\CYMR90~1\AppData\Local\Temp\ccyjM0JL.s:20121  .debug_str:000000000000055a .LASF1672
C:\Users\CYMR90~1\AppData\Local\Temp\ccyjM0JL.s:25175  .debug_str:000000000001471d .LASF1673
C:\Users\CYMR90~1\AppData\Local\Temp\ccyjM0JL.s:24575  .debug_str:0000000000012051 .LASF1674
C:\Users\CYMR90~1\AppData\Local\Temp\ccyjM0JL.s:23729  .debug_str:000000000000eb3d .LASF1675
C:\Users\CYMR90~1\AppData\Local\Temp\ccyjM0JL.s:29318  .debug_str:0000000000024c3a .LASF1676
C:\Users\CYMR90~1\AppData\Local\Temp\ccyjM0JL.s:24711  .debug_str:00000000000129ce .LASF1677
C:\Users\CYMR90~1\AppData\Local\Temp\ccyjM0JL.s:31260  .debug_str:000000000002c8d5 .LASF1678
C:\Users\CYMR90~1\AppData\Local\Temp\ccyjM0JL.s:20689  .debug_str:000000000000281d .LASF1679
C:\Users\CYMR90~1\AppData\Local\Temp\ccyjM0JL.s:28674  .debug_str:000000000002246d .LASF1680
C:\Users\CYMR90~1\AppData\Local\Temp\ccyjM0JL.s:25423  .debug_str:00000000000155ee .LASF1681
C:\Users\CYMR90~1\AppData\Local\Temp\ccyjM0JL.s:24071  .debug_str:0000000000010036 .LASF1682
C:\Users\CYMR90~1\AppData\Local\Temp\ccyjM0JL.s:26786  .debug_str:000000000001aee7 .LASF1683
C:\Users\CYMR90~1\AppData\Local\Temp\ccyjM0JL.s:28908  .debug_str:0000000000023244 .LASF1684
C:\Users\CYMR90~1\AppData\Local\Temp\ccyjM0JL.s:29834  .debug_str:0000000000026e3b .LASF1685
C:\Users\CYMR90~1\AppData\Local\Temp\ccyjM0JL.s:24227  .debug_str:0000000000010a23 .LASF1686
C:\Users\CYMR90~1\AppData\Local\Temp\ccyjM0JL.s:28210  .debug_str:000000000002082e .LASF1687
C:\Users\CYMR90~1\AppData\Local\Temp\ccyjM0JL.s:30558  .debug_str:0000000000029ce6 .LASF1688
C:\Users\CYMR90~1\AppData\Local\Temp\ccyjM0JL.s:29090  .debug_str:0000000000023d04 .LASF1689
C:\Users\CYMR90~1\AppData\Local\Temp\ccyjM0JL.s:26916  .debug_str:000000000001b757 .LASF1690
C:\Users\CYMR90~1\AppData\Local\Temp\ccyjM0JL.s:24975  .debug_str:0000000000013b18 .LASF1691
C:\Users\CYMR90~1\AppData\Local\Temp\ccyjM0JL.s:28630  .debug_str:00000000000221cd .LASF1692
C:\Users\CYMR90~1\AppData\Local\Temp\ccyjM0JL.s:26230  .debug_str:00000000000188ff .LASF1693
C:\Users\CYMR90~1\AppData\Local\Temp\ccyjM0JL.s:22101  .debug_str:00000000000082da .LASF1694
C:\Users\CYMR90~1\AppData\Local\Temp\ccyjM0JL.s:24145  .debug_str:00000000000104a2 .LASF1695
C:\Users\CYMR90~1\AppData\Local\Temp\ccyjM0JL.s:26006  .debug_str:0000000000017bc9 .LASF1696
C:\Users\CYMR90~1\AppData\Local\Temp\ccyjM0JL.s:25303  .debug_str:0000000000014ec9 .LASF1697
C:\Users\CYMR90~1\AppData\Local\Temp\ccyjM0JL.s:27862  .debug_str:000000000001f2f5 .LASF1698
C:\Users\CYMR90~1\AppData\Local\Temp\ccyjM0JL.s:26404  .debug_str:000000000001954d .LASF1699
C:\Users\CYMR90~1\AppData\Local\Temp\ccyjM0JL.s:28328  .debug_str:0000000000020f3b .LASF1700
C:\Users\CYMR90~1\AppData\Local\Temp\ccyjM0JL.s:27858  .debug_str:000000000001f2b8 .LASF1701
C:\Users\CYMR90~1\AppData\Local\Temp\ccyjM0JL.s:29134  .debug_str:0000000000023f5d .LASF1702
C:\Users\CYMR90~1\AppData\Local\Temp\ccyjM0JL.s:29096  .debug_str:0000000000023d53 .LASF1703
C:\Users\CYMR90~1\AppData\Local\Temp\ccyjM0JL.s:28620  .debug_str:0000000000022133 .LASF1704
C:\Users\CYMR90~1\AppData\Local\Temp\ccyjM0JL.s:27044  .debug_str:000000000001bf48 .LASF1705
C:\Users\CYMR90~1\AppData\Local\Temp\ccyjM0JL.s:28476  .debug_str:000000000002183f .LASF1706
C:\Users\CYMR90~1\AppData\Local\Temp\ccyjM0JL.s:24579  .debug_str:00000000000120a1 .LASF1707
C:\Users\CYMR90~1\AppData\Local\Temp\ccyjM0JL.s:24887  .debug_str:00000000000135a0 .LASF1708
C:\Users\CYMR90~1\AppData\Local\Temp\ccyjM0JL.s:27614  .debug_str:000000000001e3d9 .LASF1709
C:\Users\CYMR90~1\AppData\Local\Temp\ccyjM0JL.s:26144  .debug_str:00000000000183df .LASF1710
C:\Users\CYMR90~1\AppData\Local\Temp\ccyjM0JL.s:23021  .debug_str:000000000000be65 .LASF1711
C:\Users\CYMR90~1\AppData\Local\Temp\ccyjM0JL.s:24523  .debug_str:0000000000011d42 .LASF1712
C:\Users\CYMR90~1\AppData\Local\Temp\ccyjM0JL.s:21631  .debug_str:00000000000063b9 .LASF1713
C:\Users\CYMR90~1\AppData\Local\Temp\ccyjM0JL.s:23987  .debug_str:000000000000fae2 .LASF1714
C:\Users\CYMR90~1\AppData\Local\Temp\ccyjM0JL.s:20911  .debug_str:000000000000368f .LASF1715
C:\Users\CYMR90~1\AppData\Local\Temp\ccyjM0JL.s:24225  .debug_str:00000000000109f7 .LASF1716
C:\Users\CYMR90~1\AppData\Local\Temp\ccyjM0JL.s:27582  .debug_str:000000000001e1f3 .LASF1717
C:\Users\CYMR90~1\AppData\Local\Temp\ccyjM0JL.s:26108  .debug_str:00000000000181c4 .LASF1718
C:\Users\CYMR90~1\AppData\Local\Temp\ccyjM0JL.s:24465  .debug_str:00000000000118cb .LASF1719
C:\Users\CYMR90~1\AppData\Local\Temp\ccyjM0JL.s:26468  .debug_str:0000000000019954 .LASF1720
C:\Users\CYMR90~1\AppData\Local\Temp\ccyjM0JL.s:24967  .debug_str:0000000000013a95 .LASF1721
C:\Users\CYMR90~1\AppData\Local\Temp\ccyjM0JL.s:20617  .debug_str:00000000000023a7 .LASF1722
C:\Users\CYMR90~1\AppData\Local\Temp\ccyjM0JL.s:26794  .debug_str:000000000001af81 .LASF1723
C:\Users\CYMR90~1\AppData\Local\Temp\ccyjM0JL.s:20681  .debug_str:00000000000027a7 .LASF1724
C:\Users\CYMR90~1\AppData\Local\Temp\ccyjM0JL.s:25491  .debug_str:00000000000159a6 .LASF1725
C:\Users\CYMR90~1\AppData\Local\Temp\ccyjM0JL.s:30356  .debug_str:00000000000290ad .LASF1726
C:\Users\CYMR90~1\AppData\Local\Temp\ccyjM0JL.s:28768  .debug_str:00000000000229b1 .LASF1727
C:\Users\CYMR90~1\AppData\Local\Temp\ccyjM0JL.s:29996  .debug_str:00000000000278de .LASF1728
C:\Users\CYMR90~1\AppData\Local\Temp\ccyjM0JL.s:27266  .debug_str:000000000001cd46 .LASF1729
C:\Users\CYMR90~1\AppData\Local\Temp\ccyjM0JL.s:31172  .debug_str:000000000002c2d6 .LASF1730
C:\Users\CYMR90~1\AppData\Local\Temp\ccyjM0JL.s:29824  .debug_str:0000000000026da0 .LASF1731
C:\Users\CYMR90~1\AppData\Local\Temp\ccyjM0JL.s:24399  .debug_str:00000000000114a9 .LASF1732
C:\Users\CYMR90~1\AppData\Local\Temp\ccyjM0JL.s:22413  .debug_str:00000000000095be .LASF1733
C:\Users\CYMR90~1\AppData\Local\Temp\ccyjM0JL.s:20385  .debug_str:0000000000001585 .LASF1734
C:\Users\CYMR90~1\AppData\Local\Temp\ccyjM0JL.s:25868  .debug_str:0000000000017399 .LASF1735
C:\Users\CYMR90~1\AppData\Local\Temp\ccyjM0JL.s:28036  .debug_str:000000000001fd5c .LASF1736
C:\Users\CYMR90~1\AppData\Local\Temp\ccyjM0JL.s:22405  .debug_str:0000000000009548 .LASF1737
C:\Users\CYMR90~1\AppData\Local\Temp\ccyjM0JL.s:22121  .debug_str:000000000000842a .LASF1738
C:\Users\CYMR90~1\AppData\Local\Temp\ccyjM0JL.s:29830  .debug_str:0000000000026e0c .LASF1739
C:\Users\CYMR90~1\AppData\Local\Temp\ccyjM0JL.s:23753  .debug_str:000000000000eccb .LASF1740
C:\Users\CYMR90~1\AppData\Local\Temp\ccyjM0JL.s:22749  .debug_str:000000000000abcc .LASF1741
C:\Users\CYMR90~1\AppData\Local\Temp\ccyjM0JL.s:27884  .debug_str:000000000001f43c .LASF1742
C:\Users\CYMR90~1\AppData\Local\Temp\ccyjM0JL.s:23249  .debug_str:000000000000cd56 .LASF1743
C:\Users\CYMR90~1\AppData\Local\Temp\ccyjM0JL.s:30110  .debug_str:000000000002801a .LASF1744
C:\Users\CYMR90~1\AppData\Local\Temp\ccyjM0JL.s:22127  .debug_str:000000000000849c .LASF1745
C:\Users\CYMR90~1\AppData\Local\Temp\ccyjM0JL.s:24043  .debug_str:000000000000fe58 .LASF1746
C:\Users\CYMR90~1\AppData\Local\Temp\ccyjM0JL.s:29138  .debug_str:0000000000023fa3 .LASF1747
C:\Users\CYMR90~1\AppData\Local\Temp\ccyjM0JL.s:28738  .debug_str:00000000000227ba .LASF1748
C:\Users\CYMR90~1\AppData\Local\Temp\ccyjM0JL.s:24223  .debug_str:00000000000109d4 .LASF1749
C:\Users\CYMR90~1\AppData\Local\Temp\ccyjM0JL.s:22907  .debug_str:000000000000b6b1 .LASF1750
C:\Users\CYMR90~1\AppData\Local\Temp\ccyjM0JL.s:26042  .debug_str:0000000000017ddb .LASF1751
C:\Users\CYMR90~1\AppData\Local\Temp\ccyjM0JL.s:21273  .debug_str:0000000000004e7e .LASF1752
C:\Users\CYMR90~1\AppData\Local\Temp\ccyjM0JL.s:26774  .debug_str:000000000001ae2c .LASF1753
C:\Users\CYMR90~1\AppData\Local\Temp\ccyjM0JL.s:26670  .debug_str:000000000001a74a .LASF1754
C:\Users\CYMR90~1\AppData\Local\Temp\ccyjM0JL.s:23191  .debug_str:000000000000c90e .LASF1755
C:\Users\CYMR90~1\AppData\Local\Temp\ccyjM0JL.s:24781  .debug_str:0000000000012e6c .LASF1756
C:\Users\CYMR90~1\AppData\Local\Temp\ccyjM0JL.s:26868  .debug_str:000000000001b4a8 .LASF1757
C:\Users\CYMR90~1\AppData\Local\Temp\ccyjM0JL.s:23845  .debug_str:000000000000f196 .LASF1758
C:\Users\CYMR90~1\AppData\Local\Temp\ccyjM0JL.s:21939  .debug_str:0000000000007731 .LASF1759
C:\Users\CYMR90~1\AppData\Local\Temp\ccyjM0JL.s:26614  .debug_str:000000000001a289 .LASF1760
C:\Users\CYMR90~1\AppData\Local\Temp\ccyjM0JL.s:22231  .debug_str:0000000000008afb .LASF1761
C:\Users\CYMR90~1\AppData\Local\Temp\ccyjM0JL.s:20447  .debug_str:00000000000019e7 .LASF1762
C:\Users\CYMR90~1\AppData\Local\Temp\ccyjM0JL.s:29334  .debug_str:0000000000024d09 .LASF1763
C:\Users\CYMR90~1\AppData\Local\Temp\ccyjM0JL.s:21971  .debug_str:0000000000007954 .LASF1764
C:\Users\CYMR90~1\AppData\Local\Temp\ccyjM0JL.s:21645  .debug_str:00000000000064b2 .LASF1765
C:\Users\CYMR90~1\AppData\Local\Temp\ccyjM0JL.s:20427  .debug_str:0000000000001893 .LASF1766
C:\Users\CYMR90~1\AppData\Local\Temp\ccyjM0JL.s:26988  .debug_str:000000000001bbb1 .LASF1767
C:\Users\CYMR90~1\AppData\Local\Temp\ccyjM0JL.s:20487  .debug_str:0000000000001c4d .LASF1768
C:\Users\CYMR90~1\AppData\Local\Temp\ccyjM0JL.s:29534  .debug_str:0000000000025bba .LASF1769
C:\Users\CYMR90~1\AppData\Local\Temp\ccyjM0JL.s:31244  .debug_str:000000000002c7cf .LASF1770
C:\Users\CYMR90~1\AppData\Local\Temp\ccyjM0JL.s:23075  .debug_str:000000000000c1e3 .LASF1771
C:\Users\CYMR90~1\AppData\Local\Temp\ccyjM0JL.s:22655  .debug_str:000000000000a54e .LASF1772
C:\Users\CYMR90~1\AppData\Local\Temp\ccyjM0JL.s:20155  .debug_str:0000000000000756 .LASF1773
C:\Users\CYMR90~1\AppData\Local\Temp\ccyjM0JL.s:20207  .debug_str:0000000000000a36 .LASF1774
C:\Users\CYMR90~1\AppData\Local\Temp\ccyjM0JL.s:30262  .debug_str:0000000000028b0b .LASF1775
C:\Users\CYMR90~1\AppData\Local\Temp\ccyjM0JL.s:25191  .debug_str:0000000000014856 .LASF1776
C:\Users\CYMR90~1\AppData\Local\Temp\ccyjM0JL.s:23925  .debug_str:000000000000f69a .LASF1777
C:\Users\CYMR90~1\AppData\Local\Temp\ccyjM0JL.s:26032  .debug_str:0000000000017d54 .LASF1778
C:\Users\CYMR90~1\AppData\Local\Temp\ccyjM0JL.s:21367  .debug_str:000000000000543c .LASF1779
C:\Users\CYMR90~1\AppData\Local\Temp\ccyjM0JL.s:29572  .debug_str:0000000000025e29 .LASF1780
C:\Users\CYMR90~1\AppData\Local\Temp\ccyjM0JL.s:28772  .debug_str:0000000000022a1a .LASF1781
C:\Users\CYMR90~1\AppData\Local\Temp\ccyjM0JL.s:27274  .debug_str:000000000001cddb .LASF1784
C:\Users\CYMR90~1\AppData\Local\Temp\ccyjM0JL.s:26414  .debug_str:00000000000195e8 .LASF1785
C:\Users\CYMR90~1\AppData\Local\Temp\ccyjM0JL.s:26264  .debug_str:0000000000018b20 .LASF1786
C:\Users\CYMR90~1\AppData\Local\Temp\ccyjM0JL.s:25237  .debug_str:0000000000014afb .LASF1787
C:\Users\CYMR90~1\AppData\Local\Temp\ccyjM0JL.s:30698  .debug_str:000000000002a4fe .LASF1788
C:\Users\CYMR90~1\AppData\Local\Temp\ccyjM0JL.s:22615  .debug_str:000000000000a2b1 .LASF1789
C:\Users\CYMR90~1\AppData\Local\Temp\ccyjM0JL.s:20953  .debug_str:0000000000003948 .LASF1790
C:\Users\CYMR90~1\AppData\Local\Temp\ccyjM0JL.s:20065  .debug_str:0000000000000223 .LASF1791
C:\Users\CYMR90~1\AppData\Local\Temp\ccyjM0JL.s:29914  .debug_str:000000000002733a .LASF1792
C:\Users\CYMR90~1\AppData\Local\Temp\ccyjM0JL.s:28990  .debug_str:00000000000236be .LASF1793
C:\Users\CYMR90~1\AppData\Local\Temp\ccyjM0JL.s:30890  .debug_str:000000000002b092 .LASF1794
C:\Users\CYMR90~1\AppData\Local\Temp\ccyjM0JL.s:30194  .debug_str:000000000002866c .LASF1795
C:\Users\CYMR90~1\AppData\Local\Temp\ccyjM0JL.s:24899  .debug_str:000000000001366a .LASF1796
C:\Users\CYMR90~1\AppData\Local\Temp\ccyjM0JL.s:25179  .debug_str:000000000001475f .LASF1797
C:\Users\CYMR90~1\AppData\Local\Temp\ccyjM0JL.s:24283  .debug_str:0000000000010e3f .LASF1798
C:\Users\CYMR90~1\AppData\Local\Temp\ccyjM0JL.s:23103  .debug_str:000000000000c3b1 .LASF1799
C:\Users\CYMR90~1\AppData\Local\Temp\ccyjM0JL.s:21805  .debug_str:0000000000006ea3 .LASF1800
C:\Users\CYMR90~1\AppData\Local\Temp\ccyjM0JL.s:26256  .debug_str:0000000000018ab2 .LASF1801
C:\Users\CYMR90~1\AppData\Local\Temp\ccyjM0JL.s:25325  .debug_str:0000000000015069 .LASF1802
C:\Users\CYMR90~1\AppData\Local\Temp\ccyjM0JL.s:24343  .debug_str:0000000000011189 .LASF1803
C:\Users\CYMR90~1\AppData\Local\Temp\ccyjM0JL.s:23823  .debug_str:000000000000f069 .LASF1804
C:\Users\CYMR90~1\AppData\Local\Temp\ccyjM0JL.s:28566  .debug_str:0000000000021de1 .LASF1805
C:\Users\CYMR90~1\AppData\Local\Temp\ccyjM0JL.s:25201  .debug_str:000000000001490e .LASF1806
C:\Users\CYMR90~1\AppData\Local\Temp\ccyjM0JL.s:28154  .debug_str:000000000002043f .LASF1807
C:\Users\CYMR90~1\AppData\Local\Temp\ccyjM0JL.s:25349  .debug_str:00000000000151af .LASF1808
C:\Users\CYMR90~1\AppData\Local\Temp\ccyjM0JL.s:30184  .debug_str:0000000000028552 .LASF1809
C:\Users\CYMR90~1\AppData\Local\Temp\ccyjM0JL.s:27366  .debug_str:000000000001d4ac .LASF1810
C:\Users\CYMR90~1\AppData\Local\Temp\ccyjM0JL.s:26048  .debug_str:0000000000017e50 .LASF1811
C:\Users\CYMR90~1\AppData\Local\Temp\ccyjM0JL.s:20407  .debug_str:00000000000016b9 .LASF1812
C:\Users\CYMR90~1\AppData\Local\Temp\ccyjM0JL.s:24235  .debug_str:0000000000010a82 .LASF1813
C:\Users\CYMR90~1\AppData\Local\Temp\ccyjM0JL.s:24507  .debug_str:0000000000011c61 .LASF1814
C:\Users\CYMR90~1\AppData\Local\Temp\ccyjM0JL.s:27348  .debug_str:000000000001d3b4 .LASF1815
C:\Users\CYMR90~1\AppData\Local\Temp\ccyjM0JL.s:26012  .debug_str:0000000000017c3b .LASF1816
C:\Users\CYMR90~1\AppData\Local\Temp\ccyjM0JL.s:27356  .debug_str:000000000001d432 .LASF1817
C:\Users\CYMR90~1\AppData\Local\Temp\ccyjM0JL.s:27806  .debug_str:000000000001ef4b .LASF1818
C:\Users\CYMR90~1\AppData\Local\Temp\ccyjM0JL.s:24039  .debug_str:000000000000fe20 .LASF1819
C:\Users\CYMR90~1\AppData\Local\Temp\ccyjM0JL.s:28298  .debug_str:0000000000020d55 .LASF1820
C:\Users\CYMR90~1\AppData\Local\Temp\ccyjM0JL.s:21673  .debug_str:000000000000664a .LASF1821
C:\Users\CYMR90~1\AppData\Local\Temp\ccyjM0JL.s:22059  .debug_str:0000000000007f90 .LASF1822
C:\Users\CYMR90~1\AppData\Local\Temp\ccyjM0JL.s:27742  .debug_str:000000000001ebb3 .LASF1823
C:\Users\CYMR90~1\AppData\Local\Temp\ccyjM0JL.s:30468  .debug_str:0000000000029762 .LASF1824
C:\Users\CYMR90~1\AppData\Local\Temp\ccyjM0JL.s:22975  .debug_str:000000000000bb5c .LASF1825
C:\Users\CYMR90~1\AppData\Local\Temp\ccyjM0JL.s:28394  .debug_str:00000000000212c4 .LASF1826
C:\Users\CYMR90~1\AppData\Local\Temp\ccyjM0JL.s:30828  .debug_str:000000000002ad00 .LASF1827
C:\Users\CYMR90~1\AppData\Local\Temp\ccyjM0JL.s:23797  .debug_str:000000000000ef0f .LASF1828
C:\Users\CYMR90~1\AppData\Local\Temp\ccyjM0JL.s:23865  .debug_str:000000000000f30a .LASF1829
C:\Users\CYMR90~1\AppData\Local\Temp\ccyjM0JL.s:24655  .debug_str:0000000000012618 .LASF1830
C:\Users\CYMR90~1\AppData\Local\Temp\ccyjM0JL.s:22433  .debug_str:000000000000974c .LASF1831
C:\Users\CYMR90~1\AppData\Local\Temp\ccyjM0JL.s:29858  .debug_str:0000000000026f8a .LASF1832
C:\Users\CYMR90~1\AppData\Local\Temp\ccyjM0JL.s:23247  .debug_str:000000000000cd3b .LASF1833
C:\Users\CYMR90~1\AppData\Local\Temp\ccyjM0JL.s:21877  .debug_str:000000000000735d .LASF1834
C:\Users\CYMR90~1\AppData\Local\Temp\ccyjM0JL.s:25643  .debug_str:000000000001635e .LASF1835
C:\Users\CYMR90~1\AppData\Local\Temp\ccyjM0JL.s:29722  .debug_str:000000000002671d .LASF1836
C:\Users\CYMR90~1\AppData\Local\Temp\ccyjM0JL.s:25613  .debug_str:0000000000016198 .LASF1837
C:\Users\CYMR90~1\AppData\Local\Temp\ccyjM0JL.s:26342  .debug_str:00000000000190b5 .LASF1838
C:\Users\CYMR90~1\AppData\Local\Temp\ccyjM0JL.s:24287  .debug_str:0000000000010e77 .LASF1839
C:\Users\CYMR90~1\AppData\Local\Temp\ccyjM0JL.s:27306  .debug_str:000000000001d080 .LASF1840
C:\Users\CYMR90~1\AppData\Local\Temp\ccyjM0JL.s:26576  .debug_str:000000000001a065 .LASF1841
C:\Users\CYMR90~1\AppData\Local\Temp\ccyjM0JL.s:29412  .debug_str:00000000000251f7 .LASF1842
C:\Users\CYMR90~1\AppData\Local\Temp\ccyjM0JL.s:29814  .debug_str:0000000000026cff .LASF1843
C:\Users\CYMR90~1\AppData\Local\Temp\ccyjM0JL.s:31034  .debug_str:000000000002b995 .LASF1844
C:\Users\CYMR90~1\AppData\Local\Temp\ccyjM0JL.s:30884  .debug_str:000000000002b03f .LASF1845
C:\Users\CYMR90~1\AppData\Local\Temp\ccyjM0JL.s:22161  .debug_str:00000000000086ac .LASF1846
C:\Users\CYMR90~1\AppData\Local\Temp\ccyjM0JL.s:27508  .debug_str:000000000001dd60 .LASF1847
C:\Users\CYMR90~1\AppData\Local\Temp\ccyjM0JL.s:20325  .debug_str:0000000000001208 .LASF1848
C:\Users\CYMR90~1\AppData\Local\Temp\ccyjM0JL.s:28690  .debug_str:000000000002254c .LASF1849
C:\Users\CYMR90~1\AppData\Local\Temp\ccyjM0JL.s:27894  .debug_str:000000000001f4da .LASF1850
C:\Users\CYMR90~1\AppData\Local\Temp\ccyjM0JL.s:22223  .debug_str:0000000000008a78 .LASF1851
C:\Users\CYMR90~1\AppData\Local\Temp\ccyjM0JL.s:29764  .debug_str:00000000000269e2 .LASF1852
C:\Users\CYMR90~1\AppData\Local\Temp\ccyjM0JL.s:23487  .debug_str:000000000000dc71 .LASF1853
C:\Users\CYMR90~1\AppData\Local\Temp\ccyjM0JL.s:20859  .debug_str:0000000000003326 .LASF1854
C:\Users\CYMR90~1\AppData\Local\Temp\ccyjM0JL.s:27386  .debug_str:000000000001d5f1 .LASF1855
C:\Users\CYMR90~1\AppData\Local\Temp\ccyjM0JL.s:30034  .debug_str:0000000000027b06 .LASF1856
C:\Users\CYMR90~1\AppData\Local\Temp\ccyjM0JL.s:22309  .debug_str:0000000000008ff3 .LASF1857
C:\Users\CYMR90~1\AppData\Local\Temp\ccyjM0JL.s:23173  .debug_str:000000000000c802 .LASF1858
C:\Users\CYMR90~1\AppData\Local\Temp\ccyjM0JL.s:30132  .debug_str:00000000000281a1 .LASF1859
C:\Users\CYMR90~1\AppData\Local\Temp\ccyjM0JL.s:25355  .debug_str:0000000000015210 .LASF1860
C:\Users\CYMR90~1\AppData\Local\Temp\ccyjM0JL.s:26286  .debug_str:0000000000018d14 .LASF1861
C:\Users\CYMR90~1\AppData\Local\Temp\ccyjM0JL.s:21093  .debug_str:00000000000042b0 .LASF1862
C:\Users\CYMR90~1\AppData\Local\Temp\ccyjM0JL.s:21831  .debug_str:0000000000006ffe .LASF1863
C:\Users\CYMR90~1\AppData\Local\Temp\ccyjM0JL.s:26196  .debug_str:00000000000186db .LASF1864
C:\Users\CYMR90~1\AppData\Local\Temp\ccyjM0JL.s:21473  .debug_str:0000000000005a7b .LASF1865
C:\Users\CYMR90~1\AppData\Local\Temp\ccyjM0JL.s:28876  .debug_str:0000000000023088 .LASF1866
C:\Users\CYMR90~1\AppData\Local\Temp\ccyjM0JL.s:28082  .debug_str:0000000000020047 .LASF1867
C:\Users\CYMR90~1\AppData\Local\Temp\ccyjM0JL.s:23101  .debug_str:000000000000c381 .LASF1868
C:\Users\CYMR90~1\AppData\Local\Temp\ccyjM0JL.s:20187  .debug_str:000000000000091b .LASF1869
C:\Users\CYMR90~1\AppData\Local\Temp\ccyjM0JL.s:20555  .debug_str:0000000000002021 .LASF1870
C:\Users\CYMR90~1\AppData\Local\Temp\ccyjM0JL.s:30416  .debug_str:000000000002943e .LASF1871
C:\Users\CYMR90~1\AppData\Local\Temp\ccyjM0JL.s:29510  .debug_str:0000000000025997 .LASF1872
C:\Users\CYMR90~1\AppData\Local\Temp\ccyjM0JL.s:25183  .debug_str:00000000000147ac .LASF1873
C:\Users\CYMR90~1\AppData\Local\Temp\ccyjM0JL.s:22005  .debug_str:0000000000007baa .LASF1874
C:\Users\CYMR90~1\AppData\Local\Temp\ccyjM0JL.s:22887  .debug_str:000000000000b4e3 .LASF1875
C:\Users\CYMR90~1\AppData\Local\Temp\ccyjM0JL.s:30600  .debug_str:0000000000029f4e .LASF1876
C:\Users\CYMR90~1\AppData\Local\Temp\ccyjM0JL.s:26804  .debug_str:000000000001b079 .LASF1877
C:\Users\CYMR90~1\AppData\Local\Temp\ccyjM0JL.s:27572  .debug_str:000000000001e159 .LASF1878
C:\Users\CYMR90~1\AppData\Local\Temp\ccyjM0JL.s:23929  .debug_str:000000000000f6d3 .LASF1879
C:\Users\CYMR90~1\AppData\Local\Temp\ccyjM0JL.s:22267  .debug_str:0000000000008d31 .LASF1880
C:\Users\CYMR90~1\AppData\Local\Temp\ccyjM0JL.s:27874  .debug_str:000000000001f39d .LASF1881
C:\Users\CYMR90~1\AppData\Local\Temp\ccyjM0JL.s:20305  .debug_str:00000000000010c1 .LASF1882
C:\Users\CYMR90~1\AppData\Local\Temp\ccyjM0JL.s:28288  .debug_str:0000000000020c93 .LASF1883
C:\Users\CYMR90~1\AppData\Local\Temp\ccyjM0JL.s:31030  .debug_str:000000000002b94d .LASF1884
C:\Users\CYMR90~1\AppData\Local\Temp\ccyjM0JL.s:27984  .debug_str:000000000001fa27 .LASF1885
C:\Users\CYMR90~1\AppData\Local\Temp\ccyjM0JL.s:30148  .debug_str:00000000000282a1 .LASF1886
C:\Users\CYMR90~1\AppData\Local\Temp\ccyjM0JL.s:22487  .debug_str:0000000000009adc .LASF1887
C:\Users\CYMR90~1\AppData\Local\Temp\ccyjM0JL.s:22299  .debug_str:0000000000008f4a .LASF1888
C:\Users\CYMR90~1\AppData\Local\Temp\ccyjM0JL.s:31064  .debug_str:000000000002bb50 .LASF1889
C:\Users\CYMR90~1\AppData\Local\Temp\ccyjM0JL.s:26430  .debug_str:00000000000196a7 .LASF1890
C:\Users\CYMR90~1\AppData\Local\Temp\ccyjM0JL.s:22479  .debug_str:0000000000009a36 .LASF1891
C:\Users\CYMR90~1\AppData\Local\Temp\ccyjM0JL.s:28430  .debug_str:00000000000214e1 .LASF1892
C:\Users\CYMR90~1\AppData\Local\Temp\ccyjM0JL.s:27196  .debug_str:000000000001c84f .LASF1893
C:\Users\CYMR90~1\AppData\Local\Temp\ccyjM0JL.s:22291  .debug_str:0000000000008ed5 .LASF1894
C:\Users\CYMR90~1\AppData\Local\Temp\ccyjM0JL.s:23553  .debug_str:000000000000e08d .LASF1895
C:\Users\CYMR90~1\AppData\Local\Temp\ccyjM0JL.s:25878  .debug_str:000000000001742e .LASF1896
C:\Users\CYMR90~1\AppData\Local\Temp\ccyjM0JL.s:20507  .debug_str:0000000000001d76 .LASF1897
C:\Users\CYMR90~1\AppData\Local\Temp\ccyjM0JL.s:29882  .debug_str:000000000002713b .LASF1898
C:\Users\CYMR90~1\AppData\Local\Temp\ccyjM0JL.s:26676  .debug_str:000000000001a7bc .LASF1899
C:\Users\CYMR90~1\AppData\Local\Temp\ccyjM0JL.s:23377  .debug_str:000000000000d5e8 .LASF1900
C:\Users\CYMR90~1\AppData\Local\Temp\ccyjM0JL.s:20103  .debug_str:0000000000000449 .LASF1901
C:\Users\CYMR90~1\AppData\Local\Temp\ccyjM0JL.s:20937  .debug_str:0000000000003820 .LASF1902
C:\Users\CYMR90~1\AppData\Local\Temp\ccyjM0JL.s:22999  .debug_str:000000000000bc85 .LASF1903
C:\Users\CYMR90~1\AppData\Local\Temp\ccyjM0JL.s:31308  .debug_str:000000000002cb94 .LASF1904
C:\Users\CYMR90~1\AppData\Local\Temp\ccyjM0JL.s:25747  .debug_str:0000000000016a2f .LASF1905
C:\Users\CYMR90~1\AppData\Local\Temp\ccyjM0JL.s:22449  .debug_str:0000000000009807 .LASF1906
C:\Users\CYMR90~1\AppData\Local\Temp\ccyjM0JL.s:30228  .debug_str:0000000000028882 .LASF1907
C:\Users\CYMR90~1\AppData\Local\Temp\ccyjM0JL.s:27234  .debug_str:000000000001cb63 .LASF1908
C:\Users\CYMR90~1\AppData\Local\Temp\ccyjM0JL.s:21461  .debug_str:00000000000059b8 .LASF1909
C:\Users\CYMR90~1\AppData\Local\Temp\ccyjM0JL.s:30586  .debug_str:0000000000029e84 .LASF1910
C:\Users\CYMR90~1\AppData\Local\Temp\ccyjM0JL.s:26854  .debug_str:000000000001b3ca .LASF1911
C:\Users\CYMR90~1\AppData\Local\Temp\ccyjM0JL.s:26532  .debug_str:0000000000019dda .LASF1912
C:\Users\CYMR90~1\AppData\Local\Temp\ccyjM0JL.s:22905  .debug_str:000000000000b692 .LASF1913
C:\Users\CYMR90~1\AppData\Local\Temp\ccyjM0JL.s:22745  .debug_str:000000000000ab74 .LASF1914
C:\Users\CYMR90~1\AppData\Local\Temp\ccyjM0JL.s:28188  .debug_str:0000000000020677 .LASF1915
C:\Users\CYMR90~1\AppData\Local\Temp\ccyjM0JL.s:29484  .debug_str:00000000000257b0 .LASF1916
C:\Users\CYMR90~1\AppData\Local\Temp\ccyjM0JL.s:26046  .debug_str:0000000000017e24 .LASF1917
C:\Users\CYMR90~1\AppData\Local\Temp\ccyjM0JL.s:22649  .debug_str:000000000000a4e9 .LASF1918
C:\Users\CYMR90~1\AppData\Local\Temp\ccyjM0JL.s:30646  .debug_str:000000000002a1eb .LASF1919
C:\Users\CYMR90~1\AppData\Local\Temp\ccyjM0JL.s:27206  .debug_str:000000000001c8f6 .LASF1920
C:\Users\CYMR90~1\AppData\Local\Temp\ccyjM0JL.s:22945  .debug_str:000000000000b941 .LASF1921
C:\Users\CYMR90~1\AppData\Local\Temp\ccyjM0JL.s:21851  .debug_str:0000000000007148 .LASF1922
C:\Users\CYMR90~1\AppData\Local\Temp\ccyjM0JL.s:28258  .debug_str:0000000000020adf .LASF1923
C:\Users\CYMR90~1\AppData\Local\Temp\ccyjM0JL.s:30370  .debug_str:0000000000029199 .LASF1924
C:\Users\CYMR90~1\AppData\Local\Temp\ccyjM0JL.s:22765  .debug_str:000000000000acdf .LASF1925
C:\Users\CYMR90~1\AppData\Local\Temp\ccyjM0JL.s:28078  .debug_str:000000000001fffc .LASF1926
C:\Users\CYMR90~1\AppData\Local\Temp\ccyjM0JL.s:27096  .debug_str:000000000001c296 .LASF1927
C:\Users\CYMR90~1\AppData\Local\Temp\ccyjM0JL.s:20975  .debug_str:0000000000003a92 .LASF1928
C:\Users\CYMR90~1\AppData\Local\Temp\ccyjM0JL.s:21901  .debug_str:00000000000074dd .LASF1929
C:\Users\CYMR90~1\AppData\Local\Temp\ccyjM0JL.s:28004  .debug_str:000000000001fb63 .LASF1930
C:\Users\CYMR90~1\AppData\Local\Temp\ccyjM0JL.s:31336  .debug_str:000000000002cd81 .LASF1931
C:\Users\CYMR90~1\AppData\Local\Temp\ccyjM0JL.s:31022  .debug_str:000000000002b8b3 .LASF1932
C:\Users\CYMR90~1\AppData\Local\Temp\ccyjM0JL.s:22017  .debug_str:0000000000007c54 .LASF1933
C:\Users\CYMR90~1\AppData\Local\Temp\ccyjM0JL.s:23081  .debug_str:000000000000c256 .LASF1934
C:\Users\CYMR90~1\AppData\Local\Temp\ccyjM0JL.s:27176  .debug_str:000000000001c70d .LASF1935
C:\Users\CYMR90~1\AppData\Local\Temp\ccyjM0JL.s:21503  .debug_str:0000000000005c73 .LASF1936
C:\Users\CYMR90~1\AppData\Local\Temp\ccyjM0JL.s:27030  .debug_str:000000000001be4b .LASF1937
C:\Users\CYMR90~1\AppData\Local\Temp\ccyjM0JL.s:25994  .debug_str:0000000000017b1e .LASF1938
C:\Users\CYMR90~1\AppData\Local\Temp\ccyjM0JL.s:25305  .debug_str:0000000000014ef5 .LASF1939
C:\Users\CYMR90~1\AppData\Local\Temp\ccyjM0JL.s:22205  .debug_str:000000000000892e .LASF1940
C:\Users\CYMR90~1\AppData\Local\Temp\ccyjM0JL.s:30436  .debug_str:00000000000295a2 .LASF1941
C:\Users\CYMR90~1\AppData\Local\Temp\ccyjM0JL.s:27286  .debug_str:000000000001ce98 .LASF1942
C:\Users\CYMR90~1\AppData\Local\Temp\ccyjM0JL.s:23143  .debug_str:000000000000c610 .LASF1943
C:\Users\CYMR90~1\AppData\Local\Temp\ccyjM0JL.s:24269  .debug_str:0000000000010cf1 .LASF1944
C:\Users\CYMR90~1\AppData\Local\Temp\ccyjM0JL.s:28116  .debug_str:0000000000020250 .LASF1945
C:\Users\CYMR90~1\AppData\Local\Temp\ccyjM0JL.s:25011  .debug_str:0000000000013d25 .LASF1946
C:\Users\CYMR90~1\AppData\Local\Temp\ccyjM0JL.s:21795  .debug_str:0000000000006ddf .LASF1947
C:\Users\CYMR90~1\AppData\Local\Temp\ccyjM0JL.s:20711  .debug_str:00000000000029c6 .LASF1948
C:\Users\CYMR90~1\AppData\Local\Temp\ccyjM0JL.s:26914  .debug_str:000000000001b738 .LASF1949
C:\Users\CYMR90~1\AppData\Local\Temp\ccyjM0JL.s:23813  .debug_str:000000000000efc3 .LASF1950
C:\Users\CYMR90~1\AppData\Local\Temp\ccyjM0JL.s:20577  .debug_str:0000000000002145 .LASF1951
C:\Users\CYMR90~1\AppData\Local\Temp\ccyjM0JL.s:28894  .debug_str:0000000000023175 .LASF1952
C:\Users\CYMR90~1\AppData\Local\Temp\ccyjM0JL.s:29618  .debug_str:00000000000260e7 .LASF1953
C:\Users\CYMR90~1\AppData\Local\Temp\ccyjM0JL.s:25137  .debug_str:000000000001450b .LASF1954
C:\Users\CYMR90~1\AppData\Local\Temp\ccyjM0JL.s:28412  .debug_str:00000000000213de .LASF1955
C:\Users\CYMR90~1\AppData\Local\Temp\ccyjM0JL.s:29092  .debug_str:0000000000023d1c .LASF1956
C:\Users\CYMR90~1\AppData\Local\Temp\ccyjM0JL.s:20633  .debug_str:000000000000248a .LASF1957
C:\Users\CYMR90~1\AppData\Local\Temp\ccyjM0JL.s:30854  .debug_str:000000000002ae73 .LASF1958
C:\Users\CYMR90~1\AppData\Local\Temp\ccyjM0JL.s:22023  .debug_str:0000000000007cc5 .LASF1959
C:\Users\CYMR90~1\AppData\Local\Temp\ccyjM0JL.s:30418  .debug_str:000000000002947d .LASF1960
C:\Users\CYMR90~1\AppData\Local\Temp\ccyjM0JL.s:27242  .debug_str:000000000001cbe9 .LASF1961
C:\Users\CYMR90~1\AppData\Local\Temp\ccyjM0JL.s:20147  .debug_str:00000000000006cc .LASF1962
C:\Users\CYMR90~1\AppData\Local\Temp\ccyjM0JL.s:25529  .debug_str:0000000000015be3 .LASF1963
C:\Users\CYMR90~1\AppData\Local\Temp\ccyjM0JL.s:29466  .debug_str:0000000000025663 .LASF1964
C:\Users\CYMR90~1\AppData\Local\Temp\ccyjM0JL.s:21855  .debug_str:00000000000071b3 .LASF1965
C:\Users\CYMR90~1\AppData\Local\Temp\ccyjM0JL.s:27376  .debug_str:000000000001d535 .LASF1966
C:\Users\CYMR90~1\AppData\Local\Temp\ccyjM0JL.s:30960  .debug_str:000000000002b48a .LASF1967
C:\Users\CYMR90~1\AppData\Local\Temp\ccyjM0JL.s:28468  .debug_str:00000000000217ec .LASF1968
C:\Users\CYMR90~1\AppData\Local\Temp\ccyjM0JL.s:28778  .debug_str:0000000000022a7c .LASF1969
C:\Users\CYMR90~1\AppData\Local\Temp\ccyjM0JL.s:21839  .debug_str:0000000000007076 .LASF1970
C:\Users\CYMR90~1\AppData\Local\Temp\ccyjM0JL.s:28782  .debug_str:0000000000022aad .LASF1971
C:\Users\CYMR90~1\AppData\Local\Temp\ccyjM0JL.s:29500  .debug_str:00000000000258d7 .LASF1972
C:\Users\CYMR90~1\AppData\Local\Temp\ccyjM0JL.s:26520  .debug_str:0000000000019d1f .LASF1973
C:\Users\CYMR90~1\AppData\Local\Temp\ccyjM0JL.s:26326  .debug_str:0000000000018fbf .LASF1974
C:\Users\CYMR90~1\AppData\Local\Temp\ccyjM0JL.s:30906  .debug_str:000000000002b193 .LASF1975
C:\Users\CYMR90~1\AppData\Local\Temp\ccyjM0JL.s:22041  .debug_str:0000000000007e8c .LASF1976
C:\Users\CYMR90~1\AppData\Local\Temp\ccyjM0JL.s:22399  .debug_str:00000000000094ff .LASF1977
C:\Users\CYMR90~1\AppData\Local\Temp\ccyjM0JL.s:28638  .debug_str:0000000000022233 .LASF1978
C:\Users\CYMR90~1\AppData\Local\Temp\ccyjM0JL.s:21327  .debug_str:00000000000051d0 .LASF1979
C:\Users\CYMR90~1\AppData\Local\Temp\ccyjM0JL.s:29402  .debug_str:000000000002514f .LASF1980
C:\Users\CYMR90~1\AppData\Local\Temp\ccyjM0JL.s:29258  .debug_str:0000000000024803 .LASF1981
C:\Users\CYMR90~1\AppData\Local\Temp\ccyjM0JL.s:29098  .debug_str:0000000000023d77 .LASF1982
C:\Users\CYMR90~1\AppData\Local\Temp\ccyjM0JL.s:29932  .debug_str:000000000002742a .LASF1983
C:\Users\CYMR90~1\AppData\Local\Temp\ccyjM0JL.s:30858  .debug_str:000000000002aec9 .LASF1984
C:\Users\CYMR90~1\AppData\Local\Temp\ccyjM0JL.s:27768  .debug_str:000000000001ed15 .LASF1985
C:\Users\CYMR90~1\AppData\Local\Temp\ccyjM0JL.s:26946  .debug_str:000000000001b949 .LASF1986
C:\Users\CYMR90~1\AppData\Local\Temp\ccyjM0JL.s:25213  .debug_str:00000000000149a1 .LASF1987
C:\Users\CYMR90~1\AppData\Local\Temp\ccyjM0JL.s:26226  .debug_str:00000000000188c6 .LASF1988
C:\Users\CYMR90~1\AppData\Local\Temp\ccyjM0JL.s:23241  .debug_str:000000000000cce1 .LASF1989
C:\Users\CYMR90~1\AppData\Local\Temp\ccyjM0JL.s:22259  .debug_str:0000000000008cc0 .LASF1990
C:\Users\CYMR90~1\AppData\Local\Temp\ccyjM0JL.s:23303  .debug_str:000000000000d07b .LASF1991
C:\Users\CYMR90~1\AppData\Local\Temp\ccyjM0JL.s:26570  .debug_str:0000000000019ff6 .LASF1992
C:\Users\CYMR90~1\AppData\Local\Temp\ccyjM0JL.s:21231  .debug_str:0000000000004c0c .LASF1993
C:\Users\CYMR90~1\AppData\Local\Temp\ccyjM0JL.s:20301  .debug_str:0000000000001091 .LASF1994
C:\Users\CYMR90~1\AppData\Local\Temp\ccyjM0JL.s:29518  .debug_str:0000000000025a2b .LASF1995
C:\Users\CYMR90~1\AppData\Local\Temp\ccyjM0JL.s:20935  .debug_str:00000000000037ec .LASF1996
C:\Users\CYMR90~1\AppData\Local\Temp\ccyjM0JL.s:29982  .debug_str:000000000002781e .LASF1997
C:\Users\CYMR90~1\AppData\Local\Temp\ccyjM0JL.s:22177  .debug_str:0000000000008773 .LASF1998
C:\Users\CYMR90~1\AppData\Local\Temp\ccyjM0JL.s:26150  .debug_str:0000000000018436 .LASF1999
C:\Users\CYMR90~1\AppData\Local\Temp\ccyjM0JL.s:25631  .debug_str:00000000000162ad .LASF2000
C:\Users\CYMR90~1\AppData\Local\Temp\ccyjM0JL.s:24433  .debug_str:00000000000116db .LASF2001
C:\Users\CYMR90~1\AppData\Local\Temp\ccyjM0JL.s:28790  .debug_str:0000000000022b2e .LASF2002
C:\Users\CYMR90~1\AppData\Local\Temp\ccyjM0JL.s:30206  .debug_str:0000000000028735 .LASF2003
C:\Users\CYMR90~1\AppData\Local\Temp\ccyjM0JL.s:25167  .debug_str:000000000001468b .LASF2004
C:\Users\CYMR90~1\AppData\Local\Temp\ccyjM0JL.s:28676  .debug_str:0000000000022482 .LASF2005
C:\Users\CYMR90~1\AppData\Local\Temp\ccyjM0JL.s:25840  .debug_str:0000000000017212 .LASF2006
C:\Users\CYMR90~1\AppData\Local\Temp\ccyjM0JL.s:31116  .debug_str:000000000002beea .LASF2007
C:\Users\CYMR90~1\AppData\Local\Temp\ccyjM0JL.s:21369  .debug_str:0000000000005464 .LASF2008
C:\Users\CYMR90~1\AppData\Local\Temp\ccyjM0JL.s:24933  .debug_str:0000000000013899 .LASF2009
C:\Users\CYMR90~1\AppData\Local\Temp\ccyjM0JL.s:27666  .debug_str:000000000001e6e9 .LASF2010
C:\Users\CYMR90~1\AppData\Local\Temp\ccyjM0JL.s:23267  .debug_str:000000000000ce7e .LASF2011
C:\Users\CYMR90~1\AppData\Local\Temp\ccyjM0JL.s:20489  .debug_str:0000000000001c78 .LASF2012
C:\Users\CYMR90~1\AppData\Local\Temp\ccyjM0JL.s:28974  .debug_str:00000000000235f3 .LASF2013
C:\Users\CYMR90~1\AppData\Local\Temp\ccyjM0JL.s:28728  .debug_str:0000000000022736 .LASF2014
C:\Users\CYMR90~1\AppData\Local\Temp\ccyjM0JL.s:26654  .debug_str:000000000001a664 .LASF2015
C:\Users\CYMR90~1\AppData\Local\Temp\ccyjM0JL.s:30574  .debug_str:0000000000029dd0 .LASF2016
C:\Users\CYMR90~1\AppData\Local\Temp\ccyjM0JL.s:28884  .debug_str:0000000000023102 .LASF2017
C:\Users\CYMR90~1\AppData\Local\Temp\ccyjM0JL.s:31024  .debug_str:000000000002b8e3 .LASF2018
C:\Users\CYMR90~1\AppData\Local\Temp\ccyjM0JL.s:27418  .debug_str:000000000001d7b3 .LASF2019
C:\Users\CYMR90~1\AppData\Local\Temp\ccyjM0JL.s:27204  .debug_str:000000000001c8db .LASF2020
C:\Users\CYMR90~1\AppData\Local\Temp\ccyjM0JL.s:28928  .debug_str:0000000000023350 .LASF2021
C:\Users\CYMR90~1\AppData\Local\Temp\ccyjM0JL.s:29922  .debug_str:00000000000273ac .LASF2022
C:\Users\CYMR90~1\AppData\Local\Temp\ccyjM0JL.s:26062  .debug_str:0000000000017f40 .LASF2023
C:\Users\CYMR90~1\AppData\Local\Temp\ccyjM0JL.s:29860  .debug_str:0000000000026f9f .LASF2024
C:\Users\CYMR90~1\AppData\Local\Temp\ccyjM0JL.s:22973  .debug_str:000000000000bb41 .LASF2025
C:\Users\CYMR90~1\AppData\Local\Temp\ccyjM0JL.s:30974  .debug_str:000000000002b559 .LASF2026
C:\Users\CYMR90~1\AppData\Local\Temp\ccyjM0JL.s:20903  .debug_str:000000000000360d .LASF2027
C:\Users\CYMR90~1\AppData\Local\Temp\ccyjM0JL.s:28988  .debug_str:00000000000236a0 .LASF2028
C:\Users\CYMR90~1\AppData\Local\Temp\ccyjM0JL.s:27972  .debug_str:000000000001f953 .LASF2029
C:\Users\CYMR90~1\AppData\Local\Temp\ccyjM0JL.s:30530  .debug_str:0000000000029b5f .LASF2030
C:\Users\CYMR90~1\AppData\Local\Temp\ccyjM0JL.s:26050  .debug_str:0000000000017e65 .LASF2031
C:\Users\CYMR90~1\AppData\Local\Temp\ccyjM0JL.s:22739  .debug_str:000000000000ab2f .LASF2032
C:\Users\CYMR90~1\AppData\Local\Temp\ccyjM0JL.s:23947  .debug_str:000000000000f888 .LASF2033
C:\Users\CYMR90~1\AppData\Local\Temp\ccyjM0JL.s:22951  .debug_str:000000000000b990 .LASF2034
C:\Users\CYMR90~1\AppData\Local\Temp\ccyjM0JL.s:24505  .debug_str:0000000000011c44 .LASF2035
C:\Users\CYMR90~1\AppData\Local\Temp\ccyjM0JL.s:28448  .debug_str:00000000000216a2 .LASF2036
C:\Users\CYMR90~1\AppData\Local\Temp\ccyjM0JL.s:28862  .debug_str:0000000000022fbb .LASF2037
C:\Users\CYMR90~1\AppData\Local\Temp\ccyjM0JL.s:29446  .debug_str:000000000002545e .LASF2038
C:\Users\CYMR90~1\AppData\Local\Temp\ccyjM0JL.s:24603  .debug_str:00000000000122da .LASF2039
C:\Users\CYMR90~1\AppData\Local\Temp\ccyjM0JL.s:26596  .debug_str:000000000001a194 .LASF2040
C:\Users\CYMR90~1\AppData\Local\Temp\ccyjM0JL.s:23297  .debug_str:000000000000d00b .LASF2041
C:\Users\CYMR90~1\AppData\Local\Temp\ccyjM0JL.s:20719  .debug_str:0000000000002a39 .LASF2042
C:\Users\CYMR90~1\AppData\Local\Temp\ccyjM0JL.s:31118  .debug_str:000000000002beff .LASF2043
C:\Users\CYMR90~1\AppData\Local\Temp\ccyjM0JL.s:31384  .debug_str:000000000002d0e0 .LASF2044
C:\Users\CYMR90~1\AppData\Local\Temp\ccyjM0JL.s:24905  .debug_str:00000000000136c3 .LASF2045
C:\Users\CYMR90~1\AppData\Local\Temp\ccyjM0JL.s:28744  .debug_str:0000000000022828 .LASF2046
C:\Users\CYMR90~1\AppData\Local\Temp\ccyjM0JL.s:30382  .debug_str:0000000000029270 .LASF2047
C:\Users\CYMR90~1\AppData\Local\Temp\ccyjM0JL.s:27076  .debug_str:000000000001c169 .LASF2048
C:\Users\CYMR90~1\AppData\Local\Temp\ccyjM0JL.s:27624  .debug_str:000000000001e45a .LASF2049
C:\Users\CYMR90~1\AppData\Local\Temp\ccyjM0JL.s:21527  .debug_str:0000000000005dc4 .LASF2050
C:\Users\CYMR90~1\AppData\Local\Temp\ccyjM0JL.s:20889  .debug_str:0000000000003513 .LASF2051
C:\Users\CYMR90~1\AppData\Local\Temp\ccyjM0JL.s:22853  .debug_str:000000000000b305 .LASF2052
C:\Users\CYMR90~1\AppData\Local\Temp\ccyjM0JL.s:29482  .debug_str:0000000000025769 .LASF2053
C:\Users\CYMR90~1\AppData\Local\Temp\ccyjM0JL.s:30812  .debug_str:000000000002ac17 .LASF2054
C:\Users\CYMR90~1\AppData\Local\Temp\ccyjM0JL.s:21335  .debug_str:000000000000525c .LASF2055
C:\Users\CYMR90~1\AppData\Local\Temp\ccyjM0JL.s:29818  .debug_str:0000000000026d36 .LASF2056
C:\Users\CYMR90~1\AppData\Local\Temp\ccyjM0JL.s:27786  .debug_str:000000000001ee0c .LASF2057
C:\Users\CYMR90~1\AppData\Local\Temp\ccyjM0JL.s:25896  .debug_str:0000000000017538 .LASF2058
C:\Users\CYMR90~1\AppData\Local\Temp\ccyjM0JL.s:22727  .debug_str:000000000000aa66 .LASF2059
C:\Users\CYMR90~1\AppData\Local\Temp\ccyjM0JL.s:23545  .debug_str:000000000000e00b .LASF2060
C:\Users\CYMR90~1\AppData\Local\Temp\ccyjM0JL.s:28244  .debug_str:0000000000020a3f .LASF2061
C:\Users\CYMR90~1\AppData\Local\Temp\ccyjM0JL.s:25039  .debug_str:0000000000013ec6 .LASF2062
C:\Users\CYMR90~1\AppData\Local\Temp\ccyjM0JL.s:20691  .debug_str:0000000000002856 .LASF2063
C:\Users\CYMR90~1\AppData\Local\Temp\ccyjM0JL.s:24313  .debug_str:0000000000010fc1 .LASF2064
C:\Users\CYMR90~1\AppData\Local\Temp\ccyjM0JL.s:27752  .debug_str:000000000001ec33 .LASF2065
C:\Users\CYMR90~1\AppData\Local\Temp\ccyjM0JL.s:22415  .debug_str:00000000000095df .LASF2066
C:\Users\CYMR90~1\AppData\Local\Temp\ccyjM0JL.s:22881  .debug_str:000000000000b485 .LASF2067
C:\Users\CYMR90~1\AppData\Local\Temp\ccyjM0JL.s:26000  .debug_str:0000000000017b7f .LASF2068
C:\Users\CYMR90~1\AppData\Local\Temp\ccyjM0JL.s:25603  .debug_str:00000000000160e3 .LASF2069
C:\Users\CYMR90~1\AppData\Local\Temp\ccyjM0JL.s:23435  .debug_str:000000000000d965 .LASF2070
C:\Users\CYMR90~1\AppData\Local\Temp\ccyjM0JL.s:21497  .debug_str:0000000000005c2c .LASF2071
C:\Users\CYMR90~1\AppData\Local\Temp\ccyjM0JL.s:24765  .debug_str:0000000000012d7b .LASF2072
C:\Users\CYMR90~1\AppData\Local\Temp\ccyjM0JL.s:23775  .debug_str:000000000000edf0 .LASF2073
C:\Users\CYMR90~1\AppData\Local\Temp\ccyjM0JL.s:23013  .debug_str:000000000000bdc3 .LASF2074
C:\Users\CYMR90~1\AppData\Local\Temp\ccyjM0JL.s:31194  .debug_str:000000000002c436 .LASF2075
C:\Users\CYMR90~1\AppData\Local\Temp\ccyjM0JL.s:22981  .debug_str:000000000000bba7 .LASF2076
C:\Users\CYMR90~1\AppData\Local\Temp\ccyjM0JL.s:30460  .debug_str:00000000000296e7 .LASF2077
C:\Users\CYMR90~1\AppData\Local\Temp\ccyjM0JL.s:21349  .debug_str:000000000000532d .LASF2078
C:\Users\CYMR90~1\AppData\Local\Temp\ccyjM0JL.s:20457  .debug_str:0000000000001a69 .LASF2079
C:\Users\CYMR90~1\AppData\Local\Temp\ccyjM0JL.s:29016  .debug_str:0000000000023874 .LASF2080
C:\Users\CYMR90~1\AppData\Local\Temp\ccyjM0JL.s:30346  .debug_str:000000000002901d .LASF2081
C:\Users\CYMR90~1\AppData\Local\Temp\ccyjM0JL.s:30438  .debug_str:00000000000295ca .LASF2082
C:\Users\CYMR90~1\AppData\Local\Temp\ccyjM0JL.s:24629  .debug_str:0000000000012456 .LASF2083
C:\Users\CYMR90~1\AppData\Local\Temp\ccyjM0JL.s:22063  .debug_str:0000000000007fd0 .LASF2084
C:\Users\CYMR90~1\AppData\Local\Temp\ccyjM0JL.s:28900  .debug_str:00000000000231d3 .LASF2085
C:\Users\CYMR90~1\AppData\Local\Temp\ccyjM0JL.s:20353  .debug_str:000000000000138d .LASF2086
C:\Users\CYMR90~1\AppData\Local\Temp\ccyjM0JL.s:20201  .debug_str:00000000000009f7 .LASF2087
C:\Users\CYMR90~1\AppData\Local\Temp\ccyjM0JL.s:26860  .debug_str:000000000001b436 .LASF2088
C:\Users\CYMR90~1\AppData\Local\Temp\ccyjM0JL.s:27942  .debug_str:000000000001f7b2 .LASF2089
C:\Users\CYMR90~1\AppData\Local\Temp\ccyjM0JL.s:25828  .debug_str:0000000000017158 .LASF2090
C:\Users\CYMR90~1\AppData\Local\Temp\ccyjM0JL.s:24561  .debug_str:0000000000011f7f .LASF2091
C:\Users\CYMR90~1\AppData\Local\Temp\ccyjM0JL.s:25924  .debug_str:00000000000176bc .LASF2092
C:\Users\CYMR90~1\AppData\Local\Temp\ccyjM0JL.s:25067  .debug_str:0000000000014077 .LASF2093
C:\Users\CYMR90~1\AppData\Local\Temp\ccyjM0JL.s:31188  .debug_str:000000000002c3e2 .LASF2094
C:\Users\CYMR90~1\AppData\Local\Temp\ccyjM0JL.s:21091  .debug_str:0000000000004292 .LASF2095
C:\Users\CYMR90~1\AppData\Local\Temp\ccyjM0JL.s:22525  .debug_str:0000000000009d14 .LASF2096
C:\Users\CYMR90~1\AppData\Local\Temp\ccyjM0JL.s:20855  .debug_str:00000000000032c3 .LASF2097
C:\Users\CYMR90~1\AppData\Local\Temp\ccyjM0JL.s:29628  .debug_str:0000000000026185 .LASF2098
C:\Users\CYMR90~1\AppData\Local\Temp\ccyjM0JL.s:24101  .debug_str:0000000000010216 .LASF2099
C:\Users\CYMR90~1\AppData\Local\Temp\ccyjM0JL.s:22889  .debug_str:000000000000b50c .LASF2100
C:\Users\CYMR90~1\AppData\Local\Temp\ccyjM0JL.s:21671  .debug_str:0000000000006627 .LASF2101
C:\Users\CYMR90~1\AppData\Local\Temp\ccyjM0JL.s:20767  .debug_str:0000000000002d4a .LASF2102
C:\Users\CYMR90~1\AppData\Local\Temp\ccyjM0JL.s:22563  .debug_str:0000000000009f4a .LASF2103
C:\Users\CYMR90~1\AppData\Local\Temp\ccyjM0JL.s:31144  .debug_str:000000000002c0a2 .LASF2104
C:\Users\CYMR90~1\AppData\Local\Temp\ccyjM0JL.s:25922  .debug_str:0000000000017698 .LASF2105
C:\Users\CYMR90~1\AppData\Local\Temp\ccyjM0JL.s:20877  .debug_str:0000000000003439 .LASF2106
C:\Users\CYMR90~1\AppData\Local\Temp\ccyjM0JL.s:30406  .debug_str:00000000000293c5 .LASF2107
C:\Users\CYMR90~1\AppData\Local\Temp\ccyjM0JL.s:24597  .debug_str:0000000000012260 .LASF2108
C:\Users\CYMR90~1\AppData\Local\Temp\ccyjM0JL.s:20893  .debug_str:0000000000003551 .LASF2109
C:\Users\CYMR90~1\AppData\Local\Temp\ccyjM0JL.s:23343  .debug_str:000000000000d312 .LASF2110
C:\Users\CYMR90~1\AppData\Local\Temp\ccyjM0JL.s:25872  .debug_str:00000000000173d1 .LASF2111
C:\Users\CYMR90~1\AppData\Local\Temp\ccyjM0JL.s:27962  .debug_str:000000000001f8cd .LASF2112
C:\Users\CYMR90~1\AppData\Local\Temp\ccyjM0JL.s:30566  .debug_str:0000000000029d6b .LASF2113
C:\Users\CYMR90~1\AppData\Local\Temp\ccyjM0JL.s:23829  .debug_str:000000000000f0b6 .LASF2114
C:\Users\CYMR90~1\AppData\Local\Temp\ccyjM0JL.s:24959  .debug_str:00000000000139fc .LASF2115
C:\Users\CYMR90~1\AppData\Local\Temp\ccyjM0JL.s:26840  .debug_str:000000000001b2d9 .LASF2116
C:\Users\CYMR90~1\AppData\Local\Temp\ccyjM0JL.s:25149  .debug_str:00000000000145a8 .LASF2117
C:\Users\CYMR90~1\AppData\Local\Temp\ccyjM0JL.s:29248  .debug_str:0000000000024789 .LASF2118
C:\Users\CYMR90~1\AppData\Local\Temp\ccyjM0JL.s:27904  .debug_str:000000000001f579 .LASF2119
C:\Users\CYMR90~1\AppData\Local\Temp\ccyjM0JL.s:20723  .debug_str:0000000000002a70 .LASF2120
C:\Users\CYMR90~1\AppData\Local\Temp\ccyjM0JL.s:28348  .debug_str:0000000000021048 .LASF2121
C:\Users\CYMR90~1\AppData\Local\Temp\ccyjM0JL.s:22137  .debug_str:000000000000853a .LASF2122
C:\Users\CYMR90~1\AppData\Local\Temp\ccyjM0JL.s:25009  .debug_str:0000000000013d01 .LASF2123
C:\Users\CYMR90~1\AppData\Local\Temp\ccyjM0JL.s:27650  .debug_str:000000000001e5ec .LASF2124
C:\Users\CYMR90~1\AppData\Local\Temp\ccyjM0JL.s:24859  .debug_str:000000000001338c .LASF2125
C:\Users\CYMR90~1\AppData\Local\Temp\ccyjM0JL.s:25992  .debug_str:0000000000017af7 .LASF2126
C:\Users\CYMR90~1\AppData\Local\Temp\ccyjM0JL.s:29946  .debug_str:0000000000027535 .LASF2127
C:\Users\CYMR90~1\AppData\Local\Temp\ccyjM0JL.s:28462  .debug_str:0000000000021778 .LASF2128
C:\Users\CYMR90~1\AppData\Local\Temp\ccyjM0JL.s:24309  .debug_str:0000000000010f86 .LASF2129
C:\Users\CYMR90~1\AppData\Local\Temp\ccyjM0JL.s:28364  .debug_str:0000000000021122 .LASF2130
C:\Users\CYMR90~1\AppData\Local\Temp\ccyjM0JL.s:26216  .debug_str:0000000000018819 .LASF2131
C:\Users\CYMR90~1\AppData\Local\Temp\ccyjM0JL.s:28184  .debug_str:0000000000020632 .LASF2132
C:\Users\CYMR90~1\AppData\Local\Temp\ccyjM0JL.s:29778  .debug_str:0000000000026ae1 .LASF2133
C:\Users\CYMR90~1\AppData\Local\Temp\ccyjM0JL.s:20863  .debug_str:0000000000003368 .LASF2134
C:\Users\CYMR90~1\AppData\Local\Temp\ccyjM0JL.s:20603  .debug_str:00000000000022c1 .LASF2135
C:\Users\CYMR90~1\AppData\Local\Temp\ccyjM0JL.s:26374  .debug_str:0000000000019369 .LASF2136
C:\Users\CYMR90~1\AppData\Local\Temp\ccyjM0JL.s:30676  .debug_str:000000000002a3b6 .LASF2137
C:\Users\CYMR90~1\AppData\Local\Temp\ccyjM0JL.s:22139  .debug_str:000000000000855f .LASF2138
C:\Users\CYMR90~1\AppData\Local\Temp\ccyjM0JL.s:28560  .debug_str:0000000000021d83 .LASF2139
C:\Users\CYMR90~1\AppData\Local\Temp\ccyjM0JL.s:24409  .debug_str:000000000001154c .LASF2140
C:\Users\CYMR90~1\AppData\Local\Temp\ccyjM0JL.s:23889  .debug_str:000000000000f490 .LASF2141
C:\Users\CYMR90~1\AppData\Local\Temp\ccyjM0JL.s:27922  .debug_str:000000000001f686 .LASF2142
C:\Users\CYMR90~1\AppData\Local\Temp\ccyjM0JL.s:28486  .debug_str:00000000000218dc .LASF2143
C:\Users\CYMR90~1\AppData\Local\Temp\ccyjM0JL.s:24697  .debug_str:00000000000128fa .LASF2144
C:\Users\CYMR90~1\AppData\Local\Temp\ccyjM0JL.s:20895  .debug_str:0000000000003578 .LASF2145
C:\Users\CYMR90~1\AppData\Local\Temp\ccyjM0JL.s:20055  .debug_str:000000000000015d .LASF2146
C:\Users\CYMR90~1\AppData\Local\Temp\ccyjM0JL.s:20481  .debug_str:0000000000001bdc .LASF2147
C:\Users\CYMR90~1\AppData\Local\Temp\ccyjM0JL.s:25930  .debug_str:0000000000017712 .LASF2148
C:\Users\CYMR90~1\AppData\Local\Temp\ccyjM0JL.s:25389  .debug_str:000000000001540e .LASF2149
C:\Users\CYMR90~1\AppData\Local\Temp\ccyjM0JL.s:29968  .debug_str:000000000002773d .LASF2150
C:\Users\CYMR90~1\AppData\Local\Temp\ccyjM0JL.s:24961  .debug_str:0000000000013a23 .LASF2151
C:\Users\CYMR90~1\AppData\Local\Temp\ccyjM0JL.s:23513  .debug_str:000000000000ddbc .LASF2152
C:\Users\CYMR90~1\AppData\Local\Temp\ccyjM0JL.s:30522  .debug_str:0000000000029b01 .LASF2153
C:\Users\CYMR90~1\AppData\Local\Temp\ccyjM0JL.s:25709  .debug_str:00000000000167a1 .LASF2154
C:\Users\CYMR90~1\AppData\Local\Temp\ccyjM0JL.s:23551  .debug_str:000000000000e077 .LASF2155
C:\Users\CYMR90~1\AppData\Local\Temp\ccyjM0JL.s:20963  .debug_str:00000000000039ec .LASF2156
C:\Users\CYMR90~1\AppData\Local\Temp\ccyjM0JL.s:29934  .debug_str:000000000002744d .LASF2157
C:\Users\CYMR90~1\AppData\Local\Temp\ccyjM0JL.s:24345  .debug_str:00000000000111ad .LASF2158
C:\Users\CYMR90~1\AppData\Local\Temp\ccyjM0JL.s:26278  .debug_str:0000000000018c15 .LASF2159
C:\Users\CYMR90~1\AppData\Local\Temp\ccyjM0JL.s:29732  .debug_str:00000000000267de .LASF2160
C:\Users\CYMR90~1\AppData\Local\Temp\ccyjM0JL.s:22313  .debug_str:0000000000009035 .LASF2161
C:\Users\CYMR90~1\AppData\Local\Temp\ccyjM0JL.s:30658  .debug_str:000000000002a2aa .LASF2162
C:\Users\CYMR90~1\AppData\Local\Temp\ccyjM0JL.s:31374  .debug_str:000000000002cfcc .LASF2163
C:\Users\CYMR90~1\AppData\Local\Temp\ccyjM0JL.s:20997  .debug_str:0000000000003c1b .LASF2164
C:\Users\CYMR90~1\AppData\Local\Temp\ccyjM0JL.s:28998  .debug_str:000000000002373c .LASF2165
C:\Users\CYMR90~1\AppData\Local\Temp\ccyjM0JL.s:26358  .debug_str:000000000001928a .LASF2166
C:\Users\CYMR90~1\AppData\Local\Temp\ccyjM0JL.s:29966  .debug_str:0000000000027725 .LASF2167
C:\Users\CYMR90~1\AppData\Local\Temp\ccyjM0JL.s:22169  .debug_str:0000000000008707 .LASF2168
C:\Users\CYMR90~1\AppData\Local\Temp\ccyjM0JL.s:27472  .debug_str:000000000001db60 .LASF2169
C:\Users\CYMR90~1\AppData\Local\Temp\ccyjM0JL.s:25653  .debug_str:0000000000016400 .LASF2170
C:\Users\CYMR90~1\AppData\Local\Temp\ccyjM0JL.s:23663  .debug_str:000000000000e711 .LASF2171
C:\Users\CYMR90~1\AppData\Local\Temp\ccyjM0JL.s:23803  .debug_str:000000000000ef51 .LASF2172
C:\Users\CYMR90~1\AppData\Local\Temp\ccyjM0JL.s:27926  .debug_str:000000000001f6bd .LASF2173
C:\Users\CYMR90~1\AppData\Local\Temp\ccyjM0JL.s:25591  .debug_str:0000000000016017 .LASF2174
C:\Users\CYMR90~1\AppData\Local\Temp\ccyjM0JL.s:24555  .debug_str:0000000000011f3d .LASF2175
C:\Users\CYMR90~1\AppData\Local\Temp\ccyjM0JL.s:27718  .debug_str:000000000001ea37 .LASF2176
C:\Users\CYMR90~1\AppData\Local\Temp\ccyjM0JL.s:22891  .debug_str:000000000000b51b .LASF2177
C:\Users\CYMR90~1\AppData\Local\Temp\ccyjM0JL.s:28636  .debug_str:000000000002221c .LASF2178
C:\Users\CYMR90~1\AppData\Local\Temp\ccyjM0JL.s:22659  .debug_str:000000000000a5ae .LASF2179
C:\Users\CYMR90~1\AppData\Local\Temp\ccyjM0JL.s:22013  .debug_str:0000000000007c1e .LASF2180
C:\Users\CYMR90~1\AppData\Local\Temp\ccyjM0JL.s:29648  .debug_str:00000000000262db .LASF2181
C:\Users\CYMR90~1\AppData\Local\Temp\ccyjM0JL.s:23693  .debug_str:000000000000e92c .LASF2182
C:\Users\CYMR90~1\AppData\Local\Temp\ccyjM0JL.s:25627  .debug_str:0000000000016277 .LASF2183
C:\Users\CYMR90~1\AppData\Local\Temp\ccyjM0JL.s:21117  .debug_str:00000000000043f3 .LASF2184
C:\Users\CYMR90~1\AppData\Local\Temp\ccyjM0JL.s:23973  .debug_str:000000000000fa29 .LASF2185
C:\Users\CYMR90~1\AppData\Local\Temp\ccyjM0JL.s:30930  .debug_str:000000000002b2ed .LASF2186
C:\Users\CYMR90~1\AppData\Local\Temp\ccyjM0JL.s:27726  .debug_str:000000000001eabe .LASF2187
C:\Users\CYMR90~1\AppData\Local\Temp\ccyjM0JL.s:22509  .debug_str:0000000000009c42 .LASF2188
C:\Users\CYMR90~1\AppData\Local\Temp\ccyjM0JL.s:26690  .debug_str:000000000001a928 .LASF2189
C:\Users\CYMR90~1\AppData\Local\Temp\ccyjM0JL.s:21053  .debug_str:0000000000003f5b .LASF2190
C:\Users\CYMR90~1\AppData\Local\Temp\ccyjM0JL.s:22611  .debug_str:000000000000a267 .LASF2191
C:\Users\CYMR90~1\AppData\Local\Temp\ccyjM0JL.s:27804  .debug_str:000000000001ef0f .LASF2192
C:\Users\CYMR90~1\AppData\Local\Temp\ccyjM0JL.s:20979  .debug_str:0000000000003adf .LASF2193
C:\Users\CYMR90~1\AppData\Local\Temp\ccyjM0JL.s:24439  .debug_str:0000000000011731 .LASF2194
C:\Users\CYMR90~1\AppData\Local\Temp\ccyjM0JL.s:29198  .debug_str:00000000000243bd .LASF2195
C:\Users\CYMR90~1\AppData\Local\Temp\ccyjM0JL.s:21961  .debug_str:000000000000789e .LASF2196
C:\Users\CYMR90~1\AppData\Local\Temp\ccyjM0JL.s:25319  .debug_str:0000000000014fee .LASF2197
C:\Users\CYMR90~1\AppData\Local\Temp\ccyjM0JL.s:22239  .debug_str:0000000000008b74 .LASF2198
C:\Users\CYMR90~1\AppData\Local\Temp\ccyjM0JL.s:28178  .debug_str:00000000000205e9 .LASF2199
C:\Users\CYMR90~1\AppData\Local\Temp\ccyjM0JL.s:22753  .debug_str:000000000000ac0e .LASF2200
C:\Users\CYMR90~1\AppData\Local\Temp\ccyjM0JL.s:28704  .debug_str:000000000002260f .LASF2201
C:\Users\CYMR90~1\AppData\Local\Temp\ccyjM0JL.s:28008  .debug_str:000000000001fba4 .LASF2202
C:\Users\CYMR90~1\AppData\Local\Temp\ccyjM0JL.s:29214  .debug_str:0000000000024508 .LASF2203
C:\Users\CYMR90~1\AppData\Local\Temp\ccyjM0JL.s:29804  .debug_str:0000000000026c72 .LASF2204
C:\Users\CYMR90~1\AppData\Local\Temp\ccyjM0JL.s:29632  .debug_str:00000000000261b8 .LASF2205
C:\Users\CYMR90~1\AppData\Local\Temp\ccyjM0JL.s:29266  .debug_str:000000000002486a .LASF2206
C:\Users\CYMR90~1\AppData\Local\Temp\ccyjM0JL.s:28314  .debug_str:0000000000020e5f .LASF2207
C:\Users\CYMR90~1\AppData\Local\Temp\ccyjM0JL.s:24153  .debug_str:0000000000010516 .LASF2208
C:\Users\CYMR90~1\AppData\Local\Temp\ccyjM0JL.s:26322  .debug_str:0000000000018f71 .LASF2209
C:\Users\CYMR90~1\AppData\Local\Temp\ccyjM0JL.s:28156  .debug_str:0000000000020453 .LASF2210
C:\Users\CYMR90~1\AppData\Local\Temp\ccyjM0JL.s:23027  .debug_str:000000000000bebf .LASF2211
C:\Users\CYMR90~1\AppData\Local\Temp\ccyjM0JL.s:21731  .debug_str:00000000000069e7 .LASF2212
C:\Users\CYMR90~1\AppData\Local\Temp\ccyjM0JL.s:24333  .debug_str:00000000000110d6 .LASF2213
C:\Users\CYMR90~1\AppData\Local\Temp\ccyjM0JL.s:31196  .debug_str:000000000002c447 .LASF2214
C:\Users\CYMR90~1\AppData\Local\Temp\ccyjM0JL.s:25053  .debug_str:0000000000013f8c .LASF2215
C:\Users\CYMR90~1\AppData\Local\Temp\ccyjM0JL.s:22711  .debug_str:000000000000a8aa .LASF2216
C:\Users\CYMR90~1\AppData\Local\Temp\ccyjM0JL.s:26942  .debug_str:000000000001b911 .LASF2217
C:\Users\CYMR90~1\AppData\Local\Temp\ccyjM0JL.s:26250  .debug_str:0000000000018a62 .LASF2218
C:\Users\CYMR90~1\AppData\Local\Temp\ccyjM0JL.s:30964  .debug_str:000000000002b4c7 .LASF2219
C:\Users\CYMR90~1\AppData\Local\Temp\ccyjM0JL.s:27498  .debug_str:000000000001dcdd .LASF2220
C:\Users\CYMR90~1\AppData\Local\Temp\ccyjM0JL.s:26336  .debug_str:0000000000019036 .LASF2221
C:\Users\CYMR90~1\AppData\Local\Temp\ccyjM0JL.s:24735  .debug_str:0000000000012b6e .LASF2222
C:\Users\CYMR90~1\AppData\Local\Temp\ccyjM0JL.s:26986  .debug_str:000000000001bb8a .LASF2223
C:\Users\CYMR90~1\AppData\Local\Temp\ccyjM0JL.s:29624  .debug_str:000000000002614a .LASF2224
C:\Users\CYMR90~1\AppData\Local\Temp\ccyjM0JL.s:20079  .debug_str:00000000000002d9 .LASF2225
C:\Users\CYMR90~1\AppData\Local\Temp\ccyjM0JL.s:21195  .debug_str:0000000000004942 .LASF2226
C:\Users\CYMR90~1\AppData\Local\Temp\ccyjM0JL.s:26522  .debug_str:0000000000019d30 .LASF2227
C:\Users\CYMR90~1\AppData\Local\Temp\ccyjM0JL.s:25798  .debug_str:0000000000016f80 .LASF2228
C:\Users\CYMR90~1\AppData\Local\Temp\ccyjM0JL.s:27552  .debug_str:000000000001e021 .LASF2229
C:\Users\CYMR90~1\AppData\Local\Temp\ccyjM0JL.s:21163  .debug_str:00000000000046f9 .LASF2230
C:\Users\CYMR90~1\AppData\Local\Temp\ccyjM0JL.s:20265  .debug_str:0000000000000dfa .LASF2231
C:\Users\CYMR90~1\AppData\Local\Temp\ccyjM0JL.s:20467  .debug_str:0000000000001b04 .LASF2232
C:\Users\CYMR90~1\AppData\Local\Temp\ccyjM0JL.s:26510  .debug_str:0000000000019c6c .LASF2233
C:\Users\CYMR90~1\AppData\Local\Temp\ccyjM0JL.s:23205  .debug_str:000000000000ca53 .LASF2234
C:\Users\CYMR90~1\AppData\Local\Temp\ccyjM0JL.s:21397  .debug_str:0000000000005628 .LASF2235
C:\Users\CYMR90~1\AppData\Local\Temp\ccyjM0JL.s:31150  .debug_str:000000000002c0ff .LASF2236
C:\Users\CYMR90~1\AppData\Local\Temp\ccyjM0JL.s:23667  .debug_str:000000000000e74c .LASF2237
C:\Users\CYMR90~1\AppData\Local\Temp\ccyjM0JL.s:28438  .debug_str:00000000000215fa .LASF2238
C:\Users\CYMR90~1\AppData\Local\Temp\ccyjM0JL.s:27452  .debug_str:000000000001da0a .LASF2239
C:\Users\CYMR90~1\AppData\Local\Temp\ccyjM0JL.s:27380  .debug_str:000000000001d572 .LASF2240
C:\Users\CYMR90~1\AppData\Local\Temp\ccyjM0JL.s:20129  .debug_str:00000000000005c7 .LASF2241
C:\Users\CYMR90~1\AppData\Local\Temp\ccyjM0JL.s:28456  .debug_str:0000000000021724 .LASF2242
C:\Users\CYMR90~1\AppData\Local\Temp\ccyjM0JL.s:30010  .debug_str:0000000000027998 .LASF2243
C:\Users\CYMR90~1\AppData\Local\Temp\ccyjM0JL.s:24577  .debug_str:000000000001206e .LASF2244
C:\Users\CYMR90~1\AppData\Local\Temp\ccyjM0JL.s:25808  .debug_str:000000000001700e .LASF2245
C:\Users\CYMR90~1\AppData\Local\Temp\ccyjM0JL.s:22701  .debug_str:000000000000a7c7 .LASF2246
C:\Users\CYMR90~1\AppData\Local\Temp\ccyjM0JL.s:25385  .debug_str:00000000000153c2 .LASF2247
C:\Users\CYMR90~1\AppData\Local\Temp\ccyjM0JL.s:20897  .debug_str:000000000000359f .LASF2248
C:\Users\CYMR90~1\AppData\Local\Temp\ccyjM0JL.s:27798  .debug_str:000000000001eeb5 .LASF2249
C:\Users\CYMR90~1\AppData\Local\Temp\ccyjM0JL.s:26918  .debug_str:000000000001b776 .LASF2250
C:\Users\CYMR90~1\AppData\Local\Temp\ccyjM0JL.s:25968  .debug_str:0000000000017933 .LASF2251
C:\Users\CYMR90~1\AppData\Local\Temp\ccyjM0JL.s:29222  .debug_str:00000000000245a1 .LASF2252
C:\Users\CYMR90~1\AppData\Local\Temp\ccyjM0JL.s:24741  .debug_str:0000000000012bbd .LASF2253
C:\Users\CYMR90~1\AppData\Local\Temp\ccyjM0JL.s:23477  .debug_str:000000000000dbcb .LASF2254
C:\Users\CYMR90~1\AppData\Local\Temp\ccyjM0JL.s:22225  .debug_str:0000000000008a95 .LASF2255
C:\Users\CYMR90~1\AppData\Local\Temp\ccyjM0JL.s:24127  .debug_str:00000000000103b2 .LASF2256
C:\Users\CYMR90~1\AppData\Local\Temp\ccyjM0JL.s:27198  .debug_str:000000000001c87b .LASF2257
C:\Users\CYMR90~1\AppData\Local\Temp\ccyjM0JL.s:24429  .debug_str:000000000001168f .LASF2258
C:\Users\CYMR90~1\AppData\Local\Temp\ccyjM0JL.s:24657  .debug_str:000000000001262c .LASF2259
C:\Users\CYMR90~1\AppData\Local\Temp\ccyjM0JL.s:24329  .debug_str:0000000000011094 .LASF2260
C:\Users\CYMR90~1\AppData\Local\Temp\ccyjM0JL.s:25431  .debug_str:0000000000015657 .LASF2261
C:\Users\CYMR90~1\AppData\Local\Temp\ccyjM0JL.s:20585  .debug_str:00000000000021b6 .LASF2262
C:\Users\CYMR90~1\AppData\Local\Temp\ccyjM0JL.s:23715  .debug_str:000000000000ea63 .LASF2263
C:\Users\CYMR90~1\AppData\Local\Temp\ccyjM0JL.s:27574  .debug_str:000000000001e183 .LASF2264
C:\Users\CYMR90~1\AppData\Local\Temp\ccyjM0JL.s:26610  .debug_str:000000000001a24d .LASF2265
C:\Users\CYMR90~1\AppData\Local\Temp\ccyjM0JL.s:23561  .debug_str:000000000000e0fc .LASF2266
C:\Users\CYMR90~1\AppData\Local\Temp\ccyjM0JL.s:22903  .debug_str:000000000000b672 .LASF2267
C:\Users\CYMR90~1\AppData\Local\Temp\ccyjM0JL.s:25976  .debug_str:00000000000179ed .LASF2268
C:\Users\CYMR90~1\AppData\Local\Temp\ccyjM0JL.s:30876  .debug_str:000000000002afb8 .LASF2269
C:\Users\CYMR90~1\AppData\Local\Temp\ccyjM0JL.s:21217  .debug_str:0000000000004b26 .LASF2270
C:\Users\CYMR90~1\AppData\Local\Temp\ccyjM0JL.s:27072  .debug_str:000000000001c129 .LASF2271
C:\Users\CYMR90~1\AppData\Local\Temp\ccyjM0JL.s:27474  .debug_str:000000000001db78 .LASF2272
C:\Users\CYMR90~1\AppData\Local\Temp\ccyjM0JL.s:25271  .debug_str:0000000000014d0d .LASF2273
C:\Users\CYMR90~1\AppData\Local\Temp\ccyjM0JL.s:30222  .debug_str:0000000000028832 .LASF2274
C:\Users\CYMR90~1\AppData\Local\Temp\ccyjM0JL.s:21401  .debug_str:000000000000565c .LASF2275
C:\Users\CYMR90~1\AppData\Local\Temp\ccyjM0JL.s:26544  .debug_str:0000000000019e9b .LASF2276
C:\Users\CYMR90~1\AppData\Local\Temp\ccyjM0JL.s:25860  .debug_str:000000000001731a .LASF2277
C:\Users\CYMR90~1\AppData\Local\Temp\ccyjM0JL.s:27254  .debug_str:000000000001cc88 .LASF2278
C:\Users\CYMR90~1\AppData\Local\Temp\ccyjM0JL.s:26772  .debug_str:000000000001ae06 .LASF2279
C:\Users\CYMR90~1\AppData\Local\Temp\ccyjM0JL.s:30028  .debug_str:0000000000027a96 .LASF2280
C:\Users\CYMR90~1\AppData\Local\Temp\ccyjM0JL.s:24335  .debug_str:00000000000110fe .LASF2281
C:\Users\CYMR90~1\AppData\Local\Temp\ccyjM0JL.s:28600  .debug_str:0000000000022016 .LASF2282
C:\Users\CYMR90~1\AppData\Local\Temp\ccyjM0JL.s:30534  .debug_str:0000000000029b8b .LASF2283
C:\Users\CYMR90~1\AppData\Local\Temp\ccyjM0JL.s:24547  .debug_str:0000000000011e92 .LASF2284
C:\Users\CYMR90~1\AppData\Local\Temp\ccyjM0JL.s:31018  .debug_str:000000000002b869 .LASF2285
C:\Users\CYMR90~1\AppData\Local\Temp\ccyjM0JL.s:27670  .debug_str:000000000001e736 .LASF2286
C:\Users\CYMR90~1\AppData\Local\Temp\ccyjM0JL.s:21299  .debug_str:0000000000005029 .LASF2287
C:\Users\CYMR90~1\AppData\Local\Temp\ccyjM0JL.s:30396  .debug_str:000000000002933d .LASF2288
C:\Users\CYMR90~1\AppData\Local\Temp\ccyjM0JL.s:30980  .debug_str:000000000002b5f0 .LASF2289
C:\Users\CYMR90~1\AppData\Local\Temp\ccyjM0JL.s:23543  .debug_str:000000000000dfe0 .LASF2290
C:\Users\CYMR90~1\AppData\Local\Temp\ccyjM0JL.s:23517  .debug_str:000000000000ddf2 .LASF2291
C:\Users\CYMR90~1\AppData\Local\Temp\ccyjM0JL.s:22883  .debug_str:000000000000b496 .LASF2292
C:\Users\CYMR90~1\AppData\Local\Temp\ccyjM0JL.s:25065  .debug_str:000000000001404c .LASF2293
C:\Users\CYMR90~1\AppData\Local\Temp\ccyjM0JL.s:30236  .debug_str:0000000000028927 .LASF2294
C:\Users\CYMR90~1\AppData\Local\Temp\ccyjM0JL.s:23861  .debug_str:000000000000f2b7 .LASF2295
C:\Users\CYMR90~1\AppData\Local\Temp\ccyjM0JL.s:27018  .debug_str:000000000001bda6 .LASF2296
C:\Users\CYMR90~1\AppData\Local\Temp\ccyjM0JL.s:29358  .debug_str:0000000000024e91 .LASF2297
C:\Users\CYMR90~1\AppData\Local\Temp\ccyjM0JL.s:23475  .debug_str:000000000000dba4 .LASF2298
C:\Users\CYMR90~1\AppData\Local\Temp\ccyjM0JL.s:28490  .debug_str:0000000000021917 .LASF2299
C:\Users\CYMR90~1\AppData\Local\Temp\ccyjM0JL.s:20341  .debug_str:00000000000012e1 .LASF2300
C:\Users\CYMR90~1\AppData\Local\Temp\ccyjM0JL.s:26716  .debug_str:000000000001aa9c .LASF2301
C:\Users\CYMR90~1\AppData\Local\Temp\ccyjM0JL.s:27218  .debug_str:000000000001ca5c .LASF2302
C:\Users\CYMR90~1\AppData\Local\Temp\ccyjM0JL.s:20841  .debug_str:0000000000003216 .LASF2303
C:\Users\CYMR90~1\AppData\Local\Temp\ccyjM0JL.s:29646  .debug_str:00000000000262b2 .LASF2304
C:\Users\CYMR90~1\AppData\Local\Temp\ccyjM0JL.s:30472  .debug_str:000000000002979a .LASF2305
C:\Users\CYMR90~1\AppData\Local\Temp\ccyjM0JL.s:25105  .debug_str:00000000000142ea .LASF2306
C:\Users\CYMR90~1\AppData\Local\Temp\ccyjM0JL.s:30186  .debug_str:0000000000028567 .LASF2307
C:\Users\CYMR90~1\AppData\Local\Temp\ccyjM0JL.s:21919  .debug_str:00000000000075ec .LASF2308
C:\Users\CYMR90~1\AppData\Local\Temp\ccyjM0JL.s:28262  .debug_str:0000000000020b2f .LASF2309
C:\Users\CYMR90~1\AppData\Local\Temp\ccyjM0JL.s:21983  .debug_str:00000000000079fc .LASF2310
C:\Users\CYMR90~1\AppData\Local\Temp\ccyjM0JL.s:27036  .debug_str:000000000001bec1 .LASF2311
C:\Users\CYMR90~1\AppData\Local\Temp\ccyjM0JL.s:30232  .debug_str:00000000000288e6 .LASF2312
C:\Users\CYMR90~1\AppData\Local\Temp\ccyjM0JL.s:23751  .debug_str:000000000000ec9f .LASF2313
C:\Users\CYMR90~1\AppData\Local\Temp\ccyjM0JL.s:21229  .debug_str:0000000000004be2 .LASF2314
C:\Users\CYMR90~1\AppData\Local\Temp\ccyjM0JL.s:20759  .debug_str:0000000000002cee .LASF2315
C:\Users\CYMR90~1\AppData\Local\Temp\ccyjM0JL.s:31454  .debug_str:000000000002d530 .LASF2316
C:\Users\CYMR90~1\AppData\Local\Temp\ccyjM0JL.s:21589  .debug_str:0000000000006142 .LASF2317
C:\Users\CYMR90~1\AppData\Local\Temp\ccyjM0JL.s:25231  .debug_str:0000000000014ab5 .LASF2318
C:\Users\CYMR90~1\AppData\Local\Temp\ccyjM0JL.s:31046  .debug_str:000000000002ba25 .LASF2319
C:\Users\CYMR90~1\AppData\Local\Temp\ccyjM0JL.s:22677  .debug_str:000000000000a698 .LASF2320
C:\Users\CYMR90~1\AppData\Local\Temp\ccyjM0JL.s:26210  .debug_str:00000000000187bb .LASF2321
C:\Users\CYMR90~1\AppData\Local\Temp\ccyjM0JL.s:20621  .debug_str:00000000000023df .LASF2322
C:\Users\CYMR90~1\AppData\Local\Temp\ccyjM0JL.s:25141  .debug_str:0000000000014536 .LASF2323
C:\Users\CYMR90~1\AppData\Local\Temp\ccyjM0JL.s:24229  .debug_str:0000000000010a3b .LASF2324
C:\Users\CYMR90~1\AppData\Local\Temp\ccyjM0JL.s:23135  .debug_str:000000000000c598 .LASF2325
C:\Users\CYMR90~1\AppData\Local\Temp\ccyjM0JL.s:24175  .debug_str:0000000000010655 .LASF2326
C:\Users\CYMR90~1\AppData\Local\Temp\ccyjM0JL.s:28392  .debug_str:00000000000212a7 .LASF2327
C:\Users\CYMR90~1\AppData\Local\Temp\ccyjM0JL.s:29828  .debug_str:0000000000026df5 .LASF2328
C:\Users\CYMR90~1\AppData\Local\Temp\ccyjM0JL.s:24187  .debug_str:0000000000010713 .LASF2329
C:\Users\CYMR90~1\AppData\Local\Temp\ccyjM0JL.s:24589  .debug_str:00000000000121e1 .LASF2330
C:\Users\CYMR90~1\AppData\Local\Temp\ccyjM0JL.s:23643  .debug_str:000000000000e5de .LASF2331
C:\Users\CYMR90~1\AppData\Local\Temp\ccyjM0JL.s:21603  .debug_str:000000000000623d .LASF2332
C:\Users\CYMR90~1\AppData\Local\Temp\ccyjM0JL.s:20667  .debug_str:0000000000002685 .LASF2333
C:\Users\CYMR90~1\AppData\Local\Temp\ccyjM0JL.s:27438  .debug_str:000000000001d92b .LASF2334
C:\Users\CYMR90~1\AppData\Local\Temp\ccyjM0JL.s:29706  .debug_str:0000000000026636 .LASF2335
C:\Users\CYMR90~1\AppData\Local\Temp\ccyjM0JL.s:28038  .debug_str:000000000001fd7e .LASF2336
C:\Users\CYMR90~1\AppData\Local\Temp\ccyjM0JL.s:28054  .debug_str:000000000001fe56 .LASF2337
C:\Users\CYMR90~1\AppData\Local\Temp\ccyjM0JL.s:29116  .debug_str:0000000000023e5b .LASF2338
C:\Users\CYMR90~1\AppData\Local\Temp\ccyjM0JL.s:29936  .debug_str:0000000000027463 .LASF2339
C:\Users\CYMR90~1\AppData\Local\Temp\ccyjM0JL.s:27138  .debug_str:000000000001c52d .LASF2340
C:\Users\CYMR90~1\AppData\Local\Temp\ccyjM0JL.s:27310  .debug_str:000000000001d0be .LASF2341
C:\Users\CYMR90~1\AppData\Local\Temp\ccyjM0JL.s:22191  .debug_str:0000000000008854 .LASF2342
C:\Users\CYMR90~1\AppData\Local\Temp\ccyjM0JL.s:24945  .debug_str:000000000001394c .LASF2343
C:\Users\CYMR90~1\AppData\Local\Temp\ccyjM0JL.s:28542  .debug_str:0000000000021c43 .LASF2344
C:\Users\CYMR90~1\AppData\Local\Temp\ccyjM0JL.s:30840  .debug_str:000000000002ad9f .LASF2345
C:\Users\CYMR90~1\AppData\Local\Temp\ccyjM0JL.s:29344  .debug_str:0000000000024da2 .LASF2346
C:\Users\CYMR90~1\AppData\Local\Temp\ccyjM0JL.s:21757  .debug_str:0000000000006b74 .LASF2347
C:\Users\CYMR90~1\AppData\Local\Temp\ccyjM0JL.s:24081  .debug_str:00000000000100a8 .LASF2348
C:\Users\CYMR90~1\AppData\Local\Temp\ccyjM0JL.s:21701  .debug_str:00000000000067dc .LASF2349
C:\Users\CYMR90~1\AppData\Local\Temp\ccyjM0JL.s:31252  .debug_str:000000000002c84d .LASF2350
C:\Users\CYMR90~1\AppData\Local\Temp\ccyjM0JL.s:30664  .debug_str:000000000002a2e9 .LASF2351
C:\Users\CYMR90~1\AppData\Local\Temp\ccyjM0JL.s:23391  .debug_str:000000000000d6c7 .LASF2352
C:\Users\CYMR90~1\AppData\Local\Temp\ccyjM0JL.s:22425  .debug_str:00000000000096c9 .LASF2353
C:\Users\CYMR90~1\AppData\Local\Temp\ccyjM0JL.s:20985  .debug_str:0000000000003b68 .LASF2354
C:\Users\CYMR90~1\AppData\Local\Temp\ccyjM0JL.s:24093  .debug_str:000000000001017f .LASF2355
C:\Users\CYMR90~1\AppData\Local\Temp\ccyjM0JL.s:22863  .debug_str:000000000000b3a1 .LASF2356
C:\Users\CYMR90~1\AppData\Local\Temp\ccyjM0JL.s:21633  .debug_str:00000000000063df .LASF2357
C:\Users\CYMR90~1\AppData\Local\Temp\ccyjM0JL.s:29122  .debug_str:0000000000023eab .LASF2358
C:\Users\CYMR90~1\AppData\Local\Temp\ccyjM0JL.s:28272  .debug_str:0000000000020bb9 .LASF2359
C:\Users\CYMR90~1\AppData\Local\Temp\ccyjM0JL.s:24651  .debug_str:00000000000125cb .LASF2360
C:\Users\CYMR90~1\AppData\Local\Temp\ccyjM0JL.s:22963  .debug_str:000000000000ba3c .LASF2361
C:\Users\CYMR90~1\AppData\Local\Temp\ccyjM0JL.s:30006  .debug_str:000000000002796b .LASF2362
C:\Users\CYMR90~1\AppData\Local\Temp\ccyjM0JL.s:22411  .debug_str:00000000000095af .LASF2363
C:\Users\CYMR90~1\AppData\Local\Temp\ccyjM0JL.s:23745  .debug_str:000000000000ec48 .LASF2364
C:\Users\CYMR90~1\AppData\Local\Temp\ccyjM0JL.s:21767  .debug_str:0000000000006c14 .LASF2365
C:\Users\CYMR90~1\AppData\Local\Temp\ccyjM0JL.s:24149  .debug_str:00000000000104dd .LASF2366
C:\Users\CYMR90~1\AppData\Local\Temp\ccyjM0JL.s:31130  .debug_str:000000000002bfa8 .LASF2367
C:\Users\CYMR90~1\AppData\Local\Temp\ccyjM0JL.s:29776  .debug_str:0000000000026abc .LASF2368
C:\Users\CYMR90~1\AppData\Local\Temp\ccyjM0JL.s:20195  .debug_str:00000000000009a3 .LASF2369
C:\Users\CYMR90~1\AppData\Local\Temp\ccyjM0JL.s:24551  .debug_str:0000000000011ee7 .LASF2370
C:\Users\CYMR90~1\AppData\Local\Temp\ccyjM0JL.s:27748  .debug_str:000000000001ec02 .LASF2371
C:\Users\CYMR90~1\AppData\Local\Temp\ccyjM0JL.s:31078  .debug_str:000000000002bc82 .LASF2372
C:\Users\CYMR90~1\AppData\Local\Temp\ccyjM0JL.s:22865  .debug_str:000000000000b3c6 .LASF2373
C:\Users\CYMR90~1\AppData\Local\Temp\ccyjM0JL.s:21813  .debug_str:0000000000006f16 .LASF2374
C:\Users\CYMR90~1\AppData\Local\Temp\ccyjM0JL.s:29336  .debug_str:0000000000024d30 .LASF2375
C:\Users\CYMR90~1\AppData\Local\Temp\ccyjM0JL.s:29080  .debug_str:0000000000023c7b .LASF2376
C:\Users\CYMR90~1\AppData\Local\Temp\ccyjM0JL.s:24319  .debug_str:0000000000011028 .LASF2377
C:\Users\CYMR90~1\AppData\Local\Temp\ccyjM0JL.s:27518  .debug_str:000000000001de21 .LASF2378
C:\Users\CYMR90~1\AppData\Local\Temp\ccyjM0JL.s:30810  .debug_str:000000000002abfe .LASF2379
C:\Users\CYMR90~1\AppData\Local\Temp\ccyjM0JL.s:20501  .debug_str:0000000000001d30 .LASF2380
C:\Users\CYMR90~1\AppData\Local\Temp\ccyjM0JL.s:25239  .debug_str:0000000000014b1d .LASF2381
C:\Users\CYMR90~1\AppData\Local\Temp\ccyjM0JL.s:30008  .debug_str:000000000002797d .LASF2382
C:\Users\CYMR90~1\AppData\Local\Temp\ccyjM0JL.s:26874  .debug_str:000000000001b4ff .LASF2383
C:\Users\CYMR90~1\AppData\Local\Temp\ccyjM0JL.s:28046  .debug_str:000000000001fdf6 .LASF2384
C:\Users\CYMR90~1\AppData\Local\Temp\ccyjM0JL.s:21373  .debug_str:00000000000054a0 .LASF2385
C:\Users\CYMR90~1\AppData\Local\Temp\ccyjM0JL.s:26132  .debug_str:000000000001831f .LASF2386
C:\Users\CYMR90~1\AppData\Local\Temp\ccyjM0JL.s:30914  .debug_str:000000000002b207 .LASF2387
C:\Users\CYMR90~1\AppData\Local\Temp\ccyjM0JL.s:26994  .debug_str:000000000001bc12 .LASF2388
C:\Users\CYMR90~1\AppData\Local\Temp\ccyjM0JL.s:30066  .debug_str:0000000000027d04 .LASF2389
C:\Users\CYMR90~1\AppData\Local\Temp\ccyjM0JL.s:23405  .debug_str:000000000000d7a6 .LASF2390
C:\Users\CYMR90~1\AppData\Local\Temp\ccyjM0JL.s:28104  .debug_str:0000000000020185 .LASF2391
C:\Users\CYMR90~1\AppData\Local\Temp\ccyjM0JL.s:21421  .debug_str:0000000000005756 .LASF2392
C:\Users\CYMR90~1\AppData\Local\Temp\ccyjM0JL.s:26188  .debug_str:0000000000018665 .LASF2393
C:\Users\CYMR90~1\AppData\Local\Temp\ccyjM0JL.s:30976  .debug_str:000000000002b5bf .LASF2394
C:\Users\CYMR90~1\AppData\Local\Temp\ccyjM0JL.s:30844  .debug_str:000000000002add7 .LASF2395
C:\Users\CYMR90~1\AppData\Local\Temp\ccyjM0JL.s:22653  .debug_str:000000000000a537 .LASF2396
C:\Users\CYMR90~1\AppData\Local\Temp\ccyjM0JL.s:24325  .debug_str:000000000001106a .LASF2397
C:\Users\CYMR90~1\AppData\Local\Temp\ccyjM0JL.s:29126  .debug_str:0000000000023edc .LASF2398
C:\Users\CYMR90~1\AppData\Local\Temp\ccyjM0JL.s:21013  .debug_str:0000000000003cf5 .LASF2399
C:\Users\CYMR90~1\AppData\Local\Temp\ccyjM0JL.s:24195  .debug_str:0000000000010849 .LASF2400
C:\Users\CYMR90~1\AppData\Local\Temp\ccyjM0JL.s:27408  .debug_str:000000000001d748 .LASF2401
C:\Users\CYMR90~1\AppData\Local\Temp\ccyjM0JL.s:30688  .debug_str:000000000002a496 .LASF2402
C:\Users\CYMR90~1\AppData\Local\Temp\ccyjM0JL.s:24997  .debug_str:0000000000013c38 .LASF2403
C:\Users\CYMR90~1\AppData\Local\Temp\ccyjM0JL.s:23381  .debug_str:000000000000d620 .LASF2404
C:\Users\CYMR90~1\AppData\Local\Temp\ccyjM0JL.s:26762  .debug_str:000000000001ad63 .LASF2405
C:\Users\CYMR90~1\AppData\Local\Temp\ccyjM0JL.s:20073  .debug_str:000000000000027d .LASF2406
C:\Users\CYMR90~1\AppData\Local\Temp\ccyjM0JL.s:20087  .debug_str:0000000000000370 .LASF2407
C:\Users\CYMR90~1\AppData\Local\Temp\ccyjM0JL.s:29550  .debug_str:0000000000025cd9 .LASF2408
C:\Users\CYMR90~1\AppData\Local\Temp\ccyjM0JL.s:22899  .debug_str:000000000000b5bc .LASF2409
C:\Users\CYMR90~1\AppData\Local\Temp\ccyjM0JL.s:27594  .debug_str:000000000001e2c2 .LASF2410
C:\Users\CYMR90~1\AppData\Local\Temp\ccyjM0JL.s:23235  .debug_str:000000000000cc7b .LASF2411
C:\Users\CYMR90~1\AppData\Local\Temp\ccyjM0JL.s:25671  .debug_str:00000000000164e5 .LASF2412
C:\Users\CYMR90~1\AppData\Local\Temp\ccyjM0JL.s:27800  .debug_str:000000000001eee4 .LASF2413
C:\Users\CYMR90~1\AppData\Local\Temp\ccyjM0JL.s:24865  .debug_str:00000000000133ec .LASF2414
C:\Users\CYMR90~1\AppData\Local\Temp\ccyjM0JL.s:29602  .debug_str:0000000000025fcd .LASF2415
C:\Users\CYMR90~1\AppData\Local\Temp\ccyjM0JL.s:22941  .debug_str:000000000000b912 .LASF2416
C:\Users\CYMR90~1\AppData\Local\Temp\ccyjM0JL.s:27642  .debug_str:000000000001e583 .LASF2417
C:\Users\CYMR90~1\AppData\Local\Temp\ccyjM0JL.s:20981  .debug_str:0000000000003b1d .LASF2418
C:\Users\CYMR90~1\AppData\Local\Temp\ccyjM0JL.s:25731  .debug_str:00000000000168db .LASF2419
C:\Users\CYMR90~1\AppData\Local\Temp\ccyjM0JL.s:22779  .debug_str:000000000000adc9 .LASF2420
C:\Users\CYMR90~1\AppData\Local\Temp\ccyjM0JL.s:25902  .debug_str:000000000001757f .LASF2421
C:\Users\CYMR90~1\AppData\Local\Temp\ccyjM0JL.s:29164  .debug_str:0000000000024133 .LASF2422
C:\Users\CYMR90~1\AppData\Local\Temp\ccyjM0JL.s:20965  .debug_str:0000000000003a02 .LASF2423
C:\Users\CYMR90~1\AppData\Local\Temp\ccyjM0JL.s:24231  .debug_str:0000000000010a51 .LASF2424
C:\Users\CYMR90~1\AppData\Local\Temp\ccyjM0JL.s:24481  .debug_str:0000000000011a5c .LASF2425
C:\Users\CYMR90~1\AppData\Local\Temp\ccyjM0JL.s:30728  .debug_str:000000000002a6b6 .LASF2426
C:\Users\CYMR90~1\AppData\Local\Temp\ccyjM0JL.s:21171  .debug_str:0000000000004795 .LASF2427
C:\Users\CYMR90~1\AppData\Local\Temp\ccyjM0JL.s:31016  .debug_str:000000000002b852 .LASF2428
C:\Users\CYMR90~1\AppData\Local\Temp\ccyjM0JL.s:28432  .debug_str:000000000002150b .LASF2429
C:\Users\CYMR90~1\AppData\Local\Temp\ccyjM0JL.s:30292  .debug_str:0000000000028cf7 .LASF2430
C:\Users\CYMR90~1\AppData\Local\Temp\ccyjM0JL.s:23617  .debug_str:000000000000e458 .LASF2431
C:\Users\CYMR90~1\AppData\Local\Temp\ccyjM0JL.s:28332  .debug_str:0000000000020f6a .LASF2432
C:\Users\CYMR90~1\AppData\Local\Temp\ccyjM0JL.s:21653  .debug_str:0000000000006527 .LASF2433
C:\Users\CYMR90~1\AppData\Local\Temp\ccyjM0JL.s:26424  .debug_str:000000000001966f .LASF2434
C:\Users\CYMR90~1\AppData\Local\Temp\ccyjM0JL.s:31198  .debug_str:000000000002c46f .LASF2435
C:\Users\CYMR90~1\AppData\Local\Temp\ccyjM0JL.s:24489  .debug_str:0000000000011ac9 .LASF2436
C:\Users\CYMR90~1\AppData\Local\Temp\ccyjM0JL.s:29232  .debug_str:000000000002467d .LASF2437
C:\Users\CYMR90~1\AppData\Local\Temp\ccyjM0JL.s:27284  .debug_str:000000000001ce7f .LASF2438
C:\Users\CYMR90~1\AppData\Local\Temp\ccyjM0JL.s:28386  .debug_str:000000000002123c .LASF2439
C:\Users\CYMR90~1\AppData\Local\Temp\ccyjM0JL.s:21705  .debug_str:0000000000006815 .LASF2440
C:\Users\CYMR90~1\AppData\Local\Temp\ccyjM0JL.s:26474  .debug_str:0000000000019a1d .LASF2441
C:\Users\CYMR90~1\AppData\Local\Temp\ccyjM0JL.s:31248  .debug_str:000000000002c80e .LASF2442
C:\Users\CYMR90~1\AppData\Local\Temp\ccyjM0JL.s:24543  .debug_str:0000000000011e53 .LASF2443
C:\Users\CYMR90~1\AppData\Local\Temp\ccyjM0JL.s:24459  .debug_str:0000000000011885 .LASF2444
C:\Users\CYMR90~1\AppData\Local\Temp\ccyjM0JL.s:28068  .debug_str:000000000001ff57 .LASF2445
C:\Users\CYMR90~1\AppData\Local\Temp\ccyjM0JL.s:29396  .debug_str:0000000000025105 .LASF2446
C:\Users\CYMR90~1\AppData\Local\Temp\ccyjM0JL.s:27716  .debug_str:000000000001ea20 .LASF2447
C:\Users\CYMR90~1\AppData\Local\Temp\ccyjM0JL.s:26320  .debug_str:0000000000018f5a .LASF2448
C:\Users\CYMR90~1\AppData\Local\Temp\ccyjM0JL.s:29552  .debug_str:0000000000025cf2 .LASF2449
C:\Users\CYMR90~1\AppData\Local\Temp\ccyjM0JL.s:22843  .debug_str:000000000000b2b1 .LASF2450
C:\Users\CYMR90~1\AppData\Local\Temp\ccyjM0JL.s:24623  .debug_str:0000000000012413 .LASF2451
C:\Users\CYMR90~1\AppData\Local\Temp\ccyjM0JL.s:27808  .debug_str:000000000001ef60 .LASF2452
C:\Users\CYMR90~1\AppData\Local\Temp\ccyjM0JL.s:29326  .debug_str:0000000000024ca6 .LASF2453
C:\Users\CYMR90~1\AppData\Local\Temp\ccyjM0JL.s:22847  .debug_str:000000000000b2d2 .LASF2454
C:\Users\CYMR90~1\AppData\Local\Temp\ccyjM0JL.s:29244  .debug_str:0000000000024728 .LASF2455
C:\Users\CYMR90~1\AppData\Local\Temp\ccyjM0JL.s:22573  .debug_str:000000000000a016 .LASF2456
C:\Users\CYMR90~1\AppData\Local\Temp\ccyjM0JL.s:27296  .debug_str:000000000001cfe9 .LASF2457
C:\Users\CYMR90~1\AppData\Local\Temp\ccyjM0JL.s:20627  .debug_str:000000000000242b .LASF2458
C:\Users\CYMR90~1\AppData\Local\Temp\ccyjM0JL.s:25363  .debug_str:000000000001527f .LASF2459
C:\Users\CYMR90~1\AppData\Local\Temp\ccyjM0JL.s:30136  .debug_str:00000000000281e7 .LASF2460
C:\Users\CYMR90~1\AppData\Local\Temp\ccyjM0JL.s:23467  .debug_str:000000000000db3b .LASF2461
C:\Users\CYMR90~1\AppData\Local\Temp\ccyjM0JL.s:28174  .debug_str:00000000000205a1 .LASF2462
C:\Users\CYMR90~1\AppData\Local\Temp\ccyjM0JL.s:26262  .debug_str:0000000000018b07 .LASF2463
C:\Users\CYMR90~1\AppData\Local\Temp\ccyjM0JL.s:21041  .debug_str:0000000000003ece .LASF2464
C:\Users\CYMR90~1\AppData\Local\Temp\ccyjM0JL.s:20683  .debug_str:00000000000027c9 .LASF2465
C:\Users\CYMR90~1\AppData\Local\Temp\ccyjM0JL.s:24915  .debug_str:000000000001377f .LASF2466
C:\Users\CYMR90~1\AppData\Local\Temp\ccyjM0JL.s:30190  .debug_str:000000000002864b .LASF2467
C:\Users\CYMR90~1\AppData\Local\Temp\ccyjM0JL.s:23521  .debug_str:000000000000de43 .LASF2468
C:\Users\CYMR90~1\AppData\Local\Temp\ccyjM0JL.s:28230  .debug_str:000000000002095e .LASF2469
C:\Users\CYMR90~1\AppData\Local\Temp\ccyjM0JL.s:30414  .debug_str:0000000000029425 .LASF2470
C:\Users\CYMR90~1\AppData\Local\Temp\ccyjM0JL.s:20823  .debug_str:00000000000030d6 .LASF2471
C:\Users\CYMR90~1\AppData\Local\Temp\ccyjM0JL.s:25443  .debug_str:00000000000156e2 .LASF2472
C:\Users\CYMR90~1\AppData\Local\Temp\ccyjM0JL.s:30176  .debug_str:00000000000284df .LASF2473
C:\Users\CYMR90~1\AppData\Local\Temp\ccyjM0JL.s:28510  .debug_str:0000000000021a9c .LASF2474
C:\Users\CYMR90~1\AppData\Local\Temp\ccyjM0JL.s:26882  .debug_str:000000000001b560 .LASF2475
C:\Users\CYMR90~1\AppData\Local\Temp\ccyjM0JL.s:27000  .debug_str:000000000001bc5d .LASF2476
C:\Users\CYMR90~1\AppData\Local\Temp\ccyjM0JL.s:30266  .debug_str:0000000000028b74 .LASF2477
C:\Users\CYMR90~1\AppData\Local\Temp\ccyjM0JL.s:22067  .debug_str:0000000000008009 .LASF2478
C:\Users\CYMR90~1\AppData\Local\Temp\ccyjM0JL.s:25207  .debug_str:0000000000014967 .LASF2479
C:\Users\CYMR90~1\AppData\Local\Temp\ccyjM0JL.s:24919  .debug_str:00000000000137ae .LASF2480
C:\Users\CYMR90~1\AppData\Local\Temp\ccyjM0JL.s:29660  .debug_str:0000000000026393 .LASF2481
C:\Users\CYMR90~1\AppData\Local\Temp\ccyjM0JL.s:22995  .debug_str:000000000000bc53 .LASF2482
C:\Users\CYMR90~1\AppData\Local\Temp\ccyjM0JL.s:27694  .debug_str:000000000001e87e .LASF2483
C:\Users\CYMR90~1\AppData\Local\Temp\ccyjM0JL.s:21031  .debug_str:0000000000003e3b .LASF2484
C:\Users\CYMR90~1\AppData\Local\Temp\ccyjM0JL.s:25794  .debug_str:0000000000016f3b .LASF2485
C:\Users\CYMR90~1\AppData\Local\Temp\ccyjM0JL.s:30552  .debug_str:0000000000029c93 .LASF2486
C:\Users\CYMR90~1\AppData\Local\Temp\ccyjM0JL.s:23873  .debug_str:000000000000f36d .LASF2487
C:\Users\CYMR90~1\AppData\Local\Temp\ccyjM0JL.s:21925  .debug_str:000000000000764d .LASF2488
C:\Users\CYMR90~1\AppData\Local\Temp\ccyjM0JL.s:23049  .debug_str:000000000000c066 .LASF2489
C:\Users\CYMR90~1\AppData\Local\Temp\ccyjM0JL.s:27738  .debug_str:000000000001eb7d .LASF2490
C:\Users\CYMR90~1\AppData\Local\Temp\ccyjM0JL.s:21075  .debug_str:00000000000040ff .LASF2491
C:\Users\CYMR90~1\AppData\Local\Temp\ccyjM0JL.s:20469  .debug_str:0000000000001b25 .LASF2492
C:\Users\CYMR90~1\AppData\Local\Temp\ccyjM0JL.s:30612  .debug_str:000000000002a008 .LASF2493
C:\Users\CYMR90~1\AppData\Local\Temp\ccyjM0JL.s:23935  .debug_str:000000000000f733 .LASF2494
C:\Users\CYMR90~1\AppData\Local\Temp\ccyjM0JL.s:23657  .debug_str:000000000000e6af .LASF2495
C:\Users\CYMR90~1\AppData\Local\Temp\ccyjM0JL.s:26892  .debug_str:000000000001b60e .LASF2496
C:\Users\CYMR90~1\AppData\Local\Temp\ccyjM0JL.s:30146  .debug_str:000000000002828e .LASF2497
C:\Users\CYMR90~1\AppData\Local\Temp\ccyjM0JL.s:21945  .debug_str:00000000000077a4 .LASF2498
C:\Users\CYMR90~1\AppData\Local\Temp\ccyjM0JL.s:25089  .debug_str:00000000000141c1 .LASF2499
C:\Users\CYMR90~1\AppData\Local\Temp\ccyjM0JL.s:28330  .debug_str:0000000000020f57 .LASF2500
C:\Users\CYMR90~1\AppData\Local\Temp\ccyjM0JL.s:30538  .debug_str:0000000000029bd0 .LASF2501
C:\Users\CYMR90~1\AppData\Local\Temp\ccyjM0JL.s:23433  .debug_str:000000000000d952 .LASF2502
C:\Users\CYMR90~1\AppData\Local\Temp\ccyjM0JL.s:26666  .debug_str:000000000001a711 .LASF2503
C:\Users\CYMR90~1\AppData\Local\Temp\ccyjM0JL.s:25581  .debug_str:0000000000015f6a .LASF2504
C:\Users\CYMR90~1\AppData\Local\Temp\ccyjM0JL.s:30234  .debug_str:0000000000028912 .LASF2505
C:\Users\CYMR90~1\AppData\Local\Temp\ccyjM0JL.s:23563  .debug_str:000000000000e11c .LASF2506
C:\Users\CYMR90~1\AppData\Local\Temp\ccyjM0JL.s:28276  .debug_str:0000000000020be8 .LASF2507
C:\Users\CYMR90~1\AppData\Local\Temp\ccyjM0JL.s:21581  .debug_str:00000000000060ab .LASF2508
C:\Users\CYMR90~1\AppData\Local\Temp\ccyjM0JL.s:26364  .debug_str:00000000000192f1 .LASF2509
C:\Users\CYMR90~1\AppData\Local\Temp\ccyjM0JL.s:27142  .debug_str:000000000001c569 .LASF2510
C:\Users\CYMR90~1\AppData\Local\Temp\ccyjM0JL.s:24427  .debug_str:000000000001167a .LASF2511
C:\Users\CYMR90~1\AppData\Local\Temp\ccyjM0JL.s:29174  .debug_str:00000000000241a3 .LASF2512
C:\Users\CYMR90~1\AppData\Local\Temp\ccyjM0JL.s:27236  .debug_str:000000000001cb9e .LASF2513
C:\Users\CYMR90~1\AppData\Local\Temp\ccyjM0JL.s:28424  .debug_str:0000000000021484 .LASF2514
C:\Users\CYMR90~1\AppData\Local\Temp\ccyjM0JL.s:21737  .debug_str:0000000000006a42 .LASF2515
C:\Users\CYMR90~1\AppData\Local\Temp\ccyjM0JL.s:26500  .debug_str:0000000000019bd4 .LASF2516
C:\Users\CYMR90~1\AppData\Local\Temp\ccyjM0JL.s:31278  .debug_str:000000000002c9df .LASF2517
C:\Users\CYMR90~1\AppData\Local\Temp\ccyjM0JL.s:24569  .debug_str:0000000000011ff3 .LASF2518
C:\Users\CYMR90~1\AppData\Local\Temp\ccyjM0JL.s:29308  .debug_str:0000000000024b1d .LASF2519
C:\Users\CYMR90~1\AppData\Local\Temp\ccyjM0JL.s:24775  .debug_str:0000000000012df6 .LASF2520
C:\Users\CYMR90~1\AppData\Local\Temp\ccyjM0JL.s:20921  .debug_str:0000000000003736 .LASF2521
C:\Users\CYMR90~1\AppData\Local\Temp\ccyjM0JL.s:26156  .debug_str:000000000001847a .LASF2522
C:\Users\CYMR90~1\AppData\Local\Temp\ccyjM0JL.s:22483  .debug_str:0000000000009aa1 .LASF2523
C:\Users\CYMR90~1\AppData\Local\Temp\ccyjM0JL.s:31040  .debug_str:000000000002b9dc .LASF2524
C:\Users\CYMR90~1\AppData\Local\Temp\ccyjM0JL.s:29620  .debug_str:0000000000026107 .LASF2525
C:\Users\CYMR90~1\AppData\Local\Temp\ccyjM0JL.s:25567  .debug_str:0000000000015e5f .LASF2526
C:\Users\CYMR90~1\AppData\Local\Temp\ccyjM0JL.s:27458  .debug_str:000000000001da99 .LASF2527
C:\Users\CYMR90~1\AppData\Local\Temp\ccyjM0JL.s:25715  .debug_str:00000000000167e4 .LASF2528
C:\Users\CYMR90~1\AppData\Local\Temp\ccyjM0JL.s:22545  .debug_str:0000000000009e51 .LASF2529
C:\Users\CYMR90~1\AppData\Local\Temp\ccyjM0JL.s:29282  .debug_str:000000000002497d .LASF2530
C:\Users\CYMR90~1\AppData\Local\Temp\ccyjM0JL.s:30364  .debug_str:000000000002912a .LASF2531
C:\Users\CYMR90~1\AppData\Local\Temp\ccyjM0JL.s:20157  .debug_str:000000000000077d .LASF2532
C:\Users\CYMR90~1\AppData\Local\Temp\ccyjM0JL.s:21967  .debug_str:000000000000790a .LASF2533
C:\Users\CYMR90~1\AppData\Local\Temp\ccyjM0JL.s:20959  .debug_str:00000000000039af .LASF2534
C:\Users\CYMR90~1\AppData\Local\Temp\ccyjM0JL.s:29514  .debug_str:00000000000259ef .LASF2535
C:\Users\CYMR90~1\AppData\Local\Temp\ccyjM0JL.s:24571  .debug_str:0000000000012008 .LASF2536
C:\Users\CYMR90~1\AppData\Local\Temp\ccyjM0JL.s:23345  .debug_str:000000000000d337 .LASF2537
C:\Users\CYMR90~1\AppData\Local\Temp\ccyjM0JL.s:28000  .debug_str:000000000001fb1b .LASF2538
C:\Users\CYMR90~1\AppData\Local\Temp\ccyjM0JL.s:27110  .debug_str:000000000001c3a6 .LASF2539
C:\Users\CYMR90~1\AppData\Local\Temp\ccyjM0JL.s:21005  .debug_str:0000000000003c76 .LASF2540
C:\Users\CYMR90~1\AppData\Local\Temp\ccyjM0JL.s:29668  .debug_str:0000000000026423 .LASF2541
C:\Users\CYMR90~1\AppData\Local\Temp\ccyjM0JL.s:23319  .debug_str:000000000000d198 .LASF2542
C:\Users\CYMR90~1\AppData\Local\Temp\ccyjM0JL.s:22389  .debug_str:0000000000009467 .LASF2543
C:\Users\CYMR90~1\AppData\Local\Temp\ccyjM0JL.s:21345  .debug_str:00000000000052e0 .LASF2544
C:\Users\CYMR90~1\AppData\Local\Temp\ccyjM0JL.s:30016  .debug_str:00000000000279fd .LASF2545
C:\Users\CYMR90~1\AppData\Local\Temp\ccyjM0JL.s:30318  .debug_str:0000000000028ea3 .LASF2546
C:\Users\CYMR90~1\AppData\Local\Temp\ccyjM0JL.s:24425  .debug_str:0000000000011658 .LASF2547
C:\Users\CYMR90~1\AppData\Local\Temp\ccyjM0JL.s:28370  .debug_str:000000000002116f .LASF2548
C:\Users\CYMR90~1\AppData\Local\Temp\ccyjM0JL.s:25489  .debug_str:0000000000015984 .LASF2549
C:\Users\CYMR90~1\AppData\Local\Temp\ccyjM0JL.s:26058  .debug_str:0000000000017ed8 .LASF2550
C:\Users\CYMR90~1\AppData\Local\Temp\ccyjM0JL.s:24897  .debug_str:0000000000013648 .LASF2551
C:\Users\CYMR90~1\AppData\Local\Temp\ccyjM0JL.s:25391  .debug_str:0000000000015434 .LASF2552
C:\Users\CYMR90~1\AppData\Local\Temp\ccyjM0JL.s:24085  .debug_str:00000000000100e7 .LASF2553
C:\Users\CYMR90~1\AppData\Local\Temp\ccyjM0JL.s:24375  .debug_str:000000000001133e .LASF2554
C:\Users\CYMR90~1\AppData\Local\Temp\ccyjM0JL.s:23471  .debug_str:000000000000db69 .LASF2555
C:\Users\CYMR90~1\AppData\Local\Temp\ccyjM0JL.s:22463  .debug_str:00000000000098ff .LASF2556
C:\Users\CYMR90~1\AppData\Local\Temp\ccyjM0JL.s:31038  .debug_str:000000000002b9b9 .LASF2557
C:\Users\CYMR90~1\AppData\Local\Temp\ccyjM0JL.s:25249  .debug_str:0000000000014b96 .LASF2558
C:\Users\CYMR90~1\AppData\Local\Temp\ccyjM0JL.s:30358  .debug_str:00000000000290cd .LASF2559
C:\Users\CYMR90~1\AppData\Local\Temp\ccyjM0JL.s:29066  .debug_str:0000000000023b96 .LASF2560
C:\Users\CYMR90~1\AppData\Local\Temp\ccyjM0JL.s:25884  .debug_str:0000000000017486 .LASF2561
C:\Users\CYMR90~1\AppData\Local\Temp\ccyjM0JL.s:25507  .debug_str:0000000000015aba .LASF2562
C:\Users\CYMR90~1\AppData\Local\Temp\ccyjM0JL.s:25639  .debug_str:0000000000016338 .LASF2563
C:\Users\CYMR90~1\AppData\Local\Temp\ccyjM0JL.s:30038  .debug_str:0000000000027b3d .LASF2564
C:\Users\CYMR90~1\AppData\Local\Temp\ccyjM0JL.s:23335  .debug_str:000000000000d29b .LASF2565
C:\Users\CYMR90~1\AppData\Local\Temp\ccyjM0JL.s:27780  .debug_str:000000000001eda4 .LASF2566
C:\Users\CYMR90~1\AppData\Local\Temp\ccyjM0JL.s:21859  .debug_str:00000000000071ed .LASF2567
C:\Users\CYMR90~1\AppData\Local\Temp\ccyjM0JL.s:20307  .debug_str:00000000000010ec .LASF2568
C:\Users\CYMR90~1\AppData\Local\Temp\ccyjM0JL.s:26752  .debug_str:000000000001acdf .LASF2569
C:\Users\CYMR90~1\AppData\Local\Temp\ccyjM0JL.s:22723  .debug_str:000000000000aa3f .LASF2570
C:\Users\CYMR90~1\AppData\Local\Temp\ccyjM0JL.s:25619  .debug_str:00000000000161fb .LASF2571
C:\Users\CYMR90~1\AppData\Local\Temp\ccyjM0JL.s:23047  .debug_str:000000000000c04e .LASF2572
C:\Users\CYMR90~1\AppData\Local\Temp\ccyjM0JL.s:23183  .debug_str:000000000000c88e .LASF2573
C:\Users\CYMR90~1\AppData\Local\Temp\ccyjM0JL.s:27154  .debug_str:000000000001c5e9 .LASF2574
C:\Users\CYMR90~1\AppData\Local\Temp\ccyjM0JL.s:21289  .debug_str:0000000000004f8d .LASF2575
C:\Users\CYMR90~1\AppData\Local\Temp\ccyjM0JL.s:27006  .debug_str:000000000001bcb4 .LASF2576
C:\Users\CYMR90~1\AppData\Local\Temp\ccyjM0JL.s:25493  .debug_str:00000000000159ed .LASF2577
C:\Users\CYMR90~1\AppData\Local\Temp\ccyjM0JL.s:30504  .debug_str:00000000000299d4 .LASF2578
C:\Users\CYMR90~1\AppData\Local\Temp\ccyjM0JL.s:28666  .debug_str:00000000000223f7 .LASF2579
C:\Users\CYMR90~1\AppData\Local\Temp\ccyjM0JL.s:21259  .debug_str:0000000000004dbe .LASF2580
C:\Users\CYMR90~1\AppData\Local\Temp\ccyjM0JL.s:28396  .debug_str:00000000000212dc .LASF2581
C:\Users\CYMR90~1\AppData\Local\Temp\ccyjM0JL.s:29902  .debug_str:0000000000027294 .LASF2582
C:\Users\CYMR90~1\AppData\Local\Temp\ccyjM0JL.s:20253  .debug_str:0000000000000d44 .LASF2583
C:\Users\CYMR90~1\AppData\Local\Temp\ccyjM0JL.s:21987  .debug_str:0000000000007a4e .LASF2584
C:\Users\CYMR90~1\AppData\Local\Temp\ccyjM0JL.s:22461  .debug_str:00000000000098df .LASF2585
C:\Users\CYMR90~1\AppData\Local\Temp\ccyjM0JL.s:24755  .debug_str:0000000000012cd4 .LASF2586
C:\Users\CYMR90~1\AppData\Local\Temp\ccyjM0JL.s:22517  .debug_str:0000000000009cb8 .LASF2587
C:\Users\CYMR90~1\AppData\Local\Temp\ccyjM0JL.s:21043  .debug_str:0000000000003ee7 .LASF2588
C:\Users\CYMR90~1\AppData\Local\Temp\ccyjM0JL.s:27016  .debug_str:000000000001bd84 .LASF2589
C:\Users\CYMR90~1\AppData\Local\Temp\ccyjM0JL.s:26148  .debug_str:0000000000018412 .LASF2590
C:\Users\CYMR90~1\AppData\Local\Temp\ccyjM0JL.s:22581  .debug_str:000000000000a092 .LASF2591
C:\Users\CYMR90~1\AppData\Local\Temp\ccyjM0JL.s:31366  .debug_str:000000000002cf63 .LASF2592
C:\Users\CYMR90~1\AppData\Local\Temp\ccyjM0JL.s:20497  .debug_str:0000000000001cf6 .LASF2593
C:\Users\CYMR90~1\AppData\Local\Temp\ccyjM0JL.s:25007  .debug_str:0000000000013cdd .LASF2594
C:\Users\CYMR90~1\AppData\Local\Temp\ccyjM0JL.s:28642  .debug_str:0000000000022277 .LASF2595
C:\Users\CYMR90~1\AppData\Local\Temp\ccyjM0JL.s:31148  .debug_str:000000000002c0e1 .LASF2596
C:\Users\CYMR90~1\AppData\Local\Temp\ccyjM0JL.s:24431  .debug_str:00000000000116be .LASF2597
C:\Users\CYMR90~1\AppData\Local\Temp\ccyjM0JL.s:23767  .debug_str:000000000000ed8e .LASF2598
C:\Users\CYMR90~1\AppData\Local\Temp\ccyjM0JL.s:27280  .debug_str:000000000001ce4d .LASF2599
C:\Users\CYMR90~1\AppData\Local\Temp\ccyjM0JL.s:26536  .debug_str:0000000000019e0c .LASF2600
C:\Users\CYMR90~1\AppData\Local\Temp\ccyjM0JL.s:21307  .debug_str:00000000000050aa .LASF2601
C:\Users\CYMR90~1\AppData\Local\Temp\ccyjM0JL.s:21223  .debug_str:0000000000004b91 .LASF2602
C:\Users\CYMR90~1\AppData\Local\Temp\ccyjM0JL.s:25944  .debug_str:00000000000177dd .LASF2603
C:\Users\CYMR90~1\AppData\Local\Temp\ccyjM0JL.s:27902  .debug_str:000000000001f55b .LASF2604
C:\Users\CYMR90~1\AppData\Local\Temp\ccyjM0JL.s:22141  .debug_str:0000000000008586 .LASF2605
C:\Users\CYMR90~1\AppData\Local\Temp\ccyjM0JL.s:22129  .debug_str:00000000000084e5 .LASF2606
C:\Users\CYMR90~1\AppData\Local\Temp\ccyjM0JL.s:29558  .debug_str:0000000000025d4c .LASF2607
C:\Users\CYMR90~1\AppData\Local\Temp\ccyjM0JL.s:24389  .debug_str:000000000001141c .LASF2608
C:\Users\CYMR90~1\AppData\Local\Temp\ccyjM0JL.s:25637  .debug_str:0000000000016314 .LASF2609
C:\Users\CYMR90~1\AppData\Local\Temp\ccyjM0JL.s:26964  .debug_str:000000000001baa1 .LASF2610
C:\Users\CYMR90~1\AppData\Local\Temp\ccyjM0JL.s:30298  .debug_str:0000000000028d86 .LASF2611
C:\Users\CYMR90~1\AppData\Local\Temp\ccyjM0JL.s:28516  .debug_str:0000000000021af2 .LASF2612
C:\Users\CYMR90~1\AppData\Local\Temp\ccyjM0JL.s:27522  .debug_str:000000000001de4c .LASF2613
C:\Users\CYMR90~1\AppData\Local\Temp\ccyjM0JL.s:26512  .debug_str:0000000000019ca9 .LASF2614
C:\Users\CYMR90~1\AppData\Local\Temp\ccyjM0JL.s:25593  .debug_str:0000000000016035 .LASF2615
C:\Users\CYMR90~1\AppData\Local\Temp\ccyjM0JL.s:24659  .debug_str:000000000001265b .LASF2616
C:\Users\CYMR90~1\AppData\Local\Temp\ccyjM0JL.s:28912  .debug_str:0000000000023274 .LASF2617
C:\Users\CYMR90~1\AppData\Local\Temp\ccyjM0JL.s:25421  .debug_str:00000000000155c9 .LASF2618
C:\Users\CYMR90~1\AppData\Local\Temp\ccyjM0JL.s:21143  .debug_str:00000000000045b3 .LASF2619
C:\Users\CYMR90~1\AppData\Local\Temp\ccyjM0JL.s:20851  .debug_str:0000000000003297 .LASF2620
C:\Users\CYMR90~1\AppData\Local\Temp\ccyjM0JL.s:22391  .debug_str:0000000000009489 .LASF2621
C:\Users\CYMR90~1\AppData\Local\Temp\ccyjM0JL.s:20249  .debug_str:0000000000000d0d .LASF2622
C:\Users\CYMR90~1\AppData\Local\Temp\ccyjM0JL.s:23559  .debug_str:000000000000e0de .LASF2623
C:\Users\CYMR90~1\AppData\Local\Temp\ccyjM0JL.s:22197  .debug_str:00000000000088b6 .LASF2624
C:\Users\CYMR90~1\AppData\Local\Temp\ccyjM0JL.s:20545  .debug_str:0000000000001fab .LASF2625
C:\Users\CYMR90~1\AppData\Local\Temp\ccyjM0JL.s:26194  .debug_str:00000000000186bc .LASF2626
C:\Users\CYMR90~1\AppData\Local\Temp\ccyjM0JL.s:20359  .debug_str:00000000000013df .LASF2627
C:\Users\CYMR90~1\AppData\Local\Temp\ccyjM0JL.s:26638  .debug_str:000000000001a5b3 .LASF2628
C:\Users\CYMR90~1\AppData\Local\Temp\ccyjM0JL.s:26422  .debug_str:000000000001965e .LASF2629
C:\Users\CYMR90~1\AppData\Local\Temp\ccyjM0JL.s:24925  .debug_str:000000000001381b .LASF2630
C:\Users\CYMR90~1\AppData\Local\Temp\ccyjM0JL.s:30200  .debug_str:00000000000286cd .LASF2631
C:\Users\CYMR90~1\AppData\Local\Temp\ccyjM0JL.s:22589  .debug_str:000000000000a113 .LASF2632
C:\Users\CYMR90~1\AppData\Local\Temp\ccyjM0JL.s:26680  .debug_str:000000000001a7fe .LASF2633
C:\Users\CYMR90~1\AppData\Local\Temp\ccyjM0JL.s:27328  .debug_str:000000000001d25a .LASF2634
C:\Users\CYMR90~1\AppData\Local\Temp\ccyjM0JL.s:25822  .debug_str:00000000000170eb .LASF2635
C:\Users\CYMR90~1\AppData\Local\Temp\ccyjM0JL.s:29786  .debug_str:0000000000026b69 .LASF2636
C:\Users\CYMR90~1\AppData\Local\Temp\ccyjM0JL.s:24869  .debug_str:000000000001341d .LASF2637
C:\Users\CYMR90~1\AppData\Local\Temp\ccyjM0JL.s:20115  .debug_str:000000000000050e .LASF2638
C:\Users\CYMR90~1\AppData\Local\Temp\ccyjM0JL.s:20611  .debug_str:0000000000002330 .LASF2639
C:\Users\CYMR90~1\AppData\Local\Temp\ccyjM0JL.s:25451  .debug_str:0000000000015752 .LASF2640
C:\Users\CYMR90~1\AppData\Local\Temp\ccyjM0JL.s:20237  .debug_str:0000000000000c6c .LASF2641
C:\Users\CYMR90~1\AppData\Local\Temp\ccyjM0JL.s:27426  .debug_str:000000000001d88c .LASF2642
C:\Users\CYMR90~1\AppData\Local\Temp\ccyjM0JL.s:28002  .debug_str:000000000001fb3d .LASF2643
C:\Users\CYMR90~1\AppData\Local\Temp\ccyjM0JL.s:29356  .debug_str:0000000000024e6b .LASF2644
C:\Users\CYMR90~1\AppData\Local\Temp\ccyjM0JL.s:21405  .debug_str:000000000000568b .LASF2645
C:\Users\CYMR90~1\AppData\Local\Temp\ccyjM0JL.s:21007  .debug_str:0000000000003c98 .LASF2646
C:\Users\CYMR90~1\AppData\Local\Temp\ccyjM0JL.s:25135  .debug_str:00000000000144de .LASF2647
C:\Users\CYMR90~1\AppData\Local\Temp\ccyjM0JL.s:23087  .debug_str:000000000000c2c6 .LASF2648
C:\Users\CYMR90~1\AppData\Local\Temp\ccyjM0JL.s:27890  .debug_str:000000000001f4a0 .LASF2649
C:\Users\CYMR90~1\AppData\Local\Temp\ccyjM0JL.s:23641  .debug_str:000000000000e5b9 .LASF2650
C:\Users\CYMR90~1\AppData\Local\Temp\ccyjM0JL.s:28814  .debug_str:0000000000022c93 .LASF2651
C:\Users\CYMR90~1\AppData\Local\Temp\ccyjM0JL.s:31350  .debug_str:000000000002ce8d .LASF2652
C:\Users\CYMR90~1\AppData\Local\Temp\ccyjM0JL.s:21523  .debug_str:0000000000005d8c .LASF2653
C:\Users\CYMR90~1\AppData\Local\Temp\ccyjM0JL.s:26664  .debug_str:000000000001a6f3 .LASF2654
C:\Users\CYMR90~1\AppData\Local\Temp\ccyjM0JL.s:22801  .debug_str:000000000000af3e .LASF2655
C:\Users\CYMR90~1\AppData\Local\Temp\ccyjM0JL.s:29490  .debug_str:000000000002581a .LASF2656
C:\Users\CYMR90~1\AppData\Local\Temp\ccyjM0JL.s:20797  .debug_str:0000000000002f3b .LASF2657
C:\Users\CYMR90~1\AppData\Local\Temp\ccyjM0JL.s:31234  .debug_str:000000000002c6e3 .LASF2658
C:\Users\CYMR90~1\AppData\Local\Temp\ccyjM0JL.s:20395  .debug_str:00000000000015f6 .LASF2659
C:\Users\CYMR90~1\AppData\Local\Temp\ccyjM0JL.s:25111  .debug_str:000000000001435d .LASF2660
C:\Users\CYMR90~1\AppData\Local\Temp\ccyjM0JL.s:28682  .debug_str:00000000000224e0 .LASF2661
C:\Users\CYMR90~1\AppData\Local\Temp\ccyjM0JL.s:25027  .debug_str:0000000000013e1d .LASF2662
C:\Users\CYMR90~1\AppData\Local\Temp\ccyjM0JL.s:24817  .debug_str:00000000000130cb .LASF2663
C:\Users\CYMR90~1\AppData\Local\Temp\ccyjM0JL.s:27700  .debug_str:000000000001e8f4 .LASF2664
C:\Users\CYMR90~1\AppData\Local\Temp\ccyjM0JL.s:22931  .debug_str:000000000000b857 .LASF2665
C:\Users\CYMR90~1\AppData\Local\Temp\ccyjM0JL.s:21793  .debug_str:0000000000006db2 .LASF2666
C:\Users\CYMR90~1\AppData\Local\Temp\ccyjM0JL.s:27998  .debug_str:000000000001faed .LASF2667
C:\Users\CYMR90~1\AppData\Local\Temp\ccyjM0JL.s:30560  .debug_str:0000000000029cfa .LASF2668
C:\Users\CYMR90~1\AppData\Local\Temp\ccyjM0JL.s:25974  .debug_str:00000000000179bd .LASF2669
C:\Users\CYMR90~1\AppData\Local\Temp\ccyjM0JL.s:27342  .debug_str:000000000001d343 .LASF2670
C:\Users\CYMR90~1\AppData\Local\Temp\ccyjM0JL.s:25195  .debug_str:00000000000148a5 .LASF2671
C:\Users\CYMR90~1\AppData\Local\Temp\ccyjM0JL.s:23473  .debug_str:000000000000db8c .LASF2672
C:\Users\CYMR90~1\AppData\Local\Temp\ccyjM0JL.s:26842  .debug_str:000000000001b2fe .LASF2673
C:\Users\CYMR90~1\AppData\Local\Temp\ccyjM0JL.s:30956  .debug_str:000000000002b459 .LASF2674
C:\Users\CYMR90~1\AppData\Local\Temp\ccyjM0JL.s:21319  .debug_str:000000000000515a .LASF2675
C:\Users\CYMR90~1\AppData\Local\Temp\ccyjM0JL.s:21957  .debug_str:0000000000007860 .LASF2676
C:\Users\CYMR90~1\AppData\Local\Temp\ccyjM0JL.s:30374  .debug_str:0000000000029203 .LASF2677
C:\Users\CYMR90~1\AppData\Local\Temp\ccyjM0JL.s:26350  .debug_str:00000000000191f9 .LASF2678
C:\Users\CYMR90~1\AppData\Local\Temp\ccyjM0JL.s:29428  .debug_str:00000000000252c9 .LASF2679
C:\Users\CYMR90~1\AppData\Local\Temp\ccyjM0JL.s:23327  .debug_str:000000000000d20e .LASF2680
C:\Users\CYMR90~1\AppData\Local\Temp\ccyjM0JL.s:28576  .debug_str:0000000000021e71 .LASF2681
C:\Users\CYMR90~1\AppData\Local\Temp\ccyjM0JL.s:28830  .debug_str:0000000000022d7b .LASF2682
C:\Users\CYMR90~1\AppData\Local\Temp\ccyjM0JL.s:27228  .debug_str:000000000001cb0e .LASF2683
C:\Users\CYMR90~1\AppData\Local\Temp\ccyjM0JL.s:20989  .debug_str:0000000000003b9a .LASF2684
C:\Users\CYMR90~1\AppData\Local\Temp\ccyjM0JL.s:26306  .debug_str:0000000000018e67 .LASF2685
C:\Users\CYMR90~1\AppData\Local\Temp\ccyjM0JL.s:20171  .debug_str:000000000000084b .LASF2686
C:\Users\CYMR90~1\AppData\Local\Temp\ccyjM0JL.s:28098  .debug_str:000000000002013d .LASF2687
C:\Users\CYMR90~1\AppData\Local\Temp\ccyjM0JL.s:30286  .debug_str:0000000000028caf .LASF2688
C:\Users\CYMR90~1\AppData\Local\Temp\ccyjM0JL.s:22097  .debug_str:000000000000829e .LASF2689
C:\Users\CYMR90~1\AppData\Local\Temp\ccyjM0JL.s:20125  .debug_str:000000000000058b .LASF2690
C:\Users\CYMR90~1\AppData\Local\Temp\ccyjM0JL.s:28572  .debug_str:0000000000021e37 .LASF2691
C:\Users\CYMR90~1\AppData\Local\Temp\ccyjM0JL.s:20309  .debug_str:00000000000010fe .LASF2692
C:\Users\CYMR90~1\AppData\Local\Temp\ccyjM0JL.s:23571  .debug_str:000000000000e193 .LASF2693
C:\Users\CYMR90~1\AppData\Local\Temp\ccyjM0JL.s:26806  .debug_str:000000000001b0a2 .LASF2694
C:\Users\CYMR90~1\AppData\Local\Temp\ccyjM0JL.s:30040  .debug_str:0000000000027b50 .LASF2695
C:\Users\CYMR90~1\AppData\Local\Temp\ccyjM0JL.s:21837  .debug_str:0000000000007060 .LASF2696
C:\Users\CYMR90~1\AppData\Local\Temp\ccyjM0JL.s:25081  .debug_str:0000000000014132 .LASF2697
C:\Users\CYMR90~1\AppData\Local\Temp\ccyjM0JL.s:21515  .debug_str:0000000000005d33 .LASF2698
C:\Users\CYMR90~1\AppData\Local\Temp\ccyjM0JL.s:26300  .debug_str:0000000000018e0a .LASF2699
C:\Users\CYMR90~1\AppData\Local\Temp\ccyjM0JL.s:31084  .debug_str:000000000002bcdb .LASF2700
C:\Users\CYMR90~1\AppData\Local\Temp\ccyjM0JL.s:24365  .debug_str:00000000000112d0 .LASF2701
C:\Users\CYMR90~1\AppData\Local\Temp\ccyjM0JL.s:29104  .debug_str:0000000000023dcb .LASF2702
C:\Users\CYMR90~1\AppData\Local\Temp\ccyjM0JL.s:22439  .debug_str:00000000000097a0 .LASF2703
C:\Users\CYMR90~1\AppData\Local\Temp\ccyjM0JL.s:22815  .debug_str:000000000000b0e6 .LASF2704
C:\Users\CYMR90~1\AppData\Local\Temp\ccyjM0JL.s:23481  .debug_str:000000000000dc1c .LASF2705
C:\Users\CYMR90~1\AppData\Local\Temp\ccyjM0JL.s:28824  .debug_str:0000000000022d15 .LASF2706
C:\Users\CYMR90~1\AppData\Local\Temp\ccyjM0JL.s:26026  .debug_str:0000000000017cf0 .LASF2707
C:\Users\CYMR90~1\AppData\Local\Temp\ccyjM0JL.s:21237  .debug_str:0000000000004c70 .LASF2708
C:\Users\CYMR90~1\AppData\Local\Temp\ccyjM0JL.s:22683  .debug_str:000000000000a6ed .LASF2709
C:\Users\CYMR90~1\AppData\Local\Temp\ccyjM0JL.s:27920  .debug_str:000000000001f66a .LASF2710
C:\Users\CYMR90~1\AppData\Local\Temp\ccyjM0JL.s:21809  .debug_str:0000000000006ee1 .LASF2711
C:\Users\CYMR90~1\AppData\Local\Temp\ccyjM0JL.s:27020  .debug_str:000000000001bdd1 .LASF2712
C:\Users\CYMR90~1\AppData\Local\Temp\ccyjM0JL.s:20887  .debug_str:00000000000034f7 .LASF2713
C:\Users\CYMR90~1\AppData\Local\Temp\ccyjM0JL.s:22913  .debug_str:000000000000b70d .LASF2714
C:\Users\CYMR90~1\AppData\Local\Temp\ccyjM0JL.s:28080  .debug_str:000000000002002a .LASF2715
C:\Users\CYMR90~1\AppData\Local\Temp\ccyjM0JL.s:22049  .debug_str:0000000000007eda .LASF2716
C:\Users\CYMR90~1\AppData\Local\Temp\ccyjM0JL.s:27248  .debug_str:000000000001cc3e .LASF2717
C:\Users\CYMR90~1\AppData\Local\Temp\ccyjM0JL.s:21099  .debug_str:000000000000430c .LASF2718
C:\Users\CYMR90~1\AppData\Local\Temp\ccyjM0JL.s:29082  .debug_str:0000000000023c94 .LASF2719
C:\Users\CYMR90~1\AppData\Local\Temp\ccyjM0JL.s:26330  .debug_str:0000000000018fe2 .LASF2720
C:\Users\CYMR90~1\AppData\Local\Temp\ccyjM0JL.s:20571  .debug_str:0000000000002103 .LASF2721
C:\Users\CYMR90~1\AppData\Local\Temp\ccyjM0JL.s:20927  .debug_str:000000000000377f .LASF2722
C:\Users\CYMR90~1\AppData\Local\Temp\ccyjM0JL.s:29562  .debug_str:0000000000025d8f .LASF2723
C:\Users\CYMR90~1\AppData\Local\Temp\ccyjM0JL.s:26872  .debug_str:000000000001b4e7 .LASF2724
C:\Users\CYMR90~1\AppData\Local\Temp\ccyjM0JL.s:26014  .debug_str:0000000000017c52 .LASF2725
C:\Users\CYMR90~1\AppData\Local\Temp\ccyjM0JL.s:31262  .debug_str:000000000002c8ee .LASF2726
C:\Users\CYMR90~1\AppData\Local\Temp\ccyjM0JL.s:25079  .debug_str:0000000000014118 .LASF2727
C:\Users\CYMR90~1\AppData\Local\Temp\ccyjM0JL.s:30398  .debug_str:0000000000029366 .LASF2728
C:\Users\CYMR90~1\AppData\Local\Temp\ccyjM0JL.s:24171  .debug_str:0000000000010620 .LASF2729
C:\Users\CYMR90~1\AppData\Local\Temp\ccyjM0JL.s:26768  .debug_str:000000000001adce .LASF2730
C:\Users\CYMR90~1\AppData\Local\Temp\ccyjM0JL.s:20605  .debug_str:00000000000022e5 .LASF2731
C:\Users\CYMR90~1\AppData\Local\Temp\ccyjM0JL.s:25812  .debug_str:0000000000017066 .LASF2732
C:\Users\CYMR90~1\AppData\Local\Temp\ccyjM0JL.s:25115  .debug_str:00000000000143b0 .LASF2733
C:\Users\CYMR90~1\AppData\Local\Temp\ccyjM0JL.s:24881  .debug_str:00000000000134d7 .LASF2734
C:\Users\CYMR90~1\AppData\Local\Temp\ccyjM0JL.s:23771  .debug_str:000000000000edbf .LASF2735
C:\Users\CYMR90~1\AppData\Local\Temp\ccyjM0JL.s:30958  .debug_str:000000000002b471 .LASF2736
C:\Users\CYMR90~1\AppData\Local\Temp\ccyjM0JL.s:22755  .debug_str:000000000000ac32 .LASF2737
C:\Users\CYMR90~1\AppData\Local\Temp\ccyjM0JL.s:25972  .debug_str:00000000000179a4 .LASF2738
C:\Users\CYMR90~1\AppData\Local\Temp\ccyjM0JL.s:29228  .debug_str:0000000000024616 .LASF2739
C:\Users\CYMR90~1\AppData\Local\Temp\ccyjM0JL.s:21029  .debug_str:0000000000003e22 .LASF2740
C:\Users\CYMR90~1\AppData\Local\Temp\ccyjM0JL.s:24297  .debug_str:0000000000010efa .LASF2741
C:\Users\CYMR90~1\AppData\Local\Temp\ccyjM0JL.s:27500  .debug_str:000000000001dd03 .LASF2742
C:\Users\CYMR90~1\AppData\Local\Temp\ccyjM0JL.s:30700  .debug_str:000000000002a522 .LASF2743
C:\Users\CYMR90~1\AppData\Local\Temp\ccyjM0JL.s:22513  .debug_str:0000000000009c83 .LASF2744
C:\Users\CYMR90~1\AppData\Local\Temp\ccyjM0JL.s:25733  .debug_str:00000000000168f4 .LASF2745
C:\Users\CYMR90~1\AppData\Local\Temp\ccyjM0JL.s:27740  .debug_str:000000000001eb98 .LASF2746
C:\Users\CYMR90~1\AppData\Local\Temp\ccyjM0JL.s:21077  .debug_str:000000000000411a .LASF2747
C:\Users\CYMR90~1\AppData\Local\Temp\ccyjM0JL.s:25846  .debug_str:000000000001724c .LASF2748
C:\Users\CYMR90~1\AppData\Local\Temp\ccyjM0JL.s:30614  .debug_str:000000000002a023 .LASF2749
C:\Users\CYMR90~1\AppData\Local\Temp\ccyjM0JL.s:23937  .debug_str:000000000000f74e .LASF2750
C:\Users\CYMR90~1\AppData\Local\Temp\ccyjM0JL.s:28660  .debug_str:00000000000223ad .LASF2751
C:\Users\CYMR90~1\AppData\Local\Temp\ccyjM0JL.s:21973  .debug_str:000000000000797b .LASF2752
C:\Users\CYMR90~1\AppData\Local\Temp\ccyjM0JL.s:25209  .debug_str:0000000000014980 .LASF2753
C:\Users\CYMR90~1\AppData\Local\Temp\ccyjM0JL.s:28358  .debug_str:00000000000210d3 .LASF2754
C:\Users\CYMR90~1\AppData\Local\Temp\ccyjM0JL.s:20203  .debug_str:0000000000000a13 .LASF2755
C:\Users\CYMR90~1\AppData\Local\Temp\ccyjM0JL.s:23463  .debug_str:000000000000db04 .LASF2756
C:\Users\CYMR90~1\AppData\Local\Temp\ccyjM0JL.s:26696  .debug_str:000000000001a979 .LASF2757
C:\Users\CYMR90~1\AppData\Local\Temp\ccyjM0JL.s:29928  .debug_str:00000000000273ff .LASF2758
C:\Users\CYMR90~1\AppData\Local\Temp\ccyjM0JL.s:21725  .debug_str:0000000000006993 .LASF2759
C:\Users\CYMR90~1\AppData\Local\Temp\ccyjM0JL.s:24983  .debug_str:0000000000013b85 .LASF2760
C:\Users\CYMR90~1\AppData\Local\Temp\ccyjM0JL.s:28216  .debug_str:00000000000208a8 .LASF2761
C:\Users\CYMR90~1\AppData\Local\Temp\ccyjM0JL.s:25523  .debug_str:0000000000015b9a .LASF2762
C:\Users\CYMR90~1\AppData\Local\Temp\ccyjM0JL.s:30302  .debug_str:0000000000028db8 .LASF2763
C:\Users\CYMR90~1\AppData\Local\Temp\ccyjM0JL.s:23625  .debug_str:000000000000e4e2 .LASF2764
C:\Users\CYMR90~1\AppData\Local\Temp\ccyjM0JL.s:21661  .debug_str:0000000000006591 .LASF2765
C:\Users\CYMR90~1\AppData\Local\Temp\ccyjM0JL.s:26434  .debug_str:000000000001970a .LASF2766
C:\Users\CYMR90~1\AppData\Local\Temp\ccyjM0JL.s:24935  .debug_str:00000000000138af .LASF2767
C:\Users\CYMR90~1\AppData\Local\Temp\ccyjM0JL.s:28158  .debug_str:000000000002047c .LASF2768
C:\Users\CYMR90~1\AppData\Local\Temp\ccyjM0JL.s:31436  .debug_str:000000000002d421 .LASF2769
C:\Users\CYMR90~1\AppData\Local\Temp\ccyjM0JL.s:27112  .debug_str:000000000001c3c8 .LASF2770
C:\Users\CYMR90~1\AppData\Local\Temp\ccyjM0JL.s:29210  .debug_str:00000000000244d1 .LASF2771
C:\Users\CYMR90~1\AppData\Local\Temp\ccyjM0JL.s:29634  .debug_str:00000000000261dc .LASF2772
C:\Users\CYMR90~1\AppData\Local\Temp\ccyjM0JL.s:23469  .debug_str:000000000000db54 .LASF2773
C:\Users\CYMR90~1\AppData\Local\Temp\ccyjM0JL.s:24709  .debug_str:00000000000129b9 .LASF2774
C:\Users\CYMR90~1\AppData\Local\Temp\ccyjM0JL.s:27892  .debug_str:000000000001f4c5 .LASF2775
C:\Users\CYMR90~1\AppData\Local\Temp\ccyjM0JL.s:31214  .debug_str:000000000002c5a9 .LASF2776
C:\Users\CYMR90~1\AppData\Local\Temp\ccyjM0JL.s:28662  .debug_str:00000000000223c8 .LASF2777
C:\Users\CYMR90~1\AppData\Local\Temp\ccyjM0JL.s:30672  .debug_str:000000000002a379 .LASF2778
C:\Users\CYMR90~1\AppData\Local\Temp\ccyjM0JL.s:21003  .debug_str:0000000000003c5f .LASF2779
C:\Users\CYMR90~1\AppData\Local\Temp\ccyjM0JL.s:25757  .debug_str:0000000000016acc .LASF2780
C:\Users\CYMR90~1\AppData\Local\Temp\ccyjM0JL.s:30526  .debug_str:0000000000029b2e .LASF2781
C:\Users\CYMR90~1\AppData\Local\Temp\ccyjM0JL.s:23851  .debug_str:000000000000f208 .LASF2782
C:\Users\CYMR90~1\AppData\Local\Temp\ccyjM0JL.s:25723  .debug_str:000000000001686f .LASF2783
C:\Users\CYMR90~1\AppData\Local\Temp\ccyjM0JL.s:30494  .debug_str:00000000000298fa .LASF2784
C:\Users\CYMR90~1\AppData\Local\Temp\ccyjM0JL.s:23825  .debug_str:000000000000f08c .LASF2785
C:\Users\CYMR90~1\AppData\Local\Temp\ccyjM0JL.s:28546  .debug_str:0000000000021c84 .LASF2786
C:\Users\CYMR90~1\AppData\Local\Temp\ccyjM0JL.s:24995  .debug_str:0000000000013c23 .LASF2787
C:\Users\CYMR90~1\AppData\Local\Temp\ccyjM0JL.s:20513  .debug_str:0000000000001dd7 .LASF2788
C:\Users\CYMR90~1\AppData\Local\Temp\ccyjM0JL.s:25251  .debug_str:0000000000014bad .LASF2789
C:\Users\CYMR90~1\AppData\Local\Temp\ccyjM0JL.s:30022  .debug_str:0000000000027a44 .LASF2790
C:\Users\CYMR90~1\AppData\Local\Temp\ccyjM0JL.s:23363  .debug_str:000000000000d4ab .LASF2791
C:\Users\CYMR90~1\AppData\Local\Temp\ccyjM0JL.s:28056  .debug_str:000000000001fe6f .LASF2792
C:\Users\CYMR90~1\AppData\Local\Temp\ccyjM0JL.s:26852  .debug_str:000000000001b3b4 .LASF2793
C:\Users\CYMR90~1\AppData\Local\Temp\ccyjM0JL.s:27686  .debug_str:000000000001e7f0 .LASF2794
C:\Users\CYMR90~1\AppData\Local\Temp\ccyjM0JL.s:21019  .debug_str:0000000000003d57 .LASF2795
C:\Users\CYMR90~1\AppData\Local\Temp\ccyjM0JL.s:25773  .debug_str:0000000000016c57 .LASF2796
C:\Users\CYMR90~1\AppData\Local\Temp\ccyjM0JL.s:22359  .debug_str:00000000000092aa .LASF2797
C:\Users\CYMR90~1\AppData\Local\Temp\ccyjM0JL.s:29180  .debug_str:0000000000024203 .LASF2798
C:\Users\CYMR90~1\AppData\Local\Temp\ccyjM0JL.s:20523  .debug_str:0000000000001e76 .LASF2799
C:\Users\CYMR90~1\AppData\Local\Temp\ccyjM0JL.s:23793  .debug_str:000000000000eeda .LASF2800
C:\Users\CYMR90~1\AppData\Local\Temp\ccyjM0JL.s:29980  .debug_str:0000000000027809 .LASF2801
C:\Users\CYMR90~1\AppData\Local\Temp\ccyjM0JL.s:30276  .debug_str:0000000000028c1b .LASF2802
C:\Users\CYMR90~1\AppData\Local\Temp\ccyjM0JL.s:21981  .debug_str:00000000000079e7 .LASF2803
C:\Users\CYMR90~1\AppData\Local\Temp\ccyjM0JL.s:25217  .debug_str:00000000000149d1 .LASF2804
C:\Users\CYMR90~1\AppData\Local\Temp\ccyjM0JL.s:22523  .debug_str:0000000000009cff .LASF2805
C:\Users\CYMR90~1\AppData\Local\Temp\ccyjM0JL.s:20295  .debug_str:000000000000104c .LASF2806
C:\Users\CYMR90~1\AppData\Local\Temp\ccyjM0JL.s:23555  .debug_str:000000000000e0b2 .LASF2807
C:\Users\CYMR90~1\AppData\Local\Temp\ccyjM0JL.s:22073  .debug_str:0000000000008084 .LASF2808
C:\Users\CYMR90~1\AppData\Local\Temp\ccyjM0JL.s:26074  .debug_str:0000000000017fe6 .LASF2809
C:\Users\CYMR90~1\AppData\Local\Temp\ccyjM0JL.s:30860  .debug_str:000000000002aeec .LASF2810
C:\Users\CYMR90~1\AppData\Local\Temp\ccyjM0JL.s:24169  .debug_str:0000000000010609 .LASF2811
C:\Users\CYMR90~1\AppData\Local\Temp\ccyjM0JL.s:28910  .debug_str:000000000002325d .LASF2812
C:\Users\CYMR90~1\AppData\Local\Temp\ccyjM0JL.s:29526  .debug_str:0000000000025abd .LASF2813
C:\Users\CYMR90~1\AppData\Local\Temp\ccyjM0JL.s:26974  .debug_str:000000000001bb09 .LASF2814
C:\Users\CYMR90~1\AppData\Local\Temp\ccyjM0JL.s:24351  .debug_str:00000000000111f2 .LASF2815
C:\Users\CYMR90~1\AppData\Local\Temp\ccyjM0JL.s:30722  .debug_str:000000000002a64a .LASF2816
C:\Users\CYMR90~1\AppData\Local\Temp\ccyjM0JL.s:21753  .debug_str:0000000000006b3e .LASF2817
C:\Users\CYMR90~1\AppData\Local\Temp\ccyjM0JL.s:22171  .debug_str:000000000000871e .LASF2818
C:\Users\CYMR90~1\AppData\Local\Temp\ccyjM0JL.s:23157  .debug_str:000000000000c6e0 .LASF2819
C:\Users\CYMR90~1\AppData\Local\Temp\ccyjM0JL.s:30742  .debug_str:000000000002a7a9 .LASF2820
C:\Users\CYMR90~1\AppData\Local\Temp\ccyjM0JL.s:20933  .debug_str:00000000000037cf .LASF2821
C:\Users\CYMR90~1\AppData\Local\Temp\ccyjM0JL.s:25908  .debug_str:00000000000175c5 .LASF2822
C:\Users\CYMR90~1\AppData\Local\Temp\ccyjM0JL.s:21295  .debug_str:0000000000004ff9 .LASF2823
C:\Users\CYMR90~1\AppData\Local\Temp\ccyjM0JL.s:24703  .debug_str:0000000000012956 .LASF2824
C:\Users\CYMR90~1\AppData\Local\Temp\ccyjM0JL.s:21339  .debug_str:0000000000005293 .LASF2825
C:\Users\CYMR90~1\AppData\Local\Temp\ccyjM0JL.s:28226  .debug_str:000000000002092a .LASF2826
C:\Users\CYMR90~1\AppData\Local\Temp\ccyjM0JL.s:24979  .debug_str:0000000000013b49 .LASF2827
C:\Users\CYMR90~1\AppData\Local\Temp\ccyjM0JL.s:23761  .debug_str:000000000000ed5e .LASF2828
C:\Users\CYMR90~1\AppData\Local\Temp\ccyjM0JL.s:22805  .debug_str:000000000000af93 .LASF2829
C:\Users\CYMR90~1\AppData\Local\Temp\ccyjM0JL.s:20357  .debug_str:00000000000013c1 .LASF2830
C:\Users\CYMR90~1\AppData\Local\Temp\ccyjM0JL.s:23193  .debug_str:000000000000c934 .LASF2831
C:\Users\CYMR90~1\AppData\Local\Temp\ccyjM0JL.s:24989  .debug_str:0000000000013bc7 .LASF2832
C:\Users\CYMR90~1\AppData\Local\Temp\ccyjM0JL.s:28222  .debug_str:00000000000208fb .LASF2833
C:\Users\CYMR90~1\AppData\Local\Temp\ccyjM0JL.s:20067  .debug_str:0000000000000246 .LASF2834
C:\Users\CYMR90~1\AppData\Local\Temp\ccyjM0JL.s:23325  .debug_str:000000000000d1fb .LASF2835
C:\Users\CYMR90~1\AppData\Local\Temp\ccyjM0JL.s:26540  .debug_str:0000000000019e62 .LASF2836
C:\Users\CYMR90~1\AppData\Local\Temp\ccyjM0JL.s:20267  .debug_str:0000000000000e1b .LASF2837
C:\Users\CYMR90~1\AppData\Local\Temp\ccyjM0JL.s:30046  .debug_str:0000000000027ba8 .LASF2838
C:\Users\CYMR90~1\AppData\Local\Temp\ccyjM0JL.s:23807  .debug_str:000000000000ef73 .LASF2839
C:\Users\CYMR90~1\AppData\Local\Temp\ccyjM0JL.s:26776  .debug_str:000000000001ae52 .LASF2840
C:\Users\CYMR90~1\AppData\Local\Temp\ccyjM0JL.s:31272  .debug_str:000000000002c984 .LASF2841
C:\Users\CYMR90~1\AppData\Local\Temp\ccyjM0JL.s:20389  .debug_str:00000000000015c0 .LASF2842
C:\Users\CYMR90~1\AppData\Local\Temp\ccyjM0JL.s:25125  .debug_str:0000000000014451 .LASF2843
C:\Users\CYMR90~1\AppData\Local\Temp\ccyjM0JL.s:23307  .debug_str:000000000000d0d6 .LASF2844
C:\Users\CYMR90~1\AppData\Local\Temp\ccyjM0JL.s:30950  .debug_str:000000000002b3f7 .LASF2845
C:\Users\CYMR90~1\AppData\Local\Temp\ccyjM0JL.s:27116  .debug_str:000000000001c3e7 .LASF2846
C:\Users\CYMR90~1\AppData\Local\Temp\ccyjM0JL.s:23371  .debug_str:000000000000d503 .LASF2847
C:\Users\CYMR90~1\AppData\Local\Temp\ccyjM0JL.s:28698  .debug_str:00000000000225ba .LASF2848
C:\Users\CYMR90~1\AppData\Local\Temp\ccyjM0JL.s:20505  .debug_str:0000000000001d63 .LASF2849
C:\Users\CYMR90~1\AppData\Local\Temp\ccyjM0JL.s:23777  .debug_str:000000000000ee0a .LASF2850
C:\Users\CYMR90~1\AppData\Local\Temp\ccyjM0JL.s:26996  .debug_str:000000000001bc2d .LASF2851
C:\Users\CYMR90~1\AppData\Local\Temp\ccyjM0JL.s:30168  .debug_str:0000000000028456 .LASF2852
C:\Users\CYMR90~1\AppData\Local\Temp\ccyjM0JL.s:28536  .debug_str:0000000000021bf4 .LASF2853
C:\Users\CYMR90~1\AppData\Local\Temp\ccyjM0JL.s:25203  .debug_str:0000000000014930 .LASF2854
C:\Users\CYMR90~1\AppData\Local\Temp\ccyjM0JL.s:25243  .debug_str:0000000000014b51 .LASF2855
C:\Users\CYMR90~1\AppData\Local\Temp\ccyjM0JL.s:20283  .debug_str:0000000000000f98 .LASF2856
C:\Users\CYMR90~1\AppData\Local\Temp\ccyjM0JL.s:20429  .debug_str:00000000000018bb .LASF2857
C:\Users\CYMR90~1\AppData\Local\Temp\ccyjM0JL.s:25781  .debug_str:0000000000016cd1 .LASF2858
C:\Users\CYMR90~1\AppData\Local\Temp\ccyjM0JL.s:28696  .debug_str:00000000000225a5 .LASF2859
C:\Users\CYMR90~1\AppData\Local\Temp\ccyjM0JL.s:23871  .debug_str:000000000000f358 .LASF2860
C:\Users\CYMR90~1\AppData\Local\Temp\ccyjM0JL.s:28598  .debug_str:0000000000022001 .LASF2861
C:\Users\CYMR90~1\AppData\Local\Temp\ccyjM0JL.s:28766  .debug_str:000000000002299c .LASF2862
C:\Users\CYMR90~1\AppData\Local\Temp\ccyjM0JL.s:26688  .debug_str:000000000001a913 .LASF2863
C:\Users\CYMR90~1\AppData\Local\Temp\ccyjM0JL.s:25938  .debug_str:0000000000017762 .LASF2864
C:\Users\CYMR90~1\AppData\Local\Temp\ccyjM0JL.s:23645  .debug_str:000000000000e5f8 .LASF2865
C:\Users\CYMR90~1\AppData\Local\Temp\ccyjM0JL.s:24829  .debug_str:000000000001318a .LASF2866
C:\Users\CYMR90~1\AppData\Local\Temp\ccyjM0JL.s:24793  .debug_str:0000000000012f34 .LASF2867
C:\Users\CYMR90~1\AppData\Local\Temp\ccyjM0JL.s:20845  .debug_str:0000000000003251 .LASF2868
C:\Users\CYMR90~1\AppData\Local\Temp\ccyjM0JL.s:20725  .debug_str:0000000000002a97 .LASF2869
C:\Users\CYMR90~1\AppData\Local\Temp\ccyjM0JL.s:28346  .debug_str:000000000002102d .LASF2870
C:\Users\CYMR90~1\AppData\Local\Temp\ccyjM0JL.s:29360  .debug_str:0000000000024ebc .LASF2871
C:\Users\CYMR90~1\AppData\Local\Temp\ccyjM0JL.s:29034  .debug_str:0000000000023995 .LASF2872
C:\Users\CYMR90~1\AppData\Local\Temp\ccyjM0JL.s:22867  .debug_str:000000000000b3df .LASF2873
C:\Users\CYMR90~1\AppData\Local\Temp\ccyjM0JL.s:26076  .debug_str:0000000000017ffd .LASF2874
C:\Users\CYMR90~1\AppData\Local\Temp\ccyjM0JL.s:29338  .debug_str:0000000000024d49 .LASF2875
C:\Users\CYMR90~1\AppData\Local\Temp\ccyjM0JL.s:21135  .debug_str:0000000000004531 .LASF2876
C:\Users\CYMR90~1\AppData\Local\Temp\ccyjM0JL.s:24321  .debug_str:0000000000011041 .LASF2877
C:\Users\CYMR90~1\AppData\Local\Temp\ccyjM0JL.s:27520  .debug_str:000000000001de3a .LASF2878
C:\Users\CYMR90~1\AppData\Local\Temp\ccyjM0JL.s:31370  .debug_str:000000000002cfad .LASF2879
C:\Users\CYMR90~1\AppData\Local\Temp\ccyjM0JL.s:22627  .debug_str:000000000000a36f .LASF2880
C:\Users\CYMR90~1\AppData\Local\Temp\ccyjM0JL.s:25852  .debug_str:00000000000172a9 .LASF2881
C:\Users\CYMR90~1\AppData\Local\Temp\ccyjM0JL.s:29100  .debug_str:0000000000023d99 .LASF2882
C:\Users\CYMR90~1\AppData\Local\Temp\ccyjM0JL.s:27252  .debug_str:000000000001cc74 .LASF2883
C:\Users\CYMR90~1\AppData\Local\Temp\ccyjM0JL.s:20569  .debug_str:00000000000020ef .LASF2884
C:\Users\CYMR90~1\AppData\Local\Temp\ccyjM0JL.s:25311  .debug_str:0000000000014f6c .LASF2885
C:\Users\CYMR90~1\AppData\Local\Temp\ccyjM0JL.s:30082  .debug_str:0000000000027e4c .LASF2886
C:\Users\CYMR90~1\AppData\Local\Temp\ccyjM0JL.s:23421  .debug_str:000000000000d8c9 .LASF2887
C:\Users\CYMR90~1\AppData\Local\Temp\ccyjM0JL.s:28122  .debug_str:00000000000202ae .LASF2888
C:\Users\CYMR90~1\AppData\Local\Temp\ccyjM0JL.s:30766  .debug_str:000000000002a956 .LASF2889
C:\Users\CYMR90~1\AppData\Local\Temp\ccyjM0JL.s:30988  .debug_str:000000000002b674 .LASF2890
C:\Users\CYMR90~1\AppData\Local\Temp\ccyjM0JL.s:26726  .debug_str:000000000001ab2c .LASF2891
C:\Users\CYMR90~1\AppData\Local\Temp\ccyjM0JL.s:21871  .debug_str:00000000000072cc .LASF2892
C:\Users\CYMR90~1\AppData\Local\Temp\ccyjM0JL.s:22179  .debug_str:0000000000008796 .LASF2893
C:\Users\CYMR90~1\AppData\Local\Temp\ccyjM0JL.s:26136  .debug_str:0000000000018352 .LASF2894
C:\Users\CYMR90~1\AppData\Local\Temp\ccyjM0JL.s:31088  .debug_str:000000000002bd08 .LASF2895
C:\Users\CYMR90~1\AppData\Local\Temp\ccyjM0JL.s:24567  .debug_str:0000000000011fd2 .LASF2896
C:\Users\CYMR90~1\AppData\Local\Temp\ccyjM0JL.s:25407  .debug_str:00000000000154ed .LASF2897
C:\Users\CYMR90~1\AppData\Local\Temp\ccyjM0JL.s:21571  .debug_str:0000000000006004 .LASF2898
C:\Users\CYMR90~1\AppData\Local\Temp\ccyjM0JL.s:28372  .debug_str:0000000000021191 .LASF2899
C:\Users\CYMR90~1\AppData\Local\Temp\ccyjM0JL.s:29774  .debug_str:0000000000026a9c .LASF2900
C:\Users\CYMR90~1\AppData\Local\Temp\ccyjM0JL.s:31186  .debug_str:000000000002c3c2 .LASF2901
C:\Users\CYMR90~1\AppData\Local\Temp\ccyjM0JL.s:21087  .debug_str:000000000000424c .LASF2902
C:\Users\CYMR90~1\AppData\Local\Temp\ccyjM0JL.s:24837  .debug_str:0000000000013218 .LASF2903
C:\Users\CYMR90~1\AppData\Local\Temp\ccyjM0JL.s:30280  .debug_str:0000000000028c49 .LASF2904
C:\Users\CYMR90~1\AppData\Local\Temp\ccyjM0JL.s:28190  .debug_str:00000000000206a5 .LASF2905
C:\Users\CYMR90~1\AppData\Local\Temp\ccyjM0JL.s:27074  .debug_str:000000000001c146 .LASF2906
C:\Users\CYMR90~1\AppData\Local\Temp\ccyjM0JL.s:26636  .debug_str:000000000001a575 .LASF2907
C:\Users\CYMR90~1\AppData\Local\Temp\ccyjM0JL.s:26558  .debug_str:0000000000019f41 .LASF2908
C:\Users\CYMR90~1\AppData\Local\Temp\ccyjM0JL.s:28808  .debug_str:0000000000022c1f .LASF2909
C:\Users\CYMR90~1\AppData\Local\Temp\ccyjM0JL.s:27070  .debug_str:000000000001c119 .LASF2910
C:\Users\CYMR90~1\AppData\Local\Temp\ccyjM0JL.s:26202  .debug_str:0000000000018762 .LASF2911
C:\Users\CYMR90~1\AppData\Local\Temp\ccyjM0JL.s:27604  .debug_str:000000000001e35e .LASF2912
C:\Users\CYMR90~1\AppData\Local\Temp\ccyjM0JL.s:24771  .debug_str:0000000000012dc8 .LASF2913
C:\Users\CYMR90~1\AppData\Local\Temp\ccyjM0JL.s:23505  .debug_str:000000000000dd58 .LASF2914
C:\Users\CYMR90~1\AppData\Local\Temp\ccyjM0JL.s:22621  .debug_str:000000000000a30c .LASF2915
C:\Users\CYMR90~1\AppData\Local\Temp\ccyjM0JL.s:21709  .debug_str:00000000000068a8 .LASF2916
C:\Users\CYMR90~1\AppData\Local\Temp\ccyjM0JL.s:20849  .debug_str:0000000000003287 .LASF2917
C:\Users\CYMR90~1\AppData\Local\Temp\ccyjM0JL.s:31326  .debug_str:000000000002cd04 .LASF2918
C:\Users\CYMR90~1\AppData\Local\Temp\ccyjM0JL.s:25663  .debug_str:0000000000016498 .LASF2919
C:\Users\CYMR90~1\AppData\Local\Temp\ccyjM0JL.s:29264  .debug_str:0000000000024858 .LASF2920
C:\Users\CYMR90~1\AppData\Local\Temp\ccyjM0JL.s:21055  .debug_str:0000000000003ff8 .LASF2921
C:\Users\CYMR90~1\AppData\Local\Temp\ccyjM0JL.s:24337  .debug_str:0000000000011125 .LASF2922
C:\Users\CYMR90~1\AppData\Local\Temp\ccyjM0JL.s:27540  .debug_str:000000000001df5c .LASF2923
C:\Users\CYMR90~1\AppData\Local\Temp\ccyjM0JL.s:22549  .debug_str:0000000000009e8a .LASF2924
C:\Users\CYMR90~1\AppData\Local\Temp\ccyjM0JL.s:22641  .debug_str:000000000000a483 .LASF2925
C:\Users\CYMR90~1\AppData\Local\Temp\ccyjM0JL.s:28888  .debug_str:000000000002313a .LASF2926
C:\Users\CYMR90~1\AppData\Local\Temp\ccyjM0JL.s:31372  .debug_str:000000000002cfbf .LASF2927
C:\Users\CYMR90~1\AppData\Local\Temp\ccyjM0JL.s:29342  .debug_str:0000000000024d81 .LASF2928
C:\Users\CYMR90~1\AppData\Local\Temp\ccyjM0JL.s:25465  .debug_str:000000000001582c .LASF2929
C:\Users\CYMR90~1\AppData\Local\Temp\ccyjM0JL.s:28172  .debug_str:0000000000020580 .LASF2930
C:\Users\CYMR90~1\AppData\Local\Temp\ccyjM0JL.s:26658  .debug_str:000000000001a696 .LASF2931
C:\Users\CYMR90~1\AppData\Local\Temp\ccyjM0JL.s:26692  .debug_str:000000000001a941 .LASF2932
C:\Users\CYMR90~1\AppData\Local\Temp\ccyjM0JL.s:26732  .debug_str:000000000001abb7 .LASF2933
C:\Users\CYMR90~1\AppData\Local\Temp\ccyjM0JL.s:25689  .debug_str:00000000000165cf .LASF2934
C:\Users\CYMR90~1\AppData\Local\Temp\ccyjM0JL.s:24691  .debug_str:0000000000012887 .LASF2935
C:\Users\CYMR90~1\AppData\Local\Temp\ccyjM0JL.s:25073  .debug_str:00000000000140cb .LASF2936
C:\Users\CYMR90~1\AppData\Local\Temp\ccyjM0JL.s:29690  .debug_str:000000000002653e .LASF2937
C:\Users\CYMR90~1\AppData\Local\Temp\ccyjM0JL.s:26900  .debug_str:000000000001b67a .LASF2938
C:\Users\CYMR90~1\AppData\Local\Temp\ccyjM0JL.s:21555  .debug_str:0000000000005f25 .LASF2939
C:\Users\CYMR90~1\AppData\Local\Temp\ccyjM0JL.s:23503  .debug_str:000000000000dd36 .LASF2940
C:\Users\CYMR90~1\AppData\Local\Temp\ccyjM0JL.s:28504  .debug_str:0000000000021a31 .LASF2941
C:\Users\CYMR90~1\AppData\Local\Temp\ccyjM0JL.s:30056  .debug_str:0000000000027c5b .LASF2942
C:\Users\CYMR90~1\AppData\Local\Temp\ccyjM0JL.s:23065  .debug_str:000000000000c168 .LASF2943
C:\Users\CYMR90~1\AppData\Local\Temp\ccyjM0JL.s:23627  .debug_str:000000000000e4fb .LASF2944
C:\Users\CYMR90~1\AppData\Local\Temp\ccyjM0JL.s:27648  .debug_str:000000000001e5d9 .LASF2945
C:\Users\CYMR90~1\AppData\Local\Temp\ccyjM0JL.s:21317  .debug_str:0000000000005144 .LASF2946
C:\Users\CYMR90~1\AppData\Local\Temp\ccyjM0JL.s:30944  .debug_str:000000000002b39e .LASF2947
C:\Users\CYMR90~1\AppData\Local\Temp\ccyjM0JL.s:27992  .debug_str:000000000001faa3 .LASF2948
C:\Users\CYMR90~1\AppData\Local\Temp\ccyjM0JL.s:29930  .debug_str:0000000000027416 .LASF2949
C:\Users\CYMR90~1\AppData\Local\Temp\ccyjM0JL.s:30790  .debug_str:000000000002aac0 .LASF2950
C:\Users\CYMR90~1\AppData\Local\Temp\ccyjM0JL.s:31440  .debug_str:000000000002d455 .LASF2951
C:\Users\CYMR90~1\AppData\Local\Temp\ccyjM0JL.s:20819  .debug_str:000000000000309b .LASF2952
C:\Users\CYMR90~1\AppData\Local\Temp\ccyjM0JL.s:20547  .debug_str:0000000000001fcd .LASF2953
C:\Users\CYMR90~1\AppData\Local\Temp\ccyjM0JL.s:27676  .debug_str:000000000001e784 .LASF2954
C:\Users\CYMR90~1\AppData\Local\Temp\ccyjM0JL.s:20795  .debug_str:0000000000002f24 .LASF2955
C:\Users\CYMR90~1\AppData\Local\Temp\ccyjM0JL.s:24977  .debug_str:0000000000013b33 .LASF2956
C:\Users\CYMR90~1\AppData\Local\Temp\ccyjM0JL.s:31230  .debug_str:000000000002c66e .LASF2957
C:\Users\CYMR90~1\AppData\Local\Temp\ccyjM0JL.s:29832  .debug_str:0000000000026e27 .LASF2958
C:\Users\CYMR90~1\AppData\Local\Temp\ccyjM0JL.s:21541  .debug_str:0000000000005e83 .LASF2959
C:\Users\CYMR90~1\AppData\Local\Temp\ccyjM0JL.s:30912  .debug_str:000000000002b1f2 .LASF2960
C:\Users\CYMR90~1\AppData\Local\Temp\ccyjM0JL.s:27238  .debug_str:000000000001cbb3 .LASF2961
C:\Users\CYMR90~1\AppData\Local\Temp\ccyjM0JL.s:28242  .debug_str:0000000000020a19 .LASF2962
C:\Users\CYMR90~1\AppData\Local\Temp\ccyjM0JL.s:23993  .debug_str:000000000000fb39 .LASF2963
C:\Users\CYMR90~1\AppData\Local\Temp\ccyjM0JL.s:23141  .debug_str:000000000000c5de .LASF2964
C:\Users\CYMR90~1\AppData\Local\Temp\ccyjM0JL.s:26962  .debug_str:000000000001ba85 .LASF2965
C:\Users\CYMR90~1\AppData\Local\Temp\ccyjM0JL.s:30240  .debug_str:0000000000028972 .LASF2966
C:\Users\CYMR90~1\AppData\Local\Temp\ccyjM0JL.s:28654  .debug_str:0000000000022338 .LASF2967
C:\Users\CYMR90~1\AppData\Local\Temp\ccyjM0JL.s:26950  .debug_str:000000000001b990 .LASF2968
C:\Users\CYMR90~1\AppData\Local\Temp\ccyjM0JL.s:21145  .debug_str:00000000000045cf .LASF2969
C:\Users\CYMR90~1\AppData\Local\Temp\ccyjM0JL.s:26038  .debug_str:0000000000017d9d .LASF2970
C:\Users\CYMR90~1\AppData\Local\Temp\ccyjM0JL.s:28562  .debug_str:0000000000021daa .LASF2971
C:\Users\CYMR90~1\AppData\Local\Temp\ccyjM0JL.s:22029  .debug_str:0000000000007d22 .LASF2972
C:\Users\CYMR90~1\AppData\Local\Temp\ccyjM0JL.s:27416  .debug_str:000000000001d788 .LASF2973
C:\Users\CYMR90~1\AppData\Local\Temp\ccyjM0JL.s:23445  .debug_str:000000000000da06 .LASF2974
C:\Users\CYMR90~1\AppData\Local\Temp\ccyjM0JL.s:31010  .debug_str:000000000002b7e7 .LASF2975
C:\Users\CYMR90~1\AppData\Local\Temp\ccyjM0JL.s:26070  .debug_str:0000000000017f94 .LASF2976
C:\Users\CYMR90~1\AppData\Local\Temp\ccyjM0JL.s:21017  .debug_str:0000000000003d34 .LASF2977
C:\Users\CYMR90~1\AppData\Local\Temp\ccyjM0JL.s:26302  .debug_str:0000000000018e22 .LASF2978
C:\Users\CYMR90~1\AppData\Local\Temp\ccyjM0JL.s:20059  .debug_str:00000000000001b4 .LASF2979
C:\Users\CYMR90~1\AppData\Local\Temp\ccyjM0JL.s:23817  .debug_str:000000000000effc .LASF2980
C:\Users\CYMR90~1\AppData\Local\Temp\ccyjM0JL.s:25293  .debug_str:0000000000014e15 .LASF2981
C:\Users\CYMR90~1\AppData\Local\Temp\ccyjM0JL.s:21169  .debug_str:000000000000476a .LASF2982
C:\Users\CYMR90~1\AppData\Local\Temp\ccyjM0JL.s:23841  .debug_str:000000000000f164 .LASF2983
C:\Users\CYMR90~1\AppData\Local\Temp\ccyjM0JL.s:23529  .debug_str:000000000000decc .LASF2984
C:\Users\CYMR90~1\AppData\Local\Temp\ccyjM0JL.s:29050  .debug_str:0000000000023aba .LASF2985
C:\Users\CYMR90~1\AppData\Local\Temp\ccyjM0JL.s:25882  .debug_str:0000000000017461 .LASF2986
C:\Users\CYMR90~1\AppData\Local\Temp\ccyjM0JL.s:24973  .debug_str:0000000000013ae9 .LASF2987
C:\Users\CYMR90~1\AppData\Local\Temp\ccyjM0JL.s:22251  .debug_str:0000000000008c4d .LASF2988
C:\Users\CYMR90~1\AppData\Local\Temp\ccyjM0JL.s:30752  .debug_str:000000000002a861 .LASF2989
C:\Users\CYMR90~1\AppData\Local\Temp\ccyjM0JL.s:30878  .debug_str:000000000002afd8 .LASF2990
C:\Users\CYMR90~1\AppData\Local\Temp\ccyjM0JL.s:25381  .debug_str:000000000001537e .LASF2991
C:\Users\CYMR90~1\AppData\Local\Temp\ccyjM0JL.s:21387  .debug_str:0000000000005562 .LASF2992
C:\Users\CYMR90~1\AppData\Local\Temp\ccyjM0JL.s:25559  .debug_str:0000000000015de2 .LASF2993
C:\Users\CYMR90~1\AppData\Local\Temp\ccyjM0JL.s:28788  .debug_str:0000000000022b01 .LASF2994
C:\Users\CYMR90~1\AppData\Local\Temp\ccyjM0JL.s:24189  .debug_str:000000000001072e .LASF2995
C:\Users\CYMR90~1\AppData\Local\Temp\ccyjM0JL.s:22661  .debug_str:000000000000a5cc .LASF2996
C:\Users\CYMR90~1\AppData\Local\Temp\ccyjM0JL.s:20193  .debug_str:0000000000000978 .LASF2997
C:\Users\CYMR90~1\AppData\Local\Temp\ccyjM0JL.s:28234  .debug_str:00000000000209a7 .LASF2998
C:\Users\CYMR90~1\AppData\Local\Temp\ccyjM0JL.s:31294  .debug_str:000000000002ca9b .LASF2999
C:\Users\CYMR90~1\AppData\Local\Temp\ccyjM0JL.s:29176  .debug_str:00000000000241b8 .LASF3000
C:\Users\CYMR90~1\AppData\Local\Temp\ccyjM0JL.s:28556  .debug_str:0000000000021d48 .LASF3001
C:\Users\CYMR90~1\AppData\Local\Temp\ccyjM0JL.s:21347  .debug_str:0000000000005302 .LASF3002
C:\Users\CYMR90~1\AppData\Local\Temp\ccyjM0JL.s:31414  .debug_str:000000000002d2b8 .LASF3003
C:\Users\CYMR90~1\AppData\Local\Temp\ccyjM0JL.s:23719  .debug_str:000000000000ea9a .LASF3004
C:\Users\CYMR90~1\AppData\Local\Temp\ccyjM0JL.s:27086  .debug_str:000000000001c214 .LASF3005
C:\Users\CYMR90~1\AppData\Local\Temp\ccyjM0JL.s:20387  .debug_str:00000000000015a9 .LASF3006
C:\Users\CYMR90~1\AppData\Local\Temp\ccyjM0JL.s:24315  .debug_str:0000000000010fed .LASF3007
C:\Users\CYMR90~1\AppData\Local\Temp\ccyjM0JL.s:23443  .debug_str:000000000000d9ed .LASF3008
C:\Users\CYMR90~1\AppData\Local\Temp\ccyjM0JL.s:20573  .debug_str:000000000000211b .LASF3009
C:\Users\CYMR90~1\AppData\Local\Temp\ccyjM0JL.s:27784  .debug_str:000000000001edf6 .LASF3010
C:\Users\CYMR90~1\AppData\Local\Temp\ccyjM0JL.s:23089  .debug_str:000000000000c2f4 .LASF3011
C:\Users\CYMR90~1\AppData\Local\Temp\ccyjM0JL.s:21857  .debug_str:00000000000071d6 .LASF3012
C:\Users\CYMR90~1\AppData\Local\Temp\ccyjM0JL.s:26228  .debug_str:00000000000188e9 .LASF3013
C:\Users\CYMR90~1\AppData\Local\Temp\ccyjM0JL.s:24035  .debug_str:000000000000fde2 .LASF3014
C:\Users\CYMR90~1\AppData\Local\Temp\ccyjM0JL.s:20803  .debug_str:0000000000002fa6 .LASF3015
C:\Users\CYMR90~1\AppData\Local\Temp\ccyjM0JL.s:23155  .debug_str:000000000000c6cc .LASF3016
C:\Users\CYMR90~1\AppData\Local\Temp\ccyjM0JL.s:23651  .debug_str:000000000000e65a .LASF3017
C:\Users\CYMR90~1\AppData\Local\Temp\ccyjM0JL.s:31042  .debug_str:000000000002b9fe .LASF3018
C:\Users\CYMR90~1\AppData\Local\Temp\ccyjM0JL.s:21827  .debug_str:0000000000006fda .LASF3019
C:\Users\CYMR90~1\AppData\Local\Temp\ccyjM0JL.s:28118  .debug_str:000000000002026f .LASF3020
C:\Users\CYMR90~1\AppData\Local\Temp\ccyjM0JL.s:24023  .debug_str:000000000000fd0f .LASF3021
C:\Users\CYMR90~1\AppData\Local\Temp\ccyjM0JL.s:25894  .debug_str:0000000000017521 .LASF3022
C:\Users\CYMR90~1\AppData\Local\Temp\ccyjM0JL.s:21303  .debug_str:000000000000506c .LASF3023
C:\Users\CYMR90~1\AppData\Local\Temp\ccyjM0JL.s:30966  .debug_str:000000000002b4e7 .LASF3024
C:\Users\CYMR90~1\AppData\Local\Temp\ccyjM0JL.s:23605  .debug_str:000000000000e389 .LASF3025
C:\Users\CYMR90~1\AppData\Local\Temp\ccyjM0JL.s:22693  .debug_str:000000000000a77b .LASF3026
C:\Users\CYMR90~1\AppData\Local\Temp\ccyjM0JL.s:29406  .debug_str:0000000000025198 .LASF3027
C:\Users\CYMR90~1\AppData\Local\Temp\ccyjM0JL.s:23773  .debug_str:000000000000edda .LASF3028
C:\Users\CYMR90~1\AppData\Local\Temp\ccyjM0JL.s:23575  .debug_str:000000000000e1d9 .LASF3029
C:\Users\CYMR90~1\AppData\Local\Temp\ccyjM0JL.s:30164  .debug_str:0000000000028409 .LASF3030
C:\Users\CYMR90~1\AppData\Local\Temp\ccyjM0JL.s:22217  .debug_str:0000000000008a09 .LASF3031
C:\Users\CYMR90~1\AppData\Local\Temp\ccyjM0JL.s:25960  .debug_str:00000000000178c7 .LASF3032
C:\Users\CYMR90~1\AppData\Local\Temp\ccyjM0JL.s:30260  .debug_str:0000000000028af1 .LASF3033
C:\Users\CYMR90~1\AppData\Local\Temp\ccyjM0JL.s:20075  .debug_str:0000000000000296 .LASF3034
C:\Users\CYMR90~1\AppData\Local\Temp\ccyjM0JL.s:21061  .debug_str:0000000000004054 .LASF3035
C:\Users\CYMR90~1\AppData\Local\Temp\ccyjM0JL.s:27140  .debug_str:000000000001c54a .LASF3036
C:\Users\CYMR90~1\AppData\Local\Temp\ccyjM0JL.s:26940  .debug_str:000000000001b8f4 .LASF3037
C:\Users\CYMR90~1\AppData\Local\Temp\ccyjM0JL.s:21153  .debug_str:0000000000004662 .LASF3038
C:\Users\CYMR90~1\AppData\Local\Temp\ccyjM0JL.s:23449  .debug_str:000000000000da4a .LASF3039
C:\Users\CYMR90~1\AppData\Local\Temp\ccyjM0JL.s:26546  .debug_str:0000000000019eae .LASF3040
C:\Users\CYMR90~1\AppData\Local\Temp\ccyjM0JL.s:20327  .debug_str:0000000000001223 .LASF3041
C:\Users\CYMR90~1\AppData\Local\Temp\ccyjM0JL.s:23815  .debug_str:000000000000efe2 .LASF3042
C:\Users\CYMR90~1\AppData\Local\Temp\ccyjM0JL.s:27144  .debug_str:000000000001c57e .LASF3043
C:\Users\CYMR90~1\AppData\Local\Temp\ccyjM0JL.s:30536  .debug_str:0000000000029bb1 .LASF3044
C:\Users\CYMR90~1\AppData\Local\Temp\ccyjM0JL.s:20461  .debug_str:0000000000001aaa .LASF3045
C:\Users\CYMR90~1\AppData\Local\Temp\ccyjM0JL.s:22543  .debug_str:0000000000009e36 .LASF3046
C:\Users\CYMR90~1\AppData\Local\Temp\ccyjM0JL.s:29960  .debug_str:00000000000276c1 .LASF3047
C:\Users\CYMR90~1\AppData\Local\Temp\ccyjM0JL.s:22105  .debug_str:0000000000008333 .LASF3048
C:\Users\CYMR90~1\AppData\Local\Temp\ccyjM0JL.s:23611  .debug_str:000000000000e402 .LASF3049
C:\Users\CYMR90~1\AppData\Local\Temp\ccyjM0JL.s:29178  .debug_str:00000000000241e4 .LASF3050
C:\Users\CYMR90~1\AppData\Local\Temp\ccyjM0JL.s:26476  .debug_str:0000000000019a36 .LASF3051
C:\Users\CYMR90~1\AppData\Local\Temp\ccyjM0JL.s:22497  .debug_str:0000000000009b7a .LASF3052
C:\Users\CYMR90~1\AppData\Local\Temp\ccyjM0JL.s:27900  .debug_str:000000000001f548 .LASF3053
C:\Users\CYMR90~1\AppData\Local\Temp\ccyjM0JL.s:22077  .debug_str:00000000000080c9 .LASF3054
C:\Users\CYMR90~1\AppData\Local\Temp\ccyjM0JL.s:30150  .debug_str:00000000000282e0 .LASF3055
C:\Users\CYMR90~1\AppData\Local\Temp\ccyjM0JL.s:29812  .debug_str:0000000000026cea .LASF3056
C:\Users\CYMR90~1\AppData\Local\Temp\ccyjM0JL.s:24415  .debug_str:00000000000115a2 .LASF3057
C:\Users\CYMR90~1\AppData\Local\Temp\ccyjM0JL.s:29314  .debug_str:0000000000024c0f .LASF3058
C:\Users\CYMR90~1\AppData\Local\Temp\ccyjM0JL.s:28374  .debug_str:00000000000211b1 .LASF3059
C:\Users\CYMR90~1\AppData\Local\Temp\ccyjM0JL.s:24301  .debug_str:0000000000010f28 .LASF3060
C:\Users\CYMR90~1\AppData\Local\Temp\ccyjM0JL.s:29900  .debug_str:000000000002727c .LASF3061
C:\Users\CYMR90~1\AppData\Local\Temp\ccyjM0JL.s:29054  .debug_str:0000000000023af7 .LASF3062
C:\Users\CYMR90~1\AppData\Local\Temp\ccyjM0JL.s:25842  .debug_str:0000000000017227 .LASF3063
C:\Users\CYMR90~1\AppData\Local\Temp\ccyjM0JL.s:25579  .debug_str:0000000000015f51 .LASF3064
C:\Users\CYMR90~1\AppData\Local\Temp\ccyjM0JL.s:27856  .debug_str:000000000001f2a0 .LASF3065
C:\Users\CYMR90~1\AppData\Local\Temp\ccyjM0JL.s:24261  .debug_str:0000000000010c6e .LASF3066
C:\Users\CYMR90~1\AppData\Local\Temp\ccyjM0JL.s:24391  .debug_str:0000000000011440 .LASF3067
C:\Users\CYMR90~1\AppData\Local\Temp\ccyjM0JL.s:23789  .debug_str:000000000000eea9 .LASF3068
C:\Users\CYMR90~1\AppData\Local\Temp\ccyjM0JL.s:23919  .debug_str:000000000000f64b .LASF3069
C:\Users\CYMR90~1\AppData\Local\Temp\ccyjM0JL.s:27592  .debug_str:000000000001e2ab .LASF3070
C:\Users\CYMR90~1\AppData\Local\Temp\ccyjM0JL.s:30278  .debug_str:0000000000028c30 .LASF3071
C:\Users\CYMR90~1\AppData\Local\Temp\ccyjM0JL.s:25703  .debug_str:0000000000016733 .LASF3072
C:\Users\CYMR90~1\AppData\Local\Temp\ccyjM0JL.s:29172  .debug_str:0000000000024189 .LASF3073
C:\Users\CYMR90~1\AppData\Local\Temp\ccyjM0JL.s:20609  .debug_str:0000000000002317 .LASF3074
C:\Users\CYMR90~1\AppData\Local\Temp\ccyjM0JL.s:21849  .debug_str:000000000000712e .LASF3075
C:\Users\CYMR90~1\AppData\Local\Temp\ccyjM0JL.s:30328  .debug_str:0000000000028f1f .LASF3076
C:\Users\CYMR90~1\AppData\Local\Temp\ccyjM0JL.s:22599  .debug_str:000000000000a1ad .LASF3077
C:\Users\CYMR90~1\AppData\Local\Temp\ccyjM0JL.s:25077  .debug_str:0000000000014101 .LASF3078
C:\Users\CYMR90~1\AppData\Local\Temp\ccyjM0JL.s:23749  .debug_str:000000000000ec85 .LASF3079
C:\Users\CYMR90~1\AppData\Local\Temp\ccyjM0JL.s:25429  .debug_str:000000000001563d .LASF3080
C:\Users\CYMR90~1\AppData\Local\Temp\ccyjM0JL.s:28316  .debug_str:0000000000020e87 .LASF3081
C:\Users\CYMR90~1\AppData\Local\Temp\ccyjM0JL.s:26200  .debug_str:0000000000018713 .LASF3082
C:\Users\CYMR90~1\AppData\Local\Temp\ccyjM0JL.s:28168  .debug_str:0000000000020526 .LASF3083
C:\Users\CYMR90~1\AppData\Local\Temp\ccyjM0JL.s:30420  .debug_str:000000000002949d .LASF3084
C:\Users\CYMR90~1\AppData\Local\Temp\ccyjM0JL.s:28832  .debug_str:0000000000022d96 .LASF3085
C:\Users\CYMR90~1\AppData\Local\Temp\ccyjM0JL.s:23167  .debug_str:000000000000c777 .LASF3086
C:\Users\CYMR90~1\AppData\Local\Temp\ccyjM0JL.s:31242  .debug_str:000000000002c795 .LASF3087
C:\Users\CYMR90~1\AppData\Local\Temp\ccyjM0JL.s:27950  .debug_str:000000000001f823 .LASF3088
C:\Users\CYMR90~1\AppData\Local\Temp\ccyjM0JL.s:29942  .debug_str:00000000000274f1 .LASF3089
C:\Users\CYMR90~1\AppData\Local\Temp\ccyjM0JL.s:29678  .debug_str:00000000000264b9 .LASF3090
C:\Users\CYMR90~1\AppData\Local\Temp\ccyjM0JL.s:27590  .debug_str:000000000001e283 .LASF3091
C:\Users\CYMR90~1\AppData\Local\Temp\ccyjM0JL.s:25477  .debug_str:00000000000158db .LASF3092
C:\Users\CYMR90~1\AppData\Local\Temp\ccyjM0JL.s:25383  .debug_str:00000000000153a9 .LASF3093
C:\Users\CYMR90~1\AppData\Local\Temp\ccyjM0JL.s:26292  .debug_str:0000000000018da0 .LASF3094
C:\Users\CYMR90~1\AppData\Local\Temp\ccyjM0JL.s:27986  .debug_str:000000000001fa52 .LASF3095
C:\Users\CYMR90~1\AppData\Local\Temp\ccyjM0JL.s:28522  .debug_str:0000000000021b3a .LASF3096
C:\Users\CYMR90~1\AppData\Local\Temp\ccyjM0JL.s:31376  .debug_str:000000000002cfe3 .LASF3097
C:\Users\CYMR90~1\AppData\Local\Temp\ccyjM0JL.s:23975  .debug_str:000000000000fa49 .LASF3098
C:\Users\CYMR90~1\AppData\Local\Temp\ccyjM0JL.s:20817  .debug_str:000000000000306f .LASF3099
C:\Users\CYMR90~1\AppData\Local\Temp\ccyjM0JL.s:23831  .debug_str:000000000000f0dd .LASF3100
C:\Users\CYMR90~1\AppData\Local\Temp\ccyjM0JL.s:28192  .debug_str:00000000000206ca .LASF3101
C:\Users\CYMR90~1\AppData\Local\Temp\ccyjM0JL.s:25453  .debug_str:0000000000015777 .LASF3102
C:\Users\CYMR90~1\AppData\Local\Temp\ccyjM0JL.s:24455  .debug_str:000000000001182d .LASF3103
C:\Users\CYMR90~1\AppData\Local\Temp\ccyjM0JL.s:27082  .debug_str:000000000001c1dd .LASF3104
C:\Users\CYMR90~1\AppData\Local\Temp\ccyjM0JL.s:26104  .debug_str:000000000001816a .LASF3105
C:\Users\CYMR90~1\AppData\Local\Temp\ccyjM0JL.s:28022  .debug_str:000000000001fc85 .LASF3106
C:\Users\CYMR90~1\AppData\Local\Temp\ccyjM0JL.s:24263  .debug_str:0000000000010c86 .LASF3107
C:\Users\CYMR90~1\AppData\Local\Temp\ccyjM0JL.s:30210  .debug_str:000000000002875e .LASF3108
C:\Users\CYMR90~1\AppData\Local\Temp\ccyjM0JL.s:22319  .debug_str:0000000000009066 .LASF3109
C:\Users\CYMR90~1\AppData\Local\Temp\ccyjM0JL.s:21395  .debug_str:0000000000005600 .LASF3110
C:\Users\CYMR90~1\AppData\Local\Temp\ccyjM0JL.s:20445  .debug_str:00000000000019bf .LASF3111
C:\Users\CYMR90~1\AppData\Local\Temp\ccyjM0JL.s:30926  .debug_str:000000000002b2ba .LASF3112
C:\Users\CYMR90~1\AppData\Local\Temp\ccyjM0JL.s:28466  .debug_str:00000000000217c3 .LASF3113
C:\Users\CYMR90~1\AppData\Local\Temp\ccyjM0JL.s:27478  .debug_str:000000000001dbae .LASF3114
C:\Users\CYMR90~1\AppData\Local\Temp\ccyjM0JL.s:26628  .debug_str:000000000001a362 .LASF3115
C:\Users\CYMR90~1\AppData\Local\Temp\ccyjM0JL.s:25623  .debug_str:000000000001623a .LASF3116
C:\Users\CYMR90~1\AppData\Local\Temp\ccyjM0JL.s:24681  .debug_str:00000000000127c9 .LASF3117
C:\Users\CYMR90~1\AppData\Local\Temp\ccyjM0JL.s:23711  .debug_str:000000000000ea29 .LASF3118
C:\Users\CYMR90~1\AppData\Local\Temp\ccyjM0JL.s:23847  .debug_str:000000000000f1bd .LASF3119
C:\Users\CYMR90~1\AppData\Local\Temp\ccyjM0JL.s:29892  .debug_str:00000000000271d5 .LASF3120
C:\Users\CYMR90~1\AppData\Local\Temp\ccyjM0JL.s:29674  .debug_str:0000000000026463 .LASF3121
C:\Users\CYMR90~1\AppData\Local\Temp\ccyjM0JL.s:24165  .debug_str:00000000000105b8 .LASF3122
C:\Users\CYMR90~1\AppData\Local\Temp\ccyjM0JL.s:23017  .debug_str:000000000000be23 .LASF3123
C:\Users\CYMR90~1\AppData\Local\Temp\ccyjM0JL.s:21903  .debug_str:000000000000750c .LASF3124
C:\Users\CYMR90~1\AppData\Local\Temp\ccyjM0JL.s:27314  .debug_str:000000000001d0ed .LASF3125
C:\Users\CYMR90~1\AppData\Local\Temp\ccyjM0JL.s:28952  .debug_str:0000000000023496 .LASF3126
C:\Users\CYMR90~1\AppData\Local\Temp\ccyjM0JL.s:23203  .debug_str:000000000000ca22 .LASF3127
C:\Users\CYMR90~1\AppData\Local\Temp\ccyjM0JL.s:21465  .debug_str:0000000000005a0e .LASF3128
C:\Users\CYMR90~1\AppData\Local\Temp\ccyjM0JL.s:21249  .debug_str:0000000000004d17 .LASF3129
C:\Users\CYMR90~1\AppData\Local\Temp\ccyjM0JL.s:27230  .debug_str:000000000001cb29 .LASF3130
C:\Users\CYMR90~1\AppData\Local\Temp\ccyjM0JL.s:25719  .debug_str:0000000000016829 .LASF3131
C:\Users\CYMR90~1\AppData\Local\Temp\ccyjM0JL.s:20749  .debug_str:0000000000002c40 .LASF3132
C:\Users\CYMR90~1\AppData\Local\Temp\ccyjM0JL.s:31316  .debug_str:000000000002cc41 .LASF3133
C:\Users\CYMR90~1\AppData\Local\Temp\ccyjM0JL.s:30250  .debug_str:0000000000028a23 .LASF3134
C:\Users\CYMR90~1\AppData\Local\Temp\ccyjM0JL.s:21219  .debug_str:0000000000004b43 .LASF3135
C:\Users\CYMR90~1\AppData\Local\Temp\ccyjM0JL.s:27060  .debug_str:000000000001c06e .LASF3136
C:\Users\CYMR90~1\AppData\Local\Temp\ccyjM0JL.s:24267  .debug_str:0000000000010ccb .LASF3137
C:\Users\CYMR90~1\AppData\Local\Temp\ccyjM0JL.s:27364  .debug_str:000000000001d492 .LASF3138
C:\Users\CYMR90~1\AppData\Local\Temp\ccyjM0JL.s:20131  .debug_str:00000000000005f9 .LASF3139
C:\Users\CYMR90~1\AppData\Local\Temp\ccyjM0JL.s:24857  .debug_str:0000000000013370 .LASF3140
C:\Users\CYMR90~1\AppData\Local\Temp\ccyjM0JL.s:29622  .debug_str:0000000000026128 .LASF3141
C:\Users\CYMR90~1\AppData\Local\Temp\ccyjM0JL.s:24767  .debug_str:0000000000012d94 .LASF3142
C:\Users\CYMR90~1\AppData\Local\Temp\ccyjM0JL.s:21617  .debug_str:00000000000062e7 .LASF3143
C:\Users\CYMR90~1\AppData\Local\Temp\ccyjM0JL.s:26068  .debug_str:0000000000017f7c .LASF3144
C:\Users\CYMR90~1\AppData\Local\Temp\ccyjM0JL.s:24519  .debug_str:0000000000011d01 .LASF3145
C:\Users\CYMR90~1\AppData\Local\Temp\ccyjM0JL.s:23061  .debug_str:000000000000c140 .LASF3146
C:\Users\CYMR90~1\AppData\Local\Temp\ccyjM0JL.s:26926  .debug_str:000000000001b805 .LASF3147
C:\Users\CYMR90~1\AppData\Local\Temp\ccyjM0JL.s:23419  .debug_str:000000000000d8ab .LASF3148
C:\Users\CYMR90~1\AppData\Local\Temp\ccyjM0JL.s:22387  .debug_str:0000000000009447 .LASF3149
C:\Users\CYMR90~1\AppData\Local\Temp\ccyjM0JL.s:29324  .debug_str:0000000000024c84 .LASF3150
C:\Users\CYMR90~1\AppData\Local\Temp\ccyjM0JL.s:24563  .debug_str:0000000000011f9a .LASF3151
C:\Users\CYMR90~1\AppData\Local\Temp\ccyjM0JL.s:28922  .debug_str:0000000000023313 .LASF3152
C:\Users\CYMR90~1\AppData\Local\Temp\ccyjM0JL.s:22719  .debug_str:000000000000aa1b .LASF3153
C:\Users\CYMR90~1\AppData\Local\Temp\ccyjM0JL.s:26492  .debug_str:0000000000019b5a .LASF3154
C:\Users\CYMR90~1\AppData\Local\Temp\ccyjM0JL.s:29854  .debug_str:0000000000026f5a .LASF3155
C:\Users\CYMR90~1\AppData\Local\Temp\ccyjM0JL.s:23447  .debug_str:000000000000da25 .LASF3156
C:\Users\CYMR90~1\AppData\Local\Temp\ccyjM0JL.s:21511  .debug_str:0000000000005cfd .LASF3157
C:\Users\CYMR90~1\AppData\Local\Temp\ccyjM0JL.s:23043  .debug_str:000000000000bffd .LASF3158
C:\Users\CYMR90~1\AppData\Local\Temp\ccyjM0JL.s:21811  .debug_str:0000000000006efd .LASF3159
C:\Users\CYMR90~1\AppData\Local\Temp\ccyjM0JL.s:23737  .debug_str:000000000000ebee .LASF3160
C:\Users\CYMR90~1\AppData\Local\Temp\ccyjM0JL.s:20281  .debug_str:0000000000000f7b .LASF3161
C:\Users\CYMR90~1\AppData\Local\Temp\ccyjM0JL.s:31066  .debug_str:000000000002bb7a .LASF3162
C:\Users\CYMR90~1\AppData\Local\Temp\ccyjM0JL.s:30648  .debug_str:000000000002a217 .LASF3163
C:\Users\CYMR90~1\AppData\Local\Temp\ccyjM0JL.s:23849  .debug_str:000000000000f1ec .LASF3164
C:\Users\CYMR90~1\AppData\Local\Temp\ccyjM0JL.s:29170  .debug_str:0000000000024171 .LASF3165
C:\Users\CYMR90~1\AppData\Local\Temp\ccyjM0JL.s:27608  .debug_str:000000000001e394 .LASF3166
C:\Users\CYMR90~1\AppData\Local\Temp\ccyjM0JL.s:27994  .debug_str:000000000001fab8 .LASF3167
C:\Users\CYMR90~1\AppData\Local\Temp\ccyjM0JL.s:29998  .debug_str:00000000000278f8 .LASF3168
C:\Users\CYMR90~1\AppData\Local\Temp\ccyjM0JL.s:25157  .debug_str:0000000000014607 .LASF3169
C:\Users\CYMR90~1\AppData\Local\Temp\ccyjM0JL.s:25725  .debug_str:0000000000016884 .LASF3170
C:\Users\CYMR90~1\AppData\Local\Temp\ccyjM0JL.s:20539  .debug_str:0000000000001f50 .LASF3171
C:\Users\CYMR90~1\AppData\Local\Temp\ccyjM0JL.s:27978  .debug_str:000000000001f9b4 .LASF3172
C:\Users\CYMR90~1\AppData\Local\Temp\ccyjM0JL.s:27928  .debug_str:000000000001f6db .LASF3173
C:\Users\CYMR90~1\AppData\Local\Temp\ccyjM0JL.s:27034  .debug_str:000000000001be9f .LASF3174
C:\Users\CYMR90~1\AppData\Local\Temp\ccyjM0JL.s:20709  .debug_str:00000000000029a2 .LASF3175
C:\Users\CYMR90~1\AppData\Local\Temp\ccyjM0JL.s:29488  .debug_str:00000000000257fb .LASF3176
C:\Users\CYMR90~1\AppData\Local\Temp\ccyjM0JL.s:23337  .debug_str:000000000000d2ae .LASF3177
C:\Users\CYMR90~1\AppData\Local\Temp\ccyjM0JL.s:21059  .debug_str:000000000000402e .LASF3178
C:\Users\CYMR90~1\AppData\Local\Temp\ccyjM0JL.s:20799  .debug_str:0000000000002f5b .LASF3179
C:\Users\CYMR90~1\AppData\Local\Temp\ccyjM0JL.s:22213  .debug_str:00000000000089cf .LASF3180
C:\Users\CYMR90~1\AppData\Local\Temp\ccyjM0JL.s:27598  .debug_str:000000000001e2f6 .LASF3181
C:\Users\CYMR90~1\AppData\Local\Temp\ccyjM0JL.s:28758  .debug_str:0000000000022914 .LASF3182
C:\Users\CYMR90~1\AppData\Local\Temp\ccyjM0JL.s:22591  .debug_str:000000000000a13a .LASF3183
C:\Users\CYMR90~1\AppData\Local\Temp\ccyjM0JL.s:23535  .debug_str:000000000000df1d .LASF3184
C:\Users\CYMR90~1\AppData\Local\Temp\ccyjM0JL.s:25517  .debug_str:0000000000015b49 .LASF3185
C:\Users\CYMR90~1\AppData\Local\Temp\ccyjM0JL.s:21629  .debug_str:0000000000006392 .LASF3186
C:\Users\CYMR90~1\AppData\Local\Temp\ccyjM0JL.s:26800  .debug_str:000000000001b038 .LASF3187
C:\Users\CYMR90~1\AppData\Local\Temp\ccyjM0JL.s:26450  .debug_str:0000000000019806 .LASF3188
C:\Users\CYMR90~1\AppData\Local\Temp\ccyjM0JL.s:23051  .debug_str:000000000000c081 .LASF3189
C:\Users\CYMR90~1\AppData\Local\Temp\ccyjM0JL.s:28196  .debug_str:000000000002070c .LASF3190
C:\Users\CYMR90~1\AppData\Local\Temp\ccyjM0JL.s:26002  .debug_str:0000000000017b8c .LASF3191
C:\Users\CYMR90~1\AppData\Local\Temp\ccyjM0JL.s:30244  .debug_str:00000000000289b1 .LASF3192
C:\Users\CYMR90~1\AppData\Local\Temp\ccyjM0JL.s:27702  .debug_str:000000000001e923 .LASF3193
C:\Users\CYMR90~1\AppData\Local\Temp\ccyjM0JL.s:27010  .debug_str:000000000001bce0 .LASF3194
C:\Users\CYMR90~1\AppData\Local\Temp\ccyjM0JL.s:30120  .debug_str:00000000000280e7 .LASF3195
C:\Users\CYMR90~1\AppData\Local\Temp\ccyjM0JL.s:20565  .debug_str:00000000000020be .LASF3196
C:\Users\CYMR90~1\AppData\Local\Temp\ccyjM0JL.s:26158  .debug_str:000000000001849b .LASF3197
C:\Users\CYMR90~1\AppData\Local\Temp\ccyjM0JL.s:25635  .debug_str:00000000000162ea .LASF3198
C:\Users\CYMR90~1\AppData\Local\Temp\ccyjM0JL.s:29762  .debug_str:00000000000269ba .LASF3199
C:\Users\CYMR90~1\AppData\Local\Temp\ccyjM0JL.s:30126  .debug_str:0000000000028147 .LASF3200
C:\Users\CYMR90~1\AppData\Local\Temp\ccyjM0JL.s:26094  .debug_str:00000000000180ee .LASF3201
C:\Users\CYMR90~1\AppData\Local\Temp\ccyjM0JL.s:28866  .debug_str:0000000000022fff .LASF3202
C:\Users\CYMR90~1\AppData\Local\Temp\ccyjM0JL.s:20403  .debug_str:0000000000001664 .LASF3203
C:\Users\CYMR90~1\AppData\Local\Temp\ccyjM0JL.s:20703  .debug_str:0000000000002946 .LASF3204
C:\Users\CYMR90~1\AppData\Local\Temp\ccyjM0JL.s:30724  .debug_str:000000000002a665 .LASF3205
C:\Users\CYMR90~1\AppData\Local\Temp\ccyjM0JL.s:21601  .debug_str:000000000000621a .LASF3206
C:\Users\CYMR90~1\AppData\Local\Temp\ccyjM0JL.s:24861  .debug_str:00000000000133b2 .LASF3207
C:\Users\CYMR90~1\AppData\Local\Temp\ccyjM0JL.s:23409  .debug_str:000000000000d7f3 .LASF3208
C:\Users\CYMR90~1\AppData\Local\Temp\ccyjM0JL.s:28426  .debug_str:0000000000021499 .LASF3209
C:\Users\CYMR90~1\AppData\Local\Temp\ccyjM0JL.s:26460  .debug_str:00000000000198e5 .LASF3210
C:\Users\CYMR90~1\AppData\Local\Temp\ccyjM0JL.s:22569  .debug_str:0000000000009fcb .LASF3211
C:\Users\CYMR90~1\AppData\Local\Temp\ccyjM0JL.s:22323  .debug_str:00000000000090a3 .LASF3212
C:\Users\CYMR90~1\AppData\Local\Temp\ccyjM0JL.s:22915  .debug_str:000000000000b72a .LASF3213
C:\Users\CYMR90~1\AppData\Local\Temp\ccyjM0JL.s:21139  .debug_str:0000000000004569 .LASF3214
C:\Users\CYMR90~1\AppData\Local\Temp\ccyjM0JL.s:24285  .debug_str:0000000000010e61 .LASF3215
C:\Users\CYMR90~1\AppData\Local\Temp\ccyjM0JL.s:25986  .debug_str:0000000000017aa0 .LASF3216
C:\Users\CYMR90~1\AppData\Local\Temp\ccyjM0JL.s:22187  .debug_str:0000000000008806 .LASF3217
C:\Users\CYMR90~1\AppData\Local\Temp\ccyjM0JL.s:22997  .debug_str:000000000000bc6e .LASF3218
C:\Users\CYMR90~1\AppData\Local\Temp\ccyjM0JL.s:22943  .debug_str:000000000000b92b .LASF3219
C:\Users\CYMR90~1\AppData\Local\Temp\ccyjM0JL.s:25886  .debug_str:000000000001749c .LASF3220
C:\Users\CYMR90~1\AppData\Local\Temp\ccyjM0JL.s:29850  .debug_str:0000000000026f21 .LASF3221
C:\Users\CYMR90~1\AppData\Local\Temp\ccyjM0JL.s:22667  .debug_str:000000000000a61d .LASF3222
C:\Users\CYMR90~1\AppData\Local\Temp\ccyjM0JL.s:20679  .debug_str:0000000000002791 .LASF3223
C:\Users\CYMR90~1\AppData\Local\Temp\ccyjM0JL.s:27730  .debug_str:000000000001eaef .LASF3224
C:\Users\CYMR90~1\AppData\Local\Temp\ccyjM0JL.s:20369  .debug_str:00000000000014a8 .LASF3225
C:\Users\CYMR90~1\AppData\Local\Temp\ccyjM0JL.s:26276  .debug_str:0000000000018c01 .LASF3226
C:\Users\CYMR90~1\AppData\Local\Temp\ccyjM0JL.s:20473  .debug_str:0000000000001b66 .LASF3227
C:\Users\CYMR90~1\AppData\Local\Temp\ccyjM0JL.s:31328  .debug_str:000000000002cd14 .LASF3228
C:\Users\CYMR90~1\AppData\Local\Temp\ccyjM0JL.s:25435  .debug_str:000000000001567b .LASF3229
C:\Users\CYMR90~1\AppData\Local\Temp\ccyjM0JL.s:29270  .debug_str:00000000000248cd .LASF3230
C:\Users\CYMR90~1\AppData\Local\Temp\ccyjM0JL.s:22605  .debug_str:000000000000a20e .LASF3231
C:\Users\CYMR90~1\AppData\Local\Temp\ccyjM0JL.s:20499  .debug_str:0000000000001d18 .LASF3232
C:\Users\CYMR90~1\AppData\Local\Temp\ccyjM0JL.s:21623  .debug_str:0000000000006355 .LASF3233
C:\Users\CYMR90~1\AppData\Local\Temp\ccyjM0JL.s:26886  .debug_str:000000000001b596 .LASF3234
C:\Users\CYMR90~1\AppData\Local\Temp\ccyjM0JL.s:21067  .debug_str:000000000000409d .LASF3235
C:\Users\CYMR90~1\AppData\Local\Temp\ccyjM0JL.s:22329  .debug_str:0000000000009106 .LASF3236
C:\Users\CYMR90~1\AppData\Local\Temp\ccyjM0JL.s:21375  .debug_str:00000000000054bb .LASF3237
C:\Users\CYMR90~1\AppData\Local\Temp\ccyjM0JL.s:30818  .debug_str:000000000002ac76 .LASF3238
C:\Users\CYMR90~1\AppData\Local\Temp\ccyjM0JL.s:23071  .debug_str:000000000000c1b0 .LASF3239
C:\Users\CYMR90~1\AppData\Local\Temp\ccyjM0JL.s:20717  .debug_str:0000000000002a1d .LASF3240
C:\Users\CYMR90~1\AppData\Local\Temp\ccyjM0JL.s:28718  .debug_str:00000000000226c5 .LASF3241
C:\Users\CYMR90~1\AppData\Local\Temp\ccyjM0JL.s:25345  .debug_str:000000000001516f .LASF3242
C:\Users\CYMR90~1\AppData\Local\Temp\ccyjM0JL.s:21899  .debug_str:00000000000074c5 .LASF3243
C:\Users\CYMR90~1\AppData\Local\Temp\ccyjM0JL.s:26862  .debug_str:000000000001b450 .LASF3244
C:\Users\CYMR90~1\AppData\Local\Temp\ccyjM0JL.s:21509  .debug_str:0000000000005cde .LASF3245
C:\Users\CYMR90~1\AppData\Local\Temp\ccyjM0JL.s:22919  .debug_str:000000000000b784 .LASF3246
C:\Users\CYMR90~1\AppData\Local\Temp\ccyjM0JL.s:24701  .debug_str:000000000001293a .LASF3247
C:\Users\CYMR90~1\AppData\Local\Temp\ccyjM0JL.s:28736  .debug_str:000000000002279c .LASF3248
C:\Users\CYMR90~1\AppData\Local\Temp\ccyjM0JL.s:30106  .debug_str:0000000000027fd4 .LASF3249
C:\Users\CYMR90~1\AppData\Local\Temp\ccyjM0JL.s:26084  .debug_str:0000000000018062 .LASF3250
C:\Users\CYMR90~1\AppData\Local\Temp\ccyjM0JL.s:23917  .debug_str:000000000000f62b .LASF3251
C:\Users\CYMR90~1\AppData\Local\Temp\ccyjM0JL.s:28734  .debug_str:0000000000022783 .LASF3252
C:\Users\CYMR90~1\AppData\Local\Temp\ccyjM0JL.s:30546  .debug_str:0000000000029c26 .LASF3253
C:\Users\CYMR90~1\AppData\Local\Temp\ccyjM0JL.s:26720  .debug_str:000000000001aad9 .LASF3254
C:\Users\CYMR90~1\AppData\Local\Temp\ccyjM0JL.s:21765  .debug_str:0000000000006bf7 .LASF3255
C:\Users\CYMR90~1\AppData\Local\Temp\ccyjM0JL.s:21381  .debug_str:00000000000054ff .LASF3256
C:\Users\CYMR90~1\AppData\Local\Temp\ccyjM0JL.s:27646  .debug_str:000000000001e5bc .LASF3257
C:\Users\CYMR90~1\AppData\Local\Temp\ccyjM0JL.s:23631  .debug_str:000000000000e521 .LASF3258
C:\Users\CYMR90~1\AppData\Local\Temp\ccyjM0JL.s:28940  .debug_str:00000000000233e5 .LASF3259
C:\Users\CYMR90~1\AppData\Local\Temp\ccyjM0JL.s:25940  .debug_str:000000000001779b .LASF3260
C:\Users\CYMR90~1\AppData\Local\Temp\ccyjM0JL.s:25099  .debug_str:000000000001427e .LASF3261
C:\Users\CYMR90~1\AppData\Local\Temp\ccyjM0JL.s:28774  .debug_str:0000000000022a3b .LASF3262
C:\Users\CYMR90~1\AppData\Local\Temp\ccyjM0JL.s:25998  .debug_str:0000000000017b63 .LASF3263
C:\Users\CYMR90~1\AppData\Local\Temp\ccyjM0JL.s:31000  .debug_str:000000000002b733 .LASF3264
C:\Users\CYMR90~1\AppData\Local\Temp\ccyjM0JL.s:31298  .debug_str:000000000002caf7 .LASF3265
C:\Users\CYMR90~1\AppData\Local\Temp\ccyjM0JL.s:29694  .debug_str:000000000002657b .LASF3266
C:\Users\CYMR90~1\AppData\Local\Temp\ccyjM0JL.s:21023  .debug_str:0000000000003da7 .LASF3267
C:\Users\CYMR90~1\AppData\Local\Temp\ccyjM0JL.s:29226  .debug_str:00000000000245f9 .LASF3268
C:\Users\CYMR90~1\AppData\Local\Temp\ccyjM0JL.s:20993  .debug_str:0000000000003bd3 .LASF3269
C:\Users\CYMR90~1\AppData\Local\Temp\ccyjM0JL.s:24403  .debug_str:00000000000114f3 .LASF3270
C:\Users\CYMR90~1\AppData\Local\Temp\ccyjM0JL.s:24221  .debug_str:00000000000109b8 .LASF3271
C:\Users\CYMR90~1\AppData\Local\Temp\ccyjM0JL.s:21735  .debug_str:0000000000006a26 .LASF3272
C:\Users\CYMR90~1\AppData\Local\Temp\ccyjM0JL.s:24615  .debug_str:00000000000123b5 .LASF3273
C:\Users\CYMR90~1\AppData\Local\Temp\ccyjM0JL.s:24265  .debug_str:0000000000010cae .LASF3274
C:\Users\CYMR90~1\AppData\Local\Temp\ccyjM0JL.s:21991  .debug_str:0000000000007a9d .LASF3275
C:\Users\CYMR90~1\AppData\Local\Temp\ccyjM0JL.s:22673  .debug_str:000000000000a667 .LASF3276
C:\Users\CYMR90~1\AppData\Local\Temp\ccyjM0JL.s:25097  .debug_str:0000000000014264 .LASF3277
C:\Users\CYMR90~1\AppData\Local\Temp\ccyjM0JL.s:27654  .debug_str:000000000001e62b .LASF3278
C:\Users\CYMR90~1\AppData\Local\Temp\ccyjM0JL.s:21183  .debug_str:000000000000486c .LASF3279
C:\Users\CYMR90~1\AppData\Local\Temp\ccyjM0JL.s:28194  .debug_str:00000000000206f6 .LASF3280
C:\Users\CYMR90~1\AppData\Local\Temp\ccyjM0JL.s:28570  .debug_str:0000000000021e1c .LASF3281
C:\Users\CYMR90~1\AppData\Local\Temp\ccyjM0JL.s:22477  .debug_str:0000000000009a19 .LASF3282
C:\Users\CYMR90~1\AppData\Local\Temp\ccyjM0JL.s:21815  .debug_str:0000000000006f2f .LASF3283
C:\Users\CYMR90~1\AppData\Local\Temp\ccyjM0JL.s:22341  .debug_str:0000000000009188 .LASF3284
C:\Users\CYMR90~1\AppData\Local\Temp\ccyjM0JL.s:20777  .debug_str:0000000000002e1c .LASF3285
C:\Users\CYMR90~1\AppData\Local\Temp\ccyjM0JL.s:31152  .debug_str:000000000002c11e .LASF3286
C:\Users\CYMR90~1\AppData\Local\Temp\ccyjM0JL.s:21607  .debug_str:000000000000626d .LASF3287
C:\Users\CYMR90~1\AppData\Local\Temp\ccyjM0JL.s:20167  .debug_str:0000000000000806 .LASF3288
C:\Users\CYMR90~1\AppData\Local\Temp\ccyjM0JL.s:21189  .debug_str:00000000000048e9 .LASF3289
C:\Users\CYMR90~1\AppData\Local\Temp\ccyjM0JL.s:28672  .debug_str:000000000002244e .LASF3290
C:\Users\CYMR90~1\AppData\Local\Temp\ccyjM0JL.s:26454  .debug_str:0000000000019866 .LASF3291
C:\Users\CYMR90~1\AppData\Local\Temp\ccyjM0JL.s:28282  .debug_str:0000000000020c2a .LASF3292
C:\Users\CYMR90~1\AppData\Local\Temp\ccyjM0JL.s:20099  .debug_str:0000000000000416 .LASF3293
C:\Users\CYMR90~1\AppData\Local\Temp\ccyjM0JL.s:27864  .debug_str:000000000001f319 .LASF3294
C:\Users\CYMR90~1\AppData\Local\Temp\ccyjM0JL.s:26708  .debug_str:000000000001aa17 .LASF3295
C:\Users\CYMR90~1\AppData\Local\Temp\ccyjM0JL.s:27644  .debug_str:000000000001e59c .LASF3296
C:\Users\CYMR90~1\AppData\Local\Temp\ccyjM0JL.s:22051  .debug_str:0000000000007ef7 .LASF3297
C:\Users\CYMR90~1\AppData\Local\Temp\ccyjM0JL.s:21775  .debug_str:0000000000006c7e .LASF3298
C:\Users\CYMR90~1\AppData\Local\Temp\ccyjM0JL.s:24573  .debug_str:000000000001202a .LASF3299
C:\Users\CYMR90~1\AppData\Local\Temp\ccyjM0JL.s:22559  .debug_str:0000000000009f13 .LASF3300
C:\Users\CYMR90~1\AppData\Local\Temp\ccyjM0JL.s:27510  .debug_str:000000000001dd7d .LASF3301
C:\Users\CYMR90~1\AppData\Local\Temp\ccyjM0JL.s:31246  .debug_str:000000000002c7f6 .LASF3302
C:\Users\CYMR90~1\AppData\Local\Temp\ccyjM0JL.s:26470  .debug_str:00000000000199eb .LASF3303
C:\Users\CYMR90~1\AppData\Local\Temp\ccyjM0JL.s:26778  .debug_str:000000000001ae65 .LASF3304
C:\Users\CYMR90~1\AppData\Local\Temp\ccyjM0JL.s:29316  .debug_str:0000000000024c22 .LASF3305
C:\Users\CYMR90~1\AppData\Local\Temp\ccyjM0JL.s:30720  .debug_str:000000000002a632 .LASF3306
C:\Users\CYMR90~1\AppData\Local\Temp\ccyjM0JL.s:24449  .debug_str:00000000000117df .LASF3307
C:\Users\CYMR90~1\AppData\Local\Temp\ccyjM0JL.s:27460  .debug_str:000000000001dabd .LASF3308
C:\Users\CYMR90~1\AppData\Local\Temp\ccyjM0JL.s:23533  .debug_str:000000000000df05 .LASF3309
C:\Users\CYMR90~1\AppData\Local\Temp\ccyjM0JL.s:30486  .debug_str:0000000000029888 .LASF3310
C:\Users\CYMR90~1\AppData\Local\Temp\ccyjM0JL.s:21913  .debug_str:0000000000007590 .LASF3311
C:\Users\CYMR90~1\AppData\Local\Temp\ccyjM0JL.s:30770  .debug_str:000000000002a976 .LASF3312
C:\Users\CYMR90~1\AppData\Local\Temp\ccyjM0JL.s:29540  .debug_str:0000000000025c1e .LASF3313
C:\Users\CYMR90~1\AppData\Local\Temp\ccyjM0JL.s:20951  .debug_str:0000000000003924 .LASF3314
C:\Users\CYMR90~1\AppData\Local\Temp\ccyjM0JL.s:24159  .debug_str:000000000001055a .LASF3315
C:\Users\CYMR90~1\AppData\Local\Temp\ccyjM0JL.s:30214  .debug_str:00000000000287ac .LASF3316
C:\Users\CYMR90~1\AppData\Local\Temp\ccyjM0JL.s:24639  .debug_str:0000000000012521 .LASF3317
C:\Users\CYMR90~1\AppData\Local\Temp\ccyjM0JL.s:22735  .debug_str:000000000000aaf8 .LASF3318
C:\Users\CYMR90~1\AppData\Local\Temp\ccyjM0JL.s:31058  .debug_str:000000000002bae6 .LASF3319
C:\Users\CYMR90~1\AppData\Local\Temp\ccyjM0JL.s:22821  .debug_str:000000000000b132 .LASF3320
C:\Users\CYMR90~1\AppData\Local\Temp\ccyjM0JL.s:31074  .debug_str:000000000002bbec .LASF3321
C:\Users\CYMR90~1\AppData\Local\Temp\ccyjM0JL.s:30798  .debug_str:000000000002ab38 .LASF3322
C:\Users\CYMR90~1\AppData\Local\Temp\ccyjM0JL.s:26270  .debug_str:0000000000018b78 .LASF3323
C:\Users\CYMR90~1\AppData\Local\Temp\ccyjM0JL.s:30838  .debug_str:000000000002ad80 .LASF3324
C:\Users\CYMR90~1\AppData\Local\Temp\ccyjM0JL.s:28388  .debug_str:0000000000021255 .LASF3325
C:\Users\CYMR90~1\AppData\Local\Temp\ccyjM0JL.s:29780  .debug_str:0000000000026b08 .LASF3326
C:\Users\CYMR90~1\AppData\Local\Temp\ccyjM0JL.s:23385  .debug_str:000000000000d63c .LASF3327
C:\Users\CYMR90~1\AppData\Local\Temp\ccyjM0JL.s:29158  .debug_str:00000000000240c5 .LASF3328
C:\Users\CYMR90~1\AppData\Local\Temp\ccyjM0JL.s:25227  .debug_str:0000000000014a64 .LASF3329
C:\Users\CYMR90~1\AppData\Local\Temp\ccyjM0JL.s:24047  .debug_str:000000000000fe9a .LASF3330
C:\Users\CYMR90~1\AppData\Local\Temp\ccyjM0JL.s:27210  .debug_str:000000000001c93d .LASF3331
C:\Users\CYMR90~1\AppData\Local\Temp\ccyjM0JL.s:30042  .debug_str:0000000000027b66 .LASF3332
C:\Users\CYMR90~1\AppData\Local\Temp\ccyjM0JL.s:20973  .debug_str:0000000000003a6d .LASF3333
C:\Users\CYMR90~1\AppData\Local\Temp\ccyjM0JL.s:27440  .debug_str:000000000001d942 .LASF3334
C:\Users\CYMR90~1\AppData\Local\Temp\ccyjM0JL.s:30224  .debug_str:0000000000028850 .LASF3335
C:\Users\CYMR90~1\AppData\Local\Temp\ccyjM0JL.s:22235  .debug_str:0000000000008b39 .LASF3336
C:\Users\CYMR90~1\AppData\Local\Temp\ccyjM0JL.s:28644  .debug_str:0000000000022294 .LASF3337
C:\Users\CYMR90~1\AppData\Local\Temp\ccyjM0JL.s:25413  .debug_str:0000000000015540 .LASF3338
C:\Users\CYMR90~1\AppData\Local\Temp\ccyjM0JL.s:22325  .debug_str:00000000000090c7 .LASF3339
C:\Users\CYMR90~1\AppData\Local\Temp\ccyjM0JL.s:27346  .debug_str:000000000001d393 .LASF3340
C:\Users\CYMR90~1\AppData\Local\Temp\ccyjM0JL.s:24787  .debug_str:0000000000012ed7 .LASF3341
C:\Users\CYMR90~1\AppData\Local\Temp\ccyjM0JL.s:22797  .debug_str:000000000000aed9 .LASF3342
C:\Users\CYMR90~1\AppData\Local\Temp\ccyjM0JL.s:27278  .debug_str:000000000001ce26 .LASF3343
C:\Users\CYMR90~1\AppData\Local\Temp\ccyjM0JL.s:29410  .debug_str:00000000000251cd .LASF3344
C:\Users\CYMR90~1\AppData\Local\Temp\ccyjM0JL.s:21267  .debug_str:0000000000004e2a .LASF3345
C:\Users\CYMR90~1\AppData\Local\Temp\ccyjM0JL.s:30738  .debug_str:000000000002a76f .LASF3346
C:\Users\CYMR90~1\AppData\Local\Temp\ccyjM0JL.s:26524  .debug_str:0000000000019d57 .LASF3347
C:\Users\CYMR90~1\AppData\Local\Temp\ccyjM0JL.s:26566  .debug_str:0000000000019fb9 .LASF3348
C:\Users\CYMR90~1\AppData\Local\Temp\ccyjM0JL.s:26574  .debug_str:000000000001a04a .LASF3349
C:\Users\CYMR90~1\AppData\Local\Temp\ccyjM0JL.s:29896  .debug_str:0000000000027229 .LASF3350
C:\Users\CYMR90~1\AppData\Local\Temp\ccyjM0JL.s:24671  .debug_str:000000000001270e .LASF3351
C:\Users\CYMR90~1\AppData\Local\Temp\ccyjM0JL.s:30706  .debug_str:000000000002a57d .LASF3352
C:\Users\CYMR90~1\AppData\Local\Temp\ccyjM0JL.s:26234  .debug_str:000000000001892f .LASF3353
C:\Users\CYMR90~1\AppData\Local\Temp\ccyjM0JL.s:29976  .debug_str:00000000000277b0 .LASF3354
C:\Users\CYMR90~1\AppData\Local\Temp\ccyjM0JL.s:21161  .debug_str:00000000000046c2 .LASF3355
C:\Users\CYMR90~1\AppData\Local\Temp\ccyjM0JL.s:24255  .debug_str:0000000000010bd4 .LASF3356
C:\Users\CYMR90~1\AppData\Local\Temp\ccyjM0JL.s:27626  .debug_str:000000000001e47d .LASF3357
C:\Users\CYMR90~1\AppData\Local\Temp\ccyjM0JL.s:24599  .debug_str:0000000000012287 .LASF3358
C:\Users\CYMR90~1\AppData\Local\Temp\ccyjM0JL.s:24001  .debug_str:000000000000fbb2 .LASF3359
C:\Users\CYMR90~1\AppData\Local\Temp\ccyjM0JL.s:24785  .debug_str:0000000000012e9e .LASF3360
C:\Users\CYMR90~1\AppData\Local\Temp\ccyjM0JL.s:28874  .debug_str:0000000000023055 .LASF3361
C:\Users\CYMR90~1\AppData\Local\Temp\ccyjM0JL.s:25599  .debug_str:0000000000016098 .LASF3362
C:\Users\CYMR90~1\AppData\Local\Temp\ccyjM0JL.s:27190  .debug_str:000000000001c7c9 .LASF3363
C:\Users\CYMR90~1\AppData\Local\Temp\ccyjM0JL.s:30058  .debug_str:0000000000027c70 .LASF3364
C:\Users\CYMR90~1\AppData\Local\Temp\ccyjM0JL.s:22021  .debug_str:0000000000007ca0 .LASF3365
C:\Users\CYMR90~1\AppData\Local\Temp\ccyjM0JL.s:21323  .debug_str:0000000000005185 .LASF3366
C:\Users\CYMR90~1\AppData\Local\Temp\ccyjM0JL.s:24737  .debug_str:0000000000012b94 .LASF3367
C:\Users\CYMR90~1\AppData\Local\Temp\ccyjM0JL.s:22075  .debug_str:0000000000008099 .LASF3368
C:\Users\CYMR90~1\AppData\Local\Temp\ccyjM0JL.s:20419  .debug_str:000000000000176d .LASF3369
C:\Users\CYMR90~1\AppData\Local\Temp\ccyjM0JL.s:30172  .debug_str:000000000002848f .LASF3370
C:\Users\CYMR90~1\AppData\Local\Temp\ccyjM0JL.s:26844  .debug_str:000000000001b316 .LASF3371
C:\Users\CYMR90~1\AppData\Local\Temp\ccyjM0JL.s:23305  .debug_str:000000000000d09d .LASF3372
C:\Users\CYMR90~1\AppData\Local\Temp\ccyjM0JL.s:25187  .debug_str:0000000000014810 .LASF3373
C:\Users\CYMR90~1\AppData\Local\Temp\ccyjM0JL.s:26178  .debug_str:00000000000185f1 .LASF3374
C:\Users\CYMR90~1\AppData\Local\Temp\ccyjM0JL.s:23999  .debug_str:000000000000fb99 .LASF3375
C:\Users\CYMR90~1\AppData\Local\Temp\ccyjM0JL.s:27680  .debug_str:000000000001e7ba .LASF3376
C:\Users\CYMR90~1\AppData\Local\Temp\ccyjM0JL.s:23109  .debug_str:000000000000c400 .LASF3377
C:\Users\CYMR90~1\AppData\Local\Temp\ccyjM0JL.s:22671  .debug_str:000000000000a644 .LASF3378
C:\Users\CYMR90~1\AppData\Local\Temp\ccyjM0JL.s:25661  .debug_str:0000000000016474 .LASF3379
C:\Users\CYMR90~1\AppData\Local\Temp\ccyjM0JL.s:26624  .debug_str:000000000001a320 .LASF3380
C:\Users\CYMR90~1\AppData\Local\Temp\ccyjM0JL.s:27930  .debug_str:000000000001f6fa .LASF3381
C:\Users\CYMR90~1\AppData\Local\Temp\ccyjM0JL.s:24075  .debug_str:0000000000010064 .LASF3382
C:\Users\CYMR90~1\AppData\Local\Temp\ccyjM0JL.s:31322  .debug_str:000000000002ccba .LASF3383
C:\Users\CYMR90~1\AppData\Local\Temp\ccyjM0JL.s:25988  .debug_str:0000000000017ab7 .LASF3384
C:\Users\CYMR90~1\AppData\Local\Temp\ccyjM0JL.s:28670  .debug_str:000000000002242a .LASF3385
C:\Users\CYMR90~1\AppData\Local\Temp\ccyjM0JL.s:22985  .debug_str:000000000000bbca .LASF3386
C:\Users\CYMR90~1\AppData\Local\Temp\ccyjM0JL.s:28954  .debug_str:00000000000234c3 .LASF3387
C:\Users\CYMR90~1\AppData\Local\Temp\ccyjM0JL.s:25061  .debug_str:000000000001400a .LASF3388
C:\Users\CYMR90~1\AppData\Local\Temp\ccyjM0JL.s:27820  .debug_str:000000000001f009 .LASF3389
C:\Users\CYMR90~1\AppData\Local\Temp\ccyjM0JL.s:23833  .debug_str:000000000000f0ff .LASF3390
C:\Users\CYMR90~1\AppData\Local\Temp\ccyjM0JL.s:30702  .debug_str:000000000002a53b .LASF3391
C:\Users\CYMR90~1\AppData\Local\Temp\ccyjM0JL.s:24155  .debug_str:000000000001053e .LASF3392
C:\Users\CYMR90~1\AppData\Local\Temp\ccyjM0JL.s:28140  .debug_str:0000000000020386 .LASF3393
C:\Users\CYMR90~1\AppData\Local\Temp\ccyjM0JL.s:25359  .debug_str:0000000000015252 .LASF3394
C:\Users\CYMR90~1\AppData\Local\Temp\ccyjM0JL.s:24483  .debug_str:0000000000011a73 .LASF3395
C:\Users\CYMR90~1\AppData\Local\Temp\ccyjM0JL.s:22367  .debug_str:000000000000932b .LASF3396
C:\Users\CYMR90~1\AppData\Local\Temp\ccyjM0JL.s:21947  .debug_str:00000000000077b7 .LASF3397
C:\Users\CYMR90~1\AppData\Local\Temp\ccyjM0JL.s:31434  .debug_str:000000000002d409 .LASF3398
C:\Users\CYMR90~1\AppData\Local\Temp\ccyjM0JL.s:21111  .debug_str:00000000000043b1 .LASF3399
C:\Users\CYMR90~1\AppData\Local\Temp\ccyjM0JL.s:30972  .debug_str:000000000002b541 .LASF3400
C:\Users\CYMR90~1\AppData\Local\Temp\ccyjM0JL.s:23455  .debug_str:000000000000da9b .LASF3401
C:\Users\CYMR90~1\AppData\Local\Temp\ccyjM0JL.s:26154  .debug_str:0000000000018464 .LASF3402
C:\Users\CYMR90~1\AppData\Local\Temp\ccyjM0JL.s:25597  .debug_str:0000000000016080 .LASF3403
C:\Users\CYMR90~1\AppData\Local\Temp\ccyjM0JL.s:28966  .debug_str:0000000000023563 .LASF3404
C:\Users\CYMR90~1\AppData\Local\Temp\ccyjM0JL.s:20337  .debug_str:0000000000001299 .LASF3405
C:\Users\CYMR90~1\AppData\Local\Temp\ccyjM0JL.s:29992  .debug_str:00000000000278b4 .LASF3406
C:\Users\CYMR90~1\AppData\Local\Temp\ccyjM0JL.s:28826  .debug_str:0000000000022d2f .LASF3407
C:\Users\CYMR90~1\AppData\Local\Temp\ccyjM0JL.s:21529  .debug_str:0000000000005de3 .LASF3408
C:\Users\CYMR90~1\AppData\Local\Temp\ccyjM0JL.s:29144  .debug_str:0000000000023ffa .LASF3409
C:\Users\CYMR90~1\AppData\Local\Temp\ccyjM0JL.s:29568  .debug_str:0000000000025df7 .LASF3410
C:\Users\CYMR90~1\AppData\Local\Temp\ccyjM0JL.s:28268  .debug_str:0000000000020b94 .LASF3411
C:\Users\CYMR90~1\AppData\Local\Temp\ccyjM0JL.s:25501  .debug_str:0000000000015a68 .LASF3412
C:\Users\CYMR90~1\AppData\Local\Temp\ccyjM0JL.s:25245  .debug_str:0000000000014b64 .LASF3413
C:\Users\CYMR90~1\AppData\Local\Temp\ccyjM0JL.s:25978  .debug_str:0000000000017a0d .LASF3414
C:\Users\CYMR90~1\AppData\Local\Temp\ccyjM0JL.s:28160  .debug_str:0000000000020491 .LASF3415
C:\Users\CYMR90~1\AppData\Local\Temp\ccyjM0JL.s:21907  .debug_str:000000000000754e .LASF3416
C:\Users\CYMR90~1\AppData\Local\Temp\ccyjM0JL.s:20091  .debug_str:00000000000003ac .LASF3417
C:\Users\CYMR90~1\AppData\Local\Temp\ccyjM0JL.s:30324  .debug_str:0000000000028ef6 .LASF3418
C:\Users\CYMR90~1\AppData\Local\Temp\ccyjM0JL.s:20229  .debug_str:0000000000000c13 .LASF3419
C:\Users\CYMR90~1\AppData\Local\Temp\ccyjM0JL.s:28650  .debug_str:0000000000022308 .LASF3420
C:\Users\CYMR90~1\AppData\Local\Temp\ccyjM0JL.s:25397  .debug_str:000000000001547f .LASF3421
C:\Users\CYMR90~1\AppData\Local\Temp\ccyjM0JL.s:25043  .debug_str:0000000000013ef2 .LASF3422
C:\Users\CYMR90~1\AppData\Local\Temp\ccyjM0JL.s:23329  .debug_str:000000000000d228 .LASF3423
C:\Users\CYMR90~1\AppData\Local\Temp\ccyjM0JL.s:28956  .debug_str:00000000000234e9 .LASF3424
C:\Users\CYMR90~1\AppData\Local\Temp\ccyjM0JL.s:26896  .debug_str:000000000001b64b .LASF3425
C:\Users\CYMR90~1\AppData\Local\Temp\ccyjM0JL.s:25659  .debug_str:0000000000016457 .LASF3426
C:\Users\CYMR90~1\AppData\Local\Temp\ccyjM0JL.s:29408  .debug_str:00000000000251af .LASF3427
C:\Users\CYMR90~1\AppData\Local\Temp\ccyjM0JL.s:23967  .debug_str:000000000000f9df .LASF3428
C:\Users\CYMR90~1\AppData\Local\Temp\ccyjM0JL.s:28872  .debug_str:0000000000023039 .LASF3429
C:\Users\CYMR90~1\AppData\Local\Temp\ccyjM0JL.s:24879  .debug_str:00000000000134b9 .LASF3430
C:\Users\CYMR90~1\AppData\Local\Temp\ccyjM0JL.s:27390  .debug_str:000000000001d620 .LASF3431
C:\Users\CYMR90~1\AppData\Local\Temp\ccyjM0JL.s:21733  .debug_str:0000000000006a0f .LASF3432
C:\Users\CYMR90~1\AppData\Local\Temp\ccyjM0JL.s:31360  .debug_str:000000000002cf15 .LASF3433
C:\Users\CYMR90~1\AppData\Local\Temp\ccyjM0JL.s:21931  .debug_str:00000000000076b0 .LASF3434
C:\Users\CYMR90~1\AppData\Local\Temp\ccyjM0JL.s:21039  .debug_str:0000000000003eb4 .LASF3435
C:\Users\CYMR90~1\AppData\Local\Temp\ccyjM0JL.s:31048  .debug_str:000000000002ba3e .LASF3436
C:\Users\CYMR90~1\AppData\Local\Temp\ccyjM0JL.s:22827  .debug_str:000000000000b193 .LASF3437
C:\Users\CYMR90~1\AppData\Local\Temp\ccyjM0JL.s:25037  .debug_str:0000000000013ea4 .LASF3438
C:\Users\CYMR90~1\AppData\Local\Temp\ccyjM0JL.s:21315  .debug_str:0000000000005125 .LASF3439
C:\Users\CYMR90~1\AppData\Local\Temp\ccyjM0JL.s:22707  .debug_str:000000000000a854 .LASF3440
C:\Users\CYMR90~1\AppData\Local\Temp\ccyjM0JL.s:21507  .debug_str:0000000000005cb4 .LASF3441
C:\Users\CYMR90~1\AppData\Local\Temp\ccyjM0JL.s:22925  .debug_str:000000000000b7d3 .LASF3442
C:\Users\CYMR90~1\AppData\Local\Temp\ccyjM0JL.s:21441  .debug_str:00000000000058a7 .LASF3443
C:\Users\CYMR90~1\AppData\Local\Temp\ccyjM0JL.s:24591  .debug_str:00000000000121fb .LASF3444
C:\Users\CYMR90~1\AppData\Local\Temp\ccyjM0JL.s:30076  .debug_str:0000000000027de7 .LASF3445
C:\Users\CYMR90~1\AppData\Local\Temp\ccyjM0JL.s:26412  .debug_str:00000000000195bb .LASF3446
C:\Users\CYMR90~1\AppData\Local\Temp\ccyjM0JL.s:25185  .debug_str:00000000000147d5 .LASF3447
C:\Users\CYMR90~1\AppData\Local\Temp\ccyjM0JL.s:31388  .debug_str:000000000002d14c .LASF3448
C:\Users\CYMR90~1\AppData\Local\Temp\ccyjM0JL.s:27898  .debug_str:000000000001f521 .LASF3449
C:\Users\CYMR90~1\AppData\Local\Temp\ccyjM0JL.s:24521  .debug_str:0000000000011d1b .LASF3450
C:\Users\CYMR90~1\AppData\Local\Temp\ccyjM0JL.s:21917  .debug_str:00000000000075c5 .LASF3451
C:\Users\CYMR90~1\AppData\Local\Temp\ccyjM0JL.s:29012  .debug_str:0000000000023830 .LASF3452
C:\Users\CYMR90~1\AppData\Local\Temp\ccyjM0JL.s:25549  .debug_str:0000000000015d39 .LASF3453
C:\Users\CYMR90~1\AppData\Local\Temp\ccyjM0JL.s:22151  .debug_str:0000000000008615 .LASF3454
C:\Users\CYMR90~1\AppData\Local\Temp\ccyjM0JL.s:26100  .debug_str:0000000000018121 .LASF3455
C:\Users\CYMR90~1\AppData\Local\Temp\ccyjM0JL.s:31110  .debug_str:000000000002be72 .LASF3456
C:\Users\CYMR90~1\AppData\Local\Temp\ccyjM0JL.s:29440  .debug_str:0000000000025406 .LASF3457
C:\Users\CYMR90~1\AppData\Local\Temp\ccyjM0JL.s:20437  .debug_str:0000000000001939 .LASF3458
C:\Users\CYMR90~1\AppData\Local\Temp\ccyjM0JL.s:21481  .debug_str:0000000000005add .LASF3459
C:\Users\CYMR90~1\AppData\Local\Temp\ccyjM0JL.s:27688  .debug_str:000000000001e806 .LASF3460
C:\Users\CYMR90~1\AppData\Local\Temp\ccyjM0JL.s:27906  .debug_str:000000000001f59f .LASF3461
C:\Users\CYMR90~1\AppData\Local\Temp\ccyjM0JL.s:29056  .debug_str:0000000000023b0e .LASF3462
C:\Users\CYMR90~1\AppData\Local\Temp\ccyjM0JL.s:20433  .debug_str:00000000000018f2 .LASF3463
C:\Users\CYMR90~1\AppData\Local\Temp\ccyjM0JL.s:26214  .debug_str:00000000000187f7 .LASF3464
C:\Users\CYMR90~1\AppData\Local\Temp\ccyjM0JL.s:31342  .debug_str:000000000002cdf8 .LASF3465
C:\Users\CYMR90~1\AppData\Local\Temp\ccyjM0JL.s:22897  .debug_str:000000000000b57d .LASF3466
C:\Users\CYMR90~1\AppData\Local\Temp\ccyjM0JL.s:26082  .debug_str:0000000000018042 .LASF3467
C:\Users\CYMR90~1\AppData\Local\Temp\ccyjM0JL.s:20371  .debug_str:00000000000014bb .LASF3468
C:\Users\CYMR90~1\AppData\Local\Temp\ccyjM0JL.s:27168  .debug_str:000000000001c6a5 .LASF3469
C:\Users\CYMR90~1\AppData\Local\Temp\ccyjM0JL.s:23119  .debug_str:000000000000c49c .LASF3470
C:\Users\CYMR90~1\AppData\Local\Temp\ccyjM0JL.s:23389  .debug_str:000000000000d687 .LASF3471
C:\Users\CYMR90~1\AppData\Local\Temp\ccyjM0JL.s:31106  .debug_str:000000000002be27 .LASF3472
C:\Users\CYMR90~1\AppData\Local\Temp\ccyjM0JL.s:28108  .debug_str:00000000000201c7 .LASF3473
C:\Users\CYMR90~1\AppData\Local\Temp\ccyjM0JL.s:23863  .debug_str:000000000000f2e2 .LASF3474
C:\Users\CYMR90~1\AppData\Local\Temp\ccyjM0JL.s:29566  .debug_str:0000000000025dcf .LASF3475
C:\Users\CYMR90~1\AppData\Local\Temp\ccyjM0JL.s:28498  .debug_str:00000000000219a8 .LASF3476
C:\Users\CYMR90~1\AppData\Local\Temp\ccyjM0JL.s:24117  .debug_str:0000000000010322 .LASF3477
C:\Users\CYMR90~1\AppData\Local\Temp\ccyjM0JL.s:28106  .debug_str:00000000000201a0 .LASF3478
C:\Users\CYMR90~1\AppData\Local\Temp\ccyjM0JL.s:25193  .debug_str:000000000001487e .LASF3479
C:\Users\CYMR90~1\AppData\Local\Temp\ccyjM0JL.s:30984  .debug_str:000000000002b632 .LASF3480
C:\Users\CYMR90~1\AppData\Local\Temp\ccyjM0JL.s:20107  .debug_str:0000000000000480 .LASF3481
C:\Users\CYMR90~1\AppData\Local\Temp\ccyjM0JL.s:28138  .debug_str:0000000000020367 .LASF3482
C:\Users\CYMR90~1\AppData\Local\Temp\ccyjM0JL.s:29700  .debug_str:00000000000265da .LASF3483
C:\Users\CYMR90~1\AppData\Local\Temp\ccyjM0JL.s:31390  .debug_str:000000000002d173 .LASF3484
C:\Users\CYMR90~1\AppData\Local\Temp\ccyjM0JL.s:22539  .debug_str:0000000000009df5 .LASF3485
C:\Users\CYMR90~1\AppData\Local\Temp\ccyjM0JL.s:26452  .debug_str:0000000000019829 .LASF3486
C:\Users\CYMR90~1\AppData\Local\Temp\ccyjM0JL.s:23839  .debug_str:000000000000f145 .LASF3487
C:\Users\CYMR90~1\AppData\Local\Temp\ccyjM0JL.s:27818  .debug_str:000000000001efeb .LASF3488
C:\Users\CYMR90~1\AppData\Local\Temp\ccyjM0JL.s:26268  .debug_str:0000000000018b59 .LASF3489
C:\Users\CYMR90~1\AppData\Local\Temp\ccyjM0JL.s:30904  .debug_str:000000000002b173 .LASF3490
C:\Users\CYMR90~1\AppData\Local\Temp\ccyjM0JL.s:27046  .debug_str:000000000001bf72 .LASF3491
C:\Users\CYMR90~1\AppData\Local\Temp\ccyjM0JL.s:21027  .debug_str:0000000000003df5 .LASF3492
C:\Users\CYMR90~1\AppData\Local\Temp\ccyjM0JL.s:22811  .debug_str:000000000000afee .LASF3493
C:\Users\CYMR90~1\AppData\Local\Temp\ccyjM0JL.s:23859  .debug_str:000000000000f294 .LASF3494
C:\Users\CYMR90~1\AppData\Local\Temp\ccyjM0JL.s:28580  .debug_str:0000000000021eaf .LASF3495
C:\Users\CYMR90~1\AppData\Local\Temp\ccyjM0JL.s:25769  .debug_str:0000000000016c28 .LASF3496
C:\Users\CYMR90~1\AppData\Local\Temp\ccyjM0JL.s:27588  .debug_str:000000000001e251 .LASF3497
C:\Users\CYMR90~1\AppData\Local\Temp\ccyjM0JL.s:26792  .debug_str:000000000001af5a .LASF3498
C:\Users\CYMR90~1\AppData\Local\Temp\ccyjM0JL.s:28604  .debug_str:0000000000022045 .LASF3499
C:\Users\CYMR90~1\AppData\Local\Temp\ccyjM0JL.s:22775  .debug_str:000000000000ad8b .LASF3500
C:\Users\CYMR90~1\AppData\Local\Temp\ccyjM0JL.s:25159  .debug_str:0000000000014621 .LASF3501
C:\Users\CYMR90~1\AppData\Local\Temp\ccyjM0JL.s:21575  .debug_str:000000000000604f .LASF3502
C:\Users\CYMR90~1\AppData\Local\Temp\ccyjM0JL.s:28326  .debug_str:0000000000020f1b .LASF3503
C:\Users\CYMR90~1\AppData\Local\Temp\ccyjM0JL.s:24773  .debug_str:0000000000012dd8 .LASF3504
C:\Users\CYMR90~1\AppData\Local\Temp\ccyjM0JL.s:26866  .debug_str:000000000001b48a .LASF3505
C:\Users\CYMR90~1\AppData\Local\Temp\ccyjM0JL.s:26736  .debug_str:000000000001abed .LASF3506
C:\Users\CYMR90~1\AppData\Local\Temp\ccyjM0JL.s:21333  .debug_str:0000000000005242 .LASF3507
C:\Users\CYMR90~1\AppData\Local\Temp\ccyjM0JL.s:28186  .debug_str:0000000000020659 .LASF3508
C:\Users\CYMR90~1\AppData\Local\Temp\ccyjM0JL.s:24847  .debug_str:00000000000132bb .LASF3509
C:\Users\CYMR90~1\AppData\Local\Temp\ccyjM0JL.s:22651  .debug_str:000000000000a515 .LASF3510
C:\Users\CYMR90~1\AppData\Local\Temp\ccyjM0JL.s:27212  .debug_str:000000000001c962 .LASF3511
C:\Users\CYMR90~1\AppData\Local\Temp\ccyjM0JL.s:21845  .debug_str:00000000000070cd .LASF3512
C:\Users\CYMR90~1\AppData\Local\Temp\ccyjM0JL.s:29890  .debug_str:00000000000271b3 .LASF3513
C:\Users\CYMR90~1\AppData\Local\Temp\ccyjM0JL.s:28134  .debug_str:000000000002032c .LASF3514
C:\Users\CYMR90~1\AppData\Local\Temp\ccyjM0JL.s:21573  .debug_str:000000000000603e .LASF3515
C:\Users\CYMR90~1\AppData\Local\Temp\ccyjM0JL.s:20549  .debug_str:0000000000001fe3 .LASF3516
C:\Users\CYMR90~1\AppData\Local\Temp\ccyjM0JL.s:27560  .debug_str:000000000001e0c0 .LASF3517
C:\Users\CYMR90~1\AppData\Local\Temp\ccyjM0JL.s:25874  .debug_str:00000000000173f5 .LASF3518
C:\Users\CYMR90~1\AppData\Local\Temp\ccyjM0JL.s:26922  .debug_str:000000000001b7bd .LASF3519
C:\Users\CYMR90~1\AppData\Local\Temp\ccyjM0JL.s:23547  .debug_str:000000000000e02c .LASF3520
C:\Users\CYMR90~1\AppData\Local\Temp\ccyjM0JL.s:28322  .debug_str:0000000000020ede .LASF3521
C:\Users\CYMR90~1\AppData\Local\Temp\ccyjM0JL.s:29208  .debug_str:00000000000244ac .LASF3522
C:\Users\CYMR90~1\AppData\Local\Temp\ccyjM0JL.s:30090  .debug_str:0000000000027eb9 .LASF3523
C:\Users\CYMR90~1\AppData\Local\Temp\ccyjM0JL.s:28450  .debug_str:00000000000216bf .LASF3524
C:\Users\CYMR90~1\AppData\Local\Temp\ccyjM0JL.s:29724  .debug_str:0000000000026738 .LASF3525
C:\Users\CYMR90~1\AppData\Local\Temp\ccyjM0JL.s:21863  .debug_str:000000000000723b .LASF3526
C:\Users\CYMR90~1\AppData\Local\Temp\ccyjM0JL.s:26932  .debug_str:000000000001b870 .LASF3527
C:\Users\CYMR90~1\AppData\Local\Temp\ccyjM0JL.s:20643  .debug_str:0000000000002503 .LASF3528
C:\Users\CYMR90~1\AppData\Local\Temp\ccyjM0JL.s:29480  .debug_str:0000000000025745 .LASF3529
C:\Users\CYMR90~1\AppData\Local\Temp\ccyjM0JL.s:23125  .debug_str:000000000000c51b .LASF3530
C:\Users\CYMR90~1\AppData\Local\Temp\ccyjM0JL.s:25633  .debug_str:00000000000162c4 .LASF3531
C:\Users\CYMR90~1\AppData\Local\Temp\ccyjM0JL.s:29926  .debug_str:00000000000273dc .LASF3532
C:\Users\CYMR90~1\AppData\Local\Temp\ccyjM0JL.s:22763  .debug_str:000000000000acbb .LASF3533
C:\Users\CYMR90~1\AppData\Local\Temp\ccyjM0JL.s:23621  .debug_str:000000000000e498 .LASF3534
C:\Users\CYMR90~1\AppData\Local\Temp\ccyjM0JL.s:21251  .debug_str:0000000000004d42 .LASF3535
C:\Users\CYMR90~1\AppData\Local\Temp\ccyjM0JL.s:20223  .debug_str:0000000000000b99 .LASF3536
C:\Users\CYMR90~1\AppData\Local\Temp\ccyjM0JL.s:28614  .debug_str:00000000000220dd .LASF3537
C:\Users\CYMR90~1\AppData\Local\Temp\ccyjM0JL.s:22781  .debug_str:000000000000ade0 .LASF3538
C:\Users\CYMR90~1\AppData\Local\Temp\ccyjM0JL.s:20943  .debug_str:0000000000003884 .LASF3539
C:\Users\CYMR90~1\AppData\Local\Temp\ccyjM0JL.s:20399  .debug_str:000000000000162a .LASF3540
C:\Users\CYMR90~1\AppData\Local\Temp\ccyjM0JL.s:26180  .debug_str:000000000001860a .LASF3541
C:\Users\CYMR90~1\AppData\Local\Temp\ccyjM0JL.s:25655  .debug_str:0000000000016417 .LASF3542
C:\Users\CYMR90~1\AppData\Local\Temp\ccyjM0JL.s:24835  .debug_str:00000000000131fc .LASF3543
C:\Users\CYMR90~1\AppData\Local\Temp\ccyjM0JL.s:26530  .debug_str:0000000000019dbb .LASF3544
C:\Users\CYMR90~1\AppData\Local\Temp\ccyjM0JL.s:30864  .debug_str:000000000002af17 .LASF3545
C:\Users\CYMR90~1\AppData\Local\Temp\ccyjM0JL.s:25721  .debug_str:0000000000016856 .LASF3546
C:\Users\CYMR90~1\AppData\Local\Temp\ccyjM0JL.s:24753  .debug_str:0000000000012cbb .LASF3547
C:\Users\CYMR90~1\AppData\Local\Temp\ccyjM0JL.s:26818  .debug_str:000000000001b151 .LASF3548
C:\Users\CYMR90~1\AppData\Local\Temp\ccyjM0JL.s:29754  .debug_str:0000000000026922 .LASF3549
C:\Users\CYMR90~1\AppData\Local\Temp\ccyjM0JL.s:22085  .debug_str:00000000000081d5 .LASF3550
C:\Users\CYMR90~1\AppData\Local\Temp\ccyjM0JL.s:20763  .debug_str:0000000000002d1a .LASF3551
C:\Users\CYMR90~1\AppData\Local\Temp\ccyjM0JL.s:28538  .debug_str:0000000000021c07 .LASF3552
C:\Users\CYMR90~1\AppData\Local\Temp\ccyjM0JL.s:27854  .debug_str:000000000001f285 .LASF3553
C:\Users\CYMR90~1\AppData\Local\Temp\ccyjM0JL.s:28152  .debug_str:0000000000020425 .LASF3554
C:\Users\CYMR90~1\AppData\Local\Temp\ccyjM0JL.s:28700  .debug_str:00000000000225cd .LASF3555
C:\Users\CYMR90~1\AppData\Local\Temp\ccyjM0JL.s:24253  .debug_str:0000000000010bbc .LASF3556
C:\Users\CYMR90~1\AppData\Local\Temp\ccyjM0JL.s:21791  .debug_str:0000000000006d98 .LASF3557
C:\Users\CYMR90~1\AppData\Local\Temp\ccyjM0JL.s:31032  .debug_str:000000000002b978 .LASF3558
C:\Users\CYMR90~1\AppData\Local\Temp\ccyjM0JL.s:30852  .debug_str:000000000002ae56 .LASF3559
C:\Users\CYMR90~1\AppData\Local\Temp\ccyjM0JL.s:27534  .debug_str:000000000001deed .LASF3560
C:\Users\CYMR90~1\AppData\Local\Temp\ccyjM0JL.s:22809  .debug_str:000000000000afcf .LASF3561
C:\Users\CYMR90~1\AppData\Local\Temp\ccyjM0JL.s:29856  .debug_str:0000000000026f6b .LASF3562
C:\Users\CYMR90~1\AppData\Local\Temp\ccyjM0JL.s:24031  .debug_str:000000000000fda8 .LASF3563
C:\Users\CYMR90~1\AppData\Local\Temp\ccyjM0JL.s:31332  .debug_str:000000000002cd41 .LASF3564
C:\Users\CYMR90~1\AppData\Local\Temp\ccyjM0JL.s:26346  .debug_str:00000000000191c6 .LASF3565
C:\Users\CYMR90~1\AppData\Local\Temp\ccyjM0JL.s:30968  .debug_str:000000000002b4fe .LASF3566
C:\Users\CYMR90~1\AppData\Local\Temp\ccyjM0JL.s:24845  .debug_str:00000000000132a0 .LASF3567
C:\Users\CYMR90~1\AppData\Local\Temp\ccyjM0JL.s:28684  .debug_str:000000000002250f .LASF3568
C:\Users\CYMR90~1\AppData\Local\Temp\ccyjM0JL.s:25091  .debug_str:00000000000141d4 .LASF3569
C:\Users\CYMR90~1\AppData\Local\Temp\ccyjM0JL.s:23225  .debug_str:000000000000cbcc .LASF3570
C:\Users\CYMR90~1\AppData\Local\Temp\ccyjM0JL.s:20831  .debug_str:0000000000003132 .LASF3571
C:\Users\CYMR90~1\AppData\Local\Temp\ccyjM0JL.s:26702  .debug_str:000000000001a9c3 .LASF3572
C:\Users\CYMR90~1\AppData\Local\Temp\ccyjM0JL.s:27934  .debug_str:000000000001f72d .LASF3573
C:\Users\CYMR90~1\AppData\Local\Temp\ccyjM0JL.s:30652  .debug_str:000000000002a254 .LASF3574
C:\Users\CYMR90~1\AppData\Local\Temp\ccyjM0JL.s:29844  .debug_str:0000000000026ed8 .LASF3575
C:\Users\CYMR90~1\AppData\Local\Temp\ccyjM0JL.s:28748  .debug_str:000000000002286c .LASF3576
C:\Users\CYMR90~1\AppData\Local\Temp\ccyjM0JL.s:29424  .debug_str:0000000000025294 .LASF3577
C:\Users\CYMR90~1\AppData\Local\Temp\ccyjM0JL.s:27532  .debug_str:000000000001ded1 .LASF3578
C:\Users\CYMR90~1\AppData\Local\Temp\ccyjM0JL.s:27596  .debug_str:000000000001e2db .LASF3579
C:\Users\CYMR90~1\AppData\Local\Temp\ccyjM0JL.s:26612  .debug_str:000000000001a26d .LASF3580
C:\Users\CYMR90~1\AppData\Local\Temp\ccyjM0JL.s:20101  .debug_str:0000000000000433 .LASF3581
C:\Users\CYMR90~1\AppData\Local\Temp\ccyjM0JL.s:25966  .debug_str:000000000001791a .LASF3582
C:\Users\CYMR90~1\AppData\Local\Temp\ccyjM0JL.s:29610  .debug_str:0000000000026035 .LASF3583
C:\Users\CYMR90~1\AppData\Local\Temp\ccyjM0JL.s:21365  .debug_str:0000000000005423 .LASF3584
C:\Users\CYMR90~1\AppData\Local\Temp\ccyjM0JL.s:20449  .debug_str:0000000000001a0e .LASF3585
C:\Users\CYMR90~1\AppData\Local\Temp\ccyjM0JL.s:25509  .debug_str:0000000000015acf .LASF3586
C:\Users\CYMR90~1\AppData\Local\Temp\ccyjM0JL.s:23939  .debug_str:000000000000f769 .LASF3587
C:\Users\CYMR90~1\AppData\Local\Temp\ccyjM0JL.s:22455  .debug_str:0000000000009893 .LASF3588
C:\Users\CYMR90~1\AppData\Local\Temp\ccyjM0JL.s:28732  .debug_str:0000000000022767 .LASF3589
C:\Users\CYMR90~1\AppData\Local\Temp\ccyjM0JL.s:20541  .debug_str:0000000000001f6d .LASF3590
C:\Users\CYMR90~1\AppData\Local\Temp\ccyjM0JL.s:27914  .debug_str:000000000001f633 .LASF3591
C:\Users\CYMR90~1\AppData\Local\Temp\ccyjM0JL.s:22431  .debug_str:0000000000009731 .LASF3592
C:\Users\CYMR90~1\AppData\Local\Temp\ccyjM0JL.s:26090  .debug_str:00000000000180c4 .LASF3593
C:\Users\CYMR90~1\AppData\Local\Temp\ccyjM0JL.s:29712  .debug_str:0000000000026680 .LASF3594
C:\Users\CYMR90~1\AppData\Local\Temp\ccyjM0JL.s:23583  .debug_str:000000000000e237 .LASF3595
C:\Users\CYMR90~1\AppData\Local\Temp\ccyjM0JL.s:27672  .debug_str:000000000001e75f .LASF3596
C:\Users\CYMR90~1\AppData\Local\Temp\ccyjM0JL.s:31228  .debug_str:000000000002c651 .LASF3597
C:\Users\CYMR90~1\AppData\Local\Temp\ccyjM0JL.s:23887  .debug_str:000000000000f475 .LASF3598
C:\Users\CYMR90~1\AppData\Local\Temp\ccyjM0JL.s:27956  .debug_str:000000000001f886 .LASF3599
C:\Users\CYMR90~1\AppData\Local\Temp\ccyjM0JL.s:21235  .debug_str:0000000000004c52 .LASF3600
C:\Users\CYMR90~1\AppData\Local\Temp\ccyjM0JL.s:27850  .debug_str:000000000001f251 .LASF3601
C:\Users\CYMR90~1\AppData\Local\Temp\ccyjM0JL.s:23593  .debug_str:000000000000e2d7 .LASF3602
C:\Users\CYMR90~1\AppData\Local\Temp\ccyjM0JL.s:30986  .debug_str:000000000002b659 .LASF3603
C:\Users\CYMR90~1\AppData\Local\Temp\ccyjM0JL.s:28528  .debug_str:0000000000021b8e .LASF3604
C:\Users\CYMR90~1\AppData\Local\Temp\ccyjM0JL.s:25856  .debug_str:00000000000172d8 .LASF3605
C:\Users\CYMR90~1\AppData\Local\Temp\ccyjM0JL.s:27400  .debug_str:000000000001d6cd .LASF3606
C:\Users\CYMR90~1\AppData\Local\Temp\ccyjM0JL.s:25904  .debug_str:0000000000017596 .LASF3607
C:\Users\CYMR90~1\AppData\Local\Temp\ccyjM0JL.s:29444  .debug_str:0000000000025440 .LASF3608
C:\Users\CYMR90~1\AppData\Local\Temp\ccyjM0JL.s:27556  .debug_str:000000000001e07d .LASF3609
C:\Users\CYMR90~1\AppData\Local\Temp\ccyjM0JL.s:28500  .debug_str:00000000000219e7 .LASF3610
C:\Users\CYMR90~1\AppData\Local\Temp\ccyjM0JL.s:24141  .debug_str:0000000000010475 .LASF3611
C:\Users\CYMR90~1\AppData\Local\Temp\ccyjM0JL.s:25299  .debug_str:0000000000014e7c .LASF3612
C:\Users\CYMR90~1\AppData\Local\Temp\ccyjM0JL.s:31352  .debug_str:000000000002ceb7 .LASF3613
C:\Users\CYMR90~1\AppData\Local\Temp\ccyjM0JL.s:23317  .debug_str:000000000000d181 .LASF3614
C:\Users\CYMR90~1\AppData\Local\Temp\ccyjM0JL.s:26140  .debug_str:00000000000183b1 .LASF3615
C:\Users\CYMR90~1\AppData\Local\Temp\ccyjM0JL.s:22459  .debug_str:00000000000098c5 .LASF3616
C:\Users\CYMR90~1\AppData\Local\Temp\ccyjM0JL.s:29710  .debug_str:0000000000026663 .LASF3617
C:\Users\CYMR90~1\AppData\Local\Temp\ccyjM0JL.s:30794  .debug_str:000000000002aaf8 .LASF3618
C:\Users\CYMR90~1\AppData\Local\Temp\ccyjM0JL.s:23007  .debug_str:000000000000bd18 .LASF3619
C:\Users\CYMR90~1\AppData\Local\Temp\ccyjM0JL.s:30198  .debug_str:00000000000286b2 .LASF3620
C:\Users\CYMR90~1\AppData\Local\Temp\ccyjM0JL.s:27052  .debug_str:000000000001bfea .LASF3621
C:\Users\CYMR90~1\AppData\Local\Temp\ccyjM0JL.s:30666  .debug_str:000000000002a311 .LASF3622
C:\Users\CYMR90~1\AppData\Local\Temp\ccyjM0JL.s:20615  .debug_str:000000000000238e .LASF3623
C:\Users\CYMR90~1\AppData\Local\Temp\ccyjM0JL.s:29768  .debug_str:0000000000026a36 .LASF3624
C:\Users\CYMR90~1\AppData\Local\Temp\ccyjM0JL.s:26482  .debug_str:0000000000019ac7 .LASF3625
C:\Users\CYMR90~1\AppData\Local\Temp\ccyjM0JL.s:26406  .debug_str:0000000000019569 .LASF3626
C:\Users\CYMR90~1\AppData\Local\Temp\ccyjM0JL.s:26822  .debug_str:000000000001b191 .LASF3627
C:\Users\CYMR90~1\AppData\Local\Temp\ccyjM0JL.s:20623  .debug_str:00000000000023f8 .LASF3628
C:\Users\CYMR90~1\AppData\Local\Temp\ccyjM0JL.s:30116  .debug_str:00000000000280b7 .LASF3629
C:\Users\CYMR90~1\AppData\Local\Temp\ccyjM0JL.s:27490  .debug_str:000000000001dc7f .LASF3630
C:\Users\CYMR90~1\AppData\Local\Temp\ccyjM0JL.s:29462  .debug_str:0000000000025630 .LASF3631
C:\Users\CYMR90~1\AppData\Local\Temp\ccyjM0JL.s:28750  .debug_str:0000000000022888 .LASF3632
C:\Users\CYMR90~1\AppData\Local\Temp\ccyjM0JL.s:28280  .debug_str:0000000000020c11 .LASF3633
C:\Users\CYMR90~1\AppData\Local\Temp\ccyjM0JL.s:31184  .debug_str:000000000002c3a7 .LASF3634
C:\Users\CYMR90~1\AppData\Local\Temp\ccyjM0JL.s:30924  .debug_str:000000000002b29e .LASF3635
C:\Users\CYMR90~1\AppData\Local\Temp\ccyjM0JL.s:20165  .debug_str:00000000000007ec .LASF3636
C:\Users\CYMR90~1\AppData\Local\Temp\ccyjM0JL.s:23809  .debug_str:000000000000ef86 .LASF3637
C:\Users\CYMR90~1\AppData\Local\Temp\ccyjM0JL.s:25197  .debug_str:00000000000148d1 .LASF3638
C:\Users\CYMR90~1\AppData\Local\Temp\ccyjM0JL.s:29068  .debug_str:0000000000023bab .LASF3639
C:\Users\CYMR90~1\AppData\Local\Temp\ccyjM0JL.s:26656  .debug_str:000000000001a67c .LASF3640
C:\Users\CYMR90~1\AppData\Local\Temp\ccyjM0JL.s:25802  .debug_str:0000000000016fcb .LASF3641
C:\Users\CYMR90~1\AppData\Local\Temp\ccyjM0JL.s:26254  .debug_str:0000000000018a99 .LASF3642
C:\Users\CYMR90~1\AppData\Local\Temp\ccyjM0JL.s:30740  .debug_str:000000000002a78d .LASF3643
C:\Users\CYMR90~1\AppData\Local\Temp\ccyjM0JL.s:23365  .debug_str:000000000000d4c0 .LASF3644
C:\Users\CYMR90~1\AppData\Local\Temp\ccyjM0JL.s:25854  .debug_str:00000000000172bb .LASF3645
C:\Users\CYMR90~1\AppData\Local\Temp\ccyjM0JL.s:25173  .debug_str:0000000000014705 .LASF3646
C:\Users\CYMR90~1\AppData\Local\Temp\ccyjM0JL.s:25269  .debug_str:0000000000014cf0 .LASF3647
C:\Users\CYMR90~1\AppData\Local\Temp\ccyjM0JL.s:27640  .debug_str:000000000001e56a .LASF3648
C:\Users\CYMR90~1\AppData\Local\Temp\ccyjM0JL.s:30528  .debug_str:0000000000029b45 .LASF3649
C:\Users\CYMR90~1\AppData\Local\Temp\ccyjM0JL.s:20757  .debug_str:0000000000002cd4 .LASF3650
C:\Users\CYMR90~1\AppData\Local\Temp\ccyjM0JL.s:27832  .debug_str:000000000001f0f9 .LASF3651
C:\Users\CYMR90~1\AppData\Local\Temp\ccyjM0JL.s:22583  .debug_str:000000000000a0b4 .LASF3652
C:\Users\CYMR90~1\AppData\Local\Temp\ccyjM0JL.s:20885  .debug_str:00000000000034df .LASF3653
C:\Users\CYMR90~1\AppData\Local\Temp\ccyjM0JL.s:22825  .debug_str:000000000000b17a .LASF3654
C:\Users\CYMR90~1\AppData\Local\Temp\ccyjM0JL.s:21755  .debug_str:0000000000006b59 .LASF3655
C:\Users\CYMR90~1\AppData\Local\Temp\ccyjM0JL.s:29386  .debug_str:0000000000025066 .LASF3656
C:\Users\CYMR90~1\AppData\Local\Temp\ccyjM0JL.s:26722  .debug_str:000000000001aaf8 .LASF3657
C:\Users\CYMR90~1\AppData\Local\Temp\ccyjM0JL.s:26582  .debug_str:000000000001a0c3 .LASF3658
C:\Users\CYMR90~1\AppData\Local\Temp\ccyjM0JL.s:21713  .debug_str:00000000000068d1 .LASF3659
C:\Users\CYMR90~1\AppData\Local\Temp\ccyjM0JL.s:23687  .debug_str:000000000000e8b6 .LASF3660
C:\Users\CYMR90~1\AppData\Local\Temp\ccyjM0JL.s:23531  .debug_str:000000000000dee8 .LASF3661
C:\Users\CYMR90~1\AppData\Local\Temp\ccyjM0JL.s:22153  .debug_str:000000000000863c .LASF3662
C:\Users\CYMR90~1\AppData\Local\Temp\ccyjM0JL.s:22343  .debug_str:00000000000091a7 .LASF3663
C:\Users\CYMR90~1\AppData\Local\Temp\ccyjM0JL.s:22927  .debug_str:000000000000b7f5 .LASF3664
C:\Users\CYMR90~1\AppData\Local\Temp\ccyjM0JL.s:20909  .debug_str:0000000000003666 .LASF3665
C:\Users\CYMR90~1\AppData\Local\Temp\ccyjM0JL.s:22275  .debug_str:0000000000008d94 .LASF3666
C:\Users\CYMR90~1\AppData\Local\Temp\ccyjM0JL.s:20081  .debug_str:000000000000031a .LASF3667
C:\Users\CYMR90~1\AppData\Local\Temp\ccyjM0JL.s:25850  .debug_str:000000000001728d .LASF3668
C:\Users\CYMR90~1\AppData\Local\Temp\ccyjM0JL.s:23085  .debug_str:000000000000c2ab .LASF3669
C:\Users\CYMR90~1\AppData\Local\Temp\ccyjM0JL.s:29008  .debug_str:00000000000237f6 .LASF3670
C:\Users\CYMR90~1\AppData\Local\Temp\ccyjM0JL.s:31104  .debug_str:000000000002be0d .LASF3671
C:\Users\CYMR90~1\AppData\Local\Temp\ccyjM0JL.s:24645  .debug_str:000000000001257d .LASF3672
C:\Users\CYMR90~1\AppData\Local\Temp\ccyjM0JL.s:24497  .debug_str:0000000000011bd7 .LASF3673
C:\Users\CYMR90~1\AppData\Local\Temp\ccyjM0JL.s:26836  .debug_str:000000000001b2a3 .LASF3674
C:\Users\CYMR90~1\AppData\Local\Temp\ccyjM0JL.s:29020  .debug_str:00000000000238bc .LASF3675
C:\Users\CYMR90~1\AppData\Local\Temp\ccyjM0JL.s:30462  .debug_str:0000000000029707 .LASF3676
C:\Users\CYMR90~1\AppData\Local\Temp\ccyjM0JL.s:26498  .debug_str:0000000000019bb7 .LASF3677
C:\Users\CYMR90~1\AppData\Local\Temp\ccyjM0JL.s:27816  .debug_str:000000000001efcc .LASF3678
C:\Users\CYMR90~1\AppData\Local\Temp\ccyjM0JL.s:28944  .debug_str:0000000000023417 .LASF3679
C:\Users\CYMR90~1\AppData\Local\Temp\ccyjM0JL.s:29800  .debug_str:0000000000026c37 .LASF3680
C:\Users\CYMR90~1\AppData\Local\Temp\ccyjM0JL.s:20263  .debug_str:0000000000000dd6 .LASF3681
C:\Users\CYMR90~1\AppData\Local\Temp\ccyjM0JL.s:23755  .debug_str:000000000000ed00 .LASF3682
C:\Users\CYMR90~1\AppData\Local\Temp\ccyjM0JL.s:31180  .debug_str:000000000002c376 .LASF3683
C:\Users\CYMR90~1\AppData\Local\Temp\ccyjM0JL.s:29940  .debug_str:00000000000274a1 .LASF3684
C:\Users\CYMR90~1\AppData\Local\Temp\ccyjM0JL.s:20743  .debug_str:0000000000002bb4 .LASF3685
C:\Users\CYMR90~1\AppData\Local\Temp\ccyjM0JL.s:20423  .debug_str:00000000000017b2 .LASF3686
C:\Users\CYMR90~1\AppData\Local\Temp\ccyjM0JL.s:21873  .debug_str:000000000000730f .LASF3687
C:\Users\CYMR90~1\AppData\Local\Temp\ccyjM0JL.s:23289  .debug_str:000000000000cf9b .LASF3688
C:\Users\CYMR90~1\AppData\Local\Temp\ccyjM0JL.s:21613  .debug_str:00000000000062c0 .LASF3689
C:\Users\CYMR90~1\AppData\Local\Temp\ccyjM0JL.s:28380  .debug_str:0000000000021203 .LASF3690
C:\Users\CYMR90~1\AppData\Local\Temp\ccyjM0JL.s:28656  .debug_str:0000000000022352 .LASF3691
C:\Users\CYMR90~1\AppData\Local\Temp\ccyjM0JL.s:22437  .debug_str:0000000000009788 .LASF3692
C:\Users\CYMR90~1\AppData\Local\Temp\ccyjM0JL.s:29064  .debug_str:0000000000023b7d .LASF3693
C:\Users\CYMR90~1\AppData\Local\Temp\ccyjM0JL.s:31302  .debug_str:000000000002cb38 .LASF3694
C:\Users\CYMR90~1\AppData\Local\Temp\ccyjM0JL.s:24073  .debug_str:000000000001004b .LASF3695
C:\Users\CYMR90~1\AppData\Local\Temp\ccyjM0JL.s:25521  .debug_str:0000000000015b81 .LASF3696
C:\Users\CYMR90~1\AppData\Local\Temp\ccyjM0JL.s:27760  .debug_str:000000000001ecb5 .LASF3697
C:\Users\CYMR90~1\AppData\Local\Temp\ccyjM0JL.s:21199  .debug_str:000000000000498b .LASF3698
C:\Users\CYMR90~1\AppData\Local\Temp\ccyjM0JL.s:20493  .debug_str:0000000000001cb4 .LASF3699
C:\Users\CYMR90~1\AppData\Local\Temp\ccyjM0JL.s:22519  .debug_str:0000000000009cda .LASF3700
C:\Users\CYMR90~1\AppData\Local\Temp\ccyjM0JL.s:28920  .debug_str:00000000000232fb .LASF3701
C:\Users\CYMR90~1\AppData\Local\Temp\ccyjM0JL.s:24529  .debug_str:0000000000011db5 .LASF3702
C:\Users\CYMR90~1\AppData\Local\Temp\ccyjM0JL.s:25071  .debug_str:00000000000140b6 .LASF3703
C:\Users\CYMR90~1\AppData\Local\Temp\ccyjM0JL.s:22403  .debug_str:0000000000009532 .LASF3704
C:\Users\CYMR90~1\AppData\Local\Temp\ccyjM0JL.s:26740  .debug_str:000000000001ac1f .LASF3705
C:\Users\CYMR90~1\AppData\Local\Temp\ccyjM0JL.s:26328  .debug_str:0000000000018fcc .LASF3706
C:\Users\CYMR90~1\AppData\Local\Temp\ccyjM0JL.s:28224  .debug_str:000000000002090e .LASF3707
C:\Users\CYMR90~1\AppData\Local\Temp\ccyjM0JL.s:26010  .debug_str:0000000000017c01 .LASF3708
C:\Users\CYMR90~1\AppData\Local\Temp\ccyjM0JL.s:30238  .debug_str:0000000000028952 .LASF3709
C:\Users\CYMR90~1\AppData\Local\Temp\ccyjM0JL.s:23591  .debug_str:000000000000e2b8 .LASF3710
C:\Users\CYMR90~1\AppData\Local\Temp\ccyjM0JL.s:22065  .debug_str:0000000000007fe9 .LASF3711
C:\Users\CYMR90~1\AppData\Local\Temp\ccyjM0JL.s:31236  .debug_str:000000000002c703 .LASF3712
C:\Users\CYMR90~1\AppData\Local\Temp\ccyjM0JL.s:25399  .debug_str:0000000000015498 .LASF3713
C:\Users\CYMR90~1\AppData\Local\Temp\ccyjM0JL.s:27130  .debug_str:000000000001c49a .LASF3714
C:\Users\CYMR90~1\AppData\Local\Temp\ccyjM0JL.s:26556  .debug_str:0000000000019f24 .LASF3715
C:\Users\CYMR90~1\AppData\Local\Temp\ccyjM0JL.s:29206  .debug_str:000000000002446f .LASF3716
C:\Users\CYMR90~1\AppData\Local\Temp\ccyjM0JL.s:28436  .debug_str:00000000000215d8 .LASF3717
C:\Users\CYMR90~1\AppData\Local\Temp\ccyjM0JL.s:22957  .debug_str:000000000000b9e6 .LASF3718
C:\Users\CYMR90~1\AppData\Local\Temp\ccyjM0JL.s:26604  .debug_str:000000000001a1fd .LASF3719
C:\Users\CYMR90~1\AppData\Local\Temp\ccyjM0JL.s:20045  .debug_str:00000000000000dc .LASF3720
C:\Users\CYMR90~1\AppData\Local\Temp\ccyjM0JL.s:24491  .debug_str:0000000000011ae2 .LASF3721
C:\Users\CYMR90~1\AppData\Local\Temp\ccyjM0JL.s:28478  .debug_str:000000000002186d .LASF3722
C:\Users\CYMR90~1\AppData\Local\Temp\ccyjM0JL.s:28746  .debug_str:0000000000022847 .LASF3723
C:\Users\CYMR90~1\AppData\Local\Temp\ccyjM0JL.s:25585  .debug_str:0000000000015f9b .LASF3724
C:\Users\CYMR90~1\AppData\Local\Temp\ccyjM0JL.s:30596  .debug_str:0000000000029f1f .LASF3725
C:\Users\CYMR90~1\AppData\Local\Temp\ccyjM0JL.s:23195  .debug_str:000000000000c952 .LASF3726
C:\Users\CYMR90~1\AppData\Local\Temp\ccyjM0JL.s:24675  .debug_str:0000000000012774 .LASF3727
C:\Users\CYMR90~1\AppData\Local\Temp\ccyjM0JL.s:29042  .debug_str:0000000000023a23 .LASF3728
C:\Users\CYMR90~1\AppData\Local\Temp\ccyjM0JL.s:29478  .debug_str:0000000000025721 .LASF3729
C:\Users\CYMR90~1\AppData\Local\Temp\ccyjM0JL.s:24531  .debug_str:0000000000011dca .LASF3730
C:\Users\CYMR90~1\AppData\Local\Temp\ccyjM0JL.s:24895  .debug_str:0000000000013623 .LASF3731
C:\Users\CYMR90~1\AppData\Local\Temp\ccyjM0JL.s:20517  .debug_str:0000000000001e04 .LASF3732
C:\Users\CYMR90~1\AppData\Local\Temp\ccyjM0JL.s:21843  .debug_str:00000000000070a9 .LASF3733
C:\Users\CYMR90~1\AppData\Local\Temp\ccyjM0JL.s:31060  .debug_str:000000000002bb05 .LASF3734
C:\Users\CYMR90~1\AppData\Local\Temp\ccyjM0JL.s:25617  .debug_str:00000000000161d7 .LASF3735
C:\Users\CYMR90~1\AppData\Local\Temp\ccyjM0JL.s:26416  .debug_str:000000000001960a .LASF3736
C:\Users\CYMR90~1\AppData\Local\Temp\ccyjM0JL.s:23083  .debug_str:000000000000c286 .LASF3737
C:\Users\CYMR90~1\AppData\Local\Temp\ccyjM0JL.s:24745  .debug_str:0000000000012c14 .LASF3738
C:\Users\CYMR90~1\AppData\Local\Temp\ccyjM0JL.s:20289  .debug_str:0000000000000ff4 .LASF3739
C:\Users\CYMR90~1\AppData\Local\Temp\ccyjM0JL.s:26684  .debug_str:000000000001a84c .LASF3740
C:\Users\CYMR90~1\AppData\Local\Temp\ccyjM0JL.s:28708  .debug_str:0000000000022646 .LASF3741
C:\Users\CYMR90~1\AppData\Local\Temp\ccyjM0JL.s:26938  .debug_str:000000000001b8d2 .LASF3742
C:\Users\CYMR90~1\AppData\Local\Temp\ccyjM0JL.s:21385  .debug_str:0000000000005540 .LASF3743
C:\Users\CYMR90~1\AppData\Local\Temp\ccyjM0JL.s:22503  .debug_str:0000000000009bc5 .LASF3744
C:\Users\CYMR90~1\AppData\Local\Temp\ccyjM0JL.s:21657  .debug_str:000000000000655a .LASF3745
C:\Users\CYMR90~1\AppData\Local\Temp\ccyjM0JL.s:27450  .debug_str:000000000001d9e8 .LASF3746
C:\Users\CYMR90~1\AppData\Local\Temp\ccyjM0JL.s:29964  .debug_str:0000000000027703 .LASF3747
C:\Users\CYMR90~1\AppData\Local\Temp\ccyjM0JL.s:28678  .debug_str:0000000000022497 .LASF3748
C:\Users\CYMR90~1\AppData\Local\Temp\ccyjM0JL.s:21695  .debug_str:0000000000006786 .LASF3749
C:\Users\CYMR90~1\AppData\Local\Temp\ccyjM0JL.s:30608  .debug_str:0000000000029fd6 .LASF3750
C:\Users\CYMR90~1\AppData\Local\Temp\ccyjM0JL.s:27910  .debug_str:000000000001f5f9 .LASF3751
C:\Users\CYMR90~1\AppData\Local\Temp\ccyjM0JL.s:23781  .debug_str:000000000000ee30 .LASF3752
C:\Users\CYMR90~1\AppData\Local\Temp\ccyjM0JL.s:22777  .debug_str:000000000000ada5 .LASF3753
C:\Users\CYMR90~1\AppData\Local\Temp\ccyjM0JL.s:20145  .debug_str:00000000000006a8 .LASF3754
C:\Users\CYMR90~1\AppData\Local\Temp\ccyjM0JL.s:24017  .debug_str:000000000000fcc0 .LASF3755
C:\Users\CYMR90~1\AppData\Local\Temp\ccyjM0JL.s:22965  .debug_str:000000000000ba5d .LASF3756
C:\Users\CYMR90~1\AppData\Local\Temp\ccyjM0JL.s:23735  .debug_str:000000000000ebca .LASF3757
C:\Users\CYMR90~1\AppData\Local\Temp\ccyjM0JL.s:21879  .debug_str:0000000000007378 .LASF3758
C:\Users\CYMR90~1\AppData\Local\Temp\ccyjM0JL.s:30030  .debug_str:0000000000027abc .LASF3759
C:\Users\CYMR90~1\AppData\Local\Temp\ccyjM0JL.s:27372  .debug_str:000000000001d4f4 .LASF3760
C:\Users\CYMR90~1\AppData\Local\Temp\ccyjM0JL.s:24841  .debug_str:000000000001325c .LASF3761
C:\Users\CYMR90~1\AppData\Local\Temp\ccyjM0JL.s:26952  .debug_str:000000000001b9cd .LASF3762
C:\Users\CYMR90~1\AppData\Local\Temp\ccyjM0JL.s:31020  .debug_str:000000000002b88f .LASF3763
C:\Users\CYMR90~1\AppData\Local\Temp\ccyjM0JL.s:24163  .debug_str:0000000000010594 .LASF3764
C:\Users\CYMR90~1\AppData\Local\Temp\ccyjM0JL.s:30268  .debug_str:0000000000028b8d .LASF3765
C:\Users\CYMR90~1\AppData\Local\Temp\ccyjM0JL.s:23175  .debug_str:000000000000c81e .LASF3766
C:\Users\CYMR90~1\AppData\Local\Temp\ccyjM0JL.s:20597  .debug_str:000000000000224e .LASF3767
C:\Users\CYMR90~1\AppData\Local\Temp\ccyjM0JL.s:24135  .debug_str:000000000001042a .LASF3768
C:\Users\CYMR90~1\AppData\Local\Temp\ccyjM0JL.s:24055  .debug_str:000000000000ff2b .LASF3769
C:\Users\CYMR90~1\AppData\Local\Temp\ccyjM0JL.s:24273  .debug_str:0000000000010d2a .LASF3770
C:\Users\CYMR90~1\AppData\Local\Temp\ccyjM0JL.s:28658  .debug_str:000000000002236a .LASF3771
C:\Users\CYMR90~1\AppData\Local\Temp\ccyjM0JL.s:24957  .debug_str:00000000000139d5 .LASF3772
C:\Users\CYMR90~1\AppData\Local\Temp\ccyjM0JL.s:22055  .debug_str:0000000000007f54 .LASF3773
C:\Users\CYMR90~1\AppData\Local\Temp\ccyjM0JL.s:28896  .debug_str:0000000000023194 .LASF3774
C:\Users\CYMR90~1\AppData\Local\Temp\ccyjM0JL.s:31062  .debug_str:000000000002bb29 .LASF3775
C:\Users\CYMR90~1\AppData\Local\Temp\ccyjM0JL.s:30576  .debug_str:0000000000029de6 .LASF3776
C:\Users\CYMR90~1\AppData\Local\Temp\ccyjM0JL.s:27042  .debug_str:000000000001bf22 .LASF3777
C:\Users\CYMR90~1\AppData\Local\Temp\ccyjM0JL.s:21847  .debug_str:00000000000070eb .LASF3778
C:\Users\CYMR90~1\AppData\Local\Temp\ccyjM0JL.s:21431  .debug_str:0000000000005814 .LASF3779
C:\Users\CYMR90~1\AppData\Local\Temp\ccyjM0JL.s:21937  .debug_str:000000000000770f .LASF3780
C:\Users\CYMR90~1\AppData\Local\Temp\ccyjM0JL.s:20901  .debug_str:00000000000035eb .LASF3781
C:\Users\CYMR90~1\AppData\Local\Temp\ccyjM0JL.s:29288  .debug_str:00000000000249dd .LASF3782
C:\Users\CYMR90~1\AppData\Local\Temp\ccyjM0JL.s:24083  .debug_str:00000000000100c5 .LASF3783
C:\Users\CYMR90~1\AppData\Local\Temp\ccyjM0JL.s:22247  .debug_str:0000000000008bec .LASF3784
C:\Users\CYMR90~1\AppData\Local\Temp\ccyjM0JL.s:22355  .debug_str:0000000000009277 .LASF3785
C:\Users\CYMR90~1\AppData\Local\Temp\ccyjM0JL.s:28548  .debug_str:0000000000021c99 .LASF3786
C:\Users\CYMR90~1\AppData\Local\Temp\ccyjM0JL.s:30510  .debug_str:0000000000029a2c .LASF3787
C:\Users\CYMR90~1\AppData\Local\Temp\ccyjM0JL.s:28806  .debug_str:0000000000022bf8 .LASF3788
C:\Users\CYMR90~1\AppData\Local\Temp\ccyjM0JL.s:30736  .debug_str:000000000002a72c .LASF3789
C:\Users\CYMR90~1\AppData\Local\Temp\ccyjM0JL.s:28776  .debug_str:0000000000022a5a .LASF3790
C:\Users\CYMR90~1\AppData\Local\Temp\ccyjM0JL.s:28840  .debug_str:0000000000022e73 .LASF3791
C:\Users\CYMR90~1\AppData\Local\Temp\ccyjM0JL.s:25806  .debug_str:0000000000016fec .LASF3792
C:\Users\CYMR90~1\AppData\Local\Temp\ccyjM0JL.s:22785  .debug_str:000000000000ae19 .LASF3793
C:\Users\CYMR90~1\AppData\Local\Temp\ccyjM0JL.s:23349  .debug_str:000000000000d3a6 .LASF3794
C:\Users\CYMR90~1\AppData\Local\Temp\ccyjM0JL.s:29528  .debug_str:0000000000025ad4 .LASF3795
C:\Users\CYMR90~1\AppData\Local\Temp\ccyjM0JL.s:25417  .debug_str:000000000001557d .LASF3796
C:\Users\CYMR90~1\AppData\Local\Temp\ccyjM0JL.s:23221  .debug_str:000000000000cb9c .LASF3797
C:\Users\CYMR90~1\AppData\Local\Temp\ccyjM0JL.s:28916  .debug_str:00000000000232bc .LASF3798
C:\Users\CYMR90~1\AppData\Local\Temp\ccyjM0JL.s:26834  .debug_str:000000000001b260 .LASF3799
C:\Users\CYMR90~1\AppData\Local\Temp\ccyjM0JL.s:28848  .debug_str:0000000000022ef3 .LASF3800
C:\Users\CYMR90~1\AppData\Local\Temp\ccyjM0JL.s:25948  .debug_str:000000000001781a .LASF3801
C:\Users\CYMR90~1\AppData\Local\Temp\ccyjM0JL.s:23653  .debug_str:000000000000e670 .LASF3802
C:\Users\CYMR90~1\AppData\Local\Temp\ccyjM0JL.s:27880  .debug_str:000000000001f3ef .LASF3803
C:\Users\CYMR90~1\AppData\Local\Temp\ccyjM0JL.s:22841  .debug_str:000000000000b26f .LASF3804
C:\Users\CYMR90~1\AppData\Local\Temp\ccyjM0JL.s:25119  .debug_str:0000000000014406 .LASF3805
C:\Users\CYMR90~1\AppData\Local\Temp\ccyjM0JL.s:26088  .debug_str:00000000000180a2 .LASF3806
C:\Users\CYMR90~1\AppData\Local\Temp\ccyjM0JL.s:29852  .debug_str:0000000000026f38 .LASF3807
C:\Users\CYMR90~1\AppData\Local\Temp\ccyjM0JL.s:22629  .debug_str:000000000000a381 .LASF3808
C:\Users\CYMR90~1\AppData\Local\Temp\ccyjM0JL.s:21355  .debug_str:0000000000005377 .LASF3809
C:\Users\CYMR90~1\AppData\Local\Temp\ccyjM0JL.s:26386  .debug_str:000000000001941d .LASF3810
C:\Users\CYMR90~1\AppData\Local\Temp\ccyjM0JL.s:22885  .debug_str:000000000000b4c1 .LASF3811
C:\Users\CYMR90~1\AppData\Local\Temp\ccyjM0JL.s:23623  .debug_str:000000000000e4c0 .LASF3812
C:\Users\CYMR90~1\AppData\Local\Temp\ccyjM0JL.s:31158  .debug_str:000000000002c1a8 .LASF3813
C:\Users\CYMR90~1\AppData\Local\Temp\ccyjM0JL.s:31006  .debug_str:000000000002b79e .LASF3814
C:\Users\CYMR90~1\AppData\Local\Temp\ccyjM0JL.s:23489  .debug_str:000000000000dc8c .LASF3815
C:\Users\CYMR90~1\AppData\Local\Temp\ccyjM0JL.s:21439  .debug_str:0000000000005883 .LASF3816
C:\Users\CYMR90~1\AppData\Local\Temp\ccyjM0JL.s:30636  .debug_str:000000000002a166 .LASF3817
C:\Users\CYMR90~1\AppData\Local\Temp\ccyjM0JL.s:28342  .debug_str:0000000000020feb .LASF3818
C:\Users\CYMR90~1\AppData\Local\Temp\ccyjM0JL.s:28256  .debug_str:0000000000020abb .LASF3819
C:\Users\CYMR90~1\AppData\Local\Temp\ccyjM0JL.s:25533  .debug_str:0000000000015c28 .LASF3820
C:\Users\CYMR90~1\AppData\Local\Temp\ccyjM0JL.s:21539  .debug_str:0000000000005e5f .LASF3821
C:\Users\CYMR90~1\AppData\Local\Temp\ccyjM0JL.s:25005  .debug_str:0000000000013cb9 .LASF3822
C:\Users\CYMR90~1\AppData\Local\Temp\ccyjM0JL.s:28540  .debug_str:0000000000021c1f .LASF3823
C:\Users\CYMR90~1\AppData\Local\Temp\ccyjM0JL.s:29658  .debug_str:000000000002636f .LASF3824
C:\Users\CYMR90~1\AppData\Local\Temp\ccyjM0JL.s:21269  .debug_str:0000000000004e46 .LASF3825
C:\Users\CYMR90~1\AppData\Local\Temp\ccyjM0JL.s:29128  .debug_str:0000000000023ef3 .LASF3826
C:\Users\CYMR90~1\AppData\Local\Temp\ccyjM0JL.s:28260  .debug_str:0000000000020b0b .LASF3827
C:\Users\CYMR90~1\AppData\Local\Temp\ccyjM0JL.s:30792  .debug_str:000000000002aad4 .LASF3828
C:\Users\CYMR90~1\AppData\Local\Temp\ccyjM0JL.s:23757  .debug_str:000000000000ed18 .LASF3829
C:\Users\CYMR90~1\AppData\Local\Temp\ccyjM0JL.s:20971  .debug_str:0000000000003a49 .LASF3830
C:\Users\CYMR90~1\AppData\Local\Temp\ccyjM0JL.s:23123  .debug_str:000000000000c4f7 .LASF3831
C:\Users\CYMR90~1\AppData\Local\Temp\ccyjM0JL.s:28354  .debug_str:000000000002108d .LASF3832
C:\Users\CYMR90~1\AppData\Local\Temp\ccyjM0JL.s:26192  .debug_str:0000000000018698 .LASF3833
C:\Users\CYMR90~1\AppData\Local\Temp\ccyjM0JL.s:27290  .debug_str:000000000001cee0 .LASF3834
C:\Users\CYMR90~1\AppData\Local\Temp\ccyjM0JL.s:30376  .debug_str:000000000002921d .LASF3835
C:\Users\CYMR90~1\AppData\Local\Temp\ccyjM0JL.s:25285  .debug_str:0000000000014d96 .LASF3836
C:\Users\CYMR90~1\AppData\Local\Temp\ccyjM0JL.s:28760  .debug_str:000000000002293a .LASF3837
C:\Users\CYMR90~1\AppData\Local\Temp\ccyjM0JL.s:20939  .debug_str:0000000000003847 .LASF3838
C:\Users\CYMR90~1\AppData\Local\Temp\ccyjM0JL.s:29460  .debug_str:0000000000025606 .LASF3839
C:\Users\CYMR90~1\AppData\Local\Temp\ccyjM0JL.s:20311  .debug_str:0000000000001114 .LASF3840
C:\Users\CYMR90~1\AppData\Local\Temp\ccyjM0JL.s:27454  .debug_str:000000000001da2f .LASF3841
C:\Users\CYMR90~1\AppData\Local\Temp\ccyjM0JL.s:24873  .debug_str:000000000001344c .LASF3842
C:\Users\CYMR90~1\AppData\Local\Temp\ccyjM0JL.s:31406  .debug_str:000000000002d24a .LASF3843
C:\Users\CYMR90~1\AppData\Local\Temp\ccyjM0JL.s:20731  .debug_str:0000000000002aff .LASF3844
C:\Users\CYMR90~1\AppData\Local\Temp\ccyjM0JL.s:29910  .debug_str:00000000000272f9 .LASF3845
C:\Users\CYMR90~1\AppData\Local\Temp\ccyjM0JL.s:24731  .debug_str:0000000000012b1e .LASF3846
C:\Users\CYMR90~1\AppData\Local\Temp\ccyjM0JL.s:28162  .debug_str:00000000000204a8 .LASF3847
C:\Users\CYMR90~1\AppData\Local\Temp\ccyjM0JL.s:28306  .debug_str:0000000000020dc7 .LASF3848
C:\Users\CYMR90~1\AppData\Local\Temp\ccyjM0JL.s:20261  .debug_str:0000000000000db4 .LASF3849
C:\Users\CYMR90~1\AppData\Local\Temp\ccyjM0JL.s:27516  .debug_str:000000000001ddf5 .LASF3850
C:\Users\CYMR90~1\AppData\Local\Temp\ccyjM0JL.s:20367  .debug_str:000000000000145b .LASF3851
C:\Users\CYMR90~1\AppData\Local\Temp\ccyjM0JL.s:30166  .debug_str:0000000000028426 .LASF3852
C:\Users\CYMR90~1\AppData\Local\Temp\ccyjM0JL.s:24631  .debug_str:0000000000012470 .LASF3853
C:\Users\CYMR90~1\AppData\Local\Temp\ccyjM0JL.s:27660  .debug_str:000000000001e680 .LASF3854
C:\Users\CYMR90~1\AppData\Local\Temp\ccyjM0JL.s:26554  .debug_str:0000000000019ef4 .LASF3855
C:\Users\CYMR90~1\AppData\Local\Temp\ccyjM0JL.s:25307  .debug_str:0000000000014f1d .LASF3856
C:\Users\CYMR90~1\AppData\Local\Temp\ccyjM0JL.s:24105  .debug_str:000000000001024e .LASF3857
C:\Users\CYMR90~1\AppData\Local\Temp\ccyjM0JL.s:31050  .debug_str:000000000002ba5a .LASF3858
C:\Users\CYMR90~1\AppData\Local\Temp\ccyjM0JL.s:29374  .debug_str:0000000000024f8b .LASF3859
C:\Users\CYMR90~1\AppData\Local\Temp\ccyjM0JL.s:20479  .debug_str:0000000000001bac .LASF3860
C:\Users\CYMR90~1\AppData\Local\Temp\ccyjM0JL.s:30154  .debug_str:0000000000028302 .LASF3861
C:\Users\CYMR90~1\AppData\Local\Temp\ccyjM0JL.s:30394  .debug_str:000000000002930b .LASF3862
C:\Users\CYMR90~1\AppData\Local\Temp\ccyjM0JL.s:20057  .debug_str:0000000000000182 .LASF3863
C:\Users\CYMR90~1\AppData\Local\Temp\ccyjM0JL.s:31276  .debug_str:000000000002c9ad .LASF3864
C:\Users\CYMR90~1\AppData\Local\Temp\ccyjM0JL.s:22729  .debug_str:000000000000aa86 .LASF3865
C:\Users\CYMR90~1\AppData\Local\Temp\ccyjM0JL.s:29390  .debug_str:000000000002508a .LASF3866
C:\Users\CYMR90~1\AppData\Local\Temp\ccyjM0JL.s:22587  .debug_str:000000000000a0e1 .LASF3867
C:\Users\CYMR90~1\AppData\Local\Temp\ccyjM0JL.s:28418  .debug_str:0000000000021424 .LASF3868
C:\Users\CYMR90~1\AppData\Local\Temp\ccyjM0JL.s:20769  .debug_str:0000000000002d6d .LASF3869
C:\Users\CYMR90~1\AppData\Local\Temp\ccyjM0JL.s:26572  .debug_str:000000000001a018 .LASF3870
C:\Users\CYMR90~1\AppData\Local\Temp\ccyjM0JL.s:23407  .debug_str:000000000000d7c1 .LASF3871
C:\Users\CYMR90~1\AppData\Local\Temp\ccyjM0JL.s:21491  .debug_str:0000000000005b98 .LASF3872
C:\Users\CYMR90~1\AppData\Local\Temp\ccyjM0JL.s:30070  .debug_str:0000000000027d37 .LASF3873
C:\Users\CYMR90~1\AppData\Local\Temp\ccyjM0JL.s:23881  .debug_str:000000000000f40b .LASF3874
C:\Users\CYMR90~1\AppData\Local\Temp\ccyjM0JL.s:23079  .debug_str:000000000000c224 .LASF3875
C:\Users\CYMR90~1\AppData\Local\Temp\ccyjM0JL.s:22895  .debug_str:000000000000b54b .LASF3876
C:\Users\CYMR90~1\AppData\Local\Temp\ccyjM0JL.s:20209  .debug_str:0000000000000a62 .LASF3877
C:\Users\CYMR90~1\AppData\Local\Temp\ccyjM0JL.s:24527  .debug_str:0000000000011d83 .LASF3878
C:\Users\CYMR90~1\AppData\Local\Temp\ccyjM0JL.s:28844  .debug_str:0000000000022eaf .LASF3879
C:\Users\CYMR90~1\AppData\Local\Temp\ccyjM0JL.s:21639  .debug_str:0000000000006432 .LASF3880
C:\Users\CYMR90~1\AppData\Local\Temp\ccyjM0JL.s:23003  .debug_str:000000000000bcd2 .LASF3881
C:\Users\CYMR90~1\AppData\Local\Temp\ccyjM0JL.s:24095  .debug_str:00000000000101a5 .LASF3882
C:\Users\CYMR90~1\AppData\Local\Temp\ccyjM0JL.s:28390  .debug_str:0000000000021275 .LASF3883
C:\Users\CYMR90~1\AppData\Local\Temp\ccyjM0JL.s:21279  .debug_str:0000000000004ef0 .LASF3884
C:\Users\CYMR90~1\AppData\Local\Temp\ccyjM0JL.s:25515  .debug_str:0000000000015b17 .LASF3885
C:\Users\CYMR90~1\AppData\Local\Temp\ccyjM0JL.s:29870  .debug_str:0000000000027048 .LASF3886
C:\Users\CYMR90~1\AppData\Local\Temp\ccyjM0JL.s:22773  .debug_str:000000000000ad59 .LASF3887
C:\Users\CYMR90~1\AppData\Local\Temp\ccyjM0JL.s:25093  .debug_str:00000000000141ef .LASF3888
C:\Users\CYMR90~1\AppData\Local\Temp\ccyjM0JL.s:27546  .debug_str:000000000001dfae .LASF3889
C:\Users\CYMR90~1\AppData\Local\Temp\ccyjM0JL.s:23283  .debug_str:000000000000cf27 .LASF3890
C:\Users\CYMR90~1\AppData\Local\Temp\ccyjM0JL.s:28588  .debug_str:0000000000021f2b .LASF3891
C:\Users\CYMR90~1\AppData\Local\Temp\ccyjM0JL.s:21487  .debug_str:0000000000005b40 .LASF3892
C:\Users\CYMR90~1\AppData\Local\Temp\ccyjM0JL.s:31004  .debug_str:000000000002b76c .LASF3893
C:\Users\CYMR90~1\AppData\Local\Temp\ccyjM0JL.s:23875  .debug_str:000000000000f388 .LASF3894
C:\Users\CYMR90~1\AppData\Local\Temp\ccyjM0JL.s:28070  .debug_str:000000000001ff6e .LASF3895
C:\Users\CYMR90~1\AppData\Local\Temp\ccyjM0JL.s:20983  .debug_str:0000000000003b36 .LASF3896
C:\Users\CYMR90~1\AppData\Local\Temp\ccyjM0JL.s:23951  .debug_str:000000000000f8c9 .LASF3897
C:\Users\CYMR90~1\AppData\Local\Temp\ccyjM0JL.s:29162  .debug_str:0000000000024101 .LASF3898
C:\Users\CYMR90~1\AppData\Local\Temp\ccyjM0JL.s:22471  .debug_str:00000000000099c7 .LASF3899
C:\Users\CYMR90~1\AppData\Local\Temp\ccyjM0JL.s:26790  .debug_str:000000000001af28 .LASF3900
C:\Users\CYMR90~1\AppData\Local\Temp\ccyjM0JL.s:21079  .debug_str:0000000000004135 .LASF3901
C:\Users\CYMR90~1\AppData\Local\Temp\ccyjM0JL.s:29204  .debug_str:000000000002443d .LASF3902
C:\Users\CYMR90~1\AppData\Local\Temp\ccyjM0JL.s:22111  .debug_str:000000000000837b .LASF3903
C:\Users\CYMR90~1\AppData\Local\Temp\ccyjM0JL.s:23725  .debug_str:000000000000eaf6 .LASF3904
C:\Users\CYMR90~1\AppData\Local\Temp\ccyjM0JL.s:30670  .debug_str:000000000002a347 .LASF3905
C:\Users\CYMR90~1\AppData\Local\Temp\ccyjM0JL.s:21935  .debug_str:00000000000076dd .LASF3906
C:\Users\CYMR90~1\AppData\Local\Temp\ccyjM0JL.s:27940  .debug_str:000000000001f780 .LASF3907
C:\Users\CYMR90~1\AppData\Local\Temp\ccyjM0JL.s:20693  .debug_str:0000000000002881 .LASF3908
C:\Users\CYMR90~1\AppData\Local\Temp\ccyjM0JL.s:26122  .debug_str:000000000001829e .LASF3909
C:\Users\CYMR90~1\AppData\Local\Temp\ccyjM0JL.s:31386  .debug_str:000000000002d11a .LASF3910
C:\Users\CYMR90~1\AppData\Local\Temp\ccyjM0JL.s:22119  .debug_str:00000000000083f8 .LASF3911
C:\Users\CYMR90~1\AppData\Local\Temp\ccyjM0JL.s:20339  .debug_str:00000000000012af .LASF3912
C:\Users\CYMR90~1\AppData\Local\Temp\ccyjM0JL.s:24673  .debug_str:0000000000012742 .LASF3913
C:\Users\CYMR90~1\AppData\Local\Temp\ccyjM0JL.s:28902  .debug_str:00000000000231ef .LASF3914
C:\Users\CYMR90~1\AppData\Local\Temp\ccyjM0JL.s:21783  .debug_str:0000000000006d05 .LASF3915
C:\Users\CYMR90~1\AppData\Local\Temp\ccyjM0JL.s:24721  .debug_str:0000000000012a61 .LASF3916
C:\Users\CYMR90~1\AppData\Local\Temp\ccyjM0JL.s:28072  .debug_str:000000000001ffa0 .LASF3917
C:\Users\CYMR90~1\AppData\Local\Temp\ccyjM0JL.s:24637  .debug_str:00000000000124fd .LASF3918
C:\Users\CYMR90~1\AppData\Local\Temp\ccyjM0JL.s:29650  .debug_str:00000000000262f9 .LASF3919
C:\Users\CYMR90~1\AppData\Local\Temp\ccyjM0JL.s:28574  .debug_str:0000000000021e4d .LASF3920
C:\Users\CYMR90~1\AppData\Local\Temp\ccyjM0JL.s:23237  .debug_str:000000000000cc94 .LASF3921
C:\Users\CYMR90~1\AppData\Local\Temp\ccyjM0JL.s:23671  .debug_str:000000000000e785 .LASF3922
C:\Users\CYMR90~1\AppData\Local\Temp\ccyjM0JL.s:29212  .debug_str:00000000000244e6 .LASF3923
C:\Users\CYMR90~1\AppData\Local\Temp\ccyjM0JL.s:25531  .debug_str:0000000000015c06 .LASF3924
C:\Users\CYMR90~1\AppData\Local\Temp\ccyjM0JL.s:25964  .debug_str:00000000000178f8 .LASF3925
C:\Users\CYMR90~1\AppData\Local\Temp\ccyjM0JL.s:22955  .debug_str:000000000000b9c4 .LASF3926
C:\Users\CYMR90~1\AppData\Local\Temp\ccyjM0JL.s:25315  .debug_str:0000000000014fa6 .LASF3927
C:\Users\CYMR90~1\AppData\Local\Temp\ccyjM0JL.s:28286  .debug_str:0000000000020c71 .LASF3928
C:\Users\CYMR90~1\AppData\Local\Temp\ccyjM0JL.s:26810  .debug_str:000000000001b0dc .LASF3929
C:\Users\CYMR90~1\AppData\Local\Temp\ccyjM0JL.s:29682  .debug_str:00000000000264ed .LASF3930
C:\Users\CYMR90~1\AppData\Local\Temp\ccyjM0JL.s:26410  .debug_str:0000000000019598 .LASF3931
C:\Users\CYMR90~1\AppData\Local\Temp\ccyjM0JL.s:24379  .debug_str:000000000001137c .LASF3932
C:\Users\CYMR90~1\AppData\Local\Temp\ccyjM0JL.s:22031  .debug_str:0000000000007d43 .LASF3933
C:\Users\CYMR90~1\AppData\Local\Temp\ccyjM0JL.s:20379  .debug_str:0000000000001528 .LASF3934
C:\Users\CYMR90~1\AppData\Local\Temp\ccyjM0JL.s:20047  .debug_str:00000000000000ff .LASF3935
C:\Users\CYMR90~1\AppData\Local\Temp\ccyjM0JL.s:24951  .debug_str:0000000000013994 .LASF3936
C:\Users\CYMR90~1\AppData\Local\Temp\ccyjM0JL.s:21409  .debug_str:00000000000056c2 .LASF3937
C:\Users\CYMR90~1\AppData\Local\Temp\ccyjM0JL.s:26224  .debug_str:00000000000188a2 .LASF3938
C:\Users\CYMR90~1\AppData\Local\Temp\ccyjM0JL.s:23567  .debug_str:000000000000e157 .LASF3939
C:\Users\CYMR90~1\AppData\Local\Temp\ccyjM0JL.s:22595  .debug_str:000000000000a17b .LASF3940
C:\Users\CYMR90~1\AppData\Local\Temp\ccyjM0JL.s:24049  .debug_str:000000000000febd .LASF3941
C:\Users\CYMR90~1\AppData\Local\Temp\ccyjM0JL.s:25926  .debug_str:00000000000176d7 .LASF3942
C:\Users\CYMR90~1\AppData\Local\Temp\ccyjM0JL.s:25377  .debug_str:0000000000015334 .LASF3943
C:\Users\CYMR90~1\AppData\Local\Temp\ccyjM0JL.s:24759  .debug_str:0000000000012d1f .LASF3944
C:\Users\CYMR90~1\AppData\Local\Temp\ccyjM0JL.s:27124  .debug_str:000000000001c450 .LASF3945
C:\Users\CYMR90~1\AppData\Local\Temp\ccyjM0JL.s:23675  .debug_str:000000000000e804 .LASF3946
C:\Users\CYMR90~1\AppData\Local\Temp\ccyjM0JL.s:20245  .debug_str:0000000000000cd0 .LASF3947
C:\Users\CYMR90~1\AppData\Local\Temp\ccyjM0JL.s:30400  .debug_str:0000000000029380 .LASF3948
C:\Users\CYMR90~1\AppData\Local\Temp\ccyjM0JL.s:24821  .debug_str:000000000001310a .LASF3949
C:\Users\CYMR90~1\AppData\Local\Temp\ccyjM0JL.s:27466  .debug_str:000000000001daf4 .LASF3950
C:\Users\CYMR90~1\AppData\Local\Temp\ccyjM0JL.s:20635  .debug_str:00000000000024a7 .LASF3951
C:\Users\CYMR90~1\AppData\Local\Temp\ccyjM0JL.s:20543  .debug_str:0000000000001f87 .LASF3952
C:\Users\CYMR90~1\AppData\Local\Temp\ccyjM0JL.s:29454  .debug_str:0000000000025580 .LASF3953
C:\Users\CYMR90~1\AppData\Local\Temp\ccyjM0JL.s:21929  .debug_str:000000000000768c .LASF3954
C:\Users\CYMR90~1\AppData\Local\Temp\ccyjM0JL.s:25800  .debug_str:0000000000016fa7 .LASF3955
C:\Users\CYMR90~1\AppData\Local\Temp\ccyjM0JL.s:25101  .debug_str:000000000001429c .LASF3956
C:\Users\CYMR90~1\AppData\Local\Temp\ccyjM0JL.s:30388  .debug_str:00000000000292ca .LASF3957
C:\Users\CYMR90~1\AppData\Local\Temp\ccyjM0JL.s:26948  .debug_str:000000000001b96c .LASF3958
C:\Users\CYMR90~1\AppData\Local\Temp\ccyjM0JL.s:20771  .debug_str:0000000000002d9f .LASF3959
C:\Users\CYMR90~1\AppData\Local\Temp\ccyjM0JL.s:30776  .debug_str:000000000002a9dd .LASF3960
C:\Users\CYMR90~1\AppData\Local\Temp\ccyjM0JL.s:31094  .debug_str:000000000002bd5e .LASF3961
C:\Users\CYMR90~1\AppData\Local\Temp\ccyjM0JL.s:22757  .debug_str:000000000000ac4b .LASF3962
C:\Users\CYMR90~1\AppData\Local\Temp\ccyjM0JL.s:21277  .debug_str:0000000000004ecc .LASF3963
C:\Users\CYMR90~1\AppData\Local\Temp\ccyjM0JL.s:31310  .debug_str:000000000002cbd1 .LASF3964
C:\Users\CYMR90~1\AppData\Local\Temp\ccyjM0JL.s:24511  .debug_str:0000000000011c7f .LASF3965
C:\Users\CYMR90~1\AppData\Local\Temp\ccyjM0JL.s:21057  .debug_str:000000000000400a .LASF3966
C:\Users\CYMR90~1\AppData\Local\Temp\ccyjM0JL.s:29088  .debug_str:0000000000023ce0 .LASF3967
C:\Users\CYMR90~1\AppData\Local\Temp\ccyjM0JL.s:25473  .debug_str:000000000001589d .LASF3968
C:\Users\CYMR90~1\AppData\Local\Temp\ccyjM0JL.s:24065  .debug_str:000000000000ffdd .LASF3969
C:\Users\CYMR90~1\AppData\Local\Temp\ccyjM0JL.s:30248  .debug_str:00000000000289ff .LASF3970
C:\Users\CYMR90~1\AppData\Local\Temp\ccyjM0JL.s:28218  .debug_str:00000000000208bf .LASF3971
C:\Users\CYMR90~1\AppData\Local\Temp\ccyjM0JL.s:29962  .debug_str:00000000000276df .LASF3972
C:\Users\CYMR90~1\AppData\Local\Temp\ccyjM0JL.s:30084  .debug_str:0000000000027e60 .LASF3973
C:\Users\CYMR90~1\AppData\Local\Temp\ccyjM0JL.s:26662  .debug_str:000000000001a6cf .LASF3974
C:\Users\CYMR90~1\AppData\Local\Temp\ccyjM0JL.s:23253  .debug_str:000000000000cd9d .LASF3975
C:\Users\CYMR90~1\AppData\Local\Temp\ccyjM0JL.s:31254  .debug_str:000000000002c874 .LASF3976
C:\Users\CYMR90~1\AppData\Local\Temp\ccyjM0JL.s:21177  .debug_str:00000000000047f2 .LASF3977
C:\Users\CYMR90~1\AppData\Local\Temp\ccyjM0JL.s:24383  .debug_str:00000000000113b7 .LASF3978
C:\Users\CYMR90~1\AppData\Local\Temp\ccyjM0JL.s:27308  .debug_str:000000000001d09a .LASF3979
C:\Users\CYMR90~1\AppData\Local\Temp\ccyjM0JL.s:28946  .debug_str:0000000000023436 .LASF3980
C:\Users\CYMR90~1\AppData\Local\Temp\ccyjM0JL.s:30322  .debug_str:0000000000028ed2 .LASF3981
C:\Users\CYMR90~1\AppData\Local\Temp\ccyjM0JL.s:20775  .debug_str:0000000000002df8 .LASF3982
C:\Users\CYMR90~1\AppData\Local\Temp\ccyjM0JL.s:25920  .debug_str:0000000000017674 .LASF3983
C:\Users\CYMR90~1\AppData\Local\Temp\ccyjM0JL.s:25347  .debug_str:000000000001518b .LASF3984
C:\Users\CYMR90~1\AppData\Local\Temp\ccyjM0JL.s:21927  .debug_str:0000000000007668 .LASF3985
C:\Users\CYMR90~1\AppData\Local\Temp\ccyjM0JL.s:24167  .debug_str:00000000000105e5 .LASF3986
C:\Users\CYMR90~1\AppData\Local\Temp\ccyjM0JL.s:29026  .debug_str:00000000000238ff .LASF3987
C:\Users\CYMR90~1\AppData\Local\Temp\ccyjM0JL.s:23099  .debug_str:000000000000c35d .LASF3988
C:\Users\CYMR90~1\AppData\Local\Temp\ccyjM0JL.s:30096  .debug_str:0000000000027f26 .LASF3989
C:\Users\CYMR90~1\AppData\Local\Temp\ccyjM0JL.s:20685  .debug_str:00000000000027e2 .LASF3990
C:\Users\CYMR90~1\AppData\Local\Temp\ccyjM0JL.s:29108  .debug_str:0000000000023de8 .LASF3991
C:\Users\CYMR90~1\AppData\Local\Temp\ccyjM0JL.s:31056  .debug_str:000000000002bac2 .LASF3992
C:\Users\CYMR90~1\AppData\Local\Temp\ccyjM0JL.s:27468  .debug_str:000000000001db18 .LASF3993
C:\Users\CYMR90~1\AppData\Local\Temp\ccyjM0JL.s:24087  .debug_str:000000000001010a .LASF3994
C:\Users\CYMR90~1\AppData\Local\Temp\ccyjM0JL.s:20483  .debug_str:0000000000001c00 .LASF3995
C:\Users\CYMR90~1\AppData\Local\Temp\ccyjM0JL.s:28640  .debug_str:0000000000022253 .LASF3996
C:\Users\CYMR90~1\AppData\Local\Temp\ccyjM0JL.s:25205  .debug_str:0000000000014943 .LASF3997
C:\Users\CYMR90~1\AppData\Local\Temp\ccyjM0JL.s:23885  .debug_str:000000000000f451 .LASF3998
C:\Users\CYMR90~1\AppData\Local\Temp\ccyjM0JL.s:26494  .debug_str:0000000000019b6d .LASF3999
C:\Users\CYMR90~1\AppData\Local\Temp\ccyjM0JL.s:26376  .debug_str:000000000001938d .LASF4000
C:\Users\CYMR90~1\AppData\Local\Temp\ccyjM0JL.s:27772  .debug_str:000000000001ed50 .LASF4001
C:\Users\CYMR90~1\AppData\Local\Temp\ccyjM0JL.s:29730  .debug_str:00000000000267ba .LASF4002
C:\Users\CYMR90~1\AppData\Local\Temp\ccyjM0JL.s:27838  .debug_str:000000000001f16a .LASF4003
C:\Users\CYMR90~1\AppData\Local\Temp\ccyjM0JL.s:22407  .debug_str:0000000000009573 .LASF4004
C:\Users\CYMR90~1\AppData\Local\Temp\ccyjM0JL.s:30898  .debug_str:000000000002b120 .LASF4005
C:\Users\CYMR90~1\AppData\Local\Temp\ccyjM0JL.s:27344  .debug_str:000000000001d36f .LASF4006
C:\Users\CYMR90~1\AppData\Local\Temp\ccyjM0JL.s:28578  .debug_str:0000000000021e8b .LASF4007
C:\Users\CYMR90~1\AppData\Local\Temp\ccyjM0JL.s:20491  .debug_str:0000000000001c90 .LASF4008
C:\Users\CYMR90~1\AppData\Local\Temp\ccyjM0JL.s:28492  .debug_str:000000000002193e .LASF4009
C:\Users\CYMR90~1\AppData\Local\Temp\ccyjM0JL.s:25055  .debug_str:0000000000013fb5 .LASF4010
C:\Users\CYMR90~1\AppData\Local\Temp\ccyjM0JL.s:30788  .debug_str:000000000002aa9c .LASF4011
C:\Users\CYMR90~1\AppData\Local\Temp\ccyjM0JL.s:28428  .debug_str:00000000000214bd .LASF4012
C:\Users\CYMR90~1\AppData\Local\Temp\ccyjM0JL.s:25001  .debug_str:0000000000013c7e .LASF4013
C:\Users\CYMR90~1\AppData\Local\Temp\ccyjM0JL.s:29746  .debug_str:00000000000268b4 .LASF4014
C:\Users\CYMR90~1\AppData\Local\Temp\ccyjM0JL.s:29578  .debug_str:0000000000025e8f .LASF4015
C:\Users\CYMR90~1\AppData\Local\Temp\ccyjM0JL.s:30824  .debug_str:000000000002acc8 .LASF4016
C:\Users\CYMR90~1\AppData\Local\Temp\ccyjM0JL.s:31362  .debug_str:000000000002cf2f .LASF4017
C:\Users\CYMR90~1\AppData\Local\Temp\ccyjM0JL.s:30744  .debug_str:000000000002a7c6 .LASF4018
C:\Users\CYMR90~1\AppData\Local\Temp\ccyjM0JL.s:28646  .debug_str:00000000000222c0 .LASF4019
C:\Users\CYMR90~1\AppData\Local\Temp\ccyjM0JL.s:27486  .debug_str:000000000001dc2f .LASF4020
C:\Users\CYMR90~1\AppData\Local\Temp\ccyjM0JL.s:21835  .debug_str:000000000000703b .LASF4021
C:\Users\CYMR90~1\AppData\Local\Temp\ccyjM0JL.s:21985  .debug_str:0000000000007a28 .LASF4022
C:\Users\CYMR90~1\AppData\Local\Temp\ccyjM0JL.s:26030  .debug_str:0000000000017d2e .LASF4023
C:\Users\CYMR90~1\AppData\Local\Temp\ccyjM0JL.s:30024  .debug_str:0000000000027a59 .LASF4024
C:\Users\CYMR90~1\AppData\Local\Temp\ccyjM0JL.s:22571  .debug_str:0000000000009ff0 .LASF4025
C:\Users\CYMR90~1\AppData\Local\Temp\ccyjM0JL.s:31190  .debug_str:000000000002c400 .LASF4026
C:\Users\CYMR90~1\AppData\Local\Temp\ccyjM0JL.s:22093  .debug_str:0000000000008252 .LASF4027
C:\Users\CYMR90~1\AppData\Local\Temp\ccyjM0JL.s:24443  .debug_str:0000000000011785 .LASF4028
C:\Users\CYMR90~1\AppData\Local\Temp\ccyjM0JL.s:27002  .debug_str:000000000001bc76 .LASF4029
C:\Users\CYMR90~1\AppData\Local\Temp\ccyjM0JL.s:31112  .debug_str:000000000002bead .LASF4030
C:\Users\CYMR90~1\AppData\Local\Temp\ccyjM0JL.s:25145  .debug_str:000000000001456b .LASF4031
C:\Users\CYMR90~1\AppData\Local\Temp\ccyjM0JL.s:27606  .debug_str:000000000001e36e .LASF4032
C:\Users\CYMR90~1\AppData\Local\Temp\ccyjM0JL.s:29956  .debug_str:000000000002766f .LASF4033
C:\Users\CYMR90~1\AppData\Local\Temp\ccyjM0JL.s:20923  .debug_str:0000000000003743 .LASF4034
C:\Users\CYMR90~1\AppData\Local\Temp\ccyjM0JL.s:28320  .debug_str:0000000000020eb8 .LASF4035
C:\Users\CYMR90~1\AppData\Local\Temp\ccyjM0JL.s:20833  .debug_str:000000000000314d .LASF4036
C:\Users\CYMR90~1\AppData\Local\Temp\ccyjM0JL.s:27946  .debug_str:000000000001f7e4 .LASF4037
C:\Users\CYMR90~1\AppData\Local\Temp\ccyjM0JL.s:30354  .debug_str:0000000000029087 .LASF4038
C:\Users\CYMR90~1\AppData\Local\Temp\ccyjM0JL.s:24777  .debug_str:0000000000012e07 .LASF4039
C:\Users\CYMR90~1\AppData\Local\Temp\ccyjM0JL.s:23565  .debug_str:000000000000e131 .LASF4040
C:\Users\CYMR90~1\AppData\Local\Temp\ccyjM0JL.s:20581  .debug_str:0000000000002177 .LASF4041
C:\Users\CYMR90~1\AppData\Local\Temp\ccyjM0JL.s:22117  .debug_str:00000000000083d2 .LASF4042
C:\Users\CYMR90~1\AppData\Local\Temp\ccyjM0JL.s:23285  .debug_str:000000000000cf59 .LASF4043
C:\Users\CYMR90~1\AppData\Local\Temp\ccyjM0JL.s:26402  .debug_str:0000000000019527 .LASF4044
C:\Users\CYMR90~1\AppData\Local\Temp\ccyjM0JL.s:24435  .debug_str:00000000000116f2 .LASF4045
C:\Users\CYMR90~1\AppData\Local\Temp\ccyjM0JL.s:20127  .debug_str:00000000000005a1 .LASF4046
C:\Users\CYMR90~1\AppData\Local\Temp\ccyjM0JL.s:26880  .debug_str:000000000001b53a .LASF4047
C:\Users\CYMR90~1\AppData\Local\Temp\ccyjM0JL.s:25699  .debug_str:00000000000166f5 .LASF4048
C:\Users\CYMR90~1\AppData\Local\Temp\ccyjM0JL.s:23497  .debug_str:000000000000dcef .LASF4049
C:\Users\CYMR90~1\AppData\Local\Temp\ccyjM0JL.s:22499  .debug_str:0000000000009b8e .LASF4050
C:\Users\CYMR90~1\AppData\Local\Temp\ccyjM0JL.s:26440  .debug_str:0000000000019745 .LASF4051
C:\Users\CYMR90~1\AppData\Local\Temp\ccyjM0JL.s:22375  .debug_str:00000000000093a5 .LASF4052
C:\Users\CYMR90~1\AppData\Local\Temp\ccyjM0JL.s:26338  .debug_str:0000000000019077 .LASF4053
C:\Users\CYMR90~1\AppData\Local\Temp\ccyjM0JL.s:30314  .debug_str:0000000000028e69 .LASF4054
C:\Users\CYMR90~1\AppData\Local\Temp\ccyjM0JL.s:25279  .debug_str:0000000000014d40 .LASF4055
C:\Users\CYMR90~1\AppData\Local\Temp\ccyjM0JL.s:26826  .debug_str:000000000001b1d0 .LASF4056
C:\Users\CYMR90~1\AppData\Local\Temp\ccyjM0JL.s:30896  .debug_str:000000000002b0fa .LASF4057
C:\Users\CYMR90~1\AppData\Local\Temp\ccyjM0JL.s:23437  .debug_str:000000000000d982 .LASF4058
C:\Users\CYMR90~1\AppData\Local\Temp\ccyjM0JL.s:22555  .debug_str:0000000000009ed4 .LASF4059
C:\Users\CYMR90~1\AppData\Local\Temp\ccyjM0JL.s:24907  .debug_str:00000000000136e2 .LASF4060
C:\Users\CYMR90~1\AppData\Local\Temp\ccyjM0JL.s:28378  .debug_str:00000000000211dd .LASF4061
C:\Users\CYMR90~1\AppData\Local\Temp\ccyjM0JL.s:30158  .debug_str:000000000002838b .LASF4062
C:\Users\CYMR90~1\AppData\Local\Temp\ccyjM0JL.s:27434  .debug_str:000000000001d8e8 .LASF4063
C:\Users\CYMR90~1\AppData\Local\Temp\ccyjM0JL.s:22791  .debug_str:000000000000ae71 .LASF4064
C:\Users\CYMR90~1\AppData\Local\Temp\ccyjM0JL.s:26766  .debug_str:000000000001ada8 .LASF4065
C:\Users\CYMR90~1\AppData\Local\Temp\ccyjM0JL.s:30820  .debug_str:000000000002ac91 .LASF4066
C:\Users\CYMR90~1\AppData\Local\Temp\ccyjM0JL.s:26086  .debug_str:000000000001807c .LASF4067
C:\Users\CYMR90~1\AppData\Local\Temp\ccyjM0JL.s:27304  .debug_str:000000000001d05a .LASF4068
C:\Users\CYMR90~1\AppData\Local\Temp\ccyjM0JL.s:31312  .debug_str:000000000002cbf5 .LASF4069
C:\Users\CYMR90~1\AppData\Local\Temp\ccyjM0JL.s:26366  .debug_str:0000000000019306 .LASF4070
C:\Users\CYMR90~1\AppData\Local\Temp\ccyjM0JL.s:20869  .debug_str:00000000000033c4 .LASF4071
C:\Users\CYMR90~1\AppData\Local\Temp\ccyjM0JL.s:30182  .debug_str:000000000002852c .LASF4072
C:\Users\CYMR90~1\AppData\Local\Temp\ccyjM0JL.s:30764  .debug_str:000000000002a930 .LASF4073
C:\Users\CYMR90~1\AppData\Local\Temp\ccyjM0JL.s:21663  .debug_str:00000000000065aa .LASF4074
C:\Users\CYMR90~1\AppData\Local\Temp\ccyjM0JL.s:30754  .debug_str:000000000002a86f .LASF4075
C:\Users\CYMR90~1\AppData\Local\Temp\ccyjM0JL.s:23309  .debug_str:000000000000d0eb .LASF4076
C:\Users\CYMR90~1\AppData\Local\Temp\ccyjM0JL.s:27244  .debug_str:000000000001cc09 .LASF4077
C:\Users\CYMR90~1\AppData\Local\Temp\ccyjM0JL.s:31250  .debug_str:000000000002c827 .LASF4078
C:\Users\CYMR90~1\AppData\Local\Temp\ccyjM0JL.s:22095  .debug_str:0000000000008278 .LASF4079
C:\Users\CYMR90~1\AppData\Local\Temp\ccyjM0JL.s:25267  .debug_str:0000000000014cca .LASF4080
C:\Users\CYMR90~1\AppData\Local\Temp\ccyjM0JL.s:24791  .debug_str:0000000000012f0e .LASF4081
C:\Users\CYMR90~1\AppData\Local\Temp\ccyjM0JL.s:23117  .debug_str:000000000000c476 .LASF4082
C:\Users\CYMR90~1\AppData\Local\Temp\ccyjM0JL.s:26622  .debug_str:000000000001a2fa .LASF4083
C:\Users\CYMR90~1\AppData\Local\Temp\ccyjM0JL.s:24097  .debug_str:00000000000101d7 .LASF4084
C:\Users\CYMR90~1\AppData\Local\Temp\ccyjM0JL.s:27014  .debug_str:000000000001bd5e .LASF4085
C:\Users\CYMR90~1\AppData\Local\Temp\ccyjM0JL.s:27174  .debug_str:000000000001c6e7 .LASF4086
C:\Users\CYMR90~1\AppData\Local\Temp\ccyjM0JL.s:28494  .debug_str:0000000000021962 .LASF4087
C:\Users\CYMR90~1\AppData\Local\Temp\ccyjM0JL.s:23707  .debug_str:000000000000e9f0 .LASF4088
C:\Users\CYMR90~1\AppData\Local\Temp\ccyjM0JL.s:27632  .debug_str:000000000001e4cb .LASF4089
C:\Users\CYMR90~1\AppData\Local\Temp\ccyjM0JL.s:20221  .debug_str:0000000000000b73 .LASF4090
C:\Users\CYMR90~1\AppData\Local\Temp\ccyjM0JL.s:27180  .debug_str:000000000001c745 .LASF4091
C:\Users\CYMR90~1\AppData\Local\Temp\ccyjM0JL.s:28770  .debug_str:00000000000229f4 .LASF4092
C:\Users\CYMR90~1\AppData\Local\Temp\ccyjM0JL.s:30620  .debug_str:000000000002a07b .LASF4093
C:\Users\CYMR90~1\AppData\Local\Temp\ccyjM0JL.s:23171  .debug_str:000000000000c7dc .LASF4094
C:\Users\CYMR90~1\AppData\Local\Temp\ccyjM0JL.s:21667  .debug_str:00000000000065e9 .LASF4095
C:\Users\CYMR90~1\AppData\Local\Temp\ccyjM0JL.s:31124  .debug_str:000000000002bf45 .LASF4096
C:\Users\CYMR90~1\AppData\Local\Temp\ccyjM0JL.s:27658  .debug_str:000000000001e65a .LASF4097
C:\Users\CYMR90~1\AppData\Local\Temp\ccyjM0JL.s:27564  .debug_str:000000000001e0eb .LASF4098
C:\Users\CYMR90~1\AppData\Local\Temp\ccyjM0JL.s:20159  .debug_str:00000000000007a1 .LASF4099
C:\Users\CYMR90~1\AppData\Local\Temp\ccyjM0JL.s:31300  .debug_str:000000000002cb12 .LASF4100
C:\Users\CYMR90~1\AppData\Local\Temp\ccyjM0JL.s:21137  .debug_str:0000000000004543 .LASF4101
C:\Users\CYMR90~1\AppData\Local\Temp\ccyjM0JL.s:30550  .debug_str:0000000000029c6d .LASF4102
C:\Users\CYMR90~1\AppData\Local\Temp\ccyjM0JL.s:26502  .debug_str:0000000000019be9 .LASF4103
C:\Users\CYMR90~1\AppData\Local\Temp\ccyjM0JL.s:28856  .debug_str:0000000000022f51 .LASF4104
C:\Users\CYMR90~1\AppData\Local\Temp\ccyjM0JL.s:31070  .debug_str:000000000002bbab .LASF4105
C:\Users\CYMR90~1\AppData\Local\Temp\ccyjM0JL.s:23587  .debug_str:000000000000e266 .LASF4106
C:\Users\CYMR90~1\AppData\Local\Temp\ccyjM0JL.s:21433  .debug_str:0000000000005836 .LASF4107
C:\Users\CYMR90~1\AppData\Local\Temp\ccyjM0JL.s:26858  .debug_str:000000000001b410 .LASF4108
C:\Users\CYMR90~1\AppData\Local\Temp\ccyjM0JL.s:24653  .debug_str:00000000000125f2 .LASF4109
C:\Users\CYMR90~1\AppData\Local\Temp\ccyjM0JL.s:21011  .debug_str:0000000000003ccf .LASF4110
C:\Users\CYMR90~1\AppData\Local\Temp\ccyjM0JL.s:25133  .debug_str:00000000000144b8 .LASF4111
C:\Users\CYMR90~1\AppData\Local\Temp\ccyjM0JL.s:23035  .debug_str:000000000000bf79 .LASF4112
C:\Users\CYMR90~1\AppData\Local\Temp\ccyjM0JL.s:20381  .debug_str:000000000000154c .LASF4113
C:\Users\CYMR90~1\AppData\Local\Temp\ccyjM0JL.s:30992  .debug_str:000000000002b6d2 .LASF4114
C:\Users\CYMR90~1\AppData\Local\Temp\ccyjM0JL.s:20827  .debug_str:00000000000030ff .LASF4115
C:\Users\CYMR90~1\AppData\Local\Temp\ccyjM0JL.s:29200  .debug_str:00000000000243fc .LASF4116
C:\Users\CYMR90~1\AppData\Local\Temp\ccyjM0JL.s:31450  .debug_str:000000000002d4f2 .LASF4117
C:\Users\CYMR90~1\AppData\Local\Temp\ccyjM0JL.s:20375  .debug_str:00000000000014f0 .LASF4118
C:\Users\CYMR90~1\AppData\Local\Temp\ccyjM0JL.s:25595  .debug_str:000000000001605a .LASF4119
C:\Users\CYMR90~1\AppData\Local\Temp\ccyjM0JL.s:26934  .debug_str:000000000001b894 .LASF4120
C:\Users\CYMR90~1\AppData\Local\Temp\ccyjM0JL.s:29636  .debug_str:00000000000261f1 .LASF4121
C:\Users\CYMR90~1\AppData\Local\Temp\ccyjM0JL.s:25317  .debug_str:0000000000014fc8 .LASF4122
C:\Users\CYMR90~1\AppData\Local\Temp\ccyjM0JL.s:20093  .debug_str:00000000000003c4 .LASF4123
C:\Users\CYMR90~1\AppData\Local\Temp\ccyjM0JL.s:20821  .debug_str:00000000000030b0 .LASF4124
C:\Users\CYMR90~1\AppData\Local\Temp\ccyjM0JL.s:22159  .debug_str:0000000000008686 .LASF4125
C:\Users\CYMR90~1\AppData\Local\Temp\ccyjM0JL.s:26116  .debug_str:0000000000018241 .LASF4126
C:\Users\CYMR90~1\AppData\Local\Temp\ccyjM0JL.s:30104  .debug_str:0000000000027fae .LASF4127
C:\Users\CYMR90~1\AppData\Local\Temp\ccyjM0JL.s:28932  .debug_str:0000000000023380 .LASF4128
C:\Users\CYMR90~1\AppData\Local\Temp\ccyjM0JL.s:31314  .debug_str:000000000002cc1b .LASF4129
C:\Users\CYMR90~1\AppData\Local\Temp\ccyjM0JL.s:30674  .debug_str:000000000002a390 .LASF4130
C:\Users\CYMR90~1\AppData\Local\Temp\ccyjM0JL.s:20255  .debug_str:0000000000000d64 .LASF4131
C:\Users\CYMR90~1\AppData\Local\Temp\ccyjM0JL.s:20699  .debug_str:0000000000002906 .LASF4132
C:\Users\CYMR90~1\AppData\Local\Temp\ccyjM0JL.s:29544  .debug_str:0000000000025c7c .LASF4133
C:\Users\CYMR90~1\AppData\Local\Temp\ccyjM0JL.s:22099  .debug_str:00000000000082b4 .LASF4134
C:\Users\CYMR90~1\AppData\Local\Temp\ccyjM0JL.s:26044  .debug_str:0000000000017dfe .LASF4135
C:\Users\CYMR90~1\AppData\Local\Temp\ccyjM0JL.s:30886  .debug_str:000000000002b056 .LASF4136
C:\Users\CYMR90~1\AppData\Local\Temp\ccyjM0JL.s:21033  .debug_str:0000000000003e56 .LASF4137
C:\Users\CYMR90~1\AppData\Local\Temp\ccyjM0JL.s:26542  .debug_str:0000000000019e75 .LASF4138
C:\Users\CYMR90~1\AppData\Local\Temp\ccyjM0JL.s:30616  .debug_str:000000000002a03e .LASF4139
C:\Users\CYMR90~1\AppData\Local\Temp\ccyjM0JL.s:29018  .debug_str:0000000000023896 .LASF4140
C:\Users\CYMR90~1\AppData\Local\Temp\ccyjM0JL.s:28044  .debug_str:000000000001fdd0 .LASF4141
C:\Users\CYMR90~1\AppData\Local\Temp\ccyjM0JL.s:29370  .debug_str:0000000000024f52 .LASF4142
C:\Users\CYMR90~1\AppData\Local\Temp\ccyjM0JL.s:31398  .debug_str:000000000002d1ee .LASF4143
C:\Users\CYMR90~1\AppData\Local\Temp\ccyjM0JL.s:25984  .debug_str:0000000000017a7a .LASF4144
C:\Users\CYMR90~1\AppData\Local\Temp\ccyjM0JL.s:22253  .debug_str:0000000000008c5e .LASF4145
C:\Users\CYMR90~1\AppData\Local\Temp\ccyjM0JL.s:26710  .debug_str:000000000001aa37 .LASF4146
C:\Users\CYMR90~1\AppData\Local\Temp\ccyjM0JL.s:26954  .debug_str:000000000001b9f1 .LASF4147
C:\Users\CYMR90~1\AppData\Local\Temp\ccyjM0JL.s:30540  .debug_str:0000000000029be3 .LASF4148
C:\Users\CYMR90~1\AppData\Local\Temp\ccyjM0JL.s:21109  .debug_str:000000000000438b .LASF4149
C:\Users\CYMR90~1\AppData\Local\Temp\ccyjM0JL.s:23511  .debug_str:000000000000dd96 .LASF4150
C:\Users\CYMR90~1\AppData\Local\Temp\ccyjM0JL.s:26324  .debug_str:0000000000018f99 .LASF4151
C:\Users\CYMR90~1\AppData\Local\Temp\ccyjM0JL.s:21959  .debug_str:0000000000007878 .LASF4152
C:\Users\CYMR90~1\AppData\Local\Temp\ccyjM0JL.s:23459  .debug_str:000000000000dad3 .LASF4153
C:\Users\CYMR90~1\AppData\Local\Temp\ccyjM0JL.s:29000  .debug_str:0000000000023754 .LASF4154
C:\Users\CYMR90~1\AppData\Local\Temp\ccyjM0JL.s:22435  .debug_str:0000000000009762 .LASF4155
C:\Users\CYMR90~1\AppData\Local\Temp\ccyjM0JL.s:31368  .debug_str:000000000002cf87 .LASF4156
C:\Users\CYMR90~1\AppData\Local\Temp\ccyjM0JL.s:30480  .debug_str:0000000000029835 .LASF4157
C:\Users\CYMR90~1\AppData\Local\Temp\ccyjM0JL.s:23029  .debug_str:000000000000bf00 .LASF4158
C:\Users\CYMR90~1\AppData\Local\Temp\ccyjM0JL.s:27032  .debug_str:000000000001be79 .LASF4159
C:\Users\CYMR90~1\AppData\Local\Temp\ccyjM0JL.s:29392  .debug_str:00000000000250bc .LASF4160
C:\Users\CYMR90~1\AppData\Local\Temp\ccyjM0JL.s:25379  .debug_str:0000000000015358 .LASF4161
C:\Users\CYMR90~1\AppData\Local\Temp\ccyjM0JL.s:25858  .debug_str:00000000000172f4 .LASF4162
C:\Users\CYMR90~1\AppData\Local\Temp\ccyjM0JL.s:27330  .debug_str:000000000001d273 .LASF4163
C:\Users\CYMR90~1\AppData\Local\Temp\ccyjM0JL.s:20275  .debug_str:0000000000000e89 .LASF4164
C:\Users\CYMR90~1\AppData\Local\Temp\ccyjM0JL.s:26354  .debug_str:0000000000019240 .LASF4165
C:\Users\CYMR90~1\AppData\Local\Temp\ccyjM0JL.s:25864  .debug_str:0000000000017360 .LASF4166
C:\Users\CYMR90~1\AppData\Local\Temp\ccyjM0JL.s:28214  .debug_str:0000000000020882 .LASF4167
C:\Users\CYMR90~1\AppData\Local\Temp\ccyjM0JL.s:30594  .debug_str:0000000000029ef9 .LASF4168
C:\Users\CYMR90~1\AppData\Local\Temp\ccyjM0JL.s:30908  .debug_str:000000000002b1b4 .LASF4169
C:\Users\CYMR90~1\AppData\Local\Temp\ccyjM0JL.s:23879  .debug_str:000000000000f3e5 .LASF4170
C:\Users\CYMR90~1\AppData\Local\Temp\ccyjM0JL.s:31320  .debug_str:000000000002cc94 .LASF4171
C:\Users\CYMR90~1\AppData\Local\Temp\ccyjM0JL.s:29770  .debug_str:0000000000026a50 .LASF4172
C:\Users\CYMR90~1\AppData\Local\Temp\ccyjM0JL.s:28308  .debug_str:0000000000020de8 .LASF4173
C:\Users\CYMR90~1\AppData\Local\Temp\ccyjM0JL.s:26288  .debug_str:0000000000018d54 .LASF4174
C:\Users\CYMR90~1\AppData\Local\Temp\ccyjM0JL.s:30350  .debug_str:000000000002904d .LASF4175
C:\Users\CYMR90~1\AppData\Local\Temp\ccyjM0JL.s:29240  .debug_str:00000000000246e9 .LASF4176
C:\Users\CYMR90~1\AppData\Local\Temp\ccyjM0JL.s:26856  .debug_str:000000000001b3ea .LASF4177
C:\Users\CYMR90~1\AppData\Local\Temp\ccyjM0JL.s:30834  .debug_str:000000000002ad4d .LASF4178
C:\Users\CYMR90~1\AppData\Local\Temp\ccyjM0JL.s:23387  .debug_str:000000000000d661 .LASF4179
C:\Users\CYMR90~1\AppData\Local\Temp\ccyjM0JL.s:29772  .debug_str:0000000000026a76 .LASF4180
C:\Users\CYMR90~1\AppData\Local\Temp\ccyjM0JL.s:25761  .debug_str:0000000000016b00 .LASF4181
C:\Users\CYMR90~1\AppData\Local\Temp\ccyjM0JL.s:22257  .debug_str:0000000000008c9a .LASF4182
C:\Users\CYMR90~1\AppData\Local\Temp\ccyjM0JL.s:26212  .debug_str:00000000000187d1 .LASF4183
C:\Users\CYMR90~1\AppData\Local\Temp\ccyjM0JL.s:24237  .debug_str:0000000000010a9d .LASF4184
C:\Users\CYMR90~1\AppData\Local\Temp\ccyjM0JL.s:22831  .debug_str:000000000000b1d9 .LASF4185
C:\Users\CYMR90~1\AppData\Local\Temp\ccyjM0JL.s:26248  .debug_str:0000000000018a3c .LASF4186
C:\Users\CYMR90~1\AppData\Local\Temp\ccyjM0JL.s:26462  .debug_str:000000000001990a .LASF4187
C:\Users\CYMR90~1\AppData\Local\Temp\ccyjM0JL.s:27194  .debug_str:000000000001c829 .LASF4188
C:\Users\CYMR90~1\AppData\Local\Temp\ccyjM0JL.s:21875  .debug_str:0000000000007337 .LASF4189
C:\Users\CYMR90~1\AppData\Local\Temp\ccyjM0JL.s:31264  .debug_str:000000000002c908 .LASF4190
C:\Users\CYMR90~1\AppData\Local\Temp\ccyjM0JL.s:28266  .debug_str:0000000000020b6e .LASF4191
C:\Users\CYMR90~1\AppData\Local\Temp\ccyjM0JL.s:21819  .debug_str:0000000000006f6a .LASF4192
C:\Users\CYMR90~1\AppData\Local\Temp\ccyjM0JL.s:30220  .debug_str:000000000002880c .LASF4193
C:\Users\CYMR90~1\AppData\Local\Temp\ccyjM0JL.s:22761  .debug_str:000000000000ac95 .LASF4194
C:\Users\CYMR90~1\AppData\Local\Temp\ccyjM0JL.s:27576  .debug_str:000000000001e19f .LASF4195
C:\Users\CYMR90~1\AppData\Local\Temp\ccyjM0JL.s:22195  .debug_str:0000000000008890 .LASF4196
C:\Users\CYMR90~1\AppData\Local\Temp\ccyjM0JL.s:23261  .debug_str:000000000000ce17 .LASF4197
C:\Users\CYMR90~1\AppData\Local\Temp\ccyjM0JL.s:27192  .debug_str:000000000001c803 .LASF4198
C:\Users\CYMR90~1\AppData\Local\Temp\ccyjM0JL.s:31200  .debug_str:000000000002c488 .LASF4199
C:\Users\CYMR90~1\AppData\Local\Temp\ccyjM0JL.s:23819  .debug_str:000000000000f028 .LASF4200
C:\Users\CYMR90~1\AppData\Local\Temp\ccyjM0JL.s:27982  .debug_str:000000000001fa01 .LASF4201
C:\Users\CYMR90~1\AppData\Local\Temp\ccyjM0JL.s:28626  .debug_str:000000000002218b .LASF4202
C:\Users\CYMR90~1\AppData\Local\Temp\ccyjM0JL.s:31026  .debug_str:000000000002b8f9 .LASF4203
C:\Users\CYMR90~1\AppData\Local\Temp\ccyjM0JL.s:26668  .debug_str:000000000001a724 .LASF4204
C:\Users\CYMR90~1\AppData\Local\Temp\ccyjM0JL.s:29350  .debug_str:0000000000024e11 .LASF4205
C:\Users\CYMR90~1\AppData\Local\Temp\ccyjM0JL.s:26640  .debug_str:000000000001a5c6 .LASF4206
C:\Users\CYMR90~1\AppData\Local\Temp\ccyjM0JL.s:27118  .debug_str:000000000001c3fc .LASF4207
C:\Users\CYMR90~1\AppData\Local\Temp\ccyjM0JL.s:20169  .debug_str:0000000000000825 .LASF4208
C:\Users\CYMR90~1\AppData\Local\Temp\ccyjM0JL.s:23185  .debug_str:000000000000c8a4 .LASF4209
C:\Users\CYMR90~1\AppData\Local\Temp\ccyjM0JL.s:23359  .debug_str:000000000000d45a .LASF4210
C:\Users\CYMR90~1\AppData\Local\Temp\ccyjM0JL.s:21495  .debug_str:0000000000005c06 .LASF4211
C:\Users\CYMR90~1\AppData\Local\Temp\ccyjM0JL.s:22631  .debug_str:000000000000a3a3 .LASF4212
C:\Users\CYMR90~1\AppData\Local\Temp\ccyjM0JL.s:26586  .debug_str:000000000001a0f5 .LASF4213
C:\Users\CYMR90~1\AppData\Local\Temp\ccyjM0JL.s:30562  .debug_str:0000000000029d2a .LASF4214
C:\Users\CYMR90~1\AppData\Local\Temp\ccyjM0JL.s:23115  .debug_str:000000000000c450 .LASF4215
C:\Users\CYMR90~1\AppData\Local\Temp\ccyjM0JL.s:27058  .debug_str:000000000001c048 .LASF4216
C:\Users\CYMR90~1\AppData\Local\Temp\ccyjM0JL.s:27302  .debug_str:000000000001d034 .LASF4217
C:\Users\CYMR90~1\AppData\Local\Temp\ccyjM0JL.s:26730  .debug_str:000000000001ab91 .LASF4218
C:\Users\CYMR90~1\AppData\Local\Temp\ccyjM0JL.s:27602  .debug_str:000000000001e338 .LASF4219
C:\Users\CYMR90~1\AppData\Local\Temp\ccyjM0JL.s:31266  .debug_str:000000000002c92e .LASF4220
C:\Users\CYMR90~1\AppData\Local\Temp\ccyjM0JL.s:22717  .debug_str:000000000000a9f5 .LASF4221
C:\Users\CYMR90~1\AppData\Local\Temp\ccyjM0JL.s:21167  .debug_str:0000000000004744 .LASF4222
C:\Users\CYMR90~1\AppData\Local\Temp\ccyjM0JL.s:25233  .debug_str:0000000000014acb .LASF4223
C:\Users\CYMR90~1\AppData\Local\Temp\ccyjM0JL.s:29216  .debug_str:000000000002452c .LASF4224
C:\Users\CYMR90~1\AppData\Local\Temp\ccyjM0JL.s:21743  .debug_str:0000000000006ab1 .LASF4225
C:\Users\CYMR90~1\AppData\Local\Temp\ccyjM0JL.s:20271  .debug_str:0000000000000e4b .LASF4226
C:\Users\CYMR90~1\AppData\Local\Temp\ccyjM0JL.s:31108  .debug_str:000000000002be4c .LASF4227
C:\Users\CYMR90~1\AppData\Local\Temp\ccyjM0JL.s:21727  .debug_str:00000000000069aa .LASF4228
C:\Users\CYMR90~1\AppData\Local\Temp\ccyjM0JL.s:26206  .debug_str:0000000000018785 .LASF4229
C:\Users\CYMR90~1\AppData\Local\Temp\ccyjM0JL.s:30282  .debug_str:0000000000028c6e .LASF4230
C:\Users\CYMR90~1\AppData\Local\Temp\ccyjM0JL.s:29612  .debug_str:000000000002604e .LASF4231
C:\Users\CYMR90~1\AppData\Local\Temp\ccyjM0JL.s:25169  .debug_str:00000000000146a6 .LASF4232
C:\Users\CYMR90~1\AppData\Local\Temp\ccyjM0JL.s:29302  .debug_str:0000000000024ac1 .LASF4233
C:\Users\CYMR90~1\AppData\Local\Temp\ccyjM0JL.s:29906  .debug_str:00000000000272bf .LASF4234
C:\Users\CYMR90~1\AppData\Local\Temp\ccyjM0JL.s:27398  .debug_str:000000000001d6a7 .LASF4235
C:\Users\CYMR90~1\AppData\Local\Temp\ccyjM0JL.s:28142  .debug_str:000000000002039c .LASF4236
C:\Users\CYMR90~1\AppData\Local\Temp\ccyjM0JL.s:24219  .debug_str:0000000000010992 .LASF4237
C:\Users\CYMR90~1\AppData\Local\Temp\ccyjM0JL.s:27840  .debug_str:000000000001f18e .LASF4238
C:\Users\CYMR90~1\AppData\Local\Temp\ccyjM0JL.s:23519  .debug_str:000000000000de1d .LASF4239
C:\Users\CYMR90~1\AppData\Local\Temp\ccyjM0JL.s:22071  .debug_str:000000000000805e .LASF4240
C:\Users\CYMR90~1\AppData\Local\Temp\ccyjM0JL.s:29498  .debug_str:00000000000258b1 .LASF4241
C:\Users\CYMR90~1\AppData\Local\Temp\ccyjM0JL.s:31126  .debug_str:000000000002bf6b .LASF4242
C:\Users\CYMR90~1\AppData\Local\Temp\ccyjM0JL.s:22427  .debug_str:00000000000096e9 .LASF4243
C:\Users\CYMR90~1\AppData\Local\Temp\ccyjM0JL.s:25571  .debug_str:0000000000015e97 .LASF4244
C:\Users\CYMR90~1\AppData\Local\Temp\ccyjM0JL.s:29560  .debug_str:0000000000025d69 .LASF4245
C:\Users\CYMR90~1\AppData\Local\Temp\ccyjM0JL.s:24647  .debug_str:0000000000012597 .LASF4246
C:\Users\CYMR90~1\AppData\Local\Temp\ccyjM0JL.s:24693  .debug_str:00000000000128a8 .LASF4247
C:\Users\CYMR90~1\AppData\Local\Temp\ccyjM0JL.s:23291  .debug_str:000000000000cfb3 .LASF4248
C:\Users\CYMR90~1\AppData\Local\Temp\ccyjM0JL.s:22689  .debug_str:000000000000a734 .LASF4249
C:\Users\CYMR90~1\AppData\Local\Temp\ccyjM0JL.s:29300  .debug_str:0000000000024a9b .LASF4250
C:\Users\CYMR90~1\AppData\Local\Temp\ccyjM0JL.s:23703  .debug_str:000000000000e9ba .LASF4251
C:\Users\CYMR90~1\AppData\Local\Temp\ccyjM0JL.s:21537  .debug_str:0000000000005e39 .LASF4252
C:\Users\CYMR90~1\AppData\Local\Temp\ccyjM0JL.s:27870  .debug_str:000000000001f362 .LASF4253
C:\Users\CYMR90~1\AppData\Local\Temp\ccyjM0JL.s:29494  .debug_str:000000000002585f .LASF4254
C:\Users\CYMR90~1\AppData\Local\Temp\ccyjM0JL.s:29280  .debug_str:0000000000024957 .LASF4255
C:\Users\CYMR90~1\AppData\Local\Temp\ccyjM0JL.s:21089  .debug_str:000000000000426c .LASF4256
C:\Users\CYMR90~1\AppData\Local\Temp\ccyjM0JL.s:26824  .debug_str:000000000001b1aa .LASF4257
C:\Users\CYMR90~1\AppData\Local\Temp\ccyjM0JL.s:24303  .debug_str:0000000000010f3d .LASF4258
C:\Users\CYMR90~1\AppData\Local\Temp\ccyjM0JL.s:26578  .debug_str:000000000001a07e .LASF4259
C:\Users\CYMR90~1\AppData\Local\Temp\ccyjM0JL.s:30556  .debug_str:0000000000029cc0 .LASF4260
C:\Users\CYMR90~1\AppData\Local\Temp\ccyjM0JL.s:29888  .debug_str:000000000002718d .LASF4261
C:\Users\CYMR90~1\AppData\Local\Temp\ccyjM0JL.s:25447  .debug_str:0000000000015714 .LASF4262
C:\Users\CYMR90~1\AppData\Local\Temp\ccyjM0JL.s:31210  .debug_str:000000000002c555 .LASF4263
C:\Users\CYMR90~1\AppData\Local\Temp\ccyjM0JL.s:21969  .debug_str:000000000000792e .LASF4264
C:\Users\CYMR90~1\AppData\Local\Temp\ccyjM0JL.s:29438  .debug_str:00000000000253e0 .LASF4265
C:\Users\CYMR90~1\AppData\Local\Temp\ccyjM0JL.s:31442  .debug_str:000000000002d46c .LASF4266
C:\Users\CYMR90~1\AppData\Local\Temp\ccyjM0JL.s:21263  .debug_str:0000000000004deb .LASF4267
C:\Users\CYMR90~1\AppData\Local\Temp\ccyjM0JL.s:26518  .debug_str:0000000000019cf9 .LASF4268
C:\Users\CYMR90~1\AppData\Local\Temp\ccyjM0JL.s:21489  .debug_str:0000000000005b72 .LASF4269
C:\Users\CYMR90~1\AppData\Local\Temp\ccyjM0JL.s:23041  .debug_str:000000000000bfd7 .LASF4270
C:\Users\CYMR90~1\AppData\Local\Temp\ccyjM0JL.s:24369  .debug_str:00000000000112ed .LASF4271
C:\Users\CYMR90~1\AppData\Local\Temp\ccyjM0JL.s:22527  .debug_str:0000000000009d3a .LASF4272
C:\Users\CYMR90~1\AppData\Local\Temp\ccyjM0JL.s:29654  .debug_str:0000000000026336 .LASF4273
C:\Users\CYMR90~1\AppData\Local\Temp\ccyjM0JL.s:25954  .debug_str:0000000000017864 .LASF4274
C:\Users\CYMR90~1\AppData\Local\Temp\ccyjM0JL.s:26924  .debug_str:000000000001b7df .LASF4275
C:\Users\CYMR90~1\AppData\Local\Temp\ccyjM0JL.s:27182  .debug_str:000000000001c76b .LASF4276
C:\Users\CYMR90~1\AppData\Local\Temp\ccyjM0JL.s:26458  .debug_str:00000000000198bf .LASF4277
C:\Users\CYMR90~1\AppData\Local\Temp\ccyjM0JL.s:30434  .debug_str:000000000002957c .LASF4278
C:\Users\CYMR90~1\AppData\Local\Temp\ccyjM0JL.s:20471  .debug_str:0000000000001b40 .LASF4279
C:\Users\CYMR90~1\AppData\Local\Temp\ccyjM0JL.s:30170  .debug_str:0000000000028469 .LASF4280
C:\Users\CYMR90~1\AppData\Local\Temp\ccyjM0JL.s:23991  .debug_str:000000000000fb13 .LASF4281
C:\Users\CYMR90~1\AppData\Local\Temp\ccyjM0JL.s:20413  .debug_str:0000000000001721 .LASF4282
C:\Users\CYMR90~1\AppData\Local\Temp\ccyjM0JL.s:25892  .debug_str:00000000000174fb .LASF4283
C:\Users\CYMR90~1\AppData\Local\Temp\ccyjM0JL.s:29880  .debug_str:0000000000027115 .LASF4284
C:\Users\CYMR90~1\AppData\Local\Temp\ccyjM0JL.s:28362  .debug_str:00000000000210fc .LASF4285
C:\Users\CYMR90~1\AppData\Local\Temp\ccyjM0JL.s:26390  .debug_str:0000000000019450 .LASF4286
C:\Users\CYMR90~1\AppData\Local\Temp\ccyjM0JL.s:21649  .debug_str:00000000000064f0 .LASF4287
C:\Users\CYMR90~1\AppData\Local\Temp\ccyjM0JL.s:22909  .debug_str:000000000000b6d4 .LASF4288
C:\Users\CYMR90~1\AppData\Local\Temp\ccyjM0JL.s:26382  .debug_str:00000000000193e4 .LASF4289
C:\Users\CYMR90~1\AppData\Local\Temp\ccyjM0JL.s:24539  .debug_str:0000000000011e15 .LASF4290
C:\Users\CYMR90~1\AppData\Local\Temp\ccyjM0JL.s:21567  .debug_str:0000000000005fcd .LASF4291
C:\Users\CYMR90~1\AppData\Local\Temp\ccyjM0JL.s:25832  .debug_str:000000000001718d .LASF4292
C:\Users\CYMR90~1\AppData\Local\Temp\ccyjM0JL.s:29810  .debug_str:0000000000026cc4 .LASF4293
C:\Users\CYMR90~1\AppData\Local\Temp\ccyjM0JL.s:22361  .debug_str:00000000000092c0 .LASF4294
C:\Users\CYMR90~1\AppData\Local\Temp\ccyjM0JL.s:20435  .debug_str:0000000000001913 .LASF4295
C:\Users\CYMR90~1\AppData\Local\Temp\ccyjM0JL.s:26496  .debug_str:0000000000019b91 .LASF4296
C:\Users\CYMR90~1\AppData\Local\Temp\ccyjM0JL.s:27538  .debug_str:000000000001df36 .LASF4297
C:\Users\CYMR90~1\AppData\Local\Temp\ccyjM0JL.s:26814  .debug_str:000000000001b111 .LASF4298
C:\Users\CYMR90~1\AppData\Local\Temp\ccyjM0JL.s:30782  .debug_str:000000000002aa47 .LASF4299
C:\Users\CYMR90~1\AppData\Local\Temp\ccyjM0JL.s:23425  .debug_str:000000000000d8ea .LASF4300
C:\Users\CYMR90~1\AppData\Local\Temp\ccyjM0JL.s:20441  .debug_str:0000000000001979 .LASF4301
C:\Users\CYMR90~1\AppData\Local\Temp\ccyjM0JL.s:29744  .debug_str:000000000002688e .LASF4302
C:\Users\CYMR90~1\AppData\Local\Temp\ccyjM0JL.s:24063  .debug_str:000000000000ffb7 .LASF4303
C:\Users\CYMR90~1\AppData\Local\Temp\ccyjM0JL.s:26560  .debug_str:0000000000019f67 .LASF4304
C:\Users\CYMR90~1\AppData\Local\Temp\ccyjM0JL.s:28764  .debug_str:0000000000022976 .LASF4305
C:\Users\CYMR90~1\AppData\Local\Temp\ccyjM0JL.s:31154  .debug_str:000000000002c13b .LASF4306
C:\Users\CYMR90~1\AppData\Local\Temp\ccyjM0JL.s:26756  .debug_str:000000000001ad0a .LASF4307
C:\Users\CYMR90~1\AppData\Local\Temp\ccyjM0JL.s:30718  .debug_str:000000000002a60c .LASF4308
C:\Users\CYMR90~1\AppData\Local\Temp\ccyjM0JL.s:27618  .debug_str:000000000001e404 .LASF4309
C:\Users\CYMR90~1\AppData\Local\Temp\ccyjM0JL.s:24007  .debug_str:000000000000fc09 .LASF4310
C:\Users\CYMR90~1\AppData\Local\Temp\ccyjM0JL.s:24353  .debug_str:0000000000011208 .LASF4311
C:\Users\CYMR90~1\AppData\Local\Temp\ccyjM0JL.s:22227  .debug_str:0000000000008ac3 .LASF4312
C:\Users\CYMR90~1\AppData\Local\Temp\ccyjM0JL.s:22305  .debug_str:0000000000008fa5 .LASF4313
C:\Users\CYMR90~1\AppData\Local\Temp\ccyjM0JL.s:27332  .debug_str:000000000001d299 .LASF4314
C:\Users\CYMR90~1\AppData\Local\Temp\ccyjM0JL.s:24331  .debug_str:00000000000110b0 .LASF4315
C:\Users\CYMR90~1\AppData\Local\Temp\ccyjM0JL.s:26682  .debug_str:000000000001a826 .LASF4316
C:\Users\CYMR90~1\AppData\Local\Temp\ccyjM0JL.s:25049  .debug_str:0000000000013f51 .LASF4317
C:\Users\CYMR90~1\AppData\Local\Temp\ccyjM0JL.s:27662  .debug_str:000000000001e6b0 .LASF4318
C:\Users\CYMR90~1\AppData\Local\Temp\ccyjM0JL.s:24545  .debug_str:0000000000011e6c .LASF4319
C:\Users\CYMR90~1\AppData\Local\Temp\ccyjM0JL.s:24485  .debug_str:0000000000011a8b .LASF4320
C:\Users\CYMR90~1\AppData\Local\Temp\ccyjM0JL.s:22759  .debug_str:000000000000ac6f .LASF4321
C:\Users\CYMR90~1\AppData\Local\Temp\ccyjM0JL.s:20873  .debug_str:0000000000003402 .LASF4322
C:\Users\CYMR90~1\AppData\Local\Temp\ccyjM0JL.s:24851  .debug_str:00000000000132fa .LASF4323
C:\Users\CYMR90~1\AppData\Local\Temp\ccyjM0JL.s:28464  .debug_str:000000000002179d .LASF4324
C:\Users\CYMR90~1\AppData\Local\Temp\ccyjM0JL.s:21331  .debug_str:000000000000521c .LASF4325
C:\Users\CYMR90~1\AppData\Local\Temp\ccyjM0JL.s:25313  .debug_str:0000000000014f80 .LASF4326
C:\Users\CYMR90~1\AppData\Local\Temp\ccyjM0JL.s:29290  .debug_str:00000000000249ff .LASF4327
C:\Users\CYMR90~1\AppData\Local\Temp\ccyjM0JL.s:21821  .debug_str:0000000000006f90 .LASF4328
C:\Users\CYMR90~1\AppData\Local\Temp\ccyjM0JL.s:21105  .debug_str:000000000000435c .LASF4329
C:\Users\CYMR90~1\AppData\Local\Temp\ccyjM0JL.s:29872  .debug_str:000000000002707a .LASF4330
C:\Users\CYMR90~1\AppData\Local\Temp\ccyjM0JL.s:28062  .debug_str:000000000001fec8 .LASF4331
C:\Users\CYMR90~1\AppData\Local\Temp\ccyjM0JL.s:24799  .debug_str:0000000000012fa9 .LASF4332
C:\Users\CYMR90~1\AppData\Local\Temp\ccyjM0JL.s:28754  .debug_str:00000000000228bb .LASF4333
C:\Users\CYMR90~1\AppData\Local\Temp\ccyjM0JL.s:24633  .debug_str:00000000000124a0 .LASF4334
C:\Users\CYMR90~1\AppData\Local\Temp\ccyjM0JL.s:25357  .debug_str:000000000001522c .LASF4335
C:\Users\CYMR90~1\AppData\Local\Temp\ccyjM0JL.s:31318  .debug_str:000000000002cc6e .LASF4336
C:\Users\CYMR90~1\AppData\Local\Temp\ccyjM0JL.s:30032  .debug_str:0000000000027ae0 .LASF4337
C:\Users\CYMR90~1\AppData\Local\Temp\ccyjM0JL.s:25727  .debug_str:00000000000168a0 .LASF4338
C:\Users\CYMR90~1\AppData\Local\Temp\ccyjM0JL.s:24211  .debug_str:0000000000010915 .LASF4339
C:\Users\CYMR90~1\AppData\Local\Temp\ccyjM0JL.s:22353  .debug_str:0000000000009251 .LASF4340
C:\Users\CYMR90~1\AppData\Local\Temp\ccyjM0JL.s:30832  .debug_str:000000000002ad27 .LASF4341
C:\Users\CYMR90~1\AppData\Local\Temp\ccyjM0JL.s:28680  .debug_str:00000000000224ba .LASF4342
C:\Users\CYMR90~1\AppData\Local\Temp\ccyjM0JL.s:25611  .debug_str:0000000000016172 .LASF4343
C:\Users\CYMR90~1\AppData\Local\Temp\ccyjM0JL.s:28864  .debug_str:0000000000022fd9 .LASF4344
C:\Users\CYMR90~1\AppData\Local\Temp\ccyjM0JL.s:23913  .debug_str:000000000000f5ed .LASF4345
C:\Users\CYMR90~1\AppData\Local\Temp\ccyjM0JL.s:21687  .debug_str:00000000000066f5 .LASF4346
C:\Users\CYMR90~1\AppData\Local\Temp\ccyjM0JL.s:25657  .debug_str:0000000000016431 .LASF4347
C:\Users\CYMR90~1\AppData\Local\Temp\ccyjM0JL.s:27714  .debug_str:000000000001e9fa .LASF4348
C:\Users\CYMR90~1\AppData\Local\Temp\ccyjM0JL.s:22293  .debug_str:0000000000008f11 .LASF4349
C:\Users\CYMR90~1\AppData\Local\Temp\ccyjM0JL.s:26244  .debug_str:00000000000189dc .LASF4350
C:\Users\CYMR90~1\AppData\Local\Temp\ccyjM0JL.s:23321  .debug_str:000000000000d1ba .LASF4351
C:\Users\CYMR90~1\AppData\Local\Temp\ccyjM0JL.s:21141  .debug_str:000000000000458d .LASF4352
C:\Users\CYMR90~1\AppData\Local\Temp\ccyjM0JL.s:25113  .debug_str:000000000001438a .LASF4353
C:\Users\CYMR90~1\AppData\Local\Temp\ccyjM0JL.s:23273  .debug_str:000000000000cead .LASF4354
C:\Users\CYMR90~1\AppData\Local\Temp\ccyjM0JL.s:21621  .debug_str:000000000000632f .LASF4355
C:\Users\CYMR90~1\AppData\Local\Temp\ccyjM0JL.s:20751  .debug_str:0000000000002c6d .LASF4356
C:\Users\CYMR90~1\AppData\Local\Temp\ccyjM0JL.s:31324  .debug_str:000000000002ccde .LASF4357
C:\Users\CYMR90~1\AppData\Local\Temp\ccyjM0JL.s:22241  .debug_str:0000000000008b98 .LASF4358
C:\Users\CYMR90~1\AppData\Local\Temp\ccyjM0JL.s:26170  .debug_str:0000000000018570 .LASF4359
C:\Users\CYMR90~1\AppData\Local\Temp\ccyjM0JL.s:20509  .debug_str:0000000000001d9c .LASF4360
C:\Users\CYMR90~1\AppData\Local\Temp\ccyjM0JL.s:20291  .debug_str:0000000000001016 .LASF4361
C:\Users\CYMR90~1\AppData\Local\Temp\ccyjM0JL.s:25045  .debug_str:0000000000013f0e .LASF4362
C:\Users\CYMR90~1\AppData\Local\Temp\ccyjM0JL.s:29036  .debug_str:00000000000239b4 .LASF4363
C:\Users\CYMR90~1\AppData\Local\Temp\ccyjM0JL.s:25457  .debug_str:00000000000157c6 .LASF4364
C:\Users\CYMR90~1\AppData\Local\Temp\ccyjM0JL.s:30212  .debug_str:0000000000028786 .LASF4365
C:\Users\CYMR90~1\AppData\Local\Temp\ccyjM0JL.s:23441  .debug_str:000000000000d9c7 .LASF4366
C:\Users\CYMR90~1\AppData\Local\Temp\ccyjM0JL.s:22147  .debug_str:00000000000085de .LASF4367
C:\Users\CYMR90~1\AppData\Local\Temp\ccyjM0JL.s:28110  .debug_str:00000000000201ee .LASF4368
C:\Users\CYMR90~1\AppData\Local\Temp\ccyjM0JL.s:30092  .debug_str:0000000000027ede .LASF4369
C:\Users\CYMR90~1\AppData\Local\Temp\ccyjM0JL.s:22637  .debug_str:000000000000a40c .LASF4370
C:\Users\CYMR90~1\AppData\Local\Temp\ccyjM0JL.s:31136  .debug_str:000000000002bff5 .LASF4371
C:\Users\CYMR90~1\AppData\Local\Temp\ccyjM0JL.s:23427  .debug_str:000000000000d910 .LASF4372
C:\Users\CYMR90~1\AppData\Local\Temp\ccyjM0JL.s:21485  .debug_str:0000000000005b1a .LASF4373
C:\Users\CYMR90~1\AppData\Local\Temp\ccyjM0JL.s:24613  .debug_str:000000000001238f .LASF4374
C:\Users\CYMR90~1\AppData\Local\Temp\ccyjM0JL.s:25505  .debug_str:0000000000015a94 .LASF4375
C:\Users\CYMR90~1\AppData\Local\Temp\ccyjM0JL.s:22083  .debug_str:00000000000081af .LASF4376
C:\Users\CYMR90~1\AppData\Local\Temp\ccyjM0JL.s:25695  .debug_str:00000000000166b1 .LASF4377
C:\Users\CYMR90~1\AppData\Local\Temp\ccyjM0JL.s:22623  .debug_str:000000000000a31c .LASF4378
C:\Users\CYMR90~1\AppData\Local\Temp\ccyjM0JL.s:20733  .debug_str:0000000000002b2b .LASF4379
C:\Users\CYMR90~1\AppData\Local\Temp\ccyjM0JL.s:28084  .debug_str:0000000000020078 .LASF4380
C:\Users\CYMR90~1\AppData\Local\Temp\ccyjM0JL.s:22829  .debug_str:000000000000b1b3 .LASF4381
C:\Users\CYMR90~1\AppData\Local\Temp\ccyjM0JL.s:21417  .debug_str:0000000000005725 .LASF4382
C:\Users\CYMR90~1\AppData\Local\Temp\ccyjM0JL.s:22035  .debug_str:0000000000007d81 .LASF4383
C:\Users\CYMR90~1\AppData\Local\Temp\ccyjM0JL.s:30520  .debug_str:0000000000029adb .LASF4384
C:\Users\CYMR90~1\AppData\Local\Temp\ccyjM0JL.s:22007  .debug_str:0000000000007bd3 .LASF4385
C:\Users\CYMR90~1\AppData\Local\Temp\ccyjM0JL.s:21583  .debug_str:00000000000060c0 .LASF4386
C:\Users\CYMR90~1\AppData\Local\Temp\ccyjM0JL.s:22369  .debug_str:0000000000009346 .LASF4387
C:\Users\CYMR90~1\AppData\Local\Temp\ccyjM0JL.s:29112  .debug_str:0000000000023e22 .LASF4388
C:\Users\CYMR90~1\AppData\Local\Temp\ccyjM0JL.s:21193  .debug_str:000000000000491c .LASF4389
C:\Users\CYMR90~1\AppData\Local\Temp\ccyjM0JL.s:21779  .debug_str:0000000000006cb2 .LASF4390
C:\Users\CYMR90~1\AppData\Local\Temp\ccyjM0JL.s:31008  .debug_str:000000000002b7c1 .LASF4391
C:\Users\CYMR90~1\AppData\Local\Temp\ccyjM0JL.s:21361  .debug_str:00000000000053e5 .LASF4392
C:\Users\CYMR90~1\AppData\Local\Temp\ccyjM0JL.s:22645  .debug_str:000000000000a4bc .LASF4393
C:\Users\CYMR90~1\AppData\Local\Temp\ccyjM0JL.s:21943  .debug_str:000000000000777e .LASF4394
C:\Users\CYMR90~1\AppData\Local\Temp\ccyjM0JL.s:27338  .debug_str:000000000001d2fe .LASF4395
C:\Users\CYMR90~1\AppData\Local\Temp\ccyjM0JL.s:29702  .debug_str:00000000000265fb .LASF4396
C:\Users\CYMR90~1\AppData\Local\Temp\ccyjM0JL.s:26674  .debug_str:000000000001a796 .LASF4397
C:\Users\CYMR90~1\AppData\Local\Temp\ccyjM0JL.s:23001  .debug_str:000000000000bcac .LASF4398
C:\Users\CYMR90~1\AppData\Local\Temp\ccyjM0JL.s:30466  .debug_str:000000000002973c .LASF4399
C:\Users\CYMR90~1\AppData\Local\Temp\ccyjM0JL.s:22767  .debug_str:000000000000ad0d .LASF4400
C:\Users\CYMR90~1\AppData\Local\Temp\ccyjM0JL.s:24595  .debug_str:000000000001223a .LASF4401
C:\Users\CYMR90~1\AppData\Local\Temp\ccyjM0JL.s:29340  .debug_str:0000000000024d5b .LASF4402
C:\Users\CYMR90~1\AppData\Local\Temp\ccyjM0JL.s:28524  .debug_str:0000000000021b57 .LASF4403
C:\Users\CYMR90~1\AppData\Local\Temp\ccyjM0JL.s:25848  .debug_str:0000000000017267 .LASF4404
C:\Users\CYMR90~1\AppData\Local\Temp\ccyjM0JL.s:29826  .debug_str:0000000000026dcf .LASF4405
C:\Users\CYMR90~1\AppData\Local\Temp\ccyjM0JL.s:25980  .debug_str:0000000000017a23 .LASF4406
C:\Users\CYMR90~1\AppData\Local\Temp\ccyjM0JL.s:26758  .debug_str:000000000001ad30 .LASF4407
C:\Users\CYMR90~1\AppData\Local\Temp\ccyjM0JL.s:29784  .debug_str:0000000000026b43 .LASF4408
C:\Users\CYMR90~1\AppData\Local\Temp\ccyjM0JL.s:29918  .debug_str:000000000002736f .LASF4409
C:\Users\CYMR90~1\AppData\Local\Temp\ccyjM0JL.s:26902  .debug_str:000000000001b69b .LASF4410
C:\Users\CYMR90~1\AppData\Local\Temp\ccyjM0JL.s:28970  .debug_str:00000000000235b4 .LASF4411
C:\Users\CYMR90~1\AppData\Local\Temp\ccyjM0JL.s:21797  .debug_str:0000000000006dfe .LASF4412
C:\Users\CYMR90~1\AppData\Local\Temp\ccyjM0JL.s:25775  .debug_str:0000000000016c6d .LASF4413
C:\Users\CYMR90~1\AppData\Local\Temp\ccyjM0JL.s:29758  .debug_str:000000000002695b .LASF4414
C:\Users\CYMR90~1\AppData\Local\Temp\ccyjM0JL.s:21131  .debug_str:00000000000044e5 .LASF4415
C:\Users\CYMR90~1\AppData\Local\Temp\ccyjM0JL.s:26290  .debug_str:0000000000018d7a .LASF4416
C:\Users\CYMR90~1\AppData\Local\Temp\ccyjM0JL.s:24911  .debug_str:0000000000013742 .LASF4417
C:\Users\CYMR90~1\AppData\Local\Temp\ccyjM0JL.s:27040  .debug_str:000000000001befc .LASF4418
C:\Users\CYMR90~1\AppData\Local\Temp\ccyjM0JL.s:26846  .debug_str:000000000001b348 .LASF4419
C:\Users\CYMR90~1\AppData\Local\Temp\ccyjM0JL.s:25283  .debug_str:0000000000014d70 .LASF4420
C:\Users\CYMR90~1\AppData\Local\Temp\ccyjM0JL.s:21133  .debug_str:000000000000450b .LASF4421
C:\Users\CYMR90~1\AppData\Local\Temp\ccyjM0JL.s:29726  .debug_str:000000000002675d .LASF4422
C:\Users\CYMR90~1\AppData\Local\Temp\ccyjM0JL.s:24445  .debug_str:00000000000117ab .LASF4423
C:\Users\CYMR90~1\AppData\Local\Temp\ccyjM0JL.s:28404  .debug_str:0000000000021363 .LASF4424
C:\Users\CYMR90~1\AppData\Local\Temp\ccyjM0JL.s:20949  .debug_str:00000000000038fe .LASF4425
C:\Users\CYMR90~1\AppData\Local\Temp\ccyjM0JL.s:26260  .debug_str:0000000000018ae1 .LASF4426
C:\Users\CYMR90~1\AppData\Local\Temp\ccyjM0JL.s:28310  .debug_str:0000000000020e0e .LASF4427
C:\Users\CYMR90~1\AppData\Local\Temp\ccyjM0JL.s:27160  .debug_str:000000000001c630 .LASF4428
C:\Users\CYMR90~1\AppData\Local\Temp\ccyjM0JL.s:26310  .debug_str:0000000000018ecf .LASF4429
C:\Users\CYMR90~1\AppData\Local\Temp\ccyjM0JL.s:27882  .debug_str:000000000001f416 .LASF4430
C:\Users\CYMR90~1\AppData\Local\Temp\ccyjM0JL.s:21129  .debug_str:00000000000044bf .LASF4431
C:\Users\CYMR90~1\AppData\Local\Temp\ccyjM0JL.s:24393  .debug_str:0000000000011454 .LASF4432
C:\Users\CYMR90~1\AppData\Local\Temp\ccyjM0JL.s:28334  .debug_str:0000000000020f83 .LASF4433
C:\Users\CYMR90~1\AppData\Local\Temp\ccyjM0JL.s:26272  .debug_str:0000000000018b94 .LASF4434
C:\Users\CYMR90~1\AppData\Local\Temp\ccyjM0JL.s:24963  .debug_str:0000000000013a4a .LASF4435
C:\Users\CYMR90~1\AppData\Local\Temp\ccyjM0JL.s:28858  .debug_str:0000000000022f77 .LASF4436
C:\Users\CYMR90~1\AppData\Local\Temp\ccyjM0JL.s:31418  .debug_str:000000000002d2ee .LASF4437
C:\Users\CYMR90~1\AppData\Local\Temp\ccyjM0JL.s:22743  .debug_str:000000000000ab63 .LASF4438
C:\Users\CYMR90~1\AppData\Local\Temp\ccyjM0JL.s:23423  .debug_str:000000000000d8dd .LASF4439
C:\Users\CYMR90~1\AppData\Local\Temp\ccyjM0JL.s:28992  .debug_str:00000000000236e1 .LASF4440
C:\Users\CYMR90~1\AppData\Local\Temp\ccyjM0JL.s:27512  .debug_str:000000000001ddb3 .LASF4441
C:\Users\CYMR90~1\AppData\Local\Temp\ccyjM0JL.s:20119  .debug_str:0000000000000537 .LASF4442
C:\Users\CYMR90~1\AppData\Local\Temp\ccyjM0JL.s:21185  .debug_str:0000000000004882 .LASF4443
C:\Users\CYMR90~1\AppData\Local\Temp\ccyjM0JL.s:23601  .debug_str:000000000000e354 .LASF4444
C:\Users\CYMR90~1\AppData\Local\Temp\ccyjM0JL.s:21749  .debug_str:0000000000006b0b .LASF4445
C:\Users\CYMR90~1\AppData\Local\Temp\ccyjM0JL.s:24985  .debug_str:0000000000013b9c .LASF4446
C:\Users\CYMR90~1\AppData\Local\Temp\ccyjM0JL.s:24611  .debug_str:0000000000012368 .LASF4447
C:\Users\CYMR90~1\AppData\Local\Temp\ccyjM0JL.s:20811  .debug_str:000000000000300d .LASF4448
C:\Users\CYMR90~1\AppData\Local\Temp\ccyjM0JL.s:21383  .debug_str:000000000000551d .LASF4449
C:\Users\CYMR90~1\AppData\Local\Temp\ccyjM0JL.s:20905  .debug_str:000000000000362b .LASF4450
C:\Users\CYMR90~1\AppData\Local\Temp\ccyjM0JL.s:20077  .debug_str:00000000000002b1 .LASF4451
C:\Users\CYMR90~1\AppData\Local\Temp\ccyjM0JL.s:22363  .debug_str:00000000000092e6 .LASF4452
C:\Users\CYMR90~1\AppData\Local\Temp\ccyjM0JL.s:25749  .debug_str:0000000000016a6b .LASF4453
C:\Users\CYMR90~1\AppData\Local\Temp\ccyjM0JL.s:20801  .debug_str:0000000000002f82 .LASF4454
C:\Users\CYMR90~1\AppData\Local\Temp\ccyjM0JL.s:29846  .debug_str:0000000000026ef4 .LASF4455
C:\Users\CYMR90~1\AppData\Local\Temp\ccyjM0JL.s:25615  .debug_str:00000000000161b3 .LASF4456
C:\Users\CYMR90~1\AppData\Local\Temp\ccyjM0JL.s:26284  .debug_str:0000000000018ced .LASF4457
C:\Users\CYMR90~1\AppData\Local\Temp\ccyjM0JL.s:29004  .debug_str:00000000000237b1 .LASF4458
C:\Users\CYMR90~1\AppData\Local\Temp\ccyjM0JL.s:27272  .debug_str:000000000001cdb7 .LASF4459
C:\Users\CYMR90~1\AppData\Local\Temp\ccyjM0JL.s:24815  .debug_str:00000000000130a7 .LASF4460
C:\Users\CYMR90~1\AppData\Local\Temp\ccyjM0JL.s:21963  .debug_str:00000000000078db .LASF4461
C:\Users\CYMR90~1\AppData\Local\Temp\ccyjM0JL.s:30750  .debug_str:000000000002a83d .LASF4462
C:\Users\CYMR90~1\AppData\Local\Temp\ccyjM0JL.s:27406  .debug_str:000000000001d724 .LASF4463
C:\Users\CYMR90~1\AppData\Local\Temp\ccyjM0JL.s:29608  .debug_str:0000000000026011 .LASF4464
C:\Users\CYMR90~1\AppData\Local\Temp\ccyjM0JL.s:24339  .debug_str:0000000000011137 .LASF4465
C:\Users\CYMR90~1\AppData\Local\Temp\ccyjM0JL.s:27566  .debug_str:000000000001e111 .LASF4466
C:\Users\CYMR90~1\AppData\Local\Temp\ccyjM0JL.s:22531  .debug_str:0000000000009d77 .LASF4467
C:\Users\CYMR90~1\AppData\Local\Temp\ccyjM0JL.s:26808  .debug_str:000000000001b0b8 .LASF4468
C:\Users\CYMR90~1\AppData\Local\Temp\ccyjM0JL.s:27404  .debug_str:000000000001d6ff .LASF4469
C:\Users\CYMR90~1\AppData\Local\Temp\ccyjM0JL.s:22923  .debug_str:000000000000b7ae .LASF4470
C:\Users\CYMR90~1\AppData\Local\Temp\ccyjM0JL.s:25958  .debug_str:00000000000178a2 .LASF4471
C:\Users\CYMR90~1\AppData\Local\Temp\ccyjM0JL.s:27106  .debug_str:000000000001c345 .LASF4472
C:\Users\CYMR90~1\AppData\Local\Temp\ccyjM0JL.s:24749  .debug_str:0000000000012c73 .LASF4473
C:\Users\CYMR90~1\AppData\Local\Temp\ccyjM0JL.s:28290  .debug_str:0000000000020cbe .LASF4474
C:\Users\CYMR90~1\AppData\Local\Temp\ccyjM0JL.s:22855  .debug_str:000000000000b324 .LASF4475
C:\Users\CYMR90~1\AppData\Local\Temp\ccyjM0JL.s:26780  .debug_str:000000000001ae7d .LASF4476
C:\Users\CYMR90~1\AppData\Local\Temp\ccyjM0JL.s:25455  .debug_str:00000000000157a1 .LASF4477
C:\Users\CYMR90~1\AppData\Local\Temp\ccyjM0JL.s:24797  .debug_str:0000000000012f84 .LASF4478
C:\Users\CYMR90~1\AppData\Local\Temp\ccyjM0JL.s:31134  .debug_str:000000000002bfde .LASF4479
C:\Users\CYMR90~1\AppData\Local\Temp\ccyjM0JL.s:26408  .debug_str:0000000000019581 .LASF4480
C:\Users\CYMR90~1\AppData\Local\Temp\ccyjM0JL.s:25956  .debug_str:000000000001788a .LASF4481
C:\Users\CYMR90~1\AppData\Local\Temp\ccyjM0JL.s:27430  .debug_str:000000000001d8c7 .LASF4482
C:\Users\CYMR90~1\AppData\Local\Temp\ccyjM0JL.s:29120  .debug_str:0000000000023e92 .LASF4483
C:\Users\CYMR90~1\AppData\Local\Temp\ccyjM0JL.s:21415  .debug_str:000000000000570c .LASF4484
C:\Users\CYMR90~1\AppData\Local\Temp\ccyjM0JL.s:20373  .debug_str:00000000000014dc .LASF4485
C:\Users\CYMR90~1\AppData\Local\Temp\ccyjM0JL.s:27750  .debug_str:000000000001ec1b .LASF4486
C:\Users\CYMR90~1\AppData\Local\Temp\ccyjM0JL.s:28482  .debug_str:00000000000218a8 .LASF4487
C:\Users\CYMR90~1\AppData\Local\Temp\ccyjM0JL.s:30694  .debug_str:000000000002a4d2 .LASF4488
C:\Users\CYMR90~1\AppData\Local\Temp\ccyjM0JL.s:24463  .debug_str:00000000000118b5 .LASF4489
C:\Users\CYMR90~1\AppData\Local\Temp\ccyjM0JL.s:30342  .debug_str:0000000000028fec .LASF4490
C:\Users\CYMR90~1\AppData\Local\Temp\ccyjM0JL.s:25241  .debug_str:0000000000014b38 .LASF4491
C:\Users\CYMR90~1\AppData\Local\Temp\ccyjM0JL.s:22817  .debug_str:000000000000b100 .LASF4492
C:\Users\CYMR90~1\AppData\Local\Temp\ccyjM0JL.s:28250  .debug_str:0000000000020a89 .LASF4493
C:\Users\CYMR90~1\AppData\Local\Temp\ccyjM0JL.s:28090  .debug_str:00000000000200d3 .LASF4494
C:\Users\CYMR90~1\AppData\Local\Temp\ccyjM0JL.s:25870  .debug_str:00000000000173bc .LASF4495
C:\Users\CYMR90~1\AppData\Local\Temp\ccyjM0JL.s:29084  .debug_str:0000000000023cb1 .LASF4496
C:\Users\CYMR90~1\AppData\Local\Temp\ccyjM0JL.s:29916  .debug_str:000000000002735d .LASF4497
C:\Users\CYMR90~1\AppData\Local\Temp\ccyjM0JL.s:21909  .debug_str:0000000000007564 .LASF4498
C:\Users\CYMR90~1\AppData\Local\Temp\ccyjM0JL.s:27656  .debug_str:000000000001e643 .LASF4499
C:\Users\CYMR90~1\AppData\Local\Temp\ccyjM0JL.s:23245  .debug_str:000000000000cd24 .LASF4500
C:\Users\CYMR90~1\AppData\Local\Temp\ccyjM0JL.s:25051  .debug_str:0000000000013f77 .LASF4501
C:\Users\CYMR90~1\AppData\Local\Temp\ccyjM0JL.s:27480  .debug_str:000000000001dbd7 .LASF4502
C:\Users\CYMR90~1\AppData\Local\Temp\ccyjM0JL.s:24825  .debug_str:0000000000013145 .LASF4503
C:\Users\CYMR90~1\AppData\Local\Temp\ccyjM0JL.s:28324  .debug_str:0000000000020f03 .LASF4504
C:\Users\CYMR90~1\AppData\Local\Temp\ccyjM0JL.s:23791  .debug_str:000000000000eec5 .LASF4505
C:\Users\CYMR90~1\AppData\Local\Temp\ccyjM0JL.s:27428  .debug_str:000000000001d8b2 .LASF4506
C:\Users\CYMR90~1\AppData\Local\Temp\ccyjM0JL.s:21191  .debug_str:0000000000004908 .LASF4507
C:\Users\CYMR90~1\AppData\Local\Temp\ccyjM0JL.s:28512  .debug_str:0000000000021ab5 .LASF4508
C:\Users\CYMR90~1\AppData\Local\Temp\ccyjM0JL.s:27146  .debug_str:000000000001c599 .LASF4509
C:\Users\CYMR90~1\AppData\Local\Temp\ccyjM0JL.s:22167  .debug_str:00000000000086f3 .LASF4510
C:\Users\CYMR90~1\AppData\Local\Temp\ccyjM0JL.s:26878  .debug_str:000000000001b525 .LASF4511
C:\Users\CYMR90~1\AppData\Local\Temp\ccyjM0JL.s:22019  .debug_str:0000000000007c89 .LASF4512
C:\Users\CYMR90~1\AppData\Local\Temp\ccyjM0JL.s:20133  .debug_str:0000000000000611 .LASF4513
C:\Users\CYMR90~1\AppData\Local\Temp\ccyjM0JL.s:29332  .debug_str:0000000000024cf2 .LASF4514
C:\Users\CYMR90~1\AppData\Local\Temp\ccyjM0JL.s:26190  .debug_str:0000000000018680 .LASF4515
C:\Users\CYMR90~1\AppData\Local\Temp\ccyjM0JL.s:23893  .debug_str:000000000000f4d0 .LASF4516
C:\Users\CYMR90~1\AppData\Local\Temp\ccyjM0JL.s:28930  .debug_str:000000000002336b .LASF4517
C:\Users\CYMR90~1\AppData\Local\Temp\ccyjM0JL.s:30642  .debug_str:000000000002a1cc .LASF4518
C:\Users\CYMR90~1\AppData\Local\Temp\ccyjM0JL.s:23091  .debug_str:000000000000c30c .LASF4519
C:\Users\CYMR90~1\AppData\Local\Temp\ccyjM0JL.s:21605  .debug_str:0000000000006257 .LASF4520
C:\Users\CYMR90~1\AppData\Local\Temp\ccyjM0JL.s:21241  .debug_str:0000000000004ca2 .LASF4521
C:\Users\CYMR90~1\AppData\Local\Temp\ccyjM0JL.s:26956  .debug_str:000000000001ba17 .LASF4522
C:\Users\CYMR90~1\AppData\Local\Temp\ccyjM0JL.s:23495  .debug_str:000000000000dcd8 .LASF4523
C:\Users\CYMR90~1\AppData\Local\Temp\ccyjM0JL.s:24903  .debug_str:00000000000136ac .LASF4524
C:\Users\CYMR90~1\AppData\Local\Temp\ccyjM0JL.s:22233  .debug_str:0000000000008b24 .LASF4525
C:\Users\CYMR90~1\AppData\Local\Temp\ccyjM0JL.s:25463  .debug_str:0000000000015817 .LASF4526
C:\Users\CYMR90~1\AppData\Local\Temp\ccyjM0JL.s:29468  .debug_str:0000000000025686 .LASF4527
C:\Users\CYMR90~1\AppData\Local\Temp\ccyjM0JL.s:20663  .debug_str:0000000000002659 .LASF4528
C:\Users\CYMR90~1\AppData\Local\Temp\ccyjM0JL.s:23835  .debug_str:000000000000f124 .LASF4529
C:\Users\CYMR90~1\AppData\Local\Temp\ccyjM0JL.s:20277  .debug_str:0000000000000eaf .LASF4530
C:\Users\CYMR90~1\AppData\Local\Temp\ccyjM0JL.s:24291  .debug_str:0000000000010ea5 .LASF4531
C:\Users\CYMR90~1\AppData\Local\Temp\ccyjM0JL.s:22969  .debug_str:000000000000ba97 .LASF4532
C:\Users\CYMR90~1\AppData\Local\Temp\ccyjM0JL.s:28012  .debug_str:000000000001fbd5 .LASF4533
C:\Users\CYMR90~1\AppData\Local\Temp\ccyjM0JL.s:26976  .debug_str:000000000001bb20 .LASF4534
C:\Users\CYMR90~1\AppData\Local\Temp\ccyjM0JL.s:24713  .debug_str:0000000000012a07 .LASF4535
C:\Users\CYMR90~1\AppData\Local\Temp\ccyjM0JL.s:20657  .debug_str:000000000000260c .LASF4536
C:\Users\CYMR90~1\AppData\Local\Temp\ccyjM0JL.s:27378  .debug_str:000000000001d558 .LASF4537
C:\Users\CYMR90~1\AppData\Local\Temp\ccyjM0JL.s:23219  .debug_str:000000000000cb84 .LASF4538
C:\Users\CYMR90~1\AppData\Local\Temp\ccyjM0JL.s:30808  .debug_str:000000000002abe3 .LASF4539
C:\Users\CYMR90~1\AppData\Local\Temp\ccyjM0JL.s:26642  .debug_str:000000000001a5ec .LASF4540
C:\Users\CYMR90~1\AppData\Local\Temp\ccyjM0JL.s:28898  .debug_str:00000000000231ba .LASF4541
C:\Users\CYMR90~1\AppData\Local\Temp\ccyjM0JL.s:30474  .debug_str:00000000000297c3 .LASF4542
C:\Users\CYMR90~1\AppData\Local\Temp\ccyjM0JL.s:25713  .debug_str:00000000000167c8 .LASF4543
C:\Users\CYMR90~1\AppData\Local\Temp\ccyjM0JL.s:26378  .debug_str:00000000000193b1 .LASF4544
C:\Users\CYMR90~1\AppData\Local\Temp\ccyjM0JL.s:21413  .debug_str:00000000000056f3 .LASF4545
C:\Users\CYMR90~1\AppData\Local\Temp\ccyjM0JL.s:25129  .debug_str:0000000000014488 .LASF4546
C:\Users\CYMR90~1\AppData\Local\Temp\ccyjM0JL.s:22347  .debug_str:00000000000091d4 .LASF4547
C:\Users\CYMR90~1\AppData\Local\Temp\ccyjM0JL.s:27282  .debug_str:000000000001ce66 .LASF4548
C:\Users\CYMR90~1\AppData\Local\Temp\ccyjM0JL.s:28606  .debug_str:000000000002205f .LASF4549
C:\Users\CYMR90~1\AppData\Local\Temp\ccyjM0JL.s:23453  .debug_str:000000000000da85 .LASF4550
C:\Users\CYMR90~1\AppData\Local\Temp\ccyjM0JL.s:30978  .debug_str:000000000002b5da .LASF4551
C:\Users\CYMR90~1\AppData\Local\Temp\ccyjM0JL.s:22989  .debug_str:000000000000bbff .LASF4552
C:\Users\CYMR90~1\AppData\Local\Temp\ccyjM0JL.s:28200  .debug_str:00000000000207bc .LASF4553
C:\Users\CYMR90~1\AppData\Local\Temp\ccyjM0JL.s:25569  .debug_str:0000000000015e81 .LASF4554
C:\Users\CYMR90~1\AppData\Local\Temp\ccyjM0JL.s:29070  .debug_str:0000000000023bc6 .LASF4555
C:\Users\CYMR90~1\AppData\Local\Temp\ccyjM0JL.s:30948  .debug_str:000000000002b3e0 .LASF4556
C:\Users\CYMR90~1\AppData\Local\Temp\ccyjM0JL.s:28400  .debug_str:0000000000021320 .LASF4557
C:\Users\CYMR90~1\AppData\Local\Temp\ccyjM0JL.s:28752  .debug_str:00000000000228a3 .LASF4558
C:\Users\CYMR90~1\AppData\Local\Temp\ccyjM0JL.s:25701  .debug_str:000000000001671b .LASF4559
C:\Users\CYMR90~1\AppData\Local\Temp\ccyjM0JL.s:22215  .debug_str:00000000000089f6 .LASF4560
C:\Users\CYMR90~1\AppData\Local\Temp\ccyjM0JL.s:29504  .debug_str:000000000002594c .LASF4561
C:\Users\CYMR90~1\AppData\Local\Temp\ccyjM0JL.s:26694  .debug_str:000000000001a962 .LASF4562
C:\Users\CYMR90~1\AppData\Local\Temp\ccyjM0JL.s:20273  .debug_str:0000000000000e71 .LASF4563
C:\Users\CYMR90~1\AppData\Local\Temp\ccyjM0JL.s:28726  .debug_str:0000000000022721 .LASF4564
C:\Users\CYMR90~1\AppData\Local\Temp\ccyjM0JL.s:30458  .debug_str:00000000000296cf .LASF4565
C:\Users\CYMR90~1\AppData\Local\Temp\ccyjM0JL.s:20741  .debug_str:0000000000002b9c .LASF4566
C:\Users\CYMR90~1\AppData\Local\Temp\ccyjM0JL.s:23769  .debug_str:000000000000eda7 .LASF4567
C:\Users\CYMR90~1\AppData\Local\Temp\ccyjM0JL.s:27728  .debug_str:000000000001ead7 .LASF4568
C:\Users\CYMR90~1\AppData\Local\Temp\ccyjM0JL.s:20967  .debug_str:0000000000003a19 .LASF4569
C:\Users\CYMR90~1\AppData\Local\Temp\ccyjM0JL.s:25029  .debug_str:0000000000013e4b .LASF4570
C:\Users\CYMR90~1\AppData\Local\Temp\ccyjM0JL.s:29418  .debug_str:0000000000025248 .LASF4571
C:\Users\CYMR90~1\AppData\Local\Temp\ccyjM0JL.s:30422  .debug_str:00000000000294ce .LASF4572
C:\Users\CYMR90~1\AppData\Local\Temp\ccyjM0JL.s:25035  .debug_str:0000000000013e8f .LASF4573
C:\Users\CYMR90~1\AppData\Local\Temp\ccyjM0JL.s:21535  .debug_str:0000000000005e23 .LASF4574
C:\Users\CYMR90~1\AppData\Local\Temp\ccyjM0JL.s:21121  .debug_str:000000000000442b .LASF4575
C:\Users\CYMR90~1\AppData\Local\Temp\ccyjM0JL.s:28520  .debug_str:0000000000021b25 .LASF4576
C:\Users\CYMR90~1\AppData\Local\Temp\ccyjM0JL.s:28028  .debug_str:000000000001fcd3 .LASF4577
C:\Users\CYMR90~1\AppData\Local\Temp\ccyjM0JL.s:21215  .debug_str:0000000000004b0d .LASF4578
C:\Users\CYMR90~1\AppData\Local\Temp\ccyjM0JL.s:28302  .debug_str:0000000000020d8e .LASF4579
C:\Users\CYMR90~1\AppData\Local\Temp\ccyjM0JL.s:29734  .debug_str:00000000000267f5 .LASF4580
C:\Users\CYMR90~1\AppData\Local\Temp\ccyjM0JL.s:30934  .debug_str:000000000002b31e .LASF4581
C:\Users\CYMR90~1\AppData\Local\Temp\ccyjM0JL.s:29652  .debug_str:000000000002631d .LASF4582
C:\Users\CYMR90~1\AppData\Local\Temp\ccyjM0JL.s:23139  .debug_str:000000000000c5c5 .LASF4583
C:\Users\CYMR90~1\AppData\Local\Temp\ccyjM0JL.s:27620  .debug_str:000000000001e42a .LASF4584
C:\Users\CYMR90~1\AppData\Local\Temp\ccyjM0JL.s:23181  .debug_str:000000000000c873 .LASF4585
C:\Users\CYMR90~1\AppData\Local\Temp\ccyjM0JL.s:27340  .debug_str:000000000001d324 .LASF4586
C:\Users\CYMR90~1\AppData\Local\Temp\ccyjM0JL.s:31284  .debug_str:000000000002ca27 .LASF4587
C:\Users\CYMR90~1\AppData\Local\Temp\ccyjM0JL.s:30630  .debug_str:000000000002a128 .LASF4588
C:\Users\CYMR90~1\AppData\Local\Temp\ccyjM0JL.s:28236  .debug_str:00000000000209d3 .LASF4589
C:\Users\CYMR90~1\AppData\Local\Temp\ccyjM0JL.s:21101  .debug_str:0000000000004329 .LASF4590
C:\Users\CYMR90~1\AppData\Local\Temp\ccyjM0JL.s:29822  .debug_str:0000000000026d87 .LASF4591
C:\Users\CYMR90~1\AppData\Local\Temp\ccyjM0JL.s:27164  .debug_str:000000000001c679 .LASF4592
C:\Users\CYMR90~1\AppData\Local\Temp\ccyjM0JL.s:29794  .debug_str:0000000000026bd9 .LASF4593
C:\Users\CYMR90~1\AppData\Local\Temp\ccyjM0JL.s:25063  .debug_str:0000000000014033 .LASF4594
C:\Users\CYMR90~1\AppData\Local\Temp\ccyjM0JL.s:23965  .debug_str:000000000000f9c6 .LASF4595
C:\Users\CYMR90~1\AppData\Local\Temp\ccyjM0JL.s:27722  .debug_str:000000000001ea7c .LASF4596
C:\Users\CYMR90~1\AppData\Local\Temp\ccyjM0JL.s:21469  .debug_str:0000000000005a4e .LASF4597
C:\Users\CYMR90~1\AppData\Local\Temp\ccyjM0JL.s:28950  .debug_str:000000000002347c .LASF4598
C:\Users\CYMR90~1\AppData\Local\Temp\ccyjM0JL.s:26312  .debug_str:0000000000018ef5 .LASF4599
C:\Users\CYMR90~1\AppData\Local\Temp\ccyjM0JL.s:20625  .debug_str:0000000000002411 .LASF4600
C:\Users\CYMR90~1\AppData\Local\Temp\ccyjM0JL.s:20835  .debug_str:0000000000003173 .LASF4601
C:\Users\CYMR90~1\AppData\Local\Temp\ccyjM0JL.s:29616  .debug_str:00000000000260cd .LASF4602
C:\Users\CYMR90~1\AppData\Local\Temp\ccyjM0JL.s:25471  .debug_str:0000000000015883 .LASF4603
C:\Users\CYMR90~1\AppData\Local\Temp\ccyjM0JL.s:31426  .debug_str:000000000002d3a6 .LASF4604
C:\Users\CYMR90~1\AppData\Local\Temp\ccyjM0JL.s:22337  .debug_str:0000000000009156 .LASF4605
C:\Users\CYMR90~1\AppData\Local\Temp\ccyjM0JL.s:30218  .debug_str:00000000000287f2 .LASF4606
C:\Users\CYMR90~1\AppData\Local\Temp\ccyjM0JL.s:31424  .debug_str:000000000002d36d .LASF4607
C:\Users\CYMR90~1\AppData\Local\Temp\ccyjM0JL.s:27548  .debug_str:000000000001dfe0 .LASF4608
C:\Users\CYMR90~1\AppData\Local\Temp\ccyjM0JL.s:21787  .debug_str:0000000000006d47 .LASF4609
C:\Users\CYMR90~1\AppData\Local\Temp\ccyjM0JL.s:21255  .debug_str:0000000000004d7b .LASF4610
C:\Users\CYMR90~1\AppData\Local\Temp\ccyjM0JL.s:25824  .debug_str:0000000000017103 .LASF4611
C:\Users\CYMR90~1\AppData\Local\Temp\ccyjM0JL.s:31080  .debug_str:000000000002bc9b .LASF4612
C:\Users\CYMR90~1\AppData\Local\Temp\ccyjM0JL.s:24849  .debug_str:00000000000132db .LASF4613
C:\Users\CYMR90~1\AppData\Local\Temp\ccyjM0JL.s:30696  .debug_str:000000000002a4eb .LASF4614
C:\Users\CYMR90~1\AppData\Local\Temp\ccyjM0JL.s:29766  .debug_str:00000000000269fc .LASF4615
C:\Users\CYMR90~1\AppData\Local\Temp\ccyjM0JL.s:29984  .debug_str:0000000000027834 .LASF4616
C:\Users\CYMR90~1\AppData\Local\Temp\ccyjM0JL.s:30518  .debug_str:0000000000029aa0 .LASF4617
C:\Users\CYMR90~1\AppData\Local\Temp\ccyjM0JL.s:27068  .debug_str:000000000001c0ec .LASF4618
C:\Users\CYMR90~1\AppData\Local\Temp\ccyjM0JL.s:26526  .debug_str:0000000000019d71 .LASF4619
C:\Users\CYMR90~1\AppData\Local\Temp\ccyjM0JL.s:22081  .debug_str:0000000000008196 .LASF4620
C:\Users\CYMR90~1\AppData\Local\Temp\ccyjM0JL.s:27250  .debug_str:000000000001cc5b .LASF4621
C:\Users\CYMR90~1\AppData\Local\Temp\ccyjM0JL.s:26828  .debug_str:000000000001b1f6 .LASF4622
C:\Users\CYMR90~1\AppData\Local\Temp\ccyjM0JL.s:28796  .debug_str:0000000000022b6a .LASF4623
C:\Users\CYMR90~1\AppData\Local\Temp\ccyjM0JL.s:29720  .debug_str:0000000000026704 .LASF4624
C:\Users\CYMR90~1\AppData\Local\Temp\ccyjM0JL.s:20535  .debug_str:0000000000001f0d .LASF4625
C:\Users\CYMR90~1\AppData\Local\Temp\ccyjM0JL.s:25647  .debug_str:0000000000016383 .LASF4626
C:\Users\CYMR90~1\AppData\Local\Temp\ccyjM0JL.s:20847  .debug_str:000000000000326e .LASF4627
C:\Users\CYMR90~1\AppData\Local\Temp\ccyjM0JL.s:23057  .debug_str:000000000000c110 .LASF4628
C:\Users\CYMR90~1\AppData\Local\Temp\ccyjM0JL.s:27732  .debug_str:000000000001eb09 .LASF4629
C:\Users\CYMR90~1\AppData\Local\Temp\ccyjM0JL.s:20331  .debug_str:0000000000001259 .LASF4630
C:\Users\CYMR90~1\AppData\Local\Temp\ccyjM0JL.s:29448  .debug_str:000000000002547c .LASF4631
C:\Users\CYMR90~1\AppData\Local\Temp\ccyjM0JL.s:22189  .debug_str:000000000000881c .LASF4632
C:\Users\CYMR90~1\AppData\Local\Temp\ccyjM0JL.s:27350  .debug_str:000000000001d3ca .LASF4633
C:\Users\CYMR90~1\AppData\Local\Temp\ccyjM0JL.s:27368  .debug_str:000000000001d4c1 .LASF4634
C:\Users\CYMR90~1\AppData\Local\Temp\ccyjM0JL.s:28344  .debug_str:000000000002100f .LASF4635
C:\Users\CYMR90~1\AppData\Local\Temp\ccyjM0JL.s:26770  .debug_str:000000000001ade9 .LASF4636
C:\Users\CYMR90~1\AppData\Local\Temp\ccyjM0JL.s:21505  .debug_str:0000000000005c99 .LASF4637
C:\Users\CYMR90~1\AppData\Local\Temp\ccyjM0JL.s:30178  .debug_str:00000000000284f8 .LASF4638
C:\Users\CYMR90~1\AppData\Local\Temp\ccyjM0JL.s:29078  .debug_str:0000000000023c60 .LASF4639
C:\Users\CYMR90~1\AppData\Local\Temp\ccyjM0JL.s:25365  .debug_str:0000000000015298 .LASF4640
C:\Users\CYMR90~1\AppData\Local\Temp\ccyjM0JL.s:27482  .debug_str:000000000001dbec .LASF4641
C:\Users\CYMR90~1\AppData\Local\Temp\ccyjM0JL.s:20807  .debug_str:0000000000002fd1 .LASF4642
C:\Users\CYMR90~1\AppData\Local\Temp\ccyjM0JL.s:20063  .debug_str:0000000000000204 .LASF4643
C:\Users\CYMR90~1\AppData\Local\Temp\ccyjM0JL.s:26478  .debug_str:0000000000019a51 .LASF4644
C:\Users\CYMR90~1\AppData\Local\Temp\ccyjM0JL.s:24239  .debug_str:0000000000010ac3 .LASF4645
C:\Users\CYMR90~1\AppData\Local\Temp\ccyjM0JL.s:21119  .debug_str:0000000000004413 .LASF4646
C:\Users\CYMR90~1\AppData\Local\Temp\ccyjM0JL.s:23163  .debug_str:000000000000c747 .LASF4647
C:\Users\CYMR90~1\AppData\Local\Temp\ccyjM0JL.s:23077  .debug_str:000000000000c20c .LASF4648
C:\Users\CYMR90~1\AppData\Local\Temp\ccyjM0JL.s:20089  .debug_str:0000000000000389 .LASF4649
C:\Users\CYMR90~1\AppData\Local\Temp\ccyjM0JL.s:20141  .debug_str:000000000000065f .LASF4650
C:\Users\CYMR90~1\AppData\Local\Temp\ccyjM0JL.s:30440  .debug_str:00000000000295e3 .LASF4651
C:\Users\CYMR90~1\AppData\Local\Temp\ccyjM0JL.s:21151  .debug_str:0000000000004634 .LASF4652
C:\Users\CYMR90~1\AppData\Local\Temp\ccyjM0JL.s:22807  .debug_str:000000000000afb1 .LASF4653
C:\Users\CYMR90~1\AppData\Local\Temp\ccyjM0JL.s:20111  .debug_str:00000000000004d6 .LASF4654
C:\Users\CYMR90~1\AppData\Local\Temp\ccyjM0JL.s:27708  .debug_str:000000000001e995 .LASF4655
C:\Users\CYMR90~1\AppData\Local\Temp\ccyjM0JL.s:25834  .debug_str:00000000000171b3 .LASF4656
C:\Users\CYMR90~1\AppData\Local\Temp\ccyjM0JL.s:20675  .debug_str:0000000000002735 .LASF4657
C:\Users\CYMR90~1\AppData\Local\Temp\ccyjM0JL.s:29886  .debug_str:0000000000027177 .LASF4658
C:\Users\CYMR90~1\AppData\Local\Temp\ccyjM0JL.s:31238  .debug_str:000000000002c73e .LASF4659
C:\Users\CYMR90~1\AppData\Local\Temp\ccyjM0JL.s:28164  .debug_str:00000000000204c8 .LASF4660
C:\Users\CYMR90~1\AppData\Local\Temp\ccyjM0JL.s:23159  .debug_str:000000000000c6fd .LASF4661
C:\Users\CYMR90~1\AppData\Local\Temp\ccyjM0JL.s:28804  .debug_str:0000000000022bd9 .LASF4662
C:\Users\CYMR90~1\AppData\Local\Temp\ccyjM0JL.s:23053  .debug_str:000000000000c0ac .LASF4663
C:\Users\CYMR90~1\AppData\Local\Temp\ccyjM0JL.s:28794  .debug_str:0000000000022b4c .LASF4664
C:\Users\CYMR90~1\AppData\Local\Temp\ccyjM0JL.s:30334  .debug_str:0000000000028f6b .LASF4665
C:\Users\CYMR90~1\AppData\Local\Temp\ccyjM0JL.s:21549  .debug_str:0000000000005edc .LASF4666
C:\Users\CYMR90~1\AppData\Local\Temp\ccyjM0JL.s:24357  .debug_str:0000000000011249 .LASF4667
C:\Users\CYMR90~1\AppData\Local\Temp\ccyjM0JL.s:23539  .debug_str:000000000000df79 .LASF4668
C:\Users\CYMR90~1\AppData\Local\Temp\ccyjM0JL.s:21205  .debug_str:0000000000004a73 .LASF4669
C:\Users\CYMR90~1\AppData\Local\Temp\ccyjM0JL.s:22481  .debug_str:0000000000009a60 .LASF4670
C:\Users\CYMR90~1\AppData\Local\Temp\ccyjM0JL.s:25025  .debug_str:0000000000013deb .LASF4671
C:\Users\CYMR90~1\AppData\Local\Temp\ccyjM0JL.s:21021  .debug_str:0000000000003d6d .LASF4672
C:\Users\CYMR90~1\AppData\Local\Temp\ccyjM0JL.s:21781  .debug_str:0000000000006cd8 .LASF4673
C:\Users\CYMR90~1\AppData\Local\Temp\ccyjM0JL.s:20035  .debug_str:000000000000002e .LASF4674
C:\Users\CYMR90~1\AppData\Local\Temp\ccyjM0JL.s:24341  .debug_str:000000000001115b .LASF4675
C:\Users\CYMR90~1\AppData\Local\Temp\ccyjM0JL.s:26728  .debug_str:000000000001ab53 .LASF4676
C:\Users\CYMR90~1\AppData\Local\Temp\ccyjM0JL.s:25777  .debug_str:0000000000016c93 .LASF4677
C:\Users\CYMR90~1\AppData\Local\Temp\ccyjM0JL.s:31178  .debug_str:000000000002c337 .LASF4678
C:\Users\CYMR90~1\AppData\Local\Temp\ccyjM0JL.s:29218  .debug_str:0000000000024552 .LASF4679
C:\Users\CYMR90~1\AppData\Local\Temp\ccyjM0JL.s:23637  .debug_str:000000000000e571 .LASF4680
C:\Users\CYMR90~1\AppData\Local\Temp\ccyjM0JL.s:27828  .debug_str:000000000001f0bb .LASF4681
C:\Users\CYMR90~1\AppData\Local\Temp\ccyjM0JL.s:25297  .debug_str:0000000000014e57 .LASF4682
C:\Users\CYMR90~1\AppData\Local\Temp\ccyjM0JL.s:30508  .debug_str:0000000000029a05 .LASF4683
C:\Users\CYMR90~1\AppData\Local\Temp\ccyjM0JL.s:26334  .debug_str:000000000001900f .LASF4684
C:\Users\CYMR90~1\AppData\Local\Temp\ccyjM0JL.s:29614  .debug_str:0000000000026074 .LASF4685
C:\Users\CYMR90~1\AppData\Local\Temp\ccyjM0JL.s:20669  .debug_str:000000000000269f .LASF4686
C:\Users\CYMR90~1\AppData\Local\Temp\ccyjM0JL.s:27810  .debug_str:000000000001ef77 .LASF4687
C:\Users\CYMR90~1\AppData\Local\Temp\ccyjM0JL.s:22657  .debug_str:000000000000a575 .LASF4688
C:\Users\CYMR90~1\AppData\Local\Temp\ccyjM0JL.s:20173  .debug_str:0000000000000866 .LASF4689
C:\Users\CYMR90~1\AppData\Local\Temp\ccyjM0JL.s:26744  .debug_str:000000000001ac52 .LASF4690
C:\Users\CYMR90~1\AppData\Local\Temp\ccyjM0JL.s:30098  .debug_str:0000000000027f4a .LASF4691
C:\Users\CYMR90~1\AppData\Local\Temp\ccyjM0JL.s:25439  .debug_str:00000000000156a3 .LASF4692
C:\Users\CYMR90~1\AppData\Local\Temp\ccyjM0JL.s:26398  .debug_str:00000000000194b4 .LASF4693
C:\Users\CYMR90~1\AppData\Local\Temp\ccyjM0JL.s:23045  .debug_str:000000000000c024 .LASF4694
C:\Users\CYMR90~1\AppData\Local\Temp\ccyjM0JL.s:26456  .debug_str:0000000000019886 .LASF4695
C:\Users\CYMR90~1\AppData\Local\Temp\ccyjM0JL.s:28402  .debug_str:0000000000021338 .LASF4696
C:\Users\CYMR90~1\AppData\Local\Temp\ccyjM0JL.s:26480  .debug_str:0000000000019a8c .LASF4697
C:\Users\CYMR90~1\AppData\Local\Temp\ccyjM0JL.s:21097  .debug_str:00000000000042e0 .LASF4698
C:\Users\CYMR90~1\AppData\Local\Temp\ccyjM0JL.s:22705  .debug_str:000000000000a81b .LASF4699
C:\Users\CYMR90~1\AppData\Local\Temp\ccyjM0JL.s:23411  .debug_str:000000000000d817 .LASF4700
C:\Users\CYMR90~1\AppData\Local\Temp\ccyjM0JL.s:23961  .debug_str:000000000000f97a .LASF4701
C:\Users\CYMR90~1\AppData\Local\Temp\ccyjM0JL.s:27822  .debug_str:000000000001f031 .LASF4702
C:\Users\CYMR90~1\AppData\Local\Temp\ccyjM0JL.s:23537  .debug_str:000000000000df3d .LASF4703
C:\Users\CYMR90~1\AppData\Local\Temp\ccyjM0JL.s:26848  .debug_str:000000000001b36e .LASF4704
C:\Users\CYMR90~1\AppData\Local\Temp\ccyjM0JL.s:30746  .debug_str:000000000002a7ea .LASF4705
C:\Users\CYMR90~1\AppData\Local\Temp\ccyjM0JL.s:24259  .debug_str:0000000000010c33 .LASF4706
C:\Users\CYMR90~1\AppData\Local\Temp\ccyjM0JL.s:24993  .debug_str:0000000000013bf0 .LASF4707
C:\Users\CYMR90~1\AppData\Local\Temp\ccyjM0JL.s:28692  .debug_str:0000000000022567 .LASF4708
C:\Users\CYMR90~1\AppData\Local\Temp\ccyjM0JL.s:30850  .debug_str:000000000002ae2d .LASF4709
C:\Users\CYMR90~1\AppData\Local\Temp\ccyjM0JL.s:24037  .debug_str:000000000000fdf8 .LASF4710
C:\Users\CYMR90~1\AppData\Local\Temp\ccyjM0JL.s:28756  .debug_str:00000000000228e1 .LASF4711
C:\Users\CYMR90~1\AppData\Local\Temp\ccyjM0JL.s:31098  .debug_str:000000000002bd99 .LASF4712
C:\Users\CYMR90~1\AppData\Local\Temp\ccyjM0JL.s:29262  .debug_str:0000000000024833 .LASF4713
C:\Users\CYMR90~1\AppData\Local\Temp\ccyjM0JL.s:25717  .debug_str:0000000000016805 .LASF4714
C:\Users\CYMR90~1\AppData\Local\Temp\ccyjM0JL.s:27216  .debug_str:000000000001ca38 .LASF4715
C:\Users\CYMR90~1\AppData\Local\Temp\ccyjM0JL.s:26506  .debug_str:0000000000019c2c .LASF4716
C:\Users\CYMR90~1\AppData\Local\Temp\ccyjM0JL.s:24179  .debug_str:0000000000010691 .LASF4717
C:\Users\CYMR90~1\AppData\Local\Temp\ccyjM0JL.s:24621  .debug_str:00000000000123fa .LASF4718
C:\Users\CYMR90~1\AppData\Local\Temp\ccyjM0JL.s:20907  .debug_str:000000000000364d .LASF4719
C:\Users\CYMR90~1\AppData\Local\Temp\ccyjM0JL.s:21771  .debug_str:0000000000006c4e .LASF4720
C:\Users\CYMR90~1\AppData\Local\Temp\ccyjM0JL.s:24677  .debug_str:0000000000012798 .LASF4721
C:\Users\CYMR90~1\AppData\Local\Temp\ccyjM0JL.s:30894  .debug_str:000000000002b0bd .LASF4722
C:\Users\CYMR90~1\AppData\Local\Temp\ccyjM0JL.s:23655  .debug_str:000000000000e696 .LASF4723
C:\Users\CYMR90~1\AppData\Local\Temp\ccyjM0JL.s:26606  .debug_str:000000000001a21f .LASF4724
C:\Users\CYMR90~1\AppData\Local\Temp\ccyjM0JL.s:20257  .debug_str:0000000000000d8a .LASF4725
C:\Users\CYMR90~1\AppData\Local\Temp\ccyjM0JL.s:30102  .debug_str:0000000000027f97 .LASF4726
C:\Users\CYMR90~1\AppData\Local\Temp\ccyjM0JL.s:31346  .debug_str:000000000002ce36 .LASF4727
C:\Users\CYMR90~1\AppData\Local\Temp\ccyjM0JL.s:23439  .debug_str:000000000000d9a8 .LASF4728
C:\Users\CYMR90~1\AppData\Local\Temp\ccyjM0JL.s:26124  .debug_str:00000000000182d0 .LASF4729
C:\Users\CYMR90~1\AppData\Local\Temp\ccyjM0JL.s:20415  .debug_str:0000000000001747 .LASF4730
C:\Users\CYMR90~1\AppData\Local\Temp\ccyjM0JL.s:29136  .debug_str:0000000000023f85 .LASF4731
C:\Users\CYMR90~1\AppData\Local\Temp\ccyjM0JL.s:25583  .debug_str:0000000000015f7d .LASF4732
C:\Users\CYMR90~1\AppData\Local\Temp\ccyjM0JL.s:30814  .debug_str:000000000002ac3b .LASF4733
C:\Users\CYMR90~1\AppData\Local\Temp\ccyjM0JL.s:29750  .debug_str:00000000000268ea .LASF4734
C:\Users\CYMR90~1\AppData\Local\Temp\ccyjM0JL.s:30816  .debug_str:000000000002ac59 .LASF4735
C:\Users\CYMR90~1\AppData\Local\Temp\ccyjM0JL.s:27152  .debug_str:000000000001c5ce .LASF4736
C:\Users\CYMR90~1\AppData\Local\Temp\ccyjM0JL.s:20361  .debug_str:0000000000001409 .LASF4737
C:\Users\CYMR90~1\AppData\Local\Temp\ccyjM0JL.s:29524  .debug_str:0000000000025a86 .LASF4738
C:\Users\CYMR90~1\AppData\Local\Temp\ccyjM0JL.s:27050  .debug_str:000000000001bfbb .LASF4739
C:\Users\CYMR90~1\AppData\Local\Temp\ccyjM0JL.s:22917  .debug_str:000000000000b74f .LASF4740
C:\Users\CYMR90~1\AppData\Local\Temp\ccyjM0JL.s:23661  .debug_str:000000000000e6e4 .LASF4741
C:\Users\CYMR90~1\AppData\Local\Temp\ccyjM0JL.s:28176  .debug_str:00000000000205ba .LASF4742
C:\Users\CYMR90~1\AppData\Local\Temp\ccyjM0JL.s:24811  .debug_str:0000000000013066 .LASF4743
C:\Users\CYMR90~1\AppData\Local\Temp\ccyjM0JL.s:29898  .debug_str:000000000002725b .LASF4744
C:\Users\CYMR90~1\AppData\Local\Temp\ccyjM0JL.s:25351  .debug_str:00000000000151c3 .LASF4745
C:\Users\CYMR90~1\AppData\Local\Temp\ccyjM0JL.s:25095  .debug_str:0000000000014221 .LASF4746
C:\Users\CYMR90~1\AppData\Local\Temp\ccyjM0JL.s:23149  .debug_str:000000000000c65e .LASF4747
C:\Users\CYMR90~1\AppData\Local\Temp\ccyjM0JL.s:28040  .debug_str:000000000001fd96 .LASF4748
C:\Users\CYMR90~1\AppData\Local\Temp\ccyjM0JL.s:23759  .debug_str:000000000000ed3c .LASF4749
C:\Users\CYMR90~1\AppData\Local\Temp\ccyjM0JL.s:21455  .debug_str:000000000000595d .LASF4750
C:\Users\CYMR90~1\AppData\Local\Temp\ccyjM0JL.s:30650  .debug_str:000000000002a232 .LASF4751
C:\Users\CYMR90~1\AppData\Local\Temp\ccyjM0JL.s:28356  .debug_str:00000000000210b1 .LASF4752
C:\Users\CYMR90~1\AppData\Local\Temp\ccyjM0JL.s:31174  .debug_str:000000000002c302 .LASF4753
C:\Users\CYMR90~1\AppData\Local\Temp\ccyjM0JL.s:23957  .debug_str:000000000000f93d .LASF4754
C:\Users\CYMR90~1\AppData\Local\Temp\ccyjM0JL.s:22373  .debug_str:0000000000009383 .LASF4755
C:\Users\CYMR90~1\AppData\Local\Temp\ccyjM0JL.s:30848  .debug_str:000000000002ae0b .LASF4756
C:\Users\CYMR90~1\AppData\Local\Temp\ccyjM0JL.s:28452  .debug_str:00000000000216e4 .LASF4757
C:\Users\CYMR90~1\AppData\Local\Temp\ccyjM0JL.s:30308  .debug_str:0000000000028e07 .LASF4758
C:\Users\CYMR90~1\AppData\Local\Temp\ccyjM0JL.s:27062  .debug_str:000000000001c09c .LASF4759
C:\Users\CYMR90~1\AppData\Local\Temp\ccyjM0JL.s:30590  .debug_str:0000000000029eb6 .LASF4760
C:\Users\CYMR90~1\AppData\Local\Temp\ccyjM0JL.s:30470  .debug_str:0000000000029779 .LASF4761
C:\Users\CYMR90~1\AppData\Local\Temp\ccyjM0JL.s:30204  .debug_str:0000000000028712 .LASF4762
C:\Users\CYMR90~1\AppData\Local\Temp\ccyjM0JL.s:29486  .debug_str:00000000000257dc .LASF4763
C:\Users\CYMR90~1\AppData\Local\Temp\ccyjM0JL.s:26580  .debug_str:000000000001a0a4 .LASF4764
C:\Users\CYMR90~1\AppData\Local\Temp\ccyjM0JL.s:22541  .debug_str:0000000000009e17 .LASF4765
C:\Users\CYMR90~1\AppData\Local\Temp\ccyjM0JL.s:23959  .debug_str:000000000000f95f .LASF4766
C:\Users\CYMR90~1\AppData\Local\Temp\ccyjM0JL.s:20629  .debug_str:0000000000002444 .LASF4767
C:\Users\CYMR90~1\AppData\Local\Temp\ccyjM0JL.s:22691  .debug_str:000000000000a75a .LASF4768
C:\Users\CYMR90~1\AppData\Local\Temp\ccyjM0JL.s:27678  .debug_str:000000000001e799 .LASF4769
C:\Users\CYMR90~1\AppData\Local\Temp\ccyjM0JL.s:25898  .debug_str:0000000000017555 .LASF4770
C:\Users\CYMR90~1\AppData\Local\Temp\ccyjM0JL.s:23361  .debug_str:000000000000d480 .LASF4771
C:\Users\CYMR90~1\AppData\Local\Temp\ccyjM0JL.s:31226  .debug_str:000000000002c62a .LASF4772
C:\Users\CYMR90~1\AppData\Local\Temp\ccyjM0JL.s:25735  .debug_str:000000000001690d .LASF4773
C:\Users\CYMR90~1\AppData\Local\Temp\ccyjM0JL.s:30880  .debug_str:000000000002aff6 .LASF4774
C:\Users\CYMR90~1\AppData\Local\Temp\ccyjM0JL.s:20839  .debug_str:00000000000031f0 .LASF4775
C:\Users\CYMR90~1\AppData\Local\Temp\ccyjM0JL.s:29236  .debug_str:00000000000246aa .LASF4776
C:\Users\CYMR90~1\AppData\Local\Temp\ccyjM0JL.s:25745  .debug_str:0000000000016a13 .LASF4777
C:\Users\CYMR90~1\AppData\Local\Temp\ccyjM0JL.s:22261  .debug_str:0000000000008ce3 .LASF4778
C:\Users\CYMR90~1\AppData\Local\Temp\ccyjM0JL.s:29978  .debug_str:00000000000277e9 .LASF4779
C:\Users\CYMR90~1\AppData\Local\Temp\ccyjM0JL.s:27586  .debug_str:000000000001e22f .LASF4780
C:\Users\CYMR90~1\AppData\Local\Temp\ccyjM0JL.s:20601  .debug_str:000000000000229f .LASF4781
C:\Users\CYMR90~1\AppData\Local\Temp\ccyjM0JL.s:21721  .debug_str:000000000000695d .LASF4782
C:\Users\CYMR90~1\AppData\Local\Temp\ccyjM0JL.s:30122  .debug_str:000000000002810b .LASF4783
C:\Users\CYMR90~1\AppData\Local\Temp\ccyjM0JL.s:27610  .debug_str:000000000001e3ac .LASF4784
C:\Users\CYMR90~1\AppData\Local\Temp\ccyjM0JL.s:22089  .debug_str:00000000000081fa .LASF4785
C:\Users\CYMR90~1\AppData\Local\Temp\ccyjM0JL.s:30036  .debug_str:0000000000027b20 .LASF4786
C:\Users\CYMR90~1\AppData\Local\Temp\ccyjM0JL.s:23821  .debug_str:000000000000f04e .LASF4787
C:\Users\CYMR90~1\AppData\Local\Temp\ccyjM0JL.s:27288  .debug_str:000000000001cec0 .LASF4788
C:\Users\CYMR90~1\AppData\Local\Temp\ccyjM0JL.s:27420  .debug_str:000000000001d7c9 .LASF4789
C:\Users\CYMR90~1\AppData\Local\Temp\ccyjM0JL.s:20583  .debug_str:000000000000219d .LASF4790
C:\Users\CYMR90~1\AppData\Local\Temp\ccyjM0JL.s:23983  .debug_str:000000000000fab2 .LASF4791
C:\Users\CYMR90~1\AppData\Local\Temp\ccyjM0JL.s:30628  .debug_str:000000000002a109 .LASF4792
C:\Users\CYMR90~1\AppData\Local\Temp\ccyjM0JL.s:23801  .debug_str:000000000000ef36 .LASF4793
C:\Users\CYMR90~1\AppData\Local\Temp\ccyjM0JL.s:27208  .debug_str:000000000001c922 .LASF4794
C:\Users\CYMR90~1\AppData\Local\Temp\ccyjM0JL.s:22871  .debug_str:000000000000b41a .LASF4795
C:\Users\CYMR90~1\AppData\Local\Temp\ccyjM0JL.s:26052  .debug_str:0000000000017e82 .LASF4796
C:\Users\CYMR90~1\AppData\Local\Temp\ccyjM0JL.s:24207  .debug_str:00000000000108dd .LASF4797
C:\Users\CYMR90~1\AppData\Local\Temp\ccyjM0JL.s:20673  .debug_str:0000000000002713 .LASF4798
C:\Users\CYMR90~1\AppData\Local\Temp\ccyjM0JL.s:28886  .debug_str:0000000000023118 .LASF4799
C:\Users\CYMR90~1\AppData\Local\Temp\ccyjM0JL.s:20401  .debug_str:0000000000001642 .LASF4800
C:\Users\CYMR90~1\AppData\Local\Temp\ccyjM0JL.s:20227  .debug_str:0000000000000bee .LASF4801
C:\Users\CYMR90~1\AppData\Local\Temp\ccyjM0JL.s:21305  .debug_str:0000000000005088 .LASF4802
C:\Users\CYMR90~1\AppData\Local\Temp\ccyjM0JL.s:21949  .debug_str:00000000000077ce .LASF4803
C:\Users\CYMR90~1\AppData\Local\Temp\ccyjM0JL.s:29704  .debug_str:0000000000026621 .LASF4804
C:\Users\CYMR90~1\AppData\Local\Temp\ccyjM0JL.s:20587  .debug_str:00000000000021d2 .LASF4805
C:\Users\CYMR90~1\AppData\Local\Temp\ccyjM0JL.s:28420  .debug_str:0000000000021456 .LASF4806
C:\Users\CYMR90~1\AppData\Local\Temp\ccyjM0JL.s:22949  .debug_str:000000000000b979 .LASF4807
C:\Users\CYMR90~1\AppData\Local\Temp\ccyjM0JL.s:25818  .debug_str:00000000000170c6 .LASF4808
C:\Users\CYMR90~1\AppData\Local\Temp\ccyjM0JL.s:22301  .debug_str:0000000000008f75 .LASF4809
C:\Users\CYMR90~1\AppData\Local\Temp\ccyjM0JL.s:28026  .debug_str:000000000001fcbd .LASF4810
C:\Users\CYMR90~1\AppData\Local\Temp\ccyjM0JL.s:28668  .debug_str:0000000000022412 .LASF4811
C:\Users\CYMR90~1\AppData\Local\Temp\ccyjM0JL.s:29306  .debug_str:0000000000024b09 .LASF4812
C:\Users\CYMR90~1\AppData\Local\Temp\ccyjM0JL.s:28762  .debug_str:0000000000022960 .LASF4813
C:\Users\CYMR90~1\AppData\Local\Temp\ccyjM0JL.s:25665  .debug_str:00000000000164a8 .LASF4814
C:\Users\CYMR90~1\AppData\Local\Temp\ccyjM0JL.s:25565  .debug_str:0000000000015e48 .LASF4815
C:\Users\CYMR90~1\AppData\Local\Temp\ccyjM0JL.s:25147  .debug_str:0000000000014591 .LASF4816
C:\Users\CYMR90~1\AppData\Local\Temp\ccyjM0JL.s:27712  .debug_str:000000000001e9e4 .LASF4817
C:\Users\CYMR90~1\AppData\Local\Temp\ccyjM0JL.s:24381  .debug_str:00000000000113a0 .LASF4818
C:\Users\CYMR90~1\AppData\Local\Temp\ccyjM0JL.s:27462  .debug_str:000000000001dad5 .LASF4819
C:\Users\CYMR90~1\AppData\Local\Temp\ccyjM0JL.s:31400  .debug_str:000000000002d214 .LASF4820
C:\Users\CYMR90~1\AppData\Local\Temp\ccyjM0JL.s:23647  .debug_str:000000000000e614 .LASF4821
C:\Users\CYMR90~1\AppData\Local\Temp\ccyjM0JL.s:26152  .debug_str:000000000001844e .LASF4822
C:\Users\CYMR90~1\AppData\Local\Temp\ccyjM0JL.s:20451  .debug_str:0000000000001a29 .LASF4823
C:\Users\CYMR90~1\AppData\Local\Temp\ccyjM0JL.s:21081  .debug_str:0000000000004167 .LASF4824
C:\Users\CYMR90~1\AppData\Local\Temp\ccyjM0JL.s:21085  .debug_str:0000000000004237 .LASF4825
C:\Users\CYMR90~1\AppData\Local\Temp\ccyjM0JL.s:24289  .debug_str:0000000000010e91 .LASF4826
C:\Users\CYMR90~1\AppData\Local\Temp\ccyjM0JL.s:29156  .debug_str:00000000000240ae .LASF4827
C:\Users\CYMR90~1\AppData\Local\Temp\ccyjM0JL.s:22977  .debug_str:000000000000bb76 .LASF4828
C:\Users\CYMR90~1\AppData\Local\Temp\ccyjM0JL.s:22685  .debug_str:000000000000a709 .LASF4829
C:\Users\CYMR90~1\AppData\Local\Temp\ccyjM0JL.s:28294  .debug_str:0000000000020d1d .LASF4830
C:\Users\CYMR90~1\AppData\Local\Temp\ccyjM0JL.s:24347  .debug_str:00000000000111c4 .LASF4831
C:\Users\CYMR90~1\AppData\Local\Temp\ccyjM0JL.s:25830  .debug_str:0000000000017174 .LASF4832
C:\Users\CYMR90~1\AppData\Local\Temp\ccyjM0JL.s:29220  .debug_str:0000000000024582 .LASF4833
C:\Users\CYMR90~1\AppData\Local\Temp\ccyjM0JL.s:27476  .debug_str:000000000001db95 .LASF4834
C:\Users\CYMR90~1\AppData\Local\Temp\ccyjM0JL.s:25445  .debug_str:00000000000156fb .LASF4835
C:\Users\CYMR90~1\AppData\Local\Temp\ccyjM0JL.s:31028  .debug_str:000000000002b91f .LASF4836
C:\Users\CYMR90~1\AppData\Local\Temp\ccyjM0JL.s:29268  .debug_str:00000000000248ab .LASF4837
C:\Users\CYMR90~1\AppData\Local\Temp\ccyjM0JL.s:26444  .debug_str:0000000000019782 .LASF4838
C:\Users\CYMR90~1\AppData\Local\Temp\ccyjM0JL.s:27488  .debug_str:000000000001dc53 .LASF4839
C:\Users\CYMR90~1\AppData\Local\Temp\ccyjM0JL.s:25651  .debug_str:00000000000163cf .LASF4840
C:\Users\CYMR90~1\AppData\Local\Temp\ccyjM0JL.s:22311  .debug_str:000000000000900f .LASF4841
C:\Users\CYMR90~1\AppData\Local\Temp\ccyjM0JL.s:24257  .debug_str:0000000000010c0d .LASF4842
C:\Users\CYMR90~1\AppData\Local\Temp\ccyjM0JL.s:26246  .debug_str:0000000000018a02 .LASF4843
C:\Users\CYMR90~1\AppData\Local\Temp\ccyjM0JL.s:23395  .debug_str:000000000000d706 .LASF4844
C:\Users\CYMR90~1\AppData\Local\Temp\ccyjM0JL.s:25679  .debug_str:0000000000016553 .LASF4845
C:\Users\CYMR90~1\AppData\Local\Temp\ccyjM0JL.s:21035  .debug_str:0000000000003e7c .LASF4846
C:\Users\CYMR90~1\AppData\Local\Temp\ccyjM0JL.s:30000  .debug_str:0000000000027913 .LASF4847
C:\Users\CYMR90~1\AppData\Local\Temp\ccyjM0JL.s:23619  .debug_str:000000000000e471 .LASF4848
C:\Users\CYMR90~1\AppData\Local\Temp\ccyjM0JL.s:21073  .debug_str:00000000000040e4 .LASF4849
C:\Users\CYMR90~1\AppData\Local\Temp\ccyjM0JL.s:25287  .debug_str:0000000000014dba .LASF4850
C:\Users\CYMR90~1\AppData\Local\Temp\ccyjM0JL.s:23615  .debug_str:000000000000e432 .LASF4851
C:\Users\CYMR90~1\AppData\Local\Temp\ccyjM0JL.s:20613  .debug_str:0000000000002369 .LASF4852
C:\Users\CYMR90~1\AppData\Local\Temp\ccyjM0JL.s:30856  .debug_str:000000000002ae91 .LASF4853
C:\Users\CYMR90~1\AppData\Local\Temp\ccyjM0JL.s:22207  .debug_str:0000000000008956 .LASF4854
C:\Users\CYMR90~1\AppData\Local\Temp\ccyjM0JL.s:20793  .debug_str:0000000000002f0e .LASF4855
C:\Users\CYMR90~1\AppData\Local\Temp\ccyjM0JL.s:30088  .debug_str:0000000000027ea3 .LASF4856
C:\Users\CYMR90~1\AppData\Local\Temp\ccyjM0JL.s:30580  .debug_str:0000000000029e17 .LASF4857
C:\Users\CYMR90~1\AppData\Local\Temp\ccyjM0JL.s:23059  .debug_str:000000000000c129 .LASF4858
C:\Users\CYMR90~1\AppData\Local\Temp\ccyjM0JL.s:26608  .debug_str:000000000001a236 .LASF4859
C:\Users\CYMR90~1\AppData\Local\Temp\ccyjM0JL.s:29530  .debug_str:0000000000025b15 .LASF4860
C:\Users\CYMR90~1\AppData\Local\Temp\ccyjM0JL.s:25387  .debug_str:00000000000153f6 .LASF4861
C:\Users\CYMR90~1\AppData\Local\Temp\ccyjM0JL.s:31378  .debug_str:000000000002d000 .LASF4862
C:\Users\CYMR90~1\AppData\Local\Temp\ccyjM0JL.s:30256  .debug_str:0000000000028ab8 .LASF4863
C:\Users\CYMR90~1\AppData\Local\Temp\ccyjM0JL.s:28986  .debug_str:000000000002367f .LASF4864
C:\Users\CYMR90~1\AppData\Local\Temp\ccyjM0JL.s:27774  .debug_str:000000000001ed74 .LASF4865
C:\Users\CYMR90~1\AppData\Local\Temp\ccyjM0JL.s:24181  .debug_str:00000000000106cf .LASF4866
C:\Users\CYMR90~1\AppData\Local\Temp\ccyjM0JL.s:31268  .debug_str:000000000002c954 .LASF4867
C:\Users\CYMR90~1\AppData\Local\Temp\ccyjM0JL.s:29400  .debug_str:0000000000025131 .LASF4868
C:\Users\CYMR90~1\AppData\Local\Temp\ccyjM0JL.s:29310  .debug_str:0000000000024b32 .LASF4869
C:\Users\CYMR90~1\AppData\Local\Temp\ccyjM0JL.s:21817  .debug_str:0000000000006f48 .LASF4870
C:\Users\CYMR90~1\AppData\Local\Temp\ccyjM0JL.s:25705  .debug_str:000000000001674a .LASF4871
C:\Users\CYMR90~1\AppData\Local\Temp\ccyjM0JL.s:30064  .debug_str:0000000000027cde .LASF4872
C:\Users\CYMR90~1\AppData\Local\Temp\ccyjM0JL.s:27270  .debug_str:000000000001cd91 .LASF4873
C:\Users\CYMR90~1\AppData\Local\Temp\ccyjM0JL.s:29862  .debug_str:0000000000026fc3 .LASF4874
C:\Users\CYMR90~1\AppData\Local\Temp\ccyjM0JL.s:26016  .debug_str:0000000000017c6c .LASF4875
C:\Users\CYMR90~1\AppData\Local\Temp\ccyjM0JL.s:20781  .debug_str:0000000000002e51 .LASF4876
C:\Users\CYMR90~1\AppData\Local\Temp\ccyjM0JL.s:22109  .debug_str:0000000000008361 .LASF4877
C:\Users\CYMR90~1\AppData\Local\Temp\ccyjM0JL.s:27256  .debug_str:000000000001ccae .LASF4878
C:\Users\CYMR90~1\AppData\Local\Temp\ccyjM0JL.s:22733  .debug_str:000000000000aad6 .LASF4879
C:\Users\CYMR90~1\AppData\Local\Temp\ccyjM0JL.s:21689  .debug_str:000000000000671b .LASF4880
C:\Users\CYMR90~1\AppData\Local\Temp\ccyjM0JL.s:25697  .debug_str:00000000000166d7 .LASF4881
C:\Users\CYMR90~1\AppData\Local\Temp\ccyjM0JL.s:26864  .debug_str:000000000001b46e .LASF4882
C:\Users\CYMR90~1\AppData\Local\Temp\ccyjM0JL.s:21065  .debug_str:0000000000004089 .LASF4883
C:\Users\CYMR90~1\AppData\Local\Temp\ccyjM0JL.s:29604  .debug_str:0000000000025fe6 .LASF4884
C:\Users\CYMR90~1\AppData\Local\Temp\ccyjM0JL.s:23697  .debug_str:000000000000e95f .LASF4885
C:\Users\CYMR90~1\AppData\Local\Temp\ccyjM0JL.s:28502  .debug_str:0000000000021a06 .LASF4886
C:\Users\CYMR90~1\AppData\Local\Temp\ccyjM0JL.s:25181  .debug_str:0000000000014781 .LASF4887
C:\Users\CYMR90~1\AppData\Local\Temp\ccyjM0JL.s:22833  .debug_str:000000000000b1ff .LASF4888
C:\Users\CYMR90~1\AppData\Local\Temp\ccyjM0JL.s:28312  .debug_str:0000000000020e34 .LASF4889
C:\Users\CYMR90~1\AppData\Local\Temp\ccyjM0JL.s:29716  .debug_str:00000000000266b4 .LASF4890
C:\Users\CYMR90~1\AppData\Local\Temp\ccyjM0JL.s:27988  .debug_str:000000000001fa6f .LASF4891
C:\Users\CYMR90~1\AppData\Local\Temp\ccyjM0JL.s:28610  .debug_str:0000000000022090 .LASF4892
C:\Users\CYMR90~1\AppData\Local\Temp\ccyjM0JL.s:26830  .debug_str:000000000001b20f .LASF4893
C:\Users\CYMR90~1\AppData\Local\Temp\ccyjM0JL.s:28146  .debug_str:00000000000203d3 .LASF4894
C:\Users\CYMR90~1\AppData\Local\Temp\ccyjM0JL.s:29664  .debug_str:00000000000263c6 .LASF4895
C:\Users\CYMR90~1\AppData\Local\Temp\ccyjM0JL.s:29140  .debug_str:0000000000023fc5 .LASF4896
C:\Users\CYMR90~1\AppData\Local\Temp\ccyjM0JL.s:28962  .debug_str:0000000000023521 .LASF4897
C:\Users\CYMR90~1\AppData\Local\Temp\ccyjM0JL.s:31430  .debug_str:000000000002d3d3 .LASF4898
C:\Users\CYMR90~1\AppData\Local\Temp\ccyjM0JL.s:21683  .debug_str:00000000000066bc .LASF4899
C:\Users\CYMR90~1\AppData\Local\Temp\ccyjM0JL.s:21325  .debug_str:00000000000051ac .LASF4900
C:\Users\CYMR90~1\AppData\Local\Temp\ccyjM0JL.s:28860  .debug_str:0000000000022f99 .LASF4901
C:\Users\CYMR90~1\AppData\Local\Temp\ccyjM0JL.s:28812  .debug_str:0000000000022c71 .LASF4902
C:\Users\CYMR90~1\AppData\Local\Temp\ccyjM0JL.s:28088  .debug_str:00000000000200b0 .LASF4903
C:\Users\CYMR90~1\AppData\Local\Temp\ccyjM0JL.s:20211  .debug_str:0000000000000a94 .LASF4904
C:\Users\CYMR90~1\AppData\Local\Temp\ccyjM0JL.s:24969  .debug_str:0000000000013aaf .LASF4905
C:\Users\CYMR90~1\AppData\Local\Temp\ccyjM0JL.s:26102  .debug_str:0000000000018148 .LASF4906
C:\Users\CYMR90~1\AppData\Local\Temp\ccyjM0JL.s:24875  .debug_str:000000000001347c .LASF4907
C:\Users\CYMR90~1\AppData\Local\Temp\ccyjM0JL.s:27316  .debug_str:000000000001d11a .LASF4908
C:\Users\CYMR90~1\AppData\Local\Temp\ccyjM0JL.s:25323  .debug_str:0000000000015046 .LASF4909
C:\Users\CYMR90~1\AppData\Local\Temp\ccyjM0JL.s:20595  .debug_str:000000000000222b .LASF4910
C:\Users\CYMR90~1\AppData\Local\Temp\ccyjM0JL.s:22061  .debug_str:0000000000007fac .LASF4911
C:\Users\CYMR90~1\AppData\Local\Temp\ccyjM0JL.s:23113  .debug_str:000000000000c42b .LASF4912
C:\Users\CYMR90~1\AppData\Local\Temp\ccyjM0JL.s:25467  .debug_str:000000000001584c .LASF4913
C:\Users\CYMR90~1\AppData\Local\Temp\ccyjM0JL.s:26998  .debug_str:000000000001bc40 .LASF4914
C:\Users\CYMR90~1\AppData\Local\Temp\ccyjM0JL.s:21159  .debug_str:00000000000046a6 .LASF4915
C:\Users\CYMR90~1\AppData\Local\Temp\ccyjM0JL.s:22183  .debug_str:00000000000087d4 .LASF4916
C:\Users\CYMR90~1\AppData\Local\Temp\ccyjM0JL.s:21211  .debug_str:0000000000004ad4 .LASF4917
C:\Users\CYMR90~1\AppData\Local\Temp\ccyjM0JL.s:24947  .debug_str:0000000000013966 .LASF4918
C:\Users\CYMR90~1\AppData\Local\Temp\ccyjM0JL.s:29238  .debug_str:00000000000246c6 .LASF4919
C:\Users\CYMR90~1\AppData\Local\Temp\ccyjM0JL.s:21941  .debug_str:000000000000775a .LASF4920
C:\Users\CYMR90~1\AppData\Local\Temp\ccyjM0JL.s:24025  .debug_str:000000000000fd29 .LASF4921
C:\Users\CYMR90~1\AppData\Local\Temp\ccyjM0JL.s:28634  .debug_str:00000000000221f8 .LASF4922
C:\Users\CYMR90~1\AppData\Local\Temp\ccyjM0JL.s:30196  .debug_str:000000000002868e .LASF4923
C:\Users\CYMR90~1\AppData\Local\Temp\ccyjM0JL.s:26028  .debug_str:0000000000017d0a .LASF4924
C:\Users\CYMR90~1\AppData\Local\Temp\ccyjM0JL.s:25343  .debug_str:0000000000015146 .LASF4925
C:\Users\CYMR90~1\AppData\Local\Temp\ccyjM0JL.s:30970  .debug_str:000000000002b518 .LASF4926
C:\Users\CYMR90~1\AppData\Local\Temp\ccyjM0JL.s:22869  .debug_str:000000000000b3f1 .LASF4927
C:\Users\CYMR90~1\AppData\Local\Temp\ccyjM0JL.s:30456  .debug_str:00000000000296a6 .LASF4928
C:\Users\CYMR90~1\AppData\Local\Temp\ccyjM0JL.s:25419  .debug_str:00000000000155a0 .LASF4929
C:\Users\CYMR90~1\AppData\Local\Temp\ccyjM0JL.s:22211  .debug_str:00000000000089a3 .LASF4930
C:\Users\CYMR90~1\AppData\Local\Temp\ccyjM0JL.s:30866  .debug_str:000000000002af2f .LASF4931
C:\Users\CYMR90~1\AppData\Local\Temp\ccyjM0JL.s:20183  .debug_str:00000000000008e3 .LASF4932
C:\Users\CYMR90~1\AppData\Local\Temp\ccyjM0JL.s:26894  .debug_str:000000000001b621 .LASF4933
C:\Users\CYMR90~1\AppData\Local\Temp\ccyjM0JL.s:27790  .debug_str:000000000001ee48 .LASF4934
C:\Users\CYMR90~1\AppData\Local\Temp\ccyjM0JL.s:22609  .debug_str:000000000000a23d .LASF4935
C:\Users\CYMR90~1\AppData\Local\Temp\ccyjM0JL.s:21429  .debug_str:00000000000057ea .LASF4936
C:\Users\CYMR90~1\AppData\Local\Temp\ccyjM0JL.s:23955  .debug_str:000000000000f913 .LASF4937
C:\Users\CYMR90~1\AppData\Local\Temp\ccyjM0JL.s:26240  .debug_str:0000000000018990 .LASF4938
C:\Users\CYMR90~1\AppData\Local\Temp\ccyjM0JL.s:20695  .debug_str:00000000000028b3 .LASF4939
C:\Users\CYMR90~1\AppData\Local\Temp\ccyjM0JL.s:26484  .debug_str:0000000000019adf .LASF4940
C:\Users\CYMR90~1\AppData\Local\Temp\ccyjM0JL.s:27844  .debug_str:000000000001f1d1 .LASF4941
C:\Users\CYMR90~1\AppData\Local\Temp\ccyjM0JL.s:20219  .debug_str:0000000000000b5a .LASF4942
C:\Users\CYMR90~1\AppData\Local\Temp\ccyjM0JL.s:21665  .debug_str:00000000000065d0 .LASF4943
C:\Users\CYMR90~1\AppData\Local\Temp\ccyjM0JL.s:30982  .debug_str:000000000002b619 .LASF4944
C:\Users\CYMR90~1\AppData\Local\Temp\ccyjM0JL.s:27766  .debug_str:000000000001ecfc .LASF4945
C:\Users\CYMR90~1\AppData\Local\Temp\ccyjM0JL.s:26486  .debug_str:0000000000019b0b .LASF4946
C:\Users\CYMR90~1\AppData\Local\Temp\ccyjM0JL.s:30920  .debug_str:000000000002b253 .LASF4947
C:\Users\CYMR90~1\AppData\Local\Temp\ccyjM0JL.s:23031  .debug_str:000000000000bf26 .LASF4948
C:\Users\CYMR90~1\AppData\Local\Temp\ccyjM0JL.s:26072  .debug_str:0000000000017fc3 .LASF4949
C:\Users\CYMR90~1\AppData\Local\Temp\ccyjM0JL.s:25069  .debug_str:0000000000014093 .LASF4950
C:\Users\CYMR90~1\AppData\Local\Temp\ccyjM0JL.s:27736  .debug_str:000000000001eb5a .LASF4951
C:\Users\CYMR90~1\AppData\Local\Temp\ccyjM0JL.s:28296  .debug_str:0000000000020d33 .LASF4952
C:\Users\CYMR90~1\AppData\Local\Temp\ccyjM0JL.s:28300  .debug_str:0000000000020d6c .LASF4953
C:\Users\CYMR90~1\AppData\Local\Temp\ccyjM0JL.s:20815  .debug_str:000000000000304d .LASF4954
C:\Users\CYMR90~1\AppData\Local\Temp\ccyjM0JL.s:24123  .debug_str:000000000001037e .LASF4955
C:\Users\CYMR90~1\AppData\Local\Temp\ccyjM0JL.s:30654  .debug_str:000000000002a26f .LASF4956
C:\Users\CYMR90~1\AppData\Local\Temp\ccyjM0JL.s:22219  .debug_str:0000000000008a21 .LASF4957
C:\Users\CYMR90~1\AppData\Local\Temp\ccyjM0JL.s:31448  .debug_str:000000000002d4d0 .LASF4958
C:\Users\CYMR90~1\AppData\Local\Temp\ccyjM0JL.s:20755  .debug_str:0000000000002cb2 .LASF4959
C:\Users\CYMR90~1\AppData\Local\Temp\ccyjM0JL.s:24015  .debug_str:000000000000fc9e .LASF4960
C:\Users\CYMR90~1\AppData\Local\Temp\ccyjM0JL.s:25862  .debug_str:000000000001733e .LASF4961
C:\Users\CYMR90~1\AppData\Local\Temp\ccyjM0JL.s:23479  .debug_str:000000000000dbf9 .LASF4962
C:\Users\CYMR90~1\AppData\Local\Temp\ccyjM0JL.s:25942  .debug_str:00000000000177ba .LASF4963
C:\Users\CYMR90~1\AppData\Local\Temp\ccyjM0JL.s:22493  .debug_str:0000000000009b3f .LASF4964
C:\Users\CYMR90~1\AppData\Local\Temp\ccyjM0JL.s:25337  .debug_str:00000000000150ff .LASF4965
C:\Users\CYMR90~1\AppData\Local\Temp\ccyjM0JL.s:22243  .debug_str:0000000000008bbe .LASF4966
C:\Users\CYMR90~1\AppData\Local\Temp\ccyjM0JL.s:22173  .debug_str:000000000000873a .LASF4967
C:\Users\CYMR90~1\AppData\Local\Temp\ccyjM0JL.s:30918  .debug_str:000000000002b22e .LASF4968
C:\Users\CYMR90~1\AppData\Local\Temp\ccyjM0JL.s:29192  .debug_str:000000000002435e .LASF4969
C:\Users\CYMR90~1\AppData\Local\Temp\ccyjM0JL.s:30902  .debug_str:000000000002b157 .LASF4970
C:\Users\CYMR90~1\AppData\Local\Temp\ccyjM0JL.s:26134  .debug_str:000000000001833a .LASF4971
C:\Users\CYMR90~1\AppData\Local\Temp\ccyjM0JL.s:30384  .debug_str:000000000002928f .LASF4972
C:\Users\CYMR90~1\AppData\Local\Temp\ccyjM0JL.s:30062  .debug_str:0000000000027cbc .LASF4973
C:\Users\CYMR90~1\AppData\Local\Temp\ccyjM0JL.s:22469  .debug_str:00000000000099a5 .LASF4974
C:\Users\CYMR90~1\AppData\Local\Temp\ccyjM0JL.s:29808  .debug_str:0000000000026ca2 .LASF4975
C:\Users\CYMR90~1\AppData\Local\Temp\ccyjM0JL.s:26118  .debug_str:0000000000018267 .LASF4976
C:\Users\CYMR90~1\AppData\Local\Temp\ccyjM0JL.s:26024  .debug_str:0000000000017ccd .LASF4977
C:\Users\CYMR90~1\AppData\Local\Temp\ccyjM0JL.s:29938  .debug_str:000000000002747e .LASF4978
C:\Users\CYMR90~1\AppData\Local\Temp\ccyjM0JL.s:23877  .debug_str:000000000000f3ba .LASF4979
C:\Users\CYMR90~1\AppData\Local\Temp\ccyjM0JL.s:27292  .debug_str:000000000001cf04 .LASF4980
C:\Users\CYMR90~1\AppData\Local\Temp\ccyjM0JL.s:26314  .debug_str:0000000000018f0f .LASF4981
C:\Users\CYMR90~1\AppData\Local\Temp\ccyjM0JL.s:23199  .debug_str:000000000000c9e0 .LASF4982
C:\Users\CYMR90~1\AppData\Local\Temp\ccyjM0JL.s:29456  .debug_str:00000000000255a4 .LASF4983
C:\Users\CYMR90~1\AppData\Local\Temp\ccyjM0JL.s:22601  .debug_str:000000000000a1c7 .LASF4984
C:\Users\CYMR90~1\AppData\Local\Temp\ccyjM0JL.s:29276  .debug_str:0000000000024910 .LASF4985
C:\Users\CYMR90~1\AppData\Local\Temp\ccyjM0JL.s:27054  .debug_str:000000000001c005 .LASF4986
C:\Users\CYMR90~1\AppData\Local\Temp\ccyjM0JL.s:23339  .debug_str:000000000000d2d3 .LASF4987
C:\Users\CYMR90~1\AppData\Local\Temp\ccyjM0JL.s:24197  .debug_str:0000000000010860 .LASF4988
C:\Users\CYMR90~1\AppData\Local\Temp\ccyjM0JL.s:20537  .debug_str:0000000000001f26 .LASF4989
C:\Users\CYMR90~1\AppData\Local\Temp\ccyjM0JL.s:25814  .debug_str:0000000000017081 .LASF4990
C:\Users\CYMR90~1\AppData\Local\Temp\ccyjM0JL.s:27134  .debug_str:000000000001c4de .LASF4991
C:\Users\CYMR90~1\AppData\Local\Temp\ccyjM0JL.s:25229  .debug_str:0000000000014a89 .LASF4992
C:\Users\CYMR90~1\AppData\Local\Temp\ccyjM0JL.s:21149  .debug_str:0000000000004608 .LASF4993
C:\Users\CYMR90~1\AppData\Local\Temp\ccyjM0JL.s:26764  .debug_str:000000000001ad7c .LASF4994
C:\Users\CYMR90~1\AppData\Local\Temp\ccyjM0JL.s:29554  .debug_str:0000000000025d09 .LASF4995
C:\Users\CYMR90~1\AppData\Local\Temp\ccyjM0JL.s:23931  .debug_str:000000000000f6fc .LASF4996
C:\Users\CYMR90~1\AppData\Local\Temp\ccyjM0JL.s:23025  .debug_str:000000000000be92 .LASF4997
C:\Users\CYMR90~1\AppData\Local\Temp\ccyjM0JL.s:20037  .debug_str:000000000000006a .LASF4998
C:\Users\CYMR90~1\AppData\Local\Temp\ccyjM0JL.s:30372  .debug_str:00000000000291d9 .LASF4999
C:\Users\CYMR90~1\AppData\Local\Temp\ccyjM0JL.s:21685  .debug_str:00000000000066df .LASF5000
C:\Users\CYMR90~1\AppData\Local\Temp\ccyjM0JL.s:21897  .debug_str:00000000000074ad .LASF5001
C:\Users\CYMR90~1\AppData\Local\Temp\ccyjM0JL.s:30290  .debug_str:0000000000028ce1 .LASF5002
C:\Users\CYMR90~1\AppData\Local\Temp\ccyjM0JL.s:22983  .debug_str:000000000000bbb4 .LASF5003
C:\Users\CYMR90~1\AppData\Local\Temp\ccyjM0JL.s:25327  .debug_str:000000000001508d .LASF5004
C:\Users\CYMR90~1\AppData\Local\Temp\ccyjM0JL.s:22935  .debug_str:000000000000b89c .LASF5005
C:\Users\CYMR90~1\AppData\Local\Temp\ccyjM0JL.s:25519  .debug_str:0000000000015b6a .LASF5006
C:\Users\CYMR90~1\AppData\Local\Temp\ccyjM0JL.s:24397  .debug_str:000000000001148e .LASF5007
C:\Users\CYMR90~1\AppData\Local\Temp\ccyjM0JL.s:24323  .debug_str:0000000000011053 .LASF5008
C:\Users\CYMR90~1\AppData\Local\Temp\ccyjM0JL.s:24643  .debug_str:0000000000012566 .LASF5009
C:\Users\CYMR90~1\AppData\Local\Temp\ccyjM0JL.s:25395  .debug_str:0000000000015468 .LASF5010
C:\Users\CYMR90~1\AppData\Local\Temp\ccyjM0JL.s:24305  .debug_str:0000000000010f63 .LASF5011
C:\Users\CYMR90~1\AppData\Local\Temp\ccyjM0JL.s:30258  .debug_str:0000000000028ada .LASF5012
C:\Users\CYMR90~1\AppData\Local\Temp\ccyjM0JL.s:21951  .debug_str:00000000000077f0 .LASF5013
C:\Users\CYMR90~1\AppData\Local\Temp\ccyjM0JL.s:31166  .debug_str:000000000002c1ff .LASF5014
C:\Users\CYMR90~1\AppData\Local\Temp\ccyjM0JL.s:31182  .debug_str:000000000002c38f .LASF5015
C:\Users\CYMR90~1\AppData\Local\Temp\ccyjM0JL.s:24877  .debug_str:00000000000134a0 .LASF5016
C:\Users\CYMR90~1\AppData\Local\Temp\ccyjM0JL.s:20243  .debug_str:0000000000000cb8 .LASF5017
C:\Users\CYMR90~1\AppData\Local\Temp\ccyjM0JL.s:22979  .debug_str:000000000000bb8e .LASF5018
C:\Users\CYMR90~1\AppData\Local\Temp\ccyjM0JL.s:27770  .debug_str:000000000001ed38 .LASF5019
C:\Users\CYMR90~1\AppData\Local\Temp\ccyjM0JL.s:21675  .debug_str:0000000000006661 .LASF5020
C:\Users\CYMR90~1\AppData\Local\Temp\ccyjM0JL.s:22143  .debug_str:00000000000085a4 .LASF5021
C:\Users\CYMR90~1\AppData\Local\Temp\ccyjM0JL.s:24833  .debug_str:00000000000131de .LASF5022
C:\Users\CYMR90~1\AppData\Local\Temp\ccyjM0JL.s:24241  .debug_str:0000000000010adc .LASF5023
C:\Users\CYMR90~1\AppData\Local\Temp\ccyjM0JL.s:28622  .debug_str:000000000002215d .LASF5024
C:\Users\CYMR90~1\AppData\Local\Temp\ccyjM0JL.s:27652  .debug_str:000000000001e610 .LASF5025
C:\Users\CYMR90~1\AppData\Local\Temp\ccyjM0JL.s:21351  .debug_str:000000000000534f .LASF5026
C:\Users\CYMR90~1\AppData\Local\Temp\ccyjM0JL.s:28454  .debug_str:0000000000021708 .LASF5027
C:\Users\CYMR90~1\AppData\Local\Temp\ccyjM0JL.s:25573  .debug_str:0000000000015ebd .LASF5028
C:\Users\CYMR90~1\AppData\Local\Temp\ccyjM0JL.s:21585  .debug_str:00000000000060e6 .LASF5029
C:\Users\CYMR90~1\AppData\Local\Temp\ccyjM0JL.s:26568  .debug_str:0000000000019fda .LASF5030
C:\Users\CYMR90~1\AppData\Local\Temp\ccyjM0JL.s:25405  .debug_str:00000000000154d1 .LASF5031
C:\Users\CYMR90~1\AppData\Local\Temp\ccyjM0JL.s:28092  .debug_str:00000000000200e7 .LASF5032
C:\Users\CYMR90~1\AppData\Local\Temp\ccyjM0JL.s:30288  .debug_str:0000000000028cc5 .LASF5033
C:\Users\CYMR90~1\AppData\Local\Temp\ccyjM0JL.s:25047  .debug_str:0000000000013f34 .LASF5034
C:\Users\CYMR90~1\AppData\Local\Temp\ccyjM0JL.s:24981  .debug_str:0000000000013b67 .LASF5035
C:\Users\CYMR90~1\AppData\Local\Temp\ccyjM0JL.s:20647  .debug_str:000000000000257b .LASF5036
C:\Users\CYMR90~1\AppData\Local\Temp\ccyjM0JL.s:27704  .debug_str:000000000001e941 .LASF5037
C:\Users\CYMR90~1\AppData\Local\Temp\ccyjM0JL.s:27156  .debug_str:000000000001c602 .LASF5038
C:\Users\CYMR90~1\AppData\Local\Temp\ccyjM0JL.s:29506  .debug_str:0000000000025963 .LASF5039
C:\Users\CYMR90~1\AppData\Local\Temp\ccyjM0JL.s:21729  .debug_str:00000000000069d0 .LASF5040
C:\Users\CYMR90~1\AppData\Local\Temp\ccyjM0JL.s:20503  .debug_str:0000000000001d4b .LASF5041
C:\Users\CYMR90~1\AppData\Local\Temp\ccyjM0JL.s:22331  .debug_str:000000000000911d .LASF5042
C:\Users\CYMR90~1\AppData\Local\Temp\ccyjM0JL.s:22495  .debug_str:0000000000009b62 .LASF5043
C:\Users\CYMR90~1\AppData\Local\Temp\ccyjM0JL.s:20515  .debug_str:0000000000001dec .LASF5044
C:\Users\CYMR90~1\AppData\Local\Temp\ccyjM0JL.s:31206  .debug_str:000000000002c4ff .LASF5045
C:\Users\CYMR90~1\AppData\Local\Temp\ccyjM0JL.s:23165  .debug_str:000000000000c75f .LASF5046
C:\Users\CYMR90~1\AppData\Local\Temp\ccyjM0JL.s:25683  .debug_str:0000000000016596 .LASF5047
C:\Users\CYMR90~1\AppData\Local\Temp\ccyjM0JL.s:24769  .debug_str:0000000000012db0 .LASF5048
C:\Users\CYMR90~1\AppData\Local\Temp\ccyjM0JL.s:22819  .debug_str:000000000000b119 .LASF5049
C:\Users\CYMR90~1\AppData\Local\Temp\ccyjM0JL.s:25341  .debug_str:000000000001512d .LASF5050
C:\Users\CYMR90~1\AppData\Local\Temp\ccyjM0JL.s:21867  .debug_str:0000000000007272 .LASF5051
C:\Users\CYMR90~1\AppData\Local\Temp\ccyjM0JL.s:26114  .debug_str:000000000001822a .LASF5052
C:\Users\CYMR90~1\AppData\Local\Temp\ccyjM0JL.s:23977  .debug_str:000000000000fa61 .LASF5053
C:\Users\CYMR90~1\AppData\Local\Temp\ccyjM0JL.s:25503  .debug_str:0000000000015a7c .LASF5054
C:\Users\CYMR90~1\AppData\Local\Temp\ccyjM0JL.s:22015  .debug_str:0000000000007c3c .LASF5055
C:\Users\CYMR90~1\AppData\Local\Temp\ccyjM0JL.s:26782  .debug_str:000000000001aea2 .LASF5056
C:\Users\CYMR90~1\AppData\Local\Temp\ccyjM0JL.s:31446  .debug_str:000000000002d4b8 .LASF5057
C:\Users\CYMR90~1\AppData\Local\Temp\ccyjM0JL.s:20941  .debug_str:000000000000386c .LASF5058
C:\Users\CYMR90~1\AppData\Local\Temp\ccyjM0JL.s:24625  .debug_str:000000000001242a .LASF5059
C:\Users\CYMR90~1\AppData\Local\Temp\ccyjM0JL.s:21923  .debug_str:0000000000007630 .LASF5060
C:\Users\CYMR90~1\AppData\Local\Temp\ccyjM0JL.s:21309  .debug_str:00000000000050c6 .LASF5061
C:\Users\CYMR90~1\AppData\Local\Temp\ccyjM0JL.s:20519  .debug_str:0000000000001e45 .LASF5062
C:\Users\CYMR90~1\AppData\Local\Temp\ccyjM0JL.s:22491  .debug_str:0000000000009b1e .LASF5063
C:\Users\CYMR90~1\AppData\Local\Temp\ccyjM0JL.s:23399  .debug_str:000000000000d738 .LASF5064
C:\Users\CYMR90~1\AppData\Local\Temp\ccyjM0JL.s:20593  .debug_str:000000000000220e .LASF5065
C:\Users\CYMR90~1\AppData\Local\Temp\ccyjM0JL.s:30592  .debug_str:0000000000029eda .LASF5066
C:\Users\CYMR90~1\AppData\Local\Temp\ccyjM0JL.s:28212  .debug_str:0000000000020863 .LASF5067
C:\Users\CYMR90~1\AppData\Local\Temp\ccyjM0JL.s:29948  .debug_str:000000000002755c .LASF5068
C:\Users\CYMR90~1\AppData\Local\Temp\ccyjM0JL.s:20459  .debug_str:0000000000001a8b .LASF5069
C:\Users\CYMR90~1\AppData\Local\Temp\ccyjM0JL.s:23997  .debug_str:000000000000fb78 .LASF5070
C:\Users\CYMR90~1\AppData\Local\Temp\ccyjM0JL.s:22379  .debug_str:00000000000093db .LASF5071
C:\Users\CYMR90~1\AppData\Local\Temp\ccyjM0JL.s:29394  .debug_str:00000000000250e2 .LASF5072
C:\Users\CYMR90~1\AppData\Local\Temp\ccyjM0JL.s:30882  .debug_str:000000000002b01c .LASF5073
C:\Users\CYMR90~1\AppData\Local\Temp\ccyjM0JL.s:25836  .debug_str:00000000000171e1 .LASF5074
C:\Users\CYMR90~1\AppData\Local\Temp\ccyjM0JL.s:25946  .debug_str:00000000000177fc .LASF5075
C:\Users\CYMR90~1\AppData\Local\Temp\ccyjM0JL.s:27514  .debug_str:000000000001ddd7 .LASF5076
C:\Users\CYMR90~1\AppData\Local\Temp\ccyjM0JL.s:22619  .debug_str:000000000000a2eb .LASF5077
C:\Users\CYMR90~1\AppData\Local\Temp\ccyjM0JL.s:27954  .debug_str:000000000001f868 .LASF5078
C:\Users\CYMR90~1\AppData\Local\Temp\ccyjM0JL.s:29154  .debug_str:0000000000024091 .LASF5079
C:\Users\CYMR90~1\AppData\Local\Temp\ccyjM0JL.s:24761  .debug_str:0000000000012d43 .LASF5080
C:\Users\CYMR90~1\AppData\Local\Temp\ccyjM0JL.s:20945  .debug_str:00000000000038a5 .LASF5081
C:\Users\CYMR90~1\AppData\Local\Temp\ccyjM0JL.s:21127  .debug_str:000000000000449c .LASF5082
C:\Users\CYMR90~1\AppData\Local\Temp\ccyjM0JL.s:30100  .debug_str:0000000000027f78 .LASF5083
C:\Users\CYMR90~1\AppData\Local\Temp\ccyjM0JL.s:24413  .debug_str:0000000000011581 .LASF5084
C:\Users\CYMR90~1\AppData\Local\Temp\ccyjM0JL.s:22991  .debug_str:000000000000bc1b .LASF5085
C:\Users\CYMR90~1\AppData\Local\Temp\ccyjM0JL.s:29146  .debug_str:0000000000024014 .LASF5086
C:\Users\CYMR90~1\AppData\Local\Temp\ccyjM0JL.s:29254  .debug_str:00000000000247d3 .LASF5087
C:\Users\CYMR90~1\AppData\Local\Temp\ccyjM0JL.s:25475  .debug_str:00000000000158c1 .LASF5088
C:\Users\CYMR90~1\AppData\Local\Temp\ccyjM0JL.s:20969  .debug_str:0000000000003a30 .LASF5089
C:\Users\CYMR90~1\AppData\Local\Temp\ccyjM0JL.s:25816  .debug_str:00000000000170ab .LASF5090
C:\Users\CYMR90~1\AppData\Local\Temp\ccyjM0JL.s:20915  .debug_str:00000000000036de .LASF5091
C:\Users\CYMR90~1\AppData\Local\Temp\ccyjM0JL.s:21245  .debug_str:0000000000004cf0 .LASF5092
C:\Users\CYMR90~1\AppData\Local\Temp\ccyjM0JL.s:21637  .debug_str:0000000000006419 .LASF5093
C:\Users\CYMR90~1\AppData\Local\Temp\ccyjM0JL.s:29738  .debug_str:000000000002681c .LASF5094
C:\Users\CYMR90~1\AppData\Local\Temp\ccyjM0JL.s:30660  .debug_str:000000000002a2c1 .LASF5095
C:\Users\CYMR90~1\AppData\Local\Temp\ccyjM0JL.s:20153  .debug_str:000000000000073c .LASF5096
C:\Users\CYMR90~1\AppData\Local\Temp\ccyjM0JL.s:26698  .debug_str:000000000001a990 .LASF5097
C:\Users\CYMR90~1\AppData\Local\Temp\ccyjM0JL.s:31146  .debug_str:000000000002c0c5 .LASF5098
C:\Users\CYMR90~1\AppData\Local\Temp\ccyjM0JL.s:22803  .debug_str:000000000000af78 .LASF5099
C:\Users\CYMR90~1\AppData\Local\Temp\ccyjM0JL.s:21723  .debug_str:0000000000006978 .LASF5100
C:\Users\CYMR90~1\AppData\Local\Temp\ccyjM0JL.s:30048  .debug_str:0000000000027bbb .LASF5101
C:\Users\CYMR90~1\AppData\Local\Temp\ccyjM0JL.s:26724  .debug_str:000000000001ab11 .LASF5102
C:\Users\CYMR90~1\AppData\Local\Temp\ccyjM0JL.s:27860  .debug_str:000000000001f2da .LASF5103
C:\Users\CYMR90~1\AppData\Local\Temp\ccyjM0JL.s:26990  .debug_str:000000000001bbdb .LASF5104
C:\Users\CYMR90~1\AppData\Local\Temp\ccyjM0JL.s:21427  .debug_str:00000000000057d1 .LASF5105
C:\Users\CYMR90~1\AppData\Local\Temp\ccyjM0JL.s:28918  .debug_str:00000000000232df .LASF5106
C:\Users\CYMR90~1\AppData\Local\Temp\ccyjM0JL.s:28936  .debug_str:00000000000233b7 .LASF5107
C:\Users\CYMR90~1\AppData\Local\Temp\ccyjM0JL.s:29426  .debug_str:00000000000252af .LASF5108
C:\Users\CYMR90~1\AppData\Local\Temp\ccyjM0JL.s:30360  .debug_str:00000000000290e8 .LASF5109
C:\Users\CYMR90~1\AppData\Local\Temp\ccyjM0JL.s:28976  .debug_str:000000000002360b .LASF5110
C:\Users\CYMR90~1\AppData\Local\Temp\ccyjM0JL.s:30482  .debug_str:000000000002985b .LASF5111
C:\Users\CYMR90~1\AppData\Local\Temp\ccyjM0JL.s:24839  .debug_str:000000000001323c .LASF5112
C:\Users\CYMR90~1\AppData\Local\Temp\ccyjM0JL.s:24665  .debug_str:00000000000126bb .LASF5113
C:\Users\CYMR90~1\AppData\Local\Temp\ccyjM0JL.s:28496  .debug_str:0000000000021988 .LASF5114
C:\Users\CYMR90~1\AppData\Local\Temp\ccyjM0JL.s:31416  .debug_str:000000000002d2ce .LASF5115
C:\Users\CYMR90~1\AppData\Local\Temp\ccyjM0JL.s:24843  .debug_str:0000000000013280 .LASF5116
C:\Users\CYMR90~1\AppData\Local\Temp\ccyjM0JL.s:27502  .debug_str:000000000001dd1c .LASF5117
C:\Users\CYMR90~1\AppData\Local\Temp\ccyjM0JL.s:21301  .debug_str:0000000000005052 .LASF5118
C:\Users\CYMR90~1\AppData\Local\Temp\ccyjM0JL.s:28480  .debug_str:0000000000021891 .LASF5119
C:\Users\CYMR90~1\AppData\Local\Temp\ccyjM0JL.s:25753  .debug_str:0000000000016a9e .LASF5120
C:\Users\CYMR90~1\AppData\Local\Temp\ccyjM0JL.s:20813  .debug_str:0000000000003034 .LASF5121
C:\Users\CYMR90~1\AppData\Local\Temp\ccyjM0JL.s:27764  .debug_str:000000000001ece4 .LASF5122
C:\Users\CYMR90~1\AppData\Local\Temp\ccyjM0JL.s:28724  .debug_str:0000000000022709 .LASF5123
C:\Users\CYMR90~1\AppData\Local\Temp\ccyjM0JL.s:21591  .debug_str:0000000000006158 .LASF5124
C:\Users\CYMR90~1\AppData\Local\Temp\ccyjM0JL.s:29184  .debug_str:000000000002422f .LASF5125
C:\Users\CYMR90~1\AppData\Local\Temp\ccyjM0JL.s:27394  .debug_str:000000000001d64b .LASF5126
C:\Users\CYMR90~1\AppData\Local\Temp\ccyjM0JL.s:27374  .debug_str:000000000001d518 .LASF5127
C:\Users\CYMR90~1\AppData\Local\Temp\ccyjM0JL.s:20299  .debug_str:0000000000001079 .LASF5128
C:\Users\CYMR90~1\AppData\Local\Temp\ccyjM0JL.s:24717  .debug_str:0000000000012a38 .LASF5129
C:\Users\CYMR90~1\AppData\Local\Temp\ccyjM0JL.s:20475  .debug_str:0000000000001b7a .LASF5130
C:\Users\CYMR90~1\AppData\Local\Temp\ccyjM0JL.s:21893  .debug_str:0000000000007462 .LASF5131
C:\Users\CYMR90~1\AppData\Local\Temp\ccyjM0JL.s:26706  .debug_str:000000000001a9f4 .LASF5132
C:\Users\CYMR90~1\AppData\Local\Temp\ccyjM0JL.s:30606  .debug_str:0000000000029fb3 .LASF5133
C:\Users\CYMR90~1\AppData\Local\Temp\ccyjM0JL.s:23179  .debug_str:000000000000c850 .LASF5134
C:\Users\CYMR90~1\AppData\Local\Temp\ccyjM0JL.s:22787  .debug_str:000000000000ae3b .LASF5135
C:\Users\CYMR90~1\AppData\Local\Temp\ccyjM0JL.s:23811  .debug_str:000000000000efa0 .LASF5136
C:\Users\CYMR90~1\AppData\Local\Temp\ccyjM0JL.s:21763  .debug_str:0000000000006bd4 .LASF5137
C:\Users\CYMR90~1\AppData\Local\Temp\ccyjM0JL.s:29788  .debug_str:0000000000026b82 .LASF5138
C:\Users\CYMR90~1\AppData\Local\Temp\ccyjM0JL.s:20651  .debug_str:00000000000025b1 .LASF5139
C:\Users\CYMR90~1\AppData\Local\Temp\ccyjM0JL.s:28964  .debug_str:0000000000023543 .LASF5140
C:\Users\CYMR90~1\AppData\Local\Temp\ccyjM0JL.s:25739  .debug_str:0000000000016974 .LASF5141
C:\Users\CYMR90~1\AppData\Local\Temp\ccyjM0JL.s:23301  .debug_str:000000000000d05b .LASF5142
C:\Users\CYMR90~1\AppData\Local\Temp\ccyjM0JL.s:23995  .debug_str:000000000000fb58 .LASF5143
C:\Users\CYMR90~1\AppData\Local\Temp\ccyjM0JL.s:30144  .debug_str:000000000002826e .LASF5144
C:\Users\CYMR90~1\AppData\Local\Temp\ccyjM0JL.s:21975  .debug_str:0000000000007992 .LASF5145
C:\Users\CYMR90~1\AppData\Local\Temp\ccyjM0JL.s:23417  .debug_str:000000000000d88a .LASF5146
C:\Users\CYMR90~1\AppData\Local\Temp\ccyjM0JL.s:31334  .debug_str:000000000002cd60 .LASF5147
C:\Users\CYMR90~1\AppData\Local\Temp\ccyjM0JL.s:23037  .debug_str:000000000000bf9f .LASF5148
C:\Users\CYMR90~1\AppData\Local\Temp\ccyjM0JL.s:22593  .debug_str:000000000000a15a .LASF5149
C:\Users\CYMR90~1\AppData\Local\Temp\ccyjM0JL.s:30052  .debug_str:0000000000027c13 .LASF5150
C:\Users\CYMR90~1\AppData\Local\Temp\ccyjM0JL.s:24451  .debug_str:00000000000117f7 .LASF5151
C:\Users\CYMR90~1\AppData\Local\Temp\ccyjM0JL.s:21221  .debug_str:0000000000004b6d .LASF5152
C:\Users\CYMR90~1\AppData\Local\Temp\ccyjM0JL.s:22535  .debug_str:0000000000009db0 .LASF5153
C:\Users\CYMR90~1\AppData\Local\Temp\ccyjM0JL.s:26356  .debug_str:0000000000019266 .LASF5154
C:\Users\CYMR90~1\AppData\Local\Temp\ccyjM0JL.s:27336  .debug_str:000000000001d2da .LASF5155
C:\Users\CYMR90~1\AppData\Local\Temp\ccyjM0JL.s:27558  .debug_str:000000000001e09c .LASF5156
C:\Users\CYMR90~1\AppData\Local\Temp\ccyjM0JL.s:23257  .debug_str:000000000000cddc .LASF5157
C:\Users\CYMR90~1\AppData\Local\Temp\ccyjM0JL.s:20745  .debug_str:0000000000002bf2 .LASF5158
C:\Users\CYMR90~1\AppData\Local\Temp\ccyjM0JL.s:23649  .debug_str:000000000000e629 .LASF5159
C:\Users\CYMR90~1\AppData\Local\Temp\ccyjM0JL.s:26528  .debug_str:0000000000019d8a .LASF5160
C:\Users\CYMR90~1\AppData\Local\Temp\ccyjM0JL.s:26274  .debug_str:0000000000018bd0 .LASF5161
C:\Users\CYMR90~1\AppData\Local\Temp\ccyjM0JL.s:29038  .debug_str:00000000000239da .LASF5162
C:\Users\CYMR90~1\AppData\Local\Temp\ccyjM0JL.s:21181  .debug_str:000000000000483b .LASF5163
C:\Users\CYMR90~1\AppData\Local\Temp\ccyjM0JL.s:20225  .debug_str:0000000000000bbd .LASF5164
C:\Users\CYMR90~1\AppData\Local\Temp\ccyjM0JL.s:22221  .debug_str:0000000000008a43 .LASF5165
C:\Users\CYMR90~1\AppData\Local\Temp\ccyjM0JL.s:25301  .debug_str:0000000000014e93 .LASF5166
C:\Users\CYMR90~1\AppData\Local\Temp\ccyjM0JL.s:31208  .debug_str:000000000002c517 .LASF5167
C:\Users\CYMR90~1\AppData\Local\Temp\ccyjM0JL.s:22123  .debug_str:000000000000843e .LASF5168
C:\Users\CYMR90~1\AppData\Local\Temp\ccyjM0JL.s:22679  .debug_str:000000000000a6ae .LASF5169
C:\Users\CYMR90~1\AppData\Local\Temp\ccyjM0JL.s:26362  .debug_str:00000000000192c8 .LASF5170
C:\Users\CYMR90~1\AppData\Local\Temp\ccyjM0JL.s:23589  .debug_str:000000000000e28c .LASF5171
C:\Users\CYMR90~1\AppData\Local\Temp\ccyjM0JL.s:31256  .debug_str:000000000002c898 .LASF5172
C:\Users\CYMR90~1\AppData\Local\Temp\ccyjM0JL.s:20463  .debug_str:0000000000001ac9 .LASF5173
C:\Users\CYMR90~1\AppData\Local\Temp\ccyjM0JL.s:30134  .debug_str:00000000000281bd .LASF5174
C:\Users\CYMR90~1\AppData\Local\Temp\ccyjM0JL.s:27456  .debug_str:000000000001da6f .LASF5175
C:\Users\CYMR90~1\AppData\Local\Temp\ccyjM0JL.s:25796  .debug_str:0000000000016f56 .LASF5176
C:\Users\CYMR90~1\AppData\Local\Temp\ccyjM0JL.s:22643  .debug_str:000000000000a495 .LASF5177
C:\Users\CYMR90~1\AppData\Local\Temp\ccyjM0JL.s:28544  .debug_str:0000000000021c5c .LASF5178
C:\Users\CYMR90~1\AppData\Local\Temp\ccyjM0JL.s:28096  .debug_str:0000000000020115 .LASF5179
C:\Users\CYMR90~1\AppData\Local\Temp\ccyjM0JL.s:24965  .debug_str:0000000000013a6c .LASF5180
C:\Users\CYMR90~1\AppData\Local\Temp\ccyjM0JL.s:24941  .debug_str:00000000000138ef .LASF5181
C:\Users\CYMR90~1\AppData\Local\Temp\ccyjM0JL.s:29224  .debug_str:00000000000245cf .LASF5182
C:\Users\CYMR90~1\AppData\Local\Temp\ccyjM0JL.s:29740  .debug_str:0000000000026837 .LASF5183
C:\Users\CYMR90~1\AppData\Local\Temp\ccyjM0JL.s:20713  .debug_str:00000000000029e5 .LASF5184
C:\Users\CYMR90~1\AppData\Local\Temp\ccyjM0JL.s:24515  .debug_str:0000000000011cca .LASF5185
C:\Users\CYMR90~1\AppData\Local\Temp\ccyjM0JL.s:29798  .debug_str:0000000000026c0c .LASF5186
C:\Users\CYMR90~1\AppData\Local\Temp\ccyjM0JL.s:20861  .debug_str:000000000000333e .LASF5187
C:\Users\CYMR90~1\AppData\Local\Temp\ccyjM0JL.s:28020  .debug_str:000000000001fc46 .LASF5188
C:\Users\CYMR90~1\AppData\Local\Temp\ccyjM0JL.s:24927  .debug_str:0000000000013842 .LASF5189
C:\Users\CYMR90~1\AppData\Local\Temp\ccyjM0JL.s:30476  .debug_str:00000000000297df .LASF5190
C:\Users\CYMR90~1\AppData\Local\Temp\ccyjM0JL.s:22625  .debug_str:000000000000a342 .LASF5191
C:\Users\CYMR90~1\AppData\Local\Temp\ccyjM0JL.s:26352  .debug_str:0000000000019213 .LASF5192
C:\Users\CYMR90~1\AppData\Local\Temp\ccyjM0JL.s:30734  .debug_str:000000000002a6ff .LASF5193
C:\Users\CYMR90~1\AppData\Local\Temp\ccyjM0JL.s:23597  .debug_str:000000000000e30d .LASF5194
C:\Users\CYMR90~1\AppData\Local\Temp\ccyjM0JL.s:30726  .debug_str:000000000002a689 .LASF5195
C:\Users\CYMR90~1\AppData\Local\Temp\ccyjM0JL.s:20791  .debug_str:0000000000002ee1 .LASF5196
C:\Users\CYMR90~1\AppData\Local\Temp\ccyjM0JL.s:26784  .debug_str:000000000001aeba .LASF5197
C:\Users\CYMR90~1\AppData\Local\Temp\ccyjM0JL.s:23907  .debug_str:000000000000f58a .LASF5198
C:\Users\CYMR90~1\AppData\Local\Temp\ccyjM0JL.s:25107  .debug_str:0000000000014316 .LASF5199
C:\Users\CYMR90~1\AppData\Local\Temp\ccyjM0JL.s:30366  .debug_str:000000000002914e .LASF5200
C:\Users\CYMR90~1\AppData\Local\Temp\ccyjM0JL.s:22351  .debug_str:0000000000009222 .LASF5201
C:\Users\CYMR90~1\AppData\Local\Temp\ccyjM0JL.s:20285  .debug_str:0000000000000fab .LASF5202
C:\Users\CYMR90~1\AppData\Local\Temp\ccyjM0JL.s:30778  .debug_str:000000000002aa01 .LASF5203
C:\Users\CYMR90~1\AppData\Local\Temp\ccyjM0JL.s:21175  .debug_str:00000000000047c3 .LASF5204
C:\Users\CYMR90~1\AppData\Local\Temp\ccyjM0JL.s:29512  .debug_str:00000000000259c0 .LASF5205
C:\Users\CYMR90~1\AppData\Local\Temp\ccyjM0JL.s:27976  .debug_str:000000000001f985 .LASF5206
C:\Users\CYMR90~1\AppData\Local\Temp\ccyjM0JL.s:27132  .debug_str:000000000001c4b6 .LASF5207
C:\Users\CYMR90~1\AppData\Local\Temp\ccyjM0JL.s:28114  .debug_str:0000000000020227 .LASF5208
C:\Users\CYMR90~1\AppData\Local\Temp\ccyjM0JL.s:31396  .debug_str:000000000002d1c5 .LASF5209
C:\Users\CYMR90~1\AppData\Local\Temp\ccyjM0JL.s:20919  .debug_str:000000000000370d .LASF5210
C:\Users\CYMR90~1\AppData\Local\Temp\ccyjM0JL.s:27724  .debug_str:000000000001ea95 .LASF5211
C:\Users\CYMR90~1\AppData\Local\Temp\ccyjM0JL.s:28514  .debug_str:0000000000021ac9 .LASF5212
C:\Users\CYMR90~1\AppData\Local\Temp\ccyjM0JL.s:20485  .debug_str:0000000000001c24 .LASF5213
C:\Users\CYMR90~1\AppData\Local\Temp\ccyjM0JL.s:24757  .debug_str:0000000000012cf6 .LASF5214
C:\Users\CYMR90~1\AppData\Local\Temp\ccyjM0JL.s:26060  .debug_str:0000000000017efa .LASF5215
C:\Users\CYMR90~1\AppData\Local\Temp\ccyjM0JL.s:24249  .debug_str:0000000000010b8a .LASF5216
C:\Users\CYMR90~1\AppData\Local\Temp\ccyjM0JL.s:26164  .debug_str:00000000000184eb .LASF5217
C:\Users\CYMR90~1\AppData\Local\Temp\ccyjM0JL.s:26746  .debug_str:000000000001ac91 .LASF5218
C:\Users\CYMR90~1\AppData\Local\Temp\ccyjM0JL.s:28120  .debug_str:0000000000020288 .LASF5219
C:\Users\CYMR90~1\AppData\Local\Temp\ccyjM0JL.s:20351  .debug_str:0000000000001360 .LASF5220
C:\Users\CYMR90~1\AppData\Local\Temp\ccyjM0JL.s:25221  .debug_str:00000000000149f4 .LASF5221
C:\Users\CYMR90~1\AppData\Local\Temp\ccyjM0JL.s:26600  .debug_str:000000000001a1c4 .LASF5222
C:\Users\CYMR90~1\AppData\Local\Temp\ccyjM0JL.s:21389  .debug_str:000000000000558d .LASF5223
C:\Users\CYMR90~1\AppData\Local\Temp\ccyjM0JL.s:29246  .debug_str:0000000000024741 .LASF5224
C:\Users\CYMR90~1\AppData\Local\Temp\ccyjM0JL.s:30138  .debug_str:0000000000028200 .LASF5225
C:\Users\CYMR90~1\AppData\Local\Temp\ccyjM0JL.s:21995  .debug_str:0000000000007ad1 .LASF5226
C:\Users\CYMR90~1\AppData\Local\Temp\ccyjM0JL.s:31216  .debug_str:000000000002c5be .LASF5227
C:\Users\CYMR90~1\AppData\Local\Temp\ccyjM0JL.s:20599  .debug_str:0000000000002272 .LASF5228
C:\Users\CYMR90~1\AppData\Local\Temp\ccyjM0JL.s:25982  .debug_str:0000000000017a49 .LASF5229
C:\Users\CYMR90~1\AppData\Local\Temp\ccyjM0JL.s:22103  .debug_str:0000000000008302 .LASF5230
C:\Users\CYMR90~1\AppData\Local\Temp\ccyjM0JL.s:21691  .debug_str:000000000000673d .LASF5231
C:\Users\CYMR90~1\AppData\Local\Temp\ccyjM0JL.s:21293  .debug_str:0000000000004fc7 .LASF5232
C:\Users\CYMR90~1\AppData\Local\Temp\ccyjM0JL.s:29958  .debug_str:0000000000027695 .LASF5233
C:\Users\CYMR90~1\AppData\Local\Temp\ccyjM0JL.s:26106  .debug_str:0000000000018192 .LASF5234
C:\Users\CYMR90~1\AppData\Local\Temp\ccyjM0JL.s:24695  .debug_str:00000000000128ce .LASF5235
C:\Users\CYMR90~1\AppData\Local\Temp\ccyjM0JL.s:23207  .debug_str:000000000000ca72 .LASF5236
C:\Users\CYMR90~1\AppData\Local\Temp\ccyjM0JL.s:27706  .debug_str:000000000001e95f .LASF5237
C:\Users\CYMR90~1\AppData\Local\Temp\ccyjM0JL.s:22349  .debug_str:00000000000091f1 .LASF5238
C:\Users\CYMR90~1\AppData\Local\Temp\ccyjM0JL.s:30946  .debug_str:000000000002b3b6 .LASF5239
C:\Users\CYMR90~1\AppData\Local\Temp\ccyjM0JL.s:27698  .debug_str:000000000001e8ad .LASF5240
C:\Users\CYMR90~1\AppData\Local\Temp\ccyjM0JL.s:22193  .debug_str:000000000000886f .LASF5241
C:\Users\CYMR90~1\AppData\Local\Temp\ccyjM0JL.s:30044  .debug_str:0000000000027b89 .LASF5242
C:\Users\CYMR90~1\AppData\Local\Temp\ccyjM0JL.s:31438  .debug_str:000000000002d436 .LASF5243
C:\Users\CYMR90~1\AppData\Local\Temp\ccyjM0JL.s:28030  .debug_str:000000000001fcec .LASF5244
C:\Users\CYMR90~1\AppData\Local\Temp\ccyjM0JL.s:30336  .debug_str:0000000000028f89 .LASF5245
C:\Users\CYMR90~1\AppData\Local\Temp\ccyjM0JL.s:21275  .debug_str:0000000000004ea4 .LASF5246
C:\Users\CYMR90~1\AppData\Local\Temp\ccyjM0JL.s:21611  .debug_str:00000000000062a1 .LASF5247
C:\Users\CYMR90~1\AppData\Local\Temp\ccyjM0JL.s:26620  .debug_str:000000000001a2db .LASF5248
C:\Users\CYMR90~1\AppData\Local\Temp\ccyjM0JL.s:25309  .debug_str:0000000000014f4d .LASF5249
C:\Users\CYMR90~1\AppData\Local\Temp\ccyjM0JL.s:24045  .debug_str:000000000000fe7b .LASF5250
C:\Users\CYMR90~1\AppData\Local\Temp\ccyjM0JL.s:30796  .debug_str:000000000002ab13 .LASF5251
C:\Users\CYMR90~1\AppData\Local\Temp\ccyjM0JL.s:27746  .debug_str:000000000001ebdc .LASF5252
C:\Users\CYMR90~1\AppData\Local\Temp\ccyjM0JL.s:28582  .debug_str:0000000000021edb .LASF5253
C:\Users\CYMR90~1\AppData\Local\Temp\ccyjM0JL.s:26820  .debug_str:000000000001b16a .LASF5254
C:\Users\CYMR90~1\AppData\Local\Temp\ccyjM0JL.s:22397  .debug_str:00000000000094d4 .LASF5255
C:\Users\CYMR90~1\AppData\Local\Temp\ccyjM0JL.s:28398  .debug_str:00000000000212f6 .LASF5256
C:\Users\CYMR90~1\AppData\Local\Temp\ccyjM0JL.s:24475  .debug_str:0000000000011a05 .LASF5257
C:\Users\CYMR90~1\AppData\Local\Temp\ccyjM0JL.s:20697  .debug_str:00000000000028db .LASF5258
C:\Users\CYMR90~1\AppData\Local\Temp\ccyjM0JL.s:27754  .debug_str:000000000001ec56 .LASF5259
C:\Users\CYMR90~1\AppData\Local\Temp\ccyjM0JL.s:22635  .debug_str:000000000000a3e1 .LASF5260
C:\Users\CYMR90~1\AppData\Local\Temp\ccyjM0JL.s:20033  .debug_str:0000000000000000 .LASF5261
C:\Users\CYMR90~1\AppData\Local\Temp\ccyjM0JL.s:20495  .debug_str:0000000000001cc9 .LASF5262
C:\Users\CYMR90~1\AppData\Local\Temp\ccyjM0JL.s:30478  .debug_str:000000000002980c .LASF5263
C:\Users\CYMR90~1\AppData\Local\Temp\ccyjM0JL.s:29330  .debug_str:0000000000024cc9 .LASF5264
C:\Users\CYMR90~1\AppData\Local\Temp\ccyjM0JL.s:30108  .debug_str:0000000000027fef .LASF5265
C:\Users\CYMR90~1\AppData\Local\Temp\ccyjM0JL.s:21393  .debug_str:00000000000055d7 .LASF5266
C:\Users\CYMR90~1\AppData\Local\Temp\ccyjM0JL.s:25765  .debug_str:0000000000016b4a .LASF5267
C:\Users\CYMR90~1\AppData\Local\Temp\ccyjM0JL.s:28066  .debug_str:000000000001ff30 .LASF5268
C:\Users\CYMR90~1\AppData\Local\Temp\ccyjM0JL.s:26712  .debug_str:000000000001aa5d .LASF5269
C:\Users\CYMR90~1\AppData\Local\Temp\ccyjM0JL.s:31420  .debug_str:000000000002d310 .LASF5270
C:\Users\CYMR90~1\AppData\Local\Temp\ccyjM0JL.s:25890  .debug_str:00000000000174d0 .LASF5271
C:\Users\CYMR90~1\AppData\Local\Temp\ccyjM0JL.s:21579  .debug_str:000000000000607f .LASF5272
C:\Users\CYMR90~1\AppData\Local\Temp\ccyjM0JL.s:23867  .debug_str:000000000000f31e .LASF5273
C:\Users\CYMR90~1\AppData\Local\Temp\ccyjM0JL.s:24583  .debug_str:0000000000012104 .LASF5274
C:\Users\CYMR90~1\AppData\Local\Temp\ccyjM0JL.s:26222  .debug_str:0000000000018878 .LASF5275
C:\Users\CYMR90~1\AppData\Local\Temp\ccyjM0JL.s:28594  .debug_str:0000000000021f7f .LASF5276
C:\Users\CYMR90~1\AppData\Local\Temp\ccyjM0JL.s:29496  .debug_str:0000000000025885 .LASF5277
C:\Users\CYMR90~1\AppData\Local\Temp\ccyjM0JL.s:30294  .debug_str:0000000000028d10 .LASF5278
C:\Users\CYMR90~1\AppData\Local\Temp\ccyjM0JL.s:29742  .debug_str:0000000000026861 .LASF5279
C:\Users\CYMR90~1\AppData\Local\Temp\ccyjM0JL.s:24385  .debug_str:00000000000113db .LASF5280
C:\Users\CYMR90~1\AppData\Local\Temp\ccyjM0JL.s:23299  .debug_str:000000000000d02b .LASF5281
C:\Users\CYMR90~1\AppData\Local\Temp\ccyjM0JL.s:28232  .debug_str:0000000000020977 .LASF5282
C:\Users\CYMR90~1\AppData\Local\Temp\ccyjM0JL.s:23945  .debug_str:000000000000f856 .LASF5283
C:\Users\CYMR90~1\AppData\Local\Temp\ccyjM0JL.s:23263  .debug_str:000000000000ce3d .LASF5284
C:\Users\CYMR90~1\AppData\Local\Temp\ccyjM0JL.s:29718  .debug_str:00000000000266de .LASF5285
C:\Users\CYMR90~1\AppData\Local\Temp\ccyjM0JL.s:30800  .debug_str:000000000002ab70 .LASF5286
C:\Users\CYMR90~1\AppData\Local\Temp\ccyjM0JL.s:23069  .debug_str:000000000000c18a .LASF5287
C:\Users\CYMR90~1\AppData\Local\Temp\ccyjM0JL.s:20957  .debug_str:0000000000003989 .LASF5288
C:\Users\CYMR90~1\AppData\Local\Temp\ccyjM0JL.s:21883  .debug_str:00000000000073b2 .LASF5289
C:\Users\CYMR90~1\AppData\Local\Temp\ccyjM0JL.s:23949  .debug_str:000000000000f8a5 .LASF5290
C:\Users\CYMR90~1\AppData\Local\Temp\ccyjM0JL.s:21457  .debug_str:000000000000597f .LASF5291
C:\Users\CYMR90~1\AppData\Local\Temp\ccyjM0JL.s:22565  .debug_str:0000000000009f6d .LASF5292
C:\Users\CYMR90~1\AppData\Local\Temp\ccyjM0JL.s:24641  .debug_str:0000000000012544 .LASF5293
C:\Users\CYMR90~1\AppData\Local\Temp\ccyjM0JL.s:20785  .debug_str:0000000000002e85 .LASF5294
C:\Users\CYMR90~1\AppData\Local\Temp\ccyjM0JL.s:29576  .debug_str:0000000000025e6a .LASF5295
C:\Users\CYMR90~1\AppData\Local\Temp\ccyjM0JL.s:29970  .debug_str:0000000000027764 .LASF5296
C:\Users\CYMR90~1\AppData\Local\Temp\ccyjM0JL.s:24401  .debug_str:00000000000114ce .LASF5297
C:\Users\CYMR90~1\AppData\Local\Temp\ccyjM0JL.s:29458  .debug_str:00000000000255cf .LASF5298
C:\Users\CYMR90~1\AppData\Local\Temp\ccyjM0JL.s:28968  .debug_str:000000000002357c .LASF5299
C:\Users\CYMR90~1\AppData\Local\Temp\ccyjM0JL.s:27690  .debug_str:000000000001e82d .LASF5300
C:\Users\CYMR90~1\AppData\Local\Temp\ccyjM0JL.s:28612  .debug_str:00000000000220b8 .LASF5301
C:\Users\CYMR90~1\AppData\Local\Temp\ccyjM0JL.s:31444  .debug_str:000000000002d492 .LASF5302
C:\Users\CYMR90~1\AppData\Local\Temp\ccyjM0JL.s:28798  .debug_str:0000000000022b83 .LASF5303
C:\Users\CYMR90~1\AppData\Local\Temp\ccyjM0JL.s:29404  .debug_str:0000000000025172 .LASF5304
C:\Users\CYMR90~1\AppData\Local\Temp\ccyjM0JL.s:21979  .debug_str:00000000000079c5 .LASF5305
C:\Users\CYMR90~1\AppData\Local\Temp\ccyjM0JL.s:21329  .debug_str:00000000000051f3 .LASF5306
C:\Users\CYMR90~1\AppData\Local\Temp\ccyjM0JL.s:28828  .debug_str:0000000000022d48 .LASF5307
C:\Users\CYMR90~1\AppData\Local\Temp\ccyjM0JL.s:24705  .debug_str:0000000000012971 .LASF5308
C:\Users\CYMR90~1\AppData\Local\Temp\ccyjM0JL.s:29298  .debug_str:0000000000024a73 .LASF5309
C:\Users\CYMR90~1\AppData\Local\Temp\ccyjM0JL.s:30622  .debug_str:000000000002a0a1 .LASF5310
C:\Users\CYMR90~1\AppData\Local\Temp\ccyjM0JL.s:28882  .debug_str:00000000000230da .LASF5311
C:\Users\CYMR90~1\AppData\Local\Temp\ccyjM0JL.s:29542  .debug_str:0000000000025c53 .LASF5312
C:\Users\CYMR90~1\AppData\Local\Temp\ccyjM0JL.s:29592  .debug_str:0000000000025f46 .LASF5313
C:\Users\CYMR90~1\AppData\Local\Temp\ccyjM0JL.s:28350  .debug_str:000000000002106f .LASF5314
C:\Users\CYMR90~1\AppData\Local\Temp\ccyjM0JL.s:24041  .debug_str:000000000000fe35 .LASF5315
C:\Users\CYMR90~1\AppData\Local\Temp\ccyjM0JL.s:24217  .debug_str:000000000001096e .LASF5316
C:\Users\CYMR90~1\AppData\Local\Temp\ccyjM0JL.s:29422  .debug_str:0000000000025270 .LASF5317
C:\Users\CYMR90~1\AppData\Local\Temp\ccyjM0JL.s:22741  .debug_str:000000000000ab4c .LASF5318
C:\Users\CYMR90~1\AppData\Local\Temp\ccyjM0JL.s:24251  .debug_str:0000000000010ba9 .LASF5319
C:\Users\CYMR90~1\AppData\Local\Temp\ccyjM0JL.s:30888  .debug_str:000000000002b07c .LASF5320
C:\Users\CYMR90~1\AppData\Local\Temp\ccyjM0JL.s:22271  .debug_str:0000000000008d6a .LASF5321
C:\Users\CYMR90~1\AppData\Local\Temp\ccyjM0JL.s:24209  .debug_str:00000000000108ff .LASF5322
C:\Users\CYMR90~1\AppData\Local\Temp\ccyjM0JL.s:29600  .debug_str:0000000000025fb7 .LASF5323
C:\Users\CYMR90~1\AppData\Local\Temp\ccyjM0JL.s:20323  .debug_str:00000000000011f2 .LASF5324
C:\Users\CYMR90~1\AppData\Local\Temp\ccyjM0JL.s:25675  .debug_str:000000000001651b .LASF5325
C:\Users\CYMR90~1\AppData\Local\Temp\ccyjM0JL.s:25223  .debug_str:0000000000014a24 .LASF5326
C:\Users\CYMR90~1\AppData\Local\Temp\ccyjM0JL.s:30094  .debug_str:0000000000027f04 .LASF5327
C:\Users\CYMR90~1\AppData\Local\Temp\ccyjM0JL.s:23713  .debug_str:000000000000ea52 .LASF5328
C:\Users\CYMR90~1\AppData\Local\Temp\ccyjM0JL.s:30124  .debug_str:0000000000028126 .LASF5329
C:\Users\CYMR90~1\AppData\Local\Temp\ccyjM0JL.s:27710  .debug_str:000000000001e9b3 .LASF5330
C:\Users\CYMR90~1\AppData\Local\Temp\ccyjM0JL.s:24457  .debug_str:0000000000011854 .LASF5331
C:\Users\CYMR90~1\AppData\Local\Temp\ccyjM0JL.s:28018  .debug_str:000000000001fc15 .LASF5332
C:\Users\CYMR90~1\AppData\Local\Temp\ccyjM0JL.s:21311  .debug_str:00000000000050e4 .LASF5333
C:\Users\CYMR90~1\AppData\Local\Temp\ccyjM0JL.s:24999  .debug_str:0000000000013c4f .LASF5334
C:\Users\CYMR90~1\AppData\Local\Temp\ccyjM0JL.s:28060  .debug_str:000000000001fe99 .LASF5335
C:\Users\CYMR90~1\AppData\Local\Temp\ccyjM0JL.s:23573  .debug_str:000000000000e1a9 .LASF5336
C:\Users\CYMR90~1\AppData\Local\Temp\ccyjM0JL.s:24689  .debug_str:0000000000012856 .LASF5337
C:\Users\CYMR90~1\AppData\Local\Temp\ccyjM0JL.s:23691  .debug_str:000000000000e8fb .LASF5338
C:\Users\CYMR90~1\AppData\Local\Temp\ccyjM0JL.s:30512  .debug_str:0000000000029a52 .LASF5339
C:\Users\CYMR90~1\AppData\Local\Temp\ccyjM0JL.s:31296  .debug_str:000000000002cac5 .LASF5340
C:\Users\CYMR90~1\AppData\Local\Temp\ccyjM0JL.s:23723  .debug_str:000000000000eac6 .LASF5341
C:\Users\CYMR90~1\AppData\Local\Temp\ccyjM0JL.s:20405  .debug_str:0000000000001688 .LASF5342
C:\Users\CYMR90~1\AppData\Local\Temp\ccyjM0JL.s:26870  .debug_str:000000000001b4d1 .LASF5343
C:\Users\CYMR90~1\AppData\Local\Temp\ccyjM0JL.s:29924  .debug_str:00000000000273c5 .LASF5344
C:\Users\CYMR90~1\AppData\Local\Temp\ccyjM0JL.s:26754  .debug_str:000000000001acf4 .LASF5345
C:\Users\CYMR90~1\AppData\Local\Temp\ccyjM0JL.s:27762  .debug_str:000000000001ecce .LASF5346
C:\Users\CYMR90~1\AppData\Local\Temp\ccyjM0JL.s:20247  .debug_str:0000000000000cf4 .LASF5347
C:\Users\CYMR90~1\AppData\Local\Temp\ccyjM0JL.s:28368  .debug_str:0000000000021156 .LASF5348
C:\Users\CYMR90~1\AppData\Local\Temp\ccyjM0JL.s:23211  .debug_str:000000000000cae6 .LASF5349
C:\Users\CYMR90~1\AppData\Local\Temp\ccyjM0JL.s:25537  .debug_str:0000000000015c63 .LASF5350
C:\Users\CYMR90~1\AppData\Local\Temp\ccyjM0JL.s:23971  .debug_str:000000000000fa10 .LASF5351
C:\Users\CYMR90~1\AppData\Local\Temp\ccyjM0JL.s:26160  .debug_str:00000000000184bb .LASF5352
C:\Users\CYMR90~1\AppData\Local\Temp\ccyjM0JL.s:30786  .debug_str:000000000002aa84 .LASF5353
C:\Users\CYMR90~1\AppData\Local\Temp\ccyjM0JL.s:24923  .debug_str:0000000000013805 .LASF5354
C:\Users\CYMR90~1\AppData\Local\Temp\ccyjM0JL.s:27944  .debug_str:000000000001f7ce .LASF5355
C:\Users\CYMR90~1\AppData\Local\Temp\ccyjM0JL.s:21955  .debug_str:0000000000007849 .LASF5356
C:\Users\CYMR90~1\AppData\Local\Temp\ccyjM0JL.s:30682  .debug_str:000000000002a44e .LASF5357
C:\Users\CYMR90~1\AppData\Local\Temp\ccyjM0JL.s:21825  .debug_str:0000000000006fc0 .LASF5358
C:\Users\CYMR90~1\AppData\Local\Temp\ccyjM0JL.s:30002  .debug_str:0000000000027938 .LASF5359
C:\Users\CYMR90~1\AppData\Local\Temp\ccyjM0JL.s:30490  .debug_str:00000000000298c7 .LASF5360
C:\Users\CYMR90~1\AppData\Local\Temp\ccyjM0JL.s:28710  .debug_str:0000000000022668 .LASF5361
C:\Users\CYMR90~1\AppData\Local\Temp\ccyjM0JL.s:25449  .debug_str:000000000001573a .LASF5362
C:\Users\CYMR90~1\AppData\Local\Temp\ccyjM0JL.s:22277  .debug_str:0000000000008db1 .LASF5363
C:\Users\CYMR90~1\AppData\Local\Temp\ccyjM0JL.s:20871  .debug_str:00000000000033ea .LASF5364
C:\Users\CYMR90~1\AppData\Local\Temp\ccyjM0JL.s:31204  .debug_str:000000000002c4e7 .LASF5365
C:\Users\CYMR90~1\AppData\Local\Temp\ccyjM0JL.s:22457  .debug_str:00000000000098ae .LASF5366
C:\Users\CYMR90~1\AppData\Local\Temp\ccyjM0JL.s:22281  .debug_str:0000000000008dd8 .LASF5367
C:\Users\CYMR90~1\AppData\Local\Temp\ccyjM0JL.s:30692  .debug_str:000000000002a4bb .LASF5368
C:\Users\CYMR90~1\AppData\Local\Temp\ccyjM0JL.s:20411  .debug_str:0000000000001709 .LASF5369
C:\Users\CYMR90~1\AppData\Local\Temp\ccyjM0JL.s:30378  .debug_str:0000000000029241 .LASF5370
C:\Users\CYMR90~1\AppData\Local\Temp\ccyjM0JL.s:22395  .debug_str:00000000000094bc .LASF5371
C:\Users\CYMR90~1\AppData\Local\Temp\ccyjM0JL.s:31100  .debug_str:000000000002bddc .LASF5372
C:\Users\CYMR90~1\AppData\Local\Temp\ccyjM0JL.s:29662  .debug_str:00000000000263ae .LASF5373
C:\Users\CYMR90~1\AppData\Local\Temp\ccyjM0JL.s:23953  .debug_str:000000000000f8fb .LASF5374
C:\Users\CYMR90~1\AppData\Local\Temp\ccyjM0JL.s:21157  .debug_str:000000000000468e .LASF5375
C:\Users\CYMR90~1\AppData\Local\Temp\ccyjM0JL.s:26714  .debug_str:000000000001aa84 .LASF5376
C:\Users\CYMR90~1\AppData\Local\Temp\ccyjM0JL.s:29416  .debug_str:0000000000025230 .LASF5377
C:\Users\CYMR90~1\AppData\Local\Temp\ccyjM0JL.s:23891  .debug_str:000000000000f4b4 .LASF5378
C:\Users\CYMR90~1\AppData\Local\Temp\ccyjM0JL.s:20151  .debug_str:0000000000000724 .LASF5379
C:\Users\CYMR90~1\AppData\Local\Temp\ccyjM0JL.s:20097  .debug_str:00000000000003ff .LASF5380
C:\Users\CYMR90~1\AppData\Local\Temp\ccyjM0JL.s:20455  .debug_str:0000000000001a52 .LASF5381
C:\Users\CYMR90~1\AppData\Local\Temp\ccyjM0JL.s:29052  .debug_str:0000000000023ae0 .LASF5382
C:\Users\CYMR90~1\AppData\Local\Temp\ccyjM0JL.s:29714  .debug_str:000000000002669d .LASF5383
C:\Users\CYMR90~1\AppData\Local\Temp\ccyjM0JL.s:24807  .debug_str:0000000000013018 .LASF5384
C:\Users\CYMR90~1\AppData\Local\Temp\ccyjM0JL.s:26748  .debug_str:000000000001acb5 .LASF5385
C:\Users\CYMR90~1\AppData\Local\Temp\ccyjM0JL.s:20739  .debug_str:0000000000002b85 .LASF5386
C:\Users\CYMR90~1\AppData\Local\Temp\ccyjM0JL.s:25543  .debug_str:0000000000015cfc .LASF5387
C:\Users\CYMR90~1\AppData\Local\Temp\ccyjM0JL.s:28148  .debug_str:0000000000020400 .LASF5388
C:\Users\CYMR90~1\AppData\Local\Temp\ccyjM0JL.s:30656  .debug_str:000000000002a291 .LASF5389
C:\Users\CYMR90~1\AppData\Local\Temp\ccyjM0JL.s:22181  .debug_str:00000000000087bd .LASF5390
C:\Users\CYMR90~1\AppData\Local\Temp\ccyjM0JL.s:28854  .debug_str:0000000000022f39 .LASF5391
C:\Users\CYMR90~1\AppData\Local\Temp\ccyjM0JL.s:28126  .debug_str:00000000000202d4 .LASF5392
C:\Users\CYMR90~1\AppData\Local\Temp\ccyjM0JL.s:21213  .debug_str:0000000000004af6 .LASF5393
C:\Users\CYMR90~1\AppData\Local\Temp\ccyjM0JL.s:21635  .debug_str:0000000000006402 .LASF5394
C:\Users\CYMR90~1\AppData\Local\Temp\ccyjM0JL.s:28810  .debug_str:0000000000022c52 .LASF5395
C:\Users\CYMR90~1\AppData\Local\Temp\ccyjM0JL.s:30564  .debug_str:0000000000029d50 .LASF5396
C:\Users\CYMR90~1\AppData\Local\Temp\ccyjM0JL.s:26340  .debug_str:000000000001909d .LASF5397
C:\Users\CYMR90~1\AppData\Local\Temp\ccyjM0JL.s:23105  .debug_str:000000000000c3d2 .LASF5398
C:\Users\CYMR90~1\AppData\Local\Temp\ccyjM0JL.s:27842  .debug_str:000000000001f1b4 .LASF5399
C:\Users\CYMR90~1\AppData\Local\Temp\ccyjM0JL.s:21113  .debug_str:00000000000043d0 .LASF5400
C:\Users\CYMR90~1\AppData\Local\Temp\ccyjM0JL.s:28238  .debug_str:00000000000209ec .LASF5401
C:\Users\CYMR90~1\AppData\Local\Temp\ccyjM0JL.s:25003  .debug_str:0000000000013ca2 .LASF5402
C:\Users\CYMR90~1\AppData\Local\Temp\ccyjM0JL.s:30938  .debug_str:000000000002b354 .LASF5403
C:\Users\CYMR90~1\AppData\Local\Temp\ccyjM0JL.s:24131  .debug_str:00000000000103f9 .LASF5404
C:\Users\CYMR90~1\AppData\Local\Temp\ccyjM0JL.s:23367  .debug_str:000000000000d4dd .LASF5405
C:\Users\CYMR90~1\AppData\Local\Temp\ccyjM0JL.s:27852  .debug_str:000000000001f26d .LASF5406
C:\Users\CYMR90~1\AppData\Local\Temp\ccyjM0JL.s:31122  .debug_str:000000000002bf2d .LASF5407
C:\Users\CYMR90~1\AppData\Local\Temp\ccyjM0JL.s:29920  .debug_str:0000000000027395 .LASF5408
C:\Users\CYMR90~1\AppData\Local\Temp\ccyjM0JL.s:28982  .debug_str:0000000000023651 .LASF5409
C:\Users\CYMR90~1\AppData\Local\Temp\ccyjM0JL.s:22893  .debug_str:000000000000b534 .LASF5410
C:\Users\CYMR90~1\AppData\Local\Temp\ccyjM0JL.s:20163  .debug_str:00000000000007d4 .LASF5411
C:\Users\CYMR90~1\AppData\Local\Temp\ccyjM0JL.s:28714  .debug_str:0000000000022699 .LASF5412
C:\Users\CYMR90~1\AppData\Local\Temp\ccyjM0JL.s:27530  .debug_str:000000000001deba .LASF5413
C:\Users\CYMR90~1\AppData\Local\Temp\ccyjM0JL.s:26120  .debug_str:0000000000018289 .LASF5414
C:\Users\CYMR90~1\AppData\Local\Temp\ccyjM0JL.s:28584  .debug_str:0000000000021f01 .LASF5415
C:\Users\CYMR90~1\AppData\Local\Temp\ccyjM0JL.s:31096  .debug_str:000000000002bd82 .LASF5416
C:\Users\CYMR90~1\AppData\Local\Temp\ccyjM0JL.s:22027  .debug_str:0000000000007d0b .LASF5417
C:\Users\CYMR90~1\AppData\Local\Temp\ccyjM0JL.s:21467  .debug_str:0000000000005a37 .LASF5418
C:\Users\CYMR90~1\AppData\Local\Temp\ccyjM0JL.s:21773  .debug_str:0000000000006c67 .LASF5419
C:\Users\CYMR90~1\AppData\Local\Temp\ccyjM0JL.s:23251  .debug_str:000000000000cd86 .LASF5420
C:\Users\CYMR90~1\AppData\Local\Temp\ccyjM0JL.s:24607  .debug_str:000000000001232e .LASF5421
C:\Users\CYMR90~1\AppData\Local\Temp\ccyjM0JL.s:22993  .debug_str:000000000000bc3c .LASF5422
C:\Users\CYMR90~1\AppData\Local\Temp\ccyjM0JL.s:30114  .debug_str:00000000000280a0 .LASF5423
C:\Users\CYMR90~1\AppData\Local\Temp\ccyjM0JL.s:29698  .debug_str:00000000000265c3 .LASF5424
C:\Users\CYMR90~1\AppData\Local\Temp\ccyjM0JL.s:25361  .debug_str:0000000000015268 .LASF5425
C:\Users\CYMR90~1\AppData\Local\Temp\ccyjM0JL.s:28014  .debug_str:000000000001fbed .LASF5426
C:\Users\CYMR90~1\AppData\Local\Temp\ccyjM0JL.s:24913  .debug_str:0000000000013768 .LASF5427
C:\Users\CYMR90~1\AppData\Local\Temp\ccyjM0JL.s:31274  .debug_str:000000000002c997 .LASF5428
C:\Users\CYMR90~1\AppData\Local\Temp\ccyjM0JL.s:23129  .debug_str:000000000000c555 .LASF5429
C:\Users\CYMR90~1\AppData\Local\Temp\ccyjM0JL.s:27298  .debug_str:000000000001d002 .LASF5430
C:\Users\CYMR90~1\AppData\Local\Temp\ccyjM0JL.s:28422  .debug_str:000000000002146d .LASF5431
C:\Users\CYMR90~1\AppData\Local\Temp\ccyjM0JL.s:24419  .debug_str:0000000000011611 .LASF5432
C:\Users\CYMR90~1\AppData\Local\Temp\ccyjM0JL.s:27448  .debug_str:000000000001d9d2 .LASF5433
C:\Users\CYMR90~1\AppData\Local\Temp\ccyjM0JL.s:26004  .debug_str:0000000000017bb2 .LASF5434
C:\Users\CYMR90~1\AppData\Local\Temp\ccyjM0JL.s:25161  .debug_str:000000000001463f .LASF5435
C:\Users\CYMR90~1\AppData\Local\Temp\ccyjM0JL.s:20809  .debug_str:0000000000002ff6 .LASF5436
C:\Users\CYMR90~1\AppData\Local\Temp\ccyjM0JL.s:25369  .debug_str:00000000000152e6 .LASF5437
C:\Users\CYMR90~1\AppData\Local\Temp\ccyjM0JL.s:23393  .debug_str:000000000000d6ef .LASF5438
C:\Users\CYMR90~1\AppData\Local\Temp\ccyjM0JL.s:25031  .debug_str:0000000000013e62 .LASF5439
C:\Users\CYMR90~1\AppData\Local\Temp\ccyjM0JL.s:20737  .debug_str:0000000000002b69 .LASF5440
C:\Users\CYMR90~1\AppData\Local\Temp\ccyjM0JL.s:22575  .debug_str:000000000000a02f .LASF5441
C:\Users\CYMR90~1\AppData\Local\Temp\ccyjM0JL.s:29436  .debug_str:00000000000253cb .LASF5442
C:\Users\CYMR90~1\AppData\Local\Temp\ccyjM0JL.s:27360  .debug_str:000000000001d463 .LASF5443
C:\Users\CYMR90~1\AppData\Local\Temp\ccyjM0JL.s:31354  .debug_str:000000000002cece .LASF5444
C:\Users\CYMR90~1\AppData\Local\Temp\ccyjM0JL.s:25547  .debug_str:0000000000015d22 .LASF5445
C:\Users\CYMR90~1\AppData\Local\Temp\ccyjM0JL.s:22607  .debug_str:000000000000a225 .LASF5446
C:\Users\CYMR90~1\AppData\Local\Temp\ccyjM0JL.s:28410  .debug_str:00000000000213c7 .LASF5447
C:\Users\CYMR90~1\AppData\Local\Temp\ccyjM0JL.s:28136  .debug_str:0000000000020350 .LASF5448
C:\Users\CYMR90~1\AppData\Local\Temp\ccyjM0JL.s:29536  .debug_str:0000000000025be2 .LASF5449
C:\Users\CYMR90~1\AppData\Local\Temp\ccyjM0JL.s:23229  .debug_str:000000000000cc07 .LASF5450
C:\Users\CYMR90~1\AppData\Local\Temp\ccyjM0JL.s:22639  .debug_str:000000000000a432 .LASF5451
C:\Users\CYMR90~1\AppData\Local\Temp\ccyjM0JL.s:26798  .debug_str:000000000001afdd .LASF5452
C:\Users\CYMR90~1\AppData\Local\Temp\ccyjM0JL.s:24027  .debug_str:000000000000fd4d .LASF5453
C:\Users\CYMR90~1\AppData\Local\Temp\ccyjM0JL.s:26282  .debug_str:0000000000018c4d .LASF5454
C:\Users\CYMR90~1\AppData\Local\Temp\ccyjM0JL.s:23197  .debug_str:000000000000c993 .LASF5455
C:\Users\CYMR90~1\AppData\Local\Temp\ccyjM0JL.s:23333  .debug_str:000000000000d25f .LASF5456
C:\Users\CYMR90~1\AppData\Local\Temp\ccyjM0JL.s:24405  .debug_str:0000000000011512 .LASF5457
C:\Users\CYMR90~1\AppData\Local\Temp\ccyjM0JL.s:27496  .debug_str:000000000001dcbb .LASF5458
C:\Users\CYMR90~1\AppData\Local\Temp\ccyjM0JL.s:22365  .debug_str:0000000000009309 .LASF5459
C:\Users\CYMR90~1\AppData\Local\Temp\ccyjM0JL.s:22429  .debug_str:000000000000970f .LASF5460
C:\Users\CYMR90~1\AppData\Local\Temp\ccyjM0JL.s:27384  .debug_str:000000000001d5d0 .LASF5461
C:\Users\CYMR90~1\AppData\Local\Temp\ccyjM0JL.s:30332  .debug_str:0000000000028f49 .LASF5462
C:\Users\CYMR90~1\AppData\Local\Temp\ccyjM0JL.s:28166  .debug_str:00000000000204f0 .LASF5463
C:\Users\CYMR90~1\AppData\Local\Temp\ccyjM0JL.s:20041  .debug_str:00000000000000a6 .LASF5464
C:\Users\CYMR90~1\AppData\Local\Temp\ccyjM0JL.s:28100  .debug_str:0000000000020158 .LASF5465
C:\Users\CYMR90~1\AppData\Local\Temp\ccyjM0JL.s:31422  .debug_str:000000000002d337 .LASF5466
C:\Users\CYMR90~1\AppData\Local\Temp\ccyjM0JL.s:27526  .debug_str:000000000001de81 .LASF5467
C:\Users\CYMR90~1\AppData\Local\Temp\ccyjM0JL.s:21517  .debug_str:0000000000005d4b .LASF5468
C:\Users\CYMR90~1\AppData\Local\Temp\ccyjM0JL.s:20677  .debug_str:0000000000002758 .LASF5469
C:\Users\CYMR90~1\AppData\Local\Temp\ccyjM0JL.s:28340  .debug_str:0000000000020fd2 .LASF5470
C:\Users\CYMR90~1\AppData\Local\Temp\ccyjM0JL.s:30242  .debug_str:0000000000028998 .LASF5471
C:\Users\CYMR90~1\AppData\Local\Temp\ccyjM0JL.s:20143  .debug_str:0000000000000690 .LASF5472
C:\Users\CYMR90~1\AppData\Local\Temp\ccyjM0JL.s:24635  .debug_str:00000000000124c6 .LASF5473
C:\Users\CYMR90~1\AppData\Local\Temp\ccyjM0JL.s:25057  .debug_str:0000000000013fd9 .LASF5474
C:\Users\CYMR90~1\AppData\Local\Temp\ccyjM0JL.s:24605  .debug_str:0000000000012315 .LASF5475
C:\Users\CYMR90~1\AppData\Local\Temp\ccyjM0JL.s:21641  .debug_str:0000000000006464 .LASF5476
C:\Users\CYMR90~1\AppData\Local\Temp\ccyjM0JL.s:27830  .debug_str:000000000001f0e0 .LASF5477
C:\Users\CYMR90~1\AppData\Local\Temp\ccyjM0JL.s:25950  .debug_str:0000000000017840 .LASF5478
C:\Users\CYMR90~1\AppData\Local\Temp\ccyjM0JL.s:20409  .debug_str:00000000000016ce .LASF5479
C:\Users\CYMR90~1\AppData\Local\Temp\ccyjM0JL.s:28052  .debug_str:000000000001fe38 .LASF5480
C:\Users\CYMR90~1\AppData\Local\Temp\ccyjM0JL.s:20753  .debug_str:0000000000002c93 .LASF5481
C:\Users\CYMR90~1\AppData\Local\Temp\ccyjM0JL.s:29002  .debug_str:000000000002377a .LASF5482
C:\Users\CYMR90~1\AppData\Local\Temp\ccyjM0JL.s:20365  .debug_str:000000000000143e .LASF5483
C:\Users\CYMR90~1\AppData\Local\Temp\ccyjM0JL.s:29864  .debug_str:0000000000026fe8 .LASF5484
C:\Users\CYMR90~1\AppData\Local\Temp\ccyjM0JL.s:25605  .debug_str:00000000000160ff .LASF5485
C:\Users\CYMR90~1\AppData\Local\Temp\ccyjM0JL.s:20977  .debug_str:0000000000003ac1 .LASF5486
C:\Users\CYMR90~1\AppData\Local\Temp\ccyjM0JL.s:22857  .debug_str:000000000000b349 .LASF5487
C:\Users\CYMR90~1\AppData\Local\Temp\ccyjM0JL.s:29152  .debug_str:000000000002405a .LASF5488
C:\Users\CYMR90~1\AppData\Local\Temp\ccyjM0JL.s:21545  .debug_str:0000000000005ea9 .LASF5489
C:\Users\CYMR90~1\AppData\Local\Temp\ccyjM0JL.s:30012  .debug_str:00000000000279c9 .LASF5490
C:\Users\CYMR90~1\AppData\Local\Temp\ccyjM0JL.s:22125  .debug_str:0000000000008466 .LASF5491
C:\Users\CYMR90~1\AppData\Local\Temp\ccyjM0JL.s:30996  .debug_str:000000000002b70e .LASF5492
C:\Users\CYMR90~1\AppData\Local\Temp\ccyjM0JL.s:28130  .debug_str:00000000000202ff .LASF5493
C:\Users\CYMR90~1\AppData\Local\Temp\ccyjM0JL.s:26432  .debug_str:00000000000196d2 .LASF5494
C:\Users\CYMR90~1\AppData\Local\Temp\ccyjM0JL.s:20287  .debug_str:0000000000000fda .LASF5495
C:\Users\CYMR90~1\AppData\Local\Temp\ccyjM0JL.s:27958  .debug_str:000000000001f8a3 .LASF5496
C:\Users\CYMR90~1\AppData\Local\Temp\ccyjM0JL.s:21493  .debug_str:0000000000005bca .LASF5497
C:\Users\CYMR90~1\AppData\Local\Temp\ccyjM0JL.s:30962  .debug_str:000000000002b4ac .LASF5498
C:\Users\CYMR90~1\AppData\Local\Temp\ccyjM0JL.s:25673  .debug_str:00000000000164fe .LASF5499
C:\Users\CYMR90~1\AppData\Local\Temp\ccyjM0JL.s:25469  .debug_str:0000000000015868 .LASF5500
C:\Users\CYMR90~1\AppData\Local\Temp\ccyjM0JL.s:26504  .debug_str:0000000000019c0f .LASF5501
C:\Users\CYMR90~1\AppData\Local\Temp\ccyjM0JL.s:29760  .debug_str:0000000000026981 .LASF5502
C:\Users\CYMR90~1\AppData\Local\Temp\ccyjM0JL.s:29322  .debug_str:0000000000024c68 .LASF5503
C:\Users\CYMR90~1\AppData\Local\Temp\ccyjM0JL.s:30940  .debug_str:000000000002b36c .LASF5504
C:\Users\CYMR90~1\AppData\Local\Temp\ccyjM0JL.s:21025  .debug_str:0000000000003dbe .LASF5505
C:\Users\CYMR90~1\AppData\Local\Temp\ccyjM0JL.s:27756  .debug_str:000000000001ec82 .LASF5506
C:\Users\CYMR90~1\AppData\Local\Temp\ccyjM0JL.s:27022  .debug_str:000000000001bded .LASF5507
C:\Users\CYMR90~1\AppData\Local\Temp\ccyjM0JL.s:24831  .debug_str:00000000000131a7 .LASF5508
C:\Users\CYMR90~1\AppData\Local\Temp\ccyjM0JL.s:21445  .debug_str:00000000000058f3 .LASF5509
C:\Users\CYMR90~1\AppData\Local\Temp\ccyjM0JL.s:28554  .debug_str:0000000000021d21 .LASF5510
C:\Users\CYMR90~1\AppData\Local\Temp\ccyjM0JL.s:22451  .debug_str:0000000000009843 .LASF5511
C:\Users\CYMR90~1\AppData\Local\Temp\ccyjM0JL.s:31338  .debug_str:000000000002cdb1 .LASF5512
C:\Users\CYMR90~1\AppData\Local\Temp\ccyjM0JL.s:30386  .debug_str:00000000000292a2 .LASF5513
C:\Users\CYMR90~1\AppData\Local\Temp\ccyjM0JL.s:20857  .debug_str:00000000000032ee .LASF5514
C:\Users\CYMR90~1\AppData\Local\Temp\ccyjM0JL.s:28506  .debug_str:0000000000021a6e .LASF5515
C:\Users\CYMR90~1\AppData\Local\Temp\ccyjM0JL.s:31306  .debug_str:000000000002cb74 .LASF5516
C:\Users\CYMR90~1\AppData\Local\Temp\ccyjM0JL.s:27734  .debug_str:000000000001eb22 .LASF5517
C:\Users\CYMR90~1\AppData\Local\Temp\ccyjM0JL.s:30640  .debug_str:000000000002a1ad .LASF5518
C:\Users\CYMR90~1\AppData\Local\Temp\ccyjM0JL.s:25541  .debug_str:0000000000015cdc .LASF5519
C:\Users\CYMR90~1\AppData\Local\Temp\ccyjM0JL.s:27668  .debug_str:000000000001e6fe .LASF5520
C:\Users\CYMR90~1\AppData\Local\Temp\ccyjM0JL.s:23923  .debug_str:000000000000f67f .LASF5521
C:\Users\CYMR90~1\AppData\Local\Temp\ccyjM0JL.s:23911  .debug_str:000000000000f5d2 .LASF5522
C:\Users\CYMR90~1\AppData\Local\Temp\ccyjM0JL.s:28032  .debug_str:000000000001fd0b .LASF5523
C:\Users\CYMR90~1\AppData\Local\Temp\ccyjM0JL.s:29752  .debug_str:0000000000026907 .LASF5524
C:\Users\CYMR90~1\AppData\Local\Temp\ccyjM0JL.s:20439  .debug_str:000000000000195f .LASF5525
C:\Users\CYMR90~1\AppData\Local\Temp\ccyjM0JL.s:26448  .debug_str:00000000000197ca .LASF5526
C:\Users\CYMR90~1\AppData\Local\Temp\ccyjM0JL.s:20235  .debug_str:0000000000000c51 .LASF5527
C:\Users\CYMR90~1\AppData\Local\Temp\ccyjM0JL.s:25759  .debug_str:0000000000016ae3 .LASF5528
C:\Users\CYMR90~1\AppData\Local\Temp\ccyjM0JL.s:20553  .debug_str:0000000000002006 .LASF5529
C:\Users\CYMR90~1\AppData\Local\Temp\ccyjM0JL.s:20883  .debug_str:00000000000034aa .LASF5530
C:\Users\CYMR90~1\AppData\Local\Temp\ccyjM0JL.s:23669  .debug_str:000000000000e76b .LASF5531
C:\Users\CYMR90~1\AppData\Local\Temp\ccyjM0JL.s:24407  .debug_str:0000000000011534 .LASF5532
C:\Users\CYMR90~1\AppData\Local\Temp\ccyjM0JL.s:22789  .debug_str:000000000000ae5e .LASF5533
C:\Users\CYMR90~1\AppData\Local\Temp\ccyjM0JL.s:21069  .debug_str:00000000000040b5 .LASF5534
C:\Users\CYMR90~1\AppData\Local\Temp\ccyjM0JL.s:31054  .debug_str:000000000002ba9b .LASF5535
C:\Users\CYMR90~1\AppData\Local\Temp\ccyjM0JL.s:30426  .debug_str:00000000000294fa .LASF5536
C:\Users\CYMR90~1\AppData\Local\Temp\ccyjM0JL.s:28284  .debug_str:0000000000020c49 .LASF5537
C:\Users\CYMR90~1\AppData\Local\Temp\ccyjM0JL.s:28996  .debug_str:0000000000023724 .LASF5538
C:\Users\CYMR90~1\AppData\Local\Temp\ccyjM0JL.s:31090  .debug_str:000000000002bd31 .LASF5539
C:\Users\CYMR90~1\AppData\Local\Temp\ccyjM0JL.s:20345  .debug_str:000000000000131d .LASF5540
C:\Users\CYMR90~1\AppData\Local\Temp\ccyjM0JL.s:24565  .debug_str:0000000000011fba .LASF5541
C:\Users\CYMR90~1\AppData\Local\Temp\ccyjM0JL.s:28624  .debug_str:0000000000022175 .LASF5542
C:\Users\CYMR90~1\AppData\Local\Temp\ccyjM0JL.s:27528  .debug_str:000000000001dea3 .LASF5543
C:\Users\CYMR90~1\AppData\Local\Temp\ccyjM0JL.s:24091  .debug_str:0000000000010146 .LASF5544
C:\Users\CYMR90~1\AppData\Local\Temp\ccyjM0JL.s:20525  .debug_str:0000000000001e8b .LASF5545
C:\Users\CYMR90~1\AppData\Local\Temp\ccyjM0JL.s:28442  .debug_str:0000000000021638 .LASF5546
C:\Users\CYMR90~1\AppData\Local\Temp\ccyjM0JL.s:23549  .debug_str:000000000000e04d .LASF5547
C:\Users\CYMR90~1\AppData\Local\Temp\ccyjM0JL.s:25103  .debug_str:00000000000142c0 .LASF5548
C:\Users\CYMR90~1\AppData\Local\Temp\ccyjM0JL.s:30252  .debug_str:0000000000028a50 .LASF5549
C:\Users\CYMR90~1\AppData\Local\Temp\ccyjM0JL.s:31202  .debug_str:000000000002c4ae .LASF5550
C:\Users\CYMR90~1\AppData\Local\Temp\ccyjM0JL.s:23483  .debug_str:000000000000dc36 .LASF5551
C:\Users\CYMR90~1\AppData\Local\Temp\ccyjM0JL.s:20991  .debug_str:0000000000003bb5 .LASF5552
C:\Users\CYMR90~1\AppData\Local\Temp\ccyjM0JL.s:27088  .debug_str:000000000001c22b .LASF5553
C:\Users\CYMR90~1\AppData\Local\Temp\ccyjM0JL.s:22731  .debug_str:000000000000aab8 .LASF5554
C:\Users\CYMR90~1\AppData\Local\Temp\ccyjM0JL.s:29074  .debug_str:0000000000023c29 .LASF5555
                           .group:0000000000000000 wm4.0.10abbef32179bc1260444192115bdf5e
                           .group:0000000000000000 wm4.stddef.h.39.144cf5ddcd53cbfdac30259dc1a6c87f
                           .group:0000000000000000 wm4._newlib_version.h.4.bfdf54b0af045d4a71376ae00f63a22c
                           .group:0000000000000000 wm4.newlib.h.18.08a2ecba46890ca2aa56bbe21686e6c3
                           .group:0000000000000000 wm4.ieeefp.h.202.4f2759f5758fd82153cfbf98692f2ced
                           .group:0000000000000000 wm4.features.h.22.fad1cec3bc7ff06488171438dbdcfd02
                           .group:0000000000000000 wm4.config.h.83.13bbc8852bfac55b724c9822481355b5
                           .group:0000000000000000 wm4._ansi.h.31.de524f58584151836e90d8620a16f8e8
                           .group:0000000000000000 wm4.stdio.h.31.7c0e28c411445f3f9c5b11accf882760
                           .group:0000000000000000 wm4._default_types.h.6.959254cf5f09734ea7516c89e8bb21bd
                           .group:0000000000000000 wm4.stddef.h.155.ba788add86a0e365f264484f110c3c29
                           .group:0000000000000000 wm4.cdefs.h.49.39045112216f6a021dbdffe3bf5accce
                           .group:0000000000000000 wm4.stdarg.h.34.3a23a216c0c293b3d2ea2e89281481e6
                           .group:0000000000000000 wm4._types.h.20.dd0d04dca3800a0d2a6129b87f3adbb2
                           .group:0000000000000000 wm4.stddef.h.155.3588ebfdd1e8c7ede80509bb9c3b8009
                           .group:0000000000000000 wm4._types.h.127.34941de1b2539d59d5cac00e0dd27a45
                           .group:0000000000000000 wm4.reent.h.17.e292bf8b0bec6c96e131a54347145a30
                           .group:0000000000000000 wm4.lock.h.2.c0958401bd0ce484d507ee19aacab817
                           .group:0000000000000000 wm4.reent.h.77.dcd6129ff07fe81bd5636db29abe53b2
                           .group:0000000000000000 wm4.types.h.40.8b6acba56cefbb11746718204edc8f5e
                           .group:0000000000000000 wm4._stdint.h.10.c24fa3af3bc1706662bb5593a907e841
                           .group:0000000000000000 wm4._endian.h.18.1bf9649e8e5bbc91042012680270b9ed
                           .group:0000000000000000 wm4.endian.h.9.49f3a4695c1b61e8a0808de3c4a106cb
                           .group:0000000000000000 wm4._timeval.h.32.bec3221fa7a9bb0bdde696c9c57e47d2
                           .group:0000000000000000 wm4.timespec.h.41.d855182eb0e690443ab8651bcedca6e1
                           .group:0000000000000000 wm4.select.h.19.40cd3f2bfc456b193b790c2754690ebf
                           .group:0000000000000000 wm4.types.h.51.5571ec98f267d17d3c670b7a3ba33afa
                           .group:0000000000000000 wm4.sched.h.22.c60982713a5c428609783c78f9c78d95
                           .group:0000000000000000 wm4._pthreadtypes.h.36.fcee9961c35163dde6267ef772ad1972
                           .group:0000000000000000 wm4.stdio.h.2.4aa87247282eca6c8f36f9de33d8df1a
                           .group:0000000000000000 wm4.stdio.h.81.932d0c162786b883f622b8d05c120c78
                           .group:0000000000000000 wm4.gd32vw55x.h.47.379378190858578060a317909b2c8d8a
                           .group:0000000000000000 wm4._intsup.h.10.48bafbb683905c4daa4565a85aeeb264
                           .group:0000000000000000 wm4.stdint.h.23.d53047a68f4a85177f80b422d52785ed
                           .group:0000000000000000 wm4.nmsis_version.h.19.ffa173da8efb17b1050904994d6f500e
                           .group:0000000000000000 wm4.riscv_bits.h.19.ee94eb3d39937793d4cd0a62363e5d00
                           .group:0000000000000000 wm4.riscv_encoding.h.35.f5d37fad7abbab8278b4bb6f1e32fa65
                           .group:0000000000000000 wm4.nmsis_gcc.h.61.5d70d7598ffc79c3c991d847a574cf23
                           .group:0000000000000000 wm4.core_feature_base.h.20.e99d3e75c26a8f3341d35bf20d0e1d20
                           .group:0000000000000000 wm4.core_feature_fpu.h.19.695f2200274659b530cb97cda749ff4f
                           .group:0000000000000000 wm4.core_feature_dsp.h.19.e8f8d7aa42f197807aefedb6584486cd
                           .group:0000000000000000 wm4.core_compatiable.h.19.5b8282d61b1f6889a82895616b730084
                           .group:0000000000000000 wm4.core_feature_eclic.h.19.e0c091d0cbda79e8b3b031b979ebd5a1
                           .group:0000000000000000 wm4.core_feature_timer.h.19.21a5151282de34c37dfa6d84e262aa54
                           .group:0000000000000000 wm4.system_gd32vw55x.h.32.f1fcb1212d387c35ac955b0e96ada468
                           .group:0000000000000000 wm4.gd32vw55x.h.231.3529c650aff38c9372f7e03177fd2c8a
                           .group:0000000000000000 wm4.gd32vw55x_adc.h.42.ae73acec1704ef509ccecb41a875b50e
                           .group:0000000000000000 wm4.gd32vw55x_cau.h.36.c98428fe1eae7edb4721da5c8078c974
                           .group:0000000000000000 wm4.gd32vw55x_crc.h.37.c58f296814c2300a4b067c08bd88d54e
                           .group:0000000000000000 wm4.gd32vw55x_dbg.h.36.311650c8545549d482ceca8befc5a232
                           .group:0000000000000000 wm4.gd32vw55x_dma.h.36.f4adc751172b2a7b1533dda72e948737
                           .group:0000000000000000 wm4.gd32vw55x_efuse.h.36.091404cecbab70359dfd93faec5fdb62
                           .group:0000000000000000 wm4.gd32vw55x_exti.h.36.de7508334dd12f1a6a673521a1a835f5
                           .group:0000000000000000 wm4.gd32vw55x_fmc.h.36.a4b0b94c47ffe23a2fa09260c5ed4850
                           .group:0000000000000000 wm4.gd32vw55x_fwdgt.h.36.4846b6900fd24b5bfce4986c9a8ce677
                           .group:0000000000000000 wm4.gd32vw55x_gpio.h.36.adfee1371bb58d3d9043c47bdb25a90f
                           .group:0000000000000000 wm4.gd32vw55x_hau.h.36.f3cbcbd7b67c9e5bdc7a1100b1bf3458
                           .group:0000000000000000 wm4.gd32vw55x_i2c.h.36.3848990933925e084eb427083790c53f
                           .group:0000000000000000 wm4.gd32vw55x_pkcau.h.36.bb2235f4cf4967063a51bfa9aca5ef27
                           .group:0000000000000000 wm4.gd32vw55x_pmu.h.36.4c76091f1415551526d489ccf2c42052
                           .group:0000000000000000 wm4.gd32vw55x_qspi.h.36.2d2c181cfe19b935a9641008fc786613
                           .group:0000000000000000 wm4.gd32vw55x_rcu.h.36.780a8a45c00d563711cceb445027ef47
                           .group:0000000000000000 wm4.gd32vw55x_rtc.h.36.3172855e8715659e080e0eab46fdf175
                           .group:0000000000000000 wm4.gd32vw55x_spi.h.36.9fa1be2b09fb73e4b5886e97f0e96d58
                           .group:0000000000000000 wm4.gd32vw55x_syscfg.h.36.010551f05591f5e34051d2e15df0352b
                           .group:0000000000000000 wm4.gd32vw55x_timer.h.38.2cbee78ea60d47145be361b2d2c55070
                           .group:0000000000000000 wm4.gd32vw55x_trng.h.36.c9e7807af1b1ab68d3bbb54f4ed5cd73
                           .group:0000000000000000 wm4.gd32vw55x_usart.h.36.f5c497cca17945a34f154b0e17017d02
                           .group:0000000000000000 wm4.gd32vw55x_wwdgt.h.36.f7a443b7302efc0e5c335888582ee197
                           .group:0000000000000000 wm4.gd32vw55x_eclic.h.41.88157c6d2cf6a6f4fe2a56cc9a13df86

NO UNDEFINED SYMBOLS
