   1              		.file	"gd32vw55x_hau.c"
   2              		.option nopic
   3              		.attribute arch, "rv32i2p0_m2p0_a2p0_c2p0"
   4              		.attribute unaligned_access, 0
   5              		.attribute stack_align, 16
   6              		.text
   7              	.Ltext0:
   8              		.cfi_sections	.debug_frame
   9              		.section	.text.hau_deinit,"ax",@progbits
  10              		.align	1
  11              		.globl	hau_deinit
  13              	hau_deinit:
  14              	.LFB347:
  15              		.file 1 "../Firmware/GD32VW55x_standard_peripheral/Source/gd32vw55x_hau.c"
   1:../Firmware/GD32VW55x_standard_peripheral/Source/gd32vw55x_hau.c **** /*!
   2:../Firmware/GD32VW55x_standard_peripheral/Source/gd32vw55x_hau.c ****     \file    gd32vw55x_hau.c
   3:../Firmware/GD32VW55x_standard_peripheral/Source/gd32vw55x_hau.c ****     \brief   HAU driver
   4:../Firmware/GD32VW55x_standard_peripheral/Source/gd32vw55x_hau.c **** 
   5:../Firmware/GD32VW55x_standard_peripheral/Source/gd32vw55x_hau.c ****     \version 2025-01-16, V1.4.0, firmware for GD32VW55x
   6:../Firmware/GD32VW55x_standard_peripheral/Source/gd32vw55x_hau.c **** */
   7:../Firmware/GD32VW55x_standard_peripheral/Source/gd32vw55x_hau.c **** 
   8:../Firmware/GD32VW55x_standard_peripheral/Source/gd32vw55x_hau.c **** /*
   9:../Firmware/GD32VW55x_standard_peripheral/Source/gd32vw55x_hau.c ****     Copyright (c) 2025, GigaDevice Semiconductor Inc.
  10:../Firmware/GD32VW55x_standard_peripheral/Source/gd32vw55x_hau.c **** 
  11:../Firmware/GD32VW55x_standard_peripheral/Source/gd32vw55x_hau.c ****     Redistribution and use in source and binary forms, with or without modification,
  12:../Firmware/GD32VW55x_standard_peripheral/Source/gd32vw55x_hau.c **** are permitted provided that the following conditions are met:
  13:../Firmware/GD32VW55x_standard_peripheral/Source/gd32vw55x_hau.c **** 
  14:../Firmware/GD32VW55x_standard_peripheral/Source/gd32vw55x_hau.c ****     1. Redistributions of source code must retain the above copyright notice, this
  15:../Firmware/GD32VW55x_standard_peripheral/Source/gd32vw55x_hau.c ****        list of conditions and the following disclaimer.
  16:../Firmware/GD32VW55x_standard_peripheral/Source/gd32vw55x_hau.c ****     2. Redistributions in binary form must reproduce the above copyright notice,
  17:../Firmware/GD32VW55x_standard_peripheral/Source/gd32vw55x_hau.c ****        this list of conditions and the following disclaimer in the documentation
  18:../Firmware/GD32VW55x_standard_peripheral/Source/gd32vw55x_hau.c ****        and/or other materials provided with the distribution.
  19:../Firmware/GD32VW55x_standard_peripheral/Source/gd32vw55x_hau.c ****     3. Neither the name of the copyright holder nor the names of its contributors
  20:../Firmware/GD32VW55x_standard_peripheral/Source/gd32vw55x_hau.c ****        may be used to endorse or promote products derived from this software without
  21:../Firmware/GD32VW55x_standard_peripheral/Source/gd32vw55x_hau.c ****        specific prior written permission.
  22:../Firmware/GD32VW55x_standard_peripheral/Source/gd32vw55x_hau.c **** 
  23:../Firmware/GD32VW55x_standard_peripheral/Source/gd32vw55x_hau.c ****     THIS SOFTWARE IS PROVIDED BY THE COPYRIGHT HOLDERS AND CONTRIBUTORS "AS IS"
  24:../Firmware/GD32VW55x_standard_peripheral/Source/gd32vw55x_hau.c **** AND ANY EXPRESS OR IMPLIED WARRANTIES, INCLUDING, BUT NOT LIMITED TO, THE IMPLIED
  25:../Firmware/GD32VW55x_standard_peripheral/Source/gd32vw55x_hau.c **** WARRANTIES OF MERCHANTABILITY AND FITNESS FOR A PARTICULAR PURPOSE ARE DISCLAIMED.
  26:../Firmware/GD32VW55x_standard_peripheral/Source/gd32vw55x_hau.c **** IN NO EVENT SHALL THE COPYRIGHT HOLDER OR CONTRIBUTORS BE LIABLE FOR ANY DIRECT,
  27:../Firmware/GD32VW55x_standard_peripheral/Source/gd32vw55x_hau.c **** INDIRECT, INCIDENTAL, SPECIAL, EXEMPLARY, OR CONSEQUENTIAL DAMAGES (INCLUDING, BUT
  28:../Firmware/GD32VW55x_standard_peripheral/Source/gd32vw55x_hau.c **** NOT LIMITED TO, PROCUREMENT OF SUBSTITUTE GOODS OR SERVICES; LOSS OF USE, DATA, OR
  29:../Firmware/GD32VW55x_standard_peripheral/Source/gd32vw55x_hau.c **** PROFITS; OR BUSINESS INTERRUPTION) HOWEVER CAUSED AND ON ANY THEORY OF LIABILITY,
  30:../Firmware/GD32VW55x_standard_peripheral/Source/gd32vw55x_hau.c **** WHETHER IN CONTRACT, STRICT LIABILITY, OR TORT (INCLUDING NEGLIGENCE OR OTHERWISE)
  31:../Firmware/GD32VW55x_standard_peripheral/Source/gd32vw55x_hau.c **** ARISING IN ANY WAY OUT OF THE USE OF THIS SOFTWARE, EVEN IF ADVISED OF THE POSSIBILITY
  32:../Firmware/GD32VW55x_standard_peripheral/Source/gd32vw55x_hau.c **** OF SUCH DAMAGE.
  33:../Firmware/GD32VW55x_standard_peripheral/Source/gd32vw55x_hau.c **** */
  34:../Firmware/GD32VW55x_standard_peripheral/Source/gd32vw55x_hau.c **** 
  35:../Firmware/GD32VW55x_standard_peripheral/Source/gd32vw55x_hau.c **** #include "gd32vw55x_hau.h"
  36:../Firmware/GD32VW55x_standard_peripheral/Source/gd32vw55x_hau.c **** 
  37:../Firmware/GD32VW55x_standard_peripheral/Source/gd32vw55x_hau.c **** #define HASH_CONTEXT_INTERNAL_REG     37U
  38:../Firmware/GD32VW55x_standard_peripheral/Source/gd32vw55x_hau.c **** #define HMAC_CONTEXT_INTERNAL_REG     53U
  39:../Firmware/GD32VW55x_standard_peripheral/Source/gd32vw55x_hau.c **** 
  40:../Firmware/GD32VW55x_standard_peripheral/Source/gd32vw55x_hau.c **** /*!
  41:../Firmware/GD32VW55x_standard_peripheral/Source/gd32vw55x_hau.c ****     \brief      reset the HAU peripheral
  42:../Firmware/GD32VW55x_standard_peripheral/Source/gd32vw55x_hau.c ****     \param[in]  none
  43:../Firmware/GD32VW55x_standard_peripheral/Source/gd32vw55x_hau.c ****     \param[out] none
  44:../Firmware/GD32VW55x_standard_peripheral/Source/gd32vw55x_hau.c ****     \retval     none
  45:../Firmware/GD32VW55x_standard_peripheral/Source/gd32vw55x_hau.c **** */
  46:../Firmware/GD32VW55x_standard_peripheral/Source/gd32vw55x_hau.c **** void hau_deinit(void)
  47:../Firmware/GD32VW55x_standard_peripheral/Source/gd32vw55x_hau.c **** {
  16              		.loc 1 47 1
  17              		.cfi_startproc
  18 0000 4111     		addi	sp,sp,-16
  19              		.cfi_def_cfa_offset 16
  20 0002 06C6     		sw	ra,12(sp)
  21 0004 22C4     		sw	s0,8(sp)
  22              		.cfi_offset 1, -4
  23              		.cfi_offset 8, -8
  24 0006 0008     		addi	s0,sp,16
  25              		.cfi_def_cfa 8, 0
  48:../Firmware/GD32VW55x_standard_peripheral/Source/gd32vw55x_hau.c ****     /* enable HAU reset state */
  49:../Firmware/GD32VW55x_standard_peripheral/Source/gd32vw55x_hau.c ****     rcu_periph_reset_enable(RCU_HAURST);
  26              		.loc 1 49 5
  27 0008 13055050 		li	a0,1285
  28 000c 97000000 		call	rcu_periph_reset_enable
  28      E7800000 
  50:../Firmware/GD32VW55x_standard_peripheral/Source/gd32vw55x_hau.c ****     /* release HAU from reset state */
  51:../Firmware/GD32VW55x_standard_peripheral/Source/gd32vw55x_hau.c ****     rcu_periph_reset_disable(RCU_HAURST);
  29              		.loc 1 51 5
  30 0014 13055050 		li	a0,1285
  31 0018 97000000 		call	rcu_periph_reset_disable
  31      E7800000 
  52:../Firmware/GD32VW55x_standard_peripheral/Source/gd32vw55x_hau.c **** }
  32              		.loc 1 52 1
  33 0020 0100     		nop
  34 0022 B240     		lw	ra,12(sp)
  35              		.cfi_restore 1
  36 0024 2244     		lw	s0,8(sp)
  37              		.cfi_restore 8
  38              		.cfi_def_cfa 2, 16
  39 0026 4101     		addi	sp,sp,16
  40              		.cfi_def_cfa_offset 0
  41 0028 8280     		jr	ra
  42              		.cfi_endproc
  43              	.LFE347:
  45              		.section	.text.hau_init,"ax",@progbits
  46              		.align	1
  47              		.globl	hau_init
  49              	hau_init:
  50              	.LFB348:
  53:../Firmware/GD32VW55x_standard_peripheral/Source/gd32vw55x_hau.c **** 
  54:../Firmware/GD32VW55x_standard_peripheral/Source/gd32vw55x_hau.c **** /*!
  55:../Firmware/GD32VW55x_standard_peripheral/Source/gd32vw55x_hau.c ****     \brief      initialize the HAU peripheral parameters
  56:../Firmware/GD32VW55x_standard_peripheral/Source/gd32vw55x_hau.c ****     \param[in]  none
  57:../Firmware/GD32VW55x_standard_peripheral/Source/gd32vw55x_hau.c ****     \param[out] initpara: HAU init parameter struct
  58:../Firmware/GD32VW55x_standard_peripheral/Source/gd32vw55x_hau.c ****                 members of the structure and the member values are shown as below:
  59:../Firmware/GD32VW55x_standard_peripheral/Source/gd32vw55x_hau.c ****                   algo: HAU_ALGO_SHA1, HAU_ALGO_SHA224, HAU_ALGO_SHA256, HAU_ALGO_MD5
  60:../Firmware/GD32VW55x_standard_peripheral/Source/gd32vw55x_hau.c ****                   mode: HAU_MODE_HASH, HAU_MODE_HMAC
  61:../Firmware/GD32VW55x_standard_peripheral/Source/gd32vw55x_hau.c ****                   datatype: HAU_SWAPPING_32BIT, HAU_SWAPPING_16BIT, HAU_SWAPPING_8BIT, HAU_SWAPPING
  62:../Firmware/GD32VW55x_standard_peripheral/Source/gd32vw55x_hau.c ****                   keytype: HAU_KEY_SHORTER_64, HAU_KEY_LONGGER_64
  63:../Firmware/GD32VW55x_standard_peripheral/Source/gd32vw55x_hau.c ****     \retval     none
  64:../Firmware/GD32VW55x_standard_peripheral/Source/gd32vw55x_hau.c **** */
  65:../Firmware/GD32VW55x_standard_peripheral/Source/gd32vw55x_hau.c **** void hau_init(hau_init_parameter_struct* initpara)
  66:../Firmware/GD32VW55x_standard_peripheral/Source/gd32vw55x_hau.c **** {
  51              		.loc 1 66 1
  52              		.cfi_startproc
  53 0000 0111     		addi	sp,sp,-32
  54              		.cfi_def_cfa_offset 32
  55 0002 22CE     		sw	s0,28(sp)
  56              		.cfi_offset 8, -4
  57 0004 0010     		addi	s0,sp,32
  58              		.cfi_def_cfa 8, 0
  59 0006 2326A4FE 		sw	a0,-20(s0)
  67:../Firmware/GD32VW55x_standard_peripheral/Source/gd32vw55x_hau.c ****     /* configure the algorithm, mode and the data type */
  68:../Firmware/GD32VW55x_standard_peripheral/Source/gd32vw55x_hau.c ****     HAU_CTL &= (~(uint32_t)(HAU_CTL_ALGM_0 | HAU_CTL_ALGM_1 | HAU_CTL_DATAM | HAU_CTL_HMS));
  60              		.loc 1 68 13
  61 000a B707064C 		li	a5,1275461632
  62 000e 93870740 		addi	a5,a5,1024
  63 0012 9443     		lw	a3,0(a5)
  64 0014 B707064C 		li	a5,1275461632
  65 0018 93870740 		addi	a5,a5,1024
  66 001c 3707FCFF 		li	a4,-262144
  67 0020 1307F7F0 		addi	a4,a4,-241
  68 0024 758F     		and	a4,a3,a4
  69 0026 98C3     		sw	a4,0(a5)
  69:../Firmware/GD32VW55x_standard_peripheral/Source/gd32vw55x_hau.c ****     HAU_CTL |= (initpara->algo | initpara->datatype | initpara->mode);
  70              		.loc 1 69 13
  71 0028 B707064C 		li	a5,1275461632
  72 002c 93870740 		addi	a5,a5,1024
  73 0030 9443     		lw	a3,0(a5)
  74              		.loc 1 69 25
  75 0032 8327C4FE 		lw	a5,-20(s0)
  76 0036 9843     		lw	a4,0(a5)
  77              		.loc 1 69 42
  78 0038 8327C4FE 		lw	a5,-20(s0)
  79 003c 9C47     		lw	a5,8(a5)
  80              		.loc 1 69 32
  81 003e 5D8F     		or	a4,a4,a5
  82              		.loc 1 69 63
  83 0040 8327C4FE 		lw	a5,-20(s0)
  84 0044 DC43     		lw	a5,4(a5)
  85              		.loc 1 69 53
  86 0046 5D8F     		or	a4,a4,a5
  87              		.loc 1 69 13
  88 0048 B707064C 		li	a5,1275461632
  89 004c 93870740 		addi	a5,a5,1024
  90 0050 558F     		or	a4,a3,a4
  91 0052 98C3     		sw	a4,0(a5)
  70:../Firmware/GD32VW55x_standard_peripheral/Source/gd32vw55x_hau.c **** 
  71:../Firmware/GD32VW55x_standard_peripheral/Source/gd32vw55x_hau.c ****     /* when mode is HMAC, set the key */
  72:../Firmware/GD32VW55x_standard_peripheral/Source/gd32vw55x_hau.c ****     if(HAU_MODE_HMAC == initpara->mode){
  92              		.loc 1 72 33
  93 0054 8327C4FE 		lw	a5,-20(s0)
  94 0058 D843     		lw	a4,4(a5)
  95              		.loc 1 72 7
  96 005a 93070004 		li	a5,64
  97 005e 631DF702 		bne	a4,a5,.L3
  73:../Firmware/GD32VW55x_standard_peripheral/Source/gd32vw55x_hau.c ****         HAU_CTL &= (~(uint32_t)(HAU_CTL_KLM));
  98              		.loc 1 73 17
  99 0062 B707064C 		li	a5,1275461632
 100 0066 93870740 		addi	a5,a5,1024
 101 006a 9443     		lw	a3,0(a5)
 102 006c B707064C 		li	a5,1275461632
 103 0070 93870740 		addi	a5,a5,1024
 104 0074 4177     		li	a4,-65536
 105 0076 7D17     		addi	a4,a4,-1
 106 0078 758F     		and	a4,a3,a4
 107 007a 98C3     		sw	a4,0(a5)
  74:../Firmware/GD32VW55x_standard_peripheral/Source/gd32vw55x_hau.c ****         HAU_CTL |= initpara->keytype;
 108              		.loc 1 74 17
 109 007c B707064C 		li	a5,1275461632
 110 0080 93870740 		addi	a5,a5,1024
 111 0084 9443     		lw	a3,0(a5)
 112              		.loc 1 74 28
 113 0086 8327C4FE 		lw	a5,-20(s0)
 114 008a D847     		lw	a4,12(a5)
 115              		.loc 1 74 17
 116 008c B707064C 		li	a5,1275461632
 117 0090 93870740 		addi	a5,a5,1024
 118 0094 558F     		or	a4,a3,a4
 119 0096 98C3     		sw	a4,0(a5)
 120              	.L3:
  75:../Firmware/GD32VW55x_standard_peripheral/Source/gd32vw55x_hau.c ****     }
  76:../Firmware/GD32VW55x_standard_peripheral/Source/gd32vw55x_hau.c **** 
  77:../Firmware/GD32VW55x_standard_peripheral/Source/gd32vw55x_hau.c ****     /* start the digest of a new message */
  78:../Firmware/GD32VW55x_standard_peripheral/Source/gd32vw55x_hau.c ****     HAU_CTL |= HAU_CTL_START;
 121              		.loc 1 78 13
 122 0098 B707064C 		li	a5,1275461632
 123 009c 93870740 		addi	a5,a5,1024
 124 00a0 9843     		lw	a4,0(a5)
 125 00a2 B707064C 		li	a5,1275461632
 126 00a6 93870740 		addi	a5,a5,1024
 127 00aa 13674700 		ori	a4,a4,4
 128 00ae 98C3     		sw	a4,0(a5)
  79:../Firmware/GD32VW55x_standard_peripheral/Source/gd32vw55x_hau.c **** }
 129              		.loc 1 79 1
 130 00b0 0100     		nop
 131 00b2 7244     		lw	s0,28(sp)
 132              		.cfi_restore 8
 133              		.cfi_def_cfa 2, 32
 134 00b4 0561     		addi	sp,sp,32
 135              		.cfi_def_cfa_offset 0
 136 00b6 8280     		jr	ra
 137              		.cfi_endproc
 138              	.LFE348:
 140              		.section	.text.hau_init_struct_para_init,"ax",@progbits
 141              		.align	1
 142              		.globl	hau_init_struct_para_init
 144              	hau_init_struct_para_init:
 145              	.LFB349:
  80:../Firmware/GD32VW55x_standard_peripheral/Source/gd32vw55x_hau.c **** 
  81:../Firmware/GD32VW55x_standard_peripheral/Source/gd32vw55x_hau.c **** /*!
  82:../Firmware/GD32VW55x_standard_peripheral/Source/gd32vw55x_hau.c ****     \brief      initialize the structure hau_initpara with default value 
  83:../Firmware/GD32VW55x_standard_peripheral/Source/gd32vw55x_hau.c ****     \param[in]  none
  84:../Firmware/GD32VW55x_standard_peripheral/Source/gd32vw55x_hau.c ****     \param[out] initpara: HAU init parameter struct 
  85:../Firmware/GD32VW55x_standard_peripheral/Source/gd32vw55x_hau.c ****     \retval     none
  86:../Firmware/GD32VW55x_standard_peripheral/Source/gd32vw55x_hau.c **** */
  87:../Firmware/GD32VW55x_standard_peripheral/Source/gd32vw55x_hau.c **** void hau_init_struct_para_init(hau_init_parameter_struct* initpara)
  88:../Firmware/GD32VW55x_standard_peripheral/Source/gd32vw55x_hau.c **** {
 146              		.loc 1 88 1
 147              		.cfi_startproc
 148 0000 0111     		addi	sp,sp,-32
 149              		.cfi_def_cfa_offset 32
 150 0002 22CE     		sw	s0,28(sp)
 151              		.cfi_offset 8, -4
 152 0004 0010     		addi	s0,sp,32
 153              		.cfi_def_cfa 8, 0
 154 0006 2326A4FE 		sw	a0,-20(s0)
  89:../Firmware/GD32VW55x_standard_peripheral/Source/gd32vw55x_hau.c ****     initpara->algo = HAU_ALGO_SHA1;
 155              		.loc 1 89 20
 156 000a 8327C4FE 		lw	a5,-20(s0)
 157 000e 23A00700 		sw	zero,0(a5)
  90:../Firmware/GD32VW55x_standard_peripheral/Source/gd32vw55x_hau.c ****     initpara->mode = HAU_MODE_HASH;
 158              		.loc 1 90 20
 159 0012 8327C4FE 		lw	a5,-20(s0)
 160 0016 23A20700 		sw	zero,4(a5)
  91:../Firmware/GD32VW55x_standard_peripheral/Source/gd32vw55x_hau.c ****     initpara->datatype = HAU_SWAPPING_32BIT;
 161              		.loc 1 91 24
 162 001a 8327C4FE 		lw	a5,-20(s0)
 163 001e 23A40700 		sw	zero,8(a5)
  92:../Firmware/GD32VW55x_standard_peripheral/Source/gd32vw55x_hau.c ****     initpara->keytype = HAU_KEY_SHORTER_64;
 164              		.loc 1 92 23
 165 0022 8327C4FE 		lw	a5,-20(s0)
 166 0026 23A60700 		sw	zero,12(a5)
  93:../Firmware/GD32VW55x_standard_peripheral/Source/gd32vw55x_hau.c **** }
 167              		.loc 1 93 1
 168 002a 0100     		nop
 169 002c 7244     		lw	s0,28(sp)
 170              		.cfi_restore 8
 171              		.cfi_def_cfa 2, 32
 172 002e 0561     		addi	sp,sp,32
 173              		.cfi_def_cfa_offset 0
 174 0030 8280     		jr	ra
 175              		.cfi_endproc
 176              	.LFE349:
 178              		.section	.text.hau_reset,"ax",@progbits
 179              		.align	1
 180              		.globl	hau_reset
 182              	hau_reset:
 183              	.LFB350:
  94:../Firmware/GD32VW55x_standard_peripheral/Source/gd32vw55x_hau.c **** 
  95:../Firmware/GD32VW55x_standard_peripheral/Source/gd32vw55x_hau.c **** /*!
  96:../Firmware/GD32VW55x_standard_peripheral/Source/gd32vw55x_hau.c ****     \brief      reset the HAU processor core
  97:../Firmware/GD32VW55x_standard_peripheral/Source/gd32vw55x_hau.c ****     \param[in]  none
  98:../Firmware/GD32VW55x_standard_peripheral/Source/gd32vw55x_hau.c ****     \param[out] none
  99:../Firmware/GD32VW55x_standard_peripheral/Source/gd32vw55x_hau.c ****     \retval     none
 100:../Firmware/GD32VW55x_standard_peripheral/Source/gd32vw55x_hau.c **** */
 101:../Firmware/GD32VW55x_standard_peripheral/Source/gd32vw55x_hau.c **** void hau_reset(void)
 102:../Firmware/GD32VW55x_standard_peripheral/Source/gd32vw55x_hau.c **** {
 184              		.loc 1 102 1
 185              		.cfi_startproc
 186 0000 4111     		addi	sp,sp,-16
 187              		.cfi_def_cfa_offset 16
 188 0002 22C6     		sw	s0,12(sp)
 189              		.cfi_offset 8, -4
 190 0004 0008     		addi	s0,sp,16
 191              		.cfi_def_cfa 8, 0
 103:../Firmware/GD32VW55x_standard_peripheral/Source/gd32vw55x_hau.c ****     /* set to 1 to reset the HAU processor core, then it is ready to start the digest calculation *
 104:../Firmware/GD32VW55x_standard_peripheral/Source/gd32vw55x_hau.c ****     HAU_CTL |= HAU_CTL_START;
 192              		.loc 1 104 13
 193 0006 B707064C 		li	a5,1275461632
 194 000a 93870740 		addi	a5,a5,1024
 195 000e 9843     		lw	a4,0(a5)
 196 0010 B707064C 		li	a5,1275461632
 197 0014 93870740 		addi	a5,a5,1024
 198 0018 13674700 		ori	a4,a4,4
 199 001c 98C3     		sw	a4,0(a5)
 105:../Firmware/GD32VW55x_standard_peripheral/Source/gd32vw55x_hau.c **** }
 200              		.loc 1 105 1
 201 001e 0100     		nop
 202 0020 3244     		lw	s0,12(sp)
 203              		.cfi_restore 8
 204              		.cfi_def_cfa 2, 16
 205 0022 4101     		addi	sp,sp,16
 206              		.cfi_def_cfa_offset 0
 207 0024 8280     		jr	ra
 208              		.cfi_endproc
 209              	.LFE350:
 211              		.section	.text.hau_last_word_validbits_num_config,"ax",@progbits
 212              		.align	1
 213              		.globl	hau_last_word_validbits_num_config
 215              	hau_last_word_validbits_num_config:
 216              	.LFB351:
 106:../Firmware/GD32VW55x_standard_peripheral/Source/gd32vw55x_hau.c **** 
 107:../Firmware/GD32VW55x_standard_peripheral/Source/gd32vw55x_hau.c **** /*!
 108:../Firmware/GD32VW55x_standard_peripheral/Source/gd32vw55x_hau.c ****     \brief      configure the number of valid bits in last word of the message
 109:../Firmware/GD32VW55x_standard_peripheral/Source/gd32vw55x_hau.c ****     \param[in]  valid_num: number of valid bits in last word of the message
 110:../Firmware/GD32VW55x_standard_peripheral/Source/gd32vw55x_hau.c ****                 only one parameter can be selected which is shown as below:
 111:../Firmware/GD32VW55x_standard_peripheral/Source/gd32vw55x_hau.c ****       \arg        0x00: all 32 bits of the last data written are valid
 112:../Firmware/GD32VW55x_standard_peripheral/Source/gd32vw55x_hau.c ****       \arg        0x01: only bit [31] of the last data written to HAU_DI after data swapping are va
 113:../Firmware/GD32VW55x_standard_peripheral/Source/gd32vw55x_hau.c ****       \arg        0x02: only bits [31:30] of the last data written to HAU_DI after data swapping ar
 114:../Firmware/GD32VW55x_standard_peripheral/Source/gd32vw55x_hau.c ****       \arg        0x03: only bits [31:29] of the last data written to HAU_DI after data swapping ar
 115:../Firmware/GD32VW55x_standard_peripheral/Source/gd32vw55x_hau.c ****                   ...
 116:../Firmware/GD32VW55x_standard_peripheral/Source/gd32vw55x_hau.c ****       \arg        0x1F: only bit [0] of the last data written to HAU_DI after data swapping are val
 117:../Firmware/GD32VW55x_standard_peripheral/Source/gd32vw55x_hau.c ****     \param[out] none
 118:../Firmware/GD32VW55x_standard_peripheral/Source/gd32vw55x_hau.c ****     \retval     none
 119:../Firmware/GD32VW55x_standard_peripheral/Source/gd32vw55x_hau.c **** */
 120:../Firmware/GD32VW55x_standard_peripheral/Source/gd32vw55x_hau.c **** void hau_last_word_validbits_num_config(uint32_t valid_num)
 121:../Firmware/GD32VW55x_standard_peripheral/Source/gd32vw55x_hau.c **** {
 217              		.loc 1 121 1
 218              		.cfi_startproc
 219 0000 0111     		addi	sp,sp,-32
 220              		.cfi_def_cfa_offset 32
 221 0002 22CE     		sw	s0,28(sp)
 222              		.cfi_offset 8, -4
 223 0004 0010     		addi	s0,sp,32
 224              		.cfi_def_cfa 8, 0
 225 0006 2326A4FE 		sw	a0,-20(s0)
 122:../Firmware/GD32VW55x_standard_peripheral/Source/gd32vw55x_hau.c ****     HAU_CFG &= (~(uint32_t)(HAU_CFG_VBL));
 226              		.loc 1 122 13
 227 000a B707064C 		li	a5,1275461632
 228 000e 93878740 		addi	a5,a5,1032
 229 0012 9843     		lw	a4,0(a5)
 230 0014 B707064C 		li	a5,1275461632
 231 0018 93878740 		addi	a5,a5,1032
 232 001c 019B     		andi	a4,a4,-32
 233 001e 98C3     		sw	a4,0(a5)
 123:../Firmware/GD32VW55x_standard_peripheral/Source/gd32vw55x_hau.c ****     HAU_CFG |= CFG_VBL(valid_num);
 234              		.loc 1 123 13
 235 0020 B707064C 		li	a5,1275461632
 236 0024 93878740 		addi	a5,a5,1032
 237 0028 9443     		lw	a3,0(a5)
 238              		.loc 1 123 16
 239 002a 8327C4FE 		lw	a5,-20(s0)
 240 002e 13F7F701 		andi	a4,a5,31
 241              		.loc 1 123 13
 242 0032 B707064C 		li	a5,1275461632
 243 0036 93878740 		addi	a5,a5,1032
 244 003a 558F     		or	a4,a3,a4
 245 003c 98C3     		sw	a4,0(a5)
 124:../Firmware/GD32VW55x_standard_peripheral/Source/gd32vw55x_hau.c **** }
 246              		.loc 1 124 1
 247 003e 0100     		nop
 248 0040 7244     		lw	s0,28(sp)
 249              		.cfi_restore 8
 250              		.cfi_def_cfa 2, 32
 251 0042 0561     		addi	sp,sp,32
 252              		.cfi_def_cfa_offset 0
 253 0044 8280     		jr	ra
 254              		.cfi_endproc
 255              	.LFE351:
 257              		.section	.text.hau_data_write,"ax",@progbits
 258              		.align	1
 259              		.globl	hau_data_write
 261              	hau_data_write:
 262              	.LFB352:
 125:../Firmware/GD32VW55x_standard_peripheral/Source/gd32vw55x_hau.c **** 
 126:../Firmware/GD32VW55x_standard_peripheral/Source/gd32vw55x_hau.c **** /*!
 127:../Firmware/GD32VW55x_standard_peripheral/Source/gd32vw55x_hau.c ****     \brief      write data to the IN FIFO
 128:../Firmware/GD32VW55x_standard_peripheral/Source/gd32vw55x_hau.c ****     \param[in]  data: data to write
 129:../Firmware/GD32VW55x_standard_peripheral/Source/gd32vw55x_hau.c ****     \param[out] none
 130:../Firmware/GD32VW55x_standard_peripheral/Source/gd32vw55x_hau.c ****     \retval     none
 131:../Firmware/GD32VW55x_standard_peripheral/Source/gd32vw55x_hau.c **** */
 132:../Firmware/GD32VW55x_standard_peripheral/Source/gd32vw55x_hau.c **** void hau_data_write(uint32_t data)
 133:../Firmware/GD32VW55x_standard_peripheral/Source/gd32vw55x_hau.c **** {
 263              		.loc 1 133 1
 264              		.cfi_startproc
 265 0000 0111     		addi	sp,sp,-32
 266              		.cfi_def_cfa_offset 32
 267 0002 22CE     		sw	s0,28(sp)
 268              		.cfi_offset 8, -4
 269 0004 0010     		addi	s0,sp,32
 270              		.cfi_def_cfa 8, 0
 271 0006 2326A4FE 		sw	a0,-20(s0)
 134:../Firmware/GD32VW55x_standard_peripheral/Source/gd32vw55x_hau.c ****     HAU_DI = data;
 272              		.loc 1 134 5
 273 000a B707064C 		li	a5,1275461632
 274 000e 93874740 		addi	a5,a5,1028
 275              		.loc 1 134 12
 276 0012 0327C4FE 		lw	a4,-20(s0)
 277 0016 98C3     		sw	a4,0(a5)
 135:../Firmware/GD32VW55x_standard_peripheral/Source/gd32vw55x_hau.c **** }
 278              		.loc 1 135 1
 279 0018 0100     		nop
 280 001a 7244     		lw	s0,28(sp)
 281              		.cfi_restore 8
 282              		.cfi_def_cfa 2, 32
 283 001c 0561     		addi	sp,sp,32
 284              		.cfi_def_cfa_offset 0
 285 001e 8280     		jr	ra
 286              		.cfi_endproc
 287              	.LFE352:
 289              		.section	.text.hau_infifo_words_num_get,"ax",@progbits
 290              		.align	1
 291              		.globl	hau_infifo_words_num_get
 293              	hau_infifo_words_num_get:
 294              	.LFB353:
 136:../Firmware/GD32VW55x_standard_peripheral/Source/gd32vw55x_hau.c **** 
 137:../Firmware/GD32VW55x_standard_peripheral/Source/gd32vw55x_hau.c **** /*!
 138:../Firmware/GD32VW55x_standard_peripheral/Source/gd32vw55x_hau.c ****     \brief      return the number of words already written into the IN FIFO
 139:../Firmware/GD32VW55x_standard_peripheral/Source/gd32vw55x_hau.c ****     \param[in]  none
 140:../Firmware/GD32VW55x_standard_peripheral/Source/gd32vw55x_hau.c ****     \param[out] none
 141:../Firmware/GD32VW55x_standard_peripheral/Source/gd32vw55x_hau.c ****     \retval     number of words in the input FIFO
 142:../Firmware/GD32VW55x_standard_peripheral/Source/gd32vw55x_hau.c **** */
 143:../Firmware/GD32VW55x_standard_peripheral/Source/gd32vw55x_hau.c **** uint32_t hau_infifo_words_num_get(void)
 144:../Firmware/GD32VW55x_standard_peripheral/Source/gd32vw55x_hau.c **** {
 295              		.loc 1 144 1
 296              		.cfi_startproc
 297 0000 0111     		addi	sp,sp,-32
 298              		.cfi_def_cfa_offset 32
 299 0002 22CE     		sw	s0,28(sp)
 300              		.cfi_offset 8, -4
 301 0004 0010     		addi	s0,sp,32
 302              		.cfi_def_cfa 8, 0
 145:../Firmware/GD32VW55x_standard_peripheral/Source/gd32vw55x_hau.c ****     uint32_t ret = 0U;
 303              		.loc 1 145 14
 304 0006 232604FE 		sw	zero,-20(s0)
 146:../Firmware/GD32VW55x_standard_peripheral/Source/gd32vw55x_hau.c ****     ret = GET_CTL_NWIF(HAU_CTL);
 305              		.loc 1 146 11
 306 000a B707064C 		li	a5,1275461632
 307 000e 93870740 		addi	a5,a5,1024
 308 0012 9C43     		lw	a5,0(a5)
 309 0014 A183     		srli	a5,a5,8
 310              		.loc 1 146 9
 311 0016 BD8B     		andi	a5,a5,15
 312 0018 2326F4FE 		sw	a5,-20(s0)
 147:../Firmware/GD32VW55x_standard_peripheral/Source/gd32vw55x_hau.c ****     return ret;
 313              		.loc 1 147 12
 314 001c 8327C4FE 		lw	a5,-20(s0)
 148:../Firmware/GD32VW55x_standard_peripheral/Source/gd32vw55x_hau.c **** }
 315              		.loc 1 148 1
 316 0020 3E85     		mv	a0,a5
 317 0022 7244     		lw	s0,28(sp)
 318              		.cfi_restore 8
 319              		.cfi_def_cfa 2, 32
 320 0024 0561     		addi	sp,sp,32
 321              		.cfi_def_cfa_offset 0
 322 0026 8280     		jr	ra
 323              		.cfi_endproc
 324              	.LFE353:
 326              		.section	.text.hau_digest_read,"ax",@progbits
 327              		.align	1
 328              		.globl	hau_digest_read
 330              	hau_digest_read:
 331              	.LFB354:
 149:../Firmware/GD32VW55x_standard_peripheral/Source/gd32vw55x_hau.c **** 
 150:../Firmware/GD32VW55x_standard_peripheral/Source/gd32vw55x_hau.c **** /*!
 151:../Firmware/GD32VW55x_standard_peripheral/Source/gd32vw55x_hau.c ****     \brief      read the message digest result
 152:../Firmware/GD32VW55x_standard_peripheral/Source/gd32vw55x_hau.c ****     \param[in]  none
 153:../Firmware/GD32VW55x_standard_peripheral/Source/gd32vw55x_hau.c ****     \param[out] digestpara: HAU digest parameter struct
 154:../Firmware/GD32VW55x_standard_peripheral/Source/gd32vw55x_hau.c ****                   out[7:0]: message digest result 0-7
 155:../Firmware/GD32VW55x_standard_peripheral/Source/gd32vw55x_hau.c ****     \retval     none
 156:../Firmware/GD32VW55x_standard_peripheral/Source/gd32vw55x_hau.c **** */
 157:../Firmware/GD32VW55x_standard_peripheral/Source/gd32vw55x_hau.c **** void hau_digest_read(hau_digest_parameter_struct* digestpara)
 158:../Firmware/GD32VW55x_standard_peripheral/Source/gd32vw55x_hau.c **** {
 332              		.loc 1 158 1
 333              		.cfi_startproc
 334 0000 0111     		addi	sp,sp,-32
 335              		.cfi_def_cfa_offset 32
 336 0002 22CE     		sw	s0,28(sp)
 337              		.cfi_offset 8, -4
 338 0004 0010     		addi	s0,sp,32
 339              		.cfi_def_cfa 8, 0
 340 0006 2326A4FE 		sw	a0,-20(s0)
 159:../Firmware/GD32VW55x_standard_peripheral/Source/gd32vw55x_hau.c ****     digestpara->out[0] = HAU_DO0;
 341              		.loc 1 159 26
 342 000a B707064C 		li	a5,1275461632
 343 000e 9387C740 		addi	a5,a5,1036
 344 0012 9843     		lw	a4,0(a5)
 345              		.loc 1 159 24
 346 0014 8327C4FE 		lw	a5,-20(s0)
 347 0018 98C3     		sw	a4,0(a5)
 160:../Firmware/GD32VW55x_standard_peripheral/Source/gd32vw55x_hau.c ****     digestpara->out[1] = HAU_DO1;
 348              		.loc 1 160 26
 349 001a B707064C 		li	a5,1275461632
 350 001e 93870741 		addi	a5,a5,1040
 351 0022 9843     		lw	a4,0(a5)
 352              		.loc 1 160 24
 353 0024 8327C4FE 		lw	a5,-20(s0)
 354 0028 D8C3     		sw	a4,4(a5)
 161:../Firmware/GD32VW55x_standard_peripheral/Source/gd32vw55x_hau.c ****     digestpara->out[2] = HAU_DO2;
 355              		.loc 1 161 26
 356 002a B707064C 		li	a5,1275461632
 357 002e 93874741 		addi	a5,a5,1044
 358 0032 9843     		lw	a4,0(a5)
 359              		.loc 1 161 24
 360 0034 8327C4FE 		lw	a5,-20(s0)
 361 0038 98C7     		sw	a4,8(a5)
 162:../Firmware/GD32VW55x_standard_peripheral/Source/gd32vw55x_hau.c ****     digestpara->out[3] = HAU_DO3;
 362              		.loc 1 162 26
 363 003a B707064C 		li	a5,1275461632
 364 003e 93878741 		addi	a5,a5,1048
 365 0042 9843     		lw	a4,0(a5)
 366              		.loc 1 162 24
 367 0044 8327C4FE 		lw	a5,-20(s0)
 368 0048 D8C7     		sw	a4,12(a5)
 163:../Firmware/GD32VW55x_standard_peripheral/Source/gd32vw55x_hau.c ****     digestpara->out[4] = HAU_DO4;
 369              		.loc 1 163 26
 370 004a B707064C 		li	a5,1275461632
 371 004e 9387C741 		addi	a5,a5,1052
 372 0052 9843     		lw	a4,0(a5)
 373              		.loc 1 163 24
 374 0054 8327C4FE 		lw	a5,-20(s0)
 375 0058 98CB     		sw	a4,16(a5)
 164:../Firmware/GD32VW55x_standard_peripheral/Source/gd32vw55x_hau.c ****     digestpara->out[5] = HAU_DO5;
 376              		.loc 1 164 26
 377 005a B707064C 		li	a5,1275461632
 378 005e 93874772 		addi	a5,a5,1828
 379 0062 9843     		lw	a4,0(a5)
 380              		.loc 1 164 24
 381 0064 8327C4FE 		lw	a5,-20(s0)
 382 0068 D8CB     		sw	a4,20(a5)
 165:../Firmware/GD32VW55x_standard_peripheral/Source/gd32vw55x_hau.c ****     digestpara->out[6] = HAU_DO6;
 383              		.loc 1 165 26
 384 006a B707064C 		li	a5,1275461632
 385 006e 93878772 		addi	a5,a5,1832
 386 0072 9843     		lw	a4,0(a5)
 387              		.loc 1 165 24
 388 0074 8327C4FE 		lw	a5,-20(s0)
 389 0078 98CF     		sw	a4,24(a5)
 166:../Firmware/GD32VW55x_standard_peripheral/Source/gd32vw55x_hau.c ****     digestpara->out[7] = HAU_DO7;
 390              		.loc 1 166 26
 391 007a B707064C 		li	a5,1275461632
 392 007e 9387C772 		addi	a5,a5,1836
 393 0082 9843     		lw	a4,0(a5)
 394              		.loc 1 166 24
 395 0084 8327C4FE 		lw	a5,-20(s0)
 396 0088 D8CF     		sw	a4,28(a5)
 167:../Firmware/GD32VW55x_standard_peripheral/Source/gd32vw55x_hau.c **** }
 397              		.loc 1 167 1
 398 008a 0100     		nop
 399 008c 7244     		lw	s0,28(sp)
 400              		.cfi_restore 8
 401              		.cfi_def_cfa 2, 32
 402 008e 0561     		addi	sp,sp,32
 403              		.cfi_def_cfa_offset 0
 404 0090 8280     		jr	ra
 405              		.cfi_endproc
 406              	.LFE354:
 408              		.section	.text.hau_digest_calculation_enable,"ax",@progbits
 409              		.align	1
 410              		.globl	hau_digest_calculation_enable
 412              	hau_digest_calculation_enable:
 413              	.LFB355:
 168:../Firmware/GD32VW55x_standard_peripheral/Source/gd32vw55x_hau.c **** 
 169:../Firmware/GD32VW55x_standard_peripheral/Source/gd32vw55x_hau.c **** /*!
 170:../Firmware/GD32VW55x_standard_peripheral/Source/gd32vw55x_hau.c ****     \brief      enable digest calculation
 171:../Firmware/GD32VW55x_standard_peripheral/Source/gd32vw55x_hau.c ****     \param[in]  none
 172:../Firmware/GD32VW55x_standard_peripheral/Source/gd32vw55x_hau.c ****     \param[out] none
 173:../Firmware/GD32VW55x_standard_peripheral/Source/gd32vw55x_hau.c ****     \retval     none
 174:../Firmware/GD32VW55x_standard_peripheral/Source/gd32vw55x_hau.c **** */
 175:../Firmware/GD32VW55x_standard_peripheral/Source/gd32vw55x_hau.c **** void hau_digest_calculation_enable(void)
 176:../Firmware/GD32VW55x_standard_peripheral/Source/gd32vw55x_hau.c **** {
 414              		.loc 1 176 1
 415              		.cfi_startproc
 416 0000 4111     		addi	sp,sp,-16
 417              		.cfi_def_cfa_offset 16
 418 0002 22C6     		sw	s0,12(sp)
 419              		.cfi_offset 8, -4
 420 0004 0008     		addi	s0,sp,16
 421              		.cfi_def_cfa 8, 0
 177:../Firmware/GD32VW55x_standard_peripheral/Source/gd32vw55x_hau.c ****     HAU_CFG |= HAU_CFG_CALEN;
 422              		.loc 1 177 13
 423 0006 B707064C 		li	a5,1275461632
 424 000a 93878740 		addi	a5,a5,1032
 425 000e 9843     		lw	a4,0(a5)
 426 0010 B707064C 		li	a5,1275461632
 427 0014 93878740 		addi	a5,a5,1032
 428 0018 13670710 		ori	a4,a4,256
 429 001c 98C3     		sw	a4,0(a5)
 178:../Firmware/GD32VW55x_standard_peripheral/Source/gd32vw55x_hau.c **** }
 430              		.loc 1 178 1
 431 001e 0100     		nop
 432 0020 3244     		lw	s0,12(sp)
 433              		.cfi_restore 8
 434              		.cfi_def_cfa 2, 16
 435 0022 4101     		addi	sp,sp,16
 436              		.cfi_def_cfa_offset 0
 437 0024 8280     		jr	ra
 438              		.cfi_endproc
 439              	.LFE355:
 441              		.section	.text.hau_multiple_single_dma_config,"ax",@progbits
 442              		.align	1
 443              		.globl	hau_multiple_single_dma_config
 445              	hau_multiple_single_dma_config:
 446              	.LFB356:
 179:../Firmware/GD32VW55x_standard_peripheral/Source/gd32vw55x_hau.c **** 
 180:../Firmware/GD32VW55x_standard_peripheral/Source/gd32vw55x_hau.c **** /*!
 181:../Firmware/GD32VW55x_standard_peripheral/Source/gd32vw55x_hau.c ****     \brief      configure single or multiple DMA is used, and digest calculation at the end of a DM
 182:../Firmware/GD32VW55x_standard_peripheral/Source/gd32vw55x_hau.c ****     \param[in]  multi_single
 183:../Firmware/GD32VW55x_standard_peripheral/Source/gd32vw55x_hau.c ****                 only one parameter can be selected which is shown as below
 184:../Firmware/GD32VW55x_standard_peripheral/Source/gd32vw55x_hau.c ****       \arg        SINGLE_DMA_AUTO_DIGEST: message padding and message digest calculation at the end
 185:../Firmware/GD32VW55x_standard_peripheral/Source/gd32vw55x_hau.c ****       \arg        MULTIPLE_DMA_NO_DIGEST: multiple DMA transfers needed and CALEN bit is not automa
 186:../Firmware/GD32VW55x_standard_peripheral/Source/gd32vw55x_hau.c ****     \param[out] none
 187:../Firmware/GD32VW55x_standard_peripheral/Source/gd32vw55x_hau.c ****     \retval     none
 188:../Firmware/GD32VW55x_standard_peripheral/Source/gd32vw55x_hau.c **** */
 189:../Firmware/GD32VW55x_standard_peripheral/Source/gd32vw55x_hau.c **** void hau_multiple_single_dma_config(uint32_t multi_single)
 190:../Firmware/GD32VW55x_standard_peripheral/Source/gd32vw55x_hau.c **** {
 447              		.loc 1 190 1
 448              		.cfi_startproc
 449 0000 0111     		addi	sp,sp,-32
 450              		.cfi_def_cfa_offset 32
 451 0002 22CE     		sw	s0,28(sp)
 452              		.cfi_offset 8, -4
 453 0004 0010     		addi	s0,sp,32
 454              		.cfi_def_cfa 8, 0
 455 0006 2326A4FE 		sw	a0,-20(s0)
 191:../Firmware/GD32VW55x_standard_peripheral/Source/gd32vw55x_hau.c ****     HAU_CTL &= (~(uint32_t)(HAU_CTL_MDS));
 456              		.loc 1 191 13
 457 000a B707064C 		li	a5,1275461632
 458 000e 93870740 		addi	a5,a5,1024
 459 0012 9443     		lw	a3,0(a5)
 460 0014 B707064C 		li	a5,1275461632
 461 0018 93870740 		addi	a5,a5,1024
 462 001c 7977     		li	a4,-8192
 463 001e 7D17     		addi	a4,a4,-1
 464 0020 758F     		and	a4,a3,a4
 465 0022 98C3     		sw	a4,0(a5)
 192:../Firmware/GD32VW55x_standard_peripheral/Source/gd32vw55x_hau.c ****     HAU_CTL |= multi_single;
 466              		.loc 1 192 13
 467 0024 B707064C 		li	a5,1275461632
 468 0028 93870740 		addi	a5,a5,1024
 469 002c 9443     		lw	a3,0(a5)
 470 002e B707064C 		li	a5,1275461632
 471 0032 93870740 		addi	a5,a5,1024
 472 0036 0327C4FE 		lw	a4,-20(s0)
 473 003a 558F     		or	a4,a3,a4
 474 003c 98C3     		sw	a4,0(a5)
 193:../Firmware/GD32VW55x_standard_peripheral/Source/gd32vw55x_hau.c **** }
 475              		.loc 1 193 1
 476 003e 0100     		nop
 477 0040 7244     		lw	s0,28(sp)
 478              		.cfi_restore 8
 479              		.cfi_def_cfa 2, 32
 480 0042 0561     		addi	sp,sp,32
 481              		.cfi_def_cfa_offset 0
 482 0044 8280     		jr	ra
 483              		.cfi_endproc
 484              	.LFE356:
 486              		.section	.text.hau_dma_enable,"ax",@progbits
 487              		.align	1
 488              		.globl	hau_dma_enable
 490              	hau_dma_enable:
 491              	.LFB357:
 194:../Firmware/GD32VW55x_standard_peripheral/Source/gd32vw55x_hau.c **** 
 195:../Firmware/GD32VW55x_standard_peripheral/Source/gd32vw55x_hau.c **** /*!
 196:../Firmware/GD32VW55x_standard_peripheral/Source/gd32vw55x_hau.c ****     \brief      enable the HAU DMA interface
 197:../Firmware/GD32VW55x_standard_peripheral/Source/gd32vw55x_hau.c ****     \param[in]  none
 198:../Firmware/GD32VW55x_standard_peripheral/Source/gd32vw55x_hau.c ****     \param[out] none
 199:../Firmware/GD32VW55x_standard_peripheral/Source/gd32vw55x_hau.c ****     \retval     none
 200:../Firmware/GD32VW55x_standard_peripheral/Source/gd32vw55x_hau.c **** */
 201:../Firmware/GD32VW55x_standard_peripheral/Source/gd32vw55x_hau.c **** void hau_dma_enable(void)
 202:../Firmware/GD32VW55x_standard_peripheral/Source/gd32vw55x_hau.c **** {
 492              		.loc 1 202 1
 493              		.cfi_startproc
 494 0000 4111     		addi	sp,sp,-16
 495              		.cfi_def_cfa_offset 16
 496 0002 22C6     		sw	s0,12(sp)
 497              		.cfi_offset 8, -4
 498 0004 0008     		addi	s0,sp,16
 499              		.cfi_def_cfa 8, 0
 203:../Firmware/GD32VW55x_standard_peripheral/Source/gd32vw55x_hau.c ****     HAU_CTL |= HAU_CTL_DMAE;
 500              		.loc 1 203 13
 501 0006 B707064C 		li	a5,1275461632
 502 000a 93870740 		addi	a5,a5,1024
 503 000e 9843     		lw	a4,0(a5)
 504 0010 B707064C 		li	a5,1275461632
 505 0014 93870740 		addi	a5,a5,1024
 506 0018 13678700 		ori	a4,a4,8
 507 001c 98C3     		sw	a4,0(a5)
 204:../Firmware/GD32VW55x_standard_peripheral/Source/gd32vw55x_hau.c **** }
 508              		.loc 1 204 1
 509 001e 0100     		nop
 510 0020 3244     		lw	s0,12(sp)
 511              		.cfi_restore 8
 512              		.cfi_def_cfa 2, 16
 513 0022 4101     		addi	sp,sp,16
 514              		.cfi_def_cfa_offset 0
 515 0024 8280     		jr	ra
 516              		.cfi_endproc
 517              	.LFE357:
 519              		.section	.text.hau_dma_disable,"ax",@progbits
 520              		.align	1
 521              		.globl	hau_dma_disable
 523              	hau_dma_disable:
 524              	.LFB358:
 205:../Firmware/GD32VW55x_standard_peripheral/Source/gd32vw55x_hau.c **** 
 206:../Firmware/GD32VW55x_standard_peripheral/Source/gd32vw55x_hau.c **** /*!
 207:../Firmware/GD32VW55x_standard_peripheral/Source/gd32vw55x_hau.c ****     \brief      disable the HAU DMA interface
 208:../Firmware/GD32VW55x_standard_peripheral/Source/gd32vw55x_hau.c ****     \param[in]  none
 209:../Firmware/GD32VW55x_standard_peripheral/Source/gd32vw55x_hau.c ****     \param[out] none
 210:../Firmware/GD32VW55x_standard_peripheral/Source/gd32vw55x_hau.c ****     \retval     none
 211:../Firmware/GD32VW55x_standard_peripheral/Source/gd32vw55x_hau.c **** */
 212:../Firmware/GD32VW55x_standard_peripheral/Source/gd32vw55x_hau.c **** void hau_dma_disable(void)
 213:../Firmware/GD32VW55x_standard_peripheral/Source/gd32vw55x_hau.c **** {
 525              		.loc 1 213 1
 526              		.cfi_startproc
 527 0000 4111     		addi	sp,sp,-16
 528              		.cfi_def_cfa_offset 16
 529 0002 22C6     		sw	s0,12(sp)
 530              		.cfi_offset 8, -4
 531 0004 0008     		addi	s0,sp,16
 532              		.cfi_def_cfa 8, 0
 214:../Firmware/GD32VW55x_standard_peripheral/Source/gd32vw55x_hau.c ****     HAU_CTL &= (~(uint32_t)(HAU_CTL_DMAE));
 533              		.loc 1 214 13
 534 0006 B707064C 		li	a5,1275461632
 535 000a 93870740 		addi	a5,a5,1024
 536 000e 9843     		lw	a4,0(a5)
 537 0010 B707064C 		li	a5,1275461632
 538 0014 93870740 		addi	a5,a5,1024
 539 0018 5D9B     		andi	a4,a4,-9
 540 001a 98C3     		sw	a4,0(a5)
 215:../Firmware/GD32VW55x_standard_peripheral/Source/gd32vw55x_hau.c **** }
 541              		.loc 1 215 1
 542 001c 0100     		nop
 543 001e 3244     		lw	s0,12(sp)
 544              		.cfi_restore 8
 545              		.cfi_def_cfa 2, 16
 546 0020 4101     		addi	sp,sp,16
 547              		.cfi_def_cfa_offset 0
 548 0022 8280     		jr	ra
 549              		.cfi_endproc
 550              	.LFE358:
 552              		.section	.text.hau_context_struct_para_init,"ax",@progbits
 553              		.align	1
 554              		.globl	hau_context_struct_para_init
 556              	hau_context_struct_para_init:
 557              	.LFB359:
 216:../Firmware/GD32VW55x_standard_peripheral/Source/gd32vw55x_hau.c **** 
 217:../Firmware/GD32VW55x_standard_peripheral/Source/gd32vw55x_hau.c **** /*!
 218:../Firmware/GD32VW55x_standard_peripheral/Source/gd32vw55x_hau.c ****     \brief      initialize the struct context
 219:../Firmware/GD32VW55x_standard_peripheral/Source/gd32vw55x_hau.c ****     \param[in]  context: HAU context parameter struct
 220:../Firmware/GD32VW55x_standard_peripheral/Source/gd32vw55x_hau.c ****     \param[out] none
 221:../Firmware/GD32VW55x_standard_peripheral/Source/gd32vw55x_hau.c ****     \retval     none
 222:../Firmware/GD32VW55x_standard_peripheral/Source/gd32vw55x_hau.c **** */
 223:../Firmware/GD32VW55x_standard_peripheral/Source/gd32vw55x_hau.c **** void hau_context_struct_para_init(hau_context_parameter_struct* context)
 224:../Firmware/GD32VW55x_standard_peripheral/Source/gd32vw55x_hau.c **** {
 558              		.loc 1 224 1
 559              		.cfi_startproc
 560 0000 7971     		addi	sp,sp,-48
 561              		.cfi_def_cfa_offset 48
 562 0002 22D6     		sw	s0,44(sp)
 563              		.cfi_offset 8, -4
 564 0004 0018     		addi	s0,sp,48
 565              		.cfi_def_cfa 8, 0
 566 0006 232EA4FC 		sw	a0,-36(s0)
 225:../Firmware/GD32VW55x_standard_peripheral/Source/gd32vw55x_hau.c ****     uint8_t i = 0U;
 567              		.loc 1 225 13
 568 000a A30704FE 		sb	zero,-17(s0)
 226:../Firmware/GD32VW55x_standard_peripheral/Source/gd32vw55x_hau.c **** 
 227:../Firmware/GD32VW55x_standard_peripheral/Source/gd32vw55x_hau.c ****     /* initialize context parameter struct */
 228:../Firmware/GD32VW55x_standard_peripheral/Source/gd32vw55x_hau.c ****     context->hau_inten_bak = 0U;
 569              		.loc 1 228 28
 570 000e 8327C4FD 		lw	a5,-36(s0)
 571 0012 23A40700 		sw	zero,8(a5)
 229:../Firmware/GD32VW55x_standard_peripheral/Source/gd32vw55x_hau.c ****     context->hau_cfg_bak = 0U;
 572              		.loc 1 229 26
 573 0016 8327C4FD 		lw	a5,-36(s0)
 574 001a 23A20700 		sw	zero,4(a5)
 230:../Firmware/GD32VW55x_standard_peripheral/Source/gd32vw55x_hau.c ****     context->hau_ctl_bak  = 0U;
 575              		.loc 1 230 27
 576 001e 8327C4FD 		lw	a5,-36(s0)
 577 0022 23A00700 		sw	zero,0(a5)
 231:../Firmware/GD32VW55x_standard_peripheral/Source/gd32vw55x_hau.c ****     for(i = 0U; i <= HMAC_CONTEXT_INTERNAL_REG; i++){
 578              		.loc 1 231 11
 579 0026 A30704FE 		sb	zero,-17(s0)
 580              		.loc 1 231 5
 581 002a 31A8     		j	.L16
 582              	.L17:
 232:../Firmware/GD32VW55x_standard_peripheral/Source/gd32vw55x_hau.c ****         context->hau_ctxs_bak[i] = 0U;
 583              		.loc 1 232 30 discriminator 3
 584 002c 8347F4FE 		lbu	a5,-17(s0)
 585              		.loc 1 232 34 discriminator 3
 586 0030 0327C4FD 		lw	a4,-36(s0)
 587 0034 8A07     		slli	a5,a5,2
 588 0036 BA97     		add	a5,a4,a5
 589 0038 23A60700 		sw	zero,12(a5)
 231:../Firmware/GD32VW55x_standard_peripheral/Source/gd32vw55x_hau.c ****     for(i = 0U; i <= HMAC_CONTEXT_INTERNAL_REG; i++){
 590              		.loc 1 231 50 discriminator 3
 591 003c 8347F4FE 		lbu	a5,-17(s0)
 592 0040 8507     		addi	a5,a5,1
 593 0042 A307F4FE 		sb	a5,-17(s0)
 594              	.L16:
 231:../Firmware/GD32VW55x_standard_peripheral/Source/gd32vw55x_hau.c ****     for(i = 0U; i <= HMAC_CONTEXT_INTERNAL_REG; i++){
 595              		.loc 1 231 5 discriminator 1
 596 0046 0347F4FE 		lbu	a4,-17(s0)
 597 004a 93075003 		li	a5,53
 598 004e E3FFE7FC 		bleu	a4,a5,.L17
 233:../Firmware/GD32VW55x_standard_peripheral/Source/gd32vw55x_hau.c ****     }
 234:../Firmware/GD32VW55x_standard_peripheral/Source/gd32vw55x_hau.c **** }
 599              		.loc 1 234 1
 600 0052 0100     		nop
 601 0054 0100     		nop
 602 0056 3254     		lw	s0,44(sp)
 603              		.cfi_restore 8
 604              		.cfi_def_cfa 2, 48
 605 0058 4561     		addi	sp,sp,48
 606              		.cfi_def_cfa_offset 0
 607 005a 8280     		jr	ra
 608              		.cfi_endproc
 609              	.LFE359:
 611              		.section	.text.hau_context_save,"ax",@progbits
 612              		.align	1
 613              		.globl	hau_context_save
 615              	hau_context_save:
 616              	.LFB360:
 235:../Firmware/GD32VW55x_standard_peripheral/Source/gd32vw55x_hau.c **** 
 236:../Firmware/GD32VW55x_standard_peripheral/Source/gd32vw55x_hau.c **** /*!
 237:../Firmware/GD32VW55x_standard_peripheral/Source/gd32vw55x_hau.c ****     \brief      save the HAU peripheral context
 238:../Firmware/GD32VW55x_standard_peripheral/Source/gd32vw55x_hau.c ****     \param[in]  none
 239:../Firmware/GD32VW55x_standard_peripheral/Source/gd32vw55x_hau.c ****     \param[out] context_save: pointer to a hau_context structure that contains the repository for c
 240:../Firmware/GD32VW55x_standard_peripheral/Source/gd32vw55x_hau.c ****     \retval     none
 241:../Firmware/GD32VW55x_standard_peripheral/Source/gd32vw55x_hau.c **** */
 242:../Firmware/GD32VW55x_standard_peripheral/Source/gd32vw55x_hau.c **** void hau_context_save(hau_context_parameter_struct* context_save)
 243:../Firmware/GD32VW55x_standard_peripheral/Source/gd32vw55x_hau.c **** {
 617              		.loc 1 243 1
 618              		.cfi_startproc
 619 0000 7971     		addi	sp,sp,-48
 620              		.cfi_def_cfa_offset 48
 621 0002 06D6     		sw	ra,44(sp)
 622 0004 22D4     		sw	s0,40(sp)
 623              		.cfi_offset 1, -4
 624              		.cfi_offset 8, -8
 625 0006 0018     		addi	s0,sp,48
 626              		.cfi_def_cfa 8, 0
 627 0008 232EA4FC 		sw	a0,-36(s0)
 244:../Firmware/GD32VW55x_standard_peripheral/Source/gd32vw55x_hau.c ****     uint8_t i = 0U;
 628              		.loc 1 244 13
 629 000c A30704FE 		sb	zero,-17(s0)
 245:../Firmware/GD32VW55x_standard_peripheral/Source/gd32vw55x_hau.c ****     uint8_t i_max = HASH_CONTEXT_INTERNAL_REG;
 630              		.loc 1 245 13
 631 0010 93075002 		li	a5,37
 632 0014 2307F4FE 		sb	a5,-18(s0)
 246:../Firmware/GD32VW55x_standard_peripheral/Source/gd32vw55x_hau.c **** 
 247:../Firmware/GD32VW55x_standard_peripheral/Source/gd32vw55x_hau.c ****     hau_context_struct_para_init(context_save);
 633              		.loc 1 247 5
 634 0018 0325C4FD 		lw	a0,-36(s0)
 635 001c 97000000 		call	hau_context_struct_para_init
 635      E7800000 
 248:../Firmware/GD32VW55x_standard_peripheral/Source/gd32vw55x_hau.c ****     /* save context registers */
 249:../Firmware/GD32VW55x_standard_peripheral/Source/gd32vw55x_hau.c ****     context_save->hau_inten_bak = HAU_INTEN;
 636              		.loc 1 249 35
 637 0024 B707064C 		li	a5,1275461632
 638 0028 93870742 		addi	a5,a5,1056
 639 002c 9843     		lw	a4,0(a5)
 640              		.loc 1 249 33
 641 002e 8327C4FD 		lw	a5,-36(s0)
 642 0032 98C7     		sw	a4,8(a5)
 250:../Firmware/GD32VW55x_standard_peripheral/Source/gd32vw55x_hau.c ****     context_save->hau_cfg_bak = HAU_CFG;
 643              		.loc 1 250 33
 644 0034 B707064C 		li	a5,1275461632
 645 0038 93878740 		addi	a5,a5,1032
 646 003c 9843     		lw	a4,0(a5)
 647              		.loc 1 250 31
 648 003e 8327C4FD 		lw	a5,-36(s0)
 649 0042 D8C3     		sw	a4,4(a5)
 251:../Firmware/GD32VW55x_standard_peripheral/Source/gd32vw55x_hau.c ****     context_save->hau_ctl_bak  = HAU_CTL;
 650              		.loc 1 251 34
 651 0044 B707064C 		li	a5,1275461632
 652 0048 93870740 		addi	a5,a5,1024
 653 004c 9843     		lw	a4,0(a5)
 654              		.loc 1 251 32
 655 004e 8327C4FD 		lw	a5,-36(s0)
 656 0052 98C3     		sw	a4,0(a5)
 252:../Firmware/GD32VW55x_standard_peripheral/Source/gd32vw55x_hau.c **** 
 253:../Firmware/GD32VW55x_standard_peripheral/Source/gd32vw55x_hau.c ****     if(0U != (HAU_CTL & HAU_CTL_HMS)){
 657              		.loc 1 253 15
 658 0054 B707064C 		li	a5,1275461632
 659 0058 93870740 		addi	a5,a5,1024
 660 005c 9C43     		lw	a5,0(a5)
 661              		.loc 1 253 23
 662 005e 93F70704 		andi	a5,a5,64
 663              		.loc 1 253 7
 664 0062 89C7     		beq	a5,zero,.L19
 254:../Firmware/GD32VW55x_standard_peripheral/Source/gd32vw55x_hau.c ****         i_max = HMAC_CONTEXT_INTERNAL_REG;
 665              		.loc 1 254 15
 666 0064 93075003 		li	a5,53
 667 0068 2307F4FE 		sb	a5,-18(s0)
 668              	.L19:
 255:../Firmware/GD32VW55x_standard_peripheral/Source/gd32vw55x_hau.c ****     }
 256:../Firmware/GD32VW55x_standard_peripheral/Source/gd32vw55x_hau.c ****     for(i = 0U; i <= i_max; i++){
 669              		.loc 1 256 11
 670 006c A30704FE 		sb	zero,-17(s0)
 671              		.loc 1 256 5
 672 0070 3DA0     		j	.L20
 673              	.L21:
 257:../Firmware/GD32VW55x_standard_peripheral/Source/gd32vw55x_hau.c ****         context_save->hau_ctxs_bak[i] = HAU_CTXS(i);
 674              		.loc 1 257 41 discriminator 3
 675 0072 0347F4FE 		lbu	a4,-17(s0)
 676 0076 B7870113 		li	a5,318865408
 677 007a 9387E713 		addi	a5,a5,318
 678 007e BA97     		add	a5,a4,a5
 679 0080 8A07     		slli	a5,a5,2
 680 0082 3E87     		mv	a4,a5
 681              		.loc 1 257 35 discriminator 3
 682 0084 8347F4FE 		lbu	a5,-17(s0)
 683              		.loc 1 257 41 discriminator 3
 684 0088 1843     		lw	a4,0(a4)
 685              		.loc 1 257 39 discriminator 3
 686 008a 8326C4FD 		lw	a3,-36(s0)
 687 008e 8A07     		slli	a5,a5,2
 688 0090 B697     		add	a5,a3,a5
 689 0092 D8C7     		sw	a4,12(a5)
 256:../Firmware/GD32VW55x_standard_peripheral/Source/gd32vw55x_hau.c ****         context_save->hau_ctxs_bak[i] = HAU_CTXS(i);
 690              		.loc 1 256 30 discriminator 3
 691 0094 8347F4FE 		lbu	a5,-17(s0)
 692 0098 8507     		addi	a5,a5,1
 693 009a A307F4FE 		sb	a5,-17(s0)
 694              	.L20:
 256:../Firmware/GD32VW55x_standard_peripheral/Source/gd32vw55x_hau.c ****         context_save->hau_ctxs_bak[i] = HAU_CTXS(i);
 695              		.loc 1 256 5 discriminator 1
 696 009e 0347F4FE 		lbu	a4,-17(s0)
 697 00a2 8347E4FE 		lbu	a5,-18(s0)
 698 00a6 E3F6E7FC 		bleu	a4,a5,.L21
 258:../Firmware/GD32VW55x_standard_peripheral/Source/gd32vw55x_hau.c ****     }
 259:../Firmware/GD32VW55x_standard_peripheral/Source/gd32vw55x_hau.c **** }
 699              		.loc 1 259 1
 700 00aa 0100     		nop
 701 00ac 0100     		nop
 702 00ae B250     		lw	ra,44(sp)
 703              		.cfi_restore 1
 704 00b0 2254     		lw	s0,40(sp)
 705              		.cfi_restore 8
 706              		.cfi_def_cfa 2, 48
 707 00b2 4561     		addi	sp,sp,48
 708              		.cfi_def_cfa_offset 0
 709 00b4 8280     		jr	ra
 710              		.cfi_endproc
 711              	.LFE360:
 713              		.section	.text.hau_context_restore,"ax",@progbits
 714              		.align	1
 715              		.globl	hau_context_restore
 717              	hau_context_restore:
 718              	.LFB361:
 260:../Firmware/GD32VW55x_standard_peripheral/Source/gd32vw55x_hau.c **** 
 261:../Firmware/GD32VW55x_standard_peripheral/Source/gd32vw55x_hau.c **** /*!
 262:../Firmware/GD32VW55x_standard_peripheral/Source/gd32vw55x_hau.c ****     \brief      restore the HAU peripheral context
 263:../Firmware/GD32VW55x_standard_peripheral/Source/gd32vw55x_hau.c ****     \param[in]  context_restore: pointer to a hau_context_parameter_struct structure that contains 
 264:../Firmware/GD32VW55x_standard_peripheral/Source/gd32vw55x_hau.c ****     \param[out] none
 265:../Firmware/GD32VW55x_standard_peripheral/Source/gd32vw55x_hau.c ****     \retval     none
 266:../Firmware/GD32VW55x_standard_peripheral/Source/gd32vw55x_hau.c **** */
 267:../Firmware/GD32VW55x_standard_peripheral/Source/gd32vw55x_hau.c **** void hau_context_restore(hau_context_parameter_struct* context_restore)
 268:../Firmware/GD32VW55x_standard_peripheral/Source/gd32vw55x_hau.c **** {
 719              		.loc 1 268 1
 720              		.cfi_startproc
 721 0000 7971     		addi	sp,sp,-48
 722              		.cfi_def_cfa_offset 48
 723 0002 22D6     		sw	s0,44(sp)
 724              		.cfi_offset 8, -4
 725 0004 0018     		addi	s0,sp,48
 726              		.cfi_def_cfa 8, 0
 727 0006 232EA4FC 		sw	a0,-36(s0)
 269:../Firmware/GD32VW55x_standard_peripheral/Source/gd32vw55x_hau.c ****     uint8_t i = 0U;
 728              		.loc 1 269 13
 729 000a A30704FE 		sb	zero,-17(s0)
 270:../Firmware/GD32VW55x_standard_peripheral/Source/gd32vw55x_hau.c ****     uint8_t i_max = HASH_CONTEXT_INTERNAL_REG;
 730              		.loc 1 270 13
 731 000e 93075002 		li	a5,37
 732 0012 2307F4FE 		sb	a5,-18(s0)
 271:../Firmware/GD32VW55x_standard_peripheral/Source/gd32vw55x_hau.c **** 
 272:../Firmware/GD32VW55x_standard_peripheral/Source/gd32vw55x_hau.c ****     /* restore context registers */
 273:../Firmware/GD32VW55x_standard_peripheral/Source/gd32vw55x_hau.c ****     HAU_INTEN = context_restore->hau_inten_bak;
 733              		.loc 1 273 5
 734 0016 B707064C 		li	a5,1275461632
 735 001a 93870742 		addi	a5,a5,1056
 736              		.loc 1 273 32
 737 001e 0327C4FD 		lw	a4,-36(s0)
 738 0022 1847     		lw	a4,8(a4)
 739              		.loc 1 273 15
 740 0024 98C3     		sw	a4,0(a5)
 274:../Firmware/GD32VW55x_standard_peripheral/Source/gd32vw55x_hau.c ****     HAU_CFG = context_restore->hau_cfg_bak;
 741              		.loc 1 274 5
 742 0026 B707064C 		li	a5,1275461632
 743 002a 93878740 		addi	a5,a5,1032
 744              		.loc 1 274 30
 745 002e 0327C4FD 		lw	a4,-36(s0)
 746 0032 5843     		lw	a4,4(a4)
 747              		.loc 1 274 13
 748 0034 98C3     		sw	a4,0(a5)
 275:../Firmware/GD32VW55x_standard_peripheral/Source/gd32vw55x_hau.c ****     HAU_CTL = context_restore->hau_ctl_bak;
 749              		.loc 1 275 5
 750 0036 B707064C 		li	a5,1275461632
 751 003a 93870740 		addi	a5,a5,1024
 752              		.loc 1 275 30
 753 003e 0327C4FD 		lw	a4,-36(s0)
 754 0042 1843     		lw	a4,0(a4)
 755              		.loc 1 275 13
 756 0044 98C3     		sw	a4,0(a5)
 276:../Firmware/GD32VW55x_standard_peripheral/Source/gd32vw55x_hau.c ****     /* Initialize the hash processor */
 277:../Firmware/GD32VW55x_standard_peripheral/Source/gd32vw55x_hau.c ****     HAU_CTL |= HAU_CTL_START;
 757              		.loc 1 277 13
 758 0046 B707064C 		li	a5,1275461632
 759 004a 93870740 		addi	a5,a5,1024
 760 004e 9843     		lw	a4,0(a5)
 761 0050 B707064C 		li	a5,1275461632
 762 0054 93870740 		addi	a5,a5,1024
 763 0058 13674700 		ori	a4,a4,4
 764 005c 98C3     		sw	a4,0(a5)
 278:../Firmware/GD32VW55x_standard_peripheral/Source/gd32vw55x_hau.c **** 
 279:../Firmware/GD32VW55x_standard_peripheral/Source/gd32vw55x_hau.c ****     /* continue restoring context registers */
 280:../Firmware/GD32VW55x_standard_peripheral/Source/gd32vw55x_hau.c ****     if(0U != (HAU_CTL & HAU_CTL_HMS)){
 765              		.loc 1 280 15
 766 005e B707064C 		li	a5,1275461632
 767 0062 93870740 		addi	a5,a5,1024
 768 0066 9C43     		lw	a5,0(a5)
 769              		.loc 1 280 23
 770 0068 93F70704 		andi	a5,a5,64
 771              		.loc 1 280 7
 772 006c 89C7     		beq	a5,zero,.L23
 281:../Firmware/GD32VW55x_standard_peripheral/Source/gd32vw55x_hau.c ****         i_max = HMAC_CONTEXT_INTERNAL_REG;
 773              		.loc 1 281 15
 774 006e 93075003 		li	a5,53
 775 0072 2307F4FE 		sb	a5,-18(s0)
 776              	.L23:
 282:../Firmware/GD32VW55x_standard_peripheral/Source/gd32vw55x_hau.c ****     }
 283:../Firmware/GD32VW55x_standard_peripheral/Source/gd32vw55x_hau.c ****     for(i = 0U; i <= i_max; i++){
 777              		.loc 1 283 11
 778 0076 A30704FE 		sb	zero,-17(s0)
 779              		.loc 1 283 5
 780 007a 3DA0     		j	.L24
 781              	.L25:
 284:../Firmware/GD32VW55x_standard_peripheral/Source/gd32vw55x_hau.c ****         HAU_CTXS(i) = context_restore->hau_ctxs_bak[i];
 782              		.loc 1 284 52 discriminator 3
 783 007c 8347F4FE 		lbu	a5,-17(s0)
 784              		.loc 1 284 9 discriminator 3
 785 0080 8346F4FE 		lbu	a3,-17(s0)
 786 0084 37870113 		li	a4,318865408
 787 0088 1307E713 		addi	a4,a4,318
 788 008c 3697     		add	a4,a3,a4
 789 008e 0A07     		slli	a4,a4,2
 790 0090 BA86     		mv	a3,a4
 791              		.loc 1 284 52 discriminator 3
 792 0092 0327C4FD 		lw	a4,-36(s0)
 793 0096 8A07     		slli	a5,a5,2
 794 0098 BA97     		add	a5,a4,a5
 795 009a DC47     		lw	a5,12(a5)
 796              		.loc 1 284 21 discriminator 3
 797 009c 9CC2     		sw	a5,0(a3)
 283:../Firmware/GD32VW55x_standard_peripheral/Source/gd32vw55x_hau.c ****         HAU_CTXS(i) = context_restore->hau_ctxs_bak[i];
 798              		.loc 1 283 30 discriminator 3
 799 009e 8347F4FE 		lbu	a5,-17(s0)
 800 00a2 8507     		addi	a5,a5,1
 801 00a4 A307F4FE 		sb	a5,-17(s0)
 802              	.L24:
 283:../Firmware/GD32VW55x_standard_peripheral/Source/gd32vw55x_hau.c ****         HAU_CTXS(i) = context_restore->hau_ctxs_bak[i];
 803              		.loc 1 283 5 discriminator 1
 804 00a8 0347F4FE 		lbu	a4,-17(s0)
 805 00ac 8347E4FE 		lbu	a5,-18(s0)
 806 00b0 E3F6E7FC 		bleu	a4,a5,.L25
 285:../Firmware/GD32VW55x_standard_peripheral/Source/gd32vw55x_hau.c ****     }
 286:../Firmware/GD32VW55x_standard_peripheral/Source/gd32vw55x_hau.c **** }
 807              		.loc 1 286 1
 808 00b4 0100     		nop
 809 00b6 0100     		nop
 810 00b8 3254     		lw	s0,44(sp)
 811              		.cfi_restore 8
 812              		.cfi_def_cfa 2, 48
 813 00ba 4561     		addi	sp,sp,48
 814              		.cfi_def_cfa_offset 0
 815 00bc 8280     		jr	ra
 816              		.cfi_endproc
 817              	.LFE361:
 819              		.section	.text.hau_flag_get,"ax",@progbits
 820              		.align	1
 821              		.globl	hau_flag_get
 823              	hau_flag_get:
 824              	.LFB362:
 287:../Firmware/GD32VW55x_standard_peripheral/Source/gd32vw55x_hau.c **** 
 288:../Firmware/GD32VW55x_standard_peripheral/Source/gd32vw55x_hau.c **** /*!
 289:../Firmware/GD32VW55x_standard_peripheral/Source/gd32vw55x_hau.c ****     \brief      get the HAU flag status
 290:../Firmware/GD32VW55x_standard_peripheral/Source/gd32vw55x_hau.c ****     \param[in]  flag: HAU flag status
 291:../Firmware/GD32VW55x_standard_peripheral/Source/gd32vw55x_hau.c ****                 only one parameter can be selected which is shown as below:
 292:../Firmware/GD32VW55x_standard_peripheral/Source/gd32vw55x_hau.c ****       \arg        HAU_FLAG_DATA_INPUT: there is enough space (16 bytes) in the input FIFO
 293:../Firmware/GD32VW55x_standard_peripheral/Source/gd32vw55x_hau.c ****       \arg        HAU_FLAG_CALCULATION_COMPLETE: digest calculation is completed
 294:../Firmware/GD32VW55x_standard_peripheral/Source/gd32vw55x_hau.c ****       \arg        HAU_FLAG_DMA: DMA is enabled (DMAE =1) or a transfer is processing
 295:../Firmware/GD32VW55x_standard_peripheral/Source/gd32vw55x_hau.c ****       \arg        HAU_FLAG_BUSY: data block is in process
 296:../Firmware/GD32VW55x_standard_peripheral/Source/gd32vw55x_hau.c ****       \arg        HAU_FLAG_INFIFO_NO_EMPTY: the input FIFO is not empty
 297:../Firmware/GD32VW55x_standard_peripheral/Source/gd32vw55x_hau.c ****     \param[out] none
 298:../Firmware/GD32VW55x_standard_peripheral/Source/gd32vw55x_hau.c ****     \retval     FlagStatus: SET or RESET
 299:../Firmware/GD32VW55x_standard_peripheral/Source/gd32vw55x_hau.c **** */
 300:../Firmware/GD32VW55x_standard_peripheral/Source/gd32vw55x_hau.c **** FlagStatus hau_flag_get(uint32_t flag)
 301:../Firmware/GD32VW55x_standard_peripheral/Source/gd32vw55x_hau.c **** {
 825              		.loc 1 301 1
 826              		.cfi_startproc
 827 0000 7971     		addi	sp,sp,-48
 828              		.cfi_def_cfa_offset 48
 829 0002 22D6     		sw	s0,44(sp)
 830              		.cfi_offset 8, -4
 831 0004 0018     		addi	s0,sp,48
 832              		.cfi_def_cfa 8, 0
 833 0006 232EA4FC 		sw	a0,-36(s0)
 302:../Firmware/GD32VW55x_standard_peripheral/Source/gd32vw55x_hau.c ****     uint32_t ret = 0U;
 834              		.loc 1 302 14
 835 000a 232604FE 		sw	zero,-20(s0)
 303:../Firmware/GD32VW55x_standard_peripheral/Source/gd32vw55x_hau.c ****     FlagStatus ret_flag = RESET;
 836              		.loc 1 303 16
 837 000e 232404FE 		sw	zero,-24(s0)
 304:../Firmware/GD32VW55x_standard_peripheral/Source/gd32vw55x_hau.c **** 
 305:../Firmware/GD32VW55x_standard_peripheral/Source/gd32vw55x_hau.c ****     /* check if the flag is in HAU_CTL register */
 306:../Firmware/GD32VW55x_standard_peripheral/Source/gd32vw55x_hau.c ****     if(RESET != (flag & HAU_FLAG_INFIFO_NO_EMPTY)){
 838              		.loc 1 306 23
 839 0012 0327C4FD 		lw	a4,-36(s0)
 840 0016 8567     		li	a5,4096
 841 0018 F98F     		and	a5,a4,a5
 842              		.loc 1 306 7
 843 001a 89CB     		beq	a5,zero,.L27
 307:../Firmware/GD32VW55x_standard_peripheral/Source/gd32vw55x_hau.c ****         ret = HAU_CTL;
 844              		.loc 1 307 15
 845 001c B707064C 		li	a5,1275461632
 846 0020 93870740 		addi	a5,a5,1024
 847              		.loc 1 307 13
 848 0024 9C43     		lw	a5,0(a5)
 849 0026 2326F4FE 		sw	a5,-20(s0)
 850 002a 01A8     		j	.L28
 851              	.L27:
 308:../Firmware/GD32VW55x_standard_peripheral/Source/gd32vw55x_hau.c ****     }else{
 309:../Firmware/GD32VW55x_standard_peripheral/Source/gd32vw55x_hau.c ****         ret = HAU_STAT;
 852              		.loc 1 309 15
 853 002c B707064C 		li	a5,1275461632
 854 0030 93874742 		addi	a5,a5,1060
 855              		.loc 1 309 13
 856 0034 9C43     		lw	a5,0(a5)
 857 0036 2326F4FE 		sw	a5,-20(s0)
 858              	.L28:
 310:../Firmware/GD32VW55x_standard_peripheral/Source/gd32vw55x_hau.c ****     }
 311:../Firmware/GD32VW55x_standard_peripheral/Source/gd32vw55x_hau.c **** 
 312:../Firmware/GD32VW55x_standard_peripheral/Source/gd32vw55x_hau.c ****     if (RESET != (ret & flag)){
 859              		.loc 1 312 23
 860 003a 0327C4FE 		lw	a4,-20(s0)
 861 003e 8327C4FD 		lw	a5,-36(s0)
 862 0042 F98F     		and	a5,a4,a5
 863              		.loc 1 312 8
 864 0044 81C7     		beq	a5,zero,.L29
 313:../Firmware/GD32VW55x_standard_peripheral/Source/gd32vw55x_hau.c ****         ret_flag = SET;
 865              		.loc 1 313 18
 866 0046 8547     		li	a5,1
 867 0048 2324F4FE 		sw	a5,-24(s0)
 868              	.L29:
 314:../Firmware/GD32VW55x_standard_peripheral/Source/gd32vw55x_hau.c ****     }
 315:../Firmware/GD32VW55x_standard_peripheral/Source/gd32vw55x_hau.c **** 
 316:../Firmware/GD32VW55x_standard_peripheral/Source/gd32vw55x_hau.c ****     return ret_flag;
 869              		.loc 1 316 12
 870 004c 832784FE 		lw	a5,-24(s0)
 317:../Firmware/GD32VW55x_standard_peripheral/Source/gd32vw55x_hau.c **** }
 871              		.loc 1 317 1
 872 0050 3E85     		mv	a0,a5
 873 0052 3254     		lw	s0,44(sp)
 874              		.cfi_restore 8
 875              		.cfi_def_cfa 2, 48
 876 0054 4561     		addi	sp,sp,48
 877              		.cfi_def_cfa_offset 0
 878 0056 8280     		jr	ra
 879              		.cfi_endproc
 880              	.LFE362:
 882              		.section	.text.hau_flag_clear,"ax",@progbits
 883              		.align	1
 884              		.globl	hau_flag_clear
 886              	hau_flag_clear:
 887              	.LFB363:
 318:../Firmware/GD32VW55x_standard_peripheral/Source/gd32vw55x_hau.c **** 
 319:../Firmware/GD32VW55x_standard_peripheral/Source/gd32vw55x_hau.c **** /*!
 320:../Firmware/GD32VW55x_standard_peripheral/Source/gd32vw55x_hau.c ****     \brief      clear the HAU flag status
 321:../Firmware/GD32VW55x_standard_peripheral/Source/gd32vw55x_hau.c ****     \param[in]  flag: HAU flag status
 322:../Firmware/GD32VW55x_standard_peripheral/Source/gd32vw55x_hau.c ****                 one or more parameters can be selected which are shown as below
 323:../Firmware/GD32VW55x_standard_peripheral/Source/gd32vw55x_hau.c ****       \arg        HAU_FLAG_DATA_INPUT: there is enough space (16 bytes) in the input FIFO
 324:../Firmware/GD32VW55x_standard_peripheral/Source/gd32vw55x_hau.c ****       \arg        HAU_FLAG_CALCULATION_COMPLETE: digest calculation is completed
 325:../Firmware/GD32VW55x_standard_peripheral/Source/gd32vw55x_hau.c ****     \param[out] none
 326:../Firmware/GD32VW55x_standard_peripheral/Source/gd32vw55x_hau.c ****     \retval     none
 327:../Firmware/GD32VW55x_standard_peripheral/Source/gd32vw55x_hau.c **** */
 328:../Firmware/GD32VW55x_standard_peripheral/Source/gd32vw55x_hau.c **** void hau_flag_clear(uint32_t flag)
 329:../Firmware/GD32VW55x_standard_peripheral/Source/gd32vw55x_hau.c **** {
 888              		.loc 1 329 1
 889              		.cfi_startproc
 890 0000 0111     		addi	sp,sp,-32
 891              		.cfi_def_cfa_offset 32
 892 0002 22CE     		sw	s0,28(sp)
 893              		.cfi_offset 8, -4
 894 0004 0010     		addi	s0,sp,32
 895              		.cfi_def_cfa 8, 0
 896 0006 2326A4FE 		sw	a0,-20(s0)
 330:../Firmware/GD32VW55x_standard_peripheral/Source/gd32vw55x_hau.c ****     HAU_STAT = ~(uint32_t)(flag);
 897              		.loc 1 330 5
 898 000a B707064C 		li	a5,1275461632
 899 000e 93874742 		addi	a5,a5,1060
 900              		.loc 1 330 16
 901 0012 0327C4FE 		lw	a4,-20(s0)
 902 0016 1347F7FF 		not	a4,a4
 903              		.loc 1 330 14
 904 001a 98C3     		sw	a4,0(a5)
 331:../Firmware/GD32VW55x_standard_peripheral/Source/gd32vw55x_hau.c **** }
 905              		.loc 1 331 1
 906 001c 0100     		nop
 907 001e 7244     		lw	s0,28(sp)
 908              		.cfi_restore 8
 909              		.cfi_def_cfa 2, 32
 910 0020 0561     		addi	sp,sp,32
 911              		.cfi_def_cfa_offset 0
 912 0022 8280     		jr	ra
 913              		.cfi_endproc
 914              	.LFE363:
 916              		.section	.text.hau_interrupt_enable,"ax",@progbits
 917              		.align	1
 918              		.globl	hau_interrupt_enable
 920              	hau_interrupt_enable:
 921              	.LFB364:
 332:../Firmware/GD32VW55x_standard_peripheral/Source/gd32vw55x_hau.c **** 
 333:../Firmware/GD32VW55x_standard_peripheral/Source/gd32vw55x_hau.c **** /*!
 334:../Firmware/GD32VW55x_standard_peripheral/Source/gd32vw55x_hau.c ****     \brief      enable the HAU interrupts
 335:../Firmware/GD32VW55x_standard_peripheral/Source/gd32vw55x_hau.c ****     \param[in]  interrupt: specify the HAU interrupt source to be enabled
 336:../Firmware/GD32VW55x_standard_peripheral/Source/gd32vw55x_hau.c ****                 one or more parameters can be selected which are shown as below
 337:../Firmware/GD32VW55x_standard_peripheral/Source/gd32vw55x_hau.c ****       \arg        HAU_INT_DATA_INPUT: a new block can be entered into the IN buffer
 338:../Firmware/GD32VW55x_standard_peripheral/Source/gd32vw55x_hau.c ****       \arg        HAU_INT_CALCULATION_COMPLETE: calculation complete
 339:../Firmware/GD32VW55x_standard_peripheral/Source/gd32vw55x_hau.c ****     \param[out] none
 340:../Firmware/GD32VW55x_standard_peripheral/Source/gd32vw55x_hau.c ****     \retval     none
 341:../Firmware/GD32VW55x_standard_peripheral/Source/gd32vw55x_hau.c **** */
 342:../Firmware/GD32VW55x_standard_peripheral/Source/gd32vw55x_hau.c **** void hau_interrupt_enable(uint32_t interrupt)
 343:../Firmware/GD32VW55x_standard_peripheral/Source/gd32vw55x_hau.c **** {
 922              		.loc 1 343 1
 923              		.cfi_startproc
 924 0000 0111     		addi	sp,sp,-32
 925              		.cfi_def_cfa_offset 32
 926 0002 22CE     		sw	s0,28(sp)
 927              		.cfi_offset 8, -4
 928 0004 0010     		addi	s0,sp,32
 929              		.cfi_def_cfa 8, 0
 930 0006 2326A4FE 		sw	a0,-20(s0)
 344:../Firmware/GD32VW55x_standard_peripheral/Source/gd32vw55x_hau.c ****     HAU_INTEN |= interrupt;
 931              		.loc 1 344 15
 932 000a B707064C 		li	a5,1275461632
 933 000e 93870742 		addi	a5,a5,1056
 934 0012 9443     		lw	a3,0(a5)
 935 0014 B707064C 		li	a5,1275461632
 936 0018 93870742 		addi	a5,a5,1056
 937 001c 0327C4FE 		lw	a4,-20(s0)
 938 0020 558F     		or	a4,a3,a4
 939 0022 98C3     		sw	a4,0(a5)
 345:../Firmware/GD32VW55x_standard_peripheral/Source/gd32vw55x_hau.c **** }
 940              		.loc 1 345 1
 941 0024 0100     		nop
 942 0026 7244     		lw	s0,28(sp)
 943              		.cfi_restore 8
 944              		.cfi_def_cfa 2, 32
 945 0028 0561     		addi	sp,sp,32
 946              		.cfi_def_cfa_offset 0
 947 002a 8280     		jr	ra
 948              		.cfi_endproc
 949              	.LFE364:
 951              		.section	.text.hau_interrupt_disable,"ax",@progbits
 952              		.align	1
 953              		.globl	hau_interrupt_disable
 955              	hau_interrupt_disable:
 956              	.LFB365:
 346:../Firmware/GD32VW55x_standard_peripheral/Source/gd32vw55x_hau.c **** 
 347:../Firmware/GD32VW55x_standard_peripheral/Source/gd32vw55x_hau.c **** /*!
 348:../Firmware/GD32VW55x_standard_peripheral/Source/gd32vw55x_hau.c ****     \brief      disable the HAU interrupts
 349:../Firmware/GD32VW55x_standard_peripheral/Source/gd32vw55x_hau.c ****     \param[in]  interrupt: specify the HAU interrupt source to be disabled
 350:../Firmware/GD32VW55x_standard_peripheral/Source/gd32vw55x_hau.c ****                 one or more parameters can be selected which are shown as below
 351:../Firmware/GD32VW55x_standard_peripheral/Source/gd32vw55x_hau.c ****       \arg        HAU_INT_DATA_INPUT: a new block can be entered into the IN buffer
 352:../Firmware/GD32VW55x_standard_peripheral/Source/gd32vw55x_hau.c ****       \arg        HAU_INT_CALCULATION_COMPLETE: calculation complete
 353:../Firmware/GD32VW55x_standard_peripheral/Source/gd32vw55x_hau.c ****     \param[out] none
 354:../Firmware/GD32VW55x_standard_peripheral/Source/gd32vw55x_hau.c ****     \retval     none
 355:../Firmware/GD32VW55x_standard_peripheral/Source/gd32vw55x_hau.c **** */
 356:../Firmware/GD32VW55x_standard_peripheral/Source/gd32vw55x_hau.c **** void hau_interrupt_disable(uint32_t interrupt)
 357:../Firmware/GD32VW55x_standard_peripheral/Source/gd32vw55x_hau.c **** {
 957              		.loc 1 357 1
 958              		.cfi_startproc
 959 0000 0111     		addi	sp,sp,-32
 960              		.cfi_def_cfa_offset 32
 961 0002 22CE     		sw	s0,28(sp)
 962              		.cfi_offset 8, -4
 963 0004 0010     		addi	s0,sp,32
 964              		.cfi_def_cfa 8, 0
 965 0006 2326A4FE 		sw	a0,-20(s0)
 358:../Firmware/GD32VW55x_standard_peripheral/Source/gd32vw55x_hau.c ****     HAU_INTEN &= ~(uint32_t)(interrupt);
 966              		.loc 1 358 15
 967 000a B707064C 		li	a5,1275461632
 968 000e 93870742 		addi	a5,a5,1056
 969 0012 9443     		lw	a3,0(a5)
 970              		.loc 1 358 18
 971 0014 8327C4FE 		lw	a5,-20(s0)
 972 0018 13C7F7FF 		not	a4,a5
 973              		.loc 1 358 15
 974 001c B707064C 		li	a5,1275461632
 975 0020 93870742 		addi	a5,a5,1056
 976 0024 758F     		and	a4,a3,a4
 977 0026 98C3     		sw	a4,0(a5)
 359:../Firmware/GD32VW55x_standard_peripheral/Source/gd32vw55x_hau.c **** }
 978              		.loc 1 359 1
 979 0028 0100     		nop
 980 002a 7244     		lw	s0,28(sp)
 981              		.cfi_restore 8
 982              		.cfi_def_cfa 2, 32
 983 002c 0561     		addi	sp,sp,32
 984              		.cfi_def_cfa_offset 0
 985 002e 8280     		jr	ra
 986              		.cfi_endproc
 987              	.LFE365:
 989              		.section	.text.hau_interrupt_flag_get,"ax",@progbits
 990              		.align	1
 991              		.globl	hau_interrupt_flag_get
 993              	hau_interrupt_flag_get:
 994              	.LFB366:
 360:../Firmware/GD32VW55x_standard_peripheral/Source/gd32vw55x_hau.c **** 
 361:../Firmware/GD32VW55x_standard_peripheral/Source/gd32vw55x_hau.c **** /*!
 362:../Firmware/GD32VW55x_standard_peripheral/Source/gd32vw55x_hau.c ****     \brief      get the HAU interrupt flag status
 363:../Firmware/GD32VW55x_standard_peripheral/Source/gd32vw55x_hau.c ****     \param[in]  int_flag: HAU interrupt flag status
 364:../Firmware/GD32VW55x_standard_peripheral/Source/gd32vw55x_hau.c ****                 only one parameter can be selected which is shown as below
 365:../Firmware/GD32VW55x_standard_peripheral/Source/gd32vw55x_hau.c ****       \arg        HAU_INT_FLAG_DATA_INPUT: there is enough space (16 bytes) in the input FIFO
 366:../Firmware/GD32VW55x_standard_peripheral/Source/gd32vw55x_hau.c ****       \arg        HAU_INT_FLAG_CALCULATION_COMPLETE: digest calculation is completed
 367:../Firmware/GD32VW55x_standard_peripheral/Source/gd32vw55x_hau.c ****     \param[out] none
 368:../Firmware/GD32VW55x_standard_peripheral/Source/gd32vw55x_hau.c ****     \retval     FlagStatus: SET or RESET
 369:../Firmware/GD32VW55x_standard_peripheral/Source/gd32vw55x_hau.c **** */
 370:../Firmware/GD32VW55x_standard_peripheral/Source/gd32vw55x_hau.c **** FlagStatus hau_interrupt_flag_get(uint32_t int_flag)
 371:../Firmware/GD32VW55x_standard_peripheral/Source/gd32vw55x_hau.c **** {
 995              		.loc 1 371 1
 996              		.cfi_startproc
 997 0000 7971     		addi	sp,sp,-48
 998              		.cfi_def_cfa_offset 48
 999 0002 22D6     		sw	s0,44(sp)
 1000              		.cfi_offset 8, -4
 1001 0004 0018     		addi	s0,sp,48
 1002              		.cfi_def_cfa 8, 0
 1003 0006 232EA4FC 		sw	a0,-36(s0)
 372:../Firmware/GD32VW55x_standard_peripheral/Source/gd32vw55x_hau.c ****     uint32_t ret = 0U;
 1004              		.loc 1 372 14
 1005 000a 232404FE 		sw	zero,-24(s0)
 373:../Firmware/GD32VW55x_standard_peripheral/Source/gd32vw55x_hau.c ****     FlagStatus flag = RESET;
 1006              		.loc 1 373 16
 1007 000e 232604FE 		sw	zero,-20(s0)
 374:../Firmware/GD32VW55x_standard_peripheral/Source/gd32vw55x_hau.c **** 
 375:../Firmware/GD32VW55x_standard_peripheral/Source/gd32vw55x_hau.c ****     /* return the status of the interrupt */
 376:../Firmware/GD32VW55x_standard_peripheral/Source/gd32vw55x_hau.c ****     ret =  HAU_STAT;
 1008              		.loc 1 376 12
 1009 0012 B707064C 		li	a5,1275461632
 1010 0016 93874742 		addi	a5,a5,1060
 1011              		.loc 1 376 9
 1012 001a 9C43     		lw	a5,0(a5)
 1013 001c 2324F4FE 		sw	a5,-24(s0)
 377:../Firmware/GD32VW55x_standard_peripheral/Source/gd32vw55x_hau.c **** 
 378:../Firmware/GD32VW55x_standard_peripheral/Source/gd32vw55x_hau.c ****     if(RESET != ((HAU_INTEN & ret) & int_flag)){
 1014              		.loc 1 378 19
 1015 0020 B707064C 		li	a5,1275461632
 1016 0024 93870742 		addi	a5,a5,1056
 1017 0028 9843     		lw	a4,0(a5)
 1018              		.loc 1 378 29
 1019 002a 832784FE 		lw	a5,-24(s0)
 1020 002e 7D8F     		and	a4,a4,a5
 1021              		.loc 1 378 36
 1022 0030 8327C4FD 		lw	a5,-36(s0)
 1023 0034 F98F     		and	a5,a4,a5
 1024              		.loc 1 378 7
 1025 0036 81C7     		beq	a5,zero,.L35
 379:../Firmware/GD32VW55x_standard_peripheral/Source/gd32vw55x_hau.c ****         flag = SET;
 1026              		.loc 1 379 14
 1027 0038 8547     		li	a5,1
 1028 003a 2326F4FE 		sw	a5,-20(s0)
 1029              	.L35:
 380:../Firmware/GD32VW55x_standard_peripheral/Source/gd32vw55x_hau.c ****     }
 381:../Firmware/GD32VW55x_standard_peripheral/Source/gd32vw55x_hau.c **** 
 382:../Firmware/GD32VW55x_standard_peripheral/Source/gd32vw55x_hau.c ****     return flag;
 1030              		.loc 1 382 12
 1031 003e 8327C4FE 		lw	a5,-20(s0)
 383:../Firmware/GD32VW55x_standard_peripheral/Source/gd32vw55x_hau.c **** }
 1032              		.loc 1 383 1
 1033 0042 3E85     		mv	a0,a5
 1034 0044 3254     		lw	s0,44(sp)
 1035              		.cfi_restore 8
 1036              		.cfi_def_cfa 2, 48
 1037 0046 4561     		addi	sp,sp,48
 1038              		.cfi_def_cfa_offset 0
 1039 0048 8280     		jr	ra
 1040              		.cfi_endproc
 1041              	.LFE366:
 1043              		.section	.text.hau_interrupt_flag_clear,"ax",@progbits
 1044              		.align	1
 1045              		.globl	hau_interrupt_flag_clear
 1047              	hau_interrupt_flag_clear:
 1048              	.LFB367:
 384:../Firmware/GD32VW55x_standard_peripheral/Source/gd32vw55x_hau.c **** 
 385:../Firmware/GD32VW55x_standard_peripheral/Source/gd32vw55x_hau.c **** /*!
 386:../Firmware/GD32VW55x_standard_peripheral/Source/gd32vw55x_hau.c ****     \brief      clear the HAU interrupt flag status
 387:../Firmware/GD32VW55x_standard_peripheral/Source/gd32vw55x_hau.c ****     \param[in]  int_flag: HAU interrupt flag status
 388:../Firmware/GD32VW55x_standard_peripheral/Source/gd32vw55x_hau.c ****                 one or more parameters can be selected which are shown as below
 389:../Firmware/GD32VW55x_standard_peripheral/Source/gd32vw55x_hau.c ****       \arg        HAU_INT_FLAG_DATA_INPUT: there is enough space (16 bytes) in the input FIFO
 390:../Firmware/GD32VW55x_standard_peripheral/Source/gd32vw55x_hau.c ****       \arg        HAU_INT_FLAG_CALCULATION_COMPLETE: digest calculation is completed
 391:../Firmware/GD32VW55x_standard_peripheral/Source/gd32vw55x_hau.c ****     \param[out] none
 392:../Firmware/GD32VW55x_standard_peripheral/Source/gd32vw55x_hau.c ****     \retval     none
 393:../Firmware/GD32VW55x_standard_peripheral/Source/gd32vw55x_hau.c **** */
 394:../Firmware/GD32VW55x_standard_peripheral/Source/gd32vw55x_hau.c **** void hau_interrupt_flag_clear(uint32_t int_flag)
 395:../Firmware/GD32VW55x_standard_peripheral/Source/gd32vw55x_hau.c **** {
 1049              		.loc 1 395 1
 1050              		.cfi_startproc
 1051 0000 0111     		addi	sp,sp,-32
 1052              		.cfi_def_cfa_offset 32
 1053 0002 22CE     		sw	s0,28(sp)
 1054              		.cfi_offset 8, -4
 1055 0004 0010     		addi	s0,sp,32
 1056              		.cfi_def_cfa 8, 0
 1057 0006 2326A4FE 		sw	a0,-20(s0)
 396:../Firmware/GD32VW55x_standard_peripheral/Source/gd32vw55x_hau.c ****     HAU_STAT = ~(uint32_t)(int_flag);
 1058              		.loc 1 396 5
 1059 000a B707064C 		li	a5,1275461632
 1060 000e 93874742 		addi	a5,a5,1060
 1061              		.loc 1 396 16
 1062 0012 0327C4FE 		lw	a4,-20(s0)
 1063 0016 1347F7FF 		not	a4,a4
 1064              		.loc 1 396 14
 1065 001a 98C3     		sw	a4,0(a5)
 397:../Firmware/GD32VW55x_standard_peripheral/Source/gd32vw55x_hau.c **** }
 1066              		.loc 1 397 1
 1067 001c 0100     		nop
 1068 001e 7244     		lw	s0,28(sp)
 1069              		.cfi_restore 8
 1070              		.cfi_def_cfa 2, 32
 1071 0020 0561     		addi	sp,sp,32
 1072              		.cfi_def_cfa_offset 0
 1073 0022 8280     		jr	ra
 1074              		.cfi_endproc
 1075              	.LFE367:
 1077              		.text
 1078              	.Letext0:
 1079              		.file 2 "e:\\gd32\\gd32embeddedbuilder_v1.5.2.30854\\tools\\nuclei_riscv_newlibc_prebuilt_win32_20
 1080              		.file 3 "e:\\gd32\\gd32embeddedbuilder_v1.5.2.30854\\tools\\nuclei_riscv_newlibc_prebuilt_win32_20
 1081              		.file 4 "../Firmware/GD32VW55x_standard_peripheral/gd32vw55x.h"
 1082              		.file 5 "../Firmware/GD32VW55x_standard_peripheral/Include/gd32vw55x_rcu.h"
 1083              		.file 6 "../Firmware/GD32VW55x_standard_peripheral/Include/gd32vw55x_hau.h"
DEFINED SYMBOLS
                            *ABS*:0000000000000000 gd32vw55x_hau.c
C:\Users\CYMR90~1\AppData\Local\Temp\ccf145Mk.s:13     .text.hau_deinit:0000000000000000 hau_deinit
C:\Users\CYMR90~1\AppData\Local\Temp\ccf145Mk.s:17     .text.hau_deinit:0000000000000000 .L0 
C:\Users\CYMR90~1\AppData\Local\Temp\ccf145Mk.s:18     .text.hau_deinit:0000000000000000 .L0 
C:\Users\CYMR90~1\AppData\Local\Temp\ccf145Mk.s:19     .text.hau_deinit:0000000000000002 .L0 
C:\Users\CYMR90~1\AppData\Local\Temp\ccf145Mk.s:22     .text.hau_deinit:0000000000000006 .L0 
C:\Users\CYMR90~1\AppData\Local\Temp\ccf145Mk.s:23     .text.hau_deinit:0000000000000006 .L0 
C:\Users\CYMR90~1\AppData\Local\Temp\ccf145Mk.s:25     .text.hau_deinit:0000000000000008 .L0 
C:\Users\CYMR90~1\AppData\Local\Temp\ccf145Mk.s:27     .text.hau_deinit:0000000000000008 .L0 
C:\Users\CYMR90~1\AppData\Local\Temp\ccf145Mk.s:30     .text.hau_deinit:0000000000000014 .L0 
C:\Users\CYMR90~1\AppData\Local\Temp\ccf145Mk.s:33     .text.hau_deinit:0000000000000020 .L0 
C:\Users\CYMR90~1\AppData\Local\Temp\ccf145Mk.s:35     .text.hau_deinit:0000000000000024 .L0 
C:\Users\CYMR90~1\AppData\Local\Temp\ccf145Mk.s:37     .text.hau_deinit:0000000000000026 .L0 
C:\Users\CYMR90~1\AppData\Local\Temp\ccf145Mk.s:38     .text.hau_deinit:0000000000000026 .L0 
C:\Users\CYMR90~1\AppData\Local\Temp\ccf145Mk.s:40     .text.hau_deinit:0000000000000028 .L0 
C:\Users\CYMR90~1\AppData\Local\Temp\ccf145Mk.s:42     .text.hau_deinit:000000000000002a .L0 
C:\Users\CYMR90~1\AppData\Local\Temp\ccf145Mk.s:49     .text.hau_init:0000000000000000 hau_init
C:\Users\CYMR90~1\AppData\Local\Temp\ccf145Mk.s:52     .text.hau_init:0000000000000000 .L0 
C:\Users\CYMR90~1\AppData\Local\Temp\ccf145Mk.s:53     .text.hau_init:0000000000000000 .L0 
C:\Users\CYMR90~1\AppData\Local\Temp\ccf145Mk.s:54     .text.hau_init:0000000000000002 .L0 
C:\Users\CYMR90~1\AppData\Local\Temp\ccf145Mk.s:56     .text.hau_init:0000000000000004 .L0 
C:\Users\CYMR90~1\AppData\Local\Temp\ccf145Mk.s:58     .text.hau_init:0000000000000006 .L0 
C:\Users\CYMR90~1\AppData\Local\Temp\ccf145Mk.s:61     .text.hau_init:000000000000000a .L0 
C:\Users\CYMR90~1\AppData\Local\Temp\ccf145Mk.s:71     .text.hau_init:0000000000000028 .L0 
C:\Users\CYMR90~1\AppData\Local\Temp\ccf145Mk.s:75     .text.hau_init:0000000000000032 .L0 
C:\Users\CYMR90~1\AppData\Local\Temp\ccf145Mk.s:78     .text.hau_init:0000000000000038 .L0 
C:\Users\CYMR90~1\AppData\Local\Temp\ccf145Mk.s:81     .text.hau_init:000000000000003e .L0 
C:\Users\CYMR90~1\AppData\Local\Temp\ccf145Mk.s:83     .text.hau_init:0000000000000040 .L0 
C:\Users\CYMR90~1\AppData\Local\Temp\ccf145Mk.s:86     .text.hau_init:0000000000000046 .L0 
C:\Users\CYMR90~1\AppData\Local\Temp\ccf145Mk.s:88     .text.hau_init:0000000000000048 .L0 
C:\Users\CYMR90~1\AppData\Local\Temp\ccf145Mk.s:93     .text.hau_init:0000000000000054 .L0 
C:\Users\CYMR90~1\AppData\Local\Temp\ccf145Mk.s:96     .text.hau_init:000000000000005a .L0 
C:\Users\CYMR90~1\AppData\Local\Temp\ccf145Mk.s:99     .text.hau_init:0000000000000062 .L0 
C:\Users\CYMR90~1\AppData\Local\Temp\ccf145Mk.s:109    .text.hau_init:000000000000007c .L0 
C:\Users\CYMR90~1\AppData\Local\Temp\ccf145Mk.s:113    .text.hau_init:0000000000000086 .L0 
C:\Users\CYMR90~1\AppData\Local\Temp\ccf145Mk.s:116    .text.hau_init:000000000000008c .L0 
C:\Users\CYMR90~1\AppData\Local\Temp\ccf145Mk.s:122    .text.hau_init:0000000000000098 .L0 
C:\Users\CYMR90~1\AppData\Local\Temp\ccf145Mk.s:130    .text.hau_init:00000000000000b0 .L0 
C:\Users\CYMR90~1\AppData\Local\Temp\ccf145Mk.s:132    .text.hau_init:00000000000000b4 .L0 
C:\Users\CYMR90~1\AppData\Local\Temp\ccf145Mk.s:133    .text.hau_init:00000000000000b4 .L0 
C:\Users\CYMR90~1\AppData\Local\Temp\ccf145Mk.s:135    .text.hau_init:00000000000000b6 .L0 
C:\Users\CYMR90~1\AppData\Local\Temp\ccf145Mk.s:137    .text.hau_init:00000000000000b8 .L0 
C:\Users\CYMR90~1\AppData\Local\Temp\ccf145Mk.s:144    .text.hau_init_struct_para_init:0000000000000000 hau_init_struct_para_init
C:\Users\CYMR90~1\AppData\Local\Temp\ccf145Mk.s:147    .text.hau_init_struct_para_init:0000000000000000 .L0 
C:\Users\CYMR90~1\AppData\Local\Temp\ccf145Mk.s:148    .text.hau_init_struct_para_init:0000000000000000 .L0 
C:\Users\CYMR90~1\AppData\Local\Temp\ccf145Mk.s:149    .text.hau_init_struct_para_init:0000000000000002 .L0 
C:\Users\CYMR90~1\AppData\Local\Temp\ccf145Mk.s:151    .text.hau_init_struct_para_init:0000000000000004 .L0 
C:\Users\CYMR90~1\AppData\Local\Temp\ccf145Mk.s:153    .text.hau_init_struct_para_init:0000000000000006 .L0 
C:\Users\CYMR90~1\AppData\Local\Temp\ccf145Mk.s:156    .text.hau_init_struct_para_init:000000000000000a .L0 
C:\Users\CYMR90~1\AppData\Local\Temp\ccf145Mk.s:159    .text.hau_init_struct_para_init:0000000000000012 .L0 
C:\Users\CYMR90~1\AppData\Local\Temp\ccf145Mk.s:162    .text.hau_init_struct_para_init:000000000000001a .L0 
C:\Users\CYMR90~1\AppData\Local\Temp\ccf145Mk.s:165    .text.hau_init_struct_para_init:0000000000000022 .L0 
C:\Users\CYMR90~1\AppData\Local\Temp\ccf145Mk.s:168    .text.hau_init_struct_para_init:000000000000002a .L0 
C:\Users\CYMR90~1\AppData\Local\Temp\ccf145Mk.s:170    .text.hau_init_struct_para_init:000000000000002e .L0 
C:\Users\CYMR90~1\AppData\Local\Temp\ccf145Mk.s:171    .text.hau_init_struct_para_init:000000000000002e .L0 
C:\Users\CYMR90~1\AppData\Local\Temp\ccf145Mk.s:173    .text.hau_init_struct_para_init:0000000000000030 .L0 
C:\Users\CYMR90~1\AppData\Local\Temp\ccf145Mk.s:175    .text.hau_init_struct_para_init:0000000000000032 .L0 
C:\Users\CYMR90~1\AppData\Local\Temp\ccf145Mk.s:182    .text.hau_reset:0000000000000000 hau_reset
C:\Users\CYMR90~1\AppData\Local\Temp\ccf145Mk.s:185    .text.hau_reset:0000000000000000 .L0 
C:\Users\CYMR90~1\AppData\Local\Temp\ccf145Mk.s:186    .text.hau_reset:0000000000000000 .L0 
C:\Users\CYMR90~1\AppData\Local\Temp\ccf145Mk.s:187    .text.hau_reset:0000000000000002 .L0 
C:\Users\CYMR90~1\AppData\Local\Temp\ccf145Mk.s:189    .text.hau_reset:0000000000000004 .L0 
C:\Users\CYMR90~1\AppData\Local\Temp\ccf145Mk.s:191    .text.hau_reset:0000000000000006 .L0 
C:\Users\CYMR90~1\AppData\Local\Temp\ccf145Mk.s:193    .text.hau_reset:0000000000000006 .L0 
C:\Users\CYMR90~1\AppData\Local\Temp\ccf145Mk.s:201    .text.hau_reset:000000000000001e .L0 
C:\Users\CYMR90~1\AppData\Local\Temp\ccf145Mk.s:203    .text.hau_reset:0000000000000022 .L0 
C:\Users\CYMR90~1\AppData\Local\Temp\ccf145Mk.s:204    .text.hau_reset:0000000000000022 .L0 
C:\Users\CYMR90~1\AppData\Local\Temp\ccf145Mk.s:206    .text.hau_reset:0000000000000024 .L0 
C:\Users\CYMR90~1\AppData\Local\Temp\ccf145Mk.s:208    .text.hau_reset:0000000000000026 .L0 
C:\Users\CYMR90~1\AppData\Local\Temp\ccf145Mk.s:215    .text.hau_last_word_validbits_num_config:0000000000000000 hau_last_word_validbits_num_config
C:\Users\CYMR90~1\AppData\Local\Temp\ccf145Mk.s:218    .text.hau_last_word_validbits_num_config:0000000000000000 .L0 
C:\Users\CYMR90~1\AppData\Local\Temp\ccf145Mk.s:219    .text.hau_last_word_validbits_num_config:0000000000000000 .L0 
C:\Users\CYMR90~1\AppData\Local\Temp\ccf145Mk.s:220    .text.hau_last_word_validbits_num_config:0000000000000002 .L0 
C:\Users\CYMR90~1\AppData\Local\Temp\ccf145Mk.s:222    .text.hau_last_word_validbits_num_config:0000000000000004 .L0 
C:\Users\CYMR90~1\AppData\Local\Temp\ccf145Mk.s:224    .text.hau_last_word_validbits_num_config:0000000000000006 .L0 
C:\Users\CYMR90~1\AppData\Local\Temp\ccf145Mk.s:227    .text.hau_last_word_validbits_num_config:000000000000000a .L0 
C:\Users\CYMR90~1\AppData\Local\Temp\ccf145Mk.s:235    .text.hau_last_word_validbits_num_config:0000000000000020 .L0 
C:\Users\CYMR90~1\AppData\Local\Temp\ccf145Mk.s:239    .text.hau_last_word_validbits_num_config:000000000000002a .L0 
C:\Users\CYMR90~1\AppData\Local\Temp\ccf145Mk.s:242    .text.hau_last_word_validbits_num_config:0000000000000032 .L0 
C:\Users\CYMR90~1\AppData\Local\Temp\ccf145Mk.s:247    .text.hau_last_word_validbits_num_config:000000000000003e .L0 
C:\Users\CYMR90~1\AppData\Local\Temp\ccf145Mk.s:249    .text.hau_last_word_validbits_num_config:0000000000000042 .L0 
C:\Users\CYMR90~1\AppData\Local\Temp\ccf145Mk.s:250    .text.hau_last_word_validbits_num_config:0000000000000042 .L0 
C:\Users\CYMR90~1\AppData\Local\Temp\ccf145Mk.s:252    .text.hau_last_word_validbits_num_config:0000000000000044 .L0 
C:\Users\CYMR90~1\AppData\Local\Temp\ccf145Mk.s:254    .text.hau_last_word_validbits_num_config:0000000000000046 .L0 
C:\Users\CYMR90~1\AppData\Local\Temp\ccf145Mk.s:261    .text.hau_data_write:0000000000000000 hau_data_write
C:\Users\CYMR90~1\AppData\Local\Temp\ccf145Mk.s:264    .text.hau_data_write:0000000000000000 .L0 
C:\Users\CYMR90~1\AppData\Local\Temp\ccf145Mk.s:265    .text.hau_data_write:0000000000000000 .L0 
C:\Users\CYMR90~1\AppData\Local\Temp\ccf145Mk.s:266    .text.hau_data_write:0000000000000002 .L0 
C:\Users\CYMR90~1\AppData\Local\Temp\ccf145Mk.s:268    .text.hau_data_write:0000000000000004 .L0 
C:\Users\CYMR90~1\AppData\Local\Temp\ccf145Mk.s:270    .text.hau_data_write:0000000000000006 .L0 
C:\Users\CYMR90~1\AppData\Local\Temp\ccf145Mk.s:273    .text.hau_data_write:000000000000000a .L0 
C:\Users\CYMR90~1\AppData\Local\Temp\ccf145Mk.s:276    .text.hau_data_write:0000000000000012 .L0 
C:\Users\CYMR90~1\AppData\Local\Temp\ccf145Mk.s:279    .text.hau_data_write:0000000000000018 .L0 
C:\Users\CYMR90~1\AppData\Local\Temp\ccf145Mk.s:281    .text.hau_data_write:000000000000001c .L0 
C:\Users\CYMR90~1\AppData\Local\Temp\ccf145Mk.s:282    .text.hau_data_write:000000000000001c .L0 
C:\Users\CYMR90~1\AppData\Local\Temp\ccf145Mk.s:284    .text.hau_data_write:000000000000001e .L0 
C:\Users\CYMR90~1\AppData\Local\Temp\ccf145Mk.s:286    .text.hau_data_write:0000000000000020 .L0 
C:\Users\CYMR90~1\AppData\Local\Temp\ccf145Mk.s:293    .text.hau_infifo_words_num_get:0000000000000000 hau_infifo_words_num_get
C:\Users\CYMR90~1\AppData\Local\Temp\ccf145Mk.s:296    .text.hau_infifo_words_num_get:0000000000000000 .L0 
C:\Users\CYMR90~1\AppData\Local\Temp\ccf145Mk.s:297    .text.hau_infifo_words_num_get:0000000000000000 .L0 
C:\Users\CYMR90~1\AppData\Local\Temp\ccf145Mk.s:298    .text.hau_infifo_words_num_get:0000000000000002 .L0 
C:\Users\CYMR90~1\AppData\Local\Temp\ccf145Mk.s:300    .text.hau_infifo_words_num_get:0000000000000004 .L0 
C:\Users\CYMR90~1\AppData\Local\Temp\ccf145Mk.s:302    .text.hau_infifo_words_num_get:0000000000000006 .L0 
C:\Users\CYMR90~1\AppData\Local\Temp\ccf145Mk.s:304    .text.hau_infifo_words_num_get:0000000000000006 .L0 
C:\Users\CYMR90~1\AppData\Local\Temp\ccf145Mk.s:306    .text.hau_infifo_words_num_get:000000000000000a .L0 
C:\Users\CYMR90~1\AppData\Local\Temp\ccf145Mk.s:311    .text.hau_infifo_words_num_get:0000000000000016 .L0 
C:\Users\CYMR90~1\AppData\Local\Temp\ccf145Mk.s:314    .text.hau_infifo_words_num_get:000000000000001c .L0 
C:\Users\CYMR90~1\AppData\Local\Temp\ccf145Mk.s:316    .text.hau_infifo_words_num_get:0000000000000020 .L0 
C:\Users\CYMR90~1\AppData\Local\Temp\ccf145Mk.s:318    .text.hau_infifo_words_num_get:0000000000000024 .L0 
C:\Users\CYMR90~1\AppData\Local\Temp\ccf145Mk.s:319    .text.hau_infifo_words_num_get:0000000000000024 .L0 
C:\Users\CYMR90~1\AppData\Local\Temp\ccf145Mk.s:321    .text.hau_infifo_words_num_get:0000000000000026 .L0 
C:\Users\CYMR90~1\AppData\Local\Temp\ccf145Mk.s:323    .text.hau_infifo_words_num_get:0000000000000028 .L0 
C:\Users\CYMR90~1\AppData\Local\Temp\ccf145Mk.s:330    .text.hau_digest_read:0000000000000000 hau_digest_read
C:\Users\CYMR90~1\AppData\Local\Temp\ccf145Mk.s:333    .text.hau_digest_read:0000000000000000 .L0 
C:\Users\CYMR90~1\AppData\Local\Temp\ccf145Mk.s:334    .text.hau_digest_read:0000000000000000 .L0 
C:\Users\CYMR90~1\AppData\Local\Temp\ccf145Mk.s:335    .text.hau_digest_read:0000000000000002 .L0 
C:\Users\CYMR90~1\AppData\Local\Temp\ccf145Mk.s:337    .text.hau_digest_read:0000000000000004 .L0 
C:\Users\CYMR90~1\AppData\Local\Temp\ccf145Mk.s:339    .text.hau_digest_read:0000000000000006 .L0 
C:\Users\CYMR90~1\AppData\Local\Temp\ccf145Mk.s:342    .text.hau_digest_read:000000000000000a .L0 
C:\Users\CYMR90~1\AppData\Local\Temp\ccf145Mk.s:346    .text.hau_digest_read:0000000000000014 .L0 
C:\Users\CYMR90~1\AppData\Local\Temp\ccf145Mk.s:349    .text.hau_digest_read:000000000000001a .L0 
C:\Users\CYMR90~1\AppData\Local\Temp\ccf145Mk.s:353    .text.hau_digest_read:0000000000000024 .L0 
C:\Users\CYMR90~1\AppData\Local\Temp\ccf145Mk.s:356    .text.hau_digest_read:000000000000002a .L0 
C:\Users\CYMR90~1\AppData\Local\Temp\ccf145Mk.s:360    .text.hau_digest_read:0000000000000034 .L0 
C:\Users\CYMR90~1\AppData\Local\Temp\ccf145Mk.s:363    .text.hau_digest_read:000000000000003a .L0 
C:\Users\CYMR90~1\AppData\Local\Temp\ccf145Mk.s:367    .text.hau_digest_read:0000000000000044 .L0 
C:\Users\CYMR90~1\AppData\Local\Temp\ccf145Mk.s:370    .text.hau_digest_read:000000000000004a .L0 
C:\Users\CYMR90~1\AppData\Local\Temp\ccf145Mk.s:374    .text.hau_digest_read:0000000000000054 .L0 
C:\Users\CYMR90~1\AppData\Local\Temp\ccf145Mk.s:377    .text.hau_digest_read:000000000000005a .L0 
C:\Users\CYMR90~1\AppData\Local\Temp\ccf145Mk.s:381    .text.hau_digest_read:0000000000000064 .L0 
C:\Users\CYMR90~1\AppData\Local\Temp\ccf145Mk.s:384    .text.hau_digest_read:000000000000006a .L0 
C:\Users\CYMR90~1\AppData\Local\Temp\ccf145Mk.s:388    .text.hau_digest_read:0000000000000074 .L0 
C:\Users\CYMR90~1\AppData\Local\Temp\ccf145Mk.s:391    .text.hau_digest_read:000000000000007a .L0 
C:\Users\CYMR90~1\AppData\Local\Temp\ccf145Mk.s:395    .text.hau_digest_read:0000000000000084 .L0 
C:\Users\CYMR90~1\AppData\Local\Temp\ccf145Mk.s:398    .text.hau_digest_read:000000000000008a .L0 
C:\Users\CYMR90~1\AppData\Local\Temp\ccf145Mk.s:400    .text.hau_digest_read:000000000000008e .L0 
C:\Users\CYMR90~1\AppData\Local\Temp\ccf145Mk.s:401    .text.hau_digest_read:000000000000008e .L0 
C:\Users\CYMR90~1\AppData\Local\Temp\ccf145Mk.s:403    .text.hau_digest_read:0000000000000090 .L0 
C:\Users\CYMR90~1\AppData\Local\Temp\ccf145Mk.s:405    .text.hau_digest_read:0000000000000092 .L0 
C:\Users\CYMR90~1\AppData\Local\Temp\ccf145Mk.s:412    .text.hau_digest_calculation_enable:0000000000000000 hau_digest_calculation_enable
C:\Users\CYMR90~1\AppData\Local\Temp\ccf145Mk.s:415    .text.hau_digest_calculation_enable:0000000000000000 .L0 
C:\Users\CYMR90~1\AppData\Local\Temp\ccf145Mk.s:416    .text.hau_digest_calculation_enable:0000000000000000 .L0 
C:\Users\CYMR90~1\AppData\Local\Temp\ccf145Mk.s:417    .text.hau_digest_calculation_enable:0000000000000002 .L0 
C:\Users\CYMR90~1\AppData\Local\Temp\ccf145Mk.s:419    .text.hau_digest_calculation_enable:0000000000000004 .L0 
C:\Users\CYMR90~1\AppData\Local\Temp\ccf145Mk.s:421    .text.hau_digest_calculation_enable:0000000000000006 .L0 
C:\Users\CYMR90~1\AppData\Local\Temp\ccf145Mk.s:423    .text.hau_digest_calculation_enable:0000000000000006 .L0 
C:\Users\CYMR90~1\AppData\Local\Temp\ccf145Mk.s:431    .text.hau_digest_calculation_enable:000000000000001e .L0 
C:\Users\CYMR90~1\AppData\Local\Temp\ccf145Mk.s:433    .text.hau_digest_calculation_enable:0000000000000022 .L0 
C:\Users\CYMR90~1\AppData\Local\Temp\ccf145Mk.s:434    .text.hau_digest_calculation_enable:0000000000000022 .L0 
C:\Users\CYMR90~1\AppData\Local\Temp\ccf145Mk.s:436    .text.hau_digest_calculation_enable:0000000000000024 .L0 
C:\Users\CYMR90~1\AppData\Local\Temp\ccf145Mk.s:438    .text.hau_digest_calculation_enable:0000000000000026 .L0 
C:\Users\CYMR90~1\AppData\Local\Temp\ccf145Mk.s:445    .text.hau_multiple_single_dma_config:0000000000000000 hau_multiple_single_dma_config
C:\Users\CYMR90~1\AppData\Local\Temp\ccf145Mk.s:448    .text.hau_multiple_single_dma_config:0000000000000000 .L0 
C:\Users\CYMR90~1\AppData\Local\Temp\ccf145Mk.s:449    .text.hau_multiple_single_dma_config:0000000000000000 .L0 
C:\Users\CYMR90~1\AppData\Local\Temp\ccf145Mk.s:450    .text.hau_multiple_single_dma_config:0000000000000002 .L0 
C:\Users\CYMR90~1\AppData\Local\Temp\ccf145Mk.s:452    .text.hau_multiple_single_dma_config:0000000000000004 .L0 
C:\Users\CYMR90~1\AppData\Local\Temp\ccf145Mk.s:454    .text.hau_multiple_single_dma_config:0000000000000006 .L0 
C:\Users\CYMR90~1\AppData\Local\Temp\ccf145Mk.s:457    .text.hau_multiple_single_dma_config:000000000000000a .L0 
C:\Users\CYMR90~1\AppData\Local\Temp\ccf145Mk.s:467    .text.hau_multiple_single_dma_config:0000000000000024 .L0 
C:\Users\CYMR90~1\AppData\Local\Temp\ccf145Mk.s:476    .text.hau_multiple_single_dma_config:000000000000003e .L0 
C:\Users\CYMR90~1\AppData\Local\Temp\ccf145Mk.s:478    .text.hau_multiple_single_dma_config:0000000000000042 .L0 
C:\Users\CYMR90~1\AppData\Local\Temp\ccf145Mk.s:479    .text.hau_multiple_single_dma_config:0000000000000042 .L0 
C:\Users\CYMR90~1\AppData\Local\Temp\ccf145Mk.s:481    .text.hau_multiple_single_dma_config:0000000000000044 .L0 
C:\Users\CYMR90~1\AppData\Local\Temp\ccf145Mk.s:483    .text.hau_multiple_single_dma_config:0000000000000046 .L0 
C:\Users\CYMR90~1\AppData\Local\Temp\ccf145Mk.s:490    .text.hau_dma_enable:0000000000000000 hau_dma_enable
C:\Users\CYMR90~1\AppData\Local\Temp\ccf145Mk.s:493    .text.hau_dma_enable:0000000000000000 .L0 
C:\Users\CYMR90~1\AppData\Local\Temp\ccf145Mk.s:494    .text.hau_dma_enable:0000000000000000 .L0 
C:\Users\CYMR90~1\AppData\Local\Temp\ccf145Mk.s:495    .text.hau_dma_enable:0000000000000002 .L0 
C:\Users\CYMR90~1\AppData\Local\Temp\ccf145Mk.s:497    .text.hau_dma_enable:0000000000000004 .L0 
C:\Users\CYMR90~1\AppData\Local\Temp\ccf145Mk.s:499    .text.hau_dma_enable:0000000000000006 .L0 
C:\Users\CYMR90~1\AppData\Local\Temp\ccf145Mk.s:501    .text.hau_dma_enable:0000000000000006 .L0 
C:\Users\CYMR90~1\AppData\Local\Temp\ccf145Mk.s:509    .text.hau_dma_enable:000000000000001e .L0 
C:\Users\CYMR90~1\AppData\Local\Temp\ccf145Mk.s:511    .text.hau_dma_enable:0000000000000022 .L0 
C:\Users\CYMR90~1\AppData\Local\Temp\ccf145Mk.s:512    .text.hau_dma_enable:0000000000000022 .L0 
C:\Users\CYMR90~1\AppData\Local\Temp\ccf145Mk.s:514    .text.hau_dma_enable:0000000000000024 .L0 
C:\Users\CYMR90~1\AppData\Local\Temp\ccf145Mk.s:516    .text.hau_dma_enable:0000000000000026 .L0 
C:\Users\CYMR90~1\AppData\Local\Temp\ccf145Mk.s:523    .text.hau_dma_disable:0000000000000000 hau_dma_disable
C:\Users\CYMR90~1\AppData\Local\Temp\ccf145Mk.s:526    .text.hau_dma_disable:0000000000000000 .L0 
C:\Users\CYMR90~1\AppData\Local\Temp\ccf145Mk.s:527    .text.hau_dma_disable:0000000000000000 .L0 
C:\Users\CYMR90~1\AppData\Local\Temp\ccf145Mk.s:528    .text.hau_dma_disable:0000000000000002 .L0 
C:\Users\CYMR90~1\AppData\Local\Temp\ccf145Mk.s:530    .text.hau_dma_disable:0000000000000004 .L0 
C:\Users\CYMR90~1\AppData\Local\Temp\ccf145Mk.s:532    .text.hau_dma_disable:0000000000000006 .L0 
C:\Users\CYMR90~1\AppData\Local\Temp\ccf145Mk.s:534    .text.hau_dma_disable:0000000000000006 .L0 
C:\Users\CYMR90~1\AppData\Local\Temp\ccf145Mk.s:542    .text.hau_dma_disable:000000000000001c .L0 
C:\Users\CYMR90~1\AppData\Local\Temp\ccf145Mk.s:544    .text.hau_dma_disable:0000000000000020 .L0 
C:\Users\CYMR90~1\AppData\Local\Temp\ccf145Mk.s:545    .text.hau_dma_disable:0000000000000020 .L0 
C:\Users\CYMR90~1\AppData\Local\Temp\ccf145Mk.s:547    .text.hau_dma_disable:0000000000000022 .L0 
C:\Users\CYMR90~1\AppData\Local\Temp\ccf145Mk.s:549    .text.hau_dma_disable:0000000000000024 .L0 
C:\Users\CYMR90~1\AppData\Local\Temp\ccf145Mk.s:556    .text.hau_context_struct_para_init:0000000000000000 hau_context_struct_para_init
C:\Users\CYMR90~1\AppData\Local\Temp\ccf145Mk.s:559    .text.hau_context_struct_para_init:0000000000000000 .L0 
C:\Users\CYMR90~1\AppData\Local\Temp\ccf145Mk.s:560    .text.hau_context_struct_para_init:0000000000000000 .L0 
C:\Users\CYMR90~1\AppData\Local\Temp\ccf145Mk.s:561    .text.hau_context_struct_para_init:0000000000000002 .L0 
C:\Users\CYMR90~1\AppData\Local\Temp\ccf145Mk.s:563    .text.hau_context_struct_para_init:0000000000000004 .L0 
C:\Users\CYMR90~1\AppData\Local\Temp\ccf145Mk.s:565    .text.hau_context_struct_para_init:0000000000000006 .L0 
C:\Users\CYMR90~1\AppData\Local\Temp\ccf145Mk.s:568    .text.hau_context_struct_para_init:000000000000000a .L0 
C:\Users\CYMR90~1\AppData\Local\Temp\ccf145Mk.s:570    .text.hau_context_struct_para_init:000000000000000e .L0 
C:\Users\CYMR90~1\AppData\Local\Temp\ccf145Mk.s:573    .text.hau_context_struct_para_init:0000000000000016 .L0 
C:\Users\CYMR90~1\AppData\Local\Temp\ccf145Mk.s:576    .text.hau_context_struct_para_init:000000000000001e .L0 
C:\Users\CYMR90~1\AppData\Local\Temp\ccf145Mk.s:579    .text.hau_context_struct_para_init:0000000000000026 .L0 
C:\Users\CYMR90~1\AppData\Local\Temp\ccf145Mk.s:581    .text.hau_context_struct_para_init:000000000000002a .L0 
C:\Users\CYMR90~1\AppData\Local\Temp\ccf145Mk.s:584    .text.hau_context_struct_para_init:000000000000002c .L0 
C:\Users\CYMR90~1\AppData\Local\Temp\ccf145Mk.s:586    .text.hau_context_struct_para_init:0000000000000030 .L0 
C:\Users\CYMR90~1\AppData\Local\Temp\ccf145Mk.s:591    .text.hau_context_struct_para_init:000000000000003c .L0 
C:\Users\CYMR90~1\AppData\Local\Temp\ccf145Mk.s:596    .text.hau_context_struct_para_init:0000000000000046 .L0 
C:\Users\CYMR90~1\AppData\Local\Temp\ccf145Mk.s:600    .text.hau_context_struct_para_init:0000000000000052 .L0 
C:\Users\CYMR90~1\AppData\Local\Temp\ccf145Mk.s:603    .text.hau_context_struct_para_init:0000000000000058 .L0 
C:\Users\CYMR90~1\AppData\Local\Temp\ccf145Mk.s:604    .text.hau_context_struct_para_init:0000000000000058 .L0 
C:\Users\CYMR90~1\AppData\Local\Temp\ccf145Mk.s:606    .text.hau_context_struct_para_init:000000000000005a .L0 
C:\Users\CYMR90~1\AppData\Local\Temp\ccf145Mk.s:608    .text.hau_context_struct_para_init:000000000000005c .L0 
C:\Users\CYMR90~1\AppData\Local\Temp\ccf145Mk.s:615    .text.hau_context_save:0000000000000000 hau_context_save
C:\Users\CYMR90~1\AppData\Local\Temp\ccf145Mk.s:618    .text.hau_context_save:0000000000000000 .L0 
C:\Users\CYMR90~1\AppData\Local\Temp\ccf145Mk.s:619    .text.hau_context_save:0000000000000000 .L0 
C:\Users\CYMR90~1\AppData\Local\Temp\ccf145Mk.s:620    .text.hau_context_save:0000000000000002 .L0 
C:\Users\CYMR90~1\AppData\Local\Temp\ccf145Mk.s:623    .text.hau_context_save:0000000000000006 .L0 
C:\Users\CYMR90~1\AppData\Local\Temp\ccf145Mk.s:624    .text.hau_context_save:0000000000000006 .L0 
C:\Users\CYMR90~1\AppData\Local\Temp\ccf145Mk.s:626    .text.hau_context_save:0000000000000008 .L0 
C:\Users\CYMR90~1\AppData\Local\Temp\ccf145Mk.s:629    .text.hau_context_save:000000000000000c .L0 
C:\Users\CYMR90~1\AppData\Local\Temp\ccf145Mk.s:631    .text.hau_context_save:0000000000000010 .L0 
C:\Users\CYMR90~1\AppData\Local\Temp\ccf145Mk.s:634    .text.hau_context_save:0000000000000018 .L0 
C:\Users\CYMR90~1\AppData\Local\Temp\ccf145Mk.s:637    .text.hau_context_save:0000000000000024 .L0 
C:\Users\CYMR90~1\AppData\Local\Temp\ccf145Mk.s:641    .text.hau_context_save:000000000000002e .L0 
C:\Users\CYMR90~1\AppData\Local\Temp\ccf145Mk.s:644    .text.hau_context_save:0000000000000034 .L0 
C:\Users\CYMR90~1\AppData\Local\Temp\ccf145Mk.s:648    .text.hau_context_save:000000000000003e .L0 
C:\Users\CYMR90~1\AppData\Local\Temp\ccf145Mk.s:651    .text.hau_context_save:0000000000000044 .L0 
C:\Users\CYMR90~1\AppData\Local\Temp\ccf145Mk.s:655    .text.hau_context_save:000000000000004e .L0 
C:\Users\CYMR90~1\AppData\Local\Temp\ccf145Mk.s:658    .text.hau_context_save:0000000000000054 .L0 
C:\Users\CYMR90~1\AppData\Local\Temp\ccf145Mk.s:662    .text.hau_context_save:000000000000005e .L0 
C:\Users\CYMR90~1\AppData\Local\Temp\ccf145Mk.s:664    .text.hau_context_save:0000000000000062 .L0 
C:\Users\CYMR90~1\AppData\Local\Temp\ccf145Mk.s:666    .text.hau_context_save:0000000000000064 .L0 
C:\Users\CYMR90~1\AppData\Local\Temp\ccf145Mk.s:670    .text.hau_context_save:000000000000006c .L0 
C:\Users\CYMR90~1\AppData\Local\Temp\ccf145Mk.s:672    .text.hau_context_save:0000000000000070 .L0 
C:\Users\CYMR90~1\AppData\Local\Temp\ccf145Mk.s:675    .text.hau_context_save:0000000000000072 .L0 
C:\Users\CYMR90~1\AppData\Local\Temp\ccf145Mk.s:682    .text.hau_context_save:0000000000000084 .L0 
C:\Users\CYMR90~1\AppData\Local\Temp\ccf145Mk.s:684    .text.hau_context_save:0000000000000088 .L0 
C:\Users\CYMR90~1\AppData\Local\Temp\ccf145Mk.s:686    .text.hau_context_save:000000000000008a .L0 
C:\Users\CYMR90~1\AppData\Local\Temp\ccf145Mk.s:691    .text.hau_context_save:0000000000000094 .L0 
C:\Users\CYMR90~1\AppData\Local\Temp\ccf145Mk.s:696    .text.hau_context_save:000000000000009e .L0 
C:\Users\CYMR90~1\AppData\Local\Temp\ccf145Mk.s:700    .text.hau_context_save:00000000000000aa .L0 
C:\Users\CYMR90~1\AppData\Local\Temp\ccf145Mk.s:703    .text.hau_context_save:00000000000000b0 .L0 
C:\Users\CYMR90~1\AppData\Local\Temp\ccf145Mk.s:705    .text.hau_context_save:00000000000000b2 .L0 
C:\Users\CYMR90~1\AppData\Local\Temp\ccf145Mk.s:706    .text.hau_context_save:00000000000000b2 .L0 
C:\Users\CYMR90~1\AppData\Local\Temp\ccf145Mk.s:708    .text.hau_context_save:00000000000000b4 .L0 
C:\Users\CYMR90~1\AppData\Local\Temp\ccf145Mk.s:710    .text.hau_context_save:00000000000000b6 .L0 
C:\Users\CYMR90~1\AppData\Local\Temp\ccf145Mk.s:717    .text.hau_context_restore:0000000000000000 hau_context_restore
C:\Users\CYMR90~1\AppData\Local\Temp\ccf145Mk.s:720    .text.hau_context_restore:0000000000000000 .L0 
C:\Users\CYMR90~1\AppData\Local\Temp\ccf145Mk.s:721    .text.hau_context_restore:0000000000000000 .L0 
C:\Users\CYMR90~1\AppData\Local\Temp\ccf145Mk.s:722    .text.hau_context_restore:0000000000000002 .L0 
C:\Users\CYMR90~1\AppData\Local\Temp\ccf145Mk.s:724    .text.hau_context_restore:0000000000000004 .L0 
C:\Users\CYMR90~1\AppData\Local\Temp\ccf145Mk.s:726    .text.hau_context_restore:0000000000000006 .L0 
C:\Users\CYMR90~1\AppData\Local\Temp\ccf145Mk.s:729    .text.hau_context_restore:000000000000000a .L0 
C:\Users\CYMR90~1\AppData\Local\Temp\ccf145Mk.s:731    .text.hau_context_restore:000000000000000e .L0 
C:\Users\CYMR90~1\AppData\Local\Temp\ccf145Mk.s:734    .text.hau_context_restore:0000000000000016 .L0 
C:\Users\CYMR90~1\AppData\Local\Temp\ccf145Mk.s:737    .text.hau_context_restore:000000000000001e .L0 
C:\Users\CYMR90~1\AppData\Local\Temp\ccf145Mk.s:740    .text.hau_context_restore:0000000000000024 .L0 
C:\Users\CYMR90~1\AppData\Local\Temp\ccf145Mk.s:742    .text.hau_context_restore:0000000000000026 .L0 
C:\Users\CYMR90~1\AppData\Local\Temp\ccf145Mk.s:745    .text.hau_context_restore:000000000000002e .L0 
C:\Users\CYMR90~1\AppData\Local\Temp\ccf145Mk.s:748    .text.hau_context_restore:0000000000000034 .L0 
C:\Users\CYMR90~1\AppData\Local\Temp\ccf145Mk.s:750    .text.hau_context_restore:0000000000000036 .L0 
C:\Users\CYMR90~1\AppData\Local\Temp\ccf145Mk.s:753    .text.hau_context_restore:000000000000003e .L0 
C:\Users\CYMR90~1\AppData\Local\Temp\ccf145Mk.s:756    .text.hau_context_restore:0000000000000044 .L0 
C:\Users\CYMR90~1\AppData\Local\Temp\ccf145Mk.s:758    .text.hau_context_restore:0000000000000046 .L0 
C:\Users\CYMR90~1\AppData\Local\Temp\ccf145Mk.s:766    .text.hau_context_restore:000000000000005e .L0 
C:\Users\CYMR90~1\AppData\Local\Temp\ccf145Mk.s:770    .text.hau_context_restore:0000000000000068 .L0 
C:\Users\CYMR90~1\AppData\Local\Temp\ccf145Mk.s:772    .text.hau_context_restore:000000000000006c .L0 
C:\Users\CYMR90~1\AppData\Local\Temp\ccf145Mk.s:774    .text.hau_context_restore:000000000000006e .L0 
C:\Users\CYMR90~1\AppData\Local\Temp\ccf145Mk.s:778    .text.hau_context_restore:0000000000000076 .L0 
C:\Users\CYMR90~1\AppData\Local\Temp\ccf145Mk.s:780    .text.hau_context_restore:000000000000007a .L0 
C:\Users\CYMR90~1\AppData\Local\Temp\ccf145Mk.s:783    .text.hau_context_restore:000000000000007c .L0 
C:\Users\CYMR90~1\AppData\Local\Temp\ccf145Mk.s:785    .text.hau_context_restore:0000000000000080 .L0 
C:\Users\CYMR90~1\AppData\Local\Temp\ccf145Mk.s:792    .text.hau_context_restore:0000000000000092 .L0 
C:\Users\CYMR90~1\AppData\Local\Temp\ccf145Mk.s:797    .text.hau_context_restore:000000000000009c .L0 
C:\Users\CYMR90~1\AppData\Local\Temp\ccf145Mk.s:799    .text.hau_context_restore:000000000000009e .L0 
C:\Users\CYMR90~1\AppData\Local\Temp\ccf145Mk.s:804    .text.hau_context_restore:00000000000000a8 .L0 
C:\Users\CYMR90~1\AppData\Local\Temp\ccf145Mk.s:808    .text.hau_context_restore:00000000000000b4 .L0 
C:\Users\CYMR90~1\AppData\Local\Temp\ccf145Mk.s:811    .text.hau_context_restore:00000000000000ba .L0 
C:\Users\CYMR90~1\AppData\Local\Temp\ccf145Mk.s:812    .text.hau_context_restore:00000000000000ba .L0 
C:\Users\CYMR90~1\AppData\Local\Temp\ccf145Mk.s:814    .text.hau_context_restore:00000000000000bc .L0 
C:\Users\CYMR90~1\AppData\Local\Temp\ccf145Mk.s:816    .text.hau_context_restore:00000000000000be .L0 
C:\Users\CYMR90~1\AppData\Local\Temp\ccf145Mk.s:823    .text.hau_flag_get:0000000000000000 hau_flag_get
C:\Users\CYMR90~1\AppData\Local\Temp\ccf145Mk.s:826    .text.hau_flag_get:0000000000000000 .L0 
C:\Users\CYMR90~1\AppData\Local\Temp\ccf145Mk.s:827    .text.hau_flag_get:0000000000000000 .L0 
C:\Users\CYMR90~1\AppData\Local\Temp\ccf145Mk.s:828    .text.hau_flag_get:0000000000000002 .L0 
C:\Users\CYMR90~1\AppData\Local\Temp\ccf145Mk.s:830    .text.hau_flag_get:0000000000000004 .L0 
C:\Users\CYMR90~1\AppData\Local\Temp\ccf145Mk.s:832    .text.hau_flag_get:0000000000000006 .L0 
C:\Users\CYMR90~1\AppData\Local\Temp\ccf145Mk.s:835    .text.hau_flag_get:000000000000000a .L0 
C:\Users\CYMR90~1\AppData\Local\Temp\ccf145Mk.s:837    .text.hau_flag_get:000000000000000e .L0 
C:\Users\CYMR90~1\AppData\Local\Temp\ccf145Mk.s:839    .text.hau_flag_get:0000000000000012 .L0 
C:\Users\CYMR90~1\AppData\Local\Temp\ccf145Mk.s:843    .text.hau_flag_get:000000000000001a .L0 
C:\Users\CYMR90~1\AppData\Local\Temp\ccf145Mk.s:845    .text.hau_flag_get:000000000000001c .L0 
C:\Users\CYMR90~1\AppData\Local\Temp\ccf145Mk.s:848    .text.hau_flag_get:0000000000000024 .L0 
C:\Users\CYMR90~1\AppData\Local\Temp\ccf145Mk.s:853    .text.hau_flag_get:000000000000002c .L0 
C:\Users\CYMR90~1\AppData\Local\Temp\ccf145Mk.s:856    .text.hau_flag_get:0000000000000034 .L0 
C:\Users\CYMR90~1\AppData\Local\Temp\ccf145Mk.s:860    .text.hau_flag_get:000000000000003a .L0 
C:\Users\CYMR90~1\AppData\Local\Temp\ccf145Mk.s:864    .text.hau_flag_get:0000000000000044 .L0 
C:\Users\CYMR90~1\AppData\Local\Temp\ccf145Mk.s:866    .text.hau_flag_get:0000000000000046 .L0 
C:\Users\CYMR90~1\AppData\Local\Temp\ccf145Mk.s:870    .text.hau_flag_get:000000000000004c .L0 
C:\Users\CYMR90~1\AppData\Local\Temp\ccf145Mk.s:872    .text.hau_flag_get:0000000000000050 .L0 
C:\Users\CYMR90~1\AppData\Local\Temp\ccf145Mk.s:874    .text.hau_flag_get:0000000000000054 .L0 
C:\Users\CYMR90~1\AppData\Local\Temp\ccf145Mk.s:875    .text.hau_flag_get:0000000000000054 .L0 
C:\Users\CYMR90~1\AppData\Local\Temp\ccf145Mk.s:877    .text.hau_flag_get:0000000000000056 .L0 
C:\Users\CYMR90~1\AppData\Local\Temp\ccf145Mk.s:879    .text.hau_flag_get:0000000000000058 .L0 
C:\Users\CYMR90~1\AppData\Local\Temp\ccf145Mk.s:886    .text.hau_flag_clear:0000000000000000 hau_flag_clear
C:\Users\CYMR90~1\AppData\Local\Temp\ccf145Mk.s:889    .text.hau_flag_clear:0000000000000000 .L0 
C:\Users\CYMR90~1\AppData\Local\Temp\ccf145Mk.s:890    .text.hau_flag_clear:0000000000000000 .L0 
C:\Users\CYMR90~1\AppData\Local\Temp\ccf145Mk.s:891    .text.hau_flag_clear:0000000000000002 .L0 
C:\Users\CYMR90~1\AppData\Local\Temp\ccf145Mk.s:893    .text.hau_flag_clear:0000000000000004 .L0 
C:\Users\CYMR90~1\AppData\Local\Temp\ccf145Mk.s:895    .text.hau_flag_clear:0000000000000006 .L0 
C:\Users\CYMR90~1\AppData\Local\Temp\ccf145Mk.s:898    .text.hau_flag_clear:000000000000000a .L0 
C:\Users\CYMR90~1\AppData\Local\Temp\ccf145Mk.s:901    .text.hau_flag_clear:0000000000000012 .L0 
C:\Users\CYMR90~1\AppData\Local\Temp\ccf145Mk.s:904    .text.hau_flag_clear:000000000000001a .L0 
C:\Users\CYMR90~1\AppData\Local\Temp\ccf145Mk.s:906    .text.hau_flag_clear:000000000000001c .L0 
C:\Users\CYMR90~1\AppData\Local\Temp\ccf145Mk.s:908    .text.hau_flag_clear:0000000000000020 .L0 
C:\Users\CYMR90~1\AppData\Local\Temp\ccf145Mk.s:909    .text.hau_flag_clear:0000000000000020 .L0 
C:\Users\CYMR90~1\AppData\Local\Temp\ccf145Mk.s:911    .text.hau_flag_clear:0000000000000022 .L0 
C:\Users\CYMR90~1\AppData\Local\Temp\ccf145Mk.s:913    .text.hau_flag_clear:0000000000000024 .L0 
C:\Users\CYMR90~1\AppData\Local\Temp\ccf145Mk.s:920    .text.hau_interrupt_enable:0000000000000000 hau_interrupt_enable
C:\Users\CYMR90~1\AppData\Local\Temp\ccf145Mk.s:923    .text.hau_interrupt_enable:0000000000000000 .L0 
C:\Users\CYMR90~1\AppData\Local\Temp\ccf145Mk.s:924    .text.hau_interrupt_enable:0000000000000000 .L0 
C:\Users\CYMR90~1\AppData\Local\Temp\ccf145Mk.s:925    .text.hau_interrupt_enable:0000000000000002 .L0 
C:\Users\CYMR90~1\AppData\Local\Temp\ccf145Mk.s:927    .text.hau_interrupt_enable:0000000000000004 .L0 
C:\Users\CYMR90~1\AppData\Local\Temp\ccf145Mk.s:929    .text.hau_interrupt_enable:0000000000000006 .L0 
C:\Users\CYMR90~1\AppData\Local\Temp\ccf145Mk.s:932    .text.hau_interrupt_enable:000000000000000a .L0 
C:\Users\CYMR90~1\AppData\Local\Temp\ccf145Mk.s:941    .text.hau_interrupt_enable:0000000000000024 .L0 
C:\Users\CYMR90~1\AppData\Local\Temp\ccf145Mk.s:943    .text.hau_interrupt_enable:0000000000000028 .L0 
C:\Users\CYMR90~1\AppData\Local\Temp\ccf145Mk.s:944    .text.hau_interrupt_enable:0000000000000028 .L0 
C:\Users\CYMR90~1\AppData\Local\Temp\ccf145Mk.s:946    .text.hau_interrupt_enable:000000000000002a .L0 
C:\Users\CYMR90~1\AppData\Local\Temp\ccf145Mk.s:948    .text.hau_interrupt_enable:000000000000002c .L0 
C:\Users\CYMR90~1\AppData\Local\Temp\ccf145Mk.s:955    .text.hau_interrupt_disable:0000000000000000 hau_interrupt_disable
C:\Users\CYMR90~1\AppData\Local\Temp\ccf145Mk.s:958    .text.hau_interrupt_disable:0000000000000000 .L0 
C:\Users\CYMR90~1\AppData\Local\Temp\ccf145Mk.s:959    .text.hau_interrupt_disable:0000000000000000 .L0 
C:\Users\CYMR90~1\AppData\Local\Temp\ccf145Mk.s:960    .text.hau_interrupt_disable:0000000000000002 .L0 
C:\Users\CYMR90~1\AppData\Local\Temp\ccf145Mk.s:962    .text.hau_interrupt_disable:0000000000000004 .L0 
C:\Users\CYMR90~1\AppData\Local\Temp\ccf145Mk.s:964    .text.hau_interrupt_disable:0000000000000006 .L0 
C:\Users\CYMR90~1\AppData\Local\Temp\ccf145Mk.s:967    .text.hau_interrupt_disable:000000000000000a .L0 
C:\Users\CYMR90~1\AppData\Local\Temp\ccf145Mk.s:971    .text.hau_interrupt_disable:0000000000000014 .L0 
C:\Users\CYMR90~1\AppData\Local\Temp\ccf145Mk.s:974    .text.hau_interrupt_disable:000000000000001c .L0 
C:\Users\CYMR90~1\AppData\Local\Temp\ccf145Mk.s:979    .text.hau_interrupt_disable:0000000000000028 .L0 
C:\Users\CYMR90~1\AppData\Local\Temp\ccf145Mk.s:981    .text.hau_interrupt_disable:000000000000002c .L0 
C:\Users\CYMR90~1\AppData\Local\Temp\ccf145Mk.s:982    .text.hau_interrupt_disable:000000000000002c .L0 
C:\Users\CYMR90~1\AppData\Local\Temp\ccf145Mk.s:984    .text.hau_interrupt_disable:000000000000002e .L0 
C:\Users\CYMR90~1\AppData\Local\Temp\ccf145Mk.s:986    .text.hau_interrupt_disable:0000000000000030 .L0 
C:\Users\CYMR90~1\AppData\Local\Temp\ccf145Mk.s:993    .text.hau_interrupt_flag_get:0000000000000000 hau_interrupt_flag_get
C:\Users\CYMR90~1\AppData\Local\Temp\ccf145Mk.s:996    .text.hau_interrupt_flag_get:0000000000000000 .L0 
C:\Users\CYMR90~1\AppData\Local\Temp\ccf145Mk.s:997    .text.hau_interrupt_flag_get:0000000000000000 .L0 
C:\Users\CYMR90~1\AppData\Local\Temp\ccf145Mk.s:998    .text.hau_interrupt_flag_get:0000000000000002 .L0 
C:\Users\CYMR90~1\AppData\Local\Temp\ccf145Mk.s:1000   .text.hau_interrupt_flag_get:0000000000000004 .L0 
C:\Users\CYMR90~1\AppData\Local\Temp\ccf145Mk.s:1002   .text.hau_interrupt_flag_get:0000000000000006 .L0 
C:\Users\CYMR90~1\AppData\Local\Temp\ccf145Mk.s:1005   .text.hau_interrupt_flag_get:000000000000000a .L0 
C:\Users\CYMR90~1\AppData\Local\Temp\ccf145Mk.s:1007   .text.hau_interrupt_flag_get:000000000000000e .L0 
C:\Users\CYMR90~1\AppData\Local\Temp\ccf145Mk.s:1009   .text.hau_interrupt_flag_get:0000000000000012 .L0 
C:\Users\CYMR90~1\AppData\Local\Temp\ccf145Mk.s:1012   .text.hau_interrupt_flag_get:000000000000001a .L0 
C:\Users\CYMR90~1\AppData\Local\Temp\ccf145Mk.s:1015   .text.hau_interrupt_flag_get:0000000000000020 .L0 
C:\Users\CYMR90~1\AppData\Local\Temp\ccf145Mk.s:1019   .text.hau_interrupt_flag_get:000000000000002a .L0 
C:\Users\CYMR90~1\AppData\Local\Temp\ccf145Mk.s:1022   .text.hau_interrupt_flag_get:0000000000000030 .L0 
C:\Users\CYMR90~1\AppData\Local\Temp\ccf145Mk.s:1025   .text.hau_interrupt_flag_get:0000000000000036 .L0 
C:\Users\CYMR90~1\AppData\Local\Temp\ccf145Mk.s:1027   .text.hau_interrupt_flag_get:0000000000000038 .L0 
C:\Users\CYMR90~1\AppData\Local\Temp\ccf145Mk.s:1031   .text.hau_interrupt_flag_get:000000000000003e .L0 
C:\Users\CYMR90~1\AppData\Local\Temp\ccf145Mk.s:1033   .text.hau_interrupt_flag_get:0000000000000042 .L0 
C:\Users\CYMR90~1\AppData\Local\Temp\ccf145Mk.s:1035   .text.hau_interrupt_flag_get:0000000000000046 .L0 
C:\Users\CYMR90~1\AppData\Local\Temp\ccf145Mk.s:1036   .text.hau_interrupt_flag_get:0000000000000046 .L0 
C:\Users\CYMR90~1\AppData\Local\Temp\ccf145Mk.s:1038   .text.hau_interrupt_flag_get:0000000000000048 .L0 
C:\Users\CYMR90~1\AppData\Local\Temp\ccf145Mk.s:1040   .text.hau_interrupt_flag_get:000000000000004a .L0 
C:\Users\CYMR90~1\AppData\Local\Temp\ccf145Mk.s:1047   .text.hau_interrupt_flag_clear:0000000000000000 hau_interrupt_flag_clear
C:\Users\CYMR90~1\AppData\Local\Temp\ccf145Mk.s:1050   .text.hau_interrupt_flag_clear:0000000000000000 .L0 
C:\Users\CYMR90~1\AppData\Local\Temp\ccf145Mk.s:1051   .text.hau_interrupt_flag_clear:0000000000000000 .L0 
C:\Users\CYMR90~1\AppData\Local\Temp\ccf145Mk.s:1052   .text.hau_interrupt_flag_clear:0000000000000002 .L0 
C:\Users\CYMR90~1\AppData\Local\Temp\ccf145Mk.s:1054   .text.hau_interrupt_flag_clear:0000000000000004 .L0 
C:\Users\CYMR90~1\AppData\Local\Temp\ccf145Mk.s:1056   .text.hau_interrupt_flag_clear:0000000000000006 .L0 
C:\Users\CYMR90~1\AppData\Local\Temp\ccf145Mk.s:1059   .text.hau_interrupt_flag_clear:000000000000000a .L0 
C:\Users\CYMR90~1\AppData\Local\Temp\ccf145Mk.s:1062   .text.hau_interrupt_flag_clear:0000000000000012 .L0 
C:\Users\CYMR90~1\AppData\Local\Temp\ccf145Mk.s:1065   .text.hau_interrupt_flag_clear:000000000000001a .L0 
C:\Users\CYMR90~1\AppData\Local\Temp\ccf145Mk.s:1067   .text.hau_interrupt_flag_clear:000000000000001c .L0 
C:\Users\CYMR90~1\AppData\Local\Temp\ccf145Mk.s:1069   .text.hau_interrupt_flag_clear:0000000000000020 .L0 
C:\Users\CYMR90~1\AppData\Local\Temp\ccf145Mk.s:1070   .text.hau_interrupt_flag_clear:0000000000000020 .L0 
C:\Users\CYMR90~1\AppData\Local\Temp\ccf145Mk.s:1072   .text.hau_interrupt_flag_clear:0000000000000022 .L0 
C:\Users\CYMR90~1\AppData\Local\Temp\ccf145Mk.s:1074   .text.hau_interrupt_flag_clear:0000000000000024 .L0 
C:\Users\CYMR90~1\AppData\Local\Temp\ccf145Mk.s:45     .text.hau_deinit:000000000000002a .L0 
C:\Users\CYMR90~1\AppData\Local\Temp\ccf145Mk.s:140    .text.hau_init:00000000000000b8 .L0 
C:\Users\CYMR90~1\AppData\Local\Temp\ccf145Mk.s:178    .text.hau_init_struct_para_init:0000000000000032 .L0 
C:\Users\CYMR90~1\AppData\Local\Temp\ccf145Mk.s:211    .text.hau_reset:0000000000000026 .L0 
C:\Users\CYMR90~1\AppData\Local\Temp\ccf145Mk.s:257    .text.hau_last_word_validbits_num_config:0000000000000046 .L0 
C:\Users\CYMR90~1\AppData\Local\Temp\ccf145Mk.s:289    .text.hau_data_write:0000000000000020 .L0 
C:\Users\CYMR90~1\AppData\Local\Temp\ccf145Mk.s:326    .text.hau_infifo_words_num_get:0000000000000028 .L0 
C:\Users\CYMR90~1\AppData\Local\Temp\ccf145Mk.s:408    .text.hau_digest_read:0000000000000092 .L0 
C:\Users\CYMR90~1\AppData\Local\Temp\ccf145Mk.s:441    .text.hau_digest_calculation_enable:0000000000000026 .L0 
C:\Users\CYMR90~1\AppData\Local\Temp\ccf145Mk.s:486    .text.hau_multiple_single_dma_config:0000000000000046 .L0 
C:\Users\CYMR90~1\AppData\Local\Temp\ccf145Mk.s:519    .text.hau_dma_enable:0000000000000026 .L0 
C:\Users\CYMR90~1\AppData\Local\Temp\ccf145Mk.s:552    .text.hau_dma_disable:0000000000000024 .L0 
C:\Users\CYMR90~1\AppData\Local\Temp\ccf145Mk.s:611    .text.hau_context_struct_para_init:000000000000005c .L0 
C:\Users\CYMR90~1\AppData\Local\Temp\ccf145Mk.s:713    .text.hau_context_save:00000000000000b6 .L0 
C:\Users\CYMR90~1\AppData\Local\Temp\ccf145Mk.s:819    .text.hau_context_restore:00000000000000be .L0 
C:\Users\CYMR90~1\AppData\Local\Temp\ccf145Mk.s:882    .text.hau_flag_get:0000000000000058 .L0 
C:\Users\CYMR90~1\AppData\Local\Temp\ccf145Mk.s:916    .text.hau_flag_clear:0000000000000024 .L0 
C:\Users\CYMR90~1\AppData\Local\Temp\ccf145Mk.s:951    .text.hau_interrupt_enable:000000000000002c .L0 
C:\Users\CYMR90~1\AppData\Local\Temp\ccf145Mk.s:989    .text.hau_interrupt_disable:0000000000000030 .L0 
C:\Users\CYMR90~1\AppData\Local\Temp\ccf145Mk.s:1043   .text.hau_interrupt_flag_get:000000000000004a .L0 
C:\Users\CYMR90~1\AppData\Local\Temp\ccf145Mk.s:1077   .text.hau_interrupt_flag_clear:0000000000000024 .L0 
                     .debug_frame:0000000000000000 .L0 
C:\Users\CYMR90~1\AppData\Local\Temp\ccf145Mk.s:120    .text.hau_init:0000000000000098 .L3
C:\Users\CYMR90~1\AppData\Local\Temp\ccf145Mk.s:594    .text.hau_context_struct_para_init:0000000000000046 .L16
C:\Users\CYMR90~1\AppData\Local\Temp\ccf145Mk.s:582    .text.hau_context_struct_para_init:000000000000002c .L17
C:\Users\CYMR90~1\AppData\Local\Temp\ccf145Mk.s:668    .text.hau_context_save:000000000000006c .L19
C:\Users\CYMR90~1\AppData\Local\Temp\ccf145Mk.s:694    .text.hau_context_save:000000000000009e .L20
C:\Users\CYMR90~1\AppData\Local\Temp\ccf145Mk.s:673    .text.hau_context_save:0000000000000072 .L21
C:\Users\CYMR90~1\AppData\Local\Temp\ccf145Mk.s:776    .text.hau_context_restore:0000000000000076 .L23
C:\Users\CYMR90~1\AppData\Local\Temp\ccf145Mk.s:802    .text.hau_context_restore:00000000000000a8 .L24
C:\Users\CYMR90~1\AppData\Local\Temp\ccf145Mk.s:781    .text.hau_context_restore:000000000000007c .L25
C:\Users\CYMR90~1\AppData\Local\Temp\ccf145Mk.s:851    .text.hau_flag_get:000000000000002c .L27
C:\Users\CYMR90~1\AppData\Local\Temp\ccf145Mk.s:858    .text.hau_flag_get:000000000000003a .L28
C:\Users\CYMR90~1\AppData\Local\Temp\ccf145Mk.s:868    .text.hau_flag_get:000000000000004c .L29
C:\Users\CYMR90~1\AppData\Local\Temp\ccf145Mk.s:1029   .text.hau_interrupt_flag_get:000000000000003e .L35
C:\Users\CYMR90~1\AppData\Local\Temp\ccf145Mk.s:1867   .debug_abbrev:0000000000000000 .Ldebug_abbrev0
C:\Users\CYMR90~1\AppData\Local\Temp\ccf145Mk.s:22845  .debug_str:000000000000adb2 .LASF5649
C:\Users\CYMR90~1\AppData\Local\Temp\ccf145Mk.s:27184  .debug_str:000000000001c57d .LASF5650
C:\Users\CYMR90~1\AppData\Local\Temp\ccf145Mk.s:23151  .debug_str:000000000000c241 .LASF5651
C:\Users\CYMR90~1\AppData\Local\Temp\ccf145Mk.s:2412   .debug_ranges:0000000000000000 .Ldebug_ranges0
C:\Users\CYMR90~1\AppData\Local\Temp\ccf145Mk.s:20099  .debug_line:0000000000000000 .Ldebug_line0
C:\Users\CYMR90~1\AppData\Local\Temp\ccf145Mk.s:2458   .debug_macro:0000000000000000 .Ldebug_macro0
C:\Users\CYMR90~1\AppData\Local\Temp\ccf145Mk.s:31360  .debug_str:000000000002cf22 .LASF5558
C:\Users\CYMR90~1\AppData\Local\Temp\ccf145Mk.s:20117  .debug_str:000000000000011c .LASF5559
C:\Users\CYMR90~1\AppData\Local\Temp\ccf145Mk.s:21035  .debug_str:000000000000397d .LASF5560
C:\Users\CYMR90~1\AppData\Local\Temp\ccf145Mk.s:26218  .debug_str:0000000000018631 .LASF5561
C:\Users\CYMR90~1\AppData\Local\Temp\ccf145Mk.s:22327  .debug_str:0000000000008cb7 .LASF5566
C:\Users\CYMR90~1\AppData\Local\Temp\ccf145Mk.s:25673  .debug_str:00000000000162e2 .LASF5562
C:\Users\CYMR90~1\AppData\Local\Temp\ccf145Mk.s:27542  .debug_str:000000000001de7d .LASF5563
C:\Users\CYMR90~1\AppData\Local\Temp\ccf145Mk.s:29172  .debug_str:000000000002412d .LASF5564
C:\Users\CYMR90~1\AppData\Local\Temp\ccf145Mk.s:27950  .debug_str:000000000001f68e .LASF5565
C:\Users\CYMR90~1\AppData\Local\Temp\ccf145Mk.s:26432  .debug_str:00000000000194c4 .LASF5567
C:\Users\CYMR90~1\AppData\Local\Temp\ccf145Mk.s:20233  .debug_str:00000000000007fc .LASF5568
C:\Users\CYMR90~1\AppData\Local\Temp\ccf145Mk.s:29522  .debug_str:0000000000025a27 .LASF5569
C:\Users\CYMR90~1\AppData\Local\Temp\ccf145Mk.s:27972  .debug_str:000000000001f7f7 .LASF855
C:\Users\CYMR90~1\AppData\Local\Temp\ccf145Mk.s:25441  .debug_str:000000000001543d .LASF5570
C:\Users\CYMR90~1\AppData\Local\Temp\ccf145Mk.s:20909  .debug_str:000000000000315e .LASF5571
C:\Users\CYMR90~1\AppData\Local\Temp\ccf145Mk.s:29214  .debug_str:0000000000024432 .LASF5572
C:\Users\CYMR90~1\AppData\Local\Temp\ccf145Mk.s:22693  .debug_str:000000000000a395 .LASF5573
C:\Users\CYMR90~1\AppData\Local\Temp\ccf145Mk.s:22855  .debug_str:000000000000aeea .LASF5574
C:\Users\CYMR90~1\AppData\Local\Temp\ccf145Mk.s:30386  .debug_str:0000000000029242 .LASF5575
C:\Users\CYMR90~1\AppData\Local\Temp\ccf145Mk.s:27740  .debug_str:000000000001ea37 .LASF5576
C:\Users\CYMR90~1\AppData\Local\Temp\ccf145Mk.s:28576  .debug_str:0000000000021d16 .LASF5577
C:\Users\CYMR90~1\AppData\Local\Temp\ccf145Mk.s:31338  .debug_str:000000000002cddb .LASF5578
C:\Users\CYMR90~1\AppData\Local\Temp\ccf145Mk.s:29814  .debug_str:0000000000026c4d .LASF5579
C:\Users\CYMR90~1\AppData\Local\Temp\ccf145Mk.s:30860  .debug_str:000000000002ae55 .LASF5580
C:\Users\CYMR90~1\AppData\Local\Temp\ccf145Mk.s:25587  .debug_str:0000000000015d68 .LASF5581
C:\Users\CYMR90~1\AppData\Local\Temp\ccf145Mk.s:20881  .debug_str:0000000000002f59 .LASF5582
C:\Users\CYMR90~1\AppData\Local\Temp\ccf145Mk.s:24247  .debug_str:00000000000107c8 .LASF5583
C:\Users\CYMR90~1\AppData\Local\Temp\ccf145Mk.s:29712  .debug_str:00000000000265ff .LASF5584
C:\Users\CYMR90~1\AppData\Local\Temp\ccf145Mk.s:21935  .debug_str:0000000000007255 .LASF5585
C:\Users\CYMR90~1\AppData\Local\Temp\ccf145Mk.s:23189  .debug_str:000000000000c49c .LASF5586
C:\Users\CYMR90~1\AppData\Local\Temp\ccf145Mk.s:31328  .debug_str:000000000002cca4 .LASF5587
C:\Users\CYMR90~1\AppData\Local\Temp\ccf145Mk.s:21735  .debug_str:000000000000651e .LASF5588
C:\Users\CYMR90~1\AppData\Local\Temp\ccf145Mk.s:30314  .debug_str:0000000000028d9c .LASF5589
C:\Users\CYMR90~1\AppData\Local\Temp\ccf145Mk.s:30244  .debug_str:00000000000289a6 .LASF5590
C:\Users\CYMR90~1\AppData\Local\Temp\ccf145Mk.s:25151  .debug_str:000000000001426e .LASF5591
C:\Users\CYMR90~1\AppData\Local\Temp\ccf145Mk.s:21235  .debug_str:00000000000046b7 .LASF5592
C:\Users\CYMR90~1\AppData\Local\Temp\ccf145Mk.s:26660  .debug_str:000000000001a4c2 .LASF5593
C:\Users\CYMR90~1\AppData\Local\Temp\ccf145Mk.s:23477  .debug_str:000000000000d792 .LASF5594
C:\Users\CYMR90~1\AppData\Local\Temp\ccf145Mk.s:31172  .debug_str:000000000002c284 .LASF5595
C:\Users\CYMR90~1\AppData\Local\Temp\ccf145Mk.s:26368  .debug_str:0000000000019124 .LASF5596
C:\Users\CYMR90~1\AppData\Local\Temp\ccf145Mk.s:21959  .debug_str:000000000000739f .LASF5597
C:\Users\CYMR90~1\AppData\Local\Temp\ccf145Mk.s:31142  .debug_str:000000000002c0a0 .LASF5598
C:\Users\CYMR90~1\AppData\Local\Temp\ccf145Mk.s:30818  .debug_str:000000000002abd9 .LASF5599
C:\Users\CYMR90~1\AppData\Local\Temp\ccf145Mk.s:21119  .debug_str:0000000000003eb5 .LASF5600
C:\Users\CYMR90~1\AppData\Local\Temp\ccf145Mk.s:29168  .debug_str:0000000000024103 .LASF5601
C:\Users\CYMR90~1\AppData\Local\Temp\ccf145Mk.s:22929  .debug_str:000000000000b319 .LASF5602
C:\Users\CYMR90~1\AppData\Local\Temp\ccf145Mk.s:26846  .debug_str:000000000001b114 .LASF5603
C:\Users\CYMR90~1\AppData\Local\Temp\ccf145Mk.s:27786  .debug_str:000000000001ecac .LASF5604
C:\Users\CYMR90~1\AppData\Local\Temp\ccf145Mk.s:30602  .debug_str:0000000000029edc .LASF5605
C:\Users\CYMR90~1\AppData\Local\Temp\ccf145Mk.s:29160  .debug_str:000000000002409b .LASF5606
C:\Users\CYMR90~1\AppData\Local\Temp\ccf145Mk.s:26132  .debug_str:0000000000018135 .LASF5607
C:\Users\CYMR90~1\AppData\Local\Temp\ccf145Mk.s:27442  .debug_str:000000000001d7d2 .LASF5608
C:\Users\CYMR90~1\AppData\Local\Temp\ccf145Mk.s:20641  .debug_str:0000000000002047 .LASF5609
C:\Users\CYMR90~1\AppData\Local\Temp\ccf145Mk.s:24421  .debug_str:00000000000112ac .LASF5610
C:\Users\CYMR90~1\AppData\Local\Temp\ccf145Mk.s:22791  .debug_str:000000000000aa1b .LASF5611
C:\Users\CYMR90~1\AppData\Local\Temp\ccf145Mk.s:21953  .debug_str:000000000000734d .LASF5612
C:\Users\CYMR90~1\AppData\Local\Temp\ccf145Mk.s:28022  .debug_str:000000000001fb0c .LASF5613
C:\Users\CYMR90~1\AppData\Local\Temp\ccf145Mk.s:29812  .debug_str:0000000000026c30 .LASF5614
C:\Users\CYMR90~1\AppData\Local\Temp\ccf145Mk.s:21337  .debug_str:0000000000004d6e .LASF5617
C:\Users\CYMR90~1\AppData\Local\Temp\ccf145Mk.s:1048   .text.hau_interrupt_flag_clear:0000000000000000 .LFB367
C:\Users\CYMR90~1\AppData\Local\Temp\ccf145Mk.s:1075   .text.hau_interrupt_flag_clear:0000000000000024 .LFE367
C:\Users\CYMR90~1\AppData\Local\Temp\ccf145Mk.s:25187  .debug_str:000000000001444e .LASF5615
C:\Users\CYMR90~1\AppData\Local\Temp\ccf145Mk.s:22705  .debug_str:000000000000a41c .LASF5622
C:\Users\CYMR90~1\AppData\Local\Temp\ccf145Mk.s:994    .text.hau_interrupt_flag_get:0000000000000000 .LFB366
C:\Users\CYMR90~1\AppData\Local\Temp\ccf145Mk.s:1041   .text.hau_interrupt_flag_get:000000000000004a .LFE366
C:\Users\CYMR90~1\AppData\Local\Temp\ccf145Mk.s:22681  .debug_str:000000000000a2c5 .LASF5616
C:\Users\CYMR90~1\AppData\Local\Temp\ccf145Mk.s:28622  .debug_str:0000000000021fc2 .LASF5618
C:\Users\CYMR90~1\AppData\Local\Temp\ccf145Mk.s:956    .text.hau_interrupt_disable:0000000000000000 .LFB365
C:\Users\CYMR90~1\AppData\Local\Temp\ccf145Mk.s:987    .text.hau_interrupt_disable:0000000000000030 .LFE365
C:\Users\CYMR90~1\AppData\Local\Temp\ccf145Mk.s:26784  .debug_str:000000000001acba .LASF5619
C:\Users\CYMR90~1\AppData\Local\Temp\ccf145Mk.s:29662  .debug_str:000000000002630b .LASF5620
C:\Users\CYMR90~1\AppData\Local\Temp\ccf145Mk.s:921    .text.hau_interrupt_enable:0000000000000000 .LFB364
C:\Users\CYMR90~1\AppData\Local\Temp\ccf145Mk.s:949    .text.hau_interrupt_enable:000000000000002c .LFE364
C:\Users\CYMR90~1\AppData\Local\Temp\ccf145Mk.s:23981  .debug_str:000000000000f71d .LASF5621
C:\Users\CYMR90~1\AppData\Local\Temp\ccf145Mk.s:887    .text.hau_flag_clear:0000000000000000 .LFB363
C:\Users\CYMR90~1\AppData\Local\Temp\ccf145Mk.s:914    .text.hau_flag_clear:0000000000000024 .LFE363
C:\Users\CYMR90~1\AppData\Local\Temp\ccf145Mk.s:28396  .debug_str:00000000000211a4 .LASF5623
C:\Users\CYMR90~1\AppData\Local\Temp\ccf145Mk.s:824    .text.hau_flag_get:0000000000000000 .LFB362
C:\Users\CYMR90~1\AppData\Local\Temp\ccf145Mk.s:880    .text.hau_flag_get:0000000000000058 .LFE362
C:\Users\CYMR90~1\AppData\Local\Temp\ccf145Mk.s:20511  .debug_str:00000000000018da .LASF5624
C:\Users\CYMR90~1\AppData\Local\Temp\ccf145Mk.s:27918  .debug_str:000000000001f4b9 .LASF5625
C:\Users\CYMR90~1\AppData\Local\Temp\ccf145Mk.s:718    .text.hau_context_restore:0000000000000000 .LFB361
C:\Users\CYMR90~1\AppData\Local\Temp\ccf145Mk.s:817    .text.hau_context_restore:00000000000000be .LFE361
C:\Users\CYMR90~1\AppData\Local\Temp\ccf145Mk.s:20719  .debug_str:00000000000024d8 .LASF5626
C:\Users\CYMR90~1\AppData\Local\Temp\ccf145Mk.s:21501  .debug_str:0000000000005723 .LASF5627
C:\Users\CYMR90~1\AppData\Local\Temp\ccf145Mk.s:26468  .debug_str:0000000000019770 .LASF5628
C:\Users\CYMR90~1\AppData\Local\Temp\ccf145Mk.s:616    .text.hau_context_save:0000000000000000 .LFB360
C:\Users\CYMR90~1\AppData\Local\Temp\ccf145Mk.s:711    .text.hau_context_save:00000000000000b6 .LFE360
C:\Users\CYMR90~1\AppData\Local\Temp\ccf145Mk.s:21503  .debug_str:0000000000005729 .LASF5629
C:\Users\CYMR90~1\AppData\Local\Temp\ccf145Mk.s:22533  .debug_str:0000000000009971 .LASF5630
C:\Users\CYMR90~1\AppData\Local\Temp\ccf145Mk.s:557    .text.hau_context_struct_para_init:0000000000000000 .LFB359
C:\Users\CYMR90~1\AppData\Local\Temp\ccf145Mk.s:609    .text.hau_context_struct_para_init:000000000000005c .LFE359
C:\Users\CYMR90~1\AppData\Local\Temp\ccf145Mk.s:28562  .debug_str:0000000000021c40 .LASF5631
C:\Users\CYMR90~1\AppData\Local\Temp\ccf145Mk.s:22725  .debug_str:000000000000a539 .LASF5632
C:\Users\CYMR90~1\AppData\Local\Temp\ccf145Mk.s:524    .text.hau_dma_disable:0000000000000000 .LFB358
C:\Users\CYMR90~1\AppData\Local\Temp\ccf145Mk.s:550    .text.hau_dma_disable:0000000000000024 .LFE358
C:\Users\CYMR90~1\AppData\Local\Temp\ccf145Mk.s:25832  .debug_str:0000000000016f6c .LASF5633
C:\Users\CYMR90~1\AppData\Local\Temp\ccf145Mk.s:491    .text.hau_dma_enable:0000000000000000 .LFB357
C:\Users\CYMR90~1\AppData\Local\Temp\ccf145Mk.s:517    .text.hau_dma_enable:0000000000000026 .LFE357
C:\Users\CYMR90~1\AppData\Local\Temp\ccf145Mk.s:24241  .debug_str:0000000000010776 .LASF5634
C:\Users\CYMR90~1\AppData\Local\Temp\ccf145Mk.s:446    .text.hau_multiple_single_dma_config:0000000000000000 .LFB356
C:\Users\CYMR90~1\AppData\Local\Temp\ccf145Mk.s:484    .text.hau_multiple_single_dma_config:0000000000000046 .LFE356
C:\Users\CYMR90~1\AppData\Local\Temp\ccf145Mk.s:26978  .debug_str:000000000001b8b1 .LASF5635
C:\Users\CYMR90~1\AppData\Local\Temp\ccf145Mk.s:25896  .debug_str:00000000000172dc .LASF5636
C:\Users\CYMR90~1\AppData\Local\Temp\ccf145Mk.s:413    .text.hau_digest_calculation_enable:0000000000000000 .LFB355
C:\Users\CYMR90~1\AppData\Local\Temp\ccf145Mk.s:439    .text.hau_digest_calculation_enable:0000000000000026 .LFE355
C:\Users\CYMR90~1\AppData\Local\Temp\ccf145Mk.s:20321  .debug_str:0000000000000d6e .LASF5637
C:\Users\CYMR90~1\AppData\Local\Temp\ccf145Mk.s:331    .text.hau_digest_read:0000000000000000 .LFB354
C:\Users\CYMR90~1\AppData\Local\Temp\ccf145Mk.s:406    .text.hau_digest_read:0000000000000092 .LFE354
C:\Users\CYMR90~1\AppData\Local\Temp\ccf145Mk.s:25045  .debug_str:0000000000013bdd .LASF5638
C:\Users\CYMR90~1\AppData\Local\Temp\ccf145Mk.s:30026  .debug_str:00000000000279cb .LASF5639
C:\Users\CYMR90~1\AppData\Local\Temp\ccf145Mk.s:294    .text.hau_infifo_words_num_get:0000000000000000 .LFB353
C:\Users\CYMR90~1\AppData\Local\Temp\ccf145Mk.s:324    .text.hau_infifo_words_num_get:0000000000000028 .LFE353
C:\Users\CYMR90~1\AppData\Local\Temp\ccf145Mk.s:23573  .debug_str:000000000000dd61 .LASF5640
C:\Users\CYMR90~1\AppData\Local\Temp\ccf145Mk.s:262    .text.hau_data_write:0000000000000000 .LFB352
C:\Users\CYMR90~1\AppData\Local\Temp\ccf145Mk.s:287    .text.hau_data_write:0000000000000020 .LFE352
C:\Users\CYMR90~1\AppData\Local\Temp\ccf145Mk.s:30480  .debug_str:00000000000297ea .LASF5641
C:\Users\CYMR90~1\AppData\Local\Temp\ccf145Mk.s:28772  .debug_str:0000000000022893 .LASF5642
C:\Users\CYMR90~1\AppData\Local\Temp\ccf145Mk.s:216    .text.hau_last_word_validbits_num_config:0000000000000000 .LFB351
C:\Users\CYMR90~1\AppData\Local\Temp\ccf145Mk.s:255    .text.hau_last_word_validbits_num_config:0000000000000046 .LFE351
C:\Users\CYMR90~1\AppData\Local\Temp\ccf145Mk.s:20337  .debug_str:0000000000000ed5 .LASF5643
C:\Users\CYMR90~1\AppData\Local\Temp\ccf145Mk.s:25860  .debug_str:00000000000170db .LASF5644
C:\Users\CYMR90~1\AppData\Local\Temp\ccf145Mk.s:183    .text.hau_reset:0000000000000000 .LFB350
C:\Users\CYMR90~1\AppData\Local\Temp\ccf145Mk.s:209    .text.hau_reset:0000000000000026 .LFE350
C:\Users\CYMR90~1\AppData\Local\Temp\ccf145Mk.s:23023  .debug_str:000000000000b9ab .LASF5645
C:\Users\CYMR90~1\AppData\Local\Temp\ccf145Mk.s:145    .text.hau_init_struct_para_init:0000000000000000 .LFB349
C:\Users\CYMR90~1\AppData\Local\Temp\ccf145Mk.s:176    .text.hau_init_struct_para_init:0000000000000032 .LFE349
C:\Users\CYMR90~1\AppData\Local\Temp\ccf145Mk.s:26236  .debug_str:000000000001877a .LASF5646
C:\Users\CYMR90~1\AppData\Local\Temp\ccf145Mk.s:30442  .debug_str:000000000002957c .LASF5647
C:\Users\CYMR90~1\AppData\Local\Temp\ccf145Mk.s:50     .text.hau_init:0000000000000000 .LFB348
C:\Users\CYMR90~1\AppData\Local\Temp\ccf145Mk.s:138    .text.hau_init:00000000000000b8 .LFE348
C:\Users\CYMR90~1\AppData\Local\Temp\ccf145Mk.s:21899  .debug_str:0000000000006fed .LASF5648
C:\Users\CYMR90~1\AppData\Local\Temp\ccf145Mk.s:14     .text.hau_deinit:0000000000000000 .LFB347
C:\Users\CYMR90~1\AppData\Local\Temp\ccf145Mk.s:43     .text.hau_deinit:000000000000002a .LFE347
C:\Users\CYMR90~1\AppData\Local\Temp\ccf145Mk.s:1085   .debug_info:0000000000000000 .Ldebug_info0
C:\Users\CYMR90~1\AppData\Local\Temp\ccf145Mk.s:3084   .debug_macro:0000000000000000 .Ldebug_macro2
C:\Users\CYMR90~1\AppData\Local\Temp\ccf145Mk.s:28856  .debug_str:0000000000022ddb .LASF314
C:\Users\CYMR90~1\AppData\Local\Temp\ccf145Mk.s:25850  .debug_str:000000000001705f .LASF315
C:\Users\CYMR90~1\AppData\Local\Temp\ccf145Mk.s:4031   .debug_macro:0000000000000000 .Ldebug_macro3
C:\Users\CYMR90~1\AppData\Local\Temp\ccf145Mk.s:22275  .debug_str:0000000000008915 .LASF369
C:\Users\CYMR90~1\AppData\Local\Temp\ccf145Mk.s:21839  .debug_str:0000000000006bca .LASF370
C:\Users\CYMR90~1\AppData\Local\Temp\ccf145Mk.s:26092  .debug_str:0000000000017edd .LASF371
C:\Users\CYMR90~1\AppData\Local\Temp\ccf145Mk.s:4195   .debug_macro:0000000000000000 .Ldebug_macro4
C:\Users\CYMR90~1\AppData\Local\Temp\ccf145Mk.s:4215   .debug_macro:0000000000000000 .Ldebug_macro5
C:\Users\CYMR90~1\AppData\Local\Temp\ccf145Mk.s:24753  .debug_str:00000000000128e1 .LASF390
C:\Users\CYMR90~1\AppData\Local\Temp\ccf145Mk.s:4259   .debug_macro:0000000000000000 .Ldebug_macro6
C:\Users\CYMR90~1\AppData\Local\Temp\ccf145Mk.s:4273   .debug_macro:0000000000000000 .Ldebug_macro7
C:\Users\CYMR90~1\AppData\Local\Temp\ccf145Mk.s:4341   .debug_macro:0000000000000000 .Ldebug_macro8
C:\Users\CYMR90~1\AppData\Local\Temp\ccf145Mk.s:4367   .debug_macro:0000000000000000 .Ldebug_macro9
C:\Users\CYMR90~1\AppData\Local\Temp\ccf145Mk.s:4396   .debug_macro:0000000000000000 .Ldebug_macro10
C:\Users\CYMR90~1\AppData\Local\Temp\ccf145Mk.s:26230  .debug_str:000000000001871e .LASF433
C:\Users\CYMR90~1\AppData\Local\Temp\ccf145Mk.s:4410   .debug_macro:0000000000000000 .Ldebug_macro11
C:\Users\CYMR90~1\AppData\Local\Temp\ccf145Mk.s:4454   .debug_macro:0000000000000000 .Ldebug_macro12
C:\Users\CYMR90~1\AppData\Local\Temp\ccf145Mk.s:4480   .debug_macro:0000000000000000 .Ldebug_macro13
C:\Users\CYMR90~1\AppData\Local\Temp\ccf145Mk.s:29804  .debug_str:0000000000026bca .LASF569
C:\Users\CYMR90~1\AppData\Local\Temp\ccf145Mk.s:4851   .debug_macro:0000000000000000 .Ldebug_macro14
C:\Users\CYMR90~1\AppData\Local\Temp\ccf145Mk.s:24277  .debug_str:0000000000010970 .LASF572
C:\Users\CYMR90~1\AppData\Local\Temp\ccf145Mk.s:29136  .debug_str:0000000000023e8f .LASF573
C:\Users\CYMR90~1\AppData\Local\Temp\ccf145Mk.s:4862   .debug_macro:0000000000000000 .Ldebug_macro15
C:\Users\CYMR90~1\AppData\Local\Temp\ccf145Mk.s:4876   .debug_macro:0000000000000000 .Ldebug_macro16
C:\Users\CYMR90~1\AppData\Local\Temp\ccf145Mk.s:30936  .debug_str:000000000002b314 .LASF578
C:\Users\CYMR90~1\AppData\Local\Temp\ccf145Mk.s:4908   .debug_macro:0000000000000000 .Ldebug_macro17
C:\Users\CYMR90~1\AppData\Local\Temp\ccf145Mk.s:4934   .debug_macro:0000000000000000 .Ldebug_macro18
C:\Users\CYMR90~1\AppData\Local\Temp\ccf145Mk.s:4945   .debug_macro:0000000000000000 .Ldebug_macro19
C:\Users\CYMR90~1\AppData\Local\Temp\ccf145Mk.s:4989   .debug_macro:0000000000000000 .Ldebug_macro20
C:\Users\CYMR90~1\AppData\Local\Temp\ccf145Mk.s:5159   .debug_macro:0000000000000000 .Ldebug_macro21
C:\Users\CYMR90~1\AppData\Local\Temp\ccf145Mk.s:5170   .debug_macro:0000000000000000 .Ldebug_macro22
C:\Users\CYMR90~1\AppData\Local\Temp\ccf145Mk.s:24759  .debug_str:000000000001293a .LASF675
C:\Users\CYMR90~1\AppData\Local\Temp\ccf145Mk.s:5226   .debug_macro:0000000000000000 .Ldebug_macro23
C:\Users\CYMR90~1\AppData\Local\Temp\ccf145Mk.s:5243   .debug_macro:0000000000000000 .Ldebug_macro24
C:\Users\CYMR90~1\AppData\Local\Temp\ccf145Mk.s:27942  .debug_str:000000000001f61e .LASF693
C:\Users\CYMR90~1\AppData\Local\Temp\ccf145Mk.s:26098  .debug_str:0000000000017f0e .LASF694
C:\Users\CYMR90~1\AppData\Local\Temp\ccf145Mk.s:5287   .debug_macro:0000000000000000 .Ldebug_macro25
C:\Users\CYMR90~1\AppData\Local\Temp\ccf145Mk.s:21305  .debug_str:0000000000004b92 .LASF700
C:\Users\CYMR90~1\AppData\Local\Temp\ccf145Mk.s:22413  .debug_str:00000000000091a0 .LASF701
C:\Users\CYMR90~1\AppData\Local\Temp\ccf145Mk.s:5307   .debug_macro:0000000000000000 .Ldebug_macro26
C:\Users\CYMR90~1\AppData\Local\Temp\ccf145Mk.s:5318   .debug_macro:0000000000000000 .Ldebug_macro27
C:\Users\CYMR90~1\AppData\Local\Temp\ccf145Mk.s:5362   .debug_macro:0000000000000000 .Ldebug_macro28
C:\Users\CYMR90~1\AppData\Local\Temp\ccf145Mk.s:21669  .debug_str:000000000000612e .LASF749
C:\Users\CYMR90~1\AppData\Local\Temp\ccf145Mk.s:5463   .debug_macro:0000000000000000 .Ldebug_macro29
C:\Users\CYMR90~1\AppData\Local\Temp\ccf145Mk.s:5480   .debug_macro:0000000000000000 .Ldebug_macro30
C:\Users\CYMR90~1\AppData\Local\Temp\ccf145Mk.s:20167  .debug_str:000000000000042f .LASF763
C:\Users\CYMR90~1\AppData\Local\Temp\ccf145Mk.s:21485  .debug_str:0000000000005639 .LASF764
C:\Users\CYMR90~1\AppData\Local\Temp\ccf145Mk.s:5512   .debug_macro:0000000000000000 .Ldebug_macro31
C:\Users\CYMR90~1\AppData\Local\Temp\ccf145Mk.s:5526   .debug_macro:0000000000000000 .Ldebug_macro32
C:\Users\CYMR90~1\AppData\Local\Temp\ccf145Mk.s:5696   .debug_macro:0000000000000000 .Ldebug_macro33
C:\Users\CYMR90~1\AppData\Local\Temp\ccf145Mk.s:23933  .debug_str:000000000000f316 .LASF850
C:\Users\CYMR90~1\AppData\Local\Temp\ccf145Mk.s:26318  .debug_str:0000000000018d59 .LASF851
C:\Users\CYMR90~1\AppData\Local\Temp\ccf145Mk.s:5782   .debug_macro:0000000000000000 .Ldebug_macro34
C:\Users\CYMR90~1\AppData\Local\Temp\ccf145Mk.s:5907   .debug_macro:0000000000000000 .Ldebug_macro35
C:\Users\CYMR90~1\AppData\Local\Temp\ccf145Mk.s:20449  .debug_str:00000000000014fd .LASF951
C:\Users\CYMR90~1\AppData\Local\Temp\ccf145Mk.s:6119   .debug_macro:0000000000000000 .Ldebug_macro36
C:\Users\CYMR90~1\AppData\Local\Temp\ccf145Mk.s:22161  .debug_str:0000000000008203 .LASF957
C:\Users\CYMR90~1\AppData\Local\Temp\ccf145Mk.s:21721  .debug_str:000000000000643f .LASF958
C:\Users\CYMR90~1\AppData\Local\Temp\ccf145Mk.s:20613  .debug_str:0000000000001ef8 .LASF959
C:\Users\CYMR90~1\AppData\Local\Temp\ccf145Mk.s:6139   .debug_macro:0000000000000000 .Ldebug_macro37
C:\Users\CYMR90~1\AppData\Local\Temp\ccf145Mk.s:6231   .debug_macro:0000000000000000 .Ldebug_macro38
C:\Users\CYMR90~1\AppData\Local\Temp\ccf145Mk.s:7877   .debug_macro:0000000000000000 .Ldebug_macro39
C:\Users\CYMR90~1\AppData\Local\Temp\ccf145Mk.s:7969   .debug_macro:0000000000000000 .Ldebug_macro40
C:\Users\CYMR90~1\AppData\Local\Temp\ccf145Mk.s:8025   .debug_macro:0000000000000000 .Ldebug_macro41
C:\Users\CYMR90~1\AppData\Local\Temp\ccf145Mk.s:8039   .debug_macro:0000000000000000 .Ldebug_macro42
C:\Users\CYMR90~1\AppData\Local\Temp\ccf145Mk.s:25633  .debug_str:000000000001608a .LASF1655
C:\Users\CYMR90~1\AppData\Local\Temp\ccf145Mk.s:22539  .debug_str:00000000000099f1 .LASF1656
C:\Users\CYMR90~1\AppData\Local\Temp\ccf145Mk.s:8263   .debug_macro:0000000000000000 .Ldebug_macro43
C:\Users\CYMR90~1\AppData\Local\Temp\ccf145Mk.s:8310   .debug_macro:0000000000000000 .Ldebug_macro44
C:\Users\CYMR90~1\AppData\Local\Temp\ccf145Mk.s:8465   .debug_macro:0000000000000000 .Ldebug_macro45
C:\Users\CYMR90~1\AppData\Local\Temp\ccf145Mk.s:8521   .debug_macro:0000000000000000 .Ldebug_macro46
C:\Users\CYMR90~1\AppData\Local\Temp\ccf145Mk.s:8532   .debug_macro:0000000000000000 .Ldebug_macro47
C:\Users\CYMR90~1\AppData\Local\Temp\ccf145Mk.s:30582  .debug_str:0000000000029de7 .LASF1782
C:\Users\CYMR90~1\AppData\Local\Temp\ccf145Mk.s:25401  .debug_str:0000000000015221 .LASF1783
C:\Users\CYMR90~1\AppData\Local\Temp\ccf145Mk.s:8663   .debug_macro:0000000000000000 .Ldebug_macro48
C:\Users\CYMR90~1\AppData\Local\Temp\ccf145Mk.s:9235   .debug_macro:0000000000000000 .Ldebug_macro49
C:\Users\CYMR90~1\AppData\Local\Temp\ccf145Mk.s:9522   .debug_macro:0000000000000000 .Ldebug_macro50
C:\Users\CYMR90~1\AppData\Local\Temp\ccf145Mk.s:9551   .debug_macro:0000000000000000 .Ldebug_macro51
C:\Users\CYMR90~1\AppData\Local\Temp\ccf145Mk.s:9628   .debug_macro:0000000000000000 .Ldebug_macro52
C:\Users\CYMR90~1\AppData\Local\Temp\ccf145Mk.s:10161  .debug_macro:0000000000000000 .Ldebug_macro53
C:\Users\CYMR90~1\AppData\Local\Temp\ccf145Mk.s:10184  .debug_macro:0000000000000000 .Ldebug_macro54
C:\Users\CYMR90~1\AppData\Local\Temp\ccf145Mk.s:10450  .debug_macro:0000000000000000 .Ldebug_macro55
C:\Users\CYMR90~1\AppData\Local\Temp\ccf145Mk.s:10929  .debug_macro:0000000000000000 .Ldebug_macro56
C:\Users\CYMR90~1\AppData\Local\Temp\ccf145Mk.s:11258  .debug_macro:0000000000000000 .Ldebug_macro57
C:\Users\CYMR90~1\AppData\Local\Temp\ccf145Mk.s:11347  .debug_macro:0000000000000000 .Ldebug_macro58
C:\Users\CYMR90~1\AppData\Local\Temp\ccf145Mk.s:12162  .debug_macro:0000000000000000 .Ldebug_macro59
C:\Users\CYMR90~1\AppData\Local\Temp\ccf145Mk.s:12665  .debug_macro:0000000000000000 .Ldebug_macro60
C:\Users\CYMR90~1\AppData\Local\Temp\ccf145Mk.s:12811  .debug_macro:0000000000000000 .Ldebug_macro61
C:\Users\CYMR90~1\AppData\Local\Temp\ccf145Mk.s:13341  .debug_macro:0000000000000000 .Ldebug_macro62
C:\Users\CYMR90~1\AppData\Local\Temp\ccf145Mk.s:13763  .debug_macro:0000000000000000 .Ldebug_macro63
C:\Users\CYMR90~1\AppData\Local\Temp\ccf145Mk.s:16537  .debug_macro:0000000000000000 .Ldebug_macro64
C:\Users\CYMR90~1\AppData\Local\Temp\ccf145Mk.s:17613  .debug_macro:0000000000000000 .Ldebug_macro65
C:\Users\CYMR90~1\AppData\Local\Temp\ccf145Mk.s:17882  .debug_macro:0000000000000000 .Ldebug_macro66
C:\Users\CYMR90~1\AppData\Local\Temp\ccf145Mk.s:18154  .debug_macro:0000000000000000 .Ldebug_macro67
C:\Users\CYMR90~1\AppData\Local\Temp\ccf145Mk.s:19182  .debug_macro:0000000000000000 .Ldebug_macro68
C:\Users\CYMR90~1\AppData\Local\Temp\ccf145Mk.s:19226  .debug_macro:0000000000000000 .Ldebug_macro69
C:\Users\CYMR90~1\AppData\Local\Temp\ccf145Mk.s:19852  .debug_macro:0000000000000000 .Ldebug_macro70
C:\Users\CYMR90~1\AppData\Local\Temp\ccf145Mk.s:19911  .debug_macro:0000000000000000 .Ldebug_macro71
C:\Users\CYMR90~1\AppData\Local\Temp\ccf145Mk.s:23327  .debug_str:000000000000cd57 .LASF5556
C:\Users\CYMR90~1\AppData\Local\Temp\ccf145Mk.s:29246  .debug_str:0000000000024629 .LASF5557
C:\Users\CYMR90~1\AppData\Local\Temp\ccf145Mk.s:21467  .debug_str:0000000000005536 .LASF0
C:\Users\CYMR90~1\AppData\Local\Temp\ccf145Mk.s:25828  .debug_str:0000000000016f37 .LASF1
C:\Users\CYMR90~1\AppData\Local\Temp\ccf145Mk.s:24103  .debug_str:000000000000fead .LASF2
C:\Users\CYMR90~1\AppData\Local\Temp\ccf145Mk.s:24161  .debug_str:000000000001022d .LASF3
C:\Users\CYMR90~1\AppData\Local\Temp\ccf145Mk.s:25445  .debug_str:000000000001545b .LASF4
C:\Users\CYMR90~1\AppData\Local\Temp\ccf145Mk.s:30982  .debug_str:000000000002b612 .LASF5
C:\Users\CYMR90~1\AppData\Local\Temp\ccf145Mk.s:21695  .debug_str:00000000000062d6 .LASF6
C:\Users\CYMR90~1\AppData\Local\Temp\ccf145Mk.s:30304  .debug_str:0000000000028d25 .LASF7
C:\Users\CYMR90~1\AppData\Local\Temp\ccf145Mk.s:29254  .debug_str:00000000000246ab .LASF8
C:\Users\CYMR90~1\AppData\Local\Temp\ccf145Mk.s:27164  .debug_str:000000000001c40b .LASF9
C:\Users\CYMR90~1\AppData\Local\Temp\ccf145Mk.s:26520  .debug_str:0000000000019b20 .LASF10
C:\Users\CYMR90~1\AppData\Local\Temp\ccf145Mk.s:26374  .debug_str:000000000001915c .LASF11
C:\Users\CYMR90~1\AppData\Local\Temp\ccf145Mk.s:30820  .debug_str:000000000002abe4 .LASF12
C:\Users\CYMR90~1\AppData\Local\Temp\ccf145Mk.s:26386  .debug_str:0000000000019210 .LASF13
C:\Users\CYMR90~1\AppData\Local\Temp\ccf145Mk.s:22697  .debug_str:000000000000a3bf .LASF14
C:\Users\CYMR90~1\AppData\Local\Temp\ccf145Mk.s:27738  .debug_str:000000000001ea20 .LASF15
C:\Users\CYMR90~1\AppData\Local\Temp\ccf145Mk.s:28496  .debug_str:0000000000021840 .LASF16
C:\Users\CYMR90~1\AppData\Local\Temp\ccf145Mk.s:22747  .debug_str:000000000000a6b7 .LASF17
C:\Users\CYMR90~1\AppData\Local\Temp\ccf145Mk.s:29536  .debug_str:0000000000025b04 .LASF18
C:\Users\CYMR90~1\AppData\Local\Temp\ccf145Mk.s:23711  .debug_str:000000000000e5b9 .LASF19
C:\Users\CYMR90~1\AppData\Local\Temp\ccf145Mk.s:29344  .debug_str:0000000000024cea .LASF20
C:\Users\CYMR90~1\AppData\Local\Temp\ccf145Mk.s:26184  .debug_str:000000000001845c .LASF21
C:\Users\CYMR90~1\AppData\Local\Temp\ccf145Mk.s:26182  .debug_str:0000000000018442 .LASF22
C:\Users\CYMR90~1\AppData\Local\Temp\ccf145Mk.s:28806  .debug_str:0000000000022b00 .LASF23
C:\Users\CYMR90~1\AppData\Local\Temp\ccf145Mk.s:27114  .debug_str:000000000001c154 .LASF24
C:\Users\CYMR90~1\AppData\Local\Temp\ccf145Mk.s:21009  .debug_str:00000000000037c2 .LASF25
C:\Users\CYMR90~1\AppData\Local\Temp\ccf145Mk.s:25569  .debug_str:0000000000015c29 .LASF26
C:\Users\CYMR90~1\AppData\Local\Temp\ccf145Mk.s:28810  .debug_str:0000000000022b36 .LASF27
C:\Users\CYMR90~1\AppData\Local\Temp\ccf145Mk.s:28504  .debug_str:000000000002189d .LASF28
C:\Users\CYMR90~1\AppData\Local\Temp\ccf145Mk.s:21419  .debug_str:0000000000005264 .LASF29
C:\Users\CYMR90~1\AppData\Local\Temp\ccf145Mk.s:27518  .debug_str:000000000001dcc6 .LASF30
C:\Users\CYMR90~1\AppData\Local\Temp\ccf145Mk.s:20397  .debug_str:0000000000001212 .LASF31
C:\Users\CYMR90~1\AppData\Local\Temp\ccf145Mk.s:27978  .debug_str:000000000001f82b .LASF32
C:\Users\CYMR90~1\AppData\Local\Temp\ccf145Mk.s:22581  .debug_str:0000000000009c5c .LASF33
C:\Users\CYMR90~1\AppData\Local\Temp\ccf145Mk.s:22429  .debug_str:000000000000928b .LASF34
C:\Users\CYMR90~1\AppData\Local\Temp\ccf145Mk.s:23743  .debug_str:000000000000e797 .LASF35
C:\Users\CYMR90~1\AppData\Local\Temp\ccf145Mk.s:26632  .debug_str:000000000001a1a2 .LASF36
C:\Users\CYMR90~1\AppData\Local\Temp\ccf145Mk.s:21933  .debug_str:000000000000722d .LASF37
C:\Users\CYMR90~1\AppData\Local\Temp\ccf145Mk.s:24101  .debug_str:000000000000fe8a .LASF38
C:\Users\CYMR90~1\AppData\Local\Temp\ccf145Mk.s:20975  .debug_str:0000000000003572 .LASF39
C:\Users\CYMR90~1\AppData\Local\Temp\ccf145Mk.s:20771  .debug_str:0000000000002871 .LASF40
C:\Users\CYMR90~1\AppData\Local\Temp\ccf145Mk.s:24265  .debug_str:00000000000108c0 .LASF41
C:\Users\CYMR90~1\AppData\Local\Temp\ccf145Mk.s:24691  .debug_str:00000000000124bb .LASF42
C:\Users\CYMR90~1\AppData\Local\Temp\ccf145Mk.s:24957  .debug_str:00000000000136b6 .LASF43
C:\Users\CYMR90~1\AppData\Local\Temp\ccf145Mk.s:26622  .debug_str:000000000001a110 .LASF44
C:\Users\CYMR90~1\AppData\Local\Temp\ccf145Mk.s:24553  .debug_str:0000000000011bfd .LASF45
C:\Users\CYMR90~1\AppData\Local\Temp\ccf145Mk.s:21241  .debug_str:0000000000004711 .LASF46
C:\Users\CYMR90~1\AppData\Local\Temp\ccf145Mk.s:27524  .debug_str:000000000001dd2b .LASF47
C:\Users\CYMR90~1\AppData\Local\Temp\ccf145Mk.s:29256  .debug_str:00000000000246c0 .LASF48
C:\Users\CYMR90~1\AppData\Local\Temp\ccf145Mk.s:23489  .debug_str:000000000000d80e .LASF49
C:\Users\CYMR90~1\AppData\Local\Temp\ccf145Mk.s:20609  .debug_str:0000000000001ec5 .LASF50
C:\Users\CYMR90~1\AppData\Local\Temp\ccf145Mk.s:20119  .debug_str:000000000000012a .LASF51
C:\Users\CYMR90~1\AppData\Local\Temp\ccf145Mk.s:30594  .debug_str:0000000000029e7b .LASF52
C:\Users\CYMR90~1\AppData\Local\Temp\ccf145Mk.s:23301  .debug_str:000000000000cbd2 .LASF53
C:\Users\CYMR90~1\AppData\Local\Temp\ccf145Mk.s:25033  .debug_str:0000000000013b36 .LASF54
C:\Users\CYMR90~1\AppData\Local\Temp\ccf145Mk.s:24065  .debug_str:000000000000fc00 .LASF55
C:\Users\CYMR90~1\AppData\Local\Temp\ccf145Mk.s:22023  .debug_str:00000000000077a8 .LASF56
C:\Users\CYMR90~1\AppData\Local\Temp\ccf145Mk.s:25423  .debug_str:0000000000015330 .LASF57
C:\Users\CYMR90~1\AppData\Local\Temp\ccf145Mk.s:20351  .debug_str:0000000000000f70 .LASF58
C:\Users\CYMR90~1\AppData\Local\Temp\ccf145Mk.s:29540  .debug_str:0000000000025b44 .LASF59
C:\Users\CYMR90~1\AppData\Local\Temp\ccf145Mk.s:24965  .debug_str:0000000000013711 .LASF60
C:\Users\CYMR90~1\AppData\Local\Temp\ccf145Mk.s:26900  .debug_str:000000000001b45b .LASF61
C:\Users\CYMR90~1\AppData\Local\Temp\ccf145Mk.s:20835  .debug_str:0000000000002c99 .LASF62
C:\Users\CYMR90~1\AppData\Local\Temp\ccf145Mk.s:23483  .debug_str:000000000000d7ca .LASF63
C:\Users\CYMR90~1\AppData\Local\Temp\ccf145Mk.s:23215  .debug_str:000000000000c63c .LASF64
C:\Users\CYMR90~1\AppData\Local\Temp\ccf145Mk.s:26608  .debug_str:000000000001a047 .LASF65
C:\Users\CYMR90~1\AppData\Local\Temp\ccf145Mk.s:25263  .debug_str:000000000001490b .LASF66
C:\Users\CYMR90~1\AppData\Local\Temp\ccf145Mk.s:30376  .debug_str:0000000000029182 .LASF67
C:\Users\CYMR90~1\AppData\Local\Temp\ccf145Mk.s:30822  .debug_str:000000000002abf7 .LASF68
C:\Users\CYMR90~1\AppData\Local\Temp\ccf145Mk.s:24507  .debug_str:00000000000118c0 .LASF69
C:\Users\CYMR90~1\AppData\Local\Temp\ccf145Mk.s:23637  .debug_str:000000000000e0fb .LASF70
C:\Users\CYMR90~1\AppData\Local\Temp\ccf145Mk.s:21253  .debug_str:0000000000004864 .LASF71
C:\Users\CYMR90~1\AppData\Local\Temp\ccf145Mk.s:24541  .debug_str:0000000000011b3a .LASF72
C:\Users\CYMR90~1\AppData\Local\Temp\ccf145Mk.s:24169  .debug_str:000000000001029e .LASF73
C:\Users\CYMR90~1\AppData\Local\Temp\ccf145Mk.s:24771  .debug_str:0000000000012a2b .LASF74
C:\Users\CYMR90~1\AppData\Local\Temp\ccf145Mk.s:24613  .debug_str:0000000000011fce .LASF75
C:\Users\CYMR90~1\AppData\Local\Temp\ccf145Mk.s:24711  .debug_str:0000000000012626 .LASF76
C:\Users\CYMR90~1\AppData\Local\Temp\ccf145Mk.s:29170  .debug_str:0000000000024112 .LASF77
C:\Users\CYMR90~1\AppData\Local\Temp\ccf145Mk.s:27090  .debug_str:000000000001bfe5 .LASF78
C:\Users\CYMR90~1\AppData\Local\Temp\ccf145Mk.s:27488  .debug_str:000000000001da6c .LASF79
C:\Users\CYMR90~1\AppData\Local\Temp\ccf145Mk.s:30356  .debug_str:0000000000029033 .LASF80
C:\Users\CYMR90~1\AppData\Local\Temp\ccf145Mk.s:22531  .debug_str:0000000000009960 .LASF81
C:\Users\CYMR90~1\AppData\Local\Temp\ccf145Mk.s:22733  .debug_str:000000000000a583 .LASF82
C:\Users\CYMR90~1\AppData\Local\Temp\ccf145Mk.s:30488  .debug_str:0000000000029866 .LASF83
C:\Users\CYMR90~1\AppData\Local\Temp\ccf145Mk.s:22471  .debug_str:0000000000009557 .LASF84
C:\Users\CYMR90~1\AppData\Local\Temp\ccf145Mk.s:21755  .debug_str:0000000000006679 .LASF85
C:\Users\CYMR90~1\AppData\Local\Temp\ccf145Mk.s:26806  .debug_str:000000000001ae56 .LASF86
C:\Users\CYMR90~1\AppData\Local\Temp\ccf145Mk.s:30518  .debug_str:00000000000299f0 .LASF87
C:\Users\CYMR90~1\AppData\Local\Temp\ccf145Mk.s:27916  .debug_str:000000000001f495 .LASF88
C:\Users\CYMR90~1\AppData\Local\Temp\ccf145Mk.s:26722  .debug_str:000000000001a900 .LASF89
C:\Users\CYMR90~1\AppData\Local\Temp\ccf145Mk.s:27946  .debug_str:000000000001f651 .LASF90
C:\Users\CYMR90~1\AppData\Local\Temp\ccf145Mk.s:30728  .debug_str:000000000002a679 .LASF91
C:\Users\CYMR90~1\AppData\Local\Temp\ccf145Mk.s:29548  .debug_str:0000000000025bbc .LASF92
C:\Users\CYMR90~1\AppData\Local\Temp\ccf145Mk.s:22609  .debug_str:0000000000009e35 .LASF93
C:\Users\CYMR90~1\AppData\Local\Temp\ccf145Mk.s:27366  .debug_str:000000000001d2cd .LASF94
C:\Users\CYMR90~1\AppData\Local\Temp\ccf145Mk.s:24993  .debug_str:00000000000138ca .LASF95
C:\Users\CYMR90~1\AppData\Local\Temp\ccf145Mk.s:24977  .debug_str:00000000000137da .LASF96
C:\Users\CYMR90~1\AppData\Local\Temp\ccf145Mk.s:31030  .debug_str:000000000002b930 .LASF97
C:\Users\CYMR90~1\AppData\Local\Temp\ccf145Mk.s:24625  .debug_str:00000000000120a0 .LASF98
C:\Users\CYMR90~1\AppData\Local\Temp\ccf145Mk.s:28522  .debug_str:00000000000219c1 .LASF99
C:\Users\CYMR90~1\AppData\Local\Temp\ccf145Mk.s:21969  .debug_str:000000000000742b .LASF100
C:\Users\CYMR90~1\AppData\Local\Temp\ccf145Mk.s:24115  .debug_str:000000000000ff38 .LASF101
C:\Users\CYMR90~1\AppData\Local\Temp\ccf145Mk.s:25487  .debug_str:00000000000156b2 .LASF102
C:\Users\CYMR90~1\AppData\Local\Temp\ccf145Mk.s:24391  .debug_str:00000000000110be .LASF103
C:\Users\CYMR90~1\AppData\Local\Temp\ccf145Mk.s:23401  .debug_str:000000000000d244 .LASF104
C:\Users\CYMR90~1\AppData\Local\Temp\ccf145Mk.s:24563  .debug_str:0000000000011c94 .LASF105
C:\Users\CYMR90~1\AppData\Local\Temp\ccf145Mk.s:27188  .debug_str:000000000001c5d4 .LASF106
C:\Users\CYMR90~1\AppData\Local\Temp\ccf145Mk.s:24385  .debug_str:0000000000011059 .LASF107
C:\Users\CYMR90~1\AppData\Local\Temp\ccf145Mk.s:23397  .debug_str:000000000000d220 .LASF108
C:\Users\CYMR90~1\AppData\Local\Temp\ccf145Mk.s:24827  .debug_str:0000000000012dac .LASF109
C:\Users\CYMR90~1\AppData\Local\Temp\ccf145Mk.s:23767  .debug_str:000000000000e931 .LASF110
C:\Users\CYMR90~1\AppData\Local\Temp\ccf145Mk.s:26238  .debug_str:0000000000018783 .LASF111
C:\Users\CYMR90~1\AppData\Local\Temp\ccf145Mk.s:22873  .debug_str:000000000000affc .LASF112
C:\Users\CYMR90~1\AppData\Local\Temp\ccf145Mk.s:22607  .debug_str:0000000000009e0c .LASF113
C:\Users\CYMR90~1\AppData\Local\Temp\ccf145Mk.s:25519  .debug_str:00000000000158b2 .LASF114
C:\Users\CYMR90~1\AppData\Local\Temp\ccf145Mk.s:30416  .debug_str:00000000000293d4 .LASF115
C:\Users\CYMR90~1\AppData\Local\Temp\ccf145Mk.s:29052  .debug_str:000000000002398c .LASF116
C:\Users\CYMR90~1\AppData\Local\Temp\ccf145Mk.s:22363  .debug_str:0000000000008eac .LASF117
C:\Users\CYMR90~1\AppData\Local\Temp\ccf145Mk.s:26956  .debug_str:000000000001b7bb .LASF118
C:\Users\CYMR90~1\AppData\Local\Temp\ccf145Mk.s:31136  .debug_str:000000000002c057 .LASF119
C:\Users\CYMR90~1\AppData\Local\Temp\ccf145Mk.s:23685  .debug_str:000000000000e3ce .LASF120
C:\Users\CYMR90~1\AppData\Local\Temp\ccf145Mk.s:29152  .debug_str:0000000000023f5e .LASF121
C:\Users\CYMR90~1\AppData\Local\Temp\ccf145Mk.s:23177  .debug_str:000000000000c3d5 .LASF122
C:\Users\CYMR90~1\AppData\Local\Temp\ccf145Mk.s:23287  .debug_str:000000000000cb25 .LASF123
C:\Users\CYMR90~1\AppData\Local\Temp\ccf145Mk.s:20945  .debug_str:00000000000033a9 .LASF124
C:\Users\CYMR90~1\AppData\Local\Temp\ccf145Mk.s:21217  .debug_str:000000000000455b .LASF125
C:\Users\CYMR90~1\AppData\Local\Temp\ccf145Mk.s:30094  .debug_str:0000000000027e7f .LASF126
C:\Users\CYMR90~1\AppData\Local\Temp\ccf145Mk.s:24569  .debug_str:0000000000011cd2 .LASF127
C:\Users\CYMR90~1\AppData\Local\Temp\ccf145Mk.s:27342  .debug_str:000000000001d16f .LASF128
C:\Users\CYMR90~1\AppData\Local\Temp\ccf145Mk.s:22437  .debug_str:0000000000009303 .LASF129
C:\Users\CYMR90~1\AppData\Local\Temp\ccf145Mk.s:29668  .debug_str:000000000002635c .LASF130
C:\Users\CYMR90~1\AppData\Local\Temp\ccf145Mk.s:29972  .debug_str:000000000002768a .LASF131
C:\Users\CYMR90~1\AppData\Local\Temp\ccf145Mk.s:29784  .debug_str:0000000000026a6f .LASF132
C:\Users\CYMR90~1\AppData\Local\Temp\ccf145Mk.s:23661  .debug_str:000000000000e25d .LASF133
C:\Users\CYMR90~1\AppData\Local\Temp\ccf145Mk.s:29070  .debug_str:0000000000023a9c .LASF134
C:\Users\CYMR90~1\AppData\Local\Temp\ccf145Mk.s:21211  .debug_str:00000000000044f4 .LASF135
C:\Users\CYMR90~1\AppData\Local\Temp\ccf145Mk.s:22067  .debug_str:0000000000007a84 .LASF136
C:\Users\CYMR90~1\AppData\Local\Temp\ccf145Mk.s:30814  .debug_str:000000000002abad .LASF137
C:\Users\CYMR90~1\AppData\Local\Temp\ccf145Mk.s:24823  .debug_str:0000000000012d7c .LASF138
C:\Users\CYMR90~1\AppData\Local\Temp\ccf145Mk.s:30302  .debug_str:0000000000028d15 .LASF139
C:\Users\CYMR90~1\AppData\Local\Temp\ccf145Mk.s:29432  .debug_str:000000000002535b .LASF140
C:\Users\CYMR90~1\AppData\Local\Temp\ccf145Mk.s:27046  .debug_str:000000000001bd15 .LASF141
C:\Users\CYMR90~1\AppData\Local\Temp\ccf145Mk.s:22569  .debug_str:0000000000009b9d .LASF142
C:\Users\CYMR90~1\AppData\Local\Temp\ccf145Mk.s:30886  .debug_str:000000000002afbd .LASF143
C:\Users\CYMR90~1\AppData\Local\Temp\ccf145Mk.s:26206  .debug_str:0000000000018570 .LASF144
C:\Users\CYMR90~1\AppData\Local\Temp\ccf145Mk.s:25275  .debug_str:00000000000149f0 .LASF145
C:\Users\CYMR90~1\AppData\Local\Temp\ccf145Mk.s:23249  .debug_str:000000000000c918 .LASF146
C:\Users\CYMR90~1\AppData\Local\Temp\ccf145Mk.s:21251  .debug_str:000000000000484d .LASF147
C:\Users\CYMR90~1\AppData\Local\Temp\ccf145Mk.s:23809  .debug_str:000000000000eba7 .LASF148
C:\Users\CYMR90~1\AppData\Local\Temp\ccf145Mk.s:26186  .debug_str:0000000000018470 .LASF149
C:\Users\CYMR90~1\AppData\Local\Temp\ccf145Mk.s:20193  .debug_str:0000000000000587 .LASF150
C:\Users\CYMR90~1\AppData\Local\Temp\ccf145Mk.s:31368  .debug_str:000000000002cf7d .LASF151
C:\Users\CYMR90~1\AppData\Local\Temp\ccf145Mk.s:24817  .debug_str:0000000000012cfa .LASF152
C:\Users\CYMR90~1\AppData\Local\Temp\ccf145Mk.s:29438  .debug_str:00000000000253ae .LASF153
C:\Users\CYMR90~1\AppData\Local\Temp\ccf145Mk.s:27248  .debug_str:000000000001ca1e .LASF154
C:\Users\CYMR90~1\AppData\Local\Temp\ccf145Mk.s:24223  .debug_str:0000000000010660 .LASF155
C:\Users\CYMR90~1\AppData\Local\Temp\ccf145Mk.s:27260  .debug_str:000000000001cb04 .LASF156
C:\Users\CYMR90~1\AppData\Local\Temp\ccf145Mk.s:27372  .debug_str:000000000001d335 .LASF157
C:\Users\CYMR90~1\AppData\Local\Temp\ccf145Mk.s:23107  .debug_str:000000000000bf78 .LASF158
C:\Users\CYMR90~1\AppData\Local\Temp\ccf145Mk.s:22165  .debug_str:0000000000008225 .LASF159
C:\Users\CYMR90~1\AppData\Local\Temp\ccf145Mk.s:26906  .debug_str:000000000001b4af .LASF160
C:\Users\CYMR90~1\AppData\Local\Temp\ccf145Mk.s:28330  .debug_str:0000000000020e01 .LASF161
C:\Users\CYMR90~1\AppData\Local\Temp\ccf145Mk.s:26512  .debug_str:0000000000019a8e .LASF162
C:\Users\CYMR90~1\AppData\Local\Temp\ccf145Mk.s:29060  .debug_str:00000000000239fe .LASF163
C:\Users\CYMR90~1\AppData\Local\Temp\ccf145Mk.s:30714  .debug_str:000000000002a5ab .LASF164
C:\Users\CYMR90~1\AppData\Local\Temp\ccf145Mk.s:21923  .debug_str:00000000000071a9 .LASF165
C:\Users\CYMR90~1\AppData\Local\Temp\ccf145Mk.s:30404  .debug_str:0000000000029345 .LASF166
C:\Users\CYMR90~1\AppData\Local\Temp\ccf145Mk.s:30224  .debug_str:0000000000028844 .LASF167
C:\Users\CYMR90~1\AppData\Local\Temp\ccf145Mk.s:28980  .debug_str:00000000000234de .LASF168
C:\Users\CYMR90~1\AppData\Local\Temp\ccf145Mk.s:25974  .debug_str:00000000000177ac .LASF169
C:\Users\CYMR90~1\AppData\Local\Temp\ccf145Mk.s:29846  .debug_str:0000000000026e1c .LASF170
C:\Users\CYMR90~1\AppData\Local\Temp\ccf145Mk.s:25595  .debug_str:0000000000015dc6 .LASF171
C:\Users\CYMR90~1\AppData\Local\Temp\ccf145Mk.s:27170  .debug_str:000000000001c46a .LASF172
C:\Users\CYMR90~1\AppData\Local\Temp\ccf145Mk.s:22561  .debug_str:0000000000009b29 .LASF173
C:\Users\CYMR90~1\AppData\Local\Temp\ccf145Mk.s:28872  .debug_str:0000000000022ec8 .LASF174
C:\Users\CYMR90~1\AppData\Local\Temp\ccf145Mk.s:21591  .debug_str:0000000000005c79 .LASF175
C:\Users\CYMR90~1\AppData\Local\Temp\ccf145Mk.s:22405  .debug_str:0000000000009137 .LASF176
C:\Users\CYMR90~1\AppData\Local\Temp\ccf145Mk.s:21085  .debug_str:0000000000003c89 .LASF177
C:\Users\CYMR90~1\AppData\Local\Temp\ccf145Mk.s:26382  .debug_str:00000000000191ce .LASF178
C:\Users\CYMR90~1\AppData\Local\Temp\ccf145Mk.s:23341  .debug_str:000000000000ce81 .LASF179
C:\Users\CYMR90~1\AppData\Local\Temp\ccf145Mk.s:20603  .debug_str:0000000000001e59 .LASF180
C:\Users\CYMR90~1\AppData\Local\Temp\ccf145Mk.s:31026  .debug_str:000000000002b905 .LASF181
C:\Users\CYMR90~1\AppData\Local\Temp\ccf145Mk.s:20383  .debug_str:0000000000001167 .LASF182
C:\Users\CYMR90~1\AppData\Local\Temp\ccf145Mk.s:24933  .debug_str:0000000000013508 .LASF183
C:\Users\CYMR90~1\AppData\Local\Temp\ccf145Mk.s:25339  .debug_str:0000000000014e23 .LASF184
C:\Users\CYMR90~1\AppData\Local\Temp\ccf145Mk.s:30234  .debug_str:00000000000288f3 .LASF185
C:\Users\CYMR90~1\AppData\Local\Temp\ccf145Mk.s:23439  .debug_str:000000000000d558 .LASF186
C:\Users\CYMR90~1\AppData\Local\Temp\ccf145Mk.s:21907  .debug_str:0000000000007048 .LASF187
C:\Users\CYMR90~1\AppData\Local\Temp\ccf145Mk.s:27892  .debug_str:000000000001f34a .LASF188
C:\Users\CYMR90~1\AppData\Local\Temp\ccf145Mk.s:23705  .debug_str:000000000000e55f .LASF189
C:\Users\CYMR90~1\AppData\Local\Temp\ccf145Mk.s:25039  .debug_str:0000000000013b95 .LASF190
C:\Users\CYMR90~1\AppData\Local\Temp\ccf145Mk.s:28390  .debug_str:0000000000021147 .LASF191
C:\Users\CYMR90~1\AppData\Local\Temp\ccf145Mk.s:25753  .debug_str:0000000000016878 .LASF192
C:\Users\CYMR90~1\AppData\Local\Temp\ccf145Mk.s:24255  .debug_str:0000000000010838 .LASF193
C:\Users\CYMR90~1\AppData\Local\Temp\ccf145Mk.s:21547  .debug_str:00000000000059f2 .LASF194
C:\Users\CYMR90~1\AppData\Local\Temp\ccf145Mk.s:20911  .debug_str:0000000000003167 .LASF195
C:\Users\CYMR90~1\AppData\Local\Temp\ccf145Mk.s:23533  .debug_str:000000000000da8c .LASF196
C:\Users\CYMR90~1\AppData\Local\Temp\ccf145Mk.s:24453  .debug_str:00000000000114a7 .LASF197
C:\Users\CYMR90~1\AppData\Local\Temp\ccf145Mk.s:21403  .debug_str:0000000000005159 .LASF198
C:\Users\CYMR90~1\AppData\Local\Temp\ccf145Mk.s:30126  .debug_str:00000000000280c6 .LASF199
C:\Users\CYMR90~1\AppData\Local\Temp\ccf145Mk.s:28268  .debug_str:0000000000020a5c .LASF200
C:\Users\CYMR90~1\AppData\Local\Temp\ccf145Mk.s:27380  .debug_str:000000000001d393 .LASF201
C:\Users\CYMR90~1\AppData\Local\Temp\ccf145Mk.s:22537  .debug_str:00000000000099b0 .LASF202
C:\Users\CYMR90~1\AppData\Local\Temp\ccf145Mk.s:30574  .debug_str:0000000000029d56 .LASF203
C:\Users\CYMR90~1\AppData\Local\Temp\ccf145Mk.s:20925  .debug_str:0000000000003261 .LASF204
C:\Users\CYMR90~1\AppData\Local\Temp\ccf145Mk.s:23939  .debug_str:000000000000f370 .LASF205
C:\Users\CYMR90~1\AppData\Local\Temp\ccf145Mk.s:30312  .debug_str:0000000000028d86 .LASF206
C:\Users\CYMR90~1\AppData\Local\Temp\ccf145Mk.s:25159  .debug_str:00000000000142e9 .LASF207
C:\Users\CYMR90~1\AppData\Local\Temp\ccf145Mk.s:27934  .debug_str:000000000001f5af .LASF208
C:\Users\CYMR90~1\AppData\Local\Temp\ccf145Mk.s:23171  .debug_str:000000000000c384 .LASF209
C:\Users\CYMR90~1\AppData\Local\Temp\ccf145Mk.s:31234  .debug_str:000000000002c69d .LASF210
C:\Users\CYMR90~1\AppData\Local\Temp\ccf145Mk.s:25129  .debug_str:0000000000014124 .LASF211
C:\Users\CYMR90~1\AppData\Local\Temp\ccf145Mk.s:27776  .debug_str:000000000001ec27 .LASF212
C:\Users\CYMR90~1\AppData\Local\Temp\ccf145Mk.s:26402  .debug_str:00000000000192fc .LASF213
C:\Users\CYMR90~1\AppData\Local\Temp\ccf145Mk.s:21631  .debug_str:0000000000005ec2 .LASF214
C:\Users\CYMR90~1\AppData\Local\Temp\ccf145Mk.s:25137  .debug_str:0000000000014194 .LASF215
C:\Users\CYMR90~1\AppData\Local\Temp\ccf145Mk.s:27086  .debug_str:000000000001bf95 .LASF216
C:\Users\CYMR90~1\AppData\Local\Temp\ccf145Mk.s:28048  .debug_str:000000000001fc71 .LASF217
C:\Users\CYMR90~1\AppData\Local\Temp\ccf145Mk.s:24019  .debug_str:000000000000f91e .LASF218
C:\Users\CYMR90~1\AppData\Local\Temp\ccf145Mk.s:29440  .debug_str:00000000000253ea .LASF219
C:\Users\CYMR90~1\AppData\Local\Temp\ccf145Mk.s:29248  .debug_str:0000000000024647 .LASF220
C:\Users\CYMR90~1\AppData\Local\Temp\ccf145Mk.s:28768  .debug_str:000000000002285e .LASF221
C:\Users\CYMR90~1\AppData\Local\Temp\ccf145Mk.s:25409  .debug_str:000000000001527f .LASF222
C:\Users\CYMR90~1\AppData\Local\Temp\ccf145Mk.s:21601  .debug_str:0000000000005cf9 .LASF223
C:\Users\CYMR90~1\AppData\Local\Temp\ccf145Mk.s:22267  .debug_str:000000000000888c .LASF224
C:\Users\CYMR90~1\AppData\Local\Temp\ccf145Mk.s:30898  .debug_str:000000000002b058 .LASF225
C:\Users\CYMR90~1\AppData\Local\Temp\ccf145Mk.s:23601  .debug_str:000000000000dee2 .LASF226
C:\Users\CYMR90~1\AppData\Local\Temp\ccf145Mk.s:27244  .debug_str:000000000001c9f0 .LASF227
C:\Users\CYMR90~1\AppData\Local\Temp\ccf145Mk.s:27096  .debug_str:000000000001c03b .LASF228
C:\Users\CYMR90~1\AppData\Local\Temp\ccf145Mk.s:23547  .debug_str:000000000000db69 .LASF229
C:\Users\CYMR90~1\AppData\Local\Temp\ccf145Mk.s:27816  .debug_str:000000000001ee69 .LASF230
C:\Users\CYMR90~1\AppData\Local\Temp\ccf145Mk.s:22321  .debug_str:0000000000008c16 .LASF231
C:\Users\CYMR90~1\AppData\Local\Temp\ccf145Mk.s:21643  .debug_str:0000000000005f97 .LASF232
C:\Users\CYMR90~1\AppData\Local\Temp\ccf145Mk.s:22217  .debug_str:000000000000853b .LASF233
C:\Users\CYMR90~1\AppData\Local\Temp\ccf145Mk.s:24215  .debug_str:000000000001054b .LASF234
C:\Users\CYMR90~1\AppData\Local\Temp\ccf145Mk.s:23935  .debug_str:000000000000f328 .LASF235
C:\Users\CYMR90~1\AppData\Local\Temp\ccf145Mk.s:28988  .debug_str:000000000002358a .LASF236
C:\Users\CYMR90~1\AppData\Local\Temp\ccf145Mk.s:23957  .debug_str:000000000000f515 .LASF237
C:\Users\CYMR90~1\AppData\Local\Temp\ccf145Mk.s:29664  .debug_str:0000000000026320 .LASF238
C:\Users\CYMR90~1\AppData\Local\Temp\ccf145Mk.s:28972  .debug_str:000000000002345f .LASF239
C:\Users\CYMR90~1\AppData\Local\Temp\ccf145Mk.s:29212  .debug_str:0000000000024419 .LASF240
C:\Users\CYMR90~1\AppData\Local\Temp\ccf145Mk.s:22035  .debug_str:00000000000078b3 .LASF241
C:\Users\CYMR90~1\AppData\Local\Temp\ccf145Mk.s:23623  .debug_str:000000000000e01a .LASF242
C:\Users\CYMR90~1\AppData\Local\Temp\ccf145Mk.s:24609  .debug_str:0000000000011f66 .LASF243
C:\Users\CYMR90~1\AppData\Local\Temp\ccf145Mk.s:29000  .debug_str:0000000000023634 .LASF244
C:\Users\CYMR90~1\AppData\Local\Temp\ccf145Mk.s:24801  .debug_str:0000000000012bda .LASF245
C:\Users\CYMR90~1\AppData\Local\Temp\ccf145Mk.s:27828  .debug_str:000000000001ef4e .LASF246
C:\Users\CYMR90~1\AppData\Local\Temp\ccf145Mk.s:26170  .debug_str:000000000001835c .LASF247
C:\Users\CYMR90~1\AppData\Local\Temp\ccf145Mk.s:25685  .debug_str:0000000000016389 .LASF248
C:\Users\CYMR90~1\AppData\Local\Temp\ccf145Mk.s:27590  .debug_str:000000000001e130 .LASF249
C:\Users\CYMR90~1\AppData\Local\Temp\ccf145Mk.s:26570  .debug_str:0000000000019dfd .LASF250
C:\Users\CYMR90~1\AppData\Local\Temp\ccf145Mk.s:27116  .debug_str:000000000001c163 .LASF251
C:\Users\CYMR90~1\AppData\Local\Temp\ccf145Mk.s:28818  .debug_str:0000000000022bbb .LASF252
C:\Users\CYMR90~1\AppData\Local\Temp\ccf145Mk.s:23517  .debug_str:000000000000d9c8 .LASF253
C:\Users\CYMR90~1\AppData\Local\Temp\ccf145Mk.s:29512  .debug_str:0000000000025994 .LASF254
C:\Users\CYMR90~1\AppData\Local\Temp\ccf145Mk.s:23383  .debug_str:000000000000d116 .LASF255
C:\Users\CYMR90~1\AppData\Local\Temp\ccf145Mk.s:26476  .debug_str:000000000001983d .LASF256
C:\Users\CYMR90~1\AppData\Local\Temp\ccf145Mk.s:23619  .debug_str:000000000000dfe8 .LASF257
C:\Users\CYMR90~1\AppData\Local\Temp\ccf145Mk.s:27764  .debug_str:000000000001eb58 .LASF258
C:\Users\CYMR90~1\AppData\Local\Temp\ccf145Mk.s:22833  .debug_str:000000000000acb3 .LASF259
C:\Users\CYMR90~1\AppData\Local\Temp\ccf145Mk.s:20269  .debug_str:0000000000000a34 .LASF260
C:\Users\CYMR90~1\AppData\Local\Temp\ccf145Mk.s:30636  .debug_str:000000000002a0d8 .LASF261
C:\Users\CYMR90~1\AppData\Local\Temp\ccf145Mk.s:30106  .debug_str:0000000000027f25 .LASF262
C:\Users\CYMR90~1\AppData\Local\Temp\ccf145Mk.s:25109  .debug_str:0000000000013fa6 .LASF263
C:\Users\CYMR90~1\AppData\Local\Temp\ccf145Mk.s:27070  .debug_str:000000000001bea8 .LASF264
C:\Users\CYMR90~1\AppData\Local\Temp\ccf145Mk.s:24069  .debug_str:000000000000fc47 .LASF265
C:\Users\CYMR90~1\AppData\Local\Temp\ccf145Mk.s:23549  .debug_str:000000000000dbaa .LASF266
C:\Users\CYMR90~1\AppData\Local\Temp\ccf145Mk.s:22885  .debug_str:000000000000b0c1 .LASF267
C:\Users\CYMR90~1\AppData\Local\Temp\ccf145Mk.s:27172  .debug_str:000000000001c47f .LASF268
C:\Users\CYMR90~1\AppData\Local\Temp\ccf145Mk.s:23195  .debug_str:000000000000c517 .LASF269
C:\Users\CYMR90~1\AppData\Local\Temp\ccf145Mk.s:24135  .debug_str:00000000000100a5 .LASF270
C:\Users\CYMR90~1\AppData\Local\Temp\ccf145Mk.s:25383  .debug_str:00000000000150e3 .LASF271
C:\Users\CYMR90~1\AppData\Local\Temp\ccf145Mk.s:29766  .debug_str:0000000000026975 .LASF272
C:\Users\CYMR90~1\AppData\Local\Temp\ccf145Mk.s:21799  .debug_str:000000000000691f .LASF273
C:\Users\CYMR90~1\AppData\Local\Temp\ccf145Mk.s:20721  .debug_str:00000000000024e8 .LASF274
C:\Users\CYMR90~1\AppData\Local\Temp\ccf145Mk.s:21889  .debug_str:0000000000006f26 .LASF275
C:\Users\CYMR90~1\AppData\Local\Temp\ccf145Mk.s:23257  .debug_str:000000000000c97b .LASF276
C:\Users\CYMR90~1\AppData\Local\Temp\ccf145Mk.s:23087  .debug_str:000000000000be3f .LASF277
C:\Users\CYMR90~1\AppData\Local\Temp\ccf145Mk.s:20407  .debug_str:0000000000001286 .LASF278
C:\Users\CYMR90~1\AppData\Local\Temp\ccf145Mk.s:21725  .debug_str:0000000000006469 .LASF279
C:\Users\CYMR90~1\AppData\Local\Temp\ccf145Mk.s:30426  .debug_str:0000000000029468 .LASF280
C:\Users\CYMR90~1\AppData\Local\Temp\ccf145Mk.s:22585  .debug_str:0000000000009c94 .LASF281
C:\Users\CYMR90~1\AppData\Local\Temp\ccf145Mk.s:21691  .debug_str:0000000000006299 .LASF282
C:\Users\CYMR90~1\AppData\Local\Temp\ccf145Mk.s:21595  .debug_str:0000000000005ca9 .LASF283
C:\Users\CYMR90~1\AppData\Local\Temp\ccf145Mk.s:21357  .debug_str:0000000000004eb9 .LASF284
C:\Users\CYMR90~1\AppData\Local\Temp\ccf145Mk.s:29312  .debug_str:0000000000024aa7 .LASF285
C:\Users\CYMR90~1\AppData\Local\Temp\ccf145Mk.s:30138  .debug_str:00000000000281bc .LASF286
C:\Users\CYMR90~1\AppData\Local\Temp\ccf145Mk.s:30412  .debug_str:00000000000293a2 .LASF287
C:\Users\CYMR90~1\AppData\Local\Temp\ccf145Mk.s:30326  .debug_str:0000000000028e3e .LASF288
C:\Users\CYMR90~1\AppData\Local\Temp\ccf145Mk.s:31166  .debug_str:000000000002c230 .LASF289
C:\Users\CYMR90~1\AppData\Local\Temp\ccf145Mk.s:26112  .debug_str:0000000000018007 .LASF290
C:\Users\CYMR90~1\AppData\Local\Temp\ccf145Mk.s:25163  .debug_str:000000000001430f .LASF291
C:\Users\CYMR90~1\AppData\Local\Temp\ccf145Mk.s:29350  .debug_str:0000000000024d19 .LASF292
C:\Users\CYMR90~1\AppData\Local\Temp\ccf145Mk.s:31396  .debug_str:000000000002d144 .LASF293
C:\Users\CYMR90~1\AppData\Local\Temp\ccf145Mk.s:28282  .debug_str:0000000000020b36 .LASF294
C:\Users\CYMR90~1\AppData\Local\Temp\ccf145Mk.s:21277  .debug_str:00000000000049c5 .LASF295
C:\Users\CYMR90~1\AppData\Local\Temp\ccf145Mk.s:30758  .debug_str:000000000002a863 .LASF296
C:\Users\CYMR90~1\AppData\Local\Temp\ccf145Mk.s:30948  .debug_str:000000000002b3bf .LASF297
C:\Users\CYMR90~1\AppData\Local\Temp\ccf145Mk.s:25992  .debug_str:0000000000017901 .LASF298
C:\Users\CYMR90~1\AppData\Local\Temp\ccf145Mk.s:20253  .debug_str:000000000000092e .LASF299
C:\Users\CYMR90~1\AppData\Local\Temp\ccf145Mk.s:24039  .debug_str:000000000000fa5f .LASF300
C:\Users\CYMR90~1\AppData\Local\Temp\ccf145Mk.s:26746  .debug_str:000000000001aa78 .LASF301
C:\Users\CYMR90~1\AppData\Local\Temp\ccf145Mk.s:25269  .debug_str:0000000000014962 .LASF302
C:\Users\CYMR90~1\AppData\Local\Temp\ccf145Mk.s:24747  .debug_str:000000000001287d .LASF303
C:\Users\CYMR90~1\AppData\Local\Temp\ccf145Mk.s:20643  .debug_str:0000000000002063 .LASF304
C:\Users\CYMR90~1\AppData\Local\Temp\ccf145Mk.s:23203  .debug_str:000000000000c59b .LASF305
C:\Users\CYMR90~1\AppData\Local\Temp\ccf145Mk.s:28488  .debug_str:00000000000217da .LASF306
C:\Users\CYMR90~1\AppData\Local\Temp\ccf145Mk.s:24057  .debug_str:000000000000fb8c .LASF307
C:\Users\CYMR90~1\AppData\Local\Temp\ccf145Mk.s:29334  .debug_str:0000000000024c12 .LASF308
C:\Users\CYMR90~1\AppData\Local\Temp\ccf145Mk.s:28938  .debug_str:0000000000023257 .LASF309
C:\Users\CYMR90~1\AppData\Local\Temp\ccf145Mk.s:23603  .debug_str:000000000000defb .LASF310
C:\Users\CYMR90~1\AppData\Local\Temp\ccf145Mk.s:29658  .debug_str:00000000000262c2 .LASF311
C:\Users\CYMR90~1\AppData\Local\Temp\ccf145Mk.s:29164  .debug_str:00000000000240db .LASF312
C:\Users\CYMR90~1\AppData\Local\Temp\ccf145Mk.s:23321  .debug_str:000000000000ccf0 .LASF313
C:\Users\CYMR90~1\AppData\Local\Temp\ccf145Mk.s:26258  .debug_str:00000000000188dd .LASF316
C:\Users\CYMR90~1\AppData\Local\Temp\ccf145Mk.s:26624  .debug_str:000000000001a12d .LASF317
C:\Users\CYMR90~1\AppData\Local\Temp\ccf145Mk.s:26962  .debug_str:000000000001b7f9 .LASF318
C:\Users\CYMR90~1\AppData\Local\Temp\ccf145Mk.s:24047  .debug_str:000000000000fafc .LASF319
C:\Users\CYMR90~1\AppData\Local\Temp\ccf145Mk.s:22953  .debug_str:000000000000b511 .LASF320
C:\Users\CYMR90~1\AppData\Local\Temp\ccf145Mk.s:30374  .debug_str:0000000000029176 .LASF321
C:\Users\CYMR90~1\AppData\Local\Temp\ccf145Mk.s:23515  .debug_str:000000000000d9bb .LASF322
C:\Users\CYMR90~1\AppData\Local\Temp\ccf145Mk.s:29608  .debug_str:0000000000025f6b .LASF323
C:\Users\CYMR90~1\AppData\Local\Temp\ccf145Mk.s:20135  .debug_str:0000000000000229 .LASF324
C:\Users\CYMR90~1\AppData\Local\Temp\ccf145Mk.s:30780  .debug_str:000000000002a998 .LASF325
C:\Users\CYMR90~1\AppData\Local\Temp\ccf145Mk.s:21057  .debug_str:0000000000003aae .LASF326
C:\Users\CYMR90~1\AppData\Local\Temp\ccf145Mk.s:25097  .debug_str:0000000000013ee9 .LASF327
C:\Users\CYMR90~1\AppData\Local\Temp\ccf145Mk.s:24749  .debug_str:0000000000012892 .LASF328
C:\Users\CYMR90~1\AppData\Local\Temp\ccf145Mk.s:27614  .debug_str:000000000001e276 .LASF329
C:\Users\CYMR90~1\AppData\Local\Temp\ccf145Mk.s:27606  .debug_str:000000000001e225 .LASF330
C:\Users\CYMR90~1\AppData\Local\Temp\ccf145Mk.s:29806  .debug_str:0000000000026bdc .LASF331
C:\Users\CYMR90~1\AppData\Local\Temp\ccf145Mk.s:30354  .debug_str:0000000000029024 .LASF332
C:\Users\CYMR90~1\AppData\Local\Temp\ccf145Mk.s:30540  .debug_str:0000000000029b44 .LASF333
C:\Users\CYMR90~1\AppData\Local\Temp\ccf145Mk.s:26598  .debug_str:0000000000019faa .LASF334
C:\Users\CYMR90~1\AppData\Local\Temp\ccf145Mk.s:26036  .debug_str:0000000000017b98 .LASF335
C:\Users\CYMR90~1\AppData\Local\Temp\ccf145Mk.s:30394  .debug_str:00000000000292b6 .LASF336
C:\Users\CYMR90~1\AppData\Local\Temp\ccf145Mk.s:24673  .debug_str:000000000001239d .LASF337
C:\Users\CYMR90~1\AppData\Local\Temp\ccf145Mk.s:28338  .debug_str:0000000000020e6d .LASF338
C:\Users\CYMR90~1\AppData\Local\Temp\ccf145Mk.s:22701  .debug_str:000000000000a3e8 .LASF339
C:\Users\CYMR90~1\AppData\Local\Temp\ccf145Mk.s:24885  .debug_str:000000000001318f .LASF340
C:\Users\CYMR90~1\AppData\Local\Temp\ccf145Mk.s:26798  .debug_str:000000000001ad9f .LASF341
C:\Users\CYMR90~1\AppData\Local\Temp\ccf145Mk.s:23019  .debug_str:000000000000b97e .LASF342
C:\Users\CYMR90~1\AppData\Local\Temp\ccf145Mk.s:20389  .debug_str:00000000000011b2 .LASF343
C:\Users\CYMR90~1\AppData\Local\Temp\ccf145Mk.s:30508  .debug_str:000000000002995f .LASF344
C:\Users\CYMR90~1\AppData\Local\Temp\ccf145Mk.s:31108  .debug_str:000000000002be41 .LASF345
C:\Users\CYMR90~1\AppData\Local\Temp\ccf145Mk.s:23925  .debug_str:000000000000f2a0 .LASF346
C:\Users\CYMR90~1\AppData\Local\Temp\ccf145Mk.s:20241  .debug_str:0000000000000877 .LASF347
C:\Users\CYMR90~1\AppData\Local\Temp\ccf145Mk.s:28132  .debug_str:000000000002018c .LASF348
C:\Users\CYMR90~1\AppData\Local\Temp\ccf145Mk.s:30116  .debug_str:0000000000027ff4 .LASF349
C:\Users\CYMR90~1\AppData\Local\Temp\ccf145Mk.s:27608  .debug_str:000000000001e231 .LASF350
C:\Users\CYMR90~1\AppData\Local\Temp\ccf145Mk.s:20173  .debug_str:0000000000000483 .LASF351
C:\Users\CYMR90~1\AppData\Local\Temp\ccf145Mk.s:27896  .debug_str:000000000001f37a .LASF352
C:\Users\CYMR90~1\AppData\Local\Temp\ccf145Mk.s:29600  .debug_str:0000000000025f01 .LASF353
C:\Users\CYMR90~1\AppData\Local\Temp\ccf145Mk.s:27230  .debug_str:000000000001c93e .LASF354
C:\Users\CYMR90~1\AppData\Local\Temp\ccf145Mk.s:27396  .debug_str:000000000001d49e .LASF355
C:\Users\CYMR90~1\AppData\Local\Temp\ccf145Mk.s:23407  .debug_str:000000000000d33a .LASF356
C:\Users\CYMR90~1\AppData\Local\Temp\ccf145Mk.s:26552  .debug_str:0000000000019d09 .LASF357
C:\Users\CYMR90~1\AppData\Local\Temp\ccf145Mk.s:30028  .debug_str:00000000000279e4 .LASF358
C:\Users\CYMR90~1\AppData\Local\Temp\ccf145Mk.s:24739  .debug_str:00000000000127d2 .LASF359
C:\Users\CYMR90~1\AppData\Local\Temp\ccf145Mk.s:22803  .debug_str:000000000000aaeb .LASF360
C:\Users\CYMR90~1\AppData\Local\Temp\ccf145Mk.s:27778  .debug_str:000000000001ec3f .LASF361
C:\Users\CYMR90~1\AppData\Local\Temp\ccf145Mk.s:24479  .debug_str:000000000001165e .LASF362
C:\Users\CYMR90~1\AppData\Local\Temp\ccf145Mk.s:30294  .debug_str:0000000000028c95 .LASF363
C:\Users\CYMR90~1\AppData\Local\Temp\ccf145Mk.s:22347  .debug_str:0000000000008dd8 .LASF364
C:\Users\CYMR90~1\AppData\Local\Temp\ccf145Mk.s:30188  .debug_str:000000000002859c .LASF365
C:\Users\CYMR90~1\AppData\Local\Temp\ccf145Mk.s:21759  .debug_str:00000000000066de .LASF366
C:\Users\CYMR90~1\AppData\Local\Temp\ccf145Mk.s:24877  .debug_str:00000000000130f1 .LASF367
C:\Users\CYMR90~1\AppData\Local\Temp\ccf145Mk.s:22043  .debug_str:0000000000007931 .LASF368
C:\Users\CYMR90~1\AppData\Local\Temp\ccf145Mk.s:26082  .debug_str:0000000000017e50 .LASF372
C:\Users\CYMR90~1\AppData\Local\Temp\ccf145Mk.s:29848  .debug_str:0000000000026e61 .LASF373
C:\Users\CYMR90~1\AppData\Local\Temp\ccf145Mk.s:22785  .debug_str:000000000000a9d1 .LASF374
C:\Users\CYMR90~1\AppData\Local\Temp\ccf145Mk.s:25872  .debug_str:0000000000017193 .LASF375
C:\Users\CYMR90~1\AppData\Local\Temp\ccf145Mk.s:26068  .debug_str:0000000000017d9e .LASF376
C:\Users\CYMR90~1\AppData\Local\Temp\ccf145Mk.s:28586  .debug_str:0000000000021dba .LASF377
C:\Users\CYMR90~1\AppData\Local\Temp\ccf145Mk.s:27246  .debug_str:000000000001ca09 .LASF378
C:\Users\CYMR90~1\AppData\Local\Temp\ccf145Mk.s:30938  .debug_str:000000000002b327 .LASF379
C:\Users\CYMR90~1\AppData\Local\Temp\ccf145Mk.s:20737  .debug_str:000000000000261f .LASF380
C:\Users\CYMR90~1\AppData\Local\Temp\ccf145Mk.s:30878  .debug_str:000000000002af55 .LASF381
C:\Users\CYMR90~1\AppData\Local\Temp\ccf145Mk.s:26970  .debug_str:000000000001b84a .LASF382
C:\Users\CYMR90~1\AppData\Local\Temp\ccf145Mk.s:21815  .debug_str:0000000000006a2c .LASF383
C:\Users\CYMR90~1\AppData\Local\Temp\ccf145Mk.s:23173  .debug_str:000000000000c39f .LASF384
C:\Users\CYMR90~1\AppData\Local\Temp\ccf145Mk.s:26494  .debug_str:0000000000019971 .LASF385
C:\Users\CYMR90~1\AppData\Local\Temp\ccf145Mk.s:24165  .debug_str:000000000001026f .LASF386
C:\Users\CYMR90~1\AppData\Local\Temp\ccf145Mk.s:20669  .debug_str:0000000000002202 .LASF387
C:\Users\CYMR90~1\AppData\Local\Temp\ccf145Mk.s:23769  .debug_str:000000000000e951 .LASF388
C:\Users\CYMR90~1\AppData\Local\Temp\ccf145Mk.s:22319  .debug_str:0000000000008c02 .LASF389
C:\Users\CYMR90~1\AppData\Local\Temp\ccf145Mk.s:21143  .debug_str:00000000000040ad .LASF391
C:\Users\CYMR90~1\AppData\Local\Temp\ccf145Mk.s:24173  .debug_str:00000000000102db .LASF392
C:\Users\CYMR90~1\AppData\Local\Temp\ccf145Mk.s:28232  .debug_str:000000000002082c .LASF393
C:\Users\CYMR90~1\AppData\Local\Temp\ccf145Mk.s:29986  .debug_str:0000000000027756 .LASF394
C:\Users\CYMR90~1\AppData\Local\Temp\ccf145Mk.s:20695  .debug_str:0000000000002360 .LASF395
C:\Users\CYMR90~1\AppData\Local\Temp\ccf145Mk.s:22827  .debug_str:000000000000ac4f .LASF396
C:\Users\CYMR90~1\AppData\Local\Temp\ccf145Mk.s:21003  .debug_str:0000000000003768 .LASF397
C:\Users\CYMR90~1\AppData\Local\Temp\ccf145Mk.s:30756  .debug_str:000000000002a851 .LASF398
C:\Users\CYMR90~1\AppData\Local\Temp\ccf145Mk.s:25435  .debug_str:00000000000153f9 .LASF399
C:\Users\CYMR90~1\AppData\Local\Temp\ccf145Mk.s:27858  .debug_str:000000000001f119 .LASF400
C:\Users\CYMR90~1\AppData\Local\Temp\ccf145Mk.s:22307  .debug_str:0000000000008aeb .LASF401
C:\Users\CYMR90~1\AppData\Local\Temp\ccf145Mk.s:25926  .debug_str:00000000000174b6 .LASF402
C:\Users\CYMR90~1\AppData\Local\Temp\ccf145Mk.s:21659  .debug_str:0000000000006098 .LASF403
C:\Users\CYMR90~1\AppData\Local\Temp\ccf145Mk.s:22759  .debug_str:000000000000a823 .LASF404
C:\Users\CYMR90~1\AppData\Local\Temp\ccf145Mk.s:23825  .debug_str:000000000000ec76 .LASF405
C:\Users\CYMR90~1\AppData\Local\Temp\ccf145Mk.s:27156  .debug_str:000000000001c39f .LASF406
C:\Users\CYMR90~1\AppData\Local\Temp\ccf145Mk.s:25363  .debug_str:0000000000014fd0 .LASF407
C:\Users\CYMR90~1\AppData\Local\Temp\ccf145Mk.s:26334  .debug_str:0000000000018e18 .LASF408
C:\Users\CYMR90~1\AppData\Local\Temp\ccf145Mk.s:28532  .debug_str:0000000000021a7f .LASF409
C:\Users\CYMR90~1\AppData\Local\Temp\ccf145Mk.s:21613  .debug_str:0000000000005db4 .LASF410
C:\Users\CYMR90~1\AppData\Local\Temp\ccf145Mk.s:25543  .debug_str:0000000000015a37 .LASF411
C:\Users\CYMR90~1\AppData\Local\Temp\ccf145Mk.s:28658  .debug_str:00000000000221ff .LASF412
C:\Users\CYMR90~1\AppData\Local\Temp\ccf145Mk.s:21791  .debug_str:00000000000068bf .LASF413
C:\Users\CYMR90~1\AppData\Local\Temp\ccf145Mk.s:30388  .debug_str:000000000002924f .LASF414
C:\Users\CYMR90~1\AppData\Local\Temp\ccf145Mk.s:23927  .debug_str:000000000000f2ae .LASF415
C:\Users\CYMR90~1\AppData\Local\Temp\ccf145Mk.s:29720  .debug_str:0000000000026682 .LASF416
C:\Users\CYMR90~1\AppData\Local\Temp\ccf145Mk.s:31232  .debug_str:000000000002c692 .LASF417
C:\Users\CYMR90~1\AppData\Local\Temp\ccf145Mk.s:22235  .debug_str:0000000000008664 .LASF418
C:\Users\CYMR90~1\AppData\Local\Temp\ccf145Mk.s:30600  .debug_str:0000000000029ed2 .LASF419
C:\Users\CYMR90~1\AppData\Local\Temp\ccf145Mk.s:21859  .debug_str:0000000000006d22 .LASF420
C:\Users\CYMR90~1\AppData\Local\Temp\ccf145Mk.s:30798  .debug_str:000000000002aa98 .LASF421
C:\Users\CYMR90~1\AppData\Local\Temp\ccf145Mk.s:23101  .debug_str:000000000000bf28 .LASF422
C:\Users\CYMR90~1\AppData\Local\Temp\ccf145Mk.s:23299  .debug_str:000000000000cbc6 .LASF423
C:\Users\CYMR90~1\AppData\Local\Temp\ccf145Mk.s:27758  .debug_str:000000000001eb19 .LASF424
C:\Users\CYMR90~1\AppData\Local\Temp\ccf145Mk.s:26372  .debug_str:0000000000019143 .LASF425
C:\Users\CYMR90~1\AppData\Local\Temp\ccf145Mk.s:20147  .debug_str:00000000000002f2 .LASF426
C:\Users\CYMR90~1\AppData\Local\Temp\ccf145Mk.s:30300  .debug_str:0000000000028cf2 .LASF427
C:\Users\CYMR90~1\AppData\Local\Temp\ccf145Mk.s:25625  .debug_str:0000000000016006 .LASF428
C:\Users\CYMR90~1\AppData\Local\Temp\ccf145Mk.s:27536  .debug_str:000000000001de18 .LASF429
C:\Users\CYMR90~1\AppData\Local\Temp\ccf145Mk.s:24113  .debug_str:000000000000ff2f .LASF430
C:\Users\CYMR90~1\AppData\Local\Temp\ccf145Mk.s:25822  .debug_str:0000000000016ed4 .LASF431
C:\Users\CYMR90~1\AppData\Local\Temp\ccf145Mk.s:28608  .debug_str:0000000000021ee8 .LASF432
C:\Users\CYMR90~1\AppData\Local\Temp\ccf145Mk.s:23283  .debug_str:000000000000cae6 .LASF434
C:\Users\CYMR90~1\AppData\Local\Temp\ccf145Mk.s:21331  .debug_str:0000000000004d1f .LASF435
C:\Users\CYMR90~1\AppData\Local\Temp\ccf145Mk.s:26010  .debug_str:0000000000017a13 .LASF436
C:\Users\CYMR90~1\AppData\Local\Temp\ccf145Mk.s:21877  .debug_str:0000000000006e4b .LASF437
C:\Users\CYMR90~1\AppData\Local\Temp\ccf145Mk.s:30316  .debug_str:0000000000028da9 .LASF438
C:\Users\CYMR90~1\AppData\Local\Temp\ccf145Mk.s:20111  .debug_str:00000000000000c7 .LASF439
C:\Users\CYMR90~1\AppData\Local\Temp\ccf145Mk.s:27794  .debug_str:000000000001ed09 .LASF440
C:\Users\CYMR90~1\AppData\Local\Temp\ccf145Mk.s:23523  .debug_str:000000000000da20 .LASF441
C:\Users\CYMR90~1\AppData\Local\Temp\ccf145Mk.s:28846  .debug_str:0000000000022d49 .LASF442
C:\Users\CYMR90~1\AppData\Local\Temp\ccf145Mk.s:27732  .debug_str:000000000001e9bd .LASF443
C:\Users\CYMR90~1\AppData\Local\Temp\ccf145Mk.s:24245  .debug_str:00000000000107ad .LASF444
C:\Users\CYMR90~1\AppData\Local\Temp\ccf145Mk.s:31226  .debug_str:000000000002c646 .LASF445
C:\Users\CYMR90~1\AppData\Local\Temp\ccf145Mk.s:31164  .debug_str:000000000002c22a .LASF446
C:\Users\CYMR90~1\AppData\Local\Temp\ccf145Mk.s:24595  .debug_str:0000000000011e81 .LASF447
C:\Users\CYMR90~1\AppData\Local\Temp\ccf145Mk.s:28820  .debug_str:0000000000022bcd .LASF448
C:\Users\CYMR90~1\AppData\Local\Temp\ccf145Mk.s:21155  .debug_str:0000000000004165 .LASF449
C:\Users\CYMR90~1\AppData\Local\Temp\ccf145Mk.s:21897  .debug_str:0000000000006fb4 .LASF450
C:\Users\CYMR90~1\AppData\Local\Temp\ccf145Mk.s:20625  .debug_str:0000000000001f81 .LASF451
C:\Users\CYMR90~1\AppData\Local\Temp\ccf145Mk.s:25277  .debug_str:0000000000014a04 .LASF452
C:\Users\CYMR90~1\AppData\Local\Temp\ccf145Mk.s:20615  .debug_str:0000000000001f0e .LASF453
C:\Users\CYMR90~1\AppData\Local\Temp\ccf145Mk.s:31170  .debug_str:000000000002c270 .LASF454
C:\Users\CYMR90~1\AppData\Local\Temp\ccf145Mk.s:23691  .debug_str:000000000000e435 .LASF455
C:\Users\CYMR90~1\AppData\Local\Temp\ccf145Mk.s:28434  .debug_str:0000000000021487 .LASF456
C:\Users\CYMR90~1\AppData\Local\Temp\ccf145Mk.s:23377  .debug_str:000000000000d0d2 .LASF457
C:\Users\CYMR90~1\AppData\Local\Temp\ccf145Mk.s:21671  .debug_str:0000000000006145 .LASF458
C:\Users\CYMR90~1\AppData\Local\Temp\ccf145Mk.s:24315  .debug_str:0000000000010cae .LASF459
C:\Users\CYMR90~1\AppData\Local\Temp\ccf145Mk.s:28184  .debug_str:0000000000020540 .LASF460
C:\Users\CYMR90~1\AppData\Local\Temp\ccf145Mk.s:29338  .debug_str:0000000000024c48 .LASF461
C:\Users\CYMR90~1\AppData\Local\Temp\ccf145Mk.s:25785  .debug_str:0000000000016ad0 .LASF462
C:\Users\CYMR90~1\AppData\Local\Temp\ccf145Mk.s:26654  .debug_str:000000000001a489 .LASF463
C:\Users\CYMR90~1\AppData\Local\Temp\ccf145Mk.s:23539  .debug_str:000000000000daee .LASF464
C:\Users\CYMR90~1\AppData\Local\Temp\ccf145Mk.s:24685  .debug_str:0000000000012460 .LASF465
C:\Users\CYMR90~1\AppData\Local\Temp\ccf145Mk.s:21809  .debug_str:00000000000069e6 .LASF466
C:\Users\CYMR90~1\AppData\Local\Temp\ccf145Mk.s:22365  .debug_str:0000000000008ebb .LASF467
C:\Users\CYMR90~1\AppData\Local\Temp\ccf145Mk.s:24451  .debug_str:0000000000011490 .LASF468
C:\Users\CYMR90~1\AppData\Local\Temp\ccf145Mk.s:20959  .debug_str:0000000000003496 .LASF469
C:\Users\CYMR90~1\AppData\Local\Temp\ccf145Mk.s:24207  .debug_str:00000000000104c6 .LASF470
C:\Users\CYMR90~1\AppData\Local\Temp\ccf145Mk.s:24089  .debug_str:000000000000fda4 .LASF471
C:\Users\CYMR90~1\AppData\Local\Temp\ccf145Mk.s:23665  .debug_str:000000000000e2a9 .LASF472
C:\Users\CYMR90~1\AppData\Local\Temp\ccf145Mk.s:20325  .debug_str:0000000000000d91 .LASF473
C:\Users\CYMR90~1\AppData\Local\Temp\ccf145Mk.s:21925  .debug_str:00000000000071c0 .LASF474
C:\Users\CYMR90~1\AppData\Local\Temp\ccf145Mk.s:20271  .debug_str:0000000000000a72 .LASF475
C:\Users\CYMR90~1\AppData\Local\Temp\ccf145Mk.s:21121  .debug_str:0000000000003ec3 .LASF476
C:\Users\CYMR90~1\AppData\Local\Temp\ccf145Mk.s:20495  .debug_str:00000000000017ee .LASF477
C:\Users\CYMR90~1\AppData\Local\Temp\ccf145Mk.s:25571  .debug_str:0000000000015c46 .LASF478
C:\Users\CYMR90~1\AppData\Local\Temp\ccf145Mk.s:22973  .debug_str:000000000000b68c .LASF479
C:\Users\CYMR90~1\AppData\Local\Temp\ccf145Mk.s:30794  .debug_str:000000000002aa68 .LASF480
C:\Users\CYMR90~1\AppData\Local\Temp\ccf145Mk.s:26164  .debug_str:0000000000018302 .LASF481
C:\Users\CYMR90~1\AppData\Local\Temp\ccf145Mk.s:22895  .debug_str:000000000000b156 .LASF482
C:\Users\CYMR90~1\AppData\Local\Temp\ccf145Mk.s:21711  .debug_str:00000000000063a9 .LASF483
C:\Users\CYMR90~1\AppData\Local\Temp\ccf145Mk.s:20237  .debug_str:0000000000000830 .LASF484
C:\Users\CYMR90~1\AppData\Local\Temp\ccf145Mk.s:26110  .debug_str:0000000000017fe4 .LASF485
C:\Users\CYMR90~1\AppData\Local\Temp\ccf145Mk.s:21343  .debug_str:0000000000004dd6 .LASF486
C:\Users\CYMR90~1\AppData\Local\Temp\ccf145Mk.s:25037  .debug_str:0000000000013b7f .LASF487
C:\Users\CYMR90~1\AppData\Local\Temp\ccf145Mk.s:24231  .debug_str:00000000000106ea .LASF488
C:\Users\CYMR90~1\AppData\Local\Temp\ccf145Mk.s:24805  .debug_str:0000000000012c3c .LASF489
C:\Users\CYMR90~1\AppData\Local\Temp\ccf145Mk.s:23259  .debug_str:000000000000c9bc .LASF490
C:\Users\CYMR90~1\AppData\Local\Temp\ccf145Mk.s:22233  .debug_str:0000000000008656 .LASF491
C:\Users\CYMR90~1\AppData\Local\Temp\ccf145Mk.s:23883  .debug_str:000000000000eff0 .LASF492
C:\Users\CYMR90~1\AppData\Local\Temp\ccf145Mk.s:24197  .debug_str:000000000001044a .LASF493
C:\Users\CYMR90~1\AppData\Local\Temp\ccf145Mk.s:24095  .debug_str:000000000000fe18 .LASF494
C:\Users\CYMR90~1\AppData\Local\Temp\ccf145Mk.s:26362  .debug_str:00000000000190c0 .LASF495
C:\Users\CYMR90~1\AppData\Local\Temp\ccf145Mk.s:31250  .debug_str:000000000002c79f .LASF496
C:\Users\CYMR90~1\AppData\Local\Temp\ccf145Mk.s:31188  .debug_str:000000000002c3d5 .LASF497
C:\Users\CYMR90~1\AppData\Local\Temp\ccf145Mk.s:23931  .debug_str:000000000000f2f5 .LASF498
C:\Users\CYMR90~1\AppData\Local\Temp\ccf145Mk.s:30410  .debug_str:000000000002937d .LASF499
C:\Users\CYMR90~1\AppData\Local\Temp\ccf145Mk.s:30512  .debug_str:0000000000029982 .LASF500
C:\Users\CYMR90~1\AppData\Local\Temp\ccf145Mk.s:25241  .debug_str:00000000000147ca .LASF501
C:\Users\CYMR90~1\AppData\Local\Temp\ccf145Mk.s:30464  .debug_str:00000000000296cb .LASF502
C:\Users\CYMR90~1\AppData\Local\Temp\ccf145Mk.s:25191  .debug_str:000000000001447d .LASF503
C:\Users\CYMR90~1\AppData\Local\Temp\ccf145Mk.s:20821  .debug_str:0000000000002bba .LASF504
C:\Users\CYMR90~1\AppData\Local\Temp\ccf145Mk.s:29100  .debug_str:0000000000023c24 .LASF505
C:\Users\CYMR90~1\AppData\Local\Temp\ccf145Mk.s:29982  .debug_str:000000000002771b .LASF506
C:\Users\CYMR90~1\AppData\Local\Temp\ccf145Mk.s:29554  .debug_str:0000000000025c26 .LASF507
C:\Users\CYMR90~1\AppData\Local\Temp\ccf145Mk.s:26280  .debug_str:0000000000018a36 .LASF508
C:\Users\CYMR90~1\AppData\Local\Temp\ccf145Mk.s:28520  .debug_str:0000000000021983 .LASF509
C:\Users\CYMR90~1\AppData\Local\Temp\ccf145Mk.s:30206  .debug_str:00000000000286e7 .LASF510
C:\Users\CYMR90~1\AppData\Local\Temp\ccf145Mk.s:26056  .debug_str:0000000000017cac .LASF511
C:\Users\CYMR90~1\AppData\Local\Temp\ccf145Mk.s:29836  .debug_str:0000000000026d6c .LASF512
C:\Users\CYMR90~1\AppData\Local\Temp\ccf145Mk.s:29952  .debug_str:000000000002756d .LASF513
C:\Users\CYMR90~1\AppData\Local\Temp\ccf145Mk.s:30392  .debug_str:000000000002927b .LASF514
C:\Users\CYMR90~1\AppData\Local\Temp\ccf145Mk.s:24969  .debug_str:000000000001375d .LASF515
C:\Users\CYMR90~1\AppData\Local\Temp\ccf145Mk.s:30266  .debug_str:0000000000028aee .LASF516
C:\Users\CYMR90~1\AppData\Local\Temp\ccf145Mk.s:26430  .debug_str:00000000000194b0 .LASF517
C:\Users\CYMR90~1\AppData\Local\Temp\ccf145Mk.s:30214  .debug_str:000000000002879b .LASF518
C:\Users\CYMR90~1\AppData\Local\Temp\ccf145Mk.s:27078  .debug_str:000000000001bf10 .LASF519
C:\Users\CYMR90~1\AppData\Local\Temp\ccf145Mk.s:31158  .debug_str:000000000002c1c8 .LASF520
C:\Users\CYMR90~1\AppData\Local\Temp\ccf145Mk.s:27338  .debug_str:000000000001d126 .LASF521
C:\Users\CYMR90~1\AppData\Local\Temp\ccf145Mk.s:29460  .debug_str:000000000002553c .LASF522
C:\Users\CYMR90~1\AppData\Local\Temp\ccf145Mk.s:24849  .debug_str:0000000000012f09 .LASF523
C:\Users\CYMR90~1\AppData\Local\Temp\ccf145Mk.s:29012  .debug_str:000000000002372a .LASF524
C:\Users\CYMR90~1\AppData\Local\Temp\ccf145Mk.s:22445  .debug_str:000000000000936f .LASF525
C:\Users\CYMR90~1\AppData\Local\Temp\ccf145Mk.s:31180  .debug_str:000000000002c2e9 .LASF526
C:\Users\CYMR90~1\AppData\Local\Temp\ccf145Mk.s:23699  .debug_str:000000000000e4b3 .LASF527
C:\Users\CYMR90~1\AppData\Local\Temp\ccf145Mk.s:24709  .debug_str:00000000000125e8 .LASF528
C:\Users\CYMR90~1\AppData\Local\Temp\ccf145Mk.s:25549  .debug_str:0000000000015a9b .LASF529
C:\Users\CYMR90~1\AppData\Local\Temp\ccf145Mk.s:25581  .debug_str:0000000000015cd7 .LASF530
C:\Users\CYMR90~1\AppData\Local\Temp\ccf145Mk.s:24633  .debug_str:0000000000012125 .LASF531
C:\Users\CYMR90~1\AppData\Local\Temp\ccf145Mk.s:20883  .debug_str:0000000000002f64 .LASF532
C:\Users\CYMR90~1\AppData\Local\Temp\ccf145Mk.s:23385  .debug_str:000000000000d12e .LASF533
C:\Users\CYMR90~1\AppData\Local\Temp\ccf145Mk.s:31020  .debug_str:000000000002b848 .LASF534
C:\Users\CYMR90~1\AppData\Local\Temp\ccf145Mk.s:23881  .debug_str:000000000000efa4 .LASF535
C:\Users\CYMR90~1\AppData\Local\Temp\ccf145Mk.s:29200  .debug_str:0000000000024339 .LASF536
C:\Users\CYMR90~1\AppData\Local\Temp\ccf145Mk.s:30670  .debug_str:000000000002a2bf .LASF537
C:\Users\CYMR90~1\AppData\Local\Temp\ccf145Mk.s:24467  .debug_str:000000000001157f .LASF538
C:\Users\CYMR90~1\AppData\Local\Temp\ccf145Mk.s:29382  .debug_str:0000000000024f32 .LASF539
C:\Users\CYMR90~1\AppData\Local\Temp\ccf145Mk.s:27136  .debug_str:000000000001c28d .LASF540
C:\Users\CYMR90~1\AppData\Local\Temp\ccf145Mk.s:28730  .debug_str:000000000002261c .LASF541
C:\Users\CYMR90~1\AppData\Local\Temp\ccf145Mk.s:27428  .debug_str:000000000001d6b3 .LASF542
C:\Users\CYMR90~1\AppData\Local\Temp\ccf145Mk.s:21231  .debug_str:0000000000004655 .LASF543
C:\Users\CYMR90~1\AppData\Local\Temp\ccf145Mk.s:23631  .debug_str:000000000000e082 .LASF544
C:\Users\CYMR90~1\AppData\Local\Temp\ccf145Mk.s:30450  .debug_str:00000000000295e7 .LASF545
C:\Users\CYMR90~1\AppData\Local\Temp\ccf145Mk.s:24979  .debug_str:00000000000137ec .LASF546
C:\Users\CYMR90~1\AppData\Local\Temp\ccf145Mk.s:28712  .debug_str:00000000000224f7 .LASF547
C:\Users\CYMR90~1\AppData\Local\Temp\ccf145Mk.s:30934  .debug_str:000000000002b2f9 .LASF548
C:\Users\CYMR90~1\AppData\Local\Temp\ccf145Mk.s:20933  .debug_str:00000000000032d4 .LASF549
C:\Users\CYMR90~1\AppData\Local\Temp\ccf145Mk.s:22071  .debug_str:0000000000007ac4 .LASF550
C:\Users\CYMR90~1\AppData\Local\Temp\ccf145Mk.s:29728  .debug_str:00000000000266e5 .LASF551
C:\Users\CYMR90~1\AppData\Local\Temp\ccf145Mk.s:21639  .debug_str:0000000000005f4e .LASF552
C:\Users\CYMR90~1\AppData\Local\Temp\ccf145Mk.s:30688  .debug_str:000000000002a3bb .LASF553
C:\Users\CYMR90~1\AppData\Local\Temp\ccf145Mk.s:23049  .debug_str:000000000000bb54 .LASF554
C:\Users\CYMR90~1\AppData\Local\Temp\ccf145Mk.s:23235  .debug_str:000000000000c7f9 .LASF555
C:\Users\CYMR90~1\AppData\Local\Temp\ccf145Mk.s:21757  .debug_str:000000000000668b .LASF556
C:\Users\CYMR90~1\AppData\Local\Temp\ccf145Mk.s:30148  .debug_str:000000000002824d .LASF557
C:\Users\CYMR90~1\AppData\Local\Temp\ccf145Mk.s:24581  .debug_str:0000000000011da6 .LASF558
C:\Users\CYMR90~1\AppData\Local\Temp\ccf145Mk.s:26308  .debug_str:0000000000018c8c .LASF559
C:\Users\CYMR90~1\AppData\Local\Temp\ccf145Mk.s:30256  .debug_str:0000000000028a46 .LASF560
C:\Users\CYMR90~1\AppData\Local\Temp\ccf145Mk.s:23045  .debug_str:000000000000baf0 .LASF561
C:\Users\CYMR90~1\AppData\Local\Temp\ccf145Mk.s:24045  .debug_str:000000000000fab1 .LASF562
C:\Users\CYMR90~1\AppData\Local\Temp\ccf145Mk.s:23427  .debug_str:000000000000d460 .LASF563
C:\Users\CYMR90~1\AppData\Local\Temp\ccf145Mk.s:22743  .debug_str:000000000000a63a .LASF564
C:\Users\CYMR90~1\AppData\Local\Temp\ccf145Mk.s:28460  .debug_str:00000000000215fd .LASF565
C:\Users\CYMR90~1\AppData\Local\Temp\ccf145Mk.s:27674  .debug_str:000000000001e60f .LASF566
C:\Users\CYMR90~1\AppData\Local\Temp\ccf145Mk.s:24577  .debug_str:0000000000011d5e .LASF567
C:\Users\CYMR90~1\AppData\Local\Temp\ccf145Mk.s:21641  .debug_str:0000000000005f62 .LASF568
C:\Users\CYMR90~1\AppData\Local\Temp\ccf145Mk.s:20295  .debug_str:0000000000000c0d .LASF570
C:\Users\CYMR90~1\AppData\Local\Temp\ccf145Mk.s:25942  .debug_str:00000000000175a7 .LASF571
C:\Users\CYMR90~1\AppData\Local\Temp\ccf145Mk.s:27074  .debug_str:000000000001beea .LASF574
C:\Users\CYMR90~1\AppData\Local\Temp\ccf145Mk.s:21199  .debug_str:0000000000004442 .LASF575
C:\Users\CYMR90~1\AppData\Local\Temp\ccf145Mk.s:25197  .debug_str:0000000000014507 .LASF576
C:\Users\CYMR90~1\AppData\Local\Temp\ccf145Mk.s:22163  .debug_str:0000000000008217 .LASF577
C:\Users\CYMR90~1\AppData\Local\Temp\ccf145Mk.s:28362  .debug_str:0000000000020fb3 .LASF579
C:\Users\CYMR90~1\AppData\Local\Temp\ccf145Mk.s:27548  .debug_str:000000000001ded1 .LASF580
C:\Users\CYMR90~1\AppData\Local\Temp\ccf145Mk.s:29098  .debug_str:0000000000023c1b .LASF581
C:\Users\CYMR90~1\AppData\Local\Temp\ccf145Mk.s:21597  .debug_str:0000000000005cc0 .LASF582
C:\Users\CYMR90~1\AppData\Local\Temp\ccf145Mk.s:24191  .debug_str:00000000000103e0 .LASF583
C:\Users\CYMR90~1\AppData\Local\Temp\ccf145Mk.s:20777  .debug_str:00000000000028e9 .LASF584
C:\Users\CYMR90~1\AppData\Local\Temp\ccf145Mk.s:30546  .debug_str:0000000000029ba3 .LASF585
C:\Users\CYMR90~1\AppData\Local\Temp\ccf145Mk.s:28758  .debug_str:00000000000227df .LASF586
C:\Users\CYMR90~1\AppData\Local\Temp\ccf145Mk.s:26958  .debug_str:000000000001b7d7 .LASF587
C:\Users\CYMR90~1\AppData\Local\Temp\ccf145Mk.s:21823  .debug_str:0000000000006ac7 .LASF588
C:\Users\CYMR90~1\AppData\Local\Temp\ccf145Mk.s:26216  .debug_str:0000000000018604 .LASF589
C:\Users\CYMR90~1\AppData\Local\Temp\ccf145Mk.s:26600  .debug_str:0000000000019fb3 .LASF590
C:\Users\CYMR90~1\AppData\Local\Temp\ccf145Mk.s:27420  .debug_str:000000000001d647 .LASF591
C:\Users\CYMR90~1\AppData\Local\Temp\ccf145Mk.s:27212  .debug_str:000000000001c80a .LASF592
C:\Users\CYMR90~1\AppData\Local\Temp\ccf145Mk.s:29086  .debug_str:0000000000023b78 .LASF593
C:\Users\CYMR90~1\AppData\Local\Temp\ccf145Mk.s:24155  .debug_str:00000000000101d5 .LASF594
C:\Users\CYMR90~1\AppData\Local\Temp\ccf145Mk.s:25035  .debug_str:0000000000013b5f .LASF595
C:\Users\CYMR90~1\AppData\Local\Temp\ccf145Mk.s:24763  .debug_str:000000000001297d .LASF596
C:\Users\CYMR90~1\AppData\Local\Temp\ccf145Mk.s:21927  .debug_str:00000000000071df .LASF597
C:\Users\CYMR90~1\AppData\Local\Temp\ccf145Mk.s:30078  .debug_str:0000000000027d92 .LASF598
C:\Users\CYMR90~1\AppData\Local\Temp\ccf145Mk.s:24925  .debug_str:000000000001349a .LASF599
C:\Users\CYMR90~1\AppData\Local\Temp\ccf145Mk.s:27876  .debug_str:000000000001f224 .LASF600
C:\Users\CYMR90~1\AppData\Local\Temp\ccf145Mk.s:27144  .debug_str:000000000001c2f9 .LASF601
C:\Users\CYMR90~1\AppData\Local\Temp\ccf145Mk.s:29562  .debug_str:0000000000025cb9 .LASF602
C:\Users\CYMR90~1\AppData\Local\Temp\ccf145Mk.s:30272  .debug_str:0000000000028b50 .LASF603
C:\Users\CYMR90~1\AppData\Local\Temp\ccf145Mk.s:30164  .debug_str:000000000002841f .LASF604
C:\Users\CYMR90~1\AppData\Local\Temp\ccf145Mk.s:24875  .debug_str:00000000000130d9 .LASF605
C:\Users\CYMR90~1\AppData\Local\Temp\ccf145Mk.s:28898  .debug_str:0000000000023014 .LASF606
C:\Users\CYMR90~1\AppData\Local\Temp\ccf145Mk.s:22515  .debug_str:0000000000009870 .LASF607
C:\Users\CYMR90~1\AppData\Local\Temp\ccf145Mk.s:22027  .debug_str:00000000000077f1 .LASF608
C:\Users\CYMR90~1\AppData\Local\Temp\ccf145Mk.s:22805  .debug_str:000000000000aaf9 .LASF609
C:\Users\CYMR90~1\AppData\Local\Temp\ccf145Mk.s:26994  .debug_str:000000000001b97f .LASF610
C:\Users\CYMR90~1\AppData\Local\Temp\ccf145Mk.s:21565  .debug_str:0000000000005b07 .LASF611
C:\Users\CYMR90~1\AppData\Local\Temp\ccf145Mk.s:28682  .debug_str:0000000000022348 .LASF612
C:\Users\CYMR90~1\AppData\Local\Temp\ccf145Mk.s:25417  .debug_str:00000000000152d8 .LASF613
C:\Users\CYMR90~1\AppData\Local\Temp\ccf145Mk.s:22091  .debug_str:0000000000007cbe .LASF614
C:\Users\CYMR90~1\AppData\Local\Temp\ccf145Mk.s:20197  .debug_str:00000000000005b4 .LASF615
C:\Users\CYMR90~1\AppData\Local\Temp\ccf145Mk.s:25653  .debug_str:000000000001618b .LASF616
C:\Users\CYMR90~1\AppData\Local\Temp\ccf145Mk.s:26636  .debug_str:000000000001a1e9 .LASF617
C:\Users\CYMR90~1\AppData\Local\Temp\ccf145Mk.s:25787  .debug_str:0000000000016adf .LASF618
C:\Users\CYMR90~1\AppData\Local\Temp\ccf145Mk.s:28766  .debug_str:0000000000022844 .LASF619
C:\Users\CYMR90~1\AppData\Local\Temp\ccf145Mk.s:23065  .debug_str:000000000000bcd8 .LASF620
C:\Users\CYMR90~1\AppData\Local\Temp\ccf145Mk.s:21837  .debug_str:0000000000006bb4 .LASF621
C:\Users\CYMR90~1\AppData\Local\Temp\ccf145Mk.s:28958  .debug_str:0000000000023370 .LASF622
C:\Users\CYMR90~1\AppData\Local\Temp\ccf145Mk.s:28060  .debug_str:000000000001fd62 .LASF623
C:\Users\CYMR90~1\AppData\Local\Temp\ccf145Mk.s:30036  .debug_str:0000000000027a59 .LASF624
C:\Users\CYMR90~1\AppData\Local\Temp\ccf145Mk.s:30644  .debug_str:000000000002a15d .LASF625
C:\Users\CYMR90~1\AppData\Local\Temp\ccf145Mk.s:25105  .debug_str:0000000000013f45 .LASF626
C:\Users\CYMR90~1\AppData\Local\Temp\ccf145Mk.s:30900  .debug_str:000000000002b06f .LASF627
C:\Users\CYMR90~1\AppData\Local\Temp\ccf145Mk.s:25507  .debug_str:00000000000157f7 .LASF628
C:\Users\CYMR90~1\AppData\Local\Temp\ccf145Mk.s:28710  .debug_str:00000000000224bf .LASF629
C:\Users\CYMR90~1\AppData\Local\Temp\ccf145Mk.s:22243  .debug_str:0000000000008702 .LASF630
C:\Users\CYMR90~1\AppData\Local\Temp\ccf145Mk.s:23463  .debug_str:000000000000d6ab .LASF631
C:\Users\CYMR90~1\AppData\Local\Temp\ccf145Mk.s:28672  .debug_str:00000000000222a8 .LASF632
C:\Users\CYMR90~1\AppData\Local\Temp\ccf145Mk.s:23179  .debug_str:000000000000c400 .LASF633
C:\Users\CYMR90~1\AppData\Local\Temp\ccf145Mk.s:20705  .debug_str:000000000000241a .LASF634
C:\Users\CYMR90~1\AppData\Local\Temp\ccf145Mk.s:26542  .debug_str:0000000000019c67 .LASF635
C:\Users\CYMR90~1\AppData\Local\Temp\ccf145Mk.s:25709  .debug_str:0000000000016557 .LASF636
C:\Users\CYMR90~1\AppData\Local\Temp\ccf145Mk.s:27308  .debug_str:000000000001cf40 .LASF637
C:\Users\CYMR90~1\AppData\Local\Temp\ccf145Mk.s:20995  .debug_str:00000000000036c1 .LASF638
C:\Users\CYMR90~1\AppData\Local\Temp\ccf145Mk.s:24529  .debug_str:0000000000011a8c .LASF639
C:\Users\CYMR90~1\AppData\Local\Temp\ccf145Mk.s:22103  .debug_str:0000000000007d66 .LASF640
C:\Users\CYMR90~1\AppData\Local\Temp\ccf145Mk.s:24745  .debug_str:0000000000012841 .LASF641
C:\Users\CYMR90~1\AppData\Local\Temp\ccf145Mk.s:22961  .debug_str:000000000000b58b .LASF642
C:\Users\CYMR90~1\AppData\Local\Temp\ccf145Mk.s:30018  .debug_str:000000000002790c .LASF643
C:\Users\CYMR90~1\AppData\Local\Temp\ccf145Mk.s:23339  .debug_str:000000000000ce3f .LASF644
C:\Users\CYMR90~1\AppData\Local\Temp\ccf145Mk.s:21167  .debug_str:00000000000041fd .LASF645
C:\Users\CYMR90~1\AppData\Local\Temp\ccf145Mk.s:21987  .debug_str:0000000000007544 .LASF646
C:\Users\CYMR90~1\AppData\Local\Temp\ccf145Mk.s:20921  .debug_str:0000000000003204 .LASF647
C:\Users\CYMR90~1\AppData\Local\Temp\ccf145Mk.s:21287  .debug_str:0000000000004a4f .LASF648
C:\Users\CYMR90~1\AppData\Local\Temp\ccf145Mk.s:30544  .debug_str:0000000000029b64 .LASF649
C:\Users\CYMR90~1\AppData\Local\Temp\ccf145Mk.s:24447  .debug_str:000000000001141d .LASF650
C:\Users\CYMR90~1\AppData\Local\Temp\ccf145Mk.s:30660  .debug_str:000000000002a237 .LASF651
C:\Users\CYMR90~1\AppData\Local\Temp\ccf145Mk.s:24055  .debug_str:000000000000fb72 .LASF652
C:\Users\CYMR90~1\AppData\Local\Temp\ccf145Mk.s:20177  .debug_str:00000000000004a3 .LASF653
C:\Users\CYMR90~1\AppData\Local\Temp\ccf145Mk.s:30882  .debug_str:000000000002af80 .LASF654
C:\Users\CYMR90~1\AppData\Local\Temp\ccf145Mk.s:22337  .debug_str:0000000000008d42 .LASF655
C:\Users\CYMR90~1\AppData\Local\Temp\ccf145Mk.s:30092  .debug_str:0000000000027e67 .LASF656
C:\Users\CYMR90~1\AppData\Local\Temp\ccf145Mk.s:20231  .debug_str:00000000000007ee .LASF657
C:\Users\CYMR90~1\AppData\Local\Temp\ccf145Mk.s:30710  .debug_str:000000000002a533 .LASF658
C:\Users\CYMR90~1\AppData\Local\Temp\ccf145Mk.s:24843  .debug_str:0000000000012ebb .LASF659
C:\Users\CYMR90~1\AppData\Local\Temp\ccf145Mk.s:27242  .debug_str:000000000001c9dd .LASF660
C:\Users\CYMR90~1\AppData\Local\Temp\ccf145Mk.s:23735  .debug_str:000000000000e72e .LASF661
C:\Users\CYMR90~1\AppData\Local\Temp\ccf145Mk.s:27904  .debug_str:000000000001f3f6 .LASF662
C:\Users\CYMR90~1\AppData\Local\Temp\ccf145Mk.s:29878  .debug_str:000000000002702f .LASF663
C:\Users\CYMR90~1\AppData\Local\Temp\ccf145Mk.s:24425  .debug_str:00000000000112de .LASF664
C:\Users\CYMR90~1\AppData\Local\Temp\ccf145Mk.s:24415  .debug_str:0000000000011261 .LASF665
C:\Users\CYMR90~1\AppData\Local\Temp\ccf145Mk.s:26316  .debug_str:0000000000018d45 .LASF666
C:\Users\CYMR90~1\AppData\Local\Temp\ccf145Mk.s:21577  .debug_str:0000000000005b9f .LASF667
C:\Users\CYMR90~1\AppData\Local\Temp\ccf145Mk.s:31386  .debug_str:000000000002d0b5 .LASF668
C:\Users\CYMR90~1\AppData\Local\Temp\ccf145Mk.s:21951  .debug_str:0000000000007339 .LASF669
C:\Users\CYMR90~1\AppData\Local\Temp\ccf145Mk.s:28554  .debug_str:0000000000021bcd .LASF670
C:\Users\CYMR90~1\AppData\Local\Temp\ccf145Mk.s:24825  .debug_str:0000000000012d98 .LASF671
C:\Users\CYMR90~1\AppData\Local\Temp\ccf145Mk.s:27956  .debug_str:000000000001f6d0 .LASF672
C:\Users\CYMR90~1\AppData\Local\Temp\ccf145Mk.s:28686  .debug_str:0000000000022379 .LASF673
C:\Users\CYMR90~1\AppData\Local\Temp\ccf145Mk.s:20563  .debug_str:0000000000001bf9 .LASF674
C:\Users\CYMR90~1\AppData\Local\Temp\ccf145Mk.s:25493  .debug_str:0000000000015718 .LASF676
C:\Users\CYMR90~1\AppData\Local\Temp\ccf145Mk.s:29116  .debug_str:0000000000023d3b .LASF677
C:\Users\CYMR90~1\AppData\Local\Temp\ccf145Mk.s:26554  .debug_str:0000000000019d15 .LASF678
C:\Users\CYMR90~1\AppData\Local\Temp\ccf145Mk.s:29220  .debug_str:00000000000244a4 .LASF679
C:\Users\CYMR90~1\AppData\Local\Temp\ccf145Mk.s:27670  .debug_str:000000000001e5e3 .LASF680
C:\Users\CYMR90~1\AppData\Local\Temp\ccf145Mk.s:30558  .debug_str:0000000000029c61 .LASF681
C:\Users\CYMR90~1\AppData\Local\Temp\ccf145Mk.s:21169  .debug_str:000000000000423b .LASF682
C:\Users\CYMR90~1\AppData\Local\Temp\ccf145Mk.s:21093  .debug_str:0000000000003cfa .LASF683
C:\Users\CYMR90~1\AppData\Local\Temp\ccf145Mk.s:22473  .debug_str:000000000000956a .LASF684
C:\Users\CYMR90~1\AppData\Local\Temp\ccf145Mk.s:26998  .debug_str:000000000001b9ac .LASF685
C:\Users\CYMR90~1\AppData\Local\Temp\ccf145Mk.s:28418  .debug_str:000000000002137f .LASF686
C:\Users\CYMR90~1\AppData\Local\Temp\ccf145Mk.s:25765  .debug_str:0000000000016910 .LASF687
C:\Users\CYMR90~1\AppData\Local\Temp\ccf145Mk.s:24351  .debug_str:0000000000010e6c .LASF688
C:\Users\CYMR90~1\AppData\Local\Temp\ccf145Mk.s:20977  .debug_str:0000000000003594 .LASF689
C:\Users\CYMR90~1\AppData\Local\Temp\ccf145Mk.s:21843  .debug_str:0000000000006c33 .LASF690
C:\Users\CYMR90~1\AppData\Local\Temp\ccf145Mk.s:24693  .debug_str:00000000000124d4 .LASF691
C:\Users\CYMR90~1\AppData\Local\Temp\ccf145Mk.s:25531  .debug_str:0000000000015961 .LASF692
C:\Users\CYMR90~1\AppData\Local\Temp\ccf145Mk.s:21545  .debug_str:00000000000059e0 .LASF695
C:\Users\CYMR90~1\AppData\Local\Temp\ccf145Mk.s:25940  .debug_str:0000000000017590 .LASF696
C:\Users\CYMR90~1\AppData\Local\Temp\ccf145Mk.s:23367  .debug_str:000000000000d018 .LASF697
C:\Users\CYMR90~1\AppData\Local\Temp\ccf145Mk.s:26968  .debug_str:000000000001b838 .LASF698
C:\Users\CYMR90~1\AppData\Local\Temp\ccf145Mk.s:29156  .debug_str:0000000000023f91 .LASF699
C:\Users\CYMR90~1\AppData\Local\Temp\ccf145Mk.s:25273  .debug_str:0000000000014981 .LASF702
C:\Users\CYMR90~1\AppData\Local\Temp\ccf145Mk.s:22495  .debug_str:00000000000096c1 .LASF703
C:\Users\CYMR90~1\AppData\Local\Temp\ccf145Mk.s:27848  .debug_str:000000000001f089 .LASF704
C:\Users\CYMR90~1\AppData\Local\Temp\ccf145Mk.s:21365  .debug_str:0000000000004f16 .LASF705
C:\Users\CYMR90~1\AppData\Local\Temp\ccf145Mk.s:25593  .debug_str:0000000000015db8 .LASF706
C:\Users\CYMR90~1\AppData\Local\Temp\ccf145Mk.s:23929  .debug_str:000000000000f2cf .LASF707
C:\Users\CYMR90~1\AppData\Local\Temp\ccf145Mk.s:30290  .debug_str:0000000000028c69 .LASF708
C:\Users\CYMR90~1\AppData\Local\Temp\ccf145Mk.s:29530  .debug_str:0000000000025a99 .LASF709
C:\Users\CYMR90~1\AppData\Local\Temp\ccf145Mk.s:23575  .debug_str:000000000000dd70 .LASF710
C:\Users\CYMR90~1\AppData\Local\Temp\ccf145Mk.s:24093  .debug_str:000000000000fde5 .LASF711
C:\Users\CYMR90~1\AppData\Local\Temp\ccf145Mk.s:25739  .debug_str:000000000001671e .LASF712
C:\Users\CYMR90~1\AppData\Local\Temp\ccf145Mk.s:22737  .debug_str:000000000000a5c8 .LASF713
C:\Users\CYMR90~1\AppData\Local\Temp\ccf145Mk.s:31102  .debug_str:000000000002bdc2 .LASF714
C:\Users\CYMR90~1\AppData\Local\Temp\ccf145Mk.s:22087  .debug_str:0000000000007c59 .LASF715
C:\Users\CYMR90~1\AppData\Local\Temp\ccf145Mk.s:23003  .debug_str:000000000000b839 .LASF716
C:\Users\CYMR90~1\AppData\Local\Temp\ccf145Mk.s:28076  .debug_str:000000000001fe80 .LASF717
C:\Users\CYMR90~1\AppData\Local\Temp\ccf145Mk.s:30668  .debug_str:000000000002a2b3 .LASF718
C:\Users\CYMR90~1\AppData\Local\Temp\ccf145Mk.s:29264  .debug_str:0000000000024744 .LASF719
C:\Users\CYMR90~1\AppData\Local\Temp\ccf145Mk.s:26252  .debug_str:000000000001888b .LASF720
C:\Users\CYMR90~1\AppData\Local\Temp\ccf145Mk.s:20619  .debug_str:0000000000001f43 .LASF721
C:\Users\CYMR90~1\AppData\Local\Temp\ccf145Mk.s:28188  .debug_str:0000000000020574 .LASF722
C:\Users\CYMR90~1\AppData\Local\Temp\ccf145Mk.s:27158  .debug_str:000000000001c3af .LASF723
C:\Users\CYMR90~1\AppData\Local\Temp\ccf145Mk.s:27722  .debug_str:000000000001e943 .LASF724
C:\Users\CYMR90~1\AppData\Local\Temp\ccf145Mk.s:28664  .debug_str:0000000000022256 .LASF725
C:\Users\CYMR90~1\AppData\Local\Temp\ccf145Mk.s:24941  .debug_str:0000000000013598 .LASF726
C:\Users\CYMR90~1\AppData\Local\Temp\ccf145Mk.s:22731  .debug_str:000000000000a56e .LASF727
C:\Users\CYMR90~1\AppData\Local\Temp\ccf145Mk.s:29626  .debug_str:00000000000260c2 .LASF728
C:\Users\CYMR90~1\AppData\Local\Temp\ccf145Mk.s:27962  .debug_str:000000000001f74e .LASF729
C:\Users\CYMR90~1\AppData\Local\Temp\ccf145Mk.s:26440  .debug_str:000000000001954b .LASF730
C:\Users\CYMR90~1\AppData\Local\Temp\ccf145Mk.s:24913  .debug_str:00000000000133d2 .LASF731
C:\Users\CYMR90~1\AppData\Local\Temp\ccf145Mk.s:29564  .debug_str:0000000000025cf4 .LASF732
C:\Users\CYMR90~1\AppData\Local\Temp\ccf145Mk.s:31306  .debug_str:000000000002cb78 .LASF733
C:\Users\CYMR90~1\AppData\Local\Temp\ccf145Mk.s:24401  .debug_str:0000000000011176 .LASF734
C:\Users\CYMR90~1\AppData\Local\Temp\ccf145Mk.s:24327  .debug_str:0000000000010d3c .LASF735
C:\Users\CYMR90~1\AppData\Local\Temp\ccf145Mk.s:31236  .debug_str:000000000002c6b3 .LASF736
C:\Users\CYMR90~1\AppData\Local\Temp\ccf145Mk.s:23307  .debug_str:000000000000cc25 .LASF737
C:\Users\CYMR90~1\AppData\Local\Temp\ccf145Mk.s:27306  .debug_str:000000000001cf2f .LASF738
C:\Users\CYMR90~1\AppData\Local\Temp\ccf145Mk.s:30988  .debug_str:000000000002b657 .LASF739
C:\Users\CYMR90~1\AppData\Local\Temp\ccf145Mk.s:20529  .debug_str:00000000000019d2 .LASF740
C:\Users\CYMR90~1\AppData\Local\Temp\ccf145Mk.s:23241  .debug_str:000000000000c869 .LASF741
C:\Users\CYMR90~1\AppData\Local\Temp\ccf145Mk.s:20505  .debug_str:000000000000188f .LASF742
C:\Users\CYMR90~1\AppData\Local\Temp\ccf145Mk.s:24359  .debug_str:0000000000010ec1 .LASF743
C:\Users\CYMR90~1\AppData\Local\Temp\ccf145Mk.s:20963  .debug_str:00000000000034d3 .LASF744
C:\Users\CYMR90~1\AppData\Local\Temp\ccf145Mk.s:22345  .debug_str:0000000000008dc3 .LASF745
C:\Users\CYMR90~1\AppData\Local\Temp\ccf145Mk.s:28676  .debug_str:00000000000222f7 .LASF746
C:\Users\CYMR90~1\AppData\Local\Temp\ccf145Mk.s:20403  .debug_str:0000000000001257 .LASF747
C:\Users\CYMR90~1\AppData\Local\Temp\ccf145Mk.s:20393  .debug_str:00000000000011d5 .LASF748
C:\Users\CYMR90~1\AppData\Local\Temp\ccf145Mk.s:21525  .debug_str:0000000000005867 .LASF750
C:\Users\CYMR90~1\AppData\Local\Temp\ccf145Mk.s:24279  .debug_str:0000000000010982 .LASF751
C:\Users\CYMR90~1\AppData\Local\Temp\ccf145Mk.s:30446  .debug_str:00000000000295a5 .LASF752
C:\Users\CYMR90~1\AppData\Local\Temp\ccf145Mk.s:24213  .debug_str:0000000000010540 .LASF753
C:\Users\CYMR90~1\AppData\Local\Temp\ccf145Mk.s:21409  .debug_str:00000000000051cb .LASF754
C:\Users\CYMR90~1\AppData\Local\Temp\ccf145Mk.s:22985  .debug_str:000000000000b732 .LASF755
C:\Users\CYMR90~1\AppData\Local\Temp\ccf145Mk.s:26518  .debug_str:0000000000019b08 .LASF756
C:\Users\CYMR90~1\AppData\Local\Temp\ccf145Mk.s:22483  .debug_str:0000000000009619 .LASF757
C:\Users\CYMR90~1\AppData\Local\Temp\ccf145Mk.s:29514  .debug_str:00000000000259b1 .LASF758
C:\Users\CYMR90~1\AppData\Local\Temp\ccf145Mk.s:31344  .debug_str:000000000002ce30 .LASF759
C:\Users\CYMR90~1\AppData\Local\Temp\ccf145Mk.s:26886  .debug_str:000000000001b36f .LASF760
C:\Users\CYMR90~1\AppData\Local\Temp\ccf145Mk.s:31084  .debug_str:000000000002bc7c .LASF761
C:\Users\CYMR90~1\AppData\Local\Temp\ccf145Mk.s:22913  .debug_str:000000000000b237 .LASF762
C:\Users\CYMR90~1\AppData\Local\Temp\ccf145Mk.s:26894  .debug_str:000000000001b403 .LASF765
C:\Users\CYMR90~1\AppData\Local\Temp\ccf145Mk.s:25565  .debug_str:0000000000015ba7 .LASF766
C:\Users\CYMR90~1\AppData\Local\Temp\ccf145Mk.s:28564  .debug_str:0000000000021c48 .LASF767
C:\Users\CYMR90~1\AppData\Local\Temp\ccf145Mk.s:25555  .debug_str:0000000000015b34 .LASF768
C:\Users\CYMR90~1\AppData\Local\Temp\ccf145Mk.s:20765  .debug_str:0000000000002828 .LASF769
C:\Users\CYMR90~1\AppData\Local\Temp\ccf145Mk.s:27014  .debug_str:000000000001baef .LASF770
C:\Users\CYMR90~1\AppData\Local\Temp\ccf145Mk.s:25649  .debug_str:0000000000016165 .LASF771
C:\Users\CYMR90~1\AppData\Local\Temp\ccf145Mk.s:29228  .debug_str:0000000000024512 .LASF772
C:\Users\CYMR90~1\AppData\Local\Temp\ccf145Mk.s:28858  .debug_str:0000000000022dec .LASF773
C:\Users\CYMR90~1\AppData\Local\Temp\ccf145Mk.s:23655  .debug_str:000000000000e21f .LASF774
C:\Users\CYMR90~1\AppData\Local\Temp\ccf145Mk.s:29566  .debug_str:0000000000025d0a .LASF775
C:\Users\CYMR90~1\AppData\Local\Temp\ccf145Mk.s:22627  .debug_str:0000000000009f55 .LASF776
C:\Users\CYMR90~1\AppData\Local\Temp\ccf145Mk.s:22643  .debug_str:000000000000a059 .LASF777
C:\Users\CYMR90~1\AppData\Local\Temp\ccf145Mk.s:27660  .debug_str:000000000001e542 .LASF778
C:\Users\CYMR90~1\AppData\Local\Temp\ccf145Mk.s:24157  .debug_str:00000000000101fd .LASF779
C:\Users\CYMR90~1\AppData\Local\Temp\ccf145Mk.s:27912  .debug_str:000000000001f46b .LASF780
C:\Users\CYMR90~1\AppData\Local\Temp\ccf145Mk.s:28560  .debug_str:0000000000021c32 .LASF781
C:\Users\CYMR90~1\AppData\Local\Temp\ccf145Mk.s:24643  .debug_str:00000000000121cc .LASF782
C:\Users\CYMR90~1\AppData\Local\Temp\ccf145Mk.s:25773  .debug_str:0000000000016a33 .LASF783
C:\Users\CYMR90~1\AppData\Local\Temp\ccf145Mk.s:24545  .debug_str:0000000000011b8a .LASF784
C:\Users\CYMR90~1\AppData\Local\Temp\ccf145Mk.s:23833  .debug_str:000000000000ece7 .LASF785
C:\Users\CYMR90~1\AppData\Local\Temp\ccf145Mk.s:28926  .debug_str:000000000002319e .LASF786
C:\Users\CYMR90~1\AppData\Local\Temp\ccf145Mk.s:25287  .debug_str:0000000000014aa6 .LASF787
C:\Users\CYMR90~1\AppData\Local\Temp\ccf145Mk.s:27594  .debug_str:000000000001e16c .LASF788
C:\Users\CYMR90~1\AppData\Local\Temp\ccf145Mk.s:24013  .debug_str:000000000000f8de .LASF789
C:\Users\CYMR90~1\AppData\Local\Temp\ccf145Mk.s:21459  .debug_str:00000000000054d1 .LASF790
C:\Users\CYMR90~1\AppData\Local\Temp\ccf145Mk.s:29922  .debug_str:0000000000027390 .LASF791
C:\Users\CYMR90~1\AppData\Local\Temp\ccf145Mk.s:22207  .debug_str:00000000000084a9 .LASF792
C:\Users\CYMR90~1\AppData\Local\Temp\ccf145Mk.s:31312  .debug_str:000000000002cbc6 .LASF793
C:\Users\CYMR90~1\AppData\Local\Temp\ccf145Mk.s:21999  .debug_str:0000000000007634 .LASF794
C:\Users\CYMR90~1\AppData\Local\Temp\ccf145Mk.s:30170  .debug_str:000000000002847e .LASF795
C:\Users\CYMR90~1\AppData\Local\Temp\ccf145Mk.s:28162  .debug_str:0000000000020380 .LASF796
C:\Users\CYMR90~1\AppData\Local\Temp\ccf145Mk.s:30874  .debug_str:000000000002af2f .LASF797
C:\Users\CYMR90~1\AppData\Local\Temp\ccf145Mk.s:21827  .debug_str:0000000000006b11 .LASF798
C:\Users\CYMR90~1\AppData\Local\Temp\ccf145Mk.s:30230  .debug_str:00000000000288c3 .LASF799
C:\Users\CYMR90~1\AppData\Local\Temp\ccf145Mk.s:21425  .debug_str:00000000000052c2 .LASF800
C:\Users\CYMR90~1\AppData\Local\Temp\ccf145Mk.s:26656  .debug_str:000000000001a496 .LASF801
C:\Users\CYMR90~1\AppData\Local\Temp\ccf145Mk.s:26684  .debug_str:000000000001a639 .LASF802
C:\Users\CYMR90~1\AppData\Local\Temp\ccf145Mk.s:22547  .debug_str:0000000000009a65 .LASF803
C:\Users\CYMR90~1\AppData\Local\Temp\ccf145Mk.s:25043  .debug_str:0000000000013bc5 .LASF804
C:\Users\CYMR90~1\AppData\Local\Temp\ccf145Mk.s:21841  .debug_str:0000000000006bd8 .LASF805
C:\Users\CYMR90~1\AppData\Local\Temp\ccf145Mk.s:24501  .debug_str:0000000000011828 .LASF806
C:\Users\CYMR90~1\AppData\Local\Temp\ccf145Mk.s:27616  .debug_str:000000000001e282 .LASF807
C:\Users\CYMR90~1\AppData\Local\Temp\ccf145Mk.s:27208  .debug_str:000000000001c7ba .LASF808
C:\Users\CYMR90~1\AppData\Local\Temp\ccf145Mk.s:29636  .debug_str:0000000000026159 .LASF809
C:\Users\CYMR90~1\AppData\Local\Temp\ccf145Mk.s:31088  .debug_str:000000000002bcd1 .LASF810
C:\Users\CYMR90~1\AppData\Local\Temp\ccf145Mk.s:22231  .debug_str:000000000000861d .LASF811
C:\Users\CYMR90~1\AppData\Local\Temp\ccf145Mk.s:21151  .debug_str:0000000000004125 .LASF812
C:\Users\CYMR90~1\AppData\Local\Temp\ccf145Mk.s:31122  .debug_str:000000000002bf85 .LASF813
C:\Users\CYMR90~1\AppData\Local\Temp\ccf145Mk.s:21521  .debug_str:0000000000005840 .LASF814
C:\Users\CYMR90~1\AppData\Local\Temp\ccf145Mk.s:21739  .debug_str:0000000000006550 .LASF815
C:\Users\CYMR90~1\AppData\Local\Temp\ccf145Mk.s:26982  .debug_str:000000000001b8d9 .LASF816
C:\Users\CYMR90~1\AppData\Local\Temp\ccf145Mk.s:22409  .debug_str:0000000000009168 .LASF817
C:\Users\CYMR90~1\AppData\Local\Temp\ccf145Mk.s:27124  .debug_str:000000000001c1e9 .LASF818
C:\Users\CYMR90~1\AppData\Local\Temp\ccf145Mk.s:27018  .debug_str:000000000001bb07 .LASF819
C:\Users\CYMR90~1\AppData\Local\Temp\ccf145Mk.s:20273  .debug_str:0000000000000aab .LASF820
C:\Users\CYMR90~1\AppData\Local\Temp\ccf145Mk.s:30712  .debug_str:000000000002a543 .LASF821
C:\Users\CYMR90~1\AppData\Local\Temp\ccf145Mk.s:29224  .debug_str:00000000000244e2 .LASF822
C:\Users\CYMR90~1\AppData\Local\Temp\ccf145Mk.s:22375  .debug_str:0000000000008f4a .LASF823
C:\Users\CYMR90~1\AppData\Local\Temp\ccf145Mk.s:25697  .debug_str:00000000000164b4 .LASF824
C:\Users\CYMR90~1\AppData\Local\Temp\ccf145Mk.s:27310  .debug_str:000000000001cf6a .LASF825
C:\Users\CYMR90~1\AppData\Local\Temp\ccf145Mk.s:25491  .debug_str:00000000000156f7 .LASF826
C:\Users\CYMR90~1\AppData\Local\Temp\ccf145Mk.s:21043  .debug_str:00000000000039e0 .LASF827
C:\Users\CYMR90~1\AppData\Local\Temp\ccf145Mk.s:23813  .debug_str:000000000000ebda .LASF828
C:\Users\CYMR90~1\AppData\Local\Temp\ccf145Mk.s:29332  .debug_str:0000000000024be7 .LASF829
C:\Users\CYMR90~1\AppData\Local\Temp\ccf145Mk.s:29504  .debug_str:00000000000258f1 .LASF830
C:\Users\CYMR90~1\AppData\Local\Temp\ccf145Mk.s:22991  .debug_str:000000000000b78d .LASF831
C:\Users\CYMR90~1\AppData\Local\Temp\ccf145Mk.s:23759  .debug_str:000000000000e8b8 .LASF832
C:\Users\CYMR90~1\AppData\Local\Temp\ccf145Mk.s:21605  .debug_str:0000000000005d2a .LASF833
C:\Users\CYMR90~1\AppData\Local\Temp\ccf145Mk.s:24403  .debug_str:0000000000011187 .LASF834
C:\Users\CYMR90~1\AppData\Local\Temp\ccf145Mk.s:26174  .debug_str:00000000000183c8 .LASF835
C:\Users\CYMR90~1\AppData\Local\Temp\ccf145Mk.s:24309  .debug_str:0000000000010bc9 .LASF836
C:\Users\CYMR90~1\AppData\Local\Temp\ccf145Mk.s:28068  .debug_str:000000000001fe04 .LASF837
C:\Users\CYMR90~1\AppData\Local\Temp\ccf145Mk.s:22279  .debug_str:0000000000008963 .LASF838
C:\Users\CYMR90~1\AppData\Local\Temp\ccf145Mk.s:21447  .debug_str:0000000000005432 .LASF839
C:\Users\CYMR90~1\AppData\Local\Temp\ccf145Mk.s:24203  .debug_str:000000000001048f .LASF840
C:\Users\CYMR90~1\AppData\Local\Temp\ccf145Mk.s:23129  .debug_str:000000000000c0f2 .LASF841
C:\Users\CYMR90~1\AppData\Local\Temp\ccf145Mk.s:27224  .debug_str:000000000001c8d7 .LASF842
C:\Users\CYMR90~1\AppData\Local\Temp\ccf145Mk.s:20347  .debug_str:0000000000000f4b .LASF843
C:\Users\CYMR90~1\AppData\Local\Temp\ccf145Mk.s:20703  .debug_str:000000000000240a .LASF844
C:\Users\CYMR90~1\AppData\Local\Temp\ccf145Mk.s:29078  .debug_str:0000000000023b10 .LASF845
C:\Users\CYMR90~1\AppData\Local\Temp\ccf145Mk.s:20107  .debug_str:0000000000000096 .LASF846
C:\Users\CYMR90~1\AppData\Local\Temp\ccf145Mk.s:22077  .debug_str:0000000000007bcc .LASF847
C:\Users\CYMR90~1\AppData\Local\Temp\ccf145Mk.s:27920  .debug_str:000000000001f4cd .LASF848
C:\Users\CYMR90~1\AppData\Local\Temp\ccf145Mk.s:22045  .debug_str:0000000000007943 .LASF849
C:\Users\CYMR90~1\AppData\Local\Temp\ccf145Mk.s:23423  .debug_str:000000000000d432 .LASF852
C:\Users\CYMR90~1\AppData\Local\Temp\ccf145Mk.s:30284  .debug_str:0000000000028c11 .LASF853
C:\Users\CYMR90~1\AppData\Local\Temp\ccf145Mk.s:25345  .debug_str:0000000000014eb1 .LASF854
C:\Users\CYMR90~1\AppData\Local\Temp\ccf145Mk.s:28570  .debug_str:0000000000021cdd .LASF856
C:\Users\CYMR90~1\AppData\Local\Temp\ccf145Mk.s:27448  .debug_str:000000000001d81b .LASF857
C:\Users\CYMR90~1\AppData\Local\Temp\ccf145Mk.s:30104  .debug_str:0000000000027f1b .LASF858
C:\Users\CYMR90~1\AppData\Local\Temp\ccf145Mk.s:23411  .debug_str:000000000000d363 .LASF859
C:\Users\CYMR90~1\AppData\Local\Temp\ccf145Mk.s:24357  .debug_str:0000000000010eb7 .LASF860
C:\Users\CYMR90~1\AppData\Local\Temp\ccf145Mk.s:28500  .debug_str:000000000002186e .LASF861
C:\Users\CYMR90~1\AppData\Local\Temp\ccf145Mk.s:27652  .debug_str:000000000001e4f2 .LASF862
C:\Users\CYMR90~1\AppData\Local\Temp\ccf145Mk.s:20441  .debug_str:000000000000149b .LASF863
C:\Users\CYMR90~1\AppData\Local\Temp\ccf145Mk.s:21097  .debug_str:0000000000003d28 .LASF864
C:\Users\CYMR90~1\AppData\Local\Temp\ccf145Mk.s:21493  .debug_str:00000000000056cd .LASF865
C:\Users\CYMR90~1\AppData\Local\Temp\ccf145Mk.s:22675  .debug_str:000000000000a270 .LASF866
C:\Users\CYMR90~1\AppData\Local\Temp\ccf145Mk.s:22147  .debug_str:00000000000080f5 .LASF867
C:\Users\CYMR90~1\AppData\Local\Temp\ccf145Mk.s:27376  .debug_str:000000000001d365 .LASF868
C:\Users\CYMR90~1\AppData\Local\Temp\ccf145Mk.s:28008  .debug_str:000000000001fa38 .LASF869
C:\Users\CYMR90~1\AppData\Local\Temp\ccf145Mk.s:29092  .debug_str:0000000000023bd4 .LASF870
C:\Users\CYMR90~1\AppData\Local\Temp\ccf145Mk.s:22317  .debug_str:0000000000008bf6 .LASF871
C:\Users\CYMR90~1\AppData\Local\Temp\ccf145Mk.s:22755  .debug_str:000000000000a801 .LASF872
C:\Users\CYMR90~1\AppData\Local\Temp\ccf145Mk.s:27216  .debug_str:000000000001c856 .LASF873
C:\Users\CYMR90~1\AppData\Local\Temp\ccf145Mk.s:29808  .debug_str:0000000000026be5 .LASF874
C:\Users\CYMR90~1\AppData\Local\Temp\ccf145Mk.s:24565  .debug_str:0000000000011ca2 .LASF875
C:\Users\CYMR90~1\AppData\Local\Temp\ccf145Mk.s:25251  .debug_str:0000000000014884 .LASF876
C:\Users\CYMR90~1\AppData\Local\Temp\ccf145Mk.s:22553  .debug_str:0000000000009aba .LASF877
C:\Users\CYMR90~1\AppData\Local\Temp\ccf145Mk.s:26924  .debug_str:000000000001b5d6 .LASF878
C:\Users\CYMR90~1\AppData\Local\Temp\ccf145Mk.s:24355  .debug_str:0000000000010ea9 .LASF879
C:\Users\CYMR90~1\AppData\Local\Temp\ccf145Mk.s:25886  .debug_str:000000000001725f .LASF880
C:\Users\CYMR90~1\AppData\Local\Temp\ccf145Mk.s:21427  .debug_str:00000000000052db .LASF881
C:\Users\CYMR90~1\AppData\Local\Temp\ccf145Mk.s:24783  .debug_str:0000000000012af5 .LASF882
C:\Users\CYMR90~1\AppData\Local\Temp\ccf145Mk.s:27888  .debug_str:000000000001f30c .LASF883
C:\Users\CYMR90~1\AppData\Local\Temp\ccf145Mk.s:28080  .debug_str:000000000001fead .LASF884
C:\Users\CYMR90~1\AppData\Local\Temp\ccf145Mk.s:31370  .debug_str:000000000002cf93 .LASF885
C:\Users\CYMR90~1\AppData\Local\Temp\ccf145Mk.s:26930  .debug_str:000000000001b62e .LASF886
C:\Users\CYMR90~1\AppData\Local\Temp\ccf145Mk.s:22421  .debug_str:000000000000920f .LASF887
C:\Users\CYMR90~1\AppData\Local\Temp\ccf145Mk.s:29042  .debug_str:000000000002390c .LASF888
C:\Users\CYMR90~1\AppData\Local\Temp\ccf145Mk.s:24719  .debug_str:00000000000126a3 .LASF889
C:\Users\CYMR90~1\AppData\Local\Temp\ccf145Mk.s:28976  .debug_str:0000000000023496 .LASF890
C:\Users\CYMR90~1\AppData\Local\Temp\ccf145Mk.s:21247  .debug_str:0000000000004800 .LASF891
C:\Users\CYMR90~1\AppData\Local\Temp\ccf145Mk.s:23707  .debug_str:000000000000e577 .LASF892
C:\Users\CYMR90~1\AppData\Local\Temp\ccf145Mk.s:29754  .debug_str:00000000000268c1 .LASF893
C:\Users\CYMR90~1\AppData\Local\Temp\ccf145Mk.s:29138  .debug_str:0000000000023e9e .LASF894
C:\Users\CYMR90~1\AppData\Local\Temp\ccf145Mk.s:20415  .debug_str:0000000000001301 .LASF895
C:\Users\CYMR90~1\AppData\Local\Temp\ccf145Mk.s:25107  .debug_str:0000000000013f7d .LASF896
C:\Users\CYMR90~1\AppData\Local\Temp\ccf145Mk.s:21335  .debug_str:0000000000004d4a .LASF897
C:\Users\CYMR90~1\AppData\Local\Temp\ccf145Mk.s:22543  .debug_str:0000000000009a26 .LASF898
C:\Users\CYMR90~1\AppData\Local\Temp\ccf145Mk.s:30048  .debug_str:0000000000027b69 .LASF899
C:\Users\CYMR90~1\AppData\Local\Temp\ccf145Mk.s:22871  .debug_str:000000000000afe2 .LASF900
C:\Users\CYMR90~1\AppData\Local\Temp\ccf145Mk.s:26974  .debug_str:000000000001b86e .LASF901
C:\Users\CYMR90~1\AppData\Local\Temp\ccf145Mk.s:30580  .debug_str:0000000000029dbc .LASF902
C:\Users\CYMR90~1\AppData\Local\Temp\ccf145Mk.s:29330  .debug_str:0000000000024bc1 .LASF903
C:\Users\CYMR90~1\AppData\Local\Temp\ccf145Mk.s:30192  .debug_str:00000000000285e9 .LASF904
C:\Users\CYMR90~1\AppData\Local\Temp\ccf145Mk.s:24767  .debug_str:00000000000129e7 .LASF905
C:\Users\CYMR90~1\AppData\Local\Temp\ccf145Mk.s:22195  .debug_str:0000000000008406 .LASF906
C:\Users\CYMR90~1\AppData\Local\Temp\ccf145Mk.s:27304  .debug_str:000000000001cf13 .LASF907
C:\Users\CYMR90~1\AppData\Local\Temp\ccf145Mk.s:23703  .debug_str:000000000000e534 .LASF908
C:\Users\CYMR90~1\AppData\Local\Temp\ccf145Mk.s:30022  .debug_str:000000000002796c .LASF909
C:\Users\CYMR90~1\AppData\Local\Temp\ccf145Mk.s:24329  .debug_str:0000000000010d4d .LASF910
C:\Users\CYMR90~1\AppData\Local\Temp\ccf145Mk.s:20797  .debug_str:0000000000002a4a .LASF911
C:\Users\CYMR90~1\AppData\Local\Temp\ccf145Mk.s:20387  .debug_str:0000000000001198 .LASF912
C:\Users\CYMR90~1\AppData\Local\Temp\ccf145Mk.s:28420  .debug_str:00000000000213a3 .LASF913
C:\Users\CYMR90~1\AppData\Local\Temp\ccf145Mk.s:29310  .debug_str:0000000000024a7c .LASF914
C:\Users\CYMR90~1\AppData\Local\Temp\ccf145Mk.s:23253  .debug_str:000000000000c93b .LASF915
C:\Users\CYMR90~1\AppData\Local\Temp\ccf145Mk.s:23565  .debug_str:000000000000dccc .LASF916
C:\Users\CYMR90~1\AppData\Local\Temp\ccf145Mk.s:24139  .debug_str:00000000000100cf .LASF917
C:\Users\CYMR90~1\AppData\Local\Temp\ccf145Mk.s:30826  .debug_str:000000000002ac20 .LASF918
C:\Users\CYMR90~1\AppData\Local\Temp\ccf145Mk.s:20373  .debug_str:00000000000010a4 .LASF919
C:\Users\CYMR90~1\AppData\Local\Temp\ccf145Mk.s:22857  .debug_str:000000000000aef7 .LASF920
C:\Users\CYMR90~1\AppData\Local\Temp\ccf145Mk.s:29266  .debug_str:0000000000024759 .LASF921
C:\Users\CYMR90~1\AppData\Local\Temp\ccf145Mk.s:26678  .debug_str:000000000001a5c7 .LASF922
C:\Users\CYMR90~1\AppData\Local\Temp\ccf145Mk.s:29788  .debug_str:0000000000026ab6 .LASF923
C:\Users\CYMR90~1\AppData\Local\Temp\ccf145Mk.s:25812  .debug_str:0000000000016e3a .LASF924
C:\Users\CYMR90~1\AppData\Local\Temp\ccf145Mk.s:20757  .debug_str:0000000000002795 .LASF925
C:\Users\CYMR90~1\AppData\Local\Temp\ccf145Mk.s:26888  .debug_str:000000000001b3a9 .LASF926
C:\Users\CYMR90~1\AppData\Local\Temp\ccf145Mk.s:20483  .debug_str:000000000000171d .LASF927
C:\Users\CYMR90~1\AppData\Local\Temp\ccf145Mk.s:25279  .debug_str:0000000000014a20 .LASF928
C:\Users\CYMR90~1\AppData\Local\Temp\ccf145Mk.s:27952  .debug_str:000000000001f697 .LASF929
C:\Users\CYMR90~1\AppData\Local\Temp\ccf145Mk.s:31086  .debug_str:000000000002bcb4 .LASF930
C:\Users\CYMR90~1\AppData\Local\Temp\ccf145Mk.s:31304  .debug_str:000000000002cb5a .LASF931
C:\Users\CYMR90~1\AppData\Local\Temp\ccf145Mk.s:27850  .debug_str:000000000001f09d .LASF932
C:\Users\CYMR90~1\AppData\Local\Temp\ccf145Mk.s:30560  .debug_str:0000000000029c71 .LASF933
C:\Users\CYMR90~1\AppData\Local\Temp\ccf145Mk.s:25613  .debug_str:0000000000015f40 .LASF934
C:\Users\CYMR90~1\AppData\Local\Temp\ccf145Mk.s:26448  .debug_str:00000000000195c5 .LASF935
C:\Users\CYMR90~1\AppData\Local\Temp\ccf145Mk.s:25495  .debug_str:000000000001572c .LASF936
C:\Users\CYMR90~1\AppData\Local\Temp\ccf145Mk.s:29404  .debug_str:0000000000025104 .LASF937
C:\Users\CYMR90~1\AppData\Local\Temp\ccf145Mk.s:20289  .debug_str:0000000000000bb3 .LASF938
C:\Users\CYMR90~1\AppData\Local\Temp\ccf145Mk.s:28228  .debug_str:00000000000207fd .LASF939
C:\Users\CYMR90~1\AppData\Local\Temp\ccf145Mk.s:29488  .debug_str:0000000000025774 .LASF940
C:\Users\CYMR90~1\AppData\Local\Temp\ccf145Mk.s:22993  .debug_str:000000000000b7ab .LASF941
C:\Users\CYMR90~1\AppData\Local\Temp\ccf145Mk.s:26604  .debug_str:000000000001a00a .LASF942
C:\Users\CYMR90~1\AppData\Local\Temp\ccf145Mk.s:23747  .debug_str:000000000000e7c6 .LASF943
C:\Users\CYMR90~1\AppData\Local\Temp\ccf145Mk.s:29614  .debug_str:0000000000025ffe .LASF944
C:\Users\CYMR90~1\AppData\Local\Temp\ccf145Mk.s:27068  .debug_str:000000000001be90 .LASF945
C:\Users\CYMR90~1\AppData\Local\Temp\ccf145Mk.s:23011  .debug_str:000000000000b914 .LASF946
C:\Users\CYMR90~1\AppData\Local\Temp\ccf145Mk.s:25966  .debug_str:000000000001772a .LASF947
C:\Users\CYMR90~1\AppData\Local\Temp\ccf145Mk.s:27576  .debug_str:000000000001e06c .LASF948
C:\Users\CYMR90~1\AppData\Local\Temp\ccf145Mk.s:24305  .debug_str:0000000000010b8b .LASF949
C:\Users\CYMR90~1\AppData\Local\Temp\ccf145Mk.s:23313  .debug_str:000000000000cc7b .LASF950
C:\Users\CYMR90~1\AppData\Local\Temp\ccf145Mk.s:21903  .debug_str:000000000000701c .LASF952
C:\Users\CYMR90~1\AppData\Local\Temp\ccf145Mk.s:25419  .debug_str:00000000000152ef .LASF953
C:\Users\CYMR90~1\AppData\Local\Temp\ccf145Mk.s:23349  .debug_str:000000000000cef7 .LASF954
C:\Users\CYMR90~1\AppData\Local\Temp\ccf145Mk.s:31296  .debug_str:000000000002cae5 .LASF955
C:\Users\CYMR90~1\AppData\Local\Temp\ccf145Mk.s:30460  .debug_str:000000000002964e .LASF956
C:\Users\CYMR90~1\AppData\Local\Temp\ccf145Mk.s:30550  .debug_str:0000000000029bdb .LASF960
C:\Users\CYMR90~1\AppData\Local\Temp\ccf145Mk.s:22447  .debug_str:00000000000093fb .LASF961
C:\Users\CYMR90~1\AppData\Local\Temp\ccf145Mk.s:29818  .debug_str:0000000000026c7c .LASF962
C:\Users\CYMR90~1\AppData\Local\Temp\ccf145Mk.s:24537  .debug_str:0000000000011b0e .LASF963
C:\Users\CYMR90~1\AppData\Local\Temp\ccf145Mk.s:21929  .debug_str:0000000000007203 .LASF964
C:\Users\CYMR90~1\AppData\Local\Temp\ccf145Mk.s:28602  .debug_str:0000000000021e9e .LASF965
C:\Users\CYMR90~1\AppData\Local\Temp\ccf145Mk.s:26882  .debug_str:000000000001b33d .LASF966
C:\Users\CYMR90~1\AppData\Local\Temp\ccf145Mk.s:29760  .debug_str:000000000002691d .LASF967
C:\Users\CYMR90~1\AppData\Local\Temp\ccf145Mk.s:30868  .debug_str:000000000002aec1 .LASF968
C:\Users\CYMR90~1\AppData\Local\Temp\ccf145Mk.s:21663  .debug_str:00000000000060c7 .LASF969
C:\Users\CYMR90~1\AppData\Local\Temp\ccf145Mk.s:25147  .debug_str:000000000001422f .LASF970
C:\Users\CYMR90~1\AppData\Local\Temp\ccf145Mk.s:30960  .debug_str:000000000002b491 .LASF971
C:\Users\CYMR90~1\AppData\Local\Temp\ccf145Mk.s:23757  .debug_str:000000000000e892 .LASF972
C:\Users\CYMR90~1\AppData\Local\Temp\ccf145Mk.s:23727  .debug_str:000000000000e6aa .LASF973
C:\Users\CYMR90~1\AppData\Local\Temp\ccf145Mk.s:23373  .debug_str:000000000000d063 .LASF974
C:\Users\CYMR90~1\AppData\Local\Temp\ccf145Mk.s:25745  .debug_str:0000000000016798 .LASF975
C:\Users\CYMR90~1\AppData\Local\Temp\ccf145Mk.s:31330  .debug_str:000000000002ccb2 .LASF976
C:\Users\CYMR90~1\AppData\Local\Temp\ccf145Mk.s:23309  .debug_str:000000000000cc36 .LASF977
C:\Users\CYMR90~1\AppData\Local\Temp\ccf145Mk.s:31358  .debug_str:000000000002cf10 .LASF978
C:\Users\CYMR90~1\AppData\Local\Temp\ccf145Mk.s:29596  .debug_str:0000000000025ec5 .LASF979
C:\Users\CYMR90~1\AppData\Local\Temp\ccf145Mk.s:29656  .debug_str:00000000000262ac .LASF980
C:\Users\CYMR90~1\AppData\Local\Temp\ccf145Mk.s:23811  .debug_str:000000000000ebc0 .LASF981
C:\Users\CYMR90~1\AppData\Local\Temp\ccf145Mk.s:21375  .debug_str:0000000000004fc0 .LASF982
C:\Users\CYMR90~1\AppData\Local\Temp\ccf145Mk.s:24561  .debug_str:0000000000011c85 .LASF983
C:\Users\CYMR90~1\AppData\Local\Temp\ccf145Mk.s:27286  .debug_str:000000000001cd60 .LASF984
C:\Users\CYMR90~1\AppData\Local\Temp\ccf145Mk.s:27300  .debug_str:000000000001ce4c .LASF985
C:\Users\CYMR90~1\AppData\Local\Temp\ccf145Mk.s:28890  .debug_str:0000000000022fc2 .LASF986
C:\Users\CYMR90~1\AppData\Local\Temp\ccf145Mk.s:25561  .debug_str:0000000000015b83 .LASF987
C:\Users\CYMR90~1\AppData\Local\Temp\ccf145Mk.s:20815  .debug_str:0000000000002b5d .LASF988
C:\Users\CYMR90~1\AppData\Local\Temp\ccf145Mk.s:28804  .debug_str:0000000000022ae9 .LASF989
C:\Users\CYMR90~1\AppData\Local\Temp\ccf145Mk.s:26266  .debug_str:000000000001894c .LASF990
C:\Users\CYMR90~1\AppData\Local\Temp\ccf145Mk.s:23305  .debug_str:000000000000cc0e .LASF991
C:\Users\CYMR90~1\AppData\Local\Temp\ccf145Mk.s:29762  .debug_str:0000000000026945 .LASF992
C:\Users\CYMR90~1\AppData\Local\Temp\ccf145Mk.s:21947  .debug_str:0000000000007300 .LASF993
C:\Users\CYMR90~1\AppData\Local\Temp\ccf145Mk.s:29576  .debug_str:0000000000025d74 .LASF994
C:\Users\CYMR90~1\AppData\Local\Temp\ccf145Mk.s:26350  .debug_str:0000000000018fff .LASF995
C:\Users\CYMR90~1\AppData\Local\Temp\ccf145Mk.s:30368  .debug_str:0000000000029121 .LASF996
C:\Users\CYMR90~1\AppData\Local\Temp\ccf145Mk.s:27490  .debug_str:000000000001da7e .LASF997
C:\Users\CYMR90~1\AppData\Local\Temp\ccf145Mk.s:27558  .debug_str:000000000001df52 .LASF998
C:\Users\CYMR90~1\AppData\Local\Temp\ccf145Mk.s:20715  .debug_str:00000000000024a8 .LASF999
C:\Users\CYMR90~1\AppData\Local\Temp\ccf145Mk.s:21049  .debug_str:0000000000003a38 .LASF1000
C:\Users\CYMR90~1\AppData\Local\Temp\ccf145Mk.s:29240  .debug_str:00000000000245d0 .LASF1001
C:\Users\CYMR90~1\AppData\Local\Temp\ccf145Mk.s:24147  .debug_str:0000000000010157 .LASF1002
C:\Users\CYMR90~1\AppData\Local\Temp\ccf145Mk.s:21327  .debug_str:0000000000004cf1 .LASF1003
C:\Users\CYMR90~1\AppData\Local\Temp\ccf145Mk.s:27108  .debug_str:000000000001c102 .LASF1004
C:\Users\CYMR90~1\AppData\Local\Temp\ccf145Mk.s:24515  .debug_str:0000000000011929 .LASF1005
C:\Users\CYMR90~1\AppData\Local\Temp\ccf145Mk.s:23269  .debug_str:000000000000ca30 .LASF1006
C:\Users\CYMR90~1\AppData\Local\Temp\ccf145Mk.s:21637  .debug_str:0000000000005f30 .LASF1007
C:\Users\CYMR90~1\AppData\Local\Temp\ccf145Mk.s:28598  .debug_str:0000000000021e66 .LASF1008
C:\Users\CYMR90~1\AppData\Local\Temp\ccf145Mk.s:26042  .debug_str:0000000000017bdc .LASF1009
C:\Users\CYMR90~1\AppData\Local\Temp\ccf145Mk.s:26198  .debug_str:0000000000018510 .LASF1010
C:\Users\CYMR90~1\AppData\Local\Temp\ccf145Mk.s:23581  .debug_str:000000000000ddbe .LASF1011
C:\Users\CYMR90~1\AppData\Local\Temp\ccf145Mk.s:27346  .debug_str:000000000001d1a4 .LASF1012
C:\Users\CYMR90~1\AppData\Local\Temp\ccf145Mk.s:23773  .debug_str:000000000000e985 .LASF1013
C:\Users\CYMR90~1\AppData\Local\Temp\ccf145Mk.s:30894  .debug_str:000000000002b02c .LASF1014
C:\Users\CYMR90~1\AppData\Local\Temp\ccf145Mk.s:21047  .debug_str:0000000000003a22 .LASF1015
C:\Users\CYMR90~1\AppData\Local\Temp\ccf145Mk.s:21529  .debug_str:000000000000589d .LASF1016
C:\Users\CYMR90~1\AppData\Local\Temp\ccf145Mk.s:21483  .debug_str:0000000000005622 .LASF1017
C:\Users\CYMR90~1\AppData\Local\Temp\ccf145Mk.s:29912  .debug_str:0000000000027250 .LASF1018
C:\Users\CYMR90~1\AppData\Local\Temp\ccf145Mk.s:23821  .debug_str:000000000000ec42 .LASF1019
C:\Users\CYMR90~1\AppData\Local\Temp\ccf145Mk.s:20709  .debug_str:000000000000245f .LASF1020
C:\Users\CYMR90~1\AppData\Local\Temp\ccf145Mk.s:26080  .debug_str:0000000000017e33 .LASF1021
C:\Users\CYMR90~1\AppData\Local\Temp\ccf145Mk.s:23127  .debug_str:000000000000c0da .LASF1022
C:\Users\CYMR90~1\AppData\Local\Temp\ccf145Mk.s:29838  .debug_str:0000000000026d97 .LASF1023
C:\Users\CYMR90~1\AppData\Local\Temp\ccf145Mk.s:22357  .debug_str:0000000000008e66 .LASF1024
C:\Users\CYMR90~1\AppData\Local\Temp\ccf145Mk.s:24837  .debug_str:0000000000012e55 .LASF1025
C:\Users\CYMR90~1\AppData\Local\Temp\ccf145Mk.s:24333  .debug_str:0000000000010d8e .LASF1026
C:\Users\CYMR90~1\AppData\Local\Temp\ccf145Mk.s:25271  .debug_str:000000000001496c .LASF1027
C:\Users\CYMR90~1\AppData\Local\Temp\ccf145Mk.s:27426  .debug_str:000000000001d69e .LASF1028
C:\Users\CYMR90~1\AppData\Local\Temp\ccf145Mk.s:27808  .debug_str:000000000001ede9 .LASF1029
C:\Users\CYMR90~1\AppData\Local\Temp\ccf145Mk.s:29110  .debug_str:0000000000023ce9 .LASF1030
C:\Users\CYMR90~1\AppData\Local\Temp\ccf145Mk.s:28182  .debug_str:000000000002052e .LASF1031
C:\Users\CYMR90~1\AppData\Local\Temp\ccf145Mk.s:30462  .debug_str:00000000000296b6 .LASF1032
C:\Users\CYMR90~1\AppData\Local\Temp\ccf145Mk.s:22503  .debug_str:0000000000009798 .LASF1033
C:\Users\CYMR90~1\AppData\Local\Temp\ccf145Mk.s:21383  .debug_str:0000000000005042 .LASF1034
C:\Users\CYMR90~1\AppData\Local\Temp\ccf145Mk.s:26394  .debug_str:0000000000019286 .LASF1035
C:\Users\CYMR90~1\AppData\Local\Temp\ccf145Mk.s:26658  .debug_str:000000000001a4b0 .LASF1036
C:\Users\CYMR90~1\AppData\Local\Temp\ccf145Mk.s:28904  .debug_str:0000000000023059 .LASF1037
C:\Users\CYMR90~1\AppData\Local\Temp\ccf145Mk.s:23993  .debug_str:000000000000f7dd .LASF1038
C:\Users\CYMR90~1\AppData\Local\Temp\ccf145Mk.s:27532  .debug_str:000000000001ddc8 .LASF1039
C:\Users\CYMR90~1\AppData\Local\Temp\ccf145Mk.s:25433  .debug_str:00000000000153e7 .LASF1040
C:\Users\CYMR90~1\AppData\Local\Temp\ccf145Mk.s:23897  .debug_str:000000000000f0cb .LASF1041
C:\Users\CYMR90~1\AppData\Local\Temp\ccf145Mk.s:29646  .debug_str:0000000000026213 .LASF1042
C:\Users\CYMR90~1\AppData\Local\Temp\ccf145Mk.s:24149  .debug_str:000000000001016e .LASF1043
C:\Users\CYMR90~1\AppData\Local\Temp\ccf145Mk.s:20125  .debug_str:0000000000000193 .LASF1044
C:\Users\CYMR90~1\AppData\Local\Temp\ccf145Mk.s:22369  .debug_str:0000000000008ef9 .LASF1045
C:\Users\CYMR90~1\AppData\Local\Temp\ccf145Mk.s:26590  .debug_str:0000000000019f3c .LASF1046
C:\Users\CYMR90~1\AppData\Local\Temp\ccf145Mk.s:25681  .debug_str:0000000000016343 .LASF1047
C:\Users\CYMR90~1\AppData\Local\Temp\ccf145Mk.s:28948  .debug_str:00000000000232de .LASF1048
C:\Users\CYMR90~1\AppData\Local\Temp\ccf145Mk.s:27774  .debug_str:000000000001ec0f .LASF1049
C:\Users\CYMR90~1\AppData\Local\Temp\ccf145Mk.s:20889  .debug_str:0000000000003016 .LASF1050
C:\Users\CYMR90~1\AppData\Local\Temp\ccf145Mk.s:27784  .debug_str:000000000001ec9a .LASF1051
C:\Users\CYMR90~1\AppData\Local\Temp\ccf145Mk.s:27990  .debug_str:000000000001f904 .LASF1052
C:\Users\CYMR90~1\AppData\Local\Temp\ccf145Mk.s:22869  .debug_str:000000000000afd0 .LASF1053
C:\Users\CYMR90~1\AppData\Local\Temp\ccf145Mk.s:28848  .debug_str:0000000000022d63 .LASF1054
C:\Users\CYMR90~1\AppData\Local\Temp\ccf145Mk.s:24811  .debug_str:0000000000012ca5 .LASF1055
C:\Users\CYMR90~1\AppData\Local\Temp\ccf145Mk.s:23753  .debug_str:000000000000e840 .LASF1056
C:\Users\CYMR90~1\AppData\Local\Temp\ccf145Mk.s:30084  .debug_str:0000000000027df2 .LASF1057
C:\Users\CYMR90~1\AppData\Local\Temp\ccf145Mk.s:30674  .debug_str:000000000002a2e4 .LASF1058
C:\Users\CYMR90~1\AppData\Local\Temp\ccf145Mk.s:29402  .debug_str:00000000000250e2 .LASF1059
C:\Users\CYMR90~1\AppData\Local\Temp\ccf145Mk.s:20571  .debug_str:0000000000001c7c .LASF1060
C:\Users\CYMR90~1\AppData\Local\Temp\ccf145Mk.s:22175  .debug_str:00000000000082c3 .LASF1061
C:\Users\CYMR90~1\AppData\Local\Temp\ccf145Mk.s:20255  .debug_str:0000000000000943 .LASF1062
C:\Users\CYMR90~1\AppData\Local\Temp\ccf145Mk.s:25185  .debug_str:0000000000014431 .LASF1063
C:\Users\CYMR90~1\AppData\Local\Temp\ccf145Mk.s:21095  .debug_str:0000000000003d11 .LASF1064
C:\Users\CYMR90~1\AppData\Local\Temp\ccf145Mk.s:20195  .debug_str:000000000000059d .LASF1065
C:\Users\CYMR90~1\AppData\Local\Temp\ccf145Mk.s:31364  .debug_str:000000000002cf59 .LASF1066
C:\Users\CYMR90~1\AppData\Local\Temp\ccf145Mk.s:29242  .debug_str:00000000000245e8 .LASF1067
C:\Users\CYMR90~1\AppData\Local\Temp\ccf145Mk.s:25743  .debug_str:000000000001677e .LASF1068
C:\Users\CYMR90~1\AppData\Local\Temp\ccf145Mk.s:27318  .debug_str:000000000001cfdd .LASF1069
C:\Users\CYMR90~1\AppData\Local\Temp\ccf145Mk.s:20307  .debug_str:0000000000000ca5 .LASF1070
C:\Users\CYMR90~1\AppData\Local\Temp\ccf145Mk.s:22633  .debug_str:0000000000009fa9 .LASF1071
C:\Users\CYMR90~1\AppData\Local\Temp\ccf145Mk.s:28754  .debug_str:00000000000227ae .LASF1072
C:\Users\CYMR90~1\AppData\Local\Temp\ccf145Mk.s:27282  .debug_str:000000000001cd1e .LASF1073
C:\Users\CYMR90~1\AppData\Local\Temp\ccf145Mk.s:30332  .debug_str:0000000000028eb3 .LASF1074
C:\Users\CYMR90~1\AppData\Local\Temp\ccf145Mk.s:25894  .debug_str:00000000000172c0 .LASF1075
C:\Users\CYMR90~1\AppData\Local\Temp\ccf145Mk.s:20751  .debug_str:0000000000002745 .LASF1076
C:\Users\CYMR90~1\AppData\Local\Temp\ccf145Mk.s:30760  .debug_str:000000000002a884 .LASF1077
C:\Users\CYMR90~1\AppData\Local\Temp\ccf145Mk.s:21699  .debug_str:0000000000006300 .LASF1078
C:\Users\CYMR90~1\AppData\Local\Temp\ccf145Mk.s:28226  .debug_str:00000000000207eb .LASF1079
C:\Users\CYMR90~1\AppData\Local\Temp\ccf145Mk.s:23593  .debug_str:000000000000de72 .LASF1080
C:\Users\CYMR90~1\AppData\Local\Temp\ccf145Mk.s:27088  .debug_str:000000000001bfd3 .LASF1081
C:\Users\CYMR90~1\AppData\Local\Temp\ccf145Mk.s:29942  .debug_str:00000000000274d7 .LASF1082
C:\Users\CYMR90~1\AppData\Local\Temp\ccf145Mk.s:25377  .debug_str:00000000000150a4 .LASF1083
C:\Users\CYMR90~1\AppData\Local\Temp\ccf145Mk.s:28442  .debug_str:0000000000021509 .LASF1084
C:\Users\CYMR90~1\AppData\Local\Temp\ccf145Mk.s:21405  .debug_str:0000000000005193 .LASF1085
C:\Users\CYMR90~1\AppData\Local\Temp\ccf145Mk.s:20519  .debug_str:000000000000194a .LASF1086
C:\Users\CYMR90~1\AppData\Local\Temp\ccf145Mk.s:23627  .debug_str:000000000000e057 .LASF1087
C:\Users\CYMR90~1\AppData\Local\Temp\ccf145Mk.s:29654  .debug_str:000000000002629d .LASF1088
C:\Users\CYMR90~1\AppData\Local\Temp\ccf145Mk.s:28748  .debug_str:0000000000022756 .LASF1089
C:\Users\CYMR90~1\AppData\Local\Temp\ccf145Mk.s:20365  .debug_str:000000000000102e .LASF1090
C:\Users\CYMR90~1\AppData\Local\Temp\ccf145Mk.s:31292  .debug_str:000000000002ca8d .LASF1091
C:\Users\CYMR90~1\AppData\Local\Temp\ccf145Mk.s:30046  .debug_str:0000000000027b51 .LASF1092
C:\Users\CYMR90~1\AppData\Local\Temp\ccf145Mk.s:23971  .debug_str:000000000000f5d8 .LASF1093
C:\Users\CYMR90~1\AppData\Local\Temp\ccf145Mk.s:29700  .debug_str:0000000000026535 .LASF1094
C:\Users\CYMR90~1\AppData\Local\Temp\ccf145Mk.s:25449  .debug_str:0000000000015492 .LASF1095
C:\Users\CYMR90~1\AppData\Local\Temp\ccf145Mk.s:26904  .debug_str:000000000001b48f .LASF1096
C:\Users\CYMR90~1\AppData\Local\Temp\ccf145Mk.s:27430  .debug_str:000000000001d6f0 .LASF1097
C:\Users\CYMR90~1\AppData\Local\Temp\ccf145Mk.s:21687  .debug_str:000000000000625b .LASF1098
C:\Users\CYMR90~1\AppData\Local\Temp\ccf145Mk.s:24831  .debug_str:0000000000012ddc .LASF1099
C:\Users\CYMR90~1\AppData\Local\Temp\ccf145Mk.s:24143  .debug_str:0000000000010126 .LASF1100
C:\Users\CYMR90~1\AppData\Local\Temp\ccf145Mk.s:29026  .debug_str:0000000000023810 .LASF1101
C:\Users\CYMR90~1\AppData\Local\Temp\ccf145Mk.s:23319  .debug_str:000000000000ccd5 .LASF1102
C:\Users\CYMR90~1\AppData\Local\Temp\ccf145Mk.s:28692  .debug_str:00000000000223ba .LASF1103
C:\Users\CYMR90~1\AppData\Local\Temp\ccf145Mk.s:30276  .debug_str:0000000000028b9e .LASF1104
C:\Users\CYMR90~1\AppData\Local\Temp\ccf145Mk.s:28114  .debug_str:0000000000020088 .LASF1105
C:\Users\CYMR90~1\AppData\Local\Temp\ccf145Mk.s:25011  .debug_str:00000000000139cc .LASF1106
C:\Users\CYMR90~1\AppData\Local\Temp\ccf145Mk.s:28944  .debug_str:00000000000232a8 .LASF1107
C:\Users\CYMR90~1\AppData\Local\Temp\ccf145Mk.s:26824  .debug_str:000000000001af8b .LASF1108
C:\Users\CYMR90~1\AppData\Local\Temp\ccf145Mk.s:21703  .debug_str:000000000000633c .LASF1109
C:\Users\CYMR90~1\AppData\Local\Temp\ccf145Mk.s:22663  .debug_str:000000000000a182 .LASF1110
C:\Users\CYMR90~1\AppData\Local\Temp\ccf145Mk.s:20583  .debug_str:0000000000001d3f .LASF1111
C:\Users\CYMR90~1\AppData\Local\Temp\ccf145Mk.s:21785  .debug_str:0000000000006868 .LASF1112
C:\Users\CYMR90~1\AppData\Local\Temp\ccf145Mk.s:22893  .debug_str:000000000000b135 .LASF1113
C:\Users\CYMR90~1\AppData\Local\Temp\ccf145Mk.s:21451  .debug_str:000000000000545a .LASF1114
C:\Users\CYMR90~1\AppData\Local\Temp\ccf145Mk.s:22451  .debug_str:0000000000009422 .LASF1115
C:\Users\CYMR90~1\AppData\Local\Temp\ccf145Mk.s:30124  .debug_str:00000000000280ad .LASF1116
C:\Users\CYMR90~1\AppData\Local\Temp\ccf145Mk.s:30624  .debug_str:000000000002a006 .LASF1117
C:\Users\CYMR90~1\AppData\Local\Temp\ccf145Mk.s:21607  .debug_str:0000000000005d54 .LASF1118
C:\Users\CYMR90~1\AppData\Local\Temp\ccf145Mk.s:26058  .debug_str:0000000000017cd8 .LASF1119
C:\Users\CYMR90~1\AppData\Local\Temp\ccf145Mk.s:22145  .debug_str:00000000000080d8 .LASF1120
C:\Users\CYMR90~1\AppData\Local\Temp\ccf145Mk.s:22351  .debug_str:0000000000008e05 .LASF1121
C:\Users\CYMR90~1\AppData\Local\Temp\ccf145Mk.s:24947  .debug_str:00000000000135ea .LASF1122
C:\Users\CYMR90~1\AppData\Local\Temp\ccf145Mk.s:24587  .debug_str:0000000000011e10 .LASF1123
C:\Users\CYMR90~1\AppData\Local\Temp\ccf145Mk.s:28200  .debug_str:000000000002063c .LASF1124
C:\Users\CYMR90~1\AppData\Local\Temp\ccf145Mk.s:25381  .debug_str:00000000000150cd .LASF1125
C:\Users\CYMR90~1\AppData\Local\Temp\ccf145Mk.s:25469  .debug_str:00000000000155cb .LASF1126
C:\Users\CYMR90~1\AppData\Local\Temp\ccf145Mk.s:28838  .debug_str:0000000000022cc5 .LASF1127
C:\Users\CYMR90~1\AppData\Local\Temp\ccf145Mk.s:29940  .debug_str:00000000000274c2 .LASF1128
C:\Users\CYMR90~1\AppData\Local\Temp\ccf145Mk.s:21495  .debug_str:00000000000056da .LASF1129
C:\Users\CYMR90~1\AppData\Local\Temp\ccf145Mk.s:25467  .debug_str:00000000000155b6 .LASF1130
C:\Users\CYMR90~1\AppData\Local\Temp\ccf145Mk.s:30458  .debug_str:0000000000029639 .LASF1131
C:\Users\CYMR90~1\AppData\Local\Temp\ccf145Mk.s:30858  .debug_str:000000000002ae3d .LASF1132
C:\Users\CYMR90~1\AppData\Local\Temp\ccf145Mk.s:26168  .debug_str:0000000000018343 .LASF1133
C:\Users\CYMR90~1\AppData\Local\Temp\ccf145Mk.s:28998  .debug_str:000000000002361e .LASF1134
C:\Users\CYMR90~1\AppData\Local\Temp\ccf145Mk.s:22033  .debug_str:000000000000789d .LASF1135
C:\Users\CYMR90~1\AppData\Local\Temp\ccf145Mk.s:21271  .debug_str:0000000000004973 .LASF1136
C:\Users\CYMR90~1\AppData\Local\Temp\ccf145Mk.s:21099  .debug_str:0000000000003d33 .LASF1137
C:\Users\CYMR90~1\AppData\Local\Temp\ccf145Mk.s:30468  .debug_str:0000000000029715 .LASF1138
C:\Users\CYMR90~1\AppData\Local\Temp\ccf145Mk.s:27562  .debug_str:000000000001df8b .LASF1139
C:\Users\CYMR90~1\AppData\Local\Temp\ccf145Mk.s:30454  .debug_str:000000000002960c .LASF1140
C:\Users\CYMR90~1\AppData\Local\Temp\ccf145Mk.s:20169  .debug_str:000000000000043f .LASF1141
C:\Users\CYMR90~1\AppData\Local\Temp\ccf145Mk.s:24619  .debug_str:000000000001202a .LASF1142
C:\Users\CYMR90~1\AppData\Local\Temp\ccf145Mk.s:23633  .debug_str:000000000000e0ca .LASF1143
C:\Users\CYMR90~1\AppData\Local\Temp\ccf145Mk.s:29994  .debug_str:00000000000277b6 .LASF1144
C:\Users\CYMR90~1\AppData\Local\Temp\ccf145Mk.s:28160  .debug_str:0000000000020366 .LASF1145
C:\Users\CYMR90~1\AppData\Local\Temp\ccf145Mk.s:23161  .debug_str:000000000000c2ee .LASF1146
C:\Users\CYMR90~1\AppData\Local\Temp\ccf145Mk.s:31288  .debug_str:000000000002ca4b .LASF1147
C:\Users\CYMR90~1\AppData\Local\Temp\ccf145Mk.s:25920  .debug_str:000000000001743e .LASF1148
C:\Users\CYMR90~1\AppData\Local\Temp\ccf145Mk.s:26176  .debug_str:00000000000183f0 .LASF1149
C:\Users\CYMR90~1\AppData\Local\Temp\ccf145Mk.s:26922  .debug_str:000000000001b59b .LASF1150
C:\Users\CYMR90~1\AppData\Local\Temp\ccf145Mk.s:20585  .debug_str:0000000000001d5d .LASF1151
C:\Users\CYMR90~1\AppData\Local\Temp\ccf145Mk.s:27336  .debug_str:000000000001d10f .LASF1152
C:\Users\CYMR90~1\AppData\Local\Temp\ccf145Mk.s:22477  .debug_str:000000000000958b .LASF1153
C:\Users\CYMR90~1\AppData\Local\Temp\ccf145Mk.s:28456  .debug_str:00000000000215bb .LASF1154
C:\Users\CYMR90~1\AppData\Local\Temp\ccf145Mk.s:27692  .debug_str:000000000001e784 .LASF1155
C:\Users\CYMR90~1\AppData\Local\Temp\ccf145Mk.s:21387  .debug_str:000000000000506e .LASF1156
C:\Users\CYMR90~1\AppData\Local\Temp\ccf145Mk.s:27526  .debug_str:000000000001dd4d .LASF1157
C:\Users\CYMR90~1\AppData\Local\Temp\ccf145Mk.s:22911  .debug_str:000000000000b225 .LASF1158
C:\Users\CYMR90~1\AppData\Local\Temp\ccf145Mk.s:30642  .debug_str:000000000002a14b .LASF1159
C:\Users\CYMR90~1\AppData\Local\Temp\ccf145Mk.s:20469  .debug_str:0000000000001651 .LASF1160
C:\Users\CYMR90~1\AppData\Local\Temp\ccf145Mk.s:30722  .debug_str:000000000002a622 .LASF1161
C:\Users\CYMR90~1\AppData\Local\Temp\ccf145Mk.s:30408  .debug_str:0000000000029375 .LASF1162
C:\Users\CYMR90~1\AppData\Local\Temp\ccf145Mk.s:27416  .debug_str:000000000001d619 .LASF1163
C:\Users\CYMR90~1\AppData\Local\Temp\ccf145Mk.s:26556  .debug_str:0000000000019d26 .LASF1164
C:\Users\CYMR90~1\AppData\Local\Temp\ccf145Mk.s:23453  .debug_str:000000000000d626 .LASF1165
C:\Users\CYMR90~1\AppData\Local\Temp\ccf145Mk.s:28084  .debug_str:000000000001fee9 .LASF1166
C:\Users\CYMR90~1\AppData\Local\Temp\ccf145Mk.s:24341  .debug_str:0000000000010df7 .LASF1167
C:\Users\CYMR90~1\AppData\Local\Temp\ccf145Mk.s:22475  .debug_str:0000000000009581 .LASF1168
C:\Users\CYMR90~1\AppData\Local\Temp\ccf145Mk.s:25411  .debug_str:0000000000015290 .LASF1169
C:\Users\CYMR90~1\AppData\Local\Temp\ccf145Mk.s:26764  .debug_str:000000000001ab93 .LASF1170
C:\Users\CYMR90~1\AppData\Local\Temp\ccf145Mk.s:26470  .debug_str:0000000000019781 .LASF1171
C:\Users\CYMR90~1\AppData\Local\Temp\ccf145Mk.s:20219  .debug_str:000000000000072e .LASF1172
C:\Users\CYMR90~1\AppData\Local\Temp\ccf145Mk.s:25691  .debug_str:00000000000163cc .LASF1173
C:\Users\CYMR90~1\AppData\Local\Temp\ccf145Mk.s:20287  .debug_str:0000000000000ba5 .LASF1174
C:\Users\CYMR90~1\AppData\Local\Temp\ccf145Mk.s:20689  .debug_str:0000000000002316 .LASF1175
C:\Users\CYMR90~1\AppData\Local\Temp\ccf145Mk.s:24917  .debug_str:0000000000013425 .LASF1176
C:\Users\CYMR90~1\AppData\Local\Temp\ccf145Mk.s:23265  .debug_str:000000000000ca00 .LASF1177
C:\Users\CYMR90~1\AppData\Local\Temp\ccf145Mk.s:27476  .debug_str:000000000001d9d7 .LASF1178
C:\Users\CYMR90~1\AppData\Local\Temp\ccf145Mk.s:23865  .debug_str:000000000000eeb5 .LASF1179
C:\Users\CYMR90~1\AppData\Local\Temp\ccf145Mk.s:23441  .debug_str:000000000000d594 .LASF1180
C:\Users\CYMR90~1\AppData\Local\Temp\ccf145Mk.s:29204  .debug_str:00000000000243a0 .LASF1181
C:\Users\CYMR90~1\AppData\Local\Temp\ccf145Mk.s:30414  .debug_str:00000000000293c0 .LASF1182
C:\Users\CYMR90~1\AppData\Local\Temp\ccf145Mk.s:20853  .debug_str:0000000000002dac .LASF1183
C:\Users\CYMR90~1\AppData\Local\Temp\ccf145Mk.s:27796  .debug_str:000000000001ed1e .LASF1184
C:\Users\CYMR90~1\AppData\Local\Temp\ccf145Mk.s:28256  .debug_str:000000000002098f .LASF1185
C:\Users\CYMR90~1\AppData\Local\Temp\ccf145Mk.s:29442  .debug_str:0000000000025403 .LASF1186
C:\Users\CYMR90~1\AppData\Local\Temp\ccf145Mk.s:23371  .debug_str:000000000000d04f .LASF1187
C:\Users\CYMR90~1\AppData\Local\Temp\ccf145Mk.s:21505  .debug_str:0000000000005736 .LASF1188
C:\Users\CYMR90~1\AppData\Local\Temp\ccf145Mk.s:28802  .debug_str:0000000000022ad5 .LASF1189
C:\Users\CYMR90~1\AppData\Local\Temp\ccf145Mk.s:22037  .debug_str:00000000000078ce .LASF1190
C:\Users\CYMR90~1\AppData\Local\Temp\ccf145Mk.s:28782  .debug_str:0000000000022941 .LASF1191
C:\Users\CYMR90~1\AppData\Local\Temp\ccf145Mk.s:23239  .debug_str:000000000000c857 .LASF1192
C:\Users\CYMR90~1\AppData\Local\Temp\ccf145Mk.s:28444  .debug_str:000000000002151b .LASF1193
C:\Users\CYMR90~1\AppData\Local\Temp\ccf145Mk.s:23485  .debug_str:000000000000d7ec .LASF1194
C:\Users\CYMR90~1\AppData\Local\Temp\ccf145Mk.s:27016  .debug_str:000000000001bafc .LASF1195
C:\Users\CYMR90~1\AppData\Local\Temp\ccf145Mk.s:25063  .debug_str:0000000000013ce4 .LASF1196
C:\Users\CYMR90~1\AppData\Local\Temp\ccf145Mk.s:28478  .debug_str:0000000000021738 .LASF1197
C:\Users\CYMR90~1\AppData\Local\Temp\ccf145Mk.s:30666  .debug_str:000000000002a2a4 .LASF1198
C:\Users\CYMR90~1\AppData\Local\Temp\ccf145Mk.s:25713  .debug_str:00000000000165a1 .LASF1199
C:\Users\CYMR90~1\AppData\Local\Temp\ccf145Mk.s:30672  .debug_str:000000000002a2d9 .LASF1200
C:\Users\CYMR90~1\AppData\Local\Temp\ccf145Mk.s:22729  .debug_str:000000000000a562 .LASF1201
C:\Users\CYMR90~1\AppData\Local\Temp\ccf145Mk.s:22385  .debug_str:0000000000009009 .LASF1202
C:\Users\CYMR90~1\AppData\Local\Temp\ccf145Mk.s:25908  .debug_str:000000000001739d .LASF1203
C:\Users\CYMR90~1\AppData\Local\Temp\ccf145Mk.s:29774  .debug_str:00000000000269ee .LASF1204
C:\Users\CYMR90~1\AppData\Local\Temp\ccf145Mk.s:24973  .debug_str:00000000000137aa .LASF1205
C:\Users\CYMR90~1\AppData\Local\Temp\ccf145Mk.s:24037  .debug_str:000000000000fa53 .LASF1206
C:\Users\CYMR90~1\AppData\Local\Temp\ccf145Mk.s:30638  .debug_str:000000000002a119 .LASF1207
C:\Users\CYMR90~1\AppData\Local\Temp\ccf145Mk.s:29292  .debug_str:0000000000024967 .LASF1208
C:\Users\CYMR90~1\AppData\Local\Temp\ccf145Mk.s:23963  .debug_str:000000000000f57b .LASF1209
C:\Users\CYMR90~1\AppData\Local\Temp\ccf145Mk.s:21399  .debug_str:000000000000512b .LASF1210
C:\Users\CYMR90~1\AppData\Local\Temp\ccf145Mk.s:21497  .debug_str:00000000000056f0 .LASF1211
C:\Users\CYMR90~1\AppData\Local\Temp\ccf145Mk.s:22179  .debug_str:0000000000008307 .LASF1212
C:\Users\CYMR90~1\AppData\Local\Temp\ccf145Mk.s:21779  .debug_str:00000000000067e8 .LASF1213
C:\Users\CYMR90~1\AppData\Local\Temp\ccf145Mk.s:20699  .debug_str:00000000000023d2 .LASF1214
C:\Users\CYMR90~1\AppData\Local\Temp\ccf145Mk.s:22519  .debug_str:00000000000098b2 .LASF1215
C:\Users\CYMR90~1\AppData\Local\Temp\ccf145Mk.s:31258  .debug_str:000000000002c846 .LASF1216
C:\Users\CYMR90~1\AppData\Local\Temp\ccf145Mk.s:28900  .debug_str:000000000002302c .LASF1217
C:\Users\CYMR90~1\AppData\Local\Temp\ccf145Mk.s:28914  .debug_str:00000000000230e0 .LASF1218
C:\Users\CYMR90~1\AppData\Local\Temp\ccf145Mk.s:29348  .debug_str:0000000000024d09 .LASF1219
C:\Users\CYMR90~1\AppData\Local\Temp\ccf145Mk.s:26908  .debug_str:000000000001b4c3 .LASF1220
C:\Users\CYMR90~1\AppData\Local\Temp\ccf145Mk.s:23525  .debug_str:000000000000da35 .LASF1221
C:\Users\CYMR90~1\AppData\Local\Temp\ccf145Mk.s:25235  .debug_str:0000000000014778 .LASF1222
C:\Users\CYMR90~1\AppData\Local\Temp\ccf145Mk.s:20871  .debug_str:0000000000002ecf .LASF1223
C:\Users\CYMR90~1\AppData\Local\Temp\ccf145Mk.s:26652  .debug_str:000000000001a47a .LASF1224
C:\Users\CYMR90~1\AppData\Local\Temp\ccf145Mk.s:29956  .debug_str:00000000000275af .LASF1225
C:\Users\CYMR90~1\AppData\Local\Temp\ccf145Mk.s:22999  .debug_str:000000000000b806 .LASF1226
C:\Users\CYMR90~1\AppData\Local\Temp\ccf145Mk.s:21919  .debug_str:0000000000007159 .LASF1227
C:\Users\CYMR90~1\AppData\Local\Temp\ccf145Mk.s:20971  .debug_str:0000000000003544 .LASF1228
C:\Users\CYMR90~1\AppData\Local\Temp\ccf145Mk.s:31348  .debug_str:000000000002ce75 .LASF1229
C:\Users\CYMR90~1\AppData\Local\Temp\ccf145Mk.s:30390  .debug_str:0000000000029265 .LASF1230
C:\Users\CYMR90~1\AppData\Local\Temp\ccf145Mk.s:29410  .debug_str:0000000000025159 .LASF1231
C:\Users\CYMR90~1\AppData\Local\Temp\ccf145Mk.s:28432  .debug_str:0000000000021471 .LASF1232
C:\Users\CYMR90~1\AppData\Local\Temp\ccf145Mk.s:28316  .debug_str:0000000000020d3e .LASF1233
C:\Users\CYMR90~1\AppData\Local\Temp\ccf145Mk.s:27354  .debug_str:000000000001d207 .LASF1234
C:\Users\CYMR90~1\AppData\Local\Temp\ccf145Mk.s:26424  .debug_str:000000000001946f .LASF1235
C:\Users\CYMR90~1\AppData\Local\Temp\ccf145Mk.s:25131  .debug_str:000000000001413c .LASF1236
C:\Users\CYMR90~1\AppData\Local\Temp\ccf145Mk.s:24505  .debug_str:00000000000118a9 .LASF1237
C:\Users\CYMR90~1\AppData\Local\Temp\ccf145Mk.s:25804  .debug_str:0000000000016db5 .LASF1238
C:\Users\CYMR90~1\AppData\Local\Temp\ccf145Mk.s:22593  .debug_str:0000000000009d08 .LASF1239
C:\Users\CYMR90~1\AppData\Local\Temp\ccf145Mk.s:21603  .debug_str:0000000000005d13 .LASF1240
C:\Users\CYMR90~1\AppData\Local\Temp\ccf145Mk.s:20657  .debug_str:0000000000002139 .LASF1241
C:\Users\CYMR90~1\AppData\Local\Temp\ccf145Mk.s:31058  .debug_str:000000000002bb10 .LASF1242
C:\Users\CYMR90~1\AppData\Local\Temp\ccf145Mk.s:20183  .debug_str:00000000000004f3 .LASF1243
C:\Users\CYMR90~1\AppData\Local\Temp\ccf145Mk.s:30534  .debug_str:0000000000029af0 .LASF1244
C:\Users\CYMR90~1\AppData\Local\Temp\ccf145Mk.s:29556  .debug_str:0000000000025c50 .LASF1245
C:\Users\CYMR90~1\AppData\Local\Temp\ccf145Mk.s:28588  .debug_str:0000000000021dd1 .LASF1246
C:\Users\CYMR90~1\AppData\Local\Temp\ccf145Mk.s:27600  .debug_str:000000000001e1b4 .LASF1247
C:\Users\CYMR90~1\AppData\Local\Temp\ccf145Mk.s:26708  .debug_str:000000000001a81a .LASF1248
C:\Users\CYMR90~1\AppData\Local\Temp\ccf145Mk.s:25757  .debug_str:000000000001689f .LASF1249
C:\Users\CYMR90~1\AppData\Local\Temp\ccf145Mk.s:25924  .debug_str:000000000001749f .LASF1250
C:\Users\CYMR90~1\AppData\Local\Temp\ccf145Mk.s:23871  .debug_str:000000000000ef03 .LASF1251
C:\Users\CYMR90~1\AppData\Local\Temp\ccf145Mk.s:26020  .debug_str:0000000000017ab5 .LASF1252
C:\Users\CYMR90~1\AppData\Local\Temp\ccf145Mk.s:23381  .debug_str:000000000000d0ff .LASF1253
C:\Users\CYMR90~1\AppData\Local\Temp\ccf145Mk.s:22399  .debug_str:00000000000090d8 .LASF1254
C:\Users\CYMR90~1\AppData\Local\Temp\ccf145Mk.s:20429  .debug_str:00000000000013f3 .LASF1255
C:\Users\CYMR90~1\AppData\Local\Temp\ccf145Mk.s:23297  .debug_str:000000000000cbb8 .LASF1256
C:\Users\CYMR90~1\AppData\Local\Temp\ccf145Mk.s:21559  .debug_str:0000000000005abc .LASF1257
C:\Users\CYMR90~1\AppData\Local\Temp\ccf145Mk.s:26294  .debug_str:0000000000018bcb .LASF1258
C:\Users\CYMR90~1\AppData\Local\Temp\ccf145Mk.s:26296  .debug_str:0000000000018bde .LASF1259
C:\Users\CYMR90~1\AppData\Local\Temp\ccf145Mk.s:28786  .debug_str:0000000000022971 .LASF1260
C:\Users\CYMR90~1\AppData\Local\Temp\ccf145Mk.s:26902  .debug_str:000000000001b47c .LASF1261
C:\Users\CYMR90~1\AppData\Local\Temp\ccf145Mk.s:24311  .debug_str:0000000000010c8f .LASF1262
C:\Users\CYMR90~1\AppData\Local\Temp\ccf145Mk.s:21455  .debug_str:000000000000549d .LASF1263
C:\Users\CYMR90~1\AppData\Local\Temp\ccf145Mk.s:23609  .debug_str:000000000000df49 .LASF1264
C:\Users\CYMR90~1\AppData\Local\Temp\ccf145Mk.s:25781  .debug_str:0000000000016aac .LASF1265
C:\Users\CYMR90~1\AppData\Local\Temp\ccf145Mk.s:23659  .debug_str:000000000000e24b .LASF1266
C:\Users\CYMR90~1\AppData\Local\Temp\ccf145Mk.s:28814  .debug_str:0000000000022b82 .LASF1267
C:\Users\CYMR90~1\AppData\Local\Temp\ccf145Mk.s:28992  .debug_str:00000000000235d4 .LASF1268
C:\Users\CYMR90~1\AppData\Local\Temp\ccf145Mk.s:24441  .debug_str:00000000000113d5 .LASF1269
C:\Users\CYMR90~1\AppData\Local\Temp\ccf145Mk.s:31110  .debug_str:000000000002be4b .LASF1270
C:\Users\CYMR90~1\AppData\Local\Temp\ccf145Mk.s:26022  .debug_str:0000000000017acc .LASF1271
C:\Users\CYMR90~1\AppData\Local\Temp\ccf145Mk.s:30496  .debug_str:00000000000298be .LASF1272
C:\Users\CYMR90~1\AppData\Local\Temp\ccf145Mk.s:27478  .debug_str:000000000001d9e4 .LASF1273
C:\Users\CYMR90~1\AppData\Local\Temp\ccf145Mk.s:20245  .debug_str:00000000000008b5 .LASF1274
C:\Users\CYMR90~1\AppData\Local\Temp\ccf145Mk.s:26304  .debug_str:0000000000018c61 .LASF1275
C:\Users\CYMR90~1\AppData\Local\Temp\ccf145Mk.s:20355  .debug_str:0000000000000faa .LASF1276
C:\Users\CYMR90~1\AppData\Local\Temp\ccf145Mk.s:22615  .debug_str:0000000000009e85 .LASF1277
C:\Users\CYMR90~1\AppData\Local\Temp\ccf145Mk.s:21621  .debug_str:0000000000005e2e .LASF1278
C:\Users\CYMR90~1\AppData\Local\Temp\ccf145Mk.s:20687  .debug_str:0000000000002304 .LASF1279
C:\Users\CYMR90~1\AppData\Local\Temp\ccf145Mk.s:31078  .debug_str:000000000002bc2d .LASF1280
C:\Users\CYMR90~1\AppData\Local\Temp\ccf145Mk.s:21517  .debug_str:0000000000005801 .LASF1281
C:\Users\CYMR90~1\AppData\Local\Temp\ccf145Mk.s:20573  .debug_str:0000000000001c99 .LASF1282
C:\Users\CYMR90~1\AppData\Local\Temp\ccf145Mk.s:27642  .debug_str:000000000001e44c .LASF1283
C:\Users\CYMR90~1\AppData\Local\Temp\ccf145Mk.s:20315  .debug_str:0000000000000d15 .LASF1284
C:\Users\CYMR90~1\AppData\Local\Temp\ccf145Mk.s:29016  .debug_str:000000000002378a .LASF1285
C:\Users\CYMR90~1\AppData\Local\Temp\ccf145Mk.s:28034  .debug_str:000000000001fba8 .LASF1286
C:\Users\CYMR90~1\AppData\Local\Temp\ccf145Mk.s:27082  .debug_str:000000000001bf54 .LASF1287
C:\Users\CYMR90~1\AppData\Local\Temp\ccf145Mk.s:26128  .debug_str:0000000000018101 .LASF1288
C:\Users\CYMR90~1\AppData\Local\Temp\ccf145Mk.s:25173  .debug_str:00000000000143a3 .LASF1289
C:\Users\CYMR90~1\AppData\Local\Temp\ccf145Mk.s:24235  .debug_str:000000000001071b .LASF1290
C:\Users\CYMR90~1\AppData\Local\Temp\ccf145Mk.s:28536  .debug_str:0000000000021abc .LASF1291
C:\Users\CYMR90~1\AppData\Local\Temp\ccf145Mk.s:27550  .debug_str:000000000001dee1 .LASF1292
C:\Users\CYMR90~1\AppData\Local\Temp\ccf145Mk.s:26650  .debug_str:000000000001a466 .LASF1293
C:\Users\CYMR90~1\AppData\Local\Temp\ccf145Mk.s:25645  .debug_str:0000000000016139 .LASF1294
C:\Users\CYMR90~1\AppData\Local\Temp\ccf145Mk.s:24727  .debug_str:0000000000012727 .LASF1295
C:\Users\CYMR90~1\AppData\Local\Temp\ccf145Mk.s:23765  .debug_str:000000000000e91d .LASF1296
C:\Users\CYMR90~1\AppData\Local\Temp\ccf145Mk.s:23139  .debug_str:000000000000c198 .LASF1297
C:\Users\CYMR90~1\AppData\Local\Temp\ccf145Mk.s:28000  .debug_str:000000000001f98f .LASF1298
C:\Users\CYMR90~1\AppData\Local\Temp\ccf145Mk.s:27054  .debug_str:000000000001bd9a .LASF1299
C:\Users\CYMR90~1\AppData\Local\Temp\ccf145Mk.s:26096  .debug_str:0000000000017efd .LASF1300
C:\Users\CYMR90~1\AppData\Local\Temp\ccf145Mk.s:27028  .debug_str:000000000001bbd0 .LASF1301
C:\Users\CYMR90~1\AppData\Local\Temp\ccf145Mk.s:28252  .debug_str:000000000002096c .LASF1302
C:\Users\CYMR90~1\AppData\Local\Temp\ccf145Mk.s:25689  .debug_str:00000000000163b9 .LASF1303
C:\Users\CYMR90~1\AppData\Local\Temp\ccf145Mk.s:26566  .debug_str:0000000000019dca .LASF1304
C:\Users\CYMR90~1\AppData\Local\Temp\ccf145Mk.s:26538  .debug_str:0000000000019c38 .LASF1305
C:\Users\CYMR90~1\AppData\Local\Temp\ccf145Mk.s:22293  .debug_str:0000000000008a35 .LASF1306
C:\Users\CYMR90~1\AppData\Local\Temp\ccf145Mk.s:21301  .debug_str:0000000000004b60 .LASF1307
C:\Users\CYMR90~1\AppData\Local\Temp\ccf145Mk.s:20367  .debug_str:0000000000001040 .LASF1308
C:\Users\CYMR90~1\AppData\Local\Temp\ccf145Mk.s:30738  .debug_str:000000000002a721 .LASF1309
C:\Users\CYMR90~1\AppData\Local\Temp\ccf145Mk.s:29770  .debug_str:00000000000269b3 .LASF1310
C:\Users\CYMR90~1\AppData\Local\Temp\ccf145Mk.s:28790  .debug_str:000000000002299f .LASF1311
C:\Users\CYMR90~1\AppData\Local\Temp\ccf145Mk.s:25041  .debug_str:0000000000013bae .LASF1312
C:\Users\CYMR90~1\AppData\Local\Temp\ccf145Mk.s:23621  .debug_str:000000000000e002 .LASF1313
C:\Users\CYMR90~1\AppData\Local\Temp\ccf145Mk.s:24891  .debug_str:00000000000131d1 .LASF1314
C:\Users\CYMR90~1\AppData\Local\Temp\ccf145Mk.s:30958  .debug_str:000000000002b479 .LASF1315
C:\Users\CYMR90~1\AppData\Local\Temp\ccf145Mk.s:29482  .debug_str:000000000002570d .LASF1316
C:\Users\CYMR90~1\AppData\Local\Temp\ccf145Mk.s:29008  .debug_str:00000000000236ee .LASF1317
C:\Users\CYMR90~1\AppData\Local\Temp\ccf145Mk.s:28026  .debug_str:000000000001fb3b .LASF1318
C:\Users\CYMR90~1\AppData\Local\Temp\ccf145Mk.s:27092  .debug_str:000000000001bffe .LASF1319
C:\Users\CYMR90~1\AppData\Local\Temp\ccf145Mk.s:26140  .debug_str:00000000000181b7 .LASF1320
C:\Users\CYMR90~1\AppData\Local\Temp\ccf145Mk.s:25183  .debug_str:0000000000014419 .LASF1321
C:\Users\CYMR90~1\AppData\Local\Temp\ccf145Mk.s:24243  .debug_str:0000000000010795 .LASF1322
C:\Users\CYMR90~1\AppData\Local\Temp\ccf145Mk.s:24703  .debug_str:0000000000012591 .LASF1323
C:\Users\CYMR90~1\AppData\Local\Temp\ccf145Mk.s:23143  .debug_str:000000000000c1bd .LASF1324
C:\Users\CYMR90~1\AppData\Local\Temp\ccf145Mk.s:22781  .debug_str:000000000000a984 .LASF1325
C:\Users\CYMR90~1\AppData\Local\Temp\ccf145Mk.s:21787  .debug_str:0000000000006884 .LASF1326
C:\Users\CYMR90~1\AppData\Local\Temp\ccf145Mk.s:20831  .debug_str:0000000000002c5c .LASF1327
C:\Users\CYMR90~1\AppData\Local\Temp\ccf145Mk.s:31228  .debug_str:000000000002c661 .LASF1328
C:\Users\CYMR90~1\AppData\Local\Temp\ccf145Mk.s:30308  .debug_str:0000000000028d54 .LASF1329
C:\Users\CYMR90~1\AppData\Local\Temp\ccf145Mk.s:29328  .debug_str:0000000000024ba9 .LASF1330
C:\Users\CYMR90~1\AppData\Local\Temp\ccf145Mk.s:28356  .debug_str:0000000000020f5d .LASF1331
C:\Users\CYMR90~1\AppData\Local\Temp\ccf145Mk.s:27386  .debug_str:000000000001d411 .LASF1332
C:\Users\CYMR90~1\AppData\Local\Temp\ccf145Mk.s:27818  .debug_str:000000000001eea5 .LASF1333
C:\Users\CYMR90~1\AppData\Local\Temp\ccf145Mk.s:26916  .debug_str:000000000001b53f .LASF1334
C:\Users\CYMR90~1\AppData\Local\Temp\ccf145Mk.s:25607  .debug_str:0000000000015ed6 .LASF1335
C:\Users\CYMR90~1\AppData\Local\Temp\ccf145Mk.s:23293  .debug_str:000000000000cb8d .LASF1336
C:\Users\CYMR90~1\AppData\Local\Temp\ccf145Mk.s:28042  .debug_str:000000000001fc07 .LASF1337
C:\Users\CYMR90~1\AppData\Local\Temp\ccf145Mk.s:24585  .debug_str:0000000000011dfb .LASF1338
C:\Users\CYMR90~1\AppData\Local\Temp\ccf145Mk.s:20473  .debug_str:0000000000001689 .LASF1339
C:\Users\CYMR90~1\AppData\Local\Temp\ccf145Mk.s:22565  .debug_str:0000000000009b64 .LASF1340
C:\Users\CYMR90~1\AppData\Local\Temp\ccf145Mk.s:21575  .debug_str:0000000000005b8a .LASF1341
C:\Users\CYMR90~1\AppData\Local\Temp\ccf145Mk.s:20627  .debug_str:0000000000001f90 .LASF1342
C:\Users\CYMR90~1\AppData\Local\Temp\ccf145Mk.s:31036  .debug_str:000000000002b986 .LASF1343
C:\Users\CYMR90~1\AppData\Local\Temp\ccf145Mk.s:30824  .debug_str:000000000002ac0a .LASF1344
C:\Users\CYMR90~1\AppData\Local\Temp\ccf145Mk.s:29854  .debug_str:0000000000026ec5 .LASF1345
C:\Users\CYMR90~1\AppData\Local\Temp\ccf145Mk.s:28880  .debug_str:0000000000022f35 .LASF1346
C:\Users\CYMR90~1\AppData\Local\Temp\ccf145Mk.s:30260  .debug_str:0000000000028aa9 .LASF1347
C:\Users\CYMR90~1\AppData\Local\Temp\ccf145Mk.s:26960  .debug_str:000000000001b7e3 .LASF1348
C:\Users\CYMR90~1\AppData\Local\Temp\ccf145Mk.s:27468  .debug_str:000000000001d956 .LASF1349
C:\Users\CYMR90~1\AppData\Local\Temp\ccf145Mk.s:25055  .debug_str:0000000000013c76 .LASF1350
C:\Users\CYMR90~1\AppData\Local\Temp\ccf145Mk.s:28186  .debug_str:000000000002055e .LASF1351
C:\Users\CYMR90~1\AppData\Local\Temp\ccf145Mk.s:23157  .debug_str:000000000000c2c3 .LASF1352
C:\Users\CYMR90~1\AppData\Local\Temp\ccf145Mk.s:22079  .debug_str:0000000000007bde .LASF1353
C:\Users\CYMR90~1\AppData\Local\Temp\ccf145Mk.s:22647  .debug_str:000000000000a08e .LASF1354
C:\Users\CYMR90~1\AppData\Local\Temp\ccf145Mk.s:21653  .debug_str:000000000000604b .LASF1355
C:\Users\CYMR90~1\AppData\Local\Temp\ccf145Mk.s:20711  .debug_str:000000000000247c .LASF1356
C:\Users\CYMR90~1\AppData\Local\Temp\ccf145Mk.s:31106  .debug_str:000000000002be2b .LASF1357
C:\Users\CYMR90~1\AppData\Local\Temp\ccf145Mk.s:25143  .debug_str:0000000000014204 .LASF1358
C:\Users\CYMR90~1\AppData\Local\Temp\ccf145Mk.s:21781  .debug_str:000000000000682c .LASF1359
C:\Users\CYMR90~1\AppData\Local\Temp\ccf145Mk.s:28234  .debug_str:0000000000020854 .LASF1360
C:\Users\CYMR90~1\AppData\Local\Temp\ccf145Mk.s:27186  .debug_str:000000000001c5be .LASF1361
C:\Users\CYMR90~1\AppData\Local\Temp\ccf145Mk.s:26234  .debug_str:0000000000018764 .LASF1362
C:\Users\CYMR90~1\AppData\Local\Temp\ccf145Mk.s:30270  .debug_str:0000000000028b3a .LASF1363
C:\Users\CYMR90~1\AppData\Local\Temp\ccf145Mk.s:25533  .debug_str:000000000001597b .LASF1364
C:\Users\CYMR90~1\AppData\Local\Temp\ccf145Mk.s:22197  .debug_str:0000000000008420 .LASF1365
C:\Users\CYMR90~1\AppData\Local\Temp\ccf145Mk.s:29882  .debug_str:0000000000027070 .LASF1366
C:\Users\CYMR90~1\AppData\Local\Temp\ccf145Mk.s:23277  .debug_str:000000000000ca99 .LASF1367
C:\Users\CYMR90~1\AppData\Local\Temp\ccf145Mk.s:28124  .debug_str:0000000000020115 .LASF1368
C:\Users\CYMR90~1\AppData\Local\Temp\ccf145Mk.s:26398  .debug_str:00000000000192b2 .LASF1369
C:\Users\CYMR90~1\AppData\Local\Temp\ccf145Mk.s:30996  .debug_str:000000000002b6cd .LASF1370
C:\Users\CYMR90~1\AppData\Local\Temp\ccf145Mk.s:27398  .debug_str:000000000001d4b1 .LASF1371
C:\Users\CYMR90~1\AppData\Local\Temp\ccf145Mk.s:20755  .debug_str:0000000000002782 .LASF1372
C:\Users\CYMR90~1\AppData\Local\Temp\ccf145Mk.s:23337  .debug_str:000000000000ce28 .LASF1373
C:\Users\CYMR90~1\AppData\Local\Temp\ccf145Mk.s:26444  .debug_str:0000000000019584 .LASF1374
C:\Users\CYMR90~1\AppData\Local\Temp\ccf145Mk.s:29546  .debug_str:0000000000025ba5 .LASF1375
C:\Users\CYMR90~1\AppData\Local\Temp\ccf145Mk.s:21329  .debug_str:0000000000004d08 .LASF1376
C:\Users\CYMR90~1\AppData\Local\Temp\ccf145Mk.s:24493  .debug_str:000000000001173d .LASF1377
C:\Users\CYMR90~1\AppData\Local\Temp\ccf145Mk.s:27556  .debug_str:000000000001df3b .LASF1378
C:\Users\CYMR90~1\AppData\Local\Temp\ccf145Mk.s:30734  .debug_str:000000000002a6e4 .LASF1379
C:\Users\CYMR90~1\AppData\Local\Temp\ccf145Mk.s:30702  .debug_str:000000000002a4c3 .LASF1380
C:\Users\CYMR90~1\AppData\Local\Temp\ccf145Mk.s:22411  .debug_str:0000000000009188 .LASF1381
C:\Users\CYMR90~1\AppData\Local\Temp\ccf145Mk.s:25505  .debug_str:00000000000157df .LASF1382
C:\Users\CYMR90~1\AppData\Local\Temp\ccf145Mk.s:28634  .debug_str:0000000000022089 .LASF1383
C:\Users\CYMR90~1\AppData\Local\Temp\ccf145Mk.s:20443  .debug_str:00000000000014a4 .LASF1384
C:\Users\CYMR90~1\AppData\Local\Temp\ccf145Mk.s:24959  .debug_str:00000000000136ce .LASF1385
C:\Users\CYMR90~1\AppData\Local\Temp\ccf145Mk.s:26742  .debug_str:000000000001aa44 .LASF1386
C:\Users\CYMR90~1\AppData\Local\Temp\ccf145Mk.s:29844  .debug_str:0000000000026e04 .LASF1387
C:\Users\CYMR90~1\AppData\Local\Temp\ccf145Mk.s:21609  .debug_str:0000000000005d76 .LASF1388
C:\Users\CYMR90~1\AppData\Local\Temp\ccf145Mk.s:24687  .debug_str:0000000000012483 .LASF1389
C:\Users\CYMR90~1\AppData\Local\Temp\ccf145Mk.s:24043  .debug_str:000000000000fa99 .LASF1390
C:\Users\CYMR90~1\AppData\Local\Temp\ccf145Mk.s:27038  .debug_str:000000000001bc86 .LASF1391
C:\Users\CYMR90~1\AppData\Local\Temp\ccf145Mk.s:30178  .debug_str:0000000000028505 .LASF1392
C:\Users\CYMR90~1\AppData\Local\Temp\ccf145Mk.s:21957  .debug_str:0000000000007387 .LASF1393
C:\Users\CYMR90~1\AppData\Local\Temp\ccf145Mk.s:25081  .debug_str:0000000000013def .LASF1394
C:\Users\CYMR90~1\AppData\Local\Temp\ccf145Mk.s:25233  .debug_str:0000000000014760 .LASF1395
C:\Users\CYMR90~1\AppData\Local\Temp\ccf145Mk.s:31410  .debug_str:000000000002d22f .LASF1396
C:\Users\CYMR90~1\AppData\Local\Temp\ccf145Mk.s:23213  .debug_str:000000000000c624 .LASF1397
C:\Users\CYMR90~1\AppData\Local\Temp\ccf145Mk.s:27768  .debug_str:000000000001ebba .LASF1398
C:\Users\CYMR90~1\AppData\Local\Temp\ccf145Mk.s:24393  .debug_str:00000000000110e3 .LASF1399
C:\Users\CYMR90~1\AppData\Local\Temp\ccf145Mk.s:25671  .debug_str:00000000000162ca .LASF1400
C:\Users\CYMR90~1\AppData\Local\Temp\ccf145Mk.s:20401  .debug_str:000000000000123f .LASF1401
C:\Users\CYMR90~1\AppData\Local\Temp\ccf145Mk.s:28106  .debug_str:0000000000020031 .LASF1402
C:\Users\CYMR90~1\AppData\Local\Temp\ccf145Mk.s:23039  .debug_str:000000000000baa2 .LASF1403
C:\Users\CYMR90~1\AppData\Local\Temp\ccf145Mk.s:27866  .debug_str:000000000001f19c .LASF1404
C:\Users\CYMR90~1\AppData\Local\Temp\ccf145Mk.s:21111  .debug_str:0000000000003e60 .LASF1405
C:\Users\CYMR90~1\AppData\Local\Temp\ccf145Mk.s:30662  .debug_str:000000000002a254 .LASF1406
C:\Users\CYMR90~1\AppData\Local\Temp\ccf145Mk.s:28836  .debug_str:0000000000022cad .LASF1407
C:\Users\CYMR90~1\AppData\Local\Temp\ccf145Mk.s:28996  .debug_str:0000000000023606 .LASF1408
C:\Users\CYMR90~1\AppData\Local\Temp\ccf145Mk.s:20785  .debug_str:000000000000296a .LASF1409
C:\Users\CYMR90~1\AppData\Local\Temp\ccf145Mk.s:23945  .debug_str:000000000000f3cb .LASF1410
C:\Users\CYMR90~1\AppData\Local\Temp\ccf145Mk.s:30406  .debug_str:000000000002935c .LASF1411
C:\Users\CYMR90~1\AppData\Local\Temp\ccf145Mk.s:22185  .debug_str:000000000000835c .LASF1412
C:\Users\CYMR90~1\AppData\Local\Temp\ccf145Mk.s:25299  .debug_str:0000000000014b56 .LASF1413
C:\Users\CYMR90~1\AppData\Local\Temp\ccf145Mk.s:28414  .debug_str:0000000000021348 .LASF1414
C:\Users\CYMR90~1\AppData\Local\Temp\ccf145Mk.s:20247  .debug_str:00000000000008c8 .LASF1415
C:\Users\CYMR90~1\AppData\Local\Temp\ccf145Mk.s:23303  .debug_str:000000000000cbf5 .LASF1416
C:\Users\CYMR90~1\AppData\Local\Temp\ccf145Mk.s:26422  .debug_str:0000000000019456 .LASF1417
C:\Users\CYMR90~1\AppData\Local\Temp\ccf145Mk.s:27930  .debug_str:000000000001f56a .LASF1418
C:\Users\CYMR90~1\AppData\Local\Temp\ccf145Mk.s:21309  .debug_str:0000000000004bca .LASF1419
C:\Users\CYMR90~1\AppData\Local\Temp\ccf145Mk.s:24379  .debug_str:0000000000011004 .LASF1420
C:\Users\CYMR90~1\AppData\Local\Temp\ccf145Mk.s:23723  .debug_str:000000000000e669 .LASF1421
C:\Users\CYMR90~1\AppData\Local\Temp\ccf145Mk.s:26856  .debug_str:000000000001b1bb .LASF1422
C:\Users\CYMR90~1\AppData\Local\Temp\ccf145Mk.s:29954  .debug_str:0000000000027596 .LASF1423
C:\Users\CYMR90~1\AppData\Local\Temp\ccf145Mk.s:20857  .debug_str:0000000000002de5 .LASF1424
C:\Users\CYMR90~1\AppData\Local\Temp\ccf145Mk.s:24895  .debug_str:00000000000131ff .LASF1425
C:\Users\CYMR90~1\AppData\Local\Temp\ccf145Mk.s:27860  .debug_str:000000000001f129 .LASF1426
C:\Users\CYMR90~1\AppData\Local\Temp\ccf145Mk.s:31116  .debug_str:000000000002bf1e .LASF1427
C:\Users\CYMR90~1\AppData\Local\Temp\ccf145Mk.s:22909  .debug_str:000000000000b20c .LASF1428
C:\Users\CYMR90~1\AppData\Local\Temp\ccf145Mk.s:25998  .debug_str:0000000000017970 .LASF1429
C:\Users\CYMR90~1\AppData\Local\Temp\ccf145Mk.s:29130  .debug_str:0000000000023e2d .LASF1430
C:\Users\CYMR90~1\AppData\Local\Temp\ccf145Mk.s:27868  .debug_str:000000000001f1b4 .LASF1431
C:\Users\CYMR90~1\AppData\Local\Temp\ccf145Mk.s:20207  .debug_str:000000000000066c .LASF1432
C:\Users\CYMR90~1\AppData\Local\Temp\ccf145Mk.s:29082  .debug_str:0000000000023b4c .LASF1433
C:\Users\CYMR90~1\AppData\Local\Temp\ccf145Mk.s:28110  .debug_str:000000000002005b .LASF1434
C:\Users\CYMR90~1\AppData\Local\Temp\ccf145Mk.s:27152  .debug_str:000000000001c36b .LASF1435
C:\Users\CYMR90~1\AppData\Local\Temp\ccf145Mk.s:26202  .debug_str:0000000000018537 .LASF1436
C:\Users\CYMR90~1\AppData\Local\Temp\ccf145Mk.s:25629  .debug_str:0000000000016058 .LASF1437
C:\Users\CYMR90~1\AppData\Local\Temp\ccf145Mk.s:29988  .debug_str:0000000000027767 .LASF1438
C:\Users\CYMR90~1\AppData\Local\Temp\ccf145Mk.s:29014  .debug_str:0000000000023776 .LASF1439
C:\Users\CYMR90~1\AppData\Local\Temp\ccf145Mk.s:28032  .debug_str:000000000001fb94 .LASF1440
C:\Users\CYMR90~1\AppData\Local\Temp\ccf145Mk.s:27080  .debug_str:000000000001bf40 .LASF1441
C:\Users\CYMR90~1\AppData\Local\Temp\ccf145Mk.s:26126  .debug_str:00000000000180ed .LASF1442
C:\Users\CYMR90~1\AppData\Local\Temp\ccf145Mk.s:25171  .debug_str:000000000001438f .LASF1443
C:\Users\CYMR90~1\AppData\Local\Temp\ccf145Mk.s:24233  .debug_str:0000000000010707 .LASF1444
C:\Users\CYMR90~1\AppData\Local\Temp\ccf145Mk.s:31074  .debug_str:000000000002bbf5 .LASF1445
C:\Users\CYMR90~1\AppData\Local\Temp\ccf145Mk.s:22301  .debug_str:0000000000008aa3 .LASF1446
C:\Users\CYMR90~1\AppData\Local\Temp\ccf145Mk.s:23855  .debug_str:000000000000ee1d .LASF1447
C:\Users\CYMR90~1\AppData\Local\Temp\ccf145Mk.s:29364  .debug_str:0000000000024e02 .LASF1448
C:\Users\CYMR90~1\AppData\Local\Temp\ccf145Mk.s:28392  .debug_str:000000000002115d .LASF1449
C:\Users\CYMR90~1\AppData\Local\Temp\ccf145Mk.s:27408  .debug_str:000000000001d5b0 .LASF1450
C:\Users\CYMR90~1\AppData\Local\Temp\ccf145Mk.s:26492  .debug_str:000000000001995c .LASF1451
C:\Users\CYMR90~1\AppData\Local\Temp\ccf145Mk.s:25503  .debug_str:00000000000157ca .LASF1452
C:\Users\CYMR90~1\AppData\Local\Temp\ccf145Mk.s:22907  .debug_str:000000000000b1f9 .LASF1453
C:\Users\CYMR90~1\AppData\Local\Temp\ccf145Mk.s:21523  .debug_str:0000000000005857 .LASF1454
C:\Users\CYMR90~1\AppData\Local\Temp\ccf145Mk.s:22707  .debug_str:000000000000a433 .LASF1455
C:\Users\CYMR90~1\AppData\Local\Temp\ccf145Mk.s:27772  .debug_str:000000000001ebfc .LASF1456
C:\Users\CYMR90~1\AppData\Local\Temp\ccf145Mk.s:29418  .debug_str:00000000000251e8 .LASF1457
C:\Users\CYMR90~1\AppData\Local\Temp\ccf145Mk.s:21275  .debug_str:00000000000049b5 .LASF1458
C:\Users\CYMR90~1\AppData\Local\Temp\ccf145Mk.s:27854  .debug_str:000000000001f0db .LASF1459
C:\Users\CYMR90~1\AppData\Local\Temp\ccf145Mk.s:24707  .debug_str:00000000000125d2 .LASF1460
C:\Users\CYMR90~1\AppData\Local\Temp\ccf145Mk.s:22817  .debug_str:000000000000abba .LASF1461
C:\Users\CYMR90~1\AppData\Local\Temp\ccf145Mk.s:24001  .debug_str:000000000000f84b .LASF1462
C:\Users\CYMR90~1\AppData\Local\Temp\ccf145Mk.s:24499  .debug_str:0000000000011818 .LASF1463
C:\Users\CYMR90~1\AppData\Local\Temp\ccf145Mk.s:25563  .debug_str:0000000000015b8f .LASF1464
C:\Users\CYMR90~1\AppData\Local\Temp\ccf145Mk.s:30848  .debug_str:000000000002ada7 .LASF1465
C:\Users\CYMR90~1\AppData\Local\Temp\ccf145Mk.s:26754  .debug_str:000000000001ab09 .LASF1466
C:\Users\CYMR90~1\AppData\Local\Temp\ccf145Mk.s:25175  .debug_str:00000000000143b6 .LASF1467
C:\Users\CYMR90~1\AppData\Local\Temp\ccf145Mk.s:29874  .debug_str:0000000000026ff9 .LASF1468
C:\Users\CYMR90~1\AppData\Local\Temp\ccf145Mk.s:24177  .debug_str:000000000001030f .LASF1469
C:\Users\CYMR90~1\AppData\Local\Temp\ccf145Mk.s:22259  .debug_str:000000000000881d .LASF1470
C:\Users\CYMR90~1\AppData\Local\Temp\ccf145Mk.s:24471  .debug_str:00000000000115d7 .LASF1471
C:\Users\CYMR90~1\AppData\Local\Temp\ccf145Mk.s:26024  .debug_str:0000000000017adf .LASF1472
C:\Users\CYMR90~1\AppData\Local\Temp\ccf145Mk.s:29316  .debug_str:0000000000024af2 .LASF1473
C:\Users\CYMR90~1\AppData\Local\Temp\ccf145Mk.s:29960  .debug_str:00000000000275db .LASF1474
C:\Users\CYMR90~1\AppData\Local\Temp\ccf145Mk.s:20297  .debug_str:0000000000000c1e .LASF1475
C:\Users\CYMR90~1\AppData\Local\Temp\ccf145Mk.s:22187  .debug_str:0000000000008375 .LASF1476
C:\Users\CYMR90~1\AppData\Local\Temp\ccf145Mk.s:20811  .debug_str:0000000000002b2d .LASF1477
C:\Users\CYMR90~1\AppData\Local\Temp\ccf145Mk.s:30144  .debug_str:0000000000028210 .LASF1478
C:\Users\CYMR90~1\AppData\Local\Temp\ccf145Mk.s:29166  .debug_str:00000000000240ec .LASF1479
C:\Users\CYMR90~1\AppData\Local\Temp\ccf145Mk.s:20937  .debug_str:0000000000003319 .LASF1480
C:\Users\CYMR90~1\AppData\Local\Temp\ccf145Mk.s:23165  .debug_str:000000000000c31f .LASF1481
C:\Users\CYMR90~1\AppData\Local\Temp\ccf145Mk.s:29284  .debug_str:00000000000248fe .LASF1482
C:\Users\CYMR90~1\AppData\Local\Temp\ccf145Mk.s:22497  .debug_str:0000000000009730 .LASF1483
C:\Users\CYMR90~1\AppData\Local\Temp\ccf145Mk.s:21315  .debug_str:0000000000004c23 .LASF1484
C:\Users\CYMR90~1\AppData\Local\Temp\ccf145Mk.s:23731  .debug_str:000000000000e6f8 .LASF1485
C:\Users\CYMR90~1\AppData\Local\Temp\ccf145Mk.s:25141  .debug_str:00000000000141f1 .LASF1486
C:\Users\CYMR90~1\AppData\Local\Temp\ccf145Mk.s:26738  .debug_str:000000000001aa15 .LASF1487
C:\Users\CYMR90~1\AppData\Local\Temp\ccf145Mk.s:20133  .debug_str:0000000000000216 .LASF1488
C:\Users\CYMR90~1\AppData\Local\Temp\ccf145Mk.s:25521  .debug_str:00000000000158c7 .LASF1489
C:\Users\CYMR90~1\AppData\Local\Temp\ccf145Mk.s:23531  .debug_str:000000000000da75 .LASF1490
C:\Users\CYMR90~1\AppData\Local\Temp\ccf145Mk.s:30372  .debug_str:000000000002915f .LASF1491
C:\Users\CYMR90~1\AppData\Local\Temp\ccf145Mk.s:20779  .debug_str:0000000000002903 .LASF1492
C:\Users\CYMR90~1\AppData\Local\Temp\ccf145Mk.s:28346  .debug_str:0000000000020ede .LASF1493
C:\Users\CYMR90~1\AppData\Local\Temp\ccf145Mk.s:30588  .debug_str:0000000000029e33 .LASF1494
C:\Users\CYMR90~1\AppData\Local\Temp\ccf145Mk.s:21943  .debug_str:00000000000072d5 .LASF1495
C:\Users\CYMR90~1\AppData\Local\Temp\ccf145Mk.s:29642  .debug_str:00000000000261d1 .LASF1496
C:\Users\CYMR90~1\AppData\Local\Temp\ccf145Mk.s:30344  .debug_str:0000000000028f92 .LASF1497
C:\Users\CYMR90~1\AppData\Local\Temp\ccf145Mk.s:21741  .debug_str:000000000000656b .LASF1498
C:\Users\CYMR90~1\AppData\Local\Temp\ccf145Mk.s:22589  .debug_str:0000000000009ccf .LASF1499
C:\Users\CYMR90~1\AppData\Local\Temp\ccf145Mk.s:31278  .debug_str:000000000002c99d .LASF1500
C:\Users\CYMR90~1\AppData\Local\Temp\ccf145Mk.s:30506  .debug_str:000000000002994b .LASF1501
C:\Users\CYMR90~1\AppData\Local\Temp\ccf145Mk.s:28244  .debug_str:00000000000208fc .LASF1502
C:\Users\CYMR90~1\AppData\Local\Temp\ccf145Mk.s:21723  .debug_str:0000000000006450 .LASF1503
C:\Users\CYMR90~1\AppData\Local\Temp\ccf145Mk.s:23275  .debug_str:000000000000ca82 .LASF1504
C:\Users\CYMR90~1\AppData\Local\Temp\ccf145Mk.s:27612  .debug_str:000000000001e262 .LASF1505
C:\Users\CYMR90~1\AppData\Local\Temp\ccf145Mk.s:26938  .debug_str:000000000001b6a4 .LASF1506
C:\Users\CYMR90~1\AppData\Local\Temp\ccf145Mk.s:22967  .debug_str:000000000000b616 .LASF1507
C:\Users\CYMR90~1\AppData\Local\Temp\ccf145Mk.s:28446  .debug_str:0000000000021526 .LASF1508
C:\Users\CYMR90~1\AppData\Local\Temp\ccf145Mk.s:24651  .debug_str:0000000000012222 .LASF1509
C:\Users\CYMR90~1\AppData\Local\Temp\ccf145Mk.s:30246  .debug_str:00000000000289b1 .LASF1510
C:\Users\CYMR90~1\AppData\Local\Temp\ccf145Mk.s:29028  .debug_str:0000000000023830 .LASF1511
C:\Users\CYMR90~1\AppData\Local\Temp\ccf145Mk.s:20979  .debug_str:00000000000035ae .LASF1512
C:\Users\CYMR90~1\AppData\Local\Temp\ccf145Mk.s:25583  .debug_str:0000000000015d3a .LASF1513
C:\Users\CYMR90~1\AppData\Local\Temp\ccf145Mk.s:29444  .debug_str:0000000000025417 .LASF1514
C:\Users\CYMR90~1\AppData\Local\Temp\ccf145Mk.s:27830  .debug_str:000000000001ef8f .LASF1515
C:\Users\CYMR90~1\AppData\Local\Temp\ccf145Mk.s:31016  .debug_str:000000000002b814 .LASF1516
C:\Users\CYMR90~1\AppData\Local\Temp\ccf145Mk.s:27662  .debug_str:000000000001e550 .LASF1517
C:\Users\CYMR90~1\AppData\Local\Temp\ccf145Mk.s:29680  .debug_str:000000000002640f .LASF1518
C:\Users\CYMR90~1\AppData\Local\Temp\ccf145Mk.s:24641  .debug_str:00000000000121b1 .LASF1519
C:\Users\CYMR90~1\AppData\Local\Temp\ccf145Mk.s:28058  .debug_str:000000000001fd47 .LASF1520
C:\Users\CYMR90~1\AppData\Local\Temp\ccf145Mk.s:27110  .debug_str:000000000001c118 .LASF1521
C:\Users\CYMR90~1\AppData\Local\Temp\ccf145Mk.s:28384  .debug_str:00000000000210ee .LASF1522
C:\Users\CYMR90~1\AppData\Local\Temp\ccf145Mk.s:26396  .debug_str:0000000000019296 .LASF1523
C:\Users\CYMR90~1\AppData\Local\Temp\ccf145Mk.s:29030  .debug_str:0000000000023846 .LASF1524
C:\Users\CYMR90~1\AppData\Local\Temp\ccf145Mk.s:21389  .debug_str:0000000000005085 .LASF1525
C:\Users\CYMR90~1\AppData\Local\Temp\ccf145Mk.s:27052  .debug_str:000000000001bd7f .LASF1526
C:\Users\CYMR90~1\AppData\Local\Temp\ccf145Mk.s:23187  .debug_str:000000000000c481 .LASF1527
C:\Users\CYMR90~1\AppData\Local\Temp\ccf145Mk.s:28784  .debug_str:0000000000022955 .LASF1528
C:\Users\CYMR90~1\AppData\Local\Temp\ccf145Mk.s:30042  .debug_str:0000000000027ac1 .LASF1529
C:\Users\CYMR90~1\AppData\Local\Temp\ccf145Mk.s:29276  .debug_str:00000000000247f9 .LASF1530
C:\Users\CYMR90~1\AppData\Local\Temp\ccf145Mk.s:29342  .debug_str:0000000000024c8b .LASF1531
C:\Users\CYMR90~1\AppData\Local\Temp\ccf145Mk.s:21133  .debug_str:0000000000003f7a .LASF1532
C:\Users\CYMR90~1\AppData\Local\Temp\ccf145Mk.s:26346  .debug_str:0000000000018eeb .LASF1533
C:\Users\CYMR90~1\AppData\Local\Temp\ccf145Mk.s:29158  .debug_str:0000000000023fa3 .LASF1534
C:\Users\CYMR90~1\AppData\Local\Temp\ccf145Mk.s:22749  .debug_str:000000000000a6c9 .LASF1535
C:\Users\CYMR90~1\AppData\Local\Temp\ccf145Mk.s:29346  .debug_str:0000000000024cfd .LASF1536
C:\Users\CYMR90~1\AppData\Local\Temp\ccf145Mk.s:28690  .debug_str:00000000000223aa .LASF1537
C:\Users\CYMR90~1\AppData\Local\Temp\ccf145Mk.s:29918  .debug_str:00000000000272b2 .LASF1538
C:\Users\CYMR90~1\AppData\Local\Temp\ccf145Mk.s:29810  .debug_str:0000000000026bee .LASF1539
C:\Users\CYMR90~1\AppData\Local\Temp\ccf145Mk.s:24523  .debug_str:0000000000011a25 .LASF1540
C:\Users\CYMR90~1\AppData\Local\Temp\ccf145Mk.s:30532  .debug_str:0000000000029ad3 .LASF1541
C:\Users\CYMR90~1\AppData\Local\Temp\ccf145Mk.s:23509  .debug_str:000000000000d95f .LASF1542
C:\Users\CYMR90~1\AppData\Local\Temp\ccf145Mk.s:20899  .debug_str:0000000000003088 .LASF1543
C:\Users\CYMR90~1\AppData\Local\Temp\ccf145Mk.s:24087  .debug_str:000000000000fd77 .LASF1544
C:\Users\CYMR90~1\AppData\Local\Temp\ccf145Mk.s:22123  .debug_str:0000000000007f42 .LASF1545
C:\Users\CYMR90~1\AppData\Local\Temp\ccf145Mk.s:22597  .debug_str:0000000000009d42 .LASF1546
C:\Users\CYMR90~1\AppData\Local\Temp\ccf145Mk.s:23243  .debug_str:000000000000c87c .LASF1547
C:\Users\CYMR90~1\AppData\Local\Temp\ccf145Mk.s:30120  .debug_str:000000000002802f .LASF1548
C:\Users\CYMR90~1\AppData\Local\Temp\ccf145Mk.s:29612  .debug_str:0000000000025f9c .LASF1549
C:\Users\CYMR90~1\AppData\Local\Temp\ccf145Mk.s:27002  .debug_str:000000000001b9e9 .LASF1550
C:\Users\CYMR90~1\AppData\Local\Temp\ccf145Mk.s:24389  .debug_str:0000000000011095 .LASF1551
C:\Users\CYMR90~1\AppData\Local\Temp\ccf145Mk.s:26972  .debug_str:000000000001b858 .LASF1552
C:\Users\CYMR90~1\AppData\Local\Temp\ccf145Mk.s:20369  .debug_str:0000000000001057 .LASF1553
C:\Users\CYMR90~1\AppData\Local\Temp\ccf145Mk.s:20681  .debug_str:0000000000002299 .LASF1554
C:\Users\CYMR90~1\AppData\Local\Temp\ccf145Mk.s:27698  .debug_str:000000000001e7ce .LASF1555
C:\Users\CYMR90~1\AppData\Local\Temp\ccf145Mk.s:26298  .debug_str:0000000000018bed .LASF1556
C:\Users\CYMR90~1\AppData\Local\Temp\ccf145Mk.s:26322  .debug_str:0000000000018d7b .LASF1557
C:\Users\CYMR90~1\AppData\Local\Temp\ccf145Mk.s:30618  .debug_str:0000000000029fb7 .LASF1558
C:\Users\CYMR90~1\AppData\Local\Temp\ccf145Mk.s:24229  .debug_str:00000000000106db .LASF1559
C:\Users\CYMR90~1\AppData\Local\Temp\ccf145Mk.s:29040  .debug_str:00000000000238bf .LASF1560
C:\Users\CYMR90~1\AppData\Local\Temp\ccf145Mk.s:29470  .debug_str:000000000002560f .LASF1561
C:\Users\CYMR90~1\AppData\Local\Temp\ccf145Mk.s:24345  .debug_str:0000000000010e25 .LASF1562
C:\Users\CYMR90~1\AppData\Local\Temp\ccf145Mk.s:21569  .debug_str:0000000000005b3a .LASF1563
C:\Users\CYMR90~1\AppData\Local\Temp\ccf145Mk.s:31114  .debug_str:000000000002be78 .LASF1564
C:\Users\CYMR90~1\AppData\Local\Temp\ccf145Mk.s:21749  .debug_str:00000000000065d4 .LASF1565
C:\Users\CYMR90~1\AppData\Local\Temp\ccf145Mk.s:27406  .debug_str:000000000001d522 .LASF1566
C:\Users\CYMR90~1\AppData\Local\Temp\ccf145Mk.s:26692  .debug_str:000000000001a6c5 .LASF1567
C:\Users\CYMR90~1\AppData\Local\Temp\ccf145Mk.s:28178  .debug_str:0000000000020489 .LASF1568
C:\Users\CYMR90~1\AppData\Local\Temp\ccf145Mk.s:24521  .debug_str:000000000001197e .LASF1569
C:\Users\CYMR90~1\AppData\Local\Temp\ccf145Mk.s:29498  .debug_str:000000000002581e .LASF1570
C:\Users\CYMR90~1\AppData\Local\Temp\ccf145Mk.s:24915  .debug_str:00000000000133e5 .LASF1571
C:\Users\CYMR90~1\AppData\Local\Temp\ccf145Mk.s:21439  .debug_str:00000000000053a6 .LASF1572
C:\Users\CYMR90~1\AppData\Local\Temp\ccf145Mk.s:25331  .debug_str:0000000000014daf .LASF1573
C:\Users\CYMR90~1\AppData\Local\Temp\ccf145Mk.s:30232  .debug_str:00000000000288dc .LASF1574
C:\Users\CYMR90~1\AppData\Local\Temp\ccf145Mk.s:25794  .debug_str:0000000000016d09 .LASF1575
C:\Users\CYMR90~1\AppData\Local\Temp\ccf145Mk.s:23885  .debug_str:000000000000f000 .LASF1576
C:\Users\CYMR90~1\AppData\Local\Temp\ccf145Mk.s:23497  .debug_str:000000000000d896 .LASF1577
C:\Users\CYMR90~1\AppData\Local\Temp\ccf145Mk.s:30726  .debug_str:000000000002a648 .LASF1578
C:\Users\CYMR90~1\AppData\Local\Temp\ccf145Mk.s:20691  .debug_str:0000000000002324 .LASF1579
C:\Users\CYMR90~1\AppData\Local\Temp\ccf145Mk.s:27252  .debug_str:000000000001ca8c .LASF1580
C:\Users\CYMR90~1\AppData\Local\Temp\ccf145Mk.s:22715  .debug_str:000000000000a4a7 .LASF1581
C:\Users\CYMR90~1\AppData\Local\Temp\ccf145Mk.s:23429  .debug_str:000000000000d4a6 .LASF1582
C:\Users\CYMR90~1\AppData\Local\Temp\ccf145Mk.s:22113  .debug_str:0000000000007e16 .LASF1583
C:\Users\CYMR90~1\AppData\Local\Temp\ccf145Mk.s:29920  .debug_str:00000000000272d0 .LASF1584
C:\Users\CYMR90~1\AppData\Local\Temp\ccf145Mk.s:27508  .debug_str:000000000001dba6 .LASF1585
C:\Users\CYMR90~1\AppData\Local\Temp\ccf145Mk.s:31332  .debug_str:000000000002ccc4 .LASF1586
C:\Users\CYMR90~1\AppData\Local\Temp\ccf145Mk.s:23403  .debug_str:000000000000d25c .LASF1587
C:\Users\CYMR90~1\AppData\Local\Temp\ccf145Mk.s:22073  .debug_str:0000000000007af3 .LASF1588
C:\Users\CYMR90~1\AppData\Local\Temp\ccf145Mk.s:25769  .debug_str:000000000001695a .LASF1589
C:\Users\CYMR90~1\AppData\Local\Temp\ccf145Mk.s:22935  .debug_str:000000000000b380 .LASF1590
C:\Users\CYMR90~1\AppData\Local\Temp\ccf145Mk.s:25695  .debug_str:0000000000016400 .LASF1591
C:\Users\CYMR90~1\AppData\Local\Temp\ccf145Mk.s:22313  .debug_str:0000000000008b33 .LASF1592
C:\Users\CYMR90~1\AppData\Local\Temp\ccf145Mk.s:24907  .debug_str:0000000000013300 .LASF1593
C:\Users\CYMR90~1\AppData\Local\Temp\ccf145Mk.s:24221  .debug_str:00000000000105ac .LASF1594
C:\Users\CYMR90~1\AppData\Local\Temp\ccf145Mk.s:30152  .debug_str:00000000000282c6 .LASF1595
C:\Users\CYMR90~1\AppData\Local\Temp\ccf145Mk.s:20335  .debug_str:0000000000000e1f .LASF1596
C:\Users\CYMR90~1\AppData\Local\Temp\ccf145Mk.s:27278  .debug_str:000000000001cc4b .LASF1597
C:\Users\CYMR90~1\AppData\Local\Temp\ccf145Mk.s:21245  .debug_str:000000000000474c .LASF1598
C:\Users\CYMR90~1\AppData\Local\Temp\ccf145Mk.s:29420  .debug_str:00000000000251f7 .LASF1599
C:\Users\CYMR90~1\AppData\Local\Temp\ccf145Mk.s:23951  .debug_str:000000000000f41d .LASF1600
C:\Users\CYMR90~1\AppData\Local\Temp\ccf145Mk.s:23973  .debug_str:000000000000f5f0 .LASF1601
C:\Users\CYMR90~1\AppData\Local\Temp\ccf145Mk.s:28408  .debug_str:000000000002124b .LASF1602
C:\Users\CYMR90~1\AppData\Local\Temp\ccf145Mk.s:27302  .debug_str:000000000001ce5b .LASF1603
C:\Users\CYMR90~1\AppData\Local\Temp\ccf145Mk.s:27198  .debug_str:000000000001c675 .LASF1604
C:\Users\CYMR90~1\AppData\Local\Temp\ccf145Mk.s:29400  .debug_str:0000000000025036 .LASF1605
C:\Users\CYMR90~1\AppData\Local\Temp\ccf145Mk.s:29318  .debug_str:0000000000024b08 .LASF1606
C:\Users\CYMR90~1\AppData\Local\Temp\ccf145Mk.s:29270  .debug_str:00000000000247a5 .LASF1607
C:\Users\CYMR90~1\AppData\Local\Temp\ccf145Mk.s:26242  .debug_str:00000000000187bf .LASF1608
C:\Users\CYMR90~1\AppData\Local\Temp\ccf145Mk.s:21223  .debug_str:00000000000045c5 .LASF1609
C:\Users\CYMR90~1\AppData\Local\Temp\ccf145Mk.s:28618  .debug_str:0000000000021f86 .LASF1610
C:\Users\CYMR90~1\AppData\Local\Temp\ccf145Mk.s:31238  .debug_str:000000000002c6c4 .LASF1611
C:\Users\CYMR90~1\AppData\Local\Temp\ccf145Mk.s:27148  .debug_str:000000000001c32f .LASF1612
C:\Users\CYMR90~1\AppData\Local\Temp\ccf145Mk.s:25219  .debug_str:0000000000014690 .LASF1613
C:\Users\CYMR90~1\AppData\Local\Temp\ccf145Mk.s:22583  .debug_str:0000000000009c71 .LASF1614
C:\Users\CYMR90~1\AppData\Local\Temp\ccf145Mk.s:26840  .debug_str:000000000001b090 .LASF1615
C:\Users\CYMR90~1\AppData\Local\Temp\ccf145Mk.s:28502  .debug_str:000000000002187a .LASF1616
C:\Users\CYMR90~1\AppData\Local\Temp\ccf145Mk.s:25305  .debug_str:0000000000014bb6 .LASF1617
C:\Users\CYMR90~1\AppData\Local\Temp\ccf145Mk.s:27210  .debug_str:000000000001c7e9 .LASF1618
C:\Users\CYMR90~1\AppData\Local\Temp\ccf145Mk.s:21269  .debug_str:0000000000004955 .LASF1619
C:\Users\CYMR90~1\AppData\Local\Temp\ccf145Mk.s:22971  .debug_str:000000000000b646 .LASF1620
C:\Users\CYMR90~1\AppData\Local\Temp\ccf145Mk.s:23805  .debug_str:000000000000eb70 .LASF1621
C:\Users\CYMR90~1\AppData\Local\Temp\ccf145Mk.s:20837  .debug_str:0000000000002cbb .LASF1622
C:\Users\CYMR90~1\AppData\Local\Temp\ccf145Mk.s:28210  .debug_str:00000000000206c6 .LASF1623
C:\Users\CYMR90~1\AppData\Local\Temp\ccf145Mk.s:24909  .debug_str:000000000001339b .LASF1624
C:\Users\CYMR90~1\AppData\Local\Temp\ccf145Mk.s:23071  .debug_str:000000000000bd35 .LASF1625
C:\Users\CYMR90~1\AppData\Local\Temp\ccf145Mk.s:28908  .debug_str:0000000000023088 .LASF1626
C:\Users\CYMR90~1\AppData\Local\Temp\ccf145Mk.s:21745  .debug_str:00000000000065a6 .LASF1627
C:\Users\CYMR90~1\AppData\Local\Temp\ccf145Mk.s:27948  .debug_str:000000000001f677 .LASF1628
C:\Users\CYMR90~1\AppData\Local\Temp\ccf145Mk.s:22829  .debug_str:000000000000ac7c .LASF1629
C:\Users\CYMR90~1\AppData\Local\Temp\ccf145Mk.s:28700  .debug_str:0000000000022416 .LASF1630
C:\Users\CYMR90~1\AppData\Local\Temp\ccf145Mk.s:22295  .debug_str:0000000000008a4c .LASF1631
C:\Users\CYMR90~1\AppData\Local\Temp\ccf145Mk.s:20435  .debug_str:000000000000144f .LASF1632
C:\Users\CYMR90~1\AppData\Local\Temp\ccf145Mk.s:26950  .debug_str:000000000001b770 .LASF1633
C:\Users\CYMR90~1\AppData\Local\Temp\ccf145Mk.s:25936  .debug_str:0000000000017555 .LASF1634
C:\Users\CYMR90~1\AppData\Local\Temp\ccf145Mk.s:23053  .debug_str:000000000000bbce .LASF1635
C:\Users\CYMR90~1\AppData\Local\Temp\ccf145Mk.s:23159  .debug_str:000000000000c2d9 .LASF1636
C:\Users\CYMR90~1\AppData\Local\Temp\ccf145Mk.s:26812  .debug_str:000000000001aedf .LASF1637
C:\Users\CYMR90~1\AppData\Local\Temp\ccf145Mk.s:23227  .debug_str:000000000000c769 .LASF1638
C:\Users\CYMR90~1\AppData\Local\Temp\ccf145Mk.s:22945  .debug_str:000000000000b4a5 .LASF1639
C:\Users\CYMR90~1\AppData\Local\Temp\ccf145Mk.s:26144  .debug_str:00000000000181e8 .LASF1640
C:\Users\CYMR90~1\AppData\Local\Temp\ccf145Mk.s:24183  .debug_str:000000000001036b .LASF1641
C:\Users\CYMR90~1\AppData\Local\Temp\ccf145Mk.s:29262  .debug_str:000000000002472f .LASF1642
C:\Users\CYMR90~1\AppData\Local\Temp\ccf145Mk.s:24531  .debug_str:0000000000011ac6 .LASF1643
C:\Users\CYMR90~1\AppData\Local\Temp\ccf145Mk.s:28094  .debug_str:000000000001ff83 .LASF1644
C:\Users\CYMR90~1\AppData\Local\Temp\ccf145Mk.s:31206  .debug_str:000000000002c525 .LASF1645
C:\Users\CYMR90~1\AppData\Local\Temp\ccf145Mk.s:20827  .debug_str:0000000000002c33 .LASF1646
C:\Users\CYMR90~1\AppData\Local\Temp\ccf145Mk.s:25731  .debug_str:00000000000166b0 .LASF1647
C:\Users\CYMR90~1\AppData\Local\Temp\ccf145Mk.s:25842  .debug_str:0000000000017004 .LASF1648
C:\Users\CYMR90~1\AppData\Local\Temp\ccf145Mk.s:20631  .debug_str:0000000000001fc4 .LASF1649
C:\Users\CYMR90~1\AppData\Local\Temp\ccf145Mk.s:22139  .debug_str:0000000000008079 .LASF1650
C:\Users\CYMR90~1\AppData\Local\Temp\ccf145Mk.s:28924  .debug_str:0000000000023188 .LASF1651
C:\Users\CYMR90~1\AppData\Local\Temp\ccf145Mk.s:24281  .debug_str:0000000000010990 .LASF1652
C:\Users\CYMR90~1\AppData\Local\Temp\ccf145Mk.s:22031  .debug_str:0000000000007828 .LASF1653
C:\Users\CYMR90~1\AppData\Local\Temp\ccf145Mk.s:20375  .debug_str:00000000000010c8 .LASF1654
C:\Users\CYMR90~1\AppData\Local\Temp\ccf145Mk.s:26038  .debug_str:0000000000017ba2 .LASF1657
C:\Users\CYMR90~1\AppData\Local\Temp\ccf145Mk.s:30776  .debug_str:000000000002a972 .LASF1658
C:\Users\CYMR90~1\AppData\Local\Temp\ccf145Mk.s:24313  .debug_str:0000000000010c9d .LASF1659
C:\Users\CYMR90~1\AppData\Local\Temp\ccf145Mk.s:26370  .debug_str:0000000000019132 .LASF1660
C:\Users\CYMR90~1\AppData\Local\Temp\ccf145Mk.s:31012  .debug_str:000000000002b7d5 .LASF1661
C:\Users\CYMR90~1\AppData\Local\Temp\ccf145Mk.s:31046  .debug_str:000000000002ba31 .LASF1662
C:\Users\CYMR90~1\AppData\Local\Temp\ccf145Mk.s:28294  .debug_str:0000000000020c08 .LASF1663
C:\Users\CYMR90~1\AppData\Local\Temp\ccf145Mk.s:25267  .debug_str:000000000001493e .LASF1664
C:\Users\CYMR90~1\AppData\Local\Temp\ccf145Mk.s:27454  .debug_str:000000000001d86b .LASF1665
C:\Users\CYMR90~1\AppData\Local\Temp\ccf145Mk.s:28386  .debug_str:0000000000021109 .LASF1666
C:\Users\CYMR90~1\AppData\Local\Temp\ccf145Mk.s:29494  .debug_str:00000000000257da .LASF1667
C:\Users\CYMR90~1\AppData\Local\Temp\ccf145Mk.s:23715  .debug_str:000000000000e5e6 .LASF1668
C:\Users\CYMR90~1\AppData\Local\Temp\ccf145Mk.s:21063  .debug_str:0000000000003afb .LASF1669
C:\Users\CYMR90~1\AppData\Local\Temp\ccf145Mk.s:22333  .debug_str:0000000000008cff .LASF1670
C:\Users\CYMR90~1\AppData\Local\Temp\ccf145Mk.s:21283  .debug_str:0000000000004a21 .LASF1671
C:\Users\CYMR90~1\AppData\Local\Temp\ccf145Mk.s:20181  .debug_str:00000000000004d9 .LASF1672
C:\Users\CYMR90~1\AppData\Local\Temp\ccf145Mk.s:25195  .debug_str:00000000000144ce .LASF1673
C:\Users\CYMR90~1\AppData\Local\Temp\ccf145Mk.s:24603  .debug_str:0000000000011ef0 .LASF1674
C:\Users\CYMR90~1\AppData\Local\Temp\ccf145Mk.s:23755  .debug_str:000000000000e855 .LASF1675
C:\Users\CYMR90~1\AppData\Local\Temp\ccf145Mk.s:29282  .debug_str:00000000000248e4 .LASF1676
C:\Users\CYMR90~1\AppData\Local\Temp\ccf145Mk.s:24731  .debug_str:0000000000012750 .LASF1677
C:\Users\CYMR90~1\AppData\Local\Temp\ccf145Mk.s:31208  .debug_str:000000000002c53a .LASF1678
C:\Users\CYMR90~1\AppData\Local\Temp\ccf145Mk.s:20739  .debug_str:0000000000002636 .LASF1679
C:\Users\CYMR90~1\AppData\Local\Temp\ccf145Mk.s:24261  .debug_str:0000000000010894 .LASF1680
C:\Users\CYMR90~1\AppData\Local\Temp\ccf145Mk.s:25431  .debug_str:00000000000153b8 .LASF1681
C:\Users\CYMR90~1\AppData\Local\Temp\ccf145Mk.s:24107  .debug_str:000000000000fedc .LASF1682
C:\Users\CYMR90~1\AppData\Local\Temp\ccf145Mk.s:26796  .debug_str:000000000001ad70 .LASF1683
C:\Users\CYMR90~1\AppData\Local\Temp\ccf145Mk.s:28874  .debug_str:0000000000022ee0 .LASF1684
C:\Users\CYMR90~1\AppData\Local\Temp\ccf145Mk.s:29802  .debug_str:0000000000026b93 .LASF1685
C:\Users\CYMR90~1\AppData\Local\Temp\ccf145Mk.s:24259  .debug_str:000000000001087c .LASF1686
C:\Users\CYMR90~1\AppData\Local\Temp\ccf145Mk.s:28190  .debug_str:0000000000020587 .LASF1687
C:\Users\CYMR90~1\AppData\Local\Temp\ccf145Mk.s:30522  .debug_str:0000000000029a28 .LASF1688
C:\Users\CYMR90~1\AppData\Local\Temp\ccf145Mk.s:29056  .debug_str:00000000000239c9 .LASF1689
C:\Users\CYMR90~1\AppData\Local\Temp\ccf145Mk.s:26912  .debug_str:000000000001b4f1 .LASF1690
C:\Users\CYMR90~1\AppData\Local\Temp\ccf145Mk.s:24997  .debug_str:0000000000013911 .LASF1691
C:\Users\CYMR90~1\AppData\Local\Temp\ccf145Mk.s:28600  .debug_str:0000000000021e82 .LASF1692
C:\Users\CYMR90~1\AppData\Local\Temp\ccf145Mk.s:26228  .debug_str:00000000000186fd .LASF1693
C:\Users\CYMR90~1\AppData\Local\Temp\ccf145Mk.s:22133  .debug_str:0000000000008005 .LASF1694
C:\Users\CYMR90~1\AppData\Local\Temp\ccf145Mk.s:24179  .debug_str:000000000001031f .LASF1695
C:\Users\CYMR90~1\AppData\Local\Temp\ccf145Mk.s:26008  .debug_str:00000000000179ef .LASF1696
C:\Users\CYMR90~1\AppData\Local\Temp\ccf145Mk.s:25313  .debug_str:0000000000014c49 .LASF1697
C:\Users\CYMR90~1\AppData\Local\Temp\ccf145Mk.s:27844  .debug_str:000000000001f048 .LASF1698
C:\Users\CYMR90~1\AppData\Local\Temp\ccf145Mk.s:26406  .debug_str:000000000001935d .LASF1699
C:\Users\CYMR90~1\AppData\Local\Temp\ccf145Mk.s:28306  .debug_str:0000000000020cbc .LASF1700
C:\Users\CYMR90~1\AppData\Local\Temp\ccf145Mk.s:27840  .debug_str:000000000001f00b .LASF1701
C:\Users\CYMR90~1\AppData\Local\Temp\ccf145Mk.s:29102  .debug_str:0000000000023c61 .LASF1702
C:\Users\CYMR90~1\AppData\Local\Temp\ccf145Mk.s:29062  .debug_str:0000000000023a18 .LASF1703
C:\Users\CYMR90~1\AppData\Local\Temp\ccf145Mk.s:28590  .debug_str:0000000000021de8 .LASF1704
C:\Users\CYMR90~1\AppData\Local\Temp\ccf145Mk.s:27034  .debug_str:000000000001bc2b .LASF1705
C:\Users\CYMR90~1\AppData\Local\Temp\ccf145Mk.s:28448  .debug_str:000000000002153a .LASF1706
C:\Users\CYMR90~1\AppData\Local\Temp\ccf145Mk.s:25918  .debug_str:000000000001741a .LASF1707
C:\Users\CYMR90~1\AppData\Local\Temp\ccf145Mk.s:24911  .debug_str:00000000000133ae .LASF1708
C:\Users\CYMR90~1\AppData\Local\Temp\ccf145Mk.s:27592  .debug_str:000000000001e14a .LASF1709
C:\Users\CYMR90~1\AppData\Local\Temp\ccf145Mk.s:26146  .debug_str:00000000000181fd .LASF1710
C:\Users\CYMR90~1\AppData\Local\Temp\ccf145Mk.s:23055  .debug_str:000000000000bbe3 .LASF1711
C:\Users\CYMR90~1\AppData\Local\Temp\ccf145Mk.s:24551  .debug_str:0000000000011bd9 .LASF1712
C:\Users\CYMR90~1\AppData\Local\Temp\ccf145Mk.s:21675  .debug_str:0000000000006179 .LASF1713
C:\Users\CYMR90~1\AppData\Local\Temp\ccf145Mk.s:24021  .debug_str:000000000000f935 .LASF1714
C:\Users\CYMR90~1\AppData\Local\Temp\ccf145Mk.s:20957  .debug_str:000000000000346a .LASF1715
C:\Users\CYMR90~1\AppData\Local\Temp\ccf145Mk.s:24257  .debug_str:0000000000010850 .LASF1716
C:\Users\CYMR90~1\AppData\Local\Temp\ccf145Mk.s:27560  .debug_str:000000000001df69 .LASF1717
C:\Users\CYMR90~1\AppData\Local\Temp\ccf145Mk.s:26108  .debug_str:0000000000017fc2 .LASF1718
C:\Users\CYMR90~1\AppData\Local\Temp\ccf145Mk.s:24497  .debug_str:000000000001176a .LASF1719
C:\Users\CYMR90~1\AppData\Local\Temp\ccf145Mk.s:26472  .debug_str:000000000001978e .LASF1720
C:\Users\CYMR90~1\AppData\Local\Temp\ccf145Mk.s:24989  .debug_str:000000000001388e .LASF1721
C:\Users\CYMR90~1\AppData\Local\Temp\ccf145Mk.s:20667  .debug_str:00000000000021e0 .LASF1722
C:\Users\CYMR90~1\AppData\Local\Temp\ccf145Mk.s:26804  .debug_str:000000000001ae0f .LASF1723
C:\Users\CYMR90~1\AppData\Local\Temp\ccf145Mk.s:20731  .debug_str:00000000000025c0 .LASF1724
C:\Users\CYMR90~1\AppData\Local\Temp\ccf145Mk.s:25499  .debug_str:000000000001576d .LASF1725
C:\Users\CYMR90~1\AppData\Local\Temp\ccf145Mk.s:30320  .debug_str:0000000000028de3 .LASF1726
C:\Users\CYMR90~1\AppData\Local\Temp\ccf145Mk.s:28738  .debug_str:000000000002268a .LASF1727
C:\Users\CYMR90~1\AppData\Local\Temp\ccf145Mk.s:29962  .debug_str:00000000000275ef .LASF1728
C:\Users\CYMR90~1\AppData\Local\Temp\ccf145Mk.s:27250  .debug_str:000000000001ca55 .LASF1729
C:\Users\CYMR90~1\AppData\Local\Temp\ccf145Mk.s:31118  .debug_str:000000000002bf37 .LASF1730
C:\Users\CYMR90~1\AppData\Local\Temp\ccf145Mk.s:29792  .debug_str:0000000000026af8 .LASF1731
C:\Users\CYMR90~1\AppData\Local\Temp\ccf145Mk.s:24429  .debug_str:000000000001130d .LASF1732
C:\Users\CYMR90~1\AppData\Local\Temp\ccf145Mk.s:22441  .debug_str:000000000000932a .LASF1733
C:\Users\CYMR90~1\AppData\Local\Temp\ccf145Mk.s:20437  .debug_str:0000000000001462 .LASF1734
C:\Users\CYMR90~1\AppData\Local\Temp\ccf145Mk.s:25874  .debug_str:00000000000171a6 .LASF1735
C:\Users\CYMR90~1\AppData\Local\Temp\ccf145Mk.s:28020  .debug_str:000000000001faea .LASF1736
C:\Users\CYMR90~1\AppData\Local\Temp\ccf145Mk.s:22433  .debug_str:00000000000092b4 .LASF1737
C:\Users\CYMR90~1\AppData\Local\Temp\ccf145Mk.s:22153  .debug_str:0000000000008155 .LASF1738
C:\Users\CYMR90~1\AppData\Local\Temp\ccf145Mk.s:29798  .debug_str:0000000000026b64 .LASF1739
C:\Users\CYMR90~1\AppData\Local\Temp\ccf145Mk.s:23779  .debug_str:000000000000e9e3 .LASF1740
C:\Users\CYMR90~1\AppData\Local\Temp\ccf145Mk.s:22783  .debug_str:000000000000a99c .LASF1741
C:\Users\CYMR90~1\AppData\Local\Temp\ccf145Mk.s:27864  .debug_str:000000000001f169 .LASF1742
C:\Users\CYMR90~1\AppData\Local\Temp\ccf145Mk.s:27516  .debug_str:000000000001dc96 .LASF1743
C:\Users\CYMR90~1\AppData\Local\Temp\ccf145Mk.s:30076  .debug_str:0000000000027d3a .LASF1744
C:\Users\CYMR90~1\AppData\Local\Temp\ccf145Mk.s:22157  .debug_str:000000000000819f .LASF1745
C:\Users\CYMR90~1\AppData\Local\Temp\ccf145Mk.s:24079  .debug_str:000000000000fcee .LASF1746
C:\Users\CYMR90~1\AppData\Local\Temp\ccf145Mk.s:29106  .debug_str:0000000000023ca7 .LASF1747
C:\Users\CYMR90~1\AppData\Local\Temp\ccf145Mk.s:28708  .debug_str:000000000002249c .LASF1748
C:\Users\CYMR90~1\AppData\Local\Temp\ccf145Mk.s:24253  .debug_str:0000000000010815 .LASF1749
C:\Users\CYMR90~1\AppData\Local\Temp\ccf145Mk.s:22941  .debug_str:000000000000b45c .LASF1750
C:\Users\CYMR90~1\AppData\Local\Temp\ccf145Mk.s:26044  .debug_str:0000000000017bf8 .LASF1751
C:\Users\CYMR90~1\AppData\Local\Temp\ccf145Mk.s:21317  .debug_str:0000000000004c37 .LASF1752
C:\Users\CYMR90~1\AppData\Local\Temp\ccf145Mk.s:26778  .debug_str:000000000001ac69 .LASF1753
C:\Users\CYMR90~1\AppData\Local\Temp\ccf145Mk.s:26676  .debug_str:000000000001a5a1 .LASF1754
C:\Users\CYMR90~1\AppData\Local\Temp\ccf145Mk.s:23217  .debug_str:000000000000c668 .LASF1755
C:\Users\CYMR90~1\AppData\Local\Temp\ccf145Mk.s:24803  .debug_str:0000000000012c19 .LASF1756
C:\Users\CYMR90~1\AppData\Local\Temp\ccf145Mk.s:26870  .debug_str:000000000001b28c .LASF1757
C:\Users\CYMR90~1\AppData\Local\Temp\ccf145Mk.s:23873  .debug_str:000000000000ef1a .LASF1758
C:\Users\CYMR90~1\AppData\Local\Temp\ccf145Mk.s:21975  .debug_str:0000000000007492 .LASF1759
C:\Users\CYMR90~1\AppData\Local\Temp\ccf145Mk.s:26620  .debug_str:000000000001a0e7 .LASF1760
C:\Users\CYMR90~1\AppData\Local\Temp\ccf145Mk.s:22261  .debug_str:000000000000882f .LASF1761
C:\Users\CYMR90~1\AppData\Local\Temp\ccf145Mk.s:20499  .debug_str:0000000000001836 .LASF1762
C:\Users\CYMR90~1\AppData\Local\Temp\ccf145Mk.s:29298  .debug_str:00000000000249b3 .LASF1763
C:\Users\CYMR90~1\AppData\Local\Temp\ccf145Mk.s:22005  .debug_str:0000000000007689 .LASF1764
C:\Users\CYMR90~1\AppData\Local\Temp\ccf145Mk.s:21689  .debug_str:0000000000006272 .LASF1765
C:\Users\CYMR90~1\AppData\Local\Temp\ccf145Mk.s:20479  .debug_str:00000000000016e2 .LASF1766
C:\Users\CYMR90~1\AppData\Local\Temp\ccf145Mk.s:25559  .debug_str:0000000000015b59 .LASF1767
C:\Users\CYMR90~1\AppData\Local\Temp\ccf145Mk.s:20539  .debug_str:0000000000001a84 .LASF1768
C:\Users\CYMR90~1\AppData\Local\Temp\ccf145Mk.s:29500  .debug_str:00000000000258ac .LASF1769
C:\Users\CYMR90~1\AppData\Local\Temp\ccf145Mk.s:31192  .debug_str:000000000002c434 .LASF1770
C:\Users\CYMR90~1\AppData\Local\Temp\ccf145Mk.s:23109  .debug_str:000000000000bf8f .LASF1771
C:\Users\CYMR90~1\AppData\Local\Temp\ccf145Mk.s:22685  .debug_str:000000000000a2e1 .LASF1772
C:\Users\CYMR90~1\AppData\Local\Temp\ccf145Mk.s:31254  .debug_str:000000000002c7e2 .LASF1773
C:\Users\CYMR90~1\AppData\Local\Temp\ccf145Mk.s:20263  .debug_str:00000000000009b2 .LASF1774
C:\Users\CYMR90~1\AppData\Local\Temp\ccf145Mk.s:30222  .debug_str:000000000002881d .LASF1775
C:\Users\CYMR90~1\AppData\Local\Temp\ccf145Mk.s:25211  .debug_str:00000000000145fc .LASF1776
C:\Users\CYMR90~1\AppData\Local\Temp\ccf145Mk.s:23955  .debug_str:000000000000f4ee .LASF1777
C:\Users\CYMR90~1\AppData\Local\Temp\ccf145Mk.s:26034  .debug_str:0000000000017b71 .LASF1778
C:\Users\CYMR90~1\AppData\Local\Temp\ccf145Mk.s:21415  .debug_str:0000000000005227 .LASF1779
C:\Users\CYMR90~1\AppData\Local\Temp\ccf145Mk.s:29538  .debug_str:0000000000025b1b .LASF1780
C:\Users\CYMR90~1\AppData\Local\Temp\ccf145Mk.s:28742  .debug_str:00000000000226f3 .LASF1781
C:\Users\CYMR90~1\AppData\Local\Temp\ccf145Mk.s:27258  .debug_str:000000000001caf7 .LASF1784
C:\Users\CYMR90~1\AppData\Local\Temp\ccf145Mk.s:26418  .debug_str:0000000000019410 .LASF1785
C:\Users\CYMR90~1\AppData\Local\Temp\ccf145Mk.s:26264  .debug_str:000000000001892a .LASF1786
C:\Users\CYMR90~1\AppData\Local\Temp\ccf145Mk.s:25253  .debug_str:000000000001488e .LASF1787
C:\Users\CYMR90~1\AppData\Local\Temp\ccf145Mk.s:30654  .debug_str:000000000002a1d5 .LASF1788
C:\Users\CYMR90~1\AppData\Local\Temp\ccf145Mk.s:26814  .debug_str:000000000001aef4 .LASF1789
C:\Users\CYMR90~1\AppData\Local\Temp\ccf145Mk.s:21001  .debug_str:0000000000003745 .LASF1790
C:\Users\CYMR90~1\AppData\Local\Temp\ccf145Mk.s:20129  .debug_str:00000000000001e0 .LASF1791
C:\Users\CYMR90~1\AppData\Local\Temp\ccf145Mk.s:29884  .debug_str:0000000000027084 .LASF1792
C:\Users\CYMR90~1\AppData\Local\Temp\ccf145Mk.s:28954  .debug_str:0000000000023329 .LASF1793
C:\Users\CYMR90~1\AppData\Local\Temp\ccf145Mk.s:30840  .debug_str:000000000002acfe .LASF1794
C:\Users\CYMR90~1\AppData\Local\Temp\ccf145Mk.s:30156  .debug_str:0000000000028397 .LASF1795
C:\Users\CYMR90~1\AppData\Local\Temp\ccf145Mk.s:24923  .debug_str:0000000000013478 .LASF1796
C:\Users\CYMR90~1\AppData\Local\Temp\ccf145Mk.s:25199  .debug_str:0000000000014510 .LASF1797
C:\Users\CYMR90~1\AppData\Local\Temp\ccf145Mk.s:24317  .debug_str:0000000000010cba .LASF1798
C:\Users\CYMR90~1\AppData\Local\Temp\ccf145Mk.s:23135  .debug_str:000000000000c15b .LASF1799
C:\Users\CYMR90~1\AppData\Local\Temp\ccf145Mk.s:25952  .debug_str:0000000000017654 .LASF1800
C:\Users\CYMR90~1\AppData\Local\Temp\ccf145Mk.s:26256  .debug_str:00000000000188b9 .LASF1801
C:\Users\CYMR90~1\AppData\Local\Temp\ccf145Mk.s:25335  .debug_str:0000000000014de9 .LASF1802
C:\Users\CYMR90~1\AppData\Local\Temp\ccf145Mk.s:24375  .debug_str:0000000000010fc9 .LASF1803
C:\Users\CYMR90~1\AppData\Local\Temp\ccf145Mk.s:23851  .debug_str:000000000000ede5 .LASF1804
C:\Users\CYMR90~1\AppData\Local\Temp\ccf145Mk.s:28534  .debug_str:0000000000021a95 .LASF1805
C:\Users\CYMR90~1\AppData\Local\Temp\ccf145Mk.s:25221  .debug_str:00000000000146b4 .LASF1806
C:\Users\CYMR90~1\AppData\Local\Temp\ccf145Mk.s:28136  .debug_str:00000000000201b3 .LASF1807
C:\Users\CYMR90~1\AppData\Local\Temp\ccf145Mk.s:25359  .debug_str:0000000000014f7f .LASF1808
C:\Users\CYMR90~1\AppData\Local\Temp\ccf145Mk.s:23037  .debug_str:000000000000ba8d .LASF1809
C:\Users\CYMR90~1\AppData\Local\Temp\ccf145Mk.s:27350  .debug_str:000000000001d1d6 .LASF1810
C:\Users\CYMR90~1\AppData\Local\Temp\ccf145Mk.s:26050  .debug_str:0000000000017c6d .LASF1811
C:\Users\CYMR90~1\AppData\Local\Temp\ccf145Mk.s:20459  .debug_str:00000000000015a0 .LASF1812
C:\Users\CYMR90~1\AppData\Local\Temp\ccf145Mk.s:24267  .debug_str:00000000000108da .LASF1813
C:\Users\CYMR90~1\AppData\Local\Temp\ccf145Mk.s:24535  .debug_str:0000000000011af8 .LASF1814
C:\Users\CYMR90~1\AppData\Local\Temp\ccf145Mk.s:27332  .debug_str:000000000001d0de .LASF1815
C:\Users\CYMR90~1\AppData\Local\Temp\ccf145Mk.s:26014  .debug_str:0000000000017a61 .LASF1816
C:\Users\CYMR90~1\AppData\Local\Temp\ccf145Mk.s:27340  .debug_str:000000000001d15c .LASF1817
C:\Users\CYMR90~1\AppData\Local\Temp\ccf145Mk.s:27788  .debug_str:000000000001ecb1 .LASF1818
C:\Users\CYMR90~1\AppData\Local\Temp\ccf145Mk.s:24075  .debug_str:000000000000fcb6 .LASF1819
C:\Users\CYMR90~1\AppData\Local\Temp\ccf145Mk.s:28276  .debug_str:0000000000020ae3 .LASF1820
C:\Users\CYMR90~1\AppData\Local\Temp\ccf145Mk.s:21715  .debug_str:00000000000063e4 .LASF1821
C:\Users\CYMR90~1\AppData\Local\Temp\ccf145Mk.s:22093  .debug_str:0000000000007cd4 .LASF1822
C:\Users\CYMR90~1\AppData\Local\Temp\ccf145Mk.s:27720  .debug_str:000000000001e92c .LASF1823
C:\Users\CYMR90~1\AppData\Local\Temp\ccf145Mk.s:30430  .debug_str:00000000000294a9 .LASF1824
C:\Users\CYMR90~1\AppData\Local\Temp\ccf145Mk.s:23007  .debug_str:000000000000b8e1 .LASF1825
C:\Users\CYMR90~1\AppData\Local\Temp\ccf145Mk.s:28374  .debug_str:0000000000021057 .LASF1826
C:\Users\CYMR90~1\AppData\Local\Temp\ccf145Mk.s:24011  .debug_str:000000000000f8c8 .LASF1827
C:\Users\CYMR90~1\AppData\Local\Temp\ccf145Mk.s:23823  .debug_str:000000000000ec62 .LASF1828
C:\Users\CYMR90~1\AppData\Local\Temp\ccf145Mk.s:23893  .debug_str:000000000000f08f .LASF1829
C:\Users\CYMR90~1\AppData\Local\Temp\ccf145Mk.s:24679  .debug_str:00000000000123f8 .LASF1830
C:\Users\CYMR90~1\AppData\Local\Temp\ccf145Mk.s:22461  .debug_str:00000000000094c1 .LASF1831
C:\Users\CYMR90~1\AppData\Local\Temp\ccf145Mk.s:29828  .debug_str:0000000000026cee .LASF1832
C:\Users\CYMR90~1\AppData\Local\Temp\ccf145Mk.s:23273  .debug_str:000000000000ca67 .LASF1833
C:\Users\CYMR90~1\AppData\Local\Temp\ccf145Mk.s:21915  .debug_str:000000000000711a .LASF1834
C:\Users\CYMR90~1\AppData\Local\Temp\ccf145Mk.s:25647  .debug_str:000000000001614d .LASF1835
C:\Users\CYMR90~1\AppData\Local\Temp\ccf145Mk.s:29694  .debug_str:00000000000264de .LASF1836
C:\Users\CYMR90~1\AppData\Local\Temp\ccf145Mk.s:25617  .debug_str:0000000000015f8d .LASF1837
C:\Users\CYMR90~1\AppData\Local\Temp\ccf145Mk.s:26344  .debug_str:0000000000018ed3 .LASF1838
C:\Users\CYMR90~1\AppData\Local\Temp\ccf145Mk.s:24321  .debug_str:0000000000010cf2 .LASF1839
C:\Users\CYMR90~1\AppData\Local\Temp\ccf145Mk.s:27288  .debug_str:000000000001cd71 .LASF1840
C:\Users\CYMR90~1\AppData\Local\Temp\ccf145Mk.s:26582  .debug_str:0000000000019ec4 .LASF1841
C:\Users\CYMR90~1\AppData\Local\Temp\ccf145Mk.s:29380  .debug_str:0000000000024f19 .LASF1842
C:\Users\CYMR90~1\AppData\Local\Temp\ccf145Mk.s:29782  .debug_str:0000000000026a57 .LASF1843
C:\Users\CYMR90~1\AppData\Local\Temp\ccf145Mk.s:30980  .debug_str:000000000002b5fa .LASF1844
C:\Users\CYMR90~1\AppData\Local\Temp\ccf145Mk.s:30834  .debug_str:000000000002acab .LASF1845
C:\Users\CYMR90~1\AppData\Local\Temp\ccf145Mk.s:22193  .debug_str:00000000000083ef .LASF1846
C:\Users\CYMR90~1\AppData\Local\Temp\ccf145Mk.s:27492  .debug_str:000000000001da95 .LASF1847
C:\Users\CYMR90~1\AppData\Local\Temp\ccf145Mk.s:28644  .debug_str:0000000000022117 .LASF1848
C:\Users\CYMR90~1\AppData\Local\Temp\ccf145Mk.s:28660  .debug_str:0000000000022210 .LASF1849
C:\Users\CYMR90~1\AppData\Local\Temp\ccf145Mk.s:27874  .debug_str:000000000001f207 .LASF1850
C:\Users\CYMR90~1\AppData\Local\Temp\ccf145Mk.s:22253  .debug_str:00000000000087ac .LASF1851
C:\Users\CYMR90~1\AppData\Local\Temp\ccf145Mk.s:29736  .debug_str:000000000002678c .LASF1852
C:\Users\CYMR90~1\AppData\Local\Temp\ccf145Mk.s:23511  .debug_str:000000000000d97c .LASF1853
C:\Users\CYMR90~1\AppData\Local\Temp\ccf145Mk.s:20905  .debug_str:000000000000311c .LASF1854
C:\Users\CYMR90~1\AppData\Local\Temp\ccf145Mk.s:27370  .debug_str:000000000001d31b .LASF1855
C:\Users\CYMR90~1\AppData\Local\Temp\ccf145Mk.s:30002  .debug_str:000000000002783d .LASF1856
C:\Users\CYMR90~1\AppData\Local\Temp\ccf145Mk.s:22339  .debug_str:0000000000008d6a .LASF1857
C:\Users\CYMR90~1\AppData\Local\Temp\ccf145Mk.s:23199  .debug_str:000000000000c55b .LASF1858
C:\Users\CYMR90~1\AppData\Local\Temp\ccf145Mk.s:30096  .debug_str:0000000000027e9d .LASF1859
C:\Users\CYMR90~1\AppData\Local\Temp\ccf145Mk.s:25365  .debug_str:0000000000014fe0 .LASF1860
C:\Users\CYMR90~1\AppData\Local\Temp\ccf145Mk.s:26286  .debug_str:0000000000018b1e .LASF1861
C:\Users\CYMR90~1\AppData\Local\Temp\ccf145Mk.s:24125  .debug_str:000000000000ffd4 .LASF1862
C:\Users\CYMR90~1\AppData\Local\Temp\ccf145Mk.s:21867  .debug_str:0000000000006d85 .LASF1863
C:\Users\CYMR90~1\AppData\Local\Temp\ccf145Mk.s:26196  .debug_str:00000000000184ef .LASF1864
C:\Users\CYMR90~1\AppData\Local\Temp\ccf145Mk.s:21519  .debug_str:0000000000005814 .LASF1865
C:\Users\CYMR90~1\AppData\Local\Temp\ccf145Mk.s:28844  .debug_str:0000000000022d29 .LASF1866
C:\Users\CYMR90~1\AppData\Local\Temp\ccf145Mk.s:28064  .debug_str:000000000001fdad .LASF1867
C:\Users\CYMR90~1\AppData\Local\Temp\ccf145Mk.s:23133  .debug_str:000000000000c12b .LASF1868
C:\Users\CYMR90~1\AppData\Local\Temp\ccf145Mk.s:20243  .debug_str:0000000000000884 .LASF1869
C:\Users\CYMR90~1\AppData\Local\Temp\ccf145Mk.s:20607  .debug_str:0000000000001e8d .LASF1870
C:\Users\CYMR90~1\AppData\Local\Temp\ccf145Mk.s:30380  .debug_str:00000000000291b2 .LASF1871
C:\Users\CYMR90~1\AppData\Local\Temp\ccf145Mk.s:29476  .debug_str:0000000000025691 .LASF1872
C:\Users\CYMR90~1\AppData\Local\Temp\ccf145Mk.s:25489  .debug_str:00000000000156ce .LASF1873
C:\Users\CYMR90~1\AppData\Local\Temp\ccf145Mk.s:22039  .debug_str:00000000000078e2 .LASF1874
C:\Users\CYMR90~1\AppData\Local\Temp\ccf145Mk.s:22921  .debug_str:000000000000b2b1 .LASF1875
C:\Users\CYMR90~1\AppData\Local\Temp\ccf145Mk.s:30556  .debug_str:0000000000029c38 .LASF1876
C:\Users\CYMR90~1\AppData\Local\Temp\ccf145Mk.s:20923  .debug_str:0000000000003238 .LASF1877
C:\Users\CYMR90~1\AppData\Local\Temp\ccf145Mk.s:27552  .debug_str:000000000001def5 .LASF1878
C:\Users\CYMR90~1\AppData\Local\Temp\ccf145Mk.s:23959  .debug_str:000000000000f527 .LASF1879
C:\Users\CYMR90~1\AppData\Local\Temp\ccf145Mk.s:22297  .debug_str:0000000000008a63 .LASF1880
C:\Users\CYMR90~1\AppData\Local\Temp\ccf145Mk.s:27856  .debug_str:000000000001f0f0 .LASF1881
C:\Users\CYMR90~1\AppData\Local\Temp\ccf145Mk.s:20357  .debug_str:0000000000000fb8 .LASF1882
C:\Users\CYMR90~1\AppData\Local\Temp\ccf145Mk.s:28264  .debug_str:0000000000020a0c .LASF1883
C:\Users\CYMR90~1\AppData\Local\Temp\ccf145Mk.s:30976  .debug_str:000000000002b5b2 .LASF1884
C:\Users\CYMR90~1\AppData\Local\Temp\ccf145Mk.s:27966  .debug_str:000000000001f787 .LASF1885
C:\Users\CYMR90~1\AppData\Local\Temp\ccf145Mk.s:30112  .debug_str:0000000000027f9d .LASF1886
C:\Users\CYMR90~1\AppData\Local\Temp\ccf145Mk.s:22517  .debug_str:0000000000009888 .LASF1887
C:\Users\CYMR90~1\AppData\Local\Temp\ccf145Mk.s:22329  .debug_str:0000000000008cc1 .LASF1888
C:\Users\CYMR90~1\AppData\Local\Temp\ccf145Mk.s:31008  .debug_str:000000000002b793 .LASF1889
C:\Users\CYMR90~1\AppData\Local\Temp\ccf145Mk.s:26434  .debug_str:00000000000194cf .LASF1890
C:\Users\CYMR90~1\AppData\Local\Temp\ccf145Mk.s:22509  .debug_str:00000000000097e2 .LASF1891
C:\Users\CYMR90~1\AppData\Local\Temp\ccf145Mk.s:22603  .debug_str:0000000000009dc6 .LASF1892
C:\Users\CYMR90~1\AppData\Local\Temp\ccf145Mk.s:27180  .debug_str:000000000001c521 .LASF1893
C:\Users\CYMR90~1\AppData\Local\Temp\ccf145Mk.s:22323  .debug_str:0000000000008c55 .LASF1894
C:\Users\CYMR90~1\AppData\Local\Temp\ccf145Mk.s:23577  .debug_str:000000000000dd84 .LASF1895
C:\Users\CYMR90~1\AppData\Local\Temp\ccf145Mk.s:25884  .debug_str:000000000001723a .LASF1896
C:\Users\CYMR90~1\AppData\Local\Temp\ccf145Mk.s:20559  .debug_str:0000000000001bad .LASF1897
C:\Users\CYMR90~1\AppData\Local\Temp\ccf145Mk.s:29852  .debug_str:0000000000026e9f .LASF1898
C:\Users\CYMR90~1\AppData\Local\Temp\ccf145Mk.s:26682  .debug_str:000000000001a613 .LASF1899
C:\Users\CYMR90~1\AppData\Local\Temp\ccf145Mk.s:23405  .debug_str:000000000000d314 .LASF1900
C:\Users\CYMR90~1\AppData\Local\Temp\ccf145Mk.s:20165  .debug_str:0000000000000408 .LASF1901
C:\Users\CYMR90~1\AppData\Local\Temp\ccf145Mk.s:20985  .debug_str:000000000000361d .LASF1902
C:\Users\CYMR90~1\AppData\Local\Temp\ccf145Mk.s:23031  .debug_str:000000000000ba0e .LASF1903
C:\Users\CYMR90~1\AppData\Local\Temp\ccf145Mk.s:31256  .debug_str:000000000002c809 .LASF1904
C:\Users\CYMR90~1\AppData\Local\Temp\ccf145Mk.s:25749  .debug_str:0000000000016819 .LASF1905
C:\Users\CYMR90~1\AppData\Local\Temp\ccf145Mk.s:22479  .debug_str:00000000000095a6 .LASF1906
C:\Users\CYMR90~1\AppData\Local\Temp\ccf145Mk.s:30190  .debug_str:00000000000285ad .LASF1907
C:\Users\CYMR90~1\AppData\Local\Temp\ccf145Mk.s:27218  .debug_str:000000000001c863 .LASF1908
C:\Users\CYMR90~1\AppData\Local\Temp\ccf145Mk.s:21507  .debug_str:000000000000574a .LASF1909
C:\Users\CYMR90~1\AppData\Local\Temp\ccf145Mk.s:30548  .debug_str:0000000000029bbb .LASF1910
C:\Users\CYMR90~1\AppData\Local\Temp\ccf145Mk.s:26858  .debug_str:000000000001b1d4 .LASF1911
C:\Users\CYMR90~1\AppData\Local\Temp\ccf145Mk.s:26536  .debug_str:0000000000019c19 .LASF1912
C:\Users\CYMR90~1\AppData\Local\Temp\ccf145Mk.s:22939  .debug_str:000000000000b43d .LASF1913
C:\Users\CYMR90~1\AppData\Local\Temp\ccf145Mk.s:22779  .debug_str:000000000000a944 .LASF1914
C:\Users\CYMR90~1\AppData\Local\Temp\ccf145Mk.s:28168  .debug_str:00000000000203d0 .LASF1915
C:\Users\CYMR90~1\AppData\Local\Temp\ccf145Mk.s:29452  .debug_str:00000000000254c0 .LASF1916
C:\Users\CYMR90~1\AppData\Local\Temp\ccf145Mk.s:26048  .debug_str:0000000000017c41 .LASF1917
C:\Users\CYMR90~1\AppData\Local\Temp\ccf145Mk.s:22677  .debug_str:000000000000a277 .LASF1918
C:\Users\CYMR90~1\AppData\Local\Temp\ccf145Mk.s:30604  .debug_str:0000000000029ee1 .LASF1919
C:\Users\CYMR90~1\AppData\Local\Temp\ccf145Mk.s:27190  .debug_str:000000000001c5eb .LASF1920
C:\Users\CYMR90~1\AppData\Local\Temp\ccf145Mk.s:22979  .debug_str:000000000000b6d2 .LASF1921
C:\Users\CYMR90~1\AppData\Local\Temp\ccf145Mk.s:21887  .debug_str:0000000000006efa .LASF1922
C:\Users\CYMR90~1\AppData\Local\Temp\ccf145Mk.s:28238  .debug_str:0000000000020880 .LASF1923
C:\Users\CYMR90~1\AppData\Local\Temp\ccf145Mk.s:30334  .debug_str:0000000000028ecf .LASF1924
C:\Users\CYMR90~1\AppData\Local\Temp\ccf145Mk.s:22799  .debug_str:000000000000aa97 .LASF1925
C:\Users\CYMR90~1\AppData\Local\Temp\ccf145Mk.s:28062  .debug_str:000000000001fd7f .LASF1926
C:\Users\CYMR90~1\AppData\Local\Temp\ccf145Mk.s:27084  .debug_str:000000000001bf67 .LASF1927
C:\Users\CYMR90~1\AppData\Local\Temp\ccf145Mk.s:21023  .debug_str:0000000000003881 .LASF1928
C:\Users\CYMR90~1\AppData\Local\Temp\ccf145Mk.s:21939  .debug_str:0000000000007279 .LASF1929
C:\Users\CYMR90~1\AppData\Local\Temp\ccf145Mk.s:27988  .debug_str:000000000001f8d5 .LASF1930
C:\Users\CYMR90~1\AppData\Local\Temp\ccf145Mk.s:31284  .debug_str:000000000002c9f4 .LASF1931
C:\Users\CYMR90~1\AppData\Local\Temp\ccf145Mk.s:30968  .debug_str:000000000002b518 .LASF1932
C:\Users\CYMR90~1\AppData\Local\Temp\ccf145Mk.s:22051  .debug_str:000000000000798c .LASF1933
C:\Users\CYMR90~1\AppData\Local\Temp\ccf145Mk.s:23113  .debug_str:000000000000bfea .LASF1934
C:\Users\CYMR90~1\AppData\Local\Temp\ccf145Mk.s:27162  .debug_str:000000000001c3e6 .LASF1935
C:\Users\CYMR90~1\AppData\Local\Temp\ccf145Mk.s:21549  .debug_str:0000000000005a0c .LASF1936
C:\Users\CYMR90~1\AppData\Local\Temp\ccf145Mk.s:27020  .debug_str:000000000001bb2e .LASF1937
C:\Users\CYMR90~1\AppData\Local\Temp\ccf145Mk.s:25996  .debug_str:0000000000017944 .LASF1938
C:\Users\CYMR90~1\AppData\Local\Temp\ccf145Mk.s:25315  .debug_str:0000000000014c75 .LASF1939
C:\Users\CYMR90~1\AppData\Local\Temp\ccf145Mk.s:22237  .debug_str:000000000000867a .LASF1940
C:\Users\CYMR90~1\AppData\Local\Temp\ccf145Mk.s:30398  .debug_str:00000000000292e6 .LASF1941
C:\Users\CYMR90~1\AppData\Local\Temp\ccf145Mk.s:27270  .debug_str:000000000001cbb4 .LASF1942
C:\Users\CYMR90~1\AppData\Local\Temp\ccf145Mk.s:23169  .debug_str:000000000000c365 .LASF1943
C:\Users\CYMR90~1\AppData\Local\Temp\ccf145Mk.s:24303  .debug_str:0000000000010b6c .LASF1944
C:\Users\CYMR90~1\AppData\Local\Temp\ccf145Mk.s:28098  .debug_str:000000000001ffbf .LASF1945
C:\Users\CYMR90~1\AppData\Local\Temp\ccf145Mk.s:25031  .debug_str:0000000000013b17 .LASF1946
C:\Users\CYMR90~1\AppData\Local\Temp\ccf145Mk.s:21833  .debug_str:0000000000006b6f .LASF1947
C:\Users\CYMR90~1\AppData\Local\Temp\ccf145Mk.s:20761  .debug_str:00000000000027df .LASF1948
C:\Users\CYMR90~1\AppData\Local\Temp\ccf145Mk.s:26910  .debug_str:000000000001b4d2 .LASF1949
C:\Users\CYMR90~1\AppData\Local\Temp\ccf145Mk.s:23841  .debug_str:000000000000ed45 .LASF1950
C:\Users\CYMR90~1\AppData\Local\Temp\ccf145Mk.s:20629  .debug_str:0000000000001fa5 .LASF1951
C:\Users\CYMR90~1\AppData\Local\Temp\ccf145Mk.s:28860  .debug_str:0000000000022dfa .LASF1952
C:\Users\CYMR90~1\AppData\Local\Temp\ccf145Mk.s:29588  .debug_str:0000000000025e3b .LASF1953
C:\Users\CYMR90~1\AppData\Local\Temp\ccf145Mk.s:25157  .debug_str:00000000000142ce .LASF1954
C:\Users\CYMR90~1\AppData\Local\Temp\ccf145Mk.s:28388  .debug_str:000000000002112c .LASF1955
C:\Users\CYMR90~1\AppData\Local\Temp\ccf145Mk.s:29058  .debug_str:00000000000239e1 .LASF1956
C:\Users\CYMR90~1\AppData\Local\Temp\ccf145Mk.s:20683  .debug_str:00000000000022c3 .LASF1957
C:\Users\CYMR90~1\AppData\Local\Temp\ccf145Mk.s:30806  .debug_str:000000000002ab1d .LASF1958
C:\Users\CYMR90~1\AppData\Local\Temp\ccf145Mk.s:22057  .debug_str:00000000000079fd .LASF1959
C:\Users\CYMR90~1\AppData\Local\Temp\ccf145Mk.s:30382  .debug_str:00000000000291f1 .LASF1960
C:\Users\CYMR90~1\AppData\Local\Temp\ccf145Mk.s:27226  .debug_str:000000000001c8f8 .LASF1961
C:\Users\CYMR90~1\AppData\Local\Temp\ccf145Mk.s:20205  .debug_str:000000000000062d .LASF1962
C:\Users\CYMR90~1\AppData\Local\Temp\ccf145Mk.s:25535  .debug_str:0000000000015991 .LASF1963
C:\Users\CYMR90~1\AppData\Local\Temp\ccf145Mk.s:29434  .debug_str:0000000000025373 .LASF1964
C:\Users\CYMR90~1\AppData\Local\Temp\ccf145Mk.s:21891  .debug_str:0000000000006f65 .LASF1965
C:\Users\CYMR90~1\AppData\Local\Temp\ccf145Mk.s:27360  .debug_str:000000000001d25f .LASF1966
C:\Users\CYMR90~1\AppData\Local\Temp\ccf145Mk.s:30906  .debug_str:000000000002b0d6 .LASF1967
C:\Users\CYMR90~1\AppData\Local\Temp\ccf145Mk.s:27204  .debug_str:000000000001c77a .LASF1968
C:\Users\CYMR90~1\AppData\Local\Temp\ccf145Mk.s:28746  .debug_str:0000000000022733 .LASF1969
C:\Users\CYMR90~1\AppData\Local\Temp\ccf145Mk.s:21875  .debug_str:0000000000006e28 .LASF1970
C:\Users\CYMR90~1\AppData\Local\Temp\ccf145Mk.s:28750  .debug_str:0000000000022764 .LASF1971
C:\Users\CYMR90~1\AppData\Local\Temp\ccf145Mk.s:29468  .debug_str:00000000000255e7 .LASF1972
C:\Users\CYMR90~1\AppData\Local\Temp\ccf145Mk.s:26524  .debug_str:0000000000019b59 .LASF1973
C:\Users\CYMR90~1\AppData\Local\Temp\ccf145Mk.s:26328  .debug_str:0000000000018ddd .LASF1974
C:\Users\CYMR90~1\AppData\Local\Temp\ccf145Mk.s:30854  .debug_str:000000000002adf6 .LASF1975
C:\Users\CYMR90~1\AppData\Local\Temp\ccf145Mk.s:22075  .debug_str:0000000000007ba9 .LASF1976
C:\Users\CYMR90~1\AppData\Local\Temp\ccf145Mk.s:22427  .debug_str:000000000000926b .LASF1977
C:\Users\CYMR90~1\AppData\Local\Temp\ccf145Mk.s:30626  .debug_str:000000000002a023 .LASF1978
C:\Users\CYMR90~1\AppData\Local\Temp\ccf145Mk.s:21371  .debug_str:0000000000004f74 .LASF1979
C:\Users\CYMR90~1\AppData\Local\Temp\ccf145Mk.s:29370  .debug_str:0000000000024e71 .LASF1980
C:\Users\CYMR90~1\AppData\Local\Temp\ccf145Mk.s:29226  .debug_str:00000000000244ef .LASF1981
C:\Users\CYMR90~1\AppData\Local\Temp\ccf145Mk.s:29066  .debug_str:0000000000023a68 .LASF1982
C:\Users\CYMR90~1\AppData\Local\Temp\ccf145Mk.s:29900  .debug_str:000000000002715d .LASF1983
C:\Users\CYMR90~1\AppData\Local\Temp\ccf145Mk.s:30810  .debug_str:000000000002ab73 .LASF1984
C:\Users\CYMR90~1\AppData\Local\Temp\ccf145Mk.s:27750  .debug_str:000000000001ea9e .LASF1985
C:\Users\CYMR90~1\AppData\Local\Temp\ccf145Mk.s:26940  .debug_str:000000000001b6bd .LASF1986
C:\Users\CYMR90~1\AppData\Local\Temp\ccf145Mk.s:25231  .debug_str:000000000001473d .LASF1987
C:\Users\CYMR90~1\AppData\Local\Temp\ccf145Mk.s:26224  .debug_str:000000000001868b .LASF1988
C:\Users\CYMR90~1\AppData\Local\Temp\ccf145Mk.s:23267  .debug_str:000000000000ca0d .LASF1989
C:\Users\CYMR90~1\AppData\Local\Temp\ccf145Mk.s:22289  .debug_str:00000000000089f2 .LASF1990
C:\Users\CYMR90~1\AppData\Local\Temp\ccf145Mk.s:23329  .debug_str:000000000000cd75 .LASF1991
C:\Users\CYMR90~1\AppData\Local\Temp\ccf145Mk.s:26576  .debug_str:0000000000019e55 .LASF1992
C:\Users\CYMR90~1\AppData\Local\Temp\ccf145Mk.s:26944  .debug_str:000000000001b704 .LASF1993
C:\Users\CYMR90~1\AppData\Local\Temp\ccf145Mk.s:20353  .debug_str:0000000000000f88 .LASF1994
C:\Users\CYMR90~1\AppData\Local\Temp\ccf145Mk.s:29484  .debug_str:0000000000025725 .LASF1995
C:\Users\CYMR90~1\AppData\Local\Temp\ccf145Mk.s:20983  .debug_str:00000000000035e9 .LASF1996
C:\Users\CYMR90~1\AppData\Local\Temp\ccf145Mk.s:29950  .debug_str:0000000000027557 .LASF1997
C:\Users\CYMR90~1\AppData\Local\Temp\ccf145Mk.s:22209  .debug_str:00000000000084bf .LASF1998
C:\Users\CYMR90~1\AppData\Local\Temp\ccf145Mk.s:26152  .debug_str:0000000000018267 .LASF1999
C:\Users\CYMR90~1\AppData\Local\Temp\ccf145Mk.s:25635  .debug_str:00000000000160a2 .LASF2000
C:\Users\CYMR90~1\AppData\Local\Temp\ccf145Mk.s:24463  .debug_str:0000000000011542 .LASF2001
C:\Users\CYMR90~1\AppData\Local\Temp\ccf145Mk.s:28756  .debug_str:00000000000227c9 .LASF2002
C:\Users\CYMR90~1\AppData\Local\Temp\ccf145Mk.s:30168  .debug_str:0000000000028460 .LASF2003
C:\Users\CYMR90~1\AppData\Local\Temp\ccf145Mk.s:24015  .debug_str:000000000000f8ea .LASF2004
C:\Users\CYMR90~1\AppData\Local\Temp\ccf145Mk.s:28646  .debug_str:0000000000022132 .LASF2005
C:\Users\CYMR90~1\AppData\Local\Temp\ccf145Mk.s:25844  .debug_str:0000000000017018 .LASF2006
C:\Users\CYMR90~1\AppData\Local\Temp\ccf145Mk.s:31060  .debug_str:000000000002bb27 .LASF2007
C:\Users\CYMR90~1\AppData\Local\Temp\ccf145Mk.s:21417  .debug_str:000000000000524f .LASF2008
C:\Users\CYMR90~1\AppData\Local\Temp\ccf145Mk.s:24961  .debug_str:00000000000136e6 .LASF2009
C:\Users\CYMR90~1\AppData\Local\Temp\ccf145Mk.s:27644  .debug_str:000000000001e45f .LASF2010
C:\Users\CYMR90~1\AppData\Local\Temp\ccf145Mk.s:23295  .debug_str:000000000000cba3 .LASF2011
C:\Users\CYMR90~1\AppData\Local\Temp\ccf145Mk.s:20541  .debug_str:0000000000001aaf .LASF2012
C:\Users\CYMR90~1\AppData\Local\Temp\ccf145Mk.s:28940  .debug_str:0000000000023270 .LASF2013
C:\Users\CYMR90~1\AppData\Local\Temp\ccf145Mk.s:28698  .debug_str:00000000000223fe .LASF2014
C:\Users\CYMR90~1\AppData\Local\Temp\ccf145Mk.s:26662  .debug_str:000000000001a4ce .LASF2015
C:\Users\CYMR90~1\AppData\Local\Temp\ccf145Mk.s:30536  .debug_str:0000000000029b07 .LASF2016
C:\Users\CYMR90~1\AppData\Local\Temp\ccf145Mk.s:28852  .debug_str:0000000000022da3 .LASF2017
C:\Users\CYMR90~1\AppData\Local\Temp\ccf145Mk.s:30970  .debug_str:000000000002b548 .LASF2018
C:\Users\CYMR90~1\AppData\Local\Temp\ccf145Mk.s:27402  .debug_str:000000000001d4ec .LASF2019
C:\Users\CYMR90~1\AppData\Local\Temp\ccf145Mk.s:21773  .debug_str:000000000000679c .LASF2020
C:\Users\CYMR90~1\AppData\Local\Temp\ccf145Mk.s:28894  .debug_str:0000000000022fe4 .LASF2021
C:\Users\CYMR90~1\AppData\Local\Temp\ccf145Mk.s:29890  .debug_str:00000000000270df .LASF2022
C:\Users\CYMR90~1\AppData\Local\Temp\ccf145Mk.s:24347  .debug_str:0000000000010e3c .LASF2023
C:\Users\CYMR90~1\AppData\Local\Temp\ccf145Mk.s:29830  .debug_str:0000000000026d03 .LASF2024
C:\Users\CYMR90~1\AppData\Local\Temp\ccf145Mk.s:23005  .debug_str:000000000000b8c6 .LASF2025
C:\Users\CYMR90~1\AppData\Local\Temp\ccf145Mk.s:30920  .debug_str:000000000002b1b4 .LASF2026
C:\Users\CYMR90~1\AppData\Local\Temp\ccf145Mk.s:20949  .debug_str:00000000000033e8 .LASF2027
C:\Users\CYMR90~1\AppData\Local\Temp\ccf145Mk.s:28952  .debug_str:000000000002330b .LASF2028
C:\Users\CYMR90~1\AppData\Local\Temp\ccf145Mk.s:27954  .debug_str:000000000001f6b3 .LASF2029
C:\Users\CYMR90~1\AppData\Local\Temp\ccf145Mk.s:20115  .debug_str:00000000000000ff .LASF2030
C:\Users\CYMR90~1\AppData\Local\Temp\ccf145Mk.s:26052  .debug_str:0000000000017c82 .LASF2031
C:\Users\CYMR90~1\AppData\Local\Temp\ccf145Mk.s:22771  .debug_str:000000000000a8dd .LASF2032
C:\Users\CYMR90~1\AppData\Local\Temp\ccf145Mk.s:23977  .debug_str:000000000000f6dc .LASF2033
C:\Users\CYMR90~1\AppData\Local\Temp\ccf145Mk.s:22983  .debug_str:000000000000b715 .LASF2034
C:\Users\CYMR90~1\AppData\Local\Temp\ccf145Mk.s:24533  .debug_str:0000000000011adb .LASF2035
C:\Users\CYMR90~1\AppData\Local\Temp\ccf145Mk.s:28422  .debug_str:00000000000213bf .LASF2036
C:\Users\CYMR90~1\AppData\Local\Temp\ccf145Mk.s:28830  .debug_str:0000000000022c5c .LASF2037
C:\Users\CYMR90~1\AppData\Local\Temp\ccf145Mk.s:29414  .debug_str:000000000002518d .LASF2038
C:\Users\CYMR90~1\AppData\Local\Temp\ccf145Mk.s:24627  .debug_str:00000000000120ba .LASF2039
C:\Users\CYMR90~1\AppData\Local\Temp\ccf145Mk.s:26602  .debug_str:0000000000019fea .LASF2040
C:\Users\CYMR90~1\AppData\Local\Temp\ccf145Mk.s:23323  .debug_str:000000000000cd07 .LASF2041
C:\Users\CYMR90~1\AppData\Local\Temp\ccf145Mk.s:20769  .debug_str:0000000000002852 .LASF2042
C:\Users\CYMR90~1\AppData\Local\Temp\ccf145Mk.s:21509  .debug_str:0000000000005788 .LASF2043
C:\Users\CYMR90~1\AppData\Local\Temp\ccf145Mk.s:31334  .debug_str:000000000002cd7a .LASF2044
C:\Users\CYMR90~1\AppData\Local\Temp\ccf145Mk.s:24929  .debug_str:00000000000134d1 .LASF2045
C:\Users\CYMR90~1\AppData\Local\Temp\ccf145Mk.s:28714  .debug_str:000000000002250a .LASF2046
C:\Users\CYMR90~1\AppData\Local\Temp\ccf145Mk.s:30346  .debug_str:0000000000028fa6 .LASF2047
C:\Users\CYMR90~1\AppData\Local\Temp\ccf145Mk.s:27066  .debug_str:000000000001be4e .LASF2048
C:\Users\CYMR90~1\AppData\Local\Temp\ccf145Mk.s:27602  .debug_str:000000000001e1cb .LASF2049
C:\Users\CYMR90~1\AppData\Local\Temp\ccf145Mk.s:21571  .debug_str:0000000000005b54 .LASF2050
C:\Users\CYMR90~1\AppData\Local\Temp\ccf145Mk.s:20935  .debug_str:00000000000032ee .LASF2051
C:\Users\CYMR90~1\AppData\Local\Temp\ccf145Mk.s:22887  .debug_str:000000000000b0d3 .LASF2052
C:\Users\CYMR90~1\AppData\Local\Temp\ccf145Mk.s:29450  .debug_str:0000000000025479 .LASF2053
C:\Users\CYMR90~1\AppData\Local\Temp\ccf145Mk.s:30766  .debug_str:000000000002a8d2 .LASF2054
C:\Users\CYMR90~1\AppData\Local\Temp\ccf145Mk.s:21381  .debug_str:000000000000501c .LASF2055
C:\Users\CYMR90~1\AppData\Local\Temp\ccf145Mk.s:29786  .debug_str:0000000000026a8e .LASF2056
C:\Users\CYMR90~1\AppData\Local\Temp\ccf145Mk.s:27766  .debug_str:000000000001eb96 .LASF2057
C:\Users\CYMR90~1\AppData\Local\Temp\ccf145Mk.s:25904  .debug_str:0000000000017362 .LASF2058
C:\Users\CYMR90~1\AppData\Local\Temp\ccf145Mk.s:22761  .debug_str:000000000000a834 .LASF2059
C:\Users\CYMR90~1\AppData\Local\Temp\ccf145Mk.s:23569  .debug_str:000000000000dd1f .LASF2060
C:\Users\CYMR90~1\AppData\Local\Temp\ccf145Mk.s:28224  .debug_str:00000000000207cb .LASF2061
C:\Users\CYMR90~1\AppData\Local\Temp\ccf145Mk.s:25061  .debug_str:0000000000013cc3 .LASF2062
C:\Users\CYMR90~1\AppData\Local\Temp\ccf145Mk.s:20741  .debug_str:000000000000266f .LASF2063
C:\Users\CYMR90~1\AppData\Local\Temp\ccf145Mk.s:26802  .debug_str:000000000001ade3 .LASF2064
C:\Users\CYMR90~1\AppData\Local\Temp\ccf145Mk.s:25667  .debug_str:0000000000016290 .LASF2065
C:\Users\CYMR90~1\AppData\Local\Temp\ccf145Mk.s:22443  .debug_str:000000000000934b .LASF2066
C:\Users\CYMR90~1\AppData\Local\Temp\ccf145Mk.s:22915  .debug_str:000000000000b253 .LASF2067
C:\Users\CYMR90~1\AppData\Local\Temp\ccf145Mk.s:26002  .debug_str:00000000000179a5 .LASF2068
C:\Users\CYMR90~1\AppData\Local\Temp\ccf145Mk.s:25609  .debug_str:0000000000015eec .LASF2069
C:\Users\CYMR90~1\AppData\Local\Temp\ccf145Mk.s:23459  .debug_str:000000000000d668 .LASF2070
C:\Users\CYMR90~1\AppData\Local\Temp\ccf145Mk.s:21543  .debug_str:00000000000059c5 .LASF2071
C:\Users\CYMR90~1\AppData\Local\Temp\ccf145Mk.s:24785  .debug_str:0000000000012b0e .LASF2072
C:\Users\CYMR90~1\AppData\Local\Temp\ccf145Mk.s:23801  .debug_str:000000000000eb43 .LASF2073
C:\Users\CYMR90~1\AppData\Local\Temp\ccf145Mk.s:23047  .debug_str:000000000000bb41 .LASF2074
C:\Users\CYMR90~1\AppData\Local\Temp\ccf145Mk.s:31138  .debug_str:000000000002c067 .LASF2075
C:\Users\CYMR90~1\AppData\Local\Temp\ccf145Mk.s:22315  .debug_str:0000000000008be9 .LASF2076
C:\Users\CYMR90~1\AppData\Local\Temp\ccf145Mk.s:30422  .debug_str:000000000002942e .LASF2077
C:\Users\CYMR90~1\AppData\Local\Temp\ccf145Mk.s:21395  .debug_str:00000000000050ed .LASF2078
C:\Users\CYMR90~1\AppData\Local\Temp\ccf145Mk.s:20509  .debug_str:00000000000018b8 .LASF2079
C:\Users\CYMR90~1\AppData\Local\Temp\ccf145Mk.s:28982  .debug_str:0000000000023525 .LASF2080
C:\Users\CYMR90~1\AppData\Local\Temp\ccf145Mk.s:30310  .debug_str:0000000000028d6c .LASF2081
C:\Users\CYMR90~1\AppData\Local\Temp\ccf145Mk.s:30400  .debug_str:000000000002930e .LASF2082
C:\Users\CYMR90~1\AppData\Local\Temp\ccf145Mk.s:24653  .debug_str:0000000000012236 .LASF2083
C:\Users\CYMR90~1\AppData\Local\Temp\ccf145Mk.s:22097  .debug_str:0000000000007d14 .LASF2084
C:\Users\CYMR90~1\AppData\Local\Temp\ccf145Mk.s:28866  .debug_str:0000000000022e58 .LASF2085
C:\Users\CYMR90~1\AppData\Local\Temp\ccf145Mk.s:20405  .debug_str:000000000000126a .LASF2086
C:\Users\CYMR90~1\AppData\Local\Temp\ccf145Mk.s:20257  .debug_str:0000000000000960 .LASF2087
C:\Users\CYMR90~1\AppData\Local\Temp\ccf145Mk.s:26862  .debug_str:000000000001b21a .LASF2088
C:\Users\CYMR90~1\AppData\Local\Temp\ccf145Mk.s:27924  .debug_str:000000000001f512 .LASF2089
C:\Users\CYMR90~1\AppData\Local\Temp\ccf145Mk.s:25830  .debug_str:0000000000016f50 .LASF2090
C:\Users\CYMR90~1\AppData\Local\Temp\ccf145Mk.s:24589  .debug_str:0000000000011e25 .LASF2091
C:\Users\CYMR90~1\AppData\Local\Temp\ccf145Mk.s:25932  .debug_str:0000000000017516 .LASF2092
C:\Users\CYMR90~1\AppData\Local\Temp\ccf145Mk.s:25089  .debug_str:0000000000013e74 .LASF2093
C:\Users\CYMR90~1\AppData\Local\Temp\ccf145Mk.s:20927  .debug_str:000000000000327a .LASF2094
C:\Users\CYMR90~1\AppData\Local\Temp\ccf145Mk.s:21141  .debug_str:000000000000408f .LASF2095
C:\Users\CYMR90~1\AppData\Local\Temp\ccf145Mk.s:22557  .debug_str:0000000000009add .LASF2096
C:\Users\CYMR90~1\AppData\Local\Temp\ccf145Mk.s:20901  .debug_str:00000000000030b9 .LASF2097
C:\Users\CYMR90~1\AppData\Local\Temp\ccf145Mk.s:29598  .debug_str:0000000000025ed9 .LASF2098
C:\Users\CYMR90~1\AppData\Local\Temp\ccf145Mk.s:24137  .debug_str:00000000000100be .LASF2099
C:\Users\CYMR90~1\AppData\Local\Temp\ccf145Mk.s:22923  .debug_str:000000000000b2da .LASF2100
C:\Users\CYMR90~1\AppData\Local\Temp\ccf145Mk.s:21713  .debug_str:00000000000063c1 .LASF2101
C:\Users\CYMR90~1\AppData\Local\Temp\ccf145Mk.s:20817  .debug_str:0000000000002b73 .LASF2102
C:\Users\CYMR90~1\AppData\Local\Temp\ccf145Mk.s:22595  .debug_str:0000000000009d1f .LASF2103
C:\Users\CYMR90~1\AppData\Local\Temp\ccf145Mk.s:31090  .debug_str:000000000002bd03 .LASF2104
C:\Users\CYMR90~1\AppData\Local\Temp\ccf145Mk.s:25930  .debug_str:00000000000174f2 .LASF2105
C:\Users\CYMR90~1\AppData\Local\Temp\ccf145Mk.s:20919  .debug_str:00000000000031e0 .LASF2106
C:\Users\CYMR90~1\AppData\Local\Temp\ccf145Mk.s:30370  .debug_str:0000000000029139 .LASF2107
C:\Users\CYMR90~1\AppData\Local\Temp\ccf145Mk.s:24621  .debug_str:0000000000012040 .LASF2108
C:\Users\CYMR90~1\AppData\Local\Temp\ccf145Mk.s:20939  .debug_str:000000000000332c .LASF2109
C:\Users\CYMR90~1\AppData\Local\Temp\ccf145Mk.s:23369  .debug_str:000000000000d02a .LASF2110
C:\Users\CYMR90~1\AppData\Local\Temp\ccf145Mk.s:25878  .debug_str:00000000000171de .LASF2111
C:\Users\CYMR90~1\AppData\Local\Temp\ccf145Mk.s:27944  .debug_str:000000000001f62d .LASF2112
C:\Users\CYMR90~1\AppData\Local\Temp\ccf145Mk.s:30530  .debug_str:0000000000029aad .LASF2113
C:\Users\CYMR90~1\AppData\Local\Temp\ccf145Mk.s:29934  .debug_str:000000000002744f .LASF2114
C:\Users\CYMR90~1\AppData\Local\Temp\ccf145Mk.s:24983  .debug_str:000000000001381e .LASF2115
C:\Users\CYMR90~1\AppData\Local\Temp\ccf145Mk.s:26792  .debug_str:000000000001ad1e .LASF2116
C:\Users\CYMR90~1\AppData\Local\Temp\ccf145Mk.s:25169  .debug_str:000000000001436b .LASF2117
C:\Users\CYMR90~1\AppData\Local\Temp\ccf145Mk.s:29218  .debug_str:0000000000024480 .LASF2118
C:\Users\CYMR90~1\AppData\Local\Temp\ccf145Mk.s:27884  .debug_str:000000000001f2a6 .LASF2119
C:\Users\CYMR90~1\AppData\Local\Temp\ccf145Mk.s:20773  .debug_str:0000000000002889 .LASF2120
C:\Users\CYMR90~1\AppData\Local\Temp\ccf145Mk.s:28326  .debug_str:0000000000020dcb .LASF2121
C:\Users\CYMR90~1\AppData\Local\Temp\ccf145Mk.s:22167  .debug_str:000000000000823d .LASF2122
C:\Users\CYMR90~1\AppData\Local\Temp\ccf145Mk.s:25029  .debug_str:0000000000013af3 .LASF2123
C:\Users\CYMR90~1\AppData\Local\Temp\ccf145Mk.s:27628  .debug_str:000000000001e362 .LASF2124
C:\Users\CYMR90~1\AppData\Local\Temp\ccf145Mk.s:24881  .debug_str:0000000000013145 .LASF2125
C:\Users\CYMR90~1\AppData\Local\Temp\ccf145Mk.s:25994  .debug_str:000000000001791d .LASF2126
C:\Users\CYMR90~1\AppData\Local\Temp\ccf145Mk.s:29914  .debug_str:0000000000027268 .LASF2127
C:\Users\CYMR90~1\AppData\Local\Temp\ccf145Mk.s:28436  .debug_str:0000000000021495 .LASF2128
C:\Users\CYMR90~1\AppData\Local\Temp\ccf145Mk.s:24343  .debug_str:0000000000010e01 .LASF2129
C:\Users\CYMR90~1\AppData\Local\Temp\ccf145Mk.s:28344  .debug_str:0000000000020eba .LASF2130
C:\Users\CYMR90~1\AppData\Local\Temp\ccf145Mk.s:26214  .debug_str:00000000000185de .LASF2131
C:\Users\CYMR90~1\AppData\Local\Temp\ccf145Mk.s:28164  .debug_str:000000000002038b .LASF2132
C:\Users\CYMR90~1\AppData\Local\Temp\ccf145Mk.s:24527  .debug_str:0000000000011a65 .LASF2133
C:\Users\CYMR90~1\AppData\Local\Temp\ccf145Mk.s:27214  .debug_str:000000000001c831 .LASF2134
C:\Users\CYMR90~1\AppData\Local\Temp\ccf145Mk.s:20653  .debug_str:00000000000020fa .LASF2135
C:\Users\CYMR90~1\AppData\Local\Temp\ccf145Mk.s:26376  .debug_str:000000000001916f .LASF2136
C:\Users\CYMR90~1\AppData\Local\Temp\ccf145Mk.s:30634  .debug_str:000000000002a0b2 .LASF2137
C:\Users\CYMR90~1\AppData\Local\Temp\ccf145Mk.s:22169  .debug_str:0000000000008262 .LASF2138
C:\Users\CYMR90~1\AppData\Local\Temp\ccf145Mk.s:28528  .debug_str:0000000000021a37 .LASF2139
C:\Users\CYMR90~1\AppData\Local\Temp\ccf145Mk.s:24439  .debug_str:00000000000113b0 .LASF2140
C:\Users\CYMR90~1\AppData\Local\Temp\ccf145Mk.s:23919  .debug_str:000000000000f248 .LASF2141
C:\Users\CYMR90~1\AppData\Local\Temp\ccf145Mk.s:27902  .debug_str:000000000001f3d2 .LASF2142
C:\Users\CYMR90~1\AppData\Local\Temp\ccf145Mk.s:28458  .debug_str:00000000000215d7 .LASF2143
C:\Users\CYMR90~1\AppData\Local\Temp\ccf145Mk.s:24717  .debug_str:000000000001267c .LASF2144
C:\Users\CYMR90~1\AppData\Local\Temp\ccf145Mk.s:20941  .debug_str:0000000000003353 .LASF2145
C:\Users\CYMR90~1\AppData\Local\Temp\ccf145Mk.s:20121  .debug_str:0000000000000148 .LASF2146
C:\Users\CYMR90~1\AppData\Local\Temp\ccf145Mk.s:20533  .debug_str:0000000000001a13 .LASF2147
C:\Users\CYMR90~1\AppData\Local\Temp\ccf145Mk.s:25938  .debug_str:000000000001756c .LASF2148
C:\Users\CYMR90~1\AppData\Local\Temp\ccf145Mk.s:25397  .debug_str:00000000000151d8 .LASF2149
C:\Users\CYMR90~1\AppData\Local\Temp\ccf145Mk.s:29936  .debug_str:0000000000027476 .LASF2150
C:\Users\CYMR90~1\AppData\Local\Temp\ccf145Mk.s:24985  .debug_str:0000000000013845 .LASF2151
C:\Users\CYMR90~1\AppData\Local\Temp\ccf145Mk.s:23537  .debug_str:000000000000dac9 .LASF2152
C:\Users\CYMR90~1\AppData\Local\Temp\ccf145Mk.s:30486  .debug_str:0000000000029850 .LASF2153
C:\Users\CYMR90~1\AppData\Local\Temp\ccf145Mk.s:25711  .debug_str:000000000001658b .LASF2154
C:\Users\CYMR90~1\AppData\Local\Temp\ccf145Mk.s:20463  .debug_str:00000000000015f0 .LASF2155
C:\Users\CYMR90~1\AppData\Local\Temp\ccf145Mk.s:21011  .debug_str:00000000000037db .LASF2156
C:\Users\CYMR90~1\AppData\Local\Temp\ccf145Mk.s:29902  .debug_str:0000000000027180 .LASF2157
C:\Users\CYMR90~1\AppData\Local\Temp\ccf145Mk.s:24377  .debug_str:0000000000010fed .LASF2158
C:\Users\CYMR90~1\AppData\Local\Temp\ccf145Mk.s:26278  .debug_str:0000000000018a1f .LASF2159
C:\Users\CYMR90~1\AppData\Local\Temp\ccf145Mk.s:29704  .debug_str:0000000000026590 .LASF2160
C:\Users\CYMR90~1\AppData\Local\Temp\ccf145Mk.s:22343  .debug_str:0000000000008dac .LASF2161
C:\Users\CYMR90~1\AppData\Local\Temp\ccf145Mk.s:30616  .debug_str:0000000000029fa0 .LASF2162
C:\Users\CYMR90~1\AppData\Local\Temp\ccf145Mk.s:31322  .debug_str:000000000002cc58 .LASF2163
C:\Users\CYMR90~1\AppData\Local\Temp\ccf145Mk.s:21045  .debug_str:0000000000003a0a .LASF2164
C:\Users\CYMR90~1\AppData\Local\Temp\ccf145Mk.s:28962  .debug_str:00000000000233a7 .LASF2165
C:\Users\CYMR90~1\AppData\Local\Temp\ccf145Mk.s:26360  .debug_str:00000000000190a8 .LASF2166
C:\Users\CYMR90~1\AppData\Local\Temp\ccf145Mk.s:23913  .debug_str:000000000000f1f1 .LASF2167
C:\Users\CYMR90~1\AppData\Local\Temp\ccf145Mk.s:22201  .debug_str:000000000000844a .LASF2168
C:\Users\CYMR90~1\AppData\Local\Temp\ccf145Mk.s:27456  .debug_str:000000000001d88f .LASF2169
C:\Users\CYMR90~1\AppData\Local\Temp\ccf145Mk.s:25657  .debug_str:00000000000161f8 .LASF2170
C:\Users\CYMR90~1\AppData\Local\Temp\ccf145Mk.s:23689  .debug_str:000000000000e41d .LASF2171
C:\Users\CYMR90~1\AppData\Local\Temp\ccf145Mk.s:23829  .debug_str:000000000000eca4 .LASF2172
C:\Users\CYMR90~1\AppData\Local\Temp\ccf145Mk.s:27906  .debug_str:000000000001f409 .LASF2173
C:\Users\CYMR90~1\AppData\Local\Temp\ccf145Mk.s:25597  .debug_str:0000000000015e0f .LASF2174
C:\Users\CYMR90~1\AppData\Local\Temp\ccf145Mk.s:24583  .debug_str:0000000000011de3 .LASF2175
C:\Users\CYMR90~1\AppData\Local\Temp\ccf145Mk.s:27696  .debug_str:000000000001e7b2 .LASF2176
C:\Users\CYMR90~1\AppData\Local\Temp\ccf145Mk.s:22925  .debug_str:000000000000b2e9 .LASF2177
C:\Users\CYMR90~1\AppData\Local\Temp\ccf145Mk.s:28606  .debug_str:0000000000021ed1 .LASF2178
C:\Users\CYMR90~1\AppData\Local\Temp\ccf145Mk.s:23551  .debug_str:000000000000dbc2 .LASF2179
C:\Users\CYMR90~1\AppData\Local\Temp\ccf145Mk.s:22047  .debug_str:0000000000007956 .LASF2180
C:\Users\CYMR90~1\AppData\Local\Temp\ccf145Mk.s:29618  .debug_str:0000000000026041 .LASF2181
C:\Users\CYMR90~1\AppData\Local\Temp\ccf145Mk.s:23721  .debug_str:000000000000e64f .LASF2182
C:\Users\CYMR90~1\AppData\Local\Temp\ccf145Mk.s:25631  .debug_str:000000000001606c .LASF2183
C:\Users\CYMR90~1\AppData\Local\Temp\ccf145Mk.s:21161  .debug_str:00000000000041af .LASF2184
C:\Users\CYMR90~1\AppData\Local\Temp\ccf145Mk.s:24005  .debug_str:000000000000f878 .LASF2185
C:\Users\CYMR90~1\AppData\Local\Temp\ccf145Mk.s:30876  .debug_str:000000000002af3a .LASF2186
C:\Users\CYMR90~1\AppData\Local\Temp\ccf145Mk.s:27706  .debug_str:000000000001e850 .LASF2187
C:\Users\CYMR90~1\AppData\Local\Temp\ccf145Mk.s:22541  .debug_str:0000000000009a0b .LASF2188
C:\Users\CYMR90~1\AppData\Local\Temp\ccf145Mk.s:26696  .debug_str:000000000001a77f .LASF2189
C:\Users\CYMR90~1\AppData\Local\Temp\ccf145Mk.s:21101  .debug_str:0000000000003d4a .LASF2190
C:\Users\CYMR90~1\AppData\Local\Temp\ccf145Mk.s:22641  .debug_str:000000000000a01d .LASF2191
C:\Users\CYMR90~1\AppData\Local\Temp\ccf145Mk.s:29368  .debug_str:0000000000024e35 .LASF2192
C:\Users\CYMR90~1\AppData\Local\Temp\ccf145Mk.s:21027  .debug_str:00000000000038ce .LASF2193
C:\Users\CYMR90~1\AppData\Local\Temp\ccf145Mk.s:24469  .debug_str:0000000000011598 .LASF2194
C:\Users\CYMR90~1\AppData\Local\Temp\ccf145Mk.s:20795  .debug_str:0000000000002a0b .LASF2195
C:\Users\CYMR90~1\AppData\Local\Temp\ccf145Mk.s:21997  .debug_str:00000000000075f7 .LASF2196
C:\Users\CYMR90~1\AppData\Local\Temp\ccf145Mk.s:25329  .debug_str:0000000000014d6e .LASF2197
C:\Users\CYMR90~1\AppData\Local\Temp\ccf145Mk.s:22269  .debug_str:00000000000088a8 .LASF2198
C:\Users\CYMR90~1\AppData\Local\Temp\ccf145Mk.s:28158  .debug_str:0000000000020342 .LASF2199
C:\Users\CYMR90~1\AppData\Local\Temp\ccf145Mk.s:22787  .debug_str:000000000000a9de .LASF2200
C:\Users\CYMR90~1\AppData\Local\Temp\ccf145Mk.s:28674  .debug_str:00000000000222d3 .LASF2201
C:\Users\CYMR90~1\AppData\Local\Temp\ccf145Mk.s:27992  .debug_str:000000000001f916 .LASF2202
C:\Users\CYMR90~1\AppData\Local\Temp\ccf145Mk.s:29184  .debug_str:000000000002420b .LASF2203
C:\Users\CYMR90~1\AppData\Local\Temp\ccf145Mk.s:29772  .debug_str:00000000000269ca .LASF2204
C:\Users\CYMR90~1\AppData\Local\Temp\ccf145Mk.s:29602  .debug_str:0000000000025f0c .LASF2205
C:\Users\CYMR90~1\AppData\Local\Temp\ccf145Mk.s:29234  .debug_str:0000000000024556 .LASF2206
C:\Users\CYMR90~1\AppData\Local\Temp\ccf145Mk.s:28290  .debug_str:0000000000020bc7 .LASF2207
C:\Users\CYMR90~1\AppData\Local\Temp\ccf145Mk.s:24185  .debug_str:0000000000010380 .LASF2208
C:\Users\CYMR90~1\AppData\Local\Temp\ccf145Mk.s:26324  .debug_str:0000000000018d8f .LASF2209
C:\Users\CYMR90~1\AppData\Local\Temp\ccf145Mk.s:28138  .debug_str:00000000000201c7 .LASF2210
C:\Users\CYMR90~1\AppData\Local\Temp\ccf145Mk.s:23059  .debug_str:000000000000bc34 .LASF2211
C:\Users\CYMR90~1\AppData\Local\Temp\ccf145Mk.s:21771  .debug_str:0000000000006774 .LASF2212
C:\Users\CYMR90~1\AppData\Local\Temp\ccf145Mk.s:24365  .debug_str:0000000000010f16 .LASF2213
C:\Users\CYMR90~1\AppData\Local\Temp\ccf145Mk.s:31140  .debug_str:000000000002c078 .LASF2214
C:\Users\CYMR90~1\AppData\Local\Temp\ccf145Mk.s:25075  .debug_str:0000000000013d89 .LASF2215
C:\Users\CYMR90~1\AppData\Local\Temp\ccf145Mk.s:22745  .debug_str:000000000000a678 .LASF2216
C:\Users\CYMR90~1\AppData\Local\Temp\ccf145Mk.s:26936  .debug_str:000000000001b685 .LASF2217
C:\Users\CYMR90~1\AppData\Local\Temp\ccf145Mk.s:26250  .debug_str:0000000000018869 .LASF2218
C:\Users\CYMR90~1\AppData\Local\Temp\ccf145Mk.s:30910  .debug_str:000000000002b113 .LASF2219
C:\Users\CYMR90~1\AppData\Local\Temp\ccf145Mk.s:27482  .debug_str:000000000001da17 .LASF2220
C:\Users\CYMR90~1\AppData\Local\Temp\ccf145Mk.s:26338  .debug_str:0000000000018e54 .LASF2221
C:\Users\CYMR90~1\AppData\Local\Temp\ccf145Mk.s:24755  .debug_str:00000000000128f3 .LASF2222
C:\Users\CYMR90~1\AppData\Local\Temp\ccf145Mk.s:26976  .debug_str:000000000001b88a .LASF2223
C:\Users\CYMR90~1\AppData\Local\Temp\ccf145Mk.s:29594  .debug_str:0000000000025e9e .LASF2224
C:\Users\CYMR90~1\AppData\Local\Temp\ccf145Mk.s:20143  .debug_str:0000000000000296 .LASF2225
C:\Users\CYMR90~1\AppData\Local\Temp\ccf145Mk.s:21239  .debug_str:00000000000046eb .LASF2226
C:\Users\CYMR90~1\AppData\Local\Temp\ccf145Mk.s:26526  .debug_str:0000000000019b6a .LASF2227
C:\Users\CYMR90~1\AppData\Local\Temp\ccf145Mk.s:25800  .debug_str:0000000000016d6a .LASF2228
C:\Users\CYMR90~1\AppData\Local\Temp\ccf145Mk.s:27534  .debug_str:000000000001ddde .LASF2229
C:\Users\CYMR90~1\AppData\Local\Temp\ccf145Mk.s:21209  .debug_str:00000000000044d3 .LASF2230
C:\Users\CYMR90~1\AppData\Local\Temp\ccf145Mk.s:27760  .debug_str:000000000001eb23 .LASF2231
C:\Users\CYMR90~1\AppData\Local\Temp\ccf145Mk.s:20521  .debug_str:000000000000195c .LASF2232
C:\Users\CYMR90~1\AppData\Local\Temp\ccf145Mk.s:26514  .debug_str:0000000000019aa6 .LASF2233
C:\Users\CYMR90~1\AppData\Local\Temp\ccf145Mk.s:23231  .debug_str:000000000000c7ad .LASF2234
C:\Users\CYMR90~1\AppData\Local\Temp\ccf145Mk.s:21445  .debug_str:0000000000005413 .LASF2235
C:\Users\CYMR90~1\AppData\Local\Temp\ccf145Mk.s:31096  .debug_str:000000000002bd60 .LASF2236
C:\Users\CYMR90~1\AppData\Local\Temp\ccf145Mk.s:23693  .debug_str:000000000000e458 .LASF2237
C:\Users\CYMR90~1\AppData\Local\Temp\ccf145Mk.s:28412  .debug_str:0000000000021323 .LASF2238
C:\Users\CYMR90~1\AppData\Local\Temp\ccf145Mk.s:27436  .debug_str:000000000001d743 .LASF2239
C:\Users\CYMR90~1\AppData\Local\Temp\ccf145Mk.s:27364  .debug_str:000000000001d29c .LASF2240
C:\Users\CYMR90~1\AppData\Local\Temp\ccf145Mk.s:20581  .debug_str:0000000000001d0d .LASF2241
C:\Users\CYMR90~1\AppData\Local\Temp\ccf145Mk.s:28430  .debug_str:0000000000021441 .LASF2242
C:\Users\CYMR90~1\AppData\Local\Temp\ccf145Mk.s:29978  .debug_str:00000000000276cf .LASF2243
C:\Users\CYMR90~1\AppData\Local\Temp\ccf145Mk.s:24605  .debug_str:0000000000011f0d .LASF2244
C:\Users\CYMR90~1\AppData\Local\Temp\ccf145Mk.s:25810  .debug_str:0000000000016e06 .LASF2245
C:\Users\CYMR90~1\AppData\Local\Temp\ccf145Mk.s:22735  .debug_str:000000000000a595 .LASF2246
C:\Users\CYMR90~1\AppData\Local\Temp\ccf145Mk.s:25393  .debug_str:000000000001518c .LASF2247
C:\Users\CYMR90~1\AppData\Local\Temp\ccf145Mk.s:20943  .debug_str:000000000000337a .LASF2248
C:\Users\CYMR90~1\AppData\Local\Temp\ccf145Mk.s:27780  .debug_str:000000000001ec52 .LASF2249
C:\Users\CYMR90~1\AppData\Local\Temp\ccf145Mk.s:26914  .debug_str:000000000001b510 .LASF2250
C:\Users\CYMR90~1\AppData\Local\Temp\ccf145Mk.s:25972  .debug_str:000000000001777d .LASF2251
C:\Users\CYMR90~1\AppData\Local\Temp\ccf145Mk.s:29192  .debug_str:00000000000242a4 .LASF2252
C:\Users\CYMR90~1\AppData\Local\Temp\ccf145Mk.s:24761  .debug_str:0000000000012950 .LASF2253
C:\Users\CYMR90~1\AppData\Local\Temp\ccf145Mk.s:23501  .debug_str:000000000000d8d6 .LASF2254
C:\Users\CYMR90~1\AppData\Local\Temp\ccf145Mk.s:22255  .debug_str:00000000000087c9 .LASF2255
C:\Users\CYMR90~1\AppData\Local\Temp\ccf145Mk.s:24163  .debug_str:000000000001023f .LASF2256
C:\Users\CYMR90~1\AppData\Local\Temp\ccf145Mk.s:27182  .debug_str:000000000001c54d .LASF2257
C:\Users\CYMR90~1\AppData\Local\Temp\ccf145Mk.s:24459  .debug_str:00000000000114f6 .LASF2258
C:\Users\CYMR90~1\AppData\Local\Temp\ccf145Mk.s:24681  .debug_str:000000000001240c .LASF2259
C:\Users\CYMR90~1\AppData\Local\Temp\ccf145Mk.s:24361  .debug_str:0000000000010ed4 .LASF2260
C:\Users\CYMR90~1\AppData\Local\Temp\ccf145Mk.s:25439  .debug_str:0000000000015421 .LASF2261
C:\Users\CYMR90~1\AppData\Local\Temp\ccf145Mk.s:20637  .debug_str:0000000000002016 .LASF2262
C:\Users\CYMR90~1\AppData\Local\Temp\ccf145Mk.s:23741  .debug_str:000000000000e77b .LASF2263
C:\Users\CYMR90~1\AppData\Local\Temp\ccf145Mk.s:27554  .debug_str:000000000001df1f .LASF2264
C:\Users\CYMR90~1\AppData\Local\Temp\ccf145Mk.s:26616  .debug_str:000000000001a0ab .LASF2265
C:\Users\CYMR90~1\AppData\Local\Temp\ccf145Mk.s:23585  .debug_str:000000000000ddf3 .LASF2266
C:\Users\CYMR90~1\AppData\Local\Temp\ccf145Mk.s:22937  .debug_str:000000000000b41d .LASF2267
C:\Users\CYMR90~1\AppData\Local\Temp\ccf145Mk.s:25980  .debug_str:0000000000017837 .LASF2268
C:\Users\CYMR90~1\AppData\Local\Temp\ccf145Mk.s:30828  .debug_str:000000000002ac42 .LASF2269
C:\Users\CYMR90~1\AppData\Local\Temp\ccf145Mk.s:21261  .debug_str:00000000000048cf .LASF2270
C:\Users\CYMR90~1\AppData\Local\Temp\ccf145Mk.s:27062  .debug_str:000000000001be0e .LASF2271
C:\Users\CYMR90~1\AppData\Local\Temp\ccf145Mk.s:27458  .debug_str:000000000001d8a7 .LASF2272
C:\Users\CYMR90~1\AppData\Local\Temp\ccf145Mk.s:25285  .debug_str:0000000000014a89 .LASF2273
C:\Users\CYMR90~1\AppData\Local\Temp\ccf145Mk.s:30184  .debug_str:000000000002855d .LASF2274
C:\Users\CYMR90~1\AppData\Local\Temp\ccf145Mk.s:26820  .debug_str:000000000001af52 .LASF2275
C:\Users\CYMR90~1\AppData\Local\Temp\ccf145Mk.s:23507  .debug_str:000000000000d941 .LASF2276
C:\Users\CYMR90~1\AppData\Local\Temp\ccf145Mk.s:21039  .debug_str:00000000000039a4 .LASF2277
C:\Users\CYMR90~1\AppData\Local\Temp\ccf145Mk.s:20311  .debug_str:0000000000000ce0 .LASF2278
C:\Users\CYMR90~1\AppData\Local\Temp\ccf145Mk.s:30040  .debug_str:0000000000027aa3 .LASF2279
C:\Users\CYMR90~1\AppData\Local\Temp\ccf145Mk.s:28416  .debug_str:0000000000021361 .LASF2280
C:\Users\CYMR90~1\AppData\Local\Temp\ccf145Mk.s:21449  .debug_str:0000000000005447 .LASF2281
C:\Users\CYMR90~1\AppData\Local\Temp\ccf145Mk.s:26548  .debug_str:0000000000019cd8 .LASF2282
C:\Users\CYMR90~1\AppData\Local\Temp\ccf145Mk.s:25866  .debug_str:0000000000017127 .LASF2283
C:\Users\CYMR90~1\AppData\Local\Temp\ccf145Mk.s:27238  .debug_str:000000000001c997 .LASF2284
C:\Users\CYMR90~1\AppData\Local\Temp\ccf145Mk.s:26776  .debug_str:000000000001ac43 .LASF2285
C:\Users\CYMR90~1\AppData\Local\Temp\ccf145Mk.s:29996  .debug_str:00000000000277cd .LASF2286
C:\Users\CYMR90~1\AppData\Local\Temp\ccf145Mk.s:24367  .debug_str:0000000000010f3e .LASF2287
C:\Users\CYMR90~1\AppData\Local\Temp\ccf145Mk.s:28568  .debug_str:0000000000021cb4 .LASF2288
C:\Users\CYMR90~1\AppData\Local\Temp\ccf145Mk.s:30498  .debug_str:00000000000298cd .LASF2289
C:\Users\CYMR90~1\AppData\Local\Temp\ccf145Mk.s:24575  .debug_str:0000000000011d38 .LASF2290
C:\Users\CYMR90~1\AppData\Local\Temp\ccf145Mk.s:30964  .debug_str:000000000002b4ce .LASF2291
C:\Users\CYMR90~1\AppData\Local\Temp\ccf145Mk.s:27648  .debug_str:000000000001e4ac .LASF2292
C:\Users\CYMR90~1\AppData\Local\Temp\ccf145Mk.s:21345  .debug_str:0000000000004de9 .LASF2293
C:\Users\CYMR90~1\AppData\Local\Temp\ccf145Mk.s:30360  .debug_str:0000000000029077 .LASF2294
C:\Users\CYMR90~1\AppData\Local\Temp\ccf145Mk.s:30926  .debug_str:000000000002b24b .LASF2295
C:\Users\CYMR90~1\AppData\Local\Temp\ccf145Mk.s:23567  .debug_str:000000000000dcf4 .LASF2296
C:\Users\CYMR90~1\AppData\Local\Temp\ccf145Mk.s:23541  .debug_str:000000000000daff .LASF2297
C:\Users\CYMR90~1\AppData\Local\Temp\ccf145Mk.s:22917  .debug_str:000000000000b264 .LASF2298
C:\Users\CYMR90~1\AppData\Local\Temp\ccf145Mk.s:25087  .debug_str:0000000000013e49 .LASF2299
C:\Users\CYMR90~1\AppData\Local\Temp\ccf145Mk.s:30198  .debug_str:0000000000028652 .LASF2300
C:\Users\CYMR90~1\AppData\Local\Temp\ccf145Mk.s:23889  .debug_str:000000000000f03c .LASF2301
C:\Users\CYMR90~1\AppData\Local\Temp\ccf145Mk.s:27008  .debug_str:000000000001ba89 .LASF2302
C:\Users\CYMR90~1\AppData\Local\Temp\ccf145Mk.s:29322  .debug_str:0000000000024b4c .LASF2303
C:\Users\CYMR90~1\AppData\Local\Temp\ccf145Mk.s:23499  .debug_str:000000000000d8af .LASF2304
C:\Users\CYMR90~1\AppData\Local\Temp\ccf145Mk.s:28462  .debug_str:0000000000021612 .LASF2305
C:\Users\CYMR90~1\AppData\Local\Temp\ccf145Mk.s:20395  .debug_str:00000000000011eb .LASF2306
C:\Users\CYMR90~1\AppData\Local\Temp\ccf145Mk.s:26720  .debug_str:000000000001a8d9 .LASF2307
C:\Users\CYMR90~1\AppData\Local\Temp\ccf145Mk.s:27202  .debug_str:000000000001c751 .LASF2308
C:\Users\CYMR90~1\AppData\Local\Temp\ccf145Mk.s:20887  .debug_str:0000000000002fed .LASF2309
C:\Users\CYMR90~1\AppData\Local\Temp\ccf145Mk.s:29616  .debug_str:0000000000026018 .LASF2310
C:\Users\CYMR90~1\AppData\Local\Temp\ccf145Mk.s:30434  .debug_str:00000000000294e1 .LASF2311
C:\Users\CYMR90~1\AppData\Local\Temp\ccf145Mk.s:25125  .debug_str:00000000000140c9 .LASF2312
C:\Users\CYMR90~1\AppData\Local\Temp\ccf145Mk.s:30150  .debug_str:000000000002829a .LASF2313
C:\Users\CYMR90~1\AppData\Local\Temp\ccf145Mk.s:21955  .debug_str:000000000000735b .LASF2314
C:\Users\CYMR90~1\AppData\Local\Temp\ccf145Mk.s:28242  .debug_str:00000000000208d0 .LASF2315
C:\Users\CYMR90~1\AppData\Local\Temp\ccf145Mk.s:22017  .debug_str:0000000000007734 .LASF2316
C:\Users\CYMR90~1\AppData\Local\Temp\ccf145Mk.s:27026  .debug_str:000000000001bba4 .LASF2317
C:\Users\CYMR90~1\AppData\Local\Temp\ccf145Mk.s:30194  .debug_str:0000000000028611 .LASF2318
C:\Users\CYMR90~1\AppData\Local\Temp\ccf145Mk.s:23777  .debug_str:000000000000e9b7 .LASF2319
C:\Users\CYMR90~1\AppData\Local\Temp\ccf145Mk.s:21273  .debug_str:000000000000498b .LASF2320
C:\Users\CYMR90~1\AppData\Local\Temp\ccf145Mk.s:20809  .debug_str:0000000000002b17 .LASF2321
C:\Users\CYMR90~1\AppData\Local\Temp\ccf145Mk.s:31412  .debug_str:000000000002d247 .LASF2322
C:\Users\CYMR90~1\AppData\Local\Temp\ccf145Mk.s:21633  .debug_str:0000000000005f02 .LASF2323
C:\Users\CYMR90~1\AppData\Local\Temp\ccf145Mk.s:25247  .debug_str:0000000000014848 .LASF2324
C:\Users\CYMR90~1\AppData\Local\Temp\ccf145Mk.s:30990  .debug_str:000000000002b668 .LASF2325
C:\Users\CYMR90~1\AppData\Local\Temp\ccf145Mk.s:22709  .debug_str:000000000000a448 .LASF2326
C:\Users\CYMR90~1\AppData\Local\Temp\ccf145Mk.s:26208  .debug_str:0000000000018580 .LASF2327
C:\Users\CYMR90~1\AppData\Local\Temp\ccf145Mk.s:20671  .debug_str:0000000000002218 .LASF2328
C:\Users\CYMR90~1\AppData\Local\Temp\ccf145Mk.s:25161  .debug_str:00000000000142f9 .LASF2329
C:\Users\CYMR90~1\AppData\Local\Temp\ccf145Mk.s:22011  .debug_str:00000000000076e7 .LASF2330
C:\Users\CYMR90~1\AppData\Local\Temp\ccf145Mk.s:23163  .debug_str:000000000000c306 .LASF2331
C:\Users\CYMR90~1\AppData\Local\Temp\ccf145Mk.s:24205  .debug_str:00000000000104aa .LASF2332
C:\Users\CYMR90~1\AppData\Local\Temp\ccf145Mk.s:28372  .debug_str:000000000002103a .LASF2333
C:\Users\CYMR90~1\AppData\Local\Temp\ccf145Mk.s:29796  .debug_str:0000000000026b4d .LASF2334
C:\Users\CYMR90~1\AppData\Local\Temp\ccf145Mk.s:24217  .debug_str:0000000000010564 .LASF2335
C:\Users\CYMR90~1\AppData\Local\Temp\ccf145Mk.s:24615  .debug_str:0000000000011fe7 .LASF2336
C:\Users\CYMR90~1\AppData\Local\Temp\ccf145Mk.s:23669  .debug_str:000000000000e2ea .LASF2337
C:\Users\CYMR90~1\AppData\Local\Temp\ccf145Mk.s:21647  .debug_str:0000000000005ffd .LASF2338
C:\Users\CYMR90~1\AppData\Local\Temp\ccf145Mk.s:20717  .debug_str:00000000000024be .LASF2339
C:\Users\CYMR90~1\AppData\Local\Temp\ccf145Mk.s:27422  .debug_str:000000000001d664 .LASF2340
C:\Users\CYMR90~1\AppData\Local\Temp\ccf145Mk.s:29678  .debug_str:00000000000263f7 .LASF2341
C:\Users\CYMR90~1\AppData\Local\Temp\ccf145Mk.s:25956  .debug_str:0000000000017696 .LASF2342
C:\Users\CYMR90~1\AppData\Local\Temp\ccf145Mk.s:28038  .debug_str:000000000001fbd9 .LASF2343
C:\Users\CYMR90~1\AppData\Local\Temp\ccf145Mk.s:29084  .debug_str:0000000000023b5f .LASF2344
C:\Users\CYMR90~1\AppData\Local\Temp\ccf145Mk.s:29904  .debug_str:0000000000027196 .LASF2345
C:\Users\CYMR90~1\AppData\Local\Temp\ccf145Mk.s:27126  .debug_str:000000000001c20d .LASF2346
C:\Users\CYMR90~1\AppData\Local\Temp\ccf145Mk.s:27292  .debug_str:000000000001cdaf .LASF2347
C:\Users\CYMR90~1\AppData\Local\Temp\ccf145Mk.s:22223  .debug_str:00000000000085a0 .LASF2348
C:\Users\CYMR90~1\AppData\Local\Temp\ccf145Mk.s:24971  .debug_str:0000000000013790 .LASF2349
C:\Users\CYMR90~1\AppData\Local\Temp\ccf145Mk.s:28512  .debug_str:0000000000021906 .LASF2350
C:\Users\CYMR90~1\AppData\Local\Temp\ccf145Mk.s:30792  .debug_str:000000000002aa49 .LASF2351
C:\Users\CYMR90~1\AppData\Local\Temp\ccf145Mk.s:29308  .debug_str:0000000000024a5d .LASF2352
C:\Users\CYMR90~1\AppData\Local\Temp\ccf145Mk.s:21797  .debug_str:0000000000006905 .LASF2353
C:\Users\CYMR90~1\AppData\Local\Temp\ccf145Mk.s:24117  .debug_str:000000000000ff4e .LASF2354
C:\Users\CYMR90~1\AppData\Local\Temp\ccf145Mk.s:21743  .debug_str:0000000000006582 .LASF2355
C:\Users\CYMR90~1\AppData\Local\Temp\ccf145Mk.s:31200  .debug_str:000000000002c4b2 .LASF2356
C:\Users\CYMR90~1\AppData\Local\Temp\ccf145Mk.s:30620  .debug_str:0000000000029fc5 .LASF2357
C:\Users\CYMR90~1\AppData\Local\Temp\ccf145Mk.s:23419  .debug_str:000000000000d3f3 .LASF2358
C:\Users\CYMR90~1\AppData\Local\Temp\ccf145Mk.s:22453  .debug_str:000000000000943e .LASF2359
C:\Users\CYMR90~1\AppData\Local\Temp\ccf145Mk.s:21033  .debug_str:0000000000003957 .LASF2360
C:\Users\CYMR90~1\AppData\Local\Temp\ccf145Mk.s:24129  .debug_str:0000000000010027 .LASF2361
C:\Users\CYMR90~1\AppData\Local\Temp\ccf145Mk.s:22897  .debug_str:000000000000b16f .LASF2362
C:\Users\CYMR90~1\AppData\Local\Temp\ccf145Mk.s:21677  .debug_str:000000000000619f .LASF2363
C:\Users\CYMR90~1\AppData\Local\Temp\ccf145Mk.s:29090  .debug_str:0000000000023baf .LASF2364
C:\Users\CYMR90~1\AppData\Local\Temp\ccf145Mk.s:28250  .debug_str:000000000002094b .LASF2365
C:\Users\CYMR90~1\AppData\Local\Temp\ccf145Mk.s:24675  .debug_str:00000000000123ab .LASF2366
C:\Users\CYMR90~1\AppData\Local\Temp\ccf145Mk.s:22995  .debug_str:000000000000b7c1 .LASF2367
C:\Users\CYMR90~1\AppData\Local\Temp\ccf145Mk.s:29974  .debug_str:00000000000276a2 .LASF2368
C:\Users\CYMR90~1\AppData\Local\Temp\ccf145Mk.s:22439  .debug_str:000000000000931b .LASF2369
C:\Users\CYMR90~1\AppData\Local\Temp\ccf145Mk.s:23771  .debug_str:000000000000e960 .LASF2370
C:\Users\CYMR90~1\AppData\Local\Temp\ccf145Mk.s:21807  .debug_str:00000000000069c2 .LASF2371
C:\Users\CYMR90~1\AppData\Local\Temp\ccf145Mk.s:24181  .debug_str:0000000000010347 .LASF2372
C:\Users\CYMR90~1\AppData\Local\Temp\ccf145Mk.s:31076  .debug_str:000000000002bc09 .LASF2373
C:\Users\CYMR90~1\AppData\Local\Temp\ccf145Mk.s:29748  .debug_str:0000000000026866 .LASF2374
C:\Users\CYMR90~1\AppData\Local\Temp\ccf145Mk.s:20251  .debug_str:000000000000090c .LASF2375
C:\Users\CYMR90~1\AppData\Local\Temp\ccf145Mk.s:24579  .debug_str:0000000000011d8d .LASF2376
C:\Users\CYMR90~1\AppData\Local\Temp\ccf145Mk.s:27726  .debug_str:000000000001e96b .LASF2377
C:\Users\CYMR90~1\AppData\Local\Temp\ccf145Mk.s:31022  .debug_str:000000000002b8bf .LASF2378
C:\Users\CYMR90~1\AppData\Local\Temp\ccf145Mk.s:22899  .debug_str:000000000000b194 .LASF2379
C:\Users\CYMR90~1\AppData\Local\Temp\ccf145Mk.s:21849  .debug_str:0000000000006c82 .LASF2380
C:\Users\CYMR90~1\AppData\Local\Temp\ccf145Mk.s:29300  .debug_str:00000000000249da .LASF2381
C:\Users\CYMR90~1\AppData\Local\Temp\ccf145Mk.s:29046  .debug_str:0000000000023940 .LASF2382
C:\Users\CYMR90~1\AppData\Local\Temp\ccf145Mk.s:24353  .debug_str:0000000000010e90 .LASF2383
C:\Users\CYMR90~1\AppData\Local\Temp\ccf145Mk.s:27502  .debug_str:000000000001db56 .LASF2384
C:\Users\CYMR90~1\AppData\Local\Temp\ccf145Mk.s:30764  .debug_str:000000000002a8b9 .LASF2385
C:\Users\CYMR90~1\AppData\Local\Temp\ccf145Mk.s:20553  .debug_str:0000000000001b67 .LASF2386
C:\Users\CYMR90~1\AppData\Local\Temp\ccf145Mk.s:25255  .debug_str:00000000000148b0 .LASF2387
C:\Users\CYMR90~1\AppData\Local\Temp\ccf145Mk.s:29976  .debug_str:00000000000276b4 .LASF2388
C:\Users\CYMR90~1\AppData\Local\Temp\ccf145Mk.s:26876  .debug_str:000000000001b2e3 .LASF2389
C:\Users\CYMR90~1\AppData\Local\Temp\ccf145Mk.s:28030  .debug_str:000000000001fb79 .LASF2390
C:\Users\CYMR90~1\AppData\Local\Temp\ccf145Mk.s:21421  .debug_str:000000000000528b .LASF2391
C:\Users\CYMR90~1\AppData\Local\Temp\ccf145Mk.s:26134  .debug_str:000000000001813d .LASF2392
C:\Users\CYMR90~1\AppData\Local\Temp\ccf145Mk.s:30862  .debug_str:000000000002ae60 .LASF2393
C:\Users\CYMR90~1\AppData\Local\Temp\ccf145Mk.s:26984  .debug_str:000000000001b8f5 .LASF2394
C:\Users\CYMR90~1\AppData\Local\Temp\ccf145Mk.s:30034  .debug_str:0000000000027a3e .LASF2395
C:\Users\CYMR90~1\AppData\Local\Temp\ccf145Mk.s:23431  .debug_str:000000000000d4bc .LASF2396
C:\Users\CYMR90~1\AppData\Local\Temp\ccf145Mk.s:28086  .debug_str:000000000001fef4 .LASF2397
C:\Users\CYMR90~1\AppData\Local\Temp\ccf145Mk.s:21469  .debug_str:0000000000005541 .LASF2398
C:\Users\CYMR90~1\AppData\Local\Temp\ccf145Mk.s:26188  .debug_str:0000000000018484 .LASF2399
C:\Users\CYMR90~1\AppData\Local\Temp\ccf145Mk.s:30922  .debug_str:000000000002b21a .LASF2400
C:\Users\CYMR90~1\AppData\Local\Temp\ccf145Mk.s:30796  .debug_str:000000000002aa81 .LASF2401
C:\Users\CYMR90~1\AppData\Local\Temp\ccf145Mk.s:22683  .debug_str:000000000000a2ca .LASF2402
C:\Users\CYMR90~1\AppData\Local\Temp\ccf145Mk.s:25882  .debug_str:0000000000017223 .LASF2403
C:\Users\CYMR90~1\AppData\Local\Temp\ccf145Mk.s:29094  .debug_str:0000000000023be0 .LASF2404
C:\Users\CYMR90~1\AppData\Local\Temp\ccf145Mk.s:21061  .debug_str:0000000000003ae4 .LASF2405
C:\Users\CYMR90~1\AppData\Local\Temp\ccf145Mk.s:24225  .debug_str:000000000001069a .LASF2406
C:\Users\CYMR90~1\AppData\Local\Temp\ccf145Mk.s:27394  .debug_str:000000000001d487 .LASF2407
C:\Users\CYMR90~1\AppData\Local\Temp\ccf145Mk.s:30646  .debug_str:000000000002a17b .LASF2408
C:\Users\CYMR90~1\AppData\Local\Temp\ccf145Mk.s:25017  .debug_str:0000000000013a2a .LASF2409
C:\Users\CYMR90~1\AppData\Local\Temp\ccf145Mk.s:23409  .debug_str:000000000000d34c .LASF2410
C:\Users\CYMR90~1\AppData\Local\Temp\ccf145Mk.s:26766  .debug_str:000000000001aba0 .LASF2411
C:\Users\CYMR90~1\AppData\Local\Temp\ccf145Mk.s:20137  .debug_str:000000000000023a .LASF2412
C:\Users\CYMR90~1\AppData\Local\Temp\ccf145Mk.s:20151  .debug_str:0000000000000340 .LASF2413
C:\Users\CYMR90~1\AppData\Local\Temp\ccf145Mk.s:29516  .debug_str:00000000000259cb .LASF2414
C:\Users\CYMR90~1\AppData\Local\Temp\ccf145Mk.s:22933  .debug_str:000000000000b367 .LASF2415
C:\Users\CYMR90~1\AppData\Local\Temp\ccf145Mk.s:27570  .debug_str:000000000001e010 .LASF2416
C:\Users\CYMR90~1\AppData\Local\Temp\ccf145Mk.s:23261  .debug_str:000000000000c9d5 .LASF2417
C:\Users\CYMR90~1\AppData\Local\Temp\ccf145Mk.s:25675  .debug_str:00000000000162f0 .LASF2418
C:\Users\CYMR90~1\AppData\Local\Temp\ccf145Mk.s:27782  .debug_str:000000000001ec81 .LASF2419
C:\Users\CYMR90~1\AppData\Local\Temp\ccf145Mk.s:24889  .debug_str:00000000000131b8 .LASF2420
C:\Users\CYMR90~1\AppData\Local\Temp\ccf145Mk.s:29570  .debug_str:0000000000025d2e .LASF2421
C:\Users\CYMR90~1\AppData\Local\Temp\ccf145Mk.s:22975  .debug_str:000000000000b6a3 .LASF2422
C:\Users\CYMR90~1\AppData\Local\Temp\ccf145Mk.s:27620  .debug_str:000000000001e2f4 .LASF2423
C:\Users\CYMR90~1\AppData\Local\Temp\ccf145Mk.s:21029  .debug_str:000000000000390c .LASF2424
C:\Users\CYMR90~1\AppData\Local\Temp\ccf145Mk.s:25733  .debug_str:00000000000166c5 .LASF2425
C:\Users\CYMR90~1\AppData\Local\Temp\ccf145Mk.s:22813  .debug_str:000000000000ab81 .LASF2426
C:\Users\CYMR90~1\AppData\Local\Temp\ccf145Mk.s:25910  .debug_str:00000000000173a9 .LASF2427
C:\Users\CYMR90~1\AppData\Local\Temp\ccf145Mk.s:29134  .debug_str:0000000000023e78 .LASF2428
C:\Users\CYMR90~1\AppData\Local\Temp\ccf145Mk.s:21013  .debug_str:00000000000037f1 .LASF2429
C:\Users\CYMR90~1\AppData\Local\Temp\ccf145Mk.s:24263  .debug_str:00000000000108a9 .LASF2430
C:\Users\CYMR90~1\AppData\Local\Temp\ccf145Mk.s:24509  .debug_str:00000000000118d4 .LASF2431
C:\Users\CYMR90~1\AppData\Local\Temp\ccf145Mk.s:30686  .debug_str:000000000002a3a4 .LASF2432
C:\Users\CYMR90~1\AppData\Local\Temp\ccf145Mk.s:21215  .debug_str:0000000000004544 .LASF2433
C:\Users\CYMR90~1\AppData\Local\Temp\ccf145Mk.s:30962  .debug_str:000000000002b4b7 .LASF2434
C:\Users\CYMR90~1\AppData\Local\Temp\ccf145Mk.s:28892  .debug_str:0000000000022fcd .LASF2435
C:\Users\CYMR90~1\AppData\Local\Temp\ccf145Mk.s:30252  .debug_str:00000000000289fe .LASF2436
C:\Users\CYMR90~1\AppData\Local\Temp\ccf145Mk.s:23643  .debug_str:000000000000e154 .LASF2437
C:\Users\CYMR90~1\AppData\Local\Temp\ccf145Mk.s:28310  .debug_str:0000000000020ceb .LASF2438
C:\Users\CYMR90~1\AppData\Local\Temp\ccf145Mk.s:21697  .debug_str:00000000000062e7 .LASF2439
C:\Users\CYMR90~1\AppData\Local\Temp\ccf145Mk.s:26428  .debug_str:0000000000019497 .LASF2440
C:\Users\CYMR90~1\AppData\Local\Temp\ccf145Mk.s:26810  .debug_str:000000000001aec6 .LASF2441
C:\Users\CYMR90~1\AppData\Local\Temp\ccf145Mk.s:24517  .debug_str:0000000000011941 .LASF2442
C:\Users\CYMR90~1\AppData\Local\Temp\ccf145Mk.s:29202  .debug_str:0000000000024387 .LASF2443
C:\Users\CYMR90~1\AppData\Local\Temp\ccf145Mk.s:27268  .debug_str:000000000001cb9b .LASF2444
C:\Users\CYMR90~1\AppData\Local\Temp\ccf145Mk.s:28366  .debug_str:0000000000020fcf .LASF2445
C:\Users\CYMR90~1\AppData\Local\Temp\ccf145Mk.s:21747  .debug_str:00000000000065bb .LASF2446
C:\Users\CYMR90~1\AppData\Local\Temp\ccf145Mk.s:26478  .debug_str:0000000000019857 .LASF2447
C:\Users\CYMR90~1\AppData\Local\Temp\ccf145Mk.s:31196  .debug_str:000000000002c473 .LASF2448
C:\Users\CYMR90~1\AppData\Local\Temp\ccf145Mk.s:24571  .debug_str:0000000000011cea .LASF2449
C:\Users\CYMR90~1\AppData\Local\Temp\ccf145Mk.s:24491  .debug_str:0000000000011724 .LASF2450
C:\Users\CYMR90~1\AppData\Local\Temp\ccf145Mk.s:28052  .debug_str:000000000001fcda .LASF2451
C:\Users\CYMR90~1\AppData\Local\Temp\ccf145Mk.s:29362  .debug_str:0000000000024deb .LASF2452
C:\Users\CYMR90~1\AppData\Local\Temp\ccf145Mk.s:27694  .debug_str:000000000001e79b .LASF2453
C:\Users\CYMR90~1\AppData\Local\Temp\ccf145Mk.s:26320  .debug_str:0000000000018d64 .LASF2454
C:\Users\CYMR90~1\AppData\Local\Temp\ccf145Mk.s:29518  .debug_str:00000000000259e4 .LASF2455
C:\Users\CYMR90~1\AppData\Local\Temp\ccf145Mk.s:22877  .debug_str:000000000000b057 .LASF2456
C:\Users\CYMR90~1\AppData\Local\Temp\ccf145Mk.s:24647  .debug_str:00000000000121f3 .LASF2457
C:\Users\CYMR90~1\AppData\Local\Temp\ccf145Mk.s:27790  .debug_str:000000000001ecc6 .LASF2458
C:\Users\CYMR90~1\AppData\Local\Temp\ccf145Mk.s:29290  .debug_str:0000000000024950 .LASF2459
C:\Users\CYMR90~1\AppData\Local\Temp\ccf145Mk.s:22881  .debug_str:000000000000b094 .LASF2460
C:\Users\CYMR90~1\AppData\Local\Temp\ccf145Mk.s:28928  .debug_str:00000000000231a7 .LASF2461
C:\Users\CYMR90~1\AppData\Local\Temp\ccf145Mk.s:31018  .debug_str:000000000002b82f .LASF2462
C:\Users\CYMR90~1\AppData\Local\Temp\ccf145Mk.s:27280  .debug_str:000000000001cd05 .LASF2463
C:\Users\CYMR90~1\AppData\Local\Temp\ccf145Mk.s:20677  .debug_str:0000000000002264 .LASF2464
C:\Users\CYMR90~1\AppData\Local\Temp\ccf145Mk.s:25373  .debug_str:000000000001504f .LASF2465
C:\Users\CYMR90~1\AppData\Local\Temp\ccf145Mk.s:30100  .debug_str:0000000000027ee3 .LASF2466
C:\Users\CYMR90~1\AppData\Local\Temp\ccf145Mk.s:23491  .debug_str:000000000000d82e .LASF2467
C:\Users\CYMR90~1\AppData\Local\Temp\ccf145Mk.s:28154  .debug_str:00000000000202fa .LASF2468
C:\Users\CYMR90~1\AppData\Local\Temp\ccf145Mk.s:26262  .debug_str:0000000000018911 .LASF2469
C:\Users\CYMR90~1\AppData\Local\Temp\ccf145Mk.s:21089  .debug_str:0000000000003cbd .LASF2470
C:\Users\CYMR90~1\AppData\Local\Temp\ccf145Mk.s:20733  .debug_str:00000000000025e2 .LASF2471
C:\Users\CYMR90~1\AppData\Local\Temp\ccf145Mk.s:24939  .debug_str:000000000001357f .LASF2472
C:\Users\CYMR90~1\AppData\Local\Temp\ccf145Mk.s:30154  .debug_str:000000000002837e .LASF2473
C:\Users\CYMR90~1\AppData\Local\Temp\ccf145Mk.s:23545  .debug_str:000000000000db50 .LASF2474
C:\Users\CYMR90~1\AppData\Local\Temp\ccf145Mk.s:28212  .debug_str:00000000000206dd .LASF2475
C:\Users\CYMR90~1\AppData\Local\Temp\ccf145Mk.s:30378  .debug_str:0000000000029199 .LASF2476
C:\Users\CYMR90~1\AppData\Local\Temp\ccf145Mk.s:20869  .debug_str:0000000000002eb6 .LASF2477
C:\Users\CYMR90~1\AppData\Local\Temp\ccf145Mk.s:25451  .debug_str:00000000000154ac .LASF2478
C:\Users\CYMR90~1\AppData\Local\Temp\ccf145Mk.s:30140  .debug_str:00000000000281da .LASF2479
C:\Users\CYMR90~1\AppData\Local\Temp\ccf145Mk.s:28480  .debug_str:0000000000021747 .LASF2480
C:\Users\CYMR90~1\AppData\Local\Temp\ccf145Mk.s:26880  .debug_str:000000000001b324 .LASF2481
C:\Users\CYMR90~1\AppData\Local\Temp\ccf145Mk.s:26990  .debug_str:000000000001b940 .LASF2482
C:\Users\CYMR90~1\AppData\Local\Temp\ccf145Mk.s:30226  .debug_str:0000000000028886 .LASF2483
C:\Users\CYMR90~1\AppData\Local\Temp\ccf145Mk.s:22101  .debug_str:0000000000007d4d .LASF2484
C:\Users\CYMR90~1\AppData\Local\Temp\ccf145Mk.s:25227  .debug_str:000000000001470d .LASF2485
C:\Users\CYMR90~1\AppData\Local\Temp\ccf145Mk.s:24943  .debug_str:00000000000135ac .LASF2486
C:\Users\CYMR90~1\AppData\Local\Temp\ccf145Mk.s:29630  .debug_str:00000000000260f9 .LASF2487
C:\Users\CYMR90~1\AppData\Local\Temp\ccf145Mk.s:23027  .debug_str:000000000000b9dc .LASF2488
C:\Users\CYMR90~1\AppData\Local\Temp\ccf145Mk.s:27672  .debug_str:000000000001e5f4 .LASF2489
C:\Users\CYMR90~1\AppData\Local\Temp\ccf145Mk.s:21079  .debug_str:0000000000003c2a .LASF2490
C:\Users\CYMR90~1\AppData\Local\Temp\ccf145Mk.s:25796  .debug_str:0000000000016d25 .LASF2491
C:\Users\CYMR90~1\AppData\Local\Temp\ccf145Mk.s:30516  .debug_str:00000000000299d5 .LASF2492
C:\Users\CYMR90~1\AppData\Local\Temp\ccf145Mk.s:23903  .debug_str:000000000000f121 .LASF2493
C:\Users\CYMR90~1\AppData\Local\Temp\ccf145Mk.s:21961  .debug_str:00000000000073ac .LASF2494
C:\Users\CYMR90~1\AppData\Local\Temp\ccf145Mk.s:23081  .debug_str:000000000000bddb .LASF2495
C:\Users\CYMR90~1\AppData\Local\Temp\ccf145Mk.s:27716  .debug_str:000000000001e8f6 .LASF2496
C:\Users\CYMR90~1\AppData\Local\Temp\ccf145Mk.s:21125  .debug_str:0000000000003efc .LASF2497
C:\Users\CYMR90~1\AppData\Local\Temp\ccf145Mk.s:20523  .debug_str:000000000000197d .LASF2498
C:\Users\CYMR90~1\AppData\Local\Temp\ccf145Mk.s:30568  .debug_str:0000000000029cfa .LASF2499
C:\Users\CYMR90~1\AppData\Local\Temp\ccf145Mk.s:23965  .debug_str:000000000000f587 .LASF2500
C:\Users\CYMR90~1\AppData\Local\Temp\ccf145Mk.s:23683  .debug_str:000000000000e3bb .LASF2501
C:\Users\CYMR90~1\AppData\Local\Temp\ccf145Mk.s:26890  .debug_str:000000000001b3d2 .LASF2502
C:\Users\CYMR90~1\AppData\Local\Temp\ccf145Mk.s:30110  .debug_str:0000000000027f8a .LASF2503
C:\Users\CYMR90~1\AppData\Local\Temp\ccf145Mk.s:21979  .debug_str:00000000000074e1 .LASF2504
C:\Users\CYMR90~1\AppData\Local\Temp\ccf145Mk.s:25111  .debug_str:0000000000013fbe .LASF2505
C:\Users\CYMR90~1\AppData\Local\Temp\ccf145Mk.s:28308  .debug_str:0000000000020cd8 .LASF2506
C:\Users\CYMR90~1\AppData\Local\Temp\ccf145Mk.s:30502  .debug_str:0000000000029912 .LASF2507
C:\Users\CYMR90~1\AppData\Local\Temp\ccf145Mk.s:23457  .debug_str:000000000000d655 .LASF2508
C:\Users\CYMR90~1\AppData\Local\Temp\ccf145Mk.s:26672  .debug_str:000000000001a568 .LASF2509
C:\Users\CYMR90~1\AppData\Local\Temp\ccf145Mk.s:29872  .debug_str:0000000000026fe6 .LASF2510
C:\Users\CYMR90~1\AppData\Local\Temp\ccf145Mk.s:30196  .debug_str:000000000002863d .LASF2511
C:\Users\CYMR90~1\AppData\Local\Temp\ccf145Mk.s:23587  .debug_str:000000000000de13 .LASF2512
C:\Users\CYMR90~1\AppData\Local\Temp\ccf145Mk.s:28254  .debug_str:000000000002097a .LASF2513
C:\Users\CYMR90~1\AppData\Local\Temp\ccf145Mk.s:21625  .debug_str:0000000000005e6c .LASF2514
C:\Users\CYMR90~1\AppData\Local\Temp\ccf145Mk.s:26366  .debug_str:000000000001910f .LASF2515
C:\Users\CYMR90~1\AppData\Local\Temp\ccf145Mk.s:27130  .debug_str:000000000001c249 .LASF2516
C:\Users\CYMR90~1\AppData\Local\Temp\ccf145Mk.s:24457  .debug_str:00000000000114e1 .LASF2517
C:\Users\CYMR90~1\AppData\Local\Temp\ccf145Mk.s:29144  .debug_str:0000000000023ee8 .LASF2518
C:\Users\CYMR90~1\AppData\Local\Temp\ccf145Mk.s:27220  .debug_str:000000000001c89e .LASF2519
C:\Users\CYMR90~1\AppData\Local\Temp\ccf145Mk.s:28400  .debug_str:00000000000211c8 .LASF2520
C:\Users\CYMR90~1\AppData\Local\Temp\ccf145Mk.s:21777  .debug_str:00000000000067d3 .LASF2521
C:\Users\CYMR90~1\AppData\Local\Temp\ccf145Mk.s:26504  .debug_str:0000000000019a0e .LASF2522
C:\Users\CYMR90~1\AppData\Local\Temp\ccf145Mk.s:31224  .debug_str:000000000002c631 .LASF2523
C:\Users\CYMR90~1\AppData\Local\Temp\ccf145Mk.s:24597  .debug_str:0000000000011e92 .LASF2524
C:\Users\CYMR90~1\AppData\Local\Temp\ccf145Mk.s:29272  .debug_str:00000000000247c7 .LASF2525
C:\Users\CYMR90~1\AppData\Local\Temp\ccf145Mk.s:24797  .debug_str:0000000000012ba3 .LASF2526
C:\Users\CYMR90~1\AppData\Local\Temp\ccf145Mk.s:20967  .debug_str:0000000000003511 .LASF2527
C:\Users\CYMR90~1\AppData\Local\Temp\ccf145Mk.s:26158  .debug_str:00000000000182ab .LASF2528
C:\Users\CYMR90~1\AppData\Local\Temp\ccf145Mk.s:22513  .debug_str:000000000000984d .LASF2529
C:\Users\CYMR90~1\AppData\Local\Temp\ccf145Mk.s:21297  .debug_str:0000000000004b12 .LASF2530
C:\Users\CYMR90~1\AppData\Local\Temp\ccf145Mk.s:29590  .debug_str:0000000000025e5b .LASF2531
C:\Users\CYMR90~1\AppData\Local\Temp\ccf145Mk.s:25575  .debug_str:0000000000015c79 .LASF2532
C:\Users\CYMR90~1\AppData\Local\Temp\ccf145Mk.s:25343  .debug_str:0000000000014e8d .LASF2533
C:\Users\CYMR90~1\AppData\Local\Temp\ccf145Mk.s:25717  .debug_str:00000000000165ce .LASF2534
C:\Users\CYMR90~1\AppData\Local\Temp\ccf145Mk.s:22579  .debug_str:0000000000009c38 .LASF2535
C:\Users\CYMR90~1\AppData\Local\Temp\ccf145Mk.s:29252  .debug_str:0000000000024687 .LASF2536
C:\Users\CYMR90~1\AppData\Local\Temp\ccf145Mk.s:30328  .debug_str:0000000000028e60 .LASF2537
C:\Users\CYMR90~1\AppData\Local\Temp\ccf145Mk.s:20215  .debug_str:00000000000006e4 .LASF2538
C:\Users\CYMR90~1\AppData\Local\Temp\ccf145Mk.s:22001  .debug_str:000000000000763f .LASF2539
C:\Users\CYMR90~1\AppData\Local\Temp\ccf145Mk.s:21007  .debug_str:000000000000379e .LASF2540
C:\Users\CYMR90~1\AppData\Local\Temp\ccf145Mk.s:29480  .debug_str:00000000000256e9 .LASF2541
C:\Users\CYMR90~1\AppData\Local\Temp\ccf145Mk.s:24599  .debug_str:0000000000011ea7 .LASF2542
C:\Users\CYMR90~1\AppData\Local\Temp\ccf145Mk.s:23379  .debug_str:000000000000d0dd .LASF2543
C:\Users\CYMR90~1\AppData\Local\Temp\ccf145Mk.s:27982  .debug_str:000000000001f874 .LASF2544
C:\Users\CYMR90~1\AppData\Local\Temp\ccf145Mk.s:27098  .debug_str:000000000001c077 .LASF2545
C:\Users\CYMR90~1\AppData\Local\Temp\ccf145Mk.s:21053  .debug_str:0000000000003a65 .LASF2546
C:\Users\CYMR90~1\AppData\Local\Temp\ccf145Mk.s:29638  .debug_str:0000000000026189 .LASF2547
C:\Users\CYMR90~1\AppData\Local\Temp\ccf145Mk.s:23345  .debug_str:000000000000ceaf .LASF2548
C:\Users\CYMR90~1\AppData\Local\Temp\ccf145Mk.s:22417  .debug_str:00000000000091d3 .LASF2549
C:\Users\CYMR90~1\AppData\Local\Temp\ccf145Mk.s:21391  .debug_str:00000000000050a0 .LASF2550
C:\Users\CYMR90~1\AppData\Local\Temp\ccf145Mk.s:29984  .debug_str:0000000000027734 .LASF2551
C:\Users\CYMR90~1\AppData\Local\Temp\ccf145Mk.s:30282  .debug_str:0000000000028bef .LASF2552
C:\Users\CYMR90~1\AppData\Local\Temp\ccf145Mk.s:24455  .debug_str:00000000000114bf .LASF2553
C:\Users\CYMR90~1\AppData\Local\Temp\ccf145Mk.s:28350  .debug_str:0000000000020f07 .LASF2554
C:\Users\CYMR90~1\AppData\Local\Temp\ccf145Mk.s:25497  .debug_str:000000000001574b .LASF2555
C:\Users\CYMR90~1\AppData\Local\Temp\ccf145Mk.s:26062  .debug_str:0000000000017d18 .LASF2556
C:\Users\CYMR90~1\AppData\Local\Temp\ccf145Mk.s:24921  .debug_str:0000000000013456 .LASF2557
C:\Users\CYMR90~1\AppData\Local\Temp\ccf145Mk.s:25399  .debug_str:00000000000151fe .LASF2558
C:\Users\CYMR90~1\AppData\Local\Temp\ccf145Mk.s:24121  .debug_str:000000000000ff8d .LASF2559
C:\Users\CYMR90~1\AppData\Local\Temp\ccf145Mk.s:24405  .debug_str:00000000000111b1 .LASF2560
C:\Users\CYMR90~1\AppData\Local\Temp\ccf145Mk.s:23495  .debug_str:000000000000d873 .LASF2561
C:\Users\CYMR90~1\AppData\Local\Temp\ccf145Mk.s:22493  .debug_str:000000000000969e .LASF2562
C:\Users\CYMR90~1\AppData\Local\Temp\ccf145Mk.s:30984  .debug_str:000000000002b61e .LASF2563
C:\Users\CYMR90~1\AppData\Local\Temp\ccf145Mk.s:24145  .debug_str:0000000000010140 .LASF2564
C:\Users\CYMR90~1\AppData\Local\Temp\ccf145Mk.s:30322  .debug_str:0000000000028e03 .LASF2565
C:\Users\CYMR90~1\AppData\Local\Temp\ccf145Mk.s:29034  .debug_str:0000000000023879 .LASF2566
C:\Users\CYMR90~1\AppData\Local\Temp\ccf145Mk.s:25890  .debug_str:0000000000017292 .LASF2567
C:\Users\CYMR90~1\AppData\Local\Temp\ccf145Mk.s:25515  .debug_str:0000000000015881 .LASF2568
C:\Users\CYMR90~1\AppData\Local\Temp\ccf145Mk.s:25643  .debug_str:0000000000016127 .LASF2569
C:\Users\CYMR90~1\AppData\Local\Temp\ccf145Mk.s:30006  .debug_str:0000000000027874 .LASF2570
C:\Users\CYMR90~1\AppData\Local\Temp\ccf145Mk.s:23361  .debug_str:000000000000cfb3 .LASF2571
C:\Users\CYMR90~1\AppData\Local\Temp\ccf145Mk.s:27762  .debug_str:000000000001eb44 .LASF2572
C:\Users\CYMR90~1\AppData\Local\Temp\ccf145Mk.s:21895  .debug_str:0000000000006f9f .LASF2573
C:\Users\CYMR90~1\AppData\Local\Temp\ccf145Mk.s:20359  .debug_str:0000000000000fe3 .LASF2574
C:\Users\CYMR90~1\AppData\Local\Temp\ccf145Mk.s:26756  .debug_str:000000000001ab1c .LASF2575
C:\Users\CYMR90~1\AppData\Local\Temp\ccf145Mk.s:22757  .debug_str:000000000000a80d .LASF2576
C:\Users\CYMR90~1\AppData\Local\Temp\ccf145Mk.s:25623  .debug_str:0000000000015ff0 .LASF2577
C:\Users\CYMR90~1\AppData\Local\Temp\ccf145Mk.s:23079  .debug_str:000000000000bdc3 .LASF2578
C:\Users\CYMR90~1\AppData\Local\Temp\ccf145Mk.s:23209  .debug_str:000000000000c5e8 .LASF2579
C:\Users\CYMR90~1\AppData\Local\Temp\ccf145Mk.s:27140  .debug_str:000000000001c2c2 .LASF2580
C:\Users\CYMR90~1\AppData\Local\Temp\ccf145Mk.s:21333  .debug_str:0000000000004d34 .LASF2581
C:\Users\CYMR90~1\AppData\Local\Temp\ccf145Mk.s:26996  .debug_str:000000000001b997 .LASF2582
C:\Users\CYMR90~1\AppData\Local\Temp\ccf145Mk.s:25501  .debug_str:00000000000157b4 .LASF2583
C:\Users\CYMR90~1\AppData\Local\Temp\ccf145Mk.s:30466  .debug_str:00000000000296fe .LASF2584
C:\Users\CYMR90~1\AppData\Local\Temp\ccf145Mk.s:28636  .debug_str:00000000000220a1 .LASF2585
C:\Users\CYMR90~1\AppData\Local\Temp\ccf145Mk.s:21303  .debug_str:0000000000004b77 .LASF2586
C:\Users\CYMR90~1\AppData\Local\Temp\ccf145Mk.s:20371  .debug_str:000000000000108a .LASF2587
C:\Users\CYMR90~1\AppData\Local\Temp\ccf145Mk.s:30744  .debug_str:000000000002a774 .LASF2588
C:\Users\CYMR90~1\AppData\Local\Temp\ccf145Mk.s:20309  .debug_str:0000000000000cc0 .LASF2589
C:\Users\CYMR90~1\AppData\Local\Temp\ccf145Mk.s:22021  .debug_str:0000000000007786 .LASF2590
C:\Users\CYMR90~1\AppData\Local\Temp\ccf145Mk.s:22491  .debug_str:000000000000967e .LASF2591
C:\Users\CYMR90~1\AppData\Local\Temp\ccf145Mk.s:24775  .debug_str:0000000000012a67 .LASF2592
C:\Users\CYMR90~1\AppData\Local\Temp\ccf145Mk.s:22549  .debug_str:0000000000009a81 .LASF2593
C:\Users\CYMR90~1\AppData\Local\Temp\ccf145Mk.s:21091  .debug_str:0000000000003cd6 .LASF2594
C:\Users\CYMR90~1\AppData\Local\Temp\ccf145Mk.s:27006  .debug_str:000000000001ba67 .LASF2595
C:\Users\CYMR90~1\AppData\Local\Temp\ccf145Mk.s:26150  .debug_str:0000000000018243 .LASF2596
C:\Users\CYMR90~1\AppData\Local\Temp\ccf145Mk.s:27714  .debug_str:000000000001e8d4 .LASF2597
C:\Users\CYMR90~1\AppData\Local\Temp\ccf145Mk.s:31314  .debug_str:000000000002cbd6 .LASF2598
C:\Users\CYMR90~1\AppData\Local\Temp\ccf145Mk.s:20549  .debug_str:0000000000001b2d .LASF2599
C:\Users\CYMR90~1\AppData\Local\Temp\ccf145Mk.s:25027  .debug_str:0000000000013acf .LASF2600
C:\Users\CYMR90~1\AppData\Local\Temp\ccf145Mk.s:28612  .debug_str:0000000000021f19 .LASF2601
C:\Users\CYMR90~1\AppData\Local\Temp\ccf145Mk.s:31094  .debug_str:000000000002bd42 .LASF2602
C:\Users\CYMR90~1\AppData\Local\Temp\ccf145Mk.s:24461  .debug_str:0000000000011525 .LASF2603
C:\Users\CYMR90~1\AppData\Local\Temp\ccf145Mk.s:23793  .debug_str:000000000000eae1 .LASF2604
C:\Users\CYMR90~1\AppData\Local\Temp\ccf145Mk.s:27264  .debug_str:000000000001cb69 .LASF2605
C:\Users\CYMR90~1\AppData\Local\Temp\ccf145Mk.s:26540  .debug_str:0000000000019c4b .LASF2606
C:\Users\CYMR90~1\AppData\Local\Temp\ccf145Mk.s:21351  .debug_str:0000000000004e4e .LASF2607
C:\Users\CYMR90~1\AppData\Local\Temp\ccf145Mk.s:21267  .debug_str:000000000000493a .LASF2608
C:\Users\CYMR90~1\AppData\Local\Temp\ccf145Mk.s:31350  .debug_str:000000000002ce8b .LASF2609
C:\Users\CYMR90~1\AppData\Local\Temp\ccf145Mk.s:27882  .debug_str:000000000001f288 .LASF2610
C:\Users\CYMR90~1\AppData\Local\Temp\ccf145Mk.s:22171  .debug_str:0000000000008289 .LASF2611
C:\Users\CYMR90~1\AppData\Local\Temp\ccf145Mk.s:22159  .debug_str:00000000000081e8 .LASF2612
C:\Users\CYMR90~1\AppData\Local\Temp\ccf145Mk.s:29524  .debug_str:0000000000025a3e .LASF2613
C:\Users\CYMR90~1\AppData\Local\Temp\ccf145Mk.s:24417  .debug_str:0000000000011274 .LASF2614
C:\Users\CYMR90~1\AppData\Local\Temp\ccf145Mk.s:25641  .debug_str:0000000000016103 .LASF2615
C:\Users\CYMR90~1\AppData\Local\Temp\ccf145Mk.s:26954  .debug_str:000000000001b7a1 .LASF2616
C:\Users\CYMR90~1\AppData\Local\Temp\ccf145Mk.s:30258  .debug_str:0000000000028a8d .LASF2617
C:\Users\CYMR90~1\AppData\Local\Temp\ccf145Mk.s:28486  .debug_str:00000000000217b5 .LASF2618
C:\Users\CYMR90~1\AppData\Local\Temp\ccf145Mk.s:27506  .debug_str:000000000001db81 .LASF2619
C:\Users\CYMR90~1\AppData\Local\Temp\ccf145Mk.s:26516  .debug_str:0000000000019ae3 .LASF2620
C:\Users\CYMR90~1\AppData\Local\Temp\ccf145Mk.s:25599  .debug_str:0000000000015e2d .LASF2621
C:\Users\CYMR90~1\AppData\Local\Temp\ccf145Mk.s:24683  .debug_str:000000000001243b .LASF2622
C:\Users\CYMR90~1\AppData\Local\Temp\ccf145Mk.s:28878  .debug_str:0000000000022f10 .LASF2623
C:\Users\CYMR90~1\AppData\Local\Temp\ccf145Mk.s:25429  .debug_str:0000000000015393 .LASF2624
C:\Users\CYMR90~1\AppData\Local\Temp\ccf145Mk.s:21187  .debug_str:0000000000004372 .LASF2625
C:\Users\CYMR90~1\AppData\Local\Temp\ccf145Mk.s:20897  .debug_str:000000000000306e .LASF2626
C:\Users\CYMR90~1\AppData\Local\Temp\ccf145Mk.s:22419  .debug_str:00000000000091f5 .LASF2627
C:\Users\CYMR90~1\AppData\Local\Temp\ccf145Mk.s:20305  .debug_str:0000000000000c89 .LASF2628
C:\Users\CYMR90~1\AppData\Local\Temp\ccf145Mk.s:23583  .debug_str:000000000000ddd5 .LASF2629
C:\Users\CYMR90~1\AppData\Local\Temp\ccf145Mk.s:22229  .debug_str:0000000000008602 .LASF2630
C:\Users\CYMR90~1\AppData\Local\Temp\ccf145Mk.s:20597  .debug_str:0000000000001e14 .LASF2631
C:\Users\CYMR90~1\AppData\Local\Temp\ccf145Mk.s:23043  .debug_str:000000000000bad1 .LASF2632
C:\Users\CYMR90~1\AppData\Local\Temp\ccf145Mk.s:20411  .debug_str:00000000000012bc .LASF2633
C:\Users\CYMR90~1\AppData\Local\Temp\ccf145Mk.s:26644  .debug_str:000000000001a411 .LASF2634
C:\Users\CYMR90~1\AppData\Local\Temp\ccf145Mk.s:26426  .debug_str:0000000000019486 .LASF2635
C:\Users\CYMR90~1\AppData\Local\Temp\ccf145Mk.s:24951  .debug_str:000000000001363c .LASF2636
C:\Users\CYMR90~1\AppData\Local\Temp\ccf145Mk.s:30162  .debug_str:00000000000283f8 .LASF2637
C:\Users\CYMR90~1\AppData\Local\Temp\ccf145Mk.s:22619  .debug_str:0000000000009ec9 .LASF2638
C:\Users\CYMR90~1\AppData\Local\Temp\ccf145Mk.s:26686  .debug_str:000000000001a655 .LASF2639
C:\Users\CYMR90~1\AppData\Local\Temp\ccf145Mk.s:27312  .debug_str:000000000001cf78 .LASF2640
C:\Users\CYMR90~1\AppData\Local\Temp\ccf145Mk.s:25824  .debug_str:0000000000016ee3 .LASF2641
C:\Users\CYMR90~1\AppData\Local\Temp\ccf145Mk.s:29758  .debug_str:0000000000026904 .LASF2642
C:\Users\CYMR90~1\AppData\Local\Temp\ccf145Mk.s:24893  .debug_str:00000000000131e9 .LASF2643
C:\Users\CYMR90~1\AppData\Local\Temp\ccf145Mk.s:20175  .debug_str:000000000000048d .LASF2644
C:\Users\CYMR90~1\AppData\Local\Temp\ccf145Mk.s:20661  .debug_str:0000000000002169 .LASF2645
C:\Users\CYMR90~1\AppData\Local\Temp\ccf145Mk.s:25459  .debug_str:000000000001551c .LASF2646
C:\Users\CYMR90~1\AppData\Local\Temp\ccf145Mk.s:20293  .debug_str:0000000000000be8 .LASF2647
C:\Users\CYMR90~1\AppData\Local\Temp\ccf145Mk.s:27410  .debug_str:000000000001d5c5 .LASF2648
C:\Users\CYMR90~1\AppData\Local\Temp\ccf145Mk.s:27986  .debug_str:000000000001f8af .LASF2649
C:\Users\CYMR90~1\AppData\Local\Temp\ccf145Mk.s:29320  .debug_str:0000000000024b26 .LASF2650
C:\Users\CYMR90~1\AppData\Local\Temp\ccf145Mk.s:21453  .debug_str:0000000000005476 .LASF2651
C:\Users\CYMR90~1\AppData\Local\Temp\ccf145Mk.s:21055  .debug_str:0000000000003a87 .LASF2652
C:\Users\CYMR90~1\AppData\Local\Temp\ccf145Mk.s:25155  .debug_str:00000000000142a1 .LASF2653
C:\Users\CYMR90~1\AppData\Local\Temp\ccf145Mk.s:23119  .debug_str:000000000000c05a .LASF2654
C:\Users\CYMR90~1\AppData\Local\Temp\ccf145Mk.s:27870  .debug_str:000000000001f1cd .LASF2655
C:\Users\CYMR90~1\AppData\Local\Temp\ccf145Mk.s:23667  .debug_str:000000000000e2c5 .LASF2656
C:\Users\CYMR90~1\AppData\Local\Temp\ccf145Mk.s:27684  .debug_str:000000000001e6d5 .LASF2657
C:\Users\CYMR90~1\AppData\Local\Temp\ccf145Mk.s:31298  .debug_str:000000000002cb00 .LASF2658
C:\Users\CYMR90~1\AppData\Local\Temp\ccf145Mk.s:21567  .debug_str:0000000000005b1c .LASF2659
C:\Users\CYMR90~1\AppData\Local\Temp\ccf145Mk.s:26670  .debug_str:000000000001a54a .LASF2660
C:\Users\CYMR90~1\AppData\Local\Temp\ccf145Mk.s:22835  .debug_str:000000000000acf6 .LASF2661
C:\Users\CYMR90~1\AppData\Local\Temp\ccf145Mk.s:29458  .debug_str:000000000002552a .LASF2662
C:\Users\CYMR90~1\AppData\Local\Temp\ccf145Mk.s:20845  .debug_str:0000000000002d2a .LASF2663
C:\Users\CYMR90~1\AppData\Local\Temp\ccf145Mk.s:31182  .debug_str:000000000002c348 .LASF2664
C:\Users\CYMR90~1\AppData\Local\Temp\ccf145Mk.s:20447  .debug_str:00000000000014dd .LASF2665
C:\Users\CYMR90~1\AppData\Local\Temp\ccf145Mk.s:20213  .debug_str:00000000000006b7 .LASF2666
C:\Users\CYMR90~1\AppData\Local\Temp\ccf145Mk.s:28652  .debug_str:0000000000022190 .LASF2667
C:\Users\CYMR90~1\AppData\Local\Temp\ccf145Mk.s:25049  .debug_str:0000000000013c1a .LASF2668
C:\Users\CYMR90~1\AppData\Local\Temp\ccf145Mk.s:24841  .debug_str:0000000000012e8e .LASF2669
C:\Users\CYMR90~1\AppData\Local\Temp\ccf145Mk.s:27678  .debug_str:000000000001e66a .LASF2670
C:\Users\CYMR90~1\AppData\Local\Temp\ccf145Mk.s:22965  .debug_str:000000000000b5e8 .LASF2671
C:\Users\CYMR90~1\AppData\Local\Temp\ccf145Mk.s:21831  .debug_str:0000000000006b42 .LASF2672
C:\Users\CYMR90~1\AppData\Local\Temp\ccf145Mk.s:27980  .debug_str:000000000001f846 .LASF2673
C:\Users\CYMR90~1\AppData\Local\Temp\ccf145Mk.s:30524  .debug_str:0000000000029a3c .LASF2674
C:\Users\CYMR90~1\AppData\Local\Temp\ccf145Mk.s:25978  .debug_str:0000000000017807 .LASF2675
C:\Users\CYMR90~1\AppData\Local\Temp\ccf145Mk.s:27326  .debug_str:000000000001d06d .LASF2676
C:\Users\CYMR90~1\AppData\Local\Temp\ccf145Mk.s:25215  .debug_str:000000000001464b .LASF2677
C:\Users\CYMR90~1\AppData\Local\Temp\ccf145Mk.s:29486  .debug_str:000000000002575c .LASF2678
C:\Users\CYMR90~1\AppData\Local\Temp\ccf145Mk.s:26848  .debug_str:000000000001b11e .LASF2679
C:\Users\CYMR90~1\AppData\Local\Temp\ccf145Mk.s:30902  .debug_str:000000000002b0a5 .LASF2680
C:\Users\CYMR90~1\AppData\Local\Temp\ccf145Mk.s:21363  .debug_str:0000000000004efe .LASF2681
C:\Users\CYMR90~1\AppData\Local\Temp\ccf145Mk.s:21991  .debug_str:000000000000759d .LASF2682
C:\Users\CYMR90~1\AppData\Local\Temp\ccf145Mk.s:30338  .debug_str:0000000000028f39 .LASF2683
C:\Users\CYMR90~1\AppData\Local\Temp\ccf145Mk.s:26352  .debug_str:0000000000019017 .LASF2684
C:\Users\CYMR90~1\AppData\Local\Temp\ccf145Mk.s:29398  .debug_str:000000000002501c .LASF2685
C:\Users\CYMR90~1\AppData\Local\Temp\ccf145Mk.s:23353  .debug_str:000000000000cf25 .LASF2686
C:\Users\CYMR90~1\AppData\Local\Temp\ccf145Mk.s:28544  .debug_str:0000000000021b27 .LASF2687
C:\Users\CYMR90~1\AppData\Local\Temp\ccf145Mk.s:28798  .debug_str:0000000000022a1c .LASF2688
C:\Users\CYMR90~1\AppData\Local\Temp\ccf145Mk.s:24449  .debug_str:0000000000011475 .LASF2689
C:\Users\CYMR90~1\AppData\Local\Temp\ccf145Mk.s:21037  .debug_str:0000000000003989 .LASF2690
C:\Users\CYMR90~1\AppData\Local\Temp\ccf145Mk.s:26306  .debug_str:0000000000018c71 .LASF2691
C:\Users\CYMR90~1\AppData\Local\Temp\ccf145Mk.s:20227  .debug_str:000000000000079a .LASF2692
C:\Users\CYMR90~1\AppData\Local\Temp\ccf145Mk.s:28078  .debug_str:000000000001fe92 .LASF2693
C:\Users\CYMR90~1\AppData\Local\Temp\ccf145Mk.s:30248  .debug_str:00000000000289cc .LASF2694
C:\Users\CYMR90~1\AppData\Local\Temp\ccf145Mk.s:22129  .debug_str:0000000000007fc9 .LASF2695
C:\Users\CYMR90~1\AppData\Local\Temp\ccf145Mk.s:22769  .debug_str:000000000000a8c7 .LASF2696
C:\Users\CYMR90~1\AppData\Local\Temp\ccf145Mk.s:28540  .debug_str:0000000000021aeb .LASF2697
C:\Users\CYMR90~1\AppData\Local\Temp\ccf145Mk.s:20361  .debug_str:0000000000000ff5 .LASF2698
C:\Users\CYMR90~1\AppData\Local\Temp\ccf145Mk.s:23595  .debug_str:000000000000de84 .LASF2699
C:\Users\CYMR90~1\AppData\Local\Temp\ccf145Mk.s:26816  .debug_str:000000000001af18 .LASF2700
C:\Users\CYMR90~1\AppData\Local\Temp\ccf145Mk.s:30008  .debug_str:0000000000027887 .LASF2701
C:\Users\CYMR90~1\AppData\Local\Temp\ccf145Mk.s:21873  .debug_str:0000000000006e12 .LASF2702
C:\Users\CYMR90~1\AppData\Local\Temp\ccf145Mk.s:25103  .debug_str:0000000000013f2f .LASF2703
C:\Users\CYMR90~1\AppData\Local\Temp\ccf145Mk.s:21561  .debug_str:0000000000005acc .LASF2704
C:\Users\CYMR90~1\AppData\Local\Temp\ccf145Mk.s:26300  .debug_str:0000000000018c14 .LASF2705
C:\Users\CYMR90~1\AppData\Local\Temp\ccf145Mk.s:31028  .debug_str:000000000002b918 .LASF2706
C:\Users\CYMR90~1\AppData\Local\Temp\ccf145Mk.s:24395  .debug_str:00000000000110fb .LASF2707
C:\Users\CYMR90~1\AppData\Local\Temp\ccf145Mk.s:29072  .debug_str:0000000000023abc .LASF2708
C:\Users\CYMR90~1\AppData\Local\Temp\ccf145Mk.s:22469  .debug_str:000000000000953f .LASF2709
C:\Users\CYMR90~1\AppData\Local\Temp\ccf145Mk.s:22847  .debug_str:000000000000ae7f .LASF2710
C:\Users\CYMR90~1\AppData\Local\Temp\ccf145Mk.s:23505  .debug_str:000000000000d927 .LASF2711
C:\Users\CYMR90~1\AppData\Local\Temp\ccf145Mk.s:28792  .debug_str:00000000000229b6 .LASF2712
C:\Users\CYMR90~1\AppData\Local\Temp\ccf145Mk.s:26028  .debug_str:0000000000017b16 .LASF2713
C:\Users\CYMR90~1\AppData\Local\Temp\ccf145Mk.s:21281  .debug_str:0000000000004a07 .LASF2714
C:\Users\CYMR90~1\AppData\Local\Temp\ccf145Mk.s:22717  .debug_str:000000000000a4be .LASF2715
C:\Users\CYMR90~1\AppData\Local\Temp\ccf145Mk.s:27900  .debug_str:000000000001f3b6 .LASF2716
C:\Users\CYMR90~1\AppData\Local\Temp\ccf145Mk.s:21845  .debug_str:0000000000006c4d .LASF2717
C:\Users\CYMR90~1\AppData\Local\Temp\ccf145Mk.s:27010  .debug_str:000000000001bab4 .LASF2718
C:\Users\CYMR90~1\AppData\Local\Temp\ccf145Mk.s:23207  .debug_str:000000000000c5cc .LASF2719
C:\Users\CYMR90~1\AppData\Local\Temp\ccf145Mk.s:22947  .debug_str:000000000000b4b8 .LASF2720
C:\Users\CYMR90~1\AppData\Local\Temp\ccf145Mk.s:28150  .debug_str:00000000000202b9 .LASF2721
C:\Users\CYMR90~1\AppData\Local\Temp\ccf145Mk.s:22083  .debug_str:0000000000007c18 .LASF2722
C:\Users\CYMR90~1\AppData\Local\Temp\ccf145Mk.s:27232  .debug_str:000000000001c94d .LASF2723
C:\Users\CYMR90~1\AppData\Local\Temp\ccf145Mk.s:21147  .debug_str:00000000000040ef .LASF2724
C:\Users\CYMR90~1\AppData\Local\Temp\ccf145Mk.s:29048  .debug_str:0000000000023959 .LASF2725
C:\Users\CYMR90~1\AppData\Local\Temp\ccf145Mk.s:26332  .debug_str:0000000000018e00 .LASF2726
C:\Users\CYMR90~1\AppData\Local\Temp\ccf145Mk.s:20623  .debug_str:0000000000001f69 .LASF2727
C:\Users\CYMR90~1\AppData\Local\Temp\ccf145Mk.s:20973  .debug_str:000000000000355a .LASF2728
C:\Users\CYMR90~1\AppData\Local\Temp\ccf145Mk.s:29528  .debug_str:0000000000025a81 .LASF2729
C:\Users\CYMR90~1\AppData\Local\Temp\ccf145Mk.s:26874  .debug_str:000000000001b2cb .LASF2730
C:\Users\CYMR90~1\AppData\Local\Temp\ccf145Mk.s:26016  .debug_str:0000000000017a78 .LASF2731
C:\Users\CYMR90~1\AppData\Local\Temp\ccf145Mk.s:31210  .debug_str:000000000002c553 .LASF2732
C:\Users\CYMR90~1\AppData\Local\Temp\ccf145Mk.s:25101  .debug_str:0000000000013f15 .LASF2733
C:\Users\CYMR90~1\AppData\Local\Temp\ccf145Mk.s:30362  .debug_str:00000000000290a0 .LASF2734
C:\Users\CYMR90~1\AppData\Local\Temp\ccf145Mk.s:24201  .debug_str:0000000000010475 .LASF2735
C:\Users\CYMR90~1\AppData\Local\Temp\ccf145Mk.s:26772  .debug_str:000000000001ac0b .LASF2736
C:\Users\CYMR90~1\AppData\Local\Temp\ccf145Mk.s:20655  .debug_str:000000000000211e .LASF2737
C:\Users\CYMR90~1\AppData\Local\Temp\ccf145Mk.s:25814  .debug_str:0000000000016e5e .LASF2738
C:\Users\CYMR90~1\AppData\Local\Temp\ccf145Mk.s:25135  .debug_str:0000000000014179 .LASF2739
C:\Users\CYMR90~1\AppData\Local\Temp\ccf145Mk.s:24905  .debug_str:00000000000132e5 .LASF2740
C:\Users\CYMR90~1\AppData\Local\Temp\ccf145Mk.s:23797  .debug_str:000000000000eb12 .LASF2741
C:\Users\CYMR90~1\AppData\Local\Temp\ccf145Mk.s:30904  .debug_str:000000000002b0bd .LASF2742
C:\Users\CYMR90~1\AppData\Local\Temp\ccf145Mk.s:22789  .debug_str:000000000000aa02 .LASF2743
C:\Users\CYMR90~1\AppData\Local\Temp\ccf145Mk.s:25976  .debug_str:00000000000177ee .LASF2744
C:\Users\CYMR90~1\AppData\Local\Temp\ccf145Mk.s:29198  .debug_str:0000000000024320 .LASF2745
C:\Users\CYMR90~1\AppData\Local\Temp\ccf145Mk.s:21077  .debug_str:0000000000003c11 .LASF2746
C:\Users\CYMR90~1\AppData\Local\Temp\ccf145Mk.s:24331  .debug_str:0000000000010d75 .LASF2747
C:\Users\CYMR90~1\AppData\Local\Temp\ccf145Mk.s:27484  .debug_str:000000000001da3d .LASF2748
C:\Users\CYMR90~1\AppData\Local\Temp\ccf145Mk.s:30656  .debug_str:000000000002a1f9 .LASF2749
C:\Users\CYMR90~1\AppData\Local\Temp\ccf145Mk.s:22545  .debug_str:0000000000009a4c .LASF2750
C:\Users\CYMR90~1\AppData\Local\Temp\ccf145Mk.s:25735  .debug_str:00000000000166de .LASF2751
C:\Users\CYMR90~1\AppData\Local\Temp\ccf145Mk.s:27718  .debug_str:000000000001e911 .LASF2752
C:\Users\CYMR90~1\AppData\Local\Temp\ccf145Mk.s:21127  .debug_str:0000000000003f17 .LASF2753
C:\Users\CYMR90~1\AppData\Local\Temp\ccf145Mk.s:25852  .debug_str:000000000001706c .LASF2754
C:\Users\CYMR90~1\AppData\Local\Temp\ccf145Mk.s:30570  .debug_str:0000000000029d15 .LASF2755
C:\Users\CYMR90~1\AppData\Local\Temp\ccf145Mk.s:23967  .debug_str:000000000000f5a2 .LASF2756
C:\Users\CYMR90~1\AppData\Local\Temp\ccf145Mk.s:28630  .debug_str:0000000000022057 .LASF2757
C:\Users\CYMR90~1\AppData\Local\Temp\ccf145Mk.s:22007  .debug_str:00000000000076b0 .LASF2758
C:\Users\CYMR90~1\AppData\Local\Temp\ccf145Mk.s:25229  .debug_str:0000000000014726 .LASF2759
C:\Users\CYMR90~1\AppData\Local\Temp\ccf145Mk.s:28336  .debug_str:0000000000020e56 .LASF2760
C:\Users\CYMR90~1\AppData\Local\Temp\ccf145Mk.s:20259  .debug_str:000000000000097c .LASF2761
C:\Users\CYMR90~1\AppData\Local\Temp\ccf145Mk.s:23487  .debug_str:000000000000d7f7 .LASF2762
C:\Users\CYMR90~1\AppData\Local\Temp\ccf145Mk.s:26702  .debug_str:000000000001a7d0 .LASF2763
C:\Users\CYMR90~1\AppData\Local\Temp\ccf145Mk.s:29896  .debug_str:0000000000027132 .LASF2764
C:\Users\CYMR90~1\AppData\Local\Temp\ccf145Mk.s:21765  .debug_str:0000000000006720 .LASF2765
C:\Users\CYMR90~1\AppData\Local\Temp\ccf145Mk.s:25005  .debug_str:000000000001397e .LASF2766
C:\Users\CYMR90~1\AppData\Local\Temp\ccf145Mk.s:28196  .debug_str:0000000000020601 .LASF2767
C:\Users\CYMR90~1\AppData\Local\Temp\ccf145Mk.s:25529  .debug_str:0000000000015948 .LASF2768
C:\Users\CYMR90~1\AppData\Local\Temp\ccf145Mk.s:30262  .debug_str:0000000000028abf .LASF2769
C:\Users\CYMR90~1\AppData\Local\Temp\ccf145Mk.s:23651  .debug_str:000000000000e1de .LASF2770
C:\Users\CYMR90~1\AppData\Local\Temp\ccf145Mk.s:21705  .debug_str:0000000000006351 .LASF2771
C:\Users\CYMR90~1\AppData\Local\Temp\ccf145Mk.s:26438  .debug_str:0000000000019532 .LASF2772
C:\Users\CYMR90~1\AppData\Local\Temp\ccf145Mk.s:24963  .debug_str:00000000000136fc .LASF2773
C:\Users\CYMR90~1\AppData\Local\Temp\ccf145Mk.s:28140  .debug_str:00000000000201f0 .LASF2774
C:\Users\CYMR90~1\AppData\Local\Temp\ccf145Mk.s:31394  .debug_str:000000000002d12f .LASF2775
C:\Users\CYMR90~1\AppData\Local\Temp\ccf145Mk.s:27100  .debug_str:000000000001c099 .LASF2776
C:\Users\CYMR90~1\AppData\Local\Temp\ccf145Mk.s:29180  .debug_str:00000000000241d4 .LASF2777
C:\Users\CYMR90~1\AppData\Local\Temp\ccf145Mk.s:29604  .debug_str:0000000000025f30 .LASF2778
C:\Users\CYMR90~1\AppData\Local\Temp\ccf145Mk.s:21473  .debug_str:0000000000005582 .LASF2779
C:\Users\CYMR90~1\AppData\Local\Temp\ccf145Mk.s:24729  .debug_str:000000000001273b .LASF2780
C:\Users\CYMR90~1\AppData\Local\Temp\ccf145Mk.s:27872  .debug_str:000000000001f1f2 .LASF2781
C:\Users\CYMR90~1\AppData\Local\Temp\ccf145Mk.s:31160  .debug_str:000000000002c1f6 .LASF2782
C:\Users\CYMR90~1\AppData\Local\Temp\ccf145Mk.s:28632  .debug_str:0000000000022072 .LASF2783
C:\Users\CYMR90~1\AppData\Local\Temp\ccf145Mk.s:30630  .debug_str:000000000002a075 .LASF2784
C:\Users\CYMR90~1\AppData\Local\Temp\ccf145Mk.s:21051  .debug_str:0000000000003a4e .LASF2785
C:\Users\CYMR90~1\AppData\Local\Temp\ccf145Mk.s:25759  .debug_str:00000000000168b6 .LASF2786
C:\Users\CYMR90~1\AppData\Local\Temp\ccf145Mk.s:30490  .debug_str:000000000002987d .LASF2787
C:\Users\CYMR90~1\AppData\Local\Temp\ccf145Mk.s:23879  .debug_str:000000000000ef8d .LASF2788
C:\Users\CYMR90~1\AppData\Local\Temp\ccf145Mk.s:25725  .debug_str:0000000000016659 .LASF2789
C:\Users\CYMR90~1\AppData\Local\Temp\ccf145Mk.s:30456  .debug_str:0000000000029624 .LASF2790
C:\Users\CYMR90~1\AppData\Local\Temp\ccf145Mk.s:23853  .debug_str:000000000000ee08 .LASF2791
C:\Users\CYMR90~1\AppData\Local\Temp\ccf145Mk.s:28516  .debug_str:0000000000021947 .LASF2792
C:\Users\CYMR90~1\AppData\Local\Temp\ccf145Mk.s:25015  .debug_str:0000000000013a15 .LASF2793
C:\Users\CYMR90~1\AppData\Local\Temp\ccf145Mk.s:20565  .debug_str:0000000000001c0e .LASF2794
C:\Users\CYMR90~1\AppData\Local\Temp\ccf145Mk.s:25265  .debug_str:0000000000014929 .LASF2795
C:\Users\CYMR90~1\AppData\Local\Temp\ccf145Mk.s:29990  .debug_str:000000000002777b .LASF2796
C:\Users\CYMR90~1\AppData\Local\Temp\ccf145Mk.s:23391  .debug_str:000000000000d1d7 .LASF2797
C:\Users\CYMR90~1\AppData\Local\Temp\ccf145Mk.s:28040  .debug_str:000000000001fbf2 .LASF2798
C:\Users\CYMR90~1\AppData\Local\Temp\ccf145Mk.s:23013  .debug_str:000000000000b92e .LASF2799
C:\Users\CYMR90~1\AppData\Local\Temp\ccf145Mk.s:27664  .debug_str:000000000001e566 .LASF2800
C:\Users\CYMR90~1\AppData\Local\Temp\ccf145Mk.s:21067  .debug_str:0000000000003b46 .LASF2801
C:\Users\CYMR90~1\AppData\Local\Temp\ccf145Mk.s:25775  .debug_str:0000000000016a41 .LASF2802
C:\Users\CYMR90~1\AppData\Local\Temp\ccf145Mk.s:22387  .debug_str:0000000000009016 .LASF2803
C:\Users\CYMR90~1\AppData\Local\Temp\ccf145Mk.s:29150  .debug_str:0000000000023f48 .LASF2804
C:\Users\CYMR90~1\AppData\Local\Temp\ccf145Mk.s:20575  .debug_str:0000000000001cac .LASF2805
C:\Users\CYMR90~1\AppData\Local\Temp\ccf145Mk.s:23819  .debug_str:000000000000ec2d .LASF2806
C:\Users\CYMR90~1\AppData\Local\Temp\ccf145Mk.s:29948  .debug_str:0000000000027542 .LASF2807
C:\Users\CYMR90~1\AppData\Local\Temp\ccf145Mk.s:30236  .debug_str:000000000002892d .LASF2808
C:\Users\CYMR90~1\AppData\Local\Temp\ccf145Mk.s:22015  .debug_str:000000000000771f .LASF2809
C:\Users\CYMR90~1\AppData\Local\Temp\ccf145Mk.s:25237  .debug_str:0000000000014785 .LASF2810
C:\Users\CYMR90~1\AppData\Local\Temp\ccf145Mk.s:22555  .debug_str:0000000000009ac8 .LASF2811
C:\Users\CYMR90~1\AppData\Local\Temp\ccf145Mk.s:20349  .debug_str:0000000000000f5b .LASF2812
C:\Users\CYMR90~1\AppData\Local\Temp\ccf145Mk.s:23579  .debug_str:000000000000dda9 .LASF2813
C:\Users\CYMR90~1\AppData\Local\Temp\ccf145Mk.s:22107  .debug_str:0000000000007dc8 .LASF2814
C:\Users\CYMR90~1\AppData\Local\Temp\ccf145Mk.s:26076  .debug_str:0000000000017e0a .LASF2815
C:\Users\CYMR90~1\AppData\Local\Temp\ccf145Mk.s:30812  .debug_str:000000000002ab96 .LASF2816
C:\Users\CYMR90~1\AppData\Local\Temp\ccf145Mk.s:24199  .debug_str:000000000001045e .LASF2817
C:\Users\CYMR90~1\AppData\Local\Temp\ccf145Mk.s:28876  .debug_str:0000000000022ef9 .LASF2818
C:\Users\CYMR90~1\AppData\Local\Temp\ccf145Mk.s:29492  .debug_str:00000000000257c3 .LASF2819
C:\Users\CYMR90~1\AppData\Local\Temp\ccf145Mk.s:26964  .debug_str:000000000001b809 .LASF2820
C:\Users\CYMR90~1\AppData\Local\Temp\ccf145Mk.s:24381  .debug_str:000000000001101d .LASF2821
C:\Users\CYMR90~1\AppData\Local\Temp\ccf145Mk.s:30680  .debug_str:000000000002a338 .LASF2822
C:\Users\CYMR90~1\AppData\Local\Temp\ccf145Mk.s:21793  .debug_str:00000000000068cf .LASF2823
C:\Users\CYMR90~1\AppData\Local\Temp\ccf145Mk.s:22203  .debug_str:0000000000008461 .LASF2824
C:\Users\CYMR90~1\AppData\Local\Temp\ccf145Mk.s:23183  .debug_str:000000000000c435 .LASF2825
C:\Users\CYMR90~1\AppData\Local\Temp\ccf145Mk.s:30696  .debug_str:000000000002a447 .LASF2826
C:\Users\CYMR90~1\AppData\Local\Temp\ccf145Mk.s:20981  .debug_str:00000000000035cc .LASF2827
C:\Users\CYMR90~1\AppData\Local\Temp\ccf145Mk.s:25916  .debug_str:00000000000173fd .LASF2828
C:\Users\CYMR90~1\AppData\Local\Temp\ccf145Mk.s:21341  .debug_str:0000000000004db9 .LASF2829
C:\Users\CYMR90~1\AppData\Local\Temp\ccf145Mk.s:24723  .debug_str:00000000000126d8 .LASF2830
C:\Users\CYMR90~1\AppData\Local\Temp\ccf145Mk.s:21385  .debug_str:0000000000005053 .LASF2831
C:\Users\CYMR90~1\AppData\Local\Temp\ccf145Mk.s:28208  .debug_str:00000000000206a9 .LASF2832
C:\Users\CYMR90~1\AppData\Local\Temp\ccf145Mk.s:25001  .debug_str:0000000000013942 .LASF2833
C:\Users\CYMR90~1\AppData\Local\Temp\ccf145Mk.s:23787  .debug_str:000000000000ea76 .LASF2834
C:\Users\CYMR90~1\AppData\Local\Temp\ccf145Mk.s:22839  .debug_str:000000000000ad4b .LASF2835
C:\Users\CYMR90~1\AppData\Local\Temp\ccf145Mk.s:20409  .debug_str:000000000000129e .LASF2836
C:\Users\CYMR90~1\AppData\Local\Temp\ccf145Mk.s:23219  .debug_str:000000000000c68e .LASF2837
C:\Users\CYMR90~1\AppData\Local\Temp\ccf145Mk.s:25009  .debug_str:00000000000139b9 .LASF2838
C:\Users\CYMR90~1\AppData\Local\Temp\ccf145Mk.s:28202  .debug_str:0000000000020651 .LASF2839
C:\Users\CYMR90~1\AppData\Local\Temp\ccf145Mk.s:20131  .debug_str:0000000000000203 .LASF2840
C:\Users\CYMR90~1\AppData\Local\Temp\ccf145Mk.s:23351  .debug_str:000000000000cf12 .LASF2841
C:\Users\CYMR90~1\AppData\Local\Temp\ccf145Mk.s:26544  .debug_str:0000000000019ca1 .LASF2842
C:\Users\CYMR90~1\AppData\Local\Temp\ccf145Mk.s:20323  .debug_str:0000000000000d7e .LASF2843
C:\Users\CYMR90~1\AppData\Local\Temp\ccf145Mk.s:30014  .debug_str:00000000000278df .LASF2844
C:\Users\CYMR90~1\AppData\Local\Temp\ccf145Mk.s:28364  .debug_str:0000000000020fbc .LASF2845
C:\Users\CYMR90~1\AppData\Local\Temp\ccf145Mk.s:26780  .debug_str:000000000001ac8f .LASF2846
C:\Users\CYMR90~1\AppData\Local\Temp\ccf145Mk.s:31218  .debug_str:000000000002c5d6 .LASF2847
C:\Users\CYMR90~1\AppData\Local\Temp\ccf145Mk.s:20439  .debug_str:0000000000001486 .LASF2848
C:\Users\CYMR90~1\AppData\Local\Temp\ccf145Mk.s:25145  .debug_str:000000000001421a .LASF2849
C:\Users\CYMR90~1\AppData\Local\Temp\ccf145Mk.s:29864  .debug_str:0000000000026f66 .LASF2850
C:\Users\CYMR90~1\AppData\Local\Temp\ccf145Mk.s:30896  .debug_str:000000000002b043 .LASF2851
C:\Users\CYMR90~1\AppData\Local\Temp\ccf145Mk.s:27104  .debug_str:000000000001c0c7 .LASF2852
C:\Users\CYMR90~1\AppData\Local\Temp\ccf145Mk.s:23399  .debug_str:000000000000d22f .LASF2853
C:\Users\CYMR90~1\AppData\Local\Temp\ccf145Mk.s:28668  .debug_str:000000000002227e .LASF2854
C:\Users\CYMR90~1\AppData\Local\Temp\ccf145Mk.s:20557  .debug_str:0000000000001b9a .LASF2855
C:\Users\CYMR90~1\AppData\Local\Temp\ccf145Mk.s:23803  .debug_str:000000000000eb5d .LASF2856
C:\Users\CYMR90~1\AppData\Local\Temp\ccf145Mk.s:26986  .debug_str:000000000001b910 .LASF2857
C:\Users\CYMR90~1\AppData\Local\Temp\ccf145Mk.s:30132  .debug_str:0000000000028152 .LASF2858
C:\Users\CYMR90~1\AppData\Local\Temp\ccf145Mk.s:28506  .debug_str:00000000000218b7 .LASF2859
C:\Users\CYMR90~1\AppData\Local\Temp\ccf145Mk.s:25223  .debug_str:00000000000146d6 .LASF2860
C:\Users\CYMR90~1\AppData\Local\Temp\ccf145Mk.s:25259  .debug_str:00000000000148e4 .LASF2861
C:\Users\CYMR90~1\AppData\Local\Temp\ccf145Mk.s:20341  .debug_str:0000000000000efc .LASF2862
C:\Users\CYMR90~1\AppData\Local\Temp\ccf145Mk.s:20481  .debug_str:000000000000170a .LASF2863
C:\Users\CYMR90~1\AppData\Local\Temp\ccf145Mk.s:25783  .debug_str:0000000000016abb .LASF2864
C:\Users\CYMR90~1\AppData\Local\Temp\ccf145Mk.s:28666  .debug_str:0000000000022269 .LASF2865
C:\Users\CYMR90~1\AppData\Local\Temp\ccf145Mk.s:23899  .debug_str:000000000000f0dd .LASF2866
C:\Users\CYMR90~1\AppData\Local\Temp\ccf145Mk.s:28566  .debug_str:0000000000021c9f .LASF2867
C:\Users\CYMR90~1\AppData\Local\Temp\ccf145Mk.s:28736  .debug_str:0000000000022675 .LASF2868
C:\Users\CYMR90~1\AppData\Local\Temp\ccf145Mk.s:26694  .debug_str:000000000001a76a .LASF2869
C:\Users\CYMR90~1\AppData\Local\Temp\ccf145Mk.s:25946  .debug_str:00000000000175d9 .LASF2870
C:\Users\CYMR90~1\AppData\Local\Temp\ccf145Mk.s:23671  .debug_str:000000000000e304 .LASF2871
C:\Users\CYMR90~1\AppData\Local\Temp\ccf145Mk.s:24851  .debug_str:0000000000012f36 .LASF2872
C:\Users\CYMR90~1\AppData\Local\Temp\ccf145Mk.s:24815  .debug_str:0000000000012ce1 .LASF2873
C:\Users\CYMR90~1\AppData\Local\Temp\ccf145Mk.s:20891  .debug_str:0000000000003028 .LASF2874
C:\Users\CYMR90~1\AppData\Local\Temp\ccf145Mk.s:20775  .debug_str:00000000000028b0 .LASF2875
C:\Users\CYMR90~1\AppData\Local\Temp\ccf145Mk.s:28324  .debug_str:0000000000020db0 .LASF2876
C:\Users\CYMR90~1\AppData\Local\Temp\ccf145Mk.s:29324  .debug_str:0000000000024b77 .LASF2877
C:\Users\CYMR90~1\AppData\Local\Temp\ccf145Mk.s:29002  .debug_str:0000000000023678 .LASF2878
C:\Users\CYMR90~1\AppData\Local\Temp\ccf145Mk.s:22901  .debug_str:000000000000b1ad .LASF2879
C:\Users\CYMR90~1\AppData\Local\Temp\ccf145Mk.s:26078  .debug_str:0000000000017e21 .LASF2880
C:\Users\CYMR90~1\AppData\Local\Temp\ccf145Mk.s:29302  .debug_str:00000000000249f3 .LASF2881
C:\Users\CYMR90~1\AppData\Local\Temp\ccf145Mk.s:21179  .debug_str:00000000000042f0 .LASF2882
C:\Users\CYMR90~1\AppData\Local\Temp\ccf145Mk.s:23263  .debug_str:000000000000c9ee .LASF2883
C:\Users\CYMR90~1\AppData\Local\Temp\ccf145Mk.s:27504  .debug_str:000000000001db6f .LASF2884
C:\Users\CYMR90~1\AppData\Local\Temp\ccf145Mk.s:31318  .debug_str:000000000002cc20 .LASF2885
C:\Users\CYMR90~1\AppData\Local\Temp\ccf145Mk.s:22657  .debug_str:000000000000a128 .LASF2886
C:\Users\CYMR90~1\AppData\Local\Temp\ccf145Mk.s:25858  .debug_str:00000000000170c9 .LASF2887
C:\Users\CYMR90~1\AppData\Local\Temp\ccf145Mk.s:29068  .debug_str:0000000000023a8a .LASF2888
C:\Users\CYMR90~1\AppData\Local\Temp\ccf145Mk.s:27236  .debug_str:000000000001c983 .LASF2889
C:\Users\CYMR90~1\AppData\Local\Temp\ccf145Mk.s:20621  .debug_str:0000000000001f55 .LASF2890
C:\Users\CYMR90~1\AppData\Local\Temp\ccf145Mk.s:25321  .debug_str:0000000000014cec .LASF2891
C:\Users\CYMR90~1\AppData\Local\Temp\ccf145Mk.s:30050  .debug_str:0000000000027b88 .LASF2892
C:\Users\CYMR90~1\AppData\Local\Temp\ccf145Mk.s:23447  .debug_str:000000000000d5df .LASF2893
C:\Users\CYMR90~1\AppData\Local\Temp\ccf145Mk.s:28104  .debug_str:000000000002001d .LASF2894
C:\Users\CYMR90~1\AppData\Local\Temp\ccf145Mk.s:30720  .debug_str:000000000002a60a .LASF2895
C:\Users\CYMR90~1\AppData\Local\Temp\ccf145Mk.s:30932  .debug_str:000000000002b2b6 .LASF2896
C:\Users\CYMR90~1\AppData\Local\Temp\ccf145Mk.s:26730  .debug_str:000000000001a969 .LASF2897
C:\Users\CYMR90~1\AppData\Local\Temp\ccf145Mk.s:21909  .debug_str:0000000000007089 .LASF2898
C:\Users\CYMR90~1\AppData\Local\Temp\ccf145Mk.s:22211  .debug_str:00000000000084e2 .LASF2899
C:\Users\CYMR90~1\AppData\Local\Temp\ccf145Mk.s:26138  .debug_str:0000000000018170 .LASF2900
C:\Users\CYMR90~1\AppData\Local\Temp\ccf145Mk.s:31032  .debug_str:000000000002b945 .LASF2901
C:\Users\CYMR90~1\AppData\Local\Temp\ccf145Mk.s:24593  .debug_str:0000000000011e60 .LASF2902
C:\Users\CYMR90~1\AppData\Local\Temp\ccf145Mk.s:25415  .debug_str:00000000000152b7 .LASF2903
C:\Users\CYMR90~1\AppData\Local\Temp\ccf145Mk.s:21615  .debug_str:0000000000005dc5 .LASF2904
C:\Users\CYMR90~1\AppData\Local\Temp\ccf145Mk.s:28352  .debug_str:0000000000020f29 .LASF2905
C:\Users\CYMR90~1\AppData\Local\Temp\ccf145Mk.s:29746  .debug_str:0000000000026846 .LASF2906
C:\Users\CYMR90~1\AppData\Local\Temp\ccf145Mk.s:31130  .debug_str:000000000002bfe4 .LASF2907
C:\Users\CYMR90~1\AppData\Local\Temp\ccf145Mk.s:21137  .debug_str:0000000000004049 .LASF2908
C:\Users\CYMR90~1\AppData\Local\Temp\ccf145Mk.s:24859  .debug_str:0000000000012fc4 .LASF2909
C:\Users\CYMR90~1\AppData\Local\Temp\ccf145Mk.s:30240  .debug_str:000000000002895b .LASF2910
C:\Users\CYMR90~1\AppData\Local\Temp\ccf145Mk.s:28170  .debug_str:00000000000203fe .LASF2911
C:\Users\CYMR90~1\AppData\Local\Temp\ccf145Mk.s:27064  .debug_str:000000000001be2b .LASF2912
C:\Users\CYMR90~1\AppData\Local\Temp\ccf145Mk.s:26642  .debug_str:000000000001a3d3 .LASF2913
C:\Users\CYMR90~1\AppData\Local\Temp\ccf145Mk.s:26562  .debug_str:0000000000019d7e .LASF2914
C:\Users\CYMR90~1\AppData\Local\Temp\ccf145Mk.s:28774  .debug_str:00000000000228b6 .LASF2915
C:\Users\CYMR90~1\AppData\Local\Temp\ccf145Mk.s:27058  .debug_str:000000000001bdd8 .LASF2916
C:\Users\CYMR90~1\AppData\Local\Temp\ccf145Mk.s:26200  .debug_str:0000000000018527 .LASF2917
C:\Users\CYMR90~1\AppData\Local\Temp\ccf145Mk.s:27580  .debug_str:000000000001e0ac .LASF2918
C:\Users\CYMR90~1\AppData\Local\Temp\ccf145Mk.s:24791  .debug_str:0000000000012b5b .LASF2919
C:\Users\CYMR90~1\AppData\Local\Temp\ccf145Mk.s:23529  .debug_str:000000000000da65 .LASF2920
C:\Users\CYMR90~1\AppData\Local\Temp\ccf145Mk.s:22651  .debug_str:000000000000a0c5 .LASF2921
C:\Users\CYMR90~1\AppData\Local\Temp\ccf145Mk.s:21751  .debug_str:000000000000664e .LASF2922
C:\Users\CYMR90~1\AppData\Local\Temp\ccf145Mk.s:20895  .debug_str:000000000000305e .LASF2923
C:\Users\CYMR90~1\AppData\Local\Temp\ccf145Mk.s:31366  .debug_str:000000000002cf6d .LASF2924
C:\Users\CYMR90~1\AppData\Local\Temp\ccf145Mk.s:30494  .debug_str:00000000000298ae .LASF2925
C:\Users\CYMR90~1\AppData\Local\Temp\ccf145Mk.s:29232  .debug_str:0000000000024544 .LASF2926
C:\Users\CYMR90~1\AppData\Local\Temp\ccf145Mk.s:21103  .debug_str:0000000000003de7 .LASF2927
C:\Users\CYMR90~1\AppData\Local\Temp\ccf145Mk.s:24369  .debug_str:0000000000010f65 .LASF2928
C:\Users\CYMR90~1\AppData\Local\Temp\ccf145Mk.s:27522  .debug_str:000000000001dd19 .LASF2929
C:\Users\CYMR90~1\AppData\Local\Temp\ccf145Mk.s:30782  .debug_str:000000000002a9ac .LASF2930
C:\Users\CYMR90~1\AppData\Local\Temp\ccf145Mk.s:22669  .debug_str:000000000000a211 .LASF2931
C:\Users\CYMR90~1\AppData\Local\Temp\ccf145Mk.s:22281  .debug_str:0000000000008981 .LASF2932
C:\Users\CYMR90~1\AppData\Local\Temp\ccf145Mk.s:30706  .debug_str:000000000002a4ff .LASF2933
C:\Users\CYMR90~1\AppData\Local\Temp\ccf145Mk.s:31168  .debug_str:000000000002c252 .LASF2934
C:\Users\CYMR90~1\AppData\Local\Temp\ccf145Mk.s:25389  .debug_str:0000000000015148 .LASF2935
C:\Users\CYMR90~1\AppData\Local\Temp\ccf145Mk.s:21435  .debug_str:000000000000534d .LASF2936
C:\Users\CYMR90~1\AppData\Local\Temp\ccf145Mk.s:25567  .debug_str:0000000000015bfc .LASF2937
C:\Users\CYMR90~1\AppData\Local\Temp\ccf145Mk.s:31132  .debug_str:000000000002c004 .LASF2938
C:\Users\CYMR90~1\AppData\Local\Temp\ccf145Mk.s:24219  .debug_str:000000000001057f .LASF2939
C:\Users\CYMR90~1\AppData\Local\Temp\ccf145Mk.s:22691  .debug_str:000000000000a367 .LASF2940
C:\Users\CYMR90~1\AppData\Local\Temp\ccf145Mk.s:20249  .debug_str:00000000000008e1 .LASF2941
C:\Users\CYMR90~1\AppData\Local\Temp\ccf145Mk.s:28216  .debug_str:0000000000020726 .LASF2942
C:\Users\CYMR90~1\AppData\Local\Temp\ccf145Mk.s:31240  .debug_str:000000000002c6e9 .LASF2943
C:\Users\CYMR90~1\AppData\Local\Temp\ccf145Mk.s:29146  .debug_str:0000000000023efd .LASF2944
C:\Users\CYMR90~1\AppData\Local\Temp\ccf145Mk.s:28526  .debug_str:0000000000021a0b .LASF2945
C:\Users\CYMR90~1\AppData\Local\Temp\ccf145Mk.s:21393  .debug_str:00000000000050c2 .LASF2946
C:\Users\CYMR90~1\AppData\Local\Temp\ccf145Mk.s:31372  .debug_str:000000000002cfad .LASF2947
C:\Users\CYMR90~1\AppData\Local\Temp\ccf145Mk.s:23745  .debug_str:000000000000e7b2 .LASF2948
C:\Users\CYMR90~1\AppData\Local\Temp\ccf145Mk.s:27076  .debug_str:000000000001bef9 .LASF2949
C:\Users\CYMR90~1\AppData\Local\Temp\ccf145Mk.s:28780  .debug_str:000000000002292a .LASF2950
C:\Users\CYMR90~1\AppData\Local\Temp\ccf145Mk.s:24349  .debug_str:0000000000010e55 .LASF2951
C:\Users\CYMR90~1\AppData\Local\Temp\ccf145Mk.s:23469  .debug_str:000000000000d717 .LASF2952
C:\Users\CYMR90~1\AppData\Local\Temp\ccf145Mk.s:28206  .debug_str:0000000000020694 .LASF2953
C:\Users\CYMR90~1\AppData\Local\Temp\ccf145Mk.s:30566  .debug_str:0000000000029ce4 .LASF2954
C:\Users\CYMR90~1\AppData\Local\Temp\ccf145Mk.s:23121  .debug_str:000000000000c088 .LASF2955
C:\Users\CYMR90~1\AppData\Local\Temp\ccf145Mk.s:21893  .debug_str:0000000000006f88 .LASF2956
C:\Users\CYMR90~1\AppData\Local\Temp\ccf145Mk.s:28376  .debug_str:000000000002106f .LASF2957
C:\Users\CYMR90~1\AppData\Local\Temp\ccf145Mk.s:30590  .debug_str:0000000000029e41 .LASF2958
C:\Users\CYMR90~1\AppData\Local\Temp\ccf145Mk.s:20851  .debug_str:0000000000002d95 .LASF2959
C:\Users\CYMR90~1\AppData\Local\Temp\ccf145Mk.s:23181  .debug_str:000000000000c421 .LASF2960
C:\Users\CYMR90~1\AppData\Local\Temp\ccf145Mk.s:23677  .debug_str:000000000000e366 .LASF2961
C:\Users\CYMR90~1\AppData\Local\Temp\ccf145Mk.s:30986  .debug_str:000000000002b641 .LASF2962
C:\Users\CYMR90~1\AppData\Local\Temp\ccf145Mk.s:21863  .debug_str:0000000000006d46 .LASF2963
C:\Users\CYMR90~1\AppData\Local\Temp\ccf145Mk.s:28100  .debug_str:000000000001ffde .LASF2964
C:\Users\CYMR90~1\AppData\Local\Temp\ccf145Mk.s:24061  .debug_str:000000000000fbb3 .LASF2965
C:\Users\CYMR90~1\AppData\Local\Temp\ccf145Mk.s:25902  .debug_str:000000000001734b .LASF2966
C:\Users\CYMR90~1\AppData\Local\Temp\ccf145Mk.s:22505  .debug_str:00000000000097a9 .LASF2967
C:\Users\CYMR90~1\AppData\Local\Temp\ccf145Mk.s:22611  .debug_str:0000000000009e53 .LASF2968
C:\Users\CYMR90~1\AppData\Local\Temp\ccf145Mk.s:23629  .debug_str:000000000000e069 .LASF2969
C:\Users\CYMR90~1\AppData\Local\Temp\ccf145Mk.s:22727  .debug_str:000000000000a549 .LASF2970
C:\Users\CYMR90~1\AppData\Local\Temp\ccf145Mk.s:29374  .debug_str:0000000000024eba .LASF2971
C:\Users\CYMR90~1\AppData\Local\Temp\ccf145Mk.s:23799  .debug_str:000000000000eb2d .LASF2972
C:\Users\CYMR90~1\AppData\Local\Temp\ccf145Mk.s:23599  .debug_str:000000000000deca .LASF2973
C:\Users\CYMR90~1\AppData\Local\Temp\ccf145Mk.s:30128  .debug_str:0000000000028105 .LASF2974
C:\Users\CYMR90~1\AppData\Local\Temp\ccf145Mk.s:22249  .debug_str:0000000000008772 .LASF2975
C:\Users\CYMR90~1\AppData\Local\Temp\ccf145Mk.s:31062  .debug_str:000000000002bb3c .LASF2976
C:\Users\CYMR90~1\AppData\Local\Temp\ccf145Mk.s:30220  .debug_str:0000000000028803 .LASF2977
C:\Users\CYMR90~1\AppData\Local\Temp\ccf145Mk.s:20139  .debug_str:0000000000000253 .LASF2978
C:\Users\CYMR90~1\AppData\Local\Temp\ccf145Mk.s:21109  .debug_str:0000000000003e43 .LASF2979
C:\Users\CYMR90~1\AppData\Local\Temp\ccf145Mk.s:27128  .debug_str:000000000001c22a .LASF2980
C:\Users\CYMR90~1\AppData\Local\Temp\ccf145Mk.s:26934  .debug_str:000000000001b668 .LASF2981
C:\Users\CYMR90~1\AppData\Local\Temp\ccf145Mk.s:29390  .debug_str:0000000000024fa6 .LASF2982
C:\Users\CYMR90~1\AppData\Local\Temp\ccf145Mk.s:23475  .debug_str:000000000000d774 .LASF2983
C:\Users\CYMR90~1\AppData\Local\Temp\ccf145Mk.s:26550  .debug_str:0000000000019ceb .LASF2984
C:\Users\CYMR90~1\AppData\Local\Temp\ccf145Mk.s:20381  .debug_str:0000000000001149 .LASF2985
C:\Users\CYMR90~1\AppData\Local\Temp\ccf145Mk.s:23843  .debug_str:000000000000ed64 .LASF2986
C:\Users\CYMR90~1\AppData\Local\Temp\ccf145Mk.s:27132  .debug_str:000000000001c25e .LASF2987
C:\Users\CYMR90~1\AppData\Local\Temp\ccf145Mk.s:30500  .debug_str:00000000000298f3 .LASF2988
C:\Users\CYMR90~1\AppData\Local\Temp\ccf145Mk.s:20515  .debug_str:0000000000001902 .LASF2989
C:\Users\CYMR90~1\AppData\Local\Temp\ccf145Mk.s:22577  .debug_str:0000000000009c1d .LASF2990
C:\Users\CYMR90~1\AppData\Local\Temp\ccf145Mk.s:29928  .debug_str:00000000000273f4 .LASF2991
C:\Users\CYMR90~1\AppData\Local\Temp\ccf145Mk.s:22137  .debug_str:000000000000805e .LASF2992
C:\Users\CYMR90~1\AppData\Local\Temp\ccf145Mk.s:23635  .debug_str:000000000000e0e2 .LASF2993
C:\Users\CYMR90~1\AppData\Local\Temp\ccf145Mk.s:29148  .debug_str:0000000000023f29 .LASF2994
C:\Users\CYMR90~1\AppData\Local\Temp\ccf145Mk.s:26480  .debug_str:0000000000019870 .LASF2995
C:\Users\CYMR90~1\AppData\Local\Temp\ccf145Mk.s:22527  .debug_str:0000000000009926 .LASF2996
C:\Users\CYMR90~1\AppData\Local\Temp\ccf145Mk.s:27880  .debug_str:000000000001f275 .LASF2997
C:\Users\CYMR90~1\AppData\Local\Temp\ccf145Mk.s:22111  .debug_str:0000000000007e01 .LASF2998
C:\Users\CYMR90~1\AppData\Local\Temp\ccf145Mk.s:30114  .debug_str:0000000000027fdc .LASF2999
C:\Users\CYMR90~1\AppData\Local\Temp\ccf145Mk.s:29780  .debug_str:0000000000026a42 .LASF3000
C:\Users\CYMR90~1\AppData\Local\Temp\ccf145Mk.s:24445  .debug_str:0000000000011406 .LASF3001
C:\Users\CYMR90~1\AppData\Local\Temp\ccf145Mk.s:29278  .debug_str:00000000000248b9 .LASF3002
C:\Users\CYMR90~1\AppData\Local\Temp\ccf145Mk.s:28354  .debug_str:0000000000020f49 .LASF3003
C:\Users\CYMR90~1\AppData\Local\Temp\ccf145Mk.s:24335  .debug_str:0000000000010da3 .LASF3004
C:\Users\CYMR90~1\AppData\Local\Temp\ccf145Mk.s:29870  .debug_str:0000000000026fce .LASF3005
C:\Users\CYMR90~1\AppData\Local\Temp\ccf145Mk.s:29022  .debug_str:00000000000237da .LASF3006
C:\Users\CYMR90~1\AppData\Local\Temp\ccf145Mk.s:25848  .debug_str:0000000000017047 .LASF3007
C:\Users\CYMR90~1\AppData\Local\Temp\ccf145Mk.s:25585  .debug_str:0000000000015d4f .LASF3008
C:\Users\CYMR90~1\AppData\Local\Temp\ccf145Mk.s:27838  .debug_str:000000000001eff3 .LASF3009
C:\Users\CYMR90~1\AppData\Local\Temp\ccf145Mk.s:24295  .debug_str:0000000000010ae9 .LASF3010
C:\Users\CYMR90~1\AppData\Local\Temp\ccf145Mk.s:24419  .debug_str:0000000000011298 .LASF3011
C:\Users\CYMR90~1\AppData\Local\Temp\ccf145Mk.s:23815  .debug_str:000000000000ebfc .LASF3012
C:\Users\CYMR90~1\AppData\Local\Temp\ccf145Mk.s:23949  .debug_str:000000000000f403 .LASF3013
C:\Users\CYMR90~1\AppData\Local\Temp\ccf145Mk.s:27568  .debug_str:000000000001dff9 .LASF3014
C:\Users\CYMR90~1\AppData\Local\Temp\ccf145Mk.s:30238  .debug_str:0000000000028942 .LASF3015
C:\Users\CYMR90~1\AppData\Local\Temp\ccf145Mk.s:25705  .debug_str:000000000001651d .LASF3016
C:\Users\CYMR90~1\AppData\Local\Temp\ccf145Mk.s:29142  .debug_str:0000000000023ece .LASF3017
C:\Users\CYMR90~1\AppData\Local\Temp\ccf145Mk.s:20659  .debug_str:0000000000002150 .LASF3018
C:\Users\CYMR90~1\AppData\Local\Temp\ccf145Mk.s:21885  .debug_str:0000000000006ee0 .LASF3019
C:\Users\CYMR90~1\AppData\Local\Temp\ccf145Mk.s:30292  .debug_str:0000000000028c7a .LASF3020
C:\Users\CYMR90~1\AppData\Local\Temp\ccf145Mk.s:22629  .debug_str:0000000000009f63 .LASF3021
C:\Users\CYMR90~1\AppData\Local\Temp\ccf145Mk.s:25099  .debug_str:0000000000013efe .LASF3022
C:\Users\CYMR90~1\AppData\Local\Temp\ccf145Mk.s:23775  .debug_str:000000000000e99d .LASF3023
C:\Users\CYMR90~1\AppData\Local\Temp\ccf145Mk.s:25437  .debug_str:0000000000015407 .LASF3024
C:\Users\CYMR90~1\AppData\Local\Temp\ccf145Mk.s:28292  .debug_str:0000000000020bef .LASF3025
C:\Users\CYMR90~1\AppData\Local\Temp\ccf145Mk.s:26226  .debug_str:00000000000186ae .LASF3026
C:\Users\CYMR90~1\AppData\Local\Temp\ccf145Mk.s:28148  .debug_str:0000000000020264 .LASF3027
C:\Users\CYMR90~1\AppData\Local\Temp\ccf145Mk.s:30384  .debug_str:0000000000029211 .LASF3028
C:\Users\CYMR90~1\AppData\Local\Temp\ccf145Mk.s:28800  .debug_str:0000000000022a37 .LASF3029
C:\Users\CYMR90~1\AppData\Local\Temp\ccf145Mk.s:23193  .debug_str:000000000000c4d0 .LASF3030
C:\Users\CYMR90~1\AppData\Local\Temp\ccf145Mk.s:31190  .debug_str:000000000002c3fa .LASF3031
C:\Users\CYMR90~1\AppData\Local\Temp\ccf145Mk.s:27932  .debug_str:000000000001f583 .LASF3032
C:\Users\CYMR90~1\AppData\Local\Temp\ccf145Mk.s:29910  .debug_str:0000000000027224 .LASF3033
C:\Users\CYMR90~1\AppData\Local\Temp\ccf145Mk.s:29648  .debug_str:000000000002623c .LASF3034
C:\Users\CYMR90~1\AppData\Local\Temp\ccf145Mk.s:23097  .debug_str:000000000000beec .LASF3035
C:\Users\CYMR90~1\AppData\Local\Temp\ccf145Mk.s:25485  .debug_str:0000000000015697 .LASF3036
C:\Users\CYMR90~1\AppData\Local\Temp\ccf145Mk.s:25391  .debug_str:0000000000015173 .LASF3037
C:\Users\CYMR90~1\AppData\Local\Temp\ccf145Mk.s:26292  .debug_str:0000000000018baa .LASF3038
C:\Users\CYMR90~1\AppData\Local\Temp\ccf145Mk.s:27968  .debug_str:000000000001f7b2 .LASF3039
C:\Users\CYMR90~1\AppData\Local\Temp\ccf145Mk.s:28492  .debug_str:00000000000217fd .LASF3040
C:\Users\CYMR90~1\AppData\Local\Temp\ccf145Mk.s:31324  .debug_str:000000000002cc6f .LASF3041
C:\Users\CYMR90~1\AppData\Local\Temp\ccf145Mk.s:24007  .debug_str:000000000000f898 .LASF3042
C:\Users\CYMR90~1\AppData\Local\Temp\ccf145Mk.s:20863  .debug_str:0000000000002e3e .LASF3043
C:\Users\CYMR90~1\AppData\Local\Temp\ccf145Mk.s:23859  .debug_str:000000000000ee58 .LASF3044
C:\Users\CYMR90~1\AppData\Local\Temp\ccf145Mk.s:28172  .debug_str:0000000000020423 .LASF3045
C:\Users\CYMR90~1\AppData\Local\Temp\ccf145Mk.s:25461  .debug_str:0000000000015541 .LASF3046
C:\Users\CYMR90~1\AppData\Local\Temp\ccf145Mk.s:24487  .debug_str:00000000000116cc .LASF3047
C:\Users\CYMR90~1\AppData\Local\Temp\ccf145Mk.s:27072  .debug_str:000000000001bec2 .LASF3048
C:\Users\CYMR90~1\AppData\Local\Temp\ccf145Mk.s:26104  .debug_str:0000000000017f68 .LASF3049
C:\Users\CYMR90~1\AppData\Local\Temp\ccf145Mk.s:28006  .debug_str:000000000001fa10 .LASF3050
C:\Users\CYMR90~1\AppData\Local\Temp\ccf145Mk.s:24297  .debug_str:0000000000010b01 .LASF3051
C:\Users\CYMR90~1\AppData\Local\Temp\ccf145Mk.s:30172  .debug_str:0000000000028489 .LASF3052
C:\Users\CYMR90~1\AppData\Local\Temp\ccf145Mk.s:22349  .debug_str:0000000000008ddd .LASF3053
C:\Users\CYMR90~1\AppData\Local\Temp\ccf145Mk.s:21443  .debug_str:00000000000053eb .LASF3054
C:\Users\CYMR90~1\AppData\Local\Temp\ccf145Mk.s:20497  .debug_str:000000000000180e .LASF3055
C:\Users\CYMR90~1\AppData\Local\Temp\ccf145Mk.s:30872  .debug_str:000000000002af07 .LASF3056
C:\Users\CYMR90~1\AppData\Local\Temp\ccf145Mk.s:28440  .debug_str:00000000000214e0 .LASF3057
C:\Users\CYMR90~1\AppData\Local\Temp\ccf145Mk.s:27462  .debug_str:000000000001d8eb .LASF3058
C:\Users\CYMR90~1\AppData\Local\Temp\ccf145Mk.s:26634  .debug_str:000000000001a1c0 .LASF3059
C:\Users\CYMR90~1\AppData\Local\Temp\ccf145Mk.s:25627  .debug_str:000000000001602f .LASF3060
C:\Users\CYMR90~1\AppData\Local\Temp\ccf145Mk.s:24705  .debug_str:00000000000125a9 .LASF3061
C:\Users\CYMR90~1\AppData\Local\Temp\ccf145Mk.s:23737  .debug_str:000000000000e741 .LASF3062
C:\Users\CYMR90~1\AppData\Local\Temp\ccf145Mk.s:23875  .debug_str:000000000000ef41 .LASF3063
C:\Users\CYMR90~1\AppData\Local\Temp\ccf145Mk.s:29862  .debug_str:0000000000026f39 .LASF3064
C:\Users\CYMR90~1\AppData\Local\Temp\ccf145Mk.s:29644  .debug_str:00000000000261e6 .LASF3065
C:\Users\CYMR90~1\AppData\Local\Temp\ccf145Mk.s:24195  .debug_str:000000000001041d .LASF3066
C:\Users\CYMR90~1\AppData\Local\Temp\ccf145Mk.s:23051  .debug_str:000000000000bba1 .LASF3067
C:\Users\CYMR90~1\AppData\Local\Temp\ccf145Mk.s:21941  .debug_str:00000000000072a8 .LASF3068
C:\Users\CYMR90~1\AppData\Local\Temp\ccf145Mk.s:27296  .debug_str:000000000001cdfa .LASF3069
C:\Users\CYMR90~1\AppData\Local\Temp\ccf145Mk.s:28918  .debug_str:000000000002311c .LASF3070
C:\Users\CYMR90~1\AppData\Local\Temp\ccf145Mk.s:23229  .debug_str:000000000000c77c .LASF3071
C:\Users\CYMR90~1\AppData\Local\Temp\ccf145Mk.s:21511  .debug_str:00000000000057a7 .LASF3072
C:\Users\CYMR90~1\AppData\Local\Temp\ccf145Mk.s:21293  .debug_str:0000000000004ac5 .LASF3073
C:\Users\CYMR90~1\AppData\Local\Temp\ccf145Mk.s:20465  .debug_str:0000000000001606 .LASF3074
C:\Users\CYMR90~1\AppData\Local\Temp\ccf145Mk.s:25721  .debug_str:0000000000016613 .LASF3075
C:\Users\CYMR90~1\AppData\Local\Temp\ccf145Mk.s:20799  .debug_str:0000000000002a69 .LASF3076
C:\Users\CYMR90~1\AppData\Local\Temp\ccf145Mk.s:31264  .debug_str:000000000002c8a8 .LASF3077
C:\Users\CYMR90~1\AppData\Local\Temp\ccf145Mk.s:30210  .debug_str:0000000000028735 .LASF3078
C:\Users\CYMR90~1\AppData\Local\Temp\ccf145Mk.s:21263  .debug_str:00000000000048ec .LASF3079
C:\Users\CYMR90~1\AppData\Local\Temp\ccf145Mk.s:27050  .debug_str:000000000001bd51 .LASF3080
C:\Users\CYMR90~1\AppData\Local\Temp\ccf145Mk.s:24301  .debug_str:0000000000010b46 .LASF3081
C:\Users\CYMR90~1\AppData\Local\Temp\ccf145Mk.s:27348  .debug_str:000000000001d1bc .LASF3082
C:\Users\CYMR90~1\AppData\Local\Temp\ccf145Mk.s:20189  .debug_str:000000000000055a .LASF3083
C:\Users\CYMR90~1\AppData\Local\Temp\ccf145Mk.s:24879  .debug_str:0000000000013129 .LASF3084
C:\Users\CYMR90~1\AppData\Local\Temp\ccf145Mk.s:29592  .debug_str:0000000000025e7c .LASF3085
C:\Users\CYMR90~1\AppData\Local\Temp\ccf145Mk.s:24787  .debug_str:0000000000012b27 .LASF3086
C:\Users\CYMR90~1\AppData\Local\Temp\ccf145Mk.s:21661  .debug_str:00000000000060a7 .LASF3087
C:\Users\CYMR90~1\AppData\Local\Temp\ccf145Mk.s:26070  .debug_str:0000000000017db6 .LASF3088
C:\Users\CYMR90~1\AppData\Local\Temp\ccf145Mk.s:24547  .debug_str:0000000000011b98 .LASF3089
C:\Users\CYMR90~1\AppData\Local\Temp\ccf145Mk.s:23093  .debug_str:000000000000beb5 .LASF3090
C:\Users\CYMR90~1\AppData\Local\Temp\ccf145Mk.s:26920  .debug_str:000000000001b579 .LASF3091
C:\Users\CYMR90~1\AppData\Local\Temp\ccf145Mk.s:23445  .debug_str:000000000000d5c1 .LASF3092
C:\Users\CYMR90~1\AppData\Local\Temp\ccf145Mk.s:22415  .debug_str:00000000000091b3 .LASF3093
C:\Users\CYMR90~1\AppData\Local\Temp\ccf145Mk.s:29288  .debug_str:000000000002492e .LASF3094
C:\Users\CYMR90~1\AppData\Local\Temp\ccf145Mk.s:24591  .debug_str:0000000000011e40 .LASF3095
C:\Users\CYMR90~1\AppData\Local\Temp\ccf145Mk.s:28888  .debug_str:0000000000022fa2 .LASF3096
C:\Users\CYMR90~1\AppData\Local\Temp\ccf145Mk.s:22753  .debug_str:000000000000a7e9 .LASF3097
C:\Users\CYMR90~1\AppData\Local\Temp\ccf145Mk.s:26496  .debug_str:0000000000019994 .LASF3098
C:\Users\CYMR90~1\AppData\Local\Temp\ccf145Mk.s:29824  .debug_str:0000000000026cbe .LASF3099
C:\Users\CYMR90~1\AppData\Local\Temp\ccf145Mk.s:23473  .debug_str:000000000000d74f .LASF3100
C:\Users\CYMR90~1\AppData\Local\Temp\ccf145Mk.s:21557  .debug_str:0000000000005a96 .LASF3101
C:\Users\CYMR90~1\AppData\Local\Temp\ccf145Mk.s:23075  .debug_str:000000000000bd72 .LASF3102
C:\Users\CYMR90~1\AppData\Local\Temp\ccf145Mk.s:21847  .debug_str:0000000000006c69 .LASF3103
C:\Users\CYMR90~1\AppData\Local\Temp\ccf145Mk.s:23763  .debug_str:000000000000e906 .LASF3104
C:\Users\CYMR90~1\AppData\Local\Temp\ccf145Mk.s:20339  .debug_str:0000000000000edf .LASF3105
C:\Users\CYMR90~1\AppData\Local\Temp\ccf145Mk.s:31010  .debug_str:000000000002b7bd .LASF3106
C:\Users\CYMR90~1\AppData\Local\Temp\ccf145Mk.s:30606  .debug_str:0000000000029f0d .LASF3107
C:\Users\CYMR90~1\AppData\Local\Temp\ccf145Mk.s:28018  .debug_str:000000000001face .LASF3108
C:\Users\CYMR90~1\AppData\Local\Temp\ccf145Mk.s:29140  .debug_str:0000000000023eb6 .LASF3109
C:\Users\CYMR90~1\AppData\Local\Temp\ccf145Mk.s:27584  .debug_str:000000000001e0e2 .LASF3110
C:\Users\CYMR90~1\AppData\Local\Temp\ccf145Mk.s:27976  .debug_str:000000000001f811 .LASF3111
C:\Users\CYMR90~1\AppData\Local\Temp\ccf145Mk.s:29966  .debug_str:000000000002762f .LASF3112
C:\Users\CYMR90~1\AppData\Local\Temp\ccf145Mk.s:25177  .debug_str:00000000000143ca .LASF3113
C:\Users\CYMR90~1\AppData\Local\Temp\ccf145Mk.s:25727  .debug_str:000000000001666e .LASF3114
C:\Users\CYMR90~1\AppData\Local\Temp\ccf145Mk.s:20591  .debug_str:0000000000001db9 .LASF3115
C:\Users\CYMR90~1\AppData\Local\Temp\ccf145Mk.s:27960  .debug_str:000000000001f714 .LASF3116
C:\Users\CYMR90~1\AppData\Local\Temp\ccf145Mk.s:27908  .debug_str:000000000001f427 .LASF3117
C:\Users\CYMR90~1\AppData\Local\Temp\ccf145Mk.s:27024  .debug_str:000000000001bb82 .LASF3118
C:\Users\CYMR90~1\AppData\Local\Temp\ccf145Mk.s:20759  .debug_str:00000000000027bb .LASF3119
C:\Users\CYMR90~1\AppData\Local\Temp\ccf145Mk.s:29456  .debug_str:000000000002550b .LASF3120
C:\Users\CYMR90~1\AppData\Local\Temp\ccf145Mk.s:23363  .debug_str:000000000000cfc6 .LASF3121
C:\Users\CYMR90~1\AppData\Local\Temp\ccf145Mk.s:21107  .debug_str:0000000000003e1d .LASF3122
C:\Users\CYMR90~1\AppData\Local\Temp\ccf145Mk.s:20847  .debug_str:0000000000002d4a .LASF3123
C:\Users\CYMR90~1\AppData\Local\Temp\ccf145Mk.s:22245  .debug_str:0000000000008738 .LASF3124
C:\Users\CYMR90~1\AppData\Local\Temp\ccf145Mk.s:27574  .debug_str:000000000001e044 .LASF3125
C:\Users\CYMR90~1\AppData\Local\Temp\ccf145Mk.s:28728  .debug_str:00000000000225f6 .LASF3126
C:\Users\CYMR90~1\AppData\Local\Temp\ccf145Mk.s:22621  .debug_str:0000000000009ef0 .LASF3127
C:\Users\CYMR90~1\AppData\Local\Temp\ccf145Mk.s:23559  .debug_str:000000000000dc31 .LASF3128
C:\Users\CYMR90~1\AppData\Local\Temp\ccf145Mk.s:25525  .debug_str:0000000000015910 .LASF3129
C:\Users\CYMR90~1\AppData\Local\Temp\ccf145Mk.s:21673  .debug_str:0000000000006152 .LASF3130
C:\Users\CYMR90~1\AppData\Local\Temp\ccf145Mk.s:29064  .debug_str:0000000000023a3c .LASF3131
C:\Users\CYMR90~1\AppData\Local\Temp\ccf145Mk.s:26452  .debug_str:000000000001961f .LASF3132
C:\Users\CYMR90~1\AppData\Local\Temp\ccf145Mk.s:23083  .debug_str:000000000000bdf6 .LASF3133
C:\Users\CYMR90~1\AppData\Local\Temp\ccf145Mk.s:28176  .debug_str:0000000000020465 .LASF3134
C:\Users\CYMR90~1\AppData\Local\Temp\ccf145Mk.s:26004  .debug_str:00000000000179b2 .LASF3135
C:\Users\CYMR90~1\AppData\Local\Temp\ccf145Mk.s:30204  .debug_str:00000000000286c3 .LASF3136
C:\Users\CYMR90~1\AppData\Local\Temp\ccf145Mk.s:27680  .debug_str:000000000001e699 .LASF3137
C:\Users\CYMR90~1\AppData\Local\Temp\ccf145Mk.s:27000  .debug_str:000000000001b9c3 .LASF3138
C:\Users\CYMR90~1\AppData\Local\Temp\ccf145Mk.s:23527  .debug_str:000000000000da41 .LASF3139
C:\Users\CYMR90~1\AppData\Local\Temp\ccf145Mk.s:20617  .debug_str:0000000000001f24 .LASF3140
C:\Users\CYMR90~1\AppData\Local\Temp\ccf145Mk.s:23789  .debug_str:000000000000ea94 .LASF3141
C:\Users\CYMR90~1\AppData\Local\Temp\ccf145Mk.s:23831  .debug_str:000000000000ecbd .LASF3142
C:\Users\CYMR90~1\AppData\Local\Temp\ccf145Mk.s:29734  .debug_str:0000000000026764 .LASF3143
C:\Users\CYMR90~1\AppData\Local\Temp\ccf145Mk.s:30090  .debug_str:0000000000027e43 .LASF3144
C:\Users\CYMR90~1\AppData\Local\Temp\ccf145Mk.s:26094  .debug_str:0000000000017eec .LASF3145
C:\Users\CYMR90~1\AppData\Local\Temp\ccf145Mk.s:28834  .debug_str:0000000000022ca0 .LASF3146
C:\Users\CYMR90~1\AppData\Local\Temp\ccf145Mk.s:20455  .debug_str:000000000000154b .LASF3147
C:\Users\CYMR90~1\AppData\Local\Temp\ccf145Mk.s:20753  .debug_str:000000000000275f .LASF3148
C:\Users\CYMR90~1\AppData\Local\Temp\ccf145Mk.s:30682  .debug_str:000000000002a353 .LASF3149
C:\Users\CYMR90~1\AppData\Local\Temp\ccf145Mk.s:21645  .debug_str:0000000000005fda .LASF3150
C:\Users\CYMR90~1\AppData\Local\Temp\ccf145Mk.s:24883  .debug_str:000000000001316b .LASF3151
C:\Users\CYMR90~1\AppData\Local\Temp\ccf145Mk.s:23435  .debug_str:000000000000d509 .LASF3152
C:\Users\CYMR90~1\AppData\Local\Temp\ccf145Mk.s:28402  .debug_str:00000000000211dd .LASF3153
C:\Users\CYMR90~1\AppData\Local\Temp\ccf145Mk.s:26464  .debug_str:0000000000019725 .LASF3154
C:\Users\CYMR90~1\AppData\Local\Temp\ccf145Mk.s:22599  .debug_str:0000000000009d7b .LASF3155
C:\Users\CYMR90~1\AppData\Local\Temp\ccf145Mk.s:22353  .debug_str:0000000000008e1a .LASF3156
C:\Users\CYMR90~1\AppData\Local\Temp\ccf145Mk.s:22949  .debug_str:000000000000b4d5 .LASF3157
C:\Users\CYMR90~1\AppData\Local\Temp\ccf145Mk.s:21183  .debug_str:0000000000004328 .LASF3158
C:\Users\CYMR90~1\AppData\Local\Temp\ccf145Mk.s:24319  .debug_str:0000000000010cdc .LASF3159
C:\Users\CYMR90~1\AppData\Local\Temp\ccf145Mk.s:25990  .debug_str:00000000000178ea .LASF3160
C:\Users\CYMR90~1\AppData\Local\Temp\ccf145Mk.s:22219  .debug_str:0000000000008552 .LASF3161
C:\Users\CYMR90~1\AppData\Local\Temp\ccf145Mk.s:23029  .debug_str:000000000000b9f7 .LASF3162
C:\Users\CYMR90~1\AppData\Local\Temp\ccf145Mk.s:22977  .debug_str:000000000000b6bc .LASF3163
C:\Users\CYMR90~1\AppData\Local\Temp\ccf145Mk.s:25892  .debug_str:00000000000172a8 .LASF3164
C:\Users\CYMR90~1\AppData\Local\Temp\ccf145Mk.s:29820  .debug_str:0000000000026c85 .LASF3165
C:\Users\CYMR90~1\AppData\Local\Temp\ccf145Mk.s:22699  .debug_str:000000000000a3d2 .LASF3166
C:\Users\CYMR90~1\AppData\Local\Temp\ccf145Mk.s:20729  .debug_str:00000000000025aa .LASF3167
C:\Users\CYMR90~1\AppData\Local\Temp\ccf145Mk.s:27708  .debug_str:000000000001e869 .LASF3168
C:\Users\CYMR90~1\AppData\Local\Temp\ccf145Mk.s:20421  .debug_str:0000000000001385 .LASF3169
C:\Users\CYMR90~1\AppData\Local\Temp\ccf145Mk.s:26276  .debug_str:0000000000018a0b .LASF3170
C:\Users\CYMR90~1\AppData\Local\Temp\ccf145Mk.s:20527  .debug_str:00000000000019be .LASF3171
C:\Users\CYMR90~1\AppData\Local\Temp\ccf145Mk.s:31276  .debug_str:000000000002c987 .LASF3172
C:\Users\CYMR90~1\AppData\Local\Temp\ccf145Mk.s:25443  .debug_str:0000000000015445 .LASF3173
C:\Users\CYMR90~1\AppData\Local\Temp\ccf145Mk.s:29238  .debug_str:00000000000245b9 .LASF3174
C:\Users\CYMR90~1\AppData\Local\Temp\ccf145Mk.s:22635  .debug_str:0000000000009fc4 .LASF3175
C:\Users\CYMR90~1\AppData\Local\Temp\ccf145Mk.s:20551  .debug_str:0000000000001b4f .LASF3176
C:\Users\CYMR90~1\AppData\Local\Temp\ccf145Mk.s:21667  .debug_str:0000000000006115 .LASF3177
C:\Users\CYMR90~1\AppData\Local\Temp\ccf145Mk.s:26884  .debug_str:000000000001b35a .LASF3178
C:\Users\CYMR90~1\AppData\Local\Temp\ccf145Mk.s:21115  .debug_str:0000000000003e8c .LASF3179
C:\Users\CYMR90~1\AppData\Local\Temp\ccf145Mk.s:22359  .debug_str:0000000000008e7d .LASF3180
C:\Users\CYMR90~1\AppData\Local\Temp\ccf145Mk.s:21423  .debug_str:00000000000052a6 .LASF3181
C:\Users\CYMR90~1\AppData\Local\Temp\ccf145Mk.s:30772  .debug_str:000000000002a931 .LASF3182
C:\Users\CYMR90~1\AppData\Local\Temp\ccf145Mk.s:23105  .debug_str:000000000000bf5c .LASF3183
C:\Users\CYMR90~1\AppData\Local\Temp\ccf145Mk.s:20767  .debug_str:0000000000002836 .LASF3184
C:\Users\CYMR90~1\AppData\Local\Temp\ccf145Mk.s:28688  .debug_str:000000000002238d .LASF3185
C:\Users\CYMR90~1\AppData\Local\Temp\ccf145Mk.s:25355  .debug_str:0000000000014f3f .LASF3186
C:\Users\CYMR90~1\AppData\Local\Temp\ccf145Mk.s:21937  .debug_str:0000000000007261 .LASF3187
C:\Users\CYMR90~1\AppData\Local\Temp\ccf145Mk.s:26864  .debug_str:000000000001b234 .LASF3188
C:\Users\CYMR90~1\AppData\Local\Temp\ccf145Mk.s:21555  .debug_str:0000000000005a77 .LASF3189
C:\Users\CYMR90~1\AppData\Local\Temp\ccf145Mk.s:22449  .debug_str:0000000000009405 .LASF3190
C:\Users\CYMR90~1\AppData\Local\Temp\ccf145Mk.s:24721  .debug_str:00000000000126bc .LASF3191
C:\Users\CYMR90~1\AppData\Local\Temp\ccf145Mk.s:28706  .debug_str:000000000002247e .LASF3192
C:\Users\CYMR90~1\AppData\Local\Temp\ccf145Mk.s:30072  .debug_str:0000000000027cf4 .LASF3193
C:\Users\CYMR90~1\AppData\Local\Temp\ccf145Mk.s:26086  .debug_str:0000000000017e86 .LASF3194
C:\Users\CYMR90~1\AppData\Local\Temp\ccf145Mk.s:23947  .debug_str:000000000000f3e3 .LASF3195
C:\Users\CYMR90~1\AppData\Local\Temp\ccf145Mk.s:28704  .debug_str:0000000000022465 .LASF3196
C:\Users\CYMR90~1\AppData\Local\Temp\ccf145Mk.s:30510  .debug_str:0000000000029968 .LASF3197
C:\Users\CYMR90~1\AppData\Local\Temp\ccf145Mk.s:26724  .debug_str:000000000001a916 .LASF3198
C:\Users\CYMR90~1\AppData\Local\Temp\ccf145Mk.s:21805  .debug_str:00000000000069a5 .LASF3199
C:\Users\CYMR90~1\AppData\Local\Temp\ccf145Mk.s:21429  .debug_str:00000000000052ea .LASF3200
C:\Users\CYMR90~1\AppData\Local\Temp\ccf145Mk.s:27624  .debug_str:000000000001e32d .LASF3201
C:\Users\CYMR90~1\AppData\Local\Temp\ccf145Mk.s:23657  .debug_str:000000000000e22d .LASF3202
C:\Users\CYMR90~1\AppData\Local\Temp\ccf145Mk.s:28906  .debug_str:000000000002306b .LASF3203
C:\Users\CYMR90~1\AppData\Local\Temp\ccf145Mk.s:25948  .debug_str:0000000000017612 .LASF3204
C:\Users\CYMR90~1\AppData\Local\Temp\ccf145Mk.s:29354  .debug_str:0000000000024d52 .LASF3205
C:\Users\CYMR90~1\AppData\Local\Temp\ccf145Mk.s:28744  .debug_str:0000000000022714 .LASF3206
C:\Users\CYMR90~1\AppData\Local\Temp\ccf145Mk.s:26000  .debug_str:0000000000017989 .LASF3207
C:\Users\CYMR90~1\AppData\Local\Temp\ccf145Mk.s:30944  .debug_str:000000000002b37d .LASF3208
C:\Users\CYMR90~1\AppData\Local\Temp\ccf145Mk.s:31244  .debug_str:000000000002c745 .LASF3209
C:\Users\CYMR90~1\AppData\Local\Temp\ccf145Mk.s:29666  .debug_str:000000000002633c .LASF3210
C:\Users\CYMR90~1\AppData\Local\Temp\ccf145Mk.s:21071  .debug_str:0000000000003b96 .LASF3211
C:\Users\CYMR90~1\AppData\Local\Temp\ccf145Mk.s:23877  .debug_str:000000000000ef70 .LASF3212
C:\Users\CYMR90~1\AppData\Local\Temp\ccf145Mk.s:21041  .debug_str:00000000000039c2 .LASF3213
C:\Users\CYMR90~1\AppData\Local\Temp\ccf145Mk.s:24433  .debug_str:0000000000011357 .LASF3214
C:\Users\CYMR90~1\AppData\Local\Temp\ccf145Mk.s:24251  .debug_str:00000000000107f9 .LASF3215
C:\Users\CYMR90~1\AppData\Local\Temp\ccf145Mk.s:21775  .debug_str:00000000000067b7 .LASF3216
C:\Users\CYMR90~1\AppData\Local\Temp\ccf145Mk.s:24639  .debug_str:0000000000012195 .LASF3217
C:\Users\CYMR90~1\AppData\Local\Temp\ccf145Mk.s:24299  .debug_str:0000000000010b29 .LASF3218
C:\Users\CYMR90~1\AppData\Local\Temp\ccf145Mk.s:22025  .debug_str:00000000000077d5 .LASF3219
C:\Users\CYMR90~1\AppData\Local\Temp\ccf145Mk.s:21995  .debug_str:00000000000075db .LASF3220
C:\Users\CYMR90~1\AppData\Local\Temp\ccf145Mk.s:25119  .debug_str:0000000000014061 .LASF3221
C:\Users\CYMR90~1\AppData\Local\Temp\ccf145Mk.s:27632  .debug_str:000000000001e3a1 .LASF3222
C:\Users\CYMR90~1\AppData\Local\Temp\ccf145Mk.s:21227  .debug_str:000000000000461b .LASF3223
C:\Users\CYMR90~1\AppData\Local\Temp\ccf145Mk.s:28174  .debug_str:000000000002044f .LASF3224
C:\Users\CYMR90~1\AppData\Local\Temp\ccf145Mk.s:28538  .debug_str:0000000000021ad0 .LASF3225
C:\Users\CYMR90~1\AppData\Local\Temp\ccf145Mk.s:22507  .debug_str:00000000000097c5 .LASF3226
C:\Users\CYMR90~1\AppData\Local\Temp\ccf145Mk.s:21851  .debug_str:0000000000006c9b .LASF3227
C:\Users\CYMR90~1\AppData\Local\Temp\ccf145Mk.s:22371  .debug_str:0000000000008f11 .LASF3228
C:\Users\CYMR90~1\AppData\Local\Temp\ccf145Mk.s:20825  .debug_str:0000000000002c13 .LASF3229
C:\Users\CYMR90~1\AppData\Local\Temp\ccf145Mk.s:31098  .debug_str:000000000002bd7f .LASF3230
C:\Users\CYMR90~1\AppData\Local\Temp\ccf145Mk.s:21651  .debug_str:000000000000602d .LASF3231
C:\Users\CYMR90~1\AppData\Local\Temp\ccf145Mk.s:20223  .debug_str:0000000000000755 .LASF3232
C:\Users\CYMR90~1\AppData\Local\Temp\ccf145Mk.s:21233  .debug_str:0000000000004698 .LASF3233
C:\Users\CYMR90~1\AppData\Local\Temp\ccf145Mk.s:28642  .debug_str:00000000000220f8 .LASF3234
C:\Users\CYMR90~1\AppData\Local\Temp\ccf145Mk.s:24713  .debug_str:0000000000012636 .LASF3235
C:\Users\CYMR90~1\AppData\Local\Temp\ccf145Mk.s:28258  .debug_str:00000000000209a3 .LASF3236
C:\Users\CYMR90~1\AppData\Local\Temp\ccf145Mk.s:20161  .debug_str:00000000000003d5 .LASF3237
C:\Users\CYMR90~1\AppData\Local\Temp\ccf145Mk.s:27846  .debug_str:000000000001f06c .LASF3238
C:\Users\CYMR90~1\AppData\Local\Temp\ccf145Mk.s:26712  .debug_str:000000000001a854 .LASF3239
C:\Users\CYMR90~1\AppData\Local\Temp\ccf145Mk.s:27622  .debug_str:000000000001e30d .LASF3240
C:\Users\CYMR90~1\AppData\Local\Temp\ccf145Mk.s:27206  .debug_str:000000000001c79c .LASF3241
C:\Users\CYMR90~1\AppData\Local\Temp\ccf145Mk.s:26066  .debug_str:0000000000017d80 .LASF3242
C:\Users\CYMR90~1\AppData\Local\Temp\ccf145Mk.s:24601  .debug_str:0000000000011ec9 .LASF3243
C:\Users\CYMR90~1\AppData\Local\Temp\ccf145Mk.s:22591  .debug_str:0000000000009ce8 .LASF3244
C:\Users\CYMR90~1\AppData\Local\Temp\ccf145Mk.s:27494  .debug_str:000000000001dab2 .LASF3245
C:\Users\CYMR90~1\AppData\Local\Temp\ccf145Mk.s:31194  .debug_str:000000000002c45b .LASF3246
C:\Users\CYMR90~1\AppData\Local\Temp\ccf145Mk.s:26474  .debug_str:0000000000019825 .LASF3247
C:\Users\CYMR90~1\AppData\Local\Temp\ccf145Mk.s:26782  .debug_str:000000000001aca2 .LASF3248
C:\Users\CYMR90~1\AppData\Local\Temp\ccf145Mk.s:29280  .debug_str:00000000000248cc .LASF3249
C:\Users\CYMR90~1\AppData\Local\Temp\ccf145Mk.s:30678  .debug_str:000000000002a320 .LASF3250
C:\Users\CYMR90~1\AppData\Local\Temp\ccf145Mk.s:24481  .debug_str:000000000001166c .LASF3251
C:\Users\CYMR90~1\AppData\Local\Temp\ccf145Mk.s:27444  .debug_str:000000000001d7ec .LASF3252
C:\Users\CYMR90~1\AppData\Local\Temp\ccf145Mk.s:23557  .debug_str:000000000000dc19 .LASF3253
C:\Users\CYMR90~1\AppData\Local\Temp\ccf145Mk.s:30448  .debug_str:00000000000295b2 .LASF3254
C:\Users\CYMR90~1\AppData\Local\Temp\ccf145Mk.s:21949  .debug_str:0000000000007318 .LASF3255
C:\Users\CYMR90~1\AppData\Local\Temp\ccf145Mk.s:30724  .debug_str:000000000002a62a .LASF3256
C:\Users\CYMR90~1\AppData\Local\Temp\ccf145Mk.s:29506  .debug_str:0000000000025910 .LASF3257
C:\Users\CYMR90~1\AppData\Local\Temp\ccf145Mk.s:20999  .debug_str:0000000000003721 .LASF3258
C:\Users\CYMR90~1\AppData\Local\Temp\ccf145Mk.s:24189  .debug_str:00000000000103bf .LASF3259
C:\Users\CYMR90~1\AppData\Local\Temp\ccf145Mk.s:30176  .debug_str:00000000000284d7 .LASF3260
C:\Users\CYMR90~1\AppData\Local\Temp\ccf145Mk.s:24663  .debug_str:0000000000012301 .LASF3261
C:\Users\CYMR90~1\AppData\Local\Temp\ccf145Mk.s:22767  .debug_str:000000000000a8a8 .LASF3262
C:\Users\CYMR90~1\AppData\Local\Temp\ccf145Mk.s:31002  .debug_str:000000000002b729 .LASF3263
C:\Users\CYMR90~1\AppData\Local\Temp\ccf145Mk.s:22853  .debug_str:000000000000aecb .LASF3264
C:\Users\CYMR90~1\AppData\Local\Temp\ccf145Mk.s:26528  .debug_str:0000000000019b91 .LASF3265
C:\Users\CYMR90~1\AppData\Local\Temp\ccf145Mk.s:30752  .debug_str:000000000002a7f3 .LASF3266
C:\Users\CYMR90~1\AppData\Local\Temp\ccf145Mk.s:26270  .debug_str:0000000000018982 .LASF3267
C:\Users\CYMR90~1\AppData\Local\Temp\ccf145Mk.s:30790  .debug_str:000000000002aa2a .LASF3268
C:\Users\CYMR90~1\AppData\Local\Temp\ccf145Mk.s:28368  .debug_str:0000000000020fe8 .LASF3269
C:\Users\CYMR90~1\AppData\Local\Temp\ccf145Mk.s:29752  .debug_str:00000000000268a3 .LASF3270
C:\Users\CYMR90~1\AppData\Local\Temp\ccf145Mk.s:23413  .debug_str:000000000000d368 .LASF3271
C:\Users\CYMR90~1\AppData\Local\Temp\ccf145Mk.s:29128  .debug_str:0000000000023e0a .LASF3272
C:\Users\CYMR90~1\AppData\Local\Temp\ccf145Mk.s:25243  .debug_str:00000000000147f7 .LASF3273
C:\Users\CYMR90~1\AppData\Local\Temp\ccf145Mk.s:24083  .debug_str:000000000000fd30 .LASF3274
C:\Users\CYMR90~1\AppData\Local\Temp\ccf145Mk.s:27194  .debug_str:000000000001c632 .LASF3275
C:\Users\CYMR90~1\AppData\Local\Temp\ccf145Mk.s:30010  .debug_str:000000000002789d .LASF3276
C:\Users\CYMR90~1\AppData\Local\Temp\ccf145Mk.s:21021  .debug_str:000000000000385c .LASF3277
C:\Users\CYMR90~1\AppData\Local\Temp\ccf145Mk.s:27424  .debug_str:000000000001d67b .LASF3278
C:\Users\CYMR90~1\AppData\Local\Temp\ccf145Mk.s:30186  .debug_str:000000000002857b .LASF3279
C:\Users\CYMR90~1\AppData\Local\Temp\ccf145Mk.s:22265  .debug_str:000000000000886d .LASF3280
C:\Users\CYMR90~1\AppData\Local\Temp\ccf145Mk.s:28614  .debug_str:0000000000021f36 .LASF3281
C:\Users\CYMR90~1\AppData\Local\Temp\ccf145Mk.s:25421  .debug_str:000000000001530a .LASF3282
C:\Users\CYMR90~1\AppData\Local\Temp\ccf145Mk.s:22355  .debug_str:0000000000008e3e .LASF3283
C:\Users\CYMR90~1\AppData\Local\Temp\ccf145Mk.s:27330  .debug_str:000000000001d0bd .LASF3284
C:\Users\CYMR90~1\AppData\Local\Temp\ccf145Mk.s:24809  .debug_str:0000000000012c84 .LASF3285
C:\Users\CYMR90~1\AppData\Local\Temp\ccf145Mk.s:22831  .debug_str:000000000000ac91 .LASF3286
C:\Users\CYMR90~1\AppData\Local\Temp\ccf145Mk.s:27262  .debug_str:000000000001cb42 .LASF3287
C:\Users\CYMR90~1\AppData\Local\Temp\ccf145Mk.s:29378  .debug_str:0000000000024eef .LASF3288
C:\Users\CYMR90~1\AppData\Local\Temp\ccf145Mk.s:21311  .debug_str:0000000000004be3 .LASF3289
C:\Users\CYMR90~1\AppData\Local\Temp\ccf145Mk.s:30692  .debug_str:000000000002a40d .LASF3290
C:\Users\CYMR90~1\AppData\Local\Temp\ccf145Mk.s:29574  .debug_str:0000000000025d5a .LASF3291
C:\Users\CYMR90~1\AppData\Local\Temp\ccf145Mk.s:26572  .debug_str:0000000000019e18 .LASF3292
C:\Users\CYMR90~1\AppData\Local\Temp\ccf145Mk.s:26580  .debug_str:0000000000019ea9 .LASF3293
C:\Users\CYMR90~1\AppData\Local\Temp\ccf145Mk.s:29866  .debug_str:0000000000026f7b .LASF3294
C:\Users\CYMR90~1\AppData\Local\Temp\ccf145Mk.s:24695  .debug_str:00000000000124ee .LASF3295
C:\Users\CYMR90~1\AppData\Local\Temp\ccf145Mk.s:30664  .debug_str:000000000002a26c .LASF3296
C:\Users\CYMR90~1\AppData\Local\Temp\ccf145Mk.s:26232  .debug_str:000000000001872d .LASF3297
C:\Users\CYMR90~1\AppData\Local\Temp\ccf145Mk.s:29944  .debug_str:00000000000274e9 .LASF3298
C:\Users\CYMR90~1\AppData\Local\Temp\ccf145Mk.s:21207  .debug_str:000000000000449c .LASF3299
C:\Users\CYMR90~1\AppData\Local\Temp\ccf145Mk.s:24289  .debug_str:0000000000010a4f .LASF3300
C:\Users\CYMR90~1\AppData\Local\Temp\ccf145Mk.s:27604  .debug_str:000000000001e1ee .LASF3301
C:\Users\CYMR90~1\AppData\Local\Temp\ccf145Mk.s:24623  .debug_str:0000000000012067 .LASF3302
C:\Users\CYMR90~1\AppData\Local\Temp\ccf145Mk.s:24035  .debug_str:000000000000fa1c .LASF3303
C:\Users\CYMR90~1\AppData\Local\Temp\ccf145Mk.s:24807  .debug_str:0000000000012c4b .LASF3304
C:\Users\CYMR90~1\AppData\Local\Temp\ccf145Mk.s:28842  .debug_str:0000000000022cf6 .LASF3305
C:\Users\CYMR90~1\AppData\Local\Temp\ccf145Mk.s:25605  .debug_str:0000000000015ea1 .LASF3306
C:\Users\CYMR90~1\AppData\Local\Temp\ccf145Mk.s:27176  .debug_str:000000000001c4c1 .LASF3307
C:\Users\CYMR90~1\AppData\Local\Temp\ccf145Mk.s:25655  .debug_str:00000000000161be .LASF3308
C:\Users\CYMR90~1\AppData\Local\Temp\ccf145Mk.s:22055  .debug_str:00000000000079d8 .LASF3309
C:\Users\CYMR90~1\AppData\Local\Temp\ccf145Mk.s:21367  .debug_str:0000000000004f29 .LASF3310
C:\Users\CYMR90~1\AppData\Local\Temp\ccf145Mk.s:24757  .debug_str:0000000000012919 .LASF3311
C:\Users\CYMR90~1\AppData\Local\Temp\ccf145Mk.s:20379  .debug_str:0000000000001119 .LASF3312
C:\Users\CYMR90~1\AppData\Local\Temp\ccf145Mk.s:20471  .debug_str:0000000000001659 .LASF3313
C:\Users\CYMR90~1\AppData\Local\Temp\ccf145Mk.s:30136  .debug_str:000000000002818a .LASF3314
C:\Users\CYMR90~1\AppData\Local\Temp\ccf145Mk.s:26850  .debug_str:000000000001b136 .LASF3315
C:\Users\CYMR90~1\AppData\Local\Temp\ccf145Mk.s:23331  .debug_str:000000000000cd97 .LASF3316
C:\Users\CYMR90~1\AppData\Local\Temp\ccf145Mk.s:30024  .debug_str:0000000000027992 .LASF3317
C:\Users\CYMR90~1\AppData\Local\Temp\ccf145Mk.s:26178  .debug_str:0000000000018410 .LASF3318
C:\Users\CYMR90~1\AppData\Local\Temp\ccf145Mk.s:24033  .debug_str:000000000000fa03 .LASF3319
C:\Users\CYMR90~1\AppData\Local\Temp\ccf145Mk.s:27658  .debug_str:000000000001e530 .LASF3320
C:\Users\CYMR90~1\AppData\Local\Temp\ccf145Mk.s:23141  .debug_str:000000000000c1aa .LASF3321
C:\Users\CYMR90~1\AppData\Local\Temp\ccf145Mk.s:22703  .debug_str:000000000000a3f9 .LASF3322
C:\Users\CYMR90~1\AppData\Local\Temp\ccf145Mk.s:25665  .debug_str:000000000001626c .LASF3323
C:\Users\CYMR90~1\AppData\Local\Temp\ccf145Mk.s:26630  .debug_str:000000000001a17e .LASF3324
C:\Users\CYMR90~1\AppData\Local\Temp\ccf145Mk.s:27910  .debug_str:000000000001f446 .LASF3325
C:\Users\CYMR90~1\AppData\Local\Temp\ccf145Mk.s:24111  .debug_str:000000000000ff0a .LASF3326
C:\Users\CYMR90~1\AppData\Local\Temp\ccf145Mk.s:31270  .debug_str:000000000002c921 .LASF3327
C:\Users\CYMR90~1\AppData\Local\Temp\ccf145Mk.s:28624  .debug_str:0000000000021fd8 .LASF3328
C:\Users\CYMR90~1\AppData\Local\Temp\ccf145Mk.s:28640  .debug_str:00000000000220d4 .LASF3329
C:\Users\CYMR90~1\AppData\Local\Temp\ccf145Mk.s:23017  .debug_str:000000000000b95a .LASF3330
C:\Users\CYMR90~1\AppData\Local\Temp\ccf145Mk.s:28920  .debug_str:0000000000023149 .LASF3331
C:\Users\CYMR90~1\AppData\Local\Temp\ccf145Mk.s:25083  .debug_str:0000000000013e07 .LASF3332
C:\Users\CYMR90~1\AppData\Local\Temp\ccf145Mk.s:27802  .debug_str:000000000001ed6f .LASF3333
C:\Users\CYMR90~1\AppData\Local\Temp\ccf145Mk.s:23861  .debug_str:000000000000ee7a .LASF3334
C:\Users\CYMR90~1\AppData\Local\Temp\ccf145Mk.s:30658  .debug_str:000000000002a212 .LASF3335
C:\Users\CYMR90~1\AppData\Local\Temp\ccf145Mk.s:24187  .debug_str:00000000000103a8 .LASF3336
C:\Users\CYMR90~1\AppData\Local\Temp\ccf145Mk.s:30264  .debug_str:0000000000028ad8 .LASF3337
C:\Users\CYMR90~1\AppData\Local\Temp\ccf145Mk.s:25369  .debug_str:0000000000015022 .LASF3338
C:\Users\CYMR90~1\AppData\Local\Temp\ccf145Mk.s:24511  .debug_str:00000000000118eb .LASF3339
C:\Users\CYMR90~1\AppData\Local\Temp\ccf145Mk.s:22395  .debug_str:0000000000009097 .LASF3340
C:\Users\CYMR90~1\AppData\Local\Temp\ccf145Mk.s:21981  .debug_str:00000000000074f4 .LASF3341
C:\Users\CYMR90~1\AppData\Local\Temp\ccf145Mk.s:31392  .debug_str:000000000002d117 .LASF3342
C:\Users\CYMR90~1\AppData\Local\Temp\ccf145Mk.s:21157  .debug_str:000000000000416e .LASF3343
C:\Users\CYMR90~1\AppData\Local\Temp\ccf145Mk.s:30918  .debug_str:000000000002b19c .LASF3344
C:\Users\CYMR90~1\AppData\Local\Temp\ccf145Mk.s:23481  .debug_str:000000000000d7b4 .LASF3345
C:\Users\CYMR90~1\AppData\Local\Temp\ccf145Mk.s:26156  .debug_str:0000000000018295 .LASF3346
C:\Users\CYMR90~1\AppData\Local\Temp\ccf145Mk.s:25603  .debug_str:0000000000015e89 .LASF3347
C:\Users\CYMR90~1\AppData\Local\Temp\ccf145Mk.s:28932  .debug_str:00000000000231e0 .LASF3348
C:\Users\CYMR90~1\AppData\Local\Temp\ccf145Mk.s:20391  .debug_str:00000000000011bf .LASF3349
C:\Users\CYMR90~1\AppData\Local\Temp\ccf145Mk.s:21325  .debug_str:0000000000004cdb .LASF3350
C:\Users\CYMR90~1\AppData\Local\Temp\ccf145Mk.s:28794  .debug_str:00000000000229d0 .LASF3351
C:\Users\CYMR90~1\AppData\Local\Temp\ccf145Mk.s:21573  .debug_str:0000000000005b73 .LASF3352
C:\Users\CYMR90~1\AppData\Local\Temp\ccf145Mk.s:29112  .debug_str:0000000000023cfe .LASF3353
C:\Users\CYMR90~1\AppData\Local\Temp\ccf145Mk.s:29534  .debug_str:0000000000025ae9 .LASF3354
C:\Users\CYMR90~1\AppData\Local\Temp\ccf145Mk.s:28248  .debug_str:0000000000020935 .LASF3355
C:\Users\CYMR90~1\AppData\Local\Temp\ccf145Mk.s:25509  .debug_str:000000000001582f .LASF3356
C:\Users\CYMR90~1\AppData\Local\Temp\ccf145Mk.s:25261  .debug_str:00000000000148f7 .LASF3357
C:\Users\CYMR90~1\AppData\Local\Temp\ccf145Mk.s:25982  .debug_str:0000000000017857 .LASF3358
C:\Users\CYMR90~1\AppData\Local\Temp\ccf145Mk.s:28142  .debug_str:0000000000020205 .LASF3359
C:\Users\CYMR90~1\AppData\Local\Temp\ccf145Mk.s:21945  .debug_str:00000000000072ea .LASF3360
C:\Users\CYMR90~1\AppData\Local\Temp\ccf145Mk.s:20155  .debug_str:000000000000037c .LASF3361
C:\Users\CYMR90~1\AppData\Local\Temp\ccf145Mk.s:30288  .debug_str:0000000000028c51 .LASF3362
C:\Users\CYMR90~1\AppData\Local\Temp\ccf145Mk.s:20285  .debug_str:0000000000000b8f .LASF3363
C:\Users\CYMR90~1\AppData\Local\Temp\ccf145Mk.s:28620  .debug_str:0000000000021faa .LASF3364
C:\Users\CYMR90~1\AppData\Local\Temp\ccf145Mk.s:25405  .debug_str:0000000000015249 .LASF3365
C:\Users\CYMR90~1\AppData\Local\Temp\ccf145Mk.s:25065  .debug_str:0000000000013cef .LASF3366
C:\Users\CYMR90~1\AppData\Local\Temp\ccf145Mk.s:23355  .debug_str:000000000000cf3f .LASF3367
C:\Users\CYMR90~1\AppData\Local\Temp\ccf145Mk.s:28922  .debug_str:000000000002316f .LASF3368
C:\Users\CYMR90~1\AppData\Local\Temp\ccf145Mk.s:26892  .debug_str:000000000001b3e5 .LASF3369
C:\Users\CYMR90~1\AppData\Local\Temp\ccf145Mk.s:25663  .debug_str:000000000001624f .LASF3370
C:\Users\CYMR90~1\AppData\Local\Temp\ccf145Mk.s:29376  .debug_str:0000000000024ed1 .LASF3371
C:\Users\CYMR90~1\AppData\Local\Temp\ccf145Mk.s:23999  .debug_str:000000000000f82e .LASF3372
C:\Users\CYMR90~1\AppData\Local\Temp\ccf145Mk.s:28840  .debug_str:0000000000022cda .LASF3373
C:\Users\CYMR90~1\AppData\Local\Temp\ccf145Mk.s:24903  .debug_str:00000000000132c7 .LASF3374
C:\Users\CYMR90~1\AppData\Local\Temp\ccf145Mk.s:27374  .debug_str:000000000001d34a .LASF3375
C:\Users\CYMR90~1\AppData\Local\Temp\ccf145Mk.s:30054  .debug_str:0000000000027bc0 .LASF3376
C:\Users\CYMR90~1\AppData\Local\Temp\ccf145Mk.s:31308  .debug_str:000000000002cb88 .LASF3377
C:\Users\CYMR90~1\AppData\Local\Temp\ccf145Mk.s:21967  .debug_str:0000000000007411 .LASF3378
C:\Users\CYMR90~1\AppData\Local\Temp\ccf145Mk.s:21087  .debug_str:0000000000003ca3 .LASF3379
C:\Users\CYMR90~1\AppData\Local\Temp\ccf145Mk.s:30992  .debug_str:000000000002b681 .LASF3380
C:\Users\CYMR90~1\AppData\Local\Temp\ccf145Mk.s:22861  .debug_str:000000000000af39 .LASF3381
C:\Users\CYMR90~1\AppData\Local\Temp\ccf145Mk.s:25059  .debug_str:0000000000013ca1 .LASF3382
C:\Users\CYMR90~1\AppData\Local\Temp\ccf145Mk.s:21359  .debug_str:0000000000004ec9 .LASF3383
C:\Users\CYMR90~1\AppData\Local\Temp\ccf145Mk.s:22741  .debug_str:000000000000a622 .LASF3384
C:\Users\CYMR90~1\AppData\Local\Temp\ccf145Mk.s:21553  .debug_str:0000000000005a4d .LASF3385
C:\Users\CYMR90~1\AppData\Local\Temp\ccf145Mk.s:22957  .debug_str:000000000000b543 .LASF3386
C:\Users\CYMR90~1\AppData\Local\Temp\ccf145Mk.s:21489  .debug_str:000000000000566d .LASF3387
C:\Users\CYMR90~1\AppData\Local\Temp\ccf145Mk.s:24617  .debug_str:0000000000012001 .LASF3388
C:\Users\CYMR90~1\AppData\Local\Temp\ccf145Mk.s:30044  .debug_str:0000000000027b23 .LASF3389
C:\Users\CYMR90~1\AppData\Local\Temp\ccf145Mk.s:26414  .debug_str:00000000000193cb .LASF3390
C:\Users\CYMR90~1\AppData\Local\Temp\ccf145Mk.s:25203  .debug_str:000000000001455d .LASF3391
C:\Users\CYMR90~1\AppData\Local\Temp\ccf145Mk.s:31340  .debug_str:000000000002cde7 .LASF3392
C:\Users\CYMR90~1\AppData\Local\Temp\ccf145Mk.s:27878  .debug_str:000000000001f24e .LASF3393
C:\Users\CYMR90~1\AppData\Local\Temp\ccf145Mk.s:24549  .debug_str:0000000000011bb2 .LASF3394
C:\Users\CYMR90~1\AppData\Local\Temp\ccf145Mk.s:22239  .debug_str:00000000000086a2 .LASF3395
C:\Users\CYMR90~1\AppData\Local\Temp\ccf145Mk.s:28978  .debug_str:00000000000234b7 .LASF3396
C:\Users\CYMR90~1\AppData\Local\Temp\ccf145Mk.s:27812  .debug_str:000000000001ee25 .LASF3397
C:\Users\CYMR90~1\AppData\Local\Temp\ccf145Mk.s:22181  .debug_str:0000000000008318 .LASF3398
C:\Users\CYMR90~1\AppData\Local\Temp\ccf145Mk.s:26100  .debug_str:0000000000017f1f .LASF3399
C:\Users\CYMR90~1\AppData\Local\Temp\ccf145Mk.s:31054  .debug_str:000000000002baaf .LASF3400
C:\Users\CYMR90~1\AppData\Local\Temp\ccf145Mk.s:29610  .debug_str:0000000000025f78 .LASF3401
C:\Users\CYMR90~1\AppData\Local\Temp\ccf145Mk.s:20489  .debug_str:0000000000001788 .LASF3402
C:\Users\CYMR90~1\AppData\Local\Temp\ccf145Mk.s:21527  .debug_str:0000000000005876 .LASF3403
C:\Users\CYMR90~1\AppData\Local\Temp\ccf145Mk.s:27666  .debug_str:000000000001e57c .LASF3404
C:\Users\CYMR90~1\AppData\Local\Temp\ccf145Mk.s:27886  .debug_str:000000000001f2cc .LASF3405
C:\Users\CYMR90~1\AppData\Local\Temp\ccf145Mk.s:29024  .debug_str:00000000000237f1 .LASF3406
C:\Users\CYMR90~1\AppData\Local\Temp\ccf145Mk.s:20485  .debug_str:0000000000001741 .LASF3407
C:\Users\CYMR90~1\AppData\Local\Temp\ccf145Mk.s:26212  .debug_str:00000000000185bc .LASF3408
C:\Users\CYMR90~1\AppData\Local\Temp\ccf145Mk.s:31290  .debug_str:000000000002ca6b .LASF3409
C:\Users\CYMR90~1\AppData\Local\Temp\ccf145Mk.s:22931  .debug_str:000000000000b328 .LASF3410
C:\Users\CYMR90~1\AppData\Local\Temp\ccf145Mk.s:26084  .debug_str:0000000000017e66 .LASF3411
C:\Users\CYMR90~1\AppData\Local\Temp\ccf145Mk.s:20423  .debug_str:0000000000001398 .LASF3412
C:\Users\CYMR90~1\AppData\Local\Temp\ccf145Mk.s:27154  .debug_str:000000000001c37e .LASF3413
C:\Users\CYMR90~1\AppData\Local\Temp\ccf145Mk.s:23149  .debug_str:000000000000c220 .LASF3414
C:\Users\CYMR90~1\AppData\Local\Temp\ccf145Mk.s:23417  .debug_str:000000000000d3b3 .LASF3415
C:\Users\CYMR90~1\AppData\Local\Temp\ccf145Mk.s:31050  .debug_str:000000000002ba64 .LASF3416
C:\Users\CYMR90~1\AppData\Local\Temp\ccf145Mk.s:28090  .debug_str:000000000001ff36 .LASF3417
C:\Users\CYMR90~1\AppData\Local\Temp\ccf145Mk.s:23891  .debug_str:000000000000f067 .LASF3418
C:\Users\CYMR90~1\AppData\Local\Temp\ccf145Mk.s:29532  .debug_str:0000000000025ac1 .LASF3419
C:\Users\CYMR90~1\AppData\Local\Temp\ccf145Mk.s:28470  .debug_str:00000000000216a3 .LASF3420
C:\Users\CYMR90~1\AppData\Local\Temp\ccf145Mk.s:24153  .debug_str:00000000000101af .LASF3421
C:\Users\CYMR90~1\AppData\Local\Temp\ccf145Mk.s:28088  .debug_str:000000000001ff0f .LASF3422
C:\Users\CYMR90~1\AppData\Local\Temp\ccf145Mk.s:25213  .debug_str:0000000000014624 .LASF3423
C:\Users\CYMR90~1\AppData\Local\Temp\ccf145Mk.s:30928  .debug_str:000000000002b274 .LASF3424
C:\Users\CYMR90~1\AppData\Local\Temp\ccf145Mk.s:22191  .debug_str:00000000000083af .LASF3425
C:\Users\CYMR90~1\AppData\Local\Temp\ccf145Mk.s:28120  .debug_str:00000000000200d0 .LASF3426
C:\Users\CYMR90~1\AppData\Local\Temp\ccf145Mk.s:29672  .debug_str:000000000002639b .LASF3427
C:\Users\CYMR90~1\AppData\Local\Temp\ccf145Mk.s:31342  .debug_str:000000000002ce0e .LASF3428
C:\Users\CYMR90~1\AppData\Local\Temp\ccf145Mk.s:22571  .debug_str:0000000000009bbe .LASF3429
C:\Users\CYMR90~1\AppData\Local\Temp\ccf145Mk.s:26454  .debug_str:0000000000019642 .LASF3430
C:\Users\CYMR90~1\AppData\Local\Temp\ccf145Mk.s:23867  .debug_str:000000000000eec0 .LASF3431
C:\Users\CYMR90~1\AppData\Local\Temp\ccf145Mk.s:27800  .debug_str:000000000001ed51 .LASF3432
C:\Users\CYMR90~1\AppData\Local\Temp\ccf145Mk.s:26268  .debug_str:0000000000018963 .LASF3433
C:\Users\CYMR90~1\AppData\Local\Temp\ccf145Mk.s:30852  .debug_str:000000000002add6 .LASF3434
C:\Users\CYMR90~1\AppData\Local\Temp\ccf145Mk.s:27036  .debug_str:000000000001bc55 .LASF3435
C:\Users\CYMR90~1\AppData\Local\Temp\ccf145Mk.s:21075  .debug_str:0000000000003be4 .LASF3436
C:\Users\CYMR90~1\AppData\Local\Temp\ccf145Mk.s:22843  .debug_str:000000000000ad87 .LASF3437
C:\Users\CYMR90~1\AppData\Local\Temp\ccf145Mk.s:23887  .debug_str:000000000000f019 .LASF3438
C:\Users\CYMR90~1\AppData\Local\Temp\ccf145Mk.s:28548  .debug_str:0000000000021b65 .LASF3439
C:\Users\CYMR90~1\AppData\Local\Temp\ccf145Mk.s:25771  .debug_str:0000000000016a12 .LASF3440
C:\Users\CYMR90~1\AppData\Local\Temp\ccf145Mk.s:27564  .debug_str:000000000001dfa5 .LASF3441
C:\Users\CYMR90~1\AppData\Local\Temp\ccf145Mk.s:27460  .debug_str:000000000001d8c4 .LASF3442
C:\Users\CYMR90~1\AppData\Local\Temp\ccf145Mk.s:28572  .debug_str:0000000000021ce3 .LASF3443
C:\Users\CYMR90~1\AppData\Local\Temp\ccf145Mk.s:22809  .debug_str:000000000000ab43 .LASF3444
C:\Users\CYMR90~1\AppData\Local\Temp\ccf145Mk.s:25179  .debug_str:00000000000143e4 .LASF3445
C:\Users\CYMR90~1\AppData\Local\Temp\ccf145Mk.s:21619  .debug_str:0000000000005e10 .LASF3446
C:\Users\CYMR90~1\AppData\Local\Temp\ccf145Mk.s:28304  .debug_str:0000000000020c9c .LASF3447
C:\Users\CYMR90~1\AppData\Local\Temp\ccf145Mk.s:24795  .debug_str:0000000000012b85 .LASF3448
C:\Users\CYMR90~1\AppData\Local\Temp\ccf145Mk.s:26868  .debug_str:000000000001b26e .LASF3449
C:\Users\CYMR90~1\AppData\Local\Temp\ccf145Mk.s:26740  .debug_str:000000000001aa2a .LASF3450
C:\Users\CYMR90~1\AppData\Local\Temp\ccf145Mk.s:21379  .debug_str:0000000000005002 .LASF3451
C:\Users\CYMR90~1\AppData\Local\Temp\ccf145Mk.s:28166  .debug_str:00000000000203b2 .LASF3452
C:\Users\CYMR90~1\AppData\Local\Temp\ccf145Mk.s:24869  .debug_str:0000000000013074 .LASF3453
C:\Users\CYMR90~1\AppData\Local\Temp\ccf145Mk.s:22679  .debug_str:000000000000a2a3 .LASF3454
C:\Users\CYMR90~1\AppData\Local\Temp\ccf145Mk.s:27196  .debug_str:000000000001c657 .LASF3455
C:\Users\CYMR90~1\AppData\Local\Temp\ccf145Mk.s:21881  .debug_str:0000000000006e7f .LASF3456
C:\Users\CYMR90~1\AppData\Local\Temp\ccf145Mk.s:29860  .debug_str:0000000000026f17 .LASF3457
C:\Users\CYMR90~1\AppData\Local\Temp\ccf145Mk.s:21291  .debug_str:0000000000004aa1 .LASF3458
C:\Users\CYMR90~1\AppData\Local\Temp\ccf145Mk.s:21617  .debug_str:0000000000005dff .LASF3459
C:\Users\CYMR90~1\AppData\Local\Temp\ccf145Mk.s:20601  .debug_str:0000000000001e4c .LASF3460
C:\Users\CYMR90~1\AppData\Local\Temp\ccf145Mk.s:26160  .debug_str:00000000000182cc .LASF3461
C:\Users\CYMR90~1\AppData\Local\Temp\ccf145Mk.s:25880  .debug_str:0000000000017202 .LASF3462
C:\Users\CYMR90~1\AppData\Local\Temp\ccf145Mk.s:26918  .debug_str:000000000001b557 .LASF3463
C:\Users\CYMR90~1\AppData\Local\Temp\ccf145Mk.s:23571  .debug_str:000000000000dd40 .LASF3464
C:\Users\CYMR90~1\AppData\Local\Temp\ccf145Mk.s:28298  .debug_str:0000000000020c46 .LASF3465
C:\Users\CYMR90~1\AppData\Local\Temp\ccf145Mk.s:29178  .debug_str:00000000000241af .LASF3466
C:\Users\CYMR90~1\AppData\Local\Temp\ccf145Mk.s:30056  .debug_str:0000000000027bd7 .LASF3467
C:\Users\CYMR90~1\AppData\Local\Temp\ccf145Mk.s:28424  .debug_str:00000000000213dc .LASF3468
C:\Users\CYMR90~1\AppData\Local\Temp\ccf145Mk.s:29696  .debug_str:00000000000264f9 .LASF3469
C:\Users\CYMR90~1\AppData\Local\Temp\ccf145Mk.s:21901  .debug_str:0000000000006ff8 .LASF3470
C:\Users\CYMR90~1\AppData\Local\Temp\ccf145Mk.s:26926  .debug_str:000000000001b5e4 .LASF3471
C:\Users\CYMR90~1\AppData\Local\Temp\ccf145Mk.s:20693  .debug_str:000000000000233c .LASF3472
C:\Users\CYMR90~1\AppData\Local\Temp\ccf145Mk.s:29448  .debug_str:0000000000025455 .LASF3473
C:\Users\CYMR90~1\AppData\Local\Temp\ccf145Mk.s:23155  .debug_str:000000000000c29f .LASF3474
C:\Users\CYMR90~1\AppData\Local\Temp\ccf145Mk.s:25637  .debug_str:00000000000160b9 .LASF3475
C:\Users\CYMR90~1\AppData\Local\Temp\ccf145Mk.s:29894  .debug_str:000000000002710f .LASF3476
C:\Users\CYMR90~1\AppData\Local\Temp\ccf145Mk.s:22797  .debug_str:000000000000aa73 .LASF3477
C:\Users\CYMR90~1\AppData\Local\Temp\ccf145Mk.s:23647  .debug_str:000000000000e194 .LASF3478
C:\Users\CYMR90~1\AppData\Local\Temp\ccf145Mk.s:21295  .debug_str:0000000000004af0 .LASF3479
C:\Users\CYMR90~1\AppData\Local\Temp\ccf145Mk.s:20279  .debug_str:0000000000000b15 .LASF3480
C:\Users\CYMR90~1\AppData\Local\Temp\ccf145Mk.s:28584  .debug_str:0000000000021d92 .LASF3481
C:\Users\CYMR90~1\AppData\Local\Temp\ccf145Mk.s:22815  .debug_str:000000000000ab98 .LASF3482
C:\Users\CYMR90~1\AppData\Local\Temp\ccf145Mk.s:20991  .debug_str:0000000000003681 .LASF3483
C:\Users\CYMR90~1\AppData\Local\Temp\ccf145Mk.s:20451  .debug_str:0000000000001511 .LASF3484
C:\Users\CYMR90~1\AppData\Local\Temp\ccf145Mk.s:26180  .debug_str:0000000000018429 .LASF3485
C:\Users\CYMR90~1\AppData\Local\Temp\ccf145Mk.s:25659  .debug_str:000000000001620f .LASF3486
C:\Users\CYMR90~1\AppData\Local\Temp\ccf145Mk.s:24857  .debug_str:0000000000012fa8 .LASF3487
C:\Users\CYMR90~1\AppData\Local\Temp\ccf145Mk.s:26534  .debug_str:0000000000019bfa .LASF3488
C:\Users\CYMR90~1\AppData\Local\Temp\ccf145Mk.s:30816  .debug_str:000000000002abc1 .LASF3489
C:\Users\CYMR90~1\AppData\Local\Temp\ccf145Mk.s:25723  .debug_str:0000000000016640 .LASF3490
C:\Users\CYMR90~1\AppData\Local\Temp\ccf145Mk.s:24773  .debug_str:0000000000012a4e .LASF3491
C:\Users\CYMR90~1\AppData\Local\Temp\ccf145Mk.s:26826  .debug_str:000000000001afa5 .LASF3492
C:\Users\CYMR90~1\AppData\Local\Temp\ccf145Mk.s:29726  .debug_str:00000000000266cc .LASF3493
C:\Users\CYMR90~1\AppData\Local\Temp\ccf145Mk.s:22119  .debug_str:0000000000007f0d .LASF3494
C:\Users\CYMR90~1\AppData\Local\Temp\ccf145Mk.s:20813  .debug_str:0000000000002b43 .LASF3495
C:\Users\CYMR90~1\AppData\Local\Temp\ccf145Mk.s:28508  .debug_str:00000000000218ca .LASF3496
C:\Users\CYMR90~1\AppData\Local\Temp\ccf145Mk.s:27836  .debug_str:000000000001efd8 .LASF3497
C:\Users\CYMR90~1\AppData\Local\Temp\ccf145Mk.s:28134  .debug_str:0000000000020199 .LASF3498
C:\Users\CYMR90~1\AppData\Local\Temp\ccf145Mk.s:28670  .debug_str:0000000000022291 .LASF3499
C:\Users\CYMR90~1\AppData\Local\Temp\ccf145Mk.s:24287  .debug_str:0000000000010a37 .LASF3500
C:\Users\CYMR90~1\AppData\Local\Temp\ccf145Mk.s:21829  .debug_str:0000000000006b28 .LASF3501
C:\Users\CYMR90~1\AppData\Local\Temp\ccf145Mk.s:30978  .debug_str:000000000002b5dd .LASF3502
C:\Users\CYMR90~1\AppData\Local\Temp\ccf145Mk.s:30804  .debug_str:000000000002ab00 .LASF3503
C:\Users\CYMR90~1\AppData\Local\Temp\ccf145Mk.s:24735  .debug_str:000000000001279e .LASF3504
C:\Users\CYMR90~1\AppData\Local\Temp\ccf145Mk.s:20261  .debug_str:0000000000000993 .LASF3505
C:\Users\CYMR90~1\AppData\Local\Temp\ccf145Mk.s:29826  .debug_str:0000000000026ccf .LASF3506
C:\Users\CYMR90~1\AppData\Local\Temp\ccf145Mk.s:24067  .debug_str:000000000000fc28 .LASF3507
C:\Users\CYMR90~1\AppData\Local\Temp\ccf145Mk.s:31280  .debug_str:000000000002c9b4 .LASF3508
C:\Users\CYMR90~1\AppData\Local\Temp\ccf145Mk.s:26348  .debug_str:0000000000018fe4 .LASF3509
C:\Users\CYMR90~1\AppData\Local\Temp\ccf145Mk.s:30914  .debug_str:000000000002b159 .LASF3510
C:\Users\CYMR90~1\AppData\Local\Temp\ccf145Mk.s:26390  .debug_str:0000000000019245 .LASF3511
C:\Users\CYMR90~1\AppData\Local\Temp\ccf145Mk.s:28654  .debug_str:00000000000221bf .LASF3512
C:\Users\CYMR90~1\AppData\Local\Temp\ccf145Mk.s:25113  .debug_str:0000000000013fd1 .LASF3513
C:\Users\CYMR90~1\AppData\Local\Temp\ccf145Mk.s:23251  .debug_str:000000000000c926 .LASF3514
C:\Users\CYMR90~1\AppData\Local\Temp\ccf145Mk.s:20875  .debug_str:0000000000002efe .LASF3515
C:\Users\CYMR90~1\AppData\Local\Temp\ccf145Mk.s:26706  .debug_str:000000000001a800 .LASF3516
C:\Users\CYMR90~1\AppData\Local\Temp\ccf145Mk.s:27914  .debug_str:000000000001f479 .LASF3517
C:\Users\CYMR90~1\AppData\Local\Temp\ccf145Mk.s:30610  .debug_str:0000000000029f4a .LASF3518
C:\Users\CYMR90~1\AppData\Local\Temp\ccf145Mk.s:23641  .debug_str:000000000000e138 .LASF3519
C:\Users\CYMR90~1\AppData\Local\Temp\ccf145Mk.s:28718  .debug_str:000000000002254e .LASF3520
C:\Users\CYMR90~1\AppData\Local\Temp\ccf145Mk.s:29394  .debug_str:0000000000024fe7 .LASF3521
C:\Users\CYMR90~1\AppData\Local\Temp\ccf145Mk.s:27514  .debug_str:000000000001dc7a .LASF3522
C:\Users\CYMR90~1\AppData\Local\Temp\ccf145Mk.s:27572  .debug_str:000000000001e029 .LASF3523
C:\Users\CYMR90~1\AppData\Local\Temp\ccf145Mk.s:26618  .debug_str:000000000001a0cb .LASF3524
C:\Users\CYMR90~1\AppData\Local\Temp\ccf145Mk.s:20163  .debug_str:00000000000003f2 .LASF3525
C:\Users\CYMR90~1\AppData\Local\Temp\ccf145Mk.s:25970  .debug_str:0000000000017764 .LASF3526
C:\Users\CYMR90~1\AppData\Local\Temp\ccf145Mk.s:29580  .debug_str:0000000000025db0 .LASF3527
C:\Users\CYMR90~1\AppData\Local\Temp\ccf145Mk.s:21411  .debug_str:00000000000051e3 .LASF3528
C:\Users\CYMR90~1\AppData\Local\Temp\ccf145Mk.s:20501  .debug_str:000000000000185d .LASF3529
C:\Users\CYMR90~1\AppData\Local\Temp\ccf145Mk.s:25517  .debug_str:0000000000015896 .LASF3530
C:\Users\CYMR90~1\AppData\Local\Temp\ccf145Mk.s:23969  .debug_str:000000000000f5bd .LASF3531
C:\Users\CYMR90~1\AppData\Local\Temp\ccf145Mk.s:22485  .debug_str:0000000000009632 .LASF3532
C:\Users\CYMR90~1\AppData\Local\Temp\ccf145Mk.s:27588  .debug_str:000000000001e114 .LASF3533
C:\Users\CYMR90~1\AppData\Local\Temp\ccf145Mk.s:20593  .debug_str:0000000000001dd6 .LASF3534
C:\Users\CYMR90~1\AppData\Local\Temp\ccf145Mk.s:27894  .debug_str:000000000001f360 .LASF3535
C:\Users\CYMR90~1\AppData\Local\Temp\ccf145Mk.s:22459  .debug_str:00000000000094a6 .LASF3536
C:\Users\CYMR90~1\AppData\Local\Temp\ccf145Mk.s:26090  .debug_str:0000000000017ec2 .LASF3537
C:\Users\CYMR90~1\AppData\Local\Temp\ccf145Mk.s:29684  .debug_str:0000000000026441 .LASF3538
C:\Users\CYMR90~1\AppData\Local\Temp\ccf145Mk.s:23607  .debug_str:000000000000df2c .LASF3539
C:\Users\CYMR90~1\AppData\Local\Temp\ccf145Mk.s:27650  .debug_str:000000000001e4d5 .LASF3540
C:\Users\CYMR90~1\AppData\Local\Temp\ccf145Mk.s:31176  .debug_str:000000000002c2b6 .LASF3541
C:\Users\CYMR90~1\AppData\Local\Temp\ccf145Mk.s:23917  .debug_str:000000000000f22d .LASF3542
C:\Users\CYMR90~1\AppData\Local\Temp\ccf145Mk.s:27938  .debug_str:000000000001f5e6 .LASF3543
C:\Users\CYMR90~1\AppData\Local\Temp\ccf145Mk.s:21279  .debug_str:00000000000049e9 .LASF3544
C:\Users\CYMR90~1\AppData\Local\Temp\ccf145Mk.s:27832  .debug_str:000000000001efa4 .LASF3545
C:\Users\CYMR90~1\AppData\Local\Temp\ccf145Mk.s:23617  .debug_str:000000000000dfcc .LASF3546
C:\Users\CYMR90~1\AppData\Local\Temp\ccf145Mk.s:30930  .debug_str:000000000002b29b .LASF3547
C:\Users\CYMR90~1\AppData\Local\Temp\ccf145Mk.s:28498  .debug_str:0000000000021851 .LASF3548
C:\Users\CYMR90~1\AppData\Local\Temp\ccf145Mk.s:25862  .debug_str:00000000000170e5 .LASF3549
C:\Users\CYMR90~1\AppData\Local\Temp\ccf145Mk.s:27384  .debug_str:000000000001d3f7 .LASF3550
C:\Users\CYMR90~1\AppData\Local\Temp\ccf145Mk.s:25912  .debug_str:00000000000173c0 .LASF3551
C:\Users\CYMR90~1\AppData\Local\Temp\ccf145Mk.s:29412  .debug_str:000000000002516f .LASF3552
C:\Users\CYMR90~1\AppData\Local\Temp\ccf145Mk.s:27538  .debug_str:000000000001de3a .LASF3553
C:\Users\CYMR90~1\AppData\Local\Temp\ccf145Mk.s:28472  .debug_str:00000000000216e2 .LASF3554
C:\Users\CYMR90~1\AppData\Local\Temp\ccf145Mk.s:24175  .debug_str:00000000000102f5 .LASF3555
C:\Users\CYMR90~1\AppData\Local\Temp\ccf145Mk.s:25309  .debug_str:0000000000014bfc .LASF3556
C:\Users\CYMR90~1\AppData\Local\Temp\ccf145Mk.s:31300  .debug_str:000000000002cb2a .LASF3557
C:\Users\CYMR90~1\AppData\Local\Temp\ccf145Mk.s:23343  .debug_str:000000000000ce98 .LASF3558
C:\Users\CYMR90~1\AppData\Local\Temp\ccf145Mk.s:26142  .debug_str:00000000000181cf .LASF3559
C:\Users\CYMR90~1\AppData\Local\Temp\ccf145Mk.s:22489  .debug_str:0000000000009664 .LASF3560
C:\Users\CYMR90~1\AppData\Local\Temp\ccf145Mk.s:29682  .debug_str:0000000000026424 .LASF3561
C:\Users\CYMR90~1\AppData\Local\Temp\ccf145Mk.s:30748  .debug_str:000000000002a7b3 .LASF3562
C:\Users\CYMR90~1\AppData\Local\Temp\ccf145Mk.s:23041  .debug_str:000000000000bab6 .LASF3563
C:\Users\CYMR90~1\AppData\Local\Temp\ccf145Mk.s:30160  .debug_str:00000000000283dd .LASF3564
C:\Users\CYMR90~1\AppData\Local\Temp\ccf145Mk.s:27042  .debug_str:000000000001bccd .LASF3565
C:\Users\CYMR90~1\AppData\Local\Temp\ccf145Mk.s:30622  .debug_str:0000000000029fed .LASF3566
C:\Users\CYMR90~1\AppData\Local\Temp\ccf145Mk.s:20665  .debug_str:00000000000021c7 .LASF3567
C:\Users\CYMR90~1\AppData\Local\Temp\ccf145Mk.s:29740  .debug_str:00000000000267e0 .LASF3568
C:\Users\CYMR90~1\AppData\Local\Temp\ccf145Mk.s:26486  .debug_str:0000000000019901 .LASF3569
C:\Users\CYMR90~1\AppData\Local\Temp\ccf145Mk.s:26408  .debug_str:0000000000019379 .LASF3570
C:\Users\CYMR90~1\AppData\Local\Temp\ccf145Mk.s:26830  .debug_str:000000000001afe5 .LASF3571
C:\Users\CYMR90~1\AppData\Local\Temp\ccf145Mk.s:20673  .debug_str:0000000000002231 .LASF3572
C:\Users\CYMR90~1\AppData\Local\Temp\ccf145Mk.s:30082  .debug_str:0000000000027dd7 .LASF3573
C:\Users\CYMR90~1\AppData\Local\Temp\ccf145Mk.s:27474  .debug_str:000000000001d9bc .LASF3574
C:\Users\CYMR90~1\AppData\Local\Temp\ccf145Mk.s:29430  .debug_str:0000000000025340 .LASF3575
C:\Users\CYMR90~1\AppData\Local\Temp\ccf145Mk.s:28720  .debug_str:000000000002256a .LASF3576
C:\Users\CYMR90~1\AppData\Local\Temp\ccf145Mk.s:26072  .debug_str:0000000000017dce .LASF3577
C:\Users\CYMR90~1\AppData\Local\Temp\ccf145Mk.s:31128  .debug_str:000000000002bfc9 .LASF3578
C:\Users\CYMR90~1\AppData\Local\Temp\ccf145Mk.s:30870  .debug_str:000000000002aeeb .LASF3579
C:\Users\CYMR90~1\AppData\Local\Temp\ccf145Mk.s:20221  .debug_str:000000000000073b .LASF3580
C:\Users\CYMR90~1\AppData\Local\Temp\ccf145Mk.s:23835  .debug_str:000000000000ecf0 .LASF3581
C:\Users\CYMR90~1\AppData\Local\Temp\ccf145Mk.s:25217  .debug_str:0000000000014677 .LASF3582
C:\Users\CYMR90~1\AppData\Local\Temp\ccf145Mk.s:29036  .debug_str:000000000002388e .LASF3583
C:\Users\CYMR90~1\AppData\Local\Temp\ccf145Mk.s:26664  .debug_str:000000000001a4e6 .LASF3584
C:\Users\CYMR90~1\AppData\Local\Temp\ccf145Mk.s:25806  .debug_str:0000000000016dcc .LASF3585
C:\Users\CYMR90~1\AppData\Local\Temp\ccf145Mk.s:26254  .debug_str:00000000000188a0 .LASF3586
C:\Users\CYMR90~1\AppData\Local\Temp\ccf145Mk.s:30694  .debug_str:000000000002a42b .LASF3587
C:\Users\CYMR90~1\AppData\Local\Temp\ccf145Mk.s:23393  .debug_str:000000000000d1ec .LASF3588
C:\Users\CYMR90~1\AppData\Local\Temp\ccf145Mk.s:20327  .debug_str:0000000000000dae .LASF3589
C:\Users\CYMR90~1\AppData\Local\Temp\ccf145Mk.s:25193  .debug_str:00000000000144b6 .LASF3590
C:\Users\CYMR90~1\AppData\Local\Temp\ccf145Mk.s:25283  .debug_str:0000000000014a6c .LASF3591
C:\Users\CYMR90~1\AppData\Local\Temp\ccf145Mk.s:27618  .debug_str:000000000001e2db .LASF3592
C:\Users\CYMR90~1\AppData\Local\Temp\ccf145Mk.s:30492  .debug_str:0000000000029894 .LASF3593
C:\Users\CYMR90~1\AppData\Local\Temp\ccf145Mk.s:20807  .debug_str:0000000000002afd .LASF3594
C:\Users\CYMR90~1\AppData\Local\Temp\ccf145Mk.s:27814  .debug_str:000000000001ee4c .LASF3595
C:\Users\CYMR90~1\AppData\Local\Temp\ccf145Mk.s:22613  .debug_str:0000000000009e6a .LASF3596
C:\Users\CYMR90~1\AppData\Local\Temp\ccf145Mk.s:20929  .debug_str:0000000000003298 .LASF3597
C:\Users\CYMR90~1\AppData\Local\Temp\ccf145Mk.s:22859  .debug_str:000000000000af20 .LASF3598
C:\Users\CYMR90~1\AppData\Local\Temp\ccf145Mk.s:21795  .debug_str:00000000000068ea .LASF3599
C:\Users\CYMR90~1\AppData\Local\Temp\ccf145Mk.s:29352  .debug_str:0000000000024d36 .LASF3600
C:\Users\CYMR90~1\AppData\Local\Temp\ccf145Mk.s:26726  .debug_str:000000000001a935 .LASF3601
C:\Users\CYMR90~1\AppData\Local\Temp\ccf145Mk.s:26588  .debug_str:0000000000019f22 .LASF3602
C:\Users\CYMR90~1\AppData\Local\Temp\ccf145Mk.s:21753  .debug_str:000000000000665e .LASF3603
C:\Users\CYMR90~1\AppData\Local\Temp\ccf145Mk.s:23713  .debug_str:000000000000e5cc .LASF3604
C:\Users\CYMR90~1\AppData\Local\Temp\ccf145Mk.s:23555  .debug_str:000000000000dbfc .LASF3605
C:\Users\CYMR90~1\AppData\Local\Temp\ccf145Mk.s:22183  .debug_str:000000000000833f .LASF3606
C:\Users\CYMR90~1\AppData\Local\Temp\ccf145Mk.s:22373  .debug_str:0000000000008f30 .LASF3607
C:\Users\CYMR90~1\AppData\Local\Temp\ccf145Mk.s:22959  .debug_str:000000000000b565 .LASF3608
C:\Users\CYMR90~1\AppData\Local\Temp\ccf145Mk.s:20955  .debug_str:0000000000003441 .LASF3609
C:\Users\CYMR90~1\AppData\Local\Temp\ccf145Mk.s:22303  .debug_str:0000000000008ab7 .LASF3610
C:\Users\CYMR90~1\AppData\Local\Temp\ccf145Mk.s:20145  .debug_str:00000000000002d7 .LASF3611
C:\Users\CYMR90~1\AppData\Local\Temp\ccf145Mk.s:25856  .debug_str:00000000000170ad .LASF3612
C:\Users\CYMR90~1\AppData\Local\Temp\ccf145Mk.s:23117  .debug_str:000000000000c03f .LASF3613
C:\Users\CYMR90~1\AppData\Local\Temp\ccf145Mk.s:28974  .debug_str:000000000002347d .LASF3614
C:\Users\CYMR90~1\AppData\Local\Temp\ccf145Mk.s:31048  .debug_str:000000000002ba4a .LASF3615
C:\Users\CYMR90~1\AppData\Local\Temp\ccf145Mk.s:24669  .debug_str:000000000001235d .LASF3616
C:\Users\CYMR90~1\AppData\Local\Temp\ccf145Mk.s:24525  .debug_str:0000000000011a4f .LASF3617
C:\Users\CYMR90~1\AppData\Local\Temp\ccf145Mk.s:26844  .debug_str:000000000001b0f7 .LASF3618
C:\Users\CYMR90~1\AppData\Local\Temp\ccf145Mk.s:28986  .debug_str:000000000002356d .LASF3619
C:\Users\CYMR90~1\AppData\Local\Temp\ccf145Mk.s:30424  .debug_str:000000000002944e .LASF3620
C:\Users\CYMR90~1\AppData\Local\Temp\ccf145Mk.s:26502  .debug_str:00000000000199f1 .LASF3621
C:\Users\CYMR90~1\AppData\Local\Temp\ccf145Mk.s:27798  .debug_str:000000000001ed32 .LASF3622
C:\Users\CYMR90~1\AppData\Local\Temp\ccf145Mk.s:28910  .debug_str:000000000002309d .LASF3623
C:\Users\CYMR90~1\AppData\Local\Temp\ccf145Mk.s:29768  .debug_str:000000000002698f .LASF3624
C:\Users\CYMR90~1\AppData\Local\Temp\ccf145Mk.s:20319  .debug_str:0000000000000d4a .LASF3625
C:\Users\CYMR90~1\AppData\Local\Temp\ccf145Mk.s:23781  .debug_str:000000000000ea18 .LASF3626
C:\Users\CYMR90~1\AppData\Local\Temp\ccf145Mk.s:31124  .debug_str:000000000002bf98 .LASF3627
C:\Users\CYMR90~1\AppData\Local\Temp\ccf145Mk.s:29908  .debug_str:00000000000271d4 .LASF3628
C:\Users\CYMR90~1\AppData\Local\Temp\ccf145Mk.s:20793  .debug_str:00000000000029cd .LASF3629
C:\Users\CYMR90~1\AppData\Local\Temp\ccf145Mk.s:20475  .debug_str:000000000000169e .LASF3630
C:\Users\CYMR90~1\AppData\Local\Temp\ccf145Mk.s:21911  .debug_str:00000000000070cc .LASF3631
C:\Users\CYMR90~1\AppData\Local\Temp\ccf145Mk.s:23315  .debug_str:000000000000cc97 .LASF3632
C:\Users\CYMR90~1\AppData\Local\Temp\ccf145Mk.s:21657  .debug_str:0000000000006080 .LASF3633
C:\Users\CYMR90~1\AppData\Local\Temp\ccf145Mk.s:28360  .debug_str:0000000000020f9b .LASF3634
C:\Users\CYMR90~1\AppData\Local\Temp\ccf145Mk.s:28626  .debug_str:0000000000021ffc .LASF3635
C:\Users\CYMR90~1\AppData\Local\Temp\ccf145Mk.s:22467  .debug_str:0000000000009527 .LASF3636
C:\Users\CYMR90~1\AppData\Local\Temp\ccf145Mk.s:29032  .debug_str:0000000000023860 .LASF3637
C:\Users\CYMR90~1\AppData\Local\Temp\ccf145Mk.s:31248  .debug_str:000000000002c786 .LASF3638
C:\Users\CYMR90~1\AppData\Local\Temp\ccf145Mk.s:24109  .debug_str:000000000000fef1 .LASF3639
C:\Users\CYMR90~1\AppData\Local\Temp\ccf145Mk.s:23605  .debug_str:000000000000df13 .LASF3640
C:\Users\CYMR90~1\AppData\Local\Temp\ccf145Mk.s:27742  .debug_str:000000000001ea44 .LASF3641
C:\Users\CYMR90~1\AppData\Local\Temp\ccf145Mk.s:21243  .debug_str:0000000000004734 .LASF3642
C:\Users\CYMR90~1\AppData\Local\Temp\ccf145Mk.s:20545  .debug_str:0000000000001aeb .LASF3643
C:\Users\CYMR90~1\AppData\Local\Temp\ccf145Mk.s:22551  .debug_str:0000000000009aa3 .LASF3644
C:\Users\CYMR90~1\AppData\Local\Temp\ccf145Mk.s:28886  .debug_str:0000000000022f8a .LASF3645
C:\Users\CYMR90~1\AppData\Local\Temp\ccf145Mk.s:24557  .debug_str:0000000000011c4c .LASF3646
C:\Users\CYMR90~1\AppData\Local\Temp\ccf145Mk.s:25093  .debug_str:0000000000013eb3 .LASF3647
C:\Users\CYMR90~1\AppData\Local\Temp\ccf145Mk.s:22431  .debug_str:000000000000929e .LASF3648
C:\Users\CYMR90~1\AppData\Local\Temp\ccf145Mk.s:26744  .debug_str:000000000001aa5c .LASF3649
C:\Users\CYMR90~1\AppData\Local\Temp\ccf145Mk.s:26330  .debug_str:0000000000018dea .LASF3650
C:\Users\CYMR90~1\AppData\Local\Temp\ccf145Mk.s:30280  .debug_str:0000000000028bd3 .LASF3651
C:\Users\CYMR90~1\AppData\Local\Temp\ccf145Mk.s:26012  .debug_str:0000000000017a27 .LASF3652
C:\Users\CYMR90~1\AppData\Local\Temp\ccf145Mk.s:30200  .debug_str:000000000002867d .LASF3653
C:\Users\CYMR90~1\AppData\Local\Temp\ccf145Mk.s:23615  .debug_str:000000000000dfad .LASF3654
C:\Users\CYMR90~1\AppData\Local\Temp\ccf145Mk.s:22099  .debug_str:0000000000007d2d .LASF3655
C:\Users\CYMR90~1\AppData\Local\Temp\ccf145Mk.s:31184  .debug_str:000000000002c368 .LASF3656
C:\Users\CYMR90~1\AppData\Local\Temp\ccf145Mk.s:25407  .debug_str:0000000000015262 .LASF3657
C:\Users\CYMR90~1\AppData\Local\Temp\ccf145Mk.s:27118  .debug_str:000000000001c17a .LASF3658
C:\Users\CYMR90~1\AppData\Local\Temp\ccf145Mk.s:26560  .debug_str:0000000000019d61 .LASF3659
C:\Users\CYMR90~1\AppData\Local\Temp\ccf145Mk.s:29176  .debug_str:0000000000024172 .LASF3660
C:\Users\CYMR90~1\AppData\Local\Temp\ccf145Mk.s:28410  .debug_str:0000000000021301 .LASF3661
C:\Users\CYMR90~1\AppData\Local\Temp\ccf145Mk.s:22989  .debug_str:000000000000b76b .LASF3662
C:\Users\CYMR90~1\AppData\Local\Temp\ccf145Mk.s:26610  .debug_str:000000000001a05b .LASF3663
C:\Users\CYMR90~1\AppData\Local\Temp\ccf145Mk.s:20113  .debug_str:00000000000000dc .LASF3664
C:\Users\CYMR90~1\AppData\Local\Temp\ccf145Mk.s:24519  .debug_str:000000000001195a .LASF3665
C:\Users\CYMR90~1\AppData\Local\Temp\ccf145Mk.s:28450  .debug_str:0000000000021568 .LASF3666
C:\Users\CYMR90~1\AppData\Local\Temp\ccf145Mk.s:28716  .debug_str:0000000000022529 .LASF3667
C:\Users\CYMR90~1\AppData\Local\Temp\ccf145Mk.s:25591  .debug_str:0000000000015d93 .LASF3668
C:\Users\CYMR90~1\AppData\Local\Temp\ccf145Mk.s:30554  .debug_str:0000000000029c13 .LASF3669
C:\Users\CYMR90~1\AppData\Local\Temp\ccf145Mk.s:23221  .debug_str:000000000000c6ac .LASF3670
C:\Users\CYMR90~1\AppData\Local\Temp\ccf145Mk.s:24699  .debug_str:0000000000012554 .LASF3671
C:\Users\CYMR90~1\AppData\Local\Temp\ccf145Mk.s:29010  .debug_str:0000000000023706 .LASF3672
C:\Users\CYMR90~1\AppData\Local\Temp\ccf145Mk.s:29446  .debug_str:0000000000025431 .LASF3673
C:\Users\CYMR90~1\AppData\Local\Temp\ccf145Mk.s:24559  .debug_str:0000000000011c61 .LASF3674
C:\Users\CYMR90~1\AppData\Local\Temp\ccf145Mk.s:24919  .debug_str:0000000000013431 .LASF3675
C:\Users\CYMR90~1\AppData\Local\Temp\ccf145Mk.s:20569  .debug_str:0000000000001c3b .LASF3676
C:\Users\CYMR90~1\AppData\Local\Temp\ccf145Mk.s:21879  .debug_str:0000000000006e5b .LASF3677
C:\Users\CYMR90~1\AppData\Local\Temp\ccf145Mk.s:31004  .debug_str:000000000002b748 .LASF3678
C:\Users\CYMR90~1\AppData\Local\Temp\ccf145Mk.s:25621  .debug_str:0000000000015fcc .LASF3679
C:\Users\CYMR90~1\AppData\Local\Temp\ccf145Mk.s:26420  .debug_str:0000000000019432 .LASF3680
C:\Users\CYMR90~1\AppData\Local\Temp\ccf145Mk.s:23115  .debug_str:000000000000c01a .LASF3681
C:\Users\CYMR90~1\AppData\Local\Temp\ccf145Mk.s:24765  .debug_str:00000000000129a7 .LASF3682
C:\Users\CYMR90~1\AppData\Local\Temp\ccf145Mk.s:20345  .debug_str:0000000000000f29 .LASF3683
C:\Users\CYMR90~1\AppData\Local\Temp\ccf145Mk.s:26690  .debug_str:000000000001a6a3 .LASF3684
C:\Users\CYMR90~1\AppData\Local\Temp\ccf145Mk.s:21159  .debug_str:000000000000418d .LASF3685
C:\Users\CYMR90~1\AppData\Local\Temp\ccf145Mk.s:26932  .debug_str:000000000001b646 .LASF3686
C:\Users\CYMR90~1\AppData\Local\Temp\ccf145Mk.s:21433  .debug_str:000000000000532b .LASF3687
C:\Users\CYMR90~1\AppData\Local\Temp\ccf145Mk.s:22535  .debug_str:000000000000998e .LASF3688
C:\Users\CYMR90~1\AppData\Local\Temp\ccf145Mk.s:21701  .debug_str:000000000000631a .LASF3689
C:\Users\CYMR90~1\AppData\Local\Temp\ccf145Mk.s:27434  .debug_str:000000000001d721 .LASF3690
C:\Users\CYMR90~1\AppData\Local\Temp\ccf145Mk.s:29932  .debug_str:000000000002742d .LASF3691
C:\Users\CYMR90~1\AppData\Local\Temp\ccf145Mk.s:28648  .debug_str:0000000000022147 .LASF3692
C:\Users\CYMR90~1\AppData\Local\Temp\ccf145Mk.s:21737  .debug_str:000000000000652c .LASF3693
C:\Users\CYMR90~1\AppData\Local\Temp\ccf145Mk.s:30564  .debug_str:0000000000029cc0 .LASF3694
C:\Users\CYMR90~1\AppData\Local\Temp\ccf145Mk.s:27890  .debug_str:000000000001f326 .LASF3695
C:\Users\CYMR90~1\AppData\Local\Temp\ccf145Mk.s:23807  .debug_str:000000000000eb83 .LASF3696
C:\Users\CYMR90~1\AppData\Local\Temp\ccf145Mk.s:22811  .debug_str:000000000000ab5d .LASF3697
C:\Users\CYMR90~1\AppData\Local\Temp\ccf145Mk.s:20203  .debug_str:0000000000000609 .LASF3698
C:\Users\CYMR90~1\AppData\Local\Temp\ccf145Mk.s:24053  .debug_str:000000000000fb4e .LASF3699
C:\Users\CYMR90~1\AppData\Local\Temp\ccf145Mk.s:22997  .debug_str:000000000000b7e2 .LASF3700
C:\Users\CYMR90~1\AppData\Local\Temp\ccf145Mk.s:23761  .debug_str:000000000000e8e2 .LASF3701
C:\Users\CYMR90~1\AppData\Local\Temp\ccf145Mk.s:21917  .debug_str:0000000000007135 .LASF3702
C:\Users\CYMR90~1\AppData\Local\Temp\ccf145Mk.s:29998  .debug_str:00000000000277f3 .LASF3703
C:\Users\CYMR90~1\AppData\Local\Temp\ccf145Mk.s:27356  .debug_str:000000000001d21e .LASF3704
C:\Users\CYMR90~1\AppData\Local\Temp\ccf145Mk.s:24863  .debug_str:0000000000013008 .LASF3705
C:\Users\CYMR90~1\AppData\Local\Temp\ccf145Mk.s:26946  .debug_str:000000000001b726 .LASF3706
C:\Users\CYMR90~1\AppData\Local\Temp\ccf145Mk.s:30966  .debug_str:000000000002b4f4 .LASF3707
C:\Users\CYMR90~1\AppData\Local\Temp\ccf145Mk.s:24193  .debug_str:00000000000103f9 .LASF3708
C:\Users\CYMR90~1\AppData\Local\Temp\ccf145Mk.s:30228  .debug_str:000000000002889f .LASF3709
C:\Users\CYMR90~1\AppData\Local\Temp\ccf145Mk.s:23201  .debug_str:000000000000c577 .LASF3710
C:\Users\CYMR90~1\AppData\Local\Temp\ccf145Mk.s:20649  .debug_str:00000000000020b4 .LASF3711
C:\Users\CYMR90~1\AppData\Local\Temp\ccf145Mk.s:24171  .debug_str:00000000000102b7 .LASF3712
C:\Users\CYMR90~1\AppData\Local\Temp\ccf145Mk.s:24091  .debug_str:000000000000fdc1 .LASF3713
C:\Users\CYMR90~1\AppData\Local\Temp\ccf145Mk.s:24307  .debug_str:0000000000010ba5 .LASF3714
C:\Users\CYMR90~1\AppData\Local\Temp\ccf145Mk.s:28628  .debug_str:0000000000022014 .LASF3715
C:\Users\CYMR90~1\AppData\Local\Temp\ccf145Mk.s:24981  .debug_str:00000000000137f7 .LASF3716
C:\Users\CYMR90~1\AppData\Local\Temp\ccf145Mk.s:22089  .debug_str:0000000000007c98 .LASF3717
C:\Users\CYMR90~1\AppData\Local\Temp\ccf145Mk.s:28862  .debug_str:0000000000022e19 .LASF3718
C:\Users\CYMR90~1\AppData\Local\Temp\ccf145Mk.s:31006  .debug_str:000000000002b76c .LASF3719
C:\Users\CYMR90~1\AppData\Local\Temp\ccf145Mk.s:30538  .debug_str:0000000000029b1d .LASF3720
C:\Users\CYMR90~1\AppData\Local\Temp\ccf145Mk.s:27032  .debug_str:000000000001bc05 .LASF3721
C:\Users\CYMR90~1\AppData\Local\Temp\ccf145Mk.s:21883  .debug_str:0000000000006e9d .LASF3722
C:\Users\CYMR90~1\AppData\Local\Temp\ccf145Mk.s:21479  .debug_str:00000000000055da .LASF3723
C:\Users\CYMR90~1\AppData\Local\Temp\ccf145Mk.s:21973  .debug_str:0000000000007470 .LASF3724
C:\Users\CYMR90~1\AppData\Local\Temp\ccf145Mk.s:20947  .debug_str:00000000000033c6 .LASF3725
C:\Users\CYMR90~1\AppData\Local\Temp\ccf145Mk.s:29258  .debug_str:00000000000246e7 .LASF3726
C:\Users\CYMR90~1\AppData\Local\Temp\ccf145Mk.s:24119  .debug_str:000000000000ff6b .LASF3727
C:\Users\CYMR90~1\AppData\Local\Temp\ccf145Mk.s:22277  .debug_str:0000000000008920 .LASF3728
C:\Users\CYMR90~1\AppData\Local\Temp\ccf145Mk.s:22383  .debug_str:0000000000008fe3 .LASF3729
C:\Users\CYMR90~1\AppData\Local\Temp\ccf145Mk.s:28518  .debug_str:000000000002195c .LASF3730
C:\Users\CYMR90~1\AppData\Local\Temp\ccf145Mk.s:30472  .debug_str:0000000000029756 .LASF3731
C:\Users\CYMR90~1\AppData\Local\Temp\ccf145Mk.s:31336  .debug_str:000000000002cdb4 .LASF3732
C:\Users\CYMR90~1\AppData\Local\Temp\ccf145Mk.s:30366  .debug_str:00000000000290de .LASF3733
C:\Users\CYMR90~1\AppData\Local\Temp\ccf145Mk.s:20235  .debug_str:000000000000080e .LASF3734
C:\Users\CYMR90~1\AppData\Local\Temp\ccf145Mk.s:28808  .debug_str:0000000000022b14 .LASF3735
C:\Users\CYMR90~1\AppData\Local\Temp\ccf145Mk.s:25808  .debug_str:0000000000016de4 .LASF3736
C:\Users\CYMR90~1\AppData\Local\Temp\ccf145Mk.s:22819  .debug_str:000000000000abd1 .LASF3737
C:\Users\CYMR90~1\AppData\Local\Temp\ccf145Mk.s:23375  .debug_str:000000000000d0b0 .LASF3738
C:\Users\CYMR90~1\AppData\Local\Temp\ccf145Mk.s:21869  .debug_str:0000000000006dac .LASF3739
C:\Users\CYMR90~1\AppData\Local\Temp\ccf145Mk.s:25425  .debug_str:0000000000015347 .LASF3740
C:\Users\CYMR90~1\AppData\Local\Temp\ccf145Mk.s:23247  .debug_str:000000000000c8f6 .LASF3741
C:\Users\CYMR90~1\AppData\Local\Temp\ccf145Mk.s:28882  .debug_str:0000000000022f4b .LASF3742
C:\Users\CYMR90~1\AppData\Local\Temp\ccf145Mk.s:26842  .debug_str:000000000001b0b4 .LASF3743
C:\Users\CYMR90~1\AppData\Local\Temp\ccf145Mk.s:28816  .debug_str:0000000000022b94 .LASF3744
C:\Users\CYMR90~1\AppData\Local\Temp\ccf145Mk.s:29964  .debug_str:0000000000027609 .LASF3745
C:\Users\CYMR90~1\AppData\Local\Temp\ccf145Mk.s:23679  .debug_str:000000000000e37c .LASF3746
C:\Users\CYMR90~1\AppData\Local\Temp\ccf145Mk.s:27862  .debug_str:000000000001f142 .LASF3747
C:\Users\CYMR90~1\AppData\Local\Temp\ccf145Mk.s:22875  .debug_str:000000000000b015 .LASF3748
C:\Users\CYMR90~1\AppData\Local\Temp\ccf145Mk.s:25139  .debug_str:00000000000141cf .LASF3749
C:\Users\CYMR90~1\AppData\Local\Temp\ccf145Mk.s:26088  .debug_str:0000000000017ea0 .LASF3750
C:\Users\CYMR90~1\AppData\Local\Temp\ccf145Mk.s:29822  .debug_str:0000000000026c9c .LASF3751
C:\Users\CYMR90~1\AppData\Local\Temp\ccf145Mk.s:22659  .debug_str:000000000000a13a .LASF3752
C:\Users\CYMR90~1\AppData\Local\Temp\ccf145Mk.s:21401  .debug_str:0000000000005137 .LASF3753
C:\Users\CYMR90~1\AppData\Local\Temp\ccf145Mk.s:26388  .debug_str:0000000000019223 .LASF3754
C:\Users\CYMR90~1\AppData\Local\Temp\ccf145Mk.s:22919  .debug_str:000000000000b28f .LASF3755
C:\Users\CYMR90~1\AppData\Local\Temp\ccf145Mk.s:23649  .debug_str:000000000000e1bc .LASF3756
C:\Users\CYMR90~1\AppData\Local\Temp\ccf145Mk.s:31104  .debug_str:000000000002be09 .LASF3757
C:\Users\CYMR90~1\AppData\Local\Temp\ccf145Mk.s:30952  .debug_str:000000000002b40d .LASF3758
C:\Users\CYMR90~1\AppData\Local\Temp\ccf145Mk.s:23513  .debug_str:000000000000d997 .LASF3759
C:\Users\CYMR90~1\AppData\Local\Temp\ccf145Mk.s:21487  .debug_str:0000000000005649 .LASF3760
C:\Users\CYMR90~1\AppData\Local\Temp\ccf145Mk.s:30592  .debug_str:0000000000029e57 .LASF3761
C:\Users\CYMR90~1\AppData\Local\Temp\ccf145Mk.s:28320  .debug_str:0000000000020d6e .LASF3762
C:\Users\CYMR90~1\AppData\Local\Temp\ccf145Mk.s:21491  .debug_str:00000000000056a9 .LASF3763
C:\Users\CYMR90~1\AppData\Local\Temp\ccf145Mk.s:23869  .debug_str:000000000000eedf .LASF3764
C:\Users\CYMR90~1\AppData\Local\Temp\ccf145Mk.s:21583  .debug_str:0000000000005bef .LASF3765
C:\Users\CYMR90~1\AppData\Local\Temp\ccf145Mk.s:25025  .debug_str:0000000000013aab .LASF3766
C:\Users\CYMR90~1\AppData\Local\Temp\ccf145Mk.s:28510  .debug_str:00000000000218e2 .LASF3767
C:\Users\CYMR90~1\AppData\Local\Temp\ccf145Mk.s:29628  .debug_str:00000000000260d5 .LASF3768
C:\Users\CYMR90~1\AppData\Local\Temp\ccf145Mk.s:21313  .debug_str:0000000000004bff .LASF3769
C:\Users\CYMR90~1\AppData\Local\Temp\ccf145Mk.s:29096  .debug_str:0000000000023bf7 .LASF3770
C:\Users\CYMR90~1\AppData\Local\Temp\ccf145Mk.s:28240  .debug_str:00000000000208ac .LASF3771
C:\Users\CYMR90~1\AppData\Local\Temp\ccf145Mk.s:30746  .debug_str:000000000002a78f .LASF3772
C:\Users\CYMR90~1\AppData\Local\Temp\ccf145Mk.s:23783  .debug_str:000000000000ea30 .LASF3773
C:\Users\CYMR90~1\AppData\Local\Temp\ccf145Mk.s:21499  .debug_str:00000000000056ff .LASF3774
C:\Users\CYMR90~1\AppData\Local\Temp\ccf145Mk.s:23153  .debug_str:000000000000c27b .LASF3775
C:\Users\CYMR90~1\AppData\Local\Temp\ccf145Mk.s:28332  .debug_str:0000000000020e10 .LASF3776
C:\Users\CYMR90~1\AppData\Local\Temp\ccf145Mk.s:26192  .debug_str:00000000000184b7 .LASF3777
C:\Users\CYMR90~1\AppData\Local\Temp\ccf145Mk.s:27274  .debug_str:000000000001cbfc .LASF3778
C:\Users\CYMR90~1\AppData\Local\Temp\ccf145Mk.s:30340  .debug_str:0000000000028f53 .LASF3779
C:\Users\CYMR90~1\AppData\Local\Temp\ccf145Mk.s:28152  .debug_str:00000000000202d6 .LASF3780
C:\Users\CYMR90~1\AppData\Local\Temp\ccf145Mk.s:31274  .debug_str:000000000002c961 .LASF3781
C:\Users\CYMR90~1\AppData\Local\Temp\ccf145Mk.s:20987  .debug_str:0000000000003644 .LASF3782
C:\Users\CYMR90~1\AppData\Local\Temp\ccf145Mk.s:29428  .debug_str:0000000000025316 .LASF3783
C:\Users\CYMR90~1\AppData\Local\Temp\ccf145Mk.s:20363  .debug_str:000000000000100b .LASF3784
C:\Users\CYMR90~1\AppData\Local\Temp\ccf145Mk.s:27438  .debug_str:000000000001d768 .LASF3785
C:\Users\CYMR90~1\AppData\Local\Temp\ccf145Mk.s:24897  .debug_str:0000000000013218 .LASF3786
C:\Users\CYMR90~1\AppData\Local\Temp\ccf145Mk.s:31362  .debug_str:000000000002cf2f .LASF3787
C:\Users\CYMR90~1\AppData\Local\Temp\ccf145Mk.s:20781  .debug_str:0000000000002918 .LASF3788
C:\Users\CYMR90~1\AppData\Local\Temp\ccf145Mk.s:29880  .debug_str:0000000000027043 .LASF3789
C:\Users\CYMR90~1\AppData\Local\Temp\ccf145Mk.s:24751  .debug_str:00000000000128a3 .LASF3790
C:\Users\CYMR90~1\AppData\Local\Temp\ccf145Mk.s:28144  .debug_str:000000000002021c .LASF3791
C:\Users\CYMR90~1\AppData\Local\Temp\ccf145Mk.s:28284  .debug_str:0000000000020b55 .LASF3792
C:\Users\CYMR90~1\AppData\Local\Temp\ccf145Mk.s:20317  .debug_str:0000000000000d28 .LASF3793
C:\Users\CYMR90~1\AppData\Local\Temp\ccf145Mk.s:27500  .debug_str:000000000001db2a .LASF3794
C:\Users\CYMR90~1\AppData\Local\Temp\ccf145Mk.s:20419  .debug_str:0000000000001338 .LASF3795
C:\Users\CYMR90~1\AppData\Local\Temp\ccf145Mk.s:30130  .debug_str:0000000000028122 .LASF3796
C:\Users\CYMR90~1\AppData\Local\Temp\ccf145Mk.s:24655  .debug_str:0000000000012250 .LASF3797
C:\Users\CYMR90~1\AppData\Local\Temp\ccf145Mk.s:27638  .debug_str:000000000001e3f6 .LASF3798
C:\Users\CYMR90~1\AppData\Local\Temp\ccf145Mk.s:26558  .debug_str:0000000000019d31 .LASF3799
C:\Users\CYMR90~1\AppData\Local\Temp\ccf145Mk.s:25317  .debug_str:0000000000014c9d .LASF3800
C:\Users\CYMR90~1\AppData\Local\Temp\ccf145Mk.s:24141  .debug_str:00000000000100f6 .LASF3801
C:\Users\CYMR90~1\AppData\Local\Temp\ccf145Mk.s:30994  .debug_str:000000000002b69d .LASF3802
C:\Users\CYMR90~1\AppData\Local\Temp\ccf145Mk.s:29340  .debug_str:0000000000024c5b .LASF3803
C:\Users\CYMR90~1\AppData\Local\Temp\ccf145Mk.s:20531  .debug_str:00000000000019e3 .LASF3804
C:\Users\CYMR90~1\AppData\Local\Temp\ccf145Mk.s:30118  .debug_str:0000000000027ffe .LASF3805
C:\Users\CYMR90~1\AppData\Local\Temp\ccf145Mk.s:30358  .debug_str:0000000000029045 .LASF3806
C:\Users\CYMR90~1\AppData\Local\Temp\ccf145Mk.s:23333  .debug_str:000000000000cdd0 .LASF3807
C:\Users\CYMR90~1\AppData\Local\Temp\ccf145Mk.s:31222  .debug_str:000000000002c5ff .LASF3808
C:\Users\CYMR90~1\AppData\Local\Temp\ccf145Mk.s:22763  .debug_str:000000000000a854 .LASF3809
C:\Users\CYMR90~1\AppData\Local\Temp\ccf145Mk.s:29356  .debug_str:0000000000024d70 .LASF3810
C:\Users\CYMR90~1\AppData\Local\Temp\ccf145Mk.s:22617  .debug_str:0000000000009e97 .LASF3811
C:\Users\CYMR90~1\AppData\Local\Temp\ccf145Mk.s:28394  .debug_str:0000000000021172 .LASF3812
C:\Users\CYMR90~1\AppData\Local\Temp\ccf145Mk.s:25541  .debug_str:0000000000015a05 .LASF3813
C:\Users\CYMR90~1\AppData\Local\Temp\ccf145Mk.s:26578  .debug_str:0000000000019e77 .LASF3814
C:\Users\CYMR90~1\AppData\Local\Temp\ccf145Mk.s:23433  .debug_str:000000000000d4d7 .LASF3815
C:\Users\CYMR90~1\AppData\Local\Temp\ccf145Mk.s:21537  .debug_str:0000000000005931 .LASF3816
C:\Users\CYMR90~1\AppData\Local\Temp\ccf145Mk.s:30038  .debug_str:0000000000027a71 .LASF3817
C:\Users\CYMR90~1\AppData\Local\Temp\ccf145Mk.s:23911  .debug_str:000000000000f1bf .LASF3818
C:\Users\CYMR90~1\AppData\Local\Temp\ccf145Mk.s:23111  .debug_str:000000000000bfb8 .LASF3819
C:\Users\CYMR90~1\AppData\Local\Temp\ccf145Mk.s:28990  .debug_str:00000000000235a2 .LASF3820
C:\Users\CYMR90~1\AppData\Local\Temp\ccf145Mk.s:20265  .debug_str:00000000000009de .LASF3821
C:\Users\CYMR90~1\AppData\Local\Temp\ccf145Mk.s:24555  .debug_str:0000000000011c1a .LASF3822
C:\Users\CYMR90~1\AppData\Local\Temp\ccf145Mk.s:28812  .debug_str:0000000000022b50 .LASF3823
C:\Users\CYMR90~1\AppData\Local\Temp\ccf145Mk.s:21683  .debug_str:00000000000061f2 .LASF3824
C:\Users\CYMR90~1\AppData\Local\Temp\ccf145Mk.s:23035  .debug_str:000000000000ba5b .LASF3825
C:\Users\CYMR90~1\AppData\Local\Temp\ccf145Mk.s:24131  .debug_str:000000000001004d .LASF3826
C:\Users\CYMR90~1\AppData\Local\Temp\ccf145Mk.s:28370  .debug_str:0000000000021008 .LASF3827
C:\Users\CYMR90~1\AppData\Local\Temp\ccf145Mk.s:21323  .debug_str:0000000000004ca9 .LASF3828
C:\Users\CYMR90~1\AppData\Local\Temp\ccf145Mk.s:25523  .debug_str:00000000000158de .LASF3829
C:\Users\CYMR90~1\AppData\Local\Temp\ccf145Mk.s:29840  .debug_str:0000000000026dac .LASF3830
C:\Users\CYMR90~1\AppData\Local\Temp\ccf145Mk.s:22807  .debug_str:000000000000ab11 .LASF3831
C:\Users\CYMR90~1\AppData\Local\Temp\ccf145Mk.s:25115  .debug_str:0000000000013fec .LASF3832
C:\Users\CYMR90~1\AppData\Local\Temp\ccf145Mk.s:27528  .debug_str:000000000001dd6b .LASF3833
C:\Users\CYMR90~1\AppData\Local\Temp\ccf145Mk.s:23311  .debug_str:000000000000cc49 .LASF3834
C:\Users\CYMR90~1\AppData\Local\Temp\ccf145Mk.s:28556  .debug_str:0000000000021be1 .LASF3835
C:\Users\CYMR90~1\AppData\Local\Temp\ccf145Mk.s:21533  .debug_str:00000000000058d9 .LASF3836
C:\Users\CYMR90~1\AppData\Local\Temp\ccf145Mk.s:30950  .debug_str:000000000002b3db .LASF3837
C:\Users\CYMR90~1\AppData\Local\Temp\ccf145Mk.s:23905  .debug_str:000000000000f13c .LASF3838
C:\Users\CYMR90~1\AppData\Local\Temp\ccf145Mk.s:28054  .debug_str:000000000001fcf1 .LASF3839
C:\Users\CYMR90~1\AppData\Local\Temp\ccf145Mk.s:21031  .debug_str:0000000000003925 .LASF3840
C:\Users\CYMR90~1\AppData\Local\Temp\ccf145Mk.s:23983  .debug_str:000000000000f72c .LASF3841
C:\Users\CYMR90~1\AppData\Local\Temp\ccf145Mk.s:29132  .debug_str:0000000000023e46 .LASF3842
C:\Users\CYMR90~1\AppData\Local\Temp\ccf145Mk.s:22501  .debug_str:0000000000009766 .LASF3843
C:\Users\CYMR90~1\AppData\Local\Temp\ccf145Mk.s:26800  .debug_str:000000000001adb1 .LASF3844
C:\Users\CYMR90~1\AppData\Local\Temp\ccf145Mk.s:21129  .debug_str:0000000000003f32 .LASF3845
C:\Users\CYMR90~1\AppData\Local\Temp\ccf145Mk.s:29174  .debug_str:0000000000024140 .LASF3846
C:\Users\CYMR90~1\AppData\Local\Temp\ccf145Mk.s:22143  .debug_str:00000000000080a6 .LASF3847
C:\Users\CYMR90~1\AppData\Local\Temp\ccf145Mk.s:23751  .debug_str:000000000000e80e .LASF3848
C:\Users\CYMR90~1\AppData\Local\Temp\ccf145Mk.s:30628  .debug_str:000000000002a043 .LASF3849
C:\Users\CYMR90~1\AppData\Local\Temp\ccf145Mk.s:21971  .debug_str:000000000000743e .LASF3850
C:\Users\CYMR90~1\AppData\Local\Temp\ccf145Mk.s:27922  .debug_str:000000000001f4e0 .LASF3851
C:\Users\CYMR90~1\AppData\Local\Temp\ccf145Mk.s:20743  .debug_str:000000000000269a .LASF3852
C:\Users\CYMR90~1\AppData\Local\Temp\ccf145Mk.s:26122  .debug_str:000000000001809c .LASF3853
C:\Users\CYMR90~1\AppData\Local\Temp\ccf145Mk.s:29306  .debug_str:0000000000024a2b .LASF3854
C:\Users\CYMR90~1\AppData\Local\Temp\ccf145Mk.s:22151  .debug_str:0000000000008123 .LASF3855
C:\Users\CYMR90~1\AppData\Local\Temp\ccf145Mk.s:29584  .debug_str:0000000000025def .LASF3856
C:\Users\CYMR90~1\AppData\Local\Temp\ccf145Mk.s:24697  .debug_str:0000000000012522 .LASF3857
C:\Users\CYMR90~1\AppData\Local\Temp\ccf145Mk.s:28868  .debug_str:0000000000022e74 .LASF3858
C:\Users\CYMR90~1\AppData\Local\Temp\ccf145Mk.s:21821  .debug_str:0000000000006a95 .LASF3859
C:\Users\CYMR90~1\AppData\Local\Temp\ccf145Mk.s:24741  .debug_str:00000000000127e3 .LASF3860
C:\Users\CYMR90~1\AppData\Local\Temp\ccf145Mk.s:28056  .debug_str:000000000001fd23 .LASF3861
C:\Users\CYMR90~1\AppData\Local\Temp\ccf145Mk.s:24661  .debug_str:00000000000122dd .LASF3862
C:\Users\CYMR90~1\AppData\Local\Temp\ccf145Mk.s:29620  .debug_str:000000000002605f .LASF3863
C:\Users\CYMR90~1\AppData\Local\Temp\ccf145Mk.s:21019  .debug_str:0000000000003838 .LASF3864
C:\Users\CYMR90~1\AppData\Local\Temp\ccf145Mk.s:29558  .debug_str:0000000000025c67 .LASF3865
C:\Users\CYMR90~1\AppData\Local\Temp\ccf145Mk.s:23697  .debug_str:000000000000e491 .LASF3866
C:\Users\CYMR90~1\AppData\Local\Temp\ccf145Mk.s:29182  .debug_str:00000000000241e9 .LASF3867
C:\Users\CYMR90~1\AppData\Local\Temp\ccf145Mk.s:25537  .debug_str:00000000000159b4 .LASF3868
C:\Users\CYMR90~1\AppData\Local\Temp\ccf145Mk.s:25968  .debug_str:0000000000017742 .LASF3869
C:\Users\CYMR90~1\AppData\Local\Temp\ccf145Mk.s:22987  .debug_str:000000000000b749 .LASF3870
C:\Users\CYMR90~1\AppData\Local\Temp\ccf145Mk.s:25325  .debug_str:0000000000014d26 .LASF3871
C:\Users\CYMR90~1\AppData\Local\Temp\ccf145Mk.s:28262  .debug_str:00000000000209ea .LASF3872
C:\Users\CYMR90~1\AppData\Local\Temp\ccf145Mk.s:25349  .debug_str:0000000000014edb .LASF3873
C:\Users\CYMR90~1\AppData\Local\Temp\ccf145Mk.s:29652  .debug_str:000000000002627b .LASF3874
C:\Users\CYMR90~1\AppData\Local\Temp\ccf145Mk.s:26412  .debug_str:00000000000193a8 .LASF3875
C:\Users\CYMR90~1\AppData\Local\Temp\ccf145Mk.s:24407  .debug_str:00000000000111d4 .LASF3876
C:\Users\CYMR90~1\AppData\Local\Temp\ccf145Mk.s:22065  .debug_str:0000000000007a60 .LASF3877
C:\Users\CYMR90~1\AppData\Local\Temp\ccf145Mk.s:20431  .debug_str:0000000000001405 .LASF3878
C:\Users\CYMR90~1\AppData\Local\Temp\ccf145Mk.s:24049  .debug_str:000000000000fb08 .LASF3879
C:\Users\CYMR90~1\AppData\Local\Temp\ccf145Mk.s:24975  .debug_str:00000000000137b6 .LASF3880
C:\Users\CYMR90~1\AppData\Local\Temp\ccf145Mk.s:21457  .debug_str:00000000000054ad .LASF3881
C:\Users\CYMR90~1\AppData\Local\Temp\ccf145Mk.s:26222  .debug_str:0000000000018667 .LASF3882
C:\Users\CYMR90~1\AppData\Local\Temp\ccf145Mk.s:23591  .debug_str:000000000000de4e .LASF3883
C:\Users\CYMR90~1\AppData\Local\Temp\ccf145Mk.s:22625  .debug_str:0000000000009f31 .LASF3884
C:\Users\CYMR90~1\AppData\Local\Temp\ccf145Mk.s:24085  .debug_str:000000000000fd53 .LASF3885
C:\Users\CYMR90~1\AppData\Local\Temp\ccf145Mk.s:25934  .debug_str:0000000000017531 .LASF3886
C:\Users\CYMR90~1\AppData\Local\Temp\ccf145Mk.s:25385  .debug_str:00000000000150fe .LASF3887
C:\Users\CYMR90~1\AppData\Local\Temp\ccf145Mk.s:24779  .debug_str:0000000000012ab2 .LASF3888
C:\Users\CYMR90~1\AppData\Local\Temp\ccf145Mk.s:27112  .debug_str:000000000001c130 .LASF3889
C:\Users\CYMR90~1\AppData\Local\Temp\ccf145Mk.s:23701  .debug_str:000000000000e510 .LASF3890
C:\Users\CYMR90~1\AppData\Local\Temp\ccf145Mk.s:20301  .debug_str:0000000000000c4c .LASF3891
C:\Users\CYMR90~1\AppData\Local\Temp\ccf145Mk.s:30364  .debug_str:00000000000290ba .LASF3892
C:\Users\CYMR90~1\AppData\Local\Temp\ccf145Mk.s:24845  .debug_str:0000000000012ecd .LASF3893
C:\Users\CYMR90~1\AppData\Local\Temp\ccf145Mk.s:27450  .debug_str:000000000001d823 .LASF3894
C:\Users\CYMR90~1\AppData\Local\Temp\ccf145Mk.s:20685  .debug_str:00000000000022e0 .LASF3895
C:\Users\CYMR90~1\AppData\Local\Temp\ccf145Mk.s:20595  .debug_str:0000000000001df0 .LASF3896
C:\Users\CYMR90~1\AppData\Local\Temp\ccf145Mk.s:29422  .debug_str:00000000000252af .LASF3897
C:\Users\CYMR90~1\AppData\Local\Temp\ccf145Mk.s:29196  .debug_str:00000000000242fc .LASF3898
C:\Users\CYMR90~1\AppData\Local\Temp\ccf145Mk.s:25802  .debug_str:0000000000016d91 .LASF3899
C:\Users\CYMR90~1\AppData\Local\Temp\ccf145Mk.s:25121  .debug_str:000000000001407b .LASF3900
C:\Users\CYMR90~1\AppData\Local\Temp\ccf145Mk.s:30352  .debug_str:0000000000029000 .LASF3901
C:\Users\CYMR90~1\AppData\Local\Temp\ccf145Mk.s:26942  .debug_str:000000000001b6e0 .LASF3902
C:\Users\CYMR90~1\AppData\Local\Temp\ccf145Mk.s:20819  .debug_str:0000000000002b96 .LASF3903
C:\Users\CYMR90~1\AppData\Local\Temp\ccf145Mk.s:30730  .debug_str:000000000002a691 .LASF3904
C:\Users\CYMR90~1\AppData\Local\Temp\ccf145Mk.s:31038  .debug_str:000000000002b99b .LASF3905
C:\Users\CYMR90~1\AppData\Local\Temp\ccf145Mk.s:20931  .debug_str:00000000000032b0 .LASF3906
C:\Users\CYMR90~1\AppData\Local\Temp\ccf145Mk.s:21321  .debug_str:0000000000004c85 .LASF3907
C:\Users\CYMR90~1\AppData\Local\Temp\ccf145Mk.s:26546  .debug_str:0000000000019cb4 .LASF3908
C:\Users\CYMR90~1\AppData\Local\Temp\ccf145Mk.s:24539  .debug_str:0000000000011b16 .LASF3909
C:\Users\CYMR90~1\AppData\Local\Temp\ccf145Mk.s:21105  .debug_str:0000000000003df9 .LASF3910
C:\Users\CYMR90~1\AppData\Local\Temp\ccf145Mk.s:29054  .debug_str:00000000000239a5 .LASF3911
C:\Users\CYMR90~1\AppData\Local\Temp\ccf145Mk.s:25639  .debug_str:00000000000160df .LASF3912
C:\Users\CYMR90~1\AppData\Local\Temp\ccf145Mk.s:24099  .debug_str:000000000000fe66 .LASF3913
C:\Users\CYMR90~1\AppData\Local\Temp\ccf145Mk.s:30208  .debug_str:0000000000028711 .LASF3914
C:\Users\CYMR90~1\AppData\Local\Temp\ccf145Mk.s:28198  .debug_str:0000000000020618 .LASF3915
C:\Users\CYMR90~1\AppData\Local\Temp\ccf145Mk.s:22109  .debug_str:0000000000007ddd .LASF3916
C:\Users\CYMR90~1\AppData\Local\Temp\ccf145Mk.s:30052  .debug_str:0000000000027b9c .LASF3917
C:\Users\CYMR90~1\AppData\Local\Temp\ccf145Mk.s:26668  .debug_str:000000000001a526 .LASF3918
C:\Users\CYMR90~1\AppData\Local\Temp\ccf145Mk.s:23281  .debug_str:000000000000cac2 .LASF3919
C:\Users\CYMR90~1\AppData\Local\Temp\ccf145Mk.s:31202  .debug_str:000000000002c4d9 .LASF3920
C:\Users\CYMR90~1\AppData\Local\Temp\ccf145Mk.s:21221  .debug_str:00000000000045a1 .LASF3921
C:\Users\CYMR90~1\AppData\Local\Temp\ccf145Mk.s:24411  .debug_str:000000000001120f .LASF3922
C:\Users\CYMR90~1\AppData\Local\Temp\ccf145Mk.s:27290  .debug_str:000000000001cd8b .LASF3923
C:\Users\CYMR90~1\AppData\Local\Temp\ccf145Mk.s:28912  .debug_str:00000000000230bc .LASF3924
C:\Users\CYMR90~1\AppData\Local\Temp\ccf145Mk.s:30286  .debug_str:0000000000028c2d .LASF3925
C:\Users\CYMR90~1\AppData\Local\Temp\ccf145Mk.s:20823  .debug_str:0000000000002bef .LASF3926
C:\Users\CYMR90~1\AppData\Local\Temp\ccf145Mk.s:25928  .debug_str:00000000000174ce .LASF3927
C:\Users\CYMR90~1\AppData\Local\Temp\ccf145Mk.s:25357  .debug_str:0000000000014f5b .LASF3928
C:\Users\CYMR90~1\AppData\Local\Temp\ccf145Mk.s:21963  .debug_str:00000000000073c7 .LASF3929
C:\Users\CYMR90~1\AppData\Local\Temp\ccf145Mk.s:22085  .debug_str:0000000000007c35 .LASF3930
C:\Users\CYMR90~1\AppData\Local\Temp\ccf145Mk.s:22081  .debug_str:0000000000007bf4 .LASF3931
C:\Users\CYMR90~1\AppData\Local\Temp\ccf145Mk.s:23131  .debug_str:000000000000c107 .LASF3932
C:\Users\CYMR90~1\AppData\Local\Temp\ccf145Mk.s:31066  .debug_str:000000000002bb6d .LASF3933
C:\Users\CYMR90~1\AppData\Local\Temp\ccf145Mk.s:20735  .debug_str:00000000000025fb .LASF3934
C:\Users\CYMR90~1\AppData\Local\Temp\ccf145Mk.s:29076  .debug_str:0000000000023aec .LASF3935
C:\Users\CYMR90~1\AppData\Local\Temp\ccf145Mk.s:31000  .debug_str:000000000002b705 .LASF3936
C:\Users\CYMR90~1\AppData\Local\Temp\ccf145Mk.s:27452  .debug_str:000000000001d847 .LASF3937
C:\Users\CYMR90~1\AppData\Local\Temp\ccf145Mk.s:24123  .debug_str:000000000000ffb0 .LASF3938
C:\Users\CYMR90~1\AppData\Local\Temp\ccf145Mk.s:20535  .debug_str:0000000000001a37 .LASF3939
C:\Users\CYMR90~1\AppData\Local\Temp\ccf145Mk.s:28610  .debug_str:0000000000021ef5 .LASF3940
C:\Users\CYMR90~1\AppData\Local\Temp\ccf145Mk.s:25225  .debug_str:00000000000146e9 .LASF3941
C:\Users\CYMR90~1\AppData\Local\Temp\ccf145Mk.s:23915  .debug_str:000000000000f209 .LASF3942
C:\Users\CYMR90~1\AppData\Local\Temp\ccf145Mk.s:26498  .debug_str:00000000000199a7 .LASF3943
C:\Users\CYMR90~1\AppData\Local\Temp\ccf145Mk.s:26378  .debug_str:0000000000019193 .LASF3944
C:\Users\CYMR90~1\AppData\Local\Temp\ccf145Mk.s:27754  .debug_str:000000000001ead9 .LASF3945
C:\Users\CYMR90~1\AppData\Local\Temp\ccf145Mk.s:29702  .debug_str:000000000002656c .LASF3946
C:\Users\CYMR90~1\AppData\Local\Temp\ccf145Mk.s:27820  .debug_str:000000000001eebd .LASF3947
C:\Users\CYMR90~1\AppData\Local\Temp\ccf145Mk.s:22435  .debug_str:00000000000092df .LASF3948
C:\Users\CYMR90~1\AppData\Local\Temp\ccf145Mk.s:30846  .debug_str:000000000002ad83 .LASF3949
C:\Users\CYMR90~1\AppData\Local\Temp\ccf145Mk.s:27328  .debug_str:000000000001d099 .LASF3950
C:\Users\CYMR90~1\AppData\Local\Temp\ccf145Mk.s:28546  .debug_str:0000000000021b41 .LASF3951
C:\Users\CYMR90~1\AppData\Local\Temp\ccf145Mk.s:20543  .debug_str:0000000000001ac7 .LASF3952
C:\Users\CYMR90~1\AppData\Local\Temp\ccf145Mk.s:28464  .debug_str:0000000000021639 .LASF3953
C:\Users\CYMR90~1\AppData\Local\Temp\ccf145Mk.s:25077  .debug_str:0000000000013db2 .LASF3954
C:\Users\CYMR90~1\AppData\Local\Temp\ccf145Mk.s:30742  .debug_str:000000000002a750 .LASF3955
C:\Users\CYMR90~1\AppData\Local\Temp\ccf145Mk.s:28404  .debug_str:0000000000021201 .LASF3956
C:\Users\CYMR90~1\AppData\Local\Temp\ccf145Mk.s:25021  .debug_str:0000000000013a70 .LASF3957
C:\Users\CYMR90~1\AppData\Local\Temp\ccf145Mk.s:29718  .debug_str:000000000002665e .LASF3958
C:\Users\CYMR90~1\AppData\Local\Temp\ccf145Mk.s:29544  .debug_str:0000000000025b81 .LASF3959
C:\Users\CYMR90~1\AppData\Local\Temp\ccf145Mk.s:26148  .debug_str:000000000001821f .LASF3960
C:\Users\CYMR90~1\AppData\Local\Temp\ccf145Mk.s:31310  .debug_str:000000000002cba2 .LASF3961
C:\Users\CYMR90~1\AppData\Local\Temp\ccf145Mk.s:30698  .debug_str:000000000002a464 .LASF3962
C:\Users\CYMR90~1\AppData\Local\Temp\ccf145Mk.s:28616  .debug_str:0000000000021f62 .LASF3963
C:\Users\CYMR90~1\AppData\Local\Temp\ccf145Mk.s:27470  .debug_str:000000000001d96c .LASF3964
C:\Users\CYMR90~1\AppData\Local\Temp\ccf145Mk.s:21871  .debug_str:0000000000006ded .LASF3965
C:\Users\CYMR90~1\AppData\Local\Temp\ccf145Mk.s:22019  .debug_str:0000000000007760 .LASF3966
C:\Users\CYMR90~1\AppData\Local\Temp\ccf145Mk.s:26032  .debug_str:0000000000017b4b .LASF3967
C:\Users\CYMR90~1\AppData\Local\Temp\ccf145Mk.s:29992  .debug_str:0000000000027790 .LASF3968
C:\Users\CYMR90~1\AppData\Local\Temp\ccf145Mk.s:22601  .debug_str:0000000000009da0 .LASF3969
C:\Users\CYMR90~1\AppData\Local\Temp\ccf145Mk.s:31134  .debug_str:000000000002c031 .LASF3970
C:\Users\CYMR90~1\AppData\Local\Temp\ccf145Mk.s:22125  .debug_str:0000000000007f7d .LASF3971
C:\Users\CYMR90~1\AppData\Local\Temp\ccf145Mk.s:24475  .debug_str:0000000000011612 .LASF3972
C:\Users\CYMR90~1\AppData\Local\Temp\ccf145Mk.s:26992  .debug_str:000000000001b959 .LASF3973
C:\Users\CYMR90~1\AppData\Local\Temp\ccf145Mk.s:31056  .debug_str:000000000002baea .LASF3974
C:\Users\CYMR90~1\AppData\Local\Temp\ccf145Mk.s:25165  .debug_str:000000000001432e .LASF3975
C:\Users\CYMR90~1\AppData\Local\Temp\ccf145Mk.s:27582  .debug_str:000000000001e0bc .LASF3976
C:\Users\CYMR90~1\AppData\Local\Temp\ccf145Mk.s:29924  .debug_str:00000000000273a2 .LASF3977
C:\Users\CYMR90~1\AppData\Local\Temp\ccf145Mk.s:20969  .debug_str:000000000000351e .LASF3978
C:\Users\CYMR90~1\AppData\Local\Temp\ccf145Mk.s:28296  .debug_str:0000000000020c20 .LASF3979
C:\Users\CYMR90~1\AppData\Local\Temp\ccf145Mk.s:20877  .debug_str:0000000000002f19 .LASF3980
C:\Users\CYMR90~1\AppData\Local\Temp\ccf145Mk.s:27928  .debug_str:000000000001f544 .LASF3981
C:\Users\CYMR90~1\AppData\Local\Temp\ccf145Mk.s:30318  .debug_str:0000000000028dbd .LASF3982
C:\Users\CYMR90~1\AppData\Local\Temp\ccf145Mk.s:24799  .debug_str:0000000000012bb4 .LASF3983
C:\Users\CYMR90~1\AppData\Local\Temp\ccf145Mk.s:23589  .debug_str:000000000000de28 .LASF3984
C:\Users\CYMR90~1\AppData\Local\Temp\ccf145Mk.s:20633  .debug_str:0000000000001fd7 .LASF3985
C:\Users\CYMR90~1\AppData\Local\Temp\ccf145Mk.s:22149  .debug_str:00000000000080fd .LASF3986
C:\Users\CYMR90~1\AppData\Local\Temp\ccf145Mk.s:24503  .debug_str:0000000000011883 .LASF3987
C:\Users\CYMR90~1\AppData\Local\Temp\ccf145Mk.s:26404  .debug_str:0000000000019337 .LASF3988
C:\Users\CYMR90~1\AppData\Local\Temp\ccf145Mk.s:24465  .debug_str:0000000000011559 .LASF3989
C:\Users\CYMR90~1\AppData\Local\Temp\ccf145Mk.s:20187  .debug_str:0000000000000534 .LASF3990
C:\Users\CYMR90~1\AppData\Local\Temp\ccf145Mk.s:26878  .debug_str:000000000001b2fe .LASF3991
C:\Users\CYMR90~1\AppData\Local\Temp\ccf145Mk.s:30912  .debug_str:000000000002b133 .LASF3992
C:\Users\CYMR90~1\AppData\Local\Temp\ccf145Mk.s:23521  .debug_str:000000000000d9fa .LASF3993
C:\Users\CYMR90~1\AppData\Local\Temp\ccf145Mk.s:22529  .debug_str:000000000000993a .LASF3994
C:\Users\CYMR90~1\AppData\Local\Temp\ccf145Mk.s:26442  .debug_str:000000000001955e .LASF3995
C:\Users\CYMR90~1\AppData\Local\Temp\ccf145Mk.s:22403  .debug_str:0000000000009111 .LASF3996
C:\Users\CYMR90~1\AppData\Local\Temp\ccf145Mk.s:26340  .debug_str:0000000000018e95 .LASF3997
C:\Users\CYMR90~1\AppData\Local\Temp\ccf145Mk.s:30274  .debug_str:0000000000028b78 .LASF3998
C:\Users\CYMR90~1\AppData\Local\Temp\ccf145Mk.s:25291  .debug_str:0000000000014ac7 .LASF3999
C:\Users\CYMR90~1\AppData\Local\Temp\ccf145Mk.s:26834  .debug_str:000000000001b024 .LASF4000
C:\Users\CYMR90~1\AppData\Local\Temp\ccf145Mk.s:30844  .debug_str:000000000002ad5d .LASF4001
C:\Users\CYMR90~1\AppData\Local\Temp\ccf145Mk.s:23461  .debug_str:000000000000d685 .LASF4002
C:\Users\CYMR90~1\AppData\Local\Temp\ccf145Mk.s:22587  .debug_str:0000000000009ca9 .LASF4003
C:\Users\CYMR90~1\AppData\Local\Temp\ccf145Mk.s:31320  .debug_str:000000000002cc32 .LASF4004
C:\Users\CYMR90~1\AppData\Local\Temp\ccf145Mk.s:28358  .debug_str:0000000000020f75 .LASF4005
C:\Users\CYMR90~1\AppData\Local\Temp\ccf145Mk.s:30122  .debug_str:0000000000028087 .LASF4006
C:\Users\CYMR90~1\AppData\Local\Temp\ccf145Mk.s:27418  .debug_str:000000000001d621 .LASF4007
C:\Users\CYMR90~1\AppData\Local\Temp\ccf145Mk.s:22825  .debug_str:000000000000ac29 .LASF4008
C:\Users\CYMR90~1\AppData\Local\Temp\ccf145Mk.s:26770  .debug_str:000000000001abe5 .LASF4009
C:\Users\CYMR90~1\AppData\Local\Temp\ccf145Mk.s:30774  .debug_str:000000000002a94c .LASF4010
C:\Users\CYMR90~1\AppData\Local\Temp\ccf145Mk.s:25693  .debug_str:00000000000163da .LASF4011
C:\Users\CYMR90~1\AppData\Local\Temp\ccf145Mk.s:24901  .debug_str:00000000000132a1 .LASF4012
C:\Users\CYMR90~1\AppData\Local\Temp\ccf145Mk.s:31260  .debug_str:000000000002c85c .LASF4013
C:\Users\CYMR90~1\AppData\Local\Temp\ccf145Mk.s:24473  .debug_str:00000000000115ec .LASF4014
C:\Users\CYMR90~1\AppData\Local\Temp\ccf145Mk.s:20913  .debug_str:000000000000317c .LASF4015
C:\Users\CYMR90~1\AppData\Local\Temp\ccf145Mk.s:30146  .debug_str:0000000000028227 .LASF4016
C:\Users\CYMR90~1\AppData\Local\Temp\ccf145Mk.s:30718  .debug_str:000000000002a5e4 .LASF4017
C:\Users\CYMR90~1\AppData\Local\Temp\ccf145Mk.s:21707  .debug_str:000000000000636a .LASF4018
C:\Users\CYMR90~1\AppData\Local\Temp\ccf145Mk.s:30708  .debug_str:000000000002a50d .LASF4019
C:\Users\CYMR90~1\AppData\Local\Temp\ccf145Mk.s:23335  .debug_str:000000000000ce02 .LASF4020
C:\Users\CYMR90~1\AppData\Local\Temp\ccf145Mk.s:27228  .debug_str:000000000001c918 .LASF4021
C:\Users\CYMR90~1\AppData\Local\Temp\ccf145Mk.s:31198  .debug_str:000000000002c48c .LASF4022
C:\Users\CYMR90~1\AppData\Local\Temp\ccf145Mk.s:22127  .debug_str:0000000000007fa3 .LASF4023
C:\Users\CYMR90~1\AppData\Local\Temp\ccf145Mk.s:25281  .debug_str:0000000000014a46 .LASF4024
C:\Users\CYMR90~1\AppData\Local\Temp\ccf145Mk.s:24813  .debug_str:0000000000012cbb .LASF4025
C:\Users\CYMR90~1\AppData\Local\Temp\ccf145Mk.s:22689  .debug_str:000000000000a341 .LASF4026
C:\Users\CYMR90~1\AppData\Local\Temp\ccf145Mk.s:26628  .debug_str:000000000001a158 .LASF4027
C:\Users\CYMR90~1\AppData\Local\Temp\ccf145Mk.s:24133  .debug_str:000000000001007f .LASF4028
C:\Users\CYMR90~1\AppData\Local\Temp\ccf145Mk.s:27004  .debug_str:000000000001ba41 .LASF4029
C:\Users\CYMR90~1\AppData\Local\Temp\ccf145Mk.s:27160  .debug_str:000000000001c3c0 .LASF4030
C:\Users\CYMR90~1\AppData\Local\Temp\ccf145Mk.s:28466  .debug_str:000000000002165d .LASF4031
C:\Users\CYMR90~1\AppData\Local\Temp\ccf145Mk.s:23733  .debug_str:000000000000e708 .LASF4032
C:\Users\CYMR90~1\AppData\Local\Temp\ccf145Mk.s:27610  .debug_str:000000000001e23c .LASF4033
C:\Users\CYMR90~1\AppData\Local\Temp\ccf145Mk.s:20277  .debug_str:0000000000000aef .LASF4034
C:\Users\CYMR90~1\AppData\Local\Temp\ccf145Mk.s:27166  .debug_str:000000000001c41e .LASF4035
C:\Users\CYMR90~1\AppData\Local\Temp\ccf145Mk.s:28740  .debug_str:00000000000226cd .LASF4036
C:\Users\CYMR90~1\AppData\Local\Temp\ccf145Mk.s:30576  .debug_str:0000000000029d6d .LASF4037
C:\Users\CYMR90~1\AppData\Local\Temp\ccf145Mk.s:23197  .debug_str:000000000000c535 .LASF4038
C:\Users\CYMR90~1\AppData\Local\Temp\ccf145Mk.s:25301  .debug_str:0000000000014b6f .LASF4039
C:\Users\CYMR90~1\AppData\Local\Temp\ccf145Mk.s:31070  .debug_str:000000000002bba9 .LASF4040
C:\Users\CYMR90~1\AppData\Local\Temp\ccf145Mk.s:27636  .debug_str:000000000001e3d0 .LASF4041
C:\Users\CYMR90~1\AppData\Local\Temp\ccf145Mk.s:27544  .debug_str:000000000001de87 .LASF4042
C:\Users\CYMR90~1\AppData\Local\Temp\ccf145Mk.s:20217  .debug_str:0000000000000708 .LASF4043
C:\Users\CYMR90~1\AppData\Local\Temp\ccf145Mk.s:31246  .debug_str:000000000002c760 .LASF4044
C:\Users\CYMR90~1\AppData\Local\Temp\ccf145Mk.s:21181  .debug_str:0000000000004302 .LASF4045
C:\Users\CYMR90~1\AppData\Local\Temp\ccf145Mk.s:30514  .debug_str:00000000000299af .LASF4046
C:\Users\CYMR90~1\AppData\Local\Temp\ccf145Mk.s:26506  .debug_str:0000000000019a23 .LASF4047
C:\Users\CYMR90~1\AppData\Local\Temp\ccf145Mk.s:28824  .debug_str:0000000000022bf2 .LASF4048
C:\Users\CYMR90~1\AppData\Local\Temp\ccf145Mk.s:31014  .debug_str:000000000002b7ee .LASF4049
C:\Users\CYMR90~1\AppData\Local\Temp\ccf145Mk.s:23611  .debug_str:000000000000df5b .LASF4050
C:\Users\CYMR90~1\AppData\Local\Temp\ccf145Mk.s:21481  .debug_str:00000000000055fc .LASF4051
C:\Users\CYMR90~1\AppData\Local\Temp\ccf145Mk.s:20149  .debug_str:000000000000031a .LASF4052
C:\Users\CYMR90~1\AppData\Local\Temp\ccf145Mk.s:24677  .debug_str:00000000000123d2 .LASF4053
C:\Users\CYMR90~1\AppData\Local\Temp\ccf145Mk.s:21059  .debug_str:0000000000003abe .LASF4054
C:\Users\CYMR90~1\AppData\Local\Temp\ccf145Mk.s:25153  .debug_str:000000000001427b .LASF4055
C:\Users\CYMR90~1\AppData\Local\Temp\ccf145Mk.s:23067  .debug_str:000000000000bcee .LASF4056
C:\Users\CYMR90~1\AppData\Local\Temp\ccf145Mk.s:20433  .debug_str:0000000000001429 .LASF4057
C:\Users\CYMR90~1\AppData\Local\Temp\ccf145Mk.s:23387  .debug_str:000000000000d186 .LASF4058
C:\Users\CYMR90~1\AppData\Local\Temp\ccf145Mk.s:27806  .debug_str:000000000001edc3 .LASF4059
C:\Users\CYMR90~1\AppData\Local\Temp\ccf145Mk.s:27994  .debug_str:000000000001f93a .LASF4060
C:\Users\CYMR90~1\AppData\Local\Temp\ccf145Mk.s:31408  .debug_str:000000000002d209 .LASF4061
C:\Users\CYMR90~1\AppData\Local\Temp\ccf145Mk.s:20427  .debug_str:00000000000013cd .LASF4062
C:\Users\CYMR90~1\AppData\Local\Temp\ccf145Mk.s:24607  .debug_str:0000000000011f40 .LASF4063
C:\Users\CYMR90~1\AppData\Local\Temp\ccf145Mk.s:26928  .debug_str:000000000001b608 .LASF4064
C:\Users\CYMR90~1\AppData\Local\Temp\ccf145Mk.s:29606  .debug_str:0000000000025f45 .LASF4065
C:\Users\CYMR90~1\AppData\Local\Temp\ccf145Mk.s:25327  .debug_str:0000000000014d48 .LASF4066
C:\Users\CYMR90~1\AppData\Local\Temp\ccf145Mk.s:28542  .debug_str:0000000000021b01 .LASF4067
C:\Users\CYMR90~1\AppData\Local\Temp\ccf145Mk.s:20867  .debug_str:0000000000002e90 .LASF4068
C:\Users\CYMR90~1\AppData\Local\Temp\ccf145Mk.s:22189  .debug_str:0000000000008389 .LASF4069
C:\Users\CYMR90~1\AppData\Local\Temp\ccf145Mk.s:26116  .debug_str:000000000001803f .LASF4070
C:\Users\CYMR90~1\AppData\Local\Temp\ccf145Mk.s:30070  .debug_str:0000000000027cce .LASF4071
C:\Users\CYMR90~1\AppData\Local\Temp\ccf145Mk.s:30062  .debug_str:0000000000027c44 .LASF4072
C:\Users\CYMR90~1\AppData\Local\Temp\ccf145Mk.s:31262  .debug_str:000000000002c882 .LASF4073
C:\Users\CYMR90~1\AppData\Local\Temp\ccf145Mk.s:30632  .debug_str:000000000002a08c .LASF4074
C:\Users\CYMR90~1\AppData\Local\Temp\ccf145Mk.s:26326  .debug_str:0000000000018db7 .LASF4075
C:\Users\CYMR90~1\AppData\Local\Temp\ccf145Mk.s:20749  .debug_str:000000000000271f .LASF4076
C:\Users\CYMR90~1\AppData\Local\Temp\ccf145Mk.s:29510  .debug_str:000000000002596e .LASF4077
C:\Users\CYMR90~1\AppData\Local\Temp\ccf145Mk.s:22131  .debug_str:0000000000007fdf .LASF4078
C:\Users\CYMR90~1\AppData\Local\Temp\ccf145Mk.s:26046  .debug_str:0000000000017c1b .LASF4079
C:\Users\CYMR90~1\AppData\Local\Temp\ccf145Mk.s:30836  .debug_str:000000000002acc2 .LASF4080
C:\Users\CYMR90~1\AppData\Local\Temp\ccf145Mk.s:21081  .debug_str:0000000000003c45 .LASF4081
C:\Users\CYMR90~1\AppData\Local\Temp\ccf145Mk.s:23455  .debug_str:000000000000d62f .LASF4082
C:\Users\CYMR90~1\AppData\Local\Temp\ccf145Mk.s:30572  .debug_str:0000000000029d30 .LASF4083
C:\Users\CYMR90~1\AppData\Local\Temp\ccf145Mk.s:28984  .debug_str:0000000000023547 .LASF4084
C:\Users\CYMR90~1\AppData\Local\Temp\ccf145Mk.s:28028  .debug_str:000000000001fb53 .LASF4085
C:\Users\CYMR90~1\AppData\Local\Temp\ccf145Mk.s:29336  .debug_str:0000000000024c22 .LASF4086
C:\Users\CYMR90~1\AppData\Local\Temp\ccf145Mk.s:31354  .debug_str:000000000002ced3 .LASF4087
C:\Users\CYMR90~1\AppData\Local\Temp\ccf145Mk.s:25988  .debug_str:00000000000178c4 .LASF4088
C:\Users\CYMR90~1\AppData\Local\Temp\ccf145Mk.s:22283  .debug_str:0000000000008992 .LASF4089
C:\Users\CYMR90~1\AppData\Local\Temp\ccf145Mk.s:26714  .debug_str:000000000001a874 .LASF4090
C:\Users\CYMR90~1\AppData\Local\Temp\ccf145Mk.s:26948  .debug_str:000000000001b74a .LASF4091
C:\Users\CYMR90~1\AppData\Local\Temp\ccf145Mk.s:30504  .debug_str:0000000000029925 .LASF4092
C:\Users\CYMR90~1\AppData\Local\Temp\ccf145Mk.s:23125  .debug_str:000000000000c0b4 .LASF4093
C:\Users\CYMR90~1\AppData\Local\Temp\ccf145Mk.s:23535  .debug_str:000000000000daa3 .LASF4094
C:\Users\CYMR90~1\AppData\Local\Temp\ccf145Mk.s:23995  .debug_str:000000000000f7ef .LASF4095
C:\Users\CYMR90~1\AppData\Local\Temp\ccf145Mk.s:21993  .debug_str:00000000000075b5 .LASF4096
C:\Users\CYMR90~1\AppData\Local\Temp\ccf145Mk.s:25922  .debug_str:0000000000017479 .LASF4097
C:\Users\CYMR90~1\AppData\Local\Temp\ccf145Mk.s:28964  .debug_str:00000000000233bf .LASF4098
C:\Users\CYMR90~1\AppData\Local\Temp\ccf145Mk.s:22465  .debug_str:0000000000009501 .LASF4099
C:\Users\CYMR90~1\AppData\Local\Temp\ccf145Mk.s:31316  .debug_str:000000000002cbfa .LASF4100
C:\Users\CYMR90~1\AppData\Local\Temp\ccf145Mk.s:22367  .debug_str:0000000000008ed3 .LASF4101
C:\Users\CYMR90~1\AppData\Local\Temp\ccf145Mk.s:23061  .debug_str:000000000000bc75 .LASF4102
C:\Users\CYMR90~1\AppData\Local\Temp\ccf145Mk.s:27022  .debug_str:000000000001bb5c .LASF4103
C:\Users\CYMR90~1\AppData\Local\Temp\ccf145Mk.s:29358  .debug_str:0000000000024da2 .LASF4104
C:\Users\CYMR90~1\AppData\Local\Temp\ccf145Mk.s:25387  .debug_str:0000000000015122 .LASF4105
C:\Users\CYMR90~1\AppData\Local\Temp\ccf145Mk.s:25864  .debug_str:0000000000017101 .LASF4106
C:\Users\CYMR90~1\AppData\Local\Temp\ccf145Mk.s:27314  .debug_str:000000000001cf91 .LASF4107
C:\Users\CYMR90~1\AppData\Local\Temp\ccf145Mk.s:20331  .debug_str:0000000000000de3 .LASF4108
C:\Users\CYMR90~1\AppData\Local\Temp\ccf145Mk.s:26356  .debug_str:000000000001905e .LASF4109
C:\Users\CYMR90~1\AppData\Local\Temp\ccf145Mk.s:25870  .debug_str:000000000001716d .LASF4110
C:\Users\CYMR90~1\AppData\Local\Temp\ccf145Mk.s:28194  .debug_str:00000000000205db .LASF4111
C:\Users\CYMR90~1\AppData\Local\Temp\ccf145Mk.s:30552  .debug_str:0000000000029bed .LASF4112
C:\Users\CYMR90~1\AppData\Local\Temp\ccf145Mk.s:30856  .debug_str:000000000002ae17 .LASF4113
C:\Users\CYMR90~1\AppData\Local\Temp\ccf145Mk.s:23909  .debug_str:000000000000f199 .LASF4114
C:\Users\CYMR90~1\AppData\Local\Temp\ccf145Mk.s:31268  .debug_str:000000000002c8fb .LASF4115
C:\Users\CYMR90~1\AppData\Local\Temp\ccf145Mk.s:29742  .debug_str:00000000000267fa .LASF4116
C:\Users\CYMR90~1\AppData\Local\Temp\ccf145Mk.s:23857  .debug_str:000000000000ee32 .LASF4117
C:\Users\CYMR90~1\AppData\Local\Temp\ccf145Mk.s:26288  .debug_str:0000000000018b5e .LASF4118
C:\Users\CYMR90~1\AppData\Local\Temp\ccf145Mk.s:29384  .debug_str:0000000000024f52 .LASF4119
C:\Users\CYMR90~1\AppData\Local\Temp\ccf145Mk.s:29210  .debug_str:00000000000243f3 .LASF4120
C:\Users\CYMR90~1\AppData\Local\Temp\ccf145Mk.s:26860  .debug_str:000000000001b1f4 .LASF4121
C:\Users\CYMR90~1\AppData\Local\Temp\ccf145Mk.s:30786  .debug_str:000000000002a9e4 .LASF4122
C:\Users\CYMR90~1\AppData\Local\Temp\ccf145Mk.s:23415  .debug_str:000000000000d38d .LASF4123
C:\Users\CYMR90~1\AppData\Local\Temp\ccf145Mk.s:29744  .debug_str:0000000000026820 .LASF4124
C:\Users\CYMR90~1\AppData\Local\Temp\ccf145Mk.s:25763  .debug_str:00000000000168ea .LASF4125
C:\Users\CYMR90~1\AppData\Local\Temp\ccf145Mk.s:22287  .debug_str:00000000000089cc .LASF4126
C:\Users\CYMR90~1\AppData\Local\Temp\ccf145Mk.s:26210  .debug_str:0000000000018596 .LASF4127
C:\Users\CYMR90~1\AppData\Local\Temp\ccf145Mk.s:24269  .debug_str:00000000000108f5 .LASF4128
C:\Users\CYMR90~1\AppData\Local\Temp\ccf145Mk.s:22865  .debug_str:000000000000af7f .LASF4129
C:\Users\CYMR90~1\AppData\Local\Temp\ccf145Mk.s:26248  .debug_str:0000000000018843 .LASF4130
C:\Users\CYMR90~1\AppData\Local\Temp\ccf145Mk.s:26466  .debug_str:000000000001974a .LASF4131
C:\Users\CYMR90~1\AppData\Local\Temp\ccf145Mk.s:30942  .debug_str:000000000002b357 .LASF4132
C:\Users\CYMR90~1\AppData\Local\Temp\ccf145Mk.s:21913  .debug_str:00000000000070f4 .LASF4133
C:\Users\CYMR90~1\AppData\Local\Temp\ccf145Mk.s:31212  .debug_str:000000000002c56d .LASF4134
C:\Users\CYMR90~1\AppData\Local\Temp\ccf145Mk.s:28246  .debug_str:000000000002090f .LASF4135
C:\Users\CYMR90~1\AppData\Local\Temp\ccf145Mk.s:21855  .debug_str:0000000000006cd6 .LASF4136
C:\Users\CYMR90~1\AppData\Local\Temp\ccf145Mk.s:30182  .debug_str:0000000000028537 .LASF4137
C:\Users\CYMR90~1\AppData\Local\Temp\ccf145Mk.s:22795  .debug_str:000000000000aa4d .LASF4138
C:\Users\CYMR90~1\AppData\Local\Temp\ccf145Mk.s:21471  .debug_str:000000000000555c .LASF4139
C:\Users\CYMR90~1\AppData\Local\Temp\ccf145Mk.s:22227  .debug_str:00000000000085dc .LASF4140
C:\Users\CYMR90~1\AppData\Local\Temp\ccf145Mk.s:23289  .debug_str:000000000000cb3c .LASF4141
C:\Users\CYMR90~1\AppData\Local\Temp\ccf145Mk.s:27178  .debug_str:000000000001c4fb .LASF4142
C:\Users\CYMR90~1\AppData\Local\Temp\ccf145Mk.s:31144  .debug_str:000000000002c0ab .LASF4143
C:\Users\CYMR90~1\AppData\Local\Temp\ccf145Mk.s:23847  .debug_str:000000000000eda4 .LASF4144
C:\Users\CYMR90~1\AppData\Local\Temp\ccf145Mk.s:27964  .debug_str:000000000001f761 .LASF4145
C:\Users\CYMR90~1\AppData\Local\Temp\ccf145Mk.s:28596  .debug_str:0000000000021e40 .LASF4146
C:\Users\CYMR90~1\AppData\Local\Temp\ccf145Mk.s:30972  .debug_str:000000000002b55e .LASF4147
C:\Users\CYMR90~1\AppData\Local\Temp\ccf145Mk.s:26674  .debug_str:000000000001a57b .LASF4148
C:\Users\CYMR90~1\AppData\Local\Temp\ccf145Mk.s:29314  .debug_str:0000000000024acc .LASF4149
C:\Users\CYMR90~1\AppData\Local\Temp\ccf145Mk.s:26646  .debug_str:000000000001a424 .LASF4150
C:\Users\CYMR90~1\AppData\Local\Temp\ccf145Mk.s:27106  .debug_str:000000000001c0dc .LASF4151
C:\Users\CYMR90~1\AppData\Local\Temp\ccf145Mk.s:20225  .debug_str:0000000000000774 .LASF4152
C:\Users\CYMR90~1\AppData\Local\Temp\ccf145Mk.s:23211  .debug_str:000000000000c5fe .LASF4153
C:\Users\CYMR90~1\AppData\Local\Temp\ccf145Mk.s:21171  .debug_str:0000000000004258 .LASF4154
C:\Users\CYMR90~1\AppData\Local\Temp\ccf145Mk.s:21541  .debug_str:000000000000599f .LASF4155
C:\Users\CYMR90~1\AppData\Local\Temp\ccf145Mk.s:22661  .debug_str:000000000000a15c .LASF4156
C:\Users\CYMR90~1\AppData\Local\Temp\ccf145Mk.s:26592  .debug_str:0000000000019f54 .LASF4157
C:\Users\CYMR90~1\AppData\Local\Temp\ccf145Mk.s:30526  .debug_str:0000000000029a6c .LASF4158
C:\Users\CYMR90~1\AppData\Local\Temp\ccf145Mk.s:23147  .debug_str:000000000000c1fa .LASF4159
C:\Users\CYMR90~1\AppData\Local\Temp\ccf145Mk.s:27048  .debug_str:000000000001bd2b .LASF4160
C:\Users\CYMR90~1\AppData\Local\Temp\ccf145Mk.s:27284  .debug_str:000000000001cd3a .LASF4161
C:\Users\CYMR90~1\AppData\Local\Temp\ccf145Mk.s:26734  .debug_str:000000000001a9ce .LASF4162
C:\Users\CYMR90~1\AppData\Local\Temp\ccf145Mk.s:27578  .debug_str:000000000001e086 .LASF4163
C:\Users\CYMR90~1\AppData\Local\Temp\ccf145Mk.s:31214  .debug_str:000000000002c593 .LASF4164
C:\Users\CYMR90~1\AppData\Local\Temp\ccf145Mk.s:22751  .debug_str:000000000000a7c3 .LASF4165
C:\Users\CYMR90~1\AppData\Local\Temp\ccf145Mk.s:21213  .debug_str:000000000000451e .LASF4166
C:\Users\CYMR90~1\AppData\Local\Temp\ccf145Mk.s:25249  .debug_str:000000000001485e .LASF4167
C:\Users\CYMR90~1\AppData\Local\Temp\ccf145Mk.s:29186  .debug_str:000000000002422f .LASF4168
C:\Users\CYMR90~1\AppData\Local\Temp\ccf145Mk.s:21783  .debug_str:0000000000006842 .LASF4169
C:\Users\CYMR90~1\AppData\Local\Temp\ccf145Mk.s:28678  .debug_str:000000000002230a .LASF4170
C:\Users\CYMR90~1\AppData\Local\Temp\ccf145Mk.s:31052  .debug_str:000000000002ba89 .LASF4171
C:\Users\CYMR90~1\AppData\Local\Temp\ccf145Mk.s:21767  .debug_str:0000000000006737 .LASF4172
C:\Users\CYMR90~1\AppData\Local\Temp\ccf145Mk.s:26204  .debug_str:000000000001854a .LASF4173
C:\Users\CYMR90~1\AppData\Local\Temp\ccf145Mk.s:30242  .debug_str:0000000000028980 .LASF4174
C:\Users\CYMR90~1\AppData\Local\Temp\ccf145Mk.s:29582  .debug_str:0000000000025dc9 .LASF4175
C:\Users\CYMR90~1\AppData\Local\Temp\ccf145Mk.s:25189  .debug_str:0000000000014457 .LASF4176
C:\Users\CYMR90~1\AppData\Local\Temp\ccf145Mk.s:29118  .debug_str:0000000000023d4c .LASF4177
C:\Users\CYMR90~1\AppData\Local\Temp\ccf145Mk.s:29876  .debug_str:0000000000027009 .LASF4178
C:\Users\CYMR90~1\AppData\Local\Temp\ccf145Mk.s:27382  .debug_str:000000000001d3d1 .LASF4179
C:\Users\CYMR90~1\AppData\Local\Temp\ccf145Mk.s:28122  .debug_str:00000000000200ef .LASF4180
C:\Users\CYMR90~1\AppData\Local\Temp\ccf145Mk.s:24249  .debug_str:00000000000107d3 .LASF4181
C:\Users\CYMR90~1\AppData\Local\Temp\ccf145Mk.s:27822  .debug_str:000000000001eee1 .LASF4182
C:\Users\CYMR90~1\AppData\Local\Temp\ccf145Mk.s:23543  .debug_str:000000000000db2a .LASF4183
C:\Users\CYMR90~1\AppData\Local\Temp\ccf145Mk.s:22105  .debug_str:0000000000007da2 .LASF4184
C:\Users\CYMR90~1\AppData\Local\Temp\ccf145Mk.s:29466  .debug_str:00000000000255c1 .LASF4185
C:\Users\CYMR90~1\AppData\Local\Temp\ccf145Mk.s:31072  .debug_str:000000000002bbcf .LASF4186
C:\Users\CYMR90~1\AppData\Local\Temp\ccf145Mk.s:22455  .debug_str:000000000000945e .LASF4187
C:\Users\CYMR90~1\AppData\Local\Temp\ccf145Mk.s:25579  .debug_str:0000000000015cb1 .LASF4188
C:\Users\CYMR90~1\AppData\Local\Temp\ccf145Mk.s:29526  .debug_str:0000000000025a5b .LASF4189
C:\Users\CYMR90~1\AppData\Local\Temp\ccf145Mk.s:24671  .debug_str:0000000000012377 .LASF4190
C:\Users\CYMR90~1\AppData\Local\Temp\ccf145Mk.s:24715  .debug_str:0000000000012656 .LASF4191
C:\Users\CYMR90~1\AppData\Local\Temp\ccf145Mk.s:23317  .debug_str:000000000000ccaf .LASF4192
C:\Users\CYMR90~1\AppData\Local\Temp\ccf145Mk.s:22721  .debug_str:000000000000a4f2 .LASF4193
C:\Users\CYMR90~1\AppData\Local\Temp\ccf145Mk.s:26666  .debug_str:000000000001a500 .LASF4194
C:\Users\CYMR90~1\AppData\Local\Temp\ccf145Mk.s:23729  .debug_str:000000000000e6d2 .LASF4195
C:\Users\CYMR90~1\AppData\Local\Temp\ccf145Mk.s:21581  .debug_str:0000000000005bc9 .LASF4196
C:\Users\CYMR90~1\AppData\Local\Temp\ccf145Mk.s:27852  .debug_str:000000000001f0b5 .LASF4197
C:\Users\CYMR90~1\AppData\Local\Temp\ccf145Mk.s:29462  .debug_str:000000000002556f .LASF4198
C:\Users\CYMR90~1\AppData\Local\Temp\ccf145Mk.s:29250  .debug_str:0000000000024661 .LASF4199
C:\Users\CYMR90~1\AppData\Local\Temp\ccf145Mk.s:21139  .debug_str:0000000000004069 .LASF4200
C:\Users\CYMR90~1\AppData\Local\Temp\ccf145Mk.s:26832  .debug_str:000000000001affe .LASF4201
C:\Users\CYMR90~1\AppData\Local\Temp\ccf145Mk.s:24337  .debug_str:0000000000010db8 .LASF4202
C:\Users\CYMR90~1\AppData\Local\Temp\ccf145Mk.s:26584  .debug_str:0000000000019edd .LASF4203
C:\Users\CYMR90~1\AppData\Local\Temp\ccf145Mk.s:30520  .debug_str:0000000000029a02 .LASF4204
C:\Users\CYMR90~1\AppData\Local\Temp\ccf145Mk.s:29858  .debug_str:0000000000026ef1 .LASF4205
C:\Users\CYMR90~1\AppData\Local\Temp\ccf145Mk.s:25455  .debug_str:00000000000154de .LASF4206
C:\Users\CYMR90~1\AppData\Local\Temp\ccf145Mk.s:31156  .debug_str:000000000002c1a2 .LASF4207
C:\Users\CYMR90~1\AppData\Local\Temp\ccf145Mk.s:22003  .debug_str:0000000000007663 .LASF4208
C:\Users\CYMR90~1\AppData\Local\Temp\ccf145Mk.s:29408  .debug_str:0000000000025133 .LASF4209
C:\Users\CYMR90~1\AppData\Local\Temp\ccf145Mk.s:31400  .debug_str:000000000002d179 .LASF4210
C:\Users\CYMR90~1\AppData\Local\Temp\ccf145Mk.s:21307  .debug_str:0000000000004ba4 .LASF4211
C:\Users\CYMR90~1\AppData\Local\Temp\ccf145Mk.s:26522  .debug_str:0000000000019b33 .LASF4212
C:\Users\CYMR90~1\AppData\Local\Temp\ccf145Mk.s:21535  .debug_str:000000000000590b .LASF4213
C:\Users\CYMR90~1\AppData\Local\Temp\ccf145Mk.s:23073  .debug_str:000000000000bd4c .LASF4214
C:\Users\CYMR90~1\AppData\Local\Temp\ccf145Mk.s:24399  .debug_str:0000000000011150 .LASF4215
C:\Users\CYMR90~1\AppData\Local\Temp\ccf145Mk.s:22559  .debug_str:0000000000009b03 .LASF4216
C:\Users\CYMR90~1\AppData\Local\Temp\ccf145Mk.s:29624  .debug_str:000000000002609c .LASF4217
C:\Users\CYMR90~1\AppData\Local\Temp\ccf145Mk.s:25960  .debug_str:00000000000176c7 .LASF4218
C:\Users\CYMR90~1\AppData\Local\Temp\ccf145Mk.s:26458  .debug_str:00000000000196a0 .LASF4219
C:\Users\CYMR90~1\AppData\Local\Temp\ccf145Mk.s:27168  .debug_str:000000000001c444 .LASF4220
C:\Users\CYMR90~1\AppData\Local\Temp\ccf145Mk.s:26462  .debug_str:00000000000196ff .LASF4221
C:\Users\CYMR90~1\AppData\Local\Temp\ccf145Mk.s:30396  .debug_str:00000000000292c0 .LASF4222
C:\Users\CYMR90~1\AppData\Local\Temp\ccf145Mk.s:20525  .debug_str:0000000000001998 .LASF4223
C:\Users\CYMR90~1\AppData\Local\Temp\ccf145Mk.s:22879  .debug_str:000000000000b06e .LASF4224
C:\Users\CYMR90~1\AppData\Local\Temp\ccf145Mk.s:24025  .debug_str:000000000000f97d .LASF4225
C:\Users\CYMR90~1\AppData\Local\Temp\ccf145Mk.s:21865  .debug_str:0000000000006d5f .LASF4226
C:\Users\CYMR90~1\AppData\Local\Temp\ccf145Mk.s:25900  .debug_str:0000000000017325 .LASF4227
C:\Users\CYMR90~1\AppData\Local\Temp\ccf145Mk.s:29850  .debug_str:0000000000026e79 .LASF4228
C:\Users\CYMR90~1\AppData\Local\Temp\ccf145Mk.s:28342  .debug_str:0000000000020e94 .LASF4229
C:\Users\CYMR90~1\AppData\Local\Temp\ccf145Mk.s:26392  .debug_str:0000000000019260 .LASF4230
C:\Users\CYMR90~1\AppData\Local\Temp\ccf145Mk.s:21693  .debug_str:00000000000062b0 .LASF4231
C:\Users\CYMR90~1\AppData\Local\Temp\ccf145Mk.s:22943  .debug_str:000000000000b47f .LASF4232
C:\Users\CYMR90~1\AppData\Local\Temp\ccf145Mk.s:26384  .debug_str:00000000000191ea .LASF4233
C:\Users\CYMR90~1\AppData\Local\Temp\ccf145Mk.s:24567  .debug_str:0000000000011cac .LASF4234
C:\Users\CYMR90~1\AppData\Local\Temp\ccf145Mk.s:21611  .debug_str:0000000000005d8e .LASF4235
C:\Users\CYMR90~1\AppData\Local\Temp\ccf145Mk.s:25836  .debug_str:0000000000016f93 .LASF4236
C:\Users\CYMR90~1\AppData\Local\Temp\ccf145Mk.s:29778  .debug_str:0000000000026a1c .LASF4237
C:\Users\CYMR90~1\AppData\Local\Temp\ccf145Mk.s:22389  .debug_str:000000000000902c .LASF4238
C:\Users\CYMR90~1\AppData\Local\Temp\ccf145Mk.s:20487  .debug_str:0000000000001762 .LASF4239
C:\Users\CYMR90~1\AppData\Local\Temp\ccf145Mk.s:26500  .debug_str:00000000000199cb .LASF4240
C:\Users\CYMR90~1\AppData\Local\Temp\ccf145Mk.s:27520  .debug_str:000000000001dcf3 .LASF4241
C:\Users\CYMR90~1\AppData\Local\Temp\ccf145Mk.s:26822  .debug_str:000000000001af65 .LASF4242
C:\Users\CYMR90~1\AppData\Local\Temp\ccf145Mk.s:30736  .debug_str:000000000002a6fb .LASF4243
C:\Users\CYMR90~1\AppData\Local\Temp\ccf145Mk.s:23451  .debug_str:000000000000d600 .LASF4244
C:\Users\CYMR90~1\AppData\Local\Temp\ccf145Mk.s:20493  .debug_str:00000000000017c8 .LASF4245
C:\Users\CYMR90~1\AppData\Local\Temp\ccf145Mk.s:29716  .debug_str:0000000000026638 .LASF4246
C:\Users\CYMR90~1\AppData\Local\Temp\ccf145Mk.s:24097  .debug_str:000000000000fe40 .LASF4247
C:\Users\CYMR90~1\AppData\Local\Temp\ccf145Mk.s:26564  .debug_str:0000000000019da4 .LASF4248
C:\Users\CYMR90~1\AppData\Local\Temp\ccf145Mk.s:28734  .debug_str:000000000002264f .LASF4249
C:\Users\CYMR90~1\AppData\Local\Temp\ccf145Mk.s:31100  .debug_str:000000000002bd9c .LASF4250
C:\Users\CYMR90~1\AppData\Local\Temp\ccf145Mk.s:26760  .debug_str:000000000001ab47 .LASF4251
C:\Users\CYMR90~1\AppData\Local\Temp\ccf145Mk.s:30676  .debug_str:000000000002a2fa .LASF4252
C:\Users\CYMR90~1\AppData\Local\Temp\ccf145Mk.s:27596  .debug_str:000000000001e175 .LASF4253
C:\Users\CYMR90~1\AppData\Local\Temp\ccf145Mk.s:24041  .debug_str:000000000000fa73 .LASF4254
C:\Users\CYMR90~1\AppData\Local\Temp\ccf145Mk.s:24383  .debug_str:0000000000011033 .LASF4255
C:\Users\CYMR90~1\AppData\Local\Temp\ccf145Mk.s:22257  .debug_str:00000000000087f7 .LASF4256
C:\Users\CYMR90~1\AppData\Local\Temp\ccf145Mk.s:22335  .debug_str:0000000000008d1c .LASF4257
C:\Users\CYMR90~1\AppData\Local\Temp\ccf145Mk.s:27316  .debug_str:000000000001cfb7 .LASF4258
C:\Users\CYMR90~1\AppData\Local\Temp\ccf145Mk.s:24363  .debug_str:0000000000010ef0 .LASF4259
C:\Users\CYMR90~1\AppData\Local\Temp\ccf145Mk.s:26688  .debug_str:000000000001a67d .LASF4260
C:\Users\CYMR90~1\AppData\Local\Temp\ccf145Mk.s:25071  .debug_str:0000000000013d4e .LASF4261
C:\Users\CYMR90~1\AppData\Local\Temp\ccf145Mk.s:27640  .debug_str:000000000001e426 .LASF4262
C:\Users\CYMR90~1\AppData\Local\Temp\ccf145Mk.s:28406  .debug_str:0000000000021225 .LASF4263
C:\Users\CYMR90~1\AppData\Local\Temp\ccf145Mk.s:24513  .debug_str:0000000000011903 .LASF4264
C:\Users\CYMR90~1\AppData\Local\Temp\ccf145Mk.s:22793  .debug_str:000000000000aa27 .LASF4265
C:\Users\CYMR90~1\AppData\Local\Temp\ccf145Mk.s:20917  .debug_str:00000000000031ba .LASF4266
C:\Users\CYMR90~1\AppData\Local\Temp\ccf145Mk.s:24873  .debug_str:00000000000130b3 .LASF4267
C:\Users\CYMR90~1\AppData\Local\Temp\ccf145Mk.s:28438  .debug_str:00000000000214ba .LASF4268
C:\Users\CYMR90~1\AppData\Local\Temp\ccf145Mk.s:21377  .debug_str:0000000000004fdc .LASF4269
C:\Users\CYMR90~1\AppData\Local\Temp\ccf145Mk.s:25323  .debug_str:0000000000014d00 .LASF4270
C:\Users\CYMR90~1\AppData\Local\Temp\ccf145Mk.s:29260  .debug_str:0000000000024709 .LASF4271
C:\Users\CYMR90~1\AppData\Local\Temp\ccf145Mk.s:21857  .debug_str:0000000000006cfc .LASF4272
C:\Users\CYMR90~1\AppData\Local\Temp\ccf145Mk.s:21153  .debug_str:000000000000413f .LASF4273
C:\Users\CYMR90~1\AppData\Local\Temp\ccf145Mk.s:29842  .debug_str:0000000000026dde .LASF4274
C:\Users\CYMR90~1\AppData\Local\Temp\ccf145Mk.s:28046  .debug_str:000000000001fc4b .LASF4275
C:\Users\CYMR90~1\AppData\Local\Temp\ccf145Mk.s:24821  .debug_str:0000000000012d56 .LASF4276
C:\Users\CYMR90~1\AppData\Local\Temp\ccf145Mk.s:28724  .debug_str:000000000002259d .LASF4277
C:\Users\CYMR90~1\AppData\Local\Temp\ccf145Mk.s:24657  .debug_str:0000000000012280 .LASF4278
C:\Users\CYMR90~1\AppData\Local\Temp\ccf145Mk.s:25367  .debug_str:0000000000014ffc .LASF4279
C:\Users\CYMR90~1\AppData\Local\Temp\ccf145Mk.s:31266  .debug_str:000000000002c8d5 .LASF4280
C:\Users\CYMR90~1\AppData\Local\Temp\ccf145Mk.s:30000  .debug_str:0000000000027817 .LASF4281
C:\Users\CYMR90~1\AppData\Local\Temp\ccf145Mk.s:25729  .debug_str:000000000001668a .LASF4282
C:\Users\CYMR90~1\AppData\Local\Temp\ccf145Mk.s:24239  .debug_str:0000000000010750 .LASF4283
C:\Users\CYMR90~1\AppData\Local\Temp\ccf145Mk.s:22381  .debug_str:0000000000008fbd .LASF4284
C:\Users\CYMR90~1\AppData\Local\Temp\ccf145Mk.s:30784  .debug_str:000000000002a9be .LASF4285
C:\Users\CYMR90~1\AppData\Local\Temp\ccf145Mk.s:28650  .debug_str:000000000002216a .LASF4286
C:\Users\CYMR90~1\AppData\Local\Temp\ccf145Mk.s:25615  .debug_str:0000000000015f67 .LASF4287
C:\Users\CYMR90~1\AppData\Local\Temp\ccf145Mk.s:28832  .debug_str:0000000000022c7a .LASF4288
C:\Users\CYMR90~1\AppData\Local\Temp\ccf145Mk.s:23943  .debug_str:000000000000f3a5 .LASF4289
C:\Users\CYMR90~1\AppData\Local\Temp\ccf145Mk.s:21729  .debug_str:00000000000064a6 .LASF4290
C:\Users\CYMR90~1\AppData\Local\Temp\ccf145Mk.s:25661  .debug_str:0000000000016229 .LASF4291
C:\Users\CYMR90~1\AppData\Local\Temp\ccf145Mk.s:29708  .debug_str:00000000000265be .LASF4292
C:\Users\CYMR90~1\AppData\Local\Temp\ccf145Mk.s:22325  .debug_str:0000000000008c91 .LASF4293
C:\Users\CYMR90~1\AppData\Local\Temp\ccf145Mk.s:26244  .debug_str:00000000000187e3 .LASF4294
C:\Users\CYMR90~1\AppData\Local\Temp\ccf145Mk.s:23347  .debug_str:000000000000ced1 .LASF4295
C:\Users\CYMR90~1\AppData\Local\Temp\ccf145Mk.s:21185  .debug_str:000000000000434c .LASF4296
C:\Users\CYMR90~1\AppData\Local\Temp\ccf145Mk.s:25133  .debug_str:0000000000014153 .LASF4297
C:\Users\CYMR90~1\AppData\Local\Temp\ccf145Mk.s:23191  .debug_str:000000000000c4aa .LASF4298
C:\Users\CYMR90~1\AppData\Local\Temp\ccf145Mk.s:21665  .debug_str:00000000000060ef .LASF4299
C:\Users\CYMR90~1\AppData\Local\Temp\ccf145Mk.s:20801  .debug_str:0000000000002a96 .LASF4300
C:\Users\CYMR90~1\AppData\Local\Temp\ccf145Mk.s:29640  .debug_str:00000000000261ab .LASF4301
C:\Users\CYMR90~1\AppData\Local\Temp\ccf145Mk.s:22271  .debug_str:00000000000088cc .LASF4302
C:\Users\CYMR90~1\AppData\Local\Temp\ccf145Mk.s:26172  .debug_str:00000000000183a2 .LASF4303
C:\Users\CYMR90~1\AppData\Local\Temp\ccf145Mk.s:20561  .debug_str:0000000000001bd3 .LASF4304
C:\Users\CYMR90~1\AppData\Local\Temp\ccf145Mk.s:27174  .debug_str:000000000001c49b .LASF4305
C:\Users\CYMR90~1\AppData\Local\Temp\ccf145Mk.s:25067  .debug_str:0000000000013d0b .LASF4306
C:\Users\CYMR90~1\AppData\Local\Temp\ccf145Mk.s:29004  .debug_str:0000000000023697 .LASF4307
C:\Users\CYMR90~1\AppData\Local\Temp\ccf145Mk.s:25465  .debug_str:0000000000015590 .LASF4308
C:\Users\CYMR90~1\AppData\Local\Temp\ccf145Mk.s:30174  .debug_str:00000000000284b1 .LASF4309
C:\Users\CYMR90~1\AppData\Local\Temp\ccf145Mk.s:23467  .debug_str:000000000000d6f1 .LASF4310
C:\Users\CYMR90~1\AppData\Local\Temp\ccf145Mk.s:22177  .debug_str:00000000000082e1 .LASF4311
C:\Users\CYMR90~1\AppData\Local\Temp\ccf145Mk.s:28092  .debug_str:000000000001ff5d .LASF4312
C:\Users\CYMR90~1\AppData\Local\Temp\ccf145Mk.s:30058  .debug_str:0000000000027bfc .LASF4313
C:\Users\CYMR90~1\AppData\Local\Temp\ccf145Mk.s:22665  .debug_str:000000000000a19a .LASF4314
C:\Users\CYMR90~1\AppData\Local\Temp\ccf145Mk.s:31082  .debug_str:000000000002bc56 .LASF4315
C:\Users\CYMR90~1\AppData\Local\Temp\ccf145Mk.s:21965  .debug_str:00000000000073eb .LASF4316
C:\Users\CYMR90~1\AppData\Local\Temp\ccf145Mk.s:21531  .debug_str:00000000000058b3 .LASF4317
C:\Users\CYMR90~1\AppData\Local\Temp\ccf145Mk.s:24637  .debug_str:000000000001216f .LASF4318
C:\Users\CYMR90~1\AppData\Local\Temp\ccf145Mk.s:25513  .debug_str:000000000001585b .LASF4319
C:\Users\CYMR90~1\AppData\Local\Temp\ccf145Mk.s:22117  .debug_str:0000000000007ee7 .LASF4320
C:\Users\CYMR90~1\AppData\Local\Temp\ccf145Mk.s:25699  .debug_str:00000000000164c1 .LASF4321
C:\Users\CYMR90~1\AppData\Local\Temp\ccf145Mk.s:22653  .debug_str:000000000000a0d5 .LASF4322
C:\Users\CYMR90~1\AppData\Local\Temp\ccf145Mk.s:20783  .debug_str:0000000000002944 .LASF4323
C:\Users\CYMR90~1\AppData\Local\Temp\ccf145Mk.s:28066  .debug_str:000000000001fdde .LASF4324
C:\Users\CYMR90~1\AppData\Local\Temp\ccf145Mk.s:22863  .debug_str:000000000000af59 .LASF4325
C:\Users\CYMR90~1\AppData\Local\Temp\ccf145Mk.s:21465  .debug_str:0000000000005510 .LASF4326
C:\Users\CYMR90~1\AppData\Local\Temp\ccf145Mk.s:22069  .debug_str:0000000000007a9e .LASF4327
C:\Users\CYMR90~1\AppData\Local\Temp\ccf145Mk.s:30484  .debug_str:000000000002982a .LASF4328
C:\Users\CYMR90~1\AppData\Local\Temp\ccf145Mk.s:22041  .debug_str:000000000000790b .LASF4329
C:\Users\CYMR90~1\AppData\Local\Temp\ccf145Mk.s:23845  .debug_str:000000000000ed7e .LASF4330
C:\Users\CYMR90~1\AppData\Local\Temp\ccf145Mk.s:22397  .debug_str:00000000000090b2 .LASF4331
C:\Users\CYMR90~1\AppData\Local\Temp\ccf145Mk.s:29080  .debug_str:0000000000023b26 .LASF4332
C:\Users\CYMR90~1\AppData\Local\Temp\ccf145Mk.s:21237  .debug_str:00000000000046c5 .LASF4333
C:\Users\CYMR90~1\AppData\Local\Temp\ccf145Mk.s:21817  .debug_str:0000000000006a42 .LASF4334
C:\Users\CYMR90~1\AppData\Local\Temp\ccf145Mk.s:30954  .debug_str:000000000002b430 .LASF4335
C:\Users\CYMR90~1\AppData\Local\Temp\ccf145Mk.s:21407  .debug_str:00000000000051a5 .LASF4336
C:\Users\CYMR90~1\AppData\Local\Temp\ccf145Mk.s:22673  .debug_str:000000000000a24a .LASF4337
C:\Users\CYMR90~1\AppData\Local\Temp\ccf145Mk.s:21977  .debug_str:00000000000074bb .LASF4338
C:\Users\CYMR90~1\AppData\Local\Temp\ccf145Mk.s:27322  .debug_str:000000000001d01c .LASF4339
C:\Users\CYMR90~1\AppData\Local\Temp\ccf145Mk.s:29674  .debug_str:00000000000263bc .LASF4340
C:\Users\CYMR90~1\AppData\Local\Temp\ccf145Mk.s:26680  .debug_str:000000000001a5ed .LASF4341
C:\Users\CYMR90~1\AppData\Local\Temp\ccf145Mk.s:23033  .debug_str:000000000000ba35 .LASF4342
C:\Users\CYMR90~1\AppData\Local\Temp\ccf145Mk.s:30428  .debug_str:0000000000029483 .LASF4343
C:\Users\CYMR90~1\AppData\Local\Temp\ccf145Mk.s:22801  .debug_str:000000000000aac5 .LASF4344
C:\Users\CYMR90~1\AppData\Local\Temp\ccf145Mk.s:20123  .debug_str:000000000000016d .LASF4345
C:\Users\CYMR90~1\AppData\Local\Temp\ccf145Mk.s:29304  .debug_str:0000000000024a05 .LASF4346
C:\Users\CYMR90~1\AppData\Local\Temp\ccf145Mk.s:28494  .debug_str:000000000002181a .LASF4347
C:\Users\CYMR90~1\AppData\Local\Temp\ccf145Mk.s:25854  .debug_str:0000000000017087 .LASF4348
C:\Users\CYMR90~1\AppData\Local\Temp\ccf145Mk.s:29794  .debug_str:0000000000026b27 .LASF4349
C:\Users\CYMR90~1\AppData\Local\Temp\ccf145Mk.s:25984  .debug_str:000000000001786d .LASF4350
C:\Users\CYMR90~1\AppData\Local\Temp\ccf145Mk.s:26762  .debug_str:000000000001ab6d .LASF4351
C:\Users\CYMR90~1\AppData\Local\Temp\ccf145Mk.s:29756  .debug_str:00000000000268de .LASF4352
C:\Users\CYMR90~1\AppData\Local\Temp\ccf145Mk.s:29888  .debug_str:00000000000270b9 .LASF4353
C:\Users\CYMR90~1\AppData\Local\Temp\ccf145Mk.s:26898  .debug_str:000000000001b435 .LASF4354
C:\Users\CYMR90~1\AppData\Local\Temp\ccf145Mk.s:28936  .debug_str:0000000000023231 .LASF4355
C:\Users\CYMR90~1\AppData\Local\Temp\ccf145Mk.s:21835  .debug_str:0000000000006b8e .LASF4356
C:\Users\CYMR90~1\AppData\Local\Temp\ccf145Mk.s:25777  .debug_str:0000000000016a57 .LASF4357
C:\Users\CYMR90~1\AppData\Local\Temp\ccf145Mk.s:29730  .debug_str:0000000000026705 .LASF4358
C:\Users\CYMR90~1\AppData\Local\Temp\ccf145Mk.s:21175  .debug_str:00000000000042a4 .LASF4359
C:\Users\CYMR90~1\AppData\Local\Temp\ccf145Mk.s:26290  .debug_str:0000000000018b84 .LASF4360
C:\Users\CYMR90~1\AppData\Local\Temp\ccf145Mk.s:24935  .debug_str:0000000000013542 .LASF4361
C:\Users\CYMR90~1\AppData\Local\Temp\ccf145Mk.s:27030  .debug_str:000000000001bbdf .LASF4362
C:\Users\CYMR90~1\AppData\Local\Temp\ccf145Mk.s:26852  .debug_str:000000000001b168 .LASF4363
C:\Users\CYMR90~1\AppData\Local\Temp\ccf145Mk.s:25295  .debug_str:0000000000014b01 .LASF4364
C:\Users\CYMR90~1\AppData\Local\Temp\ccf145Mk.s:21177  .debug_str:00000000000042ca .LASF4365
C:\Users\CYMR90~1\AppData\Local\Temp\ccf145Mk.s:28222  .debug_str:00000000000207a5 .LASF4366
C:\Users\CYMR90~1\AppData\Local\Temp\ccf145Mk.s:24477  .debug_str:0000000000011638 .LASF4367
C:\Users\CYMR90~1\AppData\Local\Temp\ccf145Mk.s:28382  .debug_str:00000000000210c8 .LASF4368
C:\Users\CYMR90~1\AppData\Local\Temp\ccf145Mk.s:20997  .debug_str:00000000000036fb .LASF4369
C:\Users\CYMR90~1\AppData\Local\Temp\ccf145Mk.s:24955  .debug_str:0000000000013690 .LASF4370
C:\Users\CYMR90~1\AppData\Local\Temp\ccf145Mk.s:28286  .debug_str:0000000000020b76 .LASF4371
C:\Users\CYMR90~1\AppData\Local\Temp\ccf145Mk.s:27146  .debug_str:000000000001c309 .LASF4372
C:\Users\CYMR90~1\AppData\Local\Temp\ccf145Mk.s:26310  .debug_str:0000000000018cd9 .LASF4373
C:\Users\CYMR90~1\AppData\Local\Temp\ccf145Mk.s:20865  .debug_str:0000000000002e6a .LASF4374
C:\Users\CYMR90~1\AppData\Local\Temp\ccf145Mk.s:21173  .debug_str:000000000000427e .LASF4375
C:\Users\CYMR90~1\AppData\Local\Temp\ccf145Mk.s:24423  .debug_str:00000000000112b8 .LASF4376
C:\Users\CYMR90~1\AppData\Local\Temp\ccf145Mk.s:28312  .debug_str:0000000000020d04 .LASF4377
C:\Users\CYMR90~1\AppData\Local\Temp\ccf145Mk.s:26272  .debug_str:000000000001899e .LASF4378
C:\Users\CYMR90~1\AppData\Local\Temp\ccf145Mk.s:24987  .debug_str:000000000001386c .LASF4379
C:\Users\CYMR90~1\AppData\Local\Temp\ccf145Mk.s:28826  .debug_str:0000000000022c18 .LASF4380
C:\Users\CYMR90~1\AppData\Local\Temp\ccf145Mk.s:31376  .debug_str:000000000002cfe3 .LASF4381
C:\Users\CYMR90~1\AppData\Local\Temp\ccf145Mk.s:22775  .debug_str:000000000000a911 .LASF4382
C:\Users\CYMR90~1\AppData\Local\Temp\ccf145Mk.s:23449  .debug_str:000000000000d5f3 .LASF4383
C:\Users\CYMR90~1\AppData\Local\Temp\ccf145Mk.s:28956  .debug_str:000000000002334c .LASF4384
C:\Users\CYMR90~1\AppData\Local\Temp\ccf145Mk.s:27496  .debug_str:000000000001dae8 .LASF4385
C:\Users\CYMR90~1\AppData\Local\Temp\ccf145Mk.s:20179  .debug_str:00000000000004b6 .LASF4386
C:\Users\CYMR90~1\AppData\Local\Temp\ccf145Mk.s:21229  .debug_str:0000000000004631 .LASF4387
C:\Users\CYMR90~1\AppData\Local\Temp\ccf145Mk.s:23625  .debug_str:000000000000e034 .LASF4388
C:\Users\CYMR90~1\AppData\Local\Temp\ccf145Mk.s:21789  .debug_str:000000000000689c .LASF4389
C:\Users\CYMR90~1\AppData\Local\Temp\ccf145Mk.s:25007  .debug_str:0000000000013995 .LASF4390
C:\Users\CYMR90~1\AppData\Local\Temp\ccf145Mk.s:24635  .debug_str:0000000000012148 .LASF4391
C:\Users\CYMR90~1\AppData\Local\Temp\ccf145Mk.s:20859  .debug_str:0000000000002dfe .LASF4392
C:\Users\CYMR90~1\AppData\Local\Temp\ccf145Mk.s:21431  .debug_str:0000000000005308 .LASF4393
C:\Users\CYMR90~1\AppData\Local\Temp\ccf145Mk.s:20951  .debug_str:0000000000003406 .LASF4394
C:\Users\CYMR90~1\AppData\Local\Temp\ccf145Mk.s:20141  .debug_str:000000000000026e .LASF4395
C:\Users\CYMR90~1\AppData\Local\Temp\ccf145Mk.s:22391  .debug_str:0000000000009052 .LASF4396
C:\Users\CYMR90~1\AppData\Local\Temp\ccf145Mk.s:25751  .debug_str:0000000000016855 .LASF4397
C:\Users\CYMR90~1\AppData\Local\Temp\ccf145Mk.s:20849  .debug_str:0000000000002d71 .LASF4398
C:\Users\CYMR90~1\AppData\Local\Temp\ccf145Mk.s:29816  .debug_str:0000000000026c58 .LASF4399
C:\Users\CYMR90~1\AppData\Local\Temp\ccf145Mk.s:25619  .debug_str:0000000000015fa8 .LASF4400
C:\Users\CYMR90~1\AppData\Local\Temp\ccf145Mk.s:26284  .debug_str:0000000000018af7 .LASF4401
C:\Users\CYMR90~1\AppData\Local\Temp\ccf145Mk.s:28968  .debug_str:000000000002341c .LASF4402
C:\Users\CYMR90~1\AppData\Local\Temp\ccf145Mk.s:28752  .debug_str:000000000002278a .LASF4403
C:\Users\CYMR90~1\AppData\Local\Temp\ccf145Mk.s:24839  .debug_str:0000000000012e6a .LASF4404
C:\Users\CYMR90~1\AppData\Local\Temp\ccf145Mk.s:30476  .debug_str:00000000000297ae .LASF4405
C:\Users\CYMR90~1\AppData\Local\Temp\ccf145Mk.s:30704  .debug_str:000000000002a4db .LASF4406
C:\Users\CYMR90~1\AppData\Local\Temp\ccf145Mk.s:27390  .debug_str:000000000001d44e .LASF4407
C:\Users\CYMR90~1\AppData\Local\Temp\ccf145Mk.s:29578  .debug_str:0000000000025d8c .LASF4408
C:\Users\CYMR90~1\AppData\Local\Temp\ccf145Mk.s:24371  .debug_str:0000000000010f77 .LASF4409
C:\Users\CYMR90~1\AppData\Local\Temp\ccf145Mk.s:27546  .debug_str:000000000001dead .LASF4410
C:\Users\CYMR90~1\AppData\Local\Temp\ccf145Mk.s:22563  .debug_str:0000000000009b40 .LASF4411
C:\Users\CYMR90~1\AppData\Local\Temp\ccf145Mk.s:26818  .debug_str:000000000001af2e .LASF4412
C:\Users\CYMR90~1\AppData\Local\Temp\ccf145Mk.s:27388  .debug_str:000000000001d429 .LASF4413
C:\Users\CYMR90~1\AppData\Local\Temp\ccf145Mk.s:22955  .debug_str:000000000000b51e .LASF4414
C:\Users\CYMR90~1\AppData\Local\Temp\ccf145Mk.s:25964  .debug_str:0000000000017705 .LASF4415
C:\Users\CYMR90~1\AppData\Local\Temp\ccf145Mk.s:27094  .debug_str:000000000001c016 .LASF4416
C:\Users\CYMR90~1\AppData\Local\Temp\ccf145Mk.s:24769  .debug_str:0000000000012a06 .LASF4417
C:\Users\CYMR90~1\AppData\Local\Temp\ccf145Mk.s:28266  .debug_str:0000000000020a37 .LASF4418
C:\Users\CYMR90~1\AppData\Local\Temp\ccf145Mk.s:22889  .debug_str:000000000000b0f2 .LASF4419
C:\Users\CYMR90~1\AppData\Local\Temp\ccf145Mk.s:21627  .debug_str:0000000000005e81 .LASF4420
C:\Users\CYMR90~1\AppData\Local\Temp\ccf145Mk.s:25463  .debug_str:000000000001556b .LASF4421
C:\Users\CYMR90~1\AppData\Local\Temp\ccf145Mk.s:24819  .debug_str:0000000000012d31 .LASF4422
C:\Users\CYMR90~1\AppData\Local\Temp\ccf145Mk.s:31080  .debug_str:000000000002bc3f .LASF4423
C:\Users\CYMR90~1\AppData\Local\Temp\ccf145Mk.s:26410  .debug_str:0000000000019391 .LASF4424
C:\Users\CYMR90~1\AppData\Local\Temp\ccf145Mk.s:25962  .debug_str:00000000000176ed .LASF4425
C:\Users\CYMR90~1\AppData\Local\Temp\ccf145Mk.s:27414  .debug_str:000000000001d600 .LASF4426
C:\Users\CYMR90~1\AppData\Local\Temp\ccf145Mk.s:29088  .debug_str:0000000000023b96 .LASF4427
C:\Users\CYMR90~1\AppData\Local\Temp\ccf145Mk.s:21463  .debug_str:00000000000054f7 .LASF4428
C:\Users\CYMR90~1\AppData\Local\Temp\ccf145Mk.s:20425  .debug_str:00000000000013b9 .LASF4429
C:\Users\CYMR90~1\AppData\Local\Temp\ccf145Mk.s:27730  .debug_str:000000000001e9a5 .LASF4430
C:\Users\CYMR90~1\AppData\Local\Temp\ccf145Mk.s:28454  .debug_str:00000000000215a3 .LASF4431
C:\Users\CYMR90~1\AppData\Local\Temp\ccf145Mk.s:30650  .debug_str:000000000002a1a9 .LASF4432
C:\Users\CYMR90~1\AppData\Local\Temp\ccf145Mk.s:24495  .debug_str:0000000000011754 .LASF4433
C:\Users\CYMR90~1\AppData\Local\Temp\ccf145Mk.s:30306  .debug_str:0000000000028d3b .LASF4434
C:\Users\CYMR90~1\AppData\Local\Temp\ccf145Mk.s:25257  .debug_str:00000000000148cb .LASF4435
C:\Users\CYMR90~1\AppData\Local\Temp\ccf145Mk.s:22849  .debug_str:000000000000ae99 .LASF4436
C:\Users\CYMR90~1\AppData\Local\Temp\ccf145Mk.s:28230  .debug_str:0000000000020815 .LASF4437
C:\Users\CYMR90~1\AppData\Local\Temp\ccf145Mk.s:22285  .debug_str:00000000000089b8 .LASF4438
C:\Users\CYMR90~1\AppData\Local\Temp\ccf145Mk.s:25876  .debug_str:00000000000171c9 .LASF4439
C:\Users\CYMR90~1\AppData\Local\Temp\ccf145Mk.s:29050  .debug_str:0000000000023976 .LASF4440
C:\Users\CYMR90~1\AppData\Local\Temp\ccf145Mk.s:29886  .debug_str:00000000000270a7 .LASF4441
C:\Users\CYMR90~1\AppData\Local\Temp\ccf145Mk.s:25293  .debug_str:0000000000014aed .LASF4442
C:\Users\CYMR90~1\AppData\Local\Temp\ccf145Mk.s:27634  .debug_str:000000000001e3b9 .LASF4443
C:\Users\CYMR90~1\AppData\Local\Temp\ccf145Mk.s:23271  .debug_str:000000000000ca50 .LASF4444
C:\Users\CYMR90~1\AppData\Local\Temp\ccf145Mk.s:25073  .debug_str:0000000000013d74 .LASF4445
C:\Users\CYMR90~1\AppData\Local\Temp\ccf145Mk.s:27464  .debug_str:000000000001d914 .LASF4446
C:\Users\CYMR90~1\AppData\Local\Temp\ccf145Mk.s:24847  .debug_str:0000000000012ef1 .LASF4447
C:\Users\CYMR90~1\AppData\Local\Temp\ccf145Mk.s:28300  .debug_str:0000000000020c6b .LASF4448
C:\Users\CYMR90~1\AppData\Local\Temp\ccf145Mk.s:23817  .debug_str:000000000000ec18 .LASF4449
C:\Users\CYMR90~1\AppData\Local\Temp\ccf145Mk.s:27412  .debug_str:000000000001d5eb .LASF4450
C:\Users\CYMR90~1\AppData\Local\Temp\ccf145Mk.s:20829  .debug_str:0000000000002c48 .LASF4451
C:\Users\CYMR90~1\AppData\Local\Temp\ccf145Mk.s:20611  .debug_str:0000000000001ee4 .LASF4452
C:\Users\CYMR90~1\AppData\Local\Temp\ccf145Mk.s:27134  .debug_str:000000000001c279 .LASF4453
C:\Users\CYMR90~1\AppData\Local\Temp\ccf145Mk.s:22199  .debug_str:0000000000008436 .LASF4454
C:\Users\CYMR90~1\AppData\Local\Temp\ccf145Mk.s:30778  .debug_str:000000000002a983 .LASF4455
C:\Users\CYMR90~1\AppData\Local\Temp\ccf145Mk.s:22053  .debug_str:00000000000079c1 .LASF4456
C:\Users\CYMR90~1\AppData\Local\Temp\ccf145Mk.s:20191  .debug_str:0000000000000572 .LASF4457
C:\Users\CYMR90~1\AppData\Local\Temp\ccf145Mk.s:29296  .debug_str:000000000002499c .LASF4458
C:\Users\CYMR90~1\AppData\Local\Temp\ccf145Mk.s:26190  .debug_str:000000000001849f .LASF4459
C:\Users\CYMR90~1\AppData\Local\Temp\ccf145Mk.s:23923  .debug_str:000000000000f288 .LASF4460
C:\Users\CYMR90~1\AppData\Local\Temp\ccf145Mk.s:28896  .debug_str:0000000000022fff .LASF4461
C:\Users\CYMR90~1\AppData\Local\Temp\ccf145Mk.s:30598  .debug_str:0000000000029ebd .LASF4462
C:\Users\CYMR90~1\AppData\Local\Temp\ccf145Mk.s:23123  .debug_str:000000000000c0a0 .LASF4463
C:\Users\CYMR90~1\AppData\Local\Temp\ccf145Mk.s:21649  .debug_str:0000000000006017 .LASF4464
C:\Users\CYMR90~1\AppData\Local\Temp\ccf145Mk.s:21285  .debug_str:0000000000004a39 .LASF4465
C:\Users\CYMR90~1\AppData\Local\Temp\ccf145Mk.s:29650  .debug_str:0000000000026265 .LASF4466
C:\Users\CYMR90~1\AppData\Local\Temp\ccf145Mk.s:23519  .debug_str:000000000000d9e3 .LASF4467
C:\Users\CYMR90~1\AppData\Local\Temp\ccf145Mk.s:24927  .debug_str:00000000000134ba .LASF4468
C:\Users\CYMR90~1\AppData\Local\Temp\ccf145Mk.s:22263  .debug_str:0000000000008858 .LASF4469
C:\Users\CYMR90~1\AppData\Local\Temp\ccf145Mk.s:25471  .debug_str:00000000000155e1 .LASF4470
C:\Users\CYMR90~1\AppData\Local\Temp\ccf145Mk.s:29436  .debug_str:0000000000025396 .LASF4471
C:\Users\CYMR90~1\AppData\Local\Temp\ccf145Mk.s:20713  .debug_str:0000000000002492 .LASF4472
C:\Users\CYMR90~1\AppData\Local\Temp\ccf145Mk.s:23863  .debug_str:000000000000ee9f .LASF4473
C:\Users\CYMR90~1\AppData\Local\Temp\ccf145Mk.s:20333  .debug_str:0000000000000e09 .LASF4474
C:\Users\CYMR90~1\AppData\Local\Temp\ccf145Mk.s:24325  .debug_str:0000000000010d20 .LASF4475
C:\Users\CYMR90~1\AppData\Local\Temp\ccf145Mk.s:23001  .debug_str:000000000000b81c .LASF4476
C:\Users\CYMR90~1\AppData\Local\Temp\ccf145Mk.s:27996  .debug_str:000000000001f960 .LASF4477
C:\Users\CYMR90~1\AppData\Local\Temp\ccf145Mk.s:26966  .debug_str:000000000001b820 .LASF4478
C:\Users\CYMR90~1\AppData\Local\Temp\ccf145Mk.s:24733  .debug_str:0000000000012789 .LASF4479
C:\Users\CYMR90~1\AppData\Local\Temp\ccf145Mk.s:20707  .debug_str:0000000000002445 .LASF4480
C:\Users\CYMR90~1\AppData\Local\Temp\ccf145Mk.s:27362  .debug_str:000000000001d282 .LASF4481
C:\Users\CYMR90~1\AppData\Local\Temp\ccf145Mk.s:23245  .debug_str:000000000000c8de .LASF4482
C:\Users\CYMR90~1\AppData\Local\Temp\ccf145Mk.s:30762  .debug_str:000000000002a89e .LASF4483
C:\Users\CYMR90~1\AppData\Local\Temp\ccf145Mk.s:26648  .debug_str:000000000001a44a .LASF4484
C:\Users\CYMR90~1\AppData\Local\Temp\ccf145Mk.s:28864  .debug_str:0000000000022e3f .LASF4485
C:\Users\CYMR90~1\AppData\Local\Temp\ccf145Mk.s:30436  .debug_str:000000000002950a .LASF4486
C:\Users\CYMR90~1\AppData\Local\Temp\ccf145Mk.s:25715  .debug_str:00000000000165b2 .LASF4487
C:\Users\CYMR90~1\AppData\Local\Temp\ccf145Mk.s:26380  .debug_str:00000000000191b7 .LASF4488
C:\Users\CYMR90~1\AppData\Local\Temp\ccf145Mk.s:21461  .debug_str:00000000000054de .LASF4489
C:\Users\CYMR90~1\AppData\Local\Temp\ccf145Mk.s:25149  .debug_str:0000000000014251 .LASF4490
C:\Users\CYMR90~1\AppData\Local\Temp\ccf145Mk.s:24105  .debug_str:000000000000febf .LASF4491
C:\Users\CYMR90~1\AppData\Local\Temp\ccf145Mk.s:27266  .debug_str:000000000001cb82 .LASF4492
C:\Users\CYMR90~1\AppData\Local\Temp\ccf145Mk.s:28574  .debug_str:0000000000021cfd .LASF4493
C:\Users\CYMR90~1\AppData\Local\Temp\ccf145Mk.s:23479  .debug_str:000000000000d79e .LASF4494
C:\Users\CYMR90~1\AppData\Local\Temp\ccf145Mk.s:30924  .debug_str:000000000002b235 .LASF4495
C:\Users\CYMR90~1\AppData\Local\Temp\ccf145Mk.s:23021  .debug_str:000000000000b98f .LASF4496
C:\Users\CYMR90~1\AppData\Local\Temp\ccf145Mk.s:28180  .debug_str:0000000000020515 .LASF4497
C:\Users\CYMR90~1\AppData\Local\Temp\ccf145Mk.s:25577  .debug_str:0000000000015c9b .LASF4498
C:\Users\CYMR90~1\AppData\Local\Temp\ccf145Mk.s:29038  .debug_str:00000000000238a9 .LASF4499
C:\Users\CYMR90~1\AppData\Local\Temp\ccf145Mk.s:30892  .debug_str:000000000002b015 .LASF4500
C:\Users\CYMR90~1\AppData\Local\Temp\ccf145Mk.s:28378  .debug_str:0000000000021085 .LASF4501
C:\Users\CYMR90~1\AppData\Local\Temp\ccf145Mk.s:28722  .debug_str:0000000000022585 .LASF4502
C:\Users\CYMR90~1\AppData\Local\Temp\ccf145Mk.s:25703  .debug_str:0000000000016505 .LASF4503
C:\Users\CYMR90~1\AppData\Local\Temp\ccf145Mk.s:22247  .debug_str:000000000000875f .LASF4504
C:\Users\CYMR90~1\AppData\Local\Temp\ccf145Mk.s:29472  .debug_str:000000000002565c .LASF4505
C:\Users\CYMR90~1\AppData\Local\Temp\ccf145Mk.s:26700  .debug_str:000000000001a7b9 .LASF4506
C:\Users\CYMR90~1\AppData\Local\Temp\ccf145Mk.s:20329  .debug_str:0000000000000dcb .LASF4507
C:\Users\CYMR90~1\AppData\Local\Temp\ccf145Mk.s:28696  .debug_str:00000000000223e9 .LASF4508
C:\Users\CYMR90~1\AppData\Local\Temp\ccf145Mk.s:30420  .debug_str:0000000000029416 .LASF4509
C:\Users\CYMR90~1\AppData\Local\Temp\ccf145Mk.s:20791  .debug_str:00000000000029b5 .LASF4510
C:\Users\CYMR90~1\AppData\Local\Temp\ccf145Mk.s:23795  .debug_str:000000000000eafa .LASF4511
C:\Users\CYMR90~1\AppData\Local\Temp\ccf145Mk.s:27626  .debug_str:000000000001e34a .LASF4512
C:\Users\CYMR90~1\AppData\Local\Temp\ccf145Mk.s:21015  .debug_str:0000000000003808 .LASF4513
C:\Users\CYMR90~1\AppData\Local\Temp\ccf145Mk.s:25051  .debug_str:0000000000013c48 .LASF4514
C:\Users\CYMR90~1\AppData\Local\Temp\ccf145Mk.s:29388  .debug_str:0000000000024f90 .LASF4515
C:\Users\CYMR90~1\AppData\Local\Temp\ccf145Mk.s:24059  .debug_str:000000000000fb9d .LASF4516
C:\Users\CYMR90~1\AppData\Local\Temp\ccf145Mk.s:25057  .debug_str:0000000000013c8c .LASF4517
C:\Users\CYMR90~1\AppData\Local\Temp\ccf145Mk.s:21579  .debug_str:0000000000005bb3 .LASF4518
C:\Users\CYMR90~1\AppData\Local\Temp\ccf145Mk.s:21165  .debug_str:00000000000041e7 .LASF4519
C:\Users\CYMR90~1\AppData\Local\Temp\ccf145Mk.s:28490  .debug_str:00000000000217e8 .LASF4520
C:\Users\CYMR90~1\AppData\Local\Temp\ccf145Mk.s:28012  .debug_str:000000000001fa5e .LASF4521
C:\Users\CYMR90~1\AppData\Local\Temp\ccf145Mk.s:21259  .debug_str:00000000000048b6 .LASF4522
C:\Users\CYMR90~1\AppData\Local\Temp\ccf145Mk.s:28280  .debug_str:0000000000020b1c .LASF4523
C:\Users\CYMR90~1\AppData\Local\Temp\ccf145Mk.s:29706  .debug_str:00000000000265a7 .LASF4524
C:\Users\CYMR90~1\AppData\Local\Temp\ccf145Mk.s:30880  .debug_str:000000000002af6b .LASF4525
C:\Users\CYMR90~1\AppData\Local\Temp\ccf145Mk.s:29622  .debug_str:0000000000026083 .LASF4526
C:\Users\CYMR90~1\AppData\Local\Temp\ccf145Mk.s:20477  .debug_str:00000000000016c9 .LASF4527
C:\Users\CYMR90~1\AppData\Local\Temp\ccf145Mk.s:27598  .debug_str:000000000001e19b .LASF4528
C:\Users\CYMR90~1\AppData\Local\Temp\ccf145Mk.s:29930  .debug_str:0000000000027412 .LASF4529
C:\Users\CYMR90~1\AppData\Local\Temp\ccf145Mk.s:22695  .debug_str:000000000000a3a0 .LASF4530
C:\Users\CYMR90~1\AppData\Local\Temp\ccf145Mk.s:31230  .debug_str:000000000002c679 .LASF4531
C:\Users\CYMR90~1\AppData\Local\Temp\ccf145Mk.s:30586  .debug_str:0000000000029e1a .LASF4532
C:\Users\CYMR90~1\AppData\Local\Temp\ccf145Mk.s:22059  .debug_str:0000000000007a1b .LASF4533
C:\Users\CYMR90~1\AppData\Local\Temp\ccf145Mk.s:21149  .debug_str:000000000000410c .LASF4534
C:\Users\CYMR90~1\AppData\Local\Temp\ccf145Mk.s:29790  .debug_str:0000000000026adf .LASF4535
C:\Users\CYMR90~1\AppData\Local\Temp\ccf145Mk.s:27150  .debug_str:000000000001c352 .LASF4536
C:\Users\CYMR90~1\AppData\Local\Temp\ccf145Mk.s:29764  .debug_str:000000000002695c .LASF4537
C:\Users\CYMR90~1\AppData\Local\Temp\ccf145Mk.s:25085  .debug_str:0000000000013e30 .LASF4538
C:\Users\CYMR90~1\AppData\Local\Temp\ccf145Mk.s:23997  .debug_str:000000000000f815 .LASF4539
C:\Users\CYMR90~1\AppData\Local\Temp\ccf145Mk.s:27700  .debug_str:000000000001e7f7 .LASF4540
C:\Users\CYMR90~1\AppData\Local\Temp\ccf145Mk.s:21515  .debug_str:00000000000057e7 .LASF4541
C:\Users\CYMR90~1\AppData\Local\Temp\ccf145Mk.s:28916  .debug_str:0000000000023102 .LASF4542
C:\Users\CYMR90~1\AppData\Local\Temp\ccf145Mk.s:26312  .debug_str:0000000000018cff .LASF4543
C:\Users\CYMR90~1\AppData\Local\Temp\ccf145Mk.s:20675  .debug_str:000000000000224a .LASF4544
C:\Users\CYMR90~1\AppData\Local\Temp\ccf145Mk.s:20879  .debug_str:0000000000002f3f .LASF4545
C:\Users\CYMR90~1\AppData\Local\Temp\ccf145Mk.s:29586  .debug_str:0000000000025e21 .LASF4546
C:\Users\CYMR90~1\AppData\Local\Temp\ccf145Mk.s:25479  .debug_str:000000000001564d .LASF4547
C:\Users\CYMR90~1\AppData\Local\Temp\ccf145Mk.s:31384  .debug_str:000000000002d09b .LASF4548
C:\Users\CYMR90~1\AppData\Local\Temp\ccf145Mk.s:24793  .debug_str:0000000000012b6b .LASF4549
C:\Users\CYMR90~1\AppData\Local\Temp\ccf145Mk.s:30180  .debug_str:000000000002851d .LASF4550
C:\Users\CYMR90~1\AppData\Local\Temp\ccf145Mk.s:31382  .debug_str:000000000002d062 .LASF4551
C:\Users\CYMR90~1\AppData\Local\Temp\ccf145Mk.s:27530  .debug_str:000000000001dd9d .LASF4552
C:\Users\CYMR90~1\AppData\Local\Temp\ccf145Mk.s:21825  .debug_str:0000000000006ad7 .LASF4553
C:\Users\CYMR90~1\AppData\Local\Temp\ccf145Mk.s:21299  .debug_str:0000000000004b34 .LASF4554
C:\Users\CYMR90~1\AppData\Local\Temp\ccf145Mk.s:25826  .debug_str:0000000000016efb .LASF4555
C:\Users\CYMR90~1\AppData\Local\Temp\ccf145Mk.s:31024  .debug_str:000000000002b8d8 .LASF4556
C:\Users\CYMR90~1\AppData\Local\Temp\ccf145Mk.s:24871  .debug_str:0000000000013094 .LASF4557
C:\Users\CYMR90~1\AppData\Local\Temp\ccf145Mk.s:30652  .debug_str:000000000002a1c2 .LASF4558
C:\Users\CYMR90~1\AppData\Local\Temp\ccf145Mk.s:29738  .debug_str:00000000000267a6 .LASF4559
C:\Users\CYMR90~1\AppData\Local\Temp\ccf145Mk.s:24071  .debug_str:000000000000fc62 .LASF4560
C:\Users\CYMR90~1\AppData\Local\Temp\ccf145Mk.s:30482  .debug_str:00000000000297ef .LASF4561
C:\Users\CYMR90~1\AppData\Local\Temp\ccf145Mk.s:27056  .debug_str:000000000001bdab .LASF4562
C:\Users\CYMR90~1\AppData\Local\Temp\ccf145Mk.s:26530  .debug_str:0000000000019bb0 .LASF4563
C:\Users\CYMR90~1\AppData\Local\Temp\ccf145Mk.s:22115  .debug_str:0000000000007ece .LASF4564
C:\Users\CYMR90~1\AppData\Local\Temp\ccf145Mk.s:27234  .debug_str:000000000001c96a .LASF4565
C:\Users\CYMR90~1\AppData\Local\Temp\ccf145Mk.s:26836  .debug_str:000000000001b04a .LASF4566
C:\Users\CYMR90~1\AppData\Local\Temp\ccf145Mk.s:28762  .debug_str:0000000000022805 .LASF4567
C:\Users\CYMR90~1\AppData\Local\Temp\ccf145Mk.s:29692  .debug_str:00000000000264c5 .LASF4568
C:\Users\CYMR90~1\AppData\Local\Temp\ccf145Mk.s:20587  .debug_str:0000000000001d76 .LASF4569
C:\Users\CYMR90~1\AppData\Local\Temp\ccf145Mk.s:25651  .debug_str:0000000000016172 .LASF4570
C:\Users\CYMR90~1\AppData\Local\Temp\ccf145Mk.s:20893  .debug_str:0000000000003045 .LASF4571
C:\Users\CYMR90~1\AppData\Local\Temp\ccf145Mk.s:23089  .debug_str:000000000000be85 .LASF4572
C:\Users\CYMR90~1\AppData\Local\Temp\ccf145Mk.s:27710  .debug_str:000000000001e883 .LASF4573
C:\Users\CYMR90~1\AppData\Local\Temp\ccf145Mk.s:20385  .debug_str:000000000000117f .LASF4574
C:\Users\CYMR90~1\AppData\Local\Temp\ccf145Mk.s:29416  .debug_str:00000000000251ab .LASF4575
C:\Users\CYMR90~1\AppData\Local\Temp\ccf145Mk.s:22221  .debug_str:0000000000008568 .LASF4576
C:\Users\CYMR90~1\AppData\Local\Temp\ccf145Mk.s:27334  .debug_str:000000000001d0f4 .LASF4577
C:\Users\CYMR90~1\AppData\Local\Temp\ccf145Mk.s:27352  .debug_str:000000000001d1eb .LASF4578
C:\Users\CYMR90~1\AppData\Local\Temp\ccf145Mk.s:28322  .debug_str:0000000000020d92 .LASF4579
C:\Users\CYMR90~1\AppData\Local\Temp\ccf145Mk.s:26774  .debug_str:000000000001ac26 .LASF4580
C:\Users\CYMR90~1\AppData\Local\Temp\ccf145Mk.s:21551  .debug_str:0000000000005a32 .LASF4581
C:\Users\CYMR90~1\AppData\Local\Temp\ccf145Mk.s:30142  .debug_str:00000000000281f3 .LASF4582
C:\Users\CYMR90~1\AppData\Local\Temp\ccf145Mk.s:29044  .debug_str:0000000000023925 .LASF4583
C:\Users\CYMR90~1\AppData\Local\Temp\ccf145Mk.s:25375  .debug_str:0000000000015068 .LASF4584
C:\Users\CYMR90~1\AppData\Local\Temp\ccf145Mk.s:27466  .debug_str:000000000001d929 .LASF4585
C:\Users\CYMR90~1\AppData\Local\Temp\ccf145Mk.s:20855  .debug_str:0000000000002dc0 .LASF4586
C:\Users\CYMR90~1\AppData\Local\Temp\ccf145Mk.s:20127  .debug_str:00000000000001c1 .LASF4587
C:\Users\CYMR90~1\AppData\Local\Temp\ccf145Mk.s:26482  .debug_str:000000000001988b .LASF4588
C:\Users\CYMR90~1\AppData\Local\Temp\ccf145Mk.s:24271  .debug_str:000000000001091b .LASF4589
C:\Users\CYMR90~1\AppData\Local\Temp\ccf145Mk.s:21163  .debug_str:00000000000041cf .LASF4590
C:\Users\CYMR90~1\AppData\Local\Temp\ccf145Mk.s:26416  .debug_str:00000000000193f8 .LASF4591
C:\Users\CYMR90~1\AppData\Local\Temp\ccf145Mk.s:29750  .debug_str:000000000002688b .LASF4592
C:\Users\CYMR90~1\AppData\Local\Temp\ccf145Mk.s:20153  .debug_str:0000000000000359 .LASF4593
C:\Users\CYMR90~1\AppData\Local\Temp\ccf145Mk.s:20199  .debug_str:00000000000005c0 .LASF4594
C:\Users\CYMR90~1\AppData\Local\Temp\ccf145Mk.s:30402  .debug_str:0000000000029327 .LASF4595
C:\Users\CYMR90~1\AppData\Local\Temp\ccf145Mk.s:21195  .debug_str:00000000000043fd .LASF4596
C:\Users\CYMR90~1\AppData\Local\Temp\ccf145Mk.s:22841  .debug_str:000000000000ad69 .LASF4597
C:\Users\CYMR90~1\AppData\Local\Temp\ccf145Mk.s:20171  .debug_str:0000000000000455 .LASF4598
C:\Users\CYMR90~1\AppData\Local\Temp\ccf145Mk.s:27688  .debug_str:000000000001e735 .LASF4599
C:\Users\CYMR90~1\AppData\Local\Temp\ccf145Mk.s:25838  .debug_str:0000000000016fb9 .LASF4600
C:\Users\CYMR90~1\AppData\Local\Temp\ccf145Mk.s:20725  .debug_str:000000000000254e .LASF4601
C:\Users\CYMR90~1\AppData\Local\Temp\ccf145Mk.s:29856  .debug_str:0000000000026edb .LASF4602
C:\Users\CYMR90~1\AppData\Local\Temp\ccf145Mk.s:31186  .debug_str:000000000002c3a3 .LASF4603
C:\Users\CYMR90~1\AppData\Local\Temp\ccf145Mk.s:28146  .debug_str:000000000002023c .LASF4604
C:\Users\CYMR90~1\AppData\Local\Temp\ccf145Mk.s:23185  .debug_str:000000000000c452 .LASF4605
C:\Users\CYMR90~1\AppData\Local\Temp\ccf145Mk.s:28770  .debug_str:0000000000022874 .LASF4606
C:\Users\CYMR90~1\AppData\Local\Temp\ccf145Mk.s:23085  .debug_str:000000000000be21 .LASF4607
C:\Users\CYMR90~1\AppData\Local\Temp\ccf145Mk.s:28760  .debug_str:00000000000227e7 .LASF4608
C:\Users\CYMR90~1\AppData\Local\Temp\ccf145Mk.s:30296  .debug_str:0000000000028ca4 .LASF4609
C:\Users\CYMR90~1\AppData\Local\Temp\ccf145Mk.s:21593  .debug_str:0000000000005c8f .LASF4610
C:\Users\CYMR90~1\AppData\Local\Temp\ccf145Mk.s:24387  .debug_str:0000000000011074 .LASF4611
C:\Users\CYMR90~1\AppData\Local\Temp\ccf145Mk.s:23563  .debug_str:000000000000dc8d .LASF4612
C:\Users\CYMR90~1\AppData\Local\Temp\ccf145Mk.s:21249  .debug_str:000000000000481c .LASF4613
C:\Users\CYMR90~1\AppData\Local\Temp\ccf145Mk.s:22511  .debug_str:000000000000980c .LASF4614
C:\Users\CYMR90~1\AppData\Local\Temp\ccf145Mk.s:25047  .debug_str:0000000000013be8 .LASF4615
C:\Users\CYMR90~1\AppData\Local\Temp\ccf145Mk.s:21069  .debug_str:0000000000003b5c .LASF4616
C:\Users\CYMR90~1\AppData\Local\Temp\ccf145Mk.s:21819  .debug_str:0000000000006a68 .LASF4617
C:\Users\CYMR90~1\AppData\Local\Temp\ccf145Mk.s:20103  .debug_str:000000000000002e .LASF4618
C:\Users\CYMR90~1\AppData\Local\Temp\ccf145Mk.s:24373  .debug_str:0000000000010f9b .LASF4619
C:\Users\CYMR90~1\AppData\Local\Temp\ccf145Mk.s:26732  .debug_str:000000000001a990 .LASF4620
C:\Users\CYMR90~1\AppData\Local\Temp\ccf145Mk.s:25779  .debug_str:0000000000016a7d .LASF4621
C:\Users\CYMR90~1\AppData\Local\Temp\ccf145Mk.s:29660  .debug_str:00000000000262cc .LASF4622
C:\Users\CYMR90~1\AppData\Local\Temp\ccf145Mk.s:29188  .debug_str:0000000000024255 .LASF4623
C:\Users\CYMR90~1\AppData\Local\Temp\ccf145Mk.s:23663  .debug_str:000000000000e27d .LASF4624
C:\Users\CYMR90~1\AppData\Local\Temp\ccf145Mk.s:27810  .debug_str:000000000001ee00 .LASF4625
C:\Users\CYMR90~1\AppData\Local\Temp\ccf145Mk.s:25307  .debug_str:0000000000014bd7 .LASF4626
C:\Users\CYMR90~1\AppData\Local\Temp\ccf145Mk.s:30470  .debug_str:000000000002972f .LASF4627
C:\Users\CYMR90~1\AppData\Local\Temp\ccf145Mk.s:26336  .debug_str:0000000000018e2d .LASF4628
C:\Users\CYMR90~1\AppData\Local\Temp\ccf145Mk.s:24899  .debug_str:0000000000013248 .LASF4629
C:\Users\CYMR90~1\AppData\Local\Temp\ccf145Mk.s:28204  .debug_str:0000000000020664 .LASF4630
C:\Users\CYMR90~1\AppData\Local\Temp\ccf145Mk.s:27792  .debug_str:000000000001ecdd .LASF4631
C:\Users\CYMR90~1\AppData\Local\Temp\ccf145Mk.s:22687  .debug_str:000000000000a308 .LASF4632
C:\Users\CYMR90~1\AppData\Local\Temp\ccf145Mk.s:20229  .debug_str:00000000000007b5 .LASF4633
C:\Users\CYMR90~1\AppData\Local\Temp\ccf145Mk.s:26748  .debug_str:000000000001aa8f .LASF4634
C:\Users\CYMR90~1\AppData\Local\Temp\ccf145Mk.s:30064  .debug_str:0000000000027c6a .LASF4635
C:\Users\CYMR90~1\AppData\Local\Temp\ccf145Mk.s:25447  .debug_str:000000000001546d .LASF4636
C:\Users\CYMR90~1\AppData\Local\Temp\ccf145Mk.s:26400  .debug_str:00000000000192c4 .LASF4637
C:\Users\CYMR90~1\AppData\Local\Temp\ccf145Mk.s:23077  .debug_str:000000000000bd99 .LASF4638
C:\Users\CYMR90~1\AppData\Local\Temp\ccf145Mk.s:26460  .debug_str:00000000000196c6 .LASF4639
C:\Users\CYMR90~1\AppData\Local\Temp\ccf145Mk.s:28380  .debug_str:000000000002109d .LASF4640
C:\Users\CYMR90~1\AppData\Local\Temp\ccf145Mk.s:26484  .debug_str:00000000000198c6 .LASF4641
C:\Users\CYMR90~1\AppData\Local\Temp\ccf145Mk.s:21145  .debug_str:00000000000040c3 .LASF4642
C:\Users\CYMR90~1\AppData\Local\Temp\ccf145Mk.s:22739  .debug_str:000000000000a5e9 .LASF4643
C:\Users\CYMR90~1\AppData\Local\Temp\ccf145Mk.s:23437  .debug_str:000000000000d52d .LASF4644
C:\Users\CYMR90~1\AppData\Local\Temp\ccf145Mk.s:28218  .debug_str:0000000000020752 .LASF4645
C:\Users\CYMR90~1\AppData\Local\Temp\ccf145Mk.s:27804  .debug_str:000000000001ed97 .LASF4646
C:\Users\CYMR90~1\AppData\Local\Temp\ccf145Mk.s:23561  .debug_str:000000000000dc51 .LASF4647
C:\Users\CYMR90~1\AppData\Local\Temp\ccf145Mk.s:26854  .debug_str:000000000001b18e .LASF4648
C:\Users\CYMR90~1\AppData\Local\Temp\ccf145Mk.s:30700  .debug_str:000000000002a488 .LASF4649
C:\Users\CYMR90~1\AppData\Local\Temp\ccf145Mk.s:24293  .debug_str:0000000000010aae .LASF4650
C:\Users\CYMR90~1\AppData\Local\Temp\ccf145Mk.s:25013  .debug_str:00000000000139e2 .LASF4651
C:\Users\CYMR90~1\AppData\Local\Temp\ccf145Mk.s:28662  .debug_str:000000000002222b .LASF4652
C:\Users\CYMR90~1\AppData\Local\Temp\ccf145Mk.s:30802  .debug_str:000000000002aad7 .LASF4653
C:\Users\CYMR90~1\AppData\Local\Temp\ccf145Mk.s:24073  .debug_str:000000000000fc8e .LASF4654
C:\Users\CYMR90~1\AppData\Local\Temp\ccf145Mk.s:28726  .debug_str:00000000000225c3 .LASF4655
C:\Users\CYMR90~1\AppData\Local\Temp\ccf145Mk.s:31042  .debug_str:000000000002b9d6 .LASF4656
C:\Users\CYMR90~1\AppData\Local\Temp\ccf145Mk.s:29230  .debug_str:000000000002451f .LASF4657
C:\Users\CYMR90~1\AppData\Local\Temp\ccf145Mk.s:25719  .debug_str:00000000000165ef .LASF4658
C:\Users\CYMR90~1\AppData\Local\Temp\ccf145Mk.s:27200  .debug_str:000000000001c72d .LASF4659
C:\Users\CYMR90~1\AppData\Local\Temp\ccf145Mk.s:26510  .debug_str:0000000000019a66 .LASF4660
C:\Users\CYMR90~1\AppData\Local\Temp\ccf145Mk.s:24209  .debug_str:00000000000104e6 .LASF4661
C:\Users\CYMR90~1\AppData\Local\Temp\ccf145Mk.s:24645  .debug_str:00000000000121da .LASF4662
C:\Users\CYMR90~1\AppData\Local\Temp\ccf145Mk.s:20953  .debug_str:0000000000003428 .LASF4663
C:\Users\CYMR90~1\AppData\Local\Temp\ccf145Mk.s:21811  .debug_str:00000000000069fc .LASF4664
C:\Users\CYMR90~1\AppData\Local\Temp\ccf145Mk.s:24701  .debug_str:0000000000012578 .LASF4665
C:\Users\CYMR90~1\AppData\Local\Temp\ccf145Mk.s:30842  .debug_str:000000000002ad20 .LASF4666
C:\Users\CYMR90~1\AppData\Local\Temp\ccf145Mk.s:23681  .debug_str:000000000000e3a2 .LASF4667
C:\Users\CYMR90~1\AppData\Local\Temp\ccf145Mk.s:26612  .debug_str:000000000001a07d .LASF4668
C:\Users\CYMR90~1\AppData\Local\Temp\ccf145Mk.s:20313  .debug_str:0000000000000cfe .LASF4669
C:\Users\CYMR90~1\AppData\Local\Temp\ccf145Mk.s:30068  .debug_str:0000000000027cb7 .LASF4670
C:\Users\CYMR90~1\AppData\Local\Temp\ccf145Mk.s:31294  .debug_str:000000000002caa9 .LASF4671
C:\Users\CYMR90~1\AppData\Local\Temp\ccf145Mk.s:23465  .debug_str:000000000000d6d2 .LASF4672
C:\Users\CYMR90~1\AppData\Local\Temp\ccf145Mk.s:26124  .debug_str:00000000000180ce .LASF4673
C:\Users\CYMR90~1\AppData\Local\Temp\ccf145Mk.s:20467  .debug_str:0000000000001633 .LASF4674
C:\Users\CYMR90~1\AppData\Local\Temp\ccf145Mk.s:29104  .debug_str:0000000000023c89 .LASF4675
C:\Users\CYMR90~1\AppData\Local\Temp\ccf145Mk.s:25589  .debug_str:0000000000015d75 .LASF4676
C:\Users\CYMR90~1\AppData\Local\Temp\ccf145Mk.s:30768  .debug_str:000000000002a8f6 .LASF4677
C:\Users\CYMR90~1\AppData\Local\Temp\ccf145Mk.s:29722  .debug_str:0000000000026694 .LASF4678
C:\Users\CYMR90~1\AppData\Local\Temp\ccf145Mk.s:30770  .debug_str:000000000002a914 .LASF4679
C:\Users\CYMR90~1\AppData\Local\Temp\ccf145Mk.s:27138  .debug_str:000000000001c2a7 .LASF4680
C:\Users\CYMR90~1\AppData\Local\Temp\ccf145Mk.s:20413  .debug_str:00000000000012e6 .LASF4681
C:\Users\CYMR90~1\AppData\Local\Temp\ccf145Mk.s:29490  .debug_str:000000000002578c .LASF4682
C:\Users\CYMR90~1\AppData\Local\Temp\ccf145Mk.s:27040  .debug_str:000000000001bc9e .LASF4683
C:\Users\CYMR90~1\AppData\Local\Temp\ccf145Mk.s:21587  .debug_str:0000000000005c27 .LASF4684
C:\Users\CYMR90~1\AppData\Local\Temp\ccf145Mk.s:23687  .debug_str:000000000000e3f0 .LASF4685
C:\Users\CYMR90~1\AppData\Local\Temp\ccf145Mk.s:28156  .debug_str:0000000000020313 .LASF4686
C:\Users\CYMR90~1\AppData\Local\Temp\ccf145Mk.s:24835  .debug_str:0000000000012e29 .LASF4687
C:\Users\CYMR90~1\AppData\Local\Temp\ccf145Mk.s:29868  .debug_str:0000000000026fad .LASF4688
C:\Users\CYMR90~1\AppData\Local\Temp\ccf145Mk.s:25361  .debug_str:0000000000014f93 .LASF4689
C:\Users\CYMR90~1\AppData\Local\Temp\ccf145Mk.s:25117  .debug_str:000000000001401e .LASF4690
C:\Users\CYMR90~1\AppData\Local\Temp\ccf145Mk.s:23175  .debug_str:000000000000c3b3 .LASF4691
C:\Users\CYMR90~1\AppData\Local\Temp\ccf145Mk.s:28024  .debug_str:000000000001fb19 .LASF4692
C:\Users\CYMR90~1\AppData\Local\Temp\ccf145Mk.s:23785  .debug_str:000000000000ea54 .LASF4693
C:\Users\CYMR90~1\AppData\Local\Temp\ccf145Mk.s:26568  .debug_str:0000000000019ddb .LASF4694
C:\Users\CYMR90~1\AppData\Local\Temp\ccf145Mk.s:30608  .debug_str:0000000000029f28 .LASF4695
C:\Users\CYMR90~1\AppData\Local\Temp\ccf145Mk.s:28334  .debug_str:0000000000020e34 .LASF4696
C:\Users\CYMR90~1\AppData\Local\Temp\ccf145Mk.s:31120  .debug_str:000000000002bf63 .LASF4697
C:\Users\CYMR90~1\AppData\Local\Temp\ccf145Mk.s:23989  .debug_str:000000000000f7a0 .LASF4698
C:\Users\CYMR90~1\AppData\Local\Temp\ccf145Mk.s:22401  .debug_str:00000000000090ef .LASF4699
C:\Users\CYMR90~1\AppData\Local\Temp\ccf145Mk.s:30800  .debug_str:000000000002aab5 .LASF4700
C:\Users\CYMR90~1\AppData\Local\Temp\ccf145Mk.s:28426  .debug_str:0000000000021401 .LASF4701
C:\Users\CYMR90~1\AppData\Local\Temp\ccf145Mk.s:30268  .debug_str:0000000000028b16 .LASF4702
C:\Users\CYMR90~1\AppData\Local\Temp\ccf145Mk.s:21801  .debug_str:000000000000695e .LASF4703
C:\Users\CYMR90~1\AppData\Local\Temp\ccf145Mk.s:28578  .debug_str:0000000000021d21 .LASF4704
C:\Users\CYMR90~1\AppData\Local\Temp\ccf145Mk.s:30432  .debug_str:00000000000294c0 .LASF4705
C:\Users\CYMR90~1\AppData\Local\Temp\ccf145Mk.s:30166  .debug_str:000000000002843d .LASF4706
C:\Users\CYMR90~1\AppData\Local\Temp\ccf145Mk.s:29454  .debug_str:00000000000254ec .LASF4707
C:\Users\CYMR90~1\AppData\Local\Temp\ccf145Mk.s:26586  .debug_str:0000000000019f03 .LASF4708
C:\Users\CYMR90~1\AppData\Local\Temp\ccf145Mk.s:22573  .debug_str:0000000000009be0 .LASF4709
C:\Users\CYMR90~1\AppData\Local\Temp\ccf145Mk.s:23991  .debug_str:000000000000f7c2 .LASF4710
C:\Users\CYMR90~1\AppData\Local\Temp\ccf145Mk.s:20679  .debug_str:000000000000227d .LASF4711
C:\Users\CYMR90~1\AppData\Local\Temp\ccf145Mk.s:22723  .debug_str:000000000000a518 .LASF4712
C:\Users\CYMR90~1\AppData\Local\Temp\ccf145Mk.s:27656  .debug_str:000000000001e50f .LASF4713
C:\Users\CYMR90~1\AppData\Local\Temp\ccf145Mk.s:25906  .debug_str:000000000001737f .LASF4714
C:\Users\CYMR90~1\AppData\Local\Temp\ccf145Mk.s:23389  .debug_str:000000000000d1ac .LASF4715
C:\Users\CYMR90~1\AppData\Local\Temp\ccf145Mk.s:31174  .debug_str:000000000002c28f .LASF4716
C:\Users\CYMR90~1\AppData\Local\Temp\ccf145Mk.s:25737  .debug_str:00000000000166f7 .LASF4717
C:\Users\CYMR90~1\AppData\Local\Temp\ccf145Mk.s:30830  .debug_str:000000000002ac62 .LASF4718
C:\Users\CYMR90~1\AppData\Local\Temp\ccf145Mk.s:20885  .debug_str:0000000000002fc7 .LASF4719
C:\Users\CYMR90~1\AppData\Local\Temp\ccf145Mk.s:29206  .debug_str:00000000000243b4 .LASF4720
C:\Users\CYMR90~1\AppData\Local\Temp\ccf145Mk.s:25747  .debug_str:00000000000167fd .LASF4721
C:\Users\CYMR90~1\AppData\Local\Temp\ccf145Mk.s:22291  .debug_str:0000000000008a15 .LASF4722
C:\Users\CYMR90~1\AppData\Local\Temp\ccf145Mk.s:29946  .debug_str:0000000000027522 .LASF4723
C:\Users\CYMR90~1\AppData\Local\Temp\ccf145Mk.s:28870  .debug_str:0000000000022ea6 .LASF4724
C:\Users\CYMR90~1\AppData\Local\Temp\ccf145Mk.s:20651  .debug_str:00000000000020d8 .LASF4725
C:\Users\CYMR90~1\AppData\Local\Temp\ccf145Mk.s:21761  .debug_str:00000000000066ea .LASF4726
C:\Users\CYMR90~1\AppData\Local\Temp\ccf145Mk.s:30086  .debug_str:0000000000027e07 .LASF4727
C:\Users\CYMR90~1\AppData\Local\Temp\ccf145Mk.s:27586  .debug_str:000000000001e0fa .LASF4728
C:\Users\CYMR90~1\AppData\Local\Temp\ccf145Mk.s:22121  .debug_str:0000000000007f25 .LASF4729
C:\Users\CYMR90~1\AppData\Local\Temp\ccf145Mk.s:30004  .debug_str:0000000000027857 .LASF4730
C:\Users\CYMR90~1\AppData\Local\Temp\ccf145Mk.s:23849  .debug_str:000000000000edca .LASF4731
C:\Users\CYMR90~1\AppData\Local\Temp\ccf145Mk.s:27272  .debug_str:000000000001cbdc .LASF4732
C:\Users\CYMR90~1\AppData\Local\Temp\ccf145Mk.s:27404  .debug_str:000000000001d502 .LASF4733
C:\Users\CYMR90~1\AppData\Local\Temp\ccf145Mk.s:20635  .debug_str:0000000000001ffd .LASF4734
C:\Users\CYMR90~1\AppData\Local\Temp\ccf145Mk.s:24017  .debug_str:000000000000f905 .LASF4735
C:\Users\CYMR90~1\AppData\Local\Temp\ccf145Mk.s:30584  .debug_str:0000000000029dfb .LASF4736
C:\Users\CYMR90~1\AppData\Local\Temp\ccf145Mk.s:23827  .debug_str:000000000000ec89 .LASF4737
C:\Users\CYMR90~1\AppData\Local\Temp\ccf145Mk.s:27192  .debug_str:000000000001c617 .LASF4738
C:\Users\CYMR90~1\AppData\Local\Temp\ccf145Mk.s:22905  .debug_str:000000000000b1e8 .LASF4739
C:\Users\CYMR90~1\AppData\Local\Temp\ccf145Mk.s:26054  .debug_str:0000000000017c9f .LASF4740
C:\Users\CYMR90~1\AppData\Local\Temp\ccf145Mk.s:24237  .debug_str:000000000001072e .LASF4741
C:\Users\CYMR90~1\AppData\Local\Temp\ccf145Mk.s:20723  .debug_str:000000000000252c .LASF4742
C:\Users\CYMR90~1\AppData\Local\Temp\ccf145Mk.s:28854  .debug_str:0000000000022db9 .LASF4743
C:\Users\CYMR90~1\AppData\Local\Temp\ccf145Mk.s:20453  .debug_str:0000000000001529 .LASF4744
C:\Users\CYMR90~1\AppData\Local\Temp\ccf145Mk.s:20283  .debug_str:0000000000000b6a .LASF4745
C:\Users\CYMR90~1\AppData\Local\Temp\ccf145Mk.s:21349  .debug_str:0000000000004e2c .LASF4746
C:\Users\CYMR90~1\AppData\Local\Temp\ccf145Mk.s:21983  .debug_str:000000000000750b .LASF4747
C:\Users\CYMR90~1\AppData\Local\Temp\ccf145Mk.s:29676  .debug_str:00000000000263e2 .LASF4748
C:\Users\CYMR90~1\AppData\Local\Temp\ccf145Mk.s:20639  .debug_str:0000000000002032 .LASF4749
C:\Users\CYMR90~1\AppData\Local\Temp\ccf145Mk.s:21205  .debug_str:0000000000004485 .LASF4750
C:\Users\CYMR90~1\AppData\Local\Temp\ccf145Mk.s:22981  .debug_str:000000000000b6fe .LASF4751
C:\Users\CYMR90~1\AppData\Local\Temp\ccf145Mk.s:25820  .debug_str:0000000000016ebe .LASF4752
C:\Users\CYMR90~1\AppData\Local\Temp\ccf145Mk.s:22331  .debug_str:0000000000008cec .LASF4753
C:\Users\CYMR90~1\AppData\Local\Temp\ccf145Mk.s:28010  .debug_str:000000000001fa48 .LASF4754
C:\Users\CYMR90~1\AppData\Local\Temp\ccf145Mk.s:28638  .debug_str:00000000000220bc .LASF4755
C:\Users\CYMR90~1\AppData\Local\Temp\ccf145Mk.s:26194  .debug_str:00000000000184db .LASF4756
C:\Users\CYMR90~1\AppData\Local\Temp\ccf145Mk.s:28732  .debug_str:0000000000022639 .LASF4757
C:\Users\CYMR90~1\AppData\Local\Temp\ccf145Mk.s:25669  .debug_str:00000000000162b3 .LASF4758
C:\Users\CYMR90~1\AppData\Local\Temp\ccf145Mk.s:25573  .debug_str:0000000000015c62 .LASF4759
C:\Users\CYMR90~1\AppData\Local\Temp\ccf145Mk.s:25167  .debug_str:0000000000014354 .LASF4760
C:\Users\CYMR90~1\AppData\Local\Temp\ccf145Mk.s:27724  .debug_str:000000000001e955 .LASF4761
C:\Users\CYMR90~1\AppData\Local\Temp\ccf145Mk.s:24409  .debug_str:00000000000111f8 .LASF4762
C:\Users\CYMR90~1\AppData\Local\Temp\ccf145Mk.s:27446  .debug_str:000000000001d804 .LASF4763
C:\Users\CYMR90~1\AppData\Local\Temp\ccf145Mk.s:31356  .debug_str:000000000002cef9 .LASF4764
C:\Users\CYMR90~1\AppData\Local\Temp\ccf145Mk.s:23673  .debug_str:000000000000e320 .LASF4765
C:\Users\CYMR90~1\AppData\Local\Temp\ccf145Mk.s:26154  .debug_str:000000000001827f .LASF4766
C:\Users\CYMR90~1\AppData\Local\Temp\ccf145Mk.s:20503  .debug_str:0000000000001878 .LASF4767
C:\Users\CYMR90~1\AppData\Local\Temp\ccf145Mk.s:21131  .debug_str:0000000000003f64 .LASF4768
C:\Users\CYMR90~1\AppData\Local\Temp\ccf145Mk.s:21135  .debug_str:0000000000004034 .LASF4769
C:\Users\CYMR90~1\AppData\Local\Temp\ccf145Mk.s:24323  .debug_str:0000000000010d0c .LASF4770
C:\Users\CYMR90~1\AppData\Local\Temp\ccf145Mk.s:29126  .debug_str:0000000000023df3 .LASF4771
C:\Users\CYMR90~1\AppData\Local\Temp\ccf145Mk.s:24931  .debug_str:00000000000134f0 .LASF4772
C:\Users\CYMR90~1\AppData\Local\Temp\ccf145Mk.s:22719  .debug_str:000000000000a4da .LASF4773
C:\Users\CYMR90~1\AppData\Local\Temp\ccf145Mk.s:28270  .debug_str:0000000000020a96 .LASF4774
C:\Users\CYMR90~1\AppData\Local\Temp\ccf145Mk.s:22063  .debug_str:0000000000007a4b .LASF4775
C:\Users\CYMR90~1\AppData\Local\Temp\ccf145Mk.s:29550  .debug_str:0000000000025bd0 .LASF4776
C:\Users\CYMR90~1\AppData\Local\Temp\ccf145Mk.s:29190  .debug_str:0000000000024285 .LASF4777
C:\Users\CYMR90~1\AppData\Local\Temp\ccf145Mk.s:24151  .debug_str:0000000000010196 .LASF4778
C:\Users\CYMR90~1\AppData\Local\Temp\ccf145Mk.s:25453  .debug_str:00000000000154c5 .LASF4779
C:\Users\CYMR90~1\AppData\Local\Temp\ccf145Mk.s:30974  .debug_str:000000000002b584 .LASF4780
C:\Users\CYMR90~1\AppData\Local\Temp\ccf145Mk.s:29236  .debug_str:0000000000024597 .LASF4781
C:\Users\CYMR90~1\AppData\Local\Temp\ccf145Mk.s:26446  .debug_str:000000000001959b .LASF4782
C:\Users\CYMR90~1\AppData\Local\Temp\ccf145Mk.s:27472  .debug_str:000000000001d990 .LASF4783
C:\Users\CYMR90~1\AppData\Local\Temp\ccf145Mk.s:27898  .debug_str:000000000001f385 .LASF4784
C:\Users\CYMR90~1\AppData\Local\Temp\ccf145Mk.s:22341  .debug_str:0000000000008d86 .LASF4785
C:\Users\CYMR90~1\AppData\Local\Temp\ccf145Mk.s:24291  .debug_str:0000000000010a88 .LASF4786
C:\Users\CYMR90~1\AppData\Local\Temp\ccf145Mk.s:26246  .debug_str:0000000000018809 .LASF4787
C:\Users\CYMR90~1\AppData\Local\Temp\ccf145Mk.s:25914  .debug_str:00000000000173db .LASF4788
C:\Users\CYMR90~1\AppData\Local\Temp\ccf145Mk.s:25683  .debug_str:000000000001635e .LASF4789
C:\Users\CYMR90~1\AppData\Local\Temp\ccf145Mk.s:21083  .debug_str:0000000000003c6b .LASF4790
C:\Users\CYMR90~1\AppData\Local\Temp\ccf145Mk.s:29968  .debug_str:000000000002764a .LASF4791
C:\Users\CYMR90~1\AppData\Local\Temp\ccf145Mk.s:23645  .debug_str:000000000000e16d .LASF4792
C:\Users\CYMR90~1\AppData\Local\Temp\ccf145Mk.s:21123  .debug_str:0000000000003ee1 .LASF4793
C:\Users\CYMR90~1\AppData\Local\Temp\ccf145Mk.s:25297  .debug_str:0000000000014b27 .LASF4794
C:\Users\CYMR90~1\AppData\Local\Temp\ccf145Mk.s:23639  .debug_str:000000000000e112 .LASF4795
C:\Users\CYMR90~1\AppData\Local\Temp\ccf145Mk.s:20663  .debug_str:00000000000021a2 .LASF4796
C:\Users\CYMR90~1\AppData\Local\Temp\ccf145Mk.s:30808  .debug_str:000000000002ab3b .LASF4797
C:\Users\CYMR90~1\AppData\Local\Temp\ccf145Mk.s:22241  .debug_str:00000000000086c9 .LASF4798
C:\Users\CYMR90~1\AppData\Local\Temp\ccf145Mk.s:20841  .debug_str:0000000000002cfd .LASF4799
C:\Users\CYMR90~1\AppData\Local\Temp\ccf145Mk.s:24833  .debug_str:0000000000012e13 .LASF4800
C:\Users\CYMR90~1\AppData\Local\Temp\ccf145Mk.s:30542  .debug_str:0000000000029b4e .LASF4801
C:\Users\CYMR90~1\AppData\Local\Temp\ccf145Mk.s:23091  .debug_str:000000000000be9e .LASF4802
C:\Users\CYMR90~1\AppData\Local\Temp\ccf145Mk.s:26614  .debug_str:000000000001a094 .LASF4803
C:\Users\CYMR90~1\AppData\Local\Temp\ccf145Mk.s:29496  .debug_str:0000000000025807 .LASF4804
C:\Users\CYMR90~1\AppData\Local\Temp\ccf145Mk.s:25395  .debug_str:00000000000151c0 .LASF4805
C:\Users\CYMR90~1\AppData\Local\Temp\ccf145Mk.s:31326  .debug_str:000000000002cc8c .LASF4806
C:\Users\CYMR90~1\AppData\Local\Temp\ccf145Mk.s:30216  .debug_str:00000000000287ca .LASF4807
C:\Users\CYMR90~1\AppData\Local\Temp\ccf145Mk.s:21599  .debug_str:0000000000005cd8 .LASF4808
C:\Users\CYMR90~1\AppData\Local\Temp\ccf145Mk.s:27756  .debug_str:000000000001eafd .LASF4809
C:\Users\CYMR90~1\AppData\Local\Temp\ccf145Mk.s:24211  .debug_str:0000000000010524 .LASF4810
C:\Users\CYMR90~1\AppData\Local\Temp\ccf145Mk.s:31216  .debug_str:000000000002c5b9 .LASF4811
C:\Users\CYMR90~1\AppData\Local\Temp\ccf145Mk.s:29366  .debug_str:0000000000024e17 .LASF4812
C:\Users\CYMR90~1\AppData\Local\Temp\ccf145Mk.s:29274  .debug_str:00000000000247dc .LASF4813
C:\Users\CYMR90~1\AppData\Local\Temp\ccf145Mk.s:21853  .debug_str:0000000000006cb4 .LASF4814
C:\Users\CYMR90~1\AppData\Local\Temp\ccf145Mk.s:25707  .debug_str:0000000000016534 .LASF4815
C:\Users\CYMR90~1\AppData\Local\Temp\ccf145Mk.s:30032  .debug_str:0000000000027a18 .LASF4816
C:\Users\CYMR90~1\AppData\Local\Temp\ccf145Mk.s:27254  .debug_str:000000000001caa0 .LASF4817
C:\Users\CYMR90~1\AppData\Local\Temp\ccf145Mk.s:29832  .debug_str:0000000000026d27 .LASF4818
C:\Users\CYMR90~1\AppData\Local\Temp\ccf145Mk.s:26018  .debug_str:0000000000017a92 .LASF4819
C:\Users\CYMR90~1\AppData\Local\Temp\ccf145Mk.s:28970  .debug_str:0000000000023443 .LASF4820
C:\Users\CYMR90~1\AppData\Local\Temp\ccf145Mk.s:22141  .debug_str:000000000000808c .LASF4821
C:\Users\CYMR90~1\AppData\Local\Temp\ccf145Mk.s:27240  .debug_str:000000000001c9bd .LASF4822
C:\Users\CYMR90~1\AppData\Local\Temp\ccf145Mk.s:22765  .debug_str:000000000000a886 .LASF4823
C:\Users\CYMR90~1\AppData\Local\Temp\ccf145Mk.s:21731  .debug_str:00000000000064cc .LASF4824
C:\Users\CYMR90~1\AppData\Local\Temp\ccf145Mk.s:25701  .debug_str:00000000000164e7 .LASF4825
C:\Users\CYMR90~1\AppData\Local\Temp\ccf145Mk.s:26866  .debug_str:000000000001b252 .LASF4826
C:\Users\CYMR90~1\AppData\Local\Temp\ccf145Mk.s:21113  .debug_str:0000000000003e78 .LASF4827
C:\Users\CYMR90~1\AppData\Local\Temp\ccf145Mk.s:29572  .debug_str:0000000000025d47 .LASF4828
C:\Users\CYMR90~1\AppData\Local\Temp\ccf145Mk.s:23725  .debug_str:000000000000e682 .LASF4829
C:\Users\CYMR90~1\AppData\Local\Temp\ccf145Mk.s:27324  .debug_str:000000000001d042 .LASF4830
C:\Users\CYMR90~1\AppData\Local\Temp\ccf145Mk.s:25201  .debug_str:0000000000014532 .LASF4831
C:\Users\CYMR90~1\AppData\Local\Temp\ccf145Mk.s:22867  .debug_str:000000000000afa5 .LASF4832
C:\Users\CYMR90~1\AppData\Local\Temp\ccf145Mk.s:28288  .debug_str:0000000000020b9c .LASF4833
C:\Users\CYMR90~1\AppData\Local\Temp\ccf145Mk.s:29688  .debug_str:0000000000026475 .LASF4834
C:\Users\CYMR90~1\AppData\Local\Temp\ccf145Mk.s:27970  .debug_str:000000000001f7cf .LASF4835
C:\Users\CYMR90~1\AppData\Local\Temp\ccf145Mk.s:28580  .debug_str:0000000000021d45 .LASF4836
C:\Users\CYMR90~1\AppData\Local\Temp\ccf145Mk.s:26838  .debug_str:000000000001b063 .LASF4837
C:\Users\CYMR90~1\AppData\Local\Temp\ccf145Mk.s:28126  .debug_str:0000000000020126 .LASF4838
C:\Users\CYMR90~1\AppData\Local\Temp\ccf145Mk.s:29634  .debug_str:000000000002612c .LASF4839
C:\Users\CYMR90~1\AppData\Local\Temp\ccf145Mk.s:29108  .debug_str:0000000000023cc9 .LASF4840
C:\Users\CYMR90~1\AppData\Local\Temp\ccf145Mk.s:22311  .debug_str:0000000000008b11 .LASF4841
C:\Users\CYMR90~1\AppData\Local\Temp\ccf145Mk.s:31388  .debug_str:000000000002d0c8 .LASF4842
C:\Users\CYMR90~1\AppData\Local\Temp\ccf145Mk.s:21727  .debug_str:0000000000006483 .LASF4843
C:\Users\CYMR90~1\AppData\Local\Temp\ccf145Mk.s:21369  .debug_str:0000000000004f50 .LASF4844
C:\Users\CYMR90~1\AppData\Local\Temp\ccf145Mk.s:28828  .debug_str:0000000000022c3a .LASF4845
C:\Users\CYMR90~1\AppData\Local\Temp\ccf145Mk.s:28778  .debug_str:0000000000022908 .LASF4846
C:\Users\CYMR90~1\AppData\Local\Temp\ccf145Mk.s:28070  .debug_str:000000000001fe16 .LASF4847
C:\Users\CYMR90~1\AppData\Local\Temp\ccf145Mk.s:20267  .debug_str:0000000000000a10 .LASF4848
C:\Users\CYMR90~1\AppData\Local\Temp\ccf145Mk.s:24991  .debug_str:00000000000138a8 .LASF4849
C:\Users\CYMR90~1\AppData\Local\Temp\ccf145Mk.s:26102  .debug_str:0000000000017f46 .LASF4850
C:\Users\CYMR90~1\AppData\Local\Temp\ccf145Mk.s:23709  .debug_str:000000000000e595 .LASF4851
C:\Users\CYMR90~1\AppData\Local\Temp\ccf145Mk.s:27298  .debug_str:000000000001ce27 .LASF4852
C:\Users\CYMR90~1\AppData\Local\Temp\ccf145Mk.s:25333  .debug_str:0000000000014dc6 .LASF4853
C:\Users\CYMR90~1\AppData\Local\Temp\ccf145Mk.s:20647  .debug_str:0000000000002091 .LASF4854
C:\Users\CYMR90~1\AppData\Local\Temp\ccf145Mk.s:22095  .debug_str:0000000000007cf0 .LASF4855
C:\Users\CYMR90~1\AppData\Local\Temp\ccf145Mk.s:23145  .debug_str:000000000000c1d5 .LASF4856
C:\Users\CYMR90~1\AppData\Local\Temp\ccf145Mk.s:25475  .debug_str:0000000000015616 .LASF4857
C:\Users\CYMR90~1\AppData\Local\Temp\ccf145Mk.s:26988  .debug_str:000000000001b923 .LASF4858
C:\Users\CYMR90~1\AppData\Local\Temp\ccf145Mk.s:21203  .debug_str:0000000000004469 .LASF4859
C:\Users\CYMR90~1\AppData\Local\Temp\ccf145Mk.s:22215  .debug_str:0000000000008520 .LASF4860
C:\Users\CYMR90~1\AppData\Local\Temp\ccf145Mk.s:21255  .debug_str:000000000000487d .LASF4861
C:\Users\CYMR90~1\AppData\Local\Temp\ccf145Mk.s:27566  .debug_str:000000000001dfd7 .LASF4862
C:\Users\CYMR90~1\AppData\Local\Temp\ccf145Mk.s:29208  .debug_str:00000000000243d0 .LASF4863
C:\Users\CYMR90~1\AppData\Local\Temp\ccf145Mk.s:30716  .debug_str:000000000002a5c0 .LASF4864
C:\Users\CYMR90~1\AppData\Local\Temp\ccf145Mk.s:27222  .debug_str:000000000001c8b3 .LASF4865
C:\Users\CYMR90~1\AppData\Local\Temp\ccf145Mk.s:28604  .debug_str:0000000000021ead .LASF4866
C:\Users\CYMR90~1\AppData\Local\Temp\ccf145Mk.s:30158  .debug_str:00000000000283b9 .LASF4867
C:\Users\CYMR90~1\AppData\Local\Temp\ccf145Mk.s:28994  .debug_str:00000000000235e2 .LASF4868
C:\Users\CYMR90~1\AppData\Local\Temp\ccf145Mk.s:25353  .debug_str:0000000000014f16 .LASF4869
C:\Users\CYMR90~1\AppData\Local\Temp\ccf145Mk.s:30916  .debug_str:000000000002b173 .LASF4870
C:\Users\CYMR90~1\AppData\Local\Temp\ccf145Mk.s:22903  .debug_str:000000000000b1bf .LASF4871
C:\Users\CYMR90~1\AppData\Local\Temp\ccf145Mk.s:30418  .debug_str:00000000000293ed .LASF4872
C:\Users\CYMR90~1\AppData\Local\Temp\ccf145Mk.s:25427  .debug_str:000000000001536a .LASF4873
C:\Users\CYMR90~1\AppData\Local\Temp\ccf145Mk.s:28482  .debug_str:0000000000021760 .LASF4874
C:\Users\CYMR90~1\AppData\Local\Temp\ccf145Mk.s:31346  .debug_str:000000000002ce4a .LASF4875
C:\Users\CYMR90~1\AppData\Local\Temp\ccf145Mk.s:20239  .debug_str:000000000000084c .LASF4876
C:\Users\CYMR90~1\AppData\Local\Temp\ccf145Mk.s:20185  .debug_str:000000000000050a .LASF4877
C:\Users\CYMR90~1\AppData\Local\Temp\ccf145Mk.s:27770  .debug_str:000000000001ebd2 .LASF4878
C:\Users\CYMR90~1\AppData\Local\Temp\ccf145Mk.s:22639  .debug_str:0000000000009ff3 .LASF4879
C:\Users\CYMR90~1\AppData\Local\Temp\ccf145Mk.s:21477  .debug_str:00000000000055b0 .LASF4880
C:\Users\CYMR90~1\AppData\Local\Temp\ccf145Mk.s:23987  .debug_str:000000000000f776 .LASF4881
C:\Users\CYMR90~1\AppData\Local\Temp\ccf145Mk.s:26240  .debug_str:0000000000018797 .LASF4882
C:\Users\CYMR90~1\AppData\Local\Temp\ccf145Mk.s:20745  .debug_str:00000000000026cc .LASF4883
C:\Users\CYMR90~1\AppData\Local\Temp\ccf145Mk.s:26488  .debug_str:0000000000019919 .LASF4884
C:\Users\CYMR90~1\AppData\Local\Temp\ccf145Mk.s:27826  .debug_str:000000000001ef24 .LASF4885
C:\Users\CYMR90~1\AppData\Local\Temp\ccf145Mk.s:20275  .debug_str:0000000000000ad6 .LASF4886
C:\Users\CYMR90~1\AppData\Local\Temp\ccf145Mk.s:21709  .debug_str:0000000000006390 .LASF4887
C:\Users\CYMR90~1\AppData\Local\Temp\ccf145Mk.s:24743  .debug_str:0000000000012828 .LASF4888
C:\Users\CYMR90~1\AppData\Local\Temp\ccf145Mk.s:27102  .debug_str:000000000001c0ae .LASF4889
C:\Users\CYMR90~1\AppData\Local\Temp\ccf145Mk.s:26490  .debug_str:0000000000019945 .LASF4890
C:\Users\CYMR90~1\AppData\Local\Temp\ccf145Mk.s:30866  .debug_str:000000000002aea0 .LASF4891
C:\Users\CYMR90~1\AppData\Local\Temp\ccf145Mk.s:23063  .debug_str:000000000000bc9b .LASF4892
C:\Users\CYMR90~1\AppData\Local\Temp\ccf145Mk.s:26074  .debug_str:0000000000017de7 .LASF4893
C:\Users\CYMR90~1\AppData\Local\Temp\ccf145Mk.s:25091  .debug_str:0000000000013e90 .LASF4894
C:\Users\CYMR90~1\AppData\Local\Temp\ccf145Mk.s:26060  .debug_str:0000000000017cf5 .LASF4895
C:\Users\CYMR90~1\AppData\Local\Temp\ccf145Mk.s:28274  .debug_str:0000000000020ac1 .LASF4896
C:\Users\CYMR90~1\AppData\Local\Temp\ccf145Mk.s:28278  .debug_str:0000000000020afa .LASF4897
C:\Users\CYMR90~1\AppData\Local\Temp\ccf145Mk.s:25205  .debug_str:0000000000014598 .LASF4898
C:\Users\CYMR90~1\AppData\Local\Temp\ccf145Mk.s:24159  .debug_str:000000000001020b .LASF4899
C:\Users\CYMR90~1\AppData\Local\Temp\ccf145Mk.s:30612  .debug_str:0000000000029f65 .LASF4900
C:\Users\CYMR90~1\AppData\Local\Temp\ccf145Mk.s:22251  .debug_str:000000000000878a .LASF4901
C:\Users\CYMR90~1\AppData\Local\Temp\ccf145Mk.s:24023  .debug_str:000000000000f95b .LASF4902
C:\Users\CYMR90~1\AppData\Local\Temp\ccf145Mk.s:20805  .debug_str:0000000000002adb .LASF4903
C:\Users\CYMR90~1\AppData\Local\Temp\ccf145Mk.s:24051  .debug_str:000000000000fb2c .LASF4904
C:\Users\CYMR90~1\AppData\Local\Temp\ccf145Mk.s:25868  .debug_str:000000000001714b .LASF4905
C:\Users\CYMR90~1\AppData\Local\Temp\ccf145Mk.s:23503  .debug_str:000000000000d904 .LASF4906
C:\Users\CYMR90~1\AppData\Local\Temp\ccf145Mk.s:25950  .debug_str:0000000000017631 .LASF4907
C:\Users\CYMR90~1\AppData\Local\Temp\ccf145Mk.s:22523  .debug_str:00000000000098eb .LASF4908
C:\Users\CYMR90~1\AppData\Local\Temp\ccf145Mk.s:25347  .debug_str:0000000000014eb8 .LASF4909
C:\Users\CYMR90~1\AppData\Local\Temp\ccf145Mk.s:22273  .debug_str:00000000000088f2 .LASF4910
C:\Users\CYMR90~1\AppData\Local\Temp\ccf145Mk.s:30956  .debug_str:000000000002b456 .LASF4911
C:\Users\CYMR90~1\AppData\Local\Temp\ccf145Mk.s:30864  .debug_str:000000000002ae7b .LASF4912
C:\Users\CYMR90~1\AppData\Local\Temp\ccf145Mk.s:29162  .debug_str:00000000000240a4 .LASF4913
C:\Users\CYMR90~1\AppData\Local\Temp\ccf145Mk.s:30850  .debug_str:000000000002adba .LASF4914
C:\Users\CYMR90~1\AppData\Local\Temp\ccf145Mk.s:26136  .debug_str:0000000000018158 .LASF4915
C:\Users\CYMR90~1\AppData\Local\Temp\ccf145Mk.s:30348  .debug_str:0000000000028fc5 .LASF4916
C:\Users\CYMR90~1\AppData\Local\Temp\ccf145Mk.s:30030  .debug_str:00000000000279f6 .LASF4917
C:\Users\CYMR90~1\AppData\Local\Temp\ccf145Mk.s:22499  .debug_str:0000000000009744 .LASF4918
C:\Users\CYMR90~1\AppData\Local\Temp\ccf145Mk.s:29776  .debug_str:00000000000269fa .LASF4919
C:\Users\CYMR90~1\AppData\Local\Temp\ccf145Mk.s:26118  .debug_str:0000000000018065 .LASF4920
C:\Users\CYMR90~1\AppData\Local\Temp\ccf145Mk.s:26026  .debug_str:0000000000017af3 .LASF4921
C:\Users\CYMR90~1\AppData\Local\Temp\ccf145Mk.s:29906  .debug_str:00000000000271b1 .LASF4922
C:\Users\CYMR90~1\AppData\Local\Temp\ccf145Mk.s:23907  .debug_str:000000000000f16e .LASF4923
C:\Users\CYMR90~1\AppData\Local\Temp\ccf145Mk.s:27276  .debug_str:000000000001cc20 .LASF4924
C:\Users\CYMR90~1\AppData\Local\Temp\ccf145Mk.s:26314  .debug_str:0000000000018d19 .LASF4925
C:\Users\CYMR90~1\AppData\Local\Temp\ccf145Mk.s:23225  .debug_str:000000000000c73a .LASF4926
C:\Users\CYMR90~1\AppData\Local\Temp\ccf145Mk.s:29424  .debug_str:00000000000252d3 .LASF4927
C:\Users\CYMR90~1\AppData\Local\Temp\ccf145Mk.s:22631  .debug_str:0000000000009f7d .LASF4928
C:\Users\CYMR90~1\AppData\Local\Temp\ccf145Mk.s:29244  .debug_str:00000000000245fc .LASF4929
C:\Users\CYMR90~1\AppData\Local\Temp\ccf145Mk.s:27044  .debug_str:000000000001bce8 .LASF4930
C:\Users\CYMR90~1\AppData\Local\Temp\ccf145Mk.s:23365  .debug_str:000000000000cfeb .LASF4931
C:\Users\CYMR90~1\AppData\Local\Temp\ccf145Mk.s:24227  .debug_str:00000000000106b1 .LASF4932
C:\Users\CYMR90~1\AppData\Local\Temp\ccf145Mk.s:20589  .debug_str:0000000000001d8f .LASF4933
C:\Users\CYMR90~1\AppData\Local\Temp\ccf145Mk.s:25816  .debug_str:0000000000016e79 .LASF4934
C:\Users\CYMR90~1\AppData\Local\Temp\ccf145Mk.s:27122  .debug_str:000000000001c1be .LASF4935
C:\Users\CYMR90~1\AppData\Local\Temp\ccf145Mk.s:25245  .debug_str:000000000001481c .LASF4936
C:\Users\CYMR90~1\AppData\Local\Temp\ccf145Mk.s:21193  .debug_str:00000000000043d1 .LASF4937
C:\Users\CYMR90~1\AppData\Local\Temp\ccf145Mk.s:26768  .debug_str:000000000001abb9 .LASF4938
C:\Users\CYMR90~1\AppData\Local\Temp\ccf145Mk.s:29520  .debug_str:00000000000259fb .LASF4939
C:\Users\CYMR90~1\AppData\Local\Temp\ccf145Mk.s:23961  .debug_str:000000000000f550 .LASF4940
C:\Users\CYMR90~1\AppData\Local\Temp\ccf145Mk.s:23057  .debug_str:000000000000bc07 .LASF4941
C:\Users\CYMR90~1\AppData\Local\Temp\ccf145Mk.s:20105  .debug_str:000000000000006a .LASF4942
C:\Users\CYMR90~1\AppData\Local\Temp\ccf145Mk.s:30336  .debug_str:0000000000028f0f .LASF4943
C:\Users\CYMR90~1\AppData\Local\Temp\ccf145Mk.s:28950  .debug_str:00000000000232f5 .LASF4944
C:\Users\CYMR90~1\AppData\Local\Temp\ccf145Mk.s:31064  .debug_str:000000000002bb55 .LASF4945
C:\Users\CYMR90~1\AppData\Local\Temp\ccf145Mk.s:25481  .debug_str:0000000000015667 .LASF4946
C:\Users\CYMR90~1\AppData\Local\Temp\ccf145Mk.s:23015  .debug_str:000000000000b944 .LASF4947
C:\Users\CYMR90~1\AppData\Local\Temp\ccf145Mk.s:25337  .debug_str:0000000000014e0d .LASF4948
C:\Users\CYMR90~1\AppData\Local\Temp\ccf145Mk.s:22969  .debug_str:000000000000b62d .LASF4949
C:\Users\CYMR90~1\AppData\Local\Temp\ccf145Mk.s:25527  .debug_str:0000000000015931 .LASF4950
C:\Users\CYMR90~1\AppData\Local\Temp\ccf145Mk.s:24427  .debug_str:00000000000112f2 .LASF4951
C:\Users\CYMR90~1\AppData\Local\Temp\ccf145Mk.s:29698  .debug_str:000000000002651e .LASF4952
C:\Users\CYMR90~1\AppData\Local\Temp\ccf145Mk.s:24667  .debug_str:0000000000012346 .LASF4953
C:\Users\CYMR90~1\AppData\Local\Temp\ccf145Mk.s:25403  .debug_str:0000000000015232 .LASF4954
C:\Users\CYMR90~1\AppData\Local\Temp\ccf145Mk.s:24339  .debug_str:0000000000010dde .LASF4955
C:\Users\CYMR90~1\AppData\Local\Temp\ccf145Mk.s:30218  .debug_str:00000000000287ec .LASF4956
C:\Users\CYMR90~1\AppData\Local\Temp\ccf145Mk.s:21985  .debug_str:000000000000752d .LASF4957
C:\Users\CYMR90~1\AppData\Local\Temp\ccf145Mk.s:31112  .debug_str:000000000002be60 .LASF4958
C:\Users\CYMR90~1\AppData\Local\Temp\ccf145Mk.s:31126  .debug_str:000000000002bfb1 .LASF4959
C:\Users\CYMR90~1\AppData\Local\Temp\ccf145Mk.s:28302  .debug_str:0000000000020c83 .LASF4960
C:\Users\CYMR90~1\AppData\Local\Temp\ccf145Mk.s:20299  .debug_str:0000000000000c34 .LASF4961
C:\Users\CYMR90~1\AppData\Local\Temp\ccf145Mk.s:23009  .debug_str:000000000000b8fb .LASF4962
C:\Users\CYMR90~1\AppData\Local\Temp\ccf145Mk.s:27752  .debug_str:000000000001eac1 .LASF4963
C:\Users\CYMR90~1\AppData\Local\Temp\ccf145Mk.s:21717  .debug_str:00000000000063fb .LASF4964
C:\Users\CYMR90~1\AppData\Local\Temp\ccf145Mk.s:22173  .debug_str:00000000000082a7 .LASF4965
C:\Users\CYMR90~1\AppData\Local\Temp\ccf145Mk.s:24855  .debug_str:0000000000012f8a .LASF4966
C:\Users\CYMR90~1\AppData\Local\Temp\ccf145Mk.s:24275  .debug_str:0000000000010957 .LASF4967
C:\Users\CYMR90~1\AppData\Local\Temp\ccf145Mk.s:28592  .debug_str:0000000000021e12 .LASF4968
C:\Users\CYMR90~1\AppData\Local\Temp\ccf145Mk.s:27630  .debug_str:000000000001e386 .LASF4969
C:\Users\CYMR90~1\AppData\Local\Temp\ccf145Mk.s:21397  .debug_str:000000000000510f .LASF4970
C:\Users\CYMR90~1\AppData\Local\Temp\ccf145Mk.s:28428  .debug_str:0000000000021425 .LASF4971
C:\Users\CYMR90~1\AppData\Local\Temp\ccf145Mk.s:31272  .debug_str:000000000002c945 .LASF4972
C:\Users\CYMR90~1\AppData\Local\Temp\ccf145Mk.s:21629  .debug_str:0000000000005ea6 .LASF4973
C:\Users\CYMR90~1\AppData\Local\Temp\ccf145Mk.s:26574  .debug_str:0000000000019e39 .LASF4974
C:\Users\CYMR90~1\AppData\Local\Temp\ccf145Mk.s:25413  .debug_str:000000000001529b .LASF4975
C:\Users\CYMR90~1\AppData\Local\Temp\ccf145Mk.s:28074  .debug_str:000000000001fe64 .LASF4976
C:\Users\CYMR90~1\AppData\Local\Temp\ccf145Mk.s:30250  .debug_str:00000000000289e2 .LASF4977
C:\Users\CYMR90~1\AppData\Local\Temp\ccf145Mk.s:25069  .debug_str:0000000000013d31 .LASF4978
C:\Users\CYMR90~1\AppData\Local\Temp\ccf145Mk.s:25003  .debug_str:0000000000013960 .LASF4979
C:\Users\CYMR90~1\AppData\Local\Temp\ccf145Mk.s:20697  .debug_str:00000000000023b4 .LASF4980
C:\Users\CYMR90~1\AppData\Local\Temp\ccf145Mk.s:27682  .debug_str:000000000001e6b7 .LASF4981
C:\Users\CYMR90~1\AppData\Local\Temp\ccf145Mk.s:27142  .debug_str:000000000001c2db .LASF4982
C:\Users\CYMR90~1\AppData\Local\Temp\ccf145Mk.s:29474  .debug_str:0000000000025673 .LASF4983
C:\Users\CYMR90~1\AppData\Local\Temp\ccf145Mk.s:21769  .debug_str:000000000000675d .LASF4984
C:\Users\CYMR90~1\AppData\Local\Temp\ccf145Mk.s:20555  .debug_str:0000000000001b82 .LASF4985
C:\Users\CYMR90~1\AppData\Local\Temp\ccf145Mk.s:22361  .debug_str:0000000000008e94 .LASF4986
C:\Users\CYMR90~1\AppData\Local\Temp\ccf145Mk.s:22525  .debug_str:000000000000990e .LASF4987
C:\Users\CYMR90~1\AppData\Local\Temp\ccf145Mk.s:20567  .debug_str:0000000000001c23 .LASF4988
C:\Users\CYMR90~1\AppData\Local\Temp\ccf145Mk.s:31152  .debug_str:000000000002c14c .LASF4989
C:\Users\CYMR90~1\AppData\Local\Temp\ccf145Mk.s:25289  .debug_str:0000000000014aaf .LASF4990
C:\Users\CYMR90~1\AppData\Local\Temp\ccf145Mk.s:25687  .debug_str:00000000000163a1 .LASF4991
C:\Users\CYMR90~1\AppData\Local\Temp\ccf145Mk.s:24789  .debug_str:0000000000012b43 .LASF4992
C:\Users\CYMR90~1\AppData\Local\Temp\ccf145Mk.s:22851  .debug_str:000000000000aeb2 .LASF4993
C:\Users\CYMR90~1\AppData\Local\Temp\ccf145Mk.s:25351  .debug_str:0000000000014efd .LASF4994
C:\Users\CYMR90~1\AppData\Local\Temp\ccf145Mk.s:21905  .debug_str:000000000000702f .LASF4995
C:\Users\CYMR90~1\AppData\Local\Temp\ccf145Mk.s:26114  .debug_str:0000000000018028 .LASF4996
C:\Users\CYMR90~1\AppData\Local\Temp\ccf145Mk.s:24009  .debug_str:000000000000f8b0 .LASF4997
C:\Users\CYMR90~1\AppData\Local\Temp\ccf145Mk.s:25511  .debug_str:0000000000015843 .LASF4998
C:\Users\CYMR90~1\AppData\Local\Temp\ccf145Mk.s:22049  .debug_str:0000000000007974 .LASF4999
C:\Users\CYMR90~1\AppData\Local\Temp\ccf145Mk.s:26790  .debug_str:000000000001ad06 .LASF5000
C:\Users\CYMR90~1\AppData\Local\Temp\ccf145Mk.s:31404  .debug_str:000000000002d1c5 .LASF5001
C:\Users\CYMR90~1\AppData\Local\Temp\ccf145Mk.s:20989  .debug_str:0000000000003669 .LASF5002
C:\Users\CYMR90~1\AppData\Local\Temp\ccf145Mk.s:24649  .debug_str:000000000001220a .LASF5003
C:\Users\CYMR90~1\AppData\Local\Temp\ccf145Mk.s:28788  .debug_str:0000000000022982 .LASF5004
C:\Users\CYMR90~1\AppData\Local\Temp\ccf145Mk.s:21353  .debug_str:0000000000004e6a .LASF5005
C:\Users\CYMR90~1\AppData\Local\Temp\ccf145Mk.s:22575  .debug_str:0000000000009bff .LASF5006
C:\Users\CYMR90~1\AppData\Local\Temp\ccf145Mk.s:22521  .debug_str:00000000000098ca .LASF5007
C:\Users\CYMR90~1\AppData\Local\Temp\ccf145Mk.s:23425  .debug_str:000000000000d442 .LASF5008
C:\Users\CYMR90~1\AppData\Local\Temp\ccf145Mk.s:20645  .debug_str:0000000000002074 .LASF5009
C:\Users\CYMR90~1\AppData\Local\Temp\ccf145Mk.s:28558  .debug_str:0000000000021c13 .LASF5010
C:\Users\CYMR90~1\AppData\Local\Temp\ccf145Mk.s:28192  .debug_str:00000000000205bc .LASF5011
C:\Users\CYMR90~1\AppData\Local\Temp\ccf145Mk.s:29916  .debug_str:000000000002728f .LASF5012
C:\Users\CYMR90~1\AppData\Local\Temp\ccf145Mk.s:20513  .debug_str:00000000000018e3 .LASF5013
C:\Users\CYMR90~1\AppData\Local\Temp\ccf145Mk.s:24031  .debug_str:000000000000f9e2 .LASF5014
C:\Users\CYMR90~1\AppData\Local\Temp\ccf145Mk.s:22407  .debug_str:0000000000009147 .LASF5015
C:\Users\CYMR90~1\AppData\Local\Temp\ccf145Mk.s:29360  .debug_str:0000000000024dc8 .LASF5016
C:\Users\CYMR90~1\AppData\Local\Temp\ccf145Mk.s:30832  .debug_str:000000000002ac88 .LASF5017
C:\Users\CYMR90~1\AppData\Local\Temp\ccf145Mk.s:25840  .debug_str:0000000000016fe7 .LASF5018
C:\Users\CYMR90~1\AppData\Local\Temp\ccf145Mk.s:25954  .debug_str:0000000000017678 .LASF5019
C:\Users\CYMR90~1\AppData\Local\Temp\ccf145Mk.s:27498  .debug_str:000000000001db0c .LASF5020
C:\Users\CYMR90~1\AppData\Local\Temp\ccf145Mk.s:22649  .debug_str:000000000000a0a4 .LASF5021
C:\Users\CYMR90~1\AppData\Local\Temp\ccf145Mk.s:27936  .debug_str:000000000001f5c8 .LASF5022
C:\Users\CYMR90~1\AppData\Local\Temp\ccf145Mk.s:29124  .debug_str:0000000000023dd6 .LASF5023
C:\Users\CYMR90~1\AppData\Local\Temp\ccf145Mk.s:24781  .debug_str:0000000000012ad6 .LASF5024
C:\Users\CYMR90~1\AppData\Local\Temp\ccf145Mk.s:20993  .debug_str:00000000000036a2 .LASF5025
C:\Users\CYMR90~1\AppData\Local\Temp\ccf145Mk.s:24945  .debug_str:00000000000135c7 .LASF5026
C:\Users\CYMR90~1\AppData\Local\Temp\ccf145Mk.s:30066  .debug_str:0000000000027c98 .LASF5027
C:\Users\CYMR90~1\AppData\Local\Temp\ccf145Mk.s:24443  .debug_str:00000000000113e5 .LASF5028
C:\Users\CYMR90~1\AppData\Local\Temp\ccf145Mk.s:22963  .debug_str:000000000000b5c7 .LASF5029
C:\Users\CYMR90~1\AppData\Local\Temp\ccf145Mk.s:29114  .debug_str:0000000000023d18 .LASF5030
C:\Users\CYMR90~1\AppData\Local\Temp\ccf145Mk.s:29222  .debug_str:00000000000244bf .LASF5031
C:\Users\CYMR90~1\AppData\Local\Temp\ccf145Mk.s:25483  .debug_str:000000000001567d .LASF5032
C:\Users\CYMR90~1\AppData\Local\Temp\ccf145Mk.s:21017  .debug_str:000000000000381f .LASF5033
C:\Users\CYMR90~1\AppData\Local\Temp\ccf145Mk.s:25818  .debug_str:0000000000016ea3 .LASF5034
C:\Users\CYMR90~1\AppData\Local\Temp\ccf145Mk.s:20961  .debug_str:00000000000034b9 .LASF5035
C:\Users\CYMR90~1\AppData\Local\Temp\ccf145Mk.s:21289  .debug_str:0000000000004a87 .LASF5036
C:\Users\CYMR90~1\AppData\Local\Temp\ccf145Mk.s:21681  .debug_str:00000000000061d9 .LASF5037
C:\Users\CYMR90~1\AppData\Local\Temp\ccf145Mk.s:29710  .debug_str:00000000000265e4 .LASF5038
C:\Users\CYMR90~1\AppData\Local\Temp\ccf145Mk.s:29958  .debug_str:00000000000275c1 .LASF5039
C:\Users\CYMR90~1\AppData\Local\Temp\ccf145Mk.s:20211  .debug_str:000000000000069d .LASF5040
C:\Users\CYMR90~1\AppData\Local\Temp\ccf145Mk.s:26704  .debug_str:000000000001a7e7 .LASF5041
C:\Users\CYMR90~1\AppData\Local\Temp\ccf145Mk.s:31092  .debug_str:000000000002bd26 .LASF5042
C:\Users\CYMR90~1\AppData\Local\Temp\ccf145Mk.s:22837  .debug_str:000000000000ad30 .LASF5043
C:\Users\CYMR90~1\AppData\Local\Temp\ccf145Mk.s:21763  .debug_str:0000000000006705 .LASF5044
C:\Users\CYMR90~1\AppData\Local\Temp\ccf145Mk.s:30016  .debug_str:00000000000278f2 .LASF5045
C:\Users\CYMR90~1\AppData\Local\Temp\ccf145Mk.s:26728  .debug_str:000000000001a94e .LASF5046
C:\Users\CYMR90~1\AppData\Local\Temp\ccf145Mk.s:27842  .debug_str:000000000001f02d .LASF5047
C:\Users\CYMR90~1\AppData\Local\Temp\ccf145Mk.s:26980  .debug_str:000000000001b8be .LASF5048
C:\Users\CYMR90~1\AppData\Local\Temp\ccf145Mk.s:21475  .debug_str:0000000000005597 .LASF5049
C:\Users\CYMR90~1\AppData\Local\Temp\ccf145Mk.s:28884  .debug_str:0000000000022f6e .LASF5050
C:\Users\CYMR90~1\AppData\Local\Temp\ccf145Mk.s:28902  .debug_str:000000000002303d .LASF5051
C:\Users\CYMR90~1\AppData\Local\Temp\ccf145Mk.s:29396  .debug_str:0000000000025002 .LASF5052
C:\Users\CYMR90~1\AppData\Local\Temp\ccf145Mk.s:30324  .debug_str:0000000000028e1e .LASF5053
C:\Users\CYMR90~1\AppData\Local\Temp\ccf145Mk.s:28942  .debug_str:0000000000023288 .LASF5054
C:\Users\CYMR90~1\AppData\Local\Temp\ccf145Mk.s:30444  .debug_str:0000000000029585 .LASF5055
C:\Users\CYMR90~1\AppData\Local\Temp\ccf145Mk.s:24861  .debug_str:0000000000012fe8 .LASF5056
C:\Users\CYMR90~1\AppData\Local\Temp\ccf145Mk.s:24689  .debug_str:000000000001249b .LASF5057
C:\Users\CYMR90~1\AppData\Local\Temp\ccf145Mk.s:28468  .debug_str:0000000000021683 .LASF5058
C:\Users\CYMR90~1\AppData\Local\Temp\ccf145Mk.s:31374  .debug_str:000000000002cfc3 .LASF5059
C:\Users\CYMR90~1\AppData\Local\Temp\ccf145Mk.s:24865  .debug_str:000000000001302c .LASF5060
C:\Users\CYMR90~1\AppData\Local\Temp\ccf145Mk.s:26030  .debug_str:0000000000017b30 .LASF5061
C:\Users\CYMR90~1\AppData\Local\Temp\ccf145Mk.s:21347  .debug_str:0000000000004e12 .LASF5062
C:\Users\CYMR90~1\AppData\Local\Temp\ccf145Mk.s:28452  .debug_str:000000000002158c .LASF5063
C:\Users\CYMR90~1\AppData\Local\Temp\ccf145Mk.s:25755  .debug_str:0000000000016888 .LASF5064
C:\Users\CYMR90~1\AppData\Local\Temp\ccf145Mk.s:20861  .debug_str:0000000000002e25 .LASF5065
C:\Users\CYMR90~1\AppData\Local\Temp\ccf145Mk.s:27746  .debug_str:000000000001ea73 .LASF5066
C:\Users\CYMR90~1\AppData\Local\Temp\ccf145Mk.s:28694  .debug_str:00000000000223d1 .LASF5067
C:\Users\CYMR90~1\AppData\Local\Temp\ccf145Mk.s:21635  .debug_str:0000000000005f18 .LASF5068
C:\Users\CYMR90~1\AppData\Local\Temp\ccf145Mk.s:29154  .debug_str:0000000000023f74 .LASF5069
C:\Users\CYMR90~1\AppData\Local\Temp\ccf145Mk.s:27378  .debug_str:000000000001d375 .LASF5070
C:\Users\CYMR90~1\AppData\Local\Temp\ccf145Mk.s:27358  .debug_str:000000000001d242 .LASF5071
C:\Users\CYMR90~1\AppData\Local\Temp\ccf145Mk.s:28474  .debug_str:0000000000021701 .LASF5072
C:\Users\CYMR90~1\AppData\Local\Temp\ccf145Mk.s:24737  .debug_str:00000000000127ba .LASF5073
C:\Users\CYMR90~1\AppData\Local\Temp\ccf145Mk.s:26130  .debug_str:0000000000018114 .LASF5074
C:\Users\CYMR90~1\AppData\Local\Temp\ccf145Mk.s:21931  .debug_str:000000000000720a .LASF5075
C:\Users\CYMR90~1\AppData\Local\Temp\ccf145Mk.s:26710  .debug_str:000000000001a831 .LASF5076
C:\Users\CYMR90~1\AppData\Local\Temp\ccf145Mk.s:30562  .debug_str:0000000000029c9d .LASF5077
C:\Users\CYMR90~1\AppData\Local\Temp\ccf145Mk.s:23205  .debug_str:000000000000c5a9 .LASF5078
C:\Users\CYMR90~1\AppData\Local\Temp\ccf145Mk.s:22821  .debug_str:000000000000abf3 .LASF5079
C:\Users\CYMR90~1\AppData\Local\Temp\ccf145Mk.s:23837  .debug_str:000000000000ed0a .LASF5080
C:\Users\CYMR90~1\AppData\Local\Temp\ccf145Mk.s:21803  .debug_str:0000000000006982 .LASF5081
C:\Users\CYMR90~1\AppData\Local\Temp\ccf145Mk.s:28116  .debug_str:000000000002009b .LASF5082
C:\Users\CYMR90~1\AppData\Local\Temp\ccf145Mk.s:20701  .debug_str:00000000000023ea .LASF5083
C:\Users\CYMR90~1\AppData\Local\Temp\ccf145Mk.s:28930  .debug_str:00000000000231c0 .LASF5084
C:\Users\CYMR90~1\AppData\Local\Temp\ccf145Mk.s:25741  .debug_str:000000000001675e .LASF5085
C:\Users\CYMR90~1\AppData\Local\Temp\ccf145Mk.s:30788  .debug_str:000000000002aa0a .LASF5086
C:\Users\CYMR90~1\AppData\Local\Temp\ccf145Mk.s:24029  .debug_str:000000000000f9c2 .LASF5087
C:\Users\CYMR90~1\AppData\Local\Temp\ccf145Mk.s:30108  .debug_str:0000000000027f6a .LASF5088
C:\Users\CYMR90~1\AppData\Local\Temp\ccf145Mk.s:22009  .debug_str:00000000000076c7 .LASF5089
C:\Users\CYMR90~1\AppData\Local\Temp\ccf145Mk.s:23443  .debug_str:000000000000d5a0 .LASF5090
C:\Users\CYMR90~1\AppData\Local\Temp\ccf145Mk.s:31282  .debug_str:000000000002c9d3 .LASF5091
C:\Users\CYMR90~1\AppData\Local\Temp\ccf145Mk.s:23069  .debug_str:000000000000bd14 .LASF5092
C:\Users\CYMR90~1\AppData\Local\Temp\ccf145Mk.s:22623  .debug_str:0000000000009f10 .LASF5093
C:\Users\CYMR90~1\AppData\Local\Temp\ccf145Mk.s:30020  .debug_str:000000000002794a .LASF5094
C:\Users\CYMR90~1\AppData\Local\Temp\ccf145Mk.s:24483  .debug_str:0000000000011684 .LASF5095
C:\Users\CYMR90~1\AppData\Local\Temp\ccf145Mk.s:21265  .debug_str:0000000000004916 .LASF5096
C:\Users\CYMR90~1\AppData\Local\Temp\ccf145Mk.s:22567  .debug_str:0000000000009b79 .LASF5097
C:\Users\CYMR90~1\AppData\Local\Temp\ccf145Mk.s:26358  .debug_str:0000000000019084 .LASF5098
C:\Users\CYMR90~1\AppData\Local\Temp\ccf145Mk.s:27320  .debug_str:000000000001cff8 .LASF5099
C:\Users\CYMR90~1\AppData\Local\Temp\ccf145Mk.s:27540  .debug_str:000000000001de59 .LASF5100
C:\Users\CYMR90~1\AppData\Local\Temp\ccf145Mk.s:23285  .debug_str:000000000000cb01 .LASF5101
C:\Users\CYMR90~1\AppData\Local\Temp\ccf145Mk.s:25539  .debug_str:00000000000159d6 .LASF5102
C:\Users\CYMR90~1\AppData\Local\Temp\ccf145Mk.s:23675  .debug_str:000000000000e335 .LASF5103
C:\Users\CYMR90~1\AppData\Local\Temp\ccf145Mk.s:26532  .debug_str:0000000000019bc9 .LASF5104
C:\Users\CYMR90~1\AppData\Local\Temp\ccf145Mk.s:26274  .debug_str:00000000000189da .LASF5105
C:\Users\CYMR90~1\AppData\Local\Temp\ccf145Mk.s:29006  .debug_str:00000000000236bd .LASF5106
C:\Users\CYMR90~1\AppData\Local\Temp\ccf145Mk.s:21225  .debug_str:00000000000045ea .LASF5107
C:\Users\CYMR90~1\AppData\Local\Temp\ccf145Mk.s:20281  .debug_str:0000000000000b39 .LASF5108
C:\Users\CYMR90~1\AppData\Local\Temp\ccf145Mk.s:24573  .debug_str:0000000000011d03 .LASF5109
C:\Users\CYMR90~1\AppData\Local\Temp\ccf145Mk.s:25311  .debug_str:0000000000014c13 .LASF5110
C:\Users\CYMR90~1\AppData\Local\Temp\ccf145Mk.s:31154  .debug_str:000000000002c164 .LASF5111
C:\Users\CYMR90~1\AppData\Local\Temp\ccf145Mk.s:23653  .debug_str:000000000000e1f7 .LASF5112
C:\Users\CYMR90~1\AppData\Local\Temp\ccf145Mk.s:22711  .debug_str:000000000000a45e .LASF5113
C:\Users\CYMR90~1\AppData\Local\Temp\ccf145Mk.s:26364  .debug_str:00000000000190e6 .LASF5114
C:\Users\CYMR90~1\AppData\Local\Temp\ccf145Mk.s:23613  .debug_str:000000000000df81 .LASF5115
C:\Users\CYMR90~1\AppData\Local\Temp\ccf145Mk.s:31204  .debug_str:000000000002c4fd .LASF5116
C:\Users\CYMR90~1\AppData\Local\Temp\ccf145Mk.s:20517  .debug_str:0000000000001921 .LASF5117
C:\Users\CYMR90~1\AppData\Local\Temp\ccf145Mk.s:30098  .debug_str:0000000000027eb9 .LASF5118
C:\Users\CYMR90~1\AppData\Local\Temp\ccf145Mk.s:27440  .debug_str:000000000001d7a8 .LASF5119
C:\Users\CYMR90~1\AppData\Local\Temp\ccf145Mk.s:25798  .debug_str:0000000000016d40 .LASF5120
C:\Users\CYMR90~1\AppData\Local\Temp\ccf145Mk.s:22671  .debug_str:000000000000a223 .LASF5121
C:\Users\CYMR90~1\AppData\Local\Temp\ccf145Mk.s:28514  .debug_str:000000000002191f .LASF5122
C:\Users\CYMR90~1\AppData\Local\Temp\ccf145Mk.s:24867  .debug_str:000000000001304c .LASF5123
C:\Users\CYMR90~1\AppData\Local\Temp\ccf145Mk.s:26260  .debug_str:00000000000188e8 .LASF5124
C:\Users\CYMR90~1\AppData\Local\Temp\ccf145Mk.s:24967  .debug_str:0000000000013733 .LASF5125
C:\Users\CYMR90~1\AppData\Local\Temp\ccf145Mk.s:29194  .debug_str:00000000000242d2 .LASF5126
C:\Users\CYMR90~1\AppData\Local\Temp\ccf145Mk.s:22463  .debug_str:00000000000094d7 .LASF5127
C:\Users\CYMR90~1\AppData\Local\Temp\ccf145Mk.s:20763  .debug_str:00000000000027fe .LASF5128
C:\Users\CYMR90~1\AppData\Local\Temp\ccf145Mk.s:24543  .debug_str:0000000000011b61 .LASF5129
C:\Users\CYMR90~1\AppData\Local\Temp\ccf145Mk.s:28072  .debug_str:000000000001fe39 .LASF5130
C:\Users\CYMR90~1\AppData\Local\Temp\ccf145Mk.s:20907  .debug_str:0000000000003134 .LASF5131
C:\Users\CYMR90~1\AppData\Local\Temp\ccf145Mk.s:28004  .debug_str:000000000001f9d1 .LASF5132
C:\Users\CYMR90~1\AppData\Local\Temp\ccf145Mk.s:24953  .debug_str:0000000000013663 .LASF5133
C:\Users\CYMR90~1\AppData\Local\Temp\ccf145Mk.s:30438  .debug_str:0000000000029526 .LASF5134
C:\Users\CYMR90~1\AppData\Local\Temp\ccf145Mk.s:22655  .debug_str:000000000000a0fb .LASF5135
C:\Users\CYMR90~1\AppData\Local\Temp\ccf145Mk.s:26354  .debug_str:0000000000019031 .LASF5136
C:\Users\CYMR90~1\AppData\Local\Temp\ccf145Mk.s:30690  .debug_str:000000000002a3e0 .LASF5137
C:\Users\CYMR90~1\AppData\Local\Temp\ccf145Mk.s:21719  .debug_str:0000000000006412 .LASF5138
C:\Users\CYMR90~1\AppData\Local\Temp\ccf145Mk.s:30684  .debug_str:000000000002a377 .LASF5139
C:\Users\CYMR90~1\AppData\Local\Temp\ccf145Mk.s:20839  .debug_str:0000000000002cd0 .LASF5140
C:\Users\CYMR90~1\AppData\Local\Temp\ccf145Mk.s:26794  .debug_str:000000000001ad43 .LASF5141
C:\Users\CYMR90~1\AppData\Local\Temp\ccf145Mk.s:23937  .debug_str:000000000000f342 .LASF5142
C:\Users\CYMR90~1\AppData\Local\Temp\ccf145Mk.s:25127  .debug_str:00000000000140f5 .LASF5143
C:\Users\CYMR90~1\AppData\Local\Temp\ccf145Mk.s:30330  .debug_str:0000000000028e84 .LASF5144
C:\Users\CYMR90~1\AppData\Local\Temp\ccf145Mk.s:22379  .debug_str:0000000000008f8e .LASF5145
C:\Users\CYMR90~1\AppData\Local\Temp\ccf145Mk.s:27294  .debug_str:000000000001cdcb .LASF5146
C:\Users\CYMR90~1\AppData\Local\Temp\ccf145Mk.s:30732  .debug_str:000000000002a6b5 .LASF5147
C:\Users\CYMR90~1\AppData\Local\Temp\ccf145Mk.s:21219  .debug_str:0000000000004572 .LASF5148
C:\Users\CYMR90~1\AppData\Local\Temp\ccf145Mk.s:29478  .debug_str:00000000000256ba .LASF5149
C:\Users\CYMR90~1\AppData\Local\Temp\ccf145Mk.s:27958  .debug_str:000000000001f6e5 .LASF5150
C:\Users\CYMR90~1\AppData\Local\Temp\ccf145Mk.s:27120  .debug_str:000000000001c196 .LASF5151
C:\Users\CYMR90~1\AppData\Local\Temp\ccf145Mk.s:28096  .debug_str:000000000001ff96 .LASF5152
C:\Users\CYMR90~1\AppData\Local\Temp\ccf145Mk.s:31352  .debug_str:000000000002ceaa .LASF5153
C:\Users\CYMR90~1\AppData\Local\Temp\ccf145Mk.s:20965  .debug_str:00000000000034e8 .LASF5154
C:\Users\CYMR90~1\AppData\Local\Temp\ccf145Mk.s:27704  .debug_str:000000000001e827 .LASF5155
C:\Users\CYMR90~1\AppData\Local\Temp\ccf145Mk.s:28484  .debug_str:000000000002178c .LASF5156
C:\Users\CYMR90~1\AppData\Local\Temp\ccf145Mk.s:20537  .debug_str:0000000000001a5b .LASF5157
C:\Users\CYMR90~1\AppData\Local\Temp\ccf145Mk.s:24777  .debug_str:0000000000012a89 .LASF5158
C:\Users\CYMR90~1\AppData\Local\Temp\ccf145Mk.s:26064  .debug_str:0000000000017d3a .LASF5159
C:\Users\CYMR90~1\AppData\Local\Temp\ccf145Mk.s:24283  .debug_str:0000000000010a05 .LASF5160
C:\Users\CYMR90~1\AppData\Local\Temp\ccf145Mk.s:26166  .debug_str:000000000001831d .LASF5161
C:\Users\CYMR90~1\AppData\Local\Temp\ccf145Mk.s:26750  .debug_str:000000000001aace .LASF5162
C:\Users\CYMR90~1\AppData\Local\Temp\ccf145Mk.s:28102  .debug_str:000000000001fff7 .LASF5163
C:\Users\CYMR90~1\AppData\Local\Temp\ccf145Mk.s:31390  .debug_str:000000000002d0ea .LASF5164
C:\Users\CYMR90~1\AppData\Local\Temp\ccf145Mk.s:25239  .debug_str:000000000001479a .LASF5165
C:\Users\CYMR90~1\AppData\Local\Temp\ccf145Mk.s:26606  .debug_str:000000000001a022 .LASF5166
C:\Users\CYMR90~1\AppData\Local\Temp\ccf145Mk.s:21437  .debug_str:0000000000005378 .LASF5167
C:\Users\CYMR90~1\AppData\Local\Temp\ccf145Mk.s:29216  .debug_str:0000000000024438 .LASF5168
C:\Users\CYMR90~1\AppData\Local\Temp\ccf145Mk.s:30102  .debug_str:0000000000027efc .LASF5169
C:\Users\CYMR90~1\AppData\Local\Temp\ccf145Mk.s:22029  .debug_str:0000000000007809 .LASF5170
C:\Users\CYMR90~1\AppData\Local\Temp\ccf145Mk.s:31162  .debug_str:000000000002c20b .LASF5171
C:\Users\CYMR90~1\AppData\Local\Temp\ccf145Mk.s:23791  .debug_str:000000000000eab4 .LASF5172
C:\Users\CYMR90~1\AppData\Local\Temp\ccf145Mk.s:25986  .debug_str:0000000000017893 .LASF5173
C:\Users\CYMR90~1\AppData\Local\Temp\ccf145Mk.s:22135  .debug_str:000000000000802d .LASF5174
C:\Users\CYMR90~1\AppData\Local\Temp\ccf145Mk.s:21733  .debug_str:00000000000064ee .LASF5175
C:\Users\CYMR90~1\AppData\Local\Temp\ccf145Mk.s:21339  .debug_str:0000000000004d87 .LASF5176
C:\Users\CYMR90~1\AppData\Local\Temp\ccf145Mk.s:29926  .debug_str:00000000000273c8 .LASF5177
C:\Users\CYMR90~1\AppData\Local\Temp\ccf145Mk.s:26106  .debug_str:0000000000017f90 .LASF5178
C:\Users\CYMR90~1\AppData\Local\Temp\ccf145Mk.s:22205  .debug_str:000000000000847d .LASF5179
C:\Users\CYMR90~1\AppData\Local\Temp\ccf145Mk.s:23233  .debug_str:000000000000c7cc .LASF5180
C:\Users\CYMR90~1\AppData\Local\Temp\ccf145Mk.s:27686  .debug_str:000000000001e6ff .LASF5181
C:\Users\CYMR90~1\AppData\Local\Temp\ccf145Mk.s:22377  .debug_str:0000000000008f5d .LASF5182
C:\Users\CYMR90~1\AppData\Local\Temp\ccf145Mk.s:30890  .debug_str:000000000002afeb .LASF5183
C:\Users\CYMR90~1\AppData\Local\Temp\ccf145Mk.s:27676  .debug_str:000000000001e623 .LASF5184
C:\Users\CYMR90~1\AppData\Local\Temp\ccf145Mk.s:22225  .debug_str:00000000000085bb .LASF5185
C:\Users\CYMR90~1\AppData\Local\Temp\ccf145Mk.s:30012  .debug_str:00000000000278c0 .LASF5186
C:\Users\CYMR90~1\AppData\Local\Temp\ccf145Mk.s:20873  .debug_str:0000000000002edf .LASF5187
C:\Users\CYMR90~1\AppData\Local\Temp\ccf145Mk.s:28014  .debug_str:000000000001fa77 .LASF5188
C:\Users\CYMR90~1\AppData\Local\Temp\ccf145Mk.s:30298  .debug_str:0000000000028cc2 .LASF5189
C:\Users\CYMR90~1\AppData\Local\Temp\ccf145Mk.s:21319  .debug_str:0000000000004c5d .LASF5190
C:\Users\CYMR90~1\AppData\Local\Temp\ccf145Mk.s:21655  .debug_str:0000000000006061 .LASF5191
C:\Users\CYMR90~1\AppData\Local\Temp\ccf145Mk.s:26626  .debug_str:000000000001a139 .LASF5192
C:\Users\CYMR90~1\AppData\Local\Temp\ccf145Mk.s:25319  .debug_str:0000000000014ccd .LASF5193
C:\Users\CYMR90~1\AppData\Local\Temp\ccf145Mk.s:24081  .debug_str:000000000000fd11 .LASF5194
C:\Users\CYMR90~1\AppData\Local\Temp\ccf145Mk.s:30750  .debug_str:000000000002a7ce .LASF5195
C:\Users\CYMR90~1\AppData\Local\Temp\ccf145Mk.s:27060  .debug_str:000000000001bde8 .LASF5196
C:\Users\CYMR90~1\AppData\Local\Temp\ccf145Mk.s:28550  .debug_str:0000000000021b91 .LASF5197
C:\Users\CYMR90~1\AppData\Local\Temp\ccf145Mk.s:26828  .debug_str:000000000001afbe .LASF5198
C:\Users\CYMR90~1\AppData\Local\Temp\ccf145Mk.s:22425  .debug_str:0000000000009240 .LASF5199
C:\Users\CYMR90~1\AppData\Local\Temp\ccf145Mk.s:20157  .debug_str:0000000000000394 .LASF5200
C:\Users\CYMR90~1\AppData\Local\Temp\ccf145Mk.s:23493  .debug_str:000000000000d847 .LASF5201
C:\Users\CYMR90~1\AppData\Local\Temp\ccf145Mk.s:20747  .debug_str:00000000000026f4 .LASF5202
C:\Users\CYMR90~1\AppData\Local\Temp\ccf145Mk.s:27734  .debug_str:000000000001e9d8 .LASF5203
C:\Users\CYMR90~1\AppData\Local\Temp\ccf145Mk.s:25341  .debug_str:0000000000014e62 .LASF5204
C:\Users\CYMR90~1\AppData\Local\Temp\ccf145Mk.s:20101  .debug_str:0000000000000000 .LASF5205
C:\Users\CYMR90~1\AppData\Local\Temp\ccf145Mk.s:20547  .debug_str:0000000000001b00 .LASF5206
C:\Users\CYMR90~1\AppData\Local\Temp\ccf145Mk.s:30440  .debug_str:0000000000029553 .LASF5207
C:\Users\CYMR90~1\AppData\Local\Temp\ccf145Mk.s:29294  .debug_str:0000000000024973 .LASF5208
C:\Users\CYMR90~1\AppData\Local\Temp\ccf145Mk.s:30074  .debug_str:0000000000027d0f .LASF5209
C:\Users\CYMR90~1\AppData\Local\Temp\ccf145Mk.s:21441  .debug_str:00000000000053c2 .LASF5210
C:\Users\CYMR90~1\AppData\Local\Temp\ccf145Mk.s:25767  .debug_str:0000000000016934 .LASF5211
C:\Users\CYMR90~1\AppData\Local\Temp\ccf145Mk.s:28050  .debug_str:000000000001fcb3 .LASF5212
C:\Users\CYMR90~1\AppData\Local\Temp\ccf145Mk.s:26716  .debug_str:000000000001a89a .LASF5213
C:\Users\CYMR90~1\AppData\Local\Temp\ccf145Mk.s:31378  .debug_str:000000000002d005 .LASF5214
C:\Users\CYMR90~1\AppData\Local\Temp\ccf145Mk.s:25898  .debug_str:00000000000172fa .LASF5215
C:\Users\CYMR90~1\AppData\Local\Temp\ccf145Mk.s:21623  .debug_str:0000000000005e40 .LASF5216
C:\Users\CYMR90~1\AppData\Local\Temp\ccf145Mk.s:23895  .debug_str:000000000000f0a3 .LASF5217
C:\Users\CYMR90~1\AppData\Local\Temp\ccf145Mk.s:24611  .debug_str:0000000000011fa5 .LASF5218
C:\Users\CYMR90~1\AppData\Local\Temp\ccf145Mk.s:26220  .debug_str:000000000001863d .LASF5219
C:\Users\CYMR90~1\AppData\Local\Temp\ccf145Mk.s:21413  .debug_str:00000000000051fc .LASF5220
C:\Users\CYMR90~1\AppData\Local\Temp\ccf145Mk.s:29464  .debug_str:0000000000025595 .LASF5221
C:\Users\CYMR90~1\AppData\Local\Temp\ccf145Mk.s:30254  .debug_str:0000000000028a17 .LASF5222
C:\Users\CYMR90~1\AppData\Local\Temp\ccf145Mk.s:29714  .debug_str:000000000002660b .LASF5223
C:\Users\CYMR90~1\AppData\Local\Temp\ccf145Mk.s:24413  .debug_str:0000000000011233 .LASF5224
C:\Users\CYMR90~1\AppData\Local\Temp\ccf145Mk.s:23325  .debug_str:000000000000cd27 .LASF5225
C:\Users\CYMR90~1\AppData\Local\Temp\ccf145Mk.s:28214  .debug_str:00000000000206f6 .LASF5226
C:\Users\CYMR90~1\AppData\Local\Temp\ccf145Mk.s:23975  .debug_str:000000000000f6aa .LASF5227
C:\Users\CYMR90~1\AppData\Local\Temp\ccf145Mk.s:23291  .debug_str:000000000000cb62 .LASF5228
C:\Users\CYMR90~1\AppData\Local\Temp\ccf145Mk.s:29690  .debug_str:000000000002649f .LASF5229
C:\Users\CYMR90~1\AppData\Local\Temp\ccf145Mk.s:30754  .debug_str:000000000002a82b .LASF5230
C:\Users\CYMR90~1\AppData\Local\Temp\ccf145Mk.s:23103  .debug_str:000000000000bf36 .LASF5231
C:\Users\CYMR90~1\AppData\Local\Temp\ccf145Mk.s:21005  .debug_str:0000000000003778 .LASF5232
C:\Users\CYMR90~1\AppData\Local\Temp\ccf145Mk.s:21921  .debug_str:000000000000716f .LASF5233
C:\Users\CYMR90~1\AppData\Local\Temp\ccf145Mk.s:23979  .debug_str:000000000000f6f9 .LASF5234
C:\Users\CYMR90~1\AppData\Local\Temp\ccf145Mk.s:30946  .debug_str:000000000002b39a .LASF5235
C:\Users\CYMR90~1\AppData\Local\Temp\ccf145Mk.s:30134  .debug_str:0000000000028165 .LASF5236
C:\Users\CYMR90~1\AppData\Local\Temp\ccf145Mk.s:24665  .debug_str:0000000000012324 .LASF5237
C:\Users\CYMR90~1\AppData\Local\Temp\ccf145Mk.s:20833  .debug_str:0000000000002c74 .LASF5238
C:\Users\CYMR90~1\AppData\Local\Temp\ccf145Mk.s:29542  .debug_str:0000000000025b5c .LASF5239
C:\Users\CYMR90~1\AppData\Local\Temp\ccf145Mk.s:29938  .debug_str:000000000002749d .LASF5240
C:\Users\CYMR90~1\AppData\Local\Temp\ccf145Mk.s:24431  .debug_str:0000000000011332 .LASF5241
C:\Users\CYMR90~1\AppData\Local\Temp\ccf145Mk.s:25601  .debug_str:0000000000015e52 .LASF5242
C:\Users\CYMR90~1\AppData\Local\Temp\ccf145Mk.s:28934  .debug_str:00000000000231f9 .LASF5243
C:\Users\CYMR90~1\AppData\Local\Temp\ccf145Mk.s:27668  .debug_str:000000000001e5a3 .LASF5244
C:\Users\CYMR90~1\AppData\Local\Temp\ccf145Mk.s:28582  .debug_str:0000000000021d6d .LASF5245
C:\Users\CYMR90~1\AppData\Local\Temp\ccf145Mk.s:31402  .debug_str:000000000002d19f .LASF5246
C:\Users\CYMR90~1\AppData\Local\Temp\ccf145Mk.s:28764  .debug_str:000000000002281e .LASF5247
C:\Users\CYMR90~1\AppData\Local\Temp\ccf145Mk.s:29372  .debug_str:0000000000024e94 .LASF5248
C:\Users\CYMR90~1\AppData\Local\Temp\ccf145Mk.s:22013  .debug_str:00000000000076fd .LASF5249
C:\Users\CYMR90~1\AppData\Local\Temp\ccf145Mk.s:21373  .debug_str:0000000000004f97 .LASF5250
C:\Users\CYMR90~1\AppData\Local\Temp\ccf145Mk.s:28796  .debug_str:00000000000229e9 .LASF5251
C:\Users\CYMR90~1\AppData\Local\Temp\ccf145Mk.s:24725  .debug_str:00000000000126f3 .LASF5252
C:\Users\CYMR90~1\AppData\Local\Temp\ccf145Mk.s:29268  .debug_str:000000000002477d .LASF5253
C:\Users\CYMR90~1\AppData\Local\Temp\ccf145Mk.s:30578  .debug_str:0000000000029d93 .LASF5254
C:\Users\CYMR90~1\AppData\Local\Temp\ccf145Mk.s:28850  .debug_str:0000000000022d7b .LASF5255
C:\Users\CYMR90~1\AppData\Local\Temp\ccf145Mk.s:29508  .debug_str:0000000000025945 .LASF5256
C:\Users\CYMR90~1\AppData\Local\Temp\ccf145Mk.s:29560  .debug_str:0000000000025ca7 .LASF5257
C:\Users\CYMR90~1\AppData\Local\Temp\ccf145Mk.s:28328  .debug_str:0000000000020df2 .LASF5258
C:\Users\CYMR90~1\AppData\Local\Temp\ccf145Mk.s:24077  .debug_str:000000000000fccb .LASF5259
C:\Users\CYMR90~1\AppData\Local\Temp\ccf145Mk.s:24485  .debug_str:00000000000116a8 .LASF5260
C:\Users\CYMR90~1\AppData\Local\Temp\ccf145Mk.s:29392  .debug_str:0000000000024fc3 .LASF5261
C:\Users\CYMR90~1\AppData\Local\Temp\ccf145Mk.s:22773  .debug_str:000000000000a8fa .LASF5262
C:\Users\CYMR90~1\AppData\Local\Temp\ccf145Mk.s:24285  .debug_str:0000000000010a24 .LASF5263
C:\Users\CYMR90~1\AppData\Local\Temp\ccf145Mk.s:30838  .debug_str:000000000002ace8 .LASF5264
C:\Users\CYMR90~1\AppData\Local\Temp\ccf145Mk.s:22299  .debug_str:0000000000008a8d .LASF5265
C:\Users\CYMR90~1\AppData\Local\Temp\ccf145Mk.s:22883  .debug_str:000000000000b0ab .LASF5266
C:\Users\CYMR90~1\AppData\Local\Temp\ccf145Mk.s:29568  .debug_str:0000000000025d18 .LASF5267
C:\Users\CYMR90~1\AppData\Local\Temp\ccf145Mk.s:20377  .debug_str:0000000000001103 .LASF5268
C:\Users\CYMR90~1\AppData\Local\Temp\ccf145Mk.s:25679  .debug_str:0000000000016326 .LASF5269
C:\Users\CYMR90~1\AppData\Local\Temp\ccf145Mk.s:27748  .debug_str:000000000001ea8b .LASF5270
C:\Users\CYMR90~1\AppData\Local\Temp\ccf145Mk.s:30060  .debug_str:0000000000027c22 .LASF5271
C:\Users\CYMR90~1\AppData\Local\Temp\ccf145Mk.s:23739  .debug_str:000000000000e76a .LASF5272
C:\Users\CYMR90~1\AppData\Local\Temp\ccf145Mk.s:30088  .debug_str:0000000000027e22 .LASF5273
C:\Users\CYMR90~1\AppData\Local\Temp\ccf145Mk.s:27690  .debug_str:000000000001e753 .LASF5274
C:\Users\CYMR90~1\AppData\Local\Temp\ccf145Mk.s:24489  .debug_str:00000000000116f3 .LASF5275
C:\Users\CYMR90~1\AppData\Local\Temp\ccf145Mk.s:28002  .debug_str:000000000001f9a0 .LASF5276
C:\Users\CYMR90~1\AppData\Local\Temp\ccf145Mk.s:21355  .debug_str:0000000000004e88 .LASF5277
C:\Users\CYMR90~1\AppData\Local\Temp\ccf145Mk.s:25019  .debug_str:0000000000013a41 .LASF5278
C:\Users\CYMR90~1\AppData\Local\Temp\ccf145Mk.s:28044  .debug_str:000000000001fc1c .LASF5279
C:\Users\CYMR90~1\AppData\Local\Temp\ccf145Mk.s:23597  .debug_str:000000000000de9a .LASF5280
C:\Users\CYMR90~1\AppData\Local\Temp\ccf145Mk.s:27256  .debug_str:000000000001cac6 .LASF5281
C:\Users\CYMR90~1\AppData\Local\Temp\ccf145Mk.s:23719  .debug_str:000000000000e61e .LASF5282
C:\Users\CYMR90~1\AppData\Local\Temp\ccf145Mk.s:30474  .debug_str:000000000002977c .LASF5283
C:\Users\CYMR90~1\AppData\Local\Temp\ccf145Mk.s:31242  .debug_str:000000000002c713 .LASF5284
C:\Users\CYMR90~1\AppData\Local\Temp\ccf145Mk.s:23749  .debug_str:000000000000e7de .LASF5285
C:\Users\CYMR90~1\AppData\Local\Temp\ccf145Mk.s:20457  .debug_str:000000000000156f .LASF5286
C:\Users\CYMR90~1\AppData\Local\Temp\ccf145Mk.s:26872  .debug_str:000000000001b2b5 .LASF5287
C:\Users\CYMR90~1\AppData\Local\Temp\ccf145Mk.s:29892  .debug_str:00000000000270f8 .LASF5288
C:\Users\CYMR90~1\AppData\Local\Temp\ccf145Mk.s:26758  .debug_str:000000000001ab31 .LASF5289
C:\Users\CYMR90~1\AppData\Local\Temp\ccf145Mk.s:27744  .debug_str:000000000001ea5d .LASF5290
C:\Users\CYMR90~1\AppData\Local\Temp\ccf145Mk.s:20303  .debug_str:0000000000000c70 .LASF5291
C:\Users\CYMR90~1\AppData\Local\Temp\ccf145Mk.s:28348  .debug_str:0000000000020eee .LASF5292
C:\Users\CYMR90~1\AppData\Local\Temp\ccf145Mk.s:23237  .debug_str:000000000000c840 .LASF5293
C:\Users\CYMR90~1\AppData\Local\Temp\ccf145Mk.s:25545  .debug_str:0000000000015a4e .LASF5294
C:\Users\CYMR90~1\AppData\Local\Temp\ccf145Mk.s:24003  .debug_str:000000000000f85f .LASF5295
C:\Users\CYMR90~1\AppData\Local\Temp\ccf145Mk.s:26162  .debug_str:00000000000182ed .LASF5296
C:\Users\CYMR90~1\AppData\Local\Temp\ccf145Mk.s:30740  .debug_str:000000000002a738 .LASF5297
C:\Users\CYMR90~1\AppData\Local\Temp\ccf145Mk.s:24949  .debug_str:0000000000013626 .LASF5298
C:\Users\CYMR90~1\AppData\Local\Temp\ccf145Mk.s:27926  .debug_str:000000000001f52e .LASF5299
C:\Users\CYMR90~1\AppData\Local\Temp\ccf145Mk.s:21989  .debug_str:0000000000007586 .LASF5300
C:\Users\CYMR90~1\AppData\Local\Temp\ccf145Mk.s:29426  .debug_str:00000000000252fe .LASF5301
C:\Users\CYMR90~1\AppData\Local\Temp\ccf145Mk.s:21861  .debug_str:0000000000006d2c .LASF5302
C:\Users\CYMR90~1\AppData\Local\Temp\ccf145Mk.s:29970  .debug_str:000000000002766f .LASF5303
C:\Users\CYMR90~1\AppData\Local\Temp\ccf145Mk.s:30452  .debug_str:00000000000295f1 .LASF5304
C:\Users\CYMR90~1\AppData\Local\Temp\ccf145Mk.s:28680  .debug_str:0000000000022330 .LASF5305
C:\Users\CYMR90~1\AppData\Local\Temp\ccf145Mk.s:25457  .debug_str:0000000000015504 .LASF5306
C:\Users\CYMR90~1\AppData\Local\Temp\ccf145Mk.s:22305  .debug_str:0000000000008ad4 .LASF5307
C:\Users\CYMR90~1\AppData\Local\Temp\ccf145Mk.s:20915  .debug_str:00000000000031a2 .LASF5308
C:\Users\CYMR90~1\AppData\Local\Temp\ccf145Mk.s:31150  .debug_str:000000000002c134 .LASF5309
C:\Users\CYMR90~1\AppData\Local\Temp\ccf145Mk.s:22487  .debug_str:000000000000964d .LASF5310
C:\Users\CYMR90~1\AppData\Local\Temp\ccf145Mk.s:22309  .debug_str:0000000000008afb .LASF5311
C:\Users\CYMR90~1\AppData\Local\Temp\ccf145Mk.s:30648  .debug_str:000000000002a192 .LASF5312
C:\Users\CYMR90~1\AppData\Local\Temp\ccf145Mk.s:23839  .debug_str:000000000000ed2d .LASF5313
C:\Users\CYMR90~1\AppData\Local\Temp\ccf145Mk.s:30342  .debug_str:0000000000028f77 .LASF5314
C:\Users\CYMR90~1\AppData\Local\Temp\ccf145Mk.s:22423  .debug_str:0000000000009228 .LASF5315
C:\Users\CYMR90~1\AppData\Local\Temp\ccf145Mk.s:31044  .debug_str:000000000002ba19 .LASF5316
C:\Users\CYMR90~1\AppData\Local\Temp\ccf145Mk.s:29632  .debug_str:0000000000026114 .LASF5317
C:\Users\CYMR90~1\AppData\Local\Temp\ccf145Mk.s:23985  .debug_str:000000000000f75e .LASF5318
C:\Users\CYMR90~1\AppData\Local\Temp\ccf145Mk.s:21201  .debug_str:0000000000004451 .LASF5319
C:\Users\CYMR90~1\AppData\Local\Temp\ccf145Mk.s:26718  .debug_str:000000000001a8c1 .LASF5320
C:\Users\CYMR90~1\AppData\Local\Temp\ccf145Mk.s:29386  .debug_str:0000000000024f78 .LASF5321
C:\Users\CYMR90~1\AppData\Local\Temp\ccf145Mk.s:23921  .debug_str:000000000000f26c .LASF5322
C:\Users\CYMR90~1\AppData\Local\Temp\ccf145Mk.s:20209  .debug_str:0000000000000685 .LASF5323
C:\Users\CYMR90~1\AppData\Local\Temp\ccf145Mk.s:20159  .debug_str:00000000000003be .LASF5324
C:\Users\CYMR90~1\AppData\Local\Temp\ccf145Mk.s:20507  .debug_str:00000000000018a1 .LASF5325
C:\Users\CYMR90~1\AppData\Local\Temp\ccf145Mk.s:29020  .debug_str:00000000000237c3 .LASF5326
C:\Users\CYMR90~1\AppData\Local\Temp\ccf145Mk.s:29686  .debug_str:000000000002645e .LASF5327
C:\Users\CYMR90~1\AppData\Local\Temp\ccf145Mk.s:24829  .debug_str:0000000000012dc5 .LASF5328
C:\Users\CYMR90~1\AppData\Local\Temp\ccf145Mk.s:26752  .debug_str:000000000001aaf2 .LASF5329
C:\Users\CYMR90~1\AppData\Local\Temp\ccf145Mk.s:20789  .debug_str:000000000000299e .LASF5330
C:\Users\CYMR90~1\AppData\Local\Temp\ccf145Mk.s:25553  .debug_str:0000000000015b1c .LASF5331
C:\Users\CYMR90~1\AppData\Local\Temp\ccf145Mk.s:28128  .debug_str:0000000000020153 .LASF5332
C:\Users\CYMR90~1\AppData\Local\Temp\ccf145Mk.s:30614  .debug_str:0000000000029f87 .LASF5333
C:\Users\CYMR90~1\AppData\Local\Temp\ccf145Mk.s:22213  .debug_str:0000000000008509 .LASF5334
C:\Users\CYMR90~1\AppData\Local\Temp\ccf145Mk.s:28822  .debug_str:0000000000022bda .LASF5335
C:\Users\CYMR90~1\AppData\Local\Temp\ccf145Mk.s:28108  .debug_str:0000000000020043 .LASF5336
C:\Users\CYMR90~1\AppData\Local\Temp\ccf145Mk.s:21257  .debug_str:000000000000489f .LASF5337
C:\Users\CYMR90~1\AppData\Local\Temp\ccf145Mk.s:21679  .debug_str:00000000000061c2 .LASF5338
C:\Users\CYMR90~1\AppData\Local\Temp\ccf145Mk.s:28776  .debug_str:00000000000228e9 .LASF5339
C:\Users\CYMR90~1\AppData\Local\Temp\ccf145Mk.s:30528  .debug_str:0000000000029a92 .LASF5340
C:\Users\CYMR90~1\AppData\Local\Temp\ccf145Mk.s:26342  .debug_str:0000000000018ebb .LASF5341
C:\Users\CYMR90~1\AppData\Local\Temp\ccf145Mk.s:23137  .debug_str:000000000000c17c .LASF5342
C:\Users\CYMR90~1\AppData\Local\Temp\ccf145Mk.s:27824  .debug_str:000000000001ef07 .LASF5343
C:\Users\CYMR90~1\AppData\Local\Temp\ccf145Mk.s:22951  .debug_str:000000000000b4fa .LASF5344
C:\Users\CYMR90~1\AppData\Local\Temp\ccf145Mk.s:28220  .debug_str:000000000002078c .LASF5345
C:\Users\CYMR90~1\AppData\Local\Temp\ccf145Mk.s:25023  .debug_str:0000000000013a94 .LASF5346
C:\Users\CYMR90~1\AppData\Local\Temp\ccf145Mk.s:30478  .debug_str:00000000000297d2 .LASF5347
C:\Users\CYMR90~1\AppData\Local\Temp\ccf145Mk.s:24167  .debug_str:0000000000010286 .LASF5348
C:\Users\CYMR90~1\AppData\Local\Temp\ccf145Mk.s:23395  .debug_str:000000000000d209 .LASF5349
C:\Users\CYMR90~1\AppData\Local\Temp\ccf145Mk.s:27834  .debug_str:000000000001efc0 .LASF5350
C:\Users\CYMR90~1\AppData\Local\Temp\ccf145Mk.s:31068  .debug_str:000000000002bb91 .LASF5351
C:\Users\CYMR90~1\AppData\Local\Temp\ccf145Mk.s:27702  .debug_str:000000000001e810 .LASF5352
C:\Users\CYMR90~1\AppData\Local\Temp\ccf145Mk.s:28946  .debug_str:00000000000232c7 .LASF5353
C:\Users\CYMR90~1\AppData\Local\Temp\ccf145Mk.s:22927  .debug_str:000000000000b302 .LASF5354
C:\Users\CYMR90~1\AppData\Local\Temp\ccf145Mk.s:29074  .debug_str:0000000000023ad4 .LASF5355
C:\Users\CYMR90~1\AppData\Local\Temp\ccf145Mk.s:28684  .debug_str:0000000000022361 .LASF5356
C:\Users\CYMR90~1\AppData\Local\Temp\ccf145Mk.s:26594  .debug_str:0000000000019f7a .LASF5357
C:\Users\CYMR90~1\AppData\Local\Temp\ccf145Mk.s:26120  .debug_str:0000000000018087 .LASF5358
C:\Users\CYMR90~1\AppData\Local\Temp\ccf145Mk.s:28552  .debug_str:0000000000021bb7 .LASF5359
C:\Users\CYMR90~1\AppData\Local\Temp\ccf145Mk.s:31040  .debug_str:000000000002b9bf .LASF5360
C:\Users\CYMR90~1\AppData\Local\Temp\ccf145Mk.s:22061  .debug_str:0000000000007a34 .LASF5361
C:\Users\CYMR90~1\AppData\Local\Temp\ccf145Mk.s:21513  .debug_str:00000000000057d0 .LASF5362
C:\Users\CYMR90~1\AppData\Local\Temp\ccf145Mk.s:21813  .debug_str:0000000000006a15 .LASF5363
C:\Users\CYMR90~1\AppData\Local\Temp\ccf145Mk.s:23279  .debug_str:000000000000caab .LASF5364
C:\Users\CYMR90~1\AppData\Local\Temp\ccf145Mk.s:24631  .debug_str:000000000001210e .LASF5365
C:\Users\CYMR90~1\AppData\Local\Temp\ccf145Mk.s:23025  .debug_str:000000000000b9c5 .LASF5366
C:\Users\CYMR90~1\AppData\Local\Temp\ccf145Mk.s:30080  .debug_str:0000000000027dc0 .LASF5367
C:\Users\CYMR90~1\AppData\Local\Temp\ccf145Mk.s:29670  .debug_str:0000000000026384 .LASF5368
C:\Users\CYMR90~1\AppData\Local\Temp\ccf145Mk.s:25371  .debug_str:0000000000015038 .LASF5369
C:\Users\CYMR90~1\AppData\Local\Temp\ccf145Mk.s:27998  .debug_str:000000000001f978 .LASF5370
C:\Users\CYMR90~1\AppData\Local\Temp\ccf145Mk.s:24937  .debug_str:0000000000013568 .LASF5371
C:\Users\CYMR90~1\AppData\Local\Temp\ccf145Mk.s:31220  .debug_str:000000000002c5e9 .LASF5372
C:\Users\CYMR90~1\AppData\Local\Temp\ccf145Mk.s:27486  .debug_str:000000000001da56 .LASF5373
C:\Users\CYMR90~1\AppData\Local\Temp\ccf145Mk.s:28236  .debug_str:000000000002086a .LASF5374
C:\Users\CYMR90~1\AppData\Local\Temp\ccf145Mk.s:28398  .debug_str:00000000000211b1 .LASF5375
C:\Users\CYMR90~1\AppData\Local\Temp\ccf145Mk.s:23357  .debug_str:000000000000cf5f .LASF5376
C:\Users\CYMR90~1\AppData\Local\Temp\ccf145Mk.s:27432  .debug_str:000000000001d70b .LASF5377
C:\Users\CYMR90~1\AppData\Local\Temp\ccf145Mk.s:26006  .debug_str:00000000000179d8 .LASF5378
C:\Users\CYMR90~1\AppData\Local\Temp\ccf145Mk.s:25181  .debug_str:0000000000014402 .LASF5379
C:\Users\CYMR90~1\AppData\Local\Temp\ccf145Mk.s:25209  .debug_str:00000000000145e5 .LASF5380
C:\Users\CYMR90~1\AppData\Local\Temp\ccf145Mk.s:25379  .debug_str:00000000000150b6 .LASF5381
C:\Users\CYMR90~1\AppData\Local\Temp\ccf145Mk.s:23421  .debug_str:000000000000d41b .LASF5382
C:\Users\CYMR90~1\AppData\Local\Temp\ccf145Mk.s:25053  .debug_str:0000000000013c5f .LASF5383
C:\Users\CYMR90~1\AppData\Local\Temp\ccf145Mk.s:20787  .debug_str:0000000000002982 .LASF5384
C:\Users\CYMR90~1\AppData\Local\Temp\ccf145Mk.s:22605  .debug_str:0000000000009df0 .LASF5385
C:\Users\CYMR90~1\AppData\Local\Temp\ccf145Mk.s:29406  .debug_str:000000000002511e .LASF5386
C:\Users\CYMR90~1\AppData\Local\Temp\ccf145Mk.s:27344  .debug_str:000000000001d18d .LASF5387
C:\Users\CYMR90~1\AppData\Local\Temp\ccf145Mk.s:31302  .debug_str:000000000002cb41 .LASF5388
C:\Users\CYMR90~1\AppData\Local\Temp\ccf145Mk.s:25557  .debug_str:0000000000015b42 .LASF5389
C:\Users\CYMR90~1\AppData\Local\Temp\ccf145Mk.s:22637  .debug_str:0000000000009fdb .LASF5390
C:\Users\CYMR90~1\AppData\Local\Temp\ccf145Mk.s:21197  .debug_str:000000000000442b .LASF5391
C:\Users\CYMR90~1\AppData\Local\Temp\ccf145Mk.s:28118  .debug_str:00000000000200b9 .LASF5392
C:\Users\CYMR90~1\AppData\Local\Temp\ccf145Mk.s:29502  .debug_str:00000000000258d4 .LASF5393
C:\Users\CYMR90~1\AppData\Local\Temp\ccf145Mk.s:23255  .debug_str:000000000000c961 .LASF5394
C:\Users\CYMR90~1\AppData\Local\Temp\ccf145Mk.s:22667  .debug_str:000000000000a1c0 .LASF5395
C:\Users\CYMR90~1\AppData\Local\Temp\ccf145Mk.s:26808  .debug_str:000000000001ae6b .LASF5396
C:\Users\CYMR90~1\AppData\Local\Temp\ccf145Mk.s:24063  .debug_str:000000000000fbcd .LASF5397
C:\Users\CYMR90~1\AppData\Local\Temp\ccf145Mk.s:26282  .debug_str:0000000000018a57 .LASF5398
C:\Users\CYMR90~1\AppData\Local\Temp\ccf145Mk.s:23223  .debug_str:000000000000c6ed .LASF5399
C:\Users\CYMR90~1\AppData\Local\Temp\ccf145Mk.s:23359  .debug_str:000000000000cf77 .LASF5400
C:\Users\CYMR90~1\AppData\Local\Temp\ccf145Mk.s:24435  .debug_str:0000000000011376 .LASF5401
C:\Users\CYMR90~1\AppData\Local\Temp\ccf145Mk.s:27480  .debug_str:000000000001d9f5 .LASF5402
C:\Users\CYMR90~1\AppData\Local\Temp\ccf145Mk.s:22393  .debug_str:0000000000009075 .LASF5403
C:\Users\CYMR90~1\AppData\Local\Temp\ccf145Mk.s:22457  .debug_str:0000000000009484 .LASF5404
C:\Users\CYMR90~1\AppData\Local\Temp\ccf145Mk.s:27368  .debug_str:000000000001d2fa .LASF5405
C:\Users\CYMR90~1\AppData\Local\Temp\ccf145Mk.s:25944  .debug_str:00000000000175b7 .LASF5406
C:\Users\CYMR90~1\AppData\Local\Temp\ccf145Mk.s:28702  .debug_str:000000000002242f .LASF5407
C:\Users\CYMR90~1\AppData\Local\Temp\ccf145Mk.s:20109  .debug_str:00000000000000a6 .LASF5408
C:\Users\CYMR90~1\AppData\Local\Temp\ccf145Mk.s:28082  .debug_str:000000000001fec7 .LASF5409
C:\Users\CYMR90~1\AppData\Local\Temp\ccf145Mk.s:31380  .debug_str:000000000002d02c .LASF5410
C:\Users\CYMR90~1\AppData\Local\Temp\ccf145Mk.s:27510  .debug_str:000000000001dc41 .LASF5411
C:\Users\CYMR90~1\AppData\Local\Temp\ccf145Mk.s:21563  .debug_str:0000000000005ae4 .LASF5412
C:\Users\CYMR90~1\AppData\Local\Temp\ccf145Mk.s:20727  .debug_str:0000000000002571 .LASF5413
C:\Users\CYMR90~1\AppData\Local\Temp\ccf145Mk.s:28318  .debug_str:0000000000020d55 .LASF5414
C:\Users\CYMR90~1\AppData\Local\Temp\ccf145Mk.s:26596  .debug_str:0000000000019f91 .LASF5415
C:\Users\CYMR90~1\AppData\Local\Temp\ccf145Mk.s:20201  .debug_str:00000000000005f1 .LASF5416
C:\Users\CYMR90~1\AppData\Local\Temp\ccf145Mk.s:24659  .debug_str:00000000000122a6 .LASF5417
C:\Users\CYMR90~1\AppData\Local\Temp\ccf145Mk.s:25079  .debug_str:0000000000013dd6 .LASF5418
C:\Users\CYMR90~1\AppData\Local\Temp\ccf145Mk.s:24629  .debug_str:00000000000120f5 .LASF5419
C:\Users\CYMR90~1\AppData\Local\Temp\ccf145Mk.s:21685  .debug_str:0000000000006224 .LASF5420
C:\Users\CYMR90~1\AppData\Local\Temp\ccf145Mk.s:27984  .debug_str:000000000001f896 .LASF5421
C:\Users\CYMR90~1\AppData\Local\Temp\ccf145Mk.s:25958  .debug_str:00000000000176ae .LASF5422
C:\Users\CYMR90~1\AppData\Local\Temp\ccf145Mk.s:20461  .debug_str:00000000000015b5 .LASF5423
C:\Users\CYMR90~1\AppData\Local\Temp\ccf145Mk.s:28036  .debug_str:000000000001fbbb .LASF5424
C:\Users\CYMR90~1\AppData\Local\Temp\ccf145Mk.s:20803  .debug_str:0000000000002abc .LASF5425
C:\Users\CYMR90~1\AppData\Local\Temp\ccf145Mk.s:28966  .debug_str:00000000000233e5 .LASF5426
C:\Users\CYMR90~1\AppData\Local\Temp\ccf145Mk.s:20417  .debug_str:000000000000131b .LASF5427
C:\Users\CYMR90~1\AppData\Local\Temp\ccf145Mk.s:29834  .debug_str:0000000000026d4c .LASF5428
C:\Users\CYMR90~1\AppData\Local\Temp\ccf145Mk.s:25611  .debug_str:0000000000015f08 .LASF5429
C:\Users\CYMR90~1\AppData\Local\Temp\ccf145Mk.s:21025  .debug_str:00000000000038b0 .LASF5430
C:\Users\CYMR90~1\AppData\Local\Temp\ccf145Mk.s:22891  .debug_str:000000000000b117 .LASF5431
C:\Users\CYMR90~1\AppData\Local\Temp\ccf145Mk.s:29120  .debug_str:0000000000023d72 .LASF5432
C:\Users\CYMR90~1\AppData\Local\Temp\ccf145Mk.s:21589  .debug_str:0000000000005c5c .LASF5433
C:\Users\CYMR90~1\AppData\Local\Temp\ccf145Mk.s:29980  .debug_str:0000000000027700 .LASF5434
C:\Users\CYMR90~1\AppData\Local\Temp\ccf145Mk.s:22155  .debug_str:0000000000008169 .LASF5435
C:\Users\CYMR90~1\AppData\Local\Temp\ccf145Mk.s:30940  .debug_str:000000000002b33d .LASF5436
C:\Users\CYMR90~1\AppData\Local\Temp\ccf145Mk.s:28112  .debug_str:000000000002006e .LASF5437
C:\Users\CYMR90~1\AppData\Local\Temp\ccf145Mk.s:26436  .debug_str:00000000000194fa .LASF5438
C:\Users\CYMR90~1\AppData\Local\Temp\ccf145Mk.s:20343  .debug_str:0000000000000f0f .LASF5439
C:\Users\CYMR90~1\AppData\Local\Temp\ccf145Mk.s:27940  .debug_str:000000000001f603 .LASF5440
C:\Users\CYMR90~1\AppData\Local\Temp\ccf145Mk.s:21539  .debug_str:0000000000005963 .LASF5441
C:\Users\CYMR90~1\AppData\Local\Temp\ccf145Mk.s:30908  .debug_str:000000000002b0f8 .LASF5442
C:\Users\CYMR90~1\AppData\Local\Temp\ccf145Mk.s:25677  .debug_str:0000000000016309 .LASF5443
C:\Users\CYMR90~1\AppData\Local\Temp\ccf145Mk.s:25477  .debug_str:0000000000015632 .LASF5444
C:\Users\CYMR90~1\AppData\Local\Temp\ccf145Mk.s:26508  .debug_str:0000000000019a49 .LASF5445
C:\Users\CYMR90~1\AppData\Local\Temp\ccf145Mk.s:29732  .debug_str:000000000002672b .LASF5446
C:\Users\CYMR90~1\AppData\Local\Temp\ccf145Mk.s:29286  .debug_str:0000000000024912 .LASF5447
C:\Users\CYMR90~1\AppData\Local\Temp\ccf145Mk.s:30884  .debug_str:000000000002afa1 .LASF5448
C:\Users\CYMR90~1\AppData\Local\Temp\ccf145Mk.s:21073  .debug_str:0000000000003bad .LASF5449
C:\Users\CYMR90~1\AppData\Local\Temp\ccf145Mk.s:27736  .debug_str:000000000001ea04 .LASF5450
C:\Users\CYMR90~1\AppData\Local\Temp\ccf145Mk.s:27012  .debug_str:000000000001bad0 .LASF5451
C:\Users\CYMR90~1\AppData\Local\Temp\ccf145Mk.s:24853  .debug_str:0000000000012f53 .LASF5452
C:\Users\CYMR90~1\AppData\Local\Temp\ccf145Mk.s:30640  .debug_str:000000000002a125 .LASF5453
C:\Users\CYMR90~1\AppData\Local\Temp\ccf145Mk.s:28524  .debug_str:00000000000219e4 .LASF5454
C:\Users\CYMR90~1\AppData\Local\Temp\ccf145Mk.s:22481  .debug_str:00000000000095e2 .LASF5455
C:\Users\CYMR90~1\AppData\Local\Temp\ccf145Mk.s:31286  .debug_str:000000000002ca24 .LASF5456
C:\Users\CYMR90~1\AppData\Local\Temp\ccf145Mk.s:30350  .debug_str:0000000000028fd8 .LASF5457
C:\Users\CYMR90~1\AppData\Local\Temp\ccf145Mk.s:20903  .debug_str:00000000000030e4 .LASF5458
C:\Users\CYMR90~1\AppData\Local\Temp\ccf145Mk.s:28476  .debug_str:0000000000021719 .LASF5459
C:\Users\CYMR90~1\AppData\Local\Temp\ccf145Mk.s:31252  .debug_str:000000000002c7c2 .LASF5460
C:\Users\CYMR90~1\AppData\Local\Temp\ccf145Mk.s:27712  .debug_str:000000000001e89c .LASF5461
C:\Users\CYMR90~1\AppData\Local\Temp\ccf145Mk.s:30596  .debug_str:0000000000029e9e .LASF5462
C:\Users\CYMR90~1\AppData\Local\Temp\ccf145Mk.s:25551  .debug_str:0000000000015afc .LASF5463
C:\Users\CYMR90~1\AppData\Local\Temp\ccf145Mk.s:27646  .debug_str:000000000001e474 .LASF5464
C:\Users\CYMR90~1\AppData\Local\Temp\ccf145Mk.s:23953  .debug_str:000000000000f4d3 .LASF5465
C:\Users\CYMR90~1\AppData\Local\Temp\ccf145Mk.s:23941  .debug_str:000000000000f38a .LASF5466
C:\Users\CYMR90~1\AppData\Local\Temp\ccf145Mk.s:28016  .debug_str:000000000001fa96 .LASF5467
C:\Users\CYMR90~1\AppData\Local\Temp\ccf145Mk.s:29724  .debug_str:00000000000266b1 .LASF5468
C:\Users\CYMR90~1\AppData\Local\Temp\ccf145Mk.s:20491  .debug_str:00000000000017ae .LASF5469
C:\Users\CYMR90~1\AppData\Local\Temp\ccf145Mk.s:26450  .debug_str:00000000000195e3 .LASF5470
C:\Users\CYMR90~1\AppData\Local\Temp\ccf145Mk.s:20291  .debug_str:0000000000000bcd .LASF5471
C:\Users\CYMR90~1\AppData\Local\Temp\ccf145Mk.s:25761  .debug_str:00000000000168cd .LASF5472
C:\Users\CYMR90~1\AppData\Local\Temp\ccf145Mk.s:20605  .debug_str:0000000000001e72 .LASF5473
C:\Users\CYMR90~1\AppData\Local\Temp\ccf145Mk.s:25547  .debug_str:0000000000015a66 .LASF5474
C:\Users\CYMR90~1\AppData\Local\Temp\ccf145Mk.s:23695  .debug_str:000000000000e477 .LASF5475
C:\Users\CYMR90~1\AppData\Local\Temp\ccf145Mk.s:24437  .debug_str:0000000000011398 .LASF5476
C:\Users\CYMR90~1\AppData\Local\Temp\ccf145Mk.s:22823  .debug_str:000000000000ac16 .LASF5477
C:\Users\CYMR90~1\AppData\Local\Temp\ccf145Mk.s:21117  .debug_str:0000000000003ea4 .LASF5478
C:\Users\CYMR90~1\AppData\Local\Temp\ccf145Mk.s:30998  .debug_str:000000000002b6de .LASF5479
C:\Users\CYMR90~1\AppData\Local\Temp\ccf145Mk.s:22645  .debug_str:000000000000a067 .LASF5480
C:\Users\CYMR90~1\AppData\Local\Temp\ccf145Mk.s:28260  .debug_str:00000000000209c2 .LASF5481
C:\Users\CYMR90~1\AppData\Local\Temp\ccf145Mk.s:28960  .debug_str:000000000002338f .LASF5482
C:\Users\CYMR90~1\AppData\Local\Temp\ccf145Mk.s:31034  .debug_str:000000000002b96e .LASF5483
C:\Users\CYMR90~1\AppData\Local\Temp\ccf145Mk.s:20399  .debug_str:0000000000001227 .LASF5484
C:\Users\CYMR90~1\AppData\Local\Temp\ccf145Mk.s:25834  .debug_str:0000000000016f7b .LASF5485
C:\Users\CYMR90~1\AppData\Local\Temp\ccf145Mk.s:28594  .debug_str:0000000000021e2a .LASF5486
C:\Users\CYMR90~1\AppData\Local\Temp\ccf145Mk.s:27512  .debug_str:000000000001dc63 .LASF5487
C:\Users\CYMR90~1\AppData\Local\Temp\ccf145Mk.s:24127  .debug_str:000000000000ffee .LASF5488
C:\Users\CYMR90~1\AppData\Local\Temp\ccf145Mk.s:20577  .debug_str:0000000000001cc1 .LASF5489
C:\Users\CYMR90~1\AppData\Local\Temp\ccf145Mk.s:26788  .debug_str:000000000001acdc .LASF5490
C:\Users\CYMR90~1\AppData\Local\Temp\ccf145Mk.s:31146  .debug_str:000000000002c0d1 .LASF5491
C:\Users\CYMR90~1\AppData\Local\Temp\ccf145Mk.s:25123  .debug_str:000000000001409f .LASF5492
C:\Users\CYMR90~1\AppData\Local\Temp\ccf145Mk.s:30212  .debug_str:0000000000028762 .LASF5493
C:\Users\CYMR90~1\AppData\Local\Temp\ccf145Mk.s:31148  .debug_str:000000000002c0fb .LASF5494
C:\Users\CYMR90~1\AppData\Local\Temp\ccf145Mk.s:23717  .debug_str:000000000000e611 .LASF5495
C:\Users\CYMR90~1\AppData\Local\Temp\ccf145Mk.s:22713  .debug_str:000000000000a486 .LASF5496
C:\Users\CYMR90~1\AppData\Local\Temp\ccf145Mk.s:25473  .debug_str:00000000000155f6 .LASF5497
C:\Users\CYMR90~1\AppData\Local\Temp\ccf145Mk.s:20445  .debug_str:00000000000014bc .LASF5498
C:\Users\CYMR90~1\AppData\Local\Temp\ccf145Mk.s:21189  .debug_str:000000000000438e .LASF5499
C:\Users\CYMR90~1\AppData\Local\Temp\ccf145Mk.s:26698  .debug_str:000000000001a798 .LASF5500
C:\Users\CYMR90~1\AppData\Local\Temp\ccf145Mk.s:26736  .debug_str:000000000001a9f4 .LASF5501
C:\Users\CYMR90~1\AppData\Local\Temp\ccf145Mk.s:30278  .debug_str:0000000000028bb2 .LASF5502
C:\Users\CYMR90~1\AppData\Local\Temp\ccf145Mk.s:26456  .debug_str:000000000001967f .LASF5503
C:\Users\CYMR90~1\AppData\Local\Temp\ccf145Mk.s:25095  .debug_str:0000000000013ec8 .LASF5504
C:\Users\CYMR90~1\AppData\Local\Temp\ccf145Mk.s:28130  .debug_str:000000000002016b .LASF5505
C:\Users\CYMR90~1\AppData\Local\Temp\ccf145Mk.s:26896  .debug_str:000000000001b414 .LASF5506
C:\Users\CYMR90~1\AppData\Local\Temp\ccf145Mk.s:24273  .debug_str:0000000000010934 .LASF5507
C:\Users\CYMR90~1\AppData\Local\Temp\ccf145Mk.s:22777  .debug_str:000000000000a922 .LASF5508
C:\Users\CYMR90~1\AppData\Local\Temp\ccf145Mk.s:24397  .debug_str:0000000000011113 .LASF5509
C:\Users\CYMR90~1\AppData\Local\Temp\ccf145Mk.s:29326  .debug_str:0000000000024b94 .LASF5510
C:\Users\CYMR90~1\AppData\Local\Temp\ccf145Mk.s:23099  .debug_str:000000000000bf14 .LASF5511
C:\Users\CYMR90~1\AppData\Local\Temp\ccf145Mk.s:26786  .debug_str:000000000001acc4 .LASF5512
C:\Users\CYMR90~1\AppData\Local\Temp\ccf145Mk.s:24887  .debug_str:00000000000131a5 .LASF5513
C:\Users\CYMR90~1\AppData\Local\Temp\ccf145Mk.s:21361  .debug_str:0000000000004ee8 .LASF5514
C:\Users\CYMR90~1\AppData\Local\Temp\ccf145Mk.s:30888  .debug_str:000000000002afd3 .LASF5515
C:\Users\CYMR90~1\AppData\Local\Temp\ccf145Mk.s:27974  .debug_str:000000000001f7fc .LASF5516
C:\Users\CYMR90~1\AppData\Local\Temp\ccf145Mk.s:29898  .debug_str:0000000000027149 .LASF5517
C:\Users\CYMR90~1\AppData\Local\Temp\ccf145Mk.s:28314  .debug_str:0000000000020d2a .LASF5518
C:\Users\CYMR90~1\AppData\Local\Temp\ccf145Mk.s:31398  .debug_str:000000000002d162 .LASF5519
C:\Users\CYMR90~1\AppData\Local\Temp\ccf145Mk.s:28340  .debug_str:0000000000020e7f .LASF5520
C:\Users\CYMR90~1\AppData\Local\Temp\ccf145Mk.s:20599  .debug_str:0000000000001e36 .LASF5521
C:\Users\CYMR90~1\AppData\Local\Temp\ccf145Mk.s:27654  .debug_str:000000000001e4fa .LASF5522
C:\Users\CYMR90~1\AppData\Local\Temp\ccf145Mk.s:20843  .debug_str:0000000000002d13 .LASF5523
C:\Users\CYMR90~1\AppData\Local\Temp\ccf145Mk.s:24999  .debug_str:000000000001392c .LASF5524
C:\Users\CYMR90~1\AppData\Local\Temp\ccf145Mk.s:31178  .debug_str:000000000002c2d3 .LASF5525
C:\Users\CYMR90~1\AppData\Local\Temp\ccf145Mk.s:29800  .debug_str:0000000000026b7f .LASF5526
C:\Users\CYMR90~1\AppData\Local\Temp\ccf145Mk.s:21585  .debug_str:0000000000005c13 .LASF5527
C:\Users\CYMR90~1\AppData\Local\Temp\ccf145Mk.s:28272  .debug_str:0000000000020aac .LASF5528
C:\Users\CYMR90~1\AppData\Local\Temp\ccf145Mk.s:27392  .debug_str:000000000001d472 .LASF5529
C:\Users\CYMR90~1\AppData\Local\Temp\ccf145Mk.s:28656  .debug_str:00000000000221d9 .LASF5530
C:\Users\CYMR90~1\AppData\Local\Temp\ccf145Mk.s:24027  .debug_str:000000000000f9a3 .LASF5531
C:\Users\CYMR90~1\AppData\Local\Temp\ccf145Mk.s:23167  .debug_str:000000000000c333 .LASF5532
C:\Users\CYMR90~1\AppData\Local\Temp\ccf145Mk.s:26952  .debug_str:000000000001b785 .LASF5533
C:\Users\CYMR90~1\AppData\Local\Temp\ccf145Mk.s:30202  .debug_str:000000000002869d .LASF5534
C:\Users\CYMR90~1\AppData\Local\Temp\ccf145Mk.s:25846  .debug_str:000000000001702d .LASF5535
C:\Users\CYMR90~1\AppData\Local\Temp\ccf145Mk.s:29552  .debug_str:0000000000025be9 .LASF5536
C:\Users\CYMR90~1\AppData\Local\Temp\ccf145Mk.s:21191  .debug_str:00000000000043af .LASF5537
C:\Users\CYMR90~1\AppData\Local\Temp\ccf145Mk.s:26040  .debug_str:0000000000017bba .LASF5538
C:\Users\CYMR90~1\AppData\Local\Temp\ccf145Mk.s:28530  .debug_str:0000000000021a5e .LASF5539
C:\Users\CYMR90~1\AppData\Local\Temp\ccf145Mk.s:27728  .debug_str:000000000001e984 .LASF5540
C:\Users\CYMR90~1\AppData\Local\Temp\ccf145Mk.s:27400  .debug_str:000000000001d4c1 .LASF5541
C:\Users\CYMR90~1\AppData\Local\Temp\ccf145Mk.s:23471  .debug_str:000000000000d730 .LASF5542
C:\Users\CYMR90~1\AppData\Local\Temp\ccf145Mk.s:29122  .debug_str:0000000000023da9 .LASF5543
C:\Users\CYMR90~1\AppData\Local\Temp\ccf145Mk.s:23901  .debug_str:000000000000f0f2 .LASF5544
C:\Users\CYMR90~1\AppData\Local\Temp\ccf145Mk.s:21065  .debug_str:0000000000003b23 .LASF5545
C:\Users\CYMR90~1\AppData\Local\Temp\ccf145Mk.s:26302  .debug_str:0000000000018c2c .LASF5546
C:\Users\CYMR90~1\AppData\Local\Temp\ccf145Mk.s:20579  .debug_str:0000000000001ceb .LASF5547
C:\Users\CYMR90~1\AppData\Local\Temp\ccf145Mk.s:31406  .debug_str:000000000002d1dd .LASF5548
C:\Users\CYMR90~1\AppData\Local\Temp\ccf145Mk.s:25303  .debug_str:0000000000014b95 .LASF5549
C:\Users\CYMR90~1\AppData\Local\Temp\ccf145Mk.s:25207  .debug_str:00000000000145ba .LASF5550
C:\Users\CYMR90~1\AppData\Local\Temp\ccf145Mk.s:23095  .debug_str:000000000000bed1 .LASF5551
C:\Users\CYMR90~1\AppData\Local\Temp\ccf145Mk.s:23553  .debug_str:000000000000dbe0 .LASF5552
C:\Users\CYMR90~1\AppData\Local\Temp\ccf145Mk.s:29018  .debug_str:000000000002379d .LASF5553
C:\Users\CYMR90~1\AppData\Local\Temp\ccf145Mk.s:25888  .debug_str:000000000001726d .LASF5554
C:\Users\CYMR90~1\AppData\Local\Temp\ccf145Mk.s:24995  .debug_str:00000000000138e2 .LASF5555
                           .group:0000000000000000 wm4.0.10abbef32179bc1260444192115bdf5e
                           .group:0000000000000000 wm4.stddef.h.39.144cf5ddcd53cbfdac30259dc1a6c87f
                           .group:0000000000000000 wm4._newlib_version.h.4.bfdf54b0af045d4a71376ae00f63a22c
                           .group:0000000000000000 wm4.newlib.h.18.08a2ecba46890ca2aa56bbe21686e6c3
                           .group:0000000000000000 wm4.ieeefp.h.202.4f2759f5758fd82153cfbf98692f2ced
                           .group:0000000000000000 wm4.features.h.22.fad1cec3bc7ff06488171438dbdcfd02
                           .group:0000000000000000 wm4.config.h.83.13bbc8852bfac55b724c9822481355b5
                           .group:0000000000000000 wm4._ansi.h.31.de524f58584151836e90d8620a16f8e8
                           .group:0000000000000000 wm4.stdio.h.31.7c0e28c411445f3f9c5b11accf882760
                           .group:0000000000000000 wm4._default_types.h.6.959254cf5f09734ea7516c89e8bb21bd
                           .group:0000000000000000 wm4.stddef.h.155.ba788add86a0e365f264484f110c3c29
                           .group:0000000000000000 wm4.cdefs.h.49.39045112216f6a021dbdffe3bf5accce
                           .group:0000000000000000 wm4.stdarg.h.34.3a23a216c0c293b3d2ea2e89281481e6
                           .group:0000000000000000 wm4._types.h.20.dd0d04dca3800a0d2a6129b87f3adbb2
                           .group:0000000000000000 wm4.stddef.h.155.3588ebfdd1e8c7ede80509bb9c3b8009
                           .group:0000000000000000 wm4._types.h.127.34941de1b2539d59d5cac00e0dd27a45
                           .group:0000000000000000 wm4.reent.h.17.e292bf8b0bec6c96e131a54347145a30
                           .group:0000000000000000 wm4.lock.h.2.c0958401bd0ce484d507ee19aacab817
                           .group:0000000000000000 wm4.reent.h.77.dcd6129ff07fe81bd5636db29abe53b2
                           .group:0000000000000000 wm4.types.h.40.8b6acba56cefbb11746718204edc8f5e
                           .group:0000000000000000 wm4._stdint.h.10.c24fa3af3bc1706662bb5593a907e841
                           .group:0000000000000000 wm4._endian.h.18.1bf9649e8e5bbc91042012680270b9ed
                           .group:0000000000000000 wm4.endian.h.9.49f3a4695c1b61e8a0808de3c4a106cb
                           .group:0000000000000000 wm4._timeval.h.32.bec3221fa7a9bb0bdde696c9c57e47d2
                           .group:0000000000000000 wm4.timespec.h.41.d855182eb0e690443ab8651bcedca6e1
                           .group:0000000000000000 wm4.select.h.19.40cd3f2bfc456b193b790c2754690ebf
                           .group:0000000000000000 wm4.types.h.51.5571ec98f267d17d3c670b7a3ba33afa
                           .group:0000000000000000 wm4.sched.h.22.c60982713a5c428609783c78f9c78d95
                           .group:0000000000000000 wm4._pthreadtypes.h.36.fcee9961c35163dde6267ef772ad1972
                           .group:0000000000000000 wm4.stdio.h.2.4aa87247282eca6c8f36f9de33d8df1a
                           .group:0000000000000000 wm4.stdio.h.81.932d0c162786b883f622b8d05c120c78
                           .group:0000000000000000 wm4.gd32vw55x.h.47.379378190858578060a317909b2c8d8a
                           .group:0000000000000000 wm4._intsup.h.10.48bafbb683905c4daa4565a85aeeb264
                           .group:0000000000000000 wm4.stdint.h.23.d53047a68f4a85177f80b422d52785ed
                           .group:0000000000000000 wm4.nmsis_version.h.19.ffa173da8efb17b1050904994d6f500e
                           .group:0000000000000000 wm4.riscv_bits.h.19.ee94eb3d39937793d4cd0a62363e5d00
                           .group:0000000000000000 wm4.riscv_encoding.h.35.f5d37fad7abbab8278b4bb6f1e32fa65
                           .group:0000000000000000 wm4.nmsis_gcc.h.61.5d70d7598ffc79c3c991d847a574cf23
                           .group:0000000000000000 wm4.core_feature_base.h.20.e99d3e75c26a8f3341d35bf20d0e1d20
                           .group:0000000000000000 wm4.core_feature_fpu.h.19.695f2200274659b530cb97cda749ff4f
                           .group:0000000000000000 wm4.core_feature_dsp.h.19.e8f8d7aa42f197807aefedb6584486cd
                           .group:0000000000000000 wm4.core_compatiable.h.19.5b8282d61b1f6889a82895616b730084
                           .group:0000000000000000 wm4.core_feature_eclic.h.19.e0c091d0cbda79e8b3b031b979ebd5a1
                           .group:0000000000000000 wm4.core_feature_timer.h.19.21a5151282de34c37dfa6d84e262aa54
                           .group:0000000000000000 wm4.system_gd32vw55x.h.32.f1fcb1212d387c35ac955b0e96ada468
                           .group:0000000000000000 wm4.gd32vw55x.h.231.3529c650aff38c9372f7e03177fd2c8a
                           .group:0000000000000000 wm4.gd32vw55x_adc.h.42.ae73acec1704ef509ccecb41a875b50e
                           .group:0000000000000000 wm4.gd32vw55x_cau.h.36.c98428fe1eae7edb4721da5c8078c974
                           .group:0000000000000000 wm4.gd32vw55x_crc.h.37.c58f296814c2300a4b067c08bd88d54e
                           .group:0000000000000000 wm4.gd32vw55x_dbg.h.36.311650c8545549d482ceca8befc5a232
                           .group:0000000000000000 wm4.gd32vw55x_dma.h.36.f4adc751172b2a7b1533dda72e948737
                           .group:0000000000000000 wm4.gd32vw55x_eclic.h.36.0411499f2b2493c67246e32ccae096c1
                           .group:0000000000000000 wm4.gd32vw55x_efuse.h.36.091404cecbab70359dfd93faec5fdb62
                           .group:0000000000000000 wm4.gd32vw55x_exti.h.36.de7508334dd12f1a6a673521a1a835f5
                           .group:0000000000000000 wm4.gd32vw55x_fmc.h.36.a4b0b94c47ffe23a2fa09260c5ed4850
                           .group:0000000000000000 wm4.gd32vw55x_fwdgt.h.36.4846b6900fd24b5bfce4986c9a8ce677
                           .group:0000000000000000 wm4.gd32vw55x_gpio.h.36.adfee1371bb58d3d9043c47bdb25a90f
                           .group:0000000000000000 wm4.gd32vw55x_i2c.h.36.3848990933925e084eb427083790c53f
                           .group:0000000000000000 wm4.gd32vw55x_pkcau.h.36.bb2235f4cf4967063a51bfa9aca5ef27
                           .group:0000000000000000 wm4.gd32vw55x_pmu.h.36.4c76091f1415551526d489ccf2c42052
                           .group:0000000000000000 wm4.gd32vw55x_qspi.h.36.2d2c181cfe19b935a9641008fc786613
                           .group:0000000000000000 wm4.gd32vw55x_rcu.h.36.780a8a45c00d563711cceb445027ef47
                           .group:0000000000000000 wm4.gd32vw55x_rtc.h.36.3172855e8715659e080e0eab46fdf175
                           .group:0000000000000000 wm4.gd32vw55x_spi.h.36.9fa1be2b09fb73e4b5886e97f0e96d58
                           .group:0000000000000000 wm4.gd32vw55x_syscfg.h.36.010551f05591f5e34051d2e15df0352b
                           .group:0000000000000000 wm4.gd32vw55x_timer.h.38.2cbee78ea60d47145be361b2d2c55070
                           .group:0000000000000000 wm4.gd32vw55x_trng.h.36.c9e7807af1b1ab68d3bbb54f4ed5cd73
                           .group:0000000000000000 wm4.gd32vw55x_usart.h.36.f5c497cca17945a34f154b0e17017d02
                           .group:0000000000000000 wm4.gd32vw55x_wwdgt.h.36.f7a443b7302efc0e5c335888582ee197
                           .group:0000000000000000 wm4.gd32vw55x_hau.h.41.c15834d7deff02978f8681be035d2e9b

UNDEFINED SYMBOLS
rcu_periph_reset_enable
rcu_periph_reset_disable
