   1              		.file	"gd32vw55x_adc.c"
   2              		.option nopic
   3              		.attribute arch, "rv32i2p0_m2p0_a2p0_c2p0"
   4              		.attribute unaligned_access, 0
   5              		.attribute stack_align, 16
   6              		.text
   7              	.Ltext0:
   8              		.cfi_sections	.debug_frame
   9              		.section	.text.adc_deinit,"ax",@progbits
  10              		.align	1
  11              		.globl	adc_deinit
  13              	adc_deinit:
  14              	.LFB347:
  15              		.file 1 "../Firmware/GD32VW55x_standard_peripheral/Source/gd32vw55x_adc.c"
   1:../Firmware/GD32VW55x_standard_peripheral/Source/gd32vw55x_adc.c **** /*!
   2:../Firmware/GD32VW55x_standard_peripheral/Source/gd32vw55x_adc.c ****     \file    GD32VW55x_adc.c
   3:../Firmware/GD32VW55x_standard_peripheral/Source/gd32vw55x_adc.c ****     \brief   ADC driver
   4:../Firmware/GD32VW55x_standard_peripheral/Source/gd32vw55x_adc.c **** 
   5:../Firmware/GD32VW55x_standard_peripheral/Source/gd32vw55x_adc.c ****     \version 2025-01-16, V1.4.0, firmware for GD32VW55x
   6:../Firmware/GD32VW55x_standard_peripheral/Source/gd32vw55x_adc.c **** */
   7:../Firmware/GD32VW55x_standard_peripheral/Source/gd32vw55x_adc.c **** 
   8:../Firmware/GD32VW55x_standard_peripheral/Source/gd32vw55x_adc.c **** /*
   9:../Firmware/GD32VW55x_standard_peripheral/Source/gd32vw55x_adc.c ****     Copyright (c) 2025, GigaDevice Semiconductor Inc.
  10:../Firmware/GD32VW55x_standard_peripheral/Source/gd32vw55x_adc.c **** 
  11:../Firmware/GD32VW55x_standard_peripheral/Source/gd32vw55x_adc.c ****     Redistribution and use in source and binary forms, with or without modification,
  12:../Firmware/GD32VW55x_standard_peripheral/Source/gd32vw55x_adc.c **** are permitted provided that the following conditions are met:
  13:../Firmware/GD32VW55x_standard_peripheral/Source/gd32vw55x_adc.c **** 
  14:../Firmware/GD32VW55x_standard_peripheral/Source/gd32vw55x_adc.c ****     1. Redistributions of source code must retain the above copyright notice, this
  15:../Firmware/GD32VW55x_standard_peripheral/Source/gd32vw55x_adc.c ****        list of conditions and the following disclaimer.
  16:../Firmware/GD32VW55x_standard_peripheral/Source/gd32vw55x_adc.c ****     2. Redistributions in binary form must reproduce the above copyright notice,
  17:../Firmware/GD32VW55x_standard_peripheral/Source/gd32vw55x_adc.c ****        this list of conditions and the following disclaimer in the documentation
  18:../Firmware/GD32VW55x_standard_peripheral/Source/gd32vw55x_adc.c ****        and/or other materials provided with the distribution.
  19:../Firmware/GD32VW55x_standard_peripheral/Source/gd32vw55x_adc.c ****     3. Neither the name of the copyright holder nor the names of its contributors
  20:../Firmware/GD32VW55x_standard_peripheral/Source/gd32vw55x_adc.c ****        may be used to endorse or promote products derived from this software without
  21:../Firmware/GD32VW55x_standard_peripheral/Source/gd32vw55x_adc.c ****        specific prior written permission.
  22:../Firmware/GD32VW55x_standard_peripheral/Source/gd32vw55x_adc.c **** 
  23:../Firmware/GD32VW55x_standard_peripheral/Source/gd32vw55x_adc.c ****     THIS SOFTWARE IS PROVIDED BY THE COPYRIGHT HOLDERS AND CONTRIBUTORS "AS IS"
  24:../Firmware/GD32VW55x_standard_peripheral/Source/gd32vw55x_adc.c **** AND ANY EXPRESS OR IMPLIED WARRANTIES, INCLUDING, BUT NOT LIMITED TO, THE IMPLIED
  25:../Firmware/GD32VW55x_standard_peripheral/Source/gd32vw55x_adc.c **** WARRANTIES OF MERCHANTABILITY AND FITNESS FOR A PARTICULAR PURPOSE ARE DISCLAIMED.
  26:../Firmware/GD32VW55x_standard_peripheral/Source/gd32vw55x_adc.c **** IN NO EVENT SHALL THE COPYRIGHT HOLDER OR CONTRIBUTORS BE LIABLE FOR ANY DIRECT,
  27:../Firmware/GD32VW55x_standard_peripheral/Source/gd32vw55x_adc.c **** INDIRECT, INCIDENTAL, SPECIAL, EXEMPLARY, OR CONSEQUENTIAL DAMAGES (INCLUDING, BUT
  28:../Firmware/GD32VW55x_standard_peripheral/Source/gd32vw55x_adc.c **** NOT LIMITED TO, PROCUREMENT OF SUBSTITUTE GOODS OR SERVICES; LOSS OF USE, DATA, OR
  29:../Firmware/GD32VW55x_standard_peripheral/Source/gd32vw55x_adc.c **** PROFITS; OR BUSINESS INTERRUPTION) HOWEVER CAUSED AND ON ANY THEORY OF LIABILITY,
  30:../Firmware/GD32VW55x_standard_peripheral/Source/gd32vw55x_adc.c **** WHETHER IN CONTRACT, STRICT LIABILITY, OR TORT (INCLUDING NEGLIGENCE OR OTHERWISE)
  31:../Firmware/GD32VW55x_standard_peripheral/Source/gd32vw55x_adc.c **** ARISING IN ANY WAY OUT OF THE USE OF THIS SOFTWARE, EVEN IF ADVISED OF THE POSSIBILITY
  32:../Firmware/GD32VW55x_standard_peripheral/Source/gd32vw55x_adc.c **** OF SUCH DAMAGE.
  33:../Firmware/GD32VW55x_standard_peripheral/Source/gd32vw55x_adc.c **** */
  34:../Firmware/GD32VW55x_standard_peripheral/Source/gd32vw55x_adc.c **** 
  35:../Firmware/GD32VW55x_standard_peripheral/Source/gd32vw55x_adc.c **** #include "gd32vw55x_adc.h"
  36:../Firmware/GD32VW55x_standard_peripheral/Source/gd32vw55x_adc.c **** 
  37:../Firmware/GD32VW55x_standard_peripheral/Source/gd32vw55x_adc.c **** #define ROUTINE_TRIGGER_MODE_OFFSET                 ((uint32_t)0x0000001CU)
  38:../Firmware/GD32VW55x_standard_peripheral/Source/gd32vw55x_adc.c **** #define INSERTED_TRIGGER_MODE_OFFSET                ((uint32_t)0x00000014U)
  39:../Firmware/GD32VW55x_standard_peripheral/Source/gd32vw55x_adc.c **** 
  40:../Firmware/GD32VW55x_standard_peripheral/Source/gd32vw55x_adc.c **** /* discontinuous mode macro*/
  41:../Firmware/GD32VW55x_standard_peripheral/Source/gd32vw55x_adc.c **** #define  ADC_CHANNEL_LENGTH_SUBTRACT_ONE            ((uint8_t)0x01U)
  42:../Firmware/GD32VW55x_standard_peripheral/Source/gd32vw55x_adc.c **** 
  43:../Firmware/GD32VW55x_standard_peripheral/Source/gd32vw55x_adc.c **** /* ADC routine channel macro */
  44:../Firmware/GD32VW55x_standard_peripheral/Source/gd32vw55x_adc.c **** #define  ADC_ROUTINE_CHANNEL_RANK_SIX               ((uint8_t)0x06U)
  45:../Firmware/GD32VW55x_standard_peripheral/Source/gd32vw55x_adc.c **** #define  ADC_ROUTINE_CHANNEL_RANK_NINE              ((uint8_t)0x09U)
  46:../Firmware/GD32VW55x_standard_peripheral/Source/gd32vw55x_adc.c **** #define  ADC_ROUTINE_CHANNEL_RANK_LENGTH            ((uint8_t)0x05U)
  47:../Firmware/GD32VW55x_standard_peripheral/Source/gd32vw55x_adc.c **** 
  48:../Firmware/GD32VW55x_standard_peripheral/Source/gd32vw55x_adc.c **** /* ADC sampling time macro */
  49:../Firmware/GD32VW55x_standard_peripheral/Source/gd32vw55x_adc.c **** #define  ADC_CHANNEL_SAMPLE_EIGHT                   ((uint8_t)0x08U)
  50:../Firmware/GD32VW55x_standard_peripheral/Source/gd32vw55x_adc.c **** #define  ADC_CHANNEL_SAMPLE_ELEVEN                  ((uint8_t)0x0BU)
  51:../Firmware/GD32VW55x_standard_peripheral/Source/gd32vw55x_adc.c **** #define  ADC_CHANNEL_SAMPLE_LENGTH                  ((uint8_t)0x04U)
  52:../Firmware/GD32VW55x_standard_peripheral/Source/gd32vw55x_adc.c **** 
  53:../Firmware/GD32VW55x_standard_peripheral/Source/gd32vw55x_adc.c **** /* ADC inserted channel macro */
  54:../Firmware/GD32VW55x_standard_peripheral/Source/gd32vw55x_adc.c **** #define  ADC_INSERTED_CHANNEL_RANK_LENGTH           ((uint8_t)0x05U)
  55:../Firmware/GD32VW55x_standard_peripheral/Source/gd32vw55x_adc.c **** #define  ADC_INSERTED_CHANNEL_SHIFT_OFFSET          ((uint8_t)0x0FU)
  56:../Firmware/GD32VW55x_standard_peripheral/Source/gd32vw55x_adc.c **** 
  57:../Firmware/GD32VW55x_standard_peripheral/Source/gd32vw55x_adc.c **** /* ADC inserted channel offset macro */
  58:../Firmware/GD32VW55x_standard_peripheral/Source/gd32vw55x_adc.c **** #define  ADC_OFFSET_LENGTH                          ((uint8_t)0x03U)
  59:../Firmware/GD32VW55x_standard_peripheral/Source/gd32vw55x_adc.c **** #define  ADC_OFFSET_SHIFT_LENGTH                    ((uint8_t)0x04U)
  60:../Firmware/GD32VW55x_standard_peripheral/Source/gd32vw55x_adc.c **** 
  61:../Firmware/GD32VW55x_standard_peripheral/Source/gd32vw55x_adc.c **** /*!
  62:../Firmware/GD32VW55x_standard_peripheral/Source/gd32vw55x_adc.c ****     \brief      reset ADC
  63:../Firmware/GD32VW55x_standard_peripheral/Source/gd32vw55x_adc.c ****     \param[in]  none
  64:../Firmware/GD32VW55x_standard_peripheral/Source/gd32vw55x_adc.c ****     \param[out] none
  65:../Firmware/GD32VW55x_standard_peripheral/Source/gd32vw55x_adc.c ****     \retval     none
  66:../Firmware/GD32VW55x_standard_peripheral/Source/gd32vw55x_adc.c **** */
  67:../Firmware/GD32VW55x_standard_peripheral/Source/gd32vw55x_adc.c **** void adc_deinit(void)
  68:../Firmware/GD32VW55x_standard_peripheral/Source/gd32vw55x_adc.c **** {
  16              		.loc 1 68 1
  17              		.cfi_startproc
  18 0000 4111     		addi	sp,sp,-16
  19              		.cfi_def_cfa_offset 16
  20 0002 06C6     		sw	ra,12(sp)
  21 0004 22C4     		sw	s0,8(sp)
  22              		.cfi_offset 1, -4
  23              		.cfi_offset 8, -8
  24 0006 0008     		addi	s0,sp,16
  25              		.cfi_def_cfa 8, 0
  69:../Firmware/GD32VW55x_standard_peripheral/Source/gd32vw55x_adc.c ****     rcu_periph_reset_enable(RCU_ADCRST);
  26              		.loc 1 69 5
  27 0008 8567     		li	a5,4096
  28 000a 13858790 		addi	a0,a5,-1784
  29 000e 97000000 		call	rcu_periph_reset_enable
  29      E7800000 
  70:../Firmware/GD32VW55x_standard_peripheral/Source/gd32vw55x_adc.c ****     rcu_periph_reset_disable(RCU_ADCRST);
  30              		.loc 1 70 5
  31 0016 8567     		li	a5,4096
  32 0018 13858790 		addi	a0,a5,-1784
  33 001c 97000000 		call	rcu_periph_reset_disable
  33      E7800000 
  71:../Firmware/GD32VW55x_standard_peripheral/Source/gd32vw55x_adc.c **** }
  34              		.loc 1 71 1
  35 0024 0100     		nop
  36 0026 B240     		lw	ra,12(sp)
  37              		.cfi_restore 1
  38 0028 2244     		lw	s0,8(sp)
  39              		.cfi_restore 8
  40              		.cfi_def_cfa 2, 16
  41 002a 4101     		addi	sp,sp,16
  42              		.cfi_def_cfa_offset 0
  43 002c 8280     		jr	ra
  44              		.cfi_endproc
  45              	.LFE347:
  47              		.section	.text.adc_clock_config,"ax",@progbits
  48              		.align	1
  49              		.globl	adc_clock_config
  51              	adc_clock_config:
  52              	.LFB348:
  72:../Firmware/GD32VW55x_standard_peripheral/Source/gd32vw55x_adc.c **** 
  73:../Firmware/GD32VW55x_standard_peripheral/Source/gd32vw55x_adc.c **** /*!
  74:../Firmware/GD32VW55x_standard_peripheral/Source/gd32vw55x_adc.c ****     \brief      configure the ADC clock
  75:../Firmware/GD32VW55x_standard_peripheral/Source/gd32vw55x_adc.c ****     \param[in]  prescaler: configure ADC prescaler ratio
  76:../Firmware/GD32VW55x_standard_peripheral/Source/gd32vw55x_adc.c ****                 only one parameter can be selected which is shown as below:
  77:../Firmware/GD32VW55x_standard_peripheral/Source/gd32vw55x_adc.c ****       \arg        ADC_ADCCK_PCLK2_DIV2: PCLK2 div2
  78:../Firmware/GD32VW55x_standard_peripheral/Source/gd32vw55x_adc.c ****       \arg        ADC_ADCCK_PCLK2_DIV4: PCLK2 div4
  79:../Firmware/GD32VW55x_standard_peripheral/Source/gd32vw55x_adc.c ****       \arg        ADC_ADCCK_PCLK2_DIV6: PCLK2 div6
  80:../Firmware/GD32VW55x_standard_peripheral/Source/gd32vw55x_adc.c ****       \arg        ADC_ADCCK_PCLK2_DIV8: PCLK2 div8
  81:../Firmware/GD32VW55x_standard_peripheral/Source/gd32vw55x_adc.c ****       \arg        ADC_ADCCK_HCLK_DIV5: HCLK div5
  82:../Firmware/GD32VW55x_standard_peripheral/Source/gd32vw55x_adc.c ****       \arg        ADC_ADCCK_HCLK_DIV6: HCLK div6
  83:../Firmware/GD32VW55x_standard_peripheral/Source/gd32vw55x_adc.c ****       \arg        ADC_ADCCK_HCLK_DIV10: HCLK div10
  84:../Firmware/GD32VW55x_standard_peripheral/Source/gd32vw55x_adc.c ****       \arg        ADC_ADCCK_HCLK_DIV20: HCLK div20
  85:../Firmware/GD32VW55x_standard_peripheral/Source/gd32vw55x_adc.c ****     \param[out] none
  86:../Firmware/GD32VW55x_standard_peripheral/Source/gd32vw55x_adc.c ****     \retval     none
  87:../Firmware/GD32VW55x_standard_peripheral/Source/gd32vw55x_adc.c **** */
  88:../Firmware/GD32VW55x_standard_peripheral/Source/gd32vw55x_adc.c **** void adc_clock_config(uint32_t prescaler)
  89:../Firmware/GD32VW55x_standard_peripheral/Source/gd32vw55x_adc.c **** {
  53              		.loc 1 89 1
  54              		.cfi_startproc
  55 0000 0111     		addi	sp,sp,-32
  56              		.cfi_def_cfa_offset 32
  57 0002 22CE     		sw	s0,28(sp)
  58              		.cfi_offset 8, -4
  59 0004 0010     		addi	s0,sp,32
  60              		.cfi_def_cfa 8, 0
  61 0006 2326A4FE 		sw	a0,-20(s0)
  90:../Firmware/GD32VW55x_standard_peripheral/Source/gd32vw55x_adc.c ****     ADC_CCTL &= ~((uint32_t)ADC_CCTL_ADCCK);
  62              		.loc 1 90 14
  63 000a B7270140 		li	a5,1073815552
  64 000e 93874730 		addi	a5,a5,772
  65 0012 9443     		lw	a3,0(a5)
  66 0014 B7270140 		li	a5,1073815552
  67 0018 93874730 		addi	a5,a5,772
  68 001c 3707F9FF 		li	a4,-458752
  69 0020 7D17     		addi	a4,a4,-1
  70 0022 758F     		and	a4,a3,a4
  71 0024 98C3     		sw	a4,0(a5)
  91:../Firmware/GD32VW55x_standard_peripheral/Source/gd32vw55x_adc.c ****     ADC_CCTL |= (uint32_t) prescaler;
  72              		.loc 1 91 14
  73 0026 B7270140 		li	a5,1073815552
  74 002a 93874730 		addi	a5,a5,772
  75 002e 9443     		lw	a3,0(a5)
  76 0030 B7270140 		li	a5,1073815552
  77 0034 93874730 		addi	a5,a5,772
  78 0038 0327C4FE 		lw	a4,-20(s0)
  79 003c 558F     		or	a4,a3,a4
  80 003e 98C3     		sw	a4,0(a5)
  92:../Firmware/GD32VW55x_standard_peripheral/Source/gd32vw55x_adc.c **** }
  81              		.loc 1 92 1
  82 0040 0100     		nop
  83 0042 7244     		lw	s0,28(sp)
  84              		.cfi_restore 8
  85              		.cfi_def_cfa 2, 32
  86 0044 0561     		addi	sp,sp,32
  87              		.cfi_def_cfa_offset 0
  88 0046 8280     		jr	ra
  89              		.cfi_endproc
  90              	.LFE348:
  92              		.section	.text.adc_enable,"ax",@progbits
  93              		.align	1
  94              		.globl	adc_enable
  96              	adc_enable:
  97              	.LFB349:
  93:../Firmware/GD32VW55x_standard_peripheral/Source/gd32vw55x_adc.c **** 
  94:../Firmware/GD32VW55x_standard_peripheral/Source/gd32vw55x_adc.c **** /*!
  95:../Firmware/GD32VW55x_standard_peripheral/Source/gd32vw55x_adc.c ****     \brief      enable ADC interface
  96:../Firmware/GD32VW55x_standard_peripheral/Source/gd32vw55x_adc.c ****     \param[in]  none
  97:../Firmware/GD32VW55x_standard_peripheral/Source/gd32vw55x_adc.c ****     \param[out] none
  98:../Firmware/GD32VW55x_standard_peripheral/Source/gd32vw55x_adc.c ****     \retval     none
  99:../Firmware/GD32VW55x_standard_peripheral/Source/gd32vw55x_adc.c **** */
 100:../Firmware/GD32VW55x_standard_peripheral/Source/gd32vw55x_adc.c **** void adc_enable(void)
 101:../Firmware/GD32VW55x_standard_peripheral/Source/gd32vw55x_adc.c **** {
  98              		.loc 1 101 1
  99              		.cfi_startproc
 100 0000 4111     		addi	sp,sp,-16
 101              		.cfi_def_cfa_offset 16
 102 0002 22C6     		sw	s0,12(sp)
 103              		.cfi_offset 8, -4
 104 0004 0008     		addi	s0,sp,16
 105              		.cfi_def_cfa 8, 0
 102:../Firmware/GD32VW55x_standard_peripheral/Source/gd32vw55x_adc.c ****     if(RESET == (ADC_CTL1 & ADC_CTL1_ADCON)){
 106              		.loc 1 102 18
 107 0006 B7270140 		li	a5,1073815552
 108 000a A107     		addi	a5,a5,8
 109 000c 9C43     		lw	a5,0(a5)
 110              		.loc 1 102 27
 111 000e 858B     		andi	a5,a5,1
 112              		.loc 1 102 7
 113 0010 99EB     		bne	a5,zero,.L5
 103:../Firmware/GD32VW55x_standard_peripheral/Source/gd32vw55x_adc.c ****         /* enable ADC */
 104:../Firmware/GD32VW55x_standard_peripheral/Source/gd32vw55x_adc.c ****         ADC_CTL1 |= (uint32_t)ADC_CTL1_ADCON;
 114              		.loc 1 104 18
 115 0012 B7270140 		li	a5,1073815552
 116 0016 A107     		addi	a5,a5,8
 117 0018 9843     		lw	a4,0(a5)
 118 001a B7270140 		li	a5,1073815552
 119 001e A107     		addi	a5,a5,8
 120 0020 13671700 		ori	a4,a4,1
 121 0024 98C3     		sw	a4,0(a5)
 122              	.L5:
 105:../Firmware/GD32VW55x_standard_peripheral/Source/gd32vw55x_adc.c ****     }
 106:../Firmware/GD32VW55x_standard_peripheral/Source/gd32vw55x_adc.c **** }
 123              		.loc 1 106 1
 124 0026 0100     		nop
 125 0028 3244     		lw	s0,12(sp)
 126              		.cfi_restore 8
 127              		.cfi_def_cfa 2, 16
 128 002a 4101     		addi	sp,sp,16
 129              		.cfi_def_cfa_offset 0
 130 002c 8280     		jr	ra
 131              		.cfi_endproc
 132              	.LFE349:
 134              		.section	.text.adc_disable,"ax",@progbits
 135              		.align	1
 136              		.globl	adc_disable
 138              	adc_disable:
 139              	.LFB350:
 107:../Firmware/GD32VW55x_standard_peripheral/Source/gd32vw55x_adc.c **** 
 108:../Firmware/GD32VW55x_standard_peripheral/Source/gd32vw55x_adc.c **** /*!
 109:../Firmware/GD32VW55x_standard_peripheral/Source/gd32vw55x_adc.c ****     \brief      disable ADC interface
 110:../Firmware/GD32VW55x_standard_peripheral/Source/gd32vw55x_adc.c ****     \param[in]  none
 111:../Firmware/GD32VW55x_standard_peripheral/Source/gd32vw55x_adc.c ****     \param[out] none
 112:../Firmware/GD32VW55x_standard_peripheral/Source/gd32vw55x_adc.c ****     \retval     none
 113:../Firmware/GD32VW55x_standard_peripheral/Source/gd32vw55x_adc.c **** */
 114:../Firmware/GD32VW55x_standard_peripheral/Source/gd32vw55x_adc.c **** void adc_disable(void)
 115:../Firmware/GD32VW55x_standard_peripheral/Source/gd32vw55x_adc.c **** {
 140              		.loc 1 115 1
 141              		.cfi_startproc
 142 0000 4111     		addi	sp,sp,-16
 143              		.cfi_def_cfa_offset 16
 144 0002 22C6     		sw	s0,12(sp)
 145              		.cfi_offset 8, -4
 146 0004 0008     		addi	s0,sp,16
 147              		.cfi_def_cfa 8, 0
 116:../Firmware/GD32VW55x_standard_peripheral/Source/gd32vw55x_adc.c ****     /* disable ADC */
 117:../Firmware/GD32VW55x_standard_peripheral/Source/gd32vw55x_adc.c ****     ADC_CTL1 &= ~((uint32_t)ADC_CTL1_ADCON);
 148              		.loc 1 117 14
 149 0006 B7270140 		li	a5,1073815552
 150 000a A107     		addi	a5,a5,8
 151 000c 9843     		lw	a4,0(a5)
 152 000e B7270140 		li	a5,1073815552
 153 0012 A107     		addi	a5,a5,8
 154 0014 799B     		andi	a4,a4,-2
 155 0016 98C3     		sw	a4,0(a5)
 118:../Firmware/GD32VW55x_standard_peripheral/Source/gd32vw55x_adc.c **** }
 156              		.loc 1 118 1
 157 0018 0100     		nop
 158 001a 3244     		lw	s0,12(sp)
 159              		.cfi_restore 8
 160              		.cfi_def_cfa 2, 16
 161 001c 4101     		addi	sp,sp,16
 162              		.cfi_def_cfa_offset 0
 163 001e 8280     		jr	ra
 164              		.cfi_endproc
 165              	.LFE350:
 167              		.section	.text.adc_dma_mode_enable,"ax",@progbits
 168              		.align	1
 169              		.globl	adc_dma_mode_enable
 171              	adc_dma_mode_enable:
 172              	.LFB351:
 119:../Firmware/GD32VW55x_standard_peripheral/Source/gd32vw55x_adc.c **** 
 120:../Firmware/GD32VW55x_standard_peripheral/Source/gd32vw55x_adc.c **** /*!
 121:../Firmware/GD32VW55x_standard_peripheral/Source/gd32vw55x_adc.c ****     \brief      enable DMA request
 122:../Firmware/GD32VW55x_standard_peripheral/Source/gd32vw55x_adc.c ****     \param[in]  none
 123:../Firmware/GD32VW55x_standard_peripheral/Source/gd32vw55x_adc.c ****     \param[out] none
 124:../Firmware/GD32VW55x_standard_peripheral/Source/gd32vw55x_adc.c ****     \retval     none
 125:../Firmware/GD32VW55x_standard_peripheral/Source/gd32vw55x_adc.c **** */
 126:../Firmware/GD32VW55x_standard_peripheral/Source/gd32vw55x_adc.c **** void adc_dma_mode_enable(void)
 127:../Firmware/GD32VW55x_standard_peripheral/Source/gd32vw55x_adc.c **** {
 173              		.loc 1 127 1
 174              		.cfi_startproc
 175 0000 4111     		addi	sp,sp,-16
 176              		.cfi_def_cfa_offset 16
 177 0002 22C6     		sw	s0,12(sp)
 178              		.cfi_offset 8, -4
 179 0004 0008     		addi	s0,sp,16
 180              		.cfi_def_cfa 8, 0
 128:../Firmware/GD32VW55x_standard_peripheral/Source/gd32vw55x_adc.c ****     /* enable DMA request */
 129:../Firmware/GD32VW55x_standard_peripheral/Source/gd32vw55x_adc.c ****     ADC_CTL1 |= (uint32_t)(ADC_CTL1_DMA);
 181              		.loc 1 129 14
 182 0006 B7270140 		li	a5,1073815552
 183 000a A107     		addi	a5,a5,8
 184 000c 9843     		lw	a4,0(a5)
 185 000e B7270140 		li	a5,1073815552
 186 0012 A107     		addi	a5,a5,8
 187 0014 13670710 		ori	a4,a4,256
 188 0018 98C3     		sw	a4,0(a5)
 130:../Firmware/GD32VW55x_standard_peripheral/Source/gd32vw55x_adc.c **** }
 189              		.loc 1 130 1
 190 001a 0100     		nop
 191 001c 3244     		lw	s0,12(sp)
 192              		.cfi_restore 8
 193              		.cfi_def_cfa 2, 16
 194 001e 4101     		addi	sp,sp,16
 195              		.cfi_def_cfa_offset 0
 196 0020 8280     		jr	ra
 197              		.cfi_endproc
 198              	.LFE351:
 200              		.section	.text.adc_dma_mode_disable,"ax",@progbits
 201              		.align	1
 202              		.globl	adc_dma_mode_disable
 204              	adc_dma_mode_disable:
 205              	.LFB352:
 131:../Firmware/GD32VW55x_standard_peripheral/Source/gd32vw55x_adc.c **** 
 132:../Firmware/GD32VW55x_standard_peripheral/Source/gd32vw55x_adc.c **** /*!
 133:../Firmware/GD32VW55x_standard_peripheral/Source/gd32vw55x_adc.c ****     \brief      disable DMA request
 134:../Firmware/GD32VW55x_standard_peripheral/Source/gd32vw55x_adc.c ****     \param[in]  none
 135:../Firmware/GD32VW55x_standard_peripheral/Source/gd32vw55x_adc.c ****     \param[out] none
 136:../Firmware/GD32VW55x_standard_peripheral/Source/gd32vw55x_adc.c ****     \retval     none
 137:../Firmware/GD32VW55x_standard_peripheral/Source/gd32vw55x_adc.c **** */
 138:../Firmware/GD32VW55x_standard_peripheral/Source/gd32vw55x_adc.c **** void adc_dma_mode_disable(void)
 139:../Firmware/GD32VW55x_standard_peripheral/Source/gd32vw55x_adc.c **** {
 206              		.loc 1 139 1
 207              		.cfi_startproc
 208 0000 4111     		addi	sp,sp,-16
 209              		.cfi_def_cfa_offset 16
 210 0002 22C6     		sw	s0,12(sp)
 211              		.cfi_offset 8, -4
 212 0004 0008     		addi	s0,sp,16
 213              		.cfi_def_cfa 8, 0
 140:../Firmware/GD32VW55x_standard_peripheral/Source/gd32vw55x_adc.c ****     /* disable DMA request */
 141:../Firmware/GD32VW55x_standard_peripheral/Source/gd32vw55x_adc.c ****     ADC_CTL1 &= ~((uint32_t)ADC_CTL1_DMA);
 214              		.loc 1 141 14
 215 0006 B7270140 		li	a5,1073815552
 216 000a A107     		addi	a5,a5,8
 217 000c 9843     		lw	a4,0(a5)
 218 000e B7270140 		li	a5,1073815552
 219 0012 A107     		addi	a5,a5,8
 220 0014 1377F7EF 		andi	a4,a4,-257
 221 0018 98C3     		sw	a4,0(a5)
 142:../Firmware/GD32VW55x_standard_peripheral/Source/gd32vw55x_adc.c **** }
 222              		.loc 1 142 1
 223 001a 0100     		nop
 224 001c 3244     		lw	s0,12(sp)
 225              		.cfi_restore 8
 226              		.cfi_def_cfa 2, 16
 227 001e 4101     		addi	sp,sp,16
 228              		.cfi_def_cfa_offset 0
 229 0020 8280     		jr	ra
 230              		.cfi_endproc
 231              	.LFE352:
 233              		.section	.text.adc_dma_request_after_last_enable,"ax",@progbits
 234              		.align	1
 235              		.globl	adc_dma_request_after_last_enable
 237              	adc_dma_request_after_last_enable:
 238              	.LFB353:
 143:../Firmware/GD32VW55x_standard_peripheral/Source/gd32vw55x_adc.c **** 
 144:../Firmware/GD32VW55x_standard_peripheral/Source/gd32vw55x_adc.c **** /*!
 145:../Firmware/GD32VW55x_standard_peripheral/Source/gd32vw55x_adc.c ****     \brief      when DDM=1, the DMA engine issues a request at end of each routine conversion
 146:../Firmware/GD32VW55x_standard_peripheral/Source/gd32vw55x_adc.c ****     \param[in]  none
 147:../Firmware/GD32VW55x_standard_peripheral/Source/gd32vw55x_adc.c ****     \param[out] none
 148:../Firmware/GD32VW55x_standard_peripheral/Source/gd32vw55x_adc.c ****     \retval     none
 149:../Firmware/GD32VW55x_standard_peripheral/Source/gd32vw55x_adc.c **** */
 150:../Firmware/GD32VW55x_standard_peripheral/Source/gd32vw55x_adc.c **** void adc_dma_request_after_last_enable(void)
 151:../Firmware/GD32VW55x_standard_peripheral/Source/gd32vw55x_adc.c **** {
 239              		.loc 1 151 1
 240              		.cfi_startproc
 241 0000 4111     		addi	sp,sp,-16
 242              		.cfi_def_cfa_offset 16
 243 0002 22C6     		sw	s0,12(sp)
 244              		.cfi_offset 8, -4
 245 0004 0008     		addi	s0,sp,16
 246              		.cfi_def_cfa 8, 0
 152:../Firmware/GD32VW55x_standard_peripheral/Source/gd32vw55x_adc.c ****     ADC_CTL1 |= (uint32_t)(ADC_CTL1_DDM);
 247              		.loc 1 152 14
 248 0006 B7270140 		li	a5,1073815552
 249 000a A107     		addi	a5,a5,8
 250 000c 9843     		lw	a4,0(a5)
 251 000e B7270140 		li	a5,1073815552
 252 0012 A107     		addi	a5,a5,8
 253 0014 13670720 		ori	a4,a4,512
 254 0018 98C3     		sw	a4,0(a5)
 153:../Firmware/GD32VW55x_standard_peripheral/Source/gd32vw55x_adc.c **** }
 255              		.loc 1 153 1
 256 001a 0100     		nop
 257 001c 3244     		lw	s0,12(sp)
 258              		.cfi_restore 8
 259              		.cfi_def_cfa 2, 16
 260 001e 4101     		addi	sp,sp,16
 261              		.cfi_def_cfa_offset 0
 262 0020 8280     		jr	ra
 263              		.cfi_endproc
 264              	.LFE353:
 266              		.section	.text.adc_dma_request_after_last_disable,"ax",@progbits
 267              		.align	1
 268              		.globl	adc_dma_request_after_last_disable
 270              	adc_dma_request_after_last_disable:
 271              	.LFB354:
 154:../Firmware/GD32VW55x_standard_peripheral/Source/gd32vw55x_adc.c **** 
 155:../Firmware/GD32VW55x_standard_peripheral/Source/gd32vw55x_adc.c **** /*!
 156:../Firmware/GD32VW55x_standard_peripheral/Source/gd32vw55x_adc.c ****     \brief      the DMA engine is disabled after the end of transfer signal from DMA controller is 
 157:../Firmware/GD32VW55x_standard_peripheral/Source/gd32vw55x_adc.c ****     \param[in]  none
 158:../Firmware/GD32VW55x_standard_peripheral/Source/gd32vw55x_adc.c ****     \param[out] none
 159:../Firmware/GD32VW55x_standard_peripheral/Source/gd32vw55x_adc.c ****     \retval     none
 160:../Firmware/GD32VW55x_standard_peripheral/Source/gd32vw55x_adc.c **** */
 161:../Firmware/GD32VW55x_standard_peripheral/Source/gd32vw55x_adc.c **** void adc_dma_request_after_last_disable(void)
 162:../Firmware/GD32VW55x_standard_peripheral/Source/gd32vw55x_adc.c **** {
 272              		.loc 1 162 1
 273              		.cfi_startproc
 274 0000 4111     		addi	sp,sp,-16
 275              		.cfi_def_cfa_offset 16
 276 0002 22C6     		sw	s0,12(sp)
 277              		.cfi_offset 8, -4
 278 0004 0008     		addi	s0,sp,16
 279              		.cfi_def_cfa 8, 0
 163:../Firmware/GD32VW55x_standard_peripheral/Source/gd32vw55x_adc.c ****     ADC_CTL1 &= ~((uint32_t)ADC_CTL1_DDM);
 280              		.loc 1 163 14
 281 0006 B7270140 		li	a5,1073815552
 282 000a A107     		addi	a5,a5,8
 283 000c 9843     		lw	a4,0(a5)
 284 000e B7270140 		li	a5,1073815552
 285 0012 A107     		addi	a5,a5,8
 286 0014 1377F7DF 		andi	a4,a4,-513
 287 0018 98C3     		sw	a4,0(a5)
 164:../Firmware/GD32VW55x_standard_peripheral/Source/gd32vw55x_adc.c **** }
 288              		.loc 1 164 1
 289 001a 0100     		nop
 290 001c 3244     		lw	s0,12(sp)
 291              		.cfi_restore 8
 292              		.cfi_def_cfa 2, 16
 293 001e 4101     		addi	sp,sp,16
 294              		.cfi_def_cfa_offset 0
 295 0020 8280     		jr	ra
 296              		.cfi_endproc
 297              	.LFE354:
 299              		.section	.text.adc_discontinuous_mode_config,"ax",@progbits
 300              		.align	1
 301              		.globl	adc_discontinuous_mode_config
 303              	adc_discontinuous_mode_config:
 304              	.LFB355:
 165:../Firmware/GD32VW55x_standard_peripheral/Source/gd32vw55x_adc.c **** 
 166:../Firmware/GD32VW55x_standard_peripheral/Source/gd32vw55x_adc.c **** /*!
 167:../Firmware/GD32VW55x_standard_peripheral/Source/gd32vw55x_adc.c ****     \brief      configure ADC discontinuous mode
 168:../Firmware/GD32VW55x_standard_peripheral/Source/gd32vw55x_adc.c ****     \param[in]  channel_group: select the channel group
 169:../Firmware/GD32VW55x_standard_peripheral/Source/gd32vw55x_adc.c ****                 only one parameter can be selected which is shown as below:
 170:../Firmware/GD32VW55x_standard_peripheral/Source/gd32vw55x_adc.c ****       \arg        ADC_ROUTINE_CHANNEL: routine channel group
 171:../Firmware/GD32VW55x_standard_peripheral/Source/gd32vw55x_adc.c ****       \arg        ADC_INSERTED_CHANNEL: inserted channel group
 172:../Firmware/GD32VW55x_standard_peripheral/Source/gd32vw55x_adc.c ****       \arg        ADC_CHANNEL_DISCON_DISABLE: disable discontinuous mode of routine and inserted ch
 173:../Firmware/GD32VW55x_standard_peripheral/Source/gd32vw55x_adc.c ****     \param[in]  length: number of conversions in discontinuous mode,the number can be 1..8
 174:../Firmware/GD32VW55x_standard_peripheral/Source/gd32vw55x_adc.c ****                         for routine channel ,the number has no effect for inserted channel
 175:../Firmware/GD32VW55x_standard_peripheral/Source/gd32vw55x_adc.c ****     \param[out] none
 176:../Firmware/GD32VW55x_standard_peripheral/Source/gd32vw55x_adc.c ****     \retval     none
 177:../Firmware/GD32VW55x_standard_peripheral/Source/gd32vw55x_adc.c **** */
 178:../Firmware/GD32VW55x_standard_peripheral/Source/gd32vw55x_adc.c **** void adc_discontinuous_mode_config(uint8_t channel_group, uint8_t length)
 179:../Firmware/GD32VW55x_standard_peripheral/Source/gd32vw55x_adc.c **** {
 305              		.loc 1 179 1
 306              		.cfi_startproc
 307 0000 0111     		addi	sp,sp,-32
 308              		.cfi_def_cfa_offset 32
 309 0002 22CE     		sw	s0,28(sp)
 310              		.cfi_offset 8, -4
 311 0004 0010     		addi	s0,sp,32
 312              		.cfi_def_cfa 8, 0
 313 0006 AA87     		mv	a5,a0
 314 0008 2E87     		mv	a4,a1
 315 000a A307F4FE 		sb	a5,-17(s0)
 316 000e BA87     		mv	a5,a4
 317 0010 2307F4FE 		sb	a5,-18(s0)
 180:../Firmware/GD32VW55x_standard_peripheral/Source/gd32vw55x_adc.c ****     /* disable discontinuous mode of routine & inserted channel */
 181:../Firmware/GD32VW55x_standard_peripheral/Source/gd32vw55x_adc.c ****     ADC_CTL0 &= ~((uint32_t)( ADC_CTL0_DISRC | ADC_CTL0_DISIC ));
 318              		.loc 1 181 14
 319 0014 B7270140 		li	a5,1073815552
 320 0018 9107     		addi	a5,a5,4
 321 001a 9443     		lw	a3,0(a5)
 322 001c B7270140 		li	a5,1073815552
 323 0020 9107     		addi	a5,a5,4
 324 0022 7977     		li	a4,-8192
 325 0024 1307F77F 		addi	a4,a4,2047
 326 0028 758F     		and	a4,a3,a4
 327 002a 98C3     		sw	a4,0(a5)
 182:../Firmware/GD32VW55x_standard_peripheral/Source/gd32vw55x_adc.c ****     switch(channel_group){
 328              		.loc 1 182 5
 329 002c 8347F4FE 		lbu	a5,-17(s0)
 330 0030 0547     		li	a4,1
 331 0032 6386E700 		beq	a5,a4,.L12
 332 0036 0947     		li	a4,2
 333 0038 6384E706 		beq	a5,a4,.L13
 183:../Firmware/GD32VW55x_standard_peripheral/Source/gd32vw55x_adc.c ****     case ADC_ROUTINE_CHANNEL:
 184:../Firmware/GD32VW55x_standard_peripheral/Source/gd32vw55x_adc.c ****         /* configure the number of conversions in discontinuous mode  */
 185:../Firmware/GD32VW55x_standard_peripheral/Source/gd32vw55x_adc.c ****         ADC_CTL0 &= ~((uint32_t)ADC_CTL0_DISNUM);
 186:../Firmware/GD32VW55x_standard_peripheral/Source/gd32vw55x_adc.c ****         if((length <= 8U) && (length >= 1U)){
 187:../Firmware/GD32VW55x_standard_peripheral/Source/gd32vw55x_adc.c ****             ADC_CTL0 |= CTL0_DISNUM(((uint32_t)length - ADC_CHANNEL_LENGTH_SUBTRACT_ONE));
 188:../Firmware/GD32VW55x_standard_peripheral/Source/gd32vw55x_adc.c ****         }
 189:../Firmware/GD32VW55x_standard_peripheral/Source/gd32vw55x_adc.c ****         /* enable routine channel group discontinuous mode */
 190:../Firmware/GD32VW55x_standard_peripheral/Source/gd32vw55x_adc.c ****         ADC_CTL0 |= (uint32_t)ADC_CTL0_DISRC;
 191:../Firmware/GD32VW55x_standard_peripheral/Source/gd32vw55x_adc.c ****         break;
 192:../Firmware/GD32VW55x_standard_peripheral/Source/gd32vw55x_adc.c ****     case ADC_INSERTED_CHANNEL:
 193:../Firmware/GD32VW55x_standard_peripheral/Source/gd32vw55x_adc.c ****         /* enable inserted channel group discontinuous mode */
 194:../Firmware/GD32VW55x_standard_peripheral/Source/gd32vw55x_adc.c ****         ADC_CTL0 |= (uint32_t)ADC_CTL0_DISIC;
 195:../Firmware/GD32VW55x_standard_peripheral/Source/gd32vw55x_adc.c ****         break;
 196:../Firmware/GD32VW55x_standard_peripheral/Source/gd32vw55x_adc.c ****     case ADC_CHANNEL_DISCON_DISABLE:
 197:../Firmware/GD32VW55x_standard_peripheral/Source/gd32vw55x_adc.c ****         /* disable discontinuous mode of routine & inserted channel */
 198:../Firmware/GD32VW55x_standard_peripheral/Source/gd32vw55x_adc.c ****     default:
 199:../Firmware/GD32VW55x_standard_peripheral/Source/gd32vw55x_adc.c ****         break;
 334              		.loc 1 199 9
 335 003c ADA8     		j	.L16
 336              	.L12:
 185:../Firmware/GD32VW55x_standard_peripheral/Source/gd32vw55x_adc.c ****         if((length <= 8U) && (length >= 1U)){
 337              		.loc 1 185 18
 338 003e B7270140 		li	a5,1073815552
 339 0042 9107     		addi	a5,a5,4
 340 0044 9443     		lw	a3,0(a5)
 341 0046 B7270140 		li	a5,1073815552
 342 004a 9107     		addi	a5,a5,4
 343 004c 4977     		li	a4,-57344
 344 004e 7D17     		addi	a4,a4,-1
 345 0050 758F     		and	a4,a3,a4
 346 0052 98C3     		sw	a4,0(a5)
 186:../Firmware/GD32VW55x_standard_peripheral/Source/gd32vw55x_adc.c ****             ADC_CTL0 |= CTL0_DISNUM(((uint32_t)length - ADC_CHANNEL_LENGTH_SUBTRACT_ONE));
 347              		.loc 1 186 11
 348 0054 0347E4FE 		lbu	a4,-18(s0)
 349 0058 A147     		li	a5,8
 350 005a 63E6E702 		bgtu	a4,a5,.L15
 186:../Firmware/GD32VW55x_standard_peripheral/Source/gd32vw55x_adc.c ****             ADC_CTL0 |= CTL0_DISNUM(((uint32_t)length - ADC_CHANNEL_LENGTH_SUBTRACT_ONE));
 351              		.loc 1 186 27 discriminator 1
 352 005e 8347E4FE 		lbu	a5,-18(s0)
 353 0062 95C3     		beq	a5,zero,.L15
 187:../Firmware/GD32VW55x_standard_peripheral/Source/gd32vw55x_adc.c ****         }
 354              		.loc 1 187 22
 355 0064 B7270140 		li	a5,1073815552
 356 0068 9107     		addi	a5,a5,4
 357 006a 9443     		lw	a3,0(a5)
 187:../Firmware/GD32VW55x_standard_peripheral/Source/gd32vw55x_adc.c ****         }
 358              		.loc 1 187 25
 359 006c 8347E4FE 		lbu	a5,-18(s0)
 360 0070 FD17     		addi	a5,a5,-1
 361 0072 1397D700 		slli	a4,a5,13
 362 0076 C167     		li	a5,65536
 363 0078 FD17     		addi	a5,a5,-1
 364 007a 7D8F     		and	a4,a4,a5
 187:../Firmware/GD32VW55x_standard_peripheral/Source/gd32vw55x_adc.c ****         }
 365              		.loc 1 187 22
 366 007c B7270140 		li	a5,1073815552
 367 0080 9107     		addi	a5,a5,4
 368 0082 558F     		or	a4,a3,a4
 369 0084 98C3     		sw	a4,0(a5)
 370              	.L15:
 190:../Firmware/GD32VW55x_standard_peripheral/Source/gd32vw55x_adc.c ****         break;
 371              		.loc 1 190 18
 372 0086 B7270140 		li	a5,1073815552
 373 008a 9107     		addi	a5,a5,4
 374 008c 9443     		lw	a3,0(a5)
 375 008e B7270140 		li	a5,1073815552
 376 0092 9107     		addi	a5,a5,4
 377 0094 0567     		li	a4,4096
 378 0096 13070780 		addi	a4,a4,-2048
 379 009a 558F     		or	a4,a3,a4
 380 009c 98C3     		sw	a4,0(a5)
 191:../Firmware/GD32VW55x_standard_peripheral/Source/gd32vw55x_adc.c ****     case ADC_INSERTED_CHANNEL:
 381              		.loc 1 191 9
 382 009e 21A8     		j	.L16
 383              	.L13:
 194:../Firmware/GD32VW55x_standard_peripheral/Source/gd32vw55x_adc.c ****         break;
 384              		.loc 1 194 18
 385 00a0 B7270140 		li	a5,1073815552
 386 00a4 9107     		addi	a5,a5,4
 387 00a6 9443     		lw	a3,0(a5)
 388 00a8 B7270140 		li	a5,1073815552
 389 00ac 9107     		addi	a5,a5,4
 390 00ae 0567     		li	a4,4096
 391 00b0 558F     		or	a4,a3,a4
 392 00b2 98C3     		sw	a4,0(a5)
 195:../Firmware/GD32VW55x_standard_peripheral/Source/gd32vw55x_adc.c ****     case ADC_CHANNEL_DISCON_DISABLE:
 393              		.loc 1 195 9
 394 00b4 0100     		nop
 395              	.L16:
 200:../Firmware/GD32VW55x_standard_peripheral/Source/gd32vw55x_adc.c ****     }
 201:../Firmware/GD32VW55x_standard_peripheral/Source/gd32vw55x_adc.c **** }
 396              		.loc 1 201 1
 397 00b6 0100     		nop
 398 00b8 7244     		lw	s0,28(sp)
 399              		.cfi_restore 8
 400              		.cfi_def_cfa 2, 32
 401 00ba 0561     		addi	sp,sp,32
 402              		.cfi_def_cfa_offset 0
 403 00bc 8280     		jr	ra
 404              		.cfi_endproc
 405              	.LFE355:
 407              		.section	.text.adc_special_function_config,"ax",@progbits
 408              		.align	1
 409              		.globl	adc_special_function_config
 411              	adc_special_function_config:
 412              	.LFB356:
 202:../Firmware/GD32VW55x_standard_peripheral/Source/gd32vw55x_adc.c **** 
 203:../Firmware/GD32VW55x_standard_peripheral/Source/gd32vw55x_adc.c **** /*!
 204:../Firmware/GD32VW55x_standard_peripheral/Source/gd32vw55x_adc.c ****     \brief      configure ADC special function
 205:../Firmware/GD32VW55x_standard_peripheral/Source/gd32vw55x_adc.c ****     \param[in]  function: the function to configure
 206:../Firmware/GD32VW55x_standard_peripheral/Source/gd32vw55x_adc.c ****                 one or more parameters can be selected which is shown as below:
 207:../Firmware/GD32VW55x_standard_peripheral/Source/gd32vw55x_adc.c ****       \arg        ADC_SCAN_MODE: scan mode select
 208:../Firmware/GD32VW55x_standard_peripheral/Source/gd32vw55x_adc.c ****       \arg        ADC_INSERTED_CHANNEL_AUTO: inserted channel group convert automatically
 209:../Firmware/GD32VW55x_standard_peripheral/Source/gd32vw55x_adc.c ****       \arg        ADC_CONTINUOUS_MODE: continuous mode select
 210:../Firmware/GD32VW55x_standard_peripheral/Source/gd32vw55x_adc.c ****     \param[in]  newvalue: ENABLE or DISABLE
 211:../Firmware/GD32VW55x_standard_peripheral/Source/gd32vw55x_adc.c ****     \param[out] none
 212:../Firmware/GD32VW55x_standard_peripheral/Source/gd32vw55x_adc.c ****     \retval     none
 213:../Firmware/GD32VW55x_standard_peripheral/Source/gd32vw55x_adc.c **** */
 214:../Firmware/GD32VW55x_standard_peripheral/Source/gd32vw55x_adc.c **** void adc_special_function_config(uint32_t function, ControlStatus newvalue)
 215:../Firmware/GD32VW55x_standard_peripheral/Source/gd32vw55x_adc.c **** {
 413              		.loc 1 215 1
 414              		.cfi_startproc
 415 0000 0111     		addi	sp,sp,-32
 416              		.cfi_def_cfa_offset 32
 417 0002 22CE     		sw	s0,28(sp)
 418              		.cfi_offset 8, -4
 419 0004 0010     		addi	s0,sp,32
 420              		.cfi_def_cfa 8, 0
 421 0006 2326A4FE 		sw	a0,-20(s0)
 422 000a 2324B4FE 		sw	a1,-24(s0)
 216:../Firmware/GD32VW55x_standard_peripheral/Source/gd32vw55x_adc.c ****     if(newvalue){
 423              		.loc 1 216 7
 424 000e 832784FE 		lw	a5,-24(s0)
 425 0012 B1CF     		beq	a5,zero,.L18
 217:../Firmware/GD32VW55x_standard_peripheral/Source/gd32vw55x_adc.c ****         if(RESET != (function & ADC_SCAN_MODE)){
 426              		.loc 1 217 31
 427 0014 8327C4FE 		lw	a5,-20(s0)
 428 0018 93F70710 		andi	a5,a5,256
 429              		.loc 1 217 11
 430 001c 99CB     		beq	a5,zero,.L19
 218:../Firmware/GD32VW55x_standard_peripheral/Source/gd32vw55x_adc.c ****             /* enable scan mode */
 219:../Firmware/GD32VW55x_standard_peripheral/Source/gd32vw55x_adc.c ****             ADC_CTL0 |= ADC_SCAN_MODE;
 431              		.loc 1 219 22
 432 001e B7270140 		li	a5,1073815552
 433 0022 9107     		addi	a5,a5,4
 434 0024 9843     		lw	a4,0(a5)
 435 0026 B7270140 		li	a5,1073815552
 436 002a 9107     		addi	a5,a5,4
 437 002c 13670710 		ori	a4,a4,256
 438 0030 98C3     		sw	a4,0(a5)
 439              	.L19:
 220:../Firmware/GD32VW55x_standard_peripheral/Source/gd32vw55x_adc.c ****         }
 221:../Firmware/GD32VW55x_standard_peripheral/Source/gd32vw55x_adc.c ****         if(RESET != (function & ADC_INSERTED_CHANNEL_AUTO)){
 440              		.loc 1 221 31
 441 0032 8327C4FE 		lw	a5,-20(s0)
 442 0036 93F70740 		andi	a5,a5,1024
 443              		.loc 1 221 11
 444 003a 99CB     		beq	a5,zero,.L20
 222:../Firmware/GD32VW55x_standard_peripheral/Source/gd32vw55x_adc.c ****             /* enable inserted channel group convert automatically */
 223:../Firmware/GD32VW55x_standard_peripheral/Source/gd32vw55x_adc.c ****             ADC_CTL0 |= ADC_INSERTED_CHANNEL_AUTO;
 445              		.loc 1 223 22
 446 003c B7270140 		li	a5,1073815552
 447 0040 9107     		addi	a5,a5,4
 448 0042 9843     		lw	a4,0(a5)
 449 0044 B7270140 		li	a5,1073815552
 450 0048 9107     		addi	a5,a5,4
 451 004a 13670740 		ori	a4,a4,1024
 452 004e 98C3     		sw	a4,0(a5)
 453              	.L20:
 224:../Firmware/GD32VW55x_standard_peripheral/Source/gd32vw55x_adc.c ****         }
 225:../Firmware/GD32VW55x_standard_peripheral/Source/gd32vw55x_adc.c ****         if(RESET != (function & ADC_CONTINUOUS_MODE)){
 454              		.loc 1 225 31
 455 0050 8327C4FE 		lw	a5,-20(s0)
 456 0054 898B     		andi	a5,a5,2
 457              		.loc 1 225 11
 458 0056 BDC7     		beq	a5,zero,.L24
 226:../Firmware/GD32VW55x_standard_peripheral/Source/gd32vw55x_adc.c ****             /* enable continuous mode */
 227:../Firmware/GD32VW55x_standard_peripheral/Source/gd32vw55x_adc.c ****             ADC_CTL1 |= ADC_CONTINUOUS_MODE;
 459              		.loc 1 227 22
 460 0058 B7270140 		li	a5,1073815552
 461 005c A107     		addi	a5,a5,8
 462 005e 9843     		lw	a4,0(a5)
 463 0060 B7270140 		li	a5,1073815552
 464 0064 A107     		addi	a5,a5,8
 465 0066 13672700 		ori	a4,a4,2
 466 006a 98C3     		sw	a4,0(a5)
 228:../Firmware/GD32VW55x_standard_peripheral/Source/gd32vw55x_adc.c ****         }
 229:../Firmware/GD32VW55x_standard_peripheral/Source/gd32vw55x_adc.c ****     }else{
 230:../Firmware/GD32VW55x_standard_peripheral/Source/gd32vw55x_adc.c ****         if(RESET != (function & ADC_SCAN_MODE)){
 231:../Firmware/GD32VW55x_standard_peripheral/Source/gd32vw55x_adc.c ****             /* disable scan mode */
 232:../Firmware/GD32VW55x_standard_peripheral/Source/gd32vw55x_adc.c ****             ADC_CTL0 &= ~ADC_SCAN_MODE;
 233:../Firmware/GD32VW55x_standard_peripheral/Source/gd32vw55x_adc.c ****         }
 234:../Firmware/GD32VW55x_standard_peripheral/Source/gd32vw55x_adc.c ****         if(RESET != (function & ADC_INSERTED_CHANNEL_AUTO)){
 235:../Firmware/GD32VW55x_standard_peripheral/Source/gd32vw55x_adc.c ****             /* disable inserted channel group convert automatically */
 236:../Firmware/GD32VW55x_standard_peripheral/Source/gd32vw55x_adc.c ****             ADC_CTL0 &= ~ADC_INSERTED_CHANNEL_AUTO;
 237:../Firmware/GD32VW55x_standard_peripheral/Source/gd32vw55x_adc.c ****         }
 238:../Firmware/GD32VW55x_standard_peripheral/Source/gd32vw55x_adc.c ****         if(RESET != (function & ADC_CONTINUOUS_MODE)){
 239:../Firmware/GD32VW55x_standard_peripheral/Source/gd32vw55x_adc.c ****             /* disable continuous mode */
 240:../Firmware/GD32VW55x_standard_peripheral/Source/gd32vw55x_adc.c ****             ADC_CTL1 &= ~ADC_CONTINUOUS_MODE;
 241:../Firmware/GD32VW55x_standard_peripheral/Source/gd32vw55x_adc.c ****         }
 242:../Firmware/GD32VW55x_standard_peripheral/Source/gd32vw55x_adc.c ****     }
 243:../Firmware/GD32VW55x_standard_peripheral/Source/gd32vw55x_adc.c **** }
 467              		.loc 1 243 1
 468 006c A1A8     		j	.L24
 469              	.L18:
 230:../Firmware/GD32VW55x_standard_peripheral/Source/gd32vw55x_adc.c ****             /* disable scan mode */
 470              		.loc 1 230 31
 471 006e 8327C4FE 		lw	a5,-20(s0)
 472 0072 93F70710 		andi	a5,a5,256
 230:../Firmware/GD32VW55x_standard_peripheral/Source/gd32vw55x_adc.c ****             /* disable scan mode */
 473              		.loc 1 230 11
 474 0076 99CB     		beq	a5,zero,.L22
 232:../Firmware/GD32VW55x_standard_peripheral/Source/gd32vw55x_adc.c ****         }
 475              		.loc 1 232 22
 476 0078 B7270140 		li	a5,1073815552
 477 007c 9107     		addi	a5,a5,4
 478 007e 9843     		lw	a4,0(a5)
 479 0080 B7270140 		li	a5,1073815552
 480 0084 9107     		addi	a5,a5,4
 481 0086 1377F7EF 		andi	a4,a4,-257
 482 008a 98C3     		sw	a4,0(a5)
 483              	.L22:
 234:../Firmware/GD32VW55x_standard_peripheral/Source/gd32vw55x_adc.c ****             /* disable inserted channel group convert automatically */
 484              		.loc 1 234 31
 485 008c 8327C4FE 		lw	a5,-20(s0)
 486 0090 93F70740 		andi	a5,a5,1024
 234:../Firmware/GD32VW55x_standard_peripheral/Source/gd32vw55x_adc.c ****             /* disable inserted channel group convert automatically */
 487              		.loc 1 234 11
 488 0094 99CB     		beq	a5,zero,.L23
 236:../Firmware/GD32VW55x_standard_peripheral/Source/gd32vw55x_adc.c ****         }
 489              		.loc 1 236 22
 490 0096 B7270140 		li	a5,1073815552
 491 009a 9107     		addi	a5,a5,4
 492 009c 9843     		lw	a4,0(a5)
 493 009e B7270140 		li	a5,1073815552
 494 00a2 9107     		addi	a5,a5,4
 495 00a4 1377F7BF 		andi	a4,a4,-1025
 496 00a8 98C3     		sw	a4,0(a5)
 497              	.L23:
 238:../Firmware/GD32VW55x_standard_peripheral/Source/gd32vw55x_adc.c ****             /* disable continuous mode */
 498              		.loc 1 238 31
 499 00aa 8327C4FE 		lw	a5,-20(s0)
 500 00ae 898B     		andi	a5,a5,2
 238:../Firmware/GD32VW55x_standard_peripheral/Source/gd32vw55x_adc.c ****             /* disable continuous mode */
 501              		.loc 1 238 11
 502 00b0 91CB     		beq	a5,zero,.L24
 240:../Firmware/GD32VW55x_standard_peripheral/Source/gd32vw55x_adc.c ****         }
 503              		.loc 1 240 22
 504 00b2 B7270140 		li	a5,1073815552
 505 00b6 A107     		addi	a5,a5,8
 506 00b8 9843     		lw	a4,0(a5)
 507 00ba B7270140 		li	a5,1073815552
 508 00be A107     		addi	a5,a5,8
 509 00c0 759B     		andi	a4,a4,-3
 510 00c2 98C3     		sw	a4,0(a5)
 511              	.L24:
 512              		.loc 1 243 1
 513 00c4 0100     		nop
 514 00c6 7244     		lw	s0,28(sp)
 515              		.cfi_restore 8
 516              		.cfi_def_cfa 2, 32
 517 00c8 0561     		addi	sp,sp,32
 518              		.cfi_def_cfa_offset 0
 519 00ca 8280     		jr	ra
 520              		.cfi_endproc
 521              	.LFE356:
 523              		.section	.text.adc_tempsensor_vrefint_enable,"ax",@progbits
 524              		.align	1
 525              		.globl	adc_tempsensor_vrefint_enable
 527              	adc_tempsensor_vrefint_enable:
 528              	.LFB357:
 244:../Firmware/GD32VW55x_standard_peripheral/Source/gd32vw55x_adc.c **** 
 245:../Firmware/GD32VW55x_standard_peripheral/Source/gd32vw55x_adc.c **** /*!
 246:../Firmware/GD32VW55x_standard_peripheral/Source/gd32vw55x_adc.c ****     \brief      enable the temperature sensor and Vrefint channel
 247:../Firmware/GD32VW55x_standard_peripheral/Source/gd32vw55x_adc.c ****     \param[in]  none
 248:../Firmware/GD32VW55x_standard_peripheral/Source/gd32vw55x_adc.c ****     \param[out] none
 249:../Firmware/GD32VW55x_standard_peripheral/Source/gd32vw55x_adc.c ****     \retval     none
 250:../Firmware/GD32VW55x_standard_peripheral/Source/gd32vw55x_adc.c **** */
 251:../Firmware/GD32VW55x_standard_peripheral/Source/gd32vw55x_adc.c **** void adc_tempsensor_vrefint_enable(void)
 252:../Firmware/GD32VW55x_standard_peripheral/Source/gd32vw55x_adc.c **** {
 529              		.loc 1 252 1
 530              		.cfi_startproc
 531 0000 4111     		addi	sp,sp,-16
 532              		.cfi_def_cfa_offset 16
 533 0002 22C6     		sw	s0,12(sp)
 534              		.cfi_offset 8, -4
 535 0004 0008     		addi	s0,sp,16
 536              		.cfi_def_cfa 8, 0
 253:../Firmware/GD32VW55x_standard_peripheral/Source/gd32vw55x_adc.c ****     /* enable the temperature sensor and Vrefint channel */
 254:../Firmware/GD32VW55x_standard_peripheral/Source/gd32vw55x_adc.c ****     ADC_CCTL |= ADC_CCTL_TSVREN;
 537              		.loc 1 254 14
 538 0006 B7270140 		li	a5,1073815552
 539 000a 93874730 		addi	a5,a5,772
 540 000e 9443     		lw	a3,0(a5)
 541 0010 B7270140 		li	a5,1073815552
 542 0014 93874730 		addi	a5,a5,772
 543 0018 37078000 		li	a4,8388608
 544 001c 558F     		or	a4,a3,a4
 545 001e 98C3     		sw	a4,0(a5)
 255:../Firmware/GD32VW55x_standard_peripheral/Source/gd32vw55x_adc.c **** }
 546              		.loc 1 255 1
 547 0020 0100     		nop
 548 0022 3244     		lw	s0,12(sp)
 549              		.cfi_restore 8
 550              		.cfi_def_cfa 2, 16
 551 0024 4101     		addi	sp,sp,16
 552              		.cfi_def_cfa_offset 0
 553 0026 8280     		jr	ra
 554              		.cfi_endproc
 555              	.LFE357:
 557              		.section	.text.adc_tempsensor_vrefint_disable,"ax",@progbits
 558              		.align	1
 559              		.globl	adc_tempsensor_vrefint_disable
 561              	adc_tempsensor_vrefint_disable:
 562              	.LFB358:
 256:../Firmware/GD32VW55x_standard_peripheral/Source/gd32vw55x_adc.c **** 
 257:../Firmware/GD32VW55x_standard_peripheral/Source/gd32vw55x_adc.c **** /*!
 258:../Firmware/GD32VW55x_standard_peripheral/Source/gd32vw55x_adc.c ****     \brief      disable the temperature sensor and Vrefint channel
 259:../Firmware/GD32VW55x_standard_peripheral/Source/gd32vw55x_adc.c ****     \param[in]  none
 260:../Firmware/GD32VW55x_standard_peripheral/Source/gd32vw55x_adc.c ****     \param[out] none
 261:../Firmware/GD32VW55x_standard_peripheral/Source/gd32vw55x_adc.c ****     \retval     none
 262:../Firmware/GD32VW55x_standard_peripheral/Source/gd32vw55x_adc.c **** */
 263:../Firmware/GD32VW55x_standard_peripheral/Source/gd32vw55x_adc.c **** void adc_tempsensor_vrefint_disable(void)
 264:../Firmware/GD32VW55x_standard_peripheral/Source/gd32vw55x_adc.c **** {
 563              		.loc 1 264 1
 564              		.cfi_startproc
 565 0000 4111     		addi	sp,sp,-16
 566              		.cfi_def_cfa_offset 16
 567 0002 22C6     		sw	s0,12(sp)
 568              		.cfi_offset 8, -4
 569 0004 0008     		addi	s0,sp,16
 570              		.cfi_def_cfa 8, 0
 265:../Firmware/GD32VW55x_standard_peripheral/Source/gd32vw55x_adc.c ****     /* disable the temperature sensor and Vrefint channel */
 266:../Firmware/GD32VW55x_standard_peripheral/Source/gd32vw55x_adc.c ****     ADC_CCTL &= ~ADC_CCTL_TSVREN;
 571              		.loc 1 266 14
 572 0006 B7270140 		li	a5,1073815552
 573 000a 93874730 		addi	a5,a5,772
 574 000e 9443     		lw	a3,0(a5)
 575 0010 B7270140 		li	a5,1073815552
 576 0014 93874730 		addi	a5,a5,772
 577 0018 370780FF 		li	a4,-8388608
 578 001c 7D17     		addi	a4,a4,-1
 579 001e 758F     		and	a4,a3,a4
 580 0020 98C3     		sw	a4,0(a5)
 267:../Firmware/GD32VW55x_standard_peripheral/Source/gd32vw55x_adc.c **** }
 581              		.loc 1 267 1
 582 0022 0100     		nop
 583 0024 3244     		lw	s0,12(sp)
 584              		.cfi_restore 8
 585              		.cfi_def_cfa 2, 16
 586 0026 4101     		addi	sp,sp,16
 587              		.cfi_def_cfa_offset 0
 588 0028 8280     		jr	ra
 589              		.cfi_endproc
 590              	.LFE358:
 592              		.section	.text.adc_data_alignment_config,"ax",@progbits
 593              		.align	1
 594              		.globl	adc_data_alignment_config
 596              	adc_data_alignment_config:
 597              	.LFB359:
 268:../Firmware/GD32VW55x_standard_peripheral/Source/gd32vw55x_adc.c **** 
 269:../Firmware/GD32VW55x_standard_peripheral/Source/gd32vw55x_adc.c **** /*!
 270:../Firmware/GD32VW55x_standard_peripheral/Source/gd32vw55x_adc.c ****     \brief      configure ADC data alignment
 271:../Firmware/GD32VW55x_standard_peripheral/Source/gd32vw55x_adc.c ****     \param[in]  data_alignment: data alignment select
 272:../Firmware/GD32VW55x_standard_peripheral/Source/gd32vw55x_adc.c ****                 only one parameter can be selected which is shown as below:
 273:../Firmware/GD32VW55x_standard_peripheral/Source/gd32vw55x_adc.c ****       \arg        ADC_DATAALIGN_RIGHT: right alignment
 274:../Firmware/GD32VW55x_standard_peripheral/Source/gd32vw55x_adc.c ****       \arg        ADC_DATAALIGN_LEFT: left alignment
 275:../Firmware/GD32VW55x_standard_peripheral/Source/gd32vw55x_adc.c ****     \param[out] none
 276:../Firmware/GD32VW55x_standard_peripheral/Source/gd32vw55x_adc.c ****     \retval     none
 277:../Firmware/GD32VW55x_standard_peripheral/Source/gd32vw55x_adc.c **** */
 278:../Firmware/GD32VW55x_standard_peripheral/Source/gd32vw55x_adc.c **** void adc_data_alignment_config(uint32_t data_alignment)
 279:../Firmware/GD32VW55x_standard_peripheral/Source/gd32vw55x_adc.c **** {
 598              		.loc 1 279 1
 599              		.cfi_startproc
 600 0000 0111     		addi	sp,sp,-32
 601              		.cfi_def_cfa_offset 32
 602 0002 22CE     		sw	s0,28(sp)
 603              		.cfi_offset 8, -4
 604 0004 0010     		addi	s0,sp,32
 605              		.cfi_def_cfa 8, 0
 606 0006 2326A4FE 		sw	a0,-20(s0)
 280:../Firmware/GD32VW55x_standard_peripheral/Source/gd32vw55x_adc.c ****     if(ADC_DATAALIGN_RIGHT != data_alignment){
 607              		.loc 1 280 7
 608 000a 8327C4FE 		lw	a5,-20(s0)
 609 000e 91CF     		beq	a5,zero,.L28
 281:../Firmware/GD32VW55x_standard_peripheral/Source/gd32vw55x_adc.c ****         /* left alignment */
 282:../Firmware/GD32VW55x_standard_peripheral/Source/gd32vw55x_adc.c ****         ADC_CTL1 |= ADC_CTL1_DAL;
 610              		.loc 1 282 18
 611 0010 B7270140 		li	a5,1073815552
 612 0014 A107     		addi	a5,a5,8
 613 0016 9443     		lw	a3,0(a5)
 614 0018 B7270140 		li	a5,1073815552
 615 001c A107     		addi	a5,a5,8
 616 001e 0567     		li	a4,4096
 617 0020 13070780 		addi	a4,a4,-2048
 618 0024 558F     		or	a4,a3,a4
 619 0026 98C3     		sw	a4,0(a5)
 283:../Firmware/GD32VW55x_standard_peripheral/Source/gd32vw55x_adc.c ****     }else{
 284:../Firmware/GD32VW55x_standard_peripheral/Source/gd32vw55x_adc.c ****         /* right alignment */
 285:../Firmware/GD32VW55x_standard_peripheral/Source/gd32vw55x_adc.c ****         ADC_CTL1 &= ~((uint32_t)ADC_CTL1_DAL);
 286:../Firmware/GD32VW55x_standard_peripheral/Source/gd32vw55x_adc.c ****     }
 287:../Firmware/GD32VW55x_standard_peripheral/Source/gd32vw55x_adc.c **** }
 620              		.loc 1 287 1
 621 0028 29A8     		j	.L30
 622              	.L28:
 285:../Firmware/GD32VW55x_standard_peripheral/Source/gd32vw55x_adc.c ****     }
 623              		.loc 1 285 18
 624 002a B7270140 		li	a5,1073815552
 625 002e A107     		addi	a5,a5,8
 626 0030 9443     		lw	a3,0(a5)
 627 0032 B7270140 		li	a5,1073815552
 628 0036 A107     		addi	a5,a5,8
 629 0038 7D77     		li	a4,-4096
 630 003a 1307F77F 		addi	a4,a4,2047
 631 003e 758F     		and	a4,a3,a4
 632 0040 98C3     		sw	a4,0(a5)
 633              	.L30:
 634              		.loc 1 287 1
 635 0042 0100     		nop
 636 0044 7244     		lw	s0,28(sp)
 637              		.cfi_restore 8
 638              		.cfi_def_cfa 2, 32
 639 0046 0561     		addi	sp,sp,32
 640              		.cfi_def_cfa_offset 0
 641 0048 8280     		jr	ra
 642              		.cfi_endproc
 643              	.LFE359:
 645              		.section	.text.adc_channel_length_config,"ax",@progbits
 646              		.align	1
 647              		.globl	adc_channel_length_config
 649              	adc_channel_length_config:
 650              	.LFB360:
 288:../Firmware/GD32VW55x_standard_peripheral/Source/gd32vw55x_adc.c **** 
 289:../Firmware/GD32VW55x_standard_peripheral/Source/gd32vw55x_adc.c **** /*!
 290:../Firmware/GD32VW55x_standard_peripheral/Source/gd32vw55x_adc.c ****     \brief      configure the length of routine channel group or inserted channel group
 291:../Firmware/GD32VW55x_standard_peripheral/Source/gd32vw55x_adc.c ****     \param[in]  channel_group: select the channel group
 292:../Firmware/GD32VW55x_standard_peripheral/Source/gd32vw55x_adc.c ****                 only one parameter can be selected which is shown as below:
 293:../Firmware/GD32VW55x_standard_peripheral/Source/gd32vw55x_adc.c ****       \arg        ADC_ROUTINE_CHANNEL: routine channel group
 294:../Firmware/GD32VW55x_standard_peripheral/Source/gd32vw55x_adc.c ****       \arg        ADC_INSERTED_CHANNEL: inserted channel group
 295:../Firmware/GD32VW55x_standard_peripheral/Source/gd32vw55x_adc.c ****     \param[in]  length: the length of the channel
 296:../Firmware/GD32VW55x_standard_peripheral/Source/gd32vw55x_adc.c ****                         routine channel 1-9
 297:../Firmware/GD32VW55x_standard_peripheral/Source/gd32vw55x_adc.c ****                         inserted channel 1-4
 298:../Firmware/GD32VW55x_standard_peripheral/Source/gd32vw55x_adc.c ****     \param[out] none
 299:../Firmware/GD32VW55x_standard_peripheral/Source/gd32vw55x_adc.c ****     \retval     none
 300:../Firmware/GD32VW55x_standard_peripheral/Source/gd32vw55x_adc.c **** */
 301:../Firmware/GD32VW55x_standard_peripheral/Source/gd32vw55x_adc.c **** void adc_channel_length_config(uint8_t channel_group, uint32_t length)
 302:../Firmware/GD32VW55x_standard_peripheral/Source/gd32vw55x_adc.c **** {
 651              		.loc 1 302 1
 652              		.cfi_startproc
 653 0000 0111     		addi	sp,sp,-32
 654              		.cfi_def_cfa_offset 32
 655 0002 22CE     		sw	s0,28(sp)
 656              		.cfi_offset 8, -4
 657 0004 0010     		addi	s0,sp,32
 658              		.cfi_def_cfa 8, 0
 659 0006 AA87     		mv	a5,a0
 660 0008 2324B4FE 		sw	a1,-24(s0)
 661 000c A307F4FE 		sb	a5,-17(s0)
 303:../Firmware/GD32VW55x_standard_peripheral/Source/gd32vw55x_adc.c ****     switch(channel_group){
 662              		.loc 1 303 5
 663 0010 8347F4FE 		lbu	a5,-17(s0)
 664 0014 0547     		li	a4,1
 665 0016 6386E700 		beq	a5,a4,.L32
 666 001a 0947     		li	a4,2
 667 001c 638DE704 		beq	a5,a4,.L33
 304:../Firmware/GD32VW55x_standard_peripheral/Source/gd32vw55x_adc.c ****     case ADC_ROUTINE_CHANNEL:
 305:../Firmware/GD32VW55x_standard_peripheral/Source/gd32vw55x_adc.c ****         /* configure the length of routine channel group */
 306:../Firmware/GD32VW55x_standard_peripheral/Source/gd32vw55x_adc.c ****         if((length >= 1U) && (length <= 9U)){
 307:../Firmware/GD32VW55x_standard_peripheral/Source/gd32vw55x_adc.c ****             ADC_RSQ0 &= ~((uint32_t)ADC_RSQ0_RL);
 308:../Firmware/GD32VW55x_standard_peripheral/Source/gd32vw55x_adc.c ****             ADC_RSQ0 |= RSQ0_RL((uint32_t)(length - ADC_CHANNEL_LENGTH_SUBTRACT_ONE));
 309:../Firmware/GD32VW55x_standard_peripheral/Source/gd32vw55x_adc.c ****         }
 310:../Firmware/GD32VW55x_standard_peripheral/Source/gd32vw55x_adc.c ****         break;
 311:../Firmware/GD32VW55x_standard_peripheral/Source/gd32vw55x_adc.c ****     case ADC_INSERTED_CHANNEL:
 312:../Firmware/GD32VW55x_standard_peripheral/Source/gd32vw55x_adc.c ****         /* configure the length of inserted channel group */
 313:../Firmware/GD32VW55x_standard_peripheral/Source/gd32vw55x_adc.c ****         if((length >= 1U) && (length <= 4U)){
 314:../Firmware/GD32VW55x_standard_peripheral/Source/gd32vw55x_adc.c ****             ADC_ISQ &= ~((uint32_t)ADC_ISQ_IL);
 315:../Firmware/GD32VW55x_standard_peripheral/Source/gd32vw55x_adc.c ****             ADC_ISQ |= ISQ_IL((uint32_t)(length - ADC_CHANNEL_LENGTH_SUBTRACT_ONE));
 316:../Firmware/GD32VW55x_standard_peripheral/Source/gd32vw55x_adc.c ****         }
 317:../Firmware/GD32VW55x_standard_peripheral/Source/gd32vw55x_adc.c ****         break;
 318:../Firmware/GD32VW55x_standard_peripheral/Source/gd32vw55x_adc.c ****     default:
 319:../Firmware/GD32VW55x_standard_peripheral/Source/gd32vw55x_adc.c ****         break;
 668              		.loc 1 319 9
 669 0020 45A8     		j	.L36
 670              	.L32:
 306:../Firmware/GD32VW55x_standard_peripheral/Source/gd32vw55x_adc.c ****             ADC_RSQ0 &= ~((uint32_t)ADC_RSQ0_RL);
 671              		.loc 1 306 11
 672 0022 832784FE 		lw	a5,-24(s0)
 673 0026 D5C3     		beq	a5,zero,.L38
 306:../Firmware/GD32VW55x_standard_peripheral/Source/gd32vw55x_adc.c ****             ADC_RSQ0 &= ~((uint32_t)ADC_RSQ0_RL);
 674              		.loc 1 306 27 discriminator 1
 675 0028 032784FE 		lw	a4,-24(s0)
 676 002c A547     		li	a5,9
 677 002e 63EEE708 		bgtu	a4,a5,.L38
 307:../Firmware/GD32VW55x_standard_peripheral/Source/gd32vw55x_adc.c ****             ADC_RSQ0 |= RSQ0_RL((uint32_t)(length - ADC_CHANNEL_LENGTH_SUBTRACT_ONE));
 678              		.loc 1 307 22
 679 0032 B7270140 		li	a5,1073815552
 680 0036 9387C702 		addi	a5,a5,44
 681 003a 9443     		lw	a3,0(a5)
 682 003c B7270140 		li	a5,1073815552
 683 0040 9387C702 		addi	a5,a5,44
 684 0044 370710FF 		li	a4,-15728640
 685 0048 7D17     		addi	a4,a4,-1
 686 004a 758F     		and	a4,a3,a4
 687 004c 98C3     		sw	a4,0(a5)
 308:../Firmware/GD32VW55x_standard_peripheral/Source/gd32vw55x_adc.c ****         }
 688              		.loc 1 308 22
 689 004e B7270140 		li	a5,1073815552
 690 0052 9387C702 		addi	a5,a5,44
 691 0056 9443     		lw	a3,0(a5)
 308:../Firmware/GD32VW55x_standard_peripheral/Source/gd32vw55x_adc.c ****         }
 692              		.loc 1 308 25
 693 0058 832784FE 		lw	a5,-24(s0)
 694 005c FD17     		addi	a5,a5,-1
 695 005e 13974701 		slli	a4,a5,20
 696 0062 B707F000 		li	a5,15728640
 697 0066 7D8F     		and	a4,a4,a5
 308:../Firmware/GD32VW55x_standard_peripheral/Source/gd32vw55x_adc.c ****         }
 698              		.loc 1 308 22
 699 0068 B7270140 		li	a5,1073815552
 700 006c 9387C702 		addi	a5,a5,44
 701 0070 558F     		or	a4,a3,a4
 702 0072 98C3     		sw	a4,0(a5)
 310:../Firmware/GD32VW55x_standard_peripheral/Source/gd32vw55x_adc.c ****     case ADC_INSERTED_CHANNEL:
 703              		.loc 1 310 9
 704 0074 99A8     		j	.L38
 705              	.L33:
 313:../Firmware/GD32VW55x_standard_peripheral/Source/gd32vw55x_adc.c ****             ADC_ISQ &= ~((uint32_t)ADC_ISQ_IL);
 706              		.loc 1 313 11
 707 0076 832784FE 		lw	a5,-24(s0)
 708 007a B1CB     		beq	a5,zero,.L39
 313:../Firmware/GD32VW55x_standard_peripheral/Source/gd32vw55x_adc.c ****             ADC_ISQ &= ~((uint32_t)ADC_ISQ_IL);
 709              		.loc 1 313 27 discriminator 1
 710 007c 032784FE 		lw	a4,-24(s0)
 711 0080 9147     		li	a5,4
 712 0082 63E6E704 		bgtu	a4,a5,.L39
 314:../Firmware/GD32VW55x_standard_peripheral/Source/gd32vw55x_adc.c ****             ADC_ISQ |= ISQ_IL((uint32_t)(length - ADC_CHANNEL_LENGTH_SUBTRACT_ONE));
 713              		.loc 1 314 21
 714 0086 B7270140 		li	a5,1073815552
 715 008a 93878703 		addi	a5,a5,56
 716 008e 9443     		lw	a3,0(a5)
 717 0090 B7270140 		li	a5,1073815552
 718 0094 93878703 		addi	a5,a5,56
 719 0098 3707D0FF 		li	a4,-3145728
 720 009c 7D17     		addi	a4,a4,-1
 721 009e 758F     		and	a4,a3,a4
 722 00a0 98C3     		sw	a4,0(a5)
 315:../Firmware/GD32VW55x_standard_peripheral/Source/gd32vw55x_adc.c ****         }
 723              		.loc 1 315 21
 724 00a2 B7270140 		li	a5,1073815552
 725 00a6 93878703 		addi	a5,a5,56
 726 00aa 9443     		lw	a3,0(a5)
 315:../Firmware/GD32VW55x_standard_peripheral/Source/gd32vw55x_adc.c ****         }
 727              		.loc 1 315 24
 728 00ac 832784FE 		lw	a5,-24(s0)
 729 00b0 FD17     		addi	a5,a5,-1
 730 00b2 13974701 		slli	a4,a5,20
 731 00b6 B7073000 		li	a5,3145728
 732 00ba 7D8F     		and	a4,a4,a5
 315:../Firmware/GD32VW55x_standard_peripheral/Source/gd32vw55x_adc.c ****         }
 733              		.loc 1 315 21
 734 00bc B7270140 		li	a5,1073815552
 735 00c0 93878703 		addi	a5,a5,56
 736 00c4 558F     		or	a4,a3,a4
 737 00c6 98C3     		sw	a4,0(a5)
 317:../Firmware/GD32VW55x_standard_peripheral/Source/gd32vw55x_adc.c ****     default:
 738              		.loc 1 317 9
 739 00c8 19A0     		j	.L39
 740              	.L38:
 310:../Firmware/GD32VW55x_standard_peripheral/Source/gd32vw55x_adc.c ****     case ADC_INSERTED_CHANNEL:
 741              		.loc 1 310 9
 742 00ca 0100     		nop
 743 00cc 11A0     		j	.L40
 744              	.L39:
 317:../Firmware/GD32VW55x_standard_peripheral/Source/gd32vw55x_adc.c ****     default:
 745              		.loc 1 317 9
 746 00ce 0100     		nop
 747              	.L36:
 748              	.L40:
 320:../Firmware/GD32VW55x_standard_peripheral/Source/gd32vw55x_adc.c ****     }
 321:../Firmware/GD32VW55x_standard_peripheral/Source/gd32vw55x_adc.c **** }
 749              		.loc 1 321 1
 750 00d0 0100     		nop
 751 00d2 7244     		lw	s0,28(sp)
 752              		.cfi_restore 8
 753              		.cfi_def_cfa 2, 32
 754 00d4 0561     		addi	sp,sp,32
 755              		.cfi_def_cfa_offset 0
 756 00d6 8280     		jr	ra
 757              		.cfi_endproc
 758              	.LFE360:
 760              		.section	.text.adc_routine_channel_config,"ax",@progbits
 761              		.align	1
 762              		.globl	adc_routine_channel_config
 764              	adc_routine_channel_config:
 765              	.LFB361:
 322:../Firmware/GD32VW55x_standard_peripheral/Source/gd32vw55x_adc.c **** 
 323:../Firmware/GD32VW55x_standard_peripheral/Source/gd32vw55x_adc.c **** /*!
 324:../Firmware/GD32VW55x_standard_peripheral/Source/gd32vw55x_adc.c ****     \brief      configure ADC routine channel
 325:../Firmware/GD32VW55x_standard_peripheral/Source/gd32vw55x_adc.c ****     \param[in]  rank: the routine group sequence rank, this parameter must be between 0 to 8
 326:../Firmware/GD32VW55x_standard_peripheral/Source/gd32vw55x_adc.c ****     \param[in]  channel: the selected ADC channel
 327:../Firmware/GD32VW55x_standard_peripheral/Source/gd32vw55x_adc.c ****                 only one parameter can be selected which is shown as below:
 328:../Firmware/GD32VW55x_standard_peripheral/Source/gd32vw55x_adc.c ****       \arg        ADC_CHANNEL_x(x=0..10): ADC Channelx
 329:../Firmware/GD32VW55x_standard_peripheral/Source/gd32vw55x_adc.c ****     \param[in]  sample_time: the sample time value
 330:../Firmware/GD32VW55x_standard_peripheral/Source/gd32vw55x_adc.c ****                 only one parameter can be selected which is shown as below:
 331:../Firmware/GD32VW55x_standard_peripheral/Source/gd32vw55x_adc.c ****       \arg        ADC_SAMPLETIME_1POINT5: 1.5 cycle
 332:../Firmware/GD32VW55x_standard_peripheral/Source/gd32vw55x_adc.c ****       \arg        ADC_SAMPLETIME_2POINT5: 2.5 cycles
 333:../Firmware/GD32VW55x_standard_peripheral/Source/gd32vw55x_adc.c ****       \arg        ADC_SAMPLETIME_14POINT5: 14.5 cycles
 334:../Firmware/GD32VW55x_standard_peripheral/Source/gd32vw55x_adc.c ****       \arg        ADC_SAMPLETIME_27POINT5: 27.5 cycles
 335:../Firmware/GD32VW55x_standard_peripheral/Source/gd32vw55x_adc.c ****       \arg        ADC_SAMPLETIME_55POINT5: 55.5 cycles
 336:../Firmware/GD32VW55x_standard_peripheral/Source/gd32vw55x_adc.c ****       \arg        ADC_SAMPLETIME_83POINT5: 83.5 cycles
 337:../Firmware/GD32VW55x_standard_peripheral/Source/gd32vw55x_adc.c ****       \arg        ADC_SAMPLETIME_111POINT5: 111.5 cycles
 338:../Firmware/GD32VW55x_standard_peripheral/Source/gd32vw55x_adc.c ****       \arg        ADC_SAMPLETIME_143POINT5: 143.5 cycles
 339:../Firmware/GD32VW55x_standard_peripheral/Source/gd32vw55x_adc.c ****       \arg        ADC_SAMPLETIME_479POINT5: 479.5 cycles
 340:../Firmware/GD32VW55x_standard_peripheral/Source/gd32vw55x_adc.c ****     \param[out] none
 341:../Firmware/GD32VW55x_standard_peripheral/Source/gd32vw55x_adc.c ****     \retval     none
 342:../Firmware/GD32VW55x_standard_peripheral/Source/gd32vw55x_adc.c **** */
 343:../Firmware/GD32VW55x_standard_peripheral/Source/gd32vw55x_adc.c **** void adc_routine_channel_config(uint8_t rank, uint8_t channel, uint32_t sample_time)
 344:../Firmware/GD32VW55x_standard_peripheral/Source/gd32vw55x_adc.c **** {
 766              		.loc 1 344 1
 767              		.cfi_startproc
 768 0000 7971     		addi	sp,sp,-48
 769              		.cfi_def_cfa_offset 48
 770 0002 22D6     		sw	s0,44(sp)
 771              		.cfi_offset 8, -4
 772 0004 0018     		addi	s0,sp,48
 773              		.cfi_def_cfa 8, 0
 774 0006 AA87     		mv	a5,a0
 775 0008 2E87     		mv	a4,a1
 776 000a 232CC4FC 		sw	a2,-40(s0)
 777 000e A30FF4FC 		sb	a5,-33(s0)
 778 0012 BA87     		mv	a5,a4
 779 0014 230FF4FC 		sb	a5,-34(s0)
 345:../Firmware/GD32VW55x_standard_peripheral/Source/gd32vw55x_adc.c ****     uint32_t rsq,sampt;
 346:../Firmware/GD32VW55x_standard_peripheral/Source/gd32vw55x_adc.c **** 
 347:../Firmware/GD32VW55x_standard_peripheral/Source/gd32vw55x_adc.c ****     /* configure ADC routine sequence */
 348:../Firmware/GD32VW55x_standard_peripheral/Source/gd32vw55x_adc.c ****     if(rank < ADC_ROUTINE_CHANNEL_RANK_SIX){
 780              		.loc 1 348 7
 781 0018 0347F4FD 		lbu	a4,-33(s0)
 782 001c 9547     		li	a5,5
 783 001e 63EEE704 		bgtu	a4,a5,.L42
 349:../Firmware/GD32VW55x_standard_peripheral/Source/gd32vw55x_adc.c ****         /* the routine group sequence rank is smaller than six */
 350:../Firmware/GD32VW55x_standard_peripheral/Source/gd32vw55x_adc.c ****         rsq = ADC_RSQ2;
 784              		.loc 1 350 15
 785 0022 B7270140 		li	a5,1073815552
 786 0026 93874703 		addi	a5,a5,52
 787              		.loc 1 350 13
 788 002a 9C43     		lw	a5,0(a5)
 789 002c 2326F4FE 		sw	a5,-20(s0)
 351:../Firmware/GD32VW55x_standard_peripheral/Source/gd32vw55x_adc.c ****         rsq &=  ~((uint32_t)(ADC_RSQX_RSQN << (ADC_ROUTINE_CHANNEL_RANK_LENGTH * rank)));
 790              		.loc 1 351 80
 791 0030 0347F4FD 		lbu	a4,-33(s0)
 792 0034 BA87     		mv	a5,a4
 793 0036 8A07     		slli	a5,a5,2
 794 0038 BA97     		add	a5,a5,a4
 795              		.loc 1 351 19
 796 003a 7D47     		li	a4,31
 797 003c B317F700 		sll	a5,a4,a5
 798              		.loc 1 351 17
 799 0040 93C7F7FF 		not	a5,a5
 800              		.loc 1 351 13
 801 0044 0327C4FE 		lw	a4,-20(s0)
 802 0048 F98F     		and	a5,a4,a5
 803 004a 2326F4FE 		sw	a5,-20(s0)
 352:../Firmware/GD32VW55x_standard_peripheral/Source/gd32vw55x_adc.c ****         /* the channel number is written to these bits to select a channel as the nth conversion in
 353:../Firmware/GD32VW55x_standard_peripheral/Source/gd32vw55x_adc.c ****         rsq |= ((uint32_t)channel << (ADC_ROUTINE_CHANNEL_RANK_LENGTH*rank));
 804              		.loc 1 353 17
 805 004e 8346E4FD 		lbu	a3,-34(s0)
 806              		.loc 1 353 70
 807 0052 0347F4FD 		lbu	a4,-33(s0)
 808 0056 BA87     		mv	a5,a4
 809 0058 8A07     		slli	a5,a5,2
 810 005a BA97     		add	a5,a5,a4
 811              		.loc 1 353 35
 812 005c B397F600 		sll	a5,a3,a5
 813              		.loc 1 353 13
 814 0060 0327C4FE 		lw	a4,-20(s0)
 815 0064 D98F     		or	a5,a4,a5
 816 0066 2326F4FE 		sw	a5,-20(s0)
 354:../Firmware/GD32VW55x_standard_peripheral/Source/gd32vw55x_adc.c ****         ADC_RSQ2 = rsq;
 817              		.loc 1 354 9
 818 006a B7270140 		li	a5,1073815552
 819 006e 93874703 		addi	a5,a5,52
 820              		.loc 1 354 18
 821 0072 0327C4FE 		lw	a4,-20(s0)
 822 0076 98C3     		sw	a4,0(a5)
 823 0078 ADA0     		j	.L43
 824              	.L42:
 355:../Firmware/GD32VW55x_standard_peripheral/Source/gd32vw55x_adc.c ****     }else if(rank < ADC_ROUTINE_CHANNEL_RANK_NINE){
 825              		.loc 1 355 13
 826 007a 0347F4FD 		lbu	a4,-33(s0)
 827 007e A147     		li	a5,8
 828 0080 63E1E706 		bgtu	a4,a5,.L43
 356:../Firmware/GD32VW55x_standard_peripheral/Source/gd32vw55x_adc.c ****         /* the routine group sequence rank is smaller than nine */
 357:../Firmware/GD32VW55x_standard_peripheral/Source/gd32vw55x_adc.c ****         rsq = ADC_RSQ1;
 829              		.loc 1 357 15
 830 0084 B7270140 		li	a5,1073815552
 831 0088 93870703 		addi	a5,a5,48
 832              		.loc 1 357 13
 833 008c 9C43     		lw	a5,0(a5)
 834 008e 2326F4FE 		sw	a5,-20(s0)
 358:../Firmware/GD32VW55x_standard_peripheral/Source/gd32vw55x_adc.c ****         rsq &= ~((uint32_t)(ADC_RSQX_RSQN << (ADC_ROUTINE_CHANNEL_RANK_LENGTH * (rank - ADC_ROUTINE
 835              		.loc 1 358 87
 836 0092 8347F4FD 		lbu	a5,-33(s0)
 837 0096 1387A7FF 		addi	a4,a5,-6
 838              		.loc 1 358 79
 839 009a BA87     		mv	a5,a4
 840 009c 8A07     		slli	a5,a5,2
 841 009e BA97     		add	a5,a5,a4
 842              		.loc 1 358 18
 843 00a0 7D47     		li	a4,31
 844 00a2 B317F700 		sll	a5,a4,a5
 845              		.loc 1 358 16
 846 00a6 93C7F7FF 		not	a5,a5
 847              		.loc 1 358 13
 848 00aa 0327C4FE 		lw	a4,-20(s0)
 849 00ae F98F     		and	a5,a4,a5
 850 00b0 2326F4FE 		sw	a5,-20(s0)
 359:../Firmware/GD32VW55x_standard_peripheral/Source/gd32vw55x_adc.c ****         /* the channel number is written to these bits to select a channel as the nth conversion in
 360:../Firmware/GD32VW55x_standard_peripheral/Source/gd32vw55x_adc.c ****         rsq |= ((uint32_t)channel << (ADC_ROUTINE_CHANNEL_RANK_LENGTH*(rank-ADC_ROUTINE_CHANNEL_RAN
 851              		.loc 1 360 17
 852 00b4 8346E4FD 		lbu	a3,-34(s0)
 853              		.loc 1 360 76
 854 00b8 8347F4FD 		lbu	a5,-33(s0)
 855 00bc 1387A7FF 		addi	a4,a5,-6
 856              		.loc 1 360 70
 857 00c0 BA87     		mv	a5,a4
 858 00c2 8A07     		slli	a5,a5,2
 859 00c4 BA97     		add	a5,a5,a4
 860              		.loc 1 360 35
 861 00c6 B397F600 		sll	a5,a3,a5
 862              		.loc 1 360 13
 863 00ca 0327C4FE 		lw	a4,-20(s0)
 864 00ce D98F     		or	a5,a4,a5
 865 00d0 2326F4FE 		sw	a5,-20(s0)
 361:../Firmware/GD32VW55x_standard_peripheral/Source/gd32vw55x_adc.c ****         ADC_RSQ1 = rsq;
 866              		.loc 1 361 9
 867 00d4 B7270140 		li	a5,1073815552
 868 00d8 93870703 		addi	a5,a5,48
 869              		.loc 1 361 18
 870 00dc 0327C4FE 		lw	a4,-20(s0)
 871 00e0 98C3     		sw	a4,0(a5)
 872              	.L43:
 362:../Firmware/GD32VW55x_standard_peripheral/Source/gd32vw55x_adc.c ****     }else{
 363:../Firmware/GD32VW55x_standard_peripheral/Source/gd32vw55x_adc.c ****         /* illegal parameters */
 364:../Firmware/GD32VW55x_standard_peripheral/Source/gd32vw55x_adc.c ****     }
 365:../Firmware/GD32VW55x_standard_peripheral/Source/gd32vw55x_adc.c **** 
 366:../Firmware/GD32VW55x_standard_peripheral/Source/gd32vw55x_adc.c ****     /* configure ADC sampling time */
 367:../Firmware/GD32VW55x_standard_peripheral/Source/gd32vw55x_adc.c ****     if(channel < ADC_CHANNEL_SAMPLE_EIGHT){
 873              		.loc 1 367 7
 874 00e2 0347E4FD 		lbu	a4,-34(s0)
 875 00e6 9D47     		li	a5,7
 876 00e8 63E8E704 		bgtu	a4,a5,.L44
 368:../Firmware/GD32VW55x_standard_peripheral/Source/gd32vw55x_adc.c ****         /* the routine group sequence rank is smaller than ten */
 369:../Firmware/GD32VW55x_standard_peripheral/Source/gd32vw55x_adc.c ****         sampt = ADC_SAMPT1;
 877              		.loc 1 369 17
 878 00ec B7270140 		li	a5,1073815552
 879 00f0 C107     		addi	a5,a5,16
 880              		.loc 1 369 15
 881 00f2 9C43     		lw	a5,0(a5)
 882 00f4 2324F4FE 		sw	a5,-24(s0)
 370:../Firmware/GD32VW55x_standard_peripheral/Source/gd32vw55x_adc.c ****         sampt &= ~((uint32_t)(ADC_SAMPTX_SPTN << (ADC_CHANNEL_SAMPLE_LENGTH*channel)));
 883              		.loc 1 370 76
 884 00f8 8347E4FD 		lbu	a5,-34(s0)
 885 00fc 8A07     		slli	a5,a5,2
 886              		.loc 1 370 20
 887 00fe 1D47     		li	a4,7
 888 0100 B317F700 		sll	a5,a4,a5
 889              		.loc 1 370 18
 890 0104 93C7F7FF 		not	a5,a5
 891              		.loc 1 370 15
 892 0108 032784FE 		lw	a4,-24(s0)
 893 010c F98F     		and	a5,a4,a5
 894 010e 2324F4FE 		sw	a5,-24(s0)
 371:../Firmware/GD32VW55x_standard_peripheral/Source/gd32vw55x_adc.c ****         /* channel sample time set*/
 372:../Firmware/GD32VW55x_standard_peripheral/Source/gd32vw55x_adc.c ****         sampt |= (uint32_t)(sample_time << (ADC_CHANNEL_SAMPLE_LENGTH*channel));
 895              		.loc 1 372 70
 896 0112 8347E4FD 		lbu	a5,-34(s0)
 897 0116 8A07     		slli	a5,a5,2
 898              		.loc 1 372 41
 899 0118 032784FD 		lw	a4,-40(s0)
 900 011c B317F700 		sll	a5,a4,a5
 901              		.loc 1 372 15
 902 0120 032784FE 		lw	a4,-24(s0)
 903 0124 D98F     		or	a5,a4,a5
 904 0126 2324F4FE 		sw	a5,-24(s0)
 373:../Firmware/GD32VW55x_standard_peripheral/Source/gd32vw55x_adc.c ****         ADC_SAMPT1 = sampt;
 905              		.loc 1 373 9
 906 012a B7270140 		li	a5,1073815552
 907 012e C107     		addi	a5,a5,16
 908              		.loc 1 373 20
 909 0130 032784FE 		lw	a4,-24(s0)
 910 0134 98C3     		sw	a4,0(a5)
 374:../Firmware/GD32VW55x_standard_peripheral/Source/gd32vw55x_adc.c ****     }else if(channel <= ADC_CHANNEL_SAMPLE_ELEVEN){
 375:../Firmware/GD32VW55x_standard_peripheral/Source/gd32vw55x_adc.c ****         /* the routine group sequence rank is smaller than eleven */
 376:../Firmware/GD32VW55x_standard_peripheral/Source/gd32vw55x_adc.c ****         sampt = ADC_SAMPT0;
 377:../Firmware/GD32VW55x_standard_peripheral/Source/gd32vw55x_adc.c ****         sampt &= ~((uint32_t)(ADC_SAMPTX_SPTN << (ADC_CHANNEL_SAMPLE_LENGTH*(channel-ADC_CHANNEL_SA
 378:../Firmware/GD32VW55x_standard_peripheral/Source/gd32vw55x_adc.c ****         /* channel sample time set*/
 379:../Firmware/GD32VW55x_standard_peripheral/Source/gd32vw55x_adc.c ****         sampt |= (uint32_t)(sample_time << (ADC_CHANNEL_SAMPLE_LENGTH*(channel-ADC_CHANNEL_SAMPLE_E
 380:../Firmware/GD32VW55x_standard_peripheral/Source/gd32vw55x_adc.c ****         ADC_SAMPT0 = sampt;
 381:../Firmware/GD32VW55x_standard_peripheral/Source/gd32vw55x_adc.c ****     }else{
 382:../Firmware/GD32VW55x_standard_peripheral/Source/gd32vw55x_adc.c ****         /* illegal parameters */
 383:../Firmware/GD32VW55x_standard_peripheral/Source/gd32vw55x_adc.c ****     }
 384:../Firmware/GD32VW55x_standard_peripheral/Source/gd32vw55x_adc.c **** }
 911              		.loc 1 384 1
 912 0136 A9A8     		j	.L46
 913              	.L44:
 374:../Firmware/GD32VW55x_standard_peripheral/Source/gd32vw55x_adc.c ****     }else if(channel <= ADC_CHANNEL_SAMPLE_ELEVEN){
 914              		.loc 1 374 13
 915 0138 0347E4FD 		lbu	a4,-34(s0)
 916 013c AD47     		li	a5,11
 917 013e 63E9E704 		bgtu	a4,a5,.L46
 376:../Firmware/GD32VW55x_standard_peripheral/Source/gd32vw55x_adc.c ****         sampt &= ~((uint32_t)(ADC_SAMPTX_SPTN << (ADC_CHANNEL_SAMPLE_LENGTH*(channel-ADC_CHANNEL_SA
 918              		.loc 1 376 17
 919 0142 B7270140 		li	a5,1073815552
 920 0146 B107     		addi	a5,a5,12
 376:../Firmware/GD32VW55x_standard_peripheral/Source/gd32vw55x_adc.c ****         sampt &= ~((uint32_t)(ADC_SAMPTX_SPTN << (ADC_CHANNEL_SAMPLE_LENGTH*(channel-ADC_CHANNEL_SA
 921              		.loc 1 376 15
 922 0148 9C43     		lw	a5,0(a5)
 923 014a 2324F4FE 		sw	a5,-24(s0)
 377:../Firmware/GD32VW55x_standard_peripheral/Source/gd32vw55x_adc.c ****         /* channel sample time set*/
 924              		.loc 1 377 85
 925 014e 8347E4FD 		lbu	a5,-34(s0)
 926 0152 E117     		addi	a5,a5,-8
 377:../Firmware/GD32VW55x_standard_peripheral/Source/gd32vw55x_adc.c ****         /* channel sample time set*/
 927              		.loc 1 377 76
 928 0154 8A07     		slli	a5,a5,2
 377:../Firmware/GD32VW55x_standard_peripheral/Source/gd32vw55x_adc.c ****         /* channel sample time set*/
 929              		.loc 1 377 20
 930 0156 1D47     		li	a4,7
 931 0158 B317F700 		sll	a5,a4,a5
 377:../Firmware/GD32VW55x_standard_peripheral/Source/gd32vw55x_adc.c ****         /* channel sample time set*/
 932              		.loc 1 377 18
 933 015c 93C7F7FF 		not	a5,a5
 377:../Firmware/GD32VW55x_standard_peripheral/Source/gd32vw55x_adc.c ****         /* channel sample time set*/
 934              		.loc 1 377 15
 935 0160 032784FE 		lw	a4,-24(s0)
 936 0164 F98F     		and	a5,a4,a5
 937 0166 2324F4FE 		sw	a5,-24(s0)
 379:../Firmware/GD32VW55x_standard_peripheral/Source/gd32vw55x_adc.c ****         ADC_SAMPT0 = sampt;
 938              		.loc 1 379 79
 939 016a 8347E4FD 		lbu	a5,-34(s0)
 940 016e E117     		addi	a5,a5,-8
 379:../Firmware/GD32VW55x_standard_peripheral/Source/gd32vw55x_adc.c ****         ADC_SAMPT0 = sampt;
 941              		.loc 1 379 70
 942 0170 8A07     		slli	a5,a5,2
 379:../Firmware/GD32VW55x_standard_peripheral/Source/gd32vw55x_adc.c ****         ADC_SAMPT0 = sampt;
 943              		.loc 1 379 41
 944 0172 032784FD 		lw	a4,-40(s0)
 945 0176 B317F700 		sll	a5,a4,a5
 379:../Firmware/GD32VW55x_standard_peripheral/Source/gd32vw55x_adc.c ****         ADC_SAMPT0 = sampt;
 946              		.loc 1 379 15
 947 017a 032784FE 		lw	a4,-24(s0)
 948 017e D98F     		or	a5,a4,a5
 949 0180 2324F4FE 		sw	a5,-24(s0)
 380:../Firmware/GD32VW55x_standard_peripheral/Source/gd32vw55x_adc.c ****     }else{
 950              		.loc 1 380 9
 951 0184 B7270140 		li	a5,1073815552
 952 0188 B107     		addi	a5,a5,12
 380:../Firmware/GD32VW55x_standard_peripheral/Source/gd32vw55x_adc.c ****     }else{
 953              		.loc 1 380 20
 954 018a 032784FE 		lw	a4,-24(s0)
 955 018e 98C3     		sw	a4,0(a5)
 956              	.L46:
 957              		.loc 1 384 1
 958 0190 0100     		nop
 959 0192 3254     		lw	s0,44(sp)
 960              		.cfi_restore 8
 961              		.cfi_def_cfa 2, 48
 962 0194 4561     		addi	sp,sp,48
 963              		.cfi_def_cfa_offset 0
 964 0196 8280     		jr	ra
 965              		.cfi_endproc
 966              	.LFE361:
 968              		.section	.text.adc_inserted_channel_config,"ax",@progbits
 969              		.align	1
 970              		.globl	adc_inserted_channel_config
 972              	adc_inserted_channel_config:
 973              	.LFB362:
 385:../Firmware/GD32VW55x_standard_peripheral/Source/gd32vw55x_adc.c **** 
 386:../Firmware/GD32VW55x_standard_peripheral/Source/gd32vw55x_adc.c **** /*!
 387:../Firmware/GD32VW55x_standard_peripheral/Source/gd32vw55x_adc.c ****     \brief      configure ADC inserted channel
 388:../Firmware/GD32VW55x_standard_peripheral/Source/gd32vw55x_adc.c ****     \param[in]  rank: the inserted group sequencer rank,this parameter must be between 0 to 3
 389:../Firmware/GD32VW55x_standard_peripheral/Source/gd32vw55x_adc.c ****     \param[in]  channel: the selected ADC channel
 390:../Firmware/GD32VW55x_standard_peripheral/Source/gd32vw55x_adc.c ****                 only one parameter can be selected which is shown as below:
 391:../Firmware/GD32VW55x_standard_peripheral/Source/gd32vw55x_adc.c ****       \arg        ADC_CHANNEL_x(x=0..10): ADC Channelx
 392:../Firmware/GD32VW55x_standard_peripheral/Source/gd32vw55x_adc.c ****     \param[in]  sample_time: The sample time value
 393:../Firmware/GD32VW55x_standard_peripheral/Source/gd32vw55x_adc.c ****                 only one parameter can be selected which is shown as below:
 394:../Firmware/GD32VW55x_standard_peripheral/Source/gd32vw55x_adc.c ****       \arg        ADC_SAMPLETIME_1POINT5: 1.5 cycle
 395:../Firmware/GD32VW55x_standard_peripheral/Source/gd32vw55x_adc.c ****       \arg        ADC_SAMPLETIME_2POINT5: 2.5 cycles
 396:../Firmware/GD32VW55x_standard_peripheral/Source/gd32vw55x_adc.c ****       \arg        ADC_SAMPLETIME_14POINT5: 14.5 cycles
 397:../Firmware/GD32VW55x_standard_peripheral/Source/gd32vw55x_adc.c ****       \arg        ADC_SAMPLETIME_27POINT5: 27.5 cycles
 398:../Firmware/GD32VW55x_standard_peripheral/Source/gd32vw55x_adc.c ****       \arg        ADC_SAMPLETIME_55POINT5: 55.5 cycles
 399:../Firmware/GD32VW55x_standard_peripheral/Source/gd32vw55x_adc.c ****       \arg        ADC_SAMPLETIME_83POINT5: 83.5 cycles
 400:../Firmware/GD32VW55x_standard_peripheral/Source/gd32vw55x_adc.c ****       \arg        ADC_SAMPLETIME_111POINT5: 111.5 cycles
 401:../Firmware/GD32VW55x_standard_peripheral/Source/gd32vw55x_adc.c ****       \arg        ADC_SAMPLETIME_143POINT5: 143.5 cycles
 402:../Firmware/GD32VW55x_standard_peripheral/Source/gd32vw55x_adc.c ****       \arg        ADC_SAMPLETIME_479POINT5: 479.5 cycles
 403:../Firmware/GD32VW55x_standard_peripheral/Source/gd32vw55x_adc.c ****     \param[out] none
 404:../Firmware/GD32VW55x_standard_peripheral/Source/gd32vw55x_adc.c ****     \retval     none
 405:../Firmware/GD32VW55x_standard_peripheral/Source/gd32vw55x_adc.c **** */
 406:../Firmware/GD32VW55x_standard_peripheral/Source/gd32vw55x_adc.c **** void adc_inserted_channel_config(uint8_t rank, uint8_t channel, uint32_t sample_time)
 407:../Firmware/GD32VW55x_standard_peripheral/Source/gd32vw55x_adc.c **** {
 974              		.loc 1 407 1
 975              		.cfi_startproc
 976 0000 7971     		addi	sp,sp,-48
 977              		.cfi_def_cfa_offset 48
 978 0002 22D6     		sw	s0,44(sp)
 979              		.cfi_offset 8, -4
 980 0004 0018     		addi	s0,sp,48
 981              		.cfi_def_cfa 8, 0
 982 0006 AA87     		mv	a5,a0
 983 0008 2E87     		mv	a4,a1
 984 000a 232CC4FC 		sw	a2,-40(s0)
 985 000e A30FF4FC 		sb	a5,-33(s0)
 986 0012 BA87     		mv	a5,a4
 987 0014 230FF4FC 		sb	a5,-34(s0)
 408:../Firmware/GD32VW55x_standard_peripheral/Source/gd32vw55x_adc.c ****     uint8_t inserted_length;
 409:../Firmware/GD32VW55x_standard_peripheral/Source/gd32vw55x_adc.c ****     uint32_t isq,sampt;
 410:../Firmware/GD32VW55x_standard_peripheral/Source/gd32vw55x_adc.c **** 
 411:../Firmware/GD32VW55x_standard_peripheral/Source/gd32vw55x_adc.c ****     /* get inserted channel group length */
 412:../Firmware/GD32VW55x_standard_peripheral/Source/gd32vw55x_adc.c ****     inserted_length = (uint8_t)GET_BITS(ADC_ISQ, 20U, 21U);
 988              		.loc 1 412 32
 989 0018 B7270140 		li	a5,1073815552
 990 001c 93878703 		addi	a5,a5,56
 991 0020 9C43     		lw	a5,0(a5)
 992 0022 D183     		srli	a5,a5,20
 993              		.loc 1 412 23
 994 0024 93F7F70F 		andi	a5,a5,0xff
 995              		.loc 1 412 21
 996 0028 8D8B     		andi	a5,a5,3
 997 002a A307F4FE 		sb	a5,-17(s0)
 413:../Firmware/GD32VW55x_standard_peripheral/Source/gd32vw55x_adc.c ****      /* the channel number is written to these bits to select a channel as the nth conversion in th
 414:../Firmware/GD32VW55x_standard_peripheral/Source/gd32vw55x_adc.c ****     if(rank < 4U){
 998              		.loc 1 414 7
 999 002e 0347F4FD 		lbu	a4,-33(s0)
 1000 0032 8D47     		li	a5,3
 1001 0034 63E9E706 		bgtu	a4,a5,.L48
 415:../Firmware/GD32VW55x_standard_peripheral/Source/gd32vw55x_adc.c ****         isq = ADC_ISQ;
 1002              		.loc 1 415 15
 1003 0038 B7270140 		li	a5,1073815552
 1004 003c 93878703 		addi	a5,a5,56
 1005              		.loc 1 415 13
 1006 0040 9C43     		lw	a5,0(a5)
 1007 0042 2324F4FE 		sw	a5,-24(s0)
 416:../Firmware/GD32VW55x_standard_peripheral/Source/gd32vw55x_adc.c ****         isq &= ~((uint32_t)(ADC_ISQ_ISQN << (ADC_INSERTED_CHANNEL_SHIFT_OFFSET-(inserted_length-ran
 1008              		.loc 1 416 96
 1009 0046 0347F4FE 		lbu	a4,-17(s0)
 1010 004a 8347F4FD 		lbu	a5,-33(s0)
 1011 004e 1D8F     		sub	a4,a4,a5
 1012              		.loc 1 416 102
 1013 0050 BA87     		mv	a5,a4
 1014 0052 8A07     		slli	a5,a5,2
 1015 0054 BA97     		add	a5,a5,a4
 1016 0056 B307F040 		neg	a5,a5
 1017              		.loc 1 416 79
 1018 005a BD07     		addi	a5,a5,15
 1019              		.loc 1 416 18
 1020 005c 7D47     		li	a4,31
 1021 005e B317F700 		sll	a5,a4,a5
 1022              		.loc 1 416 16
 1023 0062 93C7F7FF 		not	a5,a5
 1024              		.loc 1 416 13
 1025 0066 032784FE 		lw	a4,-24(s0)
 1026 006a F98F     		and	a5,a4,a5
 1027 006c 2324F4FE 		sw	a5,-24(s0)
 417:../Firmware/GD32VW55x_standard_peripheral/Source/gd32vw55x_adc.c ****         isq |= ((uint32_t)channel << (ADC_INSERTED_CHANNEL_SHIFT_OFFSET-(inserted_length-rank)*ADC_
 1028              		.loc 1 417 17
 1029 0070 8346E4FD 		lbu	a3,-34(s0)
 1030              		.loc 1 417 89
 1031 0074 0347F4FE 		lbu	a4,-17(s0)
 1032 0078 8347F4FD 		lbu	a5,-33(s0)
 1033 007c 1D8F     		sub	a4,a4,a5
 1034              		.loc 1 417 95
 1035 007e BA87     		mv	a5,a4
 1036 0080 8A07     		slli	a5,a5,2
 1037 0082 BA97     		add	a5,a5,a4
 1038 0084 B307F040 		neg	a5,a5
 1039              		.loc 1 417 72
 1040 0088 BD07     		addi	a5,a5,15
 1041              		.loc 1 417 35
 1042 008a B397F600 		sll	a5,a3,a5
 1043              		.loc 1 417 13
 1044 008e 032784FE 		lw	a4,-24(s0)
 1045 0092 D98F     		or	a5,a4,a5
 1046 0094 2324F4FE 		sw	a5,-24(s0)
 418:../Firmware/GD32VW55x_standard_peripheral/Source/gd32vw55x_adc.c ****         ADC_ISQ = isq;
 1047              		.loc 1 418 9
 1048 0098 B7270140 		li	a5,1073815552
 1049 009c 93878703 		addi	a5,a5,56
 1050              		.loc 1 418 17
 1051 00a0 032784FE 		lw	a4,-24(s0)
 1052 00a4 98C3     		sw	a4,0(a5)
 1053              	.L48:
 419:../Firmware/GD32VW55x_standard_peripheral/Source/gd32vw55x_adc.c ****     }
 420:../Firmware/GD32VW55x_standard_peripheral/Source/gd32vw55x_adc.c **** 
 421:../Firmware/GD32VW55x_standard_peripheral/Source/gd32vw55x_adc.c ****     /* configure ADC sampling time */
 422:../Firmware/GD32VW55x_standard_peripheral/Source/gd32vw55x_adc.c ****     if(channel < ADC_CHANNEL_SAMPLE_EIGHT){
 1054              		.loc 1 422 7
 1055 00a6 0347E4FD 		lbu	a4,-34(s0)
 1056 00aa 9D47     		li	a5,7
 1057 00ac 63E8E704 		bgtu	a4,a5,.L49
 423:../Firmware/GD32VW55x_standard_peripheral/Source/gd32vw55x_adc.c ****         /* the inserted group sequence rank is smaller than ten */
 424:../Firmware/GD32VW55x_standard_peripheral/Source/gd32vw55x_adc.c ****         sampt = ADC_SAMPT1;
 1058              		.loc 1 424 17
 1059 00b0 B7270140 		li	a5,1073815552
 1060 00b4 C107     		addi	a5,a5,16
 1061              		.loc 1 424 15
 1062 00b6 9C43     		lw	a5,0(a5)
 1063 00b8 2322F4FE 		sw	a5,-28(s0)
 425:../Firmware/GD32VW55x_standard_peripheral/Source/gd32vw55x_adc.c ****         sampt &= ~((uint32_t)(ADC_SAMPTX_SPTN << (ADC_CHANNEL_SAMPLE_LENGTH * channel)));
 1064              		.loc 1 425 77
 1065 00bc 8347E4FD 		lbu	a5,-34(s0)
 1066 00c0 8A07     		slli	a5,a5,2
 1067              		.loc 1 425 20
 1068 00c2 1D47     		li	a4,7
 1069 00c4 B317F700 		sll	a5,a4,a5
 1070              		.loc 1 425 18
 1071 00c8 93C7F7FF 		not	a5,a5
 1072              		.loc 1 425 15
 1073 00cc 032744FE 		lw	a4,-28(s0)
 1074 00d0 F98F     		and	a5,a4,a5
 1075 00d2 2322F4FE 		sw	a5,-28(s0)
 426:../Firmware/GD32VW55x_standard_peripheral/Source/gd32vw55x_adc.c ****         /* channel sample time set*/
 427:../Firmware/GD32VW55x_standard_peripheral/Source/gd32vw55x_adc.c ****         sampt |= (uint32_t) sample_time << (ADC_CHANNEL_SAMPLE_LENGTH * channel);
 1076              		.loc 1 427 71
 1077 00d6 8347E4FD 		lbu	a5,-34(s0)
 1078 00da 8A07     		slli	a5,a5,2
 1079              		.loc 1 427 41
 1080 00dc 032784FD 		lw	a4,-40(s0)
 1081 00e0 B317F700 		sll	a5,a4,a5
 1082              		.loc 1 427 15
 1083 00e4 032744FE 		lw	a4,-28(s0)
 1084 00e8 D98F     		or	a5,a4,a5
 1085 00ea 2322F4FE 		sw	a5,-28(s0)
 428:../Firmware/GD32VW55x_standard_peripheral/Source/gd32vw55x_adc.c ****         ADC_SAMPT1 = sampt;
 1086              		.loc 1 428 9
 1087 00ee B7270140 		li	a5,1073815552
 1088 00f2 C107     		addi	a5,a5,16
 1089              		.loc 1 428 20
 1090 00f4 032744FE 		lw	a4,-28(s0)
 1091 00f8 98C3     		sw	a4,0(a5)
 429:../Firmware/GD32VW55x_standard_peripheral/Source/gd32vw55x_adc.c ****     }else if(channel <= ADC_CHANNEL_SAMPLE_ELEVEN){
 430:../Firmware/GD32VW55x_standard_peripheral/Source/gd32vw55x_adc.c ****         /* the inserted group sequence rank is smaller than eighteen */
 431:../Firmware/GD32VW55x_standard_peripheral/Source/gd32vw55x_adc.c ****         sampt = ADC_SAMPT0;
 432:../Firmware/GD32VW55x_standard_peripheral/Source/gd32vw55x_adc.c ****         sampt &= ~((uint32_t)(ADC_SAMPTX_SPTN << (ADC_CHANNEL_SAMPLE_LENGTH*(channel - ADC_CHANNEL_
 433:../Firmware/GD32VW55x_standard_peripheral/Source/gd32vw55x_adc.c ****         /* channel sample time set*/
 434:../Firmware/GD32VW55x_standard_peripheral/Source/gd32vw55x_adc.c ****         sampt |= ((uint32_t)sample_time << (ADC_CHANNEL_SAMPLE_LENGTH*(channel - ADC_CHANNEL_SAMPLE
 435:../Firmware/GD32VW55x_standard_peripheral/Source/gd32vw55x_adc.c ****         ADC_SAMPT0 = sampt;
 436:../Firmware/GD32VW55x_standard_peripheral/Source/gd32vw55x_adc.c ****     }else{
 437:../Firmware/GD32VW55x_standard_peripheral/Source/gd32vw55x_adc.c ****         /* illegal parameters */
 438:../Firmware/GD32VW55x_standard_peripheral/Source/gd32vw55x_adc.c ****     }
 439:../Firmware/GD32VW55x_standard_peripheral/Source/gd32vw55x_adc.c **** }
 1092              		.loc 1 439 1
 1093 00fa A9A8     		j	.L51
 1094              	.L49:
 429:../Firmware/GD32VW55x_standard_peripheral/Source/gd32vw55x_adc.c ****     }else if(channel <= ADC_CHANNEL_SAMPLE_ELEVEN){
 1095              		.loc 1 429 13
 1096 00fc 0347E4FD 		lbu	a4,-34(s0)
 1097 0100 AD47     		li	a5,11
 1098 0102 63E9E704 		bgtu	a4,a5,.L51
 431:../Firmware/GD32VW55x_standard_peripheral/Source/gd32vw55x_adc.c ****         sampt &= ~((uint32_t)(ADC_SAMPTX_SPTN << (ADC_CHANNEL_SAMPLE_LENGTH*(channel - ADC_CHANNEL_
 1099              		.loc 1 431 17
 1100 0106 B7270140 		li	a5,1073815552
 1101 010a B107     		addi	a5,a5,12
 431:../Firmware/GD32VW55x_standard_peripheral/Source/gd32vw55x_adc.c ****         sampt &= ~((uint32_t)(ADC_SAMPTX_SPTN << (ADC_CHANNEL_SAMPLE_LENGTH*(channel - ADC_CHANNEL_
 1102              		.loc 1 431 15
 1103 010c 9C43     		lw	a5,0(a5)
 1104 010e 2322F4FE 		sw	a5,-28(s0)
 432:../Firmware/GD32VW55x_standard_peripheral/Source/gd32vw55x_adc.c ****         /* channel sample time set*/
 1105              		.loc 1 432 86
 1106 0112 8347E4FD 		lbu	a5,-34(s0)
 1107 0116 E117     		addi	a5,a5,-8
 432:../Firmware/GD32VW55x_standard_peripheral/Source/gd32vw55x_adc.c ****         /* channel sample time set*/
 1108              		.loc 1 432 76
 1109 0118 8A07     		slli	a5,a5,2
 432:../Firmware/GD32VW55x_standard_peripheral/Source/gd32vw55x_adc.c ****         /* channel sample time set*/
 1110              		.loc 1 432 20
 1111 011a 1D47     		li	a4,7
 1112 011c B317F700 		sll	a5,a4,a5
 432:../Firmware/GD32VW55x_standard_peripheral/Source/gd32vw55x_adc.c ****         /* channel sample time set*/
 1113              		.loc 1 432 18
 1114 0120 93C7F7FF 		not	a5,a5
 432:../Firmware/GD32VW55x_standard_peripheral/Source/gd32vw55x_adc.c ****         /* channel sample time set*/
 1115              		.loc 1 432 15
 1116 0124 032744FE 		lw	a4,-28(s0)
 1117 0128 F98F     		and	a5,a4,a5
 1118 012a 2322F4FE 		sw	a5,-28(s0)
 434:../Firmware/GD32VW55x_standard_peripheral/Source/gd32vw55x_adc.c ****         ADC_SAMPT0 = sampt;
 1119              		.loc 1 434 80
 1120 012e 8347E4FD 		lbu	a5,-34(s0)
 1121 0132 E117     		addi	a5,a5,-8
 434:../Firmware/GD32VW55x_standard_peripheral/Source/gd32vw55x_adc.c ****         ADC_SAMPT0 = sampt;
 1122              		.loc 1 434 70
 1123 0134 8A07     		slli	a5,a5,2
 434:../Firmware/GD32VW55x_standard_peripheral/Source/gd32vw55x_adc.c ****         ADC_SAMPT0 = sampt;
 1124              		.loc 1 434 41
 1125 0136 032784FD 		lw	a4,-40(s0)
 1126 013a B317F700 		sll	a5,a4,a5
 434:../Firmware/GD32VW55x_standard_peripheral/Source/gd32vw55x_adc.c ****         ADC_SAMPT0 = sampt;
 1127              		.loc 1 434 15
 1128 013e 032744FE 		lw	a4,-28(s0)
 1129 0142 D98F     		or	a5,a4,a5
 1130 0144 2322F4FE 		sw	a5,-28(s0)
 435:../Firmware/GD32VW55x_standard_peripheral/Source/gd32vw55x_adc.c ****     }else{
 1131              		.loc 1 435 9
 1132 0148 B7270140 		li	a5,1073815552
 1133 014c B107     		addi	a5,a5,12
 435:../Firmware/GD32VW55x_standard_peripheral/Source/gd32vw55x_adc.c ****     }else{
 1134              		.loc 1 435 20
 1135 014e 032744FE 		lw	a4,-28(s0)
 1136 0152 98C3     		sw	a4,0(a5)
 1137              	.L51:
 1138              		.loc 1 439 1
 1139 0154 0100     		nop
 1140 0156 3254     		lw	s0,44(sp)
 1141              		.cfi_restore 8
 1142              		.cfi_def_cfa 2, 48
 1143 0158 4561     		addi	sp,sp,48
 1144              		.cfi_def_cfa_offset 0
 1145 015a 8280     		jr	ra
 1146              		.cfi_endproc
 1147              	.LFE362:
 1149              		.section	.text.adc_inserted_channel_offset_config,"ax",@progbits
 1150              		.align	1
 1151              		.globl	adc_inserted_channel_offset_config
 1153              	adc_inserted_channel_offset_config:
 1154              	.LFB363:
 440:../Firmware/GD32VW55x_standard_peripheral/Source/gd32vw55x_adc.c **** 
 441:../Firmware/GD32VW55x_standard_peripheral/Source/gd32vw55x_adc.c **** /*!
 442:../Firmware/GD32VW55x_standard_peripheral/Source/gd32vw55x_adc.c ****     \brief      configure ADC inserted channel offset
 443:../Firmware/GD32VW55x_standard_peripheral/Source/gd32vw55x_adc.c ****     \param[in]  inserted_channel : inserted channel select
 444:../Firmware/GD32VW55x_standard_peripheral/Source/gd32vw55x_adc.c ****                 only one parameter can be selected which is shown as below:
 445:../Firmware/GD32VW55x_standard_peripheral/Source/gd32vw55x_adc.c ****       \arg        ADC_INSERTED_CHANNEL_0: ADC inserted channel 0
 446:../Firmware/GD32VW55x_standard_peripheral/Source/gd32vw55x_adc.c ****       \arg        ADC_INSERTED_CHANNEL_1: ADC inserted channel 1
 447:../Firmware/GD32VW55x_standard_peripheral/Source/gd32vw55x_adc.c ****       \arg        ADC_INSERTED_CHANNEL_2: ADC inserted channel 2
 448:../Firmware/GD32VW55x_standard_peripheral/Source/gd32vw55x_adc.c ****       \arg        ADC_INSERTED_CHANNEL_3: ADC inserted channel 3
 449:../Firmware/GD32VW55x_standard_peripheral/Source/gd32vw55x_adc.c ****     \param[in]  offset : the offset data
 450:../Firmware/GD32VW55x_standard_peripheral/Source/gd32vw55x_adc.c ****     \param[out] none
 451:../Firmware/GD32VW55x_standard_peripheral/Source/gd32vw55x_adc.c ****     \retval     none
 452:../Firmware/GD32VW55x_standard_peripheral/Source/gd32vw55x_adc.c **** */
 453:../Firmware/GD32VW55x_standard_peripheral/Source/gd32vw55x_adc.c **** void adc_inserted_channel_offset_config(uint8_t inserted_channel, uint16_t offset)
 454:../Firmware/GD32VW55x_standard_peripheral/Source/gd32vw55x_adc.c **** {
 1155              		.loc 1 454 1
 1156              		.cfi_startproc
 1157 0000 7971     		addi	sp,sp,-48
 1158              		.cfi_def_cfa_offset 48
 1159 0002 22D6     		sw	s0,44(sp)
 1160              		.cfi_offset 8, -4
 1161 0004 0018     		addi	s0,sp,48
 1162              		.cfi_def_cfa 8, 0
 1163 0006 AA87     		mv	a5,a0
 1164 0008 2E87     		mv	a4,a1
 1165 000a A30FF4FC 		sb	a5,-33(s0)
 1166 000e BA87     		mv	a5,a4
 1167 0010 231EF4FC 		sh	a5,-36(s0)
 455:../Firmware/GD32VW55x_standard_peripheral/Source/gd32vw55x_adc.c ****     uint8_t inserted_length;
 456:../Firmware/GD32VW55x_standard_peripheral/Source/gd32vw55x_adc.c ****     uint32_t num = 0U;
 1168              		.loc 1 456 14
 1169 0014 232604FE 		sw	zero,-20(s0)
 457:../Firmware/GD32VW55x_standard_peripheral/Source/gd32vw55x_adc.c **** 
 458:../Firmware/GD32VW55x_standard_peripheral/Source/gd32vw55x_adc.c ****     inserted_length = (uint8_t)GET_BITS(ADC_ISQ, 20U, 21U);
 1170              		.loc 1 458 32
 1171 0018 B7270140 		li	a5,1073815552
 1172 001c 93878703 		addi	a5,a5,56
 1173 0020 9C43     		lw	a5,0(a5)
 1174 0022 D183     		srli	a5,a5,20
 1175              		.loc 1 458 23
 1176 0024 93F7F70F 		andi	a5,a5,0xff
 1177              		.loc 1 458 21
 1178 0028 8D8B     		andi	a5,a5,3
 1179 002a A305F4FE 		sb	a5,-21(s0)
 459:../Firmware/GD32VW55x_standard_peripheral/Source/gd32vw55x_adc.c ****     num = ((uint32_t)ADC_OFFSET_LENGTH - ((uint32_t)inserted_length - (uint32_t)inserted_channel));
 1180              		.loc 1 459 71
 1181 002e 0347F4FD 		lbu	a4,-33(s0)
 1182              		.loc 1 459 43
 1183 0032 8347B4FE 		lbu	a5,-21(s0)
 1184              		.loc 1 459 40
 1185 0036 B307F740 		sub	a5,a4,a5
 1186              		.loc 1 459 9
 1187 003a 8D07     		addi	a5,a5,3
 1188 003c 2326F4FE 		sw	a5,-20(s0)
 460:../Firmware/GD32VW55x_standard_peripheral/Source/gd32vw55x_adc.c **** 
 461:../Firmware/GD32VW55x_standard_peripheral/Source/gd32vw55x_adc.c ****     if(num <= ADC_OFFSET_LENGTH){
 1189              		.loc 1 461 7
 1190 0040 0327C4FE 		lw	a4,-20(s0)
 1191 0044 8D47     		li	a5,3
 1192 0046 63E4E702 		bgtu	a4,a5,.L54
 462:../Firmware/GD32VW55x_standard_peripheral/Source/gd32vw55x_adc.c ****         /* calculate the offset of the register */
 463:../Firmware/GD32VW55x_standard_peripheral/Source/gd32vw55x_adc.c ****         num = num * ADC_OFFSET_SHIFT_LENGTH;
 1193              		.loc 1 463 13
 1194 004a 8327C4FE 		lw	a5,-20(s0)
 1195 004e 8A07     		slli	a5,a5,2
 1196 0050 2326F4FE 		sw	a5,-20(s0)
 464:../Firmware/GD32VW55x_standard_peripheral/Source/gd32vw55x_adc.c ****         /* configure the offset of the selected channels */
 465:../Firmware/GD32VW55x_standard_peripheral/Source/gd32vw55x_adc.c ****         REG32((ADC) + 0x14U + num) = IOFFX_IOFF((uint32_t)offset);
 1197              		.loc 1 465 38
 1198 0054 0357C4FD 		lhu	a4,-36(s0)
 1199              		.loc 1 465 9
 1200 0058 8326C4FE 		lw	a3,-20(s0)
 1201 005c B7270140 		li	a5,1073815552
 1202 0060 D107     		addi	a5,a5,20
 1203 0062 B697     		add	a5,a3,a5
 1204 0064 BE86     		mv	a3,a5
 1205              		.loc 1 465 38
 1206 0066 8567     		li	a5,4096
 1207 0068 FD17     		addi	a5,a5,-1
 1208 006a F98F     		and	a5,a4,a5
 1209              		.loc 1 465 36
 1210 006c 9CC2     		sw	a5,0(a3)
 1211              	.L54:
 466:../Firmware/GD32VW55x_standard_peripheral/Source/gd32vw55x_adc.c ****     }
 467:../Firmware/GD32VW55x_standard_peripheral/Source/gd32vw55x_adc.c **** }
 1212              		.loc 1 467 1
 1213 006e 0100     		nop
 1214 0070 3254     		lw	s0,44(sp)
 1215              		.cfi_restore 8
 1216              		.cfi_def_cfa 2, 48
 1217 0072 4561     		addi	sp,sp,48
 1218              		.cfi_def_cfa_offset 0
 1219 0074 8280     		jr	ra
 1220              		.cfi_endproc
 1221              	.LFE363:
 1223              		.section	.text.adc_external_trigger_config,"ax",@progbits
 1224              		.align	1
 1225              		.globl	adc_external_trigger_config
 1227              	adc_external_trigger_config:
 1228              	.LFB364:
 468:../Firmware/GD32VW55x_standard_peripheral/Source/gd32vw55x_adc.c **** 
 469:../Firmware/GD32VW55x_standard_peripheral/Source/gd32vw55x_adc.c **** /*!
 470:../Firmware/GD32VW55x_standard_peripheral/Source/gd32vw55x_adc.c ****     \brief      configure ADC external trigger
 471:../Firmware/GD32VW55x_standard_peripheral/Source/gd32vw55x_adc.c ****     \param[in]  channel_group: select the channel group
 472:../Firmware/GD32VW55x_standard_peripheral/Source/gd32vw55x_adc.c ****                 only one parameter can be selected which is shown as below:
 473:../Firmware/GD32VW55x_standard_peripheral/Source/gd32vw55x_adc.c ****       \arg        ADC_ROUTINE_CHANNEL: routine channel group
 474:../Firmware/GD32VW55x_standard_peripheral/Source/gd32vw55x_adc.c ****       \arg        ADC_INSERTED_CHANNEL: inserted channel group
 475:../Firmware/GD32VW55x_standard_peripheral/Source/gd32vw55x_adc.c ****     \param[in]  trigger_mode: external trigger mode
 476:../Firmware/GD32VW55x_standard_peripheral/Source/gd32vw55x_adc.c ****                 only one parameter can be selected which is shown as below:
 477:../Firmware/GD32VW55x_standard_peripheral/Source/gd32vw55x_adc.c ****       \arg        EXTERNAL_TRIGGER_DISABLE: external trigger disable
 478:../Firmware/GD32VW55x_standard_peripheral/Source/gd32vw55x_adc.c ****       \arg        EXTERNAL_TRIGGER_RISING: rising edge of external trigger
 479:../Firmware/GD32VW55x_standard_peripheral/Source/gd32vw55x_adc.c ****       \arg        EXTERNAL_TRIGGER_FALLING: falling edge of external trigger
 480:../Firmware/GD32VW55x_standard_peripheral/Source/gd32vw55x_adc.c ****       \arg        EXTERNAL_TRIGGER_RISING_FALLING: rising and falling edge of external trigger
 481:../Firmware/GD32VW55x_standard_peripheral/Source/gd32vw55x_adc.c ****     \param[out] none
 482:../Firmware/GD32VW55x_standard_peripheral/Source/gd32vw55x_adc.c ****     \retval     none
 483:../Firmware/GD32VW55x_standard_peripheral/Source/gd32vw55x_adc.c **** */
 484:../Firmware/GD32VW55x_standard_peripheral/Source/gd32vw55x_adc.c **** void adc_external_trigger_config(uint8_t channel_group, uint32_t trigger_mode)
 485:../Firmware/GD32VW55x_standard_peripheral/Source/gd32vw55x_adc.c **** {
 1229              		.loc 1 485 1
 1230              		.cfi_startproc
 1231 0000 0111     		addi	sp,sp,-32
 1232              		.cfi_def_cfa_offset 32
 1233 0002 22CE     		sw	s0,28(sp)
 1234              		.cfi_offset 8, -4
 1235 0004 0010     		addi	s0,sp,32
 1236              		.cfi_def_cfa 8, 0
 1237 0006 AA87     		mv	a5,a0
 1238 0008 2324B4FE 		sw	a1,-24(s0)
 1239 000c A307F4FE 		sb	a5,-17(s0)
 486:../Firmware/GD32VW55x_standard_peripheral/Source/gd32vw55x_adc.c ****         switch(channel_group){
 1240              		.loc 1 486 9
 1241 0010 8347F4FE 		lbu	a5,-17(s0)
 1242 0014 0547     		li	a4,1
 1243 0016 6386E700 		beq	a5,a4,.L56
 1244 001a 0947     		li	a4,2
 1245 001c 638DE702 		beq	a5,a4,.L57
 487:../Firmware/GD32VW55x_standard_peripheral/Source/gd32vw55x_adc.c ****         case ADC_ROUTINE_CHANNEL:
 488:../Firmware/GD32VW55x_standard_peripheral/Source/gd32vw55x_adc.c ****             /* configure ADC routine channel group external trigger mode */
 489:../Firmware/GD32VW55x_standard_peripheral/Source/gd32vw55x_adc.c ****             ADC_CTL1 &= ~((uint32_t)ADC_CTL1_ETMRC);
 490:../Firmware/GD32VW55x_standard_peripheral/Source/gd32vw55x_adc.c ****             ADC_CTL1 |= (uint32_t) (trigger_mode << ROUTINE_TRIGGER_MODE_OFFSET);
 491:../Firmware/GD32VW55x_standard_peripheral/Source/gd32vw55x_adc.c ****             break;
 492:../Firmware/GD32VW55x_standard_peripheral/Source/gd32vw55x_adc.c ****         case ADC_INSERTED_CHANNEL:
 493:../Firmware/GD32VW55x_standard_peripheral/Source/gd32vw55x_adc.c ****             /* configure ADC inserted channel group external trigger mode */
 494:../Firmware/GD32VW55x_standard_peripheral/Source/gd32vw55x_adc.c ****             ADC_CTL1 &=  ~((uint32_t)ADC_CTL1_ETMIC);
 495:../Firmware/GD32VW55x_standard_peripheral/Source/gd32vw55x_adc.c ****             ADC_CTL1 |= (uint32_t) (trigger_mode << INSERTED_TRIGGER_MODE_OFFSET);
 496:../Firmware/GD32VW55x_standard_peripheral/Source/gd32vw55x_adc.c ****             break;
 497:../Firmware/GD32VW55x_standard_peripheral/Source/gd32vw55x_adc.c ****         default:
 498:../Firmware/GD32VW55x_standard_peripheral/Source/gd32vw55x_adc.c ****             break;
 1246              		.loc 1 498 13
 1247 0020 ADA0     		j	.L59
 1248              	.L56:
 489:../Firmware/GD32VW55x_standard_peripheral/Source/gd32vw55x_adc.c ****             ADC_CTL1 |= (uint32_t) (trigger_mode << ROUTINE_TRIGGER_MODE_OFFSET);
 1249              		.loc 1 489 22
 1250 0022 B7270140 		li	a5,1073815552
 1251 0026 A107     		addi	a5,a5,8
 1252 0028 9443     		lw	a3,0(a5)
 1253 002a B7270140 		li	a5,1073815552
 1254 002e A107     		addi	a5,a5,8
 1255 0030 370700D0 		li	a4,-805306368
 1256 0034 7D17     		addi	a4,a4,-1
 1257 0036 758F     		and	a4,a3,a4
 1258 0038 98C3     		sw	a4,0(a5)
 490:../Firmware/GD32VW55x_standard_peripheral/Source/gd32vw55x_adc.c ****             break;
 1259              		.loc 1 490 22
 1260 003a B7270140 		li	a5,1073815552
 1261 003e A107     		addi	a5,a5,8
 1262 0040 9443     		lw	a3,0(a5)
 490:../Firmware/GD32VW55x_standard_peripheral/Source/gd32vw55x_adc.c ****             break;
 1263              		.loc 1 490 50
 1264 0042 832784FE 		lw	a5,-24(s0)
 1265 0046 1397C701 		slli	a4,a5,28
 490:../Firmware/GD32VW55x_standard_peripheral/Source/gd32vw55x_adc.c ****             break;
 1266              		.loc 1 490 22
 1267 004a B7270140 		li	a5,1073815552
 1268 004e A107     		addi	a5,a5,8
 1269 0050 558F     		or	a4,a3,a4
 1270 0052 98C3     		sw	a4,0(a5)
 491:../Firmware/GD32VW55x_standard_peripheral/Source/gd32vw55x_adc.c ****         case ADC_INSERTED_CHANNEL:
 1271              		.loc 1 491 13
 1272 0054 1DA8     		j	.L59
 1273              	.L57:
 494:../Firmware/GD32VW55x_standard_peripheral/Source/gd32vw55x_adc.c ****             ADC_CTL1 |= (uint32_t) (trigger_mode << INSERTED_TRIGGER_MODE_OFFSET);
 1274              		.loc 1 494 22
 1275 0056 B7270140 		li	a5,1073815552
 1276 005a A107     		addi	a5,a5,8
 1277 005c 9443     		lw	a3,0(a5)
 1278 005e B7270140 		li	a5,1073815552
 1279 0062 A107     		addi	a5,a5,8
 1280 0064 3707D0FF 		li	a4,-3145728
 1281 0068 7D17     		addi	a4,a4,-1
 1282 006a 758F     		and	a4,a3,a4
 1283 006c 98C3     		sw	a4,0(a5)
 495:../Firmware/GD32VW55x_standard_peripheral/Source/gd32vw55x_adc.c ****             break;
 1284              		.loc 1 495 22
 1285 006e B7270140 		li	a5,1073815552
 1286 0072 A107     		addi	a5,a5,8
 1287 0074 9443     		lw	a3,0(a5)
 495:../Firmware/GD32VW55x_standard_peripheral/Source/gd32vw55x_adc.c ****             break;
 1288              		.loc 1 495 50
 1289 0076 832784FE 		lw	a5,-24(s0)
 1290 007a 13974701 		slli	a4,a5,20
 495:../Firmware/GD32VW55x_standard_peripheral/Source/gd32vw55x_adc.c ****             break;
 1291              		.loc 1 495 22
 1292 007e B7270140 		li	a5,1073815552
 1293 0082 A107     		addi	a5,a5,8
 1294 0084 558F     		or	a4,a3,a4
 1295 0086 98C3     		sw	a4,0(a5)
 496:../Firmware/GD32VW55x_standard_peripheral/Source/gd32vw55x_adc.c ****         default:
 1296              		.loc 1 496 13
 1297 0088 0100     		nop
 1298              	.L59:
 499:../Firmware/GD32VW55x_standard_peripheral/Source/gd32vw55x_adc.c ****         }
 500:../Firmware/GD32VW55x_standard_peripheral/Source/gd32vw55x_adc.c **** }
 1299              		.loc 1 500 1
 1300 008a 0100     		nop
 1301 008c 7244     		lw	s0,28(sp)
 1302              		.cfi_restore 8
 1303              		.cfi_def_cfa 2, 32
 1304 008e 0561     		addi	sp,sp,32
 1305              		.cfi_def_cfa_offset 0
 1306 0090 8280     		jr	ra
 1307              		.cfi_endproc
 1308              	.LFE364:
 1310              		.section	.text.adc_external_trigger_source_config,"ax",@progbits
 1311              		.align	1
 1312              		.globl	adc_external_trigger_source_config
 1314              	adc_external_trigger_source_config:
 1315              	.LFB365:
 501:../Firmware/GD32VW55x_standard_peripheral/Source/gd32vw55x_adc.c **** 
 502:../Firmware/GD32VW55x_standard_peripheral/Source/gd32vw55x_adc.c **** /*!
 503:../Firmware/GD32VW55x_standard_peripheral/Source/gd32vw55x_adc.c ****     \brief      configure ADC external trigger source
 504:../Firmware/GD32VW55x_standard_peripheral/Source/gd32vw55x_adc.c ****     \param[in]  channel_group: select the channel group
 505:../Firmware/GD32VW55x_standard_peripheral/Source/gd32vw55x_adc.c ****                 only one parameter can be selected which is shown as below:
 506:../Firmware/GD32VW55x_standard_peripheral/Source/gd32vw55x_adc.c ****       \arg        ADC_ROUTINE_CHANNEL: routine channel group
 507:../Firmware/GD32VW55x_standard_peripheral/Source/gd32vw55x_adc.c ****       \arg        ADC_INSERTED_CHANNEL: inserted channel group
 508:../Firmware/GD32VW55x_standard_peripheral/Source/gd32vw55x_adc.c ****     \param[in]  external_trigger_source: routine or inserted group trigger source
 509:../Firmware/GD32VW55x_standard_peripheral/Source/gd32vw55x_adc.c ****                 for routine channel:
 510:../Firmware/GD32VW55x_standard_peripheral/Source/gd32vw55x_adc.c ****                 only one parameter can be selected which is shown as below:
 511:../Firmware/GD32VW55x_standard_peripheral/Source/gd32vw55x_adc.c ****       \arg        ADC_EXTTRIG_ROUTINE_T0_CH0: external trigger TIMER0 CH0 event select for routine 
 512:../Firmware/GD32VW55x_standard_peripheral/Source/gd32vw55x_adc.c ****       \arg        ADC_EXTTRIG_ROUTINE_T0_CH1: external trigger TIMER0 CH1 event select for routine 
 513:../Firmware/GD32VW55x_standard_peripheral/Source/gd32vw55x_adc.c ****       \arg        ADC_EXTTRIG_ROUTINE_T0_CH2: external trigger TIMER0 CH2 event select for routine 
 514:../Firmware/GD32VW55x_standard_peripheral/Source/gd32vw55x_adc.c ****       \arg        ADC_EXTTRIG_ROUTINE_T1_CH1: external trigger TIMER1 CH1 event select for routine 
 515:../Firmware/GD32VW55x_standard_peripheral/Source/gd32vw55x_adc.c ****       \arg        ADC_EXTTRIG_ROUTINE_T1_CH2: external trigger TIMER1 CH2 event select for routine 
 516:../Firmware/GD32VW55x_standard_peripheral/Source/gd32vw55x_adc.c ****       \arg        ADC_EXTTRIG_ROUTINE_T1_CH3: external trigger TIMER1 CH3 event select for routine 
 517:../Firmware/GD32VW55x_standard_peripheral/Source/gd32vw55x_adc.c ****       \arg        ADC_EXTTRIG_ROUTINE_T1_TRGO: external trigger TIMER1 TRGO event select for routin
 518:../Firmware/GD32VW55x_standard_peripheral/Source/gd32vw55x_adc.c ****       \arg        ADC_EXTTRIG_ROUTINE_T2_CH0 : external trigger TIMER2 CH0 event select for routine
 519:../Firmware/GD32VW55x_standard_peripheral/Source/gd32vw55x_adc.c ****       \arg        ADC_EXTTRIG_ROUTINE_T2_TRGO : external trigger TIMER2 TRGO event select for routi
 520:../Firmware/GD32VW55x_standard_peripheral/Source/gd32vw55x_adc.c ****       \arg        ADC_EXTTRIG_ROUTINE_EXTI_11: external trigger extiline 11 select for routine chan
 521:../Firmware/GD32VW55x_standard_peripheral/Source/gd32vw55x_adc.c ****                 for inserted channel:
 522:../Firmware/GD32VW55x_standard_peripheral/Source/gd32vw55x_adc.c ****                 only one parameter can be selected which is shown as below:
 523:../Firmware/GD32VW55x_standard_peripheral/Source/gd32vw55x_adc.c ****       \arg        ADC_EXTTRIG_INSERTED_T0_CH3: TIMER0 CH3 event select for inserted channel
 524:../Firmware/GD32VW55x_standard_peripheral/Source/gd32vw55x_adc.c ****       \arg        ADC_EXTTRIG_INSERTED_T0_TRGO: TIMER0 TRGO event event select for inserted channel
 525:../Firmware/GD32VW55x_standard_peripheral/Source/gd32vw55x_adc.c ****       \arg        ADC_EXTTRIG_INSERTED_T1_CH0: TIMER1 CH0 event select for inserted channel
 526:../Firmware/GD32VW55x_standard_peripheral/Source/gd32vw55x_adc.c ****       \arg        ADC_EXTTRIG_INSERTED_T1_TRGO: TIMER1 TRGO event event select for inserted channel
 527:../Firmware/GD32VW55x_standard_peripheral/Source/gd32vw55x_adc.c ****       \arg        ADC_EXTTRIG_INSERTED_T2_CH1: TIMER2 CH1 event select for inserted channel
 528:../Firmware/GD32VW55x_standard_peripheral/Source/gd32vw55x_adc.c ****       \arg        ADC_EXTTRIG_INSERTED_T2_CH3: TIMER2 CH3 event select for inserted channel
 529:../Firmware/GD32VW55x_standard_peripheral/Source/gd32vw55x_adc.c ****       \arg        ADC_EXTTRIG_INSERTED_EXTI_15: external interrupt line 15 event select for inserte
 530:../Firmware/GD32VW55x_standard_peripheral/Source/gd32vw55x_adc.c ****     \param[out] none
 531:../Firmware/GD32VW55x_standard_peripheral/Source/gd32vw55x_adc.c ****     \retval     none
 532:../Firmware/GD32VW55x_standard_peripheral/Source/gd32vw55x_adc.c **** */
 533:../Firmware/GD32VW55x_standard_peripheral/Source/gd32vw55x_adc.c **** void adc_external_trigger_source_config(uint8_t channel_group, uint32_t external_trigger_source)
 534:../Firmware/GD32VW55x_standard_peripheral/Source/gd32vw55x_adc.c **** {
 1316              		.loc 1 534 1
 1317              		.cfi_startproc
 1318 0000 0111     		addi	sp,sp,-32
 1319              		.cfi_def_cfa_offset 32
 1320 0002 22CE     		sw	s0,28(sp)
 1321              		.cfi_offset 8, -4
 1322 0004 0010     		addi	s0,sp,32
 1323              		.cfi_def_cfa 8, 0
 1324 0006 AA87     		mv	a5,a0
 1325 0008 2324B4FE 		sw	a1,-24(s0)
 1326 000c A307F4FE 		sb	a5,-17(s0)
 535:../Firmware/GD32VW55x_standard_peripheral/Source/gd32vw55x_adc.c ****     switch(channel_group){
 1327              		.loc 1 535 5
 1328 0010 8347F4FE 		lbu	a5,-17(s0)
 1329 0014 0547     		li	a4,1
 1330 0016 6386E700 		beq	a5,a4,.L61
 1331 001a 0947     		li	a4,2
 1332 001c 638BE702 		beq	a5,a4,.L62
 536:../Firmware/GD32VW55x_standard_peripheral/Source/gd32vw55x_adc.c ****     case ADC_ROUTINE_CHANNEL:
 537:../Firmware/GD32VW55x_standard_peripheral/Source/gd32vw55x_adc.c ****         /* configure ADC routine group external trigger source */
 538:../Firmware/GD32VW55x_standard_peripheral/Source/gd32vw55x_adc.c ****         ADC_CTL1 &= ~((uint32_t)ADC_CTL1_ETSRC);
 539:../Firmware/GD32VW55x_standard_peripheral/Source/gd32vw55x_adc.c ****         ADC_CTL1 |= (uint32_t)external_trigger_source;
 540:../Firmware/GD32VW55x_standard_peripheral/Source/gd32vw55x_adc.c ****         break;
 541:../Firmware/GD32VW55x_standard_peripheral/Source/gd32vw55x_adc.c ****     case ADC_INSERTED_CHANNEL:
 542:../Firmware/GD32VW55x_standard_peripheral/Source/gd32vw55x_adc.c ****         /* configure ADC inserted group external trigger source */
 543:../Firmware/GD32VW55x_standard_peripheral/Source/gd32vw55x_adc.c ****         ADC_CTL1 &= ~((uint32_t)ADC_CTL1_ETSIC);
 544:../Firmware/GD32VW55x_standard_peripheral/Source/gd32vw55x_adc.c ****         ADC_CTL1 |= (uint32_t)external_trigger_source;
 545:../Firmware/GD32VW55x_standard_peripheral/Source/gd32vw55x_adc.c ****         break;
 546:../Firmware/GD32VW55x_standard_peripheral/Source/gd32vw55x_adc.c ****     default:
 547:../Firmware/GD32VW55x_standard_peripheral/Source/gd32vw55x_adc.c ****         break;
 1333              		.loc 1 547 9
 1334 0020 8DA0     		j	.L64
 1335              	.L61:
 538:../Firmware/GD32VW55x_standard_peripheral/Source/gd32vw55x_adc.c ****         ADC_CTL1 |= (uint32_t)external_trigger_source;
 1336              		.loc 1 538 18
 1337 0022 B7270140 		li	a5,1073815552
 1338 0026 A107     		addi	a5,a5,8
 1339 0028 9443     		lw	a3,0(a5)
 1340 002a B7270140 		li	a5,1073815552
 1341 002e A107     		addi	a5,a5,8
 1342 0030 370700F1 		li	a4,-251658240
 1343 0034 7D17     		addi	a4,a4,-1
 1344 0036 758F     		and	a4,a3,a4
 1345 0038 98C3     		sw	a4,0(a5)
 539:../Firmware/GD32VW55x_standard_peripheral/Source/gd32vw55x_adc.c ****         break;
 1346              		.loc 1 539 18
 1347 003a B7270140 		li	a5,1073815552
 1348 003e A107     		addi	a5,a5,8
 1349 0040 9443     		lw	a3,0(a5)
 1350 0042 B7270140 		li	a5,1073815552
 1351 0046 A107     		addi	a5,a5,8
 1352 0048 032784FE 		lw	a4,-24(s0)
 1353 004c 558F     		or	a4,a3,a4
 1354 004e 98C3     		sw	a4,0(a5)
 540:../Firmware/GD32VW55x_standard_peripheral/Source/gd32vw55x_adc.c ****     case ADC_INSERTED_CHANNEL:
 1355              		.loc 1 540 9
 1356 0050 0DA8     		j	.L64
 1357              	.L62:
 543:../Firmware/GD32VW55x_standard_peripheral/Source/gd32vw55x_adc.c ****         ADC_CTL1 |= (uint32_t)external_trigger_source;
 1358              		.loc 1 543 18
 1359 0052 B7270140 		li	a5,1073815552
 1360 0056 A107     		addi	a5,a5,8
 1361 0058 9443     		lw	a3,0(a5)
 1362 005a B7270140 		li	a5,1073815552
 1363 005e A107     		addi	a5,a5,8
 1364 0060 3707F1FF 		li	a4,-983040
 1365 0064 7D17     		addi	a4,a4,-1
 1366 0066 758F     		and	a4,a3,a4
 1367 0068 98C3     		sw	a4,0(a5)
 544:../Firmware/GD32VW55x_standard_peripheral/Source/gd32vw55x_adc.c ****         break;
 1368              		.loc 1 544 18
 1369 006a B7270140 		li	a5,1073815552
 1370 006e A107     		addi	a5,a5,8
 1371 0070 9443     		lw	a3,0(a5)
 1372 0072 B7270140 		li	a5,1073815552
 1373 0076 A107     		addi	a5,a5,8
 1374 0078 032784FE 		lw	a4,-24(s0)
 1375 007c 558F     		or	a4,a3,a4
 1376 007e 98C3     		sw	a4,0(a5)
 545:../Firmware/GD32VW55x_standard_peripheral/Source/gd32vw55x_adc.c ****     default:
 1377              		.loc 1 545 9
 1378 0080 0100     		nop
 1379              	.L64:
 548:../Firmware/GD32VW55x_standard_peripheral/Source/gd32vw55x_adc.c ****     }
 549:../Firmware/GD32VW55x_standard_peripheral/Source/gd32vw55x_adc.c **** }
 1380              		.loc 1 549 1
 1381 0082 0100     		nop
 1382 0084 7244     		lw	s0,28(sp)
 1383              		.cfi_restore 8
 1384              		.cfi_def_cfa 2, 32
 1385 0086 0561     		addi	sp,sp,32
 1386              		.cfi_def_cfa_offset 0
 1387 0088 8280     		jr	ra
 1388              		.cfi_endproc
 1389              	.LFE365:
 1391              		.section	.text.adc_software_trigger_enable,"ax",@progbits
 1392              		.align	1
 1393              		.globl	adc_software_trigger_enable
 1395              	adc_software_trigger_enable:
 1396              	.LFB366:
 550:../Firmware/GD32VW55x_standard_peripheral/Source/gd32vw55x_adc.c **** 
 551:../Firmware/GD32VW55x_standard_peripheral/Source/gd32vw55x_adc.c **** /*!
 552:../Firmware/GD32VW55x_standard_peripheral/Source/gd32vw55x_adc.c ****     \brief      enable ADC software trigger
 553:../Firmware/GD32VW55x_standard_peripheral/Source/gd32vw55x_adc.c ****     \param[in]  channel_group: select the channel group
 554:../Firmware/GD32VW55x_standard_peripheral/Source/gd32vw55x_adc.c ****                 only one parameter can be selected which is shown as below:
 555:../Firmware/GD32VW55x_standard_peripheral/Source/gd32vw55x_adc.c ****       \arg        ADC_ROUTINE_CHANNEL: routine channel group
 556:../Firmware/GD32VW55x_standard_peripheral/Source/gd32vw55x_adc.c ****       \arg        ADC_INSERTED_CHANNEL: inserted channel group
 557:../Firmware/GD32VW55x_standard_peripheral/Source/gd32vw55x_adc.c ****     \param[out] none
 558:../Firmware/GD32VW55x_standard_peripheral/Source/gd32vw55x_adc.c ****     \retval     none
 559:../Firmware/GD32VW55x_standard_peripheral/Source/gd32vw55x_adc.c **** */
 560:../Firmware/GD32VW55x_standard_peripheral/Source/gd32vw55x_adc.c **** void adc_software_trigger_enable(uint8_t channel_group)
 561:../Firmware/GD32VW55x_standard_peripheral/Source/gd32vw55x_adc.c **** {
 1397              		.loc 1 561 1
 1398              		.cfi_startproc
 1399 0000 0111     		addi	sp,sp,-32
 1400              		.cfi_def_cfa_offset 32
 1401 0002 22CE     		sw	s0,28(sp)
 1402              		.cfi_offset 8, -4
 1403 0004 0010     		addi	s0,sp,32
 1404              		.cfi_def_cfa 8, 0
 1405 0006 AA87     		mv	a5,a0
 1406 0008 A307F4FE 		sb	a5,-17(s0)
 562:../Firmware/GD32VW55x_standard_peripheral/Source/gd32vw55x_adc.c ****     /* enable routine group channel software trigger */
 563:../Firmware/GD32VW55x_standard_peripheral/Source/gd32vw55x_adc.c ****     if(RESET != (channel_group & ADC_ROUTINE_CHANNEL)){
 1407              		.loc 1 563 32
 1408 000c 8347F4FE 		lbu	a5,-17(s0)
 1409 0010 858B     		andi	a5,a5,1
 1410              		.loc 1 563 7
 1411 0012 81CF     		beq	a5,zero,.L66
 564:../Firmware/GD32VW55x_standard_peripheral/Source/gd32vw55x_adc.c ****         ADC_CTL1 |= (uint32_t)ADC_CTL1_SWRCST;
 1412              		.loc 1 564 18
 1413 0014 B7270140 		li	a5,1073815552
 1414 0018 A107     		addi	a5,a5,8
 1415 001a 9443     		lw	a3,0(a5)
 1416 001c B7270140 		li	a5,1073815552
 1417 0020 A107     		addi	a5,a5,8
 1418 0022 37070040 		li	a4,1073741824
 1419 0026 558F     		or	a4,a3,a4
 1420 0028 98C3     		sw	a4,0(a5)
 1421              	.L66:
 565:../Firmware/GD32VW55x_standard_peripheral/Source/gd32vw55x_adc.c ****     }
 566:../Firmware/GD32VW55x_standard_peripheral/Source/gd32vw55x_adc.c ****     /* enable inserted channel group software trigger */
 567:../Firmware/GD32VW55x_standard_peripheral/Source/gd32vw55x_adc.c ****     if(RESET != (channel_group & ADC_INSERTED_CHANNEL)){
 1422              		.loc 1 567 32
 1423 002a 8347F4FE 		lbu	a5,-17(s0)
 1424 002e 898B     		andi	a5,a5,2
 1425              		.loc 1 567 7
 1426 0030 81CF     		beq	a5,zero,.L68
 568:../Firmware/GD32VW55x_standard_peripheral/Source/gd32vw55x_adc.c ****         ADC_CTL1 |= (uint32_t)ADC_CTL1_SWICST;
 1427              		.loc 1 568 18
 1428 0032 B7270140 		li	a5,1073815552
 1429 0036 A107     		addi	a5,a5,8
 1430 0038 9443     		lw	a3,0(a5)
 1431 003a B7270140 		li	a5,1073815552
 1432 003e A107     		addi	a5,a5,8
 1433 0040 37074000 		li	a4,4194304
 1434 0044 558F     		or	a4,a3,a4
 1435 0046 98C3     		sw	a4,0(a5)
 1436              	.L68:
 569:../Firmware/GD32VW55x_standard_peripheral/Source/gd32vw55x_adc.c ****     }
 570:../Firmware/GD32VW55x_standard_peripheral/Source/gd32vw55x_adc.c **** }
 1437              		.loc 1 570 1
 1438 0048 0100     		nop
 1439 004a 7244     		lw	s0,28(sp)
 1440              		.cfi_restore 8
 1441              		.cfi_def_cfa 2, 32
 1442 004c 0561     		addi	sp,sp,32
 1443              		.cfi_def_cfa_offset 0
 1444 004e 8280     		jr	ra
 1445              		.cfi_endproc
 1446              	.LFE366:
 1448              		.section	.text.adc_end_of_conversion_config,"ax",@progbits
 1449              		.align	1
 1450              		.globl	adc_end_of_conversion_config
 1452              	adc_end_of_conversion_config:
 1453              	.LFB367:
 571:../Firmware/GD32VW55x_standard_peripheral/Source/gd32vw55x_adc.c **** 
 572:../Firmware/GD32VW55x_standard_peripheral/Source/gd32vw55x_adc.c **** /*!
 573:../Firmware/GD32VW55x_standard_peripheral/Source/gd32vw55x_adc.c ****     \brief      configure end of conversion mode
 574:../Firmware/GD32VW55x_standard_peripheral/Source/gd32vw55x_adc.c ****     \param[in]  end_selection: end of conversion mode
 575:../Firmware/GD32VW55x_standard_peripheral/Source/gd32vw55x_adc.c ****                 only one parameter can be selected which is shown as below:
 576:../Firmware/GD32VW55x_standard_peripheral/Source/gd32vw55x_adc.c ****       \arg        ADC_EOC_SET_SEQUENCE: only at the end of a sequence of routine conversions, the E
 577:../Firmware/GD32VW55x_standard_peripheral/Source/gd32vw55x_adc.c ****       \arg        ADC_EOC_SET_CONVERSION: at the end of each routine conversion, the EOC bit is set
 578:../Firmware/GD32VW55x_standard_peripheral/Source/gd32vw55x_adc.c ****     \param[out] none
 579:../Firmware/GD32VW55x_standard_peripheral/Source/gd32vw55x_adc.c ****     \retval     none
 580:../Firmware/GD32VW55x_standard_peripheral/Source/gd32vw55x_adc.c **** */
 581:../Firmware/GD32VW55x_standard_peripheral/Source/gd32vw55x_adc.c **** void adc_end_of_conversion_config(uint8_t end_selection)
 582:../Firmware/GD32VW55x_standard_peripheral/Source/gd32vw55x_adc.c **** {
 1454              		.loc 1 582 1
 1455              		.cfi_startproc
 1456 0000 0111     		addi	sp,sp,-32
 1457              		.cfi_def_cfa_offset 32
 1458 0002 22CE     		sw	s0,28(sp)
 1459              		.cfi_offset 8, -4
 1460 0004 0010     		addi	s0,sp,32
 1461              		.cfi_def_cfa 8, 0
 1462 0006 AA87     		mv	a5,a0
 1463 0008 A307F4FE 		sb	a5,-17(s0)
 583:../Firmware/GD32VW55x_standard_peripheral/Source/gd32vw55x_adc.c ****     switch(end_selection){
 1464              		.loc 1 583 5
 1465 000c 8347F4FE 		lbu	a5,-17(s0)
 1466 0010 89C7     		beq	a5,zero,.L70
 1467 0012 0547     		li	a4,1
 1468 0014 638EE700 		beq	a5,a4,.L71
 584:../Firmware/GD32VW55x_standard_peripheral/Source/gd32vw55x_adc.c ****         case ADC_EOC_SET_SEQUENCE:
 585:../Firmware/GD32VW55x_standard_peripheral/Source/gd32vw55x_adc.c ****             /* only at the end of a sequence of routine conversions, the EOC bit is set */
 586:../Firmware/GD32VW55x_standard_peripheral/Source/gd32vw55x_adc.c ****             ADC_CTL1 &= ~((uint32_t)ADC_CTL1_EOCM);
 587:../Firmware/GD32VW55x_standard_peripheral/Source/gd32vw55x_adc.c ****             break;
 588:../Firmware/GD32VW55x_standard_peripheral/Source/gd32vw55x_adc.c ****         case ADC_EOC_SET_CONVERSION:
 589:../Firmware/GD32VW55x_standard_peripheral/Source/gd32vw55x_adc.c ****             /* at the end of each routine conversion, the EOC bit is set.Overflow is detected autom
 590:../Firmware/GD32VW55x_standard_peripheral/Source/gd32vw55x_adc.c ****             ADC_CTL1 |= (uint32_t)(ADC_CTL1_EOCM);
 591:../Firmware/GD32VW55x_standard_peripheral/Source/gd32vw55x_adc.c ****             break;
 592:../Firmware/GD32VW55x_standard_peripheral/Source/gd32vw55x_adc.c ****         default:
 593:../Firmware/GD32VW55x_standard_peripheral/Source/gd32vw55x_adc.c ****             break;
 1469              		.loc 1 593 13
 1470 0018 3DA0     		j	.L73
 1471              	.L70:
 586:../Firmware/GD32VW55x_standard_peripheral/Source/gd32vw55x_adc.c ****             break;
 1472              		.loc 1 586 22
 1473 001a B7270140 		li	a5,1073815552
 1474 001e A107     		addi	a5,a5,8
 1475 0020 9843     		lw	a4,0(a5)
 1476 0022 B7270140 		li	a5,1073815552
 1477 0026 A107     		addi	a5,a5,8
 1478 0028 1377F7BF 		andi	a4,a4,-1025
 1479 002c 98C3     		sw	a4,0(a5)
 587:../Firmware/GD32VW55x_standard_peripheral/Source/gd32vw55x_adc.c ****         case ADC_EOC_SET_CONVERSION:
 1480              		.loc 1 587 13
 1481 002e 21A8     		j	.L73
 1482              	.L71:
 590:../Firmware/GD32VW55x_standard_peripheral/Source/gd32vw55x_adc.c ****             break;
 1483              		.loc 1 590 22
 1484 0030 B7270140 		li	a5,1073815552
 1485 0034 A107     		addi	a5,a5,8
 1486 0036 9843     		lw	a4,0(a5)
 1487 0038 B7270140 		li	a5,1073815552
 1488 003c A107     		addi	a5,a5,8
 1489 003e 13670740 		ori	a4,a4,1024
 1490 0042 98C3     		sw	a4,0(a5)
 591:../Firmware/GD32VW55x_standard_peripheral/Source/gd32vw55x_adc.c ****         default:
 1491              		.loc 1 591 13
 1492 0044 0100     		nop
 1493              	.L73:
 594:../Firmware/GD32VW55x_standard_peripheral/Source/gd32vw55x_adc.c ****     }
 595:../Firmware/GD32VW55x_standard_peripheral/Source/gd32vw55x_adc.c **** }
 1494              		.loc 1 595 1
 1495 0046 0100     		nop
 1496 0048 7244     		lw	s0,28(sp)
 1497              		.cfi_restore 8
 1498              		.cfi_def_cfa 2, 32
 1499 004a 0561     		addi	sp,sp,32
 1500              		.cfi_def_cfa_offset 0
 1501 004c 8280     		jr	ra
 1502              		.cfi_endproc
 1503              	.LFE367:
 1505              		.section	.text.adc_resolution_config,"ax",@progbits
 1506              		.align	1
 1507              		.globl	adc_resolution_config
 1509              	adc_resolution_config:
 1510              	.LFB368:
 596:../Firmware/GD32VW55x_standard_peripheral/Source/gd32vw55x_adc.c **** 
 597:../Firmware/GD32VW55x_standard_peripheral/Source/gd32vw55x_adc.c **** /*!
 598:../Firmware/GD32VW55x_standard_peripheral/Source/gd32vw55x_adc.c ****     \brief      configure ADC resolution
 599:../Firmware/GD32VW55x_standard_peripheral/Source/gd32vw55x_adc.c ****     \param[in]  resolution: ADC resolution
 600:../Firmware/GD32VW55x_standard_peripheral/Source/gd32vw55x_adc.c ****                 only one parameter can be selected which is shown as below:
 601:../Firmware/GD32VW55x_standard_peripheral/Source/gd32vw55x_adc.c ****       \arg        ADC_RESOLUTION_12B: 12-bit ADC resolution
 602:../Firmware/GD32VW55x_standard_peripheral/Source/gd32vw55x_adc.c ****       \arg        ADC_RESOLUTION_10B: 10-bit ADC resolution
 603:../Firmware/GD32VW55x_standard_peripheral/Source/gd32vw55x_adc.c ****       \arg        ADC_RESOLUTION_8B: 8-bit ADC resolution
 604:../Firmware/GD32VW55x_standard_peripheral/Source/gd32vw55x_adc.c ****       \arg        ADC_RESOLUTION_6B: 6-bit ADC resolution
 605:../Firmware/GD32VW55x_standard_peripheral/Source/gd32vw55x_adc.c ****     \param[out] none
 606:../Firmware/GD32VW55x_standard_peripheral/Source/gd32vw55x_adc.c ****     \retval     none
 607:../Firmware/GD32VW55x_standard_peripheral/Source/gd32vw55x_adc.c **** */
 608:../Firmware/GD32VW55x_standard_peripheral/Source/gd32vw55x_adc.c **** void adc_resolution_config(uint32_t resolution)
 609:../Firmware/GD32VW55x_standard_peripheral/Source/gd32vw55x_adc.c **** {
 1511              		.loc 1 609 1
 1512              		.cfi_startproc
 1513 0000 0111     		addi	sp,sp,-32
 1514              		.cfi_def_cfa_offset 32
 1515 0002 22CE     		sw	s0,28(sp)
 1516              		.cfi_offset 8, -4
 1517 0004 0010     		addi	s0,sp,32
 1518              		.cfi_def_cfa 8, 0
 1519 0006 2326A4FE 		sw	a0,-20(s0)
 610:../Firmware/GD32VW55x_standard_peripheral/Source/gd32vw55x_adc.c ****     ADC_CTL0 &= ~((uint32_t)ADC_CTL0_DRES);
 1520              		.loc 1 610 14
 1521 000a B7270140 		li	a5,1073815552
 1522 000e 9107     		addi	a5,a5,4
 1523 0010 9443     		lw	a3,0(a5)
 1524 0012 B7270140 		li	a5,1073815552
 1525 0016 9107     		addi	a5,a5,4
 1526 0018 370700FD 		li	a4,-50331648
 1527 001c 7D17     		addi	a4,a4,-1
 1528 001e 758F     		and	a4,a3,a4
 1529 0020 98C3     		sw	a4,0(a5)
 611:../Firmware/GD32VW55x_standard_peripheral/Source/gd32vw55x_adc.c ****     ADC_CTL0 |= (uint32_t)resolution;
 1530              		.loc 1 611 14
 1531 0022 B7270140 		li	a5,1073815552
 1532 0026 9107     		addi	a5,a5,4
 1533 0028 9443     		lw	a3,0(a5)
 1534 002a B7270140 		li	a5,1073815552
 1535 002e 9107     		addi	a5,a5,4
 1536 0030 0327C4FE 		lw	a4,-20(s0)
 1537 0034 558F     		or	a4,a3,a4
 1538 0036 98C3     		sw	a4,0(a5)
 612:../Firmware/GD32VW55x_standard_peripheral/Source/gd32vw55x_adc.c **** }
 1539              		.loc 1 612 1
 1540 0038 0100     		nop
 1541 003a 7244     		lw	s0,28(sp)
 1542              		.cfi_restore 8
 1543              		.cfi_def_cfa 2, 32
 1544 003c 0561     		addi	sp,sp,32
 1545              		.cfi_def_cfa_offset 0
 1546 003e 8280     		jr	ra
 1547              		.cfi_endproc
 1548              	.LFE368:
 1550              		.section	.text.adc_routine_data_read,"ax",@progbits
 1551              		.align	1
 1552              		.globl	adc_routine_data_read
 1554              	adc_routine_data_read:
 1555              	.LFB369:
 613:../Firmware/GD32VW55x_standard_peripheral/Source/gd32vw55x_adc.c **** 
 614:../Firmware/GD32VW55x_standard_peripheral/Source/gd32vw55x_adc.c **** /*!
 615:../Firmware/GD32VW55x_standard_peripheral/Source/gd32vw55x_adc.c ****     \brief      read ADC routine group data register
 616:../Firmware/GD32VW55x_standard_peripheral/Source/gd32vw55x_adc.c ****     \param[in]  none
 617:../Firmware/GD32VW55x_standard_peripheral/Source/gd32vw55x_adc.c ****     \param[out] none
 618:../Firmware/GD32VW55x_standard_peripheral/Source/gd32vw55x_adc.c ****     \retval     the conversion value: 0~0xFFFF
 619:../Firmware/GD32VW55x_standard_peripheral/Source/gd32vw55x_adc.c **** */
 620:../Firmware/GD32VW55x_standard_peripheral/Source/gd32vw55x_adc.c **** uint16_t adc_routine_data_read(void)
 621:../Firmware/GD32VW55x_standard_peripheral/Source/gd32vw55x_adc.c **** {
 1556              		.loc 1 621 1
 1557              		.cfi_startproc
 1558 0000 4111     		addi	sp,sp,-16
 1559              		.cfi_def_cfa_offset 16
 1560 0002 22C6     		sw	s0,12(sp)
 1561              		.cfi_offset 8, -4
 1562 0004 0008     		addi	s0,sp,16
 1563              		.cfi_def_cfa 8, 0
 622:../Firmware/GD32VW55x_standard_peripheral/Source/gd32vw55x_adc.c ****     return ((uint16_t)(ADC_RDATA));
 1564              		.loc 1 622 24
 1565 0006 B7270140 		li	a5,1073815552
 1566 000a 9387C704 		addi	a5,a5,76
 1567 000e 9C43     		lw	a5,0(a5)
 1568              		.loc 1 622 13
 1569 0010 C207     		slli	a5,a5,16
 1570 0012 C183     		srli	a5,a5,16
 623:../Firmware/GD32VW55x_standard_peripheral/Source/gd32vw55x_adc.c **** }
 1571              		.loc 1 623 1
 1572 0014 3E85     		mv	a0,a5
 1573 0016 3244     		lw	s0,12(sp)
 1574              		.cfi_restore 8
 1575              		.cfi_def_cfa 2, 16
 1576 0018 4101     		addi	sp,sp,16
 1577              		.cfi_def_cfa_offset 0
 1578 001a 8280     		jr	ra
 1579              		.cfi_endproc
 1580              	.LFE369:
 1582              		.section	.text.adc_inserted_data_read,"ax",@progbits
 1583              		.align	1
 1584              		.globl	adc_inserted_data_read
 1586              	adc_inserted_data_read:
 1587              	.LFB370:
 624:../Firmware/GD32VW55x_standard_peripheral/Source/gd32vw55x_adc.c **** 
 625:../Firmware/GD32VW55x_standard_peripheral/Source/gd32vw55x_adc.c **** /*!
 626:../Firmware/GD32VW55x_standard_peripheral/Source/gd32vw55x_adc.c ****     \brief      read ADC inserted group data register
 627:../Firmware/GD32VW55x_standard_peripheral/Source/gd32vw55x_adc.c ****     \param[in]  inserted_channel : inserted channel select
 628:../Firmware/GD32VW55x_standard_peripheral/Source/gd32vw55x_adc.c ****                 only one parameter can be selected which is shown as below:
 629:../Firmware/GD32VW55x_standard_peripheral/Source/gd32vw55x_adc.c ****       \arg        ADC_INSERTED_CHANNEL_0: inserted channel0
 630:../Firmware/GD32VW55x_standard_peripheral/Source/gd32vw55x_adc.c ****       \arg        ADC_INSERTED_CHANNEL_1: inserted channel1
 631:../Firmware/GD32VW55x_standard_peripheral/Source/gd32vw55x_adc.c ****       \arg        ADC_INSERTED_CHANNEL_2: inserted channel2
 632:../Firmware/GD32VW55x_standard_peripheral/Source/gd32vw55x_adc.c ****       \arg        ADC_INSERTED_CHANNEL_3: inserted channel3
 633:../Firmware/GD32VW55x_standard_peripheral/Source/gd32vw55x_adc.c ****     \param[out] none
 634:../Firmware/GD32VW55x_standard_peripheral/Source/gd32vw55x_adc.c ****     \retval     the conversion value: 0~0xFFFF
 635:../Firmware/GD32VW55x_standard_peripheral/Source/gd32vw55x_adc.c **** */
 636:../Firmware/GD32VW55x_standard_peripheral/Source/gd32vw55x_adc.c **** uint16_t adc_inserted_data_read(uint8_t inserted_channel)
 637:../Firmware/GD32VW55x_standard_peripheral/Source/gd32vw55x_adc.c **** {
 1588              		.loc 1 637 1
 1589              		.cfi_startproc
 1590 0000 7971     		addi	sp,sp,-48
 1591              		.cfi_def_cfa_offset 48
 1592 0002 22D6     		sw	s0,44(sp)
 1593              		.cfi_offset 8, -4
 1594 0004 0018     		addi	s0,sp,48
 1595              		.cfi_def_cfa 8, 0
 1596 0006 AA87     		mv	a5,a0
 1597 0008 A30FF4FC 		sb	a5,-33(s0)
 638:../Firmware/GD32VW55x_standard_peripheral/Source/gd32vw55x_adc.c ****     uint32_t idata;
 639:../Firmware/GD32VW55x_standard_peripheral/Source/gd32vw55x_adc.c ****     /* read the data of the selected channel */
 640:../Firmware/GD32VW55x_standard_peripheral/Source/gd32vw55x_adc.c ****     switch(inserted_channel){
 1598              		.loc 1 640 5
 1599 000c 8347F4FD 		lbu	a5,-33(s0)
 1600 0010 0D47     		li	a4,3
 1601 0012 6388E704 		beq	a5,a4,.L78
 1602 0016 0D47     		li	a4,3
 1603 0018 634DF704 		bgt	a5,a4,.L79
 1604 001c 0947     		li	a4,2
 1605 001e 638AE702 		beq	a5,a4,.L80
 1606 0022 0947     		li	a4,2
 1607 0024 6347F704 		bgt	a5,a4,.L79
 1608 0028 89C7     		beq	a5,zero,.L81
 1609 002a 0547     		li	a4,1
 1610 002c 638BE700 		beq	a5,a4,.L82
 1611 0030 89A0     		j	.L79
 1612              	.L81:
 641:../Firmware/GD32VW55x_standard_peripheral/Source/gd32vw55x_adc.c ****     case ADC_INSERTED_CHANNEL_0:
 642:../Firmware/GD32VW55x_standard_peripheral/Source/gd32vw55x_adc.c ****         /* read the data of channel 0 */
 643:../Firmware/GD32VW55x_standard_peripheral/Source/gd32vw55x_adc.c ****         idata = ADC_IDATA0;
 1613              		.loc 1 643 17
 1614 0032 B7270140 		li	a5,1073815552
 1615 0036 9387C703 		addi	a5,a5,60
 1616              		.loc 1 643 15
 1617 003a 9C43     		lw	a5,0(a5)
 1618 003c 2326F4FE 		sw	a5,-20(s0)
 644:../Firmware/GD32VW55x_standard_peripheral/Source/gd32vw55x_adc.c ****         break;
 1619              		.loc 1 644 9
 1620 0040 25A8     		j	.L83
 1621              	.L82:
 645:../Firmware/GD32VW55x_standard_peripheral/Source/gd32vw55x_adc.c ****     case ADC_INSERTED_CHANNEL_1:
 646:../Firmware/GD32VW55x_standard_peripheral/Source/gd32vw55x_adc.c ****         /* read the data of channel 1 */
 647:../Firmware/GD32VW55x_standard_peripheral/Source/gd32vw55x_adc.c ****         idata = ADC_IDATA1;
 1622              		.loc 1 647 17
 1623 0042 B7270140 		li	a5,1073815552
 1624 0046 93870704 		addi	a5,a5,64
 1625              		.loc 1 647 15
 1626 004a 9C43     		lw	a5,0(a5)
 1627 004c 2326F4FE 		sw	a5,-20(s0)
 648:../Firmware/GD32VW55x_standard_peripheral/Source/gd32vw55x_adc.c ****         break;
 1628              		.loc 1 648 9
 1629 0050 25A0     		j	.L83
 1630              	.L80:
 649:../Firmware/GD32VW55x_standard_peripheral/Source/gd32vw55x_adc.c ****     case ADC_INSERTED_CHANNEL_2:
 650:../Firmware/GD32VW55x_standard_peripheral/Source/gd32vw55x_adc.c ****         /* read the data of channel 2 */
 651:../Firmware/GD32VW55x_standard_peripheral/Source/gd32vw55x_adc.c ****         idata = ADC_IDATA2;
 1631              		.loc 1 651 17
 1632 0052 B7270140 		li	a5,1073815552
 1633 0056 93874704 		addi	a5,a5,68
 1634              		.loc 1 651 15
 1635 005a 9C43     		lw	a5,0(a5)
 1636 005c 2326F4FE 		sw	a5,-20(s0)
 652:../Firmware/GD32VW55x_standard_peripheral/Source/gd32vw55x_adc.c ****         break;
 1637              		.loc 1 652 9
 1638 0060 21A8     		j	.L83
 1639              	.L78:
 653:../Firmware/GD32VW55x_standard_peripheral/Source/gd32vw55x_adc.c ****     case ADC_INSERTED_CHANNEL_3:
 654:../Firmware/GD32VW55x_standard_peripheral/Source/gd32vw55x_adc.c ****         /* read the data of channel 3 */
 655:../Firmware/GD32VW55x_standard_peripheral/Source/gd32vw55x_adc.c ****         idata = ADC_IDATA3;
 1640              		.loc 1 655 17
 1641 0062 B7270140 		li	a5,1073815552
 1642 0066 93878704 		addi	a5,a5,72
 1643              		.loc 1 655 15
 1644 006a 9C43     		lw	a5,0(a5)
 1645 006c 2326F4FE 		sw	a5,-20(s0)
 656:../Firmware/GD32VW55x_standard_peripheral/Source/gd32vw55x_adc.c ****         break;
 1646              		.loc 1 656 9
 1647 0070 21A0     		j	.L83
 1648              	.L79:
 657:../Firmware/GD32VW55x_standard_peripheral/Source/gd32vw55x_adc.c ****     default:
 658:../Firmware/GD32VW55x_standard_peripheral/Source/gd32vw55x_adc.c ****         idata = 0U;
 1649              		.loc 1 658 15
 1650 0072 232604FE 		sw	zero,-20(s0)
 659:../Firmware/GD32VW55x_standard_peripheral/Source/gd32vw55x_adc.c ****         break;
 1651              		.loc 1 659 9
 1652 0076 0100     		nop
 1653              	.L83:
 660:../Firmware/GD32VW55x_standard_peripheral/Source/gd32vw55x_adc.c ****     }
 661:../Firmware/GD32VW55x_standard_peripheral/Source/gd32vw55x_adc.c ****     return (uint16_t)idata;
 1654              		.loc 1 661 12
 1655 0078 8327C4FE 		lw	a5,-20(s0)
 1656 007c C207     		slli	a5,a5,16
 1657 007e C183     		srli	a5,a5,16
 662:../Firmware/GD32VW55x_standard_peripheral/Source/gd32vw55x_adc.c **** }
 1658              		.loc 1 662 1
 1659 0080 3E85     		mv	a0,a5
 1660 0082 3254     		lw	s0,44(sp)
 1661              		.cfi_restore 8
 1662              		.cfi_def_cfa 2, 48
 1663 0084 4561     		addi	sp,sp,48
 1664              		.cfi_def_cfa_offset 0
 1665 0086 8280     		jr	ra
 1666              		.cfi_endproc
 1667              	.LFE370:
 1669              		.section	.text.adc_watchdog_single_channel_enable,"ax",@progbits
 1670              		.align	1
 1671              		.globl	adc_watchdog_single_channel_enable
 1673              	adc_watchdog_single_channel_enable:
 1674              	.LFB371:
 663:../Firmware/GD32VW55x_standard_peripheral/Source/gd32vw55x_adc.c **** 
 664:../Firmware/GD32VW55x_standard_peripheral/Source/gd32vw55x_adc.c **** /*!
 665:../Firmware/GD32VW55x_standard_peripheral/Source/gd32vw55x_adc.c ****     \brief      enable ADC analog watchdog single channel
 666:../Firmware/GD32VW55x_standard_peripheral/Source/gd32vw55x_adc.c ****     \param[in]  channel: the selected ADC channel
 667:../Firmware/GD32VW55x_standard_peripheral/Source/gd32vw55x_adc.c ****                 only one parameter can be selected which is shown as below:
 668:../Firmware/GD32VW55x_standard_peripheral/Source/gd32vw55x_adc.c ****       \arg        ADC_CHANNEL_x: ADC Channelx(x=0..10)
 669:../Firmware/GD32VW55x_standard_peripheral/Source/gd32vw55x_adc.c ****     \param[out] none
 670:../Firmware/GD32VW55x_standard_peripheral/Source/gd32vw55x_adc.c ****     \retval     none
 671:../Firmware/GD32VW55x_standard_peripheral/Source/gd32vw55x_adc.c **** */
 672:../Firmware/GD32VW55x_standard_peripheral/Source/gd32vw55x_adc.c **** void adc_watchdog_single_channel_enable(uint8_t channel)
 673:../Firmware/GD32VW55x_standard_peripheral/Source/gd32vw55x_adc.c **** {
 1675              		.loc 1 673 1
 1676              		.cfi_startproc
 1677 0000 0111     		addi	sp,sp,-32
 1678              		.cfi_def_cfa_offset 32
 1679 0002 22CE     		sw	s0,28(sp)
 1680              		.cfi_offset 8, -4
 1681 0004 0010     		addi	s0,sp,32
 1682              		.cfi_def_cfa 8, 0
 1683 0006 AA87     		mv	a5,a0
 1684 0008 A307F4FE 		sb	a5,-17(s0)
 674:../Firmware/GD32VW55x_standard_peripheral/Source/gd32vw55x_adc.c ****     ADC_CTL0 &= (uint32_t)~(ADC_CTL0_RWDEN | ADC_CTL0_IWDEN | ADC_CTL0_WDSC | ADC_CTL0_WDCHSEL);
 1685              		.loc 1 674 14
 1686 000c B7270140 		li	a5,1073815552
 1687 0010 9107     		addi	a5,a5,4
 1688 0012 9443     		lw	a3,0(a5)
 1689 0014 B7270140 		li	a5,1073815552
 1690 0018 9107     		addi	a5,a5,4
 1691 001a 370740FF 		li	a4,-12582912
 1692 001e 130707DE 		addi	a4,a4,-544
 1693 0022 758F     		and	a4,a3,a4
 1694 0024 98C3     		sw	a4,0(a5)
 675:../Firmware/GD32VW55x_standard_peripheral/Source/gd32vw55x_adc.c **** 
 676:../Firmware/GD32VW55x_standard_peripheral/Source/gd32vw55x_adc.c ****     ADC_CTL0 |= (uint32_t)channel;
 1695              		.loc 1 676 14
 1696 0026 B7270140 		li	a5,1073815552
 1697 002a 9107     		addi	a5,a5,4
 1698 002c 9443     		lw	a3,0(a5)
 1699              		.loc 1 676 17
 1700 002e 0347F4FE 		lbu	a4,-17(s0)
 1701              		.loc 1 676 14
 1702 0032 B7270140 		li	a5,1073815552
 1703 0036 9107     		addi	a5,a5,4
 1704 0038 558F     		or	a4,a3,a4
 1705 003a 98C3     		sw	a4,0(a5)
 677:../Firmware/GD32VW55x_standard_peripheral/Source/gd32vw55x_adc.c ****     ADC_CTL0 |= (uint32_t)(ADC_CTL0_RWDEN | ADC_CTL0_IWDEN | ADC_CTL0_WDSC);
 1706              		.loc 1 677 14
 1707 003c B7270140 		li	a5,1073815552
 1708 0040 9107     		addi	a5,a5,4
 1709 0042 9443     		lw	a3,0(a5)
 1710 0044 B7270140 		li	a5,1073815552
 1711 0048 9107     		addi	a5,a5,4
 1712 004a 3707C000 		li	a4,12582912
 1713 004e 13070720 		addi	a4,a4,512
 1714 0052 558F     		or	a4,a3,a4
 1715 0054 98C3     		sw	a4,0(a5)
 678:../Firmware/GD32VW55x_standard_peripheral/Source/gd32vw55x_adc.c **** }
 1716              		.loc 1 678 1
 1717 0056 0100     		nop
 1718 0058 7244     		lw	s0,28(sp)
 1719              		.cfi_restore 8
 1720              		.cfi_def_cfa 2, 32
 1721 005a 0561     		addi	sp,sp,32
 1722              		.cfi_def_cfa_offset 0
 1723 005c 8280     		jr	ra
 1724              		.cfi_endproc
 1725              	.LFE371:
 1727              		.section	.text.adc_watchdog_group_channel_enable,"ax",@progbits
 1728              		.align	1
 1729              		.globl	adc_watchdog_group_channel_enable
 1731              	adc_watchdog_group_channel_enable:
 1732              	.LFB372:
 679:../Firmware/GD32VW55x_standard_peripheral/Source/gd32vw55x_adc.c **** 
 680:../Firmware/GD32VW55x_standard_peripheral/Source/gd32vw55x_adc.c **** /*!
 681:../Firmware/GD32VW55x_standard_peripheral/Source/gd32vw55x_adc.c ****     \brief      configure ADC analog watchdog group channel
 682:../Firmware/GD32VW55x_standard_peripheral/Source/gd32vw55x_adc.c ****     \param[in]  channel_group: the channel group use analog watchdog
 683:../Firmware/GD32VW55x_standard_peripheral/Source/gd32vw55x_adc.c ****                 only one parameter can be selected which is shown as below:
 684:../Firmware/GD32VW55x_standard_peripheral/Source/gd32vw55x_adc.c ****       \arg        ADC_ROUTINE_CHANNEL: routine channel group
 685:../Firmware/GD32VW55x_standard_peripheral/Source/gd32vw55x_adc.c ****       \arg        ADC_INSERTED_CHANNEL: inserted channel group
 686:../Firmware/GD32VW55x_standard_peripheral/Source/gd32vw55x_adc.c ****       \arg        ADC_ROUTINE_INSERTED_CHANNEL: both routine and inserted group
 687:../Firmware/GD32VW55x_standard_peripheral/Source/gd32vw55x_adc.c ****     \param[out] none
 688:../Firmware/GD32VW55x_standard_peripheral/Source/gd32vw55x_adc.c ****     \retval     none
 689:../Firmware/GD32VW55x_standard_peripheral/Source/gd32vw55x_adc.c **** */
 690:../Firmware/GD32VW55x_standard_peripheral/Source/gd32vw55x_adc.c **** void adc_watchdog_group_channel_enable(uint8_t channel_group)
 691:../Firmware/GD32VW55x_standard_peripheral/Source/gd32vw55x_adc.c **** {
 1733              		.loc 1 691 1
 1734              		.cfi_startproc
 1735 0000 0111     		addi	sp,sp,-32
 1736              		.cfi_def_cfa_offset 32
 1737 0002 22CE     		sw	s0,28(sp)
 1738              		.cfi_offset 8, -4
 1739 0004 0010     		addi	s0,sp,32
 1740              		.cfi_def_cfa 8, 0
 1741 0006 AA87     		mv	a5,a0
 1742 0008 A307F4FE 		sb	a5,-17(s0)
 692:../Firmware/GD32VW55x_standard_peripheral/Source/gd32vw55x_adc.c ****     ADC_CTL0 &= ~((uint32_t)(ADC_CTL0_RWDEN | ADC_CTL0_IWDEN | ADC_CTL0_WDSC));
 1743              		.loc 1 692 14
 1744 000c B7270140 		li	a5,1073815552
 1745 0010 9107     		addi	a5,a5,4
 1746 0012 9443     		lw	a3,0(a5)
 1747 0014 B7270140 		li	a5,1073815552
 1748 0018 9107     		addi	a5,a5,4
 1749 001a 370740FF 		li	a4,-12582912
 1750 001e 1307F7DF 		addi	a4,a4,-513
 1751 0022 758F     		and	a4,a3,a4
 1752 0024 98C3     		sw	a4,0(a5)
 693:../Firmware/GD32VW55x_standard_peripheral/Source/gd32vw55x_adc.c ****     /* select the group */
 694:../Firmware/GD32VW55x_standard_peripheral/Source/gd32vw55x_adc.c ****     switch(channel_group){
 1753              		.loc 1 694 5
 1754 0026 8347F4FE 		lbu	a5,-17(s0)
 1755 002a 0D47     		li	a4,3
 1756 002c 6384E704 		beq	a5,a4,.L87
 1757 0030 0D47     		li	a4,3
 1758 0032 634DF704 		bgt	a5,a4,.L92
 1759 0036 0547     		li	a4,1
 1760 0038 6386E700 		beq	a5,a4,.L89
 1761 003c 0947     		li	a4,2
 1762 003e 638FE700 		beq	a5,a4,.L90
 695:../Firmware/GD32VW55x_standard_peripheral/Source/gd32vw55x_adc.c ****     case ADC_ROUTINE_CHANNEL:
 696:../Firmware/GD32VW55x_standard_peripheral/Source/gd32vw55x_adc.c ****         /* routine channel analog watchdog enable */
 697:../Firmware/GD32VW55x_standard_peripheral/Source/gd32vw55x_adc.c ****         ADC_CTL0 |= (uint32_t) ADC_CTL0_RWDEN;
 698:../Firmware/GD32VW55x_standard_peripheral/Source/gd32vw55x_adc.c ****         break;
 699:../Firmware/GD32VW55x_standard_peripheral/Source/gd32vw55x_adc.c ****     case ADC_INSERTED_CHANNEL:
 700:../Firmware/GD32VW55x_standard_peripheral/Source/gd32vw55x_adc.c ****         /* inserted channel analog watchdog enable */
 701:../Firmware/GD32VW55x_standard_peripheral/Source/gd32vw55x_adc.c ****         ADC_CTL0 |= (uint32_t) ADC_CTL0_IWDEN;
 702:../Firmware/GD32VW55x_standard_peripheral/Source/gd32vw55x_adc.c ****         break;
 703:../Firmware/GD32VW55x_standard_peripheral/Source/gd32vw55x_adc.c ****     case ADC_ROUTINE_INSERTED_CHANNEL:
 704:../Firmware/GD32VW55x_standard_peripheral/Source/gd32vw55x_adc.c ****         /* routine and inserted channel analog watchdog enable */
 705:../Firmware/GD32VW55x_standard_peripheral/Source/gd32vw55x_adc.c ****         ADC_CTL0 |= (uint32_t)(ADC_CTL0_RWDEN | ADC_CTL0_IWDEN);
 706:../Firmware/GD32VW55x_standard_peripheral/Source/gd32vw55x_adc.c ****         break;
 707:../Firmware/GD32VW55x_standard_peripheral/Source/gd32vw55x_adc.c ****     default:
 708:../Firmware/GD32VW55x_standard_peripheral/Source/gd32vw55x_adc.c ****         break;
 1763              		.loc 1 708 9
 1764 0042 A9A0     		j	.L92
 1765              	.L89:
 697:../Firmware/GD32VW55x_standard_peripheral/Source/gd32vw55x_adc.c ****         break;
 1766              		.loc 1 697 18
 1767 0044 B7270140 		li	a5,1073815552
 1768 0048 9107     		addi	a5,a5,4
 1769 004a 9443     		lw	a3,0(a5)
 1770 004c B7270140 		li	a5,1073815552
 1771 0050 9107     		addi	a5,a5,4
 1772 0052 37078000 		li	a4,8388608
 1773 0056 558F     		or	a4,a3,a4
 1774 0058 98C3     		sw	a4,0(a5)
 698:../Firmware/GD32VW55x_standard_peripheral/Source/gd32vw55x_adc.c ****     case ADC_INSERTED_CHANNEL:
 1775              		.loc 1 698 9
 1776 005a 15A8     		j	.L91
 1777              	.L90:
 701:../Firmware/GD32VW55x_standard_peripheral/Source/gd32vw55x_adc.c ****         break;
 1778              		.loc 1 701 18
 1779 005c B7270140 		li	a5,1073815552
 1780 0060 9107     		addi	a5,a5,4
 1781 0062 9443     		lw	a3,0(a5)
 1782 0064 B7270140 		li	a5,1073815552
 1783 0068 9107     		addi	a5,a5,4
 1784 006a 37074000 		li	a4,4194304
 1785 006e 558F     		or	a4,a3,a4
 1786 0070 98C3     		sw	a4,0(a5)
 702:../Firmware/GD32VW55x_standard_peripheral/Source/gd32vw55x_adc.c ****     case ADC_ROUTINE_INSERTED_CHANNEL:
 1787              		.loc 1 702 9
 1788 0072 31A8     		j	.L91
 1789              	.L87:
 705:../Firmware/GD32VW55x_standard_peripheral/Source/gd32vw55x_adc.c ****         break;
 1790              		.loc 1 705 18
 1791 0074 B7270140 		li	a5,1073815552
 1792 0078 9107     		addi	a5,a5,4
 1793 007a 9443     		lw	a3,0(a5)
 1794 007c B7270140 		li	a5,1073815552
 1795 0080 9107     		addi	a5,a5,4
 1796 0082 3707C000 		li	a4,12582912
 1797 0086 558F     		or	a4,a3,a4
 1798 0088 98C3     		sw	a4,0(a5)
 706:../Firmware/GD32VW55x_standard_peripheral/Source/gd32vw55x_adc.c ****     default:
 1799              		.loc 1 706 9
 1800 008a 11A0     		j	.L91
 1801              	.L92:
 1802              		.loc 1 708 9
 1803 008c 0100     		nop
 1804              	.L91:
 709:../Firmware/GD32VW55x_standard_peripheral/Source/gd32vw55x_adc.c ****     }
 710:../Firmware/GD32VW55x_standard_peripheral/Source/gd32vw55x_adc.c **** }
 1805              		.loc 1 710 1
 1806 008e 0100     		nop
 1807 0090 7244     		lw	s0,28(sp)
 1808              		.cfi_restore 8
 1809              		.cfi_def_cfa 2, 32
 1810 0092 0561     		addi	sp,sp,32
 1811              		.cfi_def_cfa_offset 0
 1812 0094 8280     		jr	ra
 1813              		.cfi_endproc
 1814              	.LFE372:
 1816              		.section	.text.adc_watchdog_disable,"ax",@progbits
 1817              		.align	1
 1818              		.globl	adc_watchdog_disable
 1820              	adc_watchdog_disable:
 1821              	.LFB373:
 711:../Firmware/GD32VW55x_standard_peripheral/Source/gd32vw55x_adc.c **** 
 712:../Firmware/GD32VW55x_standard_peripheral/Source/gd32vw55x_adc.c **** /*!
 713:../Firmware/GD32VW55x_standard_peripheral/Source/gd32vw55x_adc.c ****     \brief      disable ADC analog watchdog
 714:../Firmware/GD32VW55x_standard_peripheral/Source/gd32vw55x_adc.c ****     \param[in]  none
 715:../Firmware/GD32VW55x_standard_peripheral/Source/gd32vw55x_adc.c ****     \param[out] none
 716:../Firmware/GD32VW55x_standard_peripheral/Source/gd32vw55x_adc.c ****     \retval     none
 717:../Firmware/GD32VW55x_standard_peripheral/Source/gd32vw55x_adc.c **** */
 718:../Firmware/GD32VW55x_standard_peripheral/Source/gd32vw55x_adc.c **** void adc_watchdog_disable(void)
 719:../Firmware/GD32VW55x_standard_peripheral/Source/gd32vw55x_adc.c **** {
 1822              		.loc 1 719 1
 1823              		.cfi_startproc
 1824 0000 4111     		addi	sp,sp,-16
 1825              		.cfi_def_cfa_offset 16
 1826 0002 22C6     		sw	s0,12(sp)
 1827              		.cfi_offset 8, -4
 1828 0004 0008     		addi	s0,sp,16
 1829              		.cfi_def_cfa 8, 0
 720:../Firmware/GD32VW55x_standard_peripheral/Source/gd32vw55x_adc.c ****     ADC_CTL0 &= (uint32_t)~(ADC_CTL0_RWDEN | ADC_CTL0_IWDEN | ADC_CTL0_WDSC | ADC_CTL0_WDCHSEL);
 1830              		.loc 1 720 14
 1831 0006 B7270140 		li	a5,1073815552
 1832 000a 9107     		addi	a5,a5,4
 1833 000c 9443     		lw	a3,0(a5)
 1834 000e B7270140 		li	a5,1073815552
 1835 0012 9107     		addi	a5,a5,4
 1836 0014 370740FF 		li	a4,-12582912
 1837 0018 130707DE 		addi	a4,a4,-544
 1838 001c 758F     		and	a4,a3,a4
 1839 001e 98C3     		sw	a4,0(a5)
 721:../Firmware/GD32VW55x_standard_peripheral/Source/gd32vw55x_adc.c **** }
 1840              		.loc 1 721 1
 1841 0020 0100     		nop
 1842 0022 3244     		lw	s0,12(sp)
 1843              		.cfi_restore 8
 1844              		.cfi_def_cfa 2, 16
 1845 0024 4101     		addi	sp,sp,16
 1846              		.cfi_def_cfa_offset 0
 1847 0026 8280     		jr	ra
 1848              		.cfi_endproc
 1849              	.LFE373:
 1851              		.section	.text.adc_watchdog_threshold_config,"ax",@progbits
 1852              		.align	1
 1853              		.globl	adc_watchdog_threshold_config
 1855              	adc_watchdog_threshold_config:
 1856              	.LFB374:
 722:../Firmware/GD32VW55x_standard_peripheral/Source/gd32vw55x_adc.c **** 
 723:../Firmware/GD32VW55x_standard_peripheral/Source/gd32vw55x_adc.c **** /*!
 724:../Firmware/GD32VW55x_standard_peripheral/Source/gd32vw55x_adc.c ****     \brief      configure ADC analog watchdog threshold
 725:../Firmware/GD32VW55x_standard_peripheral/Source/gd32vw55x_adc.c ****     \param[in]  low_threshold: analog watchdog low threshold,0..4095
 726:../Firmware/GD32VW55x_standard_peripheral/Source/gd32vw55x_adc.c ****     \param[in]  high_threshold: analog watchdog high threshold,0..4095
 727:../Firmware/GD32VW55x_standard_peripheral/Source/gd32vw55x_adc.c ****     \param[out] none
 728:../Firmware/GD32VW55x_standard_peripheral/Source/gd32vw55x_adc.c ****     \retval     none
 729:../Firmware/GD32VW55x_standard_peripheral/Source/gd32vw55x_adc.c **** */
 730:../Firmware/GD32VW55x_standard_peripheral/Source/gd32vw55x_adc.c **** void adc_watchdog_threshold_config(uint16_t low_threshold, uint16_t high_threshold)
 731:../Firmware/GD32VW55x_standard_peripheral/Source/gd32vw55x_adc.c **** {
 1857              		.loc 1 731 1
 1858              		.cfi_startproc
 1859 0000 0111     		addi	sp,sp,-32
 1860              		.cfi_def_cfa_offset 32
 1861 0002 22CE     		sw	s0,28(sp)
 1862              		.cfi_offset 8, -4
 1863 0004 0010     		addi	s0,sp,32
 1864              		.cfi_def_cfa 8, 0
 1865 0006 AA87     		mv	a5,a0
 1866 0008 2E87     		mv	a4,a1
 1867 000a 2317F4FE 		sh	a5,-18(s0)
 1868 000e BA87     		mv	a5,a4
 1869 0010 2316F4FE 		sh	a5,-20(s0)
 732:../Firmware/GD32VW55x_standard_peripheral/Source/gd32vw55x_adc.c ****     /* configure ADC analog watchdog low threshold */
 733:../Firmware/GD32VW55x_standard_peripheral/Source/gd32vw55x_adc.c ****     ADC_WDLT = (uint32_t)WDLT_WDLT(low_threshold);
 1870              		.loc 1 733 26
 1871 0014 8356E4FE 		lhu	a3,-18(s0)
 1872              		.loc 1 733 5
 1873 0018 B7270140 		li	a5,1073815552
 1874 001c 93878702 		addi	a5,a5,40
 1875              		.loc 1 733 16
 1876 0020 0567     		li	a4,4096
 1877 0022 7D17     		addi	a4,a4,-1
 1878 0024 758F     		and	a4,a3,a4
 1879              		.loc 1 733 14
 1880 0026 98C3     		sw	a4,0(a5)
 734:../Firmware/GD32VW55x_standard_peripheral/Source/gd32vw55x_adc.c ****     /* configure ADC analog watchdog high threshold */
 735:../Firmware/GD32VW55x_standard_peripheral/Source/gd32vw55x_adc.c ****     ADC_WDHT = (uint32_t)WDHT_WDHT(high_threshold);
 1881              		.loc 1 735 26
 1882 0028 8356C4FE 		lhu	a3,-20(s0)
 1883              		.loc 1 735 5
 1884 002c B7270140 		li	a5,1073815552
 1885 0030 93874702 		addi	a5,a5,36
 1886              		.loc 1 735 16
 1887 0034 0567     		li	a4,4096
 1888 0036 7D17     		addi	a4,a4,-1
 1889 0038 758F     		and	a4,a3,a4
 1890              		.loc 1 735 14
 1891 003a 98C3     		sw	a4,0(a5)
 736:../Firmware/GD32VW55x_standard_peripheral/Source/gd32vw55x_adc.c **** }
 1892              		.loc 1 736 1
 1893 003c 0100     		nop
 1894 003e 7244     		lw	s0,28(sp)
 1895              		.cfi_restore 8
 1896              		.cfi_def_cfa 2, 32
 1897 0040 0561     		addi	sp,sp,32
 1898              		.cfi_def_cfa_offset 0
 1899 0042 8280     		jr	ra
 1900              		.cfi_endproc
 1901              	.LFE374:
 1903              		.section	.text.adc_oversample_mode_config,"ax",@progbits
 1904              		.align	1
 1905              		.globl	adc_oversample_mode_config
 1907              	adc_oversample_mode_config:
 1908              	.LFB375:
 737:../Firmware/GD32VW55x_standard_peripheral/Source/gd32vw55x_adc.c **** 
 738:../Firmware/GD32VW55x_standard_peripheral/Source/gd32vw55x_adc.c **** /*!
 739:../Firmware/GD32VW55x_standard_peripheral/Source/gd32vw55x_adc.c ****     \brief      configure ADC oversample mode
 740:../Firmware/GD32VW55x_standard_peripheral/Source/gd32vw55x_adc.c ****     \param[in]  mode: ADC oversampling mode
 741:../Firmware/GD32VW55x_standard_peripheral/Source/gd32vw55x_adc.c ****                 only one parameter can be selected which is shown as below:
 742:../Firmware/GD32VW55x_standard_peripheral/Source/gd32vw55x_adc.c ****       \arg        ADC_OVERSAMPLING_ALL_CONVERT: all oversampled conversions for a channel are done 
 743:../Firmware/GD32VW55x_standard_peripheral/Source/gd32vw55x_adc.c ****       \arg        ADC_OVERSAMPLING_ONE_CONVERT: each oversampled conversion for a channel needs a t
 744:../Firmware/GD32VW55x_standard_peripheral/Source/gd32vw55x_adc.c ****     \param[in]  shift: ADC oversampling shift
 745:../Firmware/GD32VW55x_standard_peripheral/Source/gd32vw55x_adc.c ****                 only one parameter can be selected which is shown as below:
 746:../Firmware/GD32VW55x_standard_peripheral/Source/gd32vw55x_adc.c ****       \arg        ADC_OVERSAMPLING_SHIFT_NONE: no oversampling shift
 747:../Firmware/GD32VW55x_standard_peripheral/Source/gd32vw55x_adc.c ****       \arg        ADC_OVERSAMPLING_SHIFT_1B: 1-bit oversampling shift
 748:../Firmware/GD32VW55x_standard_peripheral/Source/gd32vw55x_adc.c ****       \arg        ADC_OVERSAMPLING_SHIFT_2B: 2-bit oversampling shift
 749:../Firmware/GD32VW55x_standard_peripheral/Source/gd32vw55x_adc.c ****       \arg        ADC_OVERSAMPLING_SHIFT_3B: 3-bit oversampling shift
 750:../Firmware/GD32VW55x_standard_peripheral/Source/gd32vw55x_adc.c ****       \arg        ADC_OVERSAMPLING_SHIFT_4B: 3-bit oversampling shift
 751:../Firmware/GD32VW55x_standard_peripheral/Source/gd32vw55x_adc.c ****       \arg        ADC_OVERSAMPLING_SHIFT_5B: 5-bit oversampling shift
 752:../Firmware/GD32VW55x_standard_peripheral/Source/gd32vw55x_adc.c ****       \arg        ADC_OVERSAMPLING_SHIFT_6B: 6-bit oversampling shift
 753:../Firmware/GD32VW55x_standard_peripheral/Source/gd32vw55x_adc.c ****       \arg        ADC_OVERSAMPLING_SHIFT_7B: 7-bit oversampling shift
 754:../Firmware/GD32VW55x_standard_peripheral/Source/gd32vw55x_adc.c ****       \arg        ADC_OVERSAMPLING_SHIFT_8B: 8-bit oversampling shift
 755:../Firmware/GD32VW55x_standard_peripheral/Source/gd32vw55x_adc.c ****     \param[in]  ratio: ADC oversampling ratio
 756:../Firmware/GD32VW55x_standard_peripheral/Source/gd32vw55x_adc.c ****                 only one parameter can be selected which is shown as below:
 757:../Firmware/GD32VW55x_standard_peripheral/Source/gd32vw55x_adc.c ****       \arg        ADC_OVERSAMPLING_RATIO_MUL2: oversampling ratio multiple 2
 758:../Firmware/GD32VW55x_standard_peripheral/Source/gd32vw55x_adc.c ****       \arg        ADC_OVERSAMPLING_RATIO_MUL4: oversampling ratio multiple 4
 759:../Firmware/GD32VW55x_standard_peripheral/Source/gd32vw55x_adc.c ****       \arg        ADC_OVERSAMPLING_RATIO_MUL8: oversampling ratio multiple 8
 760:../Firmware/GD32VW55x_standard_peripheral/Source/gd32vw55x_adc.c ****       \arg        ADC_OVERSAMPLING_RATIO_MUL16: oversampling ratio multiple 16
 761:../Firmware/GD32VW55x_standard_peripheral/Source/gd32vw55x_adc.c ****       \arg        ADC_OVERSAMPLING_RATIO_MUL32: oversampling ratio multiple 32
 762:../Firmware/GD32VW55x_standard_peripheral/Source/gd32vw55x_adc.c ****       \arg        ADC_OVERSAMPLING_RATIO_MUL64: oversampling ratio multiple 64
 763:../Firmware/GD32VW55x_standard_peripheral/Source/gd32vw55x_adc.c ****       \arg        ADC_OVERSAMPLING_RATIO_MUL128: oversampling ratio multiple 128
 764:../Firmware/GD32VW55x_standard_peripheral/Source/gd32vw55x_adc.c ****       \arg        ADC_OVERSAMPLING_RATIO_MUL256: oversampling ratio multiple 256
 765:../Firmware/GD32VW55x_standard_peripheral/Source/gd32vw55x_adc.c ****     \param[out] none
 766:../Firmware/GD32VW55x_standard_peripheral/Source/gd32vw55x_adc.c ****     \retval     none
 767:../Firmware/GD32VW55x_standard_peripheral/Source/gd32vw55x_adc.c **** */
 768:../Firmware/GD32VW55x_standard_peripheral/Source/gd32vw55x_adc.c **** void adc_oversample_mode_config(uint32_t mode, uint16_t shift, uint8_t ratio)
 769:../Firmware/GD32VW55x_standard_peripheral/Source/gd32vw55x_adc.c **** {
 1909              		.loc 1 769 1
 1910              		.cfi_startproc
 1911 0000 0111     		addi	sp,sp,-32
 1912              		.cfi_def_cfa_offset 32
 1913 0002 22CE     		sw	s0,28(sp)
 1914              		.cfi_offset 8, -4
 1915 0004 0010     		addi	s0,sp,32
 1916              		.cfi_def_cfa 8, 0
 1917 0006 2326A4FE 		sw	a0,-20(s0)
 1918 000a AE87     		mv	a5,a1
 1919 000c 3287     		mv	a4,a2
 1920 000e 2315F4FE 		sh	a5,-22(s0)
 1921 0012 BA87     		mv	a5,a4
 1922 0014 A304F4FE 		sb	a5,-23(s0)
 770:../Firmware/GD32VW55x_standard_peripheral/Source/gd32vw55x_adc.c ****     /* configure ADC oversampling mode */
 771:../Firmware/GD32VW55x_standard_peripheral/Source/gd32vw55x_adc.c ****     if(ADC_OVERSAMPLING_ONE_CONVERT == mode){
 1923              		.loc 1 771 7
 1924 0018 0327C4FE 		lw	a4,-20(s0)
 1925 001c 93070020 		li	a5,512
 1926 0020 631FF700 		bne	a4,a5,.L96
 772:../Firmware/GD32VW55x_standard_peripheral/Source/gd32vw55x_adc.c ****         ADC_OVSAMPCTL |= (uint32_t)ADC_OVSAMPCTL_TOVS;
 1927              		.loc 1 772 23
 1928 0024 B7270140 		li	a5,1073815552
 1929 0028 93870708 		addi	a5,a5,128
 1930 002c 9843     		lw	a4,0(a5)
 1931 002e B7270140 		li	a5,1073815552
 1932 0032 93870708 		addi	a5,a5,128
 1933 0036 13670720 		ori	a4,a4,512
 1934 003a 98C3     		sw	a4,0(a5)
 1935 003c 29A8     		j	.L97
 1936              	.L96:
 773:../Firmware/GD32VW55x_standard_peripheral/Source/gd32vw55x_adc.c ****     }else{
 774:../Firmware/GD32VW55x_standard_peripheral/Source/gd32vw55x_adc.c ****         ADC_OVSAMPCTL &= ~((uint32_t)ADC_OVSAMPCTL_TOVS);
 1937              		.loc 1 774 23
 1938 003e B7270140 		li	a5,1073815552
 1939 0042 93870708 		addi	a5,a5,128
 1940 0046 9843     		lw	a4,0(a5)
 1941 0048 B7270140 		li	a5,1073815552
 1942 004c 93870708 		addi	a5,a5,128
 1943 0050 1377F7DF 		andi	a4,a4,-513
 1944 0054 98C3     		sw	a4,0(a5)
 1945              	.L97:
 775:../Firmware/GD32VW55x_standard_peripheral/Source/gd32vw55x_adc.c ****     }
 776:../Firmware/GD32VW55x_standard_peripheral/Source/gd32vw55x_adc.c ****     /* configure the shift and ratio */
 777:../Firmware/GD32VW55x_standard_peripheral/Source/gd32vw55x_adc.c ****     ADC_OVSAMPCTL &= ~((uint32_t)(ADC_OVSAMPCTL_OVSR | ADC_OVSAMPCTL_OVSS));
 1946              		.loc 1 777 19
 1947 0056 B7270140 		li	a5,1073815552
 1948 005a 93870708 		addi	a5,a5,128
 1949 005e 9843     		lw	a4,0(a5)
 1950 0060 B7270140 		li	a5,1073815552
 1951 0064 93870708 		addi	a5,a5,128
 1952 0068 137737E0 		andi	a4,a4,-509
 1953 006c 98C3     		sw	a4,0(a5)
 778:../Firmware/GD32VW55x_standard_peripheral/Source/gd32vw55x_adc.c ****     ADC_OVSAMPCTL |= ((uint32_t)shift | (uint32_t)ratio);
 1954              		.loc 1 778 19
 1955 006e B7270140 		li	a5,1073815552
 1956 0072 93870708 		addi	a5,a5,128
 1957 0076 9443     		lw	a3,0(a5)
 1958              		.loc 1 778 23
 1959 0078 0357A4FE 		lhu	a4,-22(s0)
 1960              		.loc 1 778 41
 1961 007c 834794FE 		lbu	a5,-23(s0)
 1962              		.loc 1 778 39
 1963 0080 5D8F     		or	a4,a4,a5
 1964              		.loc 1 778 19
 1965 0082 B7270140 		li	a5,1073815552
 1966 0086 93870708 		addi	a5,a5,128
 1967 008a 558F     		or	a4,a3,a4
 1968 008c 98C3     		sw	a4,0(a5)
 779:../Firmware/GD32VW55x_standard_peripheral/Source/gd32vw55x_adc.c **** }
 1969              		.loc 1 779 1
 1970 008e 0100     		nop
 1971 0090 7244     		lw	s0,28(sp)
 1972              		.cfi_restore 8
 1973              		.cfi_def_cfa 2, 32
 1974 0092 0561     		addi	sp,sp,32
 1975              		.cfi_def_cfa_offset 0
 1976 0094 8280     		jr	ra
 1977              		.cfi_endproc
 1978              	.LFE375:
 1980              		.section	.text.adc_oversample_mode_enable,"ax",@progbits
 1981              		.align	1
 1982              		.globl	adc_oversample_mode_enable
 1984              	adc_oversample_mode_enable:
 1985              	.LFB376:
 780:../Firmware/GD32VW55x_standard_peripheral/Source/gd32vw55x_adc.c **** 
 781:../Firmware/GD32VW55x_standard_peripheral/Source/gd32vw55x_adc.c **** /*!
 782:../Firmware/GD32VW55x_standard_peripheral/Source/gd32vw55x_adc.c ****     \brief      enable ADC oversample mode
 783:../Firmware/GD32VW55x_standard_peripheral/Source/gd32vw55x_adc.c ****     \param[in]  none
 784:../Firmware/GD32VW55x_standard_peripheral/Source/gd32vw55x_adc.c ****     \param[out] none
 785:../Firmware/GD32VW55x_standard_peripheral/Source/gd32vw55x_adc.c ****     \retval     none
 786:../Firmware/GD32VW55x_standard_peripheral/Source/gd32vw55x_adc.c **** */
 787:../Firmware/GD32VW55x_standard_peripheral/Source/gd32vw55x_adc.c **** void adc_oversample_mode_enable(void)
 788:../Firmware/GD32VW55x_standard_peripheral/Source/gd32vw55x_adc.c **** {
 1986              		.loc 1 788 1
 1987              		.cfi_startproc
 1988 0000 4111     		addi	sp,sp,-16
 1989              		.cfi_def_cfa_offset 16
 1990 0002 22C6     		sw	s0,12(sp)
 1991              		.cfi_offset 8, -4
 1992 0004 0008     		addi	s0,sp,16
 1993              		.cfi_def_cfa 8, 0
 789:../Firmware/GD32VW55x_standard_peripheral/Source/gd32vw55x_adc.c ****     ADC_OVSAMPCTL |= ADC_OVSAMPCTL_OVSEN;
 1994              		.loc 1 789 19
 1995 0006 B7270140 		li	a5,1073815552
 1996 000a 93870708 		addi	a5,a5,128
 1997 000e 9843     		lw	a4,0(a5)
 1998 0010 B7270140 		li	a5,1073815552
 1999 0014 93870708 		addi	a5,a5,128
 2000 0018 13671700 		ori	a4,a4,1
 2001 001c 98C3     		sw	a4,0(a5)
 790:../Firmware/GD32VW55x_standard_peripheral/Source/gd32vw55x_adc.c **** }
 2002              		.loc 1 790 1
 2003 001e 0100     		nop
 2004 0020 3244     		lw	s0,12(sp)
 2005              		.cfi_restore 8
 2006              		.cfi_def_cfa 2, 16
 2007 0022 4101     		addi	sp,sp,16
 2008              		.cfi_def_cfa_offset 0
 2009 0024 8280     		jr	ra
 2010              		.cfi_endproc
 2011              	.LFE376:
 2013              		.section	.text.adc_oversample_mode_disable,"ax",@progbits
 2014              		.align	1
 2015              		.globl	adc_oversample_mode_disable
 2017              	adc_oversample_mode_disable:
 2018              	.LFB377:
 791:../Firmware/GD32VW55x_standard_peripheral/Source/gd32vw55x_adc.c **** 
 792:../Firmware/GD32VW55x_standard_peripheral/Source/gd32vw55x_adc.c **** /*!
 793:../Firmware/GD32VW55x_standard_peripheral/Source/gd32vw55x_adc.c ****     \brief      disable ADC oversample mode
 794:../Firmware/GD32VW55x_standard_peripheral/Source/gd32vw55x_adc.c ****     \param[in]  none
 795:../Firmware/GD32VW55x_standard_peripheral/Source/gd32vw55x_adc.c ****     \param[out] none
 796:../Firmware/GD32VW55x_standard_peripheral/Source/gd32vw55x_adc.c ****     \retval     none
 797:../Firmware/GD32VW55x_standard_peripheral/Source/gd32vw55x_adc.c **** */
 798:../Firmware/GD32VW55x_standard_peripheral/Source/gd32vw55x_adc.c **** void adc_oversample_mode_disable(void)
 799:../Firmware/GD32VW55x_standard_peripheral/Source/gd32vw55x_adc.c **** {
 2019              		.loc 1 799 1
 2020              		.cfi_startproc
 2021 0000 4111     		addi	sp,sp,-16
 2022              		.cfi_def_cfa_offset 16
 2023 0002 22C6     		sw	s0,12(sp)
 2024              		.cfi_offset 8, -4
 2025 0004 0008     		addi	s0,sp,16
 2026              		.cfi_def_cfa 8, 0
 800:../Firmware/GD32VW55x_standard_peripheral/Source/gd32vw55x_adc.c ****     ADC_OVSAMPCTL &= ~((uint32_t)ADC_OVSAMPCTL_OVSEN);
 2027              		.loc 1 800 19
 2028 0006 B7270140 		li	a5,1073815552
 2029 000a 93870708 		addi	a5,a5,128
 2030 000e 9843     		lw	a4,0(a5)
 2031 0010 B7270140 		li	a5,1073815552
 2032 0014 93870708 		addi	a5,a5,128
 2033 0018 799B     		andi	a4,a4,-2
 2034 001a 98C3     		sw	a4,0(a5)
 801:../Firmware/GD32VW55x_standard_peripheral/Source/gd32vw55x_adc.c **** }
 2035              		.loc 1 801 1
 2036 001c 0100     		nop
 2037 001e 3244     		lw	s0,12(sp)
 2038              		.cfi_restore 8
 2039              		.cfi_def_cfa 2, 16
 2040 0020 4101     		addi	sp,sp,16
 2041              		.cfi_def_cfa_offset 0
 2042 0022 8280     		jr	ra
 2043              		.cfi_endproc
 2044              	.LFE377:
 2046              		.section	.text.adc_flag_get,"ax",@progbits
 2047              		.align	1
 2048              		.globl	adc_flag_get
 2050              	adc_flag_get:
 2051              	.LFB378:
 802:../Firmware/GD32VW55x_standard_peripheral/Source/gd32vw55x_adc.c **** 
 803:../Firmware/GD32VW55x_standard_peripheral/Source/gd32vw55x_adc.c **** /*!
 804:../Firmware/GD32VW55x_standard_peripheral/Source/gd32vw55x_adc.c ****     \brief      get the ADC flag
 805:../Firmware/GD32VW55x_standard_peripheral/Source/gd32vw55x_adc.c ****     \param[in]  flag: the ADC flag
 806:../Firmware/GD32VW55x_standard_peripheral/Source/gd32vw55x_adc.c ****                 only one parameter can be selected which is shown as below:
 807:../Firmware/GD32VW55x_standard_peripheral/Source/gd32vw55x_adc.c ****       \arg        ADC_FLAG_WDE: analog watchdog event flag
 808:../Firmware/GD32VW55x_standard_peripheral/Source/gd32vw55x_adc.c ****       \arg        ADC_FLAG_EOC: end of group conversion flag
 809:../Firmware/GD32VW55x_standard_peripheral/Source/gd32vw55x_adc.c ****       \arg        ADC_FLAG_EOIC: end of inserted group conversion flag
 810:../Firmware/GD32VW55x_standard_peripheral/Source/gd32vw55x_adc.c ****       \arg        ADC_FLAG_STIC: start flag of inserted channel group
 811:../Firmware/GD32VW55x_standard_peripheral/Source/gd32vw55x_adc.c ****       \arg        ADC_FLAG_STRC: start flag of routine channel group
 812:../Firmware/GD32VW55x_standard_peripheral/Source/gd32vw55x_adc.c ****       \arg        ADC_FLAG_ROVF: routine data register overflow flag
 813:../Firmware/GD32VW55x_standard_peripheral/Source/gd32vw55x_adc.c ****     \param[out] none
 814:../Firmware/GD32VW55x_standard_peripheral/Source/gd32vw55x_adc.c ****     \retval     FlagStatus: SET or RESET
 815:../Firmware/GD32VW55x_standard_peripheral/Source/gd32vw55x_adc.c **** */
 816:../Firmware/GD32VW55x_standard_peripheral/Source/gd32vw55x_adc.c **** FlagStatus adc_flag_get(uint32_t flag)
 817:../Firmware/GD32VW55x_standard_peripheral/Source/gd32vw55x_adc.c **** {
 2052              		.loc 1 817 1
 2053              		.cfi_startproc
 2054 0000 7971     		addi	sp,sp,-48
 2055              		.cfi_def_cfa_offset 48
 2056 0002 22D6     		sw	s0,44(sp)
 2057              		.cfi_offset 8, -4
 2058 0004 0018     		addi	s0,sp,48
 2059              		.cfi_def_cfa 8, 0
 2060 0006 232EA4FC 		sw	a0,-36(s0)
 818:../Firmware/GD32VW55x_standard_peripheral/Source/gd32vw55x_adc.c ****     FlagStatus reval = RESET;
 2061              		.loc 1 818 16
 2062 000a 232604FE 		sw	zero,-20(s0)
 819:../Firmware/GD32VW55x_standard_peripheral/Source/gd32vw55x_adc.c ****     if(ADC_STAT & flag){
 2063              		.loc 1 819 8
 2064 000e B7270140 		li	a5,1073815552
 2065 0012 9843     		lw	a4,0(a5)
 2066              		.loc 1 819 17
 2067 0014 8327C4FD 		lw	a5,-36(s0)
 2068 0018 F98F     		and	a5,a4,a5
 2069              		.loc 1 819 7
 2070 001a 81C7     		beq	a5,zero,.L101
 820:../Firmware/GD32VW55x_standard_peripheral/Source/gd32vw55x_adc.c ****         reval = SET;
 2071              		.loc 1 820 15
 2072 001c 8547     		li	a5,1
 2073 001e 2326F4FE 		sw	a5,-20(s0)
 2074              	.L101:
 821:../Firmware/GD32VW55x_standard_peripheral/Source/gd32vw55x_adc.c ****     }
 822:../Firmware/GD32VW55x_standard_peripheral/Source/gd32vw55x_adc.c ****     return reval;
 2075              		.loc 1 822 12
 2076 0022 8327C4FE 		lw	a5,-20(s0)
 823:../Firmware/GD32VW55x_standard_peripheral/Source/gd32vw55x_adc.c **** 
 824:../Firmware/GD32VW55x_standard_peripheral/Source/gd32vw55x_adc.c **** }
 2077              		.loc 1 824 1
 2078 0026 3E85     		mv	a0,a5
 2079 0028 3254     		lw	s0,44(sp)
 2080              		.cfi_restore 8
 2081              		.cfi_def_cfa 2, 48
 2082 002a 4561     		addi	sp,sp,48
 2083              		.cfi_def_cfa_offset 0
 2084 002c 8280     		jr	ra
 2085              		.cfi_endproc
 2086              	.LFE378:
 2088              		.section	.text.adc_flag_clear,"ax",@progbits
 2089              		.align	1
 2090              		.globl	adc_flag_clear
 2092              	adc_flag_clear:
 2093              	.LFB379:
 825:../Firmware/GD32VW55x_standard_peripheral/Source/gd32vw55x_adc.c **** 
 826:../Firmware/GD32VW55x_standard_peripheral/Source/gd32vw55x_adc.c **** /*!
 827:../Firmware/GD32VW55x_standard_peripheral/Source/gd32vw55x_adc.c ****     \brief      clear the ADC flag
 828:../Firmware/GD32VW55x_standard_peripheral/Source/gd32vw55x_adc.c ****     \param[in]  flag: the ADC flag
 829:../Firmware/GD32VW55x_standard_peripheral/Source/gd32vw55x_adc.c ****                 only one parameter can be selected which is shown as below:
 830:../Firmware/GD32VW55x_standard_peripheral/Source/gd32vw55x_adc.c ****       \arg        ADC_FLAG_WDE: analog watchdog event flag
 831:../Firmware/GD32VW55x_standard_peripheral/Source/gd32vw55x_adc.c ****       \arg        ADC_FLAG_EOC: end of group conversion flag
 832:../Firmware/GD32VW55x_standard_peripheral/Source/gd32vw55x_adc.c ****       \arg        ADC_FLAG_EOIC: end of inserted group conversion flag
 833:../Firmware/GD32VW55x_standard_peripheral/Source/gd32vw55x_adc.c ****       \arg        ADC_FLAG_STIC: start flag of inserted channel group
 834:../Firmware/GD32VW55x_standard_peripheral/Source/gd32vw55x_adc.c ****       \arg        ADC_FLAG_STRC: start flag of routine channel group
 835:../Firmware/GD32VW55x_standard_peripheral/Source/gd32vw55x_adc.c ****       \arg        ADC_FLAG_ROVF: routine data register overflow flag
 836:../Firmware/GD32VW55x_standard_peripheral/Source/gd32vw55x_adc.c ****     \param[out] none
 837:../Firmware/GD32VW55x_standard_peripheral/Source/gd32vw55x_adc.c ****     \retval     none
 838:../Firmware/GD32VW55x_standard_peripheral/Source/gd32vw55x_adc.c **** */
 839:../Firmware/GD32VW55x_standard_peripheral/Source/gd32vw55x_adc.c **** void adc_flag_clear(uint32_t flag)
 840:../Firmware/GD32VW55x_standard_peripheral/Source/gd32vw55x_adc.c **** {
 2094              		.loc 1 840 1
 2095              		.cfi_startproc
 2096 0000 0111     		addi	sp,sp,-32
 2097              		.cfi_def_cfa_offset 32
 2098 0002 22CE     		sw	s0,28(sp)
 2099              		.cfi_offset 8, -4
 2100 0004 0010     		addi	s0,sp,32
 2101              		.cfi_def_cfa 8, 0
 2102 0006 2326A4FE 		sw	a0,-20(s0)
 841:../Firmware/GD32VW55x_standard_peripheral/Source/gd32vw55x_adc.c ****     ADC_STAT = ~((uint32_t)flag);
 2103              		.loc 1 841 5
 2104 000a B7270140 		li	a5,1073815552
 2105              		.loc 1 841 16
 2106 000e 0327C4FE 		lw	a4,-20(s0)
 2107 0012 1347F7FF 		not	a4,a4
 2108              		.loc 1 841 14
 2109 0016 98C3     		sw	a4,0(a5)
 842:../Firmware/GD32VW55x_standard_peripheral/Source/gd32vw55x_adc.c **** }
 2110              		.loc 1 842 1
 2111 0018 0100     		nop
 2112 001a 7244     		lw	s0,28(sp)
 2113              		.cfi_restore 8
 2114              		.cfi_def_cfa 2, 32
 2115 001c 0561     		addi	sp,sp,32
 2116              		.cfi_def_cfa_offset 0
 2117 001e 8280     		jr	ra
 2118              		.cfi_endproc
 2119              	.LFE379:
 2121              		.section	.text.adc_interrupt_enable,"ax",@progbits
 2122              		.align	1
 2123              		.globl	adc_interrupt_enable
 2125              	adc_interrupt_enable:
 2126              	.LFB380:
 843:../Firmware/GD32VW55x_standard_peripheral/Source/gd32vw55x_adc.c **** 
 844:../Firmware/GD32VW55x_standard_peripheral/Source/gd32vw55x_adc.c **** /*!
 845:../Firmware/GD32VW55x_standard_peripheral/Source/gd32vw55x_adc.c ****     \brief      enable ADC interrupt
 846:../Firmware/GD32VW55x_standard_peripheral/Source/gd32vw55x_adc.c ****     \param[in]  interrupt: the ADC interrupt
 847:../Firmware/GD32VW55x_standard_peripheral/Source/gd32vw55x_adc.c ****                 only one parameter can be selected which is shown as below:
 848:../Firmware/GD32VW55x_standard_peripheral/Source/gd32vw55x_adc.c ****       \arg        ADC_INT_WDE: analog watchdog interrupt
 849:../Firmware/GD32VW55x_standard_peripheral/Source/gd32vw55x_adc.c ****       \arg        ADC_INT_EOC: end of group conversion interrupt
 850:../Firmware/GD32VW55x_standard_peripheral/Source/gd32vw55x_adc.c ****       \arg        ADC_INT_EOIC: end of inserted group conversion interrupt
 851:../Firmware/GD32VW55x_standard_peripheral/Source/gd32vw55x_adc.c ****       \arg        ADC_INT_ROVF: routine data register overflow interrupt
 852:../Firmware/GD32VW55x_standard_peripheral/Source/gd32vw55x_adc.c ****     \param[out] none
 853:../Firmware/GD32VW55x_standard_peripheral/Source/gd32vw55x_adc.c ****     \retval     none
 854:../Firmware/GD32VW55x_standard_peripheral/Source/gd32vw55x_adc.c **** */
 855:../Firmware/GD32VW55x_standard_peripheral/Source/gd32vw55x_adc.c **** void adc_interrupt_enable(uint32_t interrupt)
 856:../Firmware/GD32VW55x_standard_peripheral/Source/gd32vw55x_adc.c **** {
 2127              		.loc 1 856 1
 2128              		.cfi_startproc
 2129 0000 0111     		addi	sp,sp,-32
 2130              		.cfi_def_cfa_offset 32
 2131 0002 22CE     		sw	s0,28(sp)
 2132              		.cfi_offset 8, -4
 2133 0004 0010     		addi	s0,sp,32
 2134              		.cfi_def_cfa 8, 0
 2135 0006 2326A4FE 		sw	a0,-20(s0)
 857:../Firmware/GD32VW55x_standard_peripheral/Source/gd32vw55x_adc.c ****     switch(interrupt){
 2136              		.loc 1 857 5
 2137 000a 0327C4FE 		lw	a4,-20(s0)
 2138 000e B7070004 		li	a5,67108864
 2139 0012 6301F708 		beq	a4,a5,.L105
 2140 0016 0327C4FE 		lw	a4,-20(s0)
 2141 001a B7070004 		li	a5,67108864
 2142 001e 63E7E708 		bgtu	a4,a5,.L110
 2143 0022 0327C4FE 		lw	a4,-20(s0)
 2144 0026 93070008 		li	a5,128
 2145 002a 630AF704 		beq	a4,a5,.L107
 2146 002e 0327C4FE 		lw	a4,-20(s0)
 2147 0032 93070008 		li	a5,128
 2148 0036 63EBE706 		bgtu	a4,a5,.L110
 2149 003a 0327C4FE 		lw	a4,-20(s0)
 2150 003e 93070002 		li	a5,32
 2151 0042 6303F702 		beq	a4,a5,.L108
 2152 0046 0327C4FE 		lw	a4,-20(s0)
 2153 004a 93070004 		li	a5,64
 2154 004e 631FF704 		bne	a4,a5,.L110
 858:../Firmware/GD32VW55x_standard_peripheral/Source/gd32vw55x_adc.c ****     case ADC_INT_WDE:
 859:../Firmware/GD32VW55x_standard_peripheral/Source/gd32vw55x_adc.c ****         /* enable analog watchdog interrupt */
 860:../Firmware/GD32VW55x_standard_peripheral/Source/gd32vw55x_adc.c ****         ADC_CTL0 |= (uint32_t) ADC_CTL0_WDEIE;
 2155              		.loc 1 860 18
 2156 0052 B7270140 		li	a5,1073815552
 2157 0056 9107     		addi	a5,a5,4
 2158 0058 9843     		lw	a4,0(a5)
 2159 005a B7270140 		li	a5,1073815552
 2160 005e 9107     		addi	a5,a5,4
 2161 0060 13670704 		ori	a4,a4,64
 2162 0064 98C3     		sw	a4,0(a5)
 861:../Firmware/GD32VW55x_standard_peripheral/Source/gd32vw55x_adc.c ****         break;
 2163              		.loc 1 861 9
 2164 0066 A1A0     		j	.L109
 2165              	.L108:
 862:../Firmware/GD32VW55x_standard_peripheral/Source/gd32vw55x_adc.c ****     case ADC_INT_EOC:
 863:../Firmware/GD32VW55x_standard_peripheral/Source/gd32vw55x_adc.c ****         /* enable end of group conversion interrupt */
 864:../Firmware/GD32VW55x_standard_peripheral/Source/gd32vw55x_adc.c ****         ADC_CTL0 |= (uint32_t) ADC_CTL0_EOCIE;
 2166              		.loc 1 864 18
 2167 0068 B7270140 		li	a5,1073815552
 2168 006c 9107     		addi	a5,a5,4
 2169 006e 9843     		lw	a4,0(a5)
 2170 0070 B7270140 		li	a5,1073815552
 2171 0074 9107     		addi	a5,a5,4
 2172 0076 13670702 		ori	a4,a4,32
 2173 007a 98C3     		sw	a4,0(a5)
 865:../Firmware/GD32VW55x_standard_peripheral/Source/gd32vw55x_adc.c ****         break;
 2174              		.loc 1 865 9
 2175 007c 0DA8     		j	.L109
 2176              	.L107:
 866:../Firmware/GD32VW55x_standard_peripheral/Source/gd32vw55x_adc.c ****     case ADC_INT_EOIC:
 867:../Firmware/GD32VW55x_standard_peripheral/Source/gd32vw55x_adc.c ****         /* enable end of inserted group conversion interrupt */
 868:../Firmware/GD32VW55x_standard_peripheral/Source/gd32vw55x_adc.c ****         ADC_CTL0 |= (uint32_t) ADC_CTL0_EOICIE;
 2177              		.loc 1 868 18
 2178 007e B7270140 		li	a5,1073815552
 2179 0082 9107     		addi	a5,a5,4
 2180 0084 9843     		lw	a4,0(a5)
 2181 0086 B7270140 		li	a5,1073815552
 2182 008a 9107     		addi	a5,a5,4
 2183 008c 13670708 		ori	a4,a4,128
 2184 0090 98C3     		sw	a4,0(a5)
 869:../Firmware/GD32VW55x_standard_peripheral/Source/gd32vw55x_adc.c ****         break;
 2185              		.loc 1 869 9
 2186 0092 31A8     		j	.L109
 2187              	.L105:
 870:../Firmware/GD32VW55x_standard_peripheral/Source/gd32vw55x_adc.c ****     case ADC_INT_ROVF:
 871:../Firmware/GD32VW55x_standard_peripheral/Source/gd32vw55x_adc.c ****         ADC_CTL0 |= (uint32_t) ADC_CTL0_ROVFIE;
 2188              		.loc 1 871 18
 2189 0094 B7270140 		li	a5,1073815552
 2190 0098 9107     		addi	a5,a5,4
 2191 009a 9443     		lw	a3,0(a5)
 2192 009c B7270140 		li	a5,1073815552
 2193 00a0 9107     		addi	a5,a5,4
 2194 00a2 37070004 		li	a4,67108864
 2195 00a6 558F     		or	a4,a3,a4
 2196 00a8 98C3     		sw	a4,0(a5)
 872:../Firmware/GD32VW55x_standard_peripheral/Source/gd32vw55x_adc.c ****         break;
 2197              		.loc 1 872 9
 2198 00aa 11A0     		j	.L109
 2199              	.L110:
 873:../Firmware/GD32VW55x_standard_peripheral/Source/gd32vw55x_adc.c ****     default:
 874:../Firmware/GD32VW55x_standard_peripheral/Source/gd32vw55x_adc.c ****         break;
 2200              		.loc 1 874 9
 2201 00ac 0100     		nop
 2202              	.L109:
 875:../Firmware/GD32VW55x_standard_peripheral/Source/gd32vw55x_adc.c ****     }
 876:../Firmware/GD32VW55x_standard_peripheral/Source/gd32vw55x_adc.c **** }
 2203              		.loc 1 876 1
 2204 00ae 0100     		nop
 2205 00b0 7244     		lw	s0,28(sp)
 2206              		.cfi_restore 8
 2207              		.cfi_def_cfa 2, 32
 2208 00b2 0561     		addi	sp,sp,32
 2209              		.cfi_def_cfa_offset 0
 2210 00b4 8280     		jr	ra
 2211              		.cfi_endproc
 2212              	.LFE380:
 2214              		.section	.text.adc_interrupt_disable,"ax",@progbits
 2215              		.align	1
 2216              		.globl	adc_interrupt_disable
 2218              	adc_interrupt_disable:
 2219              	.LFB381:
 877:../Firmware/GD32VW55x_standard_peripheral/Source/gd32vw55x_adc.c **** 
 878:../Firmware/GD32VW55x_standard_peripheral/Source/gd32vw55x_adc.c **** /*!
 879:../Firmware/GD32VW55x_standard_peripheral/Source/gd32vw55x_adc.c ****     \brief      disable ADC interrupt
 880:../Firmware/GD32VW55x_standard_peripheral/Source/gd32vw55x_adc.c ****     \param[in]  interrupt: the ADC interrupt
 881:../Firmware/GD32VW55x_standard_peripheral/Source/gd32vw55x_adc.c ****                 only one parameter can be selected which is shown as below:
 882:../Firmware/GD32VW55x_standard_peripheral/Source/gd32vw55x_adc.c ****       \arg        ADC_INT_WDE: analog watchdog interrupt
 883:../Firmware/GD32VW55x_standard_peripheral/Source/gd32vw55x_adc.c ****       \arg        ADC_INT_EOC: end of group conversion interrupt
 884:../Firmware/GD32VW55x_standard_peripheral/Source/gd32vw55x_adc.c ****       \arg        ADC_INT_EOIC: end of inserted group conversion interrupt
 885:../Firmware/GD32VW55x_standard_peripheral/Source/gd32vw55x_adc.c ****       \arg        ADC_INT_ROVF: routine data register overflow interrupt
 886:../Firmware/GD32VW55x_standard_peripheral/Source/gd32vw55x_adc.c ****     \param[out] none
 887:../Firmware/GD32VW55x_standard_peripheral/Source/gd32vw55x_adc.c ****     \retval     none
 888:../Firmware/GD32VW55x_standard_peripheral/Source/gd32vw55x_adc.c **** */
 889:../Firmware/GD32VW55x_standard_peripheral/Source/gd32vw55x_adc.c **** void adc_interrupt_disable(uint32_t interrupt)
 890:../Firmware/GD32VW55x_standard_peripheral/Source/gd32vw55x_adc.c **** {
 2220              		.loc 1 890 1
 2221              		.cfi_startproc
 2222 0000 0111     		addi	sp,sp,-32
 2223              		.cfi_def_cfa_offset 32
 2224 0002 22CE     		sw	s0,28(sp)
 2225              		.cfi_offset 8, -4
 2226 0004 0010     		addi	s0,sp,32
 2227              		.cfi_def_cfa 8, 0
 2228 0006 2326A4FE 		sw	a0,-20(s0)
 891:../Firmware/GD32VW55x_standard_peripheral/Source/gd32vw55x_adc.c ****     switch(interrupt){
 2229              		.loc 1 891 5
 2230 000a 0327C4FE 		lw	a4,-20(s0)
 2231 000e B7070004 		li	a5,67108864
 2232 0012 6301F708 		beq	a4,a5,.L112
 2233 0016 0327C4FE 		lw	a4,-20(s0)
 2234 001a B7070004 		li	a5,67108864
 2235 001e 63E8E708 		bgtu	a4,a5,.L117
 2236 0022 0327C4FE 		lw	a4,-20(s0)
 2237 0026 93070008 		li	a5,128
 2238 002a 630AF704 		beq	a4,a5,.L114
 2239 002e 0327C4FE 		lw	a4,-20(s0)
 2240 0032 93070008 		li	a5,128
 2241 0036 63ECE706 		bgtu	a4,a5,.L117
 2242 003a 0327C4FE 		lw	a4,-20(s0)
 2243 003e 93070002 		li	a5,32
 2244 0042 6303F702 		beq	a4,a5,.L115
 2245 0046 0327C4FE 		lw	a4,-20(s0)
 2246 004a 93070004 		li	a5,64
 2247 004e 6310F706 		bne	a4,a5,.L117
 892:../Firmware/GD32VW55x_standard_peripheral/Source/gd32vw55x_adc.c ****     /* select the interrupt source */
 893:../Firmware/GD32VW55x_standard_peripheral/Source/gd32vw55x_adc.c ****     case ADC_INT_WDE:
 894:../Firmware/GD32VW55x_standard_peripheral/Source/gd32vw55x_adc.c ****         ADC_CTL0 &= ~((uint32_t)ADC_CTL0_WDEIE);
 2248              		.loc 1 894 18
 2249 0052 B7270140 		li	a5,1073815552
 2250 0056 9107     		addi	a5,a5,4
 2251 0058 9843     		lw	a4,0(a5)
 2252 005a B7270140 		li	a5,1073815552
 2253 005e 9107     		addi	a5,a5,4
 2254 0060 1377F7FB 		andi	a4,a4,-65
 2255 0064 98C3     		sw	a4,0(a5)
 895:../Firmware/GD32VW55x_standard_peripheral/Source/gd32vw55x_adc.c ****         break;
 2256              		.loc 1 895 9
 2257 0066 A9A0     		j	.L116
 2258              	.L115:
 896:../Firmware/GD32VW55x_standard_peripheral/Source/gd32vw55x_adc.c ****     case ADC_INT_EOC:
 897:../Firmware/GD32VW55x_standard_peripheral/Source/gd32vw55x_adc.c ****         ADC_CTL0 &= ~((uint32_t)ADC_CTL0_EOCIE);
 2259              		.loc 1 897 18
 2260 0068 B7270140 		li	a5,1073815552
 2261 006c 9107     		addi	a5,a5,4
 2262 006e 9843     		lw	a4,0(a5)
 2263 0070 B7270140 		li	a5,1073815552
 2264 0074 9107     		addi	a5,a5,4
 2265 0076 1377F7FD 		andi	a4,a4,-33
 2266 007a 98C3     		sw	a4,0(a5)
 898:../Firmware/GD32VW55x_standard_peripheral/Source/gd32vw55x_adc.c ****         break;
 2267              		.loc 1 898 9
 2268 007c 15A8     		j	.L116
 2269              	.L114:
 899:../Firmware/GD32VW55x_standard_peripheral/Source/gd32vw55x_adc.c ****     case ADC_INT_EOIC:
 900:../Firmware/GD32VW55x_standard_peripheral/Source/gd32vw55x_adc.c ****         ADC_CTL0 &= ~((uint32_t)ADC_CTL0_EOICIE);
 2270              		.loc 1 900 18
 2271 007e B7270140 		li	a5,1073815552
 2272 0082 9107     		addi	a5,a5,4
 2273 0084 9843     		lw	a4,0(a5)
 2274 0086 B7270140 		li	a5,1073815552
 2275 008a 9107     		addi	a5,a5,4
 2276 008c 1377F7F7 		andi	a4,a4,-129
 2277 0090 98C3     		sw	a4,0(a5)
 901:../Firmware/GD32VW55x_standard_peripheral/Source/gd32vw55x_adc.c ****         break;
 2278              		.loc 1 901 9
 2279 0092 39A8     		j	.L116
 2280              	.L112:
 902:../Firmware/GD32VW55x_standard_peripheral/Source/gd32vw55x_adc.c ****     case ADC_INT_ROVF:
 903:../Firmware/GD32VW55x_standard_peripheral/Source/gd32vw55x_adc.c ****         ADC_CTL0 &= ~((uint32_t)ADC_CTL0_ROVFIE);
 2281              		.loc 1 903 18
 2282 0094 B7270140 		li	a5,1073815552
 2283 0098 9107     		addi	a5,a5,4
 2284 009a 9443     		lw	a3,0(a5)
 2285 009c B7270140 		li	a5,1073815552
 2286 00a0 9107     		addi	a5,a5,4
 2287 00a2 370700FC 		li	a4,-67108864
 2288 00a6 7D17     		addi	a4,a4,-1
 2289 00a8 758F     		and	a4,a3,a4
 2290 00aa 98C3     		sw	a4,0(a5)
 904:../Firmware/GD32VW55x_standard_peripheral/Source/gd32vw55x_adc.c ****         break;
 2291              		.loc 1 904 9
 2292 00ac 11A0     		j	.L116
 2293              	.L117:
 905:../Firmware/GD32VW55x_standard_peripheral/Source/gd32vw55x_adc.c ****     default:
 906:../Firmware/GD32VW55x_standard_peripheral/Source/gd32vw55x_adc.c ****         break;
 2294              		.loc 1 906 9
 2295 00ae 0100     		nop
 2296              	.L116:
 907:../Firmware/GD32VW55x_standard_peripheral/Source/gd32vw55x_adc.c ****     }
 908:../Firmware/GD32VW55x_standard_peripheral/Source/gd32vw55x_adc.c **** }
 2297              		.loc 1 908 1
 2298 00b0 0100     		nop
 2299 00b2 7244     		lw	s0,28(sp)
 2300              		.cfi_restore 8
 2301              		.cfi_def_cfa 2, 32
 2302 00b4 0561     		addi	sp,sp,32
 2303              		.cfi_def_cfa_offset 0
 2304 00b6 8280     		jr	ra
 2305              		.cfi_endproc
 2306              	.LFE381:
 2308              		.section	.text.adc_interrupt_flag_get,"ax",@progbits
 2309              		.align	1
 2310              		.globl	adc_interrupt_flag_get
 2312              	adc_interrupt_flag_get:
 2313              	.LFB382:
 909:../Firmware/GD32VW55x_standard_peripheral/Source/gd32vw55x_adc.c **** 
 910:../Firmware/GD32VW55x_standard_peripheral/Source/gd32vw55x_adc.c **** /*!
 911:../Firmware/GD32VW55x_standard_peripheral/Source/gd32vw55x_adc.c ****     \brief      get ADC interrupt flag
 912:../Firmware/GD32VW55x_standard_peripheral/Source/gd32vw55x_adc.c ****     \param[in]  int_flag: the ADC interrupt flag
 913:../Firmware/GD32VW55x_standard_peripheral/Source/gd32vw55x_adc.c ****                 only one parameter can be selected which is shown as below:
 914:../Firmware/GD32VW55x_standard_peripheral/Source/gd32vw55x_adc.c ****       \arg        ADC_INT_FLAG_WDE: analog watchdog interrupt
 915:../Firmware/GD32VW55x_standard_peripheral/Source/gd32vw55x_adc.c ****       \arg        ADC_INT_FLAG_EOC: end of group conversion interrupt
 916:../Firmware/GD32VW55x_standard_peripheral/Source/gd32vw55x_adc.c ****       \arg        ADC_INT_FLAG_EOIC: end of inserted group conversion interrupt
 917:../Firmware/GD32VW55x_standard_peripheral/Source/gd32vw55x_adc.c ****       \arg        ADC_INT_FLAG_ROVF: routine data register overflow interrupt
 918:../Firmware/GD32VW55x_standard_peripheral/Source/gd32vw55x_adc.c ****     \param[out] none
 919:../Firmware/GD32VW55x_standard_peripheral/Source/gd32vw55x_adc.c ****     \retval     FlagStatus: SET or RESET
 920:../Firmware/GD32VW55x_standard_peripheral/Source/gd32vw55x_adc.c **** */
 921:../Firmware/GD32VW55x_standard_peripheral/Source/gd32vw55x_adc.c **** FlagStatus adc_interrupt_flag_get(uint32_t int_flag)
 922:../Firmware/GD32VW55x_standard_peripheral/Source/gd32vw55x_adc.c **** {
 2314              		.loc 1 922 1
 2315              		.cfi_startproc
 2316 0000 7971     		addi	sp,sp,-48
 2317              		.cfi_def_cfa_offset 48
 2318 0002 22D6     		sw	s0,44(sp)
 2319              		.cfi_offset 8, -4
 2320 0004 0018     		addi	s0,sp,48
 2321              		.cfi_def_cfa 8, 0
 2322 0006 232EA4FC 		sw	a0,-36(s0)
 923:../Firmware/GD32VW55x_standard_peripheral/Source/gd32vw55x_adc.c ****     FlagStatus interrupt_flag = RESET;
 2323              		.loc 1 923 16
 2324 000a 232604FE 		sw	zero,-20(s0)
 924:../Firmware/GD32VW55x_standard_peripheral/Source/gd32vw55x_adc.c ****     uint32_t state;
 925:../Firmware/GD32VW55x_standard_peripheral/Source/gd32vw55x_adc.c ****     /* check the interrupt bits */
 926:../Firmware/GD32VW55x_standard_peripheral/Source/gd32vw55x_adc.c ****     switch(int_flag){
 2325              		.loc 1 926 5
 2326 000e 0327C4FD 		lw	a4,-36(s0)
 2327 0012 93070002 		li	a5,32
 2328 0016 6309F70A 		beq	a4,a5,.L119
 2329 001a 0327C4FD 		lw	a4,-36(s0)
 2330 001e 93070002 		li	a5,32
 2331 0022 63E9E70C 		bgtu	a4,a5,.L130
 2332 0026 0327C4FD 		lw	a4,-36(s0)
 2333 002a 9147     		li	a5,4
 2334 002c 630AF706 		beq	a4,a5,.L121
 2335 0030 0327C4FD 		lw	a4,-36(s0)
 2336 0034 9147     		li	a5,4
 2337 0036 63EFE70A 		bgtu	a4,a5,.L130
 2338 003a 0327C4FD 		lw	a4,-36(s0)
 2339 003e 8547     		li	a5,1
 2340 0040 6308F700 		beq	a4,a5,.L122
 2341 0044 0327C4FD 		lw	a4,-36(s0)
 2342 0048 8947     		li	a5,2
 2343 004a 6307F702 		beq	a4,a5,.L123
 927:../Firmware/GD32VW55x_standard_peripheral/Source/gd32vw55x_adc.c ****     case ADC_INT_FLAG_WDE:
 928:../Firmware/GD32VW55x_standard_peripheral/Source/gd32vw55x_adc.c ****         /* get the ADC analog watchdog interrupt bits */
 929:../Firmware/GD32VW55x_standard_peripheral/Source/gd32vw55x_adc.c ****         state = ADC_STAT & ADC_STAT_WDE;
 930:../Firmware/GD32VW55x_standard_peripheral/Source/gd32vw55x_adc.c ****         if((ADC_CTL0 & ADC_CTL0_WDEIE) && state){
 931:../Firmware/GD32VW55x_standard_peripheral/Source/gd32vw55x_adc.c ****           interrupt_flag = SET;
 932:../Firmware/GD32VW55x_standard_peripheral/Source/gd32vw55x_adc.c ****         }
 933:../Firmware/GD32VW55x_standard_peripheral/Source/gd32vw55x_adc.c ****         break;
 934:../Firmware/GD32VW55x_standard_peripheral/Source/gd32vw55x_adc.c ****     case ADC_INT_FLAG_EOC:
 935:../Firmware/GD32VW55x_standard_peripheral/Source/gd32vw55x_adc.c ****          /* get the ADC end of group conversion interrupt bits */
 936:../Firmware/GD32VW55x_standard_peripheral/Source/gd32vw55x_adc.c ****         state = ADC_STAT & ADC_STAT_EOC;
 937:../Firmware/GD32VW55x_standard_peripheral/Source/gd32vw55x_adc.c ****           if((ADC_CTL0 & ADC_CTL0_EOCIE) && state){
 938:../Firmware/GD32VW55x_standard_peripheral/Source/gd32vw55x_adc.c ****             interrupt_flag = SET;
 939:../Firmware/GD32VW55x_standard_peripheral/Source/gd32vw55x_adc.c ****           }
 940:../Firmware/GD32VW55x_standard_peripheral/Source/gd32vw55x_adc.c ****         break;
 941:../Firmware/GD32VW55x_standard_peripheral/Source/gd32vw55x_adc.c ****     case ADC_INT_FLAG_EOIC:
 942:../Firmware/GD32VW55x_standard_peripheral/Source/gd32vw55x_adc.c ****         /* get the ADC end of inserted group conversion interrupt bits */
 943:../Firmware/GD32VW55x_standard_peripheral/Source/gd32vw55x_adc.c ****         state = ADC_STAT & ADC_STAT_EOIC;
 944:../Firmware/GD32VW55x_standard_peripheral/Source/gd32vw55x_adc.c ****         if((ADC_CTL0 & ADC_CTL0_EOICIE) && state){
 945:../Firmware/GD32VW55x_standard_peripheral/Source/gd32vw55x_adc.c ****             interrupt_flag = SET;
 946:../Firmware/GD32VW55x_standard_peripheral/Source/gd32vw55x_adc.c ****         }
 947:../Firmware/GD32VW55x_standard_peripheral/Source/gd32vw55x_adc.c ****         break;
 948:../Firmware/GD32VW55x_standard_peripheral/Source/gd32vw55x_adc.c ****     case ADC_INT_FLAG_ROVF:
 949:../Firmware/GD32VW55x_standard_peripheral/Source/gd32vw55x_adc.c ****         /* get the ADC routine data register overflow interrupt bits */
 950:../Firmware/GD32VW55x_standard_peripheral/Source/gd32vw55x_adc.c ****         state = ADC_STAT & ADC_STAT_ROVF;
 951:../Firmware/GD32VW55x_standard_peripheral/Source/gd32vw55x_adc.c ****         if((ADC_CTL0 & ADC_CTL0_ROVFIE) && state){
 952:../Firmware/GD32VW55x_standard_peripheral/Source/gd32vw55x_adc.c ****           interrupt_flag = SET;
 953:../Firmware/GD32VW55x_standard_peripheral/Source/gd32vw55x_adc.c ****         }
 954:../Firmware/GD32VW55x_standard_peripheral/Source/gd32vw55x_adc.c ****         break;
 955:../Firmware/GD32VW55x_standard_peripheral/Source/gd32vw55x_adc.c ****     default:
 956:../Firmware/GD32VW55x_standard_peripheral/Source/gd32vw55x_adc.c ****         break;
 2344              		.loc 1 956 9
 2345 004e 5DA0     		j	.L130
 2346              	.L122:
 929:../Firmware/GD32VW55x_standard_peripheral/Source/gd32vw55x_adc.c ****         if((ADC_CTL0 & ADC_CTL0_WDEIE) && state){
 2347              		.loc 1 929 17
 2348 0050 B7270140 		li	a5,1073815552
 2349 0054 9C43     		lw	a5,0(a5)
 929:../Firmware/GD32VW55x_standard_peripheral/Source/gd32vw55x_adc.c ****         if((ADC_CTL0 & ADC_CTL0_WDEIE) && state){
 2350              		.loc 1 929 15
 2351 0056 858B     		andi	a5,a5,1
 2352 0058 2324F4FE 		sw	a5,-24(s0)
 930:../Firmware/GD32VW55x_standard_peripheral/Source/gd32vw55x_adc.c ****           interrupt_flag = SET;
 2353              		.loc 1 930 13
 2354 005c B7270140 		li	a5,1073815552
 2355 0060 9107     		addi	a5,a5,4
 2356 0062 9C43     		lw	a5,0(a5)
 930:../Firmware/GD32VW55x_standard_peripheral/Source/gd32vw55x_adc.c ****           interrupt_flag = SET;
 2357              		.loc 1 930 22
 2358 0064 93F70704 		andi	a5,a5,64
 930:../Firmware/GD32VW55x_standard_peripheral/Source/gd32vw55x_adc.c ****           interrupt_flag = SET;
 2359              		.loc 1 930 11
 2360 0068 C1CB     		beq	a5,zero,.L131
 930:../Firmware/GD32VW55x_standard_peripheral/Source/gd32vw55x_adc.c ****           interrupt_flag = SET;
 2361              		.loc 1 930 40 discriminator 1
 2362 006a 832784FE 		lw	a5,-24(s0)
 2363 006e C9C7     		beq	a5,zero,.L131
 931:../Firmware/GD32VW55x_standard_peripheral/Source/gd32vw55x_adc.c ****         }
 2364              		.loc 1 931 26
 2365 0070 8547     		li	a5,1
 2366 0072 2326F4FE 		sw	a5,-20(s0)
 933:../Firmware/GD32VW55x_standard_peripheral/Source/gd32vw55x_adc.c ****     case ADC_INT_FLAG_EOC:
 2367              		.loc 1 933 9
 2368 0076 49A0     		j	.L131
 2369              	.L123:
 936:../Firmware/GD32VW55x_standard_peripheral/Source/gd32vw55x_adc.c ****           if((ADC_CTL0 & ADC_CTL0_EOCIE) && state){
 2370              		.loc 1 936 17
 2371 0078 B7270140 		li	a5,1073815552
 2372 007c 9C43     		lw	a5,0(a5)
 936:../Firmware/GD32VW55x_standard_peripheral/Source/gd32vw55x_adc.c ****           if((ADC_CTL0 & ADC_CTL0_EOCIE) && state){
 2373              		.loc 1 936 15
 2374 007e 898B     		andi	a5,a5,2
 2375 0080 2324F4FE 		sw	a5,-24(s0)
 937:../Firmware/GD32VW55x_standard_peripheral/Source/gd32vw55x_adc.c ****             interrupt_flag = SET;
 2376              		.loc 1 937 15
 2377 0084 B7270140 		li	a5,1073815552
 2378 0088 9107     		addi	a5,a5,4
 2379 008a 9C43     		lw	a5,0(a5)
 937:../Firmware/GD32VW55x_standard_peripheral/Source/gd32vw55x_adc.c ****             interrupt_flag = SET;
 2380              		.loc 1 937 24
 2381 008c 93F70702 		andi	a5,a5,32
 937:../Firmware/GD32VW55x_standard_peripheral/Source/gd32vw55x_adc.c ****             interrupt_flag = SET;
 2382              		.loc 1 937 13
 2383 0090 B5C7     		beq	a5,zero,.L132
 937:../Firmware/GD32VW55x_standard_peripheral/Source/gd32vw55x_adc.c ****             interrupt_flag = SET;
 2384              		.loc 1 937 42 discriminator 1
 2385 0092 832784FE 		lw	a5,-24(s0)
 2386 0096 BDC3     		beq	a5,zero,.L132
 938:../Firmware/GD32VW55x_standard_peripheral/Source/gd32vw55x_adc.c ****           }
 2387              		.loc 1 938 28
 2388 0098 8547     		li	a5,1
 2389 009a 2326F4FE 		sw	a5,-20(s0)
 940:../Firmware/GD32VW55x_standard_peripheral/Source/gd32vw55x_adc.c ****     case ADC_INT_FLAG_EOIC:
 2390              		.loc 1 940 9
 2391 009e B9A8     		j	.L132
 2392              	.L121:
 943:../Firmware/GD32VW55x_standard_peripheral/Source/gd32vw55x_adc.c ****         if((ADC_CTL0 & ADC_CTL0_EOICIE) && state){
 2393              		.loc 1 943 17
 2394 00a0 B7270140 		li	a5,1073815552
 2395 00a4 9C43     		lw	a5,0(a5)
 943:../Firmware/GD32VW55x_standard_peripheral/Source/gd32vw55x_adc.c ****         if((ADC_CTL0 & ADC_CTL0_EOICIE) && state){
 2396              		.loc 1 943 15
 2397 00a6 918B     		andi	a5,a5,4
 2398 00a8 2324F4FE 		sw	a5,-24(s0)
 944:../Firmware/GD32VW55x_standard_peripheral/Source/gd32vw55x_adc.c ****             interrupt_flag = SET;
 2399              		.loc 1 944 13
 2400 00ac B7270140 		li	a5,1073815552
 2401 00b0 9107     		addi	a5,a5,4
 2402 00b2 9C43     		lw	a5,0(a5)
 944:../Firmware/GD32VW55x_standard_peripheral/Source/gd32vw55x_adc.c ****             interrupt_flag = SET;
 2403              		.loc 1 944 22
 2404 00b4 93F70708 		andi	a5,a5,128
 944:../Firmware/GD32VW55x_standard_peripheral/Source/gd32vw55x_adc.c ****             interrupt_flag = SET;
 2405              		.loc 1 944 11
 2406 00b8 A1C7     		beq	a5,zero,.L133
 944:../Firmware/GD32VW55x_standard_peripheral/Source/gd32vw55x_adc.c ****             interrupt_flag = SET;
 2407              		.loc 1 944 41 discriminator 1
 2408 00ba 832784FE 		lw	a5,-24(s0)
 2409 00be A9C3     		beq	a5,zero,.L133
 945:../Firmware/GD32VW55x_standard_peripheral/Source/gd32vw55x_adc.c ****         }
 2410              		.loc 1 945 28
 2411 00c0 8547     		li	a5,1
 2412 00c2 2326F4FE 		sw	a5,-20(s0)
 947:../Firmware/GD32VW55x_standard_peripheral/Source/gd32vw55x_adc.c ****     case ADC_INT_FLAG_ROVF:
 2413              		.loc 1 947 9
 2414 00c6 2DA8     		j	.L133
 2415              	.L119:
 950:../Firmware/GD32VW55x_standard_peripheral/Source/gd32vw55x_adc.c ****         if((ADC_CTL0 & ADC_CTL0_ROVFIE) && state){
 2416              		.loc 1 950 17
 2417 00c8 B7270140 		li	a5,1073815552
 2418 00cc 9C43     		lw	a5,0(a5)
 950:../Firmware/GD32VW55x_standard_peripheral/Source/gd32vw55x_adc.c ****         if((ADC_CTL0 & ADC_CTL0_ROVFIE) && state){
 2419              		.loc 1 950 15
 2420 00ce 93F70702 		andi	a5,a5,32
 2421 00d2 2324F4FE 		sw	a5,-24(s0)
 951:../Firmware/GD32VW55x_standard_peripheral/Source/gd32vw55x_adc.c ****           interrupt_flag = SET;
 2422              		.loc 1 951 13
 2423 00d6 B7270140 		li	a5,1073815552
 2424 00da 9107     		addi	a5,a5,4
 2425 00dc 9843     		lw	a4,0(a5)
 951:../Firmware/GD32VW55x_standard_peripheral/Source/gd32vw55x_adc.c ****           interrupt_flag = SET;
 2426              		.loc 1 951 22
 2427 00de B7070004 		li	a5,67108864
 2428 00e2 F98F     		and	a5,a4,a5
 951:../Firmware/GD32VW55x_standard_peripheral/Source/gd32vw55x_adc.c ****           interrupt_flag = SET;
 2429              		.loc 1 951 11
 2430 00e4 85C3     		beq	a5,zero,.L134
 951:../Firmware/GD32VW55x_standard_peripheral/Source/gd32vw55x_adc.c ****           interrupt_flag = SET;
 2431              		.loc 1 951 41 discriminator 1
 2432 00e6 832784FE 		lw	a5,-24(s0)
 2433 00ea 89CF     		beq	a5,zero,.L134
 952:../Firmware/GD32VW55x_standard_peripheral/Source/gd32vw55x_adc.c ****         }
 2434              		.loc 1 952 26
 2435 00ec 8547     		li	a5,1
 2436 00ee 2326F4FE 		sw	a5,-20(s0)
 954:../Firmware/GD32VW55x_standard_peripheral/Source/gd32vw55x_adc.c ****     default:
 2437              		.loc 1 954 9
 2438 00f2 09A8     		j	.L134
 2439              	.L130:
 2440              		.loc 1 956 9
 2441 00f4 0100     		nop
 2442 00f6 01A8     		j	.L125
 2443              	.L131:
 933:../Firmware/GD32VW55x_standard_peripheral/Source/gd32vw55x_adc.c ****     case ADC_INT_FLAG_EOC:
 2444              		.loc 1 933 9
 2445 00f8 0100     		nop
 2446 00fa 31A0     		j	.L125
 2447              	.L132:
 940:../Firmware/GD32VW55x_standard_peripheral/Source/gd32vw55x_adc.c ****     case ADC_INT_FLAG_EOIC:
 2448              		.loc 1 940 9
 2449 00fc 0100     		nop
 2450 00fe 21A0     		j	.L125
 2451              	.L133:
 947:../Firmware/GD32VW55x_standard_peripheral/Source/gd32vw55x_adc.c ****     case ADC_INT_FLAG_ROVF:
 2452              		.loc 1 947 9
 2453 0100 0100     		nop
 2454 0102 11A0     		j	.L125
 2455              	.L134:
 954:../Firmware/GD32VW55x_standard_peripheral/Source/gd32vw55x_adc.c ****     default:
 2456              		.loc 1 954 9
 2457 0104 0100     		nop
 2458              	.L125:
 957:../Firmware/GD32VW55x_standard_peripheral/Source/gd32vw55x_adc.c ****     }
 958:../Firmware/GD32VW55x_standard_peripheral/Source/gd32vw55x_adc.c ****     return interrupt_flag;
 2459              		.loc 1 958 12
 2460 0106 8327C4FE 		lw	a5,-20(s0)
 959:../Firmware/GD32VW55x_standard_peripheral/Source/gd32vw55x_adc.c **** }
 2461              		.loc 1 959 1
 2462 010a 3E85     		mv	a0,a5
 2463 010c 3254     		lw	s0,44(sp)
 2464              		.cfi_restore 8
 2465              		.cfi_def_cfa 2, 48
 2466 010e 4561     		addi	sp,sp,48
 2467              		.cfi_def_cfa_offset 0
 2468 0110 8280     		jr	ra
 2469              		.cfi_endproc
 2470              	.LFE382:
 2472              		.section	.text.adc_interrupt_flag_clear,"ax",@progbits
 2473              		.align	1
 2474              		.globl	adc_interrupt_flag_clear
 2476              	adc_interrupt_flag_clear:
 2477              	.LFB383:
 960:../Firmware/GD32VW55x_standard_peripheral/Source/gd32vw55x_adc.c **** 
 961:../Firmware/GD32VW55x_standard_peripheral/Source/gd32vw55x_adc.c **** /*!
 962:../Firmware/GD32VW55x_standard_peripheral/Source/gd32vw55x_adc.c ****     \brief      clear ADC interrupt flag
 963:../Firmware/GD32VW55x_standard_peripheral/Source/gd32vw55x_adc.c ****     \param[in]  int_flag: the ADC interrupt flag
 964:../Firmware/GD32VW55x_standard_peripheral/Source/gd32vw55x_adc.c ****                 only one parameter can be selected which is shown as below:
 965:../Firmware/GD32VW55x_standard_peripheral/Source/gd32vw55x_adc.c ****       \arg        ADC_INT_FLAG_WDE: analog watchdog interrupt flag
 966:../Firmware/GD32VW55x_standard_peripheral/Source/gd32vw55x_adc.c ****       \arg        ADC_INT_FLAG_EOC: end of group conversion interrupt flag
 967:../Firmware/GD32VW55x_standard_peripheral/Source/gd32vw55x_adc.c ****       \arg        ADC_INT_FLAG_EOIC: end of inserted group conversion interrupt flag
 968:../Firmware/GD32VW55x_standard_peripheral/Source/gd32vw55x_adc.c ****       \arg        ADC_INT_FLAG_ROVF: routine data register overflow interrupt flag
 969:../Firmware/GD32VW55x_standard_peripheral/Source/gd32vw55x_adc.c ****     \param[out] none
 970:../Firmware/GD32VW55x_standard_peripheral/Source/gd32vw55x_adc.c ****     \retval     none
 971:../Firmware/GD32VW55x_standard_peripheral/Source/gd32vw55x_adc.c **** */
 972:../Firmware/GD32VW55x_standard_peripheral/Source/gd32vw55x_adc.c **** void adc_interrupt_flag_clear(uint32_t int_flag)
 973:../Firmware/GD32VW55x_standard_peripheral/Source/gd32vw55x_adc.c **** {
 2478              		.loc 1 973 1
 2479              		.cfi_startproc
 2480 0000 0111     		addi	sp,sp,-32
 2481              		.cfi_def_cfa_offset 32
 2482 0002 22CE     		sw	s0,28(sp)
 2483              		.cfi_offset 8, -4
 2484 0004 0010     		addi	s0,sp,32
 2485              		.cfi_def_cfa 8, 0
 2486 0006 2326A4FE 		sw	a0,-20(s0)
 974:../Firmware/GD32VW55x_standard_peripheral/Source/gd32vw55x_adc.c ****     ADC_STAT = ~((uint32_t)int_flag);
 2487              		.loc 1 974 5
 2488 000a B7270140 		li	a5,1073815552
 2489              		.loc 1 974 16
 2490 000e 0327C4FE 		lw	a4,-20(s0)
 2491 0012 1347F7FF 		not	a4,a4
 2492              		.loc 1 974 14
 2493 0016 98C3     		sw	a4,0(a5)
 975:../Firmware/GD32VW55x_standard_peripheral/Source/gd32vw55x_adc.c **** }
 2494              		.loc 1 975 1
 2495 0018 0100     		nop
 2496 001a 7244     		lw	s0,28(sp)
 2497              		.cfi_restore 8
 2498              		.cfi_def_cfa 2, 32
 2499 001c 0561     		addi	sp,sp,32
 2500              		.cfi_def_cfa_offset 0
 2501 001e 8280     		jr	ra
 2502              		.cfi_endproc
 2503              	.LFE383:
 2505              		.text
 2506              	.Letext0:
 2507              		.file 2 "e:\\gd32\\gd32embeddedbuilder_v1.5.2.30854\\tools\\nuclei_riscv_newlibc_prebuilt_win32_20
 2508              		.file 3 "e:\\gd32\\gd32embeddedbuilder_v1.5.2.30854\\tools\\nuclei_riscv_newlibc_prebuilt_win32_20
 2509              		.file 4 "../Firmware/GD32VW55x_standard_peripheral/gd32vw55x.h"
 2510              		.file 5 "../Firmware/GD32VW55x_standard_peripheral/Include/gd32vw55x_rcu.h"
DEFINED SYMBOLS
                            *ABS*:0000000000000000 gd32vw55x_adc.c
C:\Users\CYMR90~1\AppData\Local\Temp\ccmBQqfl.s:13     .text.adc_deinit:0000000000000000 adc_deinit
C:\Users\CYMR90~1\AppData\Local\Temp\ccmBQqfl.s:17     .text.adc_deinit:0000000000000000 .L0 
C:\Users\CYMR90~1\AppData\Local\Temp\ccmBQqfl.s:18     .text.adc_deinit:0000000000000000 .L0 
C:\Users\CYMR90~1\AppData\Local\Temp\ccmBQqfl.s:19     .text.adc_deinit:0000000000000002 .L0 
C:\Users\CYMR90~1\AppData\Local\Temp\ccmBQqfl.s:22     .text.adc_deinit:0000000000000006 .L0 
C:\Users\CYMR90~1\AppData\Local\Temp\ccmBQqfl.s:23     .text.adc_deinit:0000000000000006 .L0 
C:\Users\CYMR90~1\AppData\Local\Temp\ccmBQqfl.s:25     .text.adc_deinit:0000000000000008 .L0 
C:\Users\CYMR90~1\AppData\Local\Temp\ccmBQqfl.s:27     .text.adc_deinit:0000000000000008 .L0 
C:\Users\CYMR90~1\AppData\Local\Temp\ccmBQqfl.s:31     .text.adc_deinit:0000000000000016 .L0 
C:\Users\CYMR90~1\AppData\Local\Temp\ccmBQqfl.s:35     .text.adc_deinit:0000000000000024 .L0 
C:\Users\CYMR90~1\AppData\Local\Temp\ccmBQqfl.s:37     .text.adc_deinit:0000000000000028 .L0 
C:\Users\CYMR90~1\AppData\Local\Temp\ccmBQqfl.s:39     .text.adc_deinit:000000000000002a .L0 
C:\Users\CYMR90~1\AppData\Local\Temp\ccmBQqfl.s:40     .text.adc_deinit:000000000000002a .L0 
C:\Users\CYMR90~1\AppData\Local\Temp\ccmBQqfl.s:42     .text.adc_deinit:000000000000002c .L0 
C:\Users\CYMR90~1\AppData\Local\Temp\ccmBQqfl.s:44     .text.adc_deinit:000000000000002e .L0 
C:\Users\CYMR90~1\AppData\Local\Temp\ccmBQqfl.s:51     .text.adc_clock_config:0000000000000000 adc_clock_config
C:\Users\CYMR90~1\AppData\Local\Temp\ccmBQqfl.s:54     .text.adc_clock_config:0000000000000000 .L0 
C:\Users\CYMR90~1\AppData\Local\Temp\ccmBQqfl.s:55     .text.adc_clock_config:0000000000000000 .L0 
C:\Users\CYMR90~1\AppData\Local\Temp\ccmBQqfl.s:56     .text.adc_clock_config:0000000000000002 .L0 
C:\Users\CYMR90~1\AppData\Local\Temp\ccmBQqfl.s:58     .text.adc_clock_config:0000000000000004 .L0 
C:\Users\CYMR90~1\AppData\Local\Temp\ccmBQqfl.s:60     .text.adc_clock_config:0000000000000006 .L0 
C:\Users\CYMR90~1\AppData\Local\Temp\ccmBQqfl.s:63     .text.adc_clock_config:000000000000000a .L0 
C:\Users\CYMR90~1\AppData\Local\Temp\ccmBQqfl.s:73     .text.adc_clock_config:0000000000000026 .L0 
C:\Users\CYMR90~1\AppData\Local\Temp\ccmBQqfl.s:82     .text.adc_clock_config:0000000000000040 .L0 
C:\Users\CYMR90~1\AppData\Local\Temp\ccmBQqfl.s:84     .text.adc_clock_config:0000000000000044 .L0 
C:\Users\CYMR90~1\AppData\Local\Temp\ccmBQqfl.s:85     .text.adc_clock_config:0000000000000044 .L0 
C:\Users\CYMR90~1\AppData\Local\Temp\ccmBQqfl.s:87     .text.adc_clock_config:0000000000000046 .L0 
C:\Users\CYMR90~1\AppData\Local\Temp\ccmBQqfl.s:89     .text.adc_clock_config:0000000000000048 .L0 
C:\Users\CYMR90~1\AppData\Local\Temp\ccmBQqfl.s:96     .text.adc_enable:0000000000000000 adc_enable
C:\Users\CYMR90~1\AppData\Local\Temp\ccmBQqfl.s:99     .text.adc_enable:0000000000000000 .L0 
C:\Users\CYMR90~1\AppData\Local\Temp\ccmBQqfl.s:100    .text.adc_enable:0000000000000000 .L0 
C:\Users\CYMR90~1\AppData\Local\Temp\ccmBQqfl.s:101    .text.adc_enable:0000000000000002 .L0 
C:\Users\CYMR90~1\AppData\Local\Temp\ccmBQqfl.s:103    .text.adc_enable:0000000000000004 .L0 
C:\Users\CYMR90~1\AppData\Local\Temp\ccmBQqfl.s:105    .text.adc_enable:0000000000000006 .L0 
C:\Users\CYMR90~1\AppData\Local\Temp\ccmBQqfl.s:107    .text.adc_enable:0000000000000006 .L0 
C:\Users\CYMR90~1\AppData\Local\Temp\ccmBQqfl.s:111    .text.adc_enable:000000000000000e .L0 
C:\Users\CYMR90~1\AppData\Local\Temp\ccmBQqfl.s:113    .text.adc_enable:0000000000000010 .L0 
C:\Users\CYMR90~1\AppData\Local\Temp\ccmBQqfl.s:115    .text.adc_enable:0000000000000012 .L0 
C:\Users\CYMR90~1\AppData\Local\Temp\ccmBQqfl.s:124    .text.adc_enable:0000000000000026 .L0 
C:\Users\CYMR90~1\AppData\Local\Temp\ccmBQqfl.s:126    .text.adc_enable:000000000000002a .L0 
C:\Users\CYMR90~1\AppData\Local\Temp\ccmBQqfl.s:127    .text.adc_enable:000000000000002a .L0 
C:\Users\CYMR90~1\AppData\Local\Temp\ccmBQqfl.s:129    .text.adc_enable:000000000000002c .L0 
C:\Users\CYMR90~1\AppData\Local\Temp\ccmBQqfl.s:131    .text.adc_enable:000000000000002e .L0 
C:\Users\CYMR90~1\AppData\Local\Temp\ccmBQqfl.s:138    .text.adc_disable:0000000000000000 adc_disable
C:\Users\CYMR90~1\AppData\Local\Temp\ccmBQqfl.s:141    .text.adc_disable:0000000000000000 .L0 
C:\Users\CYMR90~1\AppData\Local\Temp\ccmBQqfl.s:142    .text.adc_disable:0000000000000000 .L0 
C:\Users\CYMR90~1\AppData\Local\Temp\ccmBQqfl.s:143    .text.adc_disable:0000000000000002 .L0 
C:\Users\CYMR90~1\AppData\Local\Temp\ccmBQqfl.s:145    .text.adc_disable:0000000000000004 .L0 
C:\Users\CYMR90~1\AppData\Local\Temp\ccmBQqfl.s:147    .text.adc_disable:0000000000000006 .L0 
C:\Users\CYMR90~1\AppData\Local\Temp\ccmBQqfl.s:149    .text.adc_disable:0000000000000006 .L0 
C:\Users\CYMR90~1\AppData\Local\Temp\ccmBQqfl.s:157    .text.adc_disable:0000000000000018 .L0 
C:\Users\CYMR90~1\AppData\Local\Temp\ccmBQqfl.s:159    .text.adc_disable:000000000000001c .L0 
C:\Users\CYMR90~1\AppData\Local\Temp\ccmBQqfl.s:160    .text.adc_disable:000000000000001c .L0 
C:\Users\CYMR90~1\AppData\Local\Temp\ccmBQqfl.s:162    .text.adc_disable:000000000000001e .L0 
C:\Users\CYMR90~1\AppData\Local\Temp\ccmBQqfl.s:164    .text.adc_disable:0000000000000020 .L0 
C:\Users\CYMR90~1\AppData\Local\Temp\ccmBQqfl.s:171    .text.adc_dma_mode_enable:0000000000000000 adc_dma_mode_enable
C:\Users\CYMR90~1\AppData\Local\Temp\ccmBQqfl.s:174    .text.adc_dma_mode_enable:0000000000000000 .L0 
C:\Users\CYMR90~1\AppData\Local\Temp\ccmBQqfl.s:175    .text.adc_dma_mode_enable:0000000000000000 .L0 
C:\Users\CYMR90~1\AppData\Local\Temp\ccmBQqfl.s:176    .text.adc_dma_mode_enable:0000000000000002 .L0 
C:\Users\CYMR90~1\AppData\Local\Temp\ccmBQqfl.s:178    .text.adc_dma_mode_enable:0000000000000004 .L0 
C:\Users\CYMR90~1\AppData\Local\Temp\ccmBQqfl.s:180    .text.adc_dma_mode_enable:0000000000000006 .L0 
C:\Users\CYMR90~1\AppData\Local\Temp\ccmBQqfl.s:182    .text.adc_dma_mode_enable:0000000000000006 .L0 
C:\Users\CYMR90~1\AppData\Local\Temp\ccmBQqfl.s:190    .text.adc_dma_mode_enable:000000000000001a .L0 
C:\Users\CYMR90~1\AppData\Local\Temp\ccmBQqfl.s:192    .text.adc_dma_mode_enable:000000000000001e .L0 
C:\Users\CYMR90~1\AppData\Local\Temp\ccmBQqfl.s:193    .text.adc_dma_mode_enable:000000000000001e .L0 
C:\Users\CYMR90~1\AppData\Local\Temp\ccmBQqfl.s:195    .text.adc_dma_mode_enable:0000000000000020 .L0 
C:\Users\CYMR90~1\AppData\Local\Temp\ccmBQqfl.s:197    .text.adc_dma_mode_enable:0000000000000022 .L0 
C:\Users\CYMR90~1\AppData\Local\Temp\ccmBQqfl.s:204    .text.adc_dma_mode_disable:0000000000000000 adc_dma_mode_disable
C:\Users\CYMR90~1\AppData\Local\Temp\ccmBQqfl.s:207    .text.adc_dma_mode_disable:0000000000000000 .L0 
C:\Users\CYMR90~1\AppData\Local\Temp\ccmBQqfl.s:208    .text.adc_dma_mode_disable:0000000000000000 .L0 
C:\Users\CYMR90~1\AppData\Local\Temp\ccmBQqfl.s:209    .text.adc_dma_mode_disable:0000000000000002 .L0 
C:\Users\CYMR90~1\AppData\Local\Temp\ccmBQqfl.s:211    .text.adc_dma_mode_disable:0000000000000004 .L0 
C:\Users\CYMR90~1\AppData\Local\Temp\ccmBQqfl.s:213    .text.adc_dma_mode_disable:0000000000000006 .L0 
C:\Users\CYMR90~1\AppData\Local\Temp\ccmBQqfl.s:215    .text.adc_dma_mode_disable:0000000000000006 .L0 
C:\Users\CYMR90~1\AppData\Local\Temp\ccmBQqfl.s:223    .text.adc_dma_mode_disable:000000000000001a .L0 
C:\Users\CYMR90~1\AppData\Local\Temp\ccmBQqfl.s:225    .text.adc_dma_mode_disable:000000000000001e .L0 
C:\Users\CYMR90~1\AppData\Local\Temp\ccmBQqfl.s:226    .text.adc_dma_mode_disable:000000000000001e .L0 
C:\Users\CYMR90~1\AppData\Local\Temp\ccmBQqfl.s:228    .text.adc_dma_mode_disable:0000000000000020 .L0 
C:\Users\CYMR90~1\AppData\Local\Temp\ccmBQqfl.s:230    .text.adc_dma_mode_disable:0000000000000022 .L0 
C:\Users\CYMR90~1\AppData\Local\Temp\ccmBQqfl.s:237    .text.adc_dma_request_after_last_enable:0000000000000000 adc_dma_request_after_last_enable
C:\Users\CYMR90~1\AppData\Local\Temp\ccmBQqfl.s:240    .text.adc_dma_request_after_last_enable:0000000000000000 .L0 
C:\Users\CYMR90~1\AppData\Local\Temp\ccmBQqfl.s:241    .text.adc_dma_request_after_last_enable:0000000000000000 .L0 
C:\Users\CYMR90~1\AppData\Local\Temp\ccmBQqfl.s:242    .text.adc_dma_request_after_last_enable:0000000000000002 .L0 
C:\Users\CYMR90~1\AppData\Local\Temp\ccmBQqfl.s:244    .text.adc_dma_request_after_last_enable:0000000000000004 .L0 
C:\Users\CYMR90~1\AppData\Local\Temp\ccmBQqfl.s:246    .text.adc_dma_request_after_last_enable:0000000000000006 .L0 
C:\Users\CYMR90~1\AppData\Local\Temp\ccmBQqfl.s:248    .text.adc_dma_request_after_last_enable:0000000000000006 .L0 
C:\Users\CYMR90~1\AppData\Local\Temp\ccmBQqfl.s:256    .text.adc_dma_request_after_last_enable:000000000000001a .L0 
C:\Users\CYMR90~1\AppData\Local\Temp\ccmBQqfl.s:258    .text.adc_dma_request_after_last_enable:000000000000001e .L0 
C:\Users\CYMR90~1\AppData\Local\Temp\ccmBQqfl.s:259    .text.adc_dma_request_after_last_enable:000000000000001e .L0 
C:\Users\CYMR90~1\AppData\Local\Temp\ccmBQqfl.s:261    .text.adc_dma_request_after_last_enable:0000000000000020 .L0 
C:\Users\CYMR90~1\AppData\Local\Temp\ccmBQqfl.s:263    .text.adc_dma_request_after_last_enable:0000000000000022 .L0 
C:\Users\CYMR90~1\AppData\Local\Temp\ccmBQqfl.s:270    .text.adc_dma_request_after_last_disable:0000000000000000 adc_dma_request_after_last_disable
C:\Users\CYMR90~1\AppData\Local\Temp\ccmBQqfl.s:273    .text.adc_dma_request_after_last_disable:0000000000000000 .L0 
C:\Users\CYMR90~1\AppData\Local\Temp\ccmBQqfl.s:274    .text.adc_dma_request_after_last_disable:0000000000000000 .L0 
C:\Users\CYMR90~1\AppData\Local\Temp\ccmBQqfl.s:275    .text.adc_dma_request_after_last_disable:0000000000000002 .L0 
C:\Users\CYMR90~1\AppData\Local\Temp\ccmBQqfl.s:277    .text.adc_dma_request_after_last_disable:0000000000000004 .L0 
C:\Users\CYMR90~1\AppData\Local\Temp\ccmBQqfl.s:279    .text.adc_dma_request_after_last_disable:0000000000000006 .L0 
C:\Users\CYMR90~1\AppData\Local\Temp\ccmBQqfl.s:281    .text.adc_dma_request_after_last_disable:0000000000000006 .L0 
C:\Users\CYMR90~1\AppData\Local\Temp\ccmBQqfl.s:289    .text.adc_dma_request_after_last_disable:000000000000001a .L0 
C:\Users\CYMR90~1\AppData\Local\Temp\ccmBQqfl.s:291    .text.adc_dma_request_after_last_disable:000000000000001e .L0 
C:\Users\CYMR90~1\AppData\Local\Temp\ccmBQqfl.s:292    .text.adc_dma_request_after_last_disable:000000000000001e .L0 
C:\Users\CYMR90~1\AppData\Local\Temp\ccmBQqfl.s:294    .text.adc_dma_request_after_last_disable:0000000000000020 .L0 
C:\Users\CYMR90~1\AppData\Local\Temp\ccmBQqfl.s:296    .text.adc_dma_request_after_last_disable:0000000000000022 .L0 
C:\Users\CYMR90~1\AppData\Local\Temp\ccmBQqfl.s:303    .text.adc_discontinuous_mode_config:0000000000000000 adc_discontinuous_mode_config
C:\Users\CYMR90~1\AppData\Local\Temp\ccmBQqfl.s:306    .text.adc_discontinuous_mode_config:0000000000000000 .L0 
C:\Users\CYMR90~1\AppData\Local\Temp\ccmBQqfl.s:307    .text.adc_discontinuous_mode_config:0000000000000000 .L0 
C:\Users\CYMR90~1\AppData\Local\Temp\ccmBQqfl.s:308    .text.adc_discontinuous_mode_config:0000000000000002 .L0 
C:\Users\CYMR90~1\AppData\Local\Temp\ccmBQqfl.s:310    .text.adc_discontinuous_mode_config:0000000000000004 .L0 
C:\Users\CYMR90~1\AppData\Local\Temp\ccmBQqfl.s:312    .text.adc_discontinuous_mode_config:0000000000000006 .L0 
C:\Users\CYMR90~1\AppData\Local\Temp\ccmBQqfl.s:319    .text.adc_discontinuous_mode_config:0000000000000014 .L0 
C:\Users\CYMR90~1\AppData\Local\Temp\ccmBQqfl.s:329    .text.adc_discontinuous_mode_config:000000000000002c .L0 
C:\Users\CYMR90~1\AppData\Local\Temp\ccmBQqfl.s:335    .text.adc_discontinuous_mode_config:000000000000003c .L0 
C:\Users\CYMR90~1\AppData\Local\Temp\ccmBQqfl.s:338    .text.adc_discontinuous_mode_config:000000000000003e .L0 
C:\Users\CYMR90~1\AppData\Local\Temp\ccmBQqfl.s:348    .text.adc_discontinuous_mode_config:0000000000000054 .L0 
C:\Users\CYMR90~1\AppData\Local\Temp\ccmBQqfl.s:352    .text.adc_discontinuous_mode_config:000000000000005e .L0 
C:\Users\CYMR90~1\AppData\Local\Temp\ccmBQqfl.s:355    .text.adc_discontinuous_mode_config:0000000000000064 .L0 
C:\Users\CYMR90~1\AppData\Local\Temp\ccmBQqfl.s:359    .text.adc_discontinuous_mode_config:000000000000006c .L0 
C:\Users\CYMR90~1\AppData\Local\Temp\ccmBQqfl.s:366    .text.adc_discontinuous_mode_config:000000000000007c .L0 
C:\Users\CYMR90~1\AppData\Local\Temp\ccmBQqfl.s:372    .text.adc_discontinuous_mode_config:0000000000000086 .L0 
C:\Users\CYMR90~1\AppData\Local\Temp\ccmBQqfl.s:382    .text.adc_discontinuous_mode_config:000000000000009e .L0 
C:\Users\CYMR90~1\AppData\Local\Temp\ccmBQqfl.s:385    .text.adc_discontinuous_mode_config:00000000000000a0 .L0 
C:\Users\CYMR90~1\AppData\Local\Temp\ccmBQqfl.s:394    .text.adc_discontinuous_mode_config:00000000000000b4 .L0 
C:\Users\CYMR90~1\AppData\Local\Temp\ccmBQqfl.s:397    .text.adc_discontinuous_mode_config:00000000000000b6 .L0 
C:\Users\CYMR90~1\AppData\Local\Temp\ccmBQqfl.s:399    .text.adc_discontinuous_mode_config:00000000000000ba .L0 
C:\Users\CYMR90~1\AppData\Local\Temp\ccmBQqfl.s:400    .text.adc_discontinuous_mode_config:00000000000000ba .L0 
C:\Users\CYMR90~1\AppData\Local\Temp\ccmBQqfl.s:402    .text.adc_discontinuous_mode_config:00000000000000bc .L0 
C:\Users\CYMR90~1\AppData\Local\Temp\ccmBQqfl.s:404    .text.adc_discontinuous_mode_config:00000000000000be .L0 
C:\Users\CYMR90~1\AppData\Local\Temp\ccmBQqfl.s:411    .text.adc_special_function_config:0000000000000000 adc_special_function_config
C:\Users\CYMR90~1\AppData\Local\Temp\ccmBQqfl.s:414    .text.adc_special_function_config:0000000000000000 .L0 
C:\Users\CYMR90~1\AppData\Local\Temp\ccmBQqfl.s:415    .text.adc_special_function_config:0000000000000000 .L0 
C:\Users\CYMR90~1\AppData\Local\Temp\ccmBQqfl.s:416    .text.adc_special_function_config:0000000000000002 .L0 
C:\Users\CYMR90~1\AppData\Local\Temp\ccmBQqfl.s:418    .text.adc_special_function_config:0000000000000004 .L0 
C:\Users\CYMR90~1\AppData\Local\Temp\ccmBQqfl.s:420    .text.adc_special_function_config:0000000000000006 .L0 
C:\Users\CYMR90~1\AppData\Local\Temp\ccmBQqfl.s:424    .text.adc_special_function_config:000000000000000e .L0 
C:\Users\CYMR90~1\AppData\Local\Temp\ccmBQqfl.s:427    .text.adc_special_function_config:0000000000000014 .L0 
C:\Users\CYMR90~1\AppData\Local\Temp\ccmBQqfl.s:430    .text.adc_special_function_config:000000000000001c .L0 
C:\Users\CYMR90~1\AppData\Local\Temp\ccmBQqfl.s:432    .text.adc_special_function_config:000000000000001e .L0 
C:\Users\CYMR90~1\AppData\Local\Temp\ccmBQqfl.s:441    .text.adc_special_function_config:0000000000000032 .L0 
C:\Users\CYMR90~1\AppData\Local\Temp\ccmBQqfl.s:444    .text.adc_special_function_config:000000000000003a .L0 
C:\Users\CYMR90~1\AppData\Local\Temp\ccmBQqfl.s:446    .text.adc_special_function_config:000000000000003c .L0 
C:\Users\CYMR90~1\AppData\Local\Temp\ccmBQqfl.s:455    .text.adc_special_function_config:0000000000000050 .L0 
C:\Users\CYMR90~1\AppData\Local\Temp\ccmBQqfl.s:458    .text.adc_special_function_config:0000000000000056 .L0 
C:\Users\CYMR90~1\AppData\Local\Temp\ccmBQqfl.s:460    .text.adc_special_function_config:0000000000000058 .L0 
C:\Users\CYMR90~1\AppData\Local\Temp\ccmBQqfl.s:468    .text.adc_special_function_config:000000000000006c .L0 
C:\Users\CYMR90~1\AppData\Local\Temp\ccmBQqfl.s:471    .text.adc_special_function_config:000000000000006e .L0 
C:\Users\CYMR90~1\AppData\Local\Temp\ccmBQqfl.s:474    .text.adc_special_function_config:0000000000000076 .L0 
C:\Users\CYMR90~1\AppData\Local\Temp\ccmBQqfl.s:476    .text.adc_special_function_config:0000000000000078 .L0 
C:\Users\CYMR90~1\AppData\Local\Temp\ccmBQqfl.s:485    .text.adc_special_function_config:000000000000008c .L0 
C:\Users\CYMR90~1\AppData\Local\Temp\ccmBQqfl.s:488    .text.adc_special_function_config:0000000000000094 .L0 
C:\Users\CYMR90~1\AppData\Local\Temp\ccmBQqfl.s:490    .text.adc_special_function_config:0000000000000096 .L0 
C:\Users\CYMR90~1\AppData\Local\Temp\ccmBQqfl.s:499    .text.adc_special_function_config:00000000000000aa .L0 
C:\Users\CYMR90~1\AppData\Local\Temp\ccmBQqfl.s:502    .text.adc_special_function_config:00000000000000b0 .L0 
C:\Users\CYMR90~1\AppData\Local\Temp\ccmBQqfl.s:504    .text.adc_special_function_config:00000000000000b2 .L0 
C:\Users\CYMR90~1\AppData\Local\Temp\ccmBQqfl.s:513    .text.adc_special_function_config:00000000000000c4 .L0 
C:\Users\CYMR90~1\AppData\Local\Temp\ccmBQqfl.s:515    .text.adc_special_function_config:00000000000000c8 .L0 
C:\Users\CYMR90~1\AppData\Local\Temp\ccmBQqfl.s:516    .text.adc_special_function_config:00000000000000c8 .L0 
C:\Users\CYMR90~1\AppData\Local\Temp\ccmBQqfl.s:518    .text.adc_special_function_config:00000000000000ca .L0 
C:\Users\CYMR90~1\AppData\Local\Temp\ccmBQqfl.s:520    .text.adc_special_function_config:00000000000000cc .L0 
C:\Users\CYMR90~1\AppData\Local\Temp\ccmBQqfl.s:527    .text.adc_tempsensor_vrefint_enable:0000000000000000 adc_tempsensor_vrefint_enable
C:\Users\CYMR90~1\AppData\Local\Temp\ccmBQqfl.s:530    .text.adc_tempsensor_vrefint_enable:0000000000000000 .L0 
C:\Users\CYMR90~1\AppData\Local\Temp\ccmBQqfl.s:531    .text.adc_tempsensor_vrefint_enable:0000000000000000 .L0 
C:\Users\CYMR90~1\AppData\Local\Temp\ccmBQqfl.s:532    .text.adc_tempsensor_vrefint_enable:0000000000000002 .L0 
C:\Users\CYMR90~1\AppData\Local\Temp\ccmBQqfl.s:534    .text.adc_tempsensor_vrefint_enable:0000000000000004 .L0 
C:\Users\CYMR90~1\AppData\Local\Temp\ccmBQqfl.s:536    .text.adc_tempsensor_vrefint_enable:0000000000000006 .L0 
C:\Users\CYMR90~1\AppData\Local\Temp\ccmBQqfl.s:538    .text.adc_tempsensor_vrefint_enable:0000000000000006 .L0 
C:\Users\CYMR90~1\AppData\Local\Temp\ccmBQqfl.s:547    .text.adc_tempsensor_vrefint_enable:0000000000000020 .L0 
C:\Users\CYMR90~1\AppData\Local\Temp\ccmBQqfl.s:549    .text.adc_tempsensor_vrefint_enable:0000000000000024 .L0 
C:\Users\CYMR90~1\AppData\Local\Temp\ccmBQqfl.s:550    .text.adc_tempsensor_vrefint_enable:0000000000000024 .L0 
C:\Users\CYMR90~1\AppData\Local\Temp\ccmBQqfl.s:552    .text.adc_tempsensor_vrefint_enable:0000000000000026 .L0 
C:\Users\CYMR90~1\AppData\Local\Temp\ccmBQqfl.s:554    .text.adc_tempsensor_vrefint_enable:0000000000000028 .L0 
C:\Users\CYMR90~1\AppData\Local\Temp\ccmBQqfl.s:561    .text.adc_tempsensor_vrefint_disable:0000000000000000 adc_tempsensor_vrefint_disable
C:\Users\CYMR90~1\AppData\Local\Temp\ccmBQqfl.s:564    .text.adc_tempsensor_vrefint_disable:0000000000000000 .L0 
C:\Users\CYMR90~1\AppData\Local\Temp\ccmBQqfl.s:565    .text.adc_tempsensor_vrefint_disable:0000000000000000 .L0 
C:\Users\CYMR90~1\AppData\Local\Temp\ccmBQqfl.s:566    .text.adc_tempsensor_vrefint_disable:0000000000000002 .L0 
C:\Users\CYMR90~1\AppData\Local\Temp\ccmBQqfl.s:568    .text.adc_tempsensor_vrefint_disable:0000000000000004 .L0 
C:\Users\CYMR90~1\AppData\Local\Temp\ccmBQqfl.s:570    .text.adc_tempsensor_vrefint_disable:0000000000000006 .L0 
C:\Users\CYMR90~1\AppData\Local\Temp\ccmBQqfl.s:572    .text.adc_tempsensor_vrefint_disable:0000000000000006 .L0 
C:\Users\CYMR90~1\AppData\Local\Temp\ccmBQqfl.s:582    .text.adc_tempsensor_vrefint_disable:0000000000000022 .L0 
C:\Users\CYMR90~1\AppData\Local\Temp\ccmBQqfl.s:584    .text.adc_tempsensor_vrefint_disable:0000000000000026 .L0 
C:\Users\CYMR90~1\AppData\Local\Temp\ccmBQqfl.s:585    .text.adc_tempsensor_vrefint_disable:0000000000000026 .L0 
C:\Users\CYMR90~1\AppData\Local\Temp\ccmBQqfl.s:587    .text.adc_tempsensor_vrefint_disable:0000000000000028 .L0 
C:\Users\CYMR90~1\AppData\Local\Temp\ccmBQqfl.s:589    .text.adc_tempsensor_vrefint_disable:000000000000002a .L0 
C:\Users\CYMR90~1\AppData\Local\Temp\ccmBQqfl.s:596    .text.adc_data_alignment_config:0000000000000000 adc_data_alignment_config
C:\Users\CYMR90~1\AppData\Local\Temp\ccmBQqfl.s:599    .text.adc_data_alignment_config:0000000000000000 .L0 
C:\Users\CYMR90~1\AppData\Local\Temp\ccmBQqfl.s:600    .text.adc_data_alignment_config:0000000000000000 .L0 
C:\Users\CYMR90~1\AppData\Local\Temp\ccmBQqfl.s:601    .text.adc_data_alignment_config:0000000000000002 .L0 
C:\Users\CYMR90~1\AppData\Local\Temp\ccmBQqfl.s:603    .text.adc_data_alignment_config:0000000000000004 .L0 
C:\Users\CYMR90~1\AppData\Local\Temp\ccmBQqfl.s:605    .text.adc_data_alignment_config:0000000000000006 .L0 
C:\Users\CYMR90~1\AppData\Local\Temp\ccmBQqfl.s:608    .text.adc_data_alignment_config:000000000000000a .L0 
C:\Users\CYMR90~1\AppData\Local\Temp\ccmBQqfl.s:611    .text.adc_data_alignment_config:0000000000000010 .L0 
C:\Users\CYMR90~1\AppData\Local\Temp\ccmBQqfl.s:621    .text.adc_data_alignment_config:0000000000000028 .L0 
C:\Users\CYMR90~1\AppData\Local\Temp\ccmBQqfl.s:624    .text.adc_data_alignment_config:000000000000002a .L0 
C:\Users\CYMR90~1\AppData\Local\Temp\ccmBQqfl.s:635    .text.adc_data_alignment_config:0000000000000042 .L0 
C:\Users\CYMR90~1\AppData\Local\Temp\ccmBQqfl.s:637    .text.adc_data_alignment_config:0000000000000046 .L0 
C:\Users\CYMR90~1\AppData\Local\Temp\ccmBQqfl.s:638    .text.adc_data_alignment_config:0000000000000046 .L0 
C:\Users\CYMR90~1\AppData\Local\Temp\ccmBQqfl.s:640    .text.adc_data_alignment_config:0000000000000048 .L0 
C:\Users\CYMR90~1\AppData\Local\Temp\ccmBQqfl.s:642    .text.adc_data_alignment_config:000000000000004a .L0 
C:\Users\CYMR90~1\AppData\Local\Temp\ccmBQqfl.s:649    .text.adc_channel_length_config:0000000000000000 adc_channel_length_config
C:\Users\CYMR90~1\AppData\Local\Temp\ccmBQqfl.s:652    .text.adc_channel_length_config:0000000000000000 .L0 
C:\Users\CYMR90~1\AppData\Local\Temp\ccmBQqfl.s:653    .text.adc_channel_length_config:0000000000000000 .L0 
C:\Users\CYMR90~1\AppData\Local\Temp\ccmBQqfl.s:654    .text.adc_channel_length_config:0000000000000002 .L0 
C:\Users\CYMR90~1\AppData\Local\Temp\ccmBQqfl.s:656    .text.adc_channel_length_config:0000000000000004 .L0 
C:\Users\CYMR90~1\AppData\Local\Temp\ccmBQqfl.s:658    .text.adc_channel_length_config:0000000000000006 .L0 
C:\Users\CYMR90~1\AppData\Local\Temp\ccmBQqfl.s:663    .text.adc_channel_length_config:0000000000000010 .L0 
C:\Users\CYMR90~1\AppData\Local\Temp\ccmBQqfl.s:669    .text.adc_channel_length_config:0000000000000020 .L0 
C:\Users\CYMR90~1\AppData\Local\Temp\ccmBQqfl.s:672    .text.adc_channel_length_config:0000000000000022 .L0 
C:\Users\CYMR90~1\AppData\Local\Temp\ccmBQqfl.s:675    .text.adc_channel_length_config:0000000000000028 .L0 
C:\Users\CYMR90~1\AppData\Local\Temp\ccmBQqfl.s:679    .text.adc_channel_length_config:0000000000000032 .L0 
C:\Users\CYMR90~1\AppData\Local\Temp\ccmBQqfl.s:689    .text.adc_channel_length_config:000000000000004e .L0 
C:\Users\CYMR90~1\AppData\Local\Temp\ccmBQqfl.s:693    .text.adc_channel_length_config:0000000000000058 .L0 
C:\Users\CYMR90~1\AppData\Local\Temp\ccmBQqfl.s:699    .text.adc_channel_length_config:0000000000000068 .L0 
C:\Users\CYMR90~1\AppData\Local\Temp\ccmBQqfl.s:704    .text.adc_channel_length_config:0000000000000074 .L0 
C:\Users\CYMR90~1\AppData\Local\Temp\ccmBQqfl.s:707    .text.adc_channel_length_config:0000000000000076 .L0 
C:\Users\CYMR90~1\AppData\Local\Temp\ccmBQqfl.s:710    .text.adc_channel_length_config:000000000000007c .L0 
C:\Users\CYMR90~1\AppData\Local\Temp\ccmBQqfl.s:714    .text.adc_channel_length_config:0000000000000086 .L0 
C:\Users\CYMR90~1\AppData\Local\Temp\ccmBQqfl.s:724    .text.adc_channel_length_config:00000000000000a2 .L0 
C:\Users\CYMR90~1\AppData\Local\Temp\ccmBQqfl.s:728    .text.adc_channel_length_config:00000000000000ac .L0 
C:\Users\CYMR90~1\AppData\Local\Temp\ccmBQqfl.s:734    .text.adc_channel_length_config:00000000000000bc .L0 
C:\Users\CYMR90~1\AppData\Local\Temp\ccmBQqfl.s:739    .text.adc_channel_length_config:00000000000000c8 .L0 
C:\Users\CYMR90~1\AppData\Local\Temp\ccmBQqfl.s:742    .text.adc_channel_length_config:00000000000000ca .L0 
C:\Users\CYMR90~1\AppData\Local\Temp\ccmBQqfl.s:746    .text.adc_channel_length_config:00000000000000ce .L0 
C:\Users\CYMR90~1\AppData\Local\Temp\ccmBQqfl.s:750    .text.adc_channel_length_config:00000000000000d0 .L0 
C:\Users\CYMR90~1\AppData\Local\Temp\ccmBQqfl.s:752    .text.adc_channel_length_config:00000000000000d4 .L0 
C:\Users\CYMR90~1\AppData\Local\Temp\ccmBQqfl.s:753    .text.adc_channel_length_config:00000000000000d4 .L0 
C:\Users\CYMR90~1\AppData\Local\Temp\ccmBQqfl.s:755    .text.adc_channel_length_config:00000000000000d6 .L0 
C:\Users\CYMR90~1\AppData\Local\Temp\ccmBQqfl.s:757    .text.adc_channel_length_config:00000000000000d8 .L0 
C:\Users\CYMR90~1\AppData\Local\Temp\ccmBQqfl.s:764    .text.adc_routine_channel_config:0000000000000000 adc_routine_channel_config
C:\Users\CYMR90~1\AppData\Local\Temp\ccmBQqfl.s:767    .text.adc_routine_channel_config:0000000000000000 .L0 
C:\Users\CYMR90~1\AppData\Local\Temp\ccmBQqfl.s:768    .text.adc_routine_channel_config:0000000000000000 .L0 
C:\Users\CYMR90~1\AppData\Local\Temp\ccmBQqfl.s:769    .text.adc_routine_channel_config:0000000000000002 .L0 
C:\Users\CYMR90~1\AppData\Local\Temp\ccmBQqfl.s:771    .text.adc_routine_channel_config:0000000000000004 .L0 
C:\Users\CYMR90~1\AppData\Local\Temp\ccmBQqfl.s:773    .text.adc_routine_channel_config:0000000000000006 .L0 
C:\Users\CYMR90~1\AppData\Local\Temp\ccmBQqfl.s:781    .text.adc_routine_channel_config:0000000000000018 .L0 
C:\Users\CYMR90~1\AppData\Local\Temp\ccmBQqfl.s:785    .text.adc_routine_channel_config:0000000000000022 .L0 
C:\Users\CYMR90~1\AppData\Local\Temp\ccmBQqfl.s:788    .text.adc_routine_channel_config:000000000000002a .L0 
C:\Users\CYMR90~1\AppData\Local\Temp\ccmBQqfl.s:791    .text.adc_routine_channel_config:0000000000000030 .L0 
C:\Users\CYMR90~1\AppData\Local\Temp\ccmBQqfl.s:796    .text.adc_routine_channel_config:000000000000003a .L0 
C:\Users\CYMR90~1\AppData\Local\Temp\ccmBQqfl.s:799    .text.adc_routine_channel_config:0000000000000040 .L0 
C:\Users\CYMR90~1\AppData\Local\Temp\ccmBQqfl.s:801    .text.adc_routine_channel_config:0000000000000044 .L0 
C:\Users\CYMR90~1\AppData\Local\Temp\ccmBQqfl.s:805    .text.adc_routine_channel_config:000000000000004e .L0 
C:\Users\CYMR90~1\AppData\Local\Temp\ccmBQqfl.s:807    .text.adc_routine_channel_config:0000000000000052 .L0 
C:\Users\CYMR90~1\AppData\Local\Temp\ccmBQqfl.s:812    .text.adc_routine_channel_config:000000000000005c .L0 
C:\Users\CYMR90~1\AppData\Local\Temp\ccmBQqfl.s:814    .text.adc_routine_channel_config:0000000000000060 .L0 
C:\Users\CYMR90~1\AppData\Local\Temp\ccmBQqfl.s:818    .text.adc_routine_channel_config:000000000000006a .L0 
C:\Users\CYMR90~1\AppData\Local\Temp\ccmBQqfl.s:821    .text.adc_routine_channel_config:0000000000000072 .L0 
C:\Users\CYMR90~1\AppData\Local\Temp\ccmBQqfl.s:826    .text.adc_routine_channel_config:000000000000007a .L0 
C:\Users\CYMR90~1\AppData\Local\Temp\ccmBQqfl.s:830    .text.adc_routine_channel_config:0000000000000084 .L0 
C:\Users\CYMR90~1\AppData\Local\Temp\ccmBQqfl.s:833    .text.adc_routine_channel_config:000000000000008c .L0 
C:\Users\CYMR90~1\AppData\Local\Temp\ccmBQqfl.s:836    .text.adc_routine_channel_config:0000000000000092 .L0 
C:\Users\CYMR90~1\AppData\Local\Temp\ccmBQqfl.s:839    .text.adc_routine_channel_config:000000000000009a .L0 
C:\Users\CYMR90~1\AppData\Local\Temp\ccmBQqfl.s:843    .text.adc_routine_channel_config:00000000000000a0 .L0 
C:\Users\CYMR90~1\AppData\Local\Temp\ccmBQqfl.s:846    .text.adc_routine_channel_config:00000000000000a6 .L0 
C:\Users\CYMR90~1\AppData\Local\Temp\ccmBQqfl.s:848    .text.adc_routine_channel_config:00000000000000aa .L0 
C:\Users\CYMR90~1\AppData\Local\Temp\ccmBQqfl.s:852    .text.adc_routine_channel_config:00000000000000b4 .L0 
C:\Users\CYMR90~1\AppData\Local\Temp\ccmBQqfl.s:854    .text.adc_routine_channel_config:00000000000000b8 .L0 
C:\Users\CYMR90~1\AppData\Local\Temp\ccmBQqfl.s:857    .text.adc_routine_channel_config:00000000000000c0 .L0 
C:\Users\CYMR90~1\AppData\Local\Temp\ccmBQqfl.s:861    .text.adc_routine_channel_config:00000000000000c6 .L0 
C:\Users\CYMR90~1\AppData\Local\Temp\ccmBQqfl.s:863    .text.adc_routine_channel_config:00000000000000ca .L0 
C:\Users\CYMR90~1\AppData\Local\Temp\ccmBQqfl.s:867    .text.adc_routine_channel_config:00000000000000d4 .L0 
C:\Users\CYMR90~1\AppData\Local\Temp\ccmBQqfl.s:870    .text.adc_routine_channel_config:00000000000000dc .L0 
C:\Users\CYMR90~1\AppData\Local\Temp\ccmBQqfl.s:874    .text.adc_routine_channel_config:00000000000000e2 .L0 
C:\Users\CYMR90~1\AppData\Local\Temp\ccmBQqfl.s:878    .text.adc_routine_channel_config:00000000000000ec .L0 
C:\Users\CYMR90~1\AppData\Local\Temp\ccmBQqfl.s:881    .text.adc_routine_channel_config:00000000000000f2 .L0 
C:\Users\CYMR90~1\AppData\Local\Temp\ccmBQqfl.s:884    .text.adc_routine_channel_config:00000000000000f8 .L0 
C:\Users\CYMR90~1\AppData\Local\Temp\ccmBQqfl.s:887    .text.adc_routine_channel_config:00000000000000fe .L0 
C:\Users\CYMR90~1\AppData\Local\Temp\ccmBQqfl.s:890    .text.adc_routine_channel_config:0000000000000104 .L0 
C:\Users\CYMR90~1\AppData\Local\Temp\ccmBQqfl.s:892    .text.adc_routine_channel_config:0000000000000108 .L0 
C:\Users\CYMR90~1\AppData\Local\Temp\ccmBQqfl.s:896    .text.adc_routine_channel_config:0000000000000112 .L0 
C:\Users\CYMR90~1\AppData\Local\Temp\ccmBQqfl.s:899    .text.adc_routine_channel_config:0000000000000118 .L0 
C:\Users\CYMR90~1\AppData\Local\Temp\ccmBQqfl.s:902    .text.adc_routine_channel_config:0000000000000120 .L0 
C:\Users\CYMR90~1\AppData\Local\Temp\ccmBQqfl.s:906    .text.adc_routine_channel_config:000000000000012a .L0 
C:\Users\CYMR90~1\AppData\Local\Temp\ccmBQqfl.s:909    .text.adc_routine_channel_config:0000000000000130 .L0 
C:\Users\CYMR90~1\AppData\Local\Temp\ccmBQqfl.s:912    .text.adc_routine_channel_config:0000000000000136 .L0 
C:\Users\CYMR90~1\AppData\Local\Temp\ccmBQqfl.s:915    .text.adc_routine_channel_config:0000000000000138 .L0 
C:\Users\CYMR90~1\AppData\Local\Temp\ccmBQqfl.s:919    .text.adc_routine_channel_config:0000000000000142 .L0 
C:\Users\CYMR90~1\AppData\Local\Temp\ccmBQqfl.s:922    .text.adc_routine_channel_config:0000000000000148 .L0 
C:\Users\CYMR90~1\AppData\Local\Temp\ccmBQqfl.s:925    .text.adc_routine_channel_config:000000000000014e .L0 
C:\Users\CYMR90~1\AppData\Local\Temp\ccmBQqfl.s:928    .text.adc_routine_channel_config:0000000000000154 .L0 
C:\Users\CYMR90~1\AppData\Local\Temp\ccmBQqfl.s:930    .text.adc_routine_channel_config:0000000000000156 .L0 
C:\Users\CYMR90~1\AppData\Local\Temp\ccmBQqfl.s:933    .text.adc_routine_channel_config:000000000000015c .L0 
C:\Users\CYMR90~1\AppData\Local\Temp\ccmBQqfl.s:935    .text.adc_routine_channel_config:0000000000000160 .L0 
C:\Users\CYMR90~1\AppData\Local\Temp\ccmBQqfl.s:939    .text.adc_routine_channel_config:000000000000016a .L0 
C:\Users\CYMR90~1\AppData\Local\Temp\ccmBQqfl.s:942    .text.adc_routine_channel_config:0000000000000170 .L0 
C:\Users\CYMR90~1\AppData\Local\Temp\ccmBQqfl.s:944    .text.adc_routine_channel_config:0000000000000172 .L0 
C:\Users\CYMR90~1\AppData\Local\Temp\ccmBQqfl.s:947    .text.adc_routine_channel_config:000000000000017a .L0 
C:\Users\CYMR90~1\AppData\Local\Temp\ccmBQqfl.s:951    .text.adc_routine_channel_config:0000000000000184 .L0 
C:\Users\CYMR90~1\AppData\Local\Temp\ccmBQqfl.s:954    .text.adc_routine_channel_config:000000000000018a .L0 
C:\Users\CYMR90~1\AppData\Local\Temp\ccmBQqfl.s:958    .text.adc_routine_channel_config:0000000000000190 .L0 
C:\Users\CYMR90~1\AppData\Local\Temp\ccmBQqfl.s:960    .text.adc_routine_channel_config:0000000000000194 .L0 
C:\Users\CYMR90~1\AppData\Local\Temp\ccmBQqfl.s:961    .text.adc_routine_channel_config:0000000000000194 .L0 
C:\Users\CYMR90~1\AppData\Local\Temp\ccmBQqfl.s:963    .text.adc_routine_channel_config:0000000000000196 .L0 
C:\Users\CYMR90~1\AppData\Local\Temp\ccmBQqfl.s:965    .text.adc_routine_channel_config:0000000000000198 .L0 
C:\Users\CYMR90~1\AppData\Local\Temp\ccmBQqfl.s:972    .text.adc_inserted_channel_config:0000000000000000 adc_inserted_channel_config
C:\Users\CYMR90~1\AppData\Local\Temp\ccmBQqfl.s:975    .text.adc_inserted_channel_config:0000000000000000 .L0 
C:\Users\CYMR90~1\AppData\Local\Temp\ccmBQqfl.s:976    .text.adc_inserted_channel_config:0000000000000000 .L0 
C:\Users\CYMR90~1\AppData\Local\Temp\ccmBQqfl.s:977    .text.adc_inserted_channel_config:0000000000000002 .L0 
C:\Users\CYMR90~1\AppData\Local\Temp\ccmBQqfl.s:979    .text.adc_inserted_channel_config:0000000000000004 .L0 
C:\Users\CYMR90~1\AppData\Local\Temp\ccmBQqfl.s:981    .text.adc_inserted_channel_config:0000000000000006 .L0 
C:\Users\CYMR90~1\AppData\Local\Temp\ccmBQqfl.s:989    .text.adc_inserted_channel_config:0000000000000018 .L0 
C:\Users\CYMR90~1\AppData\Local\Temp\ccmBQqfl.s:994    .text.adc_inserted_channel_config:0000000000000024 .L0 
C:\Users\CYMR90~1\AppData\Local\Temp\ccmBQqfl.s:996    .text.adc_inserted_channel_config:0000000000000028 .L0 
C:\Users\CYMR90~1\AppData\Local\Temp\ccmBQqfl.s:999    .text.adc_inserted_channel_config:000000000000002e .L0 
C:\Users\CYMR90~1\AppData\Local\Temp\ccmBQqfl.s:1003   .text.adc_inserted_channel_config:0000000000000038 .L0 
C:\Users\CYMR90~1\AppData\Local\Temp\ccmBQqfl.s:1006   .text.adc_inserted_channel_config:0000000000000040 .L0 
C:\Users\CYMR90~1\AppData\Local\Temp\ccmBQqfl.s:1009   .text.adc_inserted_channel_config:0000000000000046 .L0 
C:\Users\CYMR90~1\AppData\Local\Temp\ccmBQqfl.s:1013   .text.adc_inserted_channel_config:0000000000000050 .L0 
C:\Users\CYMR90~1\AppData\Local\Temp\ccmBQqfl.s:1018   .text.adc_inserted_channel_config:000000000000005a .L0 
C:\Users\CYMR90~1\AppData\Local\Temp\ccmBQqfl.s:1020   .text.adc_inserted_channel_config:000000000000005c .L0 
C:\Users\CYMR90~1\AppData\Local\Temp\ccmBQqfl.s:1023   .text.adc_inserted_channel_config:0000000000000062 .L0 
C:\Users\CYMR90~1\AppData\Local\Temp\ccmBQqfl.s:1025   .text.adc_inserted_channel_config:0000000000000066 .L0 
C:\Users\CYMR90~1\AppData\Local\Temp\ccmBQqfl.s:1029   .text.adc_inserted_channel_config:0000000000000070 .L0 
C:\Users\CYMR90~1\AppData\Local\Temp\ccmBQqfl.s:1031   .text.adc_inserted_channel_config:0000000000000074 .L0 
C:\Users\CYMR90~1\AppData\Local\Temp\ccmBQqfl.s:1035   .text.adc_inserted_channel_config:000000000000007e .L0 
C:\Users\CYMR90~1\AppData\Local\Temp\ccmBQqfl.s:1040   .text.adc_inserted_channel_config:0000000000000088 .L0 
C:\Users\CYMR90~1\AppData\Local\Temp\ccmBQqfl.s:1042   .text.adc_inserted_channel_config:000000000000008a .L0 
C:\Users\CYMR90~1\AppData\Local\Temp\ccmBQqfl.s:1044   .text.adc_inserted_channel_config:000000000000008e .L0 
C:\Users\CYMR90~1\AppData\Local\Temp\ccmBQqfl.s:1048   .text.adc_inserted_channel_config:0000000000000098 .L0 
C:\Users\CYMR90~1\AppData\Local\Temp\ccmBQqfl.s:1051   .text.adc_inserted_channel_config:00000000000000a0 .L0 
C:\Users\CYMR90~1\AppData\Local\Temp\ccmBQqfl.s:1055   .text.adc_inserted_channel_config:00000000000000a6 .L0 
C:\Users\CYMR90~1\AppData\Local\Temp\ccmBQqfl.s:1059   .text.adc_inserted_channel_config:00000000000000b0 .L0 
C:\Users\CYMR90~1\AppData\Local\Temp\ccmBQqfl.s:1062   .text.adc_inserted_channel_config:00000000000000b6 .L0 
C:\Users\CYMR90~1\AppData\Local\Temp\ccmBQqfl.s:1065   .text.adc_inserted_channel_config:00000000000000bc .L0 
C:\Users\CYMR90~1\AppData\Local\Temp\ccmBQqfl.s:1068   .text.adc_inserted_channel_config:00000000000000c2 .L0 
C:\Users\CYMR90~1\AppData\Local\Temp\ccmBQqfl.s:1071   .text.adc_inserted_channel_config:00000000000000c8 .L0 
C:\Users\CYMR90~1\AppData\Local\Temp\ccmBQqfl.s:1073   .text.adc_inserted_channel_config:00000000000000cc .L0 
C:\Users\CYMR90~1\AppData\Local\Temp\ccmBQqfl.s:1077   .text.adc_inserted_channel_config:00000000000000d6 .L0 
C:\Users\CYMR90~1\AppData\Local\Temp\ccmBQqfl.s:1080   .text.adc_inserted_channel_config:00000000000000dc .L0 
C:\Users\CYMR90~1\AppData\Local\Temp\ccmBQqfl.s:1083   .text.adc_inserted_channel_config:00000000000000e4 .L0 
C:\Users\CYMR90~1\AppData\Local\Temp\ccmBQqfl.s:1087   .text.adc_inserted_channel_config:00000000000000ee .L0 
C:\Users\CYMR90~1\AppData\Local\Temp\ccmBQqfl.s:1090   .text.adc_inserted_channel_config:00000000000000f4 .L0 
C:\Users\CYMR90~1\AppData\Local\Temp\ccmBQqfl.s:1093   .text.adc_inserted_channel_config:00000000000000fa .L0 
C:\Users\CYMR90~1\AppData\Local\Temp\ccmBQqfl.s:1096   .text.adc_inserted_channel_config:00000000000000fc .L0 
C:\Users\CYMR90~1\AppData\Local\Temp\ccmBQqfl.s:1100   .text.adc_inserted_channel_config:0000000000000106 .L0 
C:\Users\CYMR90~1\AppData\Local\Temp\ccmBQqfl.s:1103   .text.adc_inserted_channel_config:000000000000010c .L0 
C:\Users\CYMR90~1\AppData\Local\Temp\ccmBQqfl.s:1106   .text.adc_inserted_channel_config:0000000000000112 .L0 
C:\Users\CYMR90~1\AppData\Local\Temp\ccmBQqfl.s:1109   .text.adc_inserted_channel_config:0000000000000118 .L0 
C:\Users\CYMR90~1\AppData\Local\Temp\ccmBQqfl.s:1111   .text.adc_inserted_channel_config:000000000000011a .L0 
C:\Users\CYMR90~1\AppData\Local\Temp\ccmBQqfl.s:1114   .text.adc_inserted_channel_config:0000000000000120 .L0 
C:\Users\CYMR90~1\AppData\Local\Temp\ccmBQqfl.s:1116   .text.adc_inserted_channel_config:0000000000000124 .L0 
C:\Users\CYMR90~1\AppData\Local\Temp\ccmBQqfl.s:1120   .text.adc_inserted_channel_config:000000000000012e .L0 
C:\Users\CYMR90~1\AppData\Local\Temp\ccmBQqfl.s:1123   .text.adc_inserted_channel_config:0000000000000134 .L0 
C:\Users\CYMR90~1\AppData\Local\Temp\ccmBQqfl.s:1125   .text.adc_inserted_channel_config:0000000000000136 .L0 
C:\Users\CYMR90~1\AppData\Local\Temp\ccmBQqfl.s:1128   .text.adc_inserted_channel_config:000000000000013e .L0 
C:\Users\CYMR90~1\AppData\Local\Temp\ccmBQqfl.s:1132   .text.adc_inserted_channel_config:0000000000000148 .L0 
C:\Users\CYMR90~1\AppData\Local\Temp\ccmBQqfl.s:1135   .text.adc_inserted_channel_config:000000000000014e .L0 
C:\Users\CYMR90~1\AppData\Local\Temp\ccmBQqfl.s:1139   .text.adc_inserted_channel_config:0000000000000154 .L0 
C:\Users\CYMR90~1\AppData\Local\Temp\ccmBQqfl.s:1141   .text.adc_inserted_channel_config:0000000000000158 .L0 
C:\Users\CYMR90~1\AppData\Local\Temp\ccmBQqfl.s:1142   .text.adc_inserted_channel_config:0000000000000158 .L0 
C:\Users\CYMR90~1\AppData\Local\Temp\ccmBQqfl.s:1144   .text.adc_inserted_channel_config:000000000000015a .L0 
C:\Users\CYMR90~1\AppData\Local\Temp\ccmBQqfl.s:1146   .text.adc_inserted_channel_config:000000000000015c .L0 
C:\Users\CYMR90~1\AppData\Local\Temp\ccmBQqfl.s:1153   .text.adc_inserted_channel_offset_config:0000000000000000 adc_inserted_channel_offset_config
C:\Users\CYMR90~1\AppData\Local\Temp\ccmBQqfl.s:1156   .text.adc_inserted_channel_offset_config:0000000000000000 .L0 
C:\Users\CYMR90~1\AppData\Local\Temp\ccmBQqfl.s:1157   .text.adc_inserted_channel_offset_config:0000000000000000 .L0 
C:\Users\CYMR90~1\AppData\Local\Temp\ccmBQqfl.s:1158   .text.adc_inserted_channel_offset_config:0000000000000002 .L0 
C:\Users\CYMR90~1\AppData\Local\Temp\ccmBQqfl.s:1160   .text.adc_inserted_channel_offset_config:0000000000000004 .L0 
C:\Users\CYMR90~1\AppData\Local\Temp\ccmBQqfl.s:1162   .text.adc_inserted_channel_offset_config:0000000000000006 .L0 
C:\Users\CYMR90~1\AppData\Local\Temp\ccmBQqfl.s:1169   .text.adc_inserted_channel_offset_config:0000000000000014 .L0 
C:\Users\CYMR90~1\AppData\Local\Temp\ccmBQqfl.s:1171   .text.adc_inserted_channel_offset_config:0000000000000018 .L0 
C:\Users\CYMR90~1\AppData\Local\Temp\ccmBQqfl.s:1176   .text.adc_inserted_channel_offset_config:0000000000000024 .L0 
C:\Users\CYMR90~1\AppData\Local\Temp\ccmBQqfl.s:1178   .text.adc_inserted_channel_offset_config:0000000000000028 .L0 
C:\Users\CYMR90~1\AppData\Local\Temp\ccmBQqfl.s:1181   .text.adc_inserted_channel_offset_config:000000000000002e .L0 
C:\Users\CYMR90~1\AppData\Local\Temp\ccmBQqfl.s:1183   .text.adc_inserted_channel_offset_config:0000000000000032 .L0 
C:\Users\CYMR90~1\AppData\Local\Temp\ccmBQqfl.s:1185   .text.adc_inserted_channel_offset_config:0000000000000036 .L0 
C:\Users\CYMR90~1\AppData\Local\Temp\ccmBQqfl.s:1187   .text.adc_inserted_channel_offset_config:000000000000003a .L0 
C:\Users\CYMR90~1\AppData\Local\Temp\ccmBQqfl.s:1190   .text.adc_inserted_channel_offset_config:0000000000000040 .L0 
C:\Users\CYMR90~1\AppData\Local\Temp\ccmBQqfl.s:1194   .text.adc_inserted_channel_offset_config:000000000000004a .L0 
C:\Users\CYMR90~1\AppData\Local\Temp\ccmBQqfl.s:1198   .text.adc_inserted_channel_offset_config:0000000000000054 .L0 
C:\Users\CYMR90~1\AppData\Local\Temp\ccmBQqfl.s:1200   .text.adc_inserted_channel_offset_config:0000000000000058 .L0 
C:\Users\CYMR90~1\AppData\Local\Temp\ccmBQqfl.s:1206   .text.adc_inserted_channel_offset_config:0000000000000066 .L0 
C:\Users\CYMR90~1\AppData\Local\Temp\ccmBQqfl.s:1210   .text.adc_inserted_channel_offset_config:000000000000006c .L0 
C:\Users\CYMR90~1\AppData\Local\Temp\ccmBQqfl.s:1213   .text.adc_inserted_channel_offset_config:000000000000006e .L0 
C:\Users\CYMR90~1\AppData\Local\Temp\ccmBQqfl.s:1215   .text.adc_inserted_channel_offset_config:0000000000000072 .L0 
C:\Users\CYMR90~1\AppData\Local\Temp\ccmBQqfl.s:1216   .text.adc_inserted_channel_offset_config:0000000000000072 .L0 
C:\Users\CYMR90~1\AppData\Local\Temp\ccmBQqfl.s:1218   .text.adc_inserted_channel_offset_config:0000000000000074 .L0 
C:\Users\CYMR90~1\AppData\Local\Temp\ccmBQqfl.s:1220   .text.adc_inserted_channel_offset_config:0000000000000076 .L0 
C:\Users\CYMR90~1\AppData\Local\Temp\ccmBQqfl.s:1227   .text.adc_external_trigger_config:0000000000000000 adc_external_trigger_config
C:\Users\CYMR90~1\AppData\Local\Temp\ccmBQqfl.s:1230   .text.adc_external_trigger_config:0000000000000000 .L0 
C:\Users\CYMR90~1\AppData\Local\Temp\ccmBQqfl.s:1231   .text.adc_external_trigger_config:0000000000000000 .L0 
C:\Users\CYMR90~1\AppData\Local\Temp\ccmBQqfl.s:1232   .text.adc_external_trigger_config:0000000000000002 .L0 
C:\Users\CYMR90~1\AppData\Local\Temp\ccmBQqfl.s:1234   .text.adc_external_trigger_config:0000000000000004 .L0 
C:\Users\CYMR90~1\AppData\Local\Temp\ccmBQqfl.s:1236   .text.adc_external_trigger_config:0000000000000006 .L0 
C:\Users\CYMR90~1\AppData\Local\Temp\ccmBQqfl.s:1241   .text.adc_external_trigger_config:0000000000000010 .L0 
C:\Users\CYMR90~1\AppData\Local\Temp\ccmBQqfl.s:1247   .text.adc_external_trigger_config:0000000000000020 .L0 
C:\Users\CYMR90~1\AppData\Local\Temp\ccmBQqfl.s:1250   .text.adc_external_trigger_config:0000000000000022 .L0 
C:\Users\CYMR90~1\AppData\Local\Temp\ccmBQqfl.s:1260   .text.adc_external_trigger_config:000000000000003a .L0 
C:\Users\CYMR90~1\AppData\Local\Temp\ccmBQqfl.s:1264   .text.adc_external_trigger_config:0000000000000042 .L0 
C:\Users\CYMR90~1\AppData\Local\Temp\ccmBQqfl.s:1267   .text.adc_external_trigger_config:000000000000004a .L0 
C:\Users\CYMR90~1\AppData\Local\Temp\ccmBQqfl.s:1272   .text.adc_external_trigger_config:0000000000000054 .L0 
C:\Users\CYMR90~1\AppData\Local\Temp\ccmBQqfl.s:1275   .text.adc_external_trigger_config:0000000000000056 .L0 
C:\Users\CYMR90~1\AppData\Local\Temp\ccmBQqfl.s:1285   .text.adc_external_trigger_config:000000000000006e .L0 
C:\Users\CYMR90~1\AppData\Local\Temp\ccmBQqfl.s:1289   .text.adc_external_trigger_config:0000000000000076 .L0 
C:\Users\CYMR90~1\AppData\Local\Temp\ccmBQqfl.s:1292   .text.adc_external_trigger_config:000000000000007e .L0 
C:\Users\CYMR90~1\AppData\Local\Temp\ccmBQqfl.s:1297   .text.adc_external_trigger_config:0000000000000088 .L0 
C:\Users\CYMR90~1\AppData\Local\Temp\ccmBQqfl.s:1300   .text.adc_external_trigger_config:000000000000008a .L0 
C:\Users\CYMR90~1\AppData\Local\Temp\ccmBQqfl.s:1302   .text.adc_external_trigger_config:000000000000008e .L0 
C:\Users\CYMR90~1\AppData\Local\Temp\ccmBQqfl.s:1303   .text.adc_external_trigger_config:000000000000008e .L0 
C:\Users\CYMR90~1\AppData\Local\Temp\ccmBQqfl.s:1305   .text.adc_external_trigger_config:0000000000000090 .L0 
C:\Users\CYMR90~1\AppData\Local\Temp\ccmBQqfl.s:1307   .text.adc_external_trigger_config:0000000000000092 .L0 
C:\Users\CYMR90~1\AppData\Local\Temp\ccmBQqfl.s:1314   .text.adc_external_trigger_source_config:0000000000000000 adc_external_trigger_source_config
C:\Users\CYMR90~1\AppData\Local\Temp\ccmBQqfl.s:1317   .text.adc_external_trigger_source_config:0000000000000000 .L0 
C:\Users\CYMR90~1\AppData\Local\Temp\ccmBQqfl.s:1318   .text.adc_external_trigger_source_config:0000000000000000 .L0 
C:\Users\CYMR90~1\AppData\Local\Temp\ccmBQqfl.s:1319   .text.adc_external_trigger_source_config:0000000000000002 .L0 
C:\Users\CYMR90~1\AppData\Local\Temp\ccmBQqfl.s:1321   .text.adc_external_trigger_source_config:0000000000000004 .L0 
C:\Users\CYMR90~1\AppData\Local\Temp\ccmBQqfl.s:1323   .text.adc_external_trigger_source_config:0000000000000006 .L0 
C:\Users\CYMR90~1\AppData\Local\Temp\ccmBQqfl.s:1328   .text.adc_external_trigger_source_config:0000000000000010 .L0 
C:\Users\CYMR90~1\AppData\Local\Temp\ccmBQqfl.s:1334   .text.adc_external_trigger_source_config:0000000000000020 .L0 
C:\Users\CYMR90~1\AppData\Local\Temp\ccmBQqfl.s:1337   .text.adc_external_trigger_source_config:0000000000000022 .L0 
C:\Users\CYMR90~1\AppData\Local\Temp\ccmBQqfl.s:1347   .text.adc_external_trigger_source_config:000000000000003a .L0 
C:\Users\CYMR90~1\AppData\Local\Temp\ccmBQqfl.s:1356   .text.adc_external_trigger_source_config:0000000000000050 .L0 
C:\Users\CYMR90~1\AppData\Local\Temp\ccmBQqfl.s:1359   .text.adc_external_trigger_source_config:0000000000000052 .L0 
C:\Users\CYMR90~1\AppData\Local\Temp\ccmBQqfl.s:1369   .text.adc_external_trigger_source_config:000000000000006a .L0 
C:\Users\CYMR90~1\AppData\Local\Temp\ccmBQqfl.s:1378   .text.adc_external_trigger_source_config:0000000000000080 .L0 
C:\Users\CYMR90~1\AppData\Local\Temp\ccmBQqfl.s:1381   .text.adc_external_trigger_source_config:0000000000000082 .L0 
C:\Users\CYMR90~1\AppData\Local\Temp\ccmBQqfl.s:1383   .text.adc_external_trigger_source_config:0000000000000086 .L0 
C:\Users\CYMR90~1\AppData\Local\Temp\ccmBQqfl.s:1384   .text.adc_external_trigger_source_config:0000000000000086 .L0 
C:\Users\CYMR90~1\AppData\Local\Temp\ccmBQqfl.s:1386   .text.adc_external_trigger_source_config:0000000000000088 .L0 
C:\Users\CYMR90~1\AppData\Local\Temp\ccmBQqfl.s:1388   .text.adc_external_trigger_source_config:000000000000008a .L0 
C:\Users\CYMR90~1\AppData\Local\Temp\ccmBQqfl.s:1395   .text.adc_software_trigger_enable:0000000000000000 adc_software_trigger_enable
C:\Users\CYMR90~1\AppData\Local\Temp\ccmBQqfl.s:1398   .text.adc_software_trigger_enable:0000000000000000 .L0 
C:\Users\CYMR90~1\AppData\Local\Temp\ccmBQqfl.s:1399   .text.adc_software_trigger_enable:0000000000000000 .L0 
C:\Users\CYMR90~1\AppData\Local\Temp\ccmBQqfl.s:1400   .text.adc_software_trigger_enable:0000000000000002 .L0 
C:\Users\CYMR90~1\AppData\Local\Temp\ccmBQqfl.s:1402   .text.adc_software_trigger_enable:0000000000000004 .L0 
C:\Users\CYMR90~1\AppData\Local\Temp\ccmBQqfl.s:1404   .text.adc_software_trigger_enable:0000000000000006 .L0 
C:\Users\CYMR90~1\AppData\Local\Temp\ccmBQqfl.s:1408   .text.adc_software_trigger_enable:000000000000000c .L0 
C:\Users\CYMR90~1\AppData\Local\Temp\ccmBQqfl.s:1411   .text.adc_software_trigger_enable:0000000000000012 .L0 
C:\Users\CYMR90~1\AppData\Local\Temp\ccmBQqfl.s:1413   .text.adc_software_trigger_enable:0000000000000014 .L0 
C:\Users\CYMR90~1\AppData\Local\Temp\ccmBQqfl.s:1423   .text.adc_software_trigger_enable:000000000000002a .L0 
C:\Users\CYMR90~1\AppData\Local\Temp\ccmBQqfl.s:1426   .text.adc_software_trigger_enable:0000000000000030 .L0 
C:\Users\CYMR90~1\AppData\Local\Temp\ccmBQqfl.s:1428   .text.adc_software_trigger_enable:0000000000000032 .L0 
C:\Users\CYMR90~1\AppData\Local\Temp\ccmBQqfl.s:1438   .text.adc_software_trigger_enable:0000000000000048 .L0 
C:\Users\CYMR90~1\AppData\Local\Temp\ccmBQqfl.s:1440   .text.adc_software_trigger_enable:000000000000004c .L0 
C:\Users\CYMR90~1\AppData\Local\Temp\ccmBQqfl.s:1441   .text.adc_software_trigger_enable:000000000000004c .L0 
C:\Users\CYMR90~1\AppData\Local\Temp\ccmBQqfl.s:1443   .text.adc_software_trigger_enable:000000000000004e .L0 
C:\Users\CYMR90~1\AppData\Local\Temp\ccmBQqfl.s:1445   .text.adc_software_trigger_enable:0000000000000050 .L0 
C:\Users\CYMR90~1\AppData\Local\Temp\ccmBQqfl.s:1452   .text.adc_end_of_conversion_config:0000000000000000 adc_end_of_conversion_config
C:\Users\CYMR90~1\AppData\Local\Temp\ccmBQqfl.s:1455   .text.adc_end_of_conversion_config:0000000000000000 .L0 
C:\Users\CYMR90~1\AppData\Local\Temp\ccmBQqfl.s:1456   .text.adc_end_of_conversion_config:0000000000000000 .L0 
C:\Users\CYMR90~1\AppData\Local\Temp\ccmBQqfl.s:1457   .text.adc_end_of_conversion_config:0000000000000002 .L0 
C:\Users\CYMR90~1\AppData\Local\Temp\ccmBQqfl.s:1459   .text.adc_end_of_conversion_config:0000000000000004 .L0 
C:\Users\CYMR90~1\AppData\Local\Temp\ccmBQqfl.s:1461   .text.adc_end_of_conversion_config:0000000000000006 .L0 
C:\Users\CYMR90~1\AppData\Local\Temp\ccmBQqfl.s:1465   .text.adc_end_of_conversion_config:000000000000000c .L0 
C:\Users\CYMR90~1\AppData\Local\Temp\ccmBQqfl.s:1470   .text.adc_end_of_conversion_config:0000000000000018 .L0 
C:\Users\CYMR90~1\AppData\Local\Temp\ccmBQqfl.s:1473   .text.adc_end_of_conversion_config:000000000000001a .L0 
C:\Users\CYMR90~1\AppData\Local\Temp\ccmBQqfl.s:1481   .text.adc_end_of_conversion_config:000000000000002e .L0 
C:\Users\CYMR90~1\AppData\Local\Temp\ccmBQqfl.s:1484   .text.adc_end_of_conversion_config:0000000000000030 .L0 
C:\Users\CYMR90~1\AppData\Local\Temp\ccmBQqfl.s:1492   .text.adc_end_of_conversion_config:0000000000000044 .L0 
C:\Users\CYMR90~1\AppData\Local\Temp\ccmBQqfl.s:1495   .text.adc_end_of_conversion_config:0000000000000046 .L0 
C:\Users\CYMR90~1\AppData\Local\Temp\ccmBQqfl.s:1497   .text.adc_end_of_conversion_config:000000000000004a .L0 
C:\Users\CYMR90~1\AppData\Local\Temp\ccmBQqfl.s:1498   .text.adc_end_of_conversion_config:000000000000004a .L0 
C:\Users\CYMR90~1\AppData\Local\Temp\ccmBQqfl.s:1500   .text.adc_end_of_conversion_config:000000000000004c .L0 
C:\Users\CYMR90~1\AppData\Local\Temp\ccmBQqfl.s:1502   .text.adc_end_of_conversion_config:000000000000004e .L0 
C:\Users\CYMR90~1\AppData\Local\Temp\ccmBQqfl.s:1509   .text.adc_resolution_config:0000000000000000 adc_resolution_config
C:\Users\CYMR90~1\AppData\Local\Temp\ccmBQqfl.s:1512   .text.adc_resolution_config:0000000000000000 .L0 
C:\Users\CYMR90~1\AppData\Local\Temp\ccmBQqfl.s:1513   .text.adc_resolution_config:0000000000000000 .L0 
C:\Users\CYMR90~1\AppData\Local\Temp\ccmBQqfl.s:1514   .text.adc_resolution_config:0000000000000002 .L0 
C:\Users\CYMR90~1\AppData\Local\Temp\ccmBQqfl.s:1516   .text.adc_resolution_config:0000000000000004 .L0 
C:\Users\CYMR90~1\AppData\Local\Temp\ccmBQqfl.s:1518   .text.adc_resolution_config:0000000000000006 .L0 
C:\Users\CYMR90~1\AppData\Local\Temp\ccmBQqfl.s:1521   .text.adc_resolution_config:000000000000000a .L0 
C:\Users\CYMR90~1\AppData\Local\Temp\ccmBQqfl.s:1531   .text.adc_resolution_config:0000000000000022 .L0 
C:\Users\CYMR90~1\AppData\Local\Temp\ccmBQqfl.s:1540   .text.adc_resolution_config:0000000000000038 .L0 
C:\Users\CYMR90~1\AppData\Local\Temp\ccmBQqfl.s:1542   .text.adc_resolution_config:000000000000003c .L0 
C:\Users\CYMR90~1\AppData\Local\Temp\ccmBQqfl.s:1543   .text.adc_resolution_config:000000000000003c .L0 
C:\Users\CYMR90~1\AppData\Local\Temp\ccmBQqfl.s:1545   .text.adc_resolution_config:000000000000003e .L0 
C:\Users\CYMR90~1\AppData\Local\Temp\ccmBQqfl.s:1547   .text.adc_resolution_config:0000000000000040 .L0 
C:\Users\CYMR90~1\AppData\Local\Temp\ccmBQqfl.s:1554   .text.adc_routine_data_read:0000000000000000 adc_routine_data_read
C:\Users\CYMR90~1\AppData\Local\Temp\ccmBQqfl.s:1557   .text.adc_routine_data_read:0000000000000000 .L0 
C:\Users\CYMR90~1\AppData\Local\Temp\ccmBQqfl.s:1558   .text.adc_routine_data_read:0000000000000000 .L0 
C:\Users\CYMR90~1\AppData\Local\Temp\ccmBQqfl.s:1559   .text.adc_routine_data_read:0000000000000002 .L0 
C:\Users\CYMR90~1\AppData\Local\Temp\ccmBQqfl.s:1561   .text.adc_routine_data_read:0000000000000004 .L0 
C:\Users\CYMR90~1\AppData\Local\Temp\ccmBQqfl.s:1563   .text.adc_routine_data_read:0000000000000006 .L0 
C:\Users\CYMR90~1\AppData\Local\Temp\ccmBQqfl.s:1565   .text.adc_routine_data_read:0000000000000006 .L0 
C:\Users\CYMR90~1\AppData\Local\Temp\ccmBQqfl.s:1569   .text.adc_routine_data_read:0000000000000010 .L0 
C:\Users\CYMR90~1\AppData\Local\Temp\ccmBQqfl.s:1572   .text.adc_routine_data_read:0000000000000014 .L0 
C:\Users\CYMR90~1\AppData\Local\Temp\ccmBQqfl.s:1574   .text.adc_routine_data_read:0000000000000018 .L0 
C:\Users\CYMR90~1\AppData\Local\Temp\ccmBQqfl.s:1575   .text.adc_routine_data_read:0000000000000018 .L0 
C:\Users\CYMR90~1\AppData\Local\Temp\ccmBQqfl.s:1577   .text.adc_routine_data_read:000000000000001a .L0 
C:\Users\CYMR90~1\AppData\Local\Temp\ccmBQqfl.s:1579   .text.adc_routine_data_read:000000000000001c .L0 
C:\Users\CYMR90~1\AppData\Local\Temp\ccmBQqfl.s:1586   .text.adc_inserted_data_read:0000000000000000 adc_inserted_data_read
C:\Users\CYMR90~1\AppData\Local\Temp\ccmBQqfl.s:1589   .text.adc_inserted_data_read:0000000000000000 .L0 
C:\Users\CYMR90~1\AppData\Local\Temp\ccmBQqfl.s:1590   .text.adc_inserted_data_read:0000000000000000 .L0 
C:\Users\CYMR90~1\AppData\Local\Temp\ccmBQqfl.s:1591   .text.adc_inserted_data_read:0000000000000002 .L0 
C:\Users\CYMR90~1\AppData\Local\Temp\ccmBQqfl.s:1593   .text.adc_inserted_data_read:0000000000000004 .L0 
C:\Users\CYMR90~1\AppData\Local\Temp\ccmBQqfl.s:1595   .text.adc_inserted_data_read:0000000000000006 .L0 
C:\Users\CYMR90~1\AppData\Local\Temp\ccmBQqfl.s:1599   .text.adc_inserted_data_read:000000000000000c .L0 
C:\Users\CYMR90~1\AppData\Local\Temp\ccmBQqfl.s:1614   .text.adc_inserted_data_read:0000000000000032 .L0 
C:\Users\CYMR90~1\AppData\Local\Temp\ccmBQqfl.s:1617   .text.adc_inserted_data_read:000000000000003a .L0 
C:\Users\CYMR90~1\AppData\Local\Temp\ccmBQqfl.s:1620   .text.adc_inserted_data_read:0000000000000040 .L0 
C:\Users\CYMR90~1\AppData\Local\Temp\ccmBQqfl.s:1623   .text.adc_inserted_data_read:0000000000000042 .L0 
C:\Users\CYMR90~1\AppData\Local\Temp\ccmBQqfl.s:1626   .text.adc_inserted_data_read:000000000000004a .L0 
C:\Users\CYMR90~1\AppData\Local\Temp\ccmBQqfl.s:1629   .text.adc_inserted_data_read:0000000000000050 .L0 
C:\Users\CYMR90~1\AppData\Local\Temp\ccmBQqfl.s:1632   .text.adc_inserted_data_read:0000000000000052 .L0 
C:\Users\CYMR90~1\AppData\Local\Temp\ccmBQqfl.s:1635   .text.adc_inserted_data_read:000000000000005a .L0 
C:\Users\CYMR90~1\AppData\Local\Temp\ccmBQqfl.s:1638   .text.adc_inserted_data_read:0000000000000060 .L0 
C:\Users\CYMR90~1\AppData\Local\Temp\ccmBQqfl.s:1641   .text.adc_inserted_data_read:0000000000000062 .L0 
C:\Users\CYMR90~1\AppData\Local\Temp\ccmBQqfl.s:1644   .text.adc_inserted_data_read:000000000000006a .L0 
C:\Users\CYMR90~1\AppData\Local\Temp\ccmBQqfl.s:1647   .text.adc_inserted_data_read:0000000000000070 .L0 
C:\Users\CYMR90~1\AppData\Local\Temp\ccmBQqfl.s:1650   .text.adc_inserted_data_read:0000000000000072 .L0 
C:\Users\CYMR90~1\AppData\Local\Temp\ccmBQqfl.s:1652   .text.adc_inserted_data_read:0000000000000076 .L0 
C:\Users\CYMR90~1\AppData\Local\Temp\ccmBQqfl.s:1655   .text.adc_inserted_data_read:0000000000000078 .L0 
C:\Users\CYMR90~1\AppData\Local\Temp\ccmBQqfl.s:1659   .text.adc_inserted_data_read:0000000000000080 .L0 
C:\Users\CYMR90~1\AppData\Local\Temp\ccmBQqfl.s:1661   .text.adc_inserted_data_read:0000000000000084 .L0 
C:\Users\CYMR90~1\AppData\Local\Temp\ccmBQqfl.s:1662   .text.adc_inserted_data_read:0000000000000084 .L0 
C:\Users\CYMR90~1\AppData\Local\Temp\ccmBQqfl.s:1664   .text.adc_inserted_data_read:0000000000000086 .L0 
C:\Users\CYMR90~1\AppData\Local\Temp\ccmBQqfl.s:1666   .text.adc_inserted_data_read:0000000000000088 .L0 
C:\Users\CYMR90~1\AppData\Local\Temp\ccmBQqfl.s:1673   .text.adc_watchdog_single_channel_enable:0000000000000000 adc_watchdog_single_channel_enable
C:\Users\CYMR90~1\AppData\Local\Temp\ccmBQqfl.s:1676   .text.adc_watchdog_single_channel_enable:0000000000000000 .L0 
C:\Users\CYMR90~1\AppData\Local\Temp\ccmBQqfl.s:1677   .text.adc_watchdog_single_channel_enable:0000000000000000 .L0 
C:\Users\CYMR90~1\AppData\Local\Temp\ccmBQqfl.s:1678   .text.adc_watchdog_single_channel_enable:0000000000000002 .L0 
C:\Users\CYMR90~1\AppData\Local\Temp\ccmBQqfl.s:1680   .text.adc_watchdog_single_channel_enable:0000000000000004 .L0 
C:\Users\CYMR90~1\AppData\Local\Temp\ccmBQqfl.s:1682   .text.adc_watchdog_single_channel_enable:0000000000000006 .L0 
C:\Users\CYMR90~1\AppData\Local\Temp\ccmBQqfl.s:1686   .text.adc_watchdog_single_channel_enable:000000000000000c .L0 
C:\Users\CYMR90~1\AppData\Local\Temp\ccmBQqfl.s:1696   .text.adc_watchdog_single_channel_enable:0000000000000026 .L0 
C:\Users\CYMR90~1\AppData\Local\Temp\ccmBQqfl.s:1700   .text.adc_watchdog_single_channel_enable:000000000000002e .L0 
C:\Users\CYMR90~1\AppData\Local\Temp\ccmBQqfl.s:1702   .text.adc_watchdog_single_channel_enable:0000000000000032 .L0 
C:\Users\CYMR90~1\AppData\Local\Temp\ccmBQqfl.s:1707   .text.adc_watchdog_single_channel_enable:000000000000003c .L0 
C:\Users\CYMR90~1\AppData\Local\Temp\ccmBQqfl.s:1717   .text.adc_watchdog_single_channel_enable:0000000000000056 .L0 
C:\Users\CYMR90~1\AppData\Local\Temp\ccmBQqfl.s:1719   .text.adc_watchdog_single_channel_enable:000000000000005a .L0 
C:\Users\CYMR90~1\AppData\Local\Temp\ccmBQqfl.s:1720   .text.adc_watchdog_single_channel_enable:000000000000005a .L0 
C:\Users\CYMR90~1\AppData\Local\Temp\ccmBQqfl.s:1722   .text.adc_watchdog_single_channel_enable:000000000000005c .L0 
C:\Users\CYMR90~1\AppData\Local\Temp\ccmBQqfl.s:1724   .text.adc_watchdog_single_channel_enable:000000000000005e .L0 
C:\Users\CYMR90~1\AppData\Local\Temp\ccmBQqfl.s:1731   .text.adc_watchdog_group_channel_enable:0000000000000000 adc_watchdog_group_channel_enable
C:\Users\CYMR90~1\AppData\Local\Temp\ccmBQqfl.s:1734   .text.adc_watchdog_group_channel_enable:0000000000000000 .L0 
C:\Users\CYMR90~1\AppData\Local\Temp\ccmBQqfl.s:1735   .text.adc_watchdog_group_channel_enable:0000000000000000 .L0 
C:\Users\CYMR90~1\AppData\Local\Temp\ccmBQqfl.s:1736   .text.adc_watchdog_group_channel_enable:0000000000000002 .L0 
C:\Users\CYMR90~1\AppData\Local\Temp\ccmBQqfl.s:1738   .text.adc_watchdog_group_channel_enable:0000000000000004 .L0 
C:\Users\CYMR90~1\AppData\Local\Temp\ccmBQqfl.s:1740   .text.adc_watchdog_group_channel_enable:0000000000000006 .L0 
C:\Users\CYMR90~1\AppData\Local\Temp\ccmBQqfl.s:1744   .text.adc_watchdog_group_channel_enable:000000000000000c .L0 
C:\Users\CYMR90~1\AppData\Local\Temp\ccmBQqfl.s:1754   .text.adc_watchdog_group_channel_enable:0000000000000026 .L0 
C:\Users\CYMR90~1\AppData\Local\Temp\ccmBQqfl.s:1764   .text.adc_watchdog_group_channel_enable:0000000000000042 .L0 
C:\Users\CYMR90~1\AppData\Local\Temp\ccmBQqfl.s:1767   .text.adc_watchdog_group_channel_enable:0000000000000044 .L0 
C:\Users\CYMR90~1\AppData\Local\Temp\ccmBQqfl.s:1776   .text.adc_watchdog_group_channel_enable:000000000000005a .L0 
C:\Users\CYMR90~1\AppData\Local\Temp\ccmBQqfl.s:1779   .text.adc_watchdog_group_channel_enable:000000000000005c .L0 
C:\Users\CYMR90~1\AppData\Local\Temp\ccmBQqfl.s:1788   .text.adc_watchdog_group_channel_enable:0000000000000072 .L0 
C:\Users\CYMR90~1\AppData\Local\Temp\ccmBQqfl.s:1791   .text.adc_watchdog_group_channel_enable:0000000000000074 .L0 
C:\Users\CYMR90~1\AppData\Local\Temp\ccmBQqfl.s:1800   .text.adc_watchdog_group_channel_enable:000000000000008a .L0 
C:\Users\CYMR90~1\AppData\Local\Temp\ccmBQqfl.s:1803   .text.adc_watchdog_group_channel_enable:000000000000008c .L0 
C:\Users\CYMR90~1\AppData\Local\Temp\ccmBQqfl.s:1806   .text.adc_watchdog_group_channel_enable:000000000000008e .L0 
C:\Users\CYMR90~1\AppData\Local\Temp\ccmBQqfl.s:1808   .text.adc_watchdog_group_channel_enable:0000000000000092 .L0 
C:\Users\CYMR90~1\AppData\Local\Temp\ccmBQqfl.s:1809   .text.adc_watchdog_group_channel_enable:0000000000000092 .L0 
C:\Users\CYMR90~1\AppData\Local\Temp\ccmBQqfl.s:1811   .text.adc_watchdog_group_channel_enable:0000000000000094 .L0 
C:\Users\CYMR90~1\AppData\Local\Temp\ccmBQqfl.s:1813   .text.adc_watchdog_group_channel_enable:0000000000000096 .L0 
C:\Users\CYMR90~1\AppData\Local\Temp\ccmBQqfl.s:1820   .text.adc_watchdog_disable:0000000000000000 adc_watchdog_disable
C:\Users\CYMR90~1\AppData\Local\Temp\ccmBQqfl.s:1823   .text.adc_watchdog_disable:0000000000000000 .L0 
C:\Users\CYMR90~1\AppData\Local\Temp\ccmBQqfl.s:1824   .text.adc_watchdog_disable:0000000000000000 .L0 
C:\Users\CYMR90~1\AppData\Local\Temp\ccmBQqfl.s:1825   .text.adc_watchdog_disable:0000000000000002 .L0 
C:\Users\CYMR90~1\AppData\Local\Temp\ccmBQqfl.s:1827   .text.adc_watchdog_disable:0000000000000004 .L0 
C:\Users\CYMR90~1\AppData\Local\Temp\ccmBQqfl.s:1829   .text.adc_watchdog_disable:0000000000000006 .L0 
C:\Users\CYMR90~1\AppData\Local\Temp\ccmBQqfl.s:1831   .text.adc_watchdog_disable:0000000000000006 .L0 
C:\Users\CYMR90~1\AppData\Local\Temp\ccmBQqfl.s:1841   .text.adc_watchdog_disable:0000000000000020 .L0 
C:\Users\CYMR90~1\AppData\Local\Temp\ccmBQqfl.s:1843   .text.adc_watchdog_disable:0000000000000024 .L0 
C:\Users\CYMR90~1\AppData\Local\Temp\ccmBQqfl.s:1844   .text.adc_watchdog_disable:0000000000000024 .L0 
C:\Users\CYMR90~1\AppData\Local\Temp\ccmBQqfl.s:1846   .text.adc_watchdog_disable:0000000000000026 .L0 
C:\Users\CYMR90~1\AppData\Local\Temp\ccmBQqfl.s:1848   .text.adc_watchdog_disable:0000000000000028 .L0 
C:\Users\CYMR90~1\AppData\Local\Temp\ccmBQqfl.s:1855   .text.adc_watchdog_threshold_config:0000000000000000 adc_watchdog_threshold_config
C:\Users\CYMR90~1\AppData\Local\Temp\ccmBQqfl.s:1858   .text.adc_watchdog_threshold_config:0000000000000000 .L0 
C:\Users\CYMR90~1\AppData\Local\Temp\ccmBQqfl.s:1859   .text.adc_watchdog_threshold_config:0000000000000000 .L0 
C:\Users\CYMR90~1\AppData\Local\Temp\ccmBQqfl.s:1860   .text.adc_watchdog_threshold_config:0000000000000002 .L0 
C:\Users\CYMR90~1\AppData\Local\Temp\ccmBQqfl.s:1862   .text.adc_watchdog_threshold_config:0000000000000004 .L0 
C:\Users\CYMR90~1\AppData\Local\Temp\ccmBQqfl.s:1864   .text.adc_watchdog_threshold_config:0000000000000006 .L0 
C:\Users\CYMR90~1\AppData\Local\Temp\ccmBQqfl.s:1871   .text.adc_watchdog_threshold_config:0000000000000014 .L0 
C:\Users\CYMR90~1\AppData\Local\Temp\ccmBQqfl.s:1873   .text.adc_watchdog_threshold_config:0000000000000018 .L0 
C:\Users\CYMR90~1\AppData\Local\Temp\ccmBQqfl.s:1876   .text.adc_watchdog_threshold_config:0000000000000020 .L0 
C:\Users\CYMR90~1\AppData\Local\Temp\ccmBQqfl.s:1880   .text.adc_watchdog_threshold_config:0000000000000026 .L0 
C:\Users\CYMR90~1\AppData\Local\Temp\ccmBQqfl.s:1882   .text.adc_watchdog_threshold_config:0000000000000028 .L0 
C:\Users\CYMR90~1\AppData\Local\Temp\ccmBQqfl.s:1884   .text.adc_watchdog_threshold_config:000000000000002c .L0 
C:\Users\CYMR90~1\AppData\Local\Temp\ccmBQqfl.s:1887   .text.adc_watchdog_threshold_config:0000000000000034 .L0 
C:\Users\CYMR90~1\AppData\Local\Temp\ccmBQqfl.s:1891   .text.adc_watchdog_threshold_config:000000000000003a .L0 
C:\Users\CYMR90~1\AppData\Local\Temp\ccmBQqfl.s:1893   .text.adc_watchdog_threshold_config:000000000000003c .L0 
C:\Users\CYMR90~1\AppData\Local\Temp\ccmBQqfl.s:1895   .text.adc_watchdog_threshold_config:0000000000000040 .L0 
C:\Users\CYMR90~1\AppData\Local\Temp\ccmBQqfl.s:1896   .text.adc_watchdog_threshold_config:0000000000000040 .L0 
C:\Users\CYMR90~1\AppData\Local\Temp\ccmBQqfl.s:1898   .text.adc_watchdog_threshold_config:0000000000000042 .L0 
C:\Users\CYMR90~1\AppData\Local\Temp\ccmBQqfl.s:1900   .text.adc_watchdog_threshold_config:0000000000000044 .L0 
C:\Users\CYMR90~1\AppData\Local\Temp\ccmBQqfl.s:1907   .text.adc_oversample_mode_config:0000000000000000 adc_oversample_mode_config
C:\Users\CYMR90~1\AppData\Local\Temp\ccmBQqfl.s:1910   .text.adc_oversample_mode_config:0000000000000000 .L0 
C:\Users\CYMR90~1\AppData\Local\Temp\ccmBQqfl.s:1911   .text.adc_oversample_mode_config:0000000000000000 .L0 
C:\Users\CYMR90~1\AppData\Local\Temp\ccmBQqfl.s:1912   .text.adc_oversample_mode_config:0000000000000002 .L0 
C:\Users\CYMR90~1\AppData\Local\Temp\ccmBQqfl.s:1914   .text.adc_oversample_mode_config:0000000000000004 .L0 
C:\Users\CYMR90~1\AppData\Local\Temp\ccmBQqfl.s:1916   .text.adc_oversample_mode_config:0000000000000006 .L0 
C:\Users\CYMR90~1\AppData\Local\Temp\ccmBQqfl.s:1924   .text.adc_oversample_mode_config:0000000000000018 .L0 
C:\Users\CYMR90~1\AppData\Local\Temp\ccmBQqfl.s:1928   .text.adc_oversample_mode_config:0000000000000024 .L0 
C:\Users\CYMR90~1\AppData\Local\Temp\ccmBQqfl.s:1938   .text.adc_oversample_mode_config:000000000000003e .L0 
C:\Users\CYMR90~1\AppData\Local\Temp\ccmBQqfl.s:1947   .text.adc_oversample_mode_config:0000000000000056 .L0 
C:\Users\CYMR90~1\AppData\Local\Temp\ccmBQqfl.s:1955   .text.adc_oversample_mode_config:000000000000006e .L0 
C:\Users\CYMR90~1\AppData\Local\Temp\ccmBQqfl.s:1959   .text.adc_oversample_mode_config:0000000000000078 .L0 
C:\Users\CYMR90~1\AppData\Local\Temp\ccmBQqfl.s:1961   .text.adc_oversample_mode_config:000000000000007c .L0 
C:\Users\CYMR90~1\AppData\Local\Temp\ccmBQqfl.s:1963   .text.adc_oversample_mode_config:0000000000000080 .L0 
C:\Users\CYMR90~1\AppData\Local\Temp\ccmBQqfl.s:1965   .text.adc_oversample_mode_config:0000000000000082 .L0 
C:\Users\CYMR90~1\AppData\Local\Temp\ccmBQqfl.s:1970   .text.adc_oversample_mode_config:000000000000008e .L0 
C:\Users\CYMR90~1\AppData\Local\Temp\ccmBQqfl.s:1972   .text.adc_oversample_mode_config:0000000000000092 .L0 
C:\Users\CYMR90~1\AppData\Local\Temp\ccmBQqfl.s:1973   .text.adc_oversample_mode_config:0000000000000092 .L0 
C:\Users\CYMR90~1\AppData\Local\Temp\ccmBQqfl.s:1975   .text.adc_oversample_mode_config:0000000000000094 .L0 
C:\Users\CYMR90~1\AppData\Local\Temp\ccmBQqfl.s:1977   .text.adc_oversample_mode_config:0000000000000096 .L0 
C:\Users\CYMR90~1\AppData\Local\Temp\ccmBQqfl.s:1984   .text.adc_oversample_mode_enable:0000000000000000 adc_oversample_mode_enable
C:\Users\CYMR90~1\AppData\Local\Temp\ccmBQqfl.s:1987   .text.adc_oversample_mode_enable:0000000000000000 .L0 
C:\Users\CYMR90~1\AppData\Local\Temp\ccmBQqfl.s:1988   .text.adc_oversample_mode_enable:0000000000000000 .L0 
C:\Users\CYMR90~1\AppData\Local\Temp\ccmBQqfl.s:1989   .text.adc_oversample_mode_enable:0000000000000002 .L0 
C:\Users\CYMR90~1\AppData\Local\Temp\ccmBQqfl.s:1991   .text.adc_oversample_mode_enable:0000000000000004 .L0 
C:\Users\CYMR90~1\AppData\Local\Temp\ccmBQqfl.s:1993   .text.adc_oversample_mode_enable:0000000000000006 .L0 
C:\Users\CYMR90~1\AppData\Local\Temp\ccmBQqfl.s:1995   .text.adc_oversample_mode_enable:0000000000000006 .L0 
C:\Users\CYMR90~1\AppData\Local\Temp\ccmBQqfl.s:2003   .text.adc_oversample_mode_enable:000000000000001e .L0 
C:\Users\CYMR90~1\AppData\Local\Temp\ccmBQqfl.s:2005   .text.adc_oversample_mode_enable:0000000000000022 .L0 
C:\Users\CYMR90~1\AppData\Local\Temp\ccmBQqfl.s:2006   .text.adc_oversample_mode_enable:0000000000000022 .L0 
C:\Users\CYMR90~1\AppData\Local\Temp\ccmBQqfl.s:2008   .text.adc_oversample_mode_enable:0000000000000024 .L0 
C:\Users\CYMR90~1\AppData\Local\Temp\ccmBQqfl.s:2010   .text.adc_oversample_mode_enable:0000000000000026 .L0 
C:\Users\CYMR90~1\AppData\Local\Temp\ccmBQqfl.s:2017   .text.adc_oversample_mode_disable:0000000000000000 adc_oversample_mode_disable
C:\Users\CYMR90~1\AppData\Local\Temp\ccmBQqfl.s:2020   .text.adc_oversample_mode_disable:0000000000000000 .L0 
C:\Users\CYMR90~1\AppData\Local\Temp\ccmBQqfl.s:2021   .text.adc_oversample_mode_disable:0000000000000000 .L0 
C:\Users\CYMR90~1\AppData\Local\Temp\ccmBQqfl.s:2022   .text.adc_oversample_mode_disable:0000000000000002 .L0 
C:\Users\CYMR90~1\AppData\Local\Temp\ccmBQqfl.s:2024   .text.adc_oversample_mode_disable:0000000000000004 .L0 
C:\Users\CYMR90~1\AppData\Local\Temp\ccmBQqfl.s:2026   .text.adc_oversample_mode_disable:0000000000000006 .L0 
C:\Users\CYMR90~1\AppData\Local\Temp\ccmBQqfl.s:2028   .text.adc_oversample_mode_disable:0000000000000006 .L0 
C:\Users\CYMR90~1\AppData\Local\Temp\ccmBQqfl.s:2036   .text.adc_oversample_mode_disable:000000000000001c .L0 
C:\Users\CYMR90~1\AppData\Local\Temp\ccmBQqfl.s:2038   .text.adc_oversample_mode_disable:0000000000000020 .L0 
C:\Users\CYMR90~1\AppData\Local\Temp\ccmBQqfl.s:2039   .text.adc_oversample_mode_disable:0000000000000020 .L0 
C:\Users\CYMR90~1\AppData\Local\Temp\ccmBQqfl.s:2041   .text.adc_oversample_mode_disable:0000000000000022 .L0 
C:\Users\CYMR90~1\AppData\Local\Temp\ccmBQqfl.s:2043   .text.adc_oversample_mode_disable:0000000000000024 .L0 
C:\Users\CYMR90~1\AppData\Local\Temp\ccmBQqfl.s:2050   .text.adc_flag_get:0000000000000000 adc_flag_get
C:\Users\CYMR90~1\AppData\Local\Temp\ccmBQqfl.s:2053   .text.adc_flag_get:0000000000000000 .L0 
C:\Users\CYMR90~1\AppData\Local\Temp\ccmBQqfl.s:2054   .text.adc_flag_get:0000000000000000 .L0 
C:\Users\CYMR90~1\AppData\Local\Temp\ccmBQqfl.s:2055   .text.adc_flag_get:0000000000000002 .L0 
C:\Users\CYMR90~1\AppData\Local\Temp\ccmBQqfl.s:2057   .text.adc_flag_get:0000000000000004 .L0 
C:\Users\CYMR90~1\AppData\Local\Temp\ccmBQqfl.s:2059   .text.adc_flag_get:0000000000000006 .L0 
C:\Users\CYMR90~1\AppData\Local\Temp\ccmBQqfl.s:2062   .text.adc_flag_get:000000000000000a .L0 
C:\Users\CYMR90~1\AppData\Local\Temp\ccmBQqfl.s:2064   .text.adc_flag_get:000000000000000e .L0 
C:\Users\CYMR90~1\AppData\Local\Temp\ccmBQqfl.s:2067   .text.adc_flag_get:0000000000000014 .L0 
C:\Users\CYMR90~1\AppData\Local\Temp\ccmBQqfl.s:2070   .text.adc_flag_get:000000000000001a .L0 
C:\Users\CYMR90~1\AppData\Local\Temp\ccmBQqfl.s:2072   .text.adc_flag_get:000000000000001c .L0 
C:\Users\CYMR90~1\AppData\Local\Temp\ccmBQqfl.s:2076   .text.adc_flag_get:0000000000000022 .L0 
C:\Users\CYMR90~1\AppData\Local\Temp\ccmBQqfl.s:2078   .text.adc_flag_get:0000000000000026 .L0 
C:\Users\CYMR90~1\AppData\Local\Temp\ccmBQqfl.s:2080   .text.adc_flag_get:000000000000002a .L0 
C:\Users\CYMR90~1\AppData\Local\Temp\ccmBQqfl.s:2081   .text.adc_flag_get:000000000000002a .L0 
C:\Users\CYMR90~1\AppData\Local\Temp\ccmBQqfl.s:2083   .text.adc_flag_get:000000000000002c .L0 
C:\Users\CYMR90~1\AppData\Local\Temp\ccmBQqfl.s:2085   .text.adc_flag_get:000000000000002e .L0 
C:\Users\CYMR90~1\AppData\Local\Temp\ccmBQqfl.s:2092   .text.adc_flag_clear:0000000000000000 adc_flag_clear
C:\Users\CYMR90~1\AppData\Local\Temp\ccmBQqfl.s:2095   .text.adc_flag_clear:0000000000000000 .L0 
C:\Users\CYMR90~1\AppData\Local\Temp\ccmBQqfl.s:2096   .text.adc_flag_clear:0000000000000000 .L0 
C:\Users\CYMR90~1\AppData\Local\Temp\ccmBQqfl.s:2097   .text.adc_flag_clear:0000000000000002 .L0 
C:\Users\CYMR90~1\AppData\Local\Temp\ccmBQqfl.s:2099   .text.adc_flag_clear:0000000000000004 .L0 
C:\Users\CYMR90~1\AppData\Local\Temp\ccmBQqfl.s:2101   .text.adc_flag_clear:0000000000000006 .L0 
C:\Users\CYMR90~1\AppData\Local\Temp\ccmBQqfl.s:2104   .text.adc_flag_clear:000000000000000a .L0 
C:\Users\CYMR90~1\AppData\Local\Temp\ccmBQqfl.s:2106   .text.adc_flag_clear:000000000000000e .L0 
C:\Users\CYMR90~1\AppData\Local\Temp\ccmBQqfl.s:2109   .text.adc_flag_clear:0000000000000016 .L0 
C:\Users\CYMR90~1\AppData\Local\Temp\ccmBQqfl.s:2111   .text.adc_flag_clear:0000000000000018 .L0 
C:\Users\CYMR90~1\AppData\Local\Temp\ccmBQqfl.s:2113   .text.adc_flag_clear:000000000000001c .L0 
C:\Users\CYMR90~1\AppData\Local\Temp\ccmBQqfl.s:2114   .text.adc_flag_clear:000000000000001c .L0 
C:\Users\CYMR90~1\AppData\Local\Temp\ccmBQqfl.s:2116   .text.adc_flag_clear:000000000000001e .L0 
C:\Users\CYMR90~1\AppData\Local\Temp\ccmBQqfl.s:2118   .text.adc_flag_clear:0000000000000020 .L0 
C:\Users\CYMR90~1\AppData\Local\Temp\ccmBQqfl.s:2125   .text.adc_interrupt_enable:0000000000000000 adc_interrupt_enable
C:\Users\CYMR90~1\AppData\Local\Temp\ccmBQqfl.s:2128   .text.adc_interrupt_enable:0000000000000000 .L0 
C:\Users\CYMR90~1\AppData\Local\Temp\ccmBQqfl.s:2129   .text.adc_interrupt_enable:0000000000000000 .L0 
C:\Users\CYMR90~1\AppData\Local\Temp\ccmBQqfl.s:2130   .text.adc_interrupt_enable:0000000000000002 .L0 
C:\Users\CYMR90~1\AppData\Local\Temp\ccmBQqfl.s:2132   .text.adc_interrupt_enable:0000000000000004 .L0 
C:\Users\CYMR90~1\AppData\Local\Temp\ccmBQqfl.s:2134   .text.adc_interrupt_enable:0000000000000006 .L0 
C:\Users\CYMR90~1\AppData\Local\Temp\ccmBQqfl.s:2137   .text.adc_interrupt_enable:000000000000000a .L0 
C:\Users\CYMR90~1\AppData\Local\Temp\ccmBQqfl.s:2156   .text.adc_interrupt_enable:0000000000000052 .L0 
C:\Users\CYMR90~1\AppData\Local\Temp\ccmBQqfl.s:2164   .text.adc_interrupt_enable:0000000000000066 .L0 
C:\Users\CYMR90~1\AppData\Local\Temp\ccmBQqfl.s:2167   .text.adc_interrupt_enable:0000000000000068 .L0 
C:\Users\CYMR90~1\AppData\Local\Temp\ccmBQqfl.s:2175   .text.adc_interrupt_enable:000000000000007c .L0 
C:\Users\CYMR90~1\AppData\Local\Temp\ccmBQqfl.s:2178   .text.adc_interrupt_enable:000000000000007e .L0 
C:\Users\CYMR90~1\AppData\Local\Temp\ccmBQqfl.s:2186   .text.adc_interrupt_enable:0000000000000092 .L0 
C:\Users\CYMR90~1\AppData\Local\Temp\ccmBQqfl.s:2189   .text.adc_interrupt_enable:0000000000000094 .L0 
C:\Users\CYMR90~1\AppData\Local\Temp\ccmBQqfl.s:2198   .text.adc_interrupt_enable:00000000000000aa .L0 
C:\Users\CYMR90~1\AppData\Local\Temp\ccmBQqfl.s:2201   .text.adc_interrupt_enable:00000000000000ac .L0 
C:\Users\CYMR90~1\AppData\Local\Temp\ccmBQqfl.s:2204   .text.adc_interrupt_enable:00000000000000ae .L0 
C:\Users\CYMR90~1\AppData\Local\Temp\ccmBQqfl.s:2206   .text.adc_interrupt_enable:00000000000000b2 .L0 
C:\Users\CYMR90~1\AppData\Local\Temp\ccmBQqfl.s:2207   .text.adc_interrupt_enable:00000000000000b2 .L0 
C:\Users\CYMR90~1\AppData\Local\Temp\ccmBQqfl.s:2209   .text.adc_interrupt_enable:00000000000000b4 .L0 
C:\Users\CYMR90~1\AppData\Local\Temp\ccmBQqfl.s:2211   .text.adc_interrupt_enable:00000000000000b6 .L0 
C:\Users\CYMR90~1\AppData\Local\Temp\ccmBQqfl.s:2218   .text.adc_interrupt_disable:0000000000000000 adc_interrupt_disable
C:\Users\CYMR90~1\AppData\Local\Temp\ccmBQqfl.s:2221   .text.adc_interrupt_disable:0000000000000000 .L0 
C:\Users\CYMR90~1\AppData\Local\Temp\ccmBQqfl.s:2222   .text.adc_interrupt_disable:0000000000000000 .L0 
C:\Users\CYMR90~1\AppData\Local\Temp\ccmBQqfl.s:2223   .text.adc_interrupt_disable:0000000000000002 .L0 
C:\Users\CYMR90~1\AppData\Local\Temp\ccmBQqfl.s:2225   .text.adc_interrupt_disable:0000000000000004 .L0 
C:\Users\CYMR90~1\AppData\Local\Temp\ccmBQqfl.s:2227   .text.adc_interrupt_disable:0000000000000006 .L0 
C:\Users\CYMR90~1\AppData\Local\Temp\ccmBQqfl.s:2230   .text.adc_interrupt_disable:000000000000000a .L0 
C:\Users\CYMR90~1\AppData\Local\Temp\ccmBQqfl.s:2249   .text.adc_interrupt_disable:0000000000000052 .L0 
C:\Users\CYMR90~1\AppData\Local\Temp\ccmBQqfl.s:2257   .text.adc_interrupt_disable:0000000000000066 .L0 
C:\Users\CYMR90~1\AppData\Local\Temp\ccmBQqfl.s:2260   .text.adc_interrupt_disable:0000000000000068 .L0 
C:\Users\CYMR90~1\AppData\Local\Temp\ccmBQqfl.s:2268   .text.adc_interrupt_disable:000000000000007c .L0 
C:\Users\CYMR90~1\AppData\Local\Temp\ccmBQqfl.s:2271   .text.adc_interrupt_disable:000000000000007e .L0 
C:\Users\CYMR90~1\AppData\Local\Temp\ccmBQqfl.s:2279   .text.adc_interrupt_disable:0000000000000092 .L0 
C:\Users\CYMR90~1\AppData\Local\Temp\ccmBQqfl.s:2282   .text.adc_interrupt_disable:0000000000000094 .L0 
C:\Users\CYMR90~1\AppData\Local\Temp\ccmBQqfl.s:2292   .text.adc_interrupt_disable:00000000000000ac .L0 
C:\Users\CYMR90~1\AppData\Local\Temp\ccmBQqfl.s:2295   .text.adc_interrupt_disable:00000000000000ae .L0 
C:\Users\CYMR90~1\AppData\Local\Temp\ccmBQqfl.s:2298   .text.adc_interrupt_disable:00000000000000b0 .L0 
C:\Users\CYMR90~1\AppData\Local\Temp\ccmBQqfl.s:2300   .text.adc_interrupt_disable:00000000000000b4 .L0 
C:\Users\CYMR90~1\AppData\Local\Temp\ccmBQqfl.s:2301   .text.adc_interrupt_disable:00000000000000b4 .L0 
C:\Users\CYMR90~1\AppData\Local\Temp\ccmBQqfl.s:2303   .text.adc_interrupt_disable:00000000000000b6 .L0 
C:\Users\CYMR90~1\AppData\Local\Temp\ccmBQqfl.s:2305   .text.adc_interrupt_disable:00000000000000b8 .L0 
C:\Users\CYMR90~1\AppData\Local\Temp\ccmBQqfl.s:2312   .text.adc_interrupt_flag_get:0000000000000000 adc_interrupt_flag_get
C:\Users\CYMR90~1\AppData\Local\Temp\ccmBQqfl.s:2315   .text.adc_interrupt_flag_get:0000000000000000 .L0 
C:\Users\CYMR90~1\AppData\Local\Temp\ccmBQqfl.s:2316   .text.adc_interrupt_flag_get:0000000000000000 .L0 
C:\Users\CYMR90~1\AppData\Local\Temp\ccmBQqfl.s:2317   .text.adc_interrupt_flag_get:0000000000000002 .L0 
C:\Users\CYMR90~1\AppData\Local\Temp\ccmBQqfl.s:2319   .text.adc_interrupt_flag_get:0000000000000004 .L0 
C:\Users\CYMR90~1\AppData\Local\Temp\ccmBQqfl.s:2321   .text.adc_interrupt_flag_get:0000000000000006 .L0 
C:\Users\CYMR90~1\AppData\Local\Temp\ccmBQqfl.s:2324   .text.adc_interrupt_flag_get:000000000000000a .L0 
C:\Users\CYMR90~1\AppData\Local\Temp\ccmBQqfl.s:2326   .text.adc_interrupt_flag_get:000000000000000e .L0 
C:\Users\CYMR90~1\AppData\Local\Temp\ccmBQqfl.s:2345   .text.adc_interrupt_flag_get:000000000000004e .L0 
C:\Users\CYMR90~1\AppData\Local\Temp\ccmBQqfl.s:2348   .text.adc_interrupt_flag_get:0000000000000050 .L0 
C:\Users\CYMR90~1\AppData\Local\Temp\ccmBQqfl.s:2351   .text.adc_interrupt_flag_get:0000000000000056 .L0 
C:\Users\CYMR90~1\AppData\Local\Temp\ccmBQqfl.s:2354   .text.adc_interrupt_flag_get:000000000000005c .L0 
C:\Users\CYMR90~1\AppData\Local\Temp\ccmBQqfl.s:2358   .text.adc_interrupt_flag_get:0000000000000064 .L0 
C:\Users\CYMR90~1\AppData\Local\Temp\ccmBQqfl.s:2360   .text.adc_interrupt_flag_get:0000000000000068 .L0 
C:\Users\CYMR90~1\AppData\Local\Temp\ccmBQqfl.s:2362   .text.adc_interrupt_flag_get:000000000000006a .L0 
C:\Users\CYMR90~1\AppData\Local\Temp\ccmBQqfl.s:2365   .text.adc_interrupt_flag_get:0000000000000070 .L0 
C:\Users\CYMR90~1\AppData\Local\Temp\ccmBQqfl.s:2368   .text.adc_interrupt_flag_get:0000000000000076 .L0 
C:\Users\CYMR90~1\AppData\Local\Temp\ccmBQqfl.s:2371   .text.adc_interrupt_flag_get:0000000000000078 .L0 
C:\Users\CYMR90~1\AppData\Local\Temp\ccmBQqfl.s:2374   .text.adc_interrupt_flag_get:000000000000007e .L0 
C:\Users\CYMR90~1\AppData\Local\Temp\ccmBQqfl.s:2377   .text.adc_interrupt_flag_get:0000000000000084 .L0 
C:\Users\CYMR90~1\AppData\Local\Temp\ccmBQqfl.s:2381   .text.adc_interrupt_flag_get:000000000000008c .L0 
C:\Users\CYMR90~1\AppData\Local\Temp\ccmBQqfl.s:2383   .text.adc_interrupt_flag_get:0000000000000090 .L0 
C:\Users\CYMR90~1\AppData\Local\Temp\ccmBQqfl.s:2385   .text.adc_interrupt_flag_get:0000000000000092 .L0 
C:\Users\CYMR90~1\AppData\Local\Temp\ccmBQqfl.s:2388   .text.adc_interrupt_flag_get:0000000000000098 .L0 
C:\Users\CYMR90~1\AppData\Local\Temp\ccmBQqfl.s:2391   .text.adc_interrupt_flag_get:000000000000009e .L0 
C:\Users\CYMR90~1\AppData\Local\Temp\ccmBQqfl.s:2394   .text.adc_interrupt_flag_get:00000000000000a0 .L0 
C:\Users\CYMR90~1\AppData\Local\Temp\ccmBQqfl.s:2397   .text.adc_interrupt_flag_get:00000000000000a6 .L0 
C:\Users\CYMR90~1\AppData\Local\Temp\ccmBQqfl.s:2400   .text.adc_interrupt_flag_get:00000000000000ac .L0 
C:\Users\CYMR90~1\AppData\Local\Temp\ccmBQqfl.s:2404   .text.adc_interrupt_flag_get:00000000000000b4 .L0 
C:\Users\CYMR90~1\AppData\Local\Temp\ccmBQqfl.s:2406   .text.adc_interrupt_flag_get:00000000000000b8 .L0 
C:\Users\CYMR90~1\AppData\Local\Temp\ccmBQqfl.s:2408   .text.adc_interrupt_flag_get:00000000000000ba .L0 
C:\Users\CYMR90~1\AppData\Local\Temp\ccmBQqfl.s:2411   .text.adc_interrupt_flag_get:00000000000000c0 .L0 
C:\Users\CYMR90~1\AppData\Local\Temp\ccmBQqfl.s:2414   .text.adc_interrupt_flag_get:00000000000000c6 .L0 
C:\Users\CYMR90~1\AppData\Local\Temp\ccmBQqfl.s:2417   .text.adc_interrupt_flag_get:00000000000000c8 .L0 
C:\Users\CYMR90~1\AppData\Local\Temp\ccmBQqfl.s:2420   .text.adc_interrupt_flag_get:00000000000000ce .L0 
C:\Users\CYMR90~1\AppData\Local\Temp\ccmBQqfl.s:2423   .text.adc_interrupt_flag_get:00000000000000d6 .L0 
C:\Users\CYMR90~1\AppData\Local\Temp\ccmBQqfl.s:2427   .text.adc_interrupt_flag_get:00000000000000de .L0 
C:\Users\CYMR90~1\AppData\Local\Temp\ccmBQqfl.s:2430   .text.adc_interrupt_flag_get:00000000000000e4 .L0 
C:\Users\CYMR90~1\AppData\Local\Temp\ccmBQqfl.s:2432   .text.adc_interrupt_flag_get:00000000000000e6 .L0 
C:\Users\CYMR90~1\AppData\Local\Temp\ccmBQqfl.s:2435   .text.adc_interrupt_flag_get:00000000000000ec .L0 
C:\Users\CYMR90~1\AppData\Local\Temp\ccmBQqfl.s:2438   .text.adc_interrupt_flag_get:00000000000000f2 .L0 
C:\Users\CYMR90~1\AppData\Local\Temp\ccmBQqfl.s:2441   .text.adc_interrupt_flag_get:00000000000000f4 .L0 
C:\Users\CYMR90~1\AppData\Local\Temp\ccmBQqfl.s:2445   .text.adc_interrupt_flag_get:00000000000000f8 .L0 
C:\Users\CYMR90~1\AppData\Local\Temp\ccmBQqfl.s:2449   .text.adc_interrupt_flag_get:00000000000000fc .L0 
C:\Users\CYMR90~1\AppData\Local\Temp\ccmBQqfl.s:2453   .text.adc_interrupt_flag_get:0000000000000100 .L0 
C:\Users\CYMR90~1\AppData\Local\Temp\ccmBQqfl.s:2457   .text.adc_interrupt_flag_get:0000000000000104 .L0 
C:\Users\CYMR90~1\AppData\Local\Temp\ccmBQqfl.s:2460   .text.adc_interrupt_flag_get:0000000000000106 .L0 
C:\Users\CYMR90~1\AppData\Local\Temp\ccmBQqfl.s:2462   .text.adc_interrupt_flag_get:000000000000010a .L0 
C:\Users\CYMR90~1\AppData\Local\Temp\ccmBQqfl.s:2464   .text.adc_interrupt_flag_get:000000000000010e .L0 
C:\Users\CYMR90~1\AppData\Local\Temp\ccmBQqfl.s:2465   .text.adc_interrupt_flag_get:000000000000010e .L0 
C:\Users\CYMR90~1\AppData\Local\Temp\ccmBQqfl.s:2467   .text.adc_interrupt_flag_get:0000000000000110 .L0 
C:\Users\CYMR90~1\AppData\Local\Temp\ccmBQqfl.s:2469   .text.adc_interrupt_flag_get:0000000000000112 .L0 
C:\Users\CYMR90~1\AppData\Local\Temp\ccmBQqfl.s:2476   .text.adc_interrupt_flag_clear:0000000000000000 adc_interrupt_flag_clear
C:\Users\CYMR90~1\AppData\Local\Temp\ccmBQqfl.s:2479   .text.adc_interrupt_flag_clear:0000000000000000 .L0 
C:\Users\CYMR90~1\AppData\Local\Temp\ccmBQqfl.s:2480   .text.adc_interrupt_flag_clear:0000000000000000 .L0 
C:\Users\CYMR90~1\AppData\Local\Temp\ccmBQqfl.s:2481   .text.adc_interrupt_flag_clear:0000000000000002 .L0 
C:\Users\CYMR90~1\AppData\Local\Temp\ccmBQqfl.s:2483   .text.adc_interrupt_flag_clear:0000000000000004 .L0 
C:\Users\CYMR90~1\AppData\Local\Temp\ccmBQqfl.s:2485   .text.adc_interrupt_flag_clear:0000000000000006 .L0 
C:\Users\CYMR90~1\AppData\Local\Temp\ccmBQqfl.s:2488   .text.adc_interrupt_flag_clear:000000000000000a .L0 
C:\Users\CYMR90~1\AppData\Local\Temp\ccmBQqfl.s:2490   .text.adc_interrupt_flag_clear:000000000000000e .L0 
C:\Users\CYMR90~1\AppData\Local\Temp\ccmBQqfl.s:2493   .text.adc_interrupt_flag_clear:0000000000000016 .L0 
C:\Users\CYMR90~1\AppData\Local\Temp\ccmBQqfl.s:2495   .text.adc_interrupt_flag_clear:0000000000000018 .L0 
C:\Users\CYMR90~1\AppData\Local\Temp\ccmBQqfl.s:2497   .text.adc_interrupt_flag_clear:000000000000001c .L0 
C:\Users\CYMR90~1\AppData\Local\Temp\ccmBQqfl.s:2498   .text.adc_interrupt_flag_clear:000000000000001c .L0 
C:\Users\CYMR90~1\AppData\Local\Temp\ccmBQqfl.s:2500   .text.adc_interrupt_flag_clear:000000000000001e .L0 
C:\Users\CYMR90~1\AppData\Local\Temp\ccmBQqfl.s:2502   .text.adc_interrupt_flag_clear:0000000000000020 .L0 
C:\Users\CYMR90~1\AppData\Local\Temp\ccmBQqfl.s:47     .text.adc_deinit:000000000000002e .L0 
C:\Users\CYMR90~1\AppData\Local\Temp\ccmBQqfl.s:92     .text.adc_clock_config:0000000000000048 .L0 
C:\Users\CYMR90~1\AppData\Local\Temp\ccmBQqfl.s:134    .text.adc_enable:000000000000002e .L0 
C:\Users\CYMR90~1\AppData\Local\Temp\ccmBQqfl.s:167    .text.adc_disable:0000000000000020 .L0 
C:\Users\CYMR90~1\AppData\Local\Temp\ccmBQqfl.s:200    .text.adc_dma_mode_enable:0000000000000022 .L0 
C:\Users\CYMR90~1\AppData\Local\Temp\ccmBQqfl.s:233    .text.adc_dma_mode_disable:0000000000000022 .L0 
C:\Users\CYMR90~1\AppData\Local\Temp\ccmBQqfl.s:266    .text.adc_dma_request_after_last_enable:0000000000000022 .L0 
C:\Users\CYMR90~1\AppData\Local\Temp\ccmBQqfl.s:299    .text.adc_dma_request_after_last_disable:0000000000000022 .L0 
C:\Users\CYMR90~1\AppData\Local\Temp\ccmBQqfl.s:407    .text.adc_discontinuous_mode_config:00000000000000be .L0 
C:\Users\CYMR90~1\AppData\Local\Temp\ccmBQqfl.s:523    .text.adc_special_function_config:00000000000000cc .L0 
C:\Users\CYMR90~1\AppData\Local\Temp\ccmBQqfl.s:557    .text.adc_tempsensor_vrefint_enable:0000000000000028 .L0 
C:\Users\CYMR90~1\AppData\Local\Temp\ccmBQqfl.s:592    .text.adc_tempsensor_vrefint_disable:000000000000002a .L0 
C:\Users\CYMR90~1\AppData\Local\Temp\ccmBQqfl.s:645    .text.adc_data_alignment_config:000000000000004a .L0 
C:\Users\CYMR90~1\AppData\Local\Temp\ccmBQqfl.s:760    .text.adc_channel_length_config:00000000000000d8 .L0 
C:\Users\CYMR90~1\AppData\Local\Temp\ccmBQqfl.s:968    .text.adc_routine_channel_config:0000000000000198 .L0 
C:\Users\CYMR90~1\AppData\Local\Temp\ccmBQqfl.s:1149   .text.adc_inserted_channel_config:000000000000015c .L0 
C:\Users\CYMR90~1\AppData\Local\Temp\ccmBQqfl.s:1223   .text.adc_inserted_channel_offset_config:0000000000000076 .L0 
C:\Users\CYMR90~1\AppData\Local\Temp\ccmBQqfl.s:1310   .text.adc_external_trigger_config:0000000000000092 .L0 
C:\Users\CYMR90~1\AppData\Local\Temp\ccmBQqfl.s:1391   .text.adc_external_trigger_source_config:000000000000008a .L0 
C:\Users\CYMR90~1\AppData\Local\Temp\ccmBQqfl.s:1448   .text.adc_software_trigger_enable:0000000000000050 .L0 
C:\Users\CYMR90~1\AppData\Local\Temp\ccmBQqfl.s:1505   .text.adc_end_of_conversion_config:000000000000004e .L0 
C:\Users\CYMR90~1\AppData\Local\Temp\ccmBQqfl.s:1550   .text.adc_resolution_config:0000000000000040 .L0 
C:\Users\CYMR90~1\AppData\Local\Temp\ccmBQqfl.s:1582   .text.adc_routine_data_read:000000000000001c .L0 
C:\Users\CYMR90~1\AppData\Local\Temp\ccmBQqfl.s:1669   .text.adc_inserted_data_read:0000000000000088 .L0 
C:\Users\CYMR90~1\AppData\Local\Temp\ccmBQqfl.s:1727   .text.adc_watchdog_single_channel_enable:000000000000005e .L0 
C:\Users\CYMR90~1\AppData\Local\Temp\ccmBQqfl.s:1816   .text.adc_watchdog_group_channel_enable:0000000000000096 .L0 
C:\Users\CYMR90~1\AppData\Local\Temp\ccmBQqfl.s:1851   .text.adc_watchdog_disable:0000000000000028 .L0 
C:\Users\CYMR90~1\AppData\Local\Temp\ccmBQqfl.s:1903   .text.adc_watchdog_threshold_config:0000000000000044 .L0 
C:\Users\CYMR90~1\AppData\Local\Temp\ccmBQqfl.s:1980   .text.adc_oversample_mode_config:0000000000000096 .L0 
C:\Users\CYMR90~1\AppData\Local\Temp\ccmBQqfl.s:2013   .text.adc_oversample_mode_enable:0000000000000026 .L0 
C:\Users\CYMR90~1\AppData\Local\Temp\ccmBQqfl.s:2046   .text.adc_oversample_mode_disable:0000000000000024 .L0 
C:\Users\CYMR90~1\AppData\Local\Temp\ccmBQqfl.s:2088   .text.adc_flag_get:000000000000002e .L0 
C:\Users\CYMR90~1\AppData\Local\Temp\ccmBQqfl.s:2121   .text.adc_flag_clear:0000000000000020 .L0 
C:\Users\CYMR90~1\AppData\Local\Temp\ccmBQqfl.s:2214   .text.adc_interrupt_enable:00000000000000b6 .L0 
C:\Users\CYMR90~1\AppData\Local\Temp\ccmBQqfl.s:2308   .text.adc_interrupt_disable:00000000000000b8 .L0 
C:\Users\CYMR90~1\AppData\Local\Temp\ccmBQqfl.s:2472   .text.adc_interrupt_flag_get:0000000000000112 .L0 
C:\Users\CYMR90~1\AppData\Local\Temp\ccmBQqfl.s:2505   .text.adc_interrupt_flag_clear:0000000000000020 .L0 
                     .debug_frame:0000000000000000 .L0 
C:\Users\CYMR90~1\AppData\Local\Temp\ccmBQqfl.s:122    .text.adc_enable:0000000000000026 .L5
C:\Users\CYMR90~1\AppData\Local\Temp\ccmBQqfl.s:336    .text.adc_discontinuous_mode_config:000000000000003e .L12
C:\Users\CYMR90~1\AppData\Local\Temp\ccmBQqfl.s:383    .text.adc_discontinuous_mode_config:00000000000000a0 .L13
C:\Users\CYMR90~1\AppData\Local\Temp\ccmBQqfl.s:395    .text.adc_discontinuous_mode_config:00000000000000b6 .L16
C:\Users\CYMR90~1\AppData\Local\Temp\ccmBQqfl.s:370    .text.adc_discontinuous_mode_config:0000000000000086 .L15
C:\Users\CYMR90~1\AppData\Local\Temp\ccmBQqfl.s:469    .text.adc_special_function_config:000000000000006e .L18
C:\Users\CYMR90~1\AppData\Local\Temp\ccmBQqfl.s:439    .text.adc_special_function_config:0000000000000032 .L19
C:\Users\CYMR90~1\AppData\Local\Temp\ccmBQqfl.s:453    .text.adc_special_function_config:0000000000000050 .L20
C:\Users\CYMR90~1\AppData\Local\Temp\ccmBQqfl.s:511    .text.adc_special_function_config:00000000000000c4 .L24
C:\Users\CYMR90~1\AppData\Local\Temp\ccmBQqfl.s:483    .text.adc_special_function_config:000000000000008c .L22
C:\Users\CYMR90~1\AppData\Local\Temp\ccmBQqfl.s:497    .text.adc_special_function_config:00000000000000aa .L23
C:\Users\CYMR90~1\AppData\Local\Temp\ccmBQqfl.s:622    .text.adc_data_alignment_config:000000000000002a .L28
C:\Users\CYMR90~1\AppData\Local\Temp\ccmBQqfl.s:633    .text.adc_data_alignment_config:0000000000000042 .L30
C:\Users\CYMR90~1\AppData\Local\Temp\ccmBQqfl.s:670    .text.adc_channel_length_config:0000000000000022 .L32
C:\Users\CYMR90~1\AppData\Local\Temp\ccmBQqfl.s:705    .text.adc_channel_length_config:0000000000000076 .L33
C:\Users\CYMR90~1\AppData\Local\Temp\ccmBQqfl.s:747    .text.adc_channel_length_config:00000000000000d0 .L36
C:\Users\CYMR90~1\AppData\Local\Temp\ccmBQqfl.s:740    .text.adc_channel_length_config:00000000000000ca .L38
C:\Users\CYMR90~1\AppData\Local\Temp\ccmBQqfl.s:744    .text.adc_channel_length_config:00000000000000ce .L39
C:\Users\CYMR90~1\AppData\Local\Temp\ccmBQqfl.s:748    .text.adc_channel_length_config:00000000000000d0 .L40
C:\Users\CYMR90~1\AppData\Local\Temp\ccmBQqfl.s:824    .text.adc_routine_channel_config:000000000000007a .L42
C:\Users\CYMR90~1\AppData\Local\Temp\ccmBQqfl.s:872    .text.adc_routine_channel_config:00000000000000e2 .L43
C:\Users\CYMR90~1\AppData\Local\Temp\ccmBQqfl.s:913    .text.adc_routine_channel_config:0000000000000138 .L44
C:\Users\CYMR90~1\AppData\Local\Temp\ccmBQqfl.s:956    .text.adc_routine_channel_config:0000000000000190 .L46
C:\Users\CYMR90~1\AppData\Local\Temp\ccmBQqfl.s:1053   .text.adc_inserted_channel_config:00000000000000a6 .L48
C:\Users\CYMR90~1\AppData\Local\Temp\ccmBQqfl.s:1094   .text.adc_inserted_channel_config:00000000000000fc .L49
C:\Users\CYMR90~1\AppData\Local\Temp\ccmBQqfl.s:1137   .text.adc_inserted_channel_config:0000000000000154 .L51
C:\Users\CYMR90~1\AppData\Local\Temp\ccmBQqfl.s:1211   .text.adc_inserted_channel_offset_config:000000000000006e .L54
C:\Users\CYMR90~1\AppData\Local\Temp\ccmBQqfl.s:1248   .text.adc_external_trigger_config:0000000000000022 .L56
C:\Users\CYMR90~1\AppData\Local\Temp\ccmBQqfl.s:1273   .text.adc_external_trigger_config:0000000000000056 .L57
C:\Users\CYMR90~1\AppData\Local\Temp\ccmBQqfl.s:1298   .text.adc_external_trigger_config:000000000000008a .L59
C:\Users\CYMR90~1\AppData\Local\Temp\ccmBQqfl.s:1335   .text.adc_external_trigger_source_config:0000000000000022 .L61
C:\Users\CYMR90~1\AppData\Local\Temp\ccmBQqfl.s:1357   .text.adc_external_trigger_source_config:0000000000000052 .L62
C:\Users\CYMR90~1\AppData\Local\Temp\ccmBQqfl.s:1379   .text.adc_external_trigger_source_config:0000000000000082 .L64
C:\Users\CYMR90~1\AppData\Local\Temp\ccmBQqfl.s:1421   .text.adc_software_trigger_enable:000000000000002a .L66
C:\Users\CYMR90~1\AppData\Local\Temp\ccmBQqfl.s:1436   .text.adc_software_trigger_enable:0000000000000048 .L68
C:\Users\CYMR90~1\AppData\Local\Temp\ccmBQqfl.s:1471   .text.adc_end_of_conversion_config:000000000000001a .L70
C:\Users\CYMR90~1\AppData\Local\Temp\ccmBQqfl.s:1482   .text.adc_end_of_conversion_config:0000000000000030 .L71
C:\Users\CYMR90~1\AppData\Local\Temp\ccmBQqfl.s:1493   .text.adc_end_of_conversion_config:0000000000000046 .L73
C:\Users\CYMR90~1\AppData\Local\Temp\ccmBQqfl.s:1639   .text.adc_inserted_data_read:0000000000000062 .L78
C:\Users\CYMR90~1\AppData\Local\Temp\ccmBQqfl.s:1648   .text.adc_inserted_data_read:0000000000000072 .L79
C:\Users\CYMR90~1\AppData\Local\Temp\ccmBQqfl.s:1630   .text.adc_inserted_data_read:0000000000000052 .L80
C:\Users\CYMR90~1\AppData\Local\Temp\ccmBQqfl.s:1612   .text.adc_inserted_data_read:0000000000000032 .L81
C:\Users\CYMR90~1\AppData\Local\Temp\ccmBQqfl.s:1621   .text.adc_inserted_data_read:0000000000000042 .L82
C:\Users\CYMR90~1\AppData\Local\Temp\ccmBQqfl.s:1653   .text.adc_inserted_data_read:0000000000000078 .L83
C:\Users\CYMR90~1\AppData\Local\Temp\ccmBQqfl.s:1789   .text.adc_watchdog_group_channel_enable:0000000000000074 .L87
C:\Users\CYMR90~1\AppData\Local\Temp\ccmBQqfl.s:1801   .text.adc_watchdog_group_channel_enable:000000000000008c .L92
C:\Users\CYMR90~1\AppData\Local\Temp\ccmBQqfl.s:1765   .text.adc_watchdog_group_channel_enable:0000000000000044 .L89
C:\Users\CYMR90~1\AppData\Local\Temp\ccmBQqfl.s:1777   .text.adc_watchdog_group_channel_enable:000000000000005c .L90
C:\Users\CYMR90~1\AppData\Local\Temp\ccmBQqfl.s:1804   .text.adc_watchdog_group_channel_enable:000000000000008e .L91
C:\Users\CYMR90~1\AppData\Local\Temp\ccmBQqfl.s:1936   .text.adc_oversample_mode_config:000000000000003e .L96
C:\Users\CYMR90~1\AppData\Local\Temp\ccmBQqfl.s:1945   .text.adc_oversample_mode_config:0000000000000056 .L97
C:\Users\CYMR90~1\AppData\Local\Temp\ccmBQqfl.s:2074   .text.adc_flag_get:0000000000000022 .L101
C:\Users\CYMR90~1\AppData\Local\Temp\ccmBQqfl.s:2187   .text.adc_interrupt_enable:0000000000000094 .L105
C:\Users\CYMR90~1\AppData\Local\Temp\ccmBQqfl.s:2199   .text.adc_interrupt_enable:00000000000000ac .L110
C:\Users\CYMR90~1\AppData\Local\Temp\ccmBQqfl.s:2176   .text.adc_interrupt_enable:000000000000007e .L107
C:\Users\CYMR90~1\AppData\Local\Temp\ccmBQqfl.s:2165   .text.adc_interrupt_enable:0000000000000068 .L108
C:\Users\CYMR90~1\AppData\Local\Temp\ccmBQqfl.s:2202   .text.adc_interrupt_enable:00000000000000ae .L109
C:\Users\CYMR90~1\AppData\Local\Temp\ccmBQqfl.s:2280   .text.adc_interrupt_disable:0000000000000094 .L112
C:\Users\CYMR90~1\AppData\Local\Temp\ccmBQqfl.s:2293   .text.adc_interrupt_disable:00000000000000ae .L117
C:\Users\CYMR90~1\AppData\Local\Temp\ccmBQqfl.s:2269   .text.adc_interrupt_disable:000000000000007e .L114
C:\Users\CYMR90~1\AppData\Local\Temp\ccmBQqfl.s:2258   .text.adc_interrupt_disable:0000000000000068 .L115
C:\Users\CYMR90~1\AppData\Local\Temp\ccmBQqfl.s:2296   .text.adc_interrupt_disable:00000000000000b0 .L116
C:\Users\CYMR90~1\AppData\Local\Temp\ccmBQqfl.s:2415   .text.adc_interrupt_flag_get:00000000000000c8 .L119
C:\Users\CYMR90~1\AppData\Local\Temp\ccmBQqfl.s:2439   .text.adc_interrupt_flag_get:00000000000000f4 .L130
C:\Users\CYMR90~1\AppData\Local\Temp\ccmBQqfl.s:2392   .text.adc_interrupt_flag_get:00000000000000a0 .L121
C:\Users\CYMR90~1\AppData\Local\Temp\ccmBQqfl.s:2346   .text.adc_interrupt_flag_get:0000000000000050 .L122
C:\Users\CYMR90~1\AppData\Local\Temp\ccmBQqfl.s:2369   .text.adc_interrupt_flag_get:0000000000000078 .L123
C:\Users\CYMR90~1\AppData\Local\Temp\ccmBQqfl.s:2443   .text.adc_interrupt_flag_get:00000000000000f8 .L131
C:\Users\CYMR90~1\AppData\Local\Temp\ccmBQqfl.s:2447   .text.adc_interrupt_flag_get:00000000000000fc .L132
C:\Users\CYMR90~1\AppData\Local\Temp\ccmBQqfl.s:2451   .text.adc_interrupt_flag_get:0000000000000100 .L133
C:\Users\CYMR90~1\AppData\Local\Temp\ccmBQqfl.s:2455   .text.adc_interrupt_flag_get:0000000000000104 .L134
C:\Users\CYMR90~1\AppData\Local\Temp\ccmBQqfl.s:2458   .text.adc_interrupt_flag_get:0000000000000106 .L125
C:\Users\CYMR90~1\AppData\Local\Temp\ccmBQqfl.s:3570   .debug_abbrev:0000000000000000 .Ldebug_abbrev0
C:\Users\CYMR90~1\AppData\Local\Temp\ccmBQqfl.s:24562  .debug_str:000000000000b12e .LASF5685
C:\Users\CYMR90~1\AppData\Local\Temp\ccmBQqfl.s:31377  .debug_str:0000000000026524 .LASF5686
C:\Users\CYMR90~1\AppData\Local\Temp\ccmBQqfl.s:24866  .debug_str:000000000000c5bb .LASF5687
C:\Users\CYMR90~1\AppData\Local\Temp\ccmBQqfl.s:4033   .debug_ranges:0000000000000000 .Ldebug_ranges0
C:\Users\CYMR90~1\AppData\Local\Temp\ccmBQqfl.s:21786  .debug_line:0000000000000000 .Ldebug_line0
C:\Users\CYMR90~1\AppData\Local\Temp\ccmBQqfl.s:4111   .debug_macro:0000000000000000 .Ldebug_macro0
C:\Users\CYMR90~1\AppData\Local\Temp\ccmBQqfl.s:33121  .debug_str:000000000002d36e .LASF5569
C:\Users\CYMR90~1\AppData\Local\Temp\ccmBQqfl.s:21804  .debug_str:0000000000000123 .LASF5570
C:\Users\CYMR90~1\AppData\Local\Temp\ccmBQqfl.s:22734  .debug_str:0000000000003c83 .LASF5571
C:\Users\CYMR90~1\AppData\Local\Temp\ccmBQqfl.s:30821  .debug_str:000000000002404f .LASF5572
C:\Users\CYMR90~1\AppData\Local\Temp\ccmBQqfl.s:24038  .debug_str:00000000000090c7 .LASF5575
C:\Users\CYMR90~1\AppData\Local\Temp\ccmBQqfl.s:27398  .debug_str:000000000001668d .LASF5573
C:\Users\CYMR90~1\AppData\Local\Temp\ccmBQqfl.s:29303  .debug_str:000000000001e4d9 .LASF5574
C:\Users\CYMR90~1\AppData\Local\Temp\ccmBQqfl.s:25372  .debug_str:000000000000e572 .LASF5576
C:\Users\CYMR90~1\AppData\Local\Temp\ccmBQqfl.s:30929  .debug_str:00000000000246e7 .LASF5577
C:\Users\CYMR90~1\AppData\Local\Temp\ccmBQqfl.s:29723  .debug_str:000000000001fe3e .LASF5578
C:\Users\CYMR90~1\AppData\Local\Temp\ccmBQqfl.s:28163  .debug_str:00000000000198d0 .LASF5579
C:\Users\CYMR90~1\AppData\Local\Temp\ccmBQqfl.s:21920  .debug_str:000000000000080e .LASF5580
C:\Users\CYMR90~1\AppData\Local\Temp\ccmBQqfl.s:31281  .debug_str:0000000000025f2c .LASF5581
C:\Users\CYMR90~1\AppData\Local\Temp\ccmBQqfl.s:29745  .debug_str:000000000001ffa8 .LASF855
C:\Users\CYMR90~1\AppData\Local\Temp\ccmBQqfl.s:27164  .debug_str:00000000000157d3 .LASF5582
C:\Users\CYMR90~1\AppData\Local\Temp\ccmBQqfl.s:31209  .debug_str:00000000000259f1 .LASF5583
C:\Users\CYMR90~1\AppData\Local\Temp\ccmBQqfl.s:31395  .debug_str:000000000002665b .LASF5584
C:\Users\CYMR90~1\AppData\Local\Temp\ccmBQqfl.s:23834  .debug_str:000000000000832d .LASF5585
C:\Users\CYMR90~1\AppData\Local\Temp\ccmBQqfl.s:25360  .debug_str:000000000000e4c9 .LASF5586
C:\Users\CYMR90~1\AppData\Local\Temp\ccmBQqfl.s:22026  .debug_str:0000000000000f7d .LASF5587
C:\Users\CYMR90~1\AppData\Local\Temp\ccmBQqfl.s:30969  .debug_str:000000000002498e .LASF5588
C:\Users\CYMR90~1\AppData\Local\Temp\ccmBQqfl.s:24410  .debug_str:000000000000a7f2 .LASF5589
C:\Users\CYMR90~1\AppData\Local\Temp\ccmBQqfl.s:24572  .debug_str:000000000000b264 .LASF5590
C:\Users\CYMR90~1\AppData\Local\Temp\ccmBQqfl.s:32143  .debug_str:00000000000295ef .LASF5591
C:\Users\CYMR90~1\AppData\Local\Temp\ccmBQqfl.s:29503  .debug_str:000000000001f0dd .LASF5592
C:\Users\CYMR90~1\AppData\Local\Temp\ccmBQqfl.s:30349  .debug_str:0000000000022454 .LASF5593
C:\Users\CYMR90~1\AppData\Local\Temp\ccmBQqfl.s:33101  .debug_str:000000000002d252 .LASF5594
C:\Users\CYMR90~1\AppData\Local\Temp\ccmBQqfl.s:31569  .debug_str:00000000000270a2 .LASF5595
C:\Users\CYMR90~1\AppData\Local\Temp\ccmBQqfl.s:23738  .debug_str:0000000000007c3c .LASF5596
C:\Users\CYMR90~1\AppData\Local\Temp\ccmBQqfl.s:27314  .debug_str:0000000000016136 .LASF5597
C:\Users\CYMR90~1\AppData\Local\Temp\ccmBQqfl.s:22572  .debug_str:00000000000031d6 .LASF5598
C:\Users\CYMR90~1\AppData\Local\Temp\ccmBQqfl.s:25972  .debug_str:0000000000010b99 .LASF5599
C:\Users\CYMR90~1\AppData\Local\Temp\ccmBQqfl.s:31465  .debug_str:0000000000026a37 .LASF5600
C:\Users\CYMR90~1\AppData\Local\Temp\ccmBQqfl.s:23642  .debug_str:0000000000007614 .LASF5601
C:\Users\CYMR90~1\AppData\Local\Temp\ccmBQqfl.s:24904  .debug_str:000000000000c80a .LASF5602
C:\Users\CYMR90~1\AppData\Local\Temp\ccmBQqfl.s:33091  .debug_str:000000000002d115 .LASF5603
C:\Users\CYMR90~1\AppData\Local\Temp\ccmBQqfl.s:23448  .debug_str:0000000000006965 .LASF5604
C:\Users\CYMR90~1\AppData\Local\Temp\ccmBQqfl.s:32069  .debug_str:0000000000029161 .LASF5605
C:\Users\CYMR90~1\AppData\Local\Temp\ccmBQqfl.s:31997  .debug_str:0000000000028d57 .LASF5606
C:\Users\CYMR90~1\AppData\Local\Temp\ccmBQqfl.s:30049  .debug_str:00000000000211e0 .LASF5607
C:\Users\CYMR90~1\AppData\Local\Temp\ccmBQqfl.s:22940  .debug_str:0000000000004a34 .LASF5608
C:\Users\CYMR90~1\AppData\Local\Temp\ccmBQqfl.s:28385  .debug_str:000000000001a880 .LASF5609
C:\Users\CYMR90~1\AppData\Local\Temp\ccmBQqfl.s:25186  .debug_str:000000000000daac .LASF5610
C:\Users\CYMR90~1\AppData\Local\Temp\ccmBQqfl.s:32935  .debug_str:000000000002c725 .LASF5611
C:\Users\CYMR90~1\AppData\Local\Temp\ccmBQqfl.s:28099  .debug_str:000000000001952c .LASF5612
C:\Users\CYMR90~1\AppData\Local\Temp\ccmBQqfl.s:23666  .debug_str:000000000000775b .LASF5613
C:\Users\CYMR90~1\AppData\Local\Temp\ccmBQqfl.s:32903  .debug_str:000000000002c51e .LASF5614
C:\Users\CYMR90~1\AppData\Local\Temp\ccmBQqfl.s:30335  .debug_str:000000000002237b .LASF5615
C:\Users\CYMR90~1\AppData\Local\Temp\ccmBQqfl.s:22826  .debug_str:0000000000004266 .LASF5616
C:\Users\CYMR90~1\AppData\Local\Temp\ccmBQqfl.s:30925  .debug_str:00000000000246bd .LASF5617
C:\Users\CYMR90~1\AppData\Local\Temp\ccmBQqfl.s:24644  .debug_str:000000000000b65a .LASF5618
C:\Users\CYMR90~1\AppData\Local\Temp\ccmBQqfl.s:29299  .debug_str:000000000001e4ab .LASF5619
C:\Users\CYMR90~1\AppData\Local\Temp\ccmBQqfl.s:32755  .debug_str:000000000002bb04 .LASF5623
C:\Users\CYMR90~1\AppData\Local\Temp\ccmBQqfl.s:2477   .text.adc_interrupt_flag_clear:0000000000000000 .LFB383
C:\Users\CYMR90~1\AppData\Local\Temp\ccmBQqfl.s:2503   .text.adc_interrupt_flag_clear:0000000000000020 .LFE383
C:\Users\CYMR90~1\AppData\Local\Temp\ccmBQqfl.s:26904  .debug_str:00000000000146f5 .LASF5620
C:\Users\CYMR90~1\AppData\Local\Temp\ccmBQqfl.s:24502  .debug_str:000000000000ad4d .LASF5629
C:\Users\CYMR90~1\AppData\Local\Temp\ccmBQqfl.s:2313   .text.adc_interrupt_flag_get:0000000000000000 .LFB382
C:\Users\CYMR90~1\AppData\Local\Temp\ccmBQqfl.s:2470   .text.adc_interrupt_flag_get:0000000000000112 .LFE382
C:\Users\CYMR90~1\AppData\Local\Temp\ccmBQqfl.s:22864  .debug_str:0000000000004509 .LASF5621
C:\Users\CYMR90~1\AppData\Local\Temp\ccmBQqfl.s:29963  .debug_str:0000000000020cb4 .LASF5622
C:\Users\CYMR90~1\AppData\Local\Temp\ccmBQqfl.s:26018  .debug_str:0000000000010e82 .LASF5624
C:\Users\CYMR90~1\AppData\Local\Temp\ccmBQqfl.s:2219   .text.adc_interrupt_disable:0000000000000000 .LFB381
C:\Users\CYMR90~1\AppData\Local\Temp\ccmBQqfl.s:2306   .text.adc_interrupt_disable:00000000000000b8 .LFE381
C:\Users\CYMR90~1\AppData\Local\Temp\ccmBQqfl.s:28517  .debug_str:000000000001b151 .LASF5625
C:\Users\CYMR90~1\AppData\Local\Temp\ccmBQqfl.s:22156  .debug_str:0000000000001775 .LASF5626
C:\Users\CYMR90~1\AppData\Local\Temp\ccmBQqfl.s:2126   .text.adc_interrupt_enable:0000000000000000 .LFB380
C:\Users\CYMR90~1\AppData\Local\Temp\ccmBQqfl.s:2212   .text.adc_interrupt_enable:00000000000000b6 .LFE380
C:\Users\CYMR90~1\AppData\Local\Temp\ccmBQqfl.s:26884  .debug_str:0000000000014603 .LASF5627
C:\Users\CYMR90~1\AppData\Local\Temp\ccmBQqfl.s:2093   .text.adc_flag_clear:0000000000000000 .LFB379
C:\Users\CYMR90~1\AppData\Local\Temp\ccmBQqfl.s:2119   .text.adc_flag_clear:0000000000000020 .LFE379
C:\Users\CYMR90~1\AppData\Local\Temp\ccmBQqfl.s:24398  .debug_str:000000000000a722 .LASF5628
C:\Users\CYMR90~1\AppData\Local\Temp\ccmBQqfl.s:23732  .debug_str:0000000000007ba2 .LASF5630
C:\Users\CYMR90~1\AppData\Local\Temp\ccmBQqfl.s:2051   .text.adc_flag_get:0000000000000000 .LFB378
C:\Users\CYMR90~1\AppData\Local\Temp\ccmBQqfl.s:2086   .text.adc_flag_get:000000000000002e .LFE378
C:\Users\CYMR90~1\AppData\Local\Temp\ccmBQqfl.s:23322  .debug_str:00000000000061df .LASF5631
C:\Users\CYMR90~1\AppData\Local\Temp\ccmBQqfl.s:30545  .debug_str:0000000000022fa2 .LASF5632
C:\Users\CYMR90~1\AppData\Local\Temp\ccmBQqfl.s:2018   .text.adc_oversample_mode_disable:0000000000000000 .LFB377
C:\Users\CYMR90~1\AppData\Local\Temp\ccmBQqfl.s:2044   .text.adc_oversample_mode_disable:0000000000000024 .LFE377
C:\Users\CYMR90~1\AppData\Local\Temp\ccmBQqfl.s:32301  .debug_str:0000000000029f74 .LASF5633
C:\Users\CYMR90~1\AppData\Local\Temp\ccmBQqfl.s:1985   .text.adc_oversample_mode_enable:0000000000000000 .LFB376
C:\Users\CYMR90~1\AppData\Local\Temp\ccmBQqfl.s:2011   .text.adc_oversample_mode_enable:0000000000000026 .LFE376
C:\Users\CYMR90~1\AppData\Local\Temp\ccmBQqfl.s:32085  .debug_str:0000000000029249 .LASF5634
C:\Users\CYMR90~1\AppData\Local\Temp\ccmBQqfl.s:1908   .text.adc_oversample_mode_config:0000000000000000 .LFB375
C:\Users\CYMR90~1\AppData\Local\Temp\ccmBQqfl.s:1978   .text.adc_oversample_mode_config:0000000000000096 .LFE375
C:\Users\CYMR90~1\AppData\Local\Temp\ccmBQqfl.s:32359  .debug_str:000000000002a2c7 .LASF5635
C:\Users\CYMR90~1\AppData\Local\Temp\ccmBQqfl.s:25954  .debug_str:0000000000010aa8 .LASF5636
C:\Users\CYMR90~1\AppData\Local\Temp\ccmBQqfl.s:24438  .debug_str:000000000000a959 .LASF5637
C:\Users\CYMR90~1\AppData\Local\Temp\ccmBQqfl.s:32507  .debug_str:000000000002ab9d .LASF5638
C:\Users\CYMR90~1\AppData\Local\Temp\ccmBQqfl.s:1856   .text.adc_watchdog_threshold_config:0000000000000000 .LFB374
C:\Users\CYMR90~1\AppData\Local\Temp\ccmBQqfl.s:1901   .text.adc_watchdog_threshold_config:0000000000000044 .LFE374
C:\Users\CYMR90~1\AppData\Local\Temp\ccmBQqfl.s:26022  .debug_str:0000000000010ec0 .LASF5639
C:\Users\CYMR90~1\AppData\Local\Temp\ccmBQqfl.s:26490  .debug_str:0000000000012cf3 .LASF5640
C:\Users\CYMR90~1\AppData\Local\Temp\ccmBQqfl.s:28661  .debug_str:000000000001bae5 .LASF5641
C:\Users\CYMR90~1\AppData\Local\Temp\ccmBQqfl.s:1821   .text.adc_watchdog_disable:0000000000000000 .LFB373
C:\Users\CYMR90~1\AppData\Local\Temp\ccmBQqfl.s:1849   .text.adc_watchdog_disable:0000000000000028 .LFE373
C:\Users\CYMR90~1\AppData\Local\Temp\ccmBQqfl.s:32009  .debug_str:0000000000028de9 .LASF5642
C:\Users\CYMR90~1\AppData\Local\Temp\ccmBQqfl.s:1732   .text.adc_watchdog_group_channel_enable:0000000000000000 .LFB372
C:\Users\CYMR90~1\AppData\Local\Temp\ccmBQqfl.s:1814   .text.adc_watchdog_group_channel_enable:0000000000000096 .LFE372
C:\Users\CYMR90~1\AppData\Local\Temp\ccmBQqfl.s:23984  .debug_str:0000000000008d08 .LASF5643
C:\Users\CYMR90~1\AppData\Local\Temp\ccmBQqfl.s:26514  .debug_str:0000000000012e7c .LASF5644
C:\Users\CYMR90~1\AppData\Local\Temp\ccmBQqfl.s:1674   .text.adc_watchdog_single_channel_enable:0000000000000000 .LFB371
C:\Users\CYMR90~1\AppData\Local\Temp\ccmBQqfl.s:1725   .text.adc_watchdog_single_channel_enable:000000000000005e .LFE371
C:\Users\CYMR90~1\AppData\Local\Temp\ccmBQqfl.s:22068  .debug_str:00000000000011d2 .LASF5645
C:\Users\CYMR90~1\AppData\Local\Temp\ccmBQqfl.s:29919  .debug_str:000000000002099e .LASF5646
C:\Users\CYMR90~1\AppData\Local\Temp\ccmBQqfl.s:1587   .text.adc_inserted_data_read:0000000000000000 .LFB370
C:\Users\CYMR90~1\AppData\Local\Temp\ccmBQqfl.s:1667   .text.adc_inserted_data_read:0000000000000088 .LFE370
C:\Users\CYMR90~1\AppData\Local\Temp\ccmBQqfl.s:26758  .debug_str:0000000000013e64 .LASF5647
C:\Users\CYMR90~1\AppData\Local\Temp\ccmBQqfl.s:29563  .debug_str:000000000001f463 .LASF5648
C:\Users\CYMR90~1\AppData\Local\Temp\ccmBQqfl.s:27330  .debug_str:0000000000016257 .LASF5688
C:\Users\CYMR90~1\AppData\Local\Temp\ccmBQqfl.s:1555   .text.adc_routine_data_read:0000000000000000 .LFB369
C:\Users\CYMR90~1\AppData\Local\Temp\ccmBQqfl.s:1580   .text.adc_routine_data_read:000000000000001c .LFE369
C:\Users\CYMR90~1\AppData\Local\Temp\ccmBQqfl.s:26632  .debug_str:00000000000136ad .LASF5649
C:\Users\CYMR90~1\AppData\Local\Temp\ccmBQqfl.s:1510   .text.adc_resolution_config:0000000000000000 .LFB368
C:\Users\CYMR90~1\AppData\Local\Temp\ccmBQqfl.s:1548   .text.adc_resolution_config:0000000000000040 .LFE368
C:\Users\CYMR90~1\AppData\Local\Temp\ccmBQqfl.s:23508  .debug_str:0000000000006d2a .LASF5650
C:\Users\CYMR90~1\AppData\Local\Temp\ccmBQqfl.s:30845  .debug_str:00000000000241a6 .LASF5651
C:\Users\CYMR90~1\AppData\Local\Temp\ccmBQqfl.s:1453   .text.adc_end_of_conversion_config:0000000000000000 .LFB367
C:\Users\CYMR90~1\AppData\Local\Temp\ccmBQqfl.s:1503   .text.adc_end_of_conversion_config:000000000000004e .LFE367
C:\Users\CYMR90~1\AppData\Local\Temp\ccmBQqfl.s:23348  .debug_str:000000000000636d .LASF5652
C:\Users\CYMR90~1\AppData\Local\Temp\ccmBQqfl.s:24166  .debug_str:0000000000009874 .LASF5653
C:\Users\CYMR90~1\AppData\Local\Temp\ccmBQqfl.s:1396   .text.adc_software_trigger_enable:0000000000000000 .LFB366
C:\Users\CYMR90~1\AppData\Local\Temp\ccmBQqfl.s:1446   .text.adc_software_trigger_enable:0000000000000050 .LFE366
C:\Users\CYMR90~1\AppData\Local\Temp\ccmBQqfl.s:23916  .debug_str:000000000000880c .LASF5654
C:\Users\CYMR90~1\AppData\Local\Temp\ccmBQqfl.s:1315   .text.adc_external_trigger_source_config:0000000000000000 .LFB365
C:\Users\CYMR90~1\AppData\Local\Temp\ccmBQqfl.s:1389   .text.adc_external_trigger_source_config:000000000000008a .LFE365
C:\Users\CYMR90~1\AppData\Local\Temp\ccmBQqfl.s:28007  .debug_str:0000000000018ed0 .LASF5655
C:\Users\CYMR90~1\AppData\Local\Temp\ccmBQqfl.s:29261  .debug_str:000000000001e1b3 .LASF5656
C:\Users\CYMR90~1\AppData\Local\Temp\ccmBQqfl.s:1228   .text.adc_external_trigger_config:0000000000000000 .LFB364
C:\Users\CYMR90~1\AppData\Local\Temp\ccmBQqfl.s:1308   .text.adc_external_trigger_config:0000000000000092 .LFE364
C:\Users\CYMR90~1\AppData\Local\Temp\ccmBQqfl.s:27651  .debug_str:00000000000178a9 .LASF5657
C:\Users\CYMR90~1\AppData\Local\Temp\ccmBQqfl.s:24658  .debug_str:000000000000b7e2 .LASF5658
C:\Users\CYMR90~1\AppData\Local\Temp\ccmBQqfl.s:1154   .text.adc_inserted_channel_offset_config:0000000000000000 .LFB363
C:\Users\CYMR90~1\AppData\Local\Temp\ccmBQqfl.s:1221   .text.adc_inserted_channel_offset_config:0000000000000076 .LFE363
C:\Users\CYMR90~1\AppData\Local\Temp\ccmBQqfl.s:30637  .debug_str:0000000000023554 .LASF5659
C:\Users\CYMR90~1\AppData\Local\Temp\ccmBQqfl.s:27212  .debug_str:0000000000015a77 .LASF5660
C:\Users\CYMR90~1\AppData\Local\Temp\ccmBQqfl.s:30171  .debug_str:00000000000218bf .LASF5661
C:\Users\CYMR90~1\AppData\Local\Temp\ccmBQqfl.s:973    .text.adc_inserted_channel_config:0000000000000000 .LFB362
C:\Users\CYMR90~1\AppData\Local\Temp\ccmBQqfl.s:1147   .text.adc_inserted_channel_config:000000000000015c .LFE362
C:\Users\CYMR90~1\AppData\Local\Temp\ccmBQqfl.s:32313  .debug_str:000000000002a03e .LASF5662
C:\Users\CYMR90~1\AppData\Local\Temp\ccmBQqfl.s:30379  .debug_str:000000000002260b .LASF5663
C:\Users\CYMR90~1\AppData\Local\Temp\ccmBQqfl.s:28701  .debug_str:000000000001bd58 .LASF5664
C:\Users\CYMR90~1\AppData\Local\Temp\ccmBQqfl.s:25226  .debug_str:000000000000dcea .LASF5665
C:\Users\CYMR90~1\AppData\Local\Temp\ccmBQqfl.s:765    .text.adc_routine_channel_config:0000000000000000 .LFB361
C:\Users\CYMR90~1\AppData\Local\Temp\ccmBQqfl.s:966    .text.adc_routine_channel_config:0000000000000198 .LFE361
C:\Users\CYMR90~1\AppData\Local\Temp\ccmBQqfl.s:25438  .debug_str:000000000000e99d .LASF5666
C:\Users\CYMR90~1\AppData\Local\Temp\ccmBQqfl.s:650    .text.adc_channel_length_config:0000000000000000 .LFB360
C:\Users\CYMR90~1\AppData\Local\Temp\ccmBQqfl.s:758    .text.adc_channel_length_config:00000000000000d8 .LFE360
C:\Users\CYMR90~1\AppData\Local\Temp\ccmBQqfl.s:32983  .debug_str:000000000002ca82 .LASF5667
C:\Users\CYMR90~1\AppData\Local\Temp\ccmBQqfl.s:31313  .debug_str:0000000000026109 .LASF5668
C:\Users\CYMR90~1\AppData\Local\Temp\ccmBQqfl.s:597    .text.adc_data_alignment_config:0000000000000000 .LFB359
C:\Users\CYMR90~1\AppData\Local\Temp\ccmBQqfl.s:643    .text.adc_data_alignment_config:000000000000004a .LFE359
C:\Users\CYMR90~1\AppData\Local\Temp\ccmBQqfl.s:30977  .debug_str:0000000000024a1b .LASF5669
C:\Users\CYMR90~1\AppData\Local\Temp\ccmBQqfl.s:22140  .debug_str:00000000000015ae .LASF5670
C:\Users\CYMR90~1\AppData\Local\Temp\ccmBQqfl.s:562    .text.adc_tempsensor_vrefint_disable:0000000000000000 .LFB358
C:\Users\CYMR90~1\AppData\Local\Temp\ccmBQqfl.s:590    .text.adc_tempsensor_vrefint_disable:000000000000002a .LFE358
C:\Users\CYMR90~1\AppData\Local\Temp\ccmBQqfl.s:22934  .debug_str:00000000000049b4 .LASF5671
C:\Users\CYMR90~1\AppData\Local\Temp\ccmBQqfl.s:528    .text.adc_tempsensor_vrefint_enable:0000000000000000 .LFB357
C:\Users\CYMR90~1\AppData\Local\Temp\ccmBQqfl.s:555    .text.adc_tempsensor_vrefint_enable:0000000000000028 .LFE357
C:\Users\CYMR90~1\AppData\Local\Temp\ccmBQqfl.s:25904  .debug_str:0000000000010703 .LASF5672
C:\Users\CYMR90~1\AppData\Local\Temp\ccmBQqfl.s:412    .text.adc_special_function_config:0000000000000000 .LFB356
C:\Users\CYMR90~1\AppData\Local\Temp\ccmBQqfl.s:521    .text.adc_special_function_config:00000000000000cc .LFE356
C:\Users\CYMR90~1\AppData\Local\Temp\ccmBQqfl.s:25290  .debug_str:000000000000e0d9 .LASF5673
C:\Users\CYMR90~1\AppData\Local\Temp\ccmBQqfl.s:29075  .debug_str:000000000001d651 .LASF5674
C:\Users\CYMR90~1\AppData\Local\Temp\ccmBQqfl.s:24082  .debug_str:0000000000009324 .LASF5675
C:\Users\CYMR90~1\AppData\Local\Temp\ccmBQqfl.s:304    .text.adc_discontinuous_mode_config:0000000000000000 .LFB355
C:\Users\CYMR90~1\AppData\Local\Temp\ccmBQqfl.s:405    .text.adc_discontinuous_mode_config:00000000000000be .LFE355
C:\Users\CYMR90~1\AppData\Local\Temp\ccmBQqfl.s:30755  .debug_str:0000000000023c19 .LASF5676
C:\Users\CYMR90~1\AppData\Local\Temp\ccmBQqfl.s:271    .text.adc_dma_request_after_last_disable:0000000000000000 .LFB354
C:\Users\CYMR90~1\AppData\Local\Temp\ccmBQqfl.s:297    .text.adc_dma_request_after_last_disable:0000000000000022 .LFE354
C:\Users\CYMR90~1\AppData\Local\Temp\ccmBQqfl.s:24632  .debug_str:000000000000b5b1 .LASF5677
C:\Users\CYMR90~1\AppData\Local\Temp\ccmBQqfl.s:238    .text.adc_dma_request_after_last_enable:0000000000000000 .LFB353
C:\Users\CYMR90~1\AppData\Local\Temp\ccmBQqfl.s:264    .text.adc_dma_request_after_last_enable:0000000000000022 .LFE353
C:\Users\CYMR90~1\AppData\Local\Temp\ccmBQqfl.s:32603  .debug_str:000000000002b16b .LASF5678
C:\Users\CYMR90~1\AppData\Local\Temp\ccmBQqfl.s:205    .text.adc_dma_mode_disable:0000000000000000 .LFB352
C:\Users\CYMR90~1\AppData\Local\Temp\ccmBQqfl.s:231    .text.adc_dma_mode_disable:0000000000000022 .LFE352
C:\Users\CYMR90~1\AppData\Local\Temp\ccmBQqfl.s:23884  .debug_str:0000000000008653 .LASF5679
C:\Users\CYMR90~1\AppData\Local\Temp\ccmBQqfl.s:172    .text.adc_dma_mode_enable:0000000000000000 .LFB351
C:\Users\CYMR90~1\AppData\Local\Temp\ccmBQqfl.s:198    .text.adc_dma_mode_enable:0000000000000022 .LFE351
C:\Users\CYMR90~1\AppData\Local\Temp\ccmBQqfl.s:31435  .debug_str:0000000000026878 .LASF5680
C:\Users\CYMR90~1\AppData\Local\Temp\ccmBQqfl.s:139    .text.adc_disable:0000000000000000 .LFB350
C:\Users\CYMR90~1\AppData\Local\Temp\ccmBQqfl.s:165    .text.adc_disable:0000000000000020 .LFE350
C:\Users\CYMR90~1\AppData\Local\Temp\ccmBQqfl.s:31135  .debug_str:0000000000025493 .LASF5681
C:\Users\CYMR90~1\AppData\Local\Temp\ccmBQqfl.s:97     .text.adc_enable:0000000000000000 .LFB349
C:\Users\CYMR90~1\AppData\Local\Temp\ccmBQqfl.s:132    .text.adc_enable:000000000000002e .LFE349
C:\Users\CYMR90~1\AppData\Local\Temp\ccmBQqfl.s:30889  .debug_str:0000000000024411 .LASF5682
C:\Users\CYMR90~1\AppData\Local\Temp\ccmBQqfl.s:52     .text.adc_clock_config:0000000000000000 .LFB348
C:\Users\CYMR90~1\AppData\Local\Temp\ccmBQqfl.s:90     .text.adc_clock_config:0000000000000048 .LFE348
C:\Users\CYMR90~1\AppData\Local\Temp\ccmBQqfl.s:22126  .debug_str:0000000000001516 .LASF5683
C:\Users\CYMR90~1\AppData\Local\Temp\ccmBQqfl.s:26630  .debug_str:00000000000136a2 .LASF5684
C:\Users\CYMR90~1\AppData\Local\Temp\ccmBQqfl.s:14     .text.adc_deinit:0000000000000000 .LFB347
C:\Users\CYMR90~1\AppData\Local\Temp\ccmBQqfl.s:45     .text.adc_deinit:000000000000002e .LFE347
C:\Users\CYMR90~1\AppData\Local\Temp\ccmBQqfl.s:2512   .debug_info:0000000000000000 .Ldebug_info0
C:\Users\CYMR90~1\AppData\Local\Temp\ccmBQqfl.s:4771   .debug_macro:0000000000000000 .Ldebug_macro2
C:\Users\CYMR90~1\AppData\Local\Temp\ccmBQqfl.s:27126  .debug_str:00000000000155cb .LASF314
C:\Users\CYMR90~1\AppData\Local\Temp\ccmBQqfl.s:27575  .debug_str:0000000000017439 .LASF315
C:\Users\CYMR90~1\AppData\Local\Temp\ccmBQqfl.s:5718   .debug_macro:0000000000000000 .Ldebug_macro3
C:\Users\CYMR90~1\AppData\Local\Temp\ccmBQqfl.s:23986  .debug_str:0000000000008d16 .LASF369
C:\Users\CYMR90~1\AppData\Local\Temp\ccmBQqfl.s:23550  .debug_str:0000000000006ff9 .LASF370
C:\Users\CYMR90~1\AppData\Local\Temp\ccmBQqfl.s:27827  .debug_str:000000000001839c .LASF371
C:\Users\CYMR90~1\AppData\Local\Temp\ccmBQqfl.s:5882   .debug_macro:0000000000000000 .Ldebug_macro4
C:\Users\CYMR90~1\AppData\Local\Temp\ccmBQqfl.s:5902   .debug_macro:0000000000000000 .Ldebug_macro5
C:\Users\CYMR90~1\AppData\Local\Temp\ccmBQqfl.s:26478  .debug_str:0000000000012c40 .LASF390
C:\Users\CYMR90~1\AppData\Local\Temp\ccmBQqfl.s:5946   .debug_macro:0000000000000000 .Ldebug_macro6
C:\Users\CYMR90~1\AppData\Local\Temp\ccmBQqfl.s:5960   .debug_macro:0000000000000000 .Ldebug_macro7
C:\Users\CYMR90~1\AppData\Local\Temp\ccmBQqfl.s:6028   .debug_macro:0000000000000000 .Ldebug_macro8
C:\Users\CYMR90~1\AppData\Local\Temp\ccmBQqfl.s:6054   .debug_macro:0000000000000000 .Ldebug_macro9
C:\Users\CYMR90~1\AppData\Local\Temp\ccmBQqfl.s:6083   .debug_macro:0000000000000000 .Ldebug_macro10
C:\Users\CYMR90~1\AppData\Local\Temp\ccmBQqfl.s:27963  .debug_str:0000000000018bd5 .LASF433
C:\Users\CYMR90~1\AppData\Local\Temp\ccmBQqfl.s:6097   .debug_macro:0000000000000000 .Ldebug_macro11
C:\Users\CYMR90~1\AppData\Local\Temp\ccmBQqfl.s:6141   .debug_macro:0000000000000000 .Ldebug_macro12
C:\Users\CYMR90~1\AppData\Local\Temp\ccmBQqfl.s:6167   .debug_macro:0000000000000000 .Ldebug_macro13
C:\Users\CYMR90~1\AppData\Local\Temp\ccmBQqfl.s:31559  .debug_str:0000000000027020 .LASF569
C:\Users\CYMR90~1\AppData\Local\Temp\ccmBQqfl.s:6538   .debug_macro:0000000000000000 .Ldebug_macro14
C:\Users\CYMR90~1\AppData\Local\Temp\ccmBQqfl.s:25998  .debug_str:0000000000010d06 .LASF572
C:\Users\CYMR90~1\AppData\Local\Temp\ccmBQqfl.s:30893  .debug_str:0000000000024439 .LASF573
C:\Users\CYMR90~1\AppData\Local\Temp\ccmBQqfl.s:6549   .debug_macro:0000000000000000 .Ldebug_macro15
C:\Users\CYMR90~1\AppData\Local\Temp\ccmBQqfl.s:6563   .debug_macro:0000000000000000 .Ldebug_macro16
C:\Users\CYMR90~1\AppData\Local\Temp\ccmBQqfl.s:23718  .debug_str:0000000000007ab7 .LASF578
C:\Users\CYMR90~1\AppData\Local\Temp\ccmBQqfl.s:6595   .debug_macro:0000000000000000 .Ldebug_macro17
C:\Users\CYMR90~1\AppData\Local\Temp\ccmBQqfl.s:6621   .debug_macro:0000000000000000 .Ldebug_macro18
C:\Users\CYMR90~1\AppData\Local\Temp\ccmBQqfl.s:6632   .debug_macro:0000000000000000 .Ldebug_macro19
C:\Users\CYMR90~1\AppData\Local\Temp\ccmBQqfl.s:6676   .debug_macro:0000000000000000 .Ldebug_macro20
C:\Users\CYMR90~1\AppData\Local\Temp\ccmBQqfl.s:6846   .debug_macro:0000000000000000 .Ldebug_macro21
C:\Users\CYMR90~1\AppData\Local\Temp\ccmBQqfl.s:6857   .debug_macro:0000000000000000 .Ldebug_macro22
C:\Users\CYMR90~1\AppData\Local\Temp\ccmBQqfl.s:26484  .debug_str:0000000000012c99 .LASF675
C:\Users\CYMR90~1\AppData\Local\Temp\ccmBQqfl.s:6913   .debug_macro:0000000000000000 .Ldebug_macro23
C:\Users\CYMR90~1\AppData\Local\Temp\ccmBQqfl.s:6930   .debug_macro:0000000000000000 .Ldebug_macro24
C:\Users\CYMR90~1\AppData\Local\Temp\ccmBQqfl.s:29715  .debug_str:000000000001fdce .LASF693
C:\Users\CYMR90~1\AppData\Local\Temp\ccmBQqfl.s:27833  .debug_str:00000000000183cd .LASF694
C:\Users\CYMR90~1\AppData\Local\Temp\ccmBQqfl.s:6974   .debug_macro:0000000000000000 .Ldebug_macro25
C:\Users\CYMR90~1\AppData\Local\Temp\ccmBQqfl.s:23008  .debug_str:0000000000004ef0 .LASF700
C:\Users\CYMR90~1\AppData\Local\Temp\ccmBQqfl.s:24126  .debug_str:00000000000095c7 .LASF701
C:\Users\CYMR90~1\AppData\Local\Temp\ccmBQqfl.s:6994   .debug_macro:0000000000000000 .Ldebug_macro26
C:\Users\CYMR90~1\AppData\Local\Temp\ccmBQqfl.s:7005   .debug_macro:0000000000000000 .Ldebug_macro27
C:\Users\CYMR90~1\AppData\Local\Temp\ccmBQqfl.s:7049   .debug_macro:0000000000000000 .Ldebug_macro28
C:\Users\CYMR90~1\AppData\Local\Temp\ccmBQqfl.s:23378  .debug_str:0000000000006539 .LASF749
C:\Users\CYMR90~1\AppData\Local\Temp\ccmBQqfl.s:7150   .debug_macro:0000000000000000 .Ldebug_macro29
C:\Users\CYMR90~1\AppData\Local\Temp\ccmBQqfl.s:7167   .debug_macro:0000000000000000 .Ldebug_macro30
C:\Users\CYMR90~1\AppData\Local\Temp\ccmBQqfl.s:21854  .debug_str:0000000000000420 .LASF763
C:\Users\CYMR90~1\AppData\Local\Temp\ccmBQqfl.s:23194  .debug_str:0000000000005a63 .LASF764
C:\Users\CYMR90~1\AppData\Local\Temp\ccmBQqfl.s:7199   .debug_macro:0000000000000000 .Ldebug_macro31
C:\Users\CYMR90~1\AppData\Local\Temp\ccmBQqfl.s:7213   .debug_macro:0000000000000000 .Ldebug_macro32
C:\Users\CYMR90~1\AppData\Local\Temp\ccmBQqfl.s:7383   .debug_macro:0000000000000000 .Ldebug_macro33
C:\Users\CYMR90~1\AppData\Local\Temp\ccmBQqfl.s:25652  .debug_str:000000000000f6c4 .LASF850
C:\Users\CYMR90~1\AppData\Local\Temp\ccmBQqfl.s:28051  .debug_str:0000000000019179 .LASF851
C:\Users\CYMR90~1\AppData\Local\Temp\ccmBQqfl.s:7469   .debug_macro:0000000000000000 .Ldebug_macro34
C:\Users\CYMR90~1\AppData\Local\Temp\ccmBQqfl.s:7594   .debug_macro:0000000000000000 .Ldebug_macro35
C:\Users\CYMR90~1\AppData\Local\Temp\ccmBQqfl.s:22138  .debug_str:000000000000159a .LASF951
C:\Users\CYMR90~1\AppData\Local\Temp\ccmBQqfl.s:7806   .debug_macro:0000000000000000 .Ldebug_macro36
C:\Users\CYMR90~1\AppData\Local\Temp\ccmBQqfl.s:23870  .debug_str:0000000000008593 .LASF957
C:\Users\CYMR90~1\AppData\Local\Temp\ccmBQqfl.s:23432  .debug_str:0000000000006870 .LASF958
C:\Users\CYMR90~1\AppData\Local\Temp\ccmBQqfl.s:22306  .debug_str:000000000000213a .LASF959
C:\Users\CYMR90~1\AppData\Local\Temp\ccmBQqfl.s:7826   .debug_macro:0000000000000000 .Ldebug_macro37
C:\Users\CYMR90~1\AppData\Local\Temp\ccmBQqfl.s:7918   .debug_macro:0000000000000000 .Ldebug_macro38
C:\Users\CYMR90~1\AppData\Local\Temp\ccmBQqfl.s:9564   .debug_macro:0000000000000000 .Ldebug_macro39
C:\Users\CYMR90~1\AppData\Local\Temp\ccmBQqfl.s:9656   .debug_macro:0000000000000000 .Ldebug_macro40
C:\Users\CYMR90~1\AppData\Local\Temp\ccmBQqfl.s:9712   .debug_macro:0000000000000000 .Ldebug_macro41
C:\Users\CYMR90~1\AppData\Local\Temp\ccmBQqfl.s:9726   .debug_macro:0000000000000000 .Ldebug_macro42
C:\Users\CYMR90~1\AppData\Local\Temp\ccmBQqfl.s:27358  .debug_str:0000000000016442 .LASF1655
C:\Users\CYMR90~1\AppData\Local\Temp\ccmBQqfl.s:24254  .debug_str:0000000000009e2d .LASF1656
C:\Users\CYMR90~1\AppData\Local\Temp\ccmBQqfl.s:9950   .debug_macro:0000000000000000 .Ldebug_macro43
C:\Users\CYMR90~1\AppData\Local\Temp\ccmBQqfl.s:9997   .debug_macro:0000000000000000 .Ldebug_macro44
C:\Users\CYMR90~1\AppData\Local\Temp\ccmBQqfl.s:10152  .debug_macro:0000000000000000 .Ldebug_macro45
C:\Users\CYMR90~1\AppData\Local\Temp\ccmBQqfl.s:10208  .debug_macro:0000000000000000 .Ldebug_macro46
C:\Users\CYMR90~1\AppData\Local\Temp\ccmBQqfl.s:10219  .debug_macro:0000000000000000 .Ldebug_macro47
C:\Users\CYMR90~1\AppData\Local\Temp\ccmBQqfl.s:32339  .debug_str:000000000002a1d2 .LASF1782
C:\Users\CYMR90~1\AppData\Local\Temp\ccmBQqfl.s:28249  .debug_str:0000000000019ef5 .LASF1783
C:\Users\CYMR90~1\AppData\Local\Temp\ccmBQqfl.s:10350  .debug_macro:0000000000000000 .Ldebug_macro48
C:\Users\CYMR90~1\AppData\Local\Temp\ccmBQqfl.s:10634  .debug_macro:0000000000000000 .Ldebug_macro49
C:\Users\CYMR90~1\AppData\Local\Temp\ccmBQqfl.s:10663  .debug_macro:0000000000000000 .Ldebug_macro50
C:\Users\CYMR90~1\AppData\Local\Temp\ccmBQqfl.s:10740  .debug_macro:0000000000000000 .Ldebug_macro51
C:\Users\CYMR90~1\AppData\Local\Temp\ccmBQqfl.s:11273  .debug_macro:0000000000000000 .Ldebug_macro52
C:\Users\CYMR90~1\AppData\Local\Temp\ccmBQqfl.s:11296  .debug_macro:0000000000000000 .Ldebug_macro53
C:\Users\CYMR90~1\AppData\Local\Temp\ccmBQqfl.s:11562  .debug_macro:0000000000000000 .Ldebug_macro54
C:\Users\CYMR90~1\AppData\Local\Temp\ccmBQqfl.s:12041  .debug_macro:0000000000000000 .Ldebug_macro55
C:\Users\CYMR90~1\AppData\Local\Temp\ccmBQqfl.s:12370  .debug_macro:0000000000000000 .Ldebug_macro56
C:\Users\CYMR90~1\AppData\Local\Temp\ccmBQqfl.s:12459  .debug_macro:0000000000000000 .Ldebug_macro57
C:\Users\CYMR90~1\AppData\Local\Temp\ccmBQqfl.s:13274  .debug_macro:0000000000000000 .Ldebug_macro58
C:\Users\CYMR90~1\AppData\Local\Temp\ccmBQqfl.s:13465  .debug_macro:0000000000000000 .Ldebug_macro59
C:\Users\CYMR90~1\AppData\Local\Temp\ccmBQqfl.s:13968  .debug_macro:0000000000000000 .Ldebug_macro60
C:\Users\CYMR90~1\AppData\Local\Temp\ccmBQqfl.s:14114  .debug_macro:0000000000000000 .Ldebug_macro61
C:\Users\CYMR90~1\AppData\Local\Temp\ccmBQqfl.s:14644  .debug_macro:0000000000000000 .Ldebug_macro62
C:\Users\CYMR90~1\AppData\Local\Temp\ccmBQqfl.s:15066  .debug_macro:0000000000000000 .Ldebug_macro63
C:\Users\CYMR90~1\AppData\Local\Temp\ccmBQqfl.s:17840  .debug_macro:0000000000000000 .Ldebug_macro64
C:\Users\CYMR90~1\AppData\Local\Temp\ccmBQqfl.s:18916  .debug_macro:0000000000000000 .Ldebug_macro65
C:\Users\CYMR90~1\AppData\Local\Temp\ccmBQqfl.s:19185  .debug_macro:0000000000000000 .Ldebug_macro66
C:\Users\CYMR90~1\AppData\Local\Temp\ccmBQqfl.s:19457  .debug_macro:0000000000000000 .Ldebug_macro67
C:\Users\CYMR90~1\AppData\Local\Temp\ccmBQqfl.s:20485  .debug_macro:0000000000000000 .Ldebug_macro68
C:\Users\CYMR90~1\AppData\Local\Temp\ccmBQqfl.s:20529  .debug_macro:0000000000000000 .Ldebug_macro69
C:\Users\CYMR90~1\AppData\Local\Temp\ccmBQqfl.s:21155  .debug_macro:0000000000000000 .Ldebug_macro70
C:\Users\CYMR90~1\AppData\Local\Temp\ccmBQqfl.s:21214  .debug_macro:0000000000000000 .Ldebug_macro71
C:\Users\CYMR90~1\AppData\Local\Temp\ccmBQqfl.s:32739  .debug_str:000000000002b9ec .LASF5556
C:\Users\CYMR90~1\AppData\Local\Temp\ccmBQqfl.s:30789  .debug_str:0000000000023e59 .LASF5557
C:\Users\CYMR90~1\AppData\Local\Temp\ccmBQqfl.s:23140  .debug_str:0000000000005703 .LASF5558
C:\Users\CYMR90~1\AppData\Local\Temp\ccmBQqfl.s:25072  .debug_str:000000000000d2d3 .LASF5559
C:\Users\CYMR90~1\AppData\Local\Temp\ccmBQqfl.s:26694  .debug_str:0000000000013a64 .LASF5560
C:\Users\CYMR90~1\AppData\Local\Temp\ccmBQqfl.s:29781  .debug_str:00000000000201c1 .LASF5561
C:\Users\CYMR90~1\AppData\Local\Temp\ccmBQqfl.s:29991  .debug_str:0000000000020e3f .LASF5562
C:\Users\CYMR90~1\AppData\Local\Temp\ccmBQqfl.s:24148  .debug_str:0000000000009706 .LASF5563
C:\Users\CYMR90~1\AppData\Local\Temp\ccmBQqfl.s:25384  .debug_str:000000000000e616 .LASF5564
C:\Users\CYMR90~1\AppData\Local\Temp\ccmBQqfl.s:26182  .debug_str:000000000001182f .LASF5565
C:\Users\CYMR90~1\AppData\Local\Temp\ccmBQqfl.s:31685  .debug_str:0000000000027866 .LASF5566
C:\Users\CYMR90~1\AppData\Local\Temp\ccmBQqfl.s:24654  .debug_str:000000000000b77e .LASF5567
C:\Users\CYMR90~1\AppData\Local\Temp\ccmBQqfl.s:25766  .debug_str:000000000000fe10 .LASF5568
C:\Users\CYMR90~1\AppData\Local\Temp\ccmBQqfl.s:23174  .debug_str:000000000000590c .LASF0
C:\Users\CYMR90~1\AppData\Local\Temp\ccmBQqfl.s:27555  .debug_str:000000000001731e .LASF1
C:\Users\CYMR90~1\AppData\Local\Temp\ccmBQqfl.s:25822  .debug_str:00000000000101e7 .LASF2
C:\Users\CYMR90~1\AppData\Local\Temp\ccmBQqfl.s:25880  .debug_str:00000000000105a1 .LASF3
C:\Users\CYMR90~1\AppData\Local\Temp\ccmBQqfl.s:27168  .debug_str:00000000000157f1 .LASF4
C:\Users\CYMR90~1\AppData\Local\Temp\ccmBQqfl.s:32737  .debug_str:000000000002b9e0 .LASF5
C:\Users\CYMR90~1\AppData\Local\Temp\ccmBQqfl.s:23404  .debug_str:00000000000066e1 .LASF6
C:\Users\CYMR90~1\AppData\Local\Temp\ccmBQqfl.s:32059  .debug_str:00000000000290ea .LASF7
C:\Users\CYMR90~1\AppData\Local\Temp\ccmBQqfl.s:31011  .debug_str:0000000000024c3b .LASF8
C:\Users\CYMR90~1\AppData\Local\Temp\ccmBQqfl.s:28909  .debug_str:000000000001c9f7 .LASF9
C:\Users\CYMR90~1\AppData\Local\Temp\ccmBQqfl.s:28245  .debug_str:0000000000019ebc .LASF10
C:\Users\CYMR90~1\AppData\Local\Temp\ccmBQqfl.s:28105  .debug_str:0000000000019564 .LASF11
C:\Users\CYMR90~1\AppData\Local\Temp\ccmBQqfl.s:32581  .debug_str:000000000002b00e .LASF12
C:\Users\CYMR90~1\AppData\Local\Temp\ccmBQqfl.s:28117  .debug_str:0000000000019618 .LASF13
C:\Users\CYMR90~1\AppData\Local\Temp\ccmBQqfl.s:24414  .debug_str:000000000000a81c .LASF14
C:\Users\CYMR90~1\AppData\Local\Temp\ccmBQqfl.s:29499  .debug_str:000000000001f0a3 .LASF15
C:\Users\CYMR90~1\AppData\Local\Temp\ccmBQqfl.s:30269  .debug_str:0000000000021f78 .LASF16
C:\Users\CYMR90~1\AppData\Local\Temp\ccmBQqfl.s:24458  .debug_str:000000000000aab5 .LASF17
C:\Users\CYMR90~1\AppData\Local\Temp\ccmBQqfl.s:31297  .debug_str:0000000000026024 .LASF18
C:\Users\CYMR90~1\AppData\Local\Temp\ccmBQqfl.s:25428  .debug_str:000000000000e912 .LASF19
C:\Users\CYMR90~1\AppData\Local\Temp\ccmBQqfl.s:31097  .debug_str:000000000002527a .LASF20
C:\Users\CYMR90~1\AppData\Local\Temp\ccmBQqfl.s:27915  .debug_str:00000000000188fa .LASF21
C:\Users\CYMR90~1\AppData\Local\Temp\ccmBQqfl.s:27913  .debug_str:00000000000188e0 .LASF22
C:\Users\CYMR90~1\AppData\Local\Temp\ccmBQqfl.s:30581  .debug_str:000000000002322f .LASF23
C:\Users\CYMR90~1\AppData\Local\Temp\ccmBQqfl.s:31207  .debug_str:00000000000259e2 .LASF24
C:\Users\CYMR90~1\AppData\Local\Temp\ccmBQqfl.s:22706  .debug_str:0000000000003ab3 .LASF25
C:\Users\CYMR90~1\AppData\Local\Temp\ccmBQqfl.s:27294  .debug_str:0000000000015fdb .LASF26
C:\Users\CYMR90~1\AppData\Local\Temp\ccmBQqfl.s:30585  .debug_str:000000000002325b .LASF27
C:\Users\CYMR90~1\AppData\Local\Temp\ccmBQqfl.s:30277  .debug_str:0000000000021fd5 .LASF28
C:\Users\CYMR90~1\AppData\Local\Temp\ccmBQqfl.s:23118  .debug_str:0000000000005595 .LASF29
C:\Users\CYMR90~1\AppData\Local\Temp\ccmBQqfl.s:29277  .debug_str:000000000001e318 .LASF30
C:\Users\CYMR90~1\AppData\Local\Temp\ccmBQqfl.s:22086  .debug_str:00000000000012c6 .LASF31
C:\Users\CYMR90~1\AppData\Local\Temp\ccmBQqfl.s:29749  .debug_str:000000000001ffc7 .LASF32
C:\Users\CYMR90~1\AppData\Local\Temp\ccmBQqfl.s:24298  .debug_str:000000000000a0a3 .LASF33
C:\Users\CYMR90~1\AppData\Local\Temp\ccmBQqfl.s:24142  .debug_str:00000000000096b2 .LASF34
C:\Users\CYMR90~1\AppData\Local\Temp\ccmBQqfl.s:25458  .debug_str:000000000000eab1 .LASF35
C:\Users\CYMR90~1\AppData\Local\Temp\ccmBQqfl.s:28357  .debug_str:000000000001a54a .LASF36
C:\Users\CYMR90~1\AppData\Local\Temp\ccmBQqfl.s:23640  .debug_str:00000000000075ec .LASF37
C:\Users\CYMR90~1\AppData\Local\Temp\ccmBQqfl.s:25820  .debug_str:00000000000101c4 .LASF38
C:\Users\CYMR90~1\AppData\Local\Temp\ccmBQqfl.s:22668  .debug_str:0000000000003812 .LASF39
C:\Users\CYMR90~1\AppData\Local\Temp\ccmBQqfl.s:22462  .debug_str:0000000000002ade .LASF40
C:\Users\CYMR90~1\AppData\Local\Temp\ccmBQqfl.s:25988  .debug_str:0000000000010c7a .LASF41
C:\Users\CYMR90~1\AppData\Local\Temp\ccmBQqfl.s:26414  .debug_str:00000000000127fa .LASF42
C:\Users\CYMR90~1\AppData\Local\Temp\ccmBQqfl.s:26678  .debug_str:0000000000013970 .LASF43
C:\Users\CYMR90~1\AppData\Local\Temp\ccmBQqfl.s:28347  .debug_str:000000000001a4b8 .LASF44
C:\Users\CYMR90~1\AppData\Local\Temp\ccmBQqfl.s:26274  .debug_str:0000000000011f0a .LASF45
C:\Users\CYMR90~1\AppData\Local\Temp\ccmBQqfl.s:22946  .debug_str:0000000000004a82 .LASF46
C:\Users\CYMR90~1\AppData\Local\Temp\ccmBQqfl.s:29283  .debug_str:000000000001e37d .LASF47
C:\Users\CYMR90~1\AppData\Local\Temp\ccmBQqfl.s:31013  .debug_str:0000000000024c50 .LASF48
C:\Users\CYMR90~1\AppData\Local\Temp\ccmBQqfl.s:25200  .debug_str:000000000000db3f .LASF49
C:\Users\CYMR90~1\AppData\Local\Temp\ccmBQqfl.s:22302  .debug_str:0000000000002107 .LASF50
C:\Users\CYMR90~1\AppData\Local\Temp\ccmBQqfl.s:21806  .debug_str:0000000000000131 .LASF51
C:\Users\CYMR90~1\AppData\Local\Temp\ccmBQqfl.s:32351  .debug_str:000000000002a266 .LASF52
C:\Users\CYMR90~1\AppData\Local\Temp\ccmBQqfl.s:24914  .debug_str:000000000000c8b9 .LASF53
C:\Users\CYMR90~1\AppData\Local\Temp\ccmBQqfl.s:26752  .debug_str:0000000000013e05 .LASF54
C:\Users\CYMR90~1\AppData\Local\Temp\ccmBQqfl.s:25786  .debug_str:000000000000ff5d .LASF55
C:\Users\CYMR90~1\AppData\Local\Temp\ccmBQqfl.s:23730  .debug_str:0000000000007b75 .LASF56
C:\Users\CYMR90~1\AppData\Local\Temp\ccmBQqfl.s:27146  .debug_str:00000000000156c6 .LASF57
C:\Users\CYMR90~1\AppData\Local\Temp\ccmBQqfl.s:22038  .debug_str:000000000000100d .LASF58
C:\Users\CYMR90~1\AppData\Local\Temp\ccmBQqfl.s:31301  .debug_str:0000000000026064 .LASF59
C:\Users\CYMR90~1\AppData\Local\Temp\ccmBQqfl.s:26686  .debug_str:00000000000139cb .LASF60
C:\Users\CYMR90~1\AppData\Local\Temp\ccmBQqfl.s:28643  .debug_str:000000000001b9e2 .LASF61
C:\Users\CYMR90~1\AppData\Local\Temp\ccmBQqfl.s:22528  .debug_str:0000000000002f39 .LASF62
C:\Users\CYMR90~1\AppData\Local\Temp\ccmBQqfl.s:25192  .debug_str:000000000000dae4 .LASF63
C:\Users\CYMR90~1\AppData\Local\Temp\ccmBQqfl.s:24930  .debug_str:000000000000c9a1 .LASF64
C:\Users\CYMR90~1\AppData\Local\Temp\ccmBQqfl.s:28333  .debug_str:000000000001a3eb .LASF65
C:\Users\CYMR90~1\AppData\Local\Temp\ccmBQqfl.s:26986  .debug_str:0000000000014c70 .LASF66
C:\Users\CYMR90~1\AppData\Local\Temp\ccmBQqfl.s:32133  .debug_str:0000000000029536 .LASF67
C:\Users\CYMR90~1\AppData\Local\Temp\ccmBQqfl.s:32583  .debug_str:000000000002b021 .LASF68
C:\Users\CYMR90~1\AppData\Local\Temp\ccmBQqfl.s:26228  .debug_str:0000000000011bcd .LASF69
C:\Users\CYMR90~1\AppData\Local\Temp\ccmBQqfl.s:25354  .debug_str:000000000000e473 .LASF70
C:\Users\CYMR90~1\AppData\Local\Temp\ccmBQqfl.s:22958  .debug_str:0000000000004bd5 .LASF71
C:\Users\CYMR90~1\AppData\Local\Temp\ccmBQqfl.s:26262  .debug_str:0000000000011e47 .LASF72
C:\Users\CYMR90~1\AppData\Local\Temp\ccmBQqfl.s:24844  .debug_str:000000000000c46f .LASF73
C:\Users\CYMR90~1\AppData\Local\Temp\ccmBQqfl.s:26498  .debug_str:0000000000012d86 .LASF74
C:\Users\CYMR90~1\AppData\Local\Temp\ccmBQqfl.s:26336  .debug_str:00000000000122f7 .LASF75
C:\Users\CYMR90~1\AppData\Local\Temp\ccmBQqfl.s:26434  .debug_str:0000000000012958 .LASF76
C:\Users\CYMR90~1\AppData\Local\Temp\ccmBQqfl.s:30927  .debug_str:00000000000246cc .LASF77
C:\Users\CYMR90~1\AppData\Local\Temp\ccmBQqfl.s:28831  .debug_str:000000000001c570 .LASF78
C:\Users\CYMR90~1\AppData\Local\Temp\ccmBQqfl.s:29241  .debug_str:000000000001e070 .LASF79
C:\Users\CYMR90~1\AppData\Local\Temp\ccmBQqfl.s:32113  .debug_str:00000000000293e7 .LASF80
C:\Users\CYMR90~1\AppData\Local\Temp\ccmBQqfl.s:24246  .debug_str:0000000000009da2 .LASF81
C:\Users\CYMR90~1\AppData\Local\Temp\ccmBQqfl.s:24446  .debug_str:000000000000a999 .LASF82
C:\Users\CYMR90~1\AppData\Local\Temp\ccmBQqfl.s:32247  .debug_str:0000000000029c8c .LASF83
C:\Users\CYMR90~1\AppData\Local\Temp\ccmBQqfl.s:24184  .debug_str:000000000000997e .LASF84
C:\Users\CYMR90~1\AppData\Local\Temp\ccmBQqfl.s:23468  .debug_str:0000000000006ac0 .LASF85
C:\Users\CYMR90~1\AppData\Local\Temp\ccmBQqfl.s:28537  .debug_str:000000000001b2be .LASF86
C:\Users\CYMR90~1\AppData\Local\Temp\ccmBQqfl.s:32277  .debug_str:0000000000029e16 .LASF87
C:\Users\CYMR90~1\AppData\Local\Temp\ccmBQqfl.s:29689  .debug_str:000000000001fc49 .LASF88
C:\Users\CYMR90~1\AppData\Local\Temp\ccmBQqfl.s:28453  .debug_str:000000000001ad3a .LASF89
C:\Users\CYMR90~1\AppData\Local\Temp\ccmBQqfl.s:29719  .debug_str:000000000001fe01 .LASF90
C:\Users\CYMR90~1\AppData\Local\Temp\ccmBQqfl.s:32487  .debug_str:000000000002aa74 .LASF91
C:\Users\CYMR90~1\AppData\Local\Temp\ccmBQqfl.s:31309  .debug_str:00000000000260dc .LASF92
C:\Users\CYMR90~1\AppData\Local\Temp\ccmBQqfl.s:24324  .debug_str:000000000000a245 .LASF93
C:\Users\CYMR90~1\AppData\Local\Temp\ccmBQqfl.s:29119  .debug_str:000000000001d8dd .LASF94
C:\Users\CYMR90~1\AppData\Local\Temp\ccmBQqfl.s:26716  .debug_str:0000000000013bb3 .LASF95
C:\Users\CYMR90~1\AppData\Local\Temp\ccmBQqfl.s:26700  .debug_str:0000000000013ac3 .LASF96
C:\Users\CYMR90~1\AppData\Local\Temp\ccmBQqfl.s:32787  .debug_str:000000000002bd4e .LASF97
C:\Users\CYMR90~1\AppData\Local\Temp\ccmBQqfl.s:26350  .debug_str:00000000000123fa .LASF98
C:\Users\CYMR90~1\AppData\Local\Temp\ccmBQqfl.s:30295  .debug_str:00000000000220fc .LASF99
C:\Users\CYMR90~1\AppData\Local\Temp\ccmBQqfl.s:23674  .debug_str:00000000000077cd .LASF100
C:\Users\CYMR90~1\AppData\Local\Temp\ccmBQqfl.s:25836  .debug_str:00000000000102ab .LASF101
C:\Users\CYMR90~1\AppData\Local\Temp\ccmBQqfl.s:27210  .debug_str:0000000000015a5b .LASF102
C:\Users\CYMR90~1\AppData\Local\Temp\ccmBQqfl.s:28597  .debug_str:000000000001b6d7 .LASF103
C:\Users\CYMR90~1\AppData\Local\Temp\ccmBQqfl.s:25114  .debug_str:000000000000d5ba .LASF104
C:\Users\CYMR90~1\AppData\Local\Temp\ccmBQqfl.s:26284  .debug_str:0000000000011fa1 .LASF105
C:\Users\CYMR90~1\AppData\Local\Temp\ccmBQqfl.s:28933  .debug_str:000000000001cb67 .LASF106
C:\Users\CYMR90~1\AppData\Local\Temp\ccmBQqfl.s:26108  .debug_str:00000000000113ce .LASF107
C:\Users\CYMR90~1\AppData\Local\Temp\ccmBQqfl.s:25110  .debug_str:000000000000d596 .LASF108
C:\Users\CYMR90~1\AppData\Local\Temp\ccmBQqfl.s:26550  .debug_str:00000000000130d0 .LASF109
C:\Users\CYMR90~1\AppData\Local\Temp\ccmBQqfl.s:25484  .debug_str:000000000000ec83 .LASF110
C:\Users\CYMR90~1\AppData\Local\Temp\ccmBQqfl.s:27969  .debug_str:0000000000018c31 .LASF111
C:\Users\CYMR90~1\AppData\Local\Temp\ccmBQqfl.s:24586  .debug_str:000000000000b32b .LASF112
C:\Users\CYMR90~1\AppData\Local\Temp\ccmBQqfl.s:24322  .debug_str:000000000000a21c .LASF113
C:\Users\CYMR90~1\AppData\Local\Temp\ccmBQqfl.s:27244  .debug_str:0000000000015c5d .LASF114
C:\Users\CYMR90~1\AppData\Local\Temp\ccmBQqfl.s:32175  .debug_str:000000000002979c .LASF115
C:\Users\CYMR90~1\AppData\Local\Temp\ccmBQqfl.s:28165  .debug_str:00000000000198db .LASF116
C:\Users\CYMR90~1\AppData\Local\Temp\ccmBQqfl.s:24072  .debug_str:00000000000092b7 .LASF117
C:\Users\CYMR90~1\AppData\Local\Temp\ccmBQqfl.s:28699  .debug_str:000000000001bd3c .LASF118
C:\Users\CYMR90~1\AppData\Local\Temp\ccmBQqfl.s:32897  .debug_str:000000000002c4d5 .LASF119
C:\Users\CYMR90~1\AppData\Local\Temp\ccmBQqfl.s:25404  .debug_str:000000000000e74a .LASF120
C:\Users\CYMR90~1\AppData\Local\Temp\ccmBQqfl.s:30911  .debug_str:0000000000024521 .LASF121
C:\Users\CYMR90~1\AppData\Local\Temp\ccmBQqfl.s:24892  .debug_str:000000000000c743 .LASF122
C:\Users\CYMR90~1\AppData\Local\Temp\ccmBQqfl.s:25000  .debug_str:000000000000ce9a .LASF123
C:\Users\CYMR90~1\AppData\Local\Temp\ccmBQqfl.s:22636  .debug_str:000000000000363c .LASF124
C:\Users\CYMR90~1\AppData\Local\Temp\ccmBQqfl.s:22920  .debug_str:00000000000048ba .LASF125
C:\Users\CYMR90~1\AppData\Local\Temp\ccmBQqfl.s:31845  .debug_str:0000000000028281 .LASF126
C:\Users\CYMR90~1\AppData\Local\Temp\ccmBQqfl.s:26290  .debug_str:0000000000011fdf .LASF127
C:\Users\CYMR90~1\AppData\Local\Temp\ccmBQqfl.s:29095  .debug_str:000000000001d76d .LASF128
C:\Users\CYMR90~1\AppData\Local\Temp\ccmBQqfl.s:24152  .debug_str:0000000000009755 .LASF129
C:\Users\CYMR90~1\AppData\Local\Temp\ccmBQqfl.s:31419  .debug_str:0000000000026793 .LASF130
C:\Users\CYMR90~1\AppData\Local\Temp\ccmBQqfl.s:31725  .debug_str:0000000000027ad2 .LASF131
C:\Users\CYMR90~1\AppData\Local\Temp\ccmBQqfl.s:31537  .debug_str:0000000000026ec0 .LASF132
C:\Users\CYMR90~1\AppData\Local\Temp\ccmBQqfl.s:25378  .debug_str:000000000000e5ae .LASF133
C:\Users\CYMR90~1\AppData\Local\Temp\ccmBQqfl.s:30833  .debug_str:00000000000240f9 .LASF134
C:\Users\CYMR90~1\AppData\Local\Temp\ccmBQqfl.s:22914  .debug_str:0000000000004852 .LASF135
C:\Users\CYMR90~1\AppData\Local\Temp\ccmBQqfl.s:23774  .debug_str:0000000000007e07 .LASF136
C:\Users\CYMR90~1\AppData\Local\Temp\ccmBQqfl.s:28843  .debug_str:000000000001c64a .LASF137
C:\Users\CYMR90~1\AppData\Local\Temp\ccmBQqfl.s:26546  .debug_str:00000000000130a0 .LASF138
C:\Users\CYMR90~1\AppData\Local\Temp\ccmBQqfl.s:32057  .debug_str:00000000000290da .LASF139
C:\Users\CYMR90~1\AppData\Local\Temp\ccmBQqfl.s:31187  .debug_str:00000000000258ac .LASF140
C:\Users\CYMR90~1\AppData\Local\Temp\ccmBQqfl.s:28789  .debug_str:000000000001c2d2 .LASF141
C:\Users\CYMR90~1\AppData\Local\Temp\ccmBQqfl.s:24198  .debug_str:0000000000009a3d .LASF142
C:\Users\CYMR90~1\AppData\Local\Temp\ccmBQqfl.s:32647  .debug_str:000000000002b3ea .LASF143
C:\Users\CYMR90~1\AppData\Local\Temp\ccmBQqfl.s:27939  .debug_str:0000000000018a33 .LASF144
C:\Users\CYMR90~1\AppData\Local\Temp\ccmBQqfl.s:26998  .debug_str:0000000000014d55 .LASF145
C:\Users\CYMR90~1\AppData\Local\Temp\ccmBQqfl.s:24964  .debug_str:000000000000cc7d .LASF146
C:\Users\CYMR90~1\AppData\Local\Temp\ccmBQqfl.s:22956  .debug_str:0000000000004bbe .LASF147
C:\Users\CYMR90~1\AppData\Local\Temp\ccmBQqfl.s:25526  .debug_str:000000000000ef46 .LASF148
C:\Users\CYMR90~1\AppData\Local\Temp\ccmBQqfl.s:27917  .debug_str:000000000001890e .LASF149
C:\Users\CYMR90~1\AppData\Local\Temp\ccmBQqfl.s:21882  .debug_str:00000000000005a4 .LASF150
C:\Users\CYMR90~1\AppData\Local\Temp\ccmBQqfl.s:30279  .debug_str:0000000000021fef .LASF151
C:\Users\CYMR90~1\AppData\Local\Temp\ccmBQqfl.s:26540  .debug_str:000000000001301e .LASF152
C:\Users\CYMR90~1\AppData\Local\Temp\ccmBQqfl.s:31193  .debug_str:00000000000258ff .LASF153
C:\Users\CYMR90~1\AppData\Local\Temp\ccmBQqfl.s:28997  .debug_str:000000000001cfdf .LASF154
C:\Users\CYMR90~1\AppData\Local\Temp\ccmBQqfl.s:25946  .debug_str:0000000000010a1e .LASF155
C:\Users\CYMR90~1\AppData\Local\Temp\ccmBQqfl.s:29011  .debug_str:000000000001d104 .LASF156
C:\Users\CYMR90~1\AppData\Local\Temp\ccmBQqfl.s:29125  .debug_str:000000000001d945 .LASF157
C:\Users\CYMR90~1\AppData\Local\Temp\ccmBQqfl.s:24816  .debug_str:000000000000c2c5 .LASF158
C:\Users\CYMR90~1\AppData\Local\Temp\ccmBQqfl.s:23874  .debug_str:00000000000085b5 .LASF159
C:\Users\CYMR90~1\AppData\Local\Temp\ccmBQqfl.s:28649  .debug_str:000000000001ba36 .LASF160
C:\Users\CYMR90~1\AppData\Local\Temp\ccmBQqfl.s:30101  .debug_str:00000000000214e0 .LASF161
C:\Users\CYMR90~1\AppData\Local\Temp\ccmBQqfl.s:28237  .debug_str:0000000000019e2a .LASF162
C:\Users\CYMR90~1\AppData\Local\Temp\ccmBQqfl.s:30823  .debug_str:000000000002405b .LASF163
C:\Users\CYMR90~1\AppData\Local\Temp\ccmBQqfl.s:32473  .debug_str:000000000002a9a6 .LASF164
C:\Users\CYMR90~1\AppData\Local\Temp\ccmBQqfl.s:23630  .debug_str:0000000000007568 .LASF165
C:\Users\CYMR90~1\AppData\Local\Temp\ccmBQqfl.s:32163  .debug_str:000000000002970d .LASF166
C:\Users\CYMR90~1\AppData\Local\Temp\ccmBQqfl.s:24040  .debug_str:00000000000090d1 .LASF167
C:\Users\CYMR90~1\AppData\Local\Temp\ccmBQqfl.s:30747  .debug_str:0000000000023b72 .LASF168
C:\Users\CYMR90~1\AppData\Local\Temp\ccmBQqfl.s:27705  .debug_str:0000000000017c07 .LASF169
C:\Users\CYMR90~1\AppData\Local\Temp\ccmBQqfl.s:31601  .debug_str:0000000000027279 .LASF170
C:\Users\CYMR90~1\AppData\Local\Temp\ccmBQqfl.s:27322  .debug_str:0000000000016194 .LASF171
C:\Users\CYMR90~1\AppData\Local\Temp\ccmBQqfl.s:28915  .debug_str:000000000001ca56 .LASF172
C:\Users\CYMR90~1\AppData\Local\Temp\ccmBQqfl.s:24276  .debug_str:0000000000009f65 .LASF173
C:\Users\CYMR90~1\AppData\Local\Temp\ccmBQqfl.s:30641  .debug_str:000000000002357d .LASF174
C:\Users\CYMR90~1\AppData\Local\Temp\ccmBQqfl.s:23302  .debug_str:00000000000060c8 .LASF175
C:\Users\CYMR90~1\AppData\Local\Temp\ccmBQqfl.s:24118  .debug_str:000000000000955e .LASF176
C:\Users\CYMR90~1\AppData\Local\Temp\ccmBQqfl.s:22788  .debug_str:0000000000003fd4 .LASF177
C:\Users\CYMR90~1\AppData\Local\Temp\ccmBQqfl.s:28113  .debug_str:00000000000195d6 .LASF178
C:\Users\CYMR90~1\AppData\Local\Temp\ccmBQqfl.s:25054  .debug_str:000000000000d1dd .LASF179
C:\Users\CYMR90~1\AppData\Local\Temp\ccmBQqfl.s:22296  .debug_str:0000000000002082 .LASF180
C:\Users\CYMR90~1\AppData\Local\Temp\ccmBQqfl.s:32783  .debug_str:000000000002bd23 .LASF181
C:\Users\CYMR90~1\AppData\Local\Temp\ccmBQqfl.s:22074  .debug_str:0000000000001228 .LASF182
C:\Users\CYMR90~1\AppData\Local\Temp\ccmBQqfl.s:26656  .debug_str:0000000000013802 .LASF183
C:\Users\CYMR90~1\AppData\Local\Temp\ccmBQqfl.s:27064  .debug_str:000000000001519b .LASF184
C:\Users\CYMR90~1\AppData\Local\Temp\ccmBQqfl.s:31987  .debug_str:0000000000028ca4 .LASF185
C:\Users\CYMR90~1\AppData\Local\Temp\ccmBQqfl.s:25150  .debug_str:000000000000d8a8 .LASF186
C:\Users\CYMR90~1\AppData\Local\Temp\ccmBQqfl.s:22324  .debug_str:0000000000002201 .LASF187
C:\Users\CYMR90~1\AppData\Local\Temp\ccmBQqfl.s:29665  .debug_str:000000000001fabe .LASF188
C:\Users\CYMR90~1\AppData\Local\Temp\ccmBQqfl.s:25422  .debug_str:000000000000e8c1 .LASF189
C:\Users\CYMR90~1\AppData\Local\Temp\ccmBQqfl.s:24468  .debug_str:000000000000ab37 .LASF190
C:\Users\CYMR90~1\AppData\Local\Temp\ccmBQqfl.s:30159  .debug_str:000000000002181f .LASF191
C:\Users\CYMR90~1\AppData\Local\Temp\ccmBQqfl.s:27484  .debug_str:0000000000016c81 .LASF192
C:\Users\CYMR90~1\AppData\Local\Temp\ccmBQqfl.s:30395  .debug_str:00000000000226f1 .LASF193
C:\Users\CYMR90~1\AppData\Local\Temp\ccmBQqfl.s:23254  .debug_str:0000000000005e11 .LASF194
C:\Users\CYMR90~1\AppData\Local\Temp\ccmBQqfl.s:22602  .debug_str:00000000000033f5 .LASF195
C:\Users\CYMR90~1\AppData\Local\Temp\ccmBQqfl.s:25250  .debug_str:000000000000de24 .LASF196
C:\Users\CYMR90~1\AppData\Local\Temp\ccmBQqfl.s:26178  .debug_str:00000000000117f5 .LASF197
C:\Users\CYMR90~1\AppData\Local\Temp\ccmBQqfl.s:23102  .debug_str:000000000000548a .LASF198
C:\Users\CYMR90~1\AppData\Local\Temp\ccmBQqfl.s:31877  .debug_str:00000000000284c5 .LASF199
C:\Users\CYMR90~1\AppData\Local\Temp\ccmBQqfl.s:30037  .debug_str:0000000000021120 .LASF200
C:\Users\CYMR90~1\AppData\Local\Temp\ccmBQqfl.s:29133  .debug_str:000000000001d9a3 .LASF201
C:\Users\CYMR90~1\AppData\Local\Temp\ccmBQqfl.s:24252  .debug_str:0000000000009dec .LASF202
C:\Users\CYMR90~1\AppData\Local\Temp\ccmBQqfl.s:31225  .debug_str:0000000000025af5 .LASF203
C:\Users\CYMR90~1\AppData\Local\Temp\ccmBQqfl.s:22616  .debug_str:00000000000034ef .LASF204
C:\Users\CYMR90~1\AppData\Local\Temp\ccmBQqfl.s:25658  .debug_str:000000000000f71e .LASF205
C:\Users\CYMR90~1\AppData\Local\Temp\ccmBQqfl.s:32067  .debug_str:000000000002914b .LASF206
C:\Users\CYMR90~1\AppData\Local\Temp\ccmBQqfl.s:26874  .debug_str:0000000000014576 .LASF207
C:\Users\CYMR90~1\AppData\Local\Temp\ccmBQqfl.s:29707  .debug_str:000000000001fd5f .LASF208
C:\Users\CYMR90~1\AppData\Local\Temp\ccmBQqfl.s:24886  .debug_str:000000000000c6fe .LASF209
C:\Users\CYMR90~1\AppData\Local\Temp\ccmBQqfl.s:32997  .debug_str:000000000002cb13 .LASF210
C:\Users\CYMR90~1\AppData\Local\Temp\ccmBQqfl.s:26844  .debug_str:0000000000014396 .LASF211
C:\Users\CYMR90~1\AppData\Local\Temp\ccmBQqfl.s:29543  .debug_str:000000000001f330 .LASF212
C:\Users\CYMR90~1\AppData\Local\Temp\ccmBQqfl.s:28133  .debug_str:0000000000019704 .LASF213
C:\Users\CYMR90~1\AppData\Local\Temp\ccmBQqfl.s:23342  .debug_str:00000000000062f9 .LASF214
C:\Users\CYMR90~1\AppData\Local\Temp\ccmBQqfl.s:26852  .debug_str:0000000000014406 .LASF215
C:\Users\CYMR90~1\AppData\Local\Temp\ccmBQqfl.s:28827  .debug_str:000000000001c520 .LASF216
C:\Users\CYMR90~1\AppData\Local\Temp\ccmBQqfl.s:29817  .debug_str:00000000000203c9 .LASF217
C:\Users\CYMR90~1\AppData\Local\Temp\ccmBQqfl.s:25738  .debug_str:000000000000fc4c .LASF218
C:\Users\CYMR90~1\AppData\Local\Temp\ccmBQqfl.s:31195  .debug_str:000000000002593b .LASF219
C:\Users\CYMR90~1\AppData\Local\Temp\ccmBQqfl.s:31007  .debug_str:0000000000024bfd .LASF220
C:\Users\CYMR90~1\AppData\Local\Temp\ccmBQqfl.s:30543  .debug_str:0000000000022f8c .LASF221
C:\Users\CYMR90~1\AppData\Local\Temp\ccmBQqfl.s:27132  .debug_str:0000000000015615 .LASF222
C:\Users\CYMR90~1\AppData\Local\Temp\ccmBQqfl.s:23312  .debug_str:000000000000614a .LASF223
C:\Users\CYMR90~1\AppData\Local\Temp\ccmBQqfl.s:23976  .debug_str:0000000000008c83 .LASF224
C:\Users\CYMR90~1\AppData\Local\Temp\ccmBQqfl.s:32657  .debug_str:000000000002b46e .LASF225
C:\Users\CYMR90~1\AppData\Local\Temp\ccmBQqfl.s:25318  .debug_str:000000000000e25a .LASF226
C:\Users\CYMR90~1\AppData\Local\Temp\ccmBQqfl.s:28993  .debug_str:000000000001cfb1 .LASF227
C:\Users\CYMR90~1\AppData\Local\Temp\ccmBQqfl.s:28837  .debug_str:000000000001c5c6 .LASF228
C:\Users\CYMR90~1\AppData\Local\Temp\ccmBQqfl.s:25262  .debug_str:000000000000dedb .LASF229
C:\Users\CYMR90~1\AppData\Local\Temp\ccmBQqfl.s:29587  .debug_str:000000000001f5bb .LASF230
C:\Users\CYMR90~1\AppData\Local\Temp\ccmBQqfl.s:24032  .debug_str:0000000000009026 .LASF231
C:\Users\CYMR90~1\AppData\Local\Temp\ccmBQqfl.s:23352  .debug_str:00000000000063a2 .LASF232
C:\Users\CYMR90~1\AppData\Local\Temp\ccmBQqfl.s:23928  .debug_str:00000000000088c1 .LASF233
C:\Users\CYMR90~1\AppData\Local\Temp\ccmBQqfl.s:25936  .debug_str:00000000000108df .LASF234
C:\Users\CYMR90~1\AppData\Local\Temp\ccmBQqfl.s:25654  .debug_str:000000000000f6d6 .LASF235
C:\Users\CYMR90~1\AppData\Local\Temp\ccmBQqfl.s:30753  .debug_str:0000000000023c01 .LASF236
C:\Users\CYMR90~1\AppData\Local\Temp\ccmBQqfl.s:25676  .debug_str:000000000000f827 .LASF237
C:\Users\CYMR90~1\AppData\Local\Temp\ccmBQqfl.s:31415  .debug_str:0000000000026757 .LASF238
C:\Users\CYMR90~1\AppData\Local\Temp\ccmBQqfl.s:30739  .debug_str:0000000000023af3 .LASF239
C:\Users\CYMR90~1\AppData\Local\Temp\ccmBQqfl.s:30967  .debug_str:0000000000024975 .LASF240
C:\Users\CYMR90~1\AppData\Local\Temp\ccmBQqfl.s:23742  .debug_str:0000000000007c5d .LASF241
C:\Users\CYMR90~1\AppData\Local\Temp\ccmBQqfl.s:25340  .debug_str:000000000000e392 .LASF242
C:\Users\CYMR90~1\AppData\Local\Temp\ccmBQqfl.s:26332  .debug_str:000000000001228f .LASF243
C:\Users\CYMR90~1\AppData\Local\Temp\ccmBQqfl.s:30765  .debug_str:0000000000023c9c .LASF244
C:\Users\CYMR90~1\AppData\Local\Temp\ccmBQqfl.s:26524  .debug_str:0000000000012f04 .LASF245
C:\Users\CYMR90~1\AppData\Local\Temp\ccmBQqfl.s:29599  .debug_str:000000000001f6a0 .LASF246
C:\Users\CYMR90~1\AppData\Local\Temp\ccmBQqfl.s:27901  .debug_str:00000000000187ed .LASF247
C:\Users\CYMR90~1\AppData\Local\Temp\ccmBQqfl.s:27410  .debug_str:0000000000016734 .LASF248
C:\Users\CYMR90~1\AppData\Local\Temp\ccmBQqfl.s:28929  .debug_str:000000000001cb37 .LASF249
C:\Users\CYMR90~1\AppData\Local\Temp\ccmBQqfl.s:28293  .debug_str:000000000001a178 .LASF250
C:\Users\CYMR90~1\AppData\Local\Temp\ccmBQqfl.s:28863  .debug_str:000000000001c76d .LASF251
C:\Users\CYMR90~1\AppData\Local\Temp\ccmBQqfl.s:30593  .debug_str:00000000000232e0 .LASF252
C:\Users\CYMR90~1\AppData\Local\Temp\ccmBQqfl.s:25232  .debug_str:000000000000dd36 .LASF253
C:\Users\CYMR90~1\AppData\Local\Temp\ccmBQqfl.s:31271  .debug_str:0000000000025e99 .LASF254
C:\Users\CYMR90~1\AppData\Local\Temp\ccmBQqfl.s:25096  .debug_str:000000000000d48c .LASF255
C:\Users\CYMR90~1\AppData\Local\Temp\ccmBQqfl.s:28201  .debug_str:0000000000019bbd .LASF256
C:\Users\CYMR90~1\AppData\Local\Temp\ccmBQqfl.s:25336  .debug_str:000000000000e360 .LASF257
C:\Users\CYMR90~1\AppData\Local\Temp\ccmBQqfl.s:29531  .debug_str:000000000001f261 .LASF258
C:\Users\CYMR90~1\AppData\Local\Temp\ccmBQqfl.s:24550  .debug_str:000000000000b02f .LASF259
C:\Users\CYMR90~1\AppData\Local\Temp\ccmBQqfl.s:21956  .debug_str:0000000000000a3b .LASF260
C:\Users\CYMR90~1\AppData\Local\Temp\ccmBQqfl.s:24656  .debug_str:000000000000b7a1 .LASF261
C:\Users\CYMR90~1\AppData\Local\Temp\ccmBQqfl.s:31857  .debug_str:0000000000028331 .LASF262
C:\Users\CYMR90~1\AppData\Local\Temp\ccmBQqfl.s:26826  .debug_str:000000000001425b .LASF263
C:\Users\CYMR90~1\AppData\Local\Temp\ccmBQqfl.s:28811  .debug_str:000000000001c43f .LASF264
C:\Users\CYMR90~1\AppData\Local\Temp\ccmBQqfl.s:25790  .debug_str:000000000000ffa4 .LASF265
C:\Users\CYMR90~1\AppData\Local\Temp\ccmBQqfl.s:25264  .debug_str:000000000000df1c .LASF266
C:\Users\CYMR90~1\AppData\Local\Temp\ccmBQqfl.s:24598  .debug_str:000000000000b3f0 .LASF267
C:\Users\CYMR90~1\AppData\Local\Temp\ccmBQqfl.s:28917  .debug_str:000000000001ca6b .LASF268
C:\Users\CYMR90~1\AppData\Local\Temp\ccmBQqfl.s:24910  .debug_str:000000000000c875 .LASF269
C:\Users\CYMR90~1\AppData\Local\Temp\ccmBQqfl.s:25854  .debug_str:00000000000103fa .LASF270
C:\Users\CYMR90~1\AppData\Local\Temp\ccmBQqfl.s:26624  .debug_str:00000000000135d1 .LASF271
C:\Users\CYMR90~1\AppData\Local\Temp\ccmBQqfl.s:31519  .debug_str:0000000000026db5 .LASF272
C:\Users\CYMR90~1\AppData\Local\Temp\ccmBQqfl.s:23512  .debug_str:0000000000006d4f .LASF273
C:\Users\CYMR90~1\AppData\Local\Temp\ccmBQqfl.s:22414  .debug_str:000000000000275d .LASF274
C:\Users\CYMR90~1\AppData\Local\Temp\ccmBQqfl.s:23602  .debug_str:0000000000007355 .LASF275
C:\Users\CYMR90~1\AppData\Local\Temp\ccmBQqfl.s:24970  .debug_str:000000000000ccc6 .LASF276
C:\Users\CYMR90~1\AppData\Local\Temp\ccmBQqfl.s:24800  .debug_str:000000000000c1c0 .LASF277
C:\Users\CYMR90~1\AppData\Local\Temp\ccmBQqfl.s:22096  .debug_str:000000000000133a .LASF278
C:\Users\CYMR90~1\AppData\Local\Temp\ccmBQqfl.s:23436  .debug_str:000000000000689a .LASF279
C:\Users\CYMR90~1\AppData\Local\Temp\ccmBQqfl.s:32185  .debug_str:0000000000029830 .LASF280
C:\Users\CYMR90~1\AppData\Local\Temp\ccmBQqfl.s:24302  .debug_str:000000000000a0db .LASF281
C:\Users\CYMR90~1\AppData\Local\Temp\ccmBQqfl.s:23400  .debug_str:00000000000066a4 .LASF282
C:\Users\CYMR90~1\AppData\Local\Temp\ccmBQqfl.s:23306  .debug_str:00000000000060f8 .LASF283
C:\Users\CYMR90~1\AppData\Local\Temp\ccmBQqfl.s:23056  .debug_str:00000000000051e4 .LASF284
C:\Users\CYMR90~1\AppData\Local\Temp\ccmBQqfl.s:31069  .debug_str:0000000000025072 .LASF285
C:\Users\CYMR90~1\AppData\Local\Temp\ccmBQqfl.s:31889  .debug_str:00000000000285bb .LASF286
C:\Users\CYMR90~1\AppData\Local\Temp\ccmBQqfl.s:32171  .debug_str:000000000002976a .LASF287
C:\Users\CYMR90~1\AppData\Local\Temp\ccmBQqfl.s:32081  .debug_str:0000000000029203 .LASF288
C:\Users\CYMR90~1\AppData\Local\Temp\ccmBQqfl.s:32929  .debug_str:000000000002c6d1 .LASF289
C:\Users\CYMR90~1\AppData\Local\Temp\ccmBQqfl.s:27847  .debug_str:00000000000184c6 .LASF290
C:\Users\CYMR90~1\AppData\Local\Temp\ccmBQqfl.s:26880  .debug_str:00000000000145be .LASF291
C:\Users\CYMR90~1\AppData\Local\Temp\ccmBQqfl.s:25558  .debug_str:000000000000f0f6 .LASF292
C:\Users\CYMR90~1\AppData\Local\Temp\ccmBQqfl.s:22700  .debug_str:0000000000003a4b .LASF293
C:\Users\CYMR90~1\AppData\Local\Temp\ccmBQqfl.s:30051  .debug_str:00000000000211ed .LASF294
C:\Users\CYMR90~1\AppData\Local\Temp\ccmBQqfl.s:22982  .debug_str:0000000000004d3a .LASF295
C:\Users\CYMR90~1\AppData\Local\Temp\ccmBQqfl.s:32517  .debug_str:000000000002ac3c .LASF296
C:\Users\CYMR90~1\AppData\Local\Temp\ccmBQqfl.s:32703  .debug_str:000000000002b79a .LASF297
C:\Users\CYMR90~1\AppData\Local\Temp\ccmBQqfl.s:27725  .debug_str:0000000000017d80 .LASF298
C:\Users\CYMR90~1\AppData\Local\Temp\ccmBQqfl.s:21940  .debug_str:0000000000000935 .LASF299
C:\Users\CYMR90~1\AppData\Local\Temp\ccmBQqfl.s:25758  .debug_str:000000000000fd8d .LASF300
C:\Users\CYMR90~1\AppData\Local\Temp\ccmBQqfl.s:28477  .debug_str:000000000001aedd .LASF301
C:\Users\CYMR90~1\AppData\Local\Temp\ccmBQqfl.s:26992  .debug_str:0000000000014cc7 .LASF302
C:\Users\CYMR90~1\AppData\Local\Temp\ccmBQqfl.s:26472  .debug_str:0000000000012bdc .LASF303
C:\Users\CYMR90~1\AppData\Local\Temp\ccmBQqfl.s:22338  .debug_str:00000000000022e6 .LASF304
C:\Users\CYMR90~1\AppData\Local\Temp\ccmBQqfl.s:24918  .debug_str:000000000000c900 .LASF305
C:\Users\CYMR90~1\AppData\Local\Temp\ccmBQqfl.s:30261  .debug_str:0000000000021f0d .LASF306
C:\Users\CYMR90~1\AppData\Local\Temp\ccmBQqfl.s:25776  .debug_str:000000000000fec5 .LASF307
C:\Users\CYMR90~1\AppData\Local\Temp\ccmBQqfl.s:31089  .debug_str:00000000000251c8 .LASF308
C:\Users\CYMR90~1\AppData\Local\Temp\ccmBQqfl.s:30707  .debug_str:000000000002390c .LASF309
C:\Users\CYMR90~1\AppData\Local\Temp\ccmBQqfl.s:25320  .debug_str:000000000000e273 .LASF310
C:\Users\CYMR90~1\AppData\Local\Temp\ccmBQqfl.s:31411  .debug_str:000000000002672c .LASF311
C:\Users\CYMR90~1\AppData\Local\Temp\ccmBQqfl.s:30921  .debug_str:0000000000024695 .LASF312
C:\Users\CYMR90~1\AppData\Local\Temp\ccmBQqfl.s:25036  .debug_str:000000000000d084 .LASF313
C:\Users\CYMR90~1\AppData\Local\Temp\ccmBQqfl.s:27989  .debug_str:0000000000018da2 .LASF316
C:\Users\CYMR90~1\AppData\Local\Temp\ccmBQqfl.s:28349  .debug_str:000000000001a4d5 .LASF317
C:\Users\CYMR90~1\AppData\Local\Temp\ccmBQqfl.s:28705  .debug_str:000000000001bd74 .LASF318
C:\Users\CYMR90~1\AppData\Local\Temp\ccmBQqfl.s:25764  .debug_str:000000000000fe04 .LASF319
C:\Users\CYMR90~1\AppData\Local\Temp\ccmBQqfl.s:24674  .debug_str:000000000000b906 .LASF320
C:\Users\CYMR90~1\AppData\Local\Temp\ccmBQqfl.s:32131  .debug_str:000000000002952a .LASF321
C:\Users\CYMR90~1\AppData\Local\Temp\ccmBQqfl.s:25230  .debug_str:000000000000dd29 .LASF322
C:\Users\CYMR90~1\AppData\Local\Temp\ccmBQqfl.s:31367  .debug_str:0000000000026453 .LASF323
C:\Users\CYMR90~1\AppData\Local\Temp\ccmBQqfl.s:21822  .debug_str:0000000000000223 .LASF324
C:\Users\CYMR90~1\AppData\Local\Temp\ccmBQqfl.s:32539  .debug_str:000000000002ad71 .LASF325
C:\Users\CYMR90~1\AppData\Local\Temp\ccmBQqfl.s:22758  .debug_str:0000000000003dd6 .LASF326
C:\Users\CYMR90~1\AppData\Local\Temp\ccmBQqfl.s:26814  .debug_str:000000000001419e .LASF327
C:\Users\CYMR90~1\AppData\Local\Temp\ccmBQqfl.s:26474  .debug_str:0000000000012bf1 .LASF328
C:\Users\CYMR90~1\AppData\Local\Temp\ccmBQqfl.s:29373  .debug_str:000000000001e8c8 .LASF329
C:\Users\CYMR90~1\AppData\Local\Temp\ccmBQqfl.s:29365  .debug_str:000000000001e877 .LASF330
C:\Users\CYMR90~1\AppData\Local\Temp\ccmBQqfl.s:31561  .debug_str:0000000000027032 .LASF331
C:\Users\CYMR90~1\AppData\Local\Temp\ccmBQqfl.s:32111  .debug_str:00000000000293d8 .LASF332
C:\Users\CYMR90~1\AppData\Local\Temp\ccmBQqfl.s:32299  .debug_str:0000000000029f6a .LASF333
C:\Users\CYMR90~1\AppData\Local\Temp\ccmBQqfl.s:28323  .debug_str:000000000001a356 .LASF334
C:\Users\CYMR90~1\AppData\Local\Temp\ccmBQqfl.s:27771  .debug_str:000000000001804c .LASF335
C:\Users\CYMR90~1\AppData\Local\Temp\ccmBQqfl.s:32151  .debug_str:0000000000029663 .LASF336
C:\Users\CYMR90~1\AppData\Local\Temp\ccmBQqfl.s:26396  .debug_str:00000000000126d5 .LASF337
C:\Users\CYMR90~1\AppData\Local\Temp\ccmBQqfl.s:30109  .debug_str:000000000002154c .LASF338
C:\Users\CYMR90~1\AppData\Local\Temp\ccmBQqfl.s:24418  .debug_str:000000000000a845 .LASF339
C:\Users\CYMR90~1\AppData\Local\Temp\ccmBQqfl.s:26606  .debug_str:000000000001348e .LASF340
C:\Users\CYMR90~1\AppData\Local\Temp\ccmBQqfl.s:28529  .debug_str:000000000001b20c .LASF341
C:\Users\CYMR90~1\AppData\Local\Temp\ccmBQqfl.s:24738  .debug_str:000000000000bd7d .LASF342
C:\Users\CYMR90~1\AppData\Local\Temp\ccmBQqfl.s:32015  .debug_str:0000000000028e6e .LASF343
C:\Users\CYMR90~1\AppData\Local\Temp\ccmBQqfl.s:32267  .debug_str:0000000000029d85 .LASF344
C:\Users\CYMR90~1\AppData\Local\Temp\ccmBQqfl.s:32867  .debug_str:000000000002c280 .LASF345
C:\Users\CYMR90~1\AppData\Local\Temp\ccmBQqfl.s:25644  .debug_str:000000000000f64e .LASF346
C:\Users\CYMR90~1\AppData\Local\Temp\ccmBQqfl.s:21928  .debug_str:0000000000000889 .LASF347
C:\Users\CYMR90~1\AppData\Local\Temp\ccmBQqfl.s:29899  .debug_str:0000000000020890 .LASF348
C:\Users\CYMR90~1\AppData\Local\Temp\ccmBQqfl.s:31867  .debug_str:00000000000283f3 .LASF349
C:\Users\CYMR90~1\AppData\Local\Temp\ccmBQqfl.s:29367  .debug_str:000000000001e883 .LASF350
C:\Users\CYMR90~1\AppData\Local\Temp\ccmBQqfl.s:21862  .debug_str:00000000000004b4 .LASF351
C:\Users\CYMR90~1\AppData\Local\Temp\ccmBQqfl.s:31503  .debug_str:0000000000026cd8 .LASF352
C:\Users\CYMR90~1\AppData\Local\Temp\ccmBQqfl.s:31359  .debug_str:00000000000263e9 .LASF353
C:\Users\CYMR90~1\AppData\Local\Temp\ccmBQqfl.s:28979  .debug_str:000000000001ceff .LASF354
C:\Users\CYMR90~1\AppData\Local\Temp\ccmBQqfl.s:29149  .debug_str:000000000001dad5 .LASF355
C:\Users\CYMR90~1\AppData\Local\Temp\ccmBQqfl.s:25120  .debug_str:000000000000d6b5 .LASF356
C:\Users\CYMR90~1\AppData\Local\Temp\ccmBQqfl.s:26080  .debug_str:0000000000011256 .LASF357
C:\Users\CYMR90~1\AppData\Local\Temp\ccmBQqfl.s:31779  .debug_str:0000000000027deb .LASF358
C:\Users\CYMR90~1\AppData\Local\Temp\ccmBQqfl.s:26464  .debug_str:0000000000012b31 .LASF359
C:\Users\CYMR90~1\AppData\Local\Temp\ccmBQqfl.s:24520  .debug_str:000000000000ae67 .LASF360
C:\Users\CYMR90~1\AppData\Local\Temp\ccmBQqfl.s:29545  .debug_str:000000000001f348 .LASF361
C:\Users\CYMR90~1\AppData\Local\Temp\ccmBQqfl.s:26202  .debug_str:0000000000011992 .LASF362
C:\Users\CYMR90~1\AppData\Local\Temp\ccmBQqfl.s:32049  .debug_str:000000000002905a .LASF363
C:\Users\CYMR90~1\AppData\Local\Temp\ccmBQqfl.s:24056  .debug_str:00000000000091e3 .LASF364
C:\Users\CYMR90~1\AppData\Local\Temp\ccmBQqfl.s:31939  .debug_str:0000000000028961 .LASF365
C:\Users\CYMR90~1\AppData\Local\Temp\ccmBQqfl.s:23472  .debug_str:0000000000006b25 .LASF366
C:\Users\CYMR90~1\AppData\Local\Temp\ccmBQqfl.s:26596  .debug_str:00000000000133ca .LASF367
C:\Users\CYMR90~1\AppData\Local\Temp\ccmBQqfl.s:23750  .debug_str:0000000000007ccd .LASF368
C:\Users\CYMR90~1\AppData\Local\Temp\ccmBQqfl.s:27815  .debug_str:00000000000182e9 .LASF372
C:\Users\CYMR90~1\AppData\Local\Temp\ccmBQqfl.s:31603  .debug_str:00000000000272be .LASF373
C:\Users\CYMR90~1\AppData\Local\Temp\ccmBQqfl.s:24498  .debug_str:000000000000ad1c .LASF374
C:\Users\CYMR90~1\AppData\Local\Temp\ccmBQqfl.s:27601  .debug_str:00000000000175da .LASF375
C:\Users\CYMR90~1\AppData\Local\Temp\ccmBQqfl.s:27801  .debug_str:0000000000018222 .LASF376
C:\Users\CYMR90~1\AppData\Local\Temp\ccmBQqfl.s:30359  .debug_str:00000000000224f8 .LASF377
C:\Users\CYMR90~1\AppData\Local\Temp\ccmBQqfl.s:28995  .debug_str:000000000001cfca .LASF378
C:\Users\CYMR90~1\AppData\Local\Temp\ccmBQqfl.s:32695  .debug_str:000000000002b727 .LASF379
C:\Users\CYMR90~1\AppData\Local\Temp\ccmBQqfl.s:22432  .debug_str:00000000000028c3 .LASF380
C:\Users\CYMR90~1\AppData\Local\Temp\ccmBQqfl.s:32639  .debug_str:000000000002b382 .LASF381
C:\Users\CYMR90~1\AppData\Local\Temp\ccmBQqfl.s:28713  .debug_str:000000000001bdd8 .LASF382
C:\Users\CYMR90~1\AppData\Local\Temp\ccmBQqfl.s:23526  .debug_str:0000000000006e43 .LASF383
C:\Users\CYMR90~1\AppData\Local\Temp\ccmBQqfl.s:24888  .debug_str:000000000000c719 .LASF384
C:\Users\CYMR90~1\AppData\Local\Temp\ccmBQqfl.s:28219  .debug_str:0000000000019d1e .LASF385
C:\Users\CYMR90~1\AppData\Local\Temp\ccmBQqfl.s:25884  .debug_str:00000000000105e3 .LASF386
C:\Users\CYMR90~1\AppData\Local\Temp\ccmBQqfl.s:22364  .debug_str:0000000000002485 .LASF387
C:\Users\CYMR90~1\AppData\Local\Temp\ccmBQqfl.s:25486  .debug_str:000000000000eca3 .LASF388
C:\Users\CYMR90~1\AppData\Local\Temp\ccmBQqfl.s:24030  .debug_str:0000000000009012 .LASF389
C:\Users\CYMR90~1\AppData\Local\Temp\ccmBQqfl.s:22850  .debug_str:000000000000445e .LASF391
C:\Users\CYMR90~1\AppData\Local\Temp\ccmBQqfl.s:25890  .debug_str:0000000000010636 .LASF392
C:\Users\CYMR90~1\AppData\Local\Temp\ccmBQqfl.s:30003  .debug_str:0000000000020f01 .LASF393
C:\Users\CYMR90~1\AppData\Local\Temp\ccmBQqfl.s:31739  .debug_str:0000000000027b9e .LASF394
C:\Users\CYMR90~1\AppData\Local\Temp\ccmBQqfl.s:22388  .debug_str:00000000000025bf .LASF395
C:\Users\CYMR90~1\AppData\Local\Temp\ccmBQqfl.s:24544  .debug_str:000000000000afcb .LASF396
C:\Users\CYMR90~1\AppData\Local\Temp\ccmBQqfl.s:28329  .debug_str:000000000001a3b6 .LASF397
C:\Users\CYMR90~1\AppData\Local\Temp\ccmBQqfl.s:32515  .debug_str:000000000002ac2a .LASF398
C:\Users\CYMR90~1\AppData\Local\Temp\ccmBQqfl.s:27158  .debug_str:000000000001578f .LASF399
C:\Users\CYMR90~1\AppData\Local\Temp\ccmBQqfl.s:29629  .debug_str:000000000001f86b .LASF400
C:\Users\CYMR90~1\AppData\Local\Temp\ccmBQqfl.s:24018  .debug_str:0000000000008ee2 .LASF401
C:\Users\CYMR90~1\AppData\Local\Temp\ccmBQqfl.s:27653  .debug_str:00000000000178b6 .LASF402
C:\Users\CYMR90~1\AppData\Local\Temp\ccmBQqfl.s:23368  .debug_str:00000000000064a3 .LASF403
C:\Users\CYMR90~1\AppData\Local\Temp\ccmBQqfl.s:24470  .debug_str:000000000000ab50 .LASF404
C:\Users\CYMR90~1\AppData\Local\Temp\ccmBQqfl.s:25542  .debug_str:000000000000f027 .LASF405
C:\Users\CYMR90~1\AppData\Local\Temp\ccmBQqfl.s:28901  .debug_str:000000000001c98f .LASF406
C:\Users\CYMR90~1\AppData\Local\Temp\ccmBQqfl.s:27086  .debug_str:000000000001532f .LASF407
C:\Users\CYMR90~1\AppData\Local\Temp\ccmBQqfl.s:28067  .debug_str:0000000000019238 .LASF408
C:\Users\CYMR90~1\AppData\Local\Temp\ccmBQqfl.s:30303  .debug_str:000000000002219a .LASF409
C:\Users\CYMR90~1\AppData\Local\Temp\ccmBQqfl.s:23326  .debug_str:000000000000620b .LASF410
C:\Users\CYMR90~1\AppData\Local\Temp\ccmBQqfl.s:27270  .debug_str:0000000000015e03 .LASF411
C:\Users\CYMR90~1\AppData\Local\Temp\ccmBQqfl.s:30431  .debug_str:000000000002290f .LASF412
C:\Users\CYMR90~1\AppData\Local\Temp\ccmBQqfl.s:23504  .debug_str:0000000000006d06 .LASF413
C:\Users\CYMR90~1\AppData\Local\Temp\ccmBQqfl.s:32145  .debug_str:00000000000295fc .LASF414
C:\Users\CYMR90~1\AppData\Local\Temp\ccmBQqfl.s:25646  .debug_str:000000000000f65c .LASF415
C:\Users\CYMR90~1\AppData\Local\Temp\ccmBQqfl.s:31473  .debug_str:0000000000026aba .LASF416
C:\Users\CYMR90~1\AppData\Local\Temp\ccmBQqfl.s:23558  .debug_str:00000000000070a0 .LASF417
C:\Users\CYMR90~1\AppData\Local\Temp\ccmBQqfl.s:29691  .debug_str:000000000001fc6d .LASF418
C:\Users\CYMR90~1\AppData\Local\Temp\ccmBQqfl.s:32357  .debug_str:000000000002a2bd .LASF419
C:\Users\CYMR90~1\AppData\Local\Temp\ccmBQqfl.s:23572  .debug_str:0000000000007164 .LASF420
C:\Users\CYMR90~1\AppData\Local\Temp\ccmBQqfl.s:32559  .debug_str:000000000002ae8a .LASF421
C:\Users\CYMR90~1\AppData\Local\Temp\ccmBQqfl.s:24810  .debug_str:000000000000c275 .LASF422
C:\Users\CYMR90~1\AppData\Local\Temp\ccmBQqfl.s:25014  .debug_str:000000000000cf64 .LASF423
C:\Users\CYMR90~1\AppData\Local\Temp\ccmBQqfl.s:29525  .debug_str:000000000001f222 .LASF424
C:\Users\CYMR90~1\AppData\Local\Temp\ccmBQqfl.s:28103  .debug_str:000000000001954b .LASF425
C:\Users\CYMR90~1\AppData\Local\Temp\ccmBQqfl.s:21834  .debug_str:00000000000002e6 .LASF426
C:\Users\CYMR90~1\AppData\Local\Temp\ccmBQqfl.s:32055  .debug_str:00000000000290b7 .LASF427
C:\Users\CYMR90~1\AppData\Local\Temp\ccmBQqfl.s:27352  .debug_str:00000000000163d2 .LASF428
C:\Users\CYMR90~1\AppData\Local\Temp\ccmBQqfl.s:29295  .debug_str:000000000001e46a .LASF429
C:\Users\CYMR90~1\AppData\Local\Temp\ccmBQqfl.s:25834  .debug_str:00000000000102a2 .LASF430
C:\Users\CYMR90~1\AppData\Local\Temp\ccmBQqfl.s:27549  .debug_str:00000000000172bb .LASF431
C:\Users\CYMR90~1\AppData\Local\Temp\ccmBQqfl.s:30381  .debug_str:0000000000022617 .LASF432
C:\Users\CYMR90~1\AppData\Local\Temp\ccmBQqfl.s:24996  .debug_str:000000000000ce5b .LASF434
C:\Users\CYMR90~1\AppData\Local\Temp\ccmBQqfl.s:23034  .debug_str:000000000000507d .LASF435
C:\Users\CYMR90~1\AppData\Local\Temp\ccmBQqfl.s:27743  .debug_str:0000000000017e92 .LASF436
C:\Users\CYMR90~1\AppData\Local\Temp\ccmBQqfl.s:23590  .debug_str:000000000000728d .LASF437
C:\Users\CYMR90~1\AppData\Local\Temp\ccmBQqfl.s:32071  .debug_str:000000000002916e .LASF438
C:\Users\CYMR90~1\AppData\Local\Temp\ccmBQqfl.s:21798  .debug_str:00000000000000c7 .LASF439
C:\Users\CYMR90~1\AppData\Local\Temp\ccmBQqfl.s:29565  .debug_str:000000000001f469 .LASF440
C:\Users\CYMR90~1\AppData\Local\Temp\ccmBQqfl.s:25240  .debug_str:000000000000ddba .LASF441
C:\Users\CYMR90~1\AppData\Local\Temp\ccmBQqfl.s:30619  .debug_str:0000000000023463 .LASF442
C:\Users\CYMR90~1\AppData\Local\Temp\ccmBQqfl.s:26128  .debug_str:00000000000114f6 .LASF443
C:\Users\CYMR90~1\AppData\Local\Temp\ccmBQqfl.s:25970  .debug_str:0000000000010b7e .LASF444
C:\Users\CYMR90~1\AppData\Local\Temp\ccmBQqfl.s:32991  .debug_str:000000000002cac7 .LASF445
C:\Users\CYMR90~1\AppData\Local\Temp\ccmBQqfl.s:32927  .debug_str:000000000002c6cb .LASF446
C:\Users\CYMR90~1\AppData\Local\Temp\ccmBQqfl.s:26316  .debug_str:000000000001218e .LASF447
C:\Users\CYMR90~1\AppData\Local\Temp\ccmBQqfl.s:30595  .debug_str:00000000000232f2 .LASF448
C:\Users\CYMR90~1\AppData\Local\Temp\ccmBQqfl.s:22862  .debug_str:0000000000004500 .LASF449
C:\Users\CYMR90~1\AppData\Local\Temp\ccmBQqfl.s:23610  .debug_str:00000000000073e3 .LASF450
C:\Users\CYMR90~1\AppData\Local\Temp\ccmBQqfl.s:22318  .debug_str:00000000000021c3 .LASF451
C:\Users\CYMR90~1\AppData\Local\Temp\ccmBQqfl.s:27000  .debug_str:0000000000014d69 .LASF452
C:\Users\CYMR90~1\AppData\Local\Temp\ccmBQqfl.s:22308  .debug_str:0000000000002150 .LASF453
C:\Users\CYMR90~1\AppData\Local\Temp\ccmBQqfl.s:32933  .debug_str:000000000002c711 .LASF454
C:\Users\CYMR90~1\AppData\Local\Temp\ccmBQqfl.s:25410  .debug_str:000000000000e7b1 .LASF455
C:\Users\CYMR90~1\AppData\Local\Temp\ccmBQqfl.s:30203  .debug_str:0000000000021b5d .LASF456
C:\Users\CYMR90~1\AppData\Local\Temp\ccmBQqfl.s:25092  .debug_str:000000000000d46a .LASF457
C:\Users\CYMR90~1\AppData\Local\Temp\ccmBQqfl.s:23380  .debug_str:0000000000006550 .LASF458
C:\Users\CYMR90~1\AppData\Local\Temp\ccmBQqfl.s:26038  .debug_str:000000000001103a .LASF459
C:\Users\CYMR90~1\AppData\Local\Temp\ccmBQqfl.s:29953  .debug_str:0000000000020c1f .LASF460
C:\Users\CYMR90~1\AppData\Local\Temp\ccmBQqfl.s:31091  .debug_str:00000000000251d8 .LASF461
C:\Users\CYMR90~1\AppData\Local\Temp\ccmBQqfl.s:24222  .debug_str:0000000000009bf9 .LASF462
C:\Users\CYMR90~1\AppData\Local\Temp\ccmBQqfl.s:28379  .debug_str:000000000001a847 .LASF463
C:\Users\CYMR90~1\AppData\Local\Temp\ccmBQqfl.s:25256  .debug_str:000000000000de86 .LASF464
C:\Users\CYMR90~1\AppData\Local\Temp\ccmBQqfl.s:26408  .debug_str:000000000001279f .LASF465
C:\Users\CYMR90~1\AppData\Local\Temp\ccmBQqfl.s:23522  .debug_str:0000000000006e16 .LASF466
C:\Users\CYMR90~1\AppData\Local\Temp\ccmBQqfl.s:24074  .debug_str:00000000000092c6 .LASF467
C:\Users\CYMR90~1\AppData\Local\Temp\ccmBQqfl.s:26176  .debug_str:00000000000117de .LASF468
C:\Users\CYMR90~1\AppData\Local\Temp\ccmBQqfl.s:22650  .debug_str:0000000000003729 .LASF469
C:\Users\CYMR90~1\AppData\Local\Temp\ccmBQqfl.s:25928  .debug_str:000000000001085a .LASF470
C:\Users\CYMR90~1\AppData\Local\Temp\ccmBQqfl.s:25808  .debug_str:00000000000100de .LASF471
C:\Users\CYMR90~1\AppData\Local\Temp\ccmBQqfl.s:25382  .debug_str:000000000000e5fa .LASF472
C:\Users\CYMR90~1\AppData\Local\Temp\ccmBQqfl.s:22016  .debug_str:0000000000000e4f .LASF473
C:\Users\CYMR90~1\AppData\Local\Temp\ccmBQqfl.s:23632  .debug_str:000000000000757f .LASF474
C:\Users\CYMR90~1\AppData\Local\Temp\ccmBQqfl.s:21958  .debug_str:0000000000000a79 .LASF475
C:\Users\CYMR90~1\AppData\Local\Temp\ccmBQqfl.s:22828  .debug_str:0000000000004274 .LASF476
C:\Users\CYMR90~1\AppData\Local\Temp\ccmBQqfl.s:22188  .debug_str:0000000000001a26 .LASF477
C:\Users\CYMR90~1\AppData\Local\Temp\ccmBQqfl.s:27296  .debug_str:0000000000015ff8 .LASF478
C:\Users\CYMR90~1\AppData\Local\Temp\ccmBQqfl.s:24692  .debug_str:000000000000ba6a .LASF479
C:\Users\CYMR90~1\AppData\Local\Temp\ccmBQqfl.s:32555  .debug_str:000000000002ae5a .LASF480
C:\Users\CYMR90~1\AppData\Local\Temp\ccmBQqfl.s:27897  .debug_str:00000000000187b9 .LASF481
C:\Users\CYMR90~1\AppData\Local\Temp\ccmBQqfl.s:24610  .debug_str:000000000000b4a3 .LASF482
C:\Users\CYMR90~1\AppData\Local\Temp\ccmBQqfl.s:23422  .debug_str:00000000000067cd .LASF483
C:\Users\CYMR90~1\AppData\Local\Temp\ccmBQqfl.s:21924  .debug_str:0000000000000842 .LASF484
C:\Users\CYMR90~1\AppData\Local\Temp\ccmBQqfl.s:27845  .debug_str:00000000000184a3 .LASF485
C:\Users\CYMR90~1\AppData\Local\Temp\ccmBQqfl.s:23044  .debug_str:000000000000511b .LASF486
C:\Users\CYMR90~1\AppData\Local\Temp\ccmBQqfl.s:26756  .debug_str:0000000000013e4e .LASF487
C:\Users\CYMR90~1\AppData\Local\Temp\ccmBQqfl.s:25956  .debug_str:0000000000010aae .LASF488
C:\Users\CYMR90~1\AppData\Local\Temp\ccmBQqfl.s:26528  .debug_str:0000000000012f60 .LASF489
C:\Users\CYMR90~1\AppData\Local\Temp\ccmBQqfl.s:24972  .debug_str:000000000000cd07 .LASF490
C:\Users\CYMR90~1\AppData\Local\Temp\ccmBQqfl.s:23944  .debug_str:00000000000089b2 .LASF491
C:\Users\CYMR90~1\AppData\Local\Temp\ccmBQqfl.s:25600  .debug_str:000000000000f38c .LASF492
C:\Users\CYMR90~1\AppData\Local\Temp\ccmBQqfl.s:23952  .debug_str:0000000000008b1b .LASF493
C:\Users\CYMR90~1\AppData\Local\Temp\ccmBQqfl.s:25814  .debug_str:0000000000010152 .LASF494
C:\Users\CYMR90~1\AppData\Local\Temp\ccmBQqfl.s:28093  .debug_str:00000000000194c8 .LASF495
C:\Users\CYMR90~1\AppData\Local\Temp\ccmBQqfl.s:33013  .debug_str:000000000002cc15 .LASF496
C:\Users\CYMR90~1\AppData\Local\Temp\ccmBQqfl.s:32953  .debug_str:000000000002c893 .LASF497
C:\Users\CYMR90~1\AppData\Local\Temp\ccmBQqfl.s:25650  .debug_str:000000000000f6a3 .LASF498
C:\Users\CYMR90~1\AppData\Local\Temp\ccmBQqfl.s:32169  .debug_str:0000000000029745 .LASF499
C:\Users\CYMR90~1\AppData\Local\Temp\ccmBQqfl.s:32271  .debug_str:0000000000029da8 .LASF500
C:\Users\CYMR90~1\AppData\Local\Temp\ccmBQqfl.s:26960  .debug_str:0000000000014aeb .LASF501
C:\Users\CYMR90~1\AppData\Local\Temp\ccmBQqfl.s:32223  .debug_str:0000000000029ac5 .LASF502
C:\Users\CYMR90~1\AppData\Local\Temp\ccmBQqfl.s:26908  .debug_str:0000000000014724 .LASF503
C:\Users\CYMR90~1\AppData\Local\Temp\ccmBQqfl.s:22514  .debug_str:0000000000002e5a .LASF504
C:\Users\CYMR90~1\AppData\Local\Temp\ccmBQqfl.s:30861  .debug_str:000000000002426f .LASF505
C:\Users\CYMR90~1\AppData\Local\Temp\ccmBQqfl.s:31735  .debug_str:0000000000027b63 .LASF506
C:\Users\CYMR90~1\AppData\Local\Temp\ccmBQqfl.s:25940  .debug_str:0000000000010913 .LASF507
C:\Users\CYMR90~1\AppData\Local\Temp\ccmBQqfl.s:28013  .debug_str:0000000000018f13 .LASF508
C:\Users\CYMR90~1\AppData\Local\Temp\ccmBQqfl.s:30293  .debug_str:00000000000220be .LASF509
C:\Users\CYMR90~1\AppData\Local\Temp\ccmBQqfl.s:31959  .debug_str:0000000000028aaf .LASF510
C:\Users\CYMR90~1\AppData\Local\Temp\ccmBQqfl.s:27789  .debug_str:0000000000018130 .LASF511
C:\Users\CYMR90~1\AppData\Local\Temp\ccmBQqfl.s:31591  .debug_str:00000000000271c9 .LASF512
C:\Users\CYMR90~1\AppData\Local\Temp\ccmBQqfl.s:31707  .debug_str:00000000000279cf .LASF513
C:\Users\CYMR90~1\AppData\Local\Temp\ccmBQqfl.s:32149  .debug_str:0000000000029628 .LASF514
C:\Users\CYMR90~1\AppData\Local\Temp\ccmBQqfl.s:26690  .debug_str:0000000000013a17 .LASF515
C:\Users\CYMR90~1\AppData\Local\Temp\ccmBQqfl.s:32021  .debug_str:0000000000028eaa .LASF516
C:\Users\CYMR90~1\AppData\Local\Temp\ccmBQqfl.s:28161  .debug_str:00000000000198bc .LASF517
C:\Users\CYMR90~1\AppData\Local\Temp\ccmBQqfl.s:31967  .debug_str:0000000000028b63 .LASF518
C:\Users\CYMR90~1\AppData\Local\Temp\ccmBQqfl.s:28819  .debug_str:000000000001c4a7 .LASF519
C:\Users\CYMR90~1\AppData\Local\Temp\ccmBQqfl.s:32919  .debug_str:000000000002c646 .LASF520
C:\Users\CYMR90~1\AppData\Local\Temp\ccmBQqfl.s:29091  .debug_str:000000000001d724 .LASF521
C:\Users\CYMR90~1\AppData\Local\Temp\ccmBQqfl.s:31217  .debug_str:0000000000025a4a .LASF522
C:\Users\CYMR90~1\AppData\Local\Temp\ccmBQqfl.s:26570  .debug_str:0000000000013219 .LASF523
C:\Users\CYMR90~1\AppData\Local\Temp\ccmBQqfl.s:30777  .debug_str:0000000000023d92 .LASF524
C:\Users\CYMR90~1\AppData\Local\Temp\ccmBQqfl.s:24160  .debug_str:00000000000097c1 .LASF525
C:\Users\CYMR90~1\AppData\Local\Temp\ccmBQqfl.s:32943  .debug_str:000000000002c78a .LASF526
C:\Users\CYMR90~1\AppData\Local\Temp\ccmBQqfl.s:25416  .debug_str:000000000000e815 .LASF527
C:\Users\CYMR90~1\AppData\Local\Temp\ccmBQqfl.s:26432  .debug_str:000000000001291a .LASF528
C:\Users\CYMR90~1\AppData\Local\Temp\ccmBQqfl.s:27276  .debug_str:0000000000015e67 .LASF529
C:\Users\CYMR90~1\AppData\Local\Temp\ccmBQqfl.s:27308  .debug_str:00000000000160a5 .LASF530
C:\Users\CYMR90~1\AppData\Local\Temp\ccmBQqfl.s:26358  .debug_str:000000000001247f .LASF531
C:\Users\CYMR90~1\AppData\Local\Temp\ccmBQqfl.s:22574  .debug_str:00000000000031e1 .LASF532
C:\Users\CYMR90~1\AppData\Local\Temp\ccmBQqfl.s:25098  .debug_str:000000000000d4a4 .LASF533
C:\Users\CYMR90~1\AppData\Local\Temp\ccmBQqfl.s:32777  .debug_str:000000000002bc66 .LASF534
C:\Users\CYMR90~1\AppData\Local\Temp\ccmBQqfl.s:25598  .debug_str:000000000000f340 .LASF535
C:\Users\CYMR90~1\AppData\Local\Temp\ccmBQqfl.s:30955  .debug_str:0000000000024895 .LASF536
C:\Users\CYMR90~1\AppData\Local\Temp\ccmBQqfl.s:32427  .debug_str:000000000002a68e .LASF537
C:\Users\CYMR90~1\AppData\Local\Temp\ccmBQqfl.s:26192  .debug_str:00000000000118d9 .LASF538
C:\Users\CYMR90~1\AppData\Local\Temp\ccmBQqfl.s:26760  .debug_str:0000000000013e75 .LASF539
C:\Users\CYMR90~1\AppData\Local\Temp\ccmBQqfl.s:28879  .debug_str:000000000001c863 .LASF540
C:\Users\CYMR90~1\AppData\Local\Temp\ccmBQqfl.s:30503  .debug_str:0000000000022d2f .LASF541
C:\Users\CYMR90~1\AppData\Local\Temp\ccmBQqfl.s:29183  .debug_str:000000000001dd01 .LASF542
C:\Users\CYMR90~1\AppData\Local\Temp\ccmBQqfl.s:22936  .debug_str:00000000000049d2 .LASF543
C:\Users\CYMR90~1\AppData\Local\Temp\ccmBQqfl.s:25348  .debug_str:000000000000e3fa .LASF544
C:\Users\CYMR90~1\AppData\Local\Temp\ccmBQqfl.s:32209  .debug_str:00000000000299d8 .LASF545
C:\Users\CYMR90~1\AppData\Local\Temp\ccmBQqfl.s:26702  .debug_str:0000000000013ad5 .LASF546
C:\Users\CYMR90~1\AppData\Local\Temp\ccmBQqfl.s:30485  .debug_str:0000000000022c0c .LASF547
C:\Users\CYMR90~1\AppData\Local\Temp\ccmBQqfl.s:32691  .debug_str:000000000002b6e6 .LASF548
C:\Users\CYMR90~1\AppData\Local\Temp\ccmBQqfl.s:22624  .debug_str:0000000000003562 .LASF549
C:\Users\CYMR90~1\AppData\Local\Temp\ccmBQqfl.s:23778  .debug_str:0000000000007e47 .LASF550
C:\Users\CYMR90~1\AppData\Local\Temp\ccmBQqfl.s:31479  .debug_str:0000000000026b25 .LASF551
C:\Users\CYMR90~1\AppData\Local\Temp\ccmBQqfl.s:31137  .debug_str:000000000002549e .LASF552
C:\Users\CYMR90~1\AppData\Local\Temp\ccmBQqfl.s:32445  .debug_str:000000000002a78a .LASF553
C:\Users\CYMR90~1\AppData\Local\Temp\ccmBQqfl.s:24764  .debug_str:000000000000beec .LASF554
C:\Users\CYMR90~1\AppData\Local\Temp\ccmBQqfl.s:24950  .debug_str:000000000000cb5e .LASF555
C:\Users\CYMR90~1\AppData\Local\Temp\ccmBQqfl.s:23470  .debug_str:0000000000006ad2 .LASF556
C:\Users\CYMR90~1\AppData\Local\Temp\ccmBQqfl.s:23180  .debug_str:0000000000005958 .LASF557
C:\Users\CYMR90~1\AppData\Local\Temp\ccmBQqfl.s:26302  .debug_str:00000000000120b3 .LASF558
C:\Users\CYMR90~1\AppData\Local\Temp\ccmBQqfl.s:28039  .debug_str:0000000000019091 .LASF559
C:\Users\CYMR90~1\AppData\Local\Temp\ccmBQqfl.s:32011  .debug_str:0000000000028e0b .LASF560
C:\Users\CYMR90~1\AppData\Local\Temp\ccmBQqfl.s:22300  .debug_str:00000000000020b6 .LASF561
C:\Users\CYMR90~1\AppData\Local\Temp\ccmBQqfl.s:25762  .debug_str:000000000000fdb9 .LASF562
C:\Users\CYMR90~1\AppData\Local\Temp\ccmBQqfl.s:28203  .debug_str:0000000000019bd7 .LASF563
C:\Users\CYMR90~1\AppData\Local\Temp\ccmBQqfl.s:24454  .debug_str:000000000000aa38 .LASF564
C:\Users\CYMR90~1\AppData\Local\Temp\ccmBQqfl.s:30233  .debug_str:0000000000021d32 .LASF565
C:\Users\CYMR90~1\AppData\Local\Temp\ccmBQqfl.s:29433  .debug_str:000000000001ec5e .LASF566
C:\Users\CYMR90~1\AppData\Local\Temp\ccmBQqfl.s:26298  .debug_str:000000000001206b .LASF567
C:\Users\CYMR90~1\AppData\Local\Temp\ccmBQqfl.s:31315  .debug_str:0000000000026123 .LASF568
C:\Users\CYMR90~1\AppData\Local\Temp\ccmBQqfl.s:21986  .debug_str:0000000000000c89 .LASF570
C:\Users\CYMR90~1\AppData\Local\Temp\ccmBQqfl.s:26674  .debug_str:000000000001393a .LASF571
C:\Users\CYMR90~1\AppData\Local\Temp\ccmBQqfl.s:28815  .debug_str:000000000001c481 .LASF574
C:\Users\CYMR90~1\AppData\Local\Temp\ccmBQqfl.s:22904  .debug_str:00000000000047b7 .LASF575
C:\Users\CYMR90~1\AppData\Local\Temp\ccmBQqfl.s:26914  .debug_str:00000000000147ae .LASF576
C:\Users\CYMR90~1\AppData\Local\Temp\ccmBQqfl.s:23872  .debug_str:00000000000085a7 .LASF577
C:\Users\CYMR90~1\AppData\Local\Temp\ccmBQqfl.s:30133  .debug_str:00000000000216a8 .LASF579
C:\Users\CYMR90~1\AppData\Local\Temp\ccmBQqfl.s:29309  .debug_str:000000000001e52d .LASF580
C:\Users\CYMR90~1\AppData\Local\Temp\ccmBQqfl.s:30859  .debug_str:0000000000024266 .LASF581
C:\Users\CYMR90~1\AppData\Local\Temp\ccmBQqfl.s:23308  .debug_str:000000000000610f .LASF582
C:\Users\CYMR90~1\AppData\Local\Temp\ccmBQqfl.s:25910  .debug_str:0000000000010766 .LASF583
C:\Users\CYMR90~1\AppData\Local\Temp\ccmBQqfl.s:22468  .debug_str:0000000000002b56 .LASF584
C:\Users\CYMR90~1\AppData\Local\Temp\ccmBQqfl.s:32305  .debug_str:0000000000029fce .LASF585
C:\Users\CYMR90~1\AppData\Local\Temp\ccmBQqfl.s:30535  .debug_str:0000000000022f33 .LASF586
C:\Users\CYMR90~1\AppData\Local\Temp\ccmBQqfl.s:27452  .debug_str:0000000000016a3d .LASF587
C:\Users\CYMR90~1\AppData\Local\Temp\ccmBQqfl.s:23534  .debug_str:0000000000006ede .LASF588
C:\Users\CYMR90~1\AppData\Local\Temp\ccmBQqfl.s:27951  .debug_str:0000000000018af2 .LASF589
C:\Users\CYMR90~1\AppData\Local\Temp\ccmBQqfl.s:28325  .debug_str:000000000001a35f .LASF590
C:\Users\CYMR90~1\AppData\Local\Temp\ccmBQqfl.s:29175  .debug_str:000000000001dc95 .LASF591
C:\Users\CYMR90~1\AppData\Local\Temp\ccmBQqfl.s:28959  .debug_str:000000000001cdc9 .LASF592
C:\Users\CYMR90~1\AppData\Local\Temp\ccmBQqfl.s:30847  .debug_str:00000000000241c3 .LASF593
C:\Users\CYMR90~1\AppData\Local\Temp\ccmBQqfl.s:25874  .debug_str:0000000000010549 .LASF594
C:\Users\CYMR90~1\AppData\Local\Temp\ccmBQqfl.s:26754  .debug_str:0000000000013e2e .LASF595
C:\Users\CYMR90~1\AppData\Local\Temp\ccmBQqfl.s:32025  .debug_str:0000000000028ef6 .LASF596
C:\Users\CYMR90~1\AppData\Local\Temp\ccmBQqfl.s:23634  .debug_str:000000000000759e .LASF597
C:\Users\CYMR90~1\AppData\Local\Temp\ccmBQqfl.s:31829  .debug_str:0000000000028191 .LASF598
C:\Users\CYMR90~1\AppData\Local\Temp\ccmBQqfl.s:26648  .debug_str:0000000000013786 .LASF599
C:\Users\CYMR90~1\AppData\Local\Temp\ccmBQqfl.s:29649  .debug_str:000000000001f998 .LASF600
C:\Users\CYMR90~1\AppData\Local\Temp\ccmBQqfl.s:28887  .debug_str:000000000001c8cf .LASF601
C:\Users\CYMR90~1\AppData\Local\Temp\ccmBQqfl.s:31323  .debug_str:00000000000261c1 .LASF602
C:\Users\CYMR90~1\AppData\Local\Temp\ccmBQqfl.s:32029  .debug_str:0000000000028f36 .LASF603
C:\Users\CYMR90~1\AppData\Local\Temp\ccmBQqfl.s:31915  .debug_str:00000000000287e6 .LASF604
C:\Users\CYMR90~1\AppData\Local\Temp\ccmBQqfl.s:26594  .debug_str:00000000000133b2 .LASF605
C:\Users\CYMR90~1\AppData\Local\Temp\ccmBQqfl.s:30667  .debug_str:00000000000236c9 .LASF606
C:\Users\CYMR90~1\AppData\Local\Temp\ccmBQqfl.s:24230  .debug_str:0000000000009cab .LASF607
C:\Users\CYMR90~1\AppData\Local\Temp\ccmBQqfl.s:23734  .debug_str:0000000000007baf .LASF608
C:\Users\CYMR90~1\AppData\Local\Temp\ccmBQqfl.s:24522  .debug_str:000000000000ae75 .LASF609
C:\Users\CYMR90~1\AppData\Local\Temp\ccmBQqfl.s:28739  .debug_str:000000000001bf55 .LASF610
C:\Users\CYMR90~1\AppData\Local\Temp\ccmBQqfl.s:23274  .debug_str:0000000000005f30 .LASF611
C:\Users\CYMR90~1\AppData\Local\Temp\ccmBQqfl.s:30455  .debug_str:0000000000022a58 .LASF612
C:\Users\CYMR90~1\AppData\Local\Temp\ccmBQqfl.s:27140  .debug_str:000000000001566e .LASF613
C:\Users\CYMR90~1\AppData\Local\Temp\ccmBQqfl.s:23798  .debug_str:0000000000008041 .LASF614
C:\Users\CYMR90~1\AppData\Local\Temp\ccmBQqfl.s:21886  .debug_str:00000000000005d1 .LASF615
C:\Users\CYMR90~1\AppData\Local\Temp\ccmBQqfl.s:27378  .debug_str:0000000000016543 .LASF616
C:\Users\CYMR90~1\AppData\Local\Temp\ccmBQqfl.s:28361  .debug_str:000000000001a591 .LASF617
C:\Users\CYMR90~1\AppData\Local\Temp\ccmBQqfl.s:27516  .debug_str:0000000000016edc .LASF618
C:\Users\CYMR90~1\AppData\Local\Temp\ccmBQqfl.s:30541  .debug_str:0000000000022f72 .LASF619
C:\Users\CYMR90~1\AppData\Local\Temp\ccmBQqfl.s:24778  .debug_str:000000000000c059 .LASF620
C:\Users\CYMR90~1\AppData\Local\Temp\ccmBQqfl.s:23548  .debug_str:0000000000006fe3 .LASF621
C:\Users\CYMR90~1\AppData\Local\Temp\ccmBQqfl.s:26114  .debug_str:0000000000011433 .LASF622
C:\Users\CYMR90~1\AppData\Local\Temp\ccmBQqfl.s:29829  .debug_str:00000000000204ba .LASF623
C:\Users\CYMR90~1\AppData\Local\Temp\ccmBQqfl.s:31787  .debug_str:0000000000027e60 .LASF624
C:\Users\CYMR90~1\AppData\Local\Temp\ccmBQqfl.s:32401  .debug_str:000000000002a52b .LASF625
C:\Users\CYMR90~1\AppData\Local\Temp\ccmBQqfl.s:26822  .debug_str:00000000000141fa .LASF626
C:\Users\CYMR90~1\AppData\Local\Temp\ccmBQqfl.s:32659  .debug_str:000000000002b485 .LASF627
C:\Users\CYMR90~1\AppData\Local\Temp\ccmBQqfl.s:27232  .debug_str:0000000000015ba2 .LASF628
C:\Users\CYMR90~1\AppData\Local\Temp\ccmBQqfl.s:32137  .debug_str:0000000000029566 .LASF629
C:\Users\CYMR90~1\AppData\Local\Temp\ccmBQqfl.s:25864  .debug_str:0000000000010495 .LASF630
C:\Users\CYMR90~1\AppData\Local\Temp\ccmBQqfl.s:28949  .debug_str:000000000001cd0d .LASF631
C:\Users\CYMR90~1\AppData\Local\Temp\ccmBQqfl.s:30445  .debug_str:00000000000229b8 .LASF632
C:\Users\CYMR90~1\AppData\Local\Temp\ccmBQqfl.s:24894  .debug_str:000000000000c76e .LASF633
C:\Users\CYMR90~1\AppData\Local\Temp\ccmBQqfl.s:21976  .debug_str:0000000000000bd6 .LASF634
C:\Users\CYMR90~1\AppData\Local\Temp\ccmBQqfl.s:28267  .debug_str:0000000000019ff3 .LASF635
C:\Users\CYMR90~1\AppData\Local\Temp\ccmBQqfl.s:27434  .debug_str:0000000000016921 .LASF636
C:\Users\CYMR90~1\AppData\Local\Temp\ccmBQqfl.s:29057  .debug_str:000000000001d53a .LASF637
C:\Users\CYMR90~1\AppData\Local\Temp\ccmBQqfl.s:22690  .debug_str:000000000000397d .LASF638
C:\Users\CYMR90~1\AppData\Local\Temp\ccmBQqfl.s:26250  .debug_str:0000000000011d99 .LASF639
C:\Users\CYMR90~1\AppData\Local\Temp\ccmBQqfl.s:23810  .debug_str:00000000000080f0 .LASF640
C:\Users\CYMR90~1\AppData\Local\Temp\ccmBQqfl.s:26470  .debug_str:0000000000012ba0 .LASF641
C:\Users\CYMR90~1\AppData\Local\Temp\ccmBQqfl.s:24682  .debug_str:000000000000b980 .LASF642
C:\Users\CYMR90~1\AppData\Local\Temp\ccmBQqfl.s:31771  .debug_str:0000000000027d50 .LASF643
C:\Users\CYMR90~1\AppData\Local\Temp\ccmBQqfl.s:29669  .debug_str:000000000001faee .LASF644
C:\Users\CYMR90~1\AppData\Local\Temp\ccmBQqfl.s:22878  .debug_str:00000000000045d2 .LASF645
C:\Users\CYMR90~1\AppData\Local\Temp\ccmBQqfl.s:23692  .debug_str:00000000000078e6 .LASF646
C:\Users\CYMR90~1\AppData\Local\Temp\ccmBQqfl.s:22612  .debug_str:0000000000003492 .LASF647
C:\Users\CYMR90~1\AppData\Local\Temp\ccmBQqfl.s:22990  .debug_str:0000000000004dac .LASF648
C:\Users\CYMR90~1\AppData\Local\Temp\ccmBQqfl.s:32303  .debug_str:0000000000029f8f .LASF649
C:\Users\CYMR90~1\AppData\Local\Temp\ccmBQqfl.s:26172  .debug_str:000000000001176b .LASF650
C:\Users\CYMR90~1\AppData\Local\Temp\ccmBQqfl.s:32417  .debug_str:000000000002a605 .LASF651
C:\Users\CYMR90~1\AppData\Local\Temp\ccmBQqfl.s:25774  .debug_str:000000000000feab .LASF652
C:\Users\CYMR90~1\AppData\Local\Temp\ccmBQqfl.s:21866  .debug_str:00000000000004d4 .LASF653
C:\Users\CYMR90~1\AppData\Local\Temp\ccmBQqfl.s:32643  .debug_str:000000000002b3ad .LASF654
C:\Users\CYMR90~1\AppData\Local\Temp\ccmBQqfl.s:24046  .debug_str:0000000000009143 .LASF655
C:\Users\CYMR90~1\AppData\Local\Temp\ccmBQqfl.s:31843  .debug_str:0000000000028269 .LASF656
C:\Users\CYMR90~1\AppData\Local\Temp\ccmBQqfl.s:21918  .debug_str:0000000000000800 .LASF657
C:\Users\CYMR90~1\AppData\Local\Temp\ccmBQqfl.s:32469  .debug_str:000000000002a92e .LASF658
C:\Users\CYMR90~1\AppData\Local\Temp\ccmBQqfl.s:26564  .debug_str:00000000000131cb .LASF659
C:\Users\CYMR90~1\AppData\Local\Temp\ccmBQqfl.s:28991  .debug_str:000000000001cf9e .LASF660
C:\Users\CYMR90~1\AppData\Local\Temp\ccmBQqfl.s:25450  .debug_str:000000000000ea48 .LASF661
C:\Users\CYMR90~1\AppData\Local\Temp\ccmBQqfl.s:29675  .debug_str:000000000001fb70 .LASF662
C:\Users\CYMR90~1\AppData\Local\Temp\ccmBQqfl.s:31631  .debug_str:000000000002746f .LASF663
C:\Users\CYMR90~1\AppData\Local\Temp\ccmBQqfl.s:26148  .debug_str:000000000001161f .LASF664
C:\Users\CYMR90~1\AppData\Local\Temp\ccmBQqfl.s:26138  .debug_str:000000000001159e .LASF665
C:\Users\CYMR90~1\AppData\Local\Temp\ccmBQqfl.s:28049  .debug_str:0000000000019165 .LASF666
C:\Users\CYMR90~1\AppData\Local\Temp\ccmBQqfl.s:23286  .debug_str:0000000000005fc8 .LASF667
C:\Users\CYMR90~1\AppData\Local\Temp\ccmBQqfl.s:33147  .debug_str:000000000002d50f .LASF668
C:\Users\CYMR90~1\AppData\Local\Temp\ccmBQqfl.s:23660  .debug_str:0000000000007703 .LASF669
C:\Users\CYMR90~1\AppData\Local\Temp\ccmBQqfl.s:30327  .debug_str:0000000000022308 .LASF670
C:\Users\CYMR90~1\AppData\Local\Temp\ccmBQqfl.s:26548  .debug_str:00000000000130bc .LASF671
C:\Users\CYMR90~1\AppData\Local\Temp\ccmBQqfl.s:29729  .debug_str:000000000001fe80 .LASF672
C:\Users\CYMR90~1\AppData\Local\Temp\ccmBQqfl.s:30459  .debug_str:0000000000022a89 .LASF673
C:\Users\CYMR90~1\AppData\Local\Temp\ccmBQqfl.s:22258  .debug_str:0000000000001e4e .LASF674
C:\Users\CYMR90~1\AppData\Local\Temp\ccmBQqfl.s:27218  .debug_str:0000000000015ac3 .LASF676
C:\Users\CYMR90~1\AppData\Local\Temp\ccmBQqfl.s:30877  .debug_str:000000000002437e .LASF677
C:\Users\CYMR90~1\AppData\Local\Temp\ccmBQqfl.s:28279  .debug_str:000000000001a0b2 .LASF678
C:\Users\CYMR90~1\AppData\Local\Temp\ccmBQqfl.s:30975  .debug_str:0000000000024a00 .LASF679
C:\Users\CYMR90~1\AppData\Local\Temp\ccmBQqfl.s:29429  .debug_str:000000000001ec32 .LASF680
C:\Users\CYMR90~1\AppData\Local\Temp\ccmBQqfl.s:32317  .debug_str:000000000002a06c .LASF681
C:\Users\CYMR90~1\AppData\Local\Temp\ccmBQqfl.s:22880  .debug_str:0000000000004610 .LASF682
C:\Users\CYMR90~1\AppData\Local\Temp\ccmBQqfl.s:22796  .debug_str:0000000000004046 .LASF683
C:\Users\CYMR90~1\AppData\Local\Temp\ccmBQqfl.s:24186  .debug_str:0000000000009991 .LASF684
C:\Users\CYMR90~1\AppData\Local\Temp\ccmBQqfl.s:28743  .debug_str:000000000001bf82 .LASF685
C:\Users\CYMR90~1\AppData\Local\Temp\ccmBQqfl.s:30189  .debug_str:0000000000021a79 .LASF686
C:\Users\CYMR90~1\AppData\Local\Temp\ccmBQqfl.s:27496  .debug_str:0000000000016d19 .LASF687
C:\Users\CYMR90~1\AppData\Local\Temp\ccmBQqfl.s:26074  .debug_str:000000000001120b .LASF688
C:\Users\CYMR90~1\AppData\Local\Temp\ccmBQqfl.s:22672  .debug_str:0000000000003854 .LASF689
C:\Users\CYMR90~1\AppData\Local\Temp\ccmBQqfl.s:23556  .debug_str:0000000000007086 .LASF690
C:\Users\CYMR90~1\AppData\Local\Temp\ccmBQqfl.s:26416  .debug_str:0000000000012813 .LASF691
C:\Users\CYMR90~1\AppData\Local\Temp\ccmBQqfl.s:27256  .debug_str:0000000000015d0c .LASF692
C:\Users\CYMR90~1\AppData\Local\Temp\ccmBQqfl.s:23252  .debug_str:0000000000005dff .LASF695
C:\Users\CYMR90~1\AppData\Local\Temp\ccmBQqfl.s:27665  .debug_str:000000000001796c .LASF696
C:\Users\CYMR90~1\AppData\Local\Temp\ccmBQqfl.s:25082  .debug_str:000000000000d3a2 .LASF697
C:\Users\CYMR90~1\AppData\Local\Temp\ccmBQqfl.s:28711  .debug_str:000000000001bdc6 .LASF698
C:\Users\CYMR90~1\AppData\Local\Temp\ccmBQqfl.s:30915  .debug_str:0000000000024554 .LASF699
C:\Users\CYMR90~1\AppData\Local\Temp\ccmBQqfl.s:26996  .debug_str:0000000000014ce6 .LASF702
C:\Users\CYMR90~1\AppData\Local\Temp\ccmBQqfl.s:24208  .debug_str:0000000000009ad8 .LASF703
C:\Users\CYMR90~1\AppData\Local\Temp\ccmBQqfl.s:29619  .debug_str:000000000001f7db .LASF704
C:\Users\CYMR90~1\AppData\Local\Temp\ccmBQqfl.s:23064  .debug_str:0000000000005241 .LASF705
C:\Users\CYMR90~1\AppData\Local\Temp\ccmBQqfl.s:27320  .debug_str:0000000000016186 .LASF706
C:\Users\CYMR90~1\AppData\Local\Temp\ccmBQqfl.s:25648  .debug_str:000000000000f67d .LASF707
C:\Users\CYMR90~1\AppData\Local\Temp\ccmBQqfl.s:32045  .debug_str:000000000002902e .LASF708
C:\Users\CYMR90~1\AppData\Local\Temp\ccmBQqfl.s:31291  .debug_str:0000000000025fb9 .LASF709
C:\Users\CYMR90~1\AppData\Local\Temp\ccmBQqfl.s:25292  .debug_str:000000000000e0e2 .LASF710
C:\Users\CYMR90~1\AppData\Local\Temp\ccmBQqfl.s:25812  .debug_str:000000000001011f .LASF711
C:\Users\CYMR90~1\AppData\Local\Temp\ccmBQqfl.s:27470  .debug_str:0000000000016b27 .LASF712
C:\Users\CYMR90~1\AppData\Local\Temp\ccmBQqfl.s:24450  .debug_str:000000000000a9de .LASF713
C:\Users\CYMR90~1\AppData\Local\Temp\ccmBQqfl.s:32861  .debug_str:000000000002c201 .LASF714
C:\Users\CYMR90~1\AppData\Local\Temp\ccmBQqfl.s:23794  .debug_str:0000000000007fdc .LASF715
C:\Users\CYMR90~1\AppData\Local\Temp\ccmBQqfl.s:24724  .debug_str:000000000000bc53 .LASF716
C:\Users\CYMR90~1\AppData\Local\Temp\ccmBQqfl.s:29847  .debug_str:00000000000205d3 .LASF717
C:\Users\CYMR90~1\AppData\Local\Temp\ccmBQqfl.s:31243  .debug_str:0000000000025c47 .LASF718
C:\Users\CYMR90~1\AppData\Local\Temp\ccmBQqfl.s:31021  .debug_str:0000000000024cd4 .LASF719
C:\Users\CYMR90~1\AppData\Local\Temp\ccmBQqfl.s:27983  .debug_str:0000000000018d25 .LASF720
C:\Users\CYMR90~1\AppData\Local\Temp\ccmBQqfl.s:22312  .debug_str:0000000000002185 .LASF721
C:\Users\CYMR90~1\AppData\Local\Temp\ccmBQqfl.s:29957  .debug_str:0000000000020c53 .LASF722
C:\Users\CYMR90~1\AppData\Local\Temp\ccmBQqfl.s:28903  .debug_str:000000000001c99f .LASF723
C:\Users\CYMR90~1\AppData\Local\Temp\ccmBQqfl.s:29485  .debug_str:000000000001efe1 .LASF724
C:\Users\CYMR90~1\AppData\Local\Temp\ccmBQqfl.s:30437  .debug_str:0000000000022966 .LASF725
C:\Users\CYMR90~1\AppData\Local\Temp\ccmBQqfl.s:26664  .debug_str:0000000000013892 .LASF726
C:\Users\CYMR90~1\AppData\Local\Temp\ccmBQqfl.s:24444  .debug_str:000000000000a984 .LASF727
C:\Users\CYMR90~1\AppData\Local\Temp\ccmBQqfl.s:31383  .debug_str:00000000000265a2 .LASF728
C:\Users\CYMR90~1\AppData\Local\Temp\ccmBQqfl.s:22222  .debug_str:0000000000001c1e .LASF729
C:\Users\CYMR90~1\AppData\Local\Temp\ccmBQqfl.s:28171  .debug_str:0000000000019945 .LASF730
C:\Users\CYMR90~1\AppData\Local\Temp\ccmBQqfl.s:26636  .debug_str:00000000000136e7 .LASF731
C:\Users\CYMR90~1\AppData\Local\Temp\ccmBQqfl.s:31325  .debug_str:00000000000261fc .LASF732
C:\Users\CYMR90~1\AppData\Local\Temp\ccmBQqfl.s:33071  .debug_str:000000000002d01d .LASF733
C:\Users\CYMR90~1\AppData\Local\Temp\ccmBQqfl.s:26122  .debug_str:00000000000114a8 .LASF734
C:\Users\CYMR90~1\AppData\Local\Temp\ccmBQqfl.s:26050  .debug_str:00000000000110c8 .LASF735
C:\Users\CYMR90~1\AppData\Local\Temp\ccmBQqfl.s:32999  .debug_str:000000000002cb29 .LASF736
C:\Users\CYMR90~1\AppData\Local\Temp\ccmBQqfl.s:25022  .debug_str:000000000000cfc6 .LASF737
C:\Users\CYMR90~1\AppData\Local\Temp\ccmBQqfl.s:29055  .debug_str:000000000001d529 .LASF738
C:\Users\CYMR90~1\AppData\Local\Temp\ccmBQqfl.s:32745  .debug_str:000000000002ba59 .LASF739
C:\Users\CYMR90~1\AppData\Local\Temp\ccmBQqfl.s:22224  .debug_str:0000000000001c31 .LASF740
C:\Users\CYMR90~1\AppData\Local\Temp\ccmBQqfl.s:24956  .debug_str:000000000000cbce .LASF741
C:\Users\CYMR90~1\AppData\Local\Temp\ccmBQqfl.s:22198  .debug_str:0000000000001ac7 .LASF742
C:\Users\CYMR90~1\AppData\Local\Temp\ccmBQqfl.s:26082  .debug_str:0000000000011262 .LASF743
C:\Users\CYMR90~1\AppData\Local\Temp\ccmBQqfl.s:22654  .debug_str:0000000000003766 .LASF744
C:\Users\CYMR90~1\AppData\Local\Temp\ccmBQqfl.s:24054  .debug_str:00000000000091ce .LASF745
C:\Users\CYMR90~1\AppData\Local\Temp\ccmBQqfl.s:30449  .debug_str:0000000000022a07 .LASF746
C:\Users\CYMR90~1\AppData\Local\Temp\ccmBQqfl.s:22092  .debug_str:000000000000130b .LASF747
C:\Users\CYMR90~1\AppData\Local\Temp\ccmBQqfl.s:22082  .debug_str:0000000000001289 .LASF748
C:\Users\CYMR90~1\AppData\Local\Temp\ccmBQqfl.s:23232  .debug_str:0000000000005c86 .LASF750
C:\Users\CYMR90~1\AppData\Local\Temp\ccmBQqfl.s:26000  .debug_str:0000000000010d18 .LASF751
C:\Users\CYMR90~1\AppData\Local\Temp\ccmBQqfl.s:32205  .debug_str:0000000000029996 .LASF752
C:\Users\CYMR90~1\AppData\Local\Temp\ccmBQqfl.s:25934  .debug_str:00000000000108d4 .LASF753
C:\Users\CYMR90~1\AppData\Local\Temp\ccmBQqfl.s:23108  .debug_str:00000000000054fc .LASF754
C:\Users\CYMR90~1\AppData\Local\Temp\ccmBQqfl.s:24706  .debug_str:000000000000bb48 .LASF755
C:\Users\CYMR90~1\AppData\Local\Temp\ccmBQqfl.s:28243  .debug_str:0000000000019ea4 .LASF756
C:\Users\CYMR90~1\AppData\Local\Temp\ccmBQqfl.s:24196  .debug_str:0000000000009a24 .LASF757
C:\Users\CYMR90~1\AppData\Local\Temp\ccmBQqfl.s:31273  .debug_str:0000000000025eb6 .LASF758
C:\Users\CYMR90~1\AppData\Local\Temp\ccmBQqfl.s:33107  .debug_str:000000000002d2a7 .LASF759
C:\Users\CYMR90~1\AppData\Local\Temp\ccmBQqfl.s:28627  .debug_str:000000000001b8c7 .LASF760
C:\Users\CYMR90~1\AppData\Local\Temp\ccmBQqfl.s:32843  .debug_str:000000000002c0d8 .LASF761
C:\Users\CYMR90~1\AppData\Local\Temp\ccmBQqfl.s:24628  .debug_str:000000000000b584 .LASF762
C:\Users\CYMR90~1\AppData\Local\Temp\ccmBQqfl.s:28637  .debug_str:000000000001b98a .LASF765
C:\Users\CYMR90~1\AppData\Local\Temp\ccmBQqfl.s:27290  .debug_str:0000000000015f59 .LASF766
C:\Users\CYMR90~1\AppData\Local\Temp\ccmBQqfl.s:30337  .debug_str:0000000000022386 .LASF767
C:\Users\CYMR90~1\AppData\Local\Temp\ccmBQqfl.s:27282  .debug_str:0000000000015f00 .LASF768
C:\Users\CYMR90~1\AppData\Local\Temp\ccmBQqfl.s:22458  .debug_str:0000000000002ab1 .LASF769
C:\Users\CYMR90~1\AppData\Local\Temp\ccmBQqfl.s:28757  .debug_str:000000000001c0a6 .LASF770
C:\Users\CYMR90~1\AppData\Local\Temp\ccmBQqfl.s:27374  .debug_str:000000000001651d .LASF771
C:\Users\CYMR90~1\AppData\Local\Temp\ccmBQqfl.s:30987  .debug_str:0000000000024a96 .LASF772
C:\Users\CYMR90~1\AppData\Local\Temp\ccmBQqfl.s:30629  .debug_str:00000000000234de .LASF773
C:\Users\CYMR90~1\AppData\Local\Temp\ccmBQqfl.s:29077  .debug_str:000000000001d65a .LASF774
C:\Users\CYMR90~1\AppData\Local\Temp\ccmBQqfl.s:31327  .debug_str:0000000000026212 .LASF775
C:\Users\CYMR90~1\AppData\Local\Temp\ccmBQqfl.s:24342  .debug_str:000000000000a365 .LASF776
C:\Users\CYMR90~1\AppData\Local\Temp\ccmBQqfl.s:24358  .debug_str:000000000000a469 .LASF777
C:\Users\CYMR90~1\AppData\Local\Temp\ccmBQqfl.s:29419  .debug_str:000000000001eb94 .LASF778
C:\Users\CYMR90~1\AppData\Local\Temp\ccmBQqfl.s:25876  .debug_str:0000000000010571 .LASF779
C:\Users\CYMR90~1\AppData\Local\Temp\ccmBQqfl.s:29685  .debug_str:000000000001fc1f .LASF780
C:\Users\CYMR90~1\AppData\Local\Temp\ccmBQqfl.s:30333  .debug_str:000000000002236d .LASF781
C:\Users\CYMR90~1\AppData\Local\Temp\ccmBQqfl.s:26368  .debug_str:0000000000012526 .LASF782
C:\Users\CYMR90~1\AppData\Local\Temp\ccmBQqfl.s:27502  .debug_str:0000000000016e1b .LASF783
C:\Users\CYMR90~1\AppData\Local\Temp\ccmBQqfl.s:26266  .debug_str:0000000000011e97 .LASF784
C:\Users\CYMR90~1\AppData\Local\Temp\ccmBQqfl.s:25550  .debug_str:000000000000f098 .LASF785
C:\Users\CYMR90~1\AppData\Local\Temp\ccmBQqfl.s:30695  .debug_str:0000000000023853 .LASF786
C:\Users\CYMR90~1\AppData\Local\Temp\ccmBQqfl.s:27010  .debug_str:0000000000014e0b .LASF787
C:\Users\CYMR90~1\AppData\Local\Temp\ccmBQqfl.s:29355  .debug_str:000000000001e7e1 .LASF788
C:\Users\CYMR90~1\AppData\Local\Temp\ccmBQqfl.s:25732  .debug_str:000000000000fc0c .LASF789
C:\Users\CYMR90~1\AppData\Local\Temp\ccmBQqfl.s:23164  .debug_str:0000000000005881 .LASF790
C:\Users\CYMR90~1\AppData\Local\Temp\ccmBQqfl.s:31677  .debug_str:00000000000277e4 .LASF791
C:\Users\CYMR90~1\AppData\Local\Temp\ccmBQqfl.s:23918  .debug_str:000000000000882f .LASF792
C:\Users\CYMR90~1\AppData\Local\Temp\ccmBQqfl.s:33077  .debug_str:000000000002d06d .LASF793
C:\Users\CYMR90~1\AppData\Local\Temp\ccmBQqfl.s:23706  .debug_str:0000000000007a04 .LASF794
C:\Users\CYMR90~1\AppData\Local\Temp\ccmBQqfl.s:31921  .debug_str:0000000000028845 .LASF795
C:\Users\CYMR90~1\AppData\Local\Temp\ccmBQqfl.s:29931  .debug_str:0000000000020a5f .LASF796
C:\Users\CYMR90~1\AppData\Local\Temp\ccmBQqfl.s:32635  .debug_str:000000000002b35c .LASF797
C:\Users\CYMR90~1\AppData\Local\Temp\ccmBQqfl.s:23538  .debug_str:0000000000006f28 .LASF798
C:\Users\CYMR90~1\AppData\Local\Temp\ccmBQqfl.s:31983  .debug_str:0000000000028c74 .LASF799
C:\Users\CYMR90~1\AppData\Local\Temp\ccmBQqfl.s:23124  .debug_str:00000000000055f3 .LASF800
C:\Users\CYMR90~1\AppData\Local\Temp\ccmBQqfl.s:28381  .debug_str:000000000001a854 .LASF801
C:\Users\CYMR90~1\AppData\Local\Temp\ccmBQqfl.s:28411  .debug_str:000000000001aa0f .LASF802
C:\Users\CYMR90~1\AppData\Local\Temp\ccmBQqfl.s:24262  .debug_str:0000000000009ea1 .LASF803
C:\Users\CYMR90~1\AppData\Local\Temp\ccmBQqfl.s:26762  .debug_str:0000000000013e95 .LASF804
C:\Users\CYMR90~1\AppData\Local\Temp\ccmBQqfl.s:23552  .debug_str:0000000000007007 .LASF805
C:\Users\CYMR90~1\AppData\Local\Temp\ccmBQqfl.s:26222  .debug_str:0000000000011b35 .LASF806
C:\Users\CYMR90~1\AppData\Local\Temp\ccmBQqfl.s:29375  .debug_str:000000000001e8d4 .LASF807
C:\Users\CYMR90~1\AppData\Local\Temp\ccmBQqfl.s:28955  .debug_str:000000000001cd79 .LASF808
C:\Users\CYMR90~1\AppData\Local\Temp\ccmBQqfl.s:26750  .debug_str:0000000000013dd5 .LASF809
C:\Users\CYMR90~1\AppData\Local\Temp\ccmBQqfl.s:27841  .debug_str:000000000001844f .LASF810
C:\Users\CYMR90~1\AppData\Local\Temp\ccmBQqfl.s:24394  .debug_str:000000000000a6c7 .LASF811
C:\Users\CYMR90~1\AppData\Local\Temp\ccmBQqfl.s:22858  .debug_str:00000000000044c0 .LASF812
C:\Users\CYMR90~1\AppData\Local\Temp\ccmBQqfl.s:32881  .debug_str:000000000002c3c4 .LASF813
C:\Users\CYMR90~1\AppData\Local\Temp\ccmBQqfl.s:23228  .debug_str:0000000000005c5f .LASF814
C:\Users\CYMR90~1\AppData\Local\Temp\ccmBQqfl.s:23452  .debug_str:0000000000006997 .LASF815
C:\Users\CYMR90~1\AppData\Local\Temp\ccmBQqfl.s:28727  .debug_str:000000000001beaf .LASF816
C:\Users\CYMR90~1\AppData\Local\Temp\ccmBQqfl.s:24122  .debug_str:000000000000958f .LASF817
C:\Users\CYMR90~1\AppData\Local\Temp\ccmBQqfl.s:28871  .debug_str:000000000001c7f3 .LASF818
C:\Users\CYMR90~1\AppData\Local\Temp\ccmBQqfl.s:22454  .debug_str:0000000000002a60 .LASF819
C:\Users\CYMR90~1\AppData\Local\Temp\ccmBQqfl.s:21960  .debug_str:0000000000000ab2 .LASF820
C:\Users\CYMR90~1\AppData\Local\Temp\ccmBQqfl.s:32471  .debug_str:000000000002a93e .LASF821
C:\Users\CYMR90~1\AppData\Local\Temp\ccmBQqfl.s:30981  .debug_str:0000000000024a4d .LASF822
C:\Users\CYMR90~1\AppData\Local\Temp\ccmBQqfl.s:24088  .debug_str:000000000000937b .LASF823
C:\Users\CYMR90~1\AppData\Local\Temp\ccmBQqfl.s:27422  .debug_str:000000000001687e .LASF824
C:\Users\CYMR90~1\AppData\Local\Temp\ccmBQqfl.s:29059  .debug_str:000000000001d564 .LASF825
C:\Users\CYMR90~1\AppData\Local\Temp\ccmBQqfl.s:27216  .debug_str:0000000000015aa2 .LASF826
C:\Users\CYMR90~1\AppData\Local\Temp\ccmBQqfl.s:22742  .debug_str:0000000000003ce6 .LASF827
C:\Users\CYMR90~1\AppData\Local\Temp\ccmBQqfl.s:25530  .debug_str:000000000000ef79 .LASF828
C:\Users\CYMR90~1\AppData\Local\Temp\ccmBQqfl.s:31087  .debug_str:000000000002519d .LASF829
C:\Users\CYMR90~1\AppData\Local\Temp\ccmBQqfl.s:31263  .debug_str:0000000000025df6 .LASF830
C:\Users\CYMR90~1\AppData\Local\Temp\ccmBQqfl.s:24712  .debug_str:000000000000bba7 .LASF831
C:\Users\CYMR90~1\AppData\Local\Temp\ccmBQqfl.s:25476  .debug_str:000000000000ec0a .LASF832
C:\Users\CYMR90~1\AppData\Local\Temp\ccmBQqfl.s:23316  .debug_str:000000000000617b .LASF833
C:\Users\CYMR90~1\AppData\Local\Temp\ccmBQqfl.s:28319  .debug_str:000000000001a311 .LASF834
C:\Users\CYMR90~1\AppData\Local\Temp\ccmBQqfl.s:27905  .debug_str:0000000000018859 .LASF835
C:\Users\CYMR90~1\AppData\Local\Temp\ccmBQqfl.s:26032  .debug_str:0000000000010f55 .LASF836
C:\Users\CYMR90~1\AppData\Local\Temp\ccmBQqfl.s:29839  .debug_str:0000000000020563 .LASF837
C:\Users\CYMR90~1\AppData\Local\Temp\ccmBQqfl.s:23990  .debug_str:0000000000008d64 .LASF838
C:\Users\CYMR90~1\AppData\Local\Temp\ccmBQqfl.s:23150  .debug_str:00000000000057c0 .LASF839
C:\Users\CYMR90~1\AppData\Local\Temp\ccmBQqfl.s:25922  .debug_str:000000000001080b .LASF840
C:\Users\CYMR90~1\AppData\Local\Temp\ccmBQqfl.s:24840  .debug_str:000000000000c436 .LASF841
C:\Users\CYMR90~1\AppData\Local\Temp\ccmBQqfl.s:28971  .debug_str:000000000001ce6d .LASF842
C:\Users\CYMR90~1\AppData\Local\Temp\ccmBQqfl.s:22032  .debug_str:0000000000000fc7 .LASF843
C:\Users\CYMR90~1\AppData\Local\Temp\ccmBQqfl.s:22396  .debug_str:0000000000002669 .LASF844
C:\Users\CYMR90~1\AppData\Local\Temp\ccmBQqfl.s:30839  .debug_str:0000000000024155 .LASF845
C:\Users\CYMR90~1\AppData\Local\Temp\ccmBQqfl.s:21794  .debug_str:0000000000000096 .LASF846
C:\Users\CYMR90~1\AppData\Local\Temp\ccmBQqfl.s:23784  .debug_str:0000000000007f4f .LASF847
C:\Users\CYMR90~1\AppData\Local\Temp\ccmBQqfl.s:29693  .debug_str:000000000001fc83 .LASF848
C:\Users\CYMR90~1\AppData\Local\Temp\ccmBQqfl.s:32501  .debug_str:000000000002ab4b .LASF849
C:\Users\CYMR90~1\AppData\Local\Temp\ccmBQqfl.s:30157  .debug_str:000000000002180f .LASF852
C:\Users\CYMR90~1\AppData\Local\Temp\ccmBQqfl.s:32039  .debug_str:0000000000028fd6 .LASF853
C:\Users\CYMR90~1\AppData\Local\Temp\ccmBQqfl.s:27068  .debug_str:00000000000151fe .LASF854
C:\Users\CYMR90~1\AppData\Local\Temp\ccmBQqfl.s:30343  .debug_str:000000000002241b .LASF856
C:\Users\CYMR90~1\AppData\Local\Temp\ccmBQqfl.s:29205  .debug_str:000000000001de87 .LASF857
C:\Users\CYMR90~1\AppData\Local\Temp\ccmBQqfl.s:31855  .debug_str:0000000000028327 .LASF858
C:\Users\CYMR90~1\AppData\Local\Temp\ccmBQqfl.s:25124  .debug_str:000000000000d6de .LASF859
C:\Users\CYMR90~1\AppData\Local\Temp\ccmBQqfl.s:27016  .debug_str:0000000000014e52 .LASF860
C:\Users\CYMR90~1\AppData\Local\Temp\ccmBQqfl.s:30273  .debug_str:0000000000021fa6 .LASF861
C:\Users\CYMR90~1\AppData\Local\Temp\ccmBQqfl.s:29411  .debug_str:000000000001eb44 .LASF862
C:\Users\CYMR90~1\AppData\Local\Temp\ccmBQqfl.s:22132  .debug_str:0000000000001559 .LASF863
C:\Users\CYMR90~1\AppData\Local\Temp\ccmBQqfl.s:22800  .debug_str:0000000000004074 .LASF864
C:\Users\CYMR90~1\AppData\Local\Temp\ccmBQqfl.s:23202  .debug_str:0000000000005af7 .LASF865
C:\Users\CYMR90~1\AppData\Local\Temp\ccmBQqfl.s:24392  .debug_str:000000000000a6c0 .LASF866
C:\Users\CYMR90~1\AppData\Local\Temp\ccmBQqfl.s:23854  .debug_str:000000000000845d .LASF867
C:\Users\CYMR90~1\AppData\Local\Temp\ccmBQqfl.s:29129  .debug_str:000000000001d975 .LASF868
C:\Users\CYMR90~1\AppData\Local\Temp\ccmBQqfl.s:29775  .debug_str:0000000000020182 .LASF869
C:\Users\CYMR90~1\AppData\Local\Temp\ccmBQqfl.s:30853  .debug_str:000000000002421f .LASF870
C:\Users\CYMR90~1\AppData\Local\Temp\ccmBQqfl.s:24028  .debug_str:0000000000009006 .LASF871
C:\Users\CYMR90~1\AppData\Local\Temp\ccmBQqfl.s:24466  .debug_str:000000000000ab2b .LASF872
C:\Users\CYMR90~1\AppData\Local\Temp\ccmBQqfl.s:28963  .debug_str:000000000001ce1d .LASF873
C:\Users\CYMR90~1\AppData\Local\Temp\ccmBQqfl.s:31563  .debug_str:000000000002703b .LASF874
C:\Users\CYMR90~1\AppData\Local\Temp\ccmBQqfl.s:26286  .debug_str:0000000000011faf .LASF875
C:\Users\CYMR90~1\AppData\Local\Temp\ccmBQqfl.s:26974  .debug_str:0000000000014be9 .LASF876
C:\Users\CYMR90~1\AppData\Local\Temp\ccmBQqfl.s:24268  .debug_str:0000000000009ef6 .LASF877
C:\Users\CYMR90~1\AppData\Local\Temp\ccmBQqfl.s:28667  .debug_str:000000000001bb57 .LASF878
C:\Users\CYMR90~1\AppData\Local\Temp\ccmBQqfl.s:26078  .debug_str:0000000000011248 .LASF879
C:\Users\CYMR90~1\AppData\Local\Temp\ccmBQqfl.s:27615  .debug_str:000000000001768f .LASF880
C:\Users\CYMR90~1\AppData\Local\Temp\ccmBQqfl.s:23126  .debug_str:000000000000560c .LASF881
C:\Users\CYMR90~1\AppData\Local\Temp\ccmBQqfl.s:26510  .debug_str:0000000000012e50 .LASF882
C:\Users\CYMR90~1\AppData\Local\Temp\ccmBQqfl.s:29661  .debug_str:000000000001fa80 .LASF883
C:\Users\CYMR90~1\AppData\Local\Temp\ccmBQqfl.s:26124  .debug_str:00000000000114b9 .LASF884
C:\Users\CYMR90~1\AppData\Local\Temp\ccmBQqfl.s:33131  .debug_str:000000000002d3ed .LASF885
C:\Users\CYMR90~1\AppData\Local\Temp\ccmBQqfl.s:28673  .debug_str:000000000001bbaf .LASF886
C:\Users\CYMR90~1\AppData\Local\Temp\ccmBQqfl.s:24134  .debug_str:0000000000009636 .LASF887
C:\Users\CYMR90~1\AppData\Local\Temp\ccmBQqfl.s:30809  .debug_str:0000000000023fa9 .LASF888
C:\Users\CYMR90~1\AppData\Local\Temp\ccmBQqfl.s:26446  .debug_str:0000000000012a1e .LASF889
C:\Users\CYMR90~1\AppData\Local\Temp\ccmBQqfl.s:30743  .debug_str:0000000000023b2a .LASF890
C:\Users\CYMR90~1\AppData\Local\Temp\ccmBQqfl.s:22952  .debug_str:0000000000004b71 .LASF891
C:\Users\CYMR90~1\AppData\Local\Temp\ccmBQqfl.s:25426  .debug_str:000000000000e8f4 .LASF892
C:\Users\CYMR90~1\AppData\Local\Temp\ccmBQqfl.s:31507  .debug_str:0000000000026d01 .LASF893
C:\Users\CYMR90~1\AppData\Local\Temp\ccmBQqfl.s:30895  .debug_str:0000000000024448 .LASF894
C:\Users\CYMR90~1\AppData\Local\Temp\ccmBQqfl.s:22104  .debug_str:00000000000013b5 .LASF895
C:\Users\CYMR90~1\AppData\Local\Temp\ccmBQqfl.s:26824  .debug_str:0000000000014232 .LASF896
C:\Users\CYMR90~1\AppData\Local\Temp\ccmBQqfl.s:23038  .debug_str:00000000000050a8 .LASF897
C:\Users\CYMR90~1\AppData\Local\Temp\ccmBQqfl.s:24258  .debug_str:0000000000009e62 .LASF898
C:\Users\CYMR90~1\AppData\Local\Temp\ccmBQqfl.s:31799  .debug_str:0000000000027f70 .LASF899
C:\Users\CYMR90~1\AppData\Local\Temp\ccmBQqfl.s:24584  .debug_str:000000000000b311 .LASF900
C:\Users\CYMR90~1\AppData\Local\Temp\ccmBQqfl.s:28717  .debug_str:000000000001bdfc .LASF901
C:\Users\CYMR90~1\AppData\Local\Temp\ccmBQqfl.s:32337  .debug_str:000000000002a1a7 .LASF902
C:\Users\CYMR90~1\AppData\Local\Temp\ccmBQqfl.s:31085  .debug_str:0000000000025177 .LASF903
C:\Users\CYMR90~1\AppData\Local\Temp\ccmBQqfl.s:31943  .debug_str:0000000000028998 .LASF904
C:\Users\CYMR90~1\AppData\Local\Temp\ccmBQqfl.s:26494  .debug_str:0000000000012d42 .LASF905
C:\Users\CYMR90~1\AppData\Local\Temp\ccmBQqfl.s:23906  .debug_str:0000000000008795 .LASF906
C:\Users\CYMR90~1\AppData\Local\Temp\ccmBQqfl.s:32513  .debug_str:000000000002ac0e .LASF907
C:\Users\CYMR90~1\AppData\Local\Temp\ccmBQqfl.s:25420  .debug_str:000000000000e896 .LASF908
C:\Users\CYMR90~1\AppData\Local\Temp\ccmBQqfl.s:31775  .debug_str:0000000000027db0 .LASF909
C:\Users\CYMR90~1\AppData\Local\Temp\ccmBQqfl.s:26052  .debug_str:00000000000110d9 .LASF910
C:\Users\CYMR90~1\AppData\Local\Temp\ccmBQqfl.s:22488  .debug_str:0000000000002cb8 .LASF911
C:\Users\CYMR90~1\AppData\Local\Temp\ccmBQqfl.s:22078  .debug_str:0000000000001259 .LASF912
C:\Users\CYMR90~1\AppData\Local\Temp\ccmBQqfl.s:30191  .debug_str:0000000000021a9d .LASF913
C:\Users\CYMR90~1\AppData\Local\Temp\ccmBQqfl.s:31067  .debug_str:0000000000025047 .LASF914
C:\Users\CYMR90~1\AppData\Local\Temp\ccmBQqfl.s:24968  .debug_str:000000000000cca0 .LASF915
C:\Users\CYMR90~1\AppData\Local\Temp\ccmBQqfl.s:27589  .debug_str:0000000000017504 .LASF916
C:\Users\CYMR90~1\AppData\Local\Temp\ccmBQqfl.s:25858  .debug_str:0000000000010424 .LASF917
C:\Users\CYMR90~1\AppData\Local\Temp\ccmBQqfl.s:32587  .debug_str:000000000002b04a .LASF918
C:\Users\CYMR90~1\AppData\Local\Temp\ccmBQqfl.s:22064  .debug_str:0000000000001173 .LASF919
C:\Users\CYMR90~1\AppData\Local\Temp\ccmBQqfl.s:24574  .debug_str:000000000000b271 .LASF920
C:\Users\CYMR90~1\AppData\Local\Temp\ccmBQqfl.s:31023  .debug_str:0000000000024ce9 .LASF921
C:\Users\CYMR90~1\AppData\Local\Temp\ccmBQqfl.s:28405  .debug_str:000000000001a99d .LASF922
C:\Users\CYMR90~1\AppData\Local\Temp\ccmBQqfl.s:31541  .debug_str:0000000000026f07 .LASF923
C:\Users\CYMR90~1\AppData\Local\Temp\ccmBQqfl.s:27541  .debug_str:0000000000017237 .LASF924
C:\Users\CYMR90~1\AppData\Local\Temp\ccmBQqfl.s:22450  .debug_str:0000000000002a16 .LASF925
C:\Users\CYMR90~1\AppData\Local\Temp\ccmBQqfl.s:28629  .debug_str:000000000001b901 .LASF926
C:\Users\CYMR90~1\AppData\Local\Temp\ccmBQqfl.s:22176  .debug_str:0000000000001955 .LASF927
C:\Users\CYMR90~1\AppData\Local\Temp\ccmBQqfl.s:27002  .debug_str:0000000000014d85 .LASF928
C:\Users\CYMR90~1\AppData\Local\Temp\ccmBQqfl.s:29725  .debug_str:000000000001fe47 .LASF929
C:\Users\CYMR90~1\AppData\Local\Temp\ccmBQqfl.s:32845  .debug_str:000000000002c110 .LASF930
C:\Users\CYMR90~1\AppData\Local\Temp\ccmBQqfl.s:33069  .debug_str:000000000002cfff .LASF931
C:\Users\CYMR90~1\AppData\Local\Temp\ccmBQqfl.s:29621  .debug_str:000000000001f7ef .LASF932
C:\Users\CYMR90~1\AppData\Local\Temp\ccmBQqfl.s:32319  .debug_str:000000000002a07c .LASF933
C:\Users\CYMR90~1\AppData\Local\Temp\ccmBQqfl.s:27340  .debug_str:000000000001630c .LASF934
C:\Users\CYMR90~1\AppData\Local\Temp\ccmBQqfl.s:28179  .debug_str:00000000000199bf .LASF935
C:\Users\CYMR90~1\AppData\Local\Temp\ccmBQqfl.s:27220  .debug_str:0000000000015ad7 .LASF936
C:\Users\CYMR90~1\AppData\Local\Temp\ccmBQqfl.s:31157  .debug_str:000000000002563e .LASF937
C:\Users\CYMR90~1\AppData\Local\Temp\ccmBQqfl.s:21980  .debug_str:0000000000000c0f .LASF938
C:\Users\CYMR90~1\AppData\Local\Temp\ccmBQqfl.s:29999  .debug_str:0000000000020ed2 .LASF939
C:\Users\CYMR90~1\AppData\Local\Temp\ccmBQqfl.s:31245  .debug_str:0000000000025c53 .LASF940
C:\Users\CYMR90~1\AppData\Local\Temp\ccmBQqfl.s:24714  .debug_str:000000000000bbc5 .LASF941
C:\Users\CYMR90~1\AppData\Local\Temp\ccmBQqfl.s:28393  .debug_str:000000000001a8e4 .LASF942
C:\Users\CYMR90~1\AppData\Local\Temp\ccmBQqfl.s:25462  .debug_str:000000000000eae0 .LASF943
C:\Users\CYMR90~1\AppData\Local\Temp\ccmBQqfl.s:31185  .debug_str:0000000000025892 .LASF944
C:\Users\CYMR90~1\AppData\Local\Temp\ccmBQqfl.s:28809  .debug_str:000000000001c427 .LASF945
C:\Users\CYMR90~1\AppData\Local\Temp\ccmBQqfl.s:25670  .debug_str:000000000000f7cb .LASF946
C:\Users\CYMR90~1\AppData\Local\Temp\ccmBQqfl.s:27695  .debug_str:0000000000017b64 .LASF947
C:\Users\CYMR90~1\AppData\Local\Temp\ccmBQqfl.s:29339  .debug_str:000000000001e6e4 .LASF948
C:\Users\CYMR90~1\AppData\Local\Temp\ccmBQqfl.s:26028  .debug_str:0000000000010f17 .LASF949
C:\Users\CYMR90~1\AppData\Local\Temp\ccmBQqfl.s:25028  .debug_str:000000000000d01c .LASF950
C:\Users\CYMR90~1\AppData\Local\Temp\ccmBQqfl.s:23614  .debug_str:0000000000007440 .LASF952
C:\Users\CYMR90~1\AppData\Local\Temp\ccmBQqfl.s:27142  .debug_str:0000000000015685 .LASF953
C:\Users\CYMR90~1\AppData\Local\Temp\ccmBQqfl.s:25062  .debug_str:000000000000d253 .LASF954
C:\Users\CYMR90~1\AppData\Local\Temp\ccmBQqfl.s:33061  .debug_str:000000000002cf8a .LASF955
C:\Users\CYMR90~1\AppData\Local\Temp\ccmBQqfl.s:32219  .debug_str:0000000000029a48 .LASF956
C:\Users\CYMR90~1\AppData\Local\Temp\ccmBQqfl.s:32309  .debug_str:000000000002a006 .LASF960
C:\Users\CYMR90~1\AppData\Local\Temp\ccmBQqfl.s:24162  .debug_str:000000000000984d .LASF961
C:\Users\CYMR90~1\AppData\Local\Temp\ccmBQqfl.s:31573  .debug_str:00000000000270d1 .LASF962
C:\Users\CYMR90~1\AppData\Local\Temp\ccmBQqfl.s:26258  .debug_str:0000000000011e1b .LASF963
C:\Users\CYMR90~1\AppData\Local\Temp\ccmBQqfl.s:23636  .debug_str:00000000000075c2 .LASF964
C:\Users\CYMR90~1\AppData\Local\Temp\ccmBQqfl.s:30375  .debug_str:00000000000225d8 .LASF965
C:\Users\CYMR90~1\AppData\Local\Temp\ccmBQqfl.s:28621  .debug_str:000000000001b85d .LASF966
C:\Users\CYMR90~1\AppData\Local\Temp\ccmBQqfl.s:31513  .debug_str:0000000000026d5d .LASF967
C:\Users\CYMR90~1\AppData\Local\Temp\ccmBQqfl.s:32629  .debug_str:000000000002b2ee .LASF968
C:\Users\CYMR90~1\AppData\Local\Temp\ccmBQqfl.s:23372  .debug_str:00000000000064d2 .LASF969
C:\Users\CYMR90~1\AppData\Local\Temp\ccmBQqfl.s:26862  .debug_str:00000000000144a1 .LASF970
C:\Users\CYMR90~1\AppData\Local\Temp\ccmBQqfl.s:32715  .debug_str:000000000002b876 .LASF971
C:\Users\CYMR90~1\AppData\Local\Temp\ccmBQqfl.s:25472  .debug_str:000000000000ebac .LASF972
C:\Users\CYMR90~1\AppData\Local\Temp\ccmBQqfl.s:26928  .debug_str:00000000000148c3 .LASF973
C:\Users\CYMR90~1\AppData\Local\Temp\ccmBQqfl.s:25088  .debug_str:000000000000d3fb .LASF974
C:\Users\CYMR90~1\AppData\Local\Temp\ccmBQqfl.s:27476  .debug_str:0000000000016ba1 .LASF975
C:\Users\CYMR90~1\AppData\Local\Temp\ccmBQqfl.s:33093  .debug_str:000000000002d123 .LASF976
C:\Users\CYMR90~1\AppData\Local\Temp\ccmBQqfl.s:25024  .debug_str:000000000000cfd7 .LASF977
C:\Users\CYMR90~1\AppData\Local\Temp\ccmBQqfl.s:33119  .debug_str:000000000002d35c .LASF978
C:\Users\CYMR90~1\AppData\Local\Temp\ccmBQqfl.s:31355  .debug_str:00000000000263ad .LASF979
C:\Users\CYMR90~1\AppData\Local\Temp\ccmBQqfl.s:31409  .debug_str:0000000000026716 .LASF980
C:\Users\CYMR90~1\AppData\Local\Temp\ccmBQqfl.s:25528  .debug_str:000000000000ef5f .LASF981
C:\Users\CYMR90~1\AppData\Local\Temp\ccmBQqfl.s:23074  .debug_str:00000000000052eb .LASF982
C:\Users\CYMR90~1\AppData\Local\Temp\ccmBQqfl.s:26282  .debug_str:0000000000011f92 .LASF983
C:\Users\CYMR90~1\AppData\Local\Temp\ccmBQqfl.s:29037  .debug_str:000000000001d367 .LASF984
C:\Users\CYMR90~1\AppData\Local\Temp\ccmBQqfl.s:30933  .debug_str:000000000002472c .LASF985
C:\Users\CYMR90~1\AppData\Local\Temp\ccmBQqfl.s:30659  .debug_str:0000000000023677 .LASF986
C:\Users\CYMR90~1\AppData\Local\Temp\ccmBQqfl.s:27286  .debug_str:0000000000015f35 .LASF987
C:\Users\CYMR90~1\AppData\Local\Temp\ccmBQqfl.s:22506  .debug_str:0000000000002dcb .LASF988
C:\Users\CYMR90~1\AppData\Local\Temp\ccmBQqfl.s:30579  .debug_str:0000000000023218 .LASF989
C:\Users\CYMR90~1\AppData\Local\Temp\ccmBQqfl.s:27997  .debug_str:0000000000018e11 .LASF990
C:\Users\CYMR90~1\AppData\Local\Temp\ccmBQqfl.s:25020  .debug_str:000000000000cfaf .LASF991
C:\Users\CYMR90~1\AppData\Local\Temp\ccmBQqfl.s:31515  .debug_str:0000000000026d85 .LASF992
C:\Users\CYMR90~1\AppData\Local\Temp\ccmBQqfl.s:23656  .debug_str:00000000000076ca .LASF993
C:\Users\CYMR90~1\AppData\Local\Temp\ccmBQqfl.s:31333  .debug_str:000000000002624c .LASF994
C:\Users\CYMR90~1\AppData\Local\Temp\ccmBQqfl.s:28083  .debug_str:0000000000019421 .LASF995
C:\Users\CYMR90~1\AppData\Local\Temp\ccmBQqfl.s:32125  .debug_str:00000000000294d5 .LASF996
C:\Users\CYMR90~1\AppData\Local\Temp\ccmBQqfl.s:29243  .debug_str:000000000001e082 .LASF997
C:\Users\CYMR90~1\AppData\Local\Temp\ccmBQqfl.s:29319  .debug_str:000000000001e5b6 .LASF998
C:\Users\CYMR90~1\AppData\Local\Temp\ccmBQqfl.s:22408  .debug_str:00000000000026fd .LASF999
C:\Users\CYMR90~1\AppData\Local\Temp\ccmBQqfl.s:22750  .debug_str:0000000000003d60 .LASF1000
C:\Users\CYMR90~1\AppData\Local\Temp\ccmBQqfl.s:27020  .debug_str:0000000000014e82 .LASF1001
C:\Users\CYMR90~1\AppData\Local\Temp\ccmBQqfl.s:25866  .debug_str:00000000000104cb .LASF1002
C:\Users\CYMR90~1\AppData\Local\Temp\ccmBQqfl.s:23030  .debug_str:000000000000504f .LASF1003
C:\Users\CYMR90~1\AppData\Local\Temp\ccmBQqfl.s:28855  .debug_str:000000000001c6ef .LASF1004
C:\Users\CYMR90~1\AppData\Local\Temp\ccmBQqfl.s:26236  .debug_str:0000000000011c36 .LASF1005
C:\Users\CYMR90~1\AppData\Local\Temp\ccmBQqfl.s:24982  .debug_str:000000000000cd7b .LASF1006
C:\Users\CYMR90~1\AppData\Local\Temp\ccmBQqfl.s:23346  .debug_str:000000000000634f .LASF1007
C:\Users\CYMR90~1\AppData\Local\Temp\ccmBQqfl.s:30371  .debug_str:00000000000225a0 .LASF1008
C:\Users\CYMR90~1\AppData\Local\Temp\ccmBQqfl.s:27775  .debug_str:000000000001806e .LASF1009
C:\Users\CYMR90~1\AppData\Local\Temp\ccmBQqfl.s:27929  .debug_str:00000000000189b4 .LASF1010
C:\Users\CYMR90~1\AppData\Local\Temp\ccmBQqfl.s:25298  .debug_str:000000000000e127 .LASF1011
C:\Users\CYMR90~1\AppData\Local\Temp\ccmBQqfl.s:29099  .debug_str:000000000001d7a2 .LASF1012
C:\Users\CYMR90~1\AppData\Local\Temp\ccmBQqfl.s:30583  .debug_str:0000000000023243 .LASF1013
C:\Users\CYMR90~1\AppData\Local\Temp\ccmBQqfl.s:28193  .debug_str:0000000000019aea .LASF1014
C:\Users\CYMR90~1\AppData\Local\Temp\ccmBQqfl.s:24906  .debug_str:000000000000c818 .LASF1015
C:\Users\CYMR90~1\AppData\Local\Temp\ccmBQqfl.s:23236  .debug_str:0000000000005cbc .LASF1016
C:\Users\CYMR90~1\AppData\Local\Temp\ccmBQqfl.s:23192  .debug_str:0000000000005a4c .LASF1017
C:\Users\CYMR90~1\AppData\Local\Temp\ccmBQqfl.s:31667  .debug_str:00000000000276a4 .LASF1018
C:\Users\CYMR90~1\AppData\Local\Temp\ccmBQqfl.s:25538  .debug_str:000000000000efe1 .LASF1019
C:\Users\CYMR90~1\AppData\Local\Temp\ccmBQqfl.s:22402  .debug_str:00000000000026b4 .LASF1020
C:\Users\CYMR90~1\AppData\Local\Temp\ccmBQqfl.s:27813  .debug_str:00000000000182cc .LASF1021
C:\Users\CYMR90~1\AppData\Local\Temp\ccmBQqfl.s:24838  .debug_str:000000000000c41e .LASF1022
C:\Users\CYMR90~1\AppData\Local\Temp\ccmBQqfl.s:31593  .debug_str:00000000000271f4 .LASF1023
C:\Users\CYMR90~1\AppData\Local\Temp\ccmBQqfl.s:24066  .debug_str:0000000000009271 .LASF1024
C:\Users\CYMR90~1\AppData\Local\Temp\ccmBQqfl.s:26558  .debug_str:0000000000013163 .LASF1025
C:\Users\CYMR90~1\AppData\Local\Temp\ccmBQqfl.s:26056  .debug_str:000000000001111a .LASF1026
C:\Users\CYMR90~1\AppData\Local\Temp\ccmBQqfl.s:26994  .debug_str:0000000000014cd1 .LASF1027
C:\Users\CYMR90~1\AppData\Local\Temp\ccmBQqfl.s:29181  .debug_str:000000000001dcec .LASF1028
C:\Users\CYMR90~1\AppData\Local\Temp\ccmBQqfl.s:29579  .debug_str:000000000001f549 .LASF1029
C:\Users\CYMR90~1\AppData\Local\Temp\ccmBQqfl.s:30871  .debug_str:000000000002432c .LASF1030
C:\Users\CYMR90~1\AppData\Local\Temp\ccmBQqfl.s:29951  .debug_str:0000000000020c0d .LASF1031
C:\Users\CYMR90~1\AppData\Local\Temp\ccmBQqfl.s:32221  .debug_str:0000000000029ab0 .LASF1032
C:\Users\CYMR90~1\AppData\Local\Temp\ccmBQqfl.s:24216  .debug_str:0000000000009baf .LASF1033
C:\Users\CYMR90~1\AppData\Local\Temp\ccmBQqfl.s:23082  .debug_str:000000000000536d .LASF1034
C:\Users\CYMR90~1\AppData\Local\Temp\ccmBQqfl.s:28125  .debug_str:000000000001968e .LASF1035
C:\Users\CYMR90~1\AppData\Local\Temp\ccmBQqfl.s:28383  .debug_str:000000000001a86e .LASF1036
C:\Users\CYMR90~1\AppData\Local\Temp\ccmBQqfl.s:30673  .debug_str:000000000002370e .LASF1037
C:\Users\CYMR90~1\AppData\Local\Temp\ccmBQqfl.s:25714  .debug_str:000000000000fb31 .LASF1038
C:\Users\CYMR90~1\AppData\Local\Temp\ccmBQqfl.s:29291  .debug_str:000000000001e41a .LASF1039
C:\Users\CYMR90~1\AppData\Local\Temp\ccmBQqfl.s:27156  .debug_str:000000000001577d .LASF1040
C:\Users\CYMR90~1\AppData\Local\Temp\ccmBQqfl.s:25616  .debug_str:000000000000f491 .LASF1041
C:\Users\CYMR90~1\AppData\Local\Temp\ccmBQqfl.s:31401  .debug_str:00000000000266a6 .LASF1042
C:\Users\CYMR90~1\AppData\Local\Temp\ccmBQqfl.s:25868  .debug_str:00000000000104e2 .LASF1043
C:\Users\CYMR90~1\AppData\Local\Temp\ccmBQqfl.s:21812  .debug_str:000000000000018d .LASF1044
C:\Users\CYMR90~1\AppData\Local\Temp\ccmBQqfl.s:24078  .debug_str:00000000000092f8 .LASF1045
C:\Users\CYMR90~1\AppData\Local\Temp\ccmBQqfl.s:28315  .debug_str:000000000001a2d3 .LASF1046
C:\Users\CYMR90~1\AppData\Local\Temp\ccmBQqfl.s:27406  .debug_str:00000000000166ee .LASF1047
C:\Users\CYMR90~1\AppData\Local\Temp\ccmBQqfl.s:30717  .debug_str:0000000000023993 .LASF1048
C:\Users\CYMR90~1\AppData\Local\Temp\ccmBQqfl.s:29541  .debug_str:000000000001f318 .LASF1049
C:\Users\CYMR90~1\AppData\Local\Temp\ccmBQqfl.s:22580  .debug_str:0000000000003293 .LASF1050
C:\Users\CYMR90~1\AppData\Local\Temp\ccmBQqfl.s:29551  .debug_str:000000000001f3a3 .LASF1051
C:\Users\CYMR90~1\AppData\Local\Temp\ccmBQqfl.s:29757  .debug_str:000000000002005d .LASF1052
C:\Users\CYMR90~1\AppData\Local\Temp\ccmBQqfl.s:24582  .debug_str:000000000000b2ff .LASF1053
C:\Users\CYMR90~1\AppData\Local\Temp\ccmBQqfl.s:30621  .debug_str:000000000002347d .LASF1054
C:\Users\CYMR90~1\AppData\Local\Temp\ccmBQqfl.s:26534  .debug_str:0000000000012fc9 .LASF1055
C:\Users\CYMR90~1\AppData\Local\Temp\ccmBQqfl.s:25468  .debug_str:000000000000eb5a .LASF1056
C:\Users\CYMR90~1\AppData\Local\Temp\ccmBQqfl.s:31835  .debug_str:00000000000281f1 .LASF1057
C:\Users\CYMR90~1\AppData\Local\Temp\ccmBQqfl.s:32431  .debug_str:000000000002a6b3 .LASF1058
C:\Users\CYMR90~1\AppData\Local\Temp\ccmBQqfl.s:31155  .debug_str:000000000002561c .LASF1059
C:\Users\CYMR90~1\AppData\Local\Temp\ccmBQqfl.s:26526  .debug_str:0000000000012f43 .LASF1060
C:\Users\CYMR90~1\AppData\Local\Temp\ccmBQqfl.s:23886  .debug_str:0000000000008667 .LASF1061
C:\Users\CYMR90~1\AppData\Local\Temp\ccmBQqfl.s:21942  .debug_str:000000000000094a .LASF1062
C:\Users\CYMR90~1\AppData\Local\Temp\ccmBQqfl.s:26902  .debug_str:00000000000146d8 .LASF1063
C:\Users\CYMR90~1\AppData\Local\Temp\ccmBQqfl.s:22798  .debug_str:000000000000405d .LASF1064
C:\Users\CYMR90~1\AppData\Local\Temp\ccmBQqfl.s:21884  .debug_str:00000000000005ba .LASF1065
C:\Users\CYMR90~1\AppData\Local\Temp\ccmBQqfl.s:33125  .debug_str:000000000002d3a5 .LASF1066
C:\Users\CYMR90~1\AppData\Local\Temp\ccmBQqfl.s:24080  .debug_str:0000000000009310 .LASF1067
C:\Users\CYMR90~1\AppData\Local\Temp\ccmBQqfl.s:27474  .debug_str:0000000000016b87 .LASF1068
C:\Users\CYMR90~1\AppData\Local\Temp\ccmBQqfl.s:29067  .debug_str:000000000001d5d7 .LASF1069
C:\Users\CYMR90~1\AppData\Local\Temp\ccmBQqfl.s:21998  .debug_str:0000000000000d21 .LASF1070
C:\Users\CYMR90~1\AppData\Local\Temp\ccmBQqfl.s:24348  .debug_str:000000000000a3b9 .LASF1071
C:\Users\CYMR90~1\AppData\Local\Temp\ccmBQqfl.s:30531  .debug_str:0000000000022f02 .LASF1072
C:\Users\CYMR90~1\AppData\Local\Temp\ccmBQqfl.s:29033  .debug_str:000000000001d325 .LASF1073
C:\Users\CYMR90~1\AppData\Local\Temp\ccmBQqfl.s:32089  .debug_str:0000000000029293 .LASF1074
C:\Users\CYMR90~1\AppData\Local\Temp\ccmBQqfl.s:27623  .debug_str:00000000000176f0 .LASF1075
C:\Users\CYMR90~1\AppData\Local\Temp\ccmBQqfl.s:22446  .debug_str:00000000000029e9 .LASF1076
C:\Users\CYMR90~1\AppData\Local\Temp\ccmBQqfl.s:32519  .debug_str:000000000002ac5d .LASF1077
C:\Users\CYMR90~1\AppData\Local\Temp\ccmBQqfl.s:23410  .debug_str:0000000000006723 .LASF1078
C:\Users\CYMR90~1\AppData\Local\Temp\ccmBQqfl.s:29867  .debug_str:00000000000206f8 .LASF1079
C:\Users\CYMR90~1\AppData\Local\Temp\ccmBQqfl.s:25310  .debug_str:000000000000e1db .LASF1080
C:\Users\CYMR90~1\AppData\Local\Temp\ccmBQqfl.s:28829  .debug_str:000000000001c55e .LASF1081
C:\Users\CYMR90~1\AppData\Local\Temp\ccmBQqfl.s:31697  .debug_str:0000000000027939 .LASF1082
C:\Users\CYMR90~1\AppData\Local\Temp\ccmBQqfl.s:27100  .debug_str:0000000000015421 .LASF1083
C:\Users\CYMR90~1\AppData\Local\Temp\ccmBQqfl.s:30215  .debug_str:0000000000021c3e .LASF1084
C:\Users\CYMR90~1\AppData\Local\Temp\ccmBQqfl.s:23104  .debug_str:00000000000054c4 .LASF1085
C:\Users\CYMR90~1\AppData\Local\Temp\ccmBQqfl.s:22210  .debug_str:0000000000001b79 .LASF1086
C:\Users\CYMR90~1\AppData\Local\Temp\ccmBQqfl.s:25344  .debug_str:000000000000e3cf .LASF1087
C:\Users\CYMR90~1\AppData\Local\Temp\ccmBQqfl.s:31407  .debug_str:0000000000026707 .LASF1088
C:\Users\CYMR90~1\AppData\Local\Temp\ccmBQqfl.s:30525  .debug_str:0000000000022eaa .LASF1089
C:\Users\CYMR90~1\AppData\Local\Temp\ccmBQqfl.s:22054  .debug_str:00000000000010de .LASF1090
C:\Users\CYMR90~1\AppData\Local\Temp\ccmBQqfl.s:33057  .debug_str:000000000002cf32 .LASF1091
C:\Users\CYMR90~1\AppData\Local\Temp\ccmBQqfl.s:31797  .debug_str:0000000000027f58 .LASF1092
C:\Users\CYMR90~1\AppData\Local\Temp\ccmBQqfl.s:25690  .debug_str:000000000000f8ea .LASF1093
C:\Users\CYMR90~1\AppData\Local\Temp\ccmBQqfl.s:31451  .debug_str:0000000000026959 .LASF1094
C:\Users\CYMR90~1\AppData\Local\Temp\ccmBQqfl.s:27172  .debug_str:0000000000015828 .LASF1095
C:\Users\CYMR90~1\AppData\Local\Temp\ccmBQqfl.s:28647  .debug_str:000000000001ba16 .LASF1096
C:\Users\CYMR90~1\AppData\Local\Temp\ccmBQqfl.s:29185  .debug_str:000000000001dd3e .LASF1097
C:\Users\CYMR90~1\AppData\Local\Temp\ccmBQqfl.s:23396  .debug_str:0000000000006666 .LASF1098
C:\Users\CYMR90~1\AppData\Local\Temp\ccmBQqfl.s:26554  .debug_str:0000000000013100 .LASF1099
C:\Users\CYMR90~1\AppData\Local\Temp\ccmBQqfl.s:25862  .debug_str:000000000001047b .LASF1100
C:\Users\CYMR90~1\AppData\Local\Temp\ccmBQqfl.s:30793  .debug_str:0000000000023ead .LASF1101
C:\Users\CYMR90~1\AppData\Local\Temp\ccmBQqfl.s:25034  .debug_str:000000000000d069 .LASF1102
C:\Users\CYMR90~1\AppData\Local\Temp\ccmBQqfl.s:30465  .debug_str:0000000000022aca .LASF1103
C:\Users\CYMR90~1\AppData\Local\Temp\ccmBQqfl.s:32033  .debug_str:0000000000028f84 .LASF1104
C:\Users\CYMR90~1\AppData\Local\Temp\ccmBQqfl.s:29883  .debug_str:00000000000207b4 .LASF1105
C:\Users\CYMR90~1\AppData\Local\Temp\ccmBQqfl.s:26732  .debug_str:0000000000013c9f .LASF1106
C:\Users\CYMR90~1\AppData\Local\Temp\ccmBQqfl.s:30713  .debug_str:000000000002395d .LASF1107
C:\Users\CYMR90~1\AppData\Local\Temp\ccmBQqfl.s:28555  .debug_str:000000000001b3f3 .LASF1108
C:\Users\CYMR90~1\AppData\Local\Temp\ccmBQqfl.s:23414  .debug_str:000000000000675f .LASF1109
C:\Users\CYMR90~1\AppData\Local\Temp\ccmBQqfl.s:24378  .debug_str:000000000000a592 .LASF1110
C:\Users\CYMR90~1\AppData\Local\Temp\ccmBQqfl.s:22274  .debug_str:0000000000001f54 .LASF1111
C:\Users\CYMR90~1\AppData\Local\Temp\ccmBQqfl.s:23498  .debug_str:0000000000006caf .LASF1112
C:\Users\CYMR90~1\AppData\Local\Temp\ccmBQqfl.s:24608  .debug_str:000000000000b482 .LASF1113
C:\Users\CYMR90~1\AppData\Local\Temp\ccmBQqfl.s:23156  .debug_str:000000000000580a .LASF1114
C:\Users\CYMR90~1\AppData\Local\Temp\ccmBQqfl.s:24168  .debug_str:0000000000009890 .LASF1115
C:\Users\CYMR90~1\AppData\Local\Temp\ccmBQqfl.s:31875  .debug_str:00000000000284ac .LASF1116
C:\Users\CYMR90~1\AppData\Local\Temp\ccmBQqfl.s:32381  .debug_str:000000000002a3fb .LASF1117
C:\Users\CYMR90~1\AppData\Local\Temp\ccmBQqfl.s:23318  .debug_str:00000000000061a5 .LASF1118
C:\Users\CYMR90~1\AppData\Local\Temp\ccmBQqfl.s:27791  .debug_str:000000000001815c .LASF1119
C:\Users\CYMR90~1\AppData\Local\Temp\ccmBQqfl.s:23852  .debug_str:0000000000008440 .LASF1120
C:\Users\CYMR90~1\AppData\Local\Temp\ccmBQqfl.s:24060  .debug_str:0000000000009210 .LASF1121
C:\Users\CYMR90~1\AppData\Local\Temp\ccmBQqfl.s:26668  .debug_str:00000000000138c1 .LASF1122
C:\Users\CYMR90~1\AppData\Local\Temp\ccmBQqfl.s:26308  .debug_str:000000000001211d .LASF1123
C:\Users\CYMR90~1\AppData\Local\Temp\ccmBQqfl.s:29969  .debug_str:0000000000020cf5 .LASF1124
C:\Users\CYMR90~1\AppData\Local\Temp\ccmBQqfl.s:27106  .debug_str:0000000000015469 .LASF1125
C:\Users\CYMR90~1\AppData\Local\Temp\ccmBQqfl.s:27194  .debug_str:000000000001598f .LASF1126
C:\Users\CYMR90~1\AppData\Local\Temp\ccmBQqfl.s:30611  .debug_str:00000000000233c8 .LASF1127
C:\Users\CYMR90~1\AppData\Local\Temp\ccmBQqfl.s:31695  .debug_str:0000000000027924 .LASF1128
C:\Users\CYMR90~1\AppData\Local\Temp\ccmBQqfl.s:23204  .debug_str:0000000000005b04 .LASF1129
C:\Users\CYMR90~1\AppData\Local\Temp\ccmBQqfl.s:27192  .debug_str:000000000001597a .LASF1130
C:\Users\CYMR90~1\AppData\Local\Temp\ccmBQqfl.s:32217  .debug_str:0000000000029a33 .LASF1131
C:\Users\CYMR90~1\AppData\Local\Temp\ccmBQqfl.s:32619  .debug_str:000000000002b260 .LASF1132
C:\Users\CYMR90~1\AppData\Local\Temp\ccmBQqfl.s:27899  .debug_str:00000000000187d4 .LASF1133
C:\Users\CYMR90~1\AppData\Local\Temp\ccmBQqfl.s:30763  .debug_str:0000000000023c86 .LASF1134
C:\Users\CYMR90~1\AppData\Local\Temp\ccmBQqfl.s:23740  .debug_str:0000000000007c47 .LASF1135
C:\Users\CYMR90~1\AppData\Local\Temp\ccmBQqfl.s:22974  .debug_str:0000000000004cc2 .LASF1136
C:\Users\CYMR90~1\AppData\Local\Temp\ccmBQqfl.s:22804  .debug_str:000000000000409e .LASF1137
C:\Users\CYMR90~1\AppData\Local\Temp\ccmBQqfl.s:32227  .debug_str:0000000000029b0f .LASF1138
C:\Users\CYMR90~1\AppData\Local\Temp\ccmBQqfl.s:29323  .debug_str:000000000001e5ef .LASF1139
C:\Users\CYMR90~1\AppData\Local\Temp\ccmBQqfl.s:29221  .debug_str:000000000001df6e .LASF1140
C:\Users\CYMR90~1\AppData\Local\Temp\ccmBQqfl.s:21858  .debug_str:0000000000000470 .LASF1141
C:\Users\CYMR90~1\AppData\Local\Temp\ccmBQqfl.s:26100  .debug_str:0000000000011363 .LASF1142
C:\Users\CYMR90~1\AppData\Local\Temp\ccmBQqfl.s:25350  .debug_str:000000000000e442 .LASF1143
C:\Users\CYMR90~1\AppData\Local\Temp\ccmBQqfl.s:31747  .debug_str:0000000000027bfc .LASF1144
C:\Users\CYMR90~1\AppData\Local\Temp\ccmBQqfl.s:29929  .debug_str:0000000000020a45 .LASF1145
C:\Users\CYMR90~1\AppData\Local\Temp\ccmBQqfl.s:24876  .debug_str:000000000000c668 .LASF1146
C:\Users\CYMR90~1\AppData\Local\Temp\ccmBQqfl.s:33053  .debug_str:000000000002cef0 .LASF1147
C:\Users\CYMR90~1\AppData\Local\Temp\ccmBQqfl.s:27647  .debug_str:0000000000017848 .LASF1148
C:\Users\CYMR90~1\AppData\Local\Temp\ccmBQqfl.s:27907  .debug_str:0000000000018881 .LASF1149
C:\Users\CYMR90~1\AppData\Local\Temp\ccmBQqfl.s:28665  .debug_str:000000000001bb1c .LASF1150
C:\Users\CYMR90~1\AppData\Local\Temp\ccmBQqfl.s:22276  .debug_str:0000000000001f72 .LASF1151
C:\Users\CYMR90~1\AppData\Local\Temp\ccmBQqfl.s:29089  .debug_str:000000000001d70d .LASF1152
C:\Users\CYMR90~1\AppData\Local\Temp\ccmBQqfl.s:24190  .debug_str:00000000000099b2 .LASF1153
C:\Users\CYMR90~1\AppData\Local\Temp\ccmBQqfl.s:30229  .debug_str:0000000000021cf0 .LASF1154
C:\Users\CYMR90~1\AppData\Local\Temp\ccmBQqfl.s:29453  .debug_str:000000000001edf6 .LASF1155
C:\Users\CYMR90~1\AppData\Local\Temp\ccmBQqfl.s:23086  .debug_str:0000000000005399 .LASF1156
C:\Users\CYMR90~1\AppData\Local\Temp\ccmBQqfl.s:29285  .debug_str:000000000001e39f .LASF1157
C:\Users\CYMR90~1\AppData\Local\Temp\ccmBQqfl.s:24626  .debug_str:000000000000b572 .LASF1158
C:\Users\CYMR90~1\AppData\Local\Temp\ccmBQqfl.s:32399  .debug_str:000000000002a519 .LASF1159
C:\Users\CYMR90~1\AppData\Local\Temp\ccmBQqfl.s:22158  .debug_str:000000000000178a .LASF1160
C:\Users\CYMR90~1\AppData\Local\Temp\ccmBQqfl.s:32481  .debug_str:000000000002aa1d .LASF1161
C:\Users\CYMR90~1\AppData\Local\Temp\ccmBQqfl.s:32167  .debug_str:000000000002973d .LASF1162
C:\Users\CYMR90~1\AppData\Local\Temp\ccmBQqfl.s:29171  .debug_str:000000000001dc67 .LASF1163
C:\Users\CYMR90~1\AppData\Local\Temp\ccmBQqfl.s:28281  .debug_str:000000000001a0c3 .LASF1164
C:\Users\CYMR90~1\AppData\Local\Temp\ccmBQqfl.s:25164  .debug_str:000000000000d976 .LASF1165
C:\Users\CYMR90~1\AppData\Local\Temp\ccmBQqfl.s:29853  .debug_str:0000000000020622 .LASF1166
C:\Users\CYMR90~1\AppData\Local\Temp\ccmBQqfl.s:26064  .debug_str:0000000000011183 .LASF1167
C:\Users\CYMR90~1\AppData\Local\Temp\ccmBQqfl.s:24188  .debug_str:00000000000099a8 .LASF1168
C:\Users\CYMR90~1\AppData\Local\Temp\ccmBQqfl.s:27134  .debug_str:0000000000015626 .LASF1169
C:\Users\CYMR90~1\AppData\Local\Temp\ccmBQqfl.s:28497  .debug_str:000000000001b02a .LASF1170
C:\Users\CYMR90~1\AppData\Local\Temp\ccmBQqfl.s:28195  .debug_str:0000000000019b01 .LASF1171
C:\Users\CYMR90~1\AppData\Local\Temp\ccmBQqfl.s:32425  .debug_str:000000000002a681 .LASF1172
C:\Users\CYMR90~1\AppData\Local\Temp\ccmBQqfl.s:27416  .debug_str:000000000001679b .LASF1173
C:\Users\CYMR90~1\AppData\Local\Temp\ccmBQqfl.s:21978  .debug_str:0000000000000c01 .LASF1174
C:\Users\CYMR90~1\AppData\Local\Temp\ccmBQqfl.s:22382  .debug_str:0000000000002575 .LASF1175
C:\Users\CYMR90~1\AppData\Local\Temp\ccmBQqfl.s:26640  .debug_str:0000000000013711 .LASF1176
C:\Users\CYMR90~1\AppData\Local\Temp\ccmBQqfl.s:24978  .debug_str:000000000000cd4b .LASF1177
C:\Users\CYMR90~1\AppData\Local\Temp\ccmBQqfl.s:29229  .debug_str:000000000001dfdb .LASF1178
C:\Users\CYMR90~1\AppData\Local\Temp\ccmBQqfl.s:25584  .debug_str:000000000000f289 .LASF1179
C:\Users\CYMR90~1\AppData\Local\Temp\ccmBQqfl.s:25152  .debug_str:000000000000d8e4 .LASF1180
C:\Users\CYMR90~1\AppData\Local\Temp\ccmBQqfl.s:30959  .debug_str:00000000000248fc .LASF1181
C:\Users\CYMR90~1\AppData\Local\Temp\ccmBQqfl.s:32173  .debug_str:0000000000029788 .LASF1182
C:\Users\CYMR90~1\AppData\Local\Temp\ccmBQqfl.s:22544  .debug_str:000000000000302c .LASF1183
C:\Users\CYMR90~1\AppData\Local\Temp\ccmBQqfl.s:29567  .debug_str:000000000001f47e .LASF1184
C:\Users\CYMR90~1\AppData\Local\Temp\ccmBQqfl.s:30025  .debug_str:0000000000021067 .LASF1185
C:\Users\CYMR90~1\AppData\Local\Temp\ccmBQqfl.s:31197  .debug_str:0000000000025954 .LASF1186
C:\Users\CYMR90~1\AppData\Local\Temp\ccmBQqfl.s:22278  .debug_str:0000000000001f8b .LASF1187
C:\Users\CYMR90~1\AppData\Local\Temp\ccmBQqfl.s:23214  .debug_str:0000000000005b94 .LASF1188
C:\Users\CYMR90~1\AppData\Local\Temp\ccmBQqfl.s:30577  .debug_str:0000000000023204 .LASF1189
C:\Users\CYMR90~1\AppData\Local\Temp\ccmBQqfl.s:23744  .debug_str:0000000000007c78 .LASF1190
C:\Users\CYMR90~1\AppData\Local\Temp\ccmBQqfl.s:30557  .debug_str:0000000000023070 .LASF1191
C:\Users\CYMR90~1\AppData\Local\Temp\ccmBQqfl.s:24954  .debug_str:000000000000cbbc .LASF1192
C:\Users\CYMR90~1\AppData\Local\Temp\ccmBQqfl.s:30217  .debug_str:0000000000021c50 .LASF1193
C:\Users\CYMR90~1\AppData\Local\Temp\ccmBQqfl.s:25194  .debug_str:000000000000db06 .LASF1194
C:\Users\CYMR90~1\AppData\Local\Temp\ccmBQqfl.s:28759  .debug_str:000000000001c0b3 .LASF1195
C:\Users\CYMR90~1\AppData\Local\Temp\ccmBQqfl.s:26780  .debug_str:0000000000013fa9 .LASF1196
C:\Users\CYMR90~1\AppData\Local\Temp\ccmBQqfl.s:30251  .debug_str:0000000000021e6b .LASF1197
C:\Users\CYMR90~1\AppData\Local\Temp\ccmBQqfl.s:32423  .debug_str:000000000002a672 .LASF1198
C:\Users\CYMR90~1\AppData\Local\Temp\ccmBQqfl.s:27438  .debug_str:000000000001696b .LASF1199
C:\Users\CYMR90~1\AppData\Local\Temp\ccmBQqfl.s:32429  .debug_str:000000000002a6a8 .LASF1200
C:\Users\CYMR90~1\AppData\Local\Temp\ccmBQqfl.s:24442  .debug_str:000000000000a978 .LASF1201
C:\Users\CYMR90~1\AppData\Local\Temp\ccmBQqfl.s:24098  .debug_str:000000000000943a .LASF1202
C:\Users\CYMR90~1\AppData\Local\Temp\ccmBQqfl.s:27635  .debug_str:00000000000177af .LASF1203
C:\Users\CYMR90~1\AppData\Local\Temp\ccmBQqfl.s:31529  .debug_str:0000000000026e54 .LASF1204
C:\Users\CYMR90~1\AppData\Local\Temp\ccmBQqfl.s:26696  .debug_str:0000000000013a93 .LASF1205
C:\Users\CYMR90~1\AppData\Local\Temp\ccmBQqfl.s:25756  .debug_str:000000000000fd81 .LASF1206
C:\Users\CYMR90~1\AppData\Local\Temp\ccmBQqfl.s:32395  .debug_str:000000000002a4e7 .LASF1207
C:\Users\CYMR90~1\AppData\Local\Temp\ccmBQqfl.s:31049  .debug_str:0000000000024f24 .LASF1208
C:\Users\CYMR90~1\AppData\Local\Temp\ccmBQqfl.s:25682  .debug_str:000000000000f88d .LASF1209
C:\Users\CYMR90~1\AppData\Local\Temp\ccmBQqfl.s:23098  .debug_str:000000000000545c .LASF1210
C:\Users\CYMR90~1\AppData\Local\Temp\ccmBQqfl.s:23206  .debug_str:0000000000005b1a .LASF1211
C:\Users\CYMR90~1\AppData\Local\Temp\ccmBQqfl.s:23890  .debug_str:00000000000086ab .LASF1212
C:\Users\CYMR90~1\AppData\Local\Temp\ccmBQqfl.s:23492  .debug_str:0000000000006c2f .LASF1213
C:\Users\CYMR90~1\AppData\Local\Temp\ccmBQqfl.s:22392  .debug_str:0000000000002631 .LASF1214
C:\Users\CYMR90~1\AppData\Local\Temp\ccmBQqfl.s:24234  .debug_str:0000000000009ce2 .LASF1215
C:\Users\CYMR90~1\AppData\Local\Temp\ccmBQqfl.s:22336  .debug_str:00000000000022d0 .LASF1216
C:\Users\CYMR90~1\AppData\Local\Temp\ccmBQqfl.s:30669  .debug_str:00000000000236e1 .LASF1217
C:\Users\CYMR90~1\AppData\Local\Temp\ccmBQqfl.s:30683  .debug_str:0000000000023795 .LASF1218
C:\Users\CYMR90~1\AppData\Local\Temp\ccmBQqfl.s:31101  .debug_str:0000000000025299 .LASF1219
C:\Users\CYMR90~1\AppData\Local\Temp\ccmBQqfl.s:28651  .debug_str:000000000001ba4a .LASF1220
C:\Users\CYMR90~1\AppData\Local\Temp\ccmBQqfl.s:25242  .debug_str:000000000000ddcf .LASF1221
C:\Users\CYMR90~1\AppData\Local\Temp\ccmBQqfl.s:26954  .debug_str:0000000000014a82 .LASF1222
C:\Users\CYMR90~1\AppData\Local\Temp\ccmBQqfl.s:22564  .debug_str:000000000000316b .LASF1223
C:\Users\CYMR90~1\AppData\Local\Temp\ccmBQqfl.s:28377  .debug_str:000000000001a838 .LASF1224
C:\Users\CYMR90~1\AppData\Local\Temp\ccmBQqfl.s:31711  .debug_str:0000000000027a11 .LASF1225
C:\Users\CYMR90~1\AppData\Local\Temp\ccmBQqfl.s:24720  .debug_str:000000000000bc20 .LASF1226
C:\Users\CYMR90~1\AppData\Local\Temp\ccmBQqfl.s:23626  .debug_str:0000000000007518 .LASF1227
C:\Users\CYMR90~1\AppData\Local\Temp\ccmBQqfl.s:22664  .debug_str:00000000000037e4 .LASF1228
C:\Users\CYMR90~1\AppData\Local\Temp\ccmBQqfl.s:33111  .debug_str:000000000002d2e0 .LASF1229
C:\Users\CYMR90~1\AppData\Local\Temp\ccmBQqfl.s:32147  .debug_str:0000000000029612 .LASF1230
C:\Users\CYMR90~1\AppData\Local\Temp\ccmBQqfl.s:31163  .debug_str:0000000000025693 .LASF1231
C:\Users\CYMR90~1\AppData\Local\Temp\ccmBQqfl.s:30201  .debug_str:0000000000021b47 .LASF1232
C:\Users\CYMR90~1\AppData\Local\Temp\ccmBQqfl.s:30085  .debug_str:00000000000213f4 .LASF1233
C:\Users\CYMR90~1\AppData\Local\Temp\ccmBQqfl.s:29107  .debug_str:000000000001d816 .LASF1234
C:\Users\CYMR90~1\AppData\Local\Temp\ccmBQqfl.s:28155  .debug_str:000000000001987b .LASF1235
C:\Users\CYMR90~1\AppData\Local\Temp\ccmBQqfl.s:26846  .debug_str:00000000000143ae .LASF1236
C:\Users\CYMR90~1\AppData\Local\Temp\ccmBQqfl.s:26226  .debug_str:0000000000011bb6 .LASF1237
C:\Users\CYMR90~1\AppData\Local\Temp\ccmBQqfl.s:27533  .debug_str:00000000000171b2 .LASF1238
C:\Users\CYMR90~1\AppData\Local\Temp\ccmBQqfl.s:24308  .debug_str:000000000000a129 .LASF1239
C:\Users\CYMR90~1\AppData\Local\Temp\ccmBQqfl.s:23314  .debug_str:0000000000006164 .LASF1240
C:\Users\CYMR90~1\AppData\Local\Temp\ccmBQqfl.s:22352  .debug_str:00000000000023bc .LASF1241
C:\Users\CYMR90~1\AppData\Local\Temp\ccmBQqfl.s:32817  .debug_str:000000000002bf71 .LASF1242
C:\Users\CYMR90~1\AppData\Local\Temp\ccmBQqfl.s:21872  .debug_str:0000000000000524 .LASF1243
C:\Users\CYMR90~1\AppData\Local\Temp\ccmBQqfl.s:32293  .debug_str:0000000000029f16 .LASF1244
C:\Users\CYMR90~1\AppData\Local\Temp\ccmBQqfl.s:31317  .debug_str:0000000000026158 .LASF1245
C:\Users\CYMR90~1\AppData\Local\Temp\ccmBQqfl.s:30361  .debug_str:000000000002250f .LASF1246
C:\Users\CYMR90~1\AppData\Local\Temp\ccmBQqfl.s:29361  .debug_str:000000000001e829 .LASF1247
C:\Users\CYMR90~1\AppData\Local\Temp\ccmBQqfl.s:28439  .debug_str:000000000001ac54 .LASF1248
C:\Users\CYMR90~1\AppData\Local\Temp\ccmBQqfl.s:27488  .debug_str:0000000000016ca8 .LASF1249
C:\Users\CYMR90~1\AppData\Local\Temp\ccmBQqfl.s:32225  .debug_str:0000000000029af8 .LASF1250
C:\Users\CYMR90~1\AppData\Local\Temp\ccmBQqfl.s:25590  .debug_str:000000000000f2ce .LASF1251
C:\Users\CYMR90~1\AppData\Local\Temp\ccmBQqfl.s:27753  .debug_str:0000000000017f38 .LASF1252
C:\Users\CYMR90~1\AppData\Local\Temp\ccmBQqfl.s:25094  .debug_str:000000000000d475 .LASF1253
C:\Users\CYMR90~1\AppData\Local\Temp\ccmBQqfl.s:24112  .debug_str:00000000000094ff .LASF1254
C:\Users\CYMR90~1\AppData\Local\Temp\ccmBQqfl.s:22118  .debug_str:00000000000014a7 .LASF1255
C:\Users\CYMR90~1\AppData\Local\Temp\ccmBQqfl.s:25012  .debug_str:000000000000cf56 .LASF1256
C:\Users\CYMR90~1\AppData\Local\Temp\ccmBQqfl.s:23268  .debug_str:0000000000005ee5 .LASF1257
C:\Users\CYMR90~1\AppData\Local\Temp\ccmBQqfl.s:28025  .debug_str:0000000000018fee .LASF1258
C:\Users\CYMR90~1\AppData\Local\Temp\ccmBQqfl.s:28027  .debug_str:0000000000019001 .LASF1259
C:\Users\CYMR90~1\AppData\Local\Temp\ccmBQqfl.s:30561  .debug_str:00000000000230a0 .LASF1260
C:\Users\CYMR90~1\AppData\Local\Temp\ccmBQqfl.s:28645  .debug_str:000000000001ba03 .LASF1261
C:\Users\CYMR90~1\AppData\Local\Temp\ccmBQqfl.s:26034  .debug_str:000000000001101b .LASF1262
C:\Users\CYMR90~1\AppData\Local\Temp\ccmBQqfl.s:23160  .debug_str:000000000000584d .LASF1263
C:\Users\CYMR90~1\AppData\Local\Temp\ccmBQqfl.s:25326  .debug_str:000000000000e2c1 .LASF1264
C:\Users\CYMR90~1\AppData\Local\Temp\ccmBQqfl.s:27510  .debug_str:0000000000016e94 .LASF1265
C:\Users\CYMR90~1\AppData\Local\Temp\ccmBQqfl.s:29333  .debug_str:000000000001e68f .LASF1266
C:\Users\CYMR90~1\AppData\Local\Temp\ccmBQqfl.s:30589  .debug_str:00000000000232a7 .LASF1267
C:\Users\CYMR90~1\AppData\Local\Temp\ccmBQqfl.s:30757  .debug_str:0000000000023c3c .LASF1268
C:\Users\CYMR90~1\AppData\Local\Temp\ccmBQqfl.s:26166  .debug_str:0000000000011726 .LASF1269
C:\Users\CYMR90~1\AppData\Local\Temp\ccmBQqfl.s:32869  .debug_str:000000000002c28a .LASF1270
C:\Users\CYMR90~1\AppData\Local\Temp\ccmBQqfl.s:27755  .debug_str:0000000000017f4f .LASF1271
C:\Users\CYMR90~1\AppData\Local\Temp\ccmBQqfl.s:32255  .debug_str:0000000000029ce4 .LASF1272
C:\Users\CYMR90~1\AppData\Local\Temp\ccmBQqfl.s:29231  .debug_str:000000000001dfe8 .LASF1273
C:\Users\CYMR90~1\AppData\Local\Temp\ccmBQqfl.s:21932  .debug_str:00000000000008bc .LASF1274
C:\Users\CYMR90~1\AppData\Local\Temp\ccmBQqfl.s:28035  .debug_str:0000000000019066 .LASF1275
C:\Users\CYMR90~1\AppData\Local\Temp\ccmBQqfl.s:22044  .debug_str:000000000000105f .LASF1276
C:\Users\CYMR90~1\AppData\Local\Temp\ccmBQqfl.s:24330  .debug_str:000000000000a295 .LASF1277
C:\Users\CYMR90~1\AppData\Local\Temp\ccmBQqfl.s:23334  .debug_str:0000000000006290 .LASF1278
C:\Users\CYMR90~1\AppData\Local\Temp\ccmBQqfl.s:22380  .debug_str:0000000000002563 .LASF1279
C:\Users\CYMR90~1\AppData\Local\Temp\ccmBQqfl.s:32837  .debug_str:000000000002c089 .LASF1280
C:\Users\CYMR90~1\AppData\Local\Temp\ccmBQqfl.s:23224  .debug_str:0000000000005c36 .LASF1281
C:\Users\CYMR90~1\AppData\Local\Temp\ccmBQqfl.s:22266  .debug_str:0000000000001ed0 .LASF1282
C:\Users\CYMR90~1\AppData\Local\Temp\ccmBQqfl.s:29401  .debug_str:000000000001ea9e .LASF1283
C:\Users\CYMR90~1\AppData\Local\Temp\ccmBQqfl.s:31743  .debug_str:0000000000027bc3 .LASF1284
C:\Users\CYMR90~1\AppData\Local\Temp\ccmBQqfl.s:30781  .debug_str:0000000000023df2 .LASF1285
C:\Users\CYMR90~1\AppData\Local\Temp\ccmBQqfl.s:29803  .debug_str:000000000002030f .LASF1286
C:\Users\CYMR90~1\AppData\Local\Temp\ccmBQqfl.s:28823  .debug_str:000000000001c4eb .LASF1287
C:\Users\CYMR90~1\AppData\Local\Temp\ccmBQqfl.s:27863  .debug_str:00000000000185c0 .LASF1288
C:\Users\CYMR90~1\AppData\Local\Temp\ccmBQqfl.s:26890  .debug_str:000000000001464a .LASF1289
C:\Users\CYMR90~1\AppData\Local\Temp\ccmBQqfl.s:25960  .debug_str:0000000000010adf .LASF1290
C:\Users\CYMR90~1\AppData\Local\Temp\ccmBQqfl.s:30307  .debug_str:00000000000221d7 .LASF1291
C:\Users\CYMR90~1\AppData\Local\Temp\ccmBQqfl.s:29311  .debug_str:000000000001e53d .LASF1292
C:\Users\CYMR90~1\AppData\Local\Temp\ccmBQqfl.s:28375  .debug_str:000000000001a824 .LASF1293
C:\Users\CYMR90~1\AppData\Local\Temp\ccmBQqfl.s:27370  .debug_str:00000000000164f1 .LASF1294
C:\Users\CYMR90~1\AppData\Local\Temp\ccmBQqfl.s:26454  .debug_str:0000000000012aa2 .LASF1295
C:\Users\CYMR90~1\AppData\Local\Temp\ccmBQqfl.s:25482  .debug_str:000000000000ec6f .LASF1296
C:\Users\CYMR90~1\AppData\Local\Temp\ccmBQqfl.s:24854  .debug_str:000000000000c512 .LASF1297
C:\Users\CYMR90~1\AppData\Local\Temp\ccmBQqfl.s:29767  .debug_str:00000000000200e8 .LASF1298
C:\Users\CYMR90~1\AppData\Local\Temp\ccmBQqfl.s:28797  .debug_str:000000000001c357 .LASF1299
C:\Users\CYMR90~1\AppData\Local\Temp\ccmBQqfl.s:27831  .debug_str:00000000000183bc .LASF1300
C:\Users\CYMR90~1\AppData\Local\Temp\ccmBQqfl.s:28769  .debug_str:000000000001c160 .LASF1301
C:\Users\CYMR90~1\AppData\Local\Temp\ccmBQqfl.s:27613  .debug_str:0000000000017681 .LASF1302
C:\Users\CYMR90~1\AppData\Local\Temp\ccmBQqfl.s:27414  .debug_str:0000000000016788 .LASF1303
C:\Users\CYMR90~1\AppData\Local\Temp\ccmBQqfl.s:28291  .debug_str:000000000001a167 .LASF1304
C:\Users\CYMR90~1\AppData\Local\Temp\ccmBQqfl.s:28263  .debug_str:0000000000019fc4 .LASF1305
C:\Users\CYMR90~1\AppData\Local\Temp\ccmBQqfl.s:24004  .debug_str:0000000000008e36 .LASF1306
C:\Users\CYMR90~1\AppData\Local\Temp\ccmBQqfl.s:23004  .debug_str:0000000000004ebe .LASF1307
C:\Users\CYMR90~1\AppData\Local\Temp\ccmBQqfl.s:22056  .debug_str:00000000000010f0 .LASF1308
C:\Users\CYMR90~1\AppData\Local\Temp\ccmBQqfl.s:32497  .debug_str:000000000002ab1c .LASF1309
C:\Users\CYMR90~1\AppData\Local\Temp\ccmBQqfl.s:31525  .debug_str:0000000000026e19 .LASF1310
C:\Users\CYMR90~1\AppData\Local\Temp\ccmBQqfl.s:30565  .debug_str:00000000000230ce .LASF1311
C:\Users\CYMR90~1\AppData\Local\Temp\ccmBQqfl.s:29557  .debug_str:000000000001f409 .LASF1312
C:\Users\CYMR90~1\AppData\Local\Temp\ccmBQqfl.s:25338  .debug_str:000000000000e37a .LASF1313
C:\Users\CYMR90~1\AppData\Local\Temp\ccmBQqfl.s:26610  .debug_str:00000000000134bd .LASF1314
C:\Users\CYMR90~1\AppData\Local\Temp\ccmBQqfl.s:32713  .debug_str:000000000002b85e .LASF1315
C:\Users\CYMR90~1\AppData\Local\Temp\ccmBQqfl.s:31239  .debug_str:0000000000025bf8 .LASF1316
C:\Users\CYMR90~1\AppData\Local\Temp\ccmBQqfl.s:30773  .debug_str:0000000000023d56 .LASF1317
C:\Users\CYMR90~1\AppData\Local\Temp\ccmBQqfl.s:29795  .debug_str:00000000000202a2 .LASF1318
C:\Users\CYMR90~1\AppData\Local\Temp\ccmBQqfl.s:28833  .debug_str:000000000001c589 .LASF1319
C:\Users\CYMR90~1\AppData\Local\Temp\ccmBQqfl.s:27873  .debug_str:000000000001866e .LASF1320
C:\Users\CYMR90~1\AppData\Local\Temp\ccmBQqfl.s:26900  .debug_str:00000000000146c0 .LASF1321
C:\Users\CYMR90~1\AppData\Local\Temp\ccmBQqfl.s:25968  .debug_str:0000000000010b66 .LASF1322
C:\Users\CYMR90~1\AppData\Local\Temp\ccmBQqfl.s:26426  .debug_str:00000000000128c3 .LASF1323
C:\Users\CYMR90~1\AppData\Local\Temp\ccmBQqfl.s:24858  .debug_str:000000000000c537 .LASF1324
C:\Users\CYMR90~1\AppData\Local\Temp\ccmBQqfl.s:24494  .debug_str:000000000000accf .LASF1325
C:\Users\CYMR90~1\AppData\Local\Temp\ccmBQqfl.s:23500  .debug_str:0000000000006ccb .LASF1326
C:\Users\CYMR90~1\AppData\Local\Temp\ccmBQqfl.s:22524  .debug_str:0000000000002efc .LASF1327
C:\Users\CYMR90~1\AppData\Local\Temp\ccmBQqfl.s:32993  .debug_str:000000000002cae2 .LASF1328
C:\Users\CYMR90~1\AppData\Local\Temp\ccmBQqfl.s:32063  .debug_str:0000000000029119 .LASF1329
C:\Users\CYMR90~1\AppData\Local\Temp\ccmBQqfl.s:31083  .debug_str:000000000002515f .LASF1330
C:\Users\CYMR90~1\AppData\Local\Temp\ccmBQqfl.s:30127  .debug_str:0000000000021652 .LASF1331
C:\Users\CYMR90~1\AppData\Local\Temp\ccmBQqfl.s:29141  .debug_str:000000000001da5d .LASF1332
C:\Users\CYMR90~1\AppData\Local\Temp\ccmBQqfl.s:29589  .debug_str:000000000001f5f7 .LASF1333
C:\Users\CYMR90~1\AppData\Local\Temp\ccmBQqfl.s:28659  .debug_str:000000000001bacd .LASF1334
C:\Users\CYMR90~1\AppData\Local\Temp\ccmBQqfl.s:27334  .debug_str:00000000000162a2 .LASF1335
C:\Users\CYMR90~1\AppData\Local\Temp\ccmBQqfl.s:25008  .debug_str:000000000000cf2b .LASF1336
C:\Users\CYMR90~1\AppData\Local\Temp\ccmBQqfl.s:29811  .debug_str:000000000002036e .LASF1337
C:\Users\CYMR90~1\AppData\Local\Temp\ccmBQqfl.s:26306  .debug_str:0000000000012108 .LASF1338
C:\Users\CYMR90~1\AppData\Local\Temp\ccmBQqfl.s:22162  .debug_str:00000000000017c2 .LASF1339
C:\Users\CYMR90~1\AppData\Local\Temp\ccmBQqfl.s:24280  .debug_str:0000000000009fa0 .LASF1340
C:\Users\CYMR90~1\AppData\Local\Temp\ccmBQqfl.s:23284  .debug_str:0000000000005fb3 .LASF1341
C:\Users\CYMR90~1\AppData\Local\Temp\ccmBQqfl.s:22322  .debug_str:00000000000021ec .LASF1342
C:\Users\CYMR90~1\AppData\Local\Temp\ccmBQqfl.s:32793  .debug_str:000000000002bda4 .LASF1343
C:\Users\CYMR90~1\AppData\Local\Temp\ccmBQqfl.s:32585  .debug_str:000000000002b034 .LASF1344
C:\Users\CYMR90~1\AppData\Local\Temp\ccmBQqfl.s:31609  .debug_str:000000000002731d .LASF1345
C:\Users\CYMR90~1\AppData\Local\Temp\ccmBQqfl.s:30649  .debug_str:00000000000235ea .LASF1346
C:\Users\CYMR90~1\AppData\Local\Temp\ccmBQqfl.s:29647  .debug_str:000000000001f982 .LASF1347
C:\Users\CYMR90~1\AppData\Local\Temp\ccmBQqfl.s:28703  .debug_str:000000000001bd5e .LASF1348
C:\Users\CYMR90~1\AppData\Local\Temp\ccmBQqfl.s:29223  .debug_str:000000000001df86 .LASF1349
C:\Users\CYMR90~1\AppData\Local\Temp\ccmBQqfl.s:26772  .debug_str:0000000000013f3b .LASF1350
C:\Users\CYMR90~1\AppData\Local\Temp\ccmBQqfl.s:29955  .debug_str:0000000000020c3d .LASF1351
C:\Users\CYMR90~1\AppData\Local\Temp\ccmBQqfl.s:24872  .debug_str:000000000000c63d .LASF1352
C:\Users\CYMR90~1\AppData\Local\Temp\ccmBQqfl.s:23786  .debug_str:0000000000007f61 .LASF1353
C:\Users\CYMR90~1\AppData\Local\Temp\ccmBQqfl.s:24362  .debug_str:000000000000a49e .LASF1354
C:\Users\CYMR90~1\AppData\Local\Temp\ccmBQqfl.s:23362  .debug_str:0000000000006456 .LASF1355
C:\Users\CYMR90~1\AppData\Local\Temp\ccmBQqfl.s:22404  .debug_str:00000000000026d1 .LASF1356
C:\Users\CYMR90~1\AppData\Local\Temp\ccmBQqfl.s:32865  .debug_str:000000000002c26a .LASF1357
C:\Users\CYMR90~1\AppData\Local\Temp\ccmBQqfl.s:26858  .debug_str:0000000000014476 .LASF1358
C:\Users\CYMR90~1\AppData\Local\Temp\ccmBQqfl.s:23494  .debug_str:0000000000006c73 .LASF1359
C:\Users\CYMR90~1\AppData\Local\Temp\ccmBQqfl.s:30005  .debug_str:0000000000020f29 .LASF1360
C:\Users\CYMR90~1\AppData\Local\Temp\ccmBQqfl.s:28931  .debug_str:000000000001cb51 .LASF1361
C:\Users\CYMR90~1\AppData\Local\Temp\ccmBQqfl.s:27967  .debug_str:0000000000018c1b .LASF1362
C:\Users\CYMR90~1\AppData\Local\Temp\ccmBQqfl.s:32027  .debug_str:0000000000028f20 .LASF1363
C:\Users\CYMR90~1\AppData\Local\Temp\ccmBQqfl.s:27258  .debug_str:0000000000015d26 .LASF1364
C:\Users\CYMR90~1\AppData\Local\Temp\ccmBQqfl.s:23908  .debug_str:00000000000087af .LASF1365
C:\Users\CYMR90~1\AppData\Local\Temp\ccmBQqfl.s:31635  .debug_str:00000000000274b0 .LASF1366
C:\Users\CYMR90~1\AppData\Local\Temp\ccmBQqfl.s:30879  .debug_str:000000000002438f .LASF1367
C:\Users\CYMR90~1\AppData\Local\Temp\ccmBQqfl.s:29893  .debug_str:000000000002083a .LASF1368
C:\Users\CYMR90~1\AppData\Local\Temp\ccmBQqfl.s:28129  .debug_str:00000000000196ba .LASF1369
C:\Users\CYMR90~1\AppData\Local\Temp\ccmBQqfl.s:26012  .debug_str:0000000000010e1e .LASF1370
C:\Users\CYMR90~1\AppData\Local\Temp\ccmBQqfl.s:29151  .debug_str:000000000001dae8 .LASF1371
C:\Users\CYMR90~1\AppData\Local\Temp\ccmBQqfl.s:22448  .debug_str:0000000000002a03 .LASF1372
C:\Users\CYMR90~1\AppData\Local\Temp\ccmBQqfl.s:25050  .debug_str:000000000000d19e .LASF1373
C:\Users\CYMR90~1\AppData\Local\Temp\ccmBQqfl.s:28175  .debug_str:000000000001997e .LASF1374
C:\Users\CYMR90~1\AppData\Local\Temp\ccmBQqfl.s:31307  .debug_str:00000000000260c5 .LASF1375
C:\Users\CYMR90~1\AppData\Local\Temp\ccmBQqfl.s:23032  .debug_str:0000000000005066 .LASF1376
C:\Users\CYMR90~1\AppData\Local\Temp\ccmBQqfl.s:26214  .debug_str:0000000000011a4a .LASF1377
C:\Users\CYMR90~1\AppData\Local\Temp\ccmBQqfl.s:29317  .debug_str:000000000001e59f .LASF1378
C:\Users\CYMR90~1\AppData\Local\Temp\ccmBQqfl.s:32493  .debug_str:000000000002aadf .LASF1379
C:\Users\CYMR90~1\AppData\Local\Temp\ccmBQqfl.s:32461  .debug_str:000000000002a8be .LASF1380
C:\Users\CYMR90~1\AppData\Local\Temp\ccmBQqfl.s:24124  .debug_str:00000000000095af .LASF1381
C:\Users\CYMR90~1\AppData\Local\Temp\ccmBQqfl.s:27230  .debug_str:0000000000015b8a .LASF1382
C:\Users\CYMR90~1\AppData\Local\Temp\ccmBQqfl.s:30409  .debug_str:00000000000227c7 .LASF1383
C:\Users\CYMR90~1\AppData\Local\Temp\ccmBQqfl.s:22134  .debug_str:0000000000001562 .LASF1384
C:\Users\CYMR90~1\AppData\Local\Temp\ccmBQqfl.s:26680  .debug_str:0000000000013988 .LASF1385
C:\Users\CYMR90~1\AppData\Local\Temp\ccmBQqfl.s:28473  .debug_str:000000000001ae7e .LASF1386
C:\Users\CYMR90~1\AppData\Local\Temp\ccmBQqfl.s:31599  .debug_str:0000000000027261 .LASF1387
C:\Users\CYMR90~1\AppData\Local\Temp\ccmBQqfl.s:23320  .debug_str:00000000000061c7 .LASF1388
C:\Users\CYMR90~1\AppData\Local\Temp\ccmBQqfl.s:26410  .debug_str:00000000000127c2 .LASF1389
C:\Users\CYMR90~1\AppData\Local\Temp\ccmBQqfl.s:25760  .debug_str:000000000000fda1 .LASF1390
C:\Users\CYMR90~1\AppData\Local\Temp\ccmBQqfl.s:28779  .debug_str:000000000001c21b .LASF1391
C:\Users\CYMR90~1\AppData\Local\Temp\ccmBQqfl.s:31929  .debug_str:00000000000288ca .LASF1392
C:\Users\CYMR90~1\AppData\Local\Temp\ccmBQqfl.s:23664  .debug_str:0000000000007743 .LASF1393
C:\Users\CYMR90~1\AppData\Local\Temp\ccmBQqfl.s:26798  .debug_str:00000000000140b0 .LASF1394
C:\Users\CYMR90~1\AppData\Local\Temp\ccmBQqfl.s:22746  .debug_str:0000000000003d28 .LASF1395
C:\Users\CYMR90~1\AppData\Local\Temp\ccmBQqfl.s:33169  .debug_str:000000000002d65a .LASF1396
C:\Users\CYMR90~1\AppData\Local\Temp\ccmBQqfl.s:24928  .debug_str:000000000000c989 .LASF1397
C:\Users\CYMR90~1\AppData\Local\Temp\ccmBQqfl.s:29535  .debug_str:000000000001f2c3 .LASF1398
C:\Users\CYMR90~1\AppData\Local\Temp\ccmBQqfl.s:26116  .debug_str:0000000000011452 .LASF1399
C:\Users\CYMR90~1\AppData\Local\Temp\ccmBQqfl.s:27396  .debug_str:0000000000016675 .LASF1400
C:\Users\CYMR90~1\AppData\Local\Temp\ccmBQqfl.s:22090  .debug_str:00000000000012f3 .LASF1401
C:\Users\CYMR90~1\AppData\Local\Temp\ccmBQqfl.s:29875  .debug_str:000000000002075d .LASF1402
C:\Users\CYMR90~1\AppData\Local\Temp\ccmBQqfl.s:24756  .debug_str:000000000000be8b .LASF1403
C:\Users\CYMR90~1\AppData\Local\Temp\ccmBQqfl.s:29639  .debug_str:000000000001f914 .LASF1404
C:\Users\CYMR90~1\AppData\Local\Temp\ccmBQqfl.s:22818  .debug_str:00000000000041f1 .LASF1405
C:\Users\CYMR90~1\AppData\Local\Temp\ccmBQqfl.s:32419  .debug_str:000000000002a622 .LASF1406
C:\Users\CYMR90~1\AppData\Local\Temp\ccmBQqfl.s:30609  .debug_str:00000000000233b0 .LASF1407
C:\Users\CYMR90~1\AppData\Local\Temp\ccmBQqfl.s:30761  .debug_str:0000000000023c6e .LASF1408
C:\Users\CYMR90~1\AppData\Local\Temp\ccmBQqfl.s:22478  .debug_str:0000000000002bef .LASF1409
C:\Users\CYMR90~1\AppData\Local\Temp\ccmBQqfl.s:25664  .debug_str:000000000000f779 .LASF1410
C:\Users\CYMR90~1\AppData\Local\Temp\ccmBQqfl.s:32165  .debug_str:0000000000029724 .LASF1411
C:\Users\CYMR90~1\AppData\Local\Temp\ccmBQqfl.s:23896  .debug_str:0000000000008700 .LASF1412
C:\Users\CYMR90~1\AppData\Local\Temp\ccmBQqfl.s:27024  .debug_str:0000000000014ec9 .LASF1413
C:\Users\CYMR90~1\AppData\Local\Temp\ccmBQqfl.s:30185  .debug_str:0000000000021a42 .LASF1414
C:\Users\CYMR90~1\AppData\Local\Temp\ccmBQqfl.s:21934  .debug_str:00000000000008cf .LASF1415
C:\Users\CYMR90~1\AppData\Local\Temp\ccmBQqfl.s:25018  .debug_str:000000000000cf96 .LASF1416
C:\Users\CYMR90~1\AppData\Local\Temp\ccmBQqfl.s:31547  .debug_str:0000000000026f74 .LASF1417
C:\Users\CYMR90~1\AppData\Local\Temp\ccmBQqfl.s:29703  .debug_str:000000000001fd20 .LASF1418
C:\Users\CYMR90~1\AppData\Local\Temp\ccmBQqfl.s:23012  .debug_str:0000000000004f28 .LASF1419
C:\Users\CYMR90~1\AppData\Local\Temp\ccmBQqfl.s:26102  .debug_str:0000000000011379 .LASF1420
C:\Users\CYMR90~1\AppData\Local\Temp\ccmBQqfl.s:25436  .debug_str:000000000000e984 .LASF1421
C:\Users\CYMR90~1\AppData\Local\Temp\ccmBQqfl.s:28589  .debug_str:000000000001b654 .LASF1422
C:\Users\CYMR90~1\AppData\Local\Temp\ccmBQqfl.s:31709  .debug_str:00000000000279f8 .LASF1423
C:\Users\CYMR90~1\AppData\Local\Temp\ccmBQqfl.s:22548  .debug_str:0000000000003065 .LASF1424
C:\Users\CYMR90~1\AppData\Local\Temp\ccmBQqfl.s:26614  .debug_str:00000000000134eb .LASF1425
C:\Users\CYMR90~1\AppData\Local\Temp\ccmBQqfl.s:29631  .debug_str:000000000001f87b .LASF1426
C:\Users\CYMR90~1\AppData\Local\Temp\ccmBQqfl.s:32875  .debug_str:000000000002c35d .LASF1427
C:\Users\CYMR90~1\AppData\Local\Temp\ccmBQqfl.s:24624  .debug_str:000000000000b559 .LASF1428
C:\Users\CYMR90~1\AppData\Local\Temp\ccmBQqfl.s:27731  .debug_str:0000000000017def .LASF1429
C:\Users\CYMR90~1\AppData\Local\Temp\ccmBQqfl.s:30887  .debug_str:00000000000243f8 .LASF1430
C:\Users\CYMR90~1\AppData\Local\Temp\ccmBQqfl.s:30143  .debug_str:0000000000021739 .LASF1431
C:\Users\CYMR90~1\AppData\Local\Temp\ccmBQqfl.s:21896  .debug_str:0000000000000698 .LASF1432
C:\Users\CYMR90~1\AppData\Local\Temp\ccmBQqfl.s:26146  .debug_str:000000000001160c .LASF1433
C:\Users\CYMR90~1\AppData\Local\Temp\ccmBQqfl.s:29879  .debug_str:0000000000020787 .LASF1434
C:\Users\CYMR90~1\AppData\Local\Temp\ccmBQqfl.s:28897  .debug_str:000000000001c95b .LASF1435
C:\Users\CYMR90~1\AppData\Local\Temp\ccmBQqfl.s:27935  .debug_str:00000000000189fa .LASF1436
C:\Users\CYMR90~1\AppData\Local\Temp\ccmBQqfl.s:32723  .debug_str:000000000002b8fd .LASF1437
C:\Users\CYMR90~1\AppData\Local\Temp\ccmBQqfl.s:31741  .debug_str:0000000000027baf .LASF1438
C:\Users\CYMR90~1\AppData\Local\Temp\ccmBQqfl.s:30779  .debug_str:0000000000023dde .LASF1439
C:\Users\CYMR90~1\AppData\Local\Temp\ccmBQqfl.s:29801  .debug_str:00000000000202fb .LASF1440
C:\Users\CYMR90~1\AppData\Local\Temp\ccmBQqfl.s:28821  .debug_str:000000000001c4d7 .LASF1441
C:\Users\CYMR90~1\AppData\Local\Temp\ccmBQqfl.s:27861  .debug_str:00000000000185ac .LASF1442
C:\Users\CYMR90~1\AppData\Local\Temp\ccmBQqfl.s:26888  .debug_str:0000000000014636 .LASF1443
C:\Users\CYMR90~1\AppData\Local\Temp\ccmBQqfl.s:25958  .debug_str:0000000000010acb .LASF1444
C:\Users\CYMR90~1\AppData\Local\Temp\ccmBQqfl.s:32833  .debug_str:000000000002c051 .LASF1445
C:\Users\CYMR90~1\AppData\Local\Temp\ccmBQqfl.s:24012  .debug_str:0000000000008e9a .LASF1446
C:\Users\CYMR90~1\AppData\Local\Temp\ccmBQqfl.s:25574  .debug_str:000000000000f1f1 .LASF1447
C:\Users\CYMR90~1\AppData\Local\Temp\ccmBQqfl.s:31117  .debug_str:0000000000025395 .LASF1448
C:\Users\CYMR90~1\AppData\Local\Temp\ccmBQqfl.s:30161  .debug_str:0000000000021835 .LASF1449
C:\Users\CYMR90~1\AppData\Local\Temp\ccmBQqfl.s:29163  .debug_str:000000000001dbfe .LASF1450
C:\Users\CYMR90~1\AppData\Local\Temp\ccmBQqfl.s:28217  .debug_str:0000000000019d09 .LASF1451
C:\Users\CYMR90~1\AppData\Local\Temp\ccmBQqfl.s:27228  .debug_str:0000000000015b75 .LASF1452
C:\Users\CYMR90~1\AppData\Local\Temp\ccmBQqfl.s:24622  .debug_str:000000000000b546 .LASF1453
C:\Users\CYMR90~1\AppData\Local\Temp\ccmBQqfl.s:23230  .debug_str:0000000000005c76 .LASF1454
C:\Users\CYMR90~1\AppData\Local\Temp\ccmBQqfl.s:24424  .debug_str:000000000000a895 .LASF1455
C:\Users\CYMR90~1\AppData\Local\Temp\ccmBQqfl.s:29539  .debug_str:000000000001f305 .LASF1456
C:\Users\CYMR90~1\AppData\Local\Temp\ccmBQqfl.s:23942  .debug_str:00000000000089a3 .LASF1457
C:\Users\CYMR90~1\AppData\Local\Temp\ccmBQqfl.s:22980  .debug_str:0000000000004d2a .LASF1458
C:\Users\CYMR90~1\AppData\Local\Temp\ccmBQqfl.s:29625  .debug_str:000000000001f82d .LASF1459
C:\Users\CYMR90~1\AppData\Local\Temp\ccmBQqfl.s:26430  .debug_str:0000000000012904 .LASF1460
C:\Users\CYMR90~1\AppData\Local\Temp\ccmBQqfl.s:24534  .debug_str:000000000000af36 .LASF1461
C:\Users\CYMR90~1\AppData\Local\Temp\ccmBQqfl.s:25720  .debug_str:000000000000fb79 .LASF1462
C:\Users\CYMR90~1\AppData\Local\Temp\ccmBQqfl.s:26220  .debug_str:0000000000011b25 .LASF1463
C:\Users\CYMR90~1\AppData\Local\Temp\ccmBQqfl.s:27288  .debug_str:0000000000015f41 .LASF1464
C:\Users\CYMR90~1\AppData\Local\Temp\ccmBQqfl.s:32609  .debug_str:000000000002b1ca .LASF1465
C:\Users\CYMR90~1\AppData\Local\Temp\ccmBQqfl.s:28485  .debug_str:000000000001af6e .LASF1466
C:\Users\CYMR90~1\AppData\Local\Temp\ccmBQqfl.s:26892  .debug_str:000000000001465d .LASF1467
C:\Users\CYMR90~1\AppData\Local\Temp\ccmBQqfl.s:31627  .debug_str:0000000000027439 .LASF1468
C:\Users\CYMR90~1\AppData\Local\Temp\ccmBQqfl.s:25894  .debug_str:000000000001066a .LASF1469
C:\Users\CYMR90~1\AppData\Local\Temp\ccmBQqfl.s:23968  .debug_str:0000000000008c14 .LASF1470
C:\Users\CYMR90~1\AppData\Local\Temp\ccmBQqfl.s:26196  .debug_str:0000000000011931 .LASF1471
C:\Users\CYMR90~1\AppData\Local\Temp\ccmBQqfl.s:27757  .debug_str:0000000000017f62 .LASF1472
C:\Users\CYMR90~1\AppData\Local\Temp\ccmBQqfl.s:31073  .debug_str:00000000000250bd .LASF1473
C:\Users\CYMR90~1\AppData\Local\Temp\ccmBQqfl.s:31715  .debug_str:0000000000027a49 .LASF1474
C:\Users\CYMR90~1\AppData\Local\Temp\ccmBQqfl.s:21988  .debug_str:0000000000000c9a .LASF1475
C:\Users\CYMR90~1\AppData\Local\Temp\ccmBQqfl.s:23898  .debug_str:0000000000008719 .LASF1476
C:\Users\CYMR90~1\AppData\Local\Temp\ccmBQqfl.s:22502  .debug_str:0000000000002d9b .LASF1477
C:\Users\CYMR90~1\AppData\Local\Temp\ccmBQqfl.s:31895  .debug_str:000000000002860f .LASF1478
C:\Users\CYMR90~1\AppData\Local\Temp\ccmBQqfl.s:30923  .debug_str:00000000000246a6 .LASF1479
C:\Users\CYMR90~1\AppData\Local\Temp\ccmBQqfl.s:28525  .debug_str:000000000001b1ca .LASF1480
C:\Users\CYMR90~1\AppData\Local\Temp\ccmBQqfl.s:24880  .debug_str:000000000000c699 .LASF1481
C:\Users\CYMR90~1\AppData\Local\Temp\ccmBQqfl.s:28261  .debug_str:0000000000019fb0 .LASF1482
C:\Users\CYMR90~1\AppData\Local\Temp\ccmBQqfl.s:24210  .debug_str:0000000000009b47 .LASF1483
C:\Users\CYMR90~1\AppData\Local\Temp\ccmBQqfl.s:23018  .debug_str:0000000000004f81 .LASF1484
C:\Users\CYMR90~1\AppData\Local\Temp\ccmBQqfl.s:25446  .debug_str:000000000000ea12 .LASF1485
C:\Users\CYMR90~1\AppData\Local\Temp\ccmBQqfl.s:26856  .debug_str:0000000000014463 .LASF1486
C:\Users\CYMR90~1\AppData\Local\Temp\ccmBQqfl.s:28469  .debug_str:000000000001ae4f .LASF1487
C:\Users\CYMR90~1\AppData\Local\Temp\ccmBQqfl.s:21820  .debug_str:0000000000000210 .LASF1488
C:\Users\CYMR90~1\AppData\Local\Temp\ccmBQqfl.s:27246  .debug_str:0000000000015c72 .LASF1489
C:\Users\CYMR90~1\AppData\Local\Temp\ccmBQqfl.s:25248  .debug_str:000000000000de0d .LASF1490
C:\Users\CYMR90~1\AppData\Local\Temp\ccmBQqfl.s:32129  .debug_str:0000000000029513 .LASF1491
C:\Users\CYMR90~1\AppData\Local\Temp\ccmBQqfl.s:22472  .debug_str:0000000000002b88 .LASF1492
C:\Users\CYMR90~1\AppData\Local\Temp\ccmBQqfl.s:30115  .debug_str:00000000000215a8 .LASF1493
C:\Users\CYMR90~1\AppData\Local\Temp\ccmBQqfl.s:32345  .debug_str:000000000002a21e .LASF1494
C:\Users\CYMR90~1\AppData\Local\Temp\ccmBQqfl.s:23650  .debug_str:000000000000768b .LASF1495
C:\Users\CYMR90~1\AppData\Local\Temp\ccmBQqfl.s:31397  .debug_str:0000000000026664 .LASF1496
C:\Users\CYMR90~1\AppData\Local\Temp\ccmBQqfl.s:32101  .debug_str:0000000000029346 .LASF1497
C:\Users\CYMR90~1\AppData\Local\Temp\ccmBQqfl.s:23454  .debug_str:00000000000069b2 .LASF1498
C:\Users\CYMR90~1\AppData\Local\Temp\ccmBQqfl.s:24304  .debug_str:000000000000a0f0 .LASF1499
C:\Users\CYMR90~1\AppData\Local\Temp\ccmBQqfl.s:33043  .debug_str:000000000002ce42 .LASF1500
C:\Users\CYMR90~1\AppData\Local\Temp\ccmBQqfl.s:32265  .debug_str:0000000000029d71 .LASF1501
C:\Users\CYMR90~1\AppData\Local\Temp\ccmBQqfl.s:30015  .debug_str:0000000000020fe2 .LASF1502
C:\Users\CYMR90~1\AppData\Local\Temp\ccmBQqfl.s:23434  .debug_str:0000000000006881 .LASF1503
C:\Users\CYMR90~1\AppData\Local\Temp\ccmBQqfl.s:24988  .debug_str:000000000000cdcd .LASF1504
C:\Users\CYMR90~1\AppData\Local\Temp\ccmBQqfl.s:29371  .debug_str:000000000001e8b4 .LASF1505
C:\Users\CYMR90~1\AppData\Local\Temp\ccmBQqfl.s:28681  .debug_str:000000000001bc25 .LASF1506
C:\Users\CYMR90~1\AppData\Local\Temp\ccmBQqfl.s:25568  .debug_str:000000000000f1a1 .LASF1507
C:\Users\CYMR90~1\AppData\Local\Temp\ccmBQqfl.s:30219  .debug_str:0000000000021c5b .LASF1508
C:\Users\CYMR90~1\AppData\Local\Temp\ccmBQqfl.s:26376  .debug_str:000000000001257c .LASF1509
C:\Users\CYMR90~1\AppData\Local\Temp\ccmBQqfl.s:31999  .debug_str:0000000000028d62 .LASF1510
C:\Users\CYMR90~1\AppData\Local\Temp\ccmBQqfl.s:30795  .debug_str:0000000000023ecd .LASF1511
C:\Users\CYMR90~1\AppData\Local\Temp\ccmBQqfl.s:22674  .debug_str:000000000000386e .LASF1512
C:\Users\CYMR90~1\AppData\Local\Temp\ccmBQqfl.s:27310  .debug_str:0000000000016108 .LASF1513
C:\Users\CYMR90~1\AppData\Local\Temp\ccmBQqfl.s:31199  .debug_str:0000000000025968 .LASF1514
C:\Users\CYMR90~1\AppData\Local\Temp\ccmBQqfl.s:29601  .debug_str:000000000001f6e1 .LASF1515
C:\Users\CYMR90~1\AppData\Local\Temp\ccmBQqfl.s:32773  .debug_str:000000000002bc2c .LASF1516
C:\Users\CYMR90~1\AppData\Local\Temp\ccmBQqfl.s:29421  .debug_str:000000000001eba2 .LASF1517
C:\Users\CYMR90~1\AppData\Local\Temp\ccmBQqfl.s:31431  .debug_str:0000000000026846 .LASF1518
C:\Users\CYMR90~1\AppData\Local\Temp\ccmBQqfl.s:26366  .debug_str:000000000001250b .LASF1519
C:\Users\CYMR90~1\AppData\Local\Temp\ccmBQqfl.s:29827  .debug_str:000000000002049f .LASF1520
C:\Users\CYMR90~1\AppData\Local\Temp\ccmBQqfl.s:28857  .debug_str:000000000001c705 .LASF1521
C:\Users\CYMR90~1\AppData\Local\Temp\ccmBQqfl.s:30153  .debug_str:00000000000217d1 .LASF1522
C:\Users\CYMR90~1\AppData\Local\Temp\ccmBQqfl.s:28127  .debug_str:000000000001969e .LASF1523
C:\Users\CYMR90~1\AppData\Local\Temp\ccmBQqfl.s:30797  .debug_str:0000000000023ee3 .LASF1524
C:\Users\CYMR90~1\AppData\Local\Temp\ccmBQqfl.s:23088  .debug_str:00000000000053b0 .LASF1525
C:\Users\CYMR90~1\AppData\Local\Temp\ccmBQqfl.s:28795  .debug_str:000000000001c33c .LASF1526
C:\Users\CYMR90~1\AppData\Local\Temp\ccmBQqfl.s:24902  .debug_str:000000000000c7ef .LASF1527
C:\Users\CYMR90~1\AppData\Local\Temp\ccmBQqfl.s:30559  .debug_str:0000000000023084 .LASF1528
C:\Users\CYMR90~1\AppData\Local\Temp\ccmBQqfl.s:31793  .debug_str:0000000000027ec8 .LASF1529
C:\Users\CYMR90~1\AppData\Local\Temp\ccmBQqfl.s:31033  .debug_str:0000000000024d89 .LASF1530
C:\Users\CYMR90~1\AppData\Local\Temp\ccmBQqfl.s:31095  .debug_str:000000000002521b .LASF1531
C:\Users\CYMR90~1\AppData\Local\Temp\ccmBQqfl.s:22840  .debug_str:000000000000432b .LASF1532
C:\Users\CYMR90~1\AppData\Local\Temp\ccmBQqfl.s:28079  .debug_str:000000000001930d .LASF1533
C:\Users\CYMR90~1\AppData\Local\Temp\ccmBQqfl.s:30917  .debug_str:0000000000024566 .LASF1534
C:\Users\CYMR90~1\AppData\Local\Temp\ccmBQqfl.s:23946  .debug_str:00000000000089c0 .LASF1535
C:\Users\CYMR90~1\AppData\Local\Temp\ccmBQqfl.s:31099  .debug_str:000000000002528d .LASF1536
C:\Users\CYMR90~1\AppData\Local\Temp\ccmBQqfl.s:30463  .debug_str:0000000000022aba .LASF1537
C:\Users\CYMR90~1\AppData\Local\Temp\ccmBQqfl.s:31673  .debug_str:0000000000027706 .LASF1538
C:\Users\CYMR90~1\AppData\Local\Temp\ccmBQqfl.s:31565  .debug_str:0000000000027044 .LASF1539
C:\Users\CYMR90~1\AppData\Local\Temp\ccmBQqfl.s:26244  .debug_str:0000000000011d32 .LASF1540
C:\Users\CYMR90~1\AppData\Local\Temp\ccmBQqfl.s:32291  .debug_str:0000000000029ef9 .LASF1541
C:\Users\CYMR90~1\AppData\Local\Temp\ccmBQqfl.s:25222  .debug_str:000000000000dcb4 .LASF1542
C:\Users\CYMR90~1\AppData\Local\Temp\ccmBQqfl.s:22590  .debug_str:0000000000003305 .LASF1543
C:\Users\CYMR90~1\AppData\Local\Temp\ccmBQqfl.s:25806  .debug_str:00000000000100b1 .LASF1544
C:\Users\CYMR90~1\AppData\Local\Temp\ccmBQqfl.s:23830  .debug_str:00000000000082cc .LASF1545
C:\Users\CYMR90~1\AppData\Local\Temp\ccmBQqfl.s:24312  .debug_str:000000000000a163 .LASF1546
C:\Users\CYMR90~1\AppData\Local\Temp\ccmBQqfl.s:24958  .debug_str:000000000000cbe1 .LASF1547
C:\Users\CYMR90~1\AppData\Local\Temp\ccmBQqfl.s:31871  .debug_str:000000000002842e .LASF1548
C:\Users\CYMR90~1\AppData\Local\Temp\ccmBQqfl.s:31371  .debug_str:0000000000026484 .LASF1549
C:\Users\CYMR90~1\AppData\Local\Temp\ccmBQqfl.s:28747  .debug_str:000000000001bfbf .LASF1550
C:\Users\CYMR90~1\AppData\Local\Temp\ccmBQqfl.s:26112  .debug_str:000000000001140a .LASF1551
C:\Users\CYMR90~1\AppData\Local\Temp\ccmBQqfl.s:28715  .debug_str:000000000001bde6 .LASF1552
C:\Users\CYMR90~1\AppData\Local\Temp\ccmBQqfl.s:22058  .debug_str:0000000000001107 .LASF1553
C:\Users\CYMR90~1\AppData\Local\Temp\ccmBQqfl.s:22376  .debug_str:000000000000251c .LASF1554
C:\Users\CYMR90~1\AppData\Local\Temp\ccmBQqfl.s:29459  .debug_str:000000000001ee40 .LASF1555
C:\Users\CYMR90~1\AppData\Local\Temp\ccmBQqfl.s:28029  .debug_str:0000000000019010 .LASF1556
C:\Users\CYMR90~1\AppData\Local\Temp\ccmBQqfl.s:28055  .debug_str:000000000001919b .LASF1557
C:\Users\CYMR90~1\AppData\Local\Temp\ccmBQqfl.s:32375  .debug_str:000000000002a3a3 .LASF1558
C:\Users\CYMR90~1\AppData\Local\Temp\ccmBQqfl.s:25952  .debug_str:0000000000010a99 .LASF1559
C:\Users\CYMR90~1\AppData\Local\Temp\ccmBQqfl.s:30807  .debug_str:0000000000023f5c .LASF1560
C:\Users\CYMR90~1\AppData\Local\Temp\ccmBQqfl.s:31227  .debug_str:0000000000025b0c .LASF1561
C:\Users\CYMR90~1\AppData\Local\Temp\ccmBQqfl.s:26068  .debug_str:00000000000111b1 .LASF1562
C:\Users\CYMR90~1\AppData\Local\Temp\ccmBQqfl.s:23278  .debug_str:0000000000005f63 .LASF1563
C:\Users\CYMR90~1\AppData\Local\Temp\ccmBQqfl.s:32873  .debug_str:000000000002c2b7 .LASF1564
C:\Users\CYMR90~1\AppData\Local\Temp\ccmBQqfl.s:23462  .debug_str:0000000000006a1b .LASF1565
C:\Users\CYMR90~1\AppData\Local\Temp\ccmBQqfl.s:29159  .debug_str:000000000001db59 .LASF1566
C:\Users\CYMR90~1\AppData\Local\Temp\ccmBQqfl.s:28423  .debug_str:000000000001aaff .LASF1567
C:\Users\CYMR90~1\AppData\Local\Temp\ccmBQqfl.s:29947  .debug_str:0000000000020b68 .LASF1568
C:\Users\CYMR90~1\AppData\Local\Temp\ccmBQqfl.s:26242  .debug_str:0000000000011c8b .LASF1569
C:\Users\CYMR90~1\AppData\Local\Temp\ccmBQqfl.s:31257  .debug_str:0000000000025d23 .LASF1570
C:\Users\CYMR90~1\AppData\Local\Temp\ccmBQqfl.s:21888  .debug_str:00000000000005dd .LASF1571
C:\Users\CYMR90~1\AppData\Local\Temp\ccmBQqfl.s:23142  .debug_str:0000000000005734 .LASF1572
C:\Users\CYMR90~1\AppData\Local\Temp\ccmBQqfl.s:27056  .debug_str:0000000000015122 .LASF1573
C:\Users\CYMR90~1\AppData\Local\Temp\ccmBQqfl.s:31985  .debug_str:0000000000028c8d .LASF1574
C:\Users\CYMR90~1\AppData\Local\Temp\ccmBQqfl.s:27523  .debug_str:0000000000017106 .LASF1575
C:\Users\CYMR90~1\AppData\Local\Temp\ccmBQqfl.s:25602  .debug_str:000000000000f39c .LASF1576
C:\Users\CYMR90~1\AppData\Local\Temp\ccmBQqfl.s:29463  .debug_str:000000000001ee82 .LASF1577
C:\Users\CYMR90~1\AppData\Local\Temp\ccmBQqfl.s:32485  .debug_str:000000000002aa43 .LASF1578
C:\Users\CYMR90~1\AppData\Local\Temp\ccmBQqfl.s:22384  .debug_str:0000000000002583 .LASF1579
C:\Users\CYMR90~1\AppData\Local\Temp\ccmBQqfl.s:29001  .debug_str:000000000001d04d .LASF1580
C:\Users\CYMR90~1\AppData\Local\Temp\ccmBQqfl.s:24430  .debug_str:000000000000a8e8 .LASF1581
C:\Users\CYMR90~1\AppData\Local\Temp\ccmBQqfl.s:25140  .debug_str:000000000000d7f6 .LASF1582
C:\Users\CYMR90~1\AppData\Local\Temp\ccmBQqfl.s:23820  .debug_str:00000000000081a0 .LASF1583
C:\Users\CYMR90~1\AppData\Local\Temp\ccmBQqfl.s:31675  .debug_str:0000000000027724 .LASF1584
C:\Users\CYMR90~1\AppData\Local\Temp\ccmBQqfl.s:29265  .debug_str:000000000001e1f5 .LASF1585
C:\Users\CYMR90~1\AppData\Local\Temp\ccmBQqfl.s:33095  .debug_str:000000000002d135 .LASF1586
C:\Users\CYMR90~1\AppData\Local\Temp\ccmBQqfl.s:25116  .debug_str:000000000000d5d2 .LASF1587
C:\Users\CYMR90~1\AppData\Local\Temp\ccmBQqfl.s:23780  .debug_str:0000000000007e76 .LASF1588
C:\Users\CYMR90~1\AppData\Local\Temp\ccmBQqfl.s:27500  .debug_str:0000000000016d63 .LASF1589
C:\Users\CYMR90~1\AppData\Local\Temp\ccmBQqfl.s:24650  .debug_str:000000000000b6c1 .LASF1590
C:\Users\CYMR90~1\AppData\Local\Temp\ccmBQqfl.s:27420  .debug_str:00000000000167ca .LASF1591
C:\Users\CYMR90~1\AppData\Local\Temp\ccmBQqfl.s:24024  .debug_str:0000000000008f2a .LASF1592
C:\Users\CYMR90~1\AppData\Local\Temp\ccmBQqfl.s:26628  .debug_str:0000000000013607 .LASF1593
C:\Users\CYMR90~1\AppData\Local\Temp\ccmBQqfl.s:25944  .debug_str:000000000001096a .LASF1594
C:\Users\CYMR90~1\AppData\Local\Temp\ccmBQqfl.s:31903  .debug_str:000000000002868d .LASF1595
C:\Users\CYMR90~1\AppData\Local\Temp\ccmBQqfl.s:22022  .debug_str:0000000000000eaa .LASF1596
C:\Users\CYMR90~1\AppData\Local\Temp\ccmBQqfl.s:29029  .debug_str:000000000001d252 .LASF1597
C:\Users\CYMR90~1\AppData\Local\Temp\ccmBQqfl.s:22950  .debug_str:0000000000004abd .LASF1598
C:\Users\CYMR90~1\AppData\Local\Temp\ccmBQqfl.s:31175  .debug_str:0000000000025749 .LASF1599
C:\Users\CYMR90~1\AppData\Local\Temp\ccmBQqfl.s:22168  .debug_str:000000000000181c .LASF1600
C:\Users\CYMR90~1\AppData\Local\Temp\ccmBQqfl.s:25692  .debug_str:000000000000f902 .LASF1601
C:\Users\CYMR90~1\AppData\Local\Temp\ccmBQqfl.s:30179  .debug_str:0000000000021945 .LASF1602
C:\Users\CYMR90~1\AppData\Local\Temp\ccmBQqfl.s:29051  .debug_str:000000000001d450 .LASF1603
C:\Users\CYMR90~1\AppData\Local\Temp\ccmBQqfl.s:28943  .debug_str:000000000001cc08 .LASF1604
C:\Users\CYMR90~1\AppData\Local\Temp\ccmBQqfl.s:31153  .debug_str:0000000000025570 .LASF1605
C:\Users\CYMR90~1\AppData\Local\Temp\ccmBQqfl.s:31075  .debug_str:00000000000250d3 .LASF1606
C:\Users\CYMR90~1\AppData\Local\Temp\ccmBQqfl.s:31027  .debug_str:0000000000024d35 .LASF1607
C:\Users\CYMR90~1\AppData\Local\Temp\ccmBQqfl.s:27973  .debug_str:0000000000018c6d .LASF1608
C:\Users\CYMR90~1\AppData\Local\Temp\ccmBQqfl.s:22926  .debug_str:0000000000004924 .LASF1609
C:\Users\CYMR90~1\AppData\Local\Temp\ccmBQqfl.s:30391  .debug_str:00000000000226b5 .LASF1610
C:\Users\CYMR90~1\AppData\Local\Temp\ccmBQqfl.s:33001  .debug_str:000000000002cb3a .LASF1611
C:\Users\CYMR90~1\AppData\Local\Temp\ccmBQqfl.s:28893  .debug_str:000000000001c91f .LASF1612
C:\Users\CYMR90~1\AppData\Local\Temp\ccmBQqfl.s:26938  .debug_str:000000000001497f .LASF1613
C:\Users\CYMR90~1\AppData\Local\Temp\ccmBQqfl.s:24300  .debug_str:000000000000a0b8 .LASF1614
C:\Users\CYMR90~1\AppData\Local\Temp\ccmBQqfl.s:28571  .debug_str:000000000001b4f8 .LASF1615
C:\Users\CYMR90~1\AppData\Local\Temp\ccmBQqfl.s:30275  .debug_str:0000000000021fb2 .LASF1616
C:\Users\CYMR90~1\AppData\Local\Temp\ccmBQqfl.s:27030  .debug_str:0000000000014f29 .LASF1617
C:\Users\CYMR90~1\AppData\Local\Temp\ccmBQqfl.s:28957  .debug_str:000000000001cda8 .LASF1618
C:\Users\CYMR90~1\AppData\Local\Temp\ccmBQqfl.s:22972  .debug_str:0000000000004ca4 .LASF1619
C:\Users\CYMR90~1\AppData\Local\Temp\ccmBQqfl.s:24690  .debug_str:000000000000ba24 .LASF1620
C:\Users\CYMR90~1\AppData\Local\Temp\ccmBQqfl.s:25522  .debug_str:000000000000ef0f .LASF1621
C:\Users\CYMR90~1\AppData\Local\Temp\ccmBQqfl.s:22530  .debug_str:0000000000002f5b .LASF1622
C:\Users\CYMR90~1\AppData\Local\Temp\ccmBQqfl.s:29977  .debug_str:0000000000020d4f .LASF1623
C:\Users\CYMR90~1\AppData\Local\Temp\ccmBQqfl.s:32827  .debug_str:000000000002bff2 .LASF1624
C:\Users\CYMR90~1\AppData\Local\Temp\ccmBQqfl.s:24784  .debug_str:000000000000c0b6 .LASF1625
C:\Users\CYMR90~1\AppData\Local\Temp\ccmBQqfl.s:30677  .debug_str:000000000002373d .LASF1626
C:\Users\CYMR90~1\AppData\Local\Temp\ccmBQqfl.s:23458  .debug_str:00000000000069ed .LASF1627
C:\Users\CYMR90~1\AppData\Local\Temp\ccmBQqfl.s:29721  .debug_str:000000000001fe27 .LASF1628
C:\Users\CYMR90~1\AppData\Local\Temp\ccmBQqfl.s:24546  .debug_str:000000000000aff8 .LASF1629
C:\Users\CYMR90~1\AppData\Local\Temp\ccmBQqfl.s:23772  .debug_str:0000000000007dee .LASF1630
C:\Users\CYMR90~1\AppData\Local\Temp\ccmBQqfl.s:24006  .debug_str:0000000000008e4d .LASF1631
C:\Users\CYMR90~1\AppData\Local\Temp\ccmBQqfl.s:22124  .debug_str:0000000000001503 .LASF1632
C:\Users\CYMR90~1\AppData\Local\Temp\ccmBQqfl.s:28693  .debug_str:000000000001bcf1 .LASF1633
C:\Users\CYMR90~1\AppData\Local\Temp\ccmBQqfl.s:27661  .debug_str:0000000000017931 .LASF1634
C:\Users\CYMR90~1\AppData\Local\Temp\ccmBQqfl.s:24766  .debug_str:000000000000bf39 .LASF1635
C:\Users\CYMR90~1\AppData\Local\Temp\ccmBQqfl.s:24874  .debug_str:000000000000c653 .LASF1636
C:\Users\CYMR90~1\AppData\Local\Temp\ccmBQqfl.s:28543  .debug_str:000000000001b347 .LASF1637
C:\Users\CYMR90~1\AppData\Local\Temp\ccmBQqfl.s:24942  .debug_str:000000000000cace .LASF1638
C:\Users\CYMR90~1\AppData\Local\Temp\ccmBQqfl.s:24664  .debug_str:000000000000b84e .LASF1639
C:\Users\CYMR90~1\AppData\Local\Temp\ccmBQqfl.s:27877  .debug_str:000000000001869f .LASF1640
C:\Users\CYMR90~1\AppData\Local\Temp\ccmBQqfl.s:25900  .debug_str:00000000000106c6 .LASF1641
C:\Users\CYMR90~1\AppData\Local\Temp\ccmBQqfl.s:31019  .debug_str:0000000000024cbf .LASF1642
C:\Users\CYMR90~1\AppData\Local\Temp\ccmBQqfl.s:26252  .debug_str:0000000000011dd3 .LASF1643
C:\Users\CYMR90~1\AppData\Local\Temp\ccmBQqfl.s:29863  .debug_str:00000000000206bc .LASF1644
C:\Users\CYMR90~1\AppData\Local\Temp\ccmBQqfl.s:32973  .debug_str:000000000002c9f7 .LASF1645
C:\Users\CYMR90~1\AppData\Local\Temp\ccmBQqfl.s:22520  .debug_str:0000000000002ed3 .LASF1646
C:\Users\CYMR90~1\AppData\Local\Temp\ccmBQqfl.s:27462  .debug_str:0000000000016ab9 .LASF1647
C:\Users\CYMR90~1\AppData\Local\Temp\ccmBQqfl.s:27569  .debug_str:00000000000173f8 .LASF1648
C:\Users\CYMR90~1\AppData\Local\Temp\ccmBQqfl.s:22326  .debug_str:0000000000002242 .LASF1649
C:\Users\CYMR90~1\AppData\Local\Temp\ccmBQqfl.s:23846  .debug_str:00000000000083e1 .LASF1650
C:\Users\CYMR90~1\AppData\Local\Temp\ccmBQqfl.s:30693  .debug_str:000000000002383d .LASF1651
C:\Users\CYMR90~1\AppData\Local\Temp\ccmBQqfl.s:26002  .debug_str:0000000000010d26 .LASF1652
C:\Users\CYMR90~1\AppData\Local\Temp\ccmBQqfl.s:23736  .debug_str:0000000000007bc7 .LASF1653
C:\Users\CYMR90~1\AppData\Local\Temp\ccmBQqfl.s:22066  .debug_str:0000000000001197 .LASF1654
C:\Users\CYMR90~1\AppData\Local\Temp\ccmBQqfl.s:27773  .debug_str:0000000000018056 .LASF1657
C:\Users\CYMR90~1\AppData\Local\Temp\ccmBQqfl.s:32535  .debug_str:000000000002ad4b .LASF1658
C:\Users\CYMR90~1\AppData\Local\Temp\ccmBQqfl.s:26036  .debug_str:0000000000011029 .LASF1659
C:\Users\CYMR90~1\AppData\Local\Temp\ccmBQqfl.s:28101  .debug_str:000000000001953a .LASF1660
C:\Users\CYMR90~1\AppData\Local\Temp\ccmBQqfl.s:32769  .debug_str:000000000002bbed .LASF1661
C:\Users\CYMR90~1\AppData\Local\Temp\ccmBQqfl.s:32803  .debug_str:000000000002be62 .LASF1662
C:\Users\CYMR90~1\AppData\Local\Temp\ccmBQqfl.s:30063  .debug_str:00000000000212b6 .LASF1663
C:\Users\CYMR90~1\AppData\Local\Temp\ccmBQqfl.s:26990  .debug_str:0000000000014ca3 .LASF1664
C:\Users\CYMR90~1\AppData\Local\Temp\ccmBQqfl.s:29211  .debug_str:000000000001ded7 .LASF1665
C:\Users\CYMR90~1\AppData\Local\Temp\ccmBQqfl.s:30155  .debug_str:00000000000217ec .LASF1666
C:\Users\CYMR90~1\AppData\Local\Temp\ccmBQqfl.s:31251  .debug_str:0000000000025cb9 .LASF1667
C:\Users\CYMR90~1\AppData\Local\Temp\ccmBQqfl.s:25432  .debug_str:000000000000e93f .LASF1668
C:\Users\CYMR90~1\AppData\Local\Temp\ccmBQqfl.s:22764  .debug_str:0000000000003e23 .LASF1669
C:\Users\CYMR90~1\AppData\Local\Temp\ccmBQqfl.s:24044  .debug_str:0000000000009126 .LASF1670
C:\Users\CYMR90~1\AppData\Local\Temp\ccmBQqfl.s:22918  .debug_str:00000000000048a2 .LASF1671
C:\Users\CYMR90~1\AppData\Local\Temp\ccmBQqfl.s:21870  .debug_str:000000000000050a .LASF1672
C:\Users\CYMR90~1\AppData\Local\Temp\ccmBQqfl.s:26912  .debug_str:0000000000014775 .LASF1673
C:\Users\CYMR90~1\AppData\Local\Temp\ccmBQqfl.s:26326  .debug_str:0000000000012219 .LASF1674
C:\Users\CYMR90~1\AppData\Local\Temp\ccmBQqfl.s:25470  .debug_str:000000000000eb6f .LASF1675
C:\Users\CYMR90~1\AppData\Local\Temp\ccmBQqfl.s:31039  .debug_str:0000000000024e91 .LASF1676
C:\Users\CYMR90~1\AppData\Local\Temp\ccmBQqfl.s:26458  .debug_str:0000000000012acb .LASF1677
C:\Users\CYMR90~1\AppData\Local\Temp\ccmBQqfl.s:32975  .debug_str:000000000002ca0c .LASF1678
C:\Users\CYMR90~1\AppData\Local\Temp\ccmBQqfl.s:22434  .debug_str:00000000000028da .LASF1679
C:\Users\CYMR90~1\AppData\Local\Temp\ccmBQqfl.s:30419  .debug_str:0000000000022855 .LASF1680
C:\Users\CYMR90~1\AppData\Local\Temp\ccmBQqfl.s:27154  .debug_str:000000000001574e .LASF1681
C:\Users\CYMR90~1\AppData\Local\Temp\ccmBQqfl.s:25828  .debug_str:0000000000010246 .LASF1682
C:\Users\CYMR90~1\AppData\Local\Temp\ccmBQqfl.s:28527  .debug_str:000000000001b1dd .LASF1683
C:\Users\CYMR90~1\AppData\Local\Temp\ccmBQqfl.s:30643  .debug_str:0000000000023595 .LASF1684
C:\Users\CYMR90~1\AppData\Local\Temp\ccmBQqfl.s:31557  .debug_str:0000000000026fe9 .LASF1685
C:\Users\CYMR90~1\AppData\Local\Temp\ccmBQqfl.s:25982  .debug_str:0000000000010c35 .LASF1686
C:\Users\CYMR90~1\AppData\Local\Temp\ccmBQqfl.s:27088  .debug_str:000000000001533f .LASF1687
C:\Users\CYMR90~1\AppData\Local\Temp\ccmBQqfl.s:32281  .debug_str:0000000000029e4e .LASF1688
C:\Users\CYMR90~1\AppData\Local\Temp\ccmBQqfl.s:30819  .debug_str:0000000000024037 .LASF1689
C:\Users\CYMR90~1\AppData\Local\Temp\ccmBQqfl.s:28655  .debug_str:000000000001ba7f .LASF1690
C:\Users\CYMR90~1\AppData\Local\Temp\ccmBQqfl.s:26720  .debug_str:0000000000013bfa .LASF1691
C:\Users\CYMR90~1\AppData\Local\Temp\ccmBQqfl.s:30373  .debug_str:00000000000225bc .LASF1692
C:\Users\CYMR90~1\AppData\Local\Temp\ccmBQqfl.s:27961  .debug_str:0000000000018bb4 .LASF1693
C:\Users\CYMR90~1\AppData\Local\Temp\ccmBQqfl.s:23840  .debug_str:0000000000008371 .LASF1694
C:\Users\CYMR90~1\AppData\Local\Temp\ccmBQqfl.s:25896  .debug_str:000000000001067a .LASF1695
C:\Users\CYMR90~1\AppData\Local\Temp\ccmBQqfl.s:27741  .debug_str:0000000000017e6e .LASF1696
C:\Users\CYMR90~1\AppData\Local\Temp\ccmBQqfl.s:27038  .debug_str:0000000000014fbc .LASF1697
C:\Users\CYMR90~1\AppData\Local\Temp\ccmBQqfl.s:29615  .debug_str:000000000001f79a .LASF1698
C:\Users\CYMR90~1\AppData\Local\Temp\ccmBQqfl.s:28137  .debug_str:0000000000019765 .LASF1699
C:\Users\CYMR90~1\AppData\Local\Temp\ccmBQqfl.s:30075  .debug_str:000000000002136a .LASF1700
C:\Users\CYMR90~1\AppData\Local\Temp\ccmBQqfl.s:29611  .debug_str:000000000001f75d .LASF1701
C:\Users\CYMR90~1\AppData\Local\Temp\ccmBQqfl.s:30863  .debug_str:00000000000242ac .LASF1702
C:\Users\CYMR90~1\AppData\Local\Temp\ccmBQqfl.s:30825  .debug_str:0000000000024075 .LASF1703
C:\Users\CYMR90~1\AppData\Local\Temp\ccmBQqfl.s:30363  .debug_str:0000000000022526 .LASF1704
C:\Users\CYMR90~1\AppData\Local\Temp\ccmBQqfl.s:28773  .debug_str:000000000001c195 .LASF1705
C:\Users\CYMR90~1\AppData\Local\Temp\ccmBQqfl.s:30221  .debug_str:0000000000021c6f .LASF1706
C:\Users\CYMR90~1\AppData\Local\Temp\ccmBQqfl.s:27645  .debug_str:0000000000017824 .LASF1707
C:\Users\CYMR90~1\AppData\Local\Temp\ccmBQqfl.s:26634  .debug_str:00000000000136c3 .LASF1708
C:\Users\CYMR90~1\AppData\Local\Temp\ccmBQqfl.s:29353  .debug_str:000000000001e7bf .LASF1709
C:\Users\CYMR90~1\AppData\Local\Temp\ccmBQqfl.s:27879  .debug_str:00000000000186b4 .LASF1710
C:\Users\CYMR90~1\AppData\Local\Temp\ccmBQqfl.s:31749  .debug_str:0000000000027c13 .LASF1711
C:\Users\CYMR90~1\AppData\Local\Temp\ccmBQqfl.s:26272  .debug_str:0000000000011ee6 .LASF1712
C:\Users\CYMR90~1\AppData\Local\Temp\ccmBQqfl.s:23384  .debug_str:0000000000006584 .LASF1713
C:\Users\CYMR90~1\AppData\Local\Temp\ccmBQqfl.s:25740  .debug_str:000000000000fc63 .LASF1714
C:\Users\CYMR90~1\AppData\Local\Temp\ccmBQqfl.s:22648  .debug_str:00000000000036fd .LASF1715
C:\Users\CYMR90~1\AppData\Local\Temp\ccmBQqfl.s:25980  .debug_str:0000000000010c09 .LASF1716
C:\Users\CYMR90~1\AppData\Local\Temp\ccmBQqfl.s:29321  .debug_str:000000000001e5cd .LASF1717
C:\Users\CYMR90~1\AppData\Local\Temp\ccmBQqfl.s:27843  .debug_str:0000000000018481 .LASF1718
C:\Users\CYMR90~1\AppData\Local\Temp\ccmBQqfl.s:26218  .debug_str:0000000000011a77 .LASF1719
C:\Users\CYMR90~1\AppData\Local\Temp\ccmBQqfl.s:28197  .debug_str:0000000000019b0e .LASF1720
C:\Users\CYMR90~1\AppData\Local\Temp\ccmBQqfl.s:26712  .debug_str:0000000000013b77 .LASF1721
C:\Users\CYMR90~1\AppData\Local\Temp\ccmBQqfl.s:22362  .debug_str:0000000000002463 .LASF1722
C:\Users\CYMR90~1\AppData\Local\Temp\ccmBQqfl.s:28535  .debug_str:000000000001b277 .LASF1723
C:\Users\CYMR90~1\AppData\Local\Temp\ccmBQqfl.s:22426  .debug_str:0000000000002864 .LASF1724
C:\Users\CYMR90~1\AppData\Local\Temp\ccmBQqfl.s:27224  .debug_str:0000000000015b18 .LASF1725
C:\Users\CYMR90~1\AppData\Local\Temp\ccmBQqfl.s:32075  .debug_str:00000000000291a8 .LASF1726
C:\Users\CYMR90~1\AppData\Local\Temp\ccmBQqfl.s:30513  .debug_str:0000000000022db3 .LASF1727
C:\Users\CYMR90~1\AppData\Local\Temp\ccmBQqfl.s:31717  .debug_str:0000000000027a5d .LASF1728
C:\Users\CYMR90~1\AppData\Local\Temp\ccmBQqfl.s:28999  .debug_str:000000000001d016 .LASF1729
C:\Users\CYMR90~1\AppData\Local\Temp\ccmBQqfl.s:32877  .debug_str:000000000002c376 .LASF1730
C:\Users\CYMR90~1\AppData\Local\Temp\ccmBQqfl.s:31003  .debug_str:0000000000024ba1 .LASF1731
C:\Users\CYMR90~1\AppData\Local\Temp\ccmBQqfl.s:26152  .debug_str:000000000001164e .LASF1732
C:\Users\CYMR90~1\AppData\Local\Temp\ccmBQqfl.s:24156  .debug_str:000000000000977c .LASF1733
C:\Users\CYMR90~1\AppData\Local\Temp\ccmBQqfl.s:22128  .debug_str:0000000000001520 .LASF1734
C:\Users\CYMR90~1\AppData\Local\Temp\ccmBQqfl.s:27603  .debug_str:00000000000175ed .LASF1735
C:\Users\CYMR90~1\AppData\Local\Temp\ccmBQqfl.s:29789  .debug_str:0000000000020246 .LASF1736
C:\Users\CYMR90~1\AppData\Local\Temp\ccmBQqfl.s:24146  .debug_str:00000000000096db .LASF1737
C:\Users\CYMR90~1\AppData\Local\Temp\ccmBQqfl.s:23860  .debug_str:00000000000084bd .LASF1738
C:\Users\CYMR90~1\AppData\Local\Temp\ccmBQqfl.s:31553  .debug_str:0000000000026fba .LASF1739
C:\Users\CYMR90~1\AppData\Local\Temp\ccmBQqfl.s:25496  .debug_str:000000000000ed82 .LASF1740
C:\Users\CYMR90~1\AppData\Local\Temp\ccmBQqfl.s:24496  .debug_str:000000000000ace7 .LASF1741
C:\Users\CYMR90~1\AppData\Local\Temp\ccmBQqfl.s:29637  .debug_str:000000000001f8e1 .LASF1742
C:\Users\CYMR90~1\AppData\Local\Temp\ccmBQqfl.s:24990  .debug_str:000000000000cde4 .LASF1743
C:\Users\CYMR90~1\AppData\Local\Temp\ccmBQqfl.s:31827  .debug_str:0000000000028139 .LASF1744
C:\Users\CYMR90~1\AppData\Local\Temp\ccmBQqfl.s:23866  .debug_str:000000000000852f .LASF1745
C:\Users\CYMR90~1\AppData\Local\Temp\ccmBQqfl.s:25798  .debug_str:0000000000010028 .LASF1746
C:\Users\CYMR90~1\AppData\Local\Temp\ccmBQqfl.s:30867  .debug_str:00000000000242ea .LASF1747
C:\Users\CYMR90~1\AppData\Local\Temp\ccmBQqfl.s:29495  .debug_str:000000000001f054 .LASF1748
C:\Users\CYMR90~1\AppData\Local\Temp\ccmBQqfl.s:25978  .debug_str:0000000000010be6 .LASF1749
C:\Users\CYMR90~1\AppData\Local\Temp\ccmBQqfl.s:24660  .debug_str:000000000000b805 .LASF1750
C:\Users\CYMR90~1\AppData\Local\Temp\ccmBQqfl.s:27777  .debug_str:000000000001808a .LASF1751
C:\Users\CYMR90~1\AppData\Local\Temp\ccmBQqfl.s:23020  .debug_str:0000000000004f95 .LASF1752
C:\Users\CYMR90~1\AppData\Local\Temp\ccmBQqfl.s:28511  .debug_str:000000000001b100 .LASF1753
C:\Users\CYMR90~1\AppData\Local\Temp\ccmBQqfl.s:28403  .debug_str:000000000001a977 .LASF1754
C:\Users\CYMR90~1\AppData\Local\Temp\ccmBQqfl.s:24932  .debug_str:000000000000c9cd .LASF1755
C:\Users\CYMR90~1\AppData\Local\Temp\ccmBQqfl.s:30473  .debug_str:0000000000022b26 .LASF1756
C:\Users\CYMR90~1\AppData\Local\Temp\ccmBQqfl.s:28611  .debug_str:000000000001b7c2 .LASF1757
C:\Users\CYMR90~1\AppData\Local\Temp\ccmBQqfl.s:25592  .debug_str:000000000000f2e5 .LASF1758
C:\Users\CYMR90~1\AppData\Local\Temp\ccmBQqfl.s:23680  .debug_str:0000000000007834 .LASF1759
C:\Users\CYMR90~1\AppData\Local\Temp\ccmBQqfl.s:28345  .debug_str:000000000001a48f .LASF1760
C:\Users\CYMR90~1\AppData\Local\Temp\ccmBQqfl.s:23970  .debug_str:0000000000008c26 .LASF1761
C:\Users\CYMR90~1\AppData\Local\Temp\ccmBQqfl.s:22192  .debug_str:0000000000001a6e .LASF1762
C:\Users\CYMR90~1\AppData\Local\Temp\ccmBQqfl.s:31055  .debug_str:0000000000024f7e .LASF1763
C:\Users\CYMR90~1\AppData\Local\Temp\ccmBQqfl.s:23712  .debug_str:0000000000007a59 .LASF1764
C:\Users\CYMR90~1\AppData\Local\Temp\ccmBQqfl.s:23398  .debug_str:000000000000667d .LASF1765
C:\Users\CYMR90~1\AppData\Local\Temp\ccmBQqfl.s:22172  .debug_str:0000000000001907 .LASF1766
C:\Users\CYMR90~1\AppData\Local\Temp\ccmBQqfl.s:28721  .debug_str:000000000001be3f .LASF1767
C:\Users\CYMR90~1\AppData\Local\Temp\ccmBQqfl.s:22234  .debug_str:0000000000001cd9 .LASF1768
C:\Users\CYMR90~1\AppData\Local\Temp\ccmBQqfl.s:31259  .debug_str:0000000000025db1 .LASF1769
C:\Users\CYMR90~1\AppData\Local\Temp\ccmBQqfl.s:32959  .debug_str:000000000002c906 .LASF1770
C:\Users\CYMR90~1\AppData\Local\Temp\ccmBQqfl.s:24818  .debug_str:000000000000c2dc .LASF1771
C:\Users\CYMR90~1\AppData\Local\Temp\ccmBQqfl.s:24402  .debug_str:000000000000a73e .LASF1772
C:\Users\CYMR90~1\AppData\Local\Temp\ccmBQqfl.s:33017  .debug_str:000000000002cc58 .LASF1773
C:\Users\CYMR90~1\AppData\Local\Temp\ccmBQqfl.s:21950  .debug_str:00000000000009b9 .LASF1774
C:\Users\CYMR90~1\AppData\Local\Temp\ccmBQqfl.s:31975  .debug_str:0000000000028be5 .LASF1775
C:\Users\CYMR90~1\AppData\Local\Temp\ccmBQqfl.s:26930  .debug_str:00000000000148eb .LASF1776
C:\Users\CYMR90~1\AppData\Local\Temp\ccmBQqfl.s:25674  .debug_str:000000000000f800 .LASF1777
C:\Users\CYMR90~1\AppData\Local\Temp\ccmBQqfl.s:27769  .debug_str:0000000000018025 .LASF1778
C:\Users\CYMR90~1\AppData\Local\Temp\ccmBQqfl.s:23114  .debug_str:0000000000005558 .LASF1779
C:\Users\CYMR90~1\AppData\Local\Temp\ccmBQqfl.s:31299  .debug_str:000000000002603b .LASF1780
C:\Users\CYMR90~1\AppData\Local\Temp\ccmBQqfl.s:30517  .debug_str:0000000000022e1c .LASF1781
C:\Users\CYMR90~1\AppData\Local\Temp\ccmBQqfl.s:28061  .debug_str:00000000000191fd .LASF1784
C:\Users\CYMR90~1\AppData\Local\Temp\ccmBQqfl.s:32615  .debug_str:000000000002b219 .LASF1785
C:\Users\CYMR90~1\AppData\Local\Temp\ccmBQqfl.s:23782  .debug_str:0000000000007f2c .LASF1786
C:\Users\CYMR90~1\AppData\Local\Temp\ccmBQqfl.s:24140  .debug_str:0000000000009692 .LASF1787
C:\Users\CYMR90~1\AppData\Local\Temp\ccmBQqfl.s:32383  .debug_str:000000000002a418 .LASF1788
C:\Users\CYMR90~1\AppData\Local\Temp\ccmBQqfl.s:23070  .debug_str:000000000000529f .LASF1789
C:\Users\CYMR90~1\AppData\Local\Temp\ccmBQqfl.s:31121  .debug_str:00000000000253c8 .LASF1790
C:\Users\CYMR90~1\AppData\Local\Temp\ccmBQqfl.s:30983  .debug_str:0000000000024a5a .LASF1791
C:\Users\CYMR90~1\AppData\Local\Temp\ccmBQqfl.s:30829  .debug_str:00000000000240c5 .LASF1792
C:\Users\CYMR90~1\AppData\Local\Temp\ccmBQqfl.s:31653  .debug_str:000000000002758e .LASF1793
C:\Users\CYMR90~1\AppData\Local\Temp\ccmBQqfl.s:32571  .debug_str:000000000002af65 .LASF1794
C:\Users\CYMR90~1\AppData\Local\Temp\ccmBQqfl.s:29513  .debug_str:000000000001f144 .LASF1795
C:\Users\CYMR90~1\AppData\Local\Temp\ccmBQqfl.s:28683  .debug_str:000000000001bc3e .LASF1796
C:\Users\CYMR90~1\AppData\Local\Temp\ccmBQqfl.s:26950  .debug_str:0000000000014a30 .LASF1797
C:\Users\CYMR90~1\AppData\Local\Temp\ccmBQqfl.s:27959  .debug_str:0000000000018b91 .LASF1798
C:\Users\CYMR90~1\AppData\Local\Temp\ccmBQqfl.s:24980  .debug_str:000000000000cd58 .LASF1799
C:\Users\CYMR90~1\AppData\Local\Temp\ccmBQqfl.s:24000  .debug_str:0000000000008df3 .LASF1800
C:\Users\CYMR90~1\AppData\Local\Temp\ccmBQqfl.s:25042  .debug_str:000000000000d0eb .LASF1801
C:\Users\CYMR90~1\AppData\Local\Temp\ccmBQqfl.s:28299  .debug_str:000000000001a1d0 .LASF1802
C:\Users\CYMR90~1\AppData\Local\Temp\ccmBQqfl.s:28687  .debug_str:000000000001bc85 .LASF1803
C:\Users\CYMR90~1\AppData\Local\Temp\ccmBQqfl.s:22042  .debug_str:000000000000103d .LASF1804
C:\Users\CYMR90~1\AppData\Local\Temp\ccmBQqfl.s:31241  .debug_str:0000000000025c10 .LASF1805
C:\Users\CYMR90~1\AppData\Local\Temp\ccmBQqfl.s:22678  .debug_str:00000000000038a9 .LASF1806
C:\Users\CYMR90~1\AppData\Local\Temp\ccmBQqfl.s:31705  .debug_str:00000000000279b9 .LASF1807
C:\Users\CYMR90~1\AppData\Local\Temp\ccmBQqfl.s:23920  .debug_str:0000000000008845 .LASF1808
C:\Users\CYMR90~1\AppData\Local\Temp\ccmBQqfl.s:27885  .debug_str:000000000001871e .LASF1809
C:\Users\CYMR90~1\AppData\Local\Temp\ccmBQqfl.s:27360  .debug_str:000000000001645a .LASF1810
C:\Users\CYMR90~1\AppData\Local\Temp\ccmBQqfl.s:26190  .debug_str:00000000000118c2 .LASF1811
C:\Users\CYMR90~1\AppData\Local\Temp\ccmBQqfl.s:30533  .debug_str:0000000000022f1d .LASF1812
C:\Users\CYMR90~1\AppData\Local\Temp\ccmBQqfl.s:31919  .debug_str:0000000000028827 .LASF1813
C:\Users\CYMR90~1\AppData\Local\Temp\ccmBQqfl.s:25734  .debug_str:000000000000fc18 .LASF1814
C:\Users\CYMR90~1\AppData\Local\Temp\ccmBQqfl.s:30421  .debug_str:000000000002286a .LASF1815
C:\Users\CYMR90~1\AppData\Local\Temp\ccmBQqfl.s:27571  .debug_str:000000000001740c .LASF1816
C:\Users\CYMR90~1\AppData\Local\Temp\ccmBQqfl.s:32819  .debug_str:000000000002bf88 .LASF1817
C:\Users\CYMR90~1\AppData\Local\Temp\ccmBQqfl.s:23116  .debug_str:0000000000005580 .LASF1818
C:\Users\CYMR90~1\AppData\Local\Temp\ccmBQqfl.s:26682  .debug_str:00000000000139a0 .LASF1819
C:\Users\CYMR90~1\AppData\Local\Temp\ccmBQqfl.s:29403  .debug_str:000000000001eab1 .LASF1820
C:\Users\CYMR90~1\AppData\Local\Temp\ccmBQqfl.s:25010  .debug_str:000000000000cf41 .LASF1821
C:\Users\CYMR90~1\AppData\Local\Temp\ccmBQqfl.s:22236  .debug_str:0000000000001d04 .LASF1822
C:\Users\CYMR90~1\AppData\Local\Temp\ccmBQqfl.s:30709  .debug_str:0000000000023925 .LASF1823
C:\Users\CYMR90~1\AppData\Local\Temp\ccmBQqfl.s:30471  .debug_str:0000000000022b0e .LASF1824
C:\Users\CYMR90~1\AppData\Local\Temp\ccmBQqfl.s:28387  .debug_str:000000000001a88c .LASF1825
C:\Users\CYMR90~1\AppData\Local\Temp\ccmBQqfl.s:32295  .debug_str:0000000000029f2d .LASF1826
C:\Users\CYMR90~1\AppData\Local\Temp\ccmBQqfl.s:30623  .debug_str:0000000000023495 .LASF1827
C:\Users\CYMR90~1\AppData\Local\Temp\ccmBQqfl.s:30247  .debug_str:0000000000021e36 .LASF1828
C:\Users\CYMR90~1\AppData\Local\Temp\ccmBQqfl.s:29155  .debug_str:000000000001db23 .LASF1829
C:\Users\CYMR90~1\AppData\Local\Temp\ccmBQqfl.s:23486  .debug_str:0000000000006be3 .LASF1830
C:\Users\CYMR90~1\AppData\Local\Temp\ccmBQqfl.s:30663  .debug_str:0000000000023699 .LASF1831
C:\Users\CYMR90~1\AppData\Local\Temp\ccmBQqfl.s:31643  .debug_str:0000000000027510 .LASF1832
C:\Users\CYMR90~1\AppData\Local\Temp\ccmBQqfl.s:26916  .debug_str:00000000000147b7 .LASF1833
C:\Users\CYMR90~1\AppData\Local\Temp\ccmBQqfl.s:31585  .debug_str:0000000000027160 .LASF1834
C:\Users\CYMR90~1\AppData\Local\Temp\ccmBQqfl.s:24726  .debug_str:000000000000bce0 .LASF1835
C:\Users\CYMR90~1\AppData\Local\Temp\ccmBQqfl.s:32677  .debug_str:000000000002b5a1 .LASF1836
C:\Users\CYMR90~1\AppData\Local\Temp\ccmBQqfl.s:22640  .debug_str:000000000000367b .LASF1837
C:\Users\CYMR90~1\AppData\Local\Temp\ccmBQqfl.s:30721  .debug_str:00000000000239cb .LASF1838
C:\Users\CYMR90~1\AppData\Local\Temp\ccmBQqfl.s:29727  .debug_str:000000000001fe63 .LASF1839
C:\Users\CYMR90~1\AppData\Local\Temp\ccmBQqfl.s:32731  .debug_str:000000000002b98e .LASF1840
C:\Users\CYMR90~1\AppData\Local\Temp\ccmBQqfl.s:27785  .debug_str:0000000000018106 .LASF1841
C:\Users\CYMR90~1\AppData\Local\Temp\ccmBQqfl.s:24482  .debug_str:000000000000ac21 .LASF1842
C:\Users\CYMR90~1\AppData\Local\Temp\ccmBQqfl.s:25696  .debug_str:000000000000f9ee .LASF1843
C:\Users\CYMR90~1\AppData\Local\Temp\ccmBQqfl.s:24704  .debug_str:000000000000bb2b .LASF1844
C:\Users\CYMR90~1\AppData\Local\Temp\ccmBQqfl.s:26254  .debug_str:0000000000011de8 .LASF1845
C:\Users\CYMR90~1\AppData\Local\Temp\ccmBQqfl.s:30193  .debug_str:0000000000021ab9 .LASF1846
C:\Users\CYMR90~1\AppData\Local\Temp\ccmBQqfl.s:30603  .debug_str:000000000002335f .LASF1847
C:\Users\CYMR90~1\AppData\Local\Temp\ccmBQqfl.s:31167  .debug_str:00000000000256c7 .LASF1848
C:\Users\CYMR90~1\AppData\Local\Temp\ccmBQqfl.s:26352  .debug_str:0000000000012414 .LASF1849
C:\Users\CYMR90~1\AppData\Local\Temp\ccmBQqfl.s:28327  .debug_str:000000000001a396 .LASF1850
C:\Users\CYMR90~1\AppData\Local\Temp\ccmBQqfl.s:25038  .debug_str:000000000000d09b .LASF1851
C:\Users\CYMR90~1\AppData\Local\Temp\ccmBQqfl.s:22460  .debug_str:0000000000002abf .LASF1852
C:\Users\CYMR90~1\AppData\Local\Temp\ccmBQqfl.s:23218  .debug_str:0000000000005be6 .LASF1853
C:\Users\CYMR90~1\AppData\Local\Temp\ccmBQqfl.s:33097  .debug_str:000000000002d1eb .LASF1854
C:\Users\CYMR90~1\AppData\Local\Temp\ccmBQqfl.s:26652  .debug_str:00000000000137bd .LASF1855
C:\Users\CYMR90~1\AppData\Local\Temp\ccmBQqfl.s:30487  .debug_str:0000000000022c1f .LASF1856
C:\Users\CYMR90~1\AppData\Local\Temp\ccmBQqfl.s:32103  .debug_str:000000000002935a .LASF1857
C:\Users\CYMR90~1\AppData\Local\Temp\ccmBQqfl.s:28807  .debug_str:000000000001c3e5 .LASF1858
C:\Users\CYMR90~1\AppData\Local\Temp\ccmBQqfl.s:23800  .debug_str:0000000000008057 .LASF1859
C:\Users\CYMR90~1\AppData\Local\Temp\ccmBQqfl.s:23280  .debug_str:0000000000005f7d .LASF1860
C:\Users\CYMR90~1\AppData\Local\Temp\ccmBQqfl.s:22626  .debug_str:000000000000357c .LASF1861
C:\Users\CYMR90~1\AppData\Local\Temp\ccmBQqfl.s:24602  .debug_str:000000000000b420 .LASF1862
C:\Users\CYMR90~1\AppData\Local\Temp\ccmBQqfl.s:28475  .debug_str:000000000001ae96 .LASF1863
C:\Users\CYMR90~1\AppData\Local\Temp\ccmBQqfl.s:32525  .debug_str:000000000002acab .LASF1864
C:\Users\CYMR90~1\AppData\Local\Temp\ccmBQqfl.s:23080  .debug_str:0000000000005347 .LASF1865
C:\Users\CYMR90~1\AppData\Local\Temp\ccmBQqfl.s:31539  .debug_str:0000000000026edf .LASF1866
C:\Users\CYMR90~1\AppData\Local\Temp\ccmBQqfl.s:29533  .debug_str:000000000001f29f .LASF1867
C:\Users\CYMR90~1\AppData\Local\Temp\ccmBQqfl.s:27631  .debug_str:0000000000017774 .LASF1868
C:\Users\CYMR90~1\AppData\Local\Temp\ccmBQqfl.s:24472  .debug_str:000000000000ab61 .LASF1869
C:\Users\CYMR90~1\AppData\Local\Temp\ccmBQqfl.s:25286  .debug_str:000000000000e097 .LASF1870
C:\Users\CYMR90~1\AppData\Local\Temp\ccmBQqfl.s:29995  .debug_str:0000000000020e8f .LASF1871
C:\Users\CYMR90~1\AppData\Local\Temp\ccmBQqfl.s:26778  .debug_str:0000000000013f88 .LASF1872
C:\Users\CYMR90~1\AppData\Local\Temp\ccmBQqfl.s:22436  .debug_str:0000000000002913 .LASF1873
C:\Users\CYMR90~1\AppData\Local\Temp\ccmBQqfl.s:26070  .debug_str:00000000000111c8 .LASF1874
C:\Users\CYMR90~1\AppData\Local\Temp\ccmBQqfl.s:27392  .debug_str:000000000001663b .LASF1875
C:\Users\CYMR90~1\AppData\Local\Temp\ccmBQqfl.s:24158  .debug_str:000000000000979d .LASF1876
C:\Users\CYMR90~1\AppData\Local\Temp\ccmBQqfl.s:24630  .debug_str:000000000000b5a0 .LASF1877
C:\Users\CYMR90~1\AppData\Local\Temp\ccmBQqfl.s:27735  .debug_str:0000000000017e24 .LASF1878
C:\Users\CYMR90~1\AppData\Local\Temp\ccmBQqfl.s:27336  .debug_str:00000000000162b8 .LASF1879
C:\Users\CYMR90~1\AppData\Local\Temp\ccmBQqfl.s:25170  .debug_str:000000000000d9a9 .LASF1880
C:\Users\CYMR90~1\AppData\Local\Temp\ccmBQqfl.s:23250  .debug_str:0000000000005de4 .LASF1881
C:\Users\CYMR90~1\AppData\Local\Temp\ccmBQqfl.s:21810  .debug_str:0000000000000174 .LASF1882
C:\Users\CYMR90~1\AppData\Local\Temp\ccmBQqfl.s:25518  .debug_str:000000000000eee2 .LASF1883
C:\Users\CYMR90~1\AppData\Local\Temp\ccmBQqfl.s:24762  .debug_str:000000000000bed9 .LASF1884
C:\Users\CYMR90~1\AppData\Local\Temp\ccmBQqfl.s:32899  .debug_str:000000000002c4e5 .LASF1885
C:\Users\CYMR90~1\AppData\Local\Temp\ccmBQqfl.s:24732  .debug_str:000000000000bd36 .LASF1886
C:\Users\CYMR90~1\AppData\Local\Temp\ccmBQqfl.s:32181  .debug_str:00000000000297f6 .LASF1887
C:\Users\CYMR90~1\AppData\Local\Temp\ccmBQqfl.s:23094  .debug_str:000000000000541e .LASF1888
C:\Users\CYMR90~1\AppData\Local\Temp\ccmBQqfl.s:22202  .debug_str:0000000000001af0 .LASF1889
C:\Users\CYMR90~1\AppData\Local\Temp\ccmBQqfl.s:30749  .debug_str:0000000000023bb9 .LASF1890
C:\Users\CYMR90~1\AppData\Local\Temp\ccmBQqfl.s:32065  .debug_str:0000000000029131 .LASF1891
C:\Users\CYMR90~1\AppData\Local\Temp\ccmBQqfl.s:32157  .debug_str:00000000000296a9 .LASF1892
C:\Users\CYMR90~1\AppData\Local\Temp\ccmBQqfl.s:26378  .debug_str:0000000000012590 .LASF1893
C:\Users\CYMR90~1\AppData\Local\Temp\ccmBQqfl.s:23804  .debug_str:000000000000809e .LASF1894
C:\Users\CYMR90~1\AppData\Local\Temp\ccmBQqfl.s:30635  .debug_str:0000000000023538 .LASF1895
C:\Users\CYMR90~1\AppData\Local\Temp\ccmBQqfl.s:22094  .debug_str:000000000000131e .LASF1896
C:\Users\CYMR90~1\AppData\Local\Temp\ccmBQqfl.s:21944  .debug_str:0000000000000967 .LASF1897
C:\Users\CYMR90~1\AppData\Local\Temp\ccmBQqfl.s:28603  .debug_str:000000000001b750 .LASF1898
C:\Users\CYMR90~1\AppData\Local\Temp\ccmBQqfl.s:29697  .debug_str:000000000001fcc8 .LASF1899
C:\Users\CYMR90~1\AppData\Local\Temp\ccmBQqfl.s:27559  .debug_str:0000000000017353 .LASF1900
C:\Users\CYMR90~1\AppData\Local\Temp\ccmBQqfl.s:26310  .debug_str:0000000000012132 .LASF1901
C:\Users\CYMR90~1\AppData\Local\Temp\ccmBQqfl.s:27657  .debug_str:00000000000178f2 .LASF1902
C:\Users\CYMR90~1\AppData\Local\Temp\ccmBQqfl.s:26806  .debug_str:0000000000014135 .LASF1903
C:\Users\CYMR90~1\AppData\Local\Temp\ccmBQqfl.s:22618  .debug_str:0000000000003508 .LASF1904
C:\Users\CYMR90~1\AppData\Local\Temp\ccmBQqfl.s:22848  .debug_str:0000000000004440 .LASF1905
C:\Users\CYMR90~1\AppData\Local\Temp\ccmBQqfl.s:24272  .debug_str:0000000000009f19 .LASF1906
C:\Users\CYMR90~1\AppData\Local\Temp\ccmBQqfl.s:29755  .debug_str:0000000000020032 .LASF1907
C:\Users\CYMR90~1\AppData\Local\Temp\ccmBQqfl.s:31357  .debug_str:00000000000263c1 .LASF1908
C:\Users\CYMR90~1\AppData\Local\Temp\ccmBQqfl.s:25856  .debug_str:0000000000010413 .LASF1909
C:\Users\CYMR90~1\AppData\Local\Temp\ccmBQqfl.s:24638  .debug_str:000000000000b61b .LASF1910
C:\Users\CYMR90~1\AppData\Local\Temp\ccmBQqfl.s:23424  .debug_str:00000000000067e5 .LASF1911
C:\Users\CYMR90~1\AppData\Local\Temp\ccmBQqfl.s:22508  .debug_str:0000000000002de1 .LASF1912
C:\Users\CYMR90~1\AppData\Local\Temp\ccmBQqfl.s:24310  .debug_str:000000000000a140 .LASF1913
C:\Users\CYMR90~1\AppData\Local\Temp\ccmBQqfl.s:32849  .debug_str:000000000002c142 .LASF1914
C:\Users\CYMR90~1\AppData\Local\Temp\ccmBQqfl.s:27655  .debug_str:00000000000178ce .LASF1915
C:\Users\CYMR90~1\AppData\Local\Temp\ccmBQqfl.s:22610  .debug_str:000000000000346e .LASF1916
C:\Users\CYMR90~1\AppData\Local\Temp\ccmBQqfl.s:32127  .debug_str:00000000000294ed .LASF1917
C:\Users\CYMR90~1\AppData\Local\Temp\ccmBQqfl.s:26346  .debug_str:000000000001239a .LASF1918
C:\Users\CYMR90~1\AppData\Local\Temp\ccmBQqfl.s:22630  .debug_str:00000000000035bf .LASF1919
C:\Users\CYMR90~1\AppData\Local\Temp\ccmBQqfl.s:25084  .debug_str:000000000000d3b4 .LASF1920
C:\Users\CYMR90~1\AppData\Local\Temp\ccmBQqfl.s:27607  .debug_str:0000000000017625 .LASF1921
C:\Users\CYMR90~1\AppData\Local\Temp\ccmBQqfl.s:29717  .debug_str:000000000001fddd .LASF1922
C:\Users\CYMR90~1\AppData\Local\Temp\ccmBQqfl.s:32289  .debug_str:0000000000029ed3 .LASF1923
C:\Users\CYMR90~1\AppData\Local\Temp\ccmBQqfl.s:31691  .debug_str:00000000000278d6 .LASF1924
C:\Users\CYMR90~1\AppData\Local\Temp\ccmBQqfl.s:26706  .debug_str:0000000000013b07 .LASF1925
C:\Users\CYMR90~1\AppData\Local\Temp\ccmBQqfl.s:28577  .debug_str:000000000001b57c .LASF1926
C:\Users\CYMR90~1\AppData\Local\Temp\ccmBQqfl.s:26886  .debug_str:0000000000014612 .LASF1927
C:\Users\CYMR90~1\AppData\Local\Temp\ccmBQqfl.s:30973  .debug_str:00000000000249dc .LASF1928
C:\Users\CYMR90~1\AppData\Local\Temp\ccmBQqfl.s:29657  .debug_str:000000000001fa1a .LASF1929
C:\Users\CYMR90~1\AppData\Local\Temp\ccmBQqfl.s:22464  .debug_str:0000000000002af6 .LASF1930
C:\Users\CYMR90~1\AppData\Local\Temp\ccmBQqfl.s:30097  .debug_str:00000000000214aa .LASF1931
C:\Users\CYMR90~1\AppData\Local\Temp\ccmBQqfl.s:23876  .debug_str:00000000000085cd .LASF1932
C:\Users\CYMR90~1\AppData\Local\Temp\ccmBQqfl.s:26748  .debug_str:0000000000013db1 .LASF1933
C:\Users\CYMR90~1\AppData\Local\Temp\ccmBQqfl.s:29387  .debug_str:000000000001e9b4 .LASF1934
C:\Users\CYMR90~1\AppData\Local\Temp\ccmBQqfl.s:26602  .debug_str:0000000000013444 .LASF1935
C:\Users\CYMR90~1\AppData\Local\Temp\ccmBQqfl.s:27727  .debug_str:0000000000017d9c .LASF1936
C:\Users\CYMR90~1\AppData\Local\Temp\ccmBQqfl.s:31669  .debug_str:00000000000276bc .LASF1937
C:\Users\CYMR90~1\AppData\Local\Temp\ccmBQqfl.s:30205  .debug_str:0000000000021b6b .LASF1938
C:\Users\CYMR90~1\AppData\Local\Temp\ccmBQqfl.s:26066  .debug_str:000000000001118d .LASF1939
C:\Users\CYMR90~1\AppData\Local\Temp\ccmBQqfl.s:30113  .debug_str:0000000000021584 .LASF1940
C:\Users\CYMR90~1\AppData\Local\Temp\ccmBQqfl.s:27949  .debug_str:0000000000018acc .LASF1941
C:\Users\CYMR90~1\AppData\Local\Temp\ccmBQqfl.s:29933  .debug_str:0000000000020a6a .LASF1942
C:\Users\CYMR90~1\AppData\Local\Temp\ccmBQqfl.s:26248  .debug_str:0000000000011d72 .LASF1943
C:\Users\CYMR90~1\AppData\Local\Temp\ccmBQqfl.s:22600  .debug_str:00000000000033d0 .LASF1944
C:\Users\CYMR90~1\AppData\Local\Temp\ccmBQqfl.s:22348  .debug_str:000000000000237d .LASF1945
C:\Users\CYMR90~1\AppData\Local\Temp\ccmBQqfl.s:28107  .debug_str:0000000000019577 .LASF1946
C:\Users\CYMR90~1\AppData\Local\Temp\ccmBQqfl.s:32391  .debug_str:000000000002a4a7 .LASF1947
C:\Users\CYMR90~1\AppData\Local\Temp\ccmBQqfl.s:23878  .debug_str:00000000000085f2 .LASF1948
C:\Users\CYMR90~1\AppData\Local\Temp\ccmBQqfl.s:30301  .debug_str:0000000000022173 .LASF1949
C:\Users\CYMR90~1\AppData\Local\Temp\ccmBQqfl.s:26164  .debug_str:0000000000011701 .LASF1950
C:\Users\CYMR90~1\AppData\Local\Temp\ccmBQqfl.s:25638  .debug_str:000000000000f5f6 .LASF1951
C:\Users\CYMR90~1\AppData\Local\Temp\ccmBQqfl.s:29673  .debug_str:000000000001fb4c .LASF1952
C:\Users\CYMR90~1\AppData\Local\Temp\ccmBQqfl.s:30231  .debug_str:0000000000021d0c .LASF1953
C:\Users\CYMR90~1\AppData\Local\Temp\ccmBQqfl.s:26444  .debug_str:00000000000129f7 .LASF1954
C:\Users\CYMR90~1\AppData\Local\Temp\ccmBQqfl.s:22632  .debug_str:00000000000035e6 .LASF1955
C:\Users\CYMR90~1\AppData\Local\Temp\ccmBQqfl.s:21808  .debug_str:000000000000014f .LASF1956
C:\Users\CYMR90~1\AppData\Local\Temp\ccmBQqfl.s:25492  .debug_str:000000000000ed09 .LASF1957
C:\Users\CYMR90~1\AppData\Local\Temp\ccmBQqfl.s:27663  .debug_str:0000000000017948 .LASF1958
C:\Users\CYMR90~1\AppData\Local\Temp\ccmBQqfl.s:32093  .debug_str:00000000000292c7 .LASF1959
C:\Users\CYMR90~1\AppData\Local\Temp\ccmBQqfl.s:31693  .debug_str:00000000000278fd .LASF1960
C:\Users\CYMR90~1\AppData\Local\Temp\ccmBQqfl.s:26708  .debug_str:0000000000013b2e .LASF1961
C:\Users\CYMR90~1\AppData\Local\Temp\ccmBQqfl.s:25254  .debug_str:000000000000de61 .LASF1962
C:\Users\CYMR90~1\AppData\Local\Temp\ccmBQqfl.s:23262  .debug_str:0000000000005e8a .LASF1963
C:\Users\CYMR90~1\AppData\Local\Temp\ccmBQqfl.s:27436  .debug_str:0000000000016955 .LASF1964
C:\Users\CYMR90~1\AppData\Local\Temp\ccmBQqfl.s:22154  .debug_str:000000000000175f .LASF1965
C:\Users\CYMR90~1\AppData\Local\Temp\ccmBQqfl.s:22708  .debug_str:0000000000003acc .LASF1966
C:\Users\CYMR90~1\AppData\Local\Temp\ccmBQqfl.s:31655  .debug_str:00000000000275b1 .LASF1967
C:\Users\CYMR90~1\AppData\Local\Temp\ccmBQqfl.s:26098  .debug_str:000000000001134c .LASF1968
C:\Users\CYMR90~1\AppData\Local\Temp\ccmBQqfl.s:28011  .debug_str:0000000000018efc .LASF1969
C:\Users\CYMR90~1\AppData\Local\Temp\ccmBQqfl.s:31455  .debug_str:00000000000269b4 .LASF1970
C:\Users\CYMR90~1\AppData\Local\Temp\ccmBQqfl.s:24052  .debug_str:00000000000091b7 .LASF1971
C:\Users\CYMR90~1\AppData\Local\Temp\ccmBQqfl.s:32371  .debug_str:000000000002a372 .LASF1972
C:\Users\CYMR90~1\AppData\Local\Temp\ccmBQqfl.s:33087  .debug_str:000000000002d0e6 .LASF1973
C:\Users\CYMR90~1\AppData\Local\Temp\ccmBQqfl.s:22744  .debug_str:0000000000003d10 .LASF1974
C:\Users\CYMR90~1\AppData\Local\Temp\ccmBQqfl.s:30731  .debug_str:0000000000023a72 .LASF1975
C:\Users\CYMR90~1\AppData\Local\Temp\ccmBQqfl.s:28091  .debug_str:00000000000194b0 .LASF1976
C:\Users\CYMR90~1\AppData\Local\Temp\ccmBQqfl.s:25632  .debug_str:000000000000f59f .LASF1977
C:\Users\CYMR90~1\AppData\Local\Temp\ccmBQqfl.s:23912  .debug_str:00000000000087d9 .LASF1978
C:\Users\CYMR90~1\AppData\Local\Temp\ccmBQqfl.s:29213  .debug_str:000000000001defb .LASF1979
C:\Users\CYMR90~1\AppData\Local\Temp\ccmBQqfl.s:27382  .debug_str:00000000000165a7 .LASF1980
C:\Users\CYMR90~1\AppData\Local\Temp\ccmBQqfl.s:25408  .debug_str:000000000000e799 .LASF1981
C:\Users\CYMR90~1\AppData\Local\Temp\ccmBQqfl.s:25546  .debug_str:000000000000f055 .LASF1982
C:\Users\CYMR90~1\AppData\Local\Temp\ccmBQqfl.s:29677  .debug_str:000000000001fb83 .LASF1983
C:\Users\CYMR90~1\AppData\Local\Temp\ccmBQqfl.s:27324  .debug_str:00000000000161dd .LASF1984
C:\Users\CYMR90~1\AppData\Local\Temp\ccmBQqfl.s:26304  .debug_str:00000000000120f0 .LASF1985
C:\Users\CYMR90~1\AppData\Local\Temp\ccmBQqfl.s:29457  .debug_str:000000000001ee24 .LASF1986
C:\Users\CYMR90~1\AppData\Local\Temp\ccmBQqfl.s:24640  .debug_str:000000000000b62a .LASF1987
C:\Users\CYMR90~1\AppData\Local\Temp\ccmBQqfl.s:25620  .debug_str:000000000000f4b8 .LASF1988
C:\Users\CYMR90~1\AppData\Local\Temp\ccmBQqfl.s:25266  .debug_str:000000000000df34 .LASF1989
C:\Users\CYMR90~1\AppData\Local\Temp\ccmBQqfl.s:23754  .debug_str:0000000000007cf8 .LASF1990
C:\Users\CYMR90~1\AppData\Local\Temp\ccmBQqfl.s:24848  .debug_str:000000000000c4ae .LASF1991
C:\Users\CYMR90~1\AppData\Local\Temp\ccmBQqfl.s:25434  .debug_str:000000000000e96a .LASF1992
C:\Users\CYMR90~1\AppData\Local\Temp\ccmBQqfl.s:27356  .debug_str:0000000000016424 .LASF1993
C:\Users\CYMR90~1\AppData\Local\Temp\ccmBQqfl.s:22870  .debug_str:0000000000004559 .LASF1994
C:\Users\CYMR90~1\AppData\Local\Temp\ccmBQqfl.s:25724  .debug_str:000000000000fba6 .LASF1995
C:\Users\CYMR90~1\AppData\Local\Temp\ccmBQqfl.s:32637  .debug_str:000000000002b367 .LASF1996
C:\Users\CYMR90~1\AppData\Local\Temp\ccmBQqfl.s:29467  .debug_str:000000000001eec4 .LASF1997
C:\Users\CYMR90~1\AppData\Local\Temp\ccmBQqfl.s:24256  .debug_str:0000000000009e47 .LASF1998
C:\Users\CYMR90~1\AppData\Local\Temp\ccmBQqfl.s:28427  .debug_str:000000000001abb9 .LASF1999
C:\Users\CYMR90~1\AppData\Local\Temp\ccmBQqfl.s:22806  .debug_str:00000000000040b5 .LASF2000
C:\Users\CYMR90~1\AppData\Local\Temp\ccmBQqfl.s:24356  .debug_str:000000000000a42d .LASF2001
C:\Users\CYMR90~1\AppData\Local\Temp\ccmBQqfl.s:29553  .debug_str:000000000001f3b5 .LASF2002
C:\Users\CYMR90~1\AppData\Local\Temp\ccmBQqfl.s:22722  .debug_str:0000000000003b90 .LASF2003
C:\Users\CYMR90~1\AppData\Local\Temp\ccmBQqfl.s:26194  .debug_str:00000000000118f2 .LASF2004
C:\Users\CYMR90~1\AppData\Local\Temp\ccmBQqfl.s:22486  .debug_str:0000000000002c79 .LASF2005
C:\Users\CYMR90~1\AppData\Local\Temp\ccmBQqfl.s:23702  .debug_str:00000000000079a5 .LASF2006
C:\Users\CYMR90~1\AppData\Local\Temp\ccmBQqfl.s:27054  .debug_str:00000000000150e1 .LASF2007
C:\Users\CYMR90~1\AppData\Local\Temp\ccmBQqfl.s:23978  .debug_str:0000000000008c9f .LASF2008
C:\Users\CYMR90~1\AppData\Local\Temp\ccmBQqfl.s:29927  .debug_str:0000000000020a21 .LASF2009
C:\Users\CYMR90~1\AppData\Local\Temp\ccmBQqfl.s:24500  .debug_str:000000000000ad29 .LASF2010
C:\Users\CYMR90~1\AppData\Local\Temp\ccmBQqfl.s:30447  .debug_str:00000000000229e3 .LASF2011
C:\Users\CYMR90~1\AppData\Local\Temp\ccmBQqfl.s:29759  .debug_str:000000000002006f .LASF2012
C:\Users\CYMR90~1\AppData\Local\Temp\ccmBQqfl.s:30941  .debug_str:0000000000024797 .LASF2013
C:\Users\CYMR90~1\AppData\Local\Temp\ccmBQqfl.s:31527  .debug_str:0000000000026e30 .LASF2014
C:\Users\CYMR90~1\AppData\Local\Temp\ccmBQqfl.s:31361  .debug_str:00000000000263f4 .LASF2015
C:\Users\CYMR90~1\AppData\Local\Temp\ccmBQqfl.s:30993  .debug_str:0000000000024ada .LASF2016
C:\Users\CYMR90~1\AppData\Local\Temp\ccmBQqfl.s:30059  .debug_str:0000000000021275 .LASF2017
C:\Users\CYMR90~1\AppData\Local\Temp\ccmBQqfl.s:25902  .debug_str:00000000000106db .LASF2018
C:\Users\CYMR90~1\AppData\Local\Temp\ccmBQqfl.s:28057  .debug_str:00000000000191af .LASF2019
C:\Users\CYMR90~1\AppData\Local\Temp\ccmBQqfl.s:29905  .debug_str:00000000000208cb .LASF2020
C:\Users\CYMR90~1\AppData\Local\Temp\ccmBQqfl.s:24772  .debug_str:000000000000bfb5 .LASF2021
C:\Users\CYMR90~1\AppData\Local\Temp\ccmBQqfl.s:23484  .debug_str:0000000000006bbb .LASF2022
C:\Users\CYMR90~1\AppData\Local\Temp\ccmBQqfl.s:30727  .debug_str:0000000000023a32 .LASF2023
C:\Users\CYMR90~1\AppData\Local\Temp\ccmBQqfl.s:32901  .debug_str:000000000002c4f6 .LASF2024
C:\Users\CYMR90~1\AppData\Local\Temp\ccmBQqfl.s:26794  .debug_str:0000000000014063 .LASF2025
C:\Users\CYMR90~1\AppData\Local\Temp\ccmBQqfl.s:24456  .debug_str:000000000000aa76 .LASF2026
C:\Users\CYMR90~1\AppData\Local\Temp\ccmBQqfl.s:28679  .debug_str:000000000001bc06 .LASF2027
C:\Users\CYMR90~1\AppData\Local\Temp\ccmBQqfl.s:27981  .debug_str:0000000000018d03 .LASF2028
C:\Users\CYMR90~1\AppData\Local\Temp\ccmBQqfl.s:32669  .debug_str:000000000002b529 .LASF2029
C:\Users\CYMR90~1\AppData\Local\Temp\ccmBQqfl.s:29235  .debug_str:000000000001e01b .LASF2030
C:\Users\CYMR90~1\AppData\Local\Temp\ccmBQqfl.s:28071  .debug_str:0000000000019274 .LASF2031
C:\Users\CYMR90~1\AppData\Local\Temp\ccmBQqfl.s:26480  .debug_str:0000000000012c52 .LASF2032
C:\Users\CYMR90~1\AppData\Local\Temp\ccmBQqfl.s:28719  .debug_str:000000000001be18 .LASF2033
C:\Users\CYMR90~1\AppData\Local\Temp\ccmBQqfl.s:23418  .debug_str:000000000000678d .LASF2034
C:\Users\CYMR90~1\AppData\Local\Temp\ccmBQqfl.s:21830  .debug_str:000000000000028a .LASF2035
C:\Users\CYMR90~1\AppData\Local\Temp\ccmBQqfl.s:22944  .debug_str:0000000000004a5c .LASF2036
C:\Users\CYMR90~1\AppData\Local\Temp\ccmBQqfl.s:28251  .debug_str:0000000000019f06 .LASF2037
C:\Users\CYMR90~1\AppData\Local\Temp\ccmBQqfl.s:27529  .debug_str:0000000000017167 .LASF2038
C:\Users\CYMR90~1\AppData\Local\Temp\ccmBQqfl.s:29293  .debug_str:000000000001e430 .LASF2039
C:\Users\CYMR90~1\AppData\Local\Temp\ccmBQqfl.s:22912  .debug_str:0000000000004831 .LASF2040
C:\Users\CYMR90~1\AppData\Local\Temp\ccmBQqfl.s:29527  .debug_str:000000000001f22c .LASF2041
C:\Users\CYMR90~1\AppData\Local\Temp\ccmBQqfl.s:23758  .debug_str:0000000000007d2e .LASF2042
C:\Users\CYMR90~1\AppData\Local\Temp\ccmBQqfl.s:28239  .debug_str:0000000000019e42 .LASF2043
C:\Users\CYMR90~1\AppData\Local\Temp\ccmBQqfl.s:24946  .debug_str:000000000000cb12 .LASF2044
C:\Users\CYMR90~1\AppData\Local\Temp\ccmBQqfl.s:23148  .debug_str:00000000000057a1 .LASF2045
C:\Users\CYMR90~1\AppData\Local\Temp\ccmBQqfl.s:32855  .debug_str:000000000002c19f .LASF2046
C:\Users\CYMR90~1\AppData\Local\Temp\ccmBQqfl.s:25412  .debug_str:000000000000e7d4 .LASF2047
C:\Users\CYMR90~1\AppData\Local\Temp\ccmBQqfl.s:30183  .debug_str:0000000000021a1d .LASF2048
C:\Users\CYMR90~1\AppData\Local\Temp\ccmBQqfl.s:29191  .debug_str:000000000001dd91 .LASF2049
C:\Users\CYMR90~1\AppData\Local\Temp\ccmBQqfl.s:29117  .debug_str:000000000001d8ac .LASF2050
C:\Users\CYMR90~1\AppData\Local\Temp\ccmBQqfl.s:22272  .debug_str:0000000000001f22 .LASF2051
C:\Users\CYMR90~1\AppData\Local\Temp\ccmBQqfl.s:30199  .debug_str:0000000000021b17 .LASF2052
C:\Users\CYMR90~1\AppData\Local\Temp\ccmBQqfl.s:31731  .debug_str:0000000000027b17 .LASF2053
C:\Users\CYMR90~1\AppData\Local\Temp\ccmBQqfl.s:26328  .debug_str:0000000000012236 .LASF2054
C:\Users\CYMR90~1\AppData\Local\Temp\ccmBQqfl.s:27539  .debug_str:0000000000017203 .LASF2055
C:\Users\CYMR90~1\AppData\Local\Temp\ccmBQqfl.s:24448  .debug_str:000000000000a9ab .LASF2056
C:\Users\CYMR90~1\AppData\Local\Temp\ccmBQqfl.s:27116  .debug_str:0000000000015503 .LASF2057
C:\Users\CYMR90~1\AppData\Local\Temp\ccmBQqfl.s:22634  .debug_str:000000000000360d .LASF2058
C:\Users\CYMR90~1\AppData\Local\Temp\ccmBQqfl.s:29547  .debug_str:000000000001f35b .LASF2059
C:\Users\CYMR90~1\AppData\Local\Temp\ccmBQqfl.s:28657  .debug_str:000000000001ba9e .LASF2060
C:\Users\CYMR90~1\AppData\Local\Temp\ccmBQqfl.s:27703  .debug_str:0000000000017bd8 .LASF2061
C:\Users\CYMR90~1\AppData\Local\Temp\ccmBQqfl.s:30947  .debug_str:0000000000024800 .LASF2062
C:\Users\CYMR90~1\AppData\Local\Temp\ccmBQqfl.s:26486  .debug_str:0000000000012caf .LASF2063
C:\Users\CYMR90~1\AppData\Local\Temp\ccmBQqfl.s:25214  .debug_str:000000000000dc2b .LASF2064
C:\Users\CYMR90~1\AppData\Local\Temp\ccmBQqfl.s:23964  .debug_str:0000000000008bc0 .LASF2065
C:\Users\CYMR90~1\AppData\Local\Temp\ccmBQqfl.s:25882  .debug_str:00000000000105b3 .LASF2066
C:\Users\CYMR90~1\AppData\Local\Temp\ccmBQqfl.s:28927  .debug_str:000000000001cb07 .LASF2067
C:\Users\CYMR90~1\AppData\Local\Temp\ccmBQqfl.s:26186  .debug_str:0000000000011876 .LASF2068
C:\Users\CYMR90~1\AppData\Local\Temp\ccmBQqfl.s:26404  .debug_str:000000000001274b .LASF2069
C:\Users\CYMR90~1\AppData\Local\Temp\ccmBQqfl.s:26084  .debug_str:0000000000011275 .LASF2070
C:\Users\CYMR90~1\AppData\Local\Temp\ccmBQqfl.s:27162  .debug_str:00000000000157b7 .LASF2071
C:\Users\CYMR90~1\AppData\Local\Temp\ccmBQqfl.s:22330  .debug_str:000000000000227b .LASF2072
C:\Users\CYMR90~1\AppData\Local\Temp\ccmBQqfl.s:25456  .debug_str:000000000000ea95 .LASF2073
C:\Users\CYMR90~1\AppData\Local\Temp\ccmBQqfl.s:29315  .debug_str:000000000001e583 .LASF2074
C:\Users\CYMR90~1\AppData\Local\Temp\ccmBQqfl.s:28341  .debug_str:000000000001a453 .LASF2075
C:\Users\CYMR90~1\AppData\Local\Temp\ccmBQqfl.s:25302  .debug_str:000000000000e15c .LASF2076
C:\Users\CYMR90~1\AppData\Local\Temp\ccmBQqfl.s:24652  .debug_str:000000000000b75e .LASF2077
C:\Users\CYMR90~1\AppData\Local\Temp\ccmBQqfl.s:27711  .debug_str:0000000000017c92 .LASF2078
C:\Users\CYMR90~1\AppData\Local\Temp\ccmBQqfl.s:32589  .debug_str:000000000002b06c .LASF2079
C:\Users\CYMR90~1\AppData\Local\Temp\ccmBQqfl.s:22964  .debug_str:0000000000004c1e .LASF2080
C:\Users\CYMR90~1\AppData\Local\Temp\ccmBQqfl.s:28803  .debug_str:000000000001c3a5 .LASF2081
C:\Users\CYMR90~1\AppData\Local\Temp\ccmBQqfl.s:29215  .debug_str:000000000001df13 .LASF2082
C:\Users\CYMR90~1\AppData\Local\Temp\ccmBQqfl.s:27008  .debug_str:0000000000014dee .LASF2083
C:\Users\CYMR90~1\AppData\Local\Temp\ccmBQqfl.s:31935  .debug_str:0000000000028922 .LASF2084
C:\Users\CYMR90~1\AppData\Local\Temp\ccmBQqfl.s:28551  .debug_str:000000000001b3ba .LASF2085
C:\Users\CYMR90~1\AppData\Local\Temp\ccmBQqfl.s:25220  .debug_str:000000000000dc96 .LASF2086
C:\Users\CYMR90~1\AppData\Local\Temp\ccmBQqfl.s:22738  .debug_str:0000000000003caa .LASF2087
C:\Users\CYMR90~1\AppData\Local\Temp\ccmBQqfl.s:22002  .debug_str:0000000000000d5c .LASF2088
C:\Users\CYMR90~1\AppData\Local\Temp\ccmBQqfl.s:31791  .debug_str:0000000000027eaa .LASF2089
C:\Users\CYMR90~1\AppData\Local\Temp\ccmBQqfl.s:30187  .debug_str:0000000000021a5b .LASF2090
C:\Users\CYMR90~1\AppData\Local\Temp\ccmBQqfl.s:23152  .debug_str:00000000000057d5 .LASF2091
C:\Users\CYMR90~1\AppData\Local\Temp\ccmBQqfl.s:28273  .debug_str:000000000001a066 .LASF2092
C:\Users\CYMR90~1\AppData\Local\Temp\ccmBQqfl.s:27595  .debug_str:000000000001756e .LASF2093
C:\Users\CYMR90~1\AppData\Local\Temp\ccmBQqfl.s:28987  .debug_str:000000000001cf58 .LASF2094
C:\Users\CYMR90~1\AppData\Local\Temp\ccmBQqfl.s:28509  .debug_str:000000000001b0da .LASF2095
C:\Users\CYMR90~1\AppData\Local\Temp\ccmBQqfl.s:31713  .debug_str:0000000000027a23 .LASF2096
C:\Users\CYMR90~1\AppData\Local\Temp\ccmBQqfl.s:26088  .debug_str:00000000000112a9 .LASF2097
C:\Users\CYMR90~1\AppData\Local\Temp\ccmBQqfl.s:30341  .debug_str:00000000000223f2 .LASF2098
C:\Users\CYMR90~1\AppData\Local\Temp\ccmBQqfl.s:32257  .debug_str:0000000000029cf3 .LASF2099
C:\Users\CYMR90~1\AppData\Local\Temp\ccmBQqfl.s:26296  .debug_str:0000000000012045 .LASF2100
C:\Users\CYMR90~1\AppData\Local\Temp\ccmBQqfl.s:32719  .debug_str:000000000002b8b3 .LASF2101
C:\Users\CYMR90~1\AppData\Local\Temp\ccmBQqfl.s:29407  .debug_str:000000000001eafe .LASF2102
C:\Users\CYMR90~1\AppData\Local\Temp\ccmBQqfl.s:23046  .debug_str:000000000000512e .LASF2103
C:\Users\CYMR90~1\AppData\Local\Temp\ccmBQqfl.s:32117  .debug_str:000000000002942b .LASF2104
C:\Users\CYMR90~1\AppData\Local\Temp\ccmBQqfl.s:32683  .debug_str:000000000002b638 .LASF2105
C:\Users\CYMR90~1\AppData\Local\Temp\ccmBQqfl.s:25284  .debug_str:000000000000e06c .LASF2106
C:\Users\CYMR90~1\AppData\Local\Temp\ccmBQqfl.s:25258  .debug_str:000000000000de97 .LASF2107
C:\Users\CYMR90~1\AppData\Local\Temp\ccmBQqfl.s:28723  .debug_str:000000000001be69 .LASF2108
C:\Users\CYMR90~1\AppData\Local\Temp\ccmBQqfl.s:26804  .debug_str:000000000001410a .LASF2109
C:\Users\CYMR90~1\AppData\Local\Temp\ccmBQqfl.s:31949  .debug_str:0000000000028a01 .LASF2110
C:\Users\CYMR90~1\AppData\Local\Temp\ccmBQqfl.s:25606  .debug_str:000000000000f3d8 .LASF2111
C:\Users\CYMR90~1\AppData\Local\Temp\ccmBQqfl.s:28753  .debug_str:000000000001c05f .LASF2112
C:\Users\CYMR90~1\AppData\Local\Temp\ccmBQqfl.s:31079  .debug_str:0000000000025117 .LASF2113
C:\Users\CYMR90~1\AppData\Local\Temp\ccmBQqfl.s:25212  .debug_str:000000000000dc04 .LASF2114
C:\Users\CYMR90~1\AppData\Local\Temp\ccmBQqfl.s:30235  .debug_str:0000000000021d47 .LASF2115
C:\Users\CYMR90~1\AppData\Local\Temp\ccmBQqfl.s:22084  .debug_str:000000000000129f .LASF2116
C:\Users\CYMR90~1\AppData\Local\Temp\ccmBQqfl.s:28451  .debug_str:000000000001ad13 .LASF2117
C:\Users\CYMR90~1\AppData\Local\Temp\ccmBQqfl.s:28947  .debug_str:000000000001cce4 .LASF2118
C:\Users\CYMR90~1\AppData\Local\Temp\ccmBQqfl.s:22578  .debug_str:000000000000326a .LASF2119
C:\Users\CYMR90~1\AppData\Local\Temp\ccmBQqfl.s:31375  .debug_str:00000000000264fb .LASF2120
C:\Users\CYMR90~1\AppData\Local\Temp\ccmBQqfl.s:32193  .debug_str:00000000000298b5 .LASF2121
C:\Users\CYMR90~1\AppData\Local\Temp\ccmBQqfl.s:26840  .debug_str:000000000001433b .LASF2122
C:\Users\CYMR90~1\AppData\Local\Temp\ccmBQqfl.s:31901  .debug_str:0000000000028661 .LASF2123
C:\Users\CYMR90~1\AppData\Local\Temp\ccmBQqfl.s:23662  .debug_str:0000000000007717 .LASF2124
C:\Users\CYMR90~1\AppData\Local\Temp\ccmBQqfl.s:30013  .debug_str:0000000000020fb6 .LASF2125
C:\Users\CYMR90~1\AppData\Local\Temp\ccmBQqfl.s:23724  .debug_str:0000000000007b01 .LASF2126
C:\Users\CYMR90~1\AppData\Local\Temp\ccmBQqfl.s:28767  .debug_str:000000000001c134 .LASF2127
C:\Users\CYMR90~1\AppData\Local\Temp\ccmBQqfl.s:31945  .debug_str:00000000000289c0 .LASF2128
C:\Users\CYMR90~1\AppData\Local\Temp\ccmBQqfl.s:26956  .debug_str:0000000000014a8f .LASF2129
C:\Users\CYMR90~1\AppData\Local\Temp\ccmBQqfl.s:22976  .debug_str:0000000000004cda .LASF2130
C:\Users\CYMR90~1\AppData\Local\Temp\ccmBQqfl.s:22500  .debug_str:0000000000002d85 .LASF2131
C:\Users\CYMR90~1\AppData\Local\Temp\ccmBQqfl.s:33173  .debug_str:000000000002d69e .LASF2132
C:\Users\CYMR90~1\AppData\Local\Temp\ccmBQqfl.s:23344  .debug_str:0000000000006339 .LASF2133
C:\Users\CYMR90~1\AppData\Local\Temp\ccmBQqfl.s:26966  .debug_str:0000000000014b69 .LASF2134
C:\Users\CYMR90~1\AppData\Local\Temp\ccmBQqfl.s:32747  .debug_str:000000000002ba6a .LASF2135
C:\Users\CYMR90~1\AppData\Local\Temp\ccmBQqfl.s:24426  .debug_str:000000000000a8aa .LASF2136
C:\Users\CYMR90~1\AppData\Local\Temp\ccmBQqfl.s:27941  .debug_str:0000000000018a43 .LASF2137
C:\Users\CYMR90~1\AppData\Local\Temp\ccmBQqfl.s:22366  .debug_str:000000000000249b .LASF2138
C:\Users\CYMR90~1\AppData\Local\Temp\ccmBQqfl.s:26878  .debug_str:00000000000145a8 .LASF2139
C:\Users\CYMR90~1\AppData\Local\Temp\ccmBQqfl.s:25984  .debug_str:0000000000010c4d .LASF2140
C:\Users\CYMR90~1\AppData\Local\Temp\ccmBQqfl.s:24878  .debug_str:000000000000c680 .LASF2141
C:\Users\CYMR90~1\AppData\Local\Temp\ccmBQqfl.s:25924  .debug_str:0000000000010826 .LASF2142
C:\Users\CYMR90~1\AppData\Local\Temp\ccmBQqfl.s:30141  .debug_str:000000000002171c .LASF2143
C:\Users\CYMR90~1\AppData\Local\Temp\ccmBQqfl.s:31549  .debug_str:0000000000026f8d .LASF2144
C:\Users\CYMR90~1\AppData\Local\Temp\ccmBQqfl.s:25938  .debug_str:00000000000108f8 .LASF2145
C:\Users\CYMR90~1\AppData\Local\Temp\ccmBQqfl.s:26338  .debug_str:0000000000012310 .LASF2146
C:\Users\CYMR90~1\AppData\Local\Temp\ccmBQqfl.s:25388  .debug_str:000000000000e666 .LASF2147
C:\Users\CYMR90~1\AppData\Local\Temp\ccmBQqfl.s:23356  .debug_str:0000000000006408 .LASF2148
C:\Users\CYMR90~1\AppData\Local\Temp\ccmBQqfl.s:22410  .debug_str:0000000000002713 .LASF2149
C:\Users\CYMR90~1\AppData\Local\Temp\ccmBQqfl.s:29177  .debug_str:000000000001dcb2 .LASF2150
C:\Users\CYMR90~1\AppData\Local\Temp\ccmBQqfl.s:31429  .debug_str:000000000002682e .LASF2151
C:\Users\CYMR90~1\AppData\Local\Temp\ccmBQqfl.s:29791  .debug_str:0000000000020268 .LASF2152
C:\Users\CYMR90~1\AppData\Local\Temp\ccmBQqfl.s:29807  .debug_str:0000000000020340 .LASF2153
C:\Users\CYMR90~1\AppData\Local\Temp\ccmBQqfl.s:30985  .debug_str:0000000000024a7d .LASF2154
C:\Users\CYMR90~1\AppData\Local\Temp\ccmBQqfl.s:31657  .debug_str:00000000000275c7 .LASF2155
C:\Users\CYMR90~1\AppData\Local\Temp\ccmBQqfl.s:28873  .debug_str:000000000001c817 .LASF2156
C:\Users\CYMR90~1\AppData\Local\Temp\ccmBQqfl.s:29043  .debug_str:000000000001d3b8 .LASF2157
C:\Users\CYMR90~1\AppData\Local\Temp\ccmBQqfl.s:23934  .debug_str:0000000000008926 .LASF2158
C:\Users\CYMR90~1\AppData\Local\Temp\ccmBQqfl.s:26692  .debug_str:0000000000013a4a .LASF2159
C:\Users\CYMR90~1\AppData\Local\Temp\ccmBQqfl.s:30285  .debug_str:0000000000022041 .LASF2160
C:\Users\CYMR90~1\AppData\Local\Temp\ccmBQqfl.s:32553  .debug_str:000000000002ae3b .LASF2161
C:\Users\CYMR90~1\AppData\Local\Temp\ccmBQqfl.s:31065  .debug_str:0000000000025028 .LASF2162
C:\Users\CYMR90~1\AppData\Local\Temp\ccmBQqfl.s:23510  .debug_str:0000000000006d35 .LASF2163
C:\Users\CYMR90~1\AppData\Local\Temp\ccmBQqfl.s:25838  .debug_str:00000000000102c1 .LASF2164
C:\Users\CYMR90~1\AppData\Local\Temp\ccmBQqfl.s:23456  .debug_str:00000000000069c9 .LASF2165
C:\Users\CYMR90~1\AppData\Local\Temp\ccmBQqfl.s:32967  .debug_str:000000000002c984 .LASF2166
C:\Users\CYMR90~1\AppData\Local\Temp\ccmBQqfl.s:32377  .debug_str:000000000002a3b1 .LASF2167
C:\Users\CYMR90~1\AppData\Local\Temp\ccmBQqfl.s:25132  .debug_str:000000000000d76e .LASF2168
C:\Users\CYMR90~1\AppData\Local\Temp\ccmBQqfl.s:24170  .debug_str:00000000000098ac .LASF2169
C:\Users\CYMR90~1\AppData\Local\Temp\ccmBQqfl.s:22728  .debug_str:0000000000003c19 .LASF2170
C:\Users\CYMR90~1\AppData\Local\Temp\ccmBQqfl.s:25850  .debug_str:00000000000103a2 .LASF2171
C:\Users\CYMR90~1\AppData\Local\Temp\ccmBQqfl.s:24612  .debug_str:000000000000b4bc .LASF2172
C:\Users\CYMR90~1\AppData\Local\Temp\ccmBQqfl.s:23386  .debug_str:00000000000065aa .LASF2173
C:\Users\CYMR90~1\AppData\Local\Temp\ccmBQqfl.s:30851  .debug_str:00000000000241fa .LASF2174
C:\Users\CYMR90~1\AppData\Local\Temp\ccmBQqfl.s:30021  .debug_str:0000000000021031 .LASF2175
C:\Users\CYMR90~1\AppData\Local\Temp\ccmBQqfl.s:26398  .debug_str:00000000000126e3 .LASF2176
C:\Users\CYMR90~1\AppData\Local\Temp\ccmBQqfl.s:24716  .debug_str:000000000000bbdb .LASF2177
C:\Users\CYMR90~1\AppData\Local\Temp\ccmBQqfl.s:31727  .debug_str:0000000000027aea .LASF2178
C:\Users\CYMR90~1\AppData\Local\Temp\ccmBQqfl.s:24154  .debug_str:000000000000976d .LASF2179
C:\Users\CYMR90~1\AppData\Local\Temp\ccmBQqfl.s:25488  .debug_str:000000000000ecb2 .LASF2180
C:\Users\CYMR90~1\AppData\Local\Temp\ccmBQqfl.s:23520  .debug_str:0000000000006df2 .LASF2181
C:\Users\CYMR90~1\AppData\Local\Temp\ccmBQqfl.s:25898  .debug_str:00000000000106a2 .LASF2182
C:\Users\CYMR90~1\AppData\Local\Temp\ccmBQqfl.s:32835  .debug_str:000000000002c065 .LASF2183
C:\Users\CYMR90~1\AppData\Local\Temp\ccmBQqfl.s:31501  .debug_str:0000000000026cb3 .LASF2184
C:\Users\CYMR90~1\AppData\Local\Temp\ccmBQqfl.s:21938  .debug_str:0000000000000913 .LASF2185
C:\Users\CYMR90~1\AppData\Local\Temp\ccmBQqfl.s:26300  .debug_str:000000000001209a .LASF2186
C:\Users\CYMR90~1\AppData\Local\Temp\ccmBQqfl.s:29489  .debug_str:000000000001f009 .LASF2187
C:\Users\CYMR90~1\AppData\Local\Temp\ccmBQqfl.s:32779  .debug_str:000000000002bcdd .LASF2188
C:\Users\CYMR90~1\AppData\Local\Temp\ccmBQqfl.s:24614  .debug_str:000000000000b4e1 .LASF2189
C:\Users\CYMR90~1\AppData\Local\Temp\ccmBQqfl.s:23562  .debug_str:00000000000070c4 .LASF2190
C:\Users\CYMR90~1\AppData\Local\Temp\ccmBQqfl.s:31057  .debug_str:0000000000024fa5 .LASF2191
C:\Users\CYMR90~1\AppData\Local\Temp\ccmBQqfl.s:30813  .debug_str:0000000000023fdd .LASF2192
C:\Users\CYMR90~1\AppData\Local\Temp\ccmBQqfl.s:26076  .debug_str:000000000001122f .LASF2193
C:\Users\CYMR90~1\AppData\Local\Temp\ccmBQqfl.s:29255  .debug_str:000000000001e163 .LASF2194
C:\Users\CYMR90~1\AppData\Local\Temp\ccmBQqfl.s:32523  .debug_str:000000000002ac92 .LASF2195
C:\Users\CYMR90~1\AppData\Local\Temp\ccmBQqfl.s:22248  .debug_str:0000000000001dbc .LASF2196
C:\Users\CYMR90~1\AppData\Local\Temp\ccmBQqfl.s:26978  .debug_str:0000000000014c15 .LASF2197
C:\Users\CYMR90~1\AppData\Local\Temp\ccmBQqfl.s:31729  .debug_str:0000000000027afc .LASF2198
C:\Users\CYMR90~1\AppData\Local\Temp\ccmBQqfl.s:28615  .debug_str:000000000001b803 .LASF2199
C:\Users\CYMR90~1\AppData\Local\Temp\ccmBQqfl.s:29799  .debug_str:00000000000202e0 .LASF2200
C:\Users\CYMR90~1\AppData\Local\Temp\ccmBQqfl.s:23120  .debug_str:00000000000055bc .LASF2201
C:\Users\CYMR90~1\AppData\Local\Temp\ccmBQqfl.s:27867  .debug_str:00000000000185f4 .LASF2202
C:\Users\CYMR90~1\AppData\Local\Temp\ccmBQqfl.s:32623  .debug_str:000000000002b28d .LASF2203
C:\Users\CYMR90~1\AppData\Local\Temp\ccmBQqfl.s:28729  .debug_str:000000000001becb .LASF2204
C:\Users\CYMR90~1\AppData\Local\Temp\ccmBQqfl.s:31785  .debug_str:0000000000027e45 .LASF2205
C:\Users\CYMR90~1\AppData\Local\Temp\ccmBQqfl.s:25142  .debug_str:000000000000d80c .LASF2206
C:\Users\CYMR90~1\AppData\Local\Temp\ccmBQqfl.s:29855  .debug_str:000000000002062d .LASF2207
C:\Users\CYMR90~1\AppData\Local\Temp\ccmBQqfl.s:23176  .debug_str:0000000000005917 .LASF2208
C:\Users\CYMR90~1\AppData\Local\Temp\ccmBQqfl.s:27919  .debug_str:0000000000018922 .LASF2209
C:\Users\CYMR90~1\AppData\Local\Temp\ccmBQqfl.s:32679  .debug_str:000000000002b607 .LASF2210
C:\Users\CYMR90~1\AppData\Local\Temp\ccmBQqfl.s:32557  .debug_str:000000000002ae73 .LASF2211
C:\Users\CYMR90~1\AppData\Local\Temp\ccmBQqfl.s:24400  .debug_str:000000000000a727 .LASF2212
C:\Users\CYMR90~1\AppData\Local\Temp\ccmBQqfl.s:27611  .debug_str:000000000001766a .LASF2213
C:\Users\CYMR90~1\AppData\Local\Temp\ccmBQqfl.s:30855  .debug_str:000000000002422b .LASF2214
C:\Users\CYMR90~1\AppData\Local\Temp\ccmBQqfl.s:22762  .debug_str:0000000000003e0c .LASF2215
C:\Users\CYMR90~1\AppData\Local\Temp\ccmBQqfl.s:25948  .debug_str:0000000000010a58 .LASF2216
C:\Users\CYMR90~1\AppData\Local\Temp\ccmBQqfl.s:29147  .debug_str:000000000001dabe .LASF2217
C:\Users\CYMR90~1\AppData\Local\Temp\ccmBQqfl.s:32403  .debug_str:000000000002a549 .LASF2218
C:\Users\CYMR90~1\AppData\Local\Temp\ccmBQqfl.s:26736  .debug_str:0000000000013ce8 .LASF2219
C:\Users\CYMR90~1\AppData\Local\Temp\ccmBQqfl.s:25122  .debug_str:000000000000d6c7 .LASF2220
C:\Users\CYMR90~1\AppData\Local\Temp\ccmBQqfl.s:28499  .debug_str:000000000001b037 .LASF2221
C:\Users\CYMR90~1\AppData\Local\Temp\ccmBQqfl.s:21824  .debug_str:0000000000000234 .LASF2222
C:\Users\CYMR90~1\AppData\Local\Temp\ccmBQqfl.s:30493  .debug_str:0000000000022c7f .LASF2223
C:\Users\CYMR90~1\AppData\Local\Temp\ccmBQqfl.s:31275  .debug_str:0000000000025ed0 .LASF2224
C:\Users\CYMR90~1\AppData\Local\Temp\ccmBQqfl.s:24648  .debug_str:000000000000b6a8 .LASF2225
C:\Users\CYMR90~1\AppData\Local\Temp\ccmBQqfl.s:29331  .debug_str:000000000001e676 .LASF2226
C:\Users\CYMR90~1\AppData\Local\Temp\ccmBQqfl.s:24974  .debug_str:000000000000cd20 .LASF2227
C:\Users\CYMR90~1\AppData\Local\Temp\ccmBQqfl.s:27400  .debug_str:000000000001669b .LASF2228
C:\Users\CYMR90~1\AppData\Local\Temp\ccmBQqfl.s:29549  .debug_str:000000000001f38a .LASF2229
C:\Users\CYMR90~1\AppData\Local\Temp\ccmBQqfl.s:26608  .debug_str:00000000000134a4 .LASF2230
C:\Users\CYMR90~1\AppData\Local\Temp\ccmBQqfl.s:31329  .debug_str:0000000000026220 .LASF2231
C:\Users\CYMR90~1\AppData\Local\Temp\ccmBQqfl.s:30905  .debug_str:00000000000244d3 .LASF2232
C:\Users\CYMR90~1\AppData\Local\Temp\ccmBQqfl.s:29379  .debug_str:000000000001e946 .LASF2233
C:\Users\CYMR90~1\AppData\Local\Temp\ccmBQqfl.s:22724  .debug_str:0000000000003bce .LASF2234
C:\Users\CYMR90~1\AppData\Local\Temp\ccmBQqfl.s:27464  .debug_str:0000000000016ace .LASF2235
C:\Users\CYMR90~1\AppData\Local\Temp\ccmBQqfl.s:24530  .debug_str:000000000000aefd .LASF2236
C:\Users\CYMR90~1\AppData\Local\Temp\ccmBQqfl.s:27637  .debug_str:00000000000177bb .LASF2237
C:\Users\CYMR90~1\AppData\Local\Temp\ccmBQqfl.s:30891  .debug_str:0000000000024422 .LASF2238
C:\Users\CYMR90~1\AppData\Local\Temp\ccmBQqfl.s:22710  .debug_str:0000000000003ae2 .LASF2239
C:\Users\CYMR90~1\AppData\Local\Temp\ccmBQqfl.s:25986  .debug_str:0000000000010c63 .LASF2240
C:\Users\CYMR90~1\AppData\Local\Temp\ccmBQqfl.s:26230  .debug_str:0000000000011be1 .LASF2241
C:\Users\CYMR90~1\AppData\Local\Temp\ccmBQqfl.s:32443  .debug_str:000000000002a773 .LASF2242
C:\Users\CYMR90~1\AppData\Local\Temp\ccmBQqfl.s:24284  .debug_str:0000000000009fd9 .LASF2243
C:\Users\CYMR90~1\AppData\Local\Temp\ccmBQqfl.s:32717  .debug_str:000000000002b89c .LASF2244
C:\Users\CYMR90~1\AppData\Local\Temp\ccmBQqfl.s:30661  .debug_str:0000000000023682 .LASF2245
C:\Users\CYMR90~1\AppData\Local\Temp\ccmBQqfl.s:32007  .debug_str:0000000000028dd0 .LASF2246
C:\Users\CYMR90~1\AppData\Local\Temp\ccmBQqfl.s:25358  .debug_str:000000000000e4b0 .LASF2247
C:\Users\CYMR90~1\AppData\Local\Temp\ccmBQqfl.s:30079  .debug_str:0000000000021399 .LASF2248
C:\Users\CYMR90~1\AppData\Local\Temp\ccmBQqfl.s:23406  .debug_str:00000000000066f2 .LASF2249
C:\Users\CYMR90~1\AppData\Local\Temp\ccmBQqfl.s:28159  .debug_str:00000000000198a3 .LASF2250
C:\Users\CYMR90~1\AppData\Local\Temp\ccmBQqfl.s:28541  .debug_str:000000000001b32e .LASF2251
C:\Users\CYMR90~1\AppData\Local\Temp\ccmBQqfl.s:26238  .debug_str:0000000000011c4e .LASF2252
C:\Users\CYMR90~1\AppData\Local\Temp\ccmBQqfl.s:30957  .debug_str:00000000000248e3 .LASF2253
C:\Users\CYMR90~1\AppData\Local\Temp\ccmBQqfl.s:24826  .debug_str:000000000000c36a .LASF2254
C:\Users\CYMR90~1\AppData\Local\Temp\ccmBQqfl.s:30135  .debug_str:00000000000216b1 .LASF2255
C:\Users\CYMR90~1\AppData\Local\Temp\ccmBQqfl.s:23460  .debug_str:0000000000006a02 .LASF2256
C:\Users\CYMR90~1\AppData\Local\Temp\ccmBQqfl.s:26156  .debug_str:0000000000011698 .LASF2257
C:\Users\CYMR90~1\AppData\Local\Temp\ccmBQqfl.s:32963  .debug_str:000000000002c945 .LASF2258
C:\Users\CYMR90~1\AppData\Local\Temp\ccmBQqfl.s:26292  .debug_str:0000000000011ff7 .LASF2259
C:\Users\CYMR90~1\AppData\Local\Temp\ccmBQqfl.s:26212  .debug_str:0000000000011a31 .LASF2260
C:\Users\CYMR90~1\AppData\Local\Temp\ccmBQqfl.s:29821  .debug_str:0000000000020432 .LASF2261
C:\Users\CYMR90~1\AppData\Local\Temp\ccmBQqfl.s:31115  .debug_str:000000000002537e .LASF2262
C:\Users\CYMR90~1\AppData\Local\Temp\ccmBQqfl.s:29455  .debug_str:000000000001ee0d .LASF2263
C:\Users\CYMR90~1\AppData\Local\Temp\ccmBQqfl.s:28053  .debug_str:0000000000019184 .LASF2264
C:\Users\CYMR90~1\AppData\Local\Temp\ccmBQqfl.s:31277  .debug_str:0000000000025ee9 .LASF2265
C:\Users\CYMR90~1\AppData\Local\Temp\ccmBQqfl.s:24590  .debug_str:000000000000b386 .LASF2266
C:\Users\CYMR90~1\AppData\Local\Temp\ccmBQqfl.s:26372  .debug_str:000000000001254d .LASF2267
C:\Users\CYMR90~1\AppData\Local\Temp\ccmBQqfl.s:29559  .debug_str:000000000001f420 .LASF2268
C:\Users\CYMR90~1\AppData\Local\Temp\ccmBQqfl.s:31047  .debug_str:0000000000024f0d .LASF2269
C:\Users\CYMR90~1\AppData\Local\Temp\ccmBQqfl.s:24594  .debug_str:000000000000b3c3 .LASF2270
C:\Users\CYMR90~1\AppData\Local\Temp\ccmBQqfl.s:30697  .debug_str:000000000002385c .LASF2271
C:\Users\CYMR90~1\AppData\Local\Temp\ccmBQqfl.s:24318  .debug_str:000000000000a1e7 .LASF2272
C:\Users\CYMR90~1\AppData\Local\Temp\ccmBQqfl.s:29031  .debug_str:000000000001d30c .LASF2273
C:\Users\CYMR90~1\AppData\Local\Temp\ccmBQqfl.s:22372  .debug_str:00000000000024e7 .LASF2274
C:\Users\CYMR90~1\AppData\Local\Temp\ccmBQqfl.s:27096  .debug_str:00000000000153cc .LASF2275
C:\Users\CYMR90~1\AppData\Local\Temp\ccmBQqfl.s:31851  .debug_str:00000000000282ef .LASF2276
C:\Users\CYMR90~1\AppData\Local\Temp\ccmBQqfl.s:25202  .debug_str:000000000000db5f .LASF2277
C:\Users\CYMR90~1\AppData\Local\Temp\ccmBQqfl.s:29923  .debug_str:00000000000209d9 .LASF2278
C:\Users\CYMR90~1\AppData\Local\Temp\ccmBQqfl.s:27993  .debug_str:0000000000018dd6 .LASF2279
C:\Users\CYMR90~1\AppData\Local\Temp\ccmBQqfl.s:29085  .debug_str:000000000001d6d9 .LASF2280
C:\Users\CYMR90~1\AppData\Local\Temp\ccmBQqfl.s:22428  .debug_str:0000000000002886 .LASF2281
C:\Users\CYMR90~1\AppData\Local\Temp\ccmBQqfl.s:26662  .debug_str:0000000000013879 .LASF2282
C:\Users\CYMR90~1\AppData\Local\Temp\ccmBQqfl.s:31905  .debug_str:0000000000028745 .LASF2283
C:\Users\CYMR90~1\AppData\Local\Temp\ccmBQqfl.s:25260  .debug_str:000000000000dec2 .LASF2284
C:\Users\CYMR90~1\AppData\Local\Temp\ccmBQqfl.s:29979  .debug_str:0000000000020d66 .LASF2285
C:\Users\CYMR90~1\AppData\Local\Temp\ccmBQqfl.s:32135  .debug_str:000000000002954d .LASF2286
C:\Users\CYMR90~1\AppData\Local\Temp\ccmBQqfl.s:23752  .debug_str:0000000000007cdf .LASF2287
C:\Users\CYMR90~1\AppData\Local\Temp\ccmBQqfl.s:27174  .debug_str:0000000000015842 .LASF2288
C:\Users\CYMR90~1\AppData\Local\Temp\ccmBQqfl.s:31891  .debug_str:00000000000285d9 .LASF2289
C:\Users\CYMR90~1\AppData\Local\Temp\ccmBQqfl.s:30253  .debug_str:0000000000021e7a .LASF2290
C:\Users\CYMR90~1\AppData\Local\Temp\ccmBQqfl.s:28619  .debug_str:000000000001b844 .LASF2291
C:\Users\CYMR90~1\AppData\Local\Temp\ccmBQqfl.s:28735  .debug_str:000000000001bf16 .LASF2292
C:\Users\CYMR90~1\AppData\Local\Temp\ccmBQqfl.s:31977  .debug_str:0000000000028c0c .LASF2293
C:\Users\CYMR90~1\AppData\Local\Temp\ccmBQqfl.s:23808  .debug_str:00000000000080d7 .LASF2294
C:\Users\CYMR90~1\AppData\Local\Temp\ccmBQqfl.s:26946  .debug_str:0000000000014a00 .LASF2295
C:\Users\CYMR90~1\AppData\Local\Temp\ccmBQqfl.s:26666  .debug_str:00000000000138a6 .LASF2296
C:\Users\CYMR90~1\AppData\Local\Temp\ccmBQqfl.s:31387  .debug_str:00000000000265d9 .LASF2297
C:\Users\CYMR90~1\AppData\Local\Temp\ccmBQqfl.s:24746  .debug_str:000000000000bde2 .LASF2298
C:\Users\CYMR90~1\AppData\Local\Temp\ccmBQqfl.s:29431  .debug_str:000000000001ec43 .LASF2299
C:\Users\CYMR90~1\AppData\Local\Temp\ccmBQqfl.s:22782  .debug_str:0000000000003f75 .LASF2300
C:\Users\CYMR90~1\AppData\Local\Temp\ccmBQqfl.s:27525  .debug_str:0000000000017122 .LASF2301
C:\Users\CYMR90~1\AppData\Local\Temp\ccmBQqfl.s:32275  .debug_str:0000000000029dfb .LASF2302
C:\Users\CYMR90~1\AppData\Local\Temp\ccmBQqfl.s:25622  .debug_str:000000000000f4cf .LASF2303
C:\Users\CYMR90~1\AppData\Local\Temp\ccmBQqfl.s:23668  .debug_str:0000000000007768 .LASF2304
C:\Users\CYMR90~1\AppData\Local\Temp\ccmBQqfl.s:24794  .debug_str:000000000000c15c .LASF2305
C:\Users\CYMR90~1\AppData\Local\Temp\ccmBQqfl.s:29479  .debug_str:000000000001ef83 .LASF2306
C:\Users\CYMR90~1\AppData\Local\Temp\ccmBQqfl.s:22832  .debug_str:00000000000042ad .LASF2307
C:\Users\CYMR90~1\AppData\Local\Temp\ccmBQqfl.s:22214  .debug_str:0000000000001ba4 .LASF2308
C:\Users\CYMR90~1\AppData\Local\Temp\ccmBQqfl.s:32327  .debug_str:000000000002a105 .LASF2309
C:\Users\CYMR90~1\AppData\Local\Temp\ccmBQqfl.s:25684  .debug_str:000000000000f899 .LASF2310
C:\Users\CYMR90~1\AppData\Local\Temp\ccmBQqfl.s:25402  .debug_str:000000000000e737 .LASF2311
C:\Users\CYMR90~1\AppData\Local\Temp\ccmBQqfl.s:28631  .debug_str:000000000001b92a .LASF2312
C:\Users\CYMR90~1\AppData\Local\Temp\ccmBQqfl.s:31861  .debug_str:00000000000283a2 .LASF2313
C:\Users\CYMR90~1\AppData\Local\Temp\ccmBQqfl.s:23684  .debug_str:0000000000007883 .LASF2314
C:\Users\CYMR90~1\AppData\Local\Temp\ccmBQqfl.s:26828  .debug_str:0000000000014273 .LASF2315
C:\Users\CYMR90~1\AppData\Local\Temp\ccmBQqfl.s:30077  .debug_str:0000000000021386 .LASF2316
C:\Users\CYMR90~1\AppData\Local\Temp\ccmBQqfl.s:32261  .debug_str:0000000000029d38 .LASF2317
C:\Users\CYMR90~1\AppData\Local\Temp\ccmBQqfl.s:25168  .debug_str:000000000000d996 .LASF2318
C:\Users\CYMR90~1\AppData\Local\Temp\ccmBQqfl.s:28399  .debug_str:000000000001a93e .LASF2319
C:\Users\CYMR90~1\AppData\Local\Temp\ccmBQqfl.s:31625  .debug_str:0000000000027426 .LASF2320
C:\Users\CYMR90~1\AppData\Local\Temp\ccmBQqfl.s:31947  .debug_str:00000000000289ec .LASF2321
C:\Users\CYMR90~1\AppData\Local\Temp\ccmBQqfl.s:25304  .debug_str:000000000000e17c .LASF2322
C:\Users\CYMR90~1\AppData\Local\Temp\ccmBQqfl.s:30023  .debug_str:0000000000021052 .LASF2323
C:\Users\CYMR90~1\AppData\Local\Temp\ccmBQqfl.s:23336  .debug_str:00000000000062a2 .LASF2324
C:\Users\CYMR90~1\AppData\Local\Temp\ccmBQqfl.s:28097  .debug_str:0000000000019517 .LASF2325
C:\Users\CYMR90~1\AppData\Local\Temp\ccmBQqfl.s:32847  .debug_str:000000000002c12d .LASF2326
C:\Users\CYMR90~1\AppData\Local\Temp\ccmBQqfl.s:26184  .debug_str:0000000000011861 .LASF2327
C:\Users\CYMR90~1\AppData\Local\Temp\ccmBQqfl.s:30901  .debug_str:0000000000024492 .LASF2328
C:\Users\CYMR90~1\AppData\Local\Temp\ccmBQqfl.s:28967  .debug_str:000000000001ce43 .LASF2329
C:\Users\CYMR90~1\AppData\Local\Temp\ccmBQqfl.s:30169  .debug_str:00000000000218aa .LASF2330
C:\Users\CYMR90~1\AppData\Local\Temp\ccmBQqfl.s:23490  .debug_str:0000000000006c1a .LASF2331
C:\Users\CYMR90~1\AppData\Local\Temp\ccmBQqfl.s:28229  .debug_str:0000000000019dab .LASF2332
C:\Users\CYMR90~1\AppData\Local\Temp\ccmBQqfl.s:32989  .debug_str:000000000002cab2 .LASF2333
C:\Users\CYMR90~1\AppData\Local\Temp\ccmBQqfl.s:26318  .debug_str:000000000001219f .LASF2334
C:\Users\CYMR90~1\AppData\Local\Temp\ccmBQqfl.s:31029  .debug_str:0000000000024d57 .LASF2335
C:\Users\CYMR90~1\AppData\Local\Temp\ccmBQqfl.s:26520  .debug_str:0000000000012ecd .LASF2336
C:\Users\CYMR90~1\AppData\Local\Temp\ccmBQqfl.s:22658  .debug_str:00000000000037a4 .LASF2337
C:\Users\CYMR90~1\AppData\Local\Temp\ccmBQqfl.s:27891  .debug_str:0000000000018762 .LASF2338
C:\Users\CYMR90~1\AppData\Local\Temp\ccmBQqfl.s:24228  .debug_str:0000000000009c88 .LASF2339
C:\Users\CYMR90~1\AppData\Local\Temp\ccmBQqfl.s:23000  .debug_str:0000000000004e70 .LASF2340
C:\Users\CYMR90~1\AppData\Local\Temp\ccmBQqfl.s:31347  .debug_str:0000000000026333 .LASF2341
C:\Users\CYMR90~1\AppData\Local\Temp\ccmBQqfl.s:27300  .debug_str:000000000001602b .LASF2342
C:\Users\CYMR90~1\AppData\Local\Temp\ccmBQqfl.s:27066  .debug_str:00000000000151da .LASF2343
C:\Users\CYMR90~1\AppData\Local\Temp\ccmBQqfl.s:27442  .debug_str:0000000000016998 .LASF2344
C:\Users\CYMR90~1\AppData\Local\Temp\ccmBQqfl.s:24296  .debug_str:000000000000a07f .LASF2345
C:\Users\CYMR90~1\AppData\Local\Temp\ccmBQqfl.s:31009  .debug_str:0000000000024c17 .LASF2346
C:\Users\CYMR90~1\AppData\Local\Temp\ccmBQqfl.s:32083  .debug_str:0000000000029225 .LASF2347
C:\Users\CYMR90~1\AppData\Local\Temp\ccmBQqfl.s:21904  .debug_str:0000000000000710 .LASF2348
C:\Users\CYMR90~1\AppData\Local\Temp\ccmBQqfl.s:23708  .debug_str:0000000000007a0f .LASF2349
C:\Users\CYMR90~1\AppData\Local\Temp\ccmBQqfl.s:22704  .debug_str:0000000000003a8f .LASF2350
C:\Users\CYMR90~1\AppData\Local\Temp\ccmBQqfl.s:31237  .debug_str:0000000000025bd4 .LASF2351
C:\Users\CYMR90~1\AppData\Local\Temp\ccmBQqfl.s:26320  .debug_str:00000000000121b4 .LASF2352
C:\Users\CYMR90~1\AppData\Local\Temp\ccmBQqfl.s:25086  .debug_str:000000000000d3d9 .LASF2353
C:\Users\CYMR90~1\AppData\Local\Temp\ccmBQqfl.s:29753  .debug_str:0000000000020010 .LASF2354
C:\Users\CYMR90~1\AppData\Local\Temp\ccmBQqfl.s:28841  .debug_str:000000000001c628 .LASF2355
C:\Users\CYMR90~1\AppData\Local\Temp\ccmBQqfl.s:22754  .debug_str:0000000000003d8d .LASF2356
C:\Users\CYMR90~1\AppData\Local\Temp\ccmBQqfl.s:31393  .debug_str:0000000000026639 .LASF2357
C:\Users\CYMR90~1\AppData\Local\Temp\ccmBQqfl.s:25058  .debug_str:000000000000d20b .LASF2358
C:\Users\CYMR90~1\AppData\Local\Temp\ccmBQqfl.s:24130  .debug_str:00000000000095fa .LASF2359
C:\Users\CYMR90~1\AppData\Local\Temp\ccmBQqfl.s:23090  .debug_str:00000000000053cb .LASF2360
C:\Users\CYMR90~1\AppData\Local\Temp\ccmBQqfl.s:31737  .debug_str:0000000000027b7c .LASF2361
C:\Users\CYMR90~1\AppData\Local\Temp\ccmBQqfl.s:32037  .debug_str:0000000000028fb4 .LASF2362
C:\Users\CYMR90~1\AppData\Local\Temp\ccmBQqfl.s:26180  .debug_str:000000000001180d .LASF2363
C:\Users\CYMR90~1\AppData\Local\Temp\ccmBQqfl.s:30119  .debug_str:00000000000215d1 .LASF2364
C:\Users\CYMR90~1\AppData\Local\Temp\ccmBQqfl.s:27222  .debug_str:0000000000015af6 .LASF2365
C:\Users\CYMR90~1\AppData\Local\Temp\ccmBQqfl.s:27795  .debug_str:000000000001819c .LASF2366
C:\Users\CYMR90~1\AppData\Local\Temp\ccmBQqfl.s:26644  .debug_str:0000000000013742 .LASF2367
C:\Users\CYMR90~1\AppData\Local\Temp\ccmBQqfl.s:27124  .debug_str:00000000000155a8 .LASF2368
C:\Users\CYMR90~1\AppData\Local\Temp\ccmBQqfl.s:25842  .debug_str:0000000000010300 .LASF2369
C:\Users\CYMR90~1\AppData\Local\Temp\ccmBQqfl.s:26126  .debug_str:00000000000114d3 .LASF2370
C:\Users\CYMR90~1\AppData\Local\Temp\ccmBQqfl.s:25208  .debug_str:000000000000dbc9 .LASF2371
C:\Users\CYMR90~1\AppData\Local\Temp\ccmBQqfl.s:24206  .debug_str:0000000000009ab5 .LASF2372
C:\Users\CYMR90~1\AppData\Local\Temp\ccmBQqfl.s:32741  .debug_str:000000000002ba20 .LASF2373
C:\Users\CYMR90~1\AppData\Local\Temp\ccmBQqfl.s:24696  .debug_str:000000000000bac1 .LASF2374
C:\Users\CYMR90~1\AppData\Local\Temp\ccmBQqfl.s:32077  .debug_str:00000000000291c8 .LASF2375
C:\Users\CYMR90~1\AppData\Local\Temp\ccmBQqfl.s:30801  .debug_str:0000000000023f16 .LASF2376
C:\Users\CYMR90~1\AppData\Local\Temp\ccmBQqfl.s:27619  .debug_str:00000000000176c2 .LASF2377
C:\Users\CYMR90~1\AppData\Local\Temp\ccmBQqfl.s:27240  .debug_str:0000000000015c2c .LASF2378
C:\Users\CYMR90~1\AppData\Local\Temp\ccmBQqfl.s:27368  .debug_str:00000000000164df .LASF2379
C:\Users\CYMR90~1\AppData\Local\Temp\ccmBQqfl.s:31759  .debug_str:0000000000027cb8 .LASF2380
C:\Users\CYMR90~1\AppData\Local\Temp\ccmBQqfl.s:25076  .debug_str:000000000000d33d .LASF2381
C:\Users\CYMR90~1\AppData\Local\Temp\ccmBQqfl.s:29529  .debug_str:000000000001f24d .LASF2382
C:\Users\CYMR90~1\AppData\Local\Temp\ccmBQqfl.s:23608  .debug_str:00000000000073ce .LASF2383
C:\Users\CYMR90~1\AppData\Local\Temp\ccmBQqfl.s:22048  .debug_str:0000000000001093 .LASF2384
C:\Users\CYMR90~1\AppData\Local\Temp\ccmBQqfl.s:28487  .debug_str:000000000001af81 .LASF2385
C:\Users\CYMR90~1\AppData\Local\Temp\ccmBQqfl.s:24890  .debug_str:000000000000c72d .LASF2386
C:\Users\CYMR90~1\AppData\Local\Temp\ccmBQqfl.s:27350  .debug_str:00000000000163bc .LASF2387
C:\Users\CYMR90~1\AppData\Local\Temp\ccmBQqfl.s:24792  .debug_str:000000000000c144 .LASF2388
C:\Users\CYMR90~1\AppData\Local\Temp\ccmBQqfl.s:24924  .debug_str:000000000000c94d .LASF2389
C:\Users\CYMR90~1\AppData\Local\Temp\ccmBQqfl.s:28883  .debug_str:000000000001c898 .LASF2390
C:\Users\CYMR90~1\AppData\Local\Temp\ccmBQqfl.s:23036  .debug_str:0000000000005092 .LASF2391
C:\Users\CYMR90~1\AppData\Local\Temp\ccmBQqfl.s:28741  .debug_str:000000000001bf6d .LASF2392
C:\Users\CYMR90~1\AppData\Local\Temp\ccmBQqfl.s:27226  .debug_str:0000000000015b5f .LASF2393
C:\Users\CYMR90~1\AppData\Local\Temp\ccmBQqfl.s:28033  .debug_str:000000000001904f .LASF2394
C:\Users\CYMR90~1\AppData\Local\Temp\ccmBQqfl.s:30411  .debug_str:00000000000227df .LASF2395
C:\Users\CYMR90~1\AppData\Local\Temp\ccmBQqfl.s:23006  .debug_str:0000000000004ed5 .LASF2396
C:\Users\CYMR90~1\AppData\Local\Temp\ccmBQqfl.s:22062  .debug_str:0000000000001159 .LASF2397
C:\Users\CYMR90~1\AppData\Local\Temp\ccmBQqfl.s:32503  .debug_str:000000000002ab5e .LASF2398
C:\Users\CYMR90~1\AppData\Local\Temp\ccmBQqfl.s:22000  .debug_str:0000000000000d3c .LASF2399
C:\Users\CYMR90~1\AppData\Local\Temp\ccmBQqfl.s:23728  .debug_str:0000000000007b53 .LASF2400
C:\Users\CYMR90~1\AppData\Local\Temp\ccmBQqfl.s:28305  .debug_str:000000000001a23f .LASF2401
C:\Users\CYMR90~1\AppData\Local\Temp\ccmBQqfl.s:26502  .debug_str:0000000000012dc2 .LASF2402
C:\Users\CYMR90~1\AppData\Local\Temp\ccmBQqfl.s:24264  .debug_str:0000000000009ebd .LASF2403
C:\Users\CYMR90~1\AppData\Local\Temp\ccmBQqfl.s:30425  .debug_str:00000000000228a2 .LASF2404
C:\Users\CYMR90~1\AppData\Local\Temp\ccmBQqfl.s:28751  .debug_str:000000000001c03d .LASF2405
C:\Users\CYMR90~1\AppData\Local\Temp\ccmBQqfl.s:27883  .debug_str:00000000000186fa .LASF2406
C:\Users\CYMR90~1\AppData\Local\Temp\ccmBQqfl.s:29477  .debug_str:000000000001ef61 .LASF2407
C:\Users\CYMR90~1\AppData\Local\Temp\ccmBQqfl.s:33079  .debug_str:000000000002d07d .LASF2408
C:\Users\CYMR90~1\AppData\Local\Temp\ccmBQqfl.s:22244  .debug_str:0000000000001d82 .LASF2409
C:\Users\CYMR90~1\AppData\Local\Temp\ccmBQqfl.s:26746  .debug_str:0000000000013d8d .LASF2410
C:\Users\CYMR90~1\AppData\Local\Temp\ccmBQqfl.s:30385  .debug_str:0000000000022648 .LASF2411
C:\Users\CYMR90~1\AppData\Local\Temp\ccmBQqfl.s:32853  .debug_str:000000000002c181 .LASF2412
C:\Users\CYMR90~1\AppData\Local\Temp\ccmBQqfl.s:26188  .debug_str:00000000000118a5 .LASF2413
C:\Users\CYMR90~1\AppData\Local\Temp\ccmBQqfl.s:25510  .debug_str:000000000000ee80 .LASF2414
C:\Users\CYMR90~1\AppData\Local\Temp\ccmBQqfl.s:29015  .debug_str:000000000001d169 .LASF2415
C:\Users\CYMR90~1\AppData\Local\Temp\ccmBQqfl.s:28265  .debug_str:0000000000019fd7 .LASF2416
C:\Users\CYMR90~1\AppData\Local\Temp\ccmBQqfl.s:23050  .debug_str:0000000000005179 .LASF2417
C:\Users\CYMR90~1\AppData\Local\Temp\ccmBQqfl.s:22970  .debug_str:0000000000004c89 .LASF2418
C:\Users\CYMR90~1\AppData\Local\Temp\ccmBQqfl.s:27675  .debug_str:0000000000017a2a .LASF2419
C:\Users\CYMR90~1\AppData\Local\Temp\ccmBQqfl.s:29655  .debug_str:000000000001f9fc .LASF2420
C:\Users\CYMR90~1\AppData\Local\Temp\ccmBQqfl.s:23880  .debug_str:0000000000008619 .LASF2421
C:\Users\CYMR90~1\AppData\Local\Temp\ccmBQqfl.s:23868  .debug_str:0000000000008578 .LASF2422
C:\Users\CYMR90~1\AppData\Local\Temp\ccmBQqfl.s:31285  .debug_str:0000000000025f5e .LASF2423
C:\Users\CYMR90~1\AppData\Local\Temp\ccmBQqfl.s:26140  .debug_str:00000000000115b1 .LASF2424
C:\Users\CYMR90~1\AppData\Local\Temp\ccmBQqfl.s:27366  .debug_str:00000000000164bb .LASF2425
C:\Users\CYMR90~1\AppData\Local\Temp\ccmBQqfl.s:28697  .debug_str:000000000001bd22 .LASF2426
C:\Users\CYMR90~1\AppData\Local\Temp\ccmBQqfl.s:32013  .debug_str:0000000000028e52 .LASF2427
C:\Users\CYMR90~1\AppData\Local\Temp\ccmBQqfl.s:30259  .debug_str:0000000000021ee8 .LASF2428
C:\Users\CYMR90~1\AppData\Local\Temp\ccmBQqfl.s:29259  .debug_str:000000000001e18e .LASF2429
C:\Users\CYMR90~1\AppData\Local\Temp\ccmBQqfl.s:28241  .debug_str:0000000000019e7f .LASF2430
C:\Users\CYMR90~1\AppData\Local\Temp\ccmBQqfl.s:27326  .debug_str:00000000000161fb .LASF2431
C:\Users\CYMR90~1\AppData\Local\Temp\ccmBQqfl.s:26406  .debug_str:000000000001277a .LASF2432
C:\Users\CYMR90~1\AppData\Local\Temp\ccmBQqfl.s:30647  .debug_str:00000000000235c5 .LASF2433
C:\Users\CYMR90~1\AppData\Local\Temp\ccmBQqfl.s:27152  .debug_str:0000000000015729 .LASF2434
C:\Users\CYMR90~1\AppData\Local\Temp\ccmBQqfl.s:25294  .debug_str:000000000000e0f6 .LASF2435
C:\Users\CYMR90~1\AppData\Local\Temp\ccmBQqfl.s:22588  .debug_str:00000000000032eb .LASF2436
C:\Users\CYMR90~1\AppData\Local\Temp\ccmBQqfl.s:24132  .debug_str:000000000000961c .LASF2437
C:\Users\CYMR90~1\AppData\Local\Temp\ccmBQqfl.s:21996  .debug_str:0000000000000d05 .LASF2438
C:\Users\CYMR90~1\AppData\Local\Temp\ccmBQqfl.s:25300  .debug_str:000000000000e13e .LASF2439
C:\Users\CYMR90~1\AppData\Local\Temp\ccmBQqfl.s:23940  .debug_str:0000000000008988 .LASF2440
C:\Users\CYMR90~1\AppData\Local\Temp\ccmBQqfl.s:22290  .debug_str:000000000000203d .LASF2441
C:\Users\CYMR90~1\AppData\Local\Temp\ccmBQqfl.s:24760  .debug_str:000000000000beba .LASF2442
C:\Users\CYMR90~1\AppData\Local\Temp\ccmBQqfl.s:22100  .debug_str:0000000000001370 .LASF2443
C:\Users\CYMR90~1\AppData\Local\Temp\ccmBQqfl.s:28369  .debug_str:000000000001a7b9 .LASF2444
C:\Users\CYMR90~1\AppData\Local\Temp\ccmBQqfl.s:28157  .debug_str:0000000000019892 .LASF2445
C:\Users\CYMR90~1\AppData\Local\Temp\ccmBQqfl.s:26672  .debug_str:0000000000013913 .LASF2446
C:\Users\CYMR90~1\AppData\Local\Temp\ccmBQqfl.s:31913  .debug_str:00000000000287bf .LASF2447
C:\Users\CYMR90~1\AppData\Local\Temp\ccmBQqfl.s:24334  .debug_str:000000000000a2d9 .LASF2448
C:\Users\CYMR90~1\AppData\Local\Temp\ccmBQqfl.s:28413  .debug_str:000000000001aa2b .LASF2449
C:\Users\CYMR90~1\AppData\Local\Temp\ccmBQqfl.s:29061  .debug_str:000000000001d572 .LASF2450
C:\Users\CYMR90~1\AppData\Local\Temp\ccmBQqfl.s:27551  .debug_str:00000000000172ca .LASF2451
C:\Users\CYMR90~1\AppData\Local\Temp\ccmBQqfl.s:31511  .debug_str:0000000000026d44 .LASF2452
C:\Users\CYMR90~1\AppData\Local\Temp\ccmBQqfl.s:26612  .debug_str:00000000000134d5 .LASF2453
C:\Users\CYMR90~1\AppData\Local\Temp\ccmBQqfl.s:21864  .debug_str:00000000000004be .LASF2454
C:\Users\CYMR90~1\AppData\Local\Temp\ccmBQqfl.s:22356  .debug_str:00000000000023ec .LASF2455
C:\Users\CYMR90~1\AppData\Local\Temp\ccmBQqfl.s:27184  .debug_str:00000000000158e0 .LASF2456
C:\Users\CYMR90~1\AppData\Local\Temp\ccmBQqfl.s:21982  .debug_str:0000000000000c29 .LASF2457
C:\Users\CYMR90~1\AppData\Local\Temp\ccmBQqfl.s:29165  .debug_str:000000000001dc13 .LASF2458
C:\Users\CYMR90~1\AppData\Local\Temp\ccmBQqfl.s:24460  .debug_str:000000000000aac7 .LASF2459
C:\Users\CYMR90~1\AppData\Local\Temp\ccmBQqfl.s:31077  .debug_str:00000000000250f1 .LASF2460
C:\Users\CYMR90~1\AppData\Local\Temp\ccmBQqfl.s:23158  .debug_str:0000000000005826 .LASF2461
C:\Users\CYMR90~1\AppData\Local\Temp\ccmBQqfl.s:22756  .debug_str:0000000000003daf .LASF2462
C:\Users\CYMR90~1\AppData\Local\Temp\ccmBQqfl.s:26870  .debug_str:000000000001452e .LASF2463
C:\Users\CYMR90~1\AppData\Local\Temp\ccmBQqfl.s:24830  .debug_str:000000000000c39e .LASF2464
C:\Users\CYMR90~1\AppData\Local\Temp\ccmBQqfl.s:29643  .debug_str:000000000001f948 .LASF2465
C:\Users\CYMR90~1\AppData\Local\Temp\ccmBQqfl.s:25386  .debug_str:000000000000e641 .LASF2466
C:\Users\CYMR90~1\AppData\Local\Temp\ccmBQqfl.s:29445  .debug_str:000000000001ed47 .LASF2467
C:\Users\CYMR90~1\AppData\Local\Temp\ccmBQqfl.s:33063  .debug_str:000000000002cfa5 .LASF2468
C:\Users\CYMR90~1\AppData\Local\Temp\ccmBQqfl.s:23276  .debug_str:0000000000005f45 .LASF2469
C:\Users\CYMR90~1\AppData\Local\Temp\ccmBQqfl.s:28397  .debug_str:000000000001a920 .LASF2470
C:\Users\CYMR90~1\AppData\Local\Temp\ccmBQqfl.s:24552  .debug_str:000000000000b072 .LASF2471
C:\Users\CYMR90~1\AppData\Local\Temp\ccmBQqfl.s:31215  .debug_str:0000000000025a38 .LASF2472
C:\Users\CYMR90~1\AppData\Local\Temp\ccmBQqfl.s:32307  .debug_str:0000000000029fe6 .LASF2473
C:\Users\CYMR90~1\AppData\Local\Temp\ccmBQqfl.s:32945  .debug_str:000000000002c7e9 .LASF2474
C:\Users\CYMR90~1\AppData\Local\Temp\ccmBQqfl.s:22136  .debug_str:000000000000157a .LASF2475
C:\Users\CYMR90~1\AppData\Local\Temp\ccmBQqfl.s:21902  .debug_str:00000000000006e3 .LASF2476
C:\Users\CYMR90~1\AppData\Local\Temp\ccmBQqfl.s:30427  .debug_str:00000000000228c6 .LASF2477
C:\Users\CYMR90~1\AppData\Local\Temp\ccmBQqfl.s:26766  .debug_str:0000000000013edf .LASF2478
C:\Users\CYMR90~1\AppData\Local\Temp\ccmBQqfl.s:26562  .debug_str:000000000001319e .LASF2479
C:\Users\CYMR90~1\AppData\Local\Temp\ccmBQqfl.s:29437  .debug_str:000000000001ecb9 .LASF2480
C:\Users\CYMR90~1\AppData\Local\Temp\ccmBQqfl.s:24684  .debug_str:000000000000b9bc .LASF2481
C:\Users\CYMR90~1\AppData\Local\Temp\ccmBQqfl.s:23542  .debug_str:0000000000006f59 .LASF2482
C:\Users\CYMR90~1\AppData\Local\Temp\ccmBQqfl.s:29751  .debug_str:000000000001ffe2 .LASF2483
C:\Users\CYMR90~1\AppData\Local\Temp\ccmBQqfl.s:32283  .debug_str:0000000000029e62 .LASF2484
C:\Users\CYMR90~1\AppData\Local\Temp\ccmBQqfl.s:27709  .debug_str:0000000000017c62 .LASF2485
C:\Users\CYMR90~1\AppData\Local\Temp\ccmBQqfl.s:29079  .debug_str:000000000001d668 .LASF2486
C:\Users\CYMR90~1\AppData\Local\Temp\ccmBQqfl.s:26934  .debug_str:000000000001493a .LASF2487
C:\Users\CYMR90~1\AppData\Local\Temp\ccmBQqfl.s:25210  .debug_str:000000000000dbec .LASF2488
C:\Users\CYMR90~1\AppData\Local\Temp\ccmBQqfl.s:28579  .debug_str:000000000001b5a1 .LASF2489
C:\Users\CYMR90~1\AppData\Local\Temp\ccmBQqfl.s:32661  .debug_str:000000000002b4bb .LASF2490
C:\Users\CYMR90~1\AppData\Local\Temp\ccmBQqfl.s:23062  .debug_str:0000000000005229 .LASF2491
C:\Users\CYMR90~1\AppData\Local\Temp\ccmBQqfl.s:23696  .debug_str:000000000000793f .LASF2492
C:\Users\CYMR90~1\AppData\Local\Temp\ccmBQqfl.s:32095  .debug_str:00000000000292ed .LASF2493
C:\Users\CYMR90~1\AppData\Local\Temp\ccmBQqfl.s:25990  .debug_str:0000000000010c94 .LASF2494
C:\Users\CYMR90~1\AppData\Local\Temp\ccmBQqfl.s:31151  .debug_str:0000000000025556 .LASF2495
C:\Users\CYMR90~1\AppData\Local\Temp\ccmBQqfl.s:25066  .debug_str:000000000000d281 .LASF2496
C:\Users\CYMR90~1\AppData\Local\Temp\ccmBQqfl.s:30319  .debug_str:0000000000022278 .LASF2497
C:\Users\CYMR90~1\AppData\Local\Temp\ccmBQqfl.s:30573  .debug_str:000000000002314b .LASF2498
C:\Users\CYMR90~1\AppData\Local\Temp\ccmBQqfl.s:26174  .debug_str:00000000000117c3 .LASF2499
C:\Users\CYMR90~1\AppData\Local\Temp\ccmBQqfl.s:22736  .debug_str:0000000000003c8f .LASF2500
C:\Users\CYMR90~1\AppData\Local\Temp\ccmBQqfl.s:28037  .debug_str:0000000000019076 .LASF2501
C:\Users\CYMR90~1\AppData\Local\Temp\ccmBQqfl.s:21914  .debug_str:00000000000007ac .LASF2502
C:\Users\CYMR90~1\AppData\Local\Temp\ccmBQqfl.s:29849  .debug_str:00000000000205e5 .LASF2503
C:\Users\CYMR90~1\AppData\Local\Temp\ccmBQqfl.s:32001  .debug_str:0000000000028d7d .LASF2504
C:\Users\CYMR90~1\AppData\Local\Temp\ccmBQqfl.s:23836  .debug_str:0000000000008335 .LASF2505
C:\Users\CYMR90~1\AppData\Local\Temp\ccmBQqfl.s:21874  .debug_str:000000000000053b .LASF2506
C:\Users\CYMR90~1\AppData\Local\Temp\ccmBQqfl.s:30311  .debug_str:0000000000022206 .LASF2507
C:\Users\CYMR90~1\AppData\Local\Temp\ccmBQqfl.s:22050  .debug_str:00000000000010a5 .LASF2508
C:\Users\CYMR90~1\AppData\Local\Temp\ccmBQqfl.s:25312  .debug_str:000000000000e1ed .LASF2509
C:\Users\CYMR90~1\AppData\Local\Temp\ccmBQqfl.s:28547  .debug_str:000000000001b380 .LASF2510
C:\Users\CYMR90~1\AppData\Local\Temp\ccmBQqfl.s:31761  .debug_str:0000000000027ccb .LASF2511
C:\Users\CYMR90~1\AppData\Local\Temp\ccmBQqfl.s:23586  .debug_str:0000000000007254 .LASF2512
C:\Users\CYMR90~1\AppData\Local\Temp\ccmBQqfl.s:26820  .debug_str:00000000000141e4 .LASF2513
C:\Users\CYMR90~1\AppData\Local\Temp\ccmBQqfl.s:23270  .debug_str:0000000000005ef5 .LASF2514
C:\Users\CYMR90~1\AppData\Local\Temp\ccmBQqfl.s:28031  .debug_str:0000000000019037 .LASF2515
C:\Users\CYMR90~1\AppData\Local\Temp\ccmBQqfl.s:32785  .debug_str:000000000002bd36 .LASF2516
C:\Users\CYMR90~1\AppData\Local\Temp\ccmBQqfl.s:26118  .debug_str:000000000001146a .LASF2517
C:\Users\CYMR90~1\AppData\Local\Temp\ccmBQqfl.s:30835  .debug_str:0000000000024119 .LASF2518
C:\Users\CYMR90~1\AppData\Local\Temp\ccmBQqfl.s:24182  .debug_str:0000000000009966 .LASF2519
C:\Users\CYMR90~1\AppData\Local\Temp\ccmBQqfl.s:24564  .debug_str:000000000000b1fb .LASF2520
C:\Users\CYMR90~1\AppData\Local\Temp\ccmBQqfl.s:25218  .debug_str:000000000000dc7c .LASF2521
C:\Users\CYMR90~1\AppData\Local\Temp\ccmBQqfl.s:30567  .debug_str:00000000000230e5 .LASF2522
C:\Users\CYMR90~1\AppData\Local\Temp\ccmBQqfl.s:27763  .debug_str:0000000000017fca .LASF2523
C:\Users\CYMR90~1\AppData\Local\Temp\ccmBQqfl.s:22986  .debug_str:0000000000004d7c .LASF2524
C:\Users\CYMR90~1\AppData\Local\Temp\ccmBQqfl.s:24432  .debug_str:000000000000a8ff .LASF2525
C:\Users\CYMR90~1\AppData\Local\Temp\ccmBQqfl.s:29671  .debug_str:000000000001fb30 .LASF2526
C:\Users\CYMR90~1\AppData\Local\Temp\ccmBQqfl.s:23190  .debug_str:0000000000005a30 .LASF2527
C:\Users\CYMR90~1\AppData\Local\Temp\ccmBQqfl.s:28755  .debug_str:000000000001c08a .LASF2528
C:\Users\CYMR90~1\AppData\Local\Temp\ccmBQqfl.s:24922  .debug_str:000000000000c931 .LASF2529
C:\Users\CYMR90~1\AppData\Local\Temp\ccmBQqfl.s:24666  .debug_str:000000000000b861 .LASF2530
C:\Users\CYMR90~1\AppData\Local\Temp\ccmBQqfl.s:29833  .debug_str:00000000000204ef .LASF2531
C:\Users\CYMR90~1\AppData\Local\Temp\ccmBQqfl.s:23790  .debug_str:0000000000007f9b .LASF2532
C:\Users\CYMR90~1\AppData\Local\Temp\ccmBQqfl.s:28981  .debug_str:000000000001cf0e .LASF2533
C:\Users\CYMR90~1\AppData\Local\Temp\ccmBQqfl.s:22854  .debug_str:000000000000448a .LASF2534
C:\Users\CYMR90~1\AppData\Local\Temp\ccmBQqfl.s:30815  .debug_str:0000000000023ff6 .LASF2535
C:\Users\CYMR90~1\AppData\Local\Temp\ccmBQqfl.s:28065  .debug_str:0000000000019220 .LASF2536
C:\Users\CYMR90~1\AppData\Local\Temp\ccmBQqfl.s:22316  .debug_str:00000000000021ab .LASF2537
C:\Users\CYMR90~1\AppData\Local\Temp\ccmBQqfl.s:22666  .debug_str:00000000000037fa .LASF2538
C:\Users\CYMR90~1\AppData\Local\Temp\ccmBQqfl.s:31289  .debug_str:0000000000025fa1 .LASF2539
C:\Users\CYMR90~1\AppData\Local\Temp\ccmBQqfl.s:28613  .debug_str:000000000001b7eb .LASF2540
C:\Users\CYMR90~1\AppData\Local\Temp\ccmBQqfl.s:27749  .debug_str:0000000000017efb .LASF2541
C:\Users\CYMR90~1\AppData\Local\Temp\ccmBQqfl.s:32977  .debug_str:000000000002ca25 .LASF2542
C:\Users\CYMR90~1\AppData\Local\Temp\ccmBQqfl.s:26818  .debug_str:00000000000141ca .LASF2543
C:\Users\CYMR90~1\AppData\Local\Temp\ccmBQqfl.s:32119  .debug_str:0000000000029454 .LASF2544
C:\Users\CYMR90~1\AppData\Local\Temp\ccmBQqfl.s:25920  .debug_str:00000000000107f1 .LASF2545
C:\Users\CYMR90~1\AppData\Local\Temp\ccmBQqfl.s:28505  .debug_str:000000000001b0a2 .LASF2546
C:\Users\CYMR90~1\AppData\Local\Temp\ccmBQqfl.s:22350  .debug_str:00000000000023a1 .LASF2547
C:\Users\CYMR90~1\AppData\Local\Temp\ccmBQqfl.s:27543  .debug_str:000000000001725b .LASF2548
C:\Users\CYMR90~1\AppData\Local\Temp\ccmBQqfl.s:26850  .debug_str:00000000000143eb .LASF2549
C:\Users\CYMR90~1\AppData\Local\Temp\ccmBQqfl.s:26626  .debug_str:00000000000135ec .LASF2550
C:\Users\CYMR90~1\AppData\Local\Temp\ccmBQqfl.s:25514  .debug_str:000000000000eeb1 .LASF2551
C:\Users\CYMR90~1\AppData\Local\Temp\ccmBQqfl.s:32663  .debug_str:000000000002b4d3 .LASF2552
C:\Users\CYMR90~1\AppData\Local\Temp\ccmBQqfl.s:24504  .debug_str:000000000000ad64 .LASF2553
C:\Users\CYMR90~1\AppData\Local\Temp\ccmBQqfl.s:27707  .debug_str:0000000000017c49 .LASF2554
C:\Users\CYMR90~1\AppData\Local\Temp\ccmBQqfl.s:30953  .debug_str:000000000002487c .LASF2555
C:\Users\CYMR90~1\AppData\Local\Temp\ccmBQqfl.s:22780  .debug_str:0000000000003f5c .LASF2556
C:\Users\CYMR90~1\AppData\Local\Temp\ccmBQqfl.s:26054  .debug_str:0000000000011101 .LASF2557
C:\Users\CYMR90~1\AppData\Local\Temp\ccmBQqfl.s:29237  .debug_str:000000000001e041 .LASF2558
C:\Users\CYMR90~1\AppData\Local\Temp\ccmBQqfl.s:32413  .debug_str:000000000002a5c7 .LASF2559
C:\Users\CYMR90~1\AppData\Local\Temp\ccmBQqfl.s:24260  .debug_str:0000000000009e88 .LASF2560
C:\Users\CYMR90~1\AppData\Local\Temp\ccmBQqfl.s:27466  .debug_str:0000000000016ae7 .LASF2561
C:\Users\CYMR90~1\AppData\Local\Temp\ccmBQqfl.s:29481  .debug_str:000000000001ef9e .LASF2562
C:\Users\CYMR90~1\AppData\Local\Temp\ccmBQqfl.s:22834  .debug_str:00000000000042c8 .LASF2563
C:\Users\CYMR90~1\AppData\Local\Temp\ccmBQqfl.s:27577  .debug_str:0000000000017446 .LASF2564
C:\Users\CYMR90~1\AppData\Local\Temp\ccmBQqfl.s:32329  .debug_str:000000000002a120 .LASF2565
C:\Users\CYMR90~1\AppData\Local\Temp\ccmBQqfl.s:25686  .debug_str:000000000000f8b4 .LASF2566
C:\Users\CYMR90~1\AppData\Local\Temp\ccmBQqfl.s:30403  .debug_str:000000000002277e .LASF2567
C:\Users\CYMR90~1\AppData\Local\Temp\ccmBQqfl.s:23714  .debug_str:0000000000007a80 .LASF2568
C:\Users\CYMR90~1\AppData\Local\Temp\ccmBQqfl.s:26948  .debug_str:0000000000014a19 .LASF2569
C:\Users\CYMR90~1\AppData\Local\Temp\ccmBQqfl.s:30107  .debug_str:0000000000021535 .LASF2570
C:\Users\CYMR90~1\AppData\Local\Temp\ccmBQqfl.s:21946  .debug_str:0000000000000983 .LASF2571
C:\Users\CYMR90~1\AppData\Local\Temp\ccmBQqfl.s:25196  .debug_str:000000000000db11 .LASF2572
C:\Users\CYMR90~1\AppData\Local\Temp\ccmBQqfl.s:28433  .debug_str:000000000001ac0a .LASF2573
C:\Users\CYMR90~1\AppData\Local\Temp\ccmBQqfl.s:31649  .debug_str:0000000000027563 .LASF2574
C:\Users\CYMR90~1\AppData\Local\Temp\ccmBQqfl.s:23478  .debug_str:0000000000006b67 .LASF2575
C:\Users\CYMR90~1\AppData\Local\Temp\ccmBQqfl.s:26726  .debug_str:0000000000013c51 .LASF2576
C:\Users\CYMR90~1\AppData\Local\Temp\ccmBQqfl.s:29965  .debug_str:0000000000020cba .LASF2577
C:\Users\CYMR90~1\AppData\Local\Temp\ccmBQqfl.s:27254  .debug_str:0000000000015cf3 .LASF2578
C:\Users\CYMR90~1\AppData\Local\Temp\ccmBQqfl.s:32017  .debug_str:0000000000028e7b .LASF2579
C:\Users\CYMR90~1\AppData\Local\Temp\ccmBQqfl.s:25368  .debug_str:000000000000e541 .LASF2580
C:\Users\CYMR90~1\AppData\Local\Temp\ccmBQqfl.s:23416  .debug_str:0000000000006774 .LASF2581
C:\Users\CYMR90~1\AppData\Local\Temp\ccmBQqfl.s:28169  .debug_str:000000000001992c .LASF2582
C:\Users\CYMR90~1\AppData\Local\Temp\ccmBQqfl.s:26684  .debug_str:00000000000139b6 .LASF2583
C:\Users\CYMR90~1\AppData\Local\Temp\ccmBQqfl.s:29907  .debug_str:00000000000208f4 .LASF2584
C:\Users\CYMR90~1\AppData\Local\Temp\ccmBQqfl.s:33155  .debug_str:000000000002d585 .LASF2585
C:\Users\CYMR90~1\AppData\Local\Temp\ccmBQqfl.s:28845  .debug_str:000000000001c65e .LASF2586
C:\Users\CYMR90~1\AppData\Local\Temp\ccmBQqfl.s:30937  .debug_str:0000000000024760 .LASF2587
C:\Users\CYMR90~1\AppData\Local\Temp\ccmBQqfl.s:31363  .debug_str:0000000000026418 .LASF2588
C:\Users\CYMR90~1\AppData\Local\Temp\ccmBQqfl.s:27643  .debug_str:000000000001780f .LASF2589
C:\Users\CYMR90~1\AppData\Local\Temp\ccmBQqfl.s:26456  .debug_str:0000000000012ab6 .LASF2590
C:\Users\CYMR90~1\AppData\Local\Temp\ccmBQqfl.s:29645  .debug_str:000000000001f96d .LASF2591
C:\Users\CYMR90~1\AppData\Local\Temp\ccmBQqfl.s:32923  .debug_str:000000000002c697 .LASF2592
C:\Users\CYMR90~1\AppData\Local\Temp\ccmBQqfl.s:30407  .debug_str:00000000000227b0 .LASF2593
C:\Users\CYMR90~1\AppData\Local\Temp\ccmBQqfl.s:32387  .debug_str:000000000002a46a .LASF2594
C:\Users\CYMR90~1\AppData\Local\Temp\ccmBQqfl.s:22752  .debug_str:0000000000003d76 .LASF2595
C:\Users\CYMR90~1\AppData\Local\Temp\ccmBQqfl.s:27490  .debug_str:0000000000016cbf .LASF2596
C:\Users\CYMR90~1\AppData\Local\Temp\ccmBQqfl.s:32249  .debug_str:0000000000029ca3 .LASF2597
C:\Users\CYMR90~1\AppData\Local\Temp\ccmBQqfl.s:25596  .debug_str:000000000000f329 .LASF2598
C:\Users\CYMR90~1\AppData\Local\Temp\ccmBQqfl.s:27456  .debug_str:0000000000016a62 .LASF2599
C:\Users\CYMR90~1\AppData\Local\Temp\ccmBQqfl.s:32215  .debug_str:0000000000029a1e .LASF2600
C:\Users\CYMR90~1\AppData\Local\Temp\ccmBQqfl.s:25572  .debug_str:000000000000f1dc .LASF2601
C:\Users\CYMR90~1\AppData\Local\Temp\ccmBQqfl.s:30289  .debug_str:0000000000022082 .LASF2602
C:\Users\CYMR90~1\AppData\Local\Temp\ccmBQqfl.s:28925  .debug_str:000000000001caf2 .LASF2603
C:\Users\CYMR90~1\AppData\Local\Temp\ccmBQqfl.s:22260  .debug_str:0000000000001e63 .LASF2604
C:\Users\CYMR90~1\AppData\Local\Temp\ccmBQqfl.s:26988  .debug_str:0000000000014c8e .LASF2605
C:\Users\CYMR90~1\AppData\Local\Temp\ccmBQqfl.s:26784  .debug_str:0000000000013fd0 .LASF2606
C:\Users\CYMR90~1\AppData\Local\Temp\ccmBQqfl.s:25104  .debug_str:000000000000d54d .LASF2607
C:\Users\CYMR90~1\AppData\Local\Temp\ccmBQqfl.s:29809  .debug_str:0000000000020359 .LASF2608
C:\Users\CYMR90~1\AppData\Local\Temp\ccmBQqfl.s:28591  .debug_str:000000000001b66d .LASF2609
C:\Users\CYMR90~1\AppData\Local\Temp\ccmBQqfl.s:29423  .debug_str:000000000001ebb8 .LASF2610
C:\Users\CYMR90~1\AppData\Local\Temp\ccmBQqfl.s:22768  .debug_str:0000000000003e6e .LASF2611
C:\Users\CYMR90~1\AppData\Local\Temp\ccmBQqfl.s:27504  .debug_str:0000000000016e29 .LASF2612
C:\Users\CYMR90~1\AppData\Local\Temp\ccmBQqfl.s:24100  .debug_str:0000000000009447 .LASF2613
C:\Users\CYMR90~1\AppData\Local\Temp\ccmBQqfl.s:30909  .debug_str:000000000002450b .LASF2614
C:\Users\CYMR90~1\AppData\Local\Temp\ccmBQqfl.s:22268  .debug_str:0000000000001ee3 .LASF2615
C:\Users\CYMR90~1\AppData\Local\Temp\ccmBQqfl.s:25536  .debug_str:000000000000efcc .LASF2616
C:\Users\CYMR90~1\AppData\Local\Temp\ccmBQqfl.s:31703  .debug_str:00000000000279a4 .LASF2617
C:\Users\CYMR90~1\AppData\Local\Temp\ccmBQqfl.s:31989  .debug_str:0000000000028cde .LASF2618
C:\Users\CYMR90~1\AppData\Local\Temp\ccmBQqfl.s:23722  .debug_str:0000000000007aec .LASF2619
C:\Users\CYMR90~1\AppData\Local\Temp\ccmBQqfl.s:25914  .debug_str:00000000000107a3 .LASF2620
C:\Users\CYMR90~1\AppData\Local\Temp\ccmBQqfl.s:24270  .debug_str:0000000000009f04 .LASF2621
C:\Users\CYMR90~1\AppData\Local\Temp\ccmBQqfl.s:22036  .debug_str:0000000000000ff8 .LASF2622
C:\Users\CYMR90~1\AppData\Local\Temp\ccmBQqfl.s:25296  .debug_str:000000000000e112 .LASF2623
C:\Users\CYMR90~1\AppData\Local\Temp\ccmBQqfl.s:23814  .debug_str:0000000000008152 .LASF2624
C:\Users\CYMR90~1\AppData\Local\Temp\ccmBQqfl.s:27809  .debug_str:00000000000182a3 .LASF2625
C:\Users\CYMR90~1\AppData\Local\Temp\ccmBQqfl.s:32573  .debug_str:000000000002af88 .LASF2626
C:\Users\CYMR90~1\AppData\Local\Temp\ccmBQqfl.s:25918  .debug_str:00000000000107da .LASF2627
C:\Users\CYMR90~1\AppData\Local\Temp\ccmBQqfl.s:30645  .debug_str:00000000000235ae .LASF2628
C:\Users\CYMR90~1\AppData\Local\Temp\ccmBQqfl.s:31249  .debug_str:0000000000025ca2 .LASF2629
C:\Users\CYMR90~1\AppData\Local\Temp\ccmBQqfl.s:28707  .debug_str:000000000001bd84 .LASF2630
C:\Users\CYMR90~1\AppData\Local\Temp\ccmBQqfl.s:26104  .debug_str:0000000000011392 .LASF2631
C:\Users\CYMR90~1\AppData\Local\Temp\ccmBQqfl.s:32437  .debug_str:000000000002a707 .LASF2632
C:\Users\CYMR90~1\AppData\Local\Temp\ccmBQqfl.s:28321  .debug_str:000000000001a33b .LASF2633
C:\Users\CYMR90~1\AppData\Local\Temp\ccmBQqfl.s:23914  .debug_str:00000000000087f0 .LASF2634
C:\Users\CYMR90~1\AppData\Local\Temp\ccmBQqfl.s:24898  .debug_str:000000000000c7a3 .LASF2635
C:\Users\CYMR90~1\AppData\Local\Temp\ccmBQqfl.s:32455  .debug_str:000000000002a842 .LASF2636
C:\Users\CYMR90~1\AppData\Local\Temp\ccmBQqfl.s:22676  .debug_str:000000000000388c .LASF2637
C:\Users\CYMR90~1\AppData\Local\Temp\ccmBQqfl.s:31583  .debug_str:0000000000027143 .LASF2638
C:\Users\CYMR90~1\AppData\Local\Temp\ccmBQqfl.s:23042  .debug_str:00000000000050fe .LASF2639
C:\Users\CYMR90~1\AppData\Local\Temp\ccmBQqfl.s:26450  .debug_str:0000000000012a53 .LASF2640
C:\Users\CYMR90~1\AppData\Local\Temp\ccmBQqfl.s:23084  .debug_str:000000000000537e .LASF2641
C:\Users\CYMR90~1\AppData\Local\Temp\ccmBQqfl.s:29975  .debug_str:0000000000020d32 .LASF2642
C:\Users\CYMR90~1\AppData\Local\Temp\ccmBQqfl.s:26722  .debug_str:0000000000013c15 .LASF2643
C:\Users\CYMR90~1\AppData\Local\Temp\ccmBQqfl.s:25504  .debug_str:000000000000ee15 .LASF2644
C:\Users\CYMR90~1\AppData\Local\Temp\ccmBQqfl.s:24556  .debug_str:000000000000b0c7 .LASF2645
C:\Users\CYMR90~1\AppData\Local\Temp\ccmBQqfl.s:22098  .debug_str:0000000000001352 .LASF2646
C:\Users\CYMR90~1\AppData\Local\Temp\ccmBQqfl.s:24934  .debug_str:000000000000c9f3 .LASF2647
C:\Users\CYMR90~1\AppData\Local\Temp\ccmBQqfl.s:26730  .debug_str:0000000000013c8c .LASF2648
C:\Users\CYMR90~1\AppData\Local\Temp\ccmBQqfl.s:29971  .debug_str:0000000000020d0a .LASF2649
C:\Users\CYMR90~1\AppData\Local\Temp\ccmBQqfl.s:21818  .debug_str:00000000000001fd .LASF2650
C:\Users\CYMR90~1\AppData\Local\Temp\ccmBQqfl.s:25064  .debug_str:000000000000d26e .LASF2651
C:\Users\CYMR90~1\AppData\Local\Temp\ccmBQqfl.s:28269  .debug_str:000000000001a02d .LASF2652
C:\Users\CYMR90~1\AppData\Local\Temp\ccmBQqfl.s:22014  .debug_str:0000000000000e3c .LASF2653
C:\Users\CYMR90~1\AppData\Local\Temp\ccmBQqfl.s:31767  .debug_str:0000000000027d23 .LASF2654
C:\Users\CYMR90~1\AppData\Local\Temp\ccmBQqfl.s:26512  .debug_str:0000000000012e69 .LASF2655
C:\Users\CYMR90~1\AppData\Local\Temp\ccmBQqfl.s:28513  .debug_str:000000000001b126 .LASF2656
C:\Users\CYMR90~1\AppData\Local\Temp\ccmBQqfl.s:32985  .debug_str:000000000002ca89 .LASF2657
C:\Users\CYMR90~1\AppData\Local\Temp\ccmBQqfl.s:22130  .debug_str:0000000000001544 .LASF2658
C:\Users\CYMR90~1\AppData\Local\Temp\ccmBQqfl.s:26860  .debug_str:000000000001448c .LASF2659
C:\Users\CYMR90~1\AppData\Local\Temp\ccmBQqfl.s:31619  .debug_str:00000000000273be .LASF2660
C:\Users\CYMR90~1\AppData\Local\Temp\ccmBQqfl.s:32655  .debug_str:000000000002b459 .LASF2661
C:\Users\CYMR90~1\AppData\Local\Temp\ccmBQqfl.s:28849  .debug_str:000000000001c68c .LASF2662
C:\Users\CYMR90~1\AppData\Local\Temp\ccmBQqfl.s:25112  .debug_str:000000000000d5a5 .LASF2663
C:\Users\CYMR90~1\AppData\Local\Temp\ccmBQqfl.s:30441  .debug_str:000000000002298e .LASF2664
C:\Users\CYMR90~1\AppData\Local\Temp\ccmBQqfl.s:22252  .debug_str:0000000000001def .LASF2665
C:\Users\CYMR90~1\AppData\Local\Temp\ccmBQqfl.s:25520  .debug_str:000000000000eefc .LASF2666
C:\Users\CYMR90~1\AppData\Local\Temp\ccmBQqfl.s:28731  .debug_str:000000000001bee6 .LASF2667
C:\Users\CYMR90~1\AppData\Local\Temp\ccmBQqfl.s:31883  .debug_str:0000000000028551 .LASF2668
C:\Users\CYMR90~1\AppData\Local\Temp\ccmBQqfl.s:25442  .debug_str:000000000000e9d9 .LASF2669
C:\Users\CYMR90~1\AppData\Local\Temp\ccmBQqfl.s:26942  .debug_str:00000000000149c9 .LASF2670
C:\Users\CYMR90~1\AppData\Local\Temp\ccmBQqfl.s:26982  .debug_str:0000000000014c49 .LASF2671
C:\Users\CYMR90~1\AppData\Local\Temp\ccmBQqfl.s:25376  .debug_str:000000000000e59b .LASF2672
C:\Users\CYMR90~1\AppData\Local\Temp\ccmBQqfl.s:25282  .debug_str:000000000000e059 .LASF2673
C:\Users\CYMR90~1\AppData\Local\Temp\ccmBQqfl.s:27512  .debug_str:0000000000016ea3 .LASF2674
C:\Users\CYMR90~1\AppData\Local\Temp\ccmBQqfl.s:30439  .debug_str:0000000000022979 .LASF2675
C:\Users\CYMR90~1\AppData\Local\Temp\ccmBQqfl.s:25618  .debug_str:000000000000f4a3 .LASF2676
C:\Users\CYMR90~1\AppData\Local\Temp\ccmBQqfl.s:30339  .debug_str:00000000000223dd .LASF2677
C:\Users\CYMR90~1\AppData\Local\Temp\ccmBQqfl.s:30511  .debug_str:0000000000022d9e .LASF2678
C:\Users\CYMR90~1\AppData\Local\Temp\ccmBQqfl.s:28425  .debug_str:000000000001aba4 .LASF2679
C:\Users\CYMR90~1\AppData\Local\Temp\ccmBQqfl.s:27671  .debug_str:00000000000179ce .LASF2680
C:\Users\CYMR90~1\AppData\Local\Temp\ccmBQqfl.s:25390  .debug_str:000000000000e680 .LASF2681
C:\Users\CYMR90~1\AppData\Local\Temp\ccmBQqfl.s:26572  .debug_str:0000000000013246 .LASF2682
C:\Users\CYMR90~1\AppData\Local\Temp\ccmBQqfl.s:26538  .debug_str:0000000000013005 .LASF2683
C:\Users\CYMR90~1\AppData\Local\Temp\ccmBQqfl.s:22582  .debug_str:00000000000032a5 .LASF2684
C:\Users\CYMR90~1\AppData\Local\Temp\ccmBQqfl.s:22466  .debug_str:0000000000002b1d .LASF2685
C:\Users\CYMR90~1\AppData\Local\Temp\ccmBQqfl.s:30093  .debug_str:0000000000021466 .LASF2686
C:\Users\CYMR90~1\AppData\Local\Temp\ccmBQqfl.s:31081  .debug_str:0000000000025142 .LASF2687
C:\Users\CYMR90~1\AppData\Local\Temp\ccmBQqfl.s:30767  .debug_str:0000000000023ce0 .LASF2688
C:\Users\CYMR90~1\AppData\Local\Temp\ccmBQqfl.s:24616  .debug_str:000000000000b4fa .LASF2689
C:\Users\CYMR90~1\AppData\Local\Temp\ccmBQqfl.s:27811  .debug_str:00000000000182ba .LASF2690
C:\Users\CYMR90~1\AppData\Local\Temp\ccmBQqfl.s:31059  .debug_str:0000000000024fbe .LASF2691
C:\Users\CYMR90~1\AppData\Local\Temp\ccmBQqfl.s:22888  .debug_str:0000000000004694 .LASF2692
C:\Users\CYMR90~1\AppData\Local\Temp\ccmBQqfl.s:24976  .debug_str:000000000000cd39 .LASF2693
C:\Users\CYMR90~1\AppData\Local\Temp\ccmBQqfl.s:29257  .debug_str:000000000001e17c .LASF2694
C:\Users\CYMR90~1\AppData\Local\Temp\ccmBQqfl.s:33083  .debug_str:000000000002d0c7 .LASF2695
C:\Users\CYMR90~1\AppData\Local\Temp\ccmBQqfl.s:24372  .debug_str:000000000000a538 .LASF2696
C:\Users\CYMR90~1\AppData\Local\Temp\ccmBQqfl.s:27583  .debug_str:00000000000174a3 .LASF2697
C:\Users\CYMR90~1\AppData\Local\Temp\ccmBQqfl.s:30831  .debug_str:00000000000240e7 .LASF2698
C:\Users\CYMR90~1\AppData\Local\Temp\ccmBQqfl.s:28985  .debug_str:000000000001cf44 .LASF2699
C:\Users\CYMR90~1\AppData\Local\Temp\ccmBQqfl.s:22314  .debug_str:0000000000002197 .LASF2700
C:\Users\CYMR90~1\AppData\Local\Temp\ccmBQqfl.s:27046  .debug_str:000000000001505f .LASF2701
C:\Users\CYMR90~1\AppData\Local\Temp\ccmBQqfl.s:31801  .debug_str:0000000000027f8f .LASF2702
C:\Users\CYMR90~1\AppData\Local\Temp\ccmBQqfl.s:25158  .debug_str:000000000000d92f .LASF2703
C:\Users\CYMR90~1\AppData\Local\Temp\ccmBQqfl.s:29873  .debug_str:0000000000020749 .LASF2704
C:\Users\CYMR90~1\AppData\Local\Temp\ccmBQqfl.s:32479  .debug_str:000000000002aa05 .LASF2705
C:\Users\CYMR90~1\AppData\Local\Temp\ccmBQqfl.s:32689  .debug_str:000000000002b6a3 .LASF2706
C:\Users\CYMR90~1\AppData\Local\Temp\ccmBQqfl.s:28461  .debug_str:000000000001ada3 .LASF2707
C:\Users\CYMR90~1\AppData\Local\Temp\ccmBQqfl.s:23618  .debug_str:000000000000746c .LASF2708
C:\Users\CYMR90~1\AppData\Local\Temp\ccmBQqfl.s:23922  .debug_str:0000000000008868 .LASF2709
C:\Users\CYMR90~1\AppData\Local\Temp\ccmBQqfl.s:27871  .debug_str:0000000000018627 .LASF2710
C:\Users\CYMR90~1\AppData\Local\Temp\ccmBQqfl.s:32789  .debug_str:000000000002bd63 .LASF2711
C:\Users\CYMR90~1\AppData\Local\Temp\ccmBQqfl.s:26314  .debug_str:000000000001216d .LASF2712
C:\Users\CYMR90~1\AppData\Local\Temp\ccmBQqfl.s:27138  .debug_str:000000000001564d .LASF2713
C:\Users\CYMR90~1\AppData\Local\Temp\ccmBQqfl.s:23328  .debug_str:000000000000621c .LASF2714
C:\Users\CYMR90~1\AppData\Local\Temp\ccmBQqfl.s:30121  .debug_str:00000000000215f3 .LASF2715
C:\Users\CYMR90~1\AppData\Local\Temp\ccmBQqfl.s:31499  .debug_str:0000000000026c93 .LASF2716
C:\Users\CYMR90~1\AppData\Local\Temp\ccmBQqfl.s:32891  .debug_str:000000000002c462 .LASF2717
C:\Users\CYMR90~1\AppData\Local\Temp\ccmBQqfl.s:22844  .debug_str:00000000000043fa .LASF2718
C:\Users\CYMR90~1\AppData\Local\Temp\ccmBQqfl.s:26578  .debug_str:000000000001329d .LASF2719
C:\Users\CYMR90~1\AppData\Local\Temp\ccmBQqfl.s:31993  .debug_str:0000000000028d0c .LASF2720
C:\Users\CYMR90~1\AppData\Local\Temp\ccmBQqfl.s:29939  .debug_str:0000000000020add .LASF2721
C:\Users\CYMR90~1\AppData\Local\Temp\ccmBQqfl.s:28805  .debug_str:000000000001c3c2 .LASF2722
C:\Users\CYMR90~1\AppData\Local\Temp\ccmBQqfl.s:28367  .debug_str:000000000001a77b .LASF2723
C:\Users\CYMR90~1\AppData\Local\Temp\ccmBQqfl.s:28287  .debug_str:000000000001a11b .LASF2724
C:\Users\CYMR90~1\AppData\Local\Temp\ccmBQqfl.s:30549  .debug_str:0000000000022fe5 .LASF2725
C:\Users\CYMR90~1\AppData\Local\Temp\ccmBQqfl.s:28801  .debug_str:000000000001c395 .LASF2726
C:\Users\CYMR90~1\AppData\Local\Temp\ccmBQqfl.s:27933  .debug_str:00000000000189ea .LASF2727
C:\Users\CYMR90~1\AppData\Local\Temp\ccmBQqfl.s:29343  .debug_str:000000000001e724 .LASF2728
C:\Users\CYMR90~1\AppData\Local\Temp\ccmBQqfl.s:26516  .debug_str:0000000000012e9f .LASF2729
C:\Users\CYMR90~1\AppData\Local\Temp\ccmBQqfl.s:25246  .debug_str:000000000000ddfd .LASF2730
C:\Users\CYMR90~1\AppData\Local\Temp\ccmBQqfl.s:24366  .debug_str:000000000000a4d5 .LASF2731
C:\Users\CYMR90~1\AppData\Local\Temp\ccmBQqfl.s:23464  .debug_str:0000000000006a95 .LASF2732
C:\Users\CYMR90~1\AppData\Local\Temp\ccmBQqfl.s:22586  .debug_str:00000000000032db .LASF2733
C:\Users\CYMR90~1\AppData\Local\Temp\ccmBQqfl.s:33127  .debug_str:000000000002d3b9 .LASF2734
C:\Users\CYMR90~1\AppData\Local\Temp\ccmBQqfl.s:32253  .debug_str:0000000000029cd4 .LASF2735
C:\Users\CYMR90~1\AppData\Local\Temp\ccmBQqfl.s:30991  .debug_str:0000000000024ac8 .LASF2736
C:\Users\CYMR90~1\AppData\Local\Temp\ccmBQqfl.s:22808  .debug_str:0000000000004152 .LASF2737
C:\Users\CYMR90~1\AppData\Local\Temp\ccmBQqfl.s:26090  .debug_str:00000000000112d0 .LASF2738
C:\Users\CYMR90~1\AppData\Local\Temp\ccmBQqfl.s:29281  .debug_str:000000000001e36b .LASF2739
C:\Users\CYMR90~1\AppData\Local\Temp\ccmBQqfl.s:32543  .debug_str:000000000002ad9e .LASF2740
C:\Users\CYMR90~1\AppData\Local\Temp\ccmBQqfl.s:24386  .debug_str:000000000000a661 .LASF2741
C:\Users\CYMR90~1\AppData\Local\Temp\ccmBQqfl.s:30627  .debug_str:00000000000234cd .LASF2742
C:\Users\CYMR90~1\AppData\Local\Temp\ccmBQqfl.s:33085  .debug_str:000000000002d0d9 .LASF2743
C:\Users\CYMR90~1\AppData\Local\Temp\ccmBQqfl.s:26342  .debug_str:0000000000012353 .LASF2744
C:\Users\CYMR90~1\AppData\Local\Temp\ccmBQqfl.s:27198  .debug_str:00000000000159ba .LASF2745
C:\Users\CYMR90~1\AppData\Local\Temp\ccmBQqfl.s:22398  .debug_str:0000000000002679 .LASF2746
C:\Users\CYMR90~1\AppData\Local\Temp\ccmBQqfl.s:29053  .debug_str:000000000001d508 .LASF2747
C:\Users\CYMR90~1\AppData\Local\Temp\ccmBQqfl.s:28429  .debug_str:000000000001abd2 .LASF2748
C:\Users\CYMR90~1\AppData\Local\Temp\ccmBQqfl.s:28467  .debug_str:000000000001ae2e .LASF2749
C:\Users\CYMR90~1\AppData\Local\Temp\ccmBQqfl.s:27418  .debug_str:00000000000167a9 .LASF2750
C:\Users\CYMR90~1\AppData\Local\Temp\ccmBQqfl.s:24686  .debug_str:000000000000b9ea .LASF2751
C:\Users\CYMR90~1\AppData\Local\Temp\ccmBQqfl.s:26812  .debug_str:000000000001417d .LASF2752
C:\Users\CYMR90~1\AppData\Local\Temp\ccmBQqfl.s:31413  .debug_str:0000000000026736 .LASF2753
C:\Users\CYMR90~1\AppData\Local\Temp\ccmBQqfl.s:28639  .debug_str:000000000001b99b .LASF2754
C:\Users\CYMR90~1\AppData\Local\Temp\ccmBQqfl.s:23310  .debug_str:0000000000006127 .LASF2755
C:\Users\CYMR90~1\AppData\Local\Temp\ccmBQqfl.s:25244  .debug_str:000000000000dddb .LASF2756
C:\Users\CYMR90~1\AppData\Local\Temp\ccmBQqfl.s:27122  .debug_str:000000000001556b .LASF2757
C:\Users\CYMR90~1\AppData\Local\Temp\ccmBQqfl.s:31777  .debug_str:0000000000027dd6 .LASF2758
C:\Users\CYMR90~1\AppData\Local\Temp\ccmBQqfl.s:24808  .debug_str:000000000000c261 .LASF2759
C:\Users\CYMR90~1\AppData\Local\Temp\ccmBQqfl.s:25370  .debug_str:000000000000e55a .LASF2760
C:\Users\CYMR90~1\AppData\Local\Temp\ccmBQqfl.s:29383  .debug_str:000000000001e97c .LASF2761
C:\Users\CYMR90~1\AppData\Local\Temp\ccmBQqfl.s:23060  .debug_str:0000000000005213 .LASF2762
C:\Users\CYMR90~1\AppData\Local\Temp\ccmBQqfl.s:32649  .debug_str:000000000002b400 .LASF2763
C:\Users\CYMR90~1\AppData\Local\Temp\ccmBQqfl.s:30843  .debug_str:0000000000024191 .LASF2764
C:\Users\CYMR90~1\AppData\Local\Temp\ccmBQqfl.s:31651  .debug_str:000000000002757a .LASF2765
C:\Users\CYMR90~1\AppData\Local\Temp\ccmBQqfl.s:23506  .debug_str:0000000000006d16 .LASF2766
C:\Users\CYMR90~1\AppData\Local\Temp\ccmBQqfl.s:33159  .debug_str:000000000002d5b9 .LASF2767
C:\Users\CYMR90~1\AppData\Local\Temp\ccmBQqfl.s:22558  .debug_str:000000000000310c .LASF2768
C:\Users\CYMR90~1\AppData\Local\Temp\ccmBQqfl.s:22292  .debug_str:000000000000205f .LASF2769
C:\Users\CYMR90~1\AppData\Local\Temp\ccmBQqfl.s:29413  .debug_str:000000000001eb4c .LASF2770
C:\Users\CYMR90~1\AppData\Local\Temp\ccmBQqfl.s:22536  .debug_str:0000000000002fb3 .LASF2771
C:\Users\CYMR90~1\AppData\Local\Temp\ccmBQqfl.s:21838  .debug_str:0000000000000334 .LASF2772
C:\Users\CYMR90~1\AppData\Local\Temp\ccmBQqfl.s:32941  .debug_str:000000000002c774 .LASF2773
C:\Users\CYMR90~1\AppData\Local\Temp\ccmBQqfl.s:31555  .debug_str:0000000000026fd5 .LASF2774
C:\Users\CYMR90~1\AppData\Local\Temp\ccmBQqfl.s:23296  .debug_str:0000000000006062 .LASF2775
C:\Users\CYMR90~1\AppData\Local\Temp\ccmBQqfl.s:32621  .debug_str:000000000002b278 .LASF2776
C:\Users\CYMR90~1\AppData\Local\Temp\ccmBQqfl.s:28969  .debug_str:000000000001ce58 .LASF2777
C:\Users\CYMR90~1\AppData\Local\Temp\ccmBQqfl.s:29993  .debug_str:0000000000020e69 .LASF2778
C:\Users\CYMR90~1\AppData\Local\Temp\ccmBQqfl.s:25746  .debug_str:000000000000fcd1 .LASF2779
C:\Users\CYMR90~1\AppData\Local\Temp\ccmBQqfl.s:24882  .debug_str:000000000000c6ad .LASF2780
C:\Users\CYMR90~1\AppData\Local\Temp\ccmBQqfl.s:28695  .debug_str:000000000001bd06 .LASF2781
C:\Users\CYMR90~1\AppData\Local\Temp\ccmBQqfl.s:31953  .debug_str:0000000000028a4c .LASF2782
C:\Users\CYMR90~1\AppData\Local\Temp\ccmBQqfl.s:30397  .debug_str:0000000000022709 .LASF2783
C:\Users\CYMR90~1\AppData\Local\Temp\ccmBQqfl.s:30009  .debug_str:0000000000020f55 .LASF2784
C:\Users\CYMR90~1\AppData\Local\Temp\ccmBQqfl.s:22898  .debug_str:000000000000473b .LASF2785
C:\Users\CYMR90~1\AppData\Local\Temp\ccmBQqfl.s:29019  .debug_str:000000000001d19b .LASF2786
C:\Users\CYMR90~1\AppData\Local\Temp\ccmBQqfl.s:32213  .debug_str:00000000000299fd .LASF2787
C:\Users\CYMR90~1\AppData\Local\Temp\ccmBQqfl.s:31351  .debug_str:0000000000026376 .LASF2788
C:\Users\CYMR90~1\AppData\Local\Temp\ccmBQqfl.s:29153  .debug_str:000000000001daf8 .LASF2789
C:\Users\CYMR90~1\AppData\Local\Temp\ccmBQqfl.s:25180  .debug_str:000000000000da4a .LASF2790
C:\Users\CYMR90~1\AppData\Local\Temp\ccmBQqfl.s:32711  .debug_str:000000000002b831 .LASF2791
C:\Users\CYMR90~1\AppData\Local\Temp\ccmBQqfl.s:27805  .debug_str:0000000000018252 .LASF2792
C:\Users\CYMR90~1\AppData\Local\Temp\ccmBQqfl.s:22766  .debug_str:0000000000003e4b .LASF2793
C:\Users\CYMR90~1\AppData\Local\Temp\ccmBQqfl.s:32753  .debug_str:000000000002bacf .LASF2794
C:\Users\CYMR90~1\AppData\Local\Temp\ccmBQqfl.s:25440  .debug_str:000000000000e9b7 .LASF2795
C:\Users\CYMR90~1\AppData\Local\Temp\ccmBQqfl.s:25562  .debug_str:000000000000f12d .LASF2796
C:\Users\CYMR90~1\AppData\Local\Temp\ccmBQqfl.s:27028  .debug_str:0000000000014f08 .LASF2797
C:\Users\CYMR90~1\AppData\Local\Temp\ccmBQqfl.s:26926  .debug_str:0000000000014898 .LASF2798
C:\Users\CYMR90~1\AppData\Local\Temp\ccmBQqfl.s:25588  .debug_str:000000000000f2b3 .LASF2799
C:\Users\CYMR90~1\AppData\Local\Temp\ccmBQqfl.s:25270  .debug_str:000000000000df6d .LASF2800
C:\Users\CYMR90~1\AppData\Local\Temp\ccmBQqfl.s:30783  .debug_str:0000000000023e05 .LASF2801
C:\Users\CYMR90~1\AppData\Local\Temp\ccmBQqfl.s:27617  .debug_str:000000000001769d .LASF2802
C:\Users\CYMR90~1\AppData\Local\Temp\ccmBQqfl.s:26718  .debug_str:0000000000013bcb .LASF2803
C:\Users\CYMR90~1\AppData\Local\Temp\ccmBQqfl.s:23992  .debug_str:0000000000008d82 .LASF2804
C:\Users\CYMR90~1\AppData\Local\Temp\ccmBQqfl.s:32465  .debug_str:000000000002a8fa .LASF2805
C:\Users\CYMR90~1\AppData\Local\Temp\ccmBQqfl.s:32931  .debug_str:000000000002c6f3 .LASF2806
C:\Users\CYMR90~1\AppData\Local\Temp\ccmBQqfl.s:27112  .debug_str:00000000000154bf .LASF2807
C:\Users\CYMR90~1\AppData\Local\Temp\ccmBQqfl.s:23136  .debug_str:00000000000056aa .LASF2808
C:\Users\CYMR90~1\AppData\Local\Temp\ccmBQqfl.s:27292  .debug_str:0000000000015fae .LASF2809
C:\Users\CYMR90~1\AppData\Local\Temp\ccmBQqfl.s:32893  .debug_str:000000000002c482 .LASF2810
C:\Users\CYMR90~1\AppData\Local\Temp\ccmBQqfl.s:25942  .debug_str:000000000001093d .LASF2811
C:\Users\CYMR90~1\AppData\Local\Temp\ccmBQqfl.s:24408  .debug_str:000000000000a7c4 .LASF2812
C:\Users\CYMR90~1\AppData\Local\Temp\ccmBQqfl.s:21936  .debug_str:00000000000008e8 .LASF2813
C:\Users\CYMR90~1\AppData\Local\Temp\ccmBQqfl.s:29983  .debug_str:0000000000020daf .LASF2814
C:\Users\CYMR90~1\AppData\Local\Temp\ccmBQqfl.s:33003  .debug_str:000000000002cb5f .LASF2815
C:\Users\CYMR90~1\AppData\Local\Temp\ccmBQqfl.s:30903  .debug_str:00000000000244a7 .LASF2816
C:\Users\CYMR90~1\AppData\Local\Temp\ccmBQqfl.s:22164  .debug_str:00000000000017d7 .LASF2817
C:\Users\CYMR90~1\AppData\Local\Temp\ccmBQqfl.s:31545  .debug_str:0000000000026f49 .LASF2818
C:\Users\CYMR90~1\AppData\Local\Temp\ccmBQqfl.s:33133  .debug_str:000000000002d407 .LASF2819
C:\Users\CYMR90~1\AppData\Local\Temp\ccmBQqfl.s:25460  .debug_str:000000000000eacc .LASF2820
C:\Users\CYMR90~1\AppData\Local\Temp\ccmBQqfl.s:28817  .debug_str:000000000001c490 .LASF2821
C:\Users\CYMR90~1\AppData\Local\Temp\ccmBQqfl.s:30555  .debug_str:0000000000023059 .LASF2822
C:\Users\CYMR90~1\AppData\Local\Temp\ccmBQqfl.s:26072  .debug_str:00000000000111f4 .LASF2823
C:\Users\CYMR90~1\AppData\Local\Temp\ccmBQqfl.s:25178  .debug_str:000000000000da31 .LASF2824
C:\Users\CYMR90~1\AppData\Local\Temp\ccmBQqfl.s:29973  .debug_str:0000000000020d1d .LASF2825
C:\Users\CYMR90~1\AppData\Local\Temp\ccmBQqfl.s:32325  .debug_str:000000000002a0ef .LASF2826
C:\Users\CYMR90~1\AppData\Local\Temp\ccmBQqfl.s:24832  .debug_str:000000000000c3cc .LASF2827
C:\Users\CYMR90~1\AppData\Local\Temp\ccmBQqfl.s:23606  .debug_str:00000000000073b7 .LASF2828
C:\Users\CYMR90~1\AppData\Local\Temp\ccmBQqfl.s:30145  .debug_str:0000000000021752 .LASF2829
C:\Users\CYMR90~1\AppData\Local\Temp\ccmBQqfl.s:32347  .debug_str:000000000002a22c .LASF2830
C:\Users\CYMR90~1\AppData\Local\Temp\ccmBQqfl.s:22542  .debug_str:0000000000003015 .LASF2831
C:\Users\CYMR90~1\AppData\Local\Temp\ccmBQqfl.s:24896  .debug_str:000000000000c78f .LASF2832
C:\Users\CYMR90~1\AppData\Local\Temp\ccmBQqfl.s:25396  .debug_str:000000000000e6e2 .LASF2833
C:\Users\CYMR90~1\AppData\Local\Temp\ccmBQqfl.s:32743  .debug_str:000000000002ba43 .LASF2834
C:\Users\CYMR90~1\AppData\Local\Temp\ccmBQqfl.s:23576  .debug_str:0000000000007188 .LASF2835
C:\Users\CYMR90~1\AppData\Local\Temp\ccmBQqfl.s:29869  .debug_str:000000000002070a .LASF2836
C:\Users\CYMR90~1\AppData\Local\Temp\ccmBQqfl.s:25780  .debug_str:000000000000feec .LASF2837
C:\Users\CYMR90~1\AppData\Local\Temp\ccmBQqfl.s:27629  .debug_str:000000000001775d .LASF2838
C:\Users\CYMR90~1\AppData\Local\Temp\ccmBQqfl.s:24218  .debug_str:0000000000009bc0 .LASF2839
C:\Users\CYMR90~1\AppData\Local\Temp\ccmBQqfl.s:24326  .debug_str:000000000000a263 .LASF2840
C:\Users\CYMR90~1\AppData\Local\Temp\ccmBQqfl.s:25346  .debug_str:000000000000e3e1 .LASF2841
C:\Users\CYMR90~1\AppData\Local\Temp\ccmBQqfl.s:24440  .debug_str:000000000000a95f .LASF2842
C:\Users\CYMR90~1\AppData\Local\Temp\ccmBQqfl.s:31125  .debug_str:0000000000025404 .LASF2843
C:\Users\CYMR90~1\AppData\Local\Temp\ccmBQqfl.s:25516  .debug_str:000000000000eecc .LASF2844
C:\Users\CYMR90~1\AppData\Local\Temp\ccmBQqfl.s:26086  .debug_str:0000000000011291 .LASF2845
C:\Users\CYMR90~1\AppData\Local\Temp\ccmBQqfl.s:31879  .debug_str:0000000000028504 .LASF2846
C:\Users\CYMR90~1\AppData\Local\Temp\ccmBQqfl.s:23958  .debug_str:0000000000008b69 .LASF2847
C:\Users\CYMR90~1\AppData\Local\Temp\ccmBQqfl.s:32821  .debug_str:000000000002bf9d .LASF2848
C:\Users\CYMR90~1\AppData\Local\Temp\ccmBQqfl.s:31973  .debug_str:0000000000028bcb .LASF2849
C:\Users\CYMR90~1\AppData\Local\Temp\ccmBQqfl.s:32245  .debug_str:0000000000029c71 .LASF2850
C:\Users\CYMR90~1\AppData\Local\Temp\ccmBQqfl.s:22816  .debug_str:00000000000041d4 .LASF2851
C:\Users\CYMR90~1\AppData\Local\Temp\ccmBQqfl.s:24232  .debug_str:0000000000009cc3 .LASF2852
C:\Users\CYMR90~1\AppData\Local\Temp\ccmBQqfl.s:28677  .debug_str:000000000001bbe9 .LASF2853
C:\Users\CYMR90~1\AppData\Local\Temp\ccmBQqfl.s:31143  .debug_str:00000000000254e0 .LASF2854
C:\Users\CYMR90~1\AppData\Local\Temp\ccmBQqfl.s:25184  .debug_str:000000000000da8e .LASF2855
C:\Users\CYMR90~1\AppData\Local\Temp\ccmBQqfl.s:28275  .debug_str:000000000001a079 .LASF2856
C:\Users\CYMR90~1\AppData\Local\Temp\ccmBQqfl.s:22072  .debug_str:000000000000120a .LASF2857
C:\Users\CYMR90~1\AppData\Local\Temp\ccmBQqfl.s:25560  .debug_str:000000000000f113 .LASF2858
C:\Users\CYMR90~1\AppData\Local\Temp\ccmBQqfl.s:28875  .debug_str:000000000001c834 .LASF2859
C:\Users\CYMR90~1\AppData\Local\Temp\ccmBQqfl.s:32259  .debug_str:0000000000029d19 .LASF2860
C:\Users\CYMR90~1\AppData\Local\Temp\ccmBQqfl.s:22206  .debug_str:0000000000001b31 .LASF2861
C:\Users\CYMR90~1\AppData\Local\Temp\ccmBQqfl.s:24294  .debug_str:000000000000a064 .LASF2862
C:\Users\CYMR90~1\AppData\Local\Temp\ccmBQqfl.s:31683  .debug_str:0000000000027848 .LASF2863
C:\Users\CYMR90~1\AppData\Local\Temp\ccmBQqfl.s:23844  .debug_str:00000000000083c6 .LASF2864
C:\Users\CYMR90~1\AppData\Local\Temp\ccmBQqfl.s:25352  .debug_str:000000000000e45a .LASF2865
C:\Users\CYMR90~1\AppData\Local\Temp\ccmBQqfl.s:30907  .debug_str:00000000000244ec .LASF2866
C:\Users\CYMR90~1\AppData\Local\Temp\ccmBQqfl.s:28205  .debug_str:0000000000019c1d .LASF2867
C:\Users\CYMR90~1\AppData\Local\Temp\ccmBQqfl.s:29735  .debug_str:000000000001fefe .LASF2868
C:\Users\CYMR90~1\AppData\Local\Temp\ccmBQqfl.s:29653  .debug_str:000000000001f9e9 .LASF2869
C:\Users\CYMR90~1\AppData\Local\Temp\ccmBQqfl.s:23818  .debug_str:000000000000818b .LASF2870
C:\Users\CYMR90~1\AppData\Local\Temp\ccmBQqfl.s:31205  .debug_str:00000000000259ca .LASF2871
C:\Users\CYMR90~1\AppData\Local\Temp\ccmBQqfl.s:31373  .debug_str:00000000000264e6 .LASF2872
C:\Users\CYMR90~1\AppData\Local\Temp\ccmBQqfl.s:31133  .debug_str:000000000002547c .LASF2873
C:\Users\CYMR90~1\AppData\Local\Temp\ccmBQqfl.s:22794  .debug_str:0000000000004033 .LASF2874
C:\Users\CYMR90~1\AppData\Local\Temp\ccmBQqfl.s:30123  .debug_str:0000000000021613 .LASF2875
C:\Users\CYMR90~1\AppData\Local\Temp\ccmBQqfl.s:26058  .debug_str:000000000001112f .LASF2876
C:\Users\CYMR90~1\AppData\Local\Temp\ccmBQqfl.s:22628  .debug_str:00000000000035a7 .LASF2877
C:\Users\CYMR90~1\AppData\Local\Temp\ccmBQqfl.s:30787  .debug_str:0000000000023e42 .LASF2878
C:\Users\CYMR90~1\AppData\Local\Temp\ccmBQqfl.s:27573  .debug_str:0000000000017421 .LASF2879
C:\Users\CYMR90~1\AppData\Local\Temp\ccmBQqfl.s:27312  .debug_str:000000000001611d .LASF2880
C:\Users\CYMR90~1\AppData\Local\Temp\ccmBQqfl.s:29609  .debug_str:000000000001f745 .LASF2881
C:\Users\CYMR90~1\AppData\Local\Temp\ccmBQqfl.s:26016  .debug_str:0000000000010e6a .LASF2882
C:\Users\CYMR90~1\AppData\Local\Temp\ccmBQqfl.s:26142  .debug_str:00000000000115d5 .LASF2883
C:\Users\CYMR90~1\AppData\Local\Temp\ccmBQqfl.s:25532  .debug_str:000000000000ef9b .LASF2884
C:\Users\CYMR90~1\AppData\Local\Temp\ccmBQqfl.s:25668  .debug_str:000000000000f7b1 .LASF2885
C:\Users\CYMR90~1\AppData\Local\Temp\ccmBQqfl.s:26638  .debug_str:00000000000136fa .LASF2886
C:\Users\CYMR90~1\AppData\Local\Temp\ccmBQqfl.s:31991  .debug_str:0000000000028cf3 .LASF2887
C:\Users\CYMR90~1\AppData\Local\Temp\ccmBQqfl.s:27430  .debug_str:00000000000168e7 .LASF2888
C:\Users\CYMR90~1\AppData\Local\Temp\ccmBQqfl.s:30899  .debug_str:0000000000024478 .LASF2889
C:\Users\CYMR90~1\AppData\Local\Temp\ccmBQqfl.s:22354  .debug_str:00000000000023d3 .LASF2890
C:\Users\CYMR90~1\AppData\Local\Temp\ccmBQqfl.s:23598  .debug_str:0000000000007322 .LASF2891
C:\Users\CYMR90~1\AppData\Local\Temp\ccmBQqfl.s:32047  .debug_str:000000000002903f .LASF2892
C:\Users\CYMR90~1\AppData\Local\Temp\ccmBQqfl.s:24344  .debug_str:000000000000a373 .LASF2893
C:\Users\CYMR90~1\AppData\Local\Temp\ccmBQqfl.s:26816  .debug_str:00000000000141b3 .LASF2894
C:\Users\CYMR90~1\AppData\Local\Temp\ccmBQqfl.s:27108  .debug_str:000000000001547f .LASF2895
C:\Users\CYMR90~1\AppData\Local\Temp\ccmBQqfl.s:27160  .debug_str:000000000001579d .LASF2896
C:\Users\CYMR90~1\AppData\Local\Temp\ccmBQqfl.s:30061  .debug_str:000000000002129d .LASF2897
C:\Users\CYMR90~1\AppData\Local\Temp\ccmBQqfl.s:27987  .debug_str:0000000000018d53 .LASF2898
C:\Users\CYMR90~1\AppData\Local\Temp\ccmBQqfl.s:25494  .debug_str:000000000000ed2d .LASF2899
C:\Users\CYMR90~1\AppData\Local\Temp\ccmBQqfl.s:32141  .debug_str:00000000000295be .LASF2900
C:\Users\CYMR90~1\AppData\Local\Temp\ccmBQqfl.s:30575  .debug_str:0000000000023166 .LASF2901
C:\Users\CYMR90~1\AppData\Local\Temp\ccmBQqfl.s:24908  .debug_str:000000000000c82e .LASF2902
C:\Users\CYMR90~1\AppData\Local\Temp\ccmBQqfl.s:32957  .debug_str:000000000002c8cc .LASF2903
C:\Users\CYMR90~1\AppData\Local\Temp\ccmBQqfl.s:32575  .debug_str:000000000002af9f .LASF2904
C:\Users\CYMR90~1\AppData\Local\Temp\ccmBQqfl.s:31665  .debug_str:0000000000027678 .LASF2905
C:\Users\CYMR90~1\AppData\Local\Temp\ccmBQqfl.s:27667  .debug_str:0000000000017983 .LASF2906
C:\Users\CYMR90~1\AppData\Local\Temp\ccmBQqfl.s:24806  .debug_str:000000000000c239 .LASF2907
C:\Users\CYMR90~1\AppData\Local\Temp\ccmBQqfl.s:28277  .debug_str:000000000001a097 .LASF2908
C:\Users\CYMR90~1\AppData\Local\Temp\ccmBQqfl.s:27114  .debug_str:00000000000154ea .LASF2909
C:\Users\CYMR90~1\AppData\Local\Temp\ccmBQqfl.s:28023  .debug_str:0000000000018fcd .LASF2910
C:\Users\CYMR90~1\AppData\Local\Temp\ccmBQqfl.s:29741  .debug_str:000000000001ff63 .LASF2911
C:\Users\CYMR90~1\AppData\Local\Temp\ccmBQqfl.s:30999  .debug_str:0000000000024b54 .LASF2912
C:\Users\CYMR90~1\AppData\Local\Temp\ccmBQqfl.s:28153  .debug_str:000000000001985e .LASF2913
C:\Users\CYMR90~1\AppData\Local\Temp\ccmBQqfl.s:25726  .debug_str:000000000000fbc6 .LASF2914
C:\Users\CYMR90~1\AppData\Local\Temp\ccmBQqfl.s:22556  .debug_str:00000000000030e0 .LASF2915
C:\Users\CYMR90~1\AppData\Local\Temp\ccmBQqfl.s:25578  .debug_str:000000000000f22c .LASF2916
C:\Users\CYMR90~1\AppData\Local\Temp\ccmBQqfl.s:29941  .debug_str:0000000000020b02 .LASF2917
C:\Users\CYMR90~1\AppData\Local\Temp\ccmBQqfl.s:27186  .debug_str:0000000000015905 .LASF2918
C:\Users\CYMR90~1\AppData\Local\Temp\ccmBQqfl.s:23350  .debug_str:000000000000637b .LASF2919
C:\Users\CYMR90~1\AppData\Local\Temp\ccmBQqfl.s:28813  .debug_str:000000000001c459 .LASF2920
C:\Users\CYMR90~1\AppData\Local\Temp\ccmBQqfl.s:27839  .debug_str:0000000000018427 .LASF2921
C:\Users\CYMR90~1\AppData\Local\Temp\ccmBQqfl.s:26866  .debug_str:00000000000144e0 .LASF2922
C:\Users\CYMR90~1\AppData\Local\Temp\ccmBQqfl.s:26020  .debug_str:0000000000010e98 .LASF2923
C:\Users\CYMR90~1\AppData\Local\Temp\ccmBQqfl.s:25052  .debug_str:000000000000d1b5 .LASF2924
C:\Users\CYMR90~1\AppData\Local\Temp\ccmBQqfl.s:24058  .debug_str:00000000000091e8 .LASF2925
C:\Users\CYMR90~1\AppData\Local\Temp\ccmBQqfl.s:23146  .debug_str:0000000000005779 .LASF2926
C:\Users\CYMR90~1\AppData\Local\Temp\ccmBQqfl.s:22190  .debug_str:0000000000001a46 .LASF2927
C:\Users\CYMR90~1\AppData\Local\Temp\ccmBQqfl.s:32633  .debug_str:000000000002b334 .LASF2928
C:\Users\CYMR90~1\AppData\Local\Temp\ccmBQqfl.s:30209  .debug_str:0000000000021bb6 .LASF2929
C:\Users\CYMR90~1\AppData\Local\Temp\ccmBQqfl.s:29217  .debug_str:000000000001df30 .LASF2930
C:\Users\CYMR90~1\AppData\Local\Temp\ccmBQqfl.s:28359  .debug_str:000000000001a568 .LASF2931
C:\Users\CYMR90~1\AppData\Local\Temp\ccmBQqfl.s:27354  .debug_str:00000000000163fb .LASF2932
C:\Users\CYMR90~1\AppData\Local\Temp\ccmBQqfl.s:26428  .debug_str:00000000000128db .LASF2933
C:\Users\CYMR90~1\AppData\Local\Temp\ccmBQqfl.s:25452  .debug_str:000000000000ea5b .LASF2934
C:\Users\CYMR90~1\AppData\Local\Temp\ccmBQqfl.s:29959  .debug_str:0000000000020c66 .LASF2935
C:\Users\CYMR90~1\AppData\Local\Temp\ccmBQqfl.s:31617  .debug_str:0000000000027391 .LASF2936
C:\Users\CYMR90~1\AppData\Local\Temp\ccmBQqfl.s:31399  .debug_str:0000000000026679 .LASF2937
C:\Users\CYMR90~1\AppData\Local\Temp\ccmBQqfl.s:23842  .debug_str:0000000000008399 .LASF2938
C:\Users\CYMR90~1\AppData\Local\Temp\ccmBQqfl.s:24480  .debug_str:000000000000abf4 .LASF2939
C:\Users\CYMR90~1\AppData\Local\Temp\ccmBQqfl.s:23648  .debug_str:000000000000765e .LASF2940
C:\Users\CYMR90~1\AppData\Local\Temp\ccmBQqfl.s:30299  .debug_str:0000000000022146 .LASF2941
C:\Users\CYMR90~1\AppData\Local\Temp\ccmBQqfl.s:30687  .debug_str:00000000000237d1 .LASF2942
C:\Users\CYMR90~1\AppData\Local\Temp\ccmBQqfl.s:24944  .debug_str:000000000000cae1 .LASF2943
C:\Users\CYMR90~1\AppData\Local\Temp\ccmBQqfl.s:32725  .debug_str:000000000002b911 .LASF2944
C:\Users\CYMR90~1\AppData\Local\Temp\ccmBQqfl.s:22996  .debug_str:0000000000004e23 .LASF2945
C:\Users\CYMR90~1\AppData\Local\Temp\ccmBQqfl.s:28961  .debug_str:000000000001cdf0 .LASF2946
C:\Users\CYMR90~1\AppData\Local\Temp\ccmBQqfl.s:27446  .debug_str:00000000000169dd .LASF2947
C:\Users\CYMR90~1\AppData\Local\Temp\ccmBQqfl.s:22490  .debug_str:0000000000002cd7 .LASF2948
C:\Users\CYMR90~1\AppData\Local\Temp\ccmBQqfl.s:33029  .debug_str:000000000002cd43 .LASF2949
C:\Users\CYMR90~1\AppData\Local\Temp\ccmBQqfl.s:31963  .debug_str:0000000000028afd .LASF2950
C:\Users\CYMR90~1\AppData\Local\Temp\ccmBQqfl.s:22966  .debug_str:0000000000004c3b .LASF2951
C:\Users\CYMR90~1\AppData\Local\Temp\ccmBQqfl.s:28793  .debug_str:000000000001c30e .LASF2952
C:\Users\CYMR90~1\AppData\Local\Temp\ccmBQqfl.s:26024  .debug_str:0000000000010ece .LASF2953
C:\Users\CYMR90~1\AppData\Local\Temp\ccmBQqfl.s:29101  .debug_str:000000000001d7ba .LASF2954
C:\Users\CYMR90~1\AppData\Local\Temp\ccmBQqfl.s:21878  .debug_str:0000000000000577 .LASF2955
C:\Users\CYMR90~1\AppData\Local\Temp\ccmBQqfl.s:26600  .debug_str:0000000000013428 .LASF2956
C:\Users\CYMR90~1\AppData\Local\Temp\ccmBQqfl.s:31349  .debug_str:0000000000026354 .LASF2957
C:\Users\CYMR90~1\AppData\Local\Temp\ccmBQqfl.s:29039  .debug_str:000000000001d378 .LASF2958
C:\Users\CYMR90~1\AppData\Local\Temp\ccmBQqfl.s:23370  .debug_str:00000000000064b2 .LASF2959
C:\Users\CYMR90~1\AppData\Local\Temp\ccmBQqfl.s:27803  .debug_str:000000000001823a .LASF2960
C:\Users\CYMR90~1\AppData\Local\Temp\ccmBQqfl.s:26268  .debug_str:0000000000011ea5 .LASF2961
C:\Users\CYMR90~1\AppData\Local\Temp\ccmBQqfl.s:24804  .debug_str:000000000000c21d .LASF2962
C:\Users\CYMR90~1\AppData\Local\Temp\ccmBQqfl.s:28663  .debug_str:000000000001bafa .LASF2963
C:\Users\CYMR90~1\AppData\Local\Temp\ccmBQqfl.s:25156  .debug_str:000000000000d911 .LASF2964
C:\Users\CYMR90~1\AppData\Local\Temp\ccmBQqfl.s:24128  .debug_str:00000000000095da .LASF2965
C:\Users\CYMR90~1\AppData\Local\Temp\ccmBQqfl.s:31045  .debug_str:0000000000024eeb .LASF2966
C:\Users\CYMR90~1\AppData\Local\Temp\ccmBQqfl.s:26312  .debug_str:000000000001214d .LASF2967
C:\Users\CYMR90~1\AppData\Local\Temp\ccmBQqfl.s:30657  .debug_str:0000000000023657 .LASF2968
C:\Users\CYMR90~1\AppData\Local\Temp\ccmBQqfl.s:24464  .debug_str:000000000000ab13 .LASF2969
C:\Users\CYMR90~1\AppData\Local\Temp\ccmBQqfl.s:28221  .debug_str:0000000000019d41 .LASF2970
C:\Users\CYMR90~1\AppData\Local\Temp\ccmBQqfl.s:31579  .debug_str:0000000000027113 .LASF2971
C:\Users\CYMR90~1\AppData\Local\Temp\ccmBQqfl.s:25182  .debug_str:000000000000da69 .LASF2972
C:\Users\CYMR90~1\AppData\Local\Temp\ccmBQqfl.s:23266  .debug_str:0000000000005ebf .LASF2973
C:\Users\CYMR90~1\AppData\Local\Temp\ccmBQqfl.s:24788  .debug_str:000000000000c0f3 .LASF2974
C:\Users\CYMR90~1\AppData\Local\Temp\ccmBQqfl.s:23560  .debug_str:00000000000070ab .LASF2975
C:\Users\CYMR90~1\AppData\Local\Temp\ccmBQqfl.s:25480  .debug_str:000000000000ec58 .LASF2976
C:\Users\CYMR90~1\AppData\Local\Temp\ccmBQqfl.s:22024  .debug_str:0000000000000f60 .LASF2977
C:\Users\CYMR90~1\AppData\Local\Temp\ccmBQqfl.s:32767  .debug_str:000000000002bbd5 .LASF2978
C:\Users\CYMR90~1\AppData\Local\Temp\ccmBQqfl.s:32363  .debug_str:000000000002a2f8 .LASF2979
C:\Users\CYMR90~1\AppData\Local\Temp\ccmBQqfl.s:22592  .debug_str:0000000000003336 .LASF2980
C:\Users\CYMR90~1\AppData\Local\Temp\ccmBQqfl.s:30897  .debug_str:0000000000024460 .LASF2981
C:\Users\CYMR90~1\AppData\Local\Temp\ccmBQqfl.s:29347  .debug_str:000000000001e75a .LASF2982
C:\Users\CYMR90~1\AppData\Local\Temp\ccmBQqfl.s:29747  .debug_str:000000000001ffad .LASF2983
C:\Users\CYMR90~1\AppData\Local\Temp\ccmBQqfl.s:31719  .debug_str:0000000000027a77 .LASF2984
C:\Users\CYMR90~1\AppData\Local\Temp\ccmBQqfl.s:26894  .debug_str:0000000000014671 .LASF2985
C:\Users\CYMR90~1\AppData\Local\Temp\ccmBQqfl.s:27458  .debug_str:0000000000016a77 .LASF2986
C:\Users\CYMR90~1\AppData\Local\Temp\ccmBQqfl.s:22284  .debug_str:0000000000001fe2 .LASF2987
C:\Users\CYMR90~1\AppData\Local\Temp\ccmBQqfl.s:29733  .debug_str:000000000001fec4 .LASF2988
C:\Users\CYMR90~1\AppData\Local\Temp\ccmBQqfl.s:29679  .debug_str:000000000001fba1 .LASF2989
C:\Users\CYMR90~1\AppData\Local\Temp\ccmBQqfl.s:28765  .debug_str:000000000001c112 .LASF2990
C:\Users\CYMR90~1\AppData\Local\Temp\ccmBQqfl.s:22452  .debug_str:0000000000002a3c .LASF2991
C:\Users\CYMR90~1\AppData\Local\Temp\ccmBQqfl.s:31213  .debug_str:0000000000025a19 .LASF2992
C:\Users\CYMR90~1\AppData\Local\Temp\ccmBQqfl.s:25078  .debug_str:000000000000d350 .LASF2993
C:\Users\CYMR90~1\AppData\Local\Temp\ccmBQqfl.s:22814  .debug_str:00000000000041ae .LASF2994
C:\Users\CYMR90~1\AppData\Local\Temp\ccmBQqfl.s:22538  .debug_str:0000000000002fca .LASF2995
C:\Users\CYMR90~1\AppData\Local\Temp\ccmBQqfl.s:23954  .debug_str:0000000000008b2f .LASF2996
C:\Users\CYMR90~1\AppData\Local\Temp\ccmBQqfl.s:29337  .debug_str:000000000001e6bc .LASF2997
C:\Users\CYMR90~1\AppData\Local\Temp\ccmBQqfl.s:30501  .debug_str:0000000000022d09 .LASF2998
C:\Users\CYMR90~1\AppData\Local\Temp\ccmBQqfl.s:24336  .debug_str:000000000000a300 .LASF2999
C:\Users\CYMR90~1\AppData\Local\Temp\ccmBQqfl.s:25276  .debug_str:000000000000dfbe .LASF3000
C:\Users\CYMR90~1\AppData\Local\Temp\ccmBQqfl.s:27250  .debug_str:0000000000015cbb .LASF3001
C:\Users\CYMR90~1\AppData\Local\Temp\ccmBQqfl.s:25316  .debug_str:000000000000e233 .LASF3002
C:\Users\CYMR90~1\AppData\Local\Temp\ccmBQqfl.s:30827  .debug_str:0000000000024099 .LASF3003
C:\Users\CYMR90~1\AppData\Local\Temp\ccmBQqfl.s:29997  .debug_str:0000000000020eaf .LASF3004
C:\Users\CYMR90~1\AppData\Local\Temp\ccmBQqfl.s:24796  .debug_str:000000000000c177 .LASF3005
C:\Users\CYMR90~1\AppData\Local\Temp\ccmBQqfl.s:29945  .debug_str:0000000000020b44 .LASF3006
C:\Users\CYMR90~1\AppData\Local\Temp\ccmBQqfl.s:27737  .debug_str:0000000000017e31 .LASF3007
C:\Users\CYMR90~1\AppData\Local\Temp\ccmBQqfl.s:31957  .debug_str:0000000000028a8b .LASF3008
C:\Users\CYMR90~1\AppData\Local\Temp\ccmBQqfl.s:29439  .debug_str:000000000001ece8 .LASF3009
C:\Users\CYMR90~1\AppData\Local\Temp\ccmBQqfl.s:28745  .debug_str:000000000001bf99 .LASF3010
C:\Users\CYMR90~1\AppData\Local\Temp\ccmBQqfl.s:31837  .debug_str:0000000000028206 .LASF3011
C:\Users\CYMR90~1\AppData\Local\Temp\ccmBQqfl.s:22310  .debug_str:0000000000002166 .LASF3012
C:\Users\CYMR90~1\AppData\Local\Temp\ccmBQqfl.s:25506  .debug_str:000000000000ee33 .LASF3013
C:\Users\CYMR90~1\AppData\Local\Temp\ccmBQqfl.s:25548  .debug_str:000000000000f06e .LASF3014
C:\Users\CYMR90~1\AppData\Local\Temp\ccmBQqfl.s:31485  .debug_str:0000000000026b8f .LASF3015
C:\Users\CYMR90~1\AppData\Local\Temp\ccmBQqfl.s:31841  .debug_str:0000000000028245 .LASF3016
C:\Users\CYMR90~1\AppData\Local\Temp\ccmBQqfl.s:27829  .debug_str:00000000000183ab .LASF3017
C:\Users\CYMR90~1\AppData\Local\Temp\ccmBQqfl.s:30607  .debug_str:00000000000233a3 .LASF3018
C:\Users\CYMR90~1\AppData\Local\Temp\ccmBQqfl.s:22146  .debug_str:000000000000162f .LASF3019
C:\Users\CYMR90~1\AppData\Local\Temp\ccmBQqfl.s:32189  .debug_str:0000000000029871 .LASF3020
C:\Users\CYMR90~1\AppData\Local\Temp\ccmBQqfl.s:32439  .debug_str:000000000002a722 .LASF3021
C:\Users\CYMR90~1\AppData\Local\Temp\ccmBQqfl.s:23354  .debug_str:00000000000063e5 .LASF3022
C:\Users\CYMR90~1\AppData\Local\Temp\ccmBQqfl.s:26604  .debug_str:000000000001346a .LASF3023
C:\Users\CYMR90~1\AppData\Local\Temp\ccmBQqfl.s:25146  .debug_str:000000000000d859 .LASF3024
C:\Users\CYMR90~1\AppData\Local\Temp\ccmBQqfl.s:22332  .debug_str:0000000000002297 .LASF3025
C:\Users\CYMR90~1\AppData\Local\Temp\ccmBQqfl.s:28189  .debug_str:0000000000019a9f .LASF3026
C:\Users\CYMR90~1\AppData\Local\Temp\ccmBQqfl.s:24314  .debug_str:000000000000a19c .LASF3027
C:\Users\CYMR90~1\AppData\Local\Temp\ccmBQqfl.s:24062  .debug_str:0000000000009225 .LASF3028
C:\Users\CYMR90~1\AppData\Local\Temp\ccmBQqfl.s:24668  .debug_str:000000000000b87e .LASF3029
C:\Users\CYMR90~1\AppData\Local\Temp\ccmBQqfl.s:22892  .debug_str:00000000000046cc .LASF3030
C:\Users\CYMR90~1\AppData\Local\Temp\ccmBQqfl.s:26042  .debug_str:0000000000011068 .LASF3031
C:\Users\CYMR90~1\AppData\Local\Temp\ccmBQqfl.s:27721  .debug_str:0000000000017d45 .LASF3032
C:\Users\CYMR90~1\AppData\Local\Temp\ccmBQqfl.s:23930  .debug_str:00000000000088d8 .LASF3033
C:\Users\CYMR90~1\AppData\Local\Temp\ccmBQqfl.s:24748  .debug_str:000000000000bdfd .LASF3034
C:\Users\CYMR90~1\AppData\Local\Temp\ccmBQqfl.s:24698  .debug_str:000000000000bad8 .LASF3035
C:\Users\CYMR90~1\AppData\Local\Temp\ccmBQqfl.s:27621  .debug_str:00000000000176d8 .LASF3036
C:\Users\CYMR90~1\AppData\Local\Temp\ccmBQqfl.s:31575  .debug_str:00000000000270da .LASF3037
C:\Users\CYMR90~1\AppData\Local\Temp\ccmBQqfl.s:24416  .debug_str:000000000000a82f .LASF3038
C:\Users\CYMR90~1\AppData\Local\Temp\ccmBQqfl.s:22424  .debug_str:000000000000284e .LASF3039
C:\Users\CYMR90~1\AppData\Local\Temp\ccmBQqfl.s:29473  .debug_str:000000000001ef0f .LASF3040
C:\Users\CYMR90~1\AppData\Local\Temp\ccmBQqfl.s:22110  .debug_str:0000000000001439 .LASF3041
C:\Users\CYMR90~1\AppData\Local\Temp\ccmBQqfl.s:28009  .debug_str:0000000000018ee8 .LASF3042
C:\Users\CYMR90~1\AppData\Local\Temp\ccmBQqfl.s:22218  .debug_str:0000000000001be5 .LASF3043
C:\Users\CYMR90~1\AppData\Local\Temp\ccmBQqfl.s:33041  .debug_str:000000000002ce2c .LASF3044
C:\Users\CYMR90~1\AppData\Local\Temp\ccmBQqfl.s:27166  .debug_str:00000000000157db .LASF3045
C:\Users\CYMR90~1\AppData\Local\Temp\ccmBQqfl.s:30997  .debug_str:0000000000024b3d .LASF3046
C:\Users\CYMR90~1\AppData\Local\Temp\ccmBQqfl.s:24350  .debug_str:000000000000a3d4 .LASF3047
C:\Users\CYMR90~1\AppData\Local\Temp\ccmBQqfl.s:22246  .debug_str:0000000000001da4 .LASF3048
C:\Users\CYMR90~1\AppData\Local\Temp\ccmBQqfl.s:23376  .debug_str:0000000000006520 .LASF3049
C:\Users\CYMR90~1\AppData\Local\Temp\ccmBQqfl.s:28625  .debug_str:000000000001b8b2 .LASF3050
C:\Users\CYMR90~1\AppData\Local\Temp\ccmBQqfl.s:22822  .debug_str:000000000000421d .LASF3051
C:\Users\CYMR90~1\AppData\Local\Temp\ccmBQqfl.s:24068  .debug_str:0000000000009288 .LASF3052
C:\Users\CYMR90~1\AppData\Local\Temp\ccmBQqfl.s:23122  .debug_str:00000000000055d7 .LASF3053
C:\Users\CYMR90~1\AppData\Local\Temp\ccmBQqfl.s:32531  .debug_str:000000000002ad0a .LASF3054
C:\Users\CYMR90~1\AppData\Local\Temp\ccmBQqfl.s:24814  .debug_str:000000000000c2a9 .LASF3055
C:\Users\CYMR90~1\AppData\Local\Temp\ccmBQqfl.s:22596  .debug_str:000000000000338a .LASF3056
C:\Users\CYMR90~1\AppData\Local\Temp\ccmBQqfl.s:30461  .debug_str:0000000000022a9d .LASF3057
C:\Users\CYMR90~1\AppData\Local\Temp\ccmBQqfl.s:27078  .debug_str:000000000001528c .LASF3058
C:\Users\CYMR90~1\AppData\Local\Temp\ccmBQqfl.s:23644  .debug_str:0000000000007620 .LASF3059
C:\Users\CYMR90~1\AppData\Local\Temp\ccmBQqfl.s:28605  .debug_str:000000000001b76a .LASF3060
C:\Users\CYMR90~1\AppData\Local\Temp\ccmBQqfl.s:23264  .debug_str:0000000000005ea0 .LASF3061
C:\Users\CYMR90~1\AppData\Local\Temp\ccmBQqfl.s:24164  .debug_str:0000000000009857 .LASF3062
C:\Users\CYMR90~1\AppData\Local\Temp\ccmBQqfl.s:26448  .debug_str:0000000000012a37 .LASF3063
C:\Users\CYMR90~1\AppData\Local\Temp\ccmBQqfl.s:30479  .debug_str:0000000000022b98 .LASF3064
C:\Users\CYMR90~1\AppData\Local\Temp\ccmBQqfl.s:31825  .debug_str:000000000002811e .LASF3065
C:\Users\CYMR90~1\AppData\Local\Temp\ccmBQqfl.s:27819  .debug_str:000000000001831f .LASF3066
C:\Users\CYMR90~1\AppData\Local\Temp\ccmBQqfl.s:25666  .debug_str:000000000000f791 .LASF3067
C:\Users\CYMR90~1\AppData\Local\Temp\ccmBQqfl.s:30477  .debug_str:0000000000022b7f .LASF3068
C:\Users\CYMR90~1\AppData\Local\Temp\ccmBQqfl.s:32269  .debug_str:0000000000029d8e .LASF3069
C:\Users\CYMR90~1\AppData\Local\Temp\ccmBQqfl.s:28455  .debug_str:000000000001ad50 .LASF3070
C:\Users\CYMR90~1\AppData\Local\Temp\ccmBQqfl.s:23518  .debug_str:0000000000006dd5 .LASF3071
C:\Users\CYMR90~1\AppData\Local\Temp\ccmBQqfl.s:23128  .debug_str:000000000000561b .LASF3072
C:\Users\CYMR90~1\AppData\Local\Temp\ccmBQqfl.s:29381  .debug_str:000000000001e95f .LASF3073
C:\Users\CYMR90~1\AppData\Local\Temp\ccmBQqfl.s:25374  .debug_str:000000000000e57d .LASF3074
C:\Users\CYMR90~1\AppData\Local\Temp\ccmBQqfl.s:30675  .debug_str:0000000000023720 .LASF3075
C:\Users\CYMR90~1\AppData\Local\Temp\ccmBQqfl.s:24178  .debug_str:000000000000992f .LASF3076
C:\Users\CYMR90~1\AppData\Local\Temp\ccmBQqfl.s:31107  .debug_str:00000000000252e5 .LASF3077
C:\Users\CYMR90~1\AppData\Local\Temp\ccmBQqfl.s:30521  .debug_str:0000000000022e67 .LASF3078
C:\Users\CYMR90~1\AppData\Local\Temp\ccmBQqfl.s:27733  .debug_str:0000000000017e08 .LASF3079
C:\Users\CYMR90~1\AppData\Local\Temp\ccmBQqfl.s:32701  .debug_str:000000000002b77d .LASF3080
C:\Users\CYMR90~1\AppData\Local\Temp\ccmBQqfl.s:33007  .debug_str:000000000002cbbb .LASF3081
C:\Users\CYMR90~1\AppData\Local\Temp\ccmBQqfl.s:31417  .debug_str:0000000000026773 .LASF3082
C:\Users\CYMR90~1\AppData\Local\Temp\ccmBQqfl.s:22774  .debug_str:0000000000003ee1 .LASF3083
C:\Users\CYMR90~1\AppData\Local\Temp\ccmBQqfl.s:25594  .debug_str:000000000000f30c .LASF3084
C:\Users\CYMR90~1\AppData\Local\Temp\ccmBQqfl.s:22740  .debug_str:0000000000003cc8 .LASF3085
C:\Users\CYMR90~1\AppData\Local\Temp\ccmBQqfl.s:24506  .debug_str:000000000000ad7d .LASF3086
C:\Users\CYMR90~1\AppData\Local\Temp\ccmBQqfl.s:25976  .debug_str:0000000000010bca .LASF3087
C:\Users\CYMR90~1\AppData\Local\Temp\ccmBQqfl.s:23488  .debug_str:0000000000006bfe .LASF3088
C:\Users\CYMR90~1\AppData\Local\Temp\ccmBQqfl.s:26364  .debug_str:00000000000124ef .LASF3089
C:\Users\CYMR90~1\AppData\Local\Temp\ccmBQqfl.s:29785  .debug_str:0000000000020211 .LASF3090
C:\Users\CYMR90~1\AppData\Local\Temp\ccmBQqfl.s:23330  .debug_str:0000000000006256 .LASF3091
C:\Users\CYMR90~1\AppData\Local\Temp\ccmBQqfl.s:24422  .debug_str:000000000000a879 .LASF3092
C:\Users\CYMR90~1\AppData\Local\Temp\ccmBQqfl.s:26834  .debug_str:00000000000142d3 .LASF3093
C:\Users\CYMR90~1\AppData\Local\Temp\ccmBQqfl.s:29391  .debug_str:000000000001e9f3 .LASF3094
C:\Users\CYMR90~1\AppData\Local\Temp\ccmBQqfl.s:22930  .debug_str:000000000000497a .LASF3095
C:\Users\CYMR90~1\AppData\Local\Temp\ccmBQqfl.s:29943  .debug_str:0000000000020b2e .LASF3096
C:\Users\CYMR90~1\AppData\Local\Temp\ccmBQqfl.s:30309  .debug_str:00000000000221eb .LASF3097
C:\Users\CYMR90~1\AppData\Local\Temp\ccmBQqfl.s:24220  .debug_str:0000000000009bdc .LASF3098
C:\Users\CYMR90~1\AppData\Local\Temp\ccmBQqfl.s:23564  .debug_str:00000000000070dd .LASF3099
C:\Users\CYMR90~1\AppData\Local\Temp\ccmBQqfl.s:24084  .debug_str:0000000000009342 .LASF3100
C:\Users\CYMR90~1\AppData\Local\Temp\ccmBQqfl.s:22518  .debug_str:0000000000002eb3 .LASF3101
C:\Users\CYMR90~1\AppData\Local\Temp\ccmBQqfl.s:32857  .debug_str:000000000002c1be .LASF3102
C:\Users\CYMR90~1\AppData\Local\Temp\ccmBQqfl.s:23360  .debug_str:0000000000006438 .LASF3103
C:\Users\CYMR90~1\AppData\Local\Temp\ccmBQqfl.s:21910  .debug_str:0000000000000774 .LASF3104
C:\Users\CYMR90~1\AppData\Local\Temp\ccmBQqfl.s:22938  .debug_str:0000000000004a15 .LASF3105
C:\Users\CYMR90~1\AppData\Local\Temp\ccmBQqfl.s:30417  .debug_str:0000000000022836 .LASF3106
C:\Users\CYMR90~1\AppData\Local\Temp\ccmBQqfl.s:26438  .debug_str:0000000000012985 .LASF3107
C:\Users\CYMR90~1\AppData\Local\Temp\ccmBQqfl.s:30029  .debug_str:0000000000021094 .LASF3108
C:\Users\CYMR90~1\AppData\Local\Temp\ccmBQqfl.s:21848  .debug_str:00000000000003c6 .LASF3109
C:\Users\CYMR90~1\AppData\Local\Temp\ccmBQqfl.s:29617  .debug_str:000000000001f7be .LASF3110
C:\Users\CYMR90~1\AppData\Local\Temp\ccmBQqfl.s:28443  .debug_str:000000000001ac8e .LASF3111
C:\Users\CYMR90~1\AppData\Local\Temp\ccmBQqfl.s:24008  .debug_str:0000000000008e64 .LASF3112
C:\Users\CYMR90~1\AppData\Local\Temp\ccmBQqfl.s:28951  .debug_str:000000000001cd34 .LASF3113
C:\Users\CYMR90~1\AppData\Local\Temp\ccmBQqfl.s:27799  .debug_str:0000000000018204 .LASF3114
C:\Users\CYMR90~1\AppData\Local\Temp\ccmBQqfl.s:26322  .debug_str:00000000000121d6 .LASF3115
C:\Users\CYMR90~1\AppData\Local\Temp\ccmBQqfl.s:24306  .debug_str:000000000000a109 .LASF3116
C:\Users\CYMR90~1\AppData\Local\Temp\ccmBQqfl.s:29247  .debug_str:000000000001e0bf .LASF3117
C:\Users\CYMR90~1\AppData\Local\Temp\ccmBQqfl.s:32961  .debug_str:000000000002c92d .LASF3118
C:\Users\CYMR90~1\AppData\Local\Temp\ccmBQqfl.s:28199  .debug_str:0000000000019ba5 .LASF3119
C:\Users\CYMR90~1\AppData\Local\Temp\ccmBQqfl.s:28515  .debug_str:000000000001b139 .LASF3120
C:\Users\CYMR90~1\AppData\Local\Temp\ccmBQqfl.s:31037  .debug_str:0000000000024e79 .LASF3121
C:\Users\CYMR90~1\AppData\Local\Temp\ccmBQqfl.s:32435  .debug_str:000000000002a6ef .LASF3122
C:\Users\CYMR90~1\AppData\Local\Temp\ccmBQqfl.s:26204  .debug_str:00000000000119a0 .LASF3123
C:\Users\CYMR90~1\AppData\Local\Temp\ccmBQqfl.s:29199  .debug_str:000000000001de39 .LASF3124
C:\Users\CYMR90~1\AppData\Local\Temp\ccmBQqfl.s:25274  .debug_str:000000000000dfa6 .LASF3125
C:\Users\CYMR90~1\AppData\Local\Temp\ccmBQqfl.s:32207  .debug_str:00000000000299a3 .LASF3126
C:\Users\CYMR90~1\AppData\Local\Temp\ccmBQqfl.s:23658  .debug_str:00000000000076e2 .LASF3127
C:\Users\CYMR90~1\AppData\Local\Temp\ccmBQqfl.s:32483  .debug_str:000000000002aa25 .LASF3128
C:\Users\CYMR90~1\AppData\Local\Temp\ccmBQqfl.s:31265  .debug_str:0000000000025e15 .LASF3129
C:\Users\CYMR90~1\AppData\Local\Temp\ccmBQqfl.s:22694  .debug_str:00000000000039dd .LASF3130
C:\Users\CYMR90~1\AppData\Local\Temp\ccmBQqfl.s:25908  .debug_str:0000000000010745 .LASF3131
C:\Users\CYMR90~1\AppData\Local\Temp\ccmBQqfl.s:31927  .debug_str:000000000002889c .LASF3132
C:\Users\CYMR90~1\AppData\Local\Temp\ccmBQqfl.s:26388  .debug_str:000000000001265b .LASF3133
C:\Users\CYMR90~1\AppData\Local\Temp\ccmBQqfl.s:24478  .debug_str:000000000000abd5 .LASF3134
C:\Users\CYMR90~1\AppData\Local\Temp\ccmBQqfl.s:32759  .debug_str:000000000002bb41 .LASF3135
C:\Users\CYMR90~1\AppData\Local\Temp\ccmBQqfl.s:24570  .debug_str:000000000000b245 .LASF3136
C:\Users\CYMR90~1\AppData\Local\Temp\ccmBQqfl.s:32775  .debug_str:000000000002bc47 .LASF3137
C:\Users\CYMR90~1\AppData\Local\Temp\ccmBQqfl.s:32511  .debug_str:000000000002abd6 .LASF3138
C:\Users\CYMR90~1\AppData\Local\Temp\ccmBQqfl.s:28001  .debug_str:0000000000018e47 .LASF3139
C:\Users\CYMR90~1\AppData\Local\Temp\ccmBQqfl.s:32551  .debug_str:000000000002ae1c .LASF3140
C:\Users\CYMR90~1\AppData\Local\Temp\ccmBQqfl.s:30137  .debug_str:00000000000216ca .LASF3141
C:\Users\CYMR90~1\AppData\Local\Temp\ccmBQqfl.s:31505  .debug_str:0000000000026ce3 .LASF3142
C:\Users\CYMR90~1\AppData\Local\Temp\ccmBQqfl.s:25126  .debug_str:000000000000d6e3 .LASF3143
C:\Users\CYMR90~1\AppData\Local\Temp\ccmBQqfl.s:30885  .debug_str:00000000000243d5 .LASF3144
C:\Users\CYMR90~1\AppData\Local\Temp\ccmBQqfl.s:26962  .debug_str:0000000000014b18 .LASF3145
C:\Users\CYMR90~1\AppData\Local\Temp\ccmBQqfl.s:25802  .debug_str:000000000001006a .LASF3146
C:\Users\CYMR90~1\AppData\Local\Temp\ccmBQqfl.s:28939  .debug_str:000000000001cbc5 .LASF3147
C:\Users\CYMR90~1\AppData\Local\Temp\ccmBQqfl.s:31763  .debug_str:0000000000027ce1 .LASF3148
C:\Users\CYMR90~1\AppData\Local\Temp\ccmBQqfl.s:22716  .debug_str:0000000000003b34 .LASF3149
C:\Users\CYMR90~1\AppData\Local\Temp\ccmBQqfl.s:29179  .debug_str:000000000001dcc9 .LASF3150
C:\Users\CYMR90~1\AppData\Local\Temp\ccmBQqfl.s:31937  .debug_str:0000000000028940 .LASF3151
C:\Users\CYMR90~1\AppData\Local\Temp\ccmBQqfl.s:23974  .debug_str:0000000000008c64 .LASF3152
C:\Users\CYMR90~1\AppData\Local\Temp\ccmBQqfl.s:30387  .debug_str:0000000000022665 .LASF3153
C:\Users\CYMR90~1\AppData\Local\Temp\ccmBQqfl.s:27144  .debug_str:00000000000156a0 .LASF3154
C:\Users\CYMR90~1\AppData\Local\Temp\ccmBQqfl.s:24064  .debug_str:0000000000009249 .LASF3155
C:\Users\CYMR90~1\AppData\Local\Temp\ccmBQqfl.s:29083  .debug_str:000000000001d6b8 .LASF3156
C:\Users\CYMR90~1\AppData\Local\Temp\ccmBQqfl.s:26532  .debug_str:0000000000012fa8 .LASF3157
C:\Users\CYMR90~1\AppData\Local\Temp\ccmBQqfl.s:24548  .debug_str:000000000000b00d .LASF3158
C:\Users\CYMR90~1\AppData\Local\Temp\ccmBQqfl.s:29013  .debug_str:000000000001d142 .LASF3159
C:\Users\CYMR90~1\AppData\Local\Temp\ccmBQqfl.s:31129  .debug_str:0000000000025439 .LASF3160
C:\Users\CYMR90~1\AppData\Local\Temp\ccmBQqfl.s:23014  .debug_str:0000000000004f41 .LASF3161
C:\Users\CYMR90~1\AppData\Local\Temp\ccmBQqfl.s:32451  .debug_str:000000000002a808 .LASF3162
C:\Users\CYMR90~1\AppData\Local\Temp\ccmBQqfl.s:28253  .debug_str:0000000000019f2d .LASF3163
C:\Users\CYMR90~1\AppData\Local\Temp\ccmBQqfl.s:28295  .debug_str:000000000001a193 .LASF3164
C:\Users\CYMR90~1\AppData\Local\Temp\ccmBQqfl.s:28303  .debug_str:000000000001a224 .LASF3165
C:\Users\CYMR90~1\AppData\Local\Temp\ccmBQqfl.s:31621  .debug_str:00000000000273d3 .LASF3166
C:\Users\CYMR90~1\AppData\Local\Temp\ccmBQqfl.s:26418  .debug_str:000000000001282d .LASF3167
C:\Users\CYMR90~1\AppData\Local\Temp\ccmBQqfl.s:32421  .debug_str:000000000002a63a .LASF3168
C:\Users\CYMR90~1\AppData\Local\Temp\ccmBQqfl.s:27965  .debug_str:0000000000018be4 .LASF3169
C:\Users\CYMR90~1\AppData\Local\Temp\ccmBQqfl.s:31699  .debug_str:000000000002794b .LASF3170
C:\Users\CYMR90~1\AppData\Local\Temp\ccmBQqfl.s:22910  .debug_str:00000000000047fa .LASF3171
C:\Users\CYMR90~1\AppData\Local\Temp\ccmBQqfl.s:26010  .debug_str:0000000000010de5 .LASF3172
C:\Users\CYMR90~1\AppData\Local\Temp\ccmBQqfl.s:29363  .debug_str:000000000001e840 .LASF3173
C:\Users\CYMR90~1\AppData\Local\Temp\ccmBQqfl.s:26348  .debug_str:00000000000123c1 .LASF3174
C:\Users\CYMR90~1\AppData\Local\Temp\ccmBQqfl.s:25754  .debug_str:000000000000fd4a .LASF3175
C:\Users\CYMR90~1\AppData\Local\Temp\ccmBQqfl.s:26530  .debug_str:0000000000012f6f .LASF3176
C:\Users\CYMR90~1\AppData\Local\Temp\ccmBQqfl.s:30615  .debug_str:00000000000233f9 .LASF3177
C:\Users\CYMR90~1\AppData\Local\Temp\ccmBQqfl.s:27332  .debug_str:000000000001626d .LASF3178
C:\Users\CYMR90~1\AppData\Local\Temp\ccmBQqfl.s:30481  .debug_str:0000000000022bb6 .LASF3179
C:\Users\CYMR90~1\AppData\Local\Temp\ccmBQqfl.s:24768  .debug_str:000000000000bf4e .LASF3180
C:\Users\CYMR90~1\AppData\Local\Temp\ccmBQqfl.s:23762  .debug_str:0000000000007d66 .LASF3181
C:\Users\CYMR90~1\AppData\Local\Temp\ccmBQqfl.s:23066  .debug_str:0000000000005254 .LASF3182
C:\Users\CYMR90~1\AppData\Local\Temp\ccmBQqfl.s:26482  .debug_str:0000000000012c78 .LASF3183
C:\Users\CYMR90~1\AppData\Local\Temp\ccmBQqfl.s:22070  .debug_str:00000000000011da .LASF3184
C:\Users\CYMR90~1\AppData\Local\Temp\ccmBQqfl.s:22160  .debug_str:0000000000001792 .LASF3185
C:\Users\CYMR90~1\AppData\Local\Temp\ccmBQqfl.s:31887  .debug_str:0000000000028589 .LASF3186
C:\Users\CYMR90~1\AppData\Local\Temp\ccmBQqfl.s:28583  .debug_str:000000000001b5cf .LASF3187
C:\Users\CYMR90~1\AppData\Local\Temp\ccmBQqfl.s:25044  .debug_str:000000000000d10d .LASF3188
C:\Users\CYMR90~1\AppData\Local\Temp\ccmBQqfl.s:26924  .debug_str:000000000001485f .LASF3189
C:\Users\CYMR90~1\AppData\Local\Temp\ccmBQqfl.s:22212  .debug_str:0000000000001b8b .LASF3190
C:\Users\CYMR90~1\AppData\Local\Temp\ccmBQqfl.s:25752  .debug_str:000000000000fd31 .LASF3191
C:\Users\CYMR90~1\AppData\Local\Temp\ccmBQqfl.s:29417  .debug_str:000000000001eb82 .LASF3192
C:\Users\CYMR90~1\AppData\Local\Temp\ccmBQqfl.s:24856  .debug_str:000000000000c524 .LASF3193
C:\Users\CYMR90~1\AppData\Local\Temp\ccmBQqfl.s:24420  .debug_str:000000000000a856 .LASF3194
C:\Users\CYMR90~1\AppData\Local\Temp\ccmBQqfl.s:27390  .debug_str:0000000000016617 .LASF3195
C:\Users\CYMR90~1\AppData\Local\Temp\ccmBQqfl.s:28355  .debug_str:000000000001a526 .LASF3196
C:\Users\CYMR90~1\AppData\Local\Temp\ccmBQqfl.s:29681  .debug_str:000000000001fbc0 .LASF3197
C:\Users\CYMR90~1\AppData\Local\Temp\ccmBQqfl.s:25832  .debug_str:000000000001027d .LASF3198
C:\Users\CYMR90~1\AppData\Local\Temp\ccmBQqfl.s:33035  .debug_str:000000000002cdbc .LASF3199
C:\Users\CYMR90~1\AppData\Local\Temp\ccmBQqfl.s:27723  .debug_str:0000000000017d5c .LASF3200
C:\Users\CYMR90~1\AppData\Local\Temp\ccmBQqfl.s:30415  .debug_str:0000000000022812 .LASF3201
C:\Users\CYMR90~1\AppData\Local\Temp\ccmBQqfl.s:24736  .debug_str:000000000000bd59 .LASF3202
C:\Users\CYMR90~1\AppData\Local\Temp\ccmBQqfl.s:30689  .debug_str:00000000000237fe .LASF3203
C:\Users\CYMR90~1\AppData\Local\Temp\ccmBQqfl.s:26800  .debug_str:00000000000140c8 .LASF3204
C:\Users\CYMR90~1\AppData\Local\Temp\ccmBQqfl.s:29573  .debug_str:000000000001f4cf .LASF3205
C:\Users\CYMR90~1\AppData\Local\Temp\ccmBQqfl.s:25580  .debug_str:000000000000f24e .LASF3206
C:\Users\CYMR90~1\AppData\Local\Temp\ccmBQqfl.s:32415  .debug_str:000000000002a5e0 .LASF3207
C:\Users\CYMR90~1\AppData\Local\Temp\ccmBQqfl.s:24248  .debug_str:0000000000009db3 .LASF3208
C:\Users\CYMR90~1\AppData\Local\Temp\ccmBQqfl.s:32019  .debug_str:0000000000028e94 .LASF3209
C:\Users\CYMR90~1\AppData\Local\Temp\ccmBQqfl.s:27094  .debug_str:00000000000153b6 .LASF3210
C:\Users\CYMR90~1\AppData\Local\Temp\ccmBQqfl.s:26232  .debug_str:0000000000011bf8 .LASF3211
C:\Users\CYMR90~1\AppData\Local\Temp\ccmBQqfl.s:24108  .debug_str:00000000000094be .LASF3212
C:\Users\CYMR90~1\AppData\Local\Temp\ccmBQqfl.s:23686  .debug_str:0000000000007896 .LASF3213
C:\Users\CYMR90~1\AppData\Local\Temp\ccmBQqfl.s:33153  .debug_str:000000000002d56d .LASF3214
C:\Users\CYMR90~1\AppData\Local\Temp\ccmBQqfl.s:22866  .debug_str:0000000000004518 .LASF3215
C:\Users\CYMR90~1\AppData\Local\Temp\ccmBQqfl.s:32675  .debug_str:000000000002b589 .LASF3216
C:\Users\CYMR90~1\AppData\Local\Temp\ccmBQqfl.s:25190  .debug_str:000000000000dace .LASF3217
C:\Users\CYMR90~1\AppData\Local\Temp\ccmBQqfl.s:27889  .debug_str:000000000001874c .LASF3218
C:\Users\CYMR90~1\AppData\Local\Temp\ccmBQqfl.s:29555  .debug_str:000000000001f3f1 .LASF3219
C:\Users\CYMR90~1\AppData\Local\Temp\ccmBQqfl.s:30701  .debug_str:0000000000023895 .LASF3220
C:\Users\CYMR90~1\AppData\Local\Temp\ccmBQqfl.s:22080  .debug_str:0000000000001273 .LASF3221
C:\Users\CYMR90~1\AppData\Local\Temp\ccmBQqfl.s:23028  .debug_str:0000000000005039 .LASF3222
C:\Users\CYMR90~1\AppData\Local\Temp\ccmBQqfl.s:30569  .debug_str:00000000000230ff .LASF3223
C:\Users\CYMR90~1\AppData\Local\Temp\ccmBQqfl.s:23282  .debug_str:0000000000005f9c .LASF3224
C:\Users\CYMR90~1\AppData\Local\Temp\ccmBQqfl.s:30873  .debug_str:0000000000024341 .LASF3225
C:\Users\CYMR90~1\AppData\Local\Temp\ccmBQqfl.s:31295  .debug_str:0000000000026009 .LASF3226
C:\Users\CYMR90~1\AppData\Local\Temp\ccmBQqfl.s:30019  .debug_str:000000000002101b .LASF3227
C:\Users\CYMR90~1\AppData\Local\Temp\ccmBQqfl.s:27234  .debug_str:0000000000015bda .LASF3228
C:\Users\CYMR90~1\AppData\Local\Temp\ccmBQqfl.s:26984  .debug_str:0000000000014c5c .LASF3229
C:\Users\CYMR90~1\AppData\Local\Temp\ccmBQqfl.s:27713  .debug_str:0000000000017cb2 .LASF3230
C:\Users\CYMR90~1\AppData\Local\Temp\ccmBQqfl.s:29909  .debug_str:0000000000020909 .LASF3231
C:\Users\CYMR90~1\AppData\Local\Temp\ccmBQqfl.s:23652  .debug_str:00000000000076a0 .LASF3232
C:\Users\CYMR90~1\AppData\Local\Temp\ccmBQqfl.s:21842  .debug_str:000000000000036d .LASF3233
C:\Users\CYMR90~1\AppData\Local\Temp\ccmBQqfl.s:32043  .debug_str:0000000000029016 .LASF3234
C:\Users\CYMR90~1\AppData\Local\Temp\ccmBQqfl.s:21974  .debug_str:0000000000000bc0 .LASF3235
C:\Users\CYMR90~1\AppData\Local\Temp\ccmBQqfl.s:30393  .debug_str:00000000000226d9 .LASF3236
C:\Users\CYMR90~1\AppData\Local\Temp\ccmBQqfl.s:31445  .debug_str:0000000000026904 .LASF3237
C:\Users\CYMR90~1\AppData\Local\Temp\ccmBQqfl.s:26782  .debug_str:0000000000013fb4 .LASF3238
C:\Users\CYMR90~1\AppData\Local\Temp\ccmBQqfl.s:25068  .debug_str:000000000000d29b .LASF3239
C:\Users\CYMR90~1\AppData\Local\Temp\ccmBQqfl.s:30691  .debug_str:0000000000023824 .LASF3240
C:\Users\CYMR90~1\AppData\Local\Temp\ccmBQqfl.s:28635  .debug_str:000000000001b96c .LASF3241
C:\Users\CYMR90~1\AppData\Local\Temp\ccmBQqfl.s:31489  .debug_str:0000000000026bd6 .LASF3242
C:\Users\CYMR90~1\AppData\Local\Temp\ccmBQqfl.s:31127  .debug_str:000000000002541b .LASF3243
C:\Users\CYMR90~1\AppData\Local\Temp\ccmBQqfl.s:25718  .debug_str:000000000000fb5c .LASF3244
C:\Users\CYMR90~1\AppData\Local\Temp\ccmBQqfl.s:30613  .debug_str:00000000000233dd .LASF3245
C:\Users\CYMR90~1\AppData\Local\Temp\ccmBQqfl.s:26622  .debug_str:00000000000135b3 .LASF3246
C:\Users\CYMR90~1\AppData\Local\Temp\ccmBQqfl.s:29127  .debug_str:000000000001d95a .LASF3247
C:\Users\CYMR90~1\AppData\Local\Temp\ccmBQqfl.s:31805  .debug_str:0000000000027fc7 .LASF3248
C:\Users\CYMR90~1\AppData\Local\Temp\ccmBQqfl.s:33073  .debug_str:000000000002d02d .LASF3249
C:\Users\CYMR90~1\AppData\Local\Temp\ccmBQqfl.s:22228  .debug_str:0000000000001c72 .LASF3250
C:\Users\CYMR90~1\AppData\Local\Temp\ccmBQqfl.s:22790  .debug_str:0000000000003fee .LASF3251
C:\Users\CYMR90~1\AppData\Local\Temp\ccmBQqfl.s:32749  .debug_str:000000000002ba83 .LASF3252
C:\Users\CYMR90~1\AppData\Local\Temp\ccmBQqfl.s:31103  .debug_str:00000000000252a9 .LASF3253
C:\Users\CYMR90~1\AppData\Local\Temp\ccmBQqfl.s:26776  .debug_str:0000000000013f66 .LASF3254
C:\Users\CYMR90~1\AppData\Local\Temp\ccmBQqfl.s:23058  .debug_str:00000000000051f4 .LASF3255
C:\Users\CYMR90~1\AppData\Local\Temp\ccmBQqfl.s:29831  .debug_str:00000000000204d7 .LASF3256
C:\Users\CYMR90~1\AppData\Local\Temp\ccmBQqfl.s:23260  .debug_str:0000000000005e60 .LASF3257
C:\Users\CYMR90~1\AppData\Local\Temp\ccmBQqfl.s:24678  .debug_str:000000000000b938 .LASF3258
C:\Users\CYMR90~1\AppData\Local\Temp\ccmBQqfl.s:23198  .debug_str:0000000000005a97 .LASF3259
C:\Users\CYMR90~1\AppData\Local\Temp\ccmBQqfl.s:26340  .debug_str:000000000001232a .LASF3260
C:\Users\CYMR90~1\AppData\Local\Temp\ccmBQqfl.s:31795  .debug_str:0000000000027f2a .LASF3261
C:\Users\CYMR90~1\AppData\Local\Temp\ccmBQqfl.s:28145  .debug_str:00000000000197d3 .LASF3262
C:\Users\CYMR90~1\AppData\Local\Temp\ccmBQqfl.s:26922  .debug_str:0000000000014824 .LASF3263
C:\Users\CYMR90~1\AppData\Local\Temp\ccmBQqfl.s:33103  .debug_str:000000000002d25e .LASF3264
C:\Users\CYMR90~1\AppData\Local\Temp\ccmBQqfl.s:29651  .debug_str:000000000001f9c2 .LASF3265
C:\Users\CYMR90~1\AppData\Local\Temp\ccmBQqfl.s:26270  .debug_str:0000000000011ebf .LASF3266
C:\Users\CYMR90~1\AppData\Local\Temp\ccmBQqfl.s:23382  .debug_str:000000000000655d .LASF3267
C:\Users\CYMR90~1\AppData\Local\Temp\ccmBQqfl.s:30745  .debug_str:0000000000023b4b .LASF3268
C:\Users\CYMR90~1\AppData\Local\Temp\ccmBQqfl.s:27284  .debug_str:0000000000015f0e .LASF3269
C:\Users\CYMR90~1\AppData\Local\Temp\ccmBQqfl.s:23892  .debug_str:00000000000086bc .LASF3270
C:\Users\CYMR90~1\AppData\Local\Temp\ccmBQqfl.s:27835  .debug_str:00000000000183de .LASF3271
C:\Users\CYMR90~1\AppData\Local\Temp\ccmBQqfl.s:32811  .debug_str:000000000002bee0 .LASF3272
C:\Users\CYMR90~1\AppData\Local\Temp\ccmBQqfl.s:31369  .debug_str:0000000000026460 .LASF3273
C:\Users\CYMR90~1\AppData\Local\Temp\ccmBQqfl.s:22182  .debug_str:00000000000019c0 .LASF3274
C:\Users\CYMR90~1\AppData\Local\Temp\ccmBQqfl.s:23234  .debug_str:0000000000005c95 .LASF3275
C:\Users\CYMR90~1\AppData\Local\Temp\ccmBQqfl.s:29425  .debug_str:000000000001ebce .LASF3276
C:\Users\CYMR90~1\AppData\Local\Temp\ccmBQqfl.s:29659  .debug_str:000000000001fa40 .LASF3277
C:\Users\CYMR90~1\AppData\Local\Temp\ccmBQqfl.s:30791  .debug_str:0000000000023e8e .LASF3278
C:\Users\CYMR90~1\AppData\Local\Temp\ccmBQqfl.s:22178  .debug_str:0000000000001979 .LASF3279
C:\Users\CYMR90~1\AppData\Local\Temp\ccmBQqfl.s:27947  .debug_str:0000000000018aaa .LASF3280
C:\Users\CYMR90~1\AppData\Local\Temp\ccmBQqfl.s:33055  .debug_str:000000000002cf10 .LASF3281
C:\Users\CYMR90~1\AppData\Local\Temp\ccmBQqfl.s:24646  .debug_str:000000000000b669 .LASF3282
C:\Users\CYMR90~1\AppData\Local\Temp\ccmBQqfl.s:27817  .debug_str:00000000000182ff .LASF3283
C:\Users\CYMR90~1\AppData\Local\Temp\ccmBQqfl.s:22112  .debug_str:000000000000144c .LASF3284
C:\Users\CYMR90~1\AppData\Local\Temp\ccmBQqfl.s:28899  .debug_str:000000000001c96e .LASF3285
C:\Users\CYMR90~1\AppData\Local\Temp\ccmBQqfl.s:24864  .debug_str:000000000000c59a .LASF3286
C:\Users\CYMR90~1\AppData\Local\Temp\ccmBQqfl.s:25130  .debug_str:000000000000d72e .LASF3287
C:\Users\CYMR90~1\AppData\Local\Temp\ccmBQqfl.s:32807  .debug_str:000000000002be95 .LASF3288
C:\Users\CYMR90~1\AppData\Local\Temp\ccmBQqfl.s:29859  .debug_str:000000000002066f .LASF3289
C:\Users\CYMR90~1\AppData\Local\Temp\ccmBQqfl.s:25608  .debug_str:000000000000f403 .LASF3290
C:\Users\CYMR90~1\AppData\Local\Temp\ccmBQqfl.s:31293  .debug_str:0000000000025fe1 .LASF3291
C:\Users\CYMR90~1\AppData\Local\Temp\ccmBQqfl.s:30243  .debug_str:0000000000021dd8 .LASF3292
C:\Users\CYMR90~1\AppData\Local\Temp\ccmBQqfl.s:25872  .debug_str:0000000000010523 .LASF3293
C:\Users\CYMR90~1\AppData\Local\Temp\ccmBQqfl.s:29857  .debug_str:0000000000020648 .LASF3294
C:\Users\CYMR90~1\AppData\Local\Temp\ccmBQqfl.s:26932  .debug_str:0000000000014913 .LASF3295
C:\Users\CYMR90~1\AppData\Local\Temp\ccmBQqfl.s:32685  .debug_str:000000000002b661 .LASF3296
C:\Users\CYMR90~1\AppData\Local\Temp\ccmBQqfl.s:21856  .debug_str:0000000000000430 .LASF3297
C:\Users\CYMR90~1\AppData\Local\Temp\ccmBQqfl.s:29887  .debug_str:00000000000207de .LASF3298
C:\Users\CYMR90~1\AppData\Local\Temp\ccmBQqfl.s:31423  .debug_str:00000000000267d2 .LASF3299
C:\Users\CYMR90~1\AppData\Local\Temp\ccmBQqfl.s:33105  .debug_str:000000000002d285 .LASF3300
C:\Users\CYMR90~1\AppData\Local\Temp\ccmBQqfl.s:24286  .debug_str:0000000000009ff0 .LASF3301
C:\Users\CYMR90~1\AppData\Local\Temp\ccmBQqfl.s:28183  .debug_str:0000000000019a03 .LASF3302
C:\Users\CYMR90~1\AppData\Local\Temp\ccmBQqfl.s:25586  .debug_str:000000000000f294 .LASF3303
C:\Users\CYMR90~1\AppData\Local\Temp\ccmBQqfl.s:29571  .debug_str:000000000001f4b1 .LASF3304
C:\Users\CYMR90~1\AppData\Local\Temp\ccmBQqfl.s:27999  .debug_str:0000000000018e28 .LASF3305
C:\Users\CYMR90~1\AppData\Local\Temp\ccmBQqfl.s:32613  .debug_str:000000000002b1f9 .LASF3306
C:\Users\CYMR90~1\AppData\Local\Temp\ccmBQqfl.s:28777  .debug_str:000000000001c1ea .LASF3307
C:\Users\CYMR90~1\AppData\Local\Temp\ccmBQqfl.s:22778  .debug_str:0000000000003f2f .LASF3308
C:\Users\CYMR90~1\AppData\Local\Temp\ccmBQqfl.s:24560  .debug_str:000000000000b103 .LASF3309
C:\Users\CYMR90~1\AppData\Local\Temp\ccmBQqfl.s:25604  .debug_str:000000000000f3b5 .LASF3310
C:\Users\CYMR90~1\AppData\Local\Temp\ccmBQqfl.s:30323  .debug_str:00000000000222b6 .LASF3311
C:\Users\CYMR90~1\AppData\Local\Temp\ccmBQqfl.s:28907  .debug_str:000000000001c9d6 .LASF3312
C:\Users\CYMR90~1\AppData\Local\Temp\ccmBQqfl.s:29325  .debug_str:000000000001e609 .LASF3313
C:\Users\CYMR90~1\AppData\Local\Temp\ccmBQqfl.s:28533  .debug_str:000000000001b250 .LASF3314
C:\Users\CYMR90~1\AppData\Local\Temp\ccmBQqfl.s:30345  .debug_str:0000000000022421 .LASF3315
C:\Users\CYMR90~1\AppData\Local\Temp\ccmBQqfl.s:24526  .debug_str:000000000000aebf .LASF3316
C:\Users\CYMR90~1\AppData\Local\Temp\ccmBQqfl.s:26896  .debug_str:000000000001468b .LASF3317
C:\Users\CYMR90~1\AppData\Local\Temp\ccmBQqfl.s:23332  .debug_str:0000000000006272 .LASF3318
C:\Users\CYMR90~1\AppData\Local\Temp\ccmBQqfl.s:30073  .debug_str:000000000002134a .LASF3319
C:\Users\CYMR90~1\AppData\Local\Temp\ccmBQqfl.s:26518  .debug_str:0000000000012eaf .LASF3320
C:\Users\CYMR90~1\AppData\Local\Temp\ccmBQqfl.s:28609  .debug_str:000000000001b7a4 .LASF3321
C:\Users\CYMR90~1\AppData\Local\Temp\ccmBQqfl.s:28471  .debug_str:000000000001ae64 .LASF3322
C:\Users\CYMR90~1\AppData\Local\Temp\ccmBQqfl.s:23078  .debug_str:000000000000532d .LASF3323
C:\Users\CYMR90~1\AppData\Local\Temp\ccmBQqfl.s:29935  .debug_str:0000000000020a91 .LASF3324
C:\Users\CYMR90~1\AppData\Local\Temp\ccmBQqfl.s:26588  .debug_str:000000000001334d .LASF3325
C:\Users\CYMR90~1\AppData\Local\Temp\ccmBQqfl.s:24396  .debug_str:000000000000a700 .LASF3326
C:\Users\CYMR90~1\AppData\Local\Temp\ccmBQqfl.s:28941  .debug_str:000000000001cbea .LASF3327
C:\Users\CYMR90~1\AppData\Local\Temp\ccmBQqfl.s:23594  .debug_str:00000000000072c1 .LASF3328
C:\Users\CYMR90~1\AppData\Local\Temp\ccmBQqfl.s:31615  .debug_str:000000000002736f .LASF3329
C:\Users\CYMR90~1\AppData\Local\Temp\ccmBQqfl.s:22994  .debug_str:0000000000004dff .LASF3330
C:\Users\CYMR90~1\AppData\Local\Temp\ccmBQqfl.s:29989  .debug_str:0000000000020e2e .LASF3331
C:\Users\CYMR90~1\AppData\Local\Temp\ccmBQqfl.s:22294  .debug_str:0000000000002075 .LASF3332
C:\Users\CYMR90~1\AppData\Local\Temp\ccmBQqfl.s:27893  .debug_str:0000000000018783 .LASF3333
C:\Users\CYMR90~1\AppData\Local\Temp\ccmBQqfl.s:27609  .debug_str:0000000000017649 .LASF3334
C:\Users\CYMR90~1\AppData\Local\Temp\ccmBQqfl.s:27807  .debug_str:0000000000018281 .LASF3335
C:\Users\CYMR90~1\AppData\Local\Temp\ccmBQqfl.s:25288  .debug_str:000000000000e0b8 .LASF3336
C:\Users\CYMR90~1\AppData\Local\Temp\ccmBQqfl.s:30067  .debug_str:00000000000212f4 .LASF3337
C:\Users\CYMR90~1\AppData\Local\Temp\ccmBQqfl.s:30935  .debug_str:000000000002473b .LASF3338
C:\Users\CYMR90~1\AppData\Local\Temp\ccmBQqfl.s:31807  .debug_str:0000000000027fde .LASF3339
C:\Users\CYMR90~1\AppData\Local\Temp\ccmBQqfl.s:30195  .debug_str:0000000000021ad6 .LASF3340
C:\Users\CYMR90~1\AppData\Local\Temp\ccmBQqfl.s:31447  .debug_str:000000000002691d .LASF3341
C:\Users\CYMR90~1\AppData\Local\Temp\ccmBQqfl.s:23612  .debug_str:000000000000741c .LASF3342
C:\Users\CYMR90~1\AppData\Local\Temp\ccmBQqfl.s:28669  .debug_str:000000000001bb65 .LASF3343
C:\Users\CYMR90~1\AppData\Local\Temp\ccmBQqfl.s:22386  .debug_str:000000000000259b .LASF3344
C:\Users\CYMR90~1\AppData\Local\Temp\ccmBQqfl.s:31203  .debug_str:00000000000259a6 .LASF3345
C:\Users\CYMR90~1\AppData\Local\Temp\ccmBQqfl.s:24870  .debug_str:000000000000c619 .LASF3346
C:\Users\CYMR90~1\AppData\Local\Temp\ccmBQqfl.s:27362  .debug_str:0000000000016471 .LASF3347
C:\Users\CYMR90~1\AppData\Local\Temp\ccmBQqfl.s:31647  .debug_str:0000000000027540 .LASF3348
C:\Users\CYMR90~1\AppData\Local\Temp\ccmBQqfl.s:24514  .debug_str:000000000000ae00 .LASF3349
C:\Users\CYMR90~1\AppData\Local\Temp\ccmBQqfl.s:25364  .debug_str:000000000000e4f7 .LASF3350
C:\Users\CYMR90~1\AppData\Local\Temp\ccmBQqfl.s:22998  .debug_str:0000000000004e4e .LASF3351
C:\Users\CYMR90~1\AppData\Local\Temp\ccmBQqfl.s:21966  .debug_str:0000000000000b1c .LASF3352
C:\Users\CYMR90~1\AppData\Local\Temp\ccmBQqfl.s:30357  .debug_str:00000000000224d0 .LASF3353
C:\Users\CYMR90~1\AppData\Local\Temp\ccmBQqfl.s:24532  .debug_str:000000000000af14 .LASF3354
C:\Users\CYMR90~1\AppData\Local\Temp\ccmBQqfl.s:22686  .debug_str:000000000000393d .LASF3355
C:\Users\CYMR90~1\AppData\Local\Temp\ccmBQqfl.s:23748  .debug_str:0000000000007cb5 .LASF3356
C:\Users\CYMR90~1\AppData\Local\Temp\ccmBQqfl.s:27911  .debug_str:00000000000188c7 .LASF3357
C:\Users\CYMR90~1\AppData\Local\Temp\ccmBQqfl.s:27384  .debug_str:00000000000165be .LASF3358
C:\Users\CYMR90~1\AppData\Local\Temp\ccmBQqfl.s:26576  .debug_str:0000000000013281 .LASF3359
C:\Users\CYMR90~1\AppData\Local\Temp\ccmBQqfl.s:28259  .debug_str:0000000000019f91 .LASF3360
C:\Users\CYMR90~1\AppData\Local\Temp\ccmBQqfl.s:32577  .debug_str:000000000002afcb .LASF3361
C:\Users\CYMR90~1\AppData\Local\Temp\ccmBQqfl.s:27454  .debug_str:0000000000016a49 .LASF3362
C:\Users\CYMR90~1\AppData\Local\Temp\ccmBQqfl.s:26500  .debug_str:0000000000012da9 .LASF3363
C:\Users\CYMR90~1\AppData\Local\Temp\ccmBQqfl.s:28557  .debug_str:000000000001b40d .LASF3364
C:\Users\CYMR90~1\AppData\Local\Temp\ccmBQqfl.s:31477  .debug_str:0000000000026b0c .LASF3365
C:\Users\CYMR90~1\AppData\Local\Temp\ccmBQqfl.s:23826  .debug_str:0000000000008297 .LASF3366
C:\Users\CYMR90~1\AppData\Local\Temp\ccmBQqfl.s:22504  .debug_str:0000000000002db1 .LASF3367
C:\Users\CYMR90~1\AppData\Local\Temp\ccmBQqfl.s:30281  .debug_str:0000000000022005 .LASF3368
C:\Users\CYMR90~1\AppData\Local\Temp\ccmBQqfl.s:29607  .debug_str:000000000001f72a .LASF3369
C:\Users\CYMR90~1\AppData\Local\Temp\ccmBQqfl.s:29901  .debug_str:000000000002089d .LASF3370
C:\Users\CYMR90~1\AppData\Local\Temp\ccmBQqfl.s:30443  .debug_str:00000000000229a1 .LASF3371
C:\Users\CYMR90~1\AppData\Local\Temp\ccmBQqfl.s:26008  .debug_str:0000000000010dcd .LASF3372
C:\Users\CYMR90~1\AppData\Local\Temp\ccmBQqfl.s:23540  .debug_str:0000000000006f3f .LASF3373
C:\Users\CYMR90~1\AppData\Local\Temp\ccmBQqfl.s:32733  .debug_str:000000000002b9ab .LASF3374
C:\Users\CYMR90~1\AppData\Local\Temp\ccmBQqfl.s:32565  .debug_str:000000000002aef2 .LASF3375
C:\Users\CYMR90~1\AppData\Local\Temp\ccmBQqfl.s:29275  .debug_str:000000000001e2fc .LASF3376
C:\Users\CYMR90~1\AppData\Local\Temp\ccmBQqfl.s:21948  .debug_str:000000000000099a .LASF3377
C:\Users\CYMR90~1\AppData\Local\Temp\ccmBQqfl.s:31581  .debug_str:0000000000027124 .LASF3378
C:\Users\CYMR90~1\AppData\Local\Temp\ccmBQqfl.s:25788  .debug_str:000000000000ff85 .LASF3379
C:\Users\CYMR90~1\AppData\Local\Temp\ccmBQqfl.s:33045  .debug_str:000000000002ce59 .LASF3380
C:\Users\CYMR90~1\AppData\Local\Temp\ccmBQqfl.s:28081  .debug_str:0000000000019406 .LASF3381
C:\Users\CYMR90~1\AppData\Local\Temp\ccmBQqfl.s:32673  .debug_str:000000000002b56f .LASF3382
C:\Users\CYMR90~1\AppData\Local\Temp\ccmBQqfl.s:28121  .debug_str:000000000001964d .LASF3383
C:\Users\CYMR90~1\AppData\Local\Temp\ccmBQqfl.s:30429  .debug_str:00000000000228f5 .LASF3384
C:\Users\CYMR90~1\AppData\Local\Temp\ccmBQqfl.s:26830  .debug_str:0000000000014286 .LASF3385
C:\Users\CYMR90~1\AppData\Local\Temp\ccmBQqfl.s:24966  .debug_str:000000000000cc8b .LASF3386
C:\Users\CYMR90~1\AppData\Local\Temp\ccmBQqfl.s:22566  .debug_str:000000000000317b .LASF3387
C:\Users\CYMR90~1\AppData\Local\Temp\ccmBQqfl.s:28437  .debug_str:000000000001ac3a .LASF3388
C:\Users\CYMR90~1\AppData\Local\Temp\ccmBQqfl.s:29687  .debug_str:000000000001fc2d .LASF3389
C:\Users\CYMR90~1\AppData\Local\Temp\ccmBQqfl.s:32367  .debug_str:000000000002a335 .LASF3390
C:\Users\CYMR90~1\AppData\Local\Temp\ccmBQqfl.s:31567  .debug_str:0000000000027086 .LASF3391
C:\Users\CYMR90~1\AppData\Local\Temp\ccmBQqfl.s:30491  .debug_str:0000000000022c63 .LASF3392
C:\Users\CYMR90~1\AppData\Local\Temp\ccmBQqfl.s:31147  .debug_str:0000000000025521 .LASF3393
C:\Users\CYMR90~1\AppData\Local\Temp\ccmBQqfl.s:29273  .debug_str:000000000001e2e0 .LASF3394
C:\Users\CYMR90~1\AppData\Local\Temp\ccmBQqfl.s:29335  .debug_str:000000000001e6a1 .LASF3395
C:\Users\CYMR90~1\AppData\Local\Temp\ccmBQqfl.s:28343  .debug_str:000000000001a473 .LASF3396
C:\Users\CYMR90~1\AppData\Local\Temp\ccmBQqfl.s:21850  .debug_str:00000000000003e3 .LASF3397
C:\Users\CYMR90~1\AppData\Local\Temp\ccmBQqfl.s:27699  .debug_str:0000000000017b9e .LASF3398
C:\Users\CYMR90~1\AppData\Local\Temp\ccmBQqfl.s:31337  .debug_str:0000000000026288 .LASF3399
C:\Users\CYMR90~1\AppData\Local\Temp\ccmBQqfl.s:23110  .debug_str:0000000000005514 .LASF3400
C:\Users\CYMR90~1\AppData\Local\Temp\ccmBQqfl.s:22194  .debug_str:0000000000001a95 .LASF3401
C:\Users\CYMR90~1\AppData\Local\Temp\ccmBQqfl.s:27242  .debug_str:0000000000015c41 .LASF3402
C:\Users\CYMR90~1\AppData\Local\Temp\ccmBQqfl.s:25688  .debug_str:000000000000f8cf .LASF3403
C:\Users\CYMR90~1\AppData\Local\Temp\ccmBQqfl.s:31231  .debug_str:0000000000025b70 .LASF3404
C:\Users\CYMR90~1\AppData\Local\Temp\ccmBQqfl.s:29351  .debug_str:000000000001e7a3 .LASF3405
C:\Users\CYMR90~1\AppData\Local\Temp\ccmBQqfl.s:22286  .debug_str:0000000000001fff .LASF3406
C:\Users\CYMR90~1\AppData\Local\Temp\ccmBQqfl.s:29667  .debug_str:000000000001fad4 .LASF3407
C:\Users\CYMR90~1\AppData\Local\Temp\ccmBQqfl.s:24176  .debug_str:0000000000009914 .LASF3408
C:\Users\CYMR90~1\AppData\Local\Temp\ccmBQqfl.s:27825  .debug_str:0000000000018381 .LASF3409
C:\Users\CYMR90~1\AppData\Local\Temp\ccmBQqfl.s:32331  .debug_str:000000000002a13b .LASF3410
C:\Users\CYMR90~1\AppData\Local\Temp\ccmBQqfl.s:25324  .debug_str:000000000000e2a4 .LASF3411
C:\Users\CYMR90~1\AppData\Local\Temp\ccmBQqfl.s:29409  .debug_str:000000000001eb27 .LASF3412
C:\Users\CYMR90~1\AppData\Local\Temp\ccmBQqfl.s:32939  .debug_str:000000000002c757 .LASF3413
C:\Users\CYMR90~1\AppData\Local\Temp\ccmBQqfl.s:25636  .debug_str:000000000000f5db .LASF3414
C:\Users\CYMR90~1\AppData\Local\Temp\ccmBQqfl.s:29711  .debug_str:000000000001fd96 .LASF3415
C:\Users\CYMR90~1\AppData\Local\Temp\ccmBQqfl.s:22984  .debug_str:0000000000004d5e .LASF3416
C:\Users\CYMR90~1\AppData\Local\Temp\ccmBQqfl.s:29603  .debug_str:000000000001f6f6 .LASF3417
C:\Users\CYMR90~1\AppData\Local\Temp\ccmBQqfl.s:25334  .debug_str:000000000000e344 .LASF3418
C:\Users\CYMR90~1\AppData\Local\Temp\ccmBQqfl.s:32687  .debug_str:000000000002b688 .LASF3419
C:\Users\CYMR90~1\AppData\Local\Temp\ccmBQqfl.s:30271  .debug_str:0000000000021f89 .LASF3420
C:\Users\CYMR90~1\AppData\Local\Temp\ccmBQqfl.s:27591  .debug_str:000000000001752c .LASF3421
C:\Users\CYMR90~1\AppData\Local\Temp\ccmBQqfl.s:29139  .debug_str:000000000001da43 .LASF3422
C:\Users\CYMR90~1\AppData\Local\Temp\ccmBQqfl.s:27639  .debug_str:00000000000177d2 .LASF3423
C:\Users\CYMR90~1\AppData\Local\Temp\ccmBQqfl.s:31165  .debug_str:00000000000256a9 .LASF3424
C:\Users\CYMR90~1\AppData\Local\Temp\ccmBQqfl.s:29297  .debug_str:000000000001e48c .LASF3425
C:\Users\CYMR90~1\AppData\Local\Temp\ccmBQqfl.s:30245  .debug_str:0000000000021e17 .LASF3426
C:\Users\CYMR90~1\AppData\Local\Temp\ccmBQqfl.s:25892  .debug_str:0000000000010650 .LASF3427
C:\Users\CYMR90~1\AppData\Local\Temp\ccmBQqfl.s:27034  .debug_str:0000000000014f6f .LASF3428
C:\Users\CYMR90~1\AppData\Local\Temp\ccmBQqfl.s:33065  .debug_str:000000000002cfcf .LASF3429
C:\Users\CYMR90~1\AppData\Local\Temp\ccmBQqfl.s:25056  .debug_str:000000000000d1f4 .LASF3430
C:\Users\CYMR90~1\AppData\Local\Temp\ccmBQqfl.s:27875  .debug_str:0000000000018686 .LASF3431
C:\Users\CYMR90~1\AppData\Local\Temp\ccmBQqfl.s:24202  .debug_str:0000000000009a75 .LASF3432
C:\Users\CYMR90~1\AppData\Local\Temp\ccmBQqfl.s:31433  .debug_str:000000000002685b .LASF3433
C:\Users\CYMR90~1\AppData\Local\Temp\ccmBQqfl.s:32509  .debug_str:000000000002abbb .LASF3434
C:\Users\CYMR90~1\AppData\Local\Temp\ccmBQqfl.s:24758  .debug_str:000000000000be9f .LASF3435
C:\Users\CYMR90~1\AppData\Local\Temp\ccmBQqfl.s:31911  .debug_str:00000000000287a4 .LASF3436
C:\Users\CYMR90~1\AppData\Local\Temp\ccmBQqfl.s:28785  .debug_str:000000000001c28a .LASF3437
C:\Users\CYMR90~1\AppData\Local\Temp\ccmBQqfl.s:23600  .debug_str:000000000000733c .LASF3438
C:\Users\CYMR90~1\AppData\Local\Temp\ccmBQqfl.s:22360  .debug_str:000000000000244a .LASF3439
C:\Users\CYMR90~1\AppData\Local\Temp\ccmBQqfl.s:31493  .debug_str:0000000000026c2d .LASF3440
C:\Users\CYMR90~1\AppData\Local\Temp\ccmBQqfl.s:28211  .debug_str:0000000000019cae .LASF3441
C:\Users\CYMR90~1\AppData\Local\Temp\ccmBQqfl.s:28139  .debug_str:0000000000019781 .LASF3442
C:\Users\CYMR90~1\AppData\Local\Temp\ccmBQqfl.s:28561  .debug_str:000000000001b44d .LASF3443
C:\Users\CYMR90~1\AppData\Local\Temp\ccmBQqfl.s:22368  .debug_str:00000000000024b4 .LASF3444
C:\Users\CYMR90~1\AppData\Local\Temp\ccmBQqfl.s:31833  .debug_str:00000000000281d6 .LASF3445
C:\Users\CYMR90~1\AppData\Local\Temp\ccmBQqfl.s:29227  .debug_str:000000000001dfc0 .LASF3446
C:\Users\CYMR90~1\AppData\Local\Temp\ccmBQqfl.s:22992  .debug_str:0000000000004de4 .LASF3447
C:\Users\CYMR90~1\AppData\Local\Temp\ccmBQqfl.s:25424  .debug_str:000000000000e8d9 .LASF3448
C:\Users\CYMR90~1\AppData\Local\Temp\ccmBQqfl.s:30027  .debug_str:000000000002107b .LASF3449
C:\Users\CYMR90~1\AppData\Local\Temp\ccmBQqfl.s:32889  .debug_str:000000000002c447 .LASF3450
C:\Users\CYMR90~1\AppData\Local\Temp\ccmBQqfl.s:32631  .debug_str:000000000002b318 .LASF3451
C:\Users\CYMR90~1\AppData\Local\Temp\ccmBQqfl.s:21908  .debug_str:000000000000075a .LASF3452
C:\Users\CYMR90~1\AppData\Local\Temp\ccmBQqfl.s:25552  .debug_str:000000000000f0a1 .LASF3453
C:\Users\CYMR90~1\AppData\Local\Temp\ccmBQqfl.s:26936  .debug_str:0000000000014966 .LASF3454
C:\Users\CYMR90~1\AppData\Local\Temp\ccmBQqfl.s:30803  .debug_str:0000000000023f2b .LASF3455
C:\Users\CYMR90~1\AppData\Local\Temp\ccmBQqfl.s:28389  .debug_str:000000000001a8a4 .LASF3456
C:\Users\CYMR90~1\AppData\Local\Temp\ccmBQqfl.s:27535  .debug_str:00000000000171c9 .LASF3457
C:\Users\CYMR90~1\AppData\Local\Temp\ccmBQqfl.s:27985  .debug_str:0000000000018d3a .LASF3458
C:\Users\CYMR90~1\AppData\Local\Temp\ccmBQqfl.s:32453  .debug_str:000000000002a826 .LASF3459
C:\Users\CYMR90~1\AppData\Local\Temp\ccmBQqfl.s:25106  .debug_str:000000000000d562 .LASF3460
C:\Users\CYMR90~1\AppData\Local\Temp\ccmBQqfl.s:27585  .debug_str:00000000000174b5 .LASF3461
C:\Users\CYMR90~1\AppData\Local\Temp\ccmBQqfl.s:26910  .debug_str:000000000001475d .LASF3462
C:\Users\CYMR90~1\AppData\Local\Temp\ccmBQqfl.s:27006  .debug_str:0000000000014dd1 .LASF3463
C:\Users\CYMR90~1\AppData\Local\Temp\ccmBQqfl.s:29377  .debug_str:000000000001e92d .LASF3464
C:\Users\CYMR90~1\AppData\Local\Temp\ccmBQqfl.s:32251  .debug_str:0000000000029cba .LASF3465
C:\Users\CYMR90~1\AppData\Local\Temp\ccmBQqfl.s:22498  .debug_str:0000000000002d6b .LASF3466
C:\Users\CYMR90~1\AppData\Local\Temp\ccmBQqfl.s:29585  .debug_str:000000000001f59e .LASF3467
C:\Users\CYMR90~1\AppData\Local\Temp\ccmBQqfl.s:24328  .debug_str:000000000000a27a .LASF3468
C:\Users\CYMR90~1\AppData\Local\Temp\ccmBQqfl.s:22620  .debug_str:0000000000003526 .LASF3469
C:\Users\CYMR90~1\AppData\Local\Temp\ccmBQqfl.s:24576  .debug_str:000000000000b29a .LASF3470
C:\Users\CYMR90~1\AppData\Local\Temp\ccmBQqfl.s:28043  .debug_str:0000000000019104 .LASF3471
C:\Users\CYMR90~1\AppData\Local\Temp\ccmBQqfl.s:31105  .debug_str:00000000000252c9 .LASF3472
C:\Users\CYMR90~1\AppData\Local\Temp\ccmBQqfl.s:28457  .debug_str:000000000001ad6f .LASF3473
C:\Users\CYMR90~1\AppData\Local\Temp\ccmBQqfl.s:28313  .debug_str:000000000001a2b9 .LASF3474
C:\Users\CYMR90~1\AppData\Local\Temp\ccmBQqfl.s:23466  .debug_str:0000000000006aa5 .LASF3475
C:\Users\CYMR90~1\AppData\Local\Temp\ccmBQqfl.s:25430  .debug_str:000000000000e925 .LASF3476
C:\Users\CYMR90~1\AppData\Local\Temp\ccmBQqfl.s:25272  .debug_str:000000000000df89 .LASF3477
C:\Users\CYMR90~1\AppData\Local\Temp\ccmBQqfl.s:23894  .debug_str:00000000000086e3 .LASF3478
C:\Users\CYMR90~1\AppData\Local\Temp\ccmBQqfl.s:24086  .debug_str:0000000000009361 .LASF3479
C:\Users\CYMR90~1\AppData\Local\Temp\ccmBQqfl.s:24680  .debug_str:000000000000b95a .LASF3480
C:\Users\CYMR90~1\AppData\Local\Temp\ccmBQqfl.s:22646  .debug_str:00000000000036d4 .LASF3481
C:\Users\CYMR90~1\AppData\Local\Temp\ccmBQqfl.s:24014  .debug_str:0000000000008eae .LASF3482
C:\Users\CYMR90~1\AppData\Local\Temp\ccmBQqfl.s:21832  .debug_str:00000000000002cb .LASF3483
C:\Users\CYMR90~1\AppData\Local\Temp\ccmBQqfl.s:27581  .debug_str:0000000000017487 .LASF3484
C:\Users\CYMR90~1\AppData\Local\Temp\ccmBQqfl.s:24828  .debug_str:000000000000c383 .LASF3485
C:\Users\CYMR90~1\AppData\Local\Temp\ccmBQqfl.s:30741  .debug_str:0000000000023b11 .LASF3486
C:\Users\CYMR90~1\AppData\Local\Temp\ccmBQqfl.s:32805  .debug_str:000000000002be7b .LASF3487
C:\Users\CYMR90~1\AppData\Local\Temp\ccmBQqfl.s:26392  .debug_str:0000000000012695 .LASF3488
C:\Users\CYMR90~1\AppData\Local\Temp\ccmBQqfl.s:26246  .debug_str:0000000000011d5c .LASF3489
C:\Users\CYMR90~1\AppData\Local\Temp\ccmBQqfl.s:28575  .debug_str:000000000001b55f .LASF3490
C:\Users\CYMR90~1\AppData\Local\Temp\ccmBQqfl.s:24516  .debug_str:000000000000ae24 .LASF3491
C:\Users\CYMR90~1\AppData\Local\Temp\ccmBQqfl.s:32183  .debug_str:0000000000029816 .LASF3492
C:\Users\CYMR90~1\AppData\Local\Temp\ccmBQqfl.s:28227  .debug_str:0000000000019d8e .LASF3493
C:\Users\CYMR90~1\AppData\Local\Temp\ccmBQqfl.s:29569  .debug_str:000000000001f492 .LASF3494
C:\Users\CYMR90~1\AppData\Local\Temp\ccmBQqfl.s:30679  .debug_str:0000000000023752 .LASF3495
C:\Users\CYMR90~1\AppData\Local\Temp\ccmBQqfl.s:31523  .debug_str:0000000000026df5 .LASF3496
C:\Users\CYMR90~1\AppData\Local\Temp\ccmBQqfl.s:22010  .debug_str:0000000000000dd9 .LASF3497
C:\Users\CYMR90~1\AppData\Local\Temp\ccmBQqfl.s:25498  .debug_str:000000000000edb7 .LASF3498
C:\Users\CYMR90~1\AppData\Local\Temp\ccmBQqfl.s:32885  .debug_str:000000000002c416 .LASF3499
C:\Users\CYMR90~1\AppData\Local\Temp\ccmBQqfl.s:31661  .debug_str:0000000000027605 .LASF3500
C:\Users\CYMR90~1\AppData\Local\Temp\ccmBQqfl.s:22484  .debug_str:0000000000002c3b .LASF3501
C:\Users\CYMR90~1\AppData\Local\Temp\ccmBQqfl.s:28709  .debug_str:000000000001bd9b .LASF3502
C:\Users\CYMR90~1\AppData\Local\Temp\ccmBQqfl.s:23620  .debug_str:00000000000074af .LASF3503
C:\Users\CYMR90~1\AppData\Local\Temp\ccmBQqfl.s:25030  .debug_str:000000000000d038 .LASF3504
C:\Users\CYMR90~1\AppData\Local\Temp\ccmBQqfl.s:23366  .debug_str:000000000000648b .LASF3505
C:\Users\CYMR90~1\AppData\Local\Temp\ccmBQqfl.s:30131  .debug_str:0000000000021690 .LASF3506
C:\Users\CYMR90~1\AppData\Local\Temp\ccmBQqfl.s:30399  .debug_str:0000000000022723 .LASF3507
C:\Users\CYMR90~1\AppData\Local\Temp\ccmBQqfl.s:24180  .debug_str:000000000000994e .LASF3508
C:\Users\CYMR90~1\AppData\Local\Temp\ccmBQqfl.s:30799  .debug_str:0000000000023efd .LASF3509
C:\Users\CYMR90~1\AppData\Local\Temp\ccmBQqfl.s:33011  .debug_str:000000000002cbfc .LASF3510
C:\Users\CYMR90~1\AppData\Local\Temp\ccmBQqfl.s:32541  .debug_str:000000000002ad85 .LASF3511
C:\Users\CYMR90~1\AppData\Local\Temp\ccmBQqfl.s:25322  .debug_str:000000000000e28b .LASF3512
C:\Users\CYMR90~1\AppData\Local\Temp\ccmBQqfl.s:29505  .debug_str:000000000001f0ea .LASF3513
C:\Users\CYMR90~1\AppData\Local\Temp\ccmBQqfl.s:22948  .debug_str:0000000000004aa5 .LASF3514
C:\Users\CYMR90~1\AppData\Local\Temp\ccmBQqfl.s:22240  .debug_str:0000000000001d40 .LASF3515
C:\Users\CYMR90~1\AppData\Local\Temp\ccmBQqfl.s:24266  .debug_str:0000000000009edf .LASF3516
C:\Users\CYMR90~1\AppData\Local\Temp\ccmBQqfl.s:30655  .debug_str:000000000002363f .LASF3517
C:\Users\CYMR90~1\AppData\Local\Temp\ccmBQqfl.s:26278  .debug_str:0000000000011f59 .LASF3518
C:\Users\CYMR90~1\AppData\Local\Temp\ccmBQqfl.s:26810  .debug_str:0000000000014168 .LASF3519
C:\Users\CYMR90~1\AppData\Local\Temp\ccmBQqfl.s:24144  .debug_str:00000000000096c5 .LASF3520
C:\Users\CYMR90~1\AppData\Local\Temp\ccmBQqfl.s:30483  .debug_str:0000000000022bf0 .LASF3521
C:\Users\CYMR90~1\AppData\Local\Temp\ccmBQqfl.s:28063  .debug_str:000000000001920a .LASF3522
C:\Users\CYMR90~1\AppData\Local\Temp\ccmBQqfl.s:32035  .debug_str:0000000000028f98 .LASF3523
C:\Users\CYMR90~1\AppData\Local\Temp\ccmBQqfl.s:27745  .debug_str:0000000000017ea6 .LASF3524
C:\Users\CYMR90~1\AppData\Local\Temp\ccmBQqfl.s:31951  .debug_str:0000000000028a2c .LASF3525
C:\Users\CYMR90~1\AppData\Local\Temp\ccmBQqfl.s:25332  .debug_str:000000000000e325 .LASF3526
C:\Users\CYMR90~1\AppData\Local\Temp\ccmBQqfl.s:23806  .debug_str:00000000000080b7 .LASF3527
C:\Users\CYMR90~1\AppData\Local\Temp\ccmBQqfl.s:32949  .debug_str:000000000002c826 .LASF3528
C:\Users\CYMR90~1\AppData\Local\Temp\ccmBQqfl.s:27130  .debug_str:00000000000155f8 .LASF3529
C:\Users\CYMR90~1\AppData\Local\Temp\ccmBQqfl.s:28865  .debug_str:000000000001c784 .LASF3530
C:\Users\CYMR90~1\AppData\Local\Temp\ccmBQqfl.s:28285  .debug_str:000000000001a0fe .LASF3531
C:\Users\CYMR90~1\AppData\Local\Temp\ccmBQqfl.s:30211  .debug_str:0000000000021bdf .LASF3532
C:\Users\CYMR90~1\AppData\Local\Temp\ccmBQqfl.s:30181  .debug_str:00000000000219fb .LASF3533
C:\Users\CYMR90~1\AppData\Local\Temp\ccmBQqfl.s:28825  .debug_str:000000000001c4fe .LASF3534
C:\Users\CYMR90~1\AppData\Local\Temp\ccmBQqfl.s:32379  .debug_str:000000000002a3d9 .LASF3535
C:\Users\CYMR90~1\AppData\Local\Temp\ccmBQqfl.s:21800  .debug_str:00000000000000dc .LASF3536
C:\Users\CYMR90~1\AppData\Local\Temp\ccmBQqfl.s:26240  .debug_str:0000000000011c67 .LASF3537
C:\Users\CYMR90~1\AppData\Local\Temp\ccmBQqfl.s:30223  .debug_str:0000000000021c9d .LASF3538
C:\Users\CYMR90~1\AppData\Local\Temp\ccmBQqfl.s:30489  .debug_str:0000000000022c3e .LASF3539
C:\Users\CYMR90~1\AppData\Local\Temp\ccmBQqfl.s:27318  .debug_str:0000000000016161 .LASF3540
C:\Users\CYMR90~1\AppData\Local\Temp\ccmBQqfl.s:31053  .debug_str:0000000000024f59 .LASF3541
C:\Users\CYMR90~1\AppData\Local\Temp\ccmBQqfl.s:24936  .debug_str:000000000000ca11 .LASF3542
C:\Users\CYMR90~1\AppData\Local\Temp\ccmBQqfl.s:33129  .debug_str:000000000002d3c9 .LASF3543
C:\Users\CYMR90~1\AppData\Local\Temp\ccmBQqfl.s:30775  .debug_str:0000000000023d6e .LASF3544
C:\Users\CYMR90~1\AppData\Local\Temp\ccmBQqfl.s:31201  .debug_str:0000000000025982 .LASF3545
C:\Users\CYMR90~1\AppData\Local\Temp\ccmBQqfl.s:26280  .debug_str:0000000000011f6e .LASF3546
C:\Users\CYMR90~1\AppData\Local\Temp\ccmBQqfl.s:26642  .debug_str:000000000001371d .LASF3547
C:\Users\CYMR90~1\AppData\Local\Temp\ccmBQqfl.s:22262  .debug_str:0000000000001e78 .LASF3548
C:\Users\CYMR90~1\AppData\Local\Temp\ccmBQqfl.s:23592  .debug_str:000000000000729d .LASF3549
C:\Users\CYMR90~1\AppData\Local\Temp\ccmBQqfl.s:32761  .debug_str:000000000002bb60 .LASF3550
C:\Users\CYMR90~1\AppData\Local\Temp\ccmBQqfl.s:27348  .debug_str:0000000000016398 .LASF3551
C:\Users\CYMR90~1\AppData\Local\Temp\ccmBQqfl.s:28151  .debug_str:000000000001983a .LASF3552
C:\Users\CYMR90~1\AppData\Local\Temp\ccmBQqfl.s:25206  .debug_str:000000000000dba4 .LASF3553
C:\Users\CYMR90~1\AppData\Local\Temp\ccmBQqfl.s:26492  .debug_str:0000000000012d02 .LASF3554
C:\Users\CYMR90~1\AppData\Local\Temp\ccmBQqfl.s:22030  .debug_str:0000000000000fa5 .LASF3555
C:\Users\CYMR90~1\AppData\Local\Temp\ccmBQqfl.s:28421  .debug_str:000000000001aadd .LASF3556
C:\Users\CYMR90~1\AppData\Local\Temp\ccmBQqfl.s:22868  .debug_str:0000000000004537 .LASF3557
C:\Users\CYMR90~1\AppData\Local\Temp\ccmBQqfl.s:28675  .debug_str:000000000001bbc7 .LASF3558
C:\Users\CYMR90~1\AppData\Local\Temp\ccmBQqfl.s:23134  .debug_str:0000000000005688 .LASF3559
C:\Users\CYMR90~1\AppData\Local\Temp\ccmBQqfl.s:24250  .debug_str:0000000000009dca .LASF3560
C:\Users\CYMR90~1\AppData\Local\Temp\ccmBQqfl.s:23412  .debug_str:000000000000673d .LASF3561
C:\Users\CYMR90~1\AppData\Local\Temp\ccmBQqfl.s:29189  .debug_str:000000000001dd6f .LASF3562
C:\Users\CYMR90~1\AppData\Local\Temp\ccmBQqfl.s:31689  .debug_str:00000000000278b4 .LASF3563
C:\Users\CYMR90~1\AppData\Local\Temp\ccmBQqfl.s:30423  .debug_str:000000000002287f .LASF3564
C:\Users\CYMR90~1\AppData\Local\Temp\ccmBQqfl.s:23450  .debug_str:0000000000006973 .LASF3565
C:\Users\CYMR90~1\AppData\Local\Temp\ccmBQqfl.s:32323  .debug_str:000000000002a0cb .LASF3566
C:\Users\CYMR90~1\AppData\Local\Temp\ccmBQqfl.s:29663  .debug_str:000000000001fa9a .LASF3567
C:\Users\CYMR90~1\AppData\Local\Temp\ccmBQqfl.s:25524  .debug_str:000000000000ef22 .LASF3568
C:\Users\CYMR90~1\AppData\Local\Temp\ccmBQqfl.s:24528  .debug_str:000000000000aed9 .LASF3569
C:\Users\CYMR90~1\AppData\Local\Temp\ccmBQqfl.s:21892  .debug_str:0000000000000635 .LASF3570
C:\Users\CYMR90~1\AppData\Local\Temp\ccmBQqfl.s:25772  .debug_str:000000000000fe87 .LASF3571
C:\Users\CYMR90~1\AppData\Local\Temp\ccmBQqfl.s:24718  .debug_str:000000000000bbfc .LASF3572
C:\Users\CYMR90~1\AppData\Local\Temp\ccmBQqfl.s:25478  .debug_str:000000000000ec34 .LASF3573
C:\Users\CYMR90~1\AppData\Local\Temp\ccmBQqfl.s:28973  .debug_str:000000000001ce8e .LASF3574
C:\Users\CYMR90~1\AppData\Local\Temp\ccmBQqfl.s:31751  .debug_str:0000000000027c37 .LASF3575
C:\Users\CYMR90~1\AppData\Local\Temp\ccmBQqfl.s:29109  .debug_str:000000000001d82d .LASF3576
C:\Users\CYMR90~1\AppData\Local\Temp\ccmBQqfl.s:26582  .debug_str:00000000000132e1 .LASF3577
C:\Users\CYMR90~1\AppData\Local\Temp\ccmBQqfl.s:28689  .debug_str:000000000001bca7 .LASF3578
C:\Users\CYMR90~1\AppData\Local\Temp\ccmBQqfl.s:32721  .debug_str:000000000002b8d9 .LASF3579
C:\Users\CYMR90~1\AppData\Local\Temp\ccmBQqfl.s:25912  .debug_str:000000000001077f .LASF3580
C:\Users\CYMR90~1\AppData\Local\Temp\ccmBQqfl.s:31979  .debug_str:0000000000028c25 .LASF3581
C:\Users\CYMR90~1\AppData\Local\Temp\ccmBQqfl.s:24916  .debug_str:000000000000c8dc .LASF3582
C:\Users\CYMR90~1\AppData\Local\Temp\ccmBQqfl.s:22344  .debug_str:0000000000002337 .LASF3583
C:\Users\CYMR90~1\AppData\Local\Temp\ccmBQqfl.s:25888  .debug_str:0000000000010612 .LASF3584
C:\Users\CYMR90~1\AppData\Local\Temp\ccmBQqfl.s:25810  .debug_str:00000000000100fb .LASF3585
C:\Users\CYMR90~1\AppData\Local\Temp\ccmBQqfl.s:26030  .debug_str:0000000000010f31 .LASF3586
C:\Users\CYMR90~1\AppData\Local\Temp\ccmBQqfl.s:30401  .debug_str:000000000002273b .LASF3587
C:\Users\CYMR90~1\AppData\Local\Temp\ccmBQqfl.s:26704  .debug_str:0000000000013ae0 .LASF3588
C:\Users\CYMR90~1\AppData\Local\Temp\ccmBQqfl.s:23796  .debug_str:000000000000801b .LASF3589
C:\Users\CYMR90~1\AppData\Local\Temp\ccmBQqfl.s:30633  .debug_str:0000000000023512 .LASF3590
C:\Users\CYMR90~1\AppData\Local\Temp\ccmBQqfl.s:32763  .debug_str:000000000002bb84 .LASF3591
C:\Users\CYMR90~1\AppData\Local\Temp\ccmBQqfl.s:32297  .debug_str:0000000000029f43 .LASF3592
C:\Users\CYMR90~1\AppData\Local\Temp\ccmBQqfl.s:28771  .debug_str:000000000001c16f .LASF3593
C:\Users\CYMR90~1\AppData\Local\Temp\ccmBQqfl.s:23596  .debug_str:00000000000072df .LASF3594
C:\Users\CYMR90~1\AppData\Local\Temp\ccmBQqfl.s:23186  .debug_str:00000000000059e8 .LASF3595
C:\Users\CYMR90~1\AppData\Local\Temp\ccmBQqfl.s:23678  .debug_str:0000000000007812 .LASF3596
C:\Users\CYMR90~1\AppData\Local\Temp\ccmBQqfl.s:22638  .debug_str:0000000000003659 .LASF3597
C:\Users\CYMR90~1\AppData\Local\Temp\ccmBQqfl.s:31015  .debug_str:0000000000024c77 .LASF3598
C:\Users\CYMR90~1\AppData\Local\Temp\ccmBQqfl.s:25840  .debug_str:00000000000102de .LASF3599
C:\Users\CYMR90~1\AppData\Local\Temp\ccmBQqfl.s:23988  .debug_str:0000000000008d21 .LASF3600
C:\Users\CYMR90~1\AppData\Local\Temp\ccmBQqfl.s:24096  .debug_str:0000000000009414 .LASF3601
C:\Users\CYMR90~1\AppData\Local\Temp\ccmBQqfl.s:30291  .debug_str:0000000000022097 .LASF3602
C:\Users\CYMR90~1\AppData\Local\Temp\ccmBQqfl.s:32231  .debug_str:0000000000029b50 .LASF3603
C:\Users\CYMR90~1\AppData\Local\Temp\ccmBQqfl.s:30547  .debug_str:0000000000022fbe .LASF3604
C:\Users\CYMR90~1\AppData\Local\Temp\ccmBQqfl.s:32123  .debug_str:0000000000029492 .LASF3605
C:\Users\CYMR90~1\AppData\Local\Temp\ccmBQqfl.s:21922  .debug_str:0000000000000820 .LASF3606
C:\Users\CYMR90~1\AppData\Local\Temp\ccmBQqfl.s:30369  .debug_str:000000000002257e .LASF3607
C:\Users\CYMR90~1\AppData\Local\Temp\ccmBQqfl.s:27537  .debug_str:00000000000171e1 .LASF3608
C:\Users\CYMR90~1\AppData\Local\Temp\ccmBQqfl.s:24536  .debug_str:000000000000af4d .LASF3609
C:\Users\CYMR90~1\AppData\Local\Temp\ccmBQqfl.s:25090  .debug_str:000000000000d448 .LASF3610
C:\Users\CYMR90~1\AppData\Local\Temp\ccmBQqfl.s:23582  .debug_str:00000000000071ee .LASF3611
C:\Users\CYMR90~1\AppData\Local\Temp\ccmBQqfl.s:27148  .debug_str:00000000000156dd .LASF3612
C:\Users\CYMR90~1\AppData\Local\Temp\ccmBQqfl.s:24962  .debug_str:000000000000cc5b .LASF3613
C:\Users\CYMR90~1\AppData\Local\Temp\ccmBQqfl.s:30651  .debug_str:0000000000023600 .LASF3614
C:\Users\CYMR90~1\AppData\Local\Temp\ccmBQqfl.s:28573  .debug_str:000000000001b51c .LASF3615
C:\Users\CYMR90~1\AppData\Local\Temp\ccmBQqfl.s:30591  .debug_str:00000000000232b9 .LASF3616
C:\Users\CYMR90~1\AppData\Local\Temp\ccmBQqfl.s:27679  .debug_str:0000000000017a67 .LASF3617
C:\Users\CYMR90~1\AppData\Local\Temp\ccmBQqfl.s:25398  .debug_str:000000000000e6f8 .LASF3618
C:\Users\CYMR90~1\AppData\Local\Temp\ccmBQqfl.s:29633  .debug_str:000000000001f894 .LASF3619
C:\Users\CYMR90~1\AppData\Local\Temp\ccmBQqfl.s:24588  .debug_str:000000000000b344 .LASF3620
C:\Users\CYMR90~1\AppData\Local\Temp\ccmBQqfl.s:26854  .debug_str:0000000000014441 .LASF3621
C:\Users\CYMR90~1\AppData\Local\Temp\ccmBQqfl.s:27823  .debug_str:000000000001835f .LASF3622
C:\Users\CYMR90~1\AppData\Local\Temp\ccmBQqfl.s:31577  .debug_str:00000000000270f1 .LASF3623
C:\Users\CYMR90~1\AppData\Local\Temp\ccmBQqfl.s:24374  .debug_str:000000000000a54a .LASF3624
C:\Users\CYMR90~1\AppData\Local\Temp\ccmBQqfl.s:23100  .debug_str:0000000000005468 .LASF3625
C:\Users\CYMR90~1\AppData\Local\Temp\ccmBQqfl.s:28119  .debug_str:000000000001962b .LASF3626
C:\Users\CYMR90~1\AppData\Local\Temp\ccmBQqfl.s:24634  .debug_str:000000000000b5d3 .LASF3627
C:\Users\CYMR90~1\AppData\Local\Temp\ccmBQqfl.s:25366  .debug_str:000000000000e51f .LASF3628
C:\Users\CYMR90~1\AppData\Local\Temp\ccmBQqfl.s:32863  .debug_str:000000000002c248 .LASF3629
C:\Users\CYMR90~1\AppData\Local\Temp\ccmBQqfl.s:32707  .debug_str:000000000002b7e8 .LASF3630
C:\Users\CYMR90~1\AppData\Local\Temp\ccmBQqfl.s:25228  .debug_str:000000000000dd05 .LASF3631
C:\Users\CYMR90~1\AppData\Local\Temp\ccmBQqfl.s:23196  .debug_str:0000000000005a73 .LASF3632
C:\Users\CYMR90~1\AppData\Local\Temp\ccmBQqfl.s:32349  .debug_str:000000000002a242 .LASF3633
C:\Users\CYMR90~1\AppData\Local\Temp\ccmBQqfl.s:30089  .debug_str:0000000000021424 .LASF3634
C:\Users\CYMR90~1\AppData\Local\Temp\ccmBQqfl.s:23200  .debug_str:0000000000005ad3 .LASF3635
C:\Users\CYMR90~1\AppData\Local\Temp\ccmBQqfl.s:27268  .debug_str:0000000000015ddf .LASF3636
C:\Users\CYMR90~1\AppData\Local\Temp\ccmBQqfl.s:23294  .debug_str:000000000000603e .LASF3637
C:\Users\CYMR90~1\AppData\Local\Temp\ccmBQqfl.s:26744  .debug_str:0000000000013d69 .LASF3638
C:\Users\CYMR90~1\AppData\Local\Temp\ccmBQqfl.s:30283  .debug_str:000000000002201d .LASF3639
C:\Users\CYMR90~1\AppData\Local\Temp\ccmBQqfl.s:31385  .debug_str:00000000000265b5 .LASF3640
C:\Users\CYMR90~1\AppData\Local\Temp\ccmBQqfl.s:23016  .debug_str:0000000000004f5d .LASF3641
C:\Users\CYMR90~1\AppData\Local\Temp\ccmBQqfl.s:30857  .debug_str:0000000000024242 .LASF3642
C:\Users\CYMR90~1\AppData\Local\Temp\ccmBQqfl.s:30011  .debug_str:0000000000020f92 .LASF3643
C:\Users\CYMR90~1\AppData\Local\Temp\ccmBQqfl.s:32505  .debug_str:000000000002ab79 .LASF3644
C:\Users\CYMR90~1\AppData\Local\Temp\ccmBQqfl.s:25500  .debug_str:000000000000edcf .LASF3645
C:\Users\CYMR90~1\AppData\Local\Temp\ccmBQqfl.s:23208  .debug_str:0000000000005b29 .LASF3646
C:\Users\CYMR90~1\AppData\Local\Temp\ccmBQqfl.s:24868  .debug_str:000000000000c5f5 .LASF3647
C:\Users\CYMR90~1\AppData\Local\Temp\ccmBQqfl.s:30103  .debug_str:00000000000214ef .LASF3648
C:\Users\CYMR90~1\AppData\Local\Temp\ccmBQqfl.s:27923  .debug_str:0000000000018955 .LASF3649
C:\Users\CYMR90~1\AppData\Local\Temp\ccmBQqfl.s:29025  .debug_str:000000000001d203 .LASF3650
C:\Users\CYMR90~1\AppData\Local\Temp\ccmBQqfl.s:32097  .debug_str:0000000000029307 .LASF3651
C:\Users\CYMR90~1\AppData\Local\Temp\ccmBQqfl.s:29921  .debug_str:00000000000209b5 .LASF3652
C:\Users\CYMR90~1\AppData\Local\Temp\ccmBQqfl.s:33039  .debug_str:000000000002ce06 .LASF3653
C:\Users\CYMR90~1\AppData\Local\Temp\ccmBQqfl.s:22682  .debug_str:0000000000003900 .LASF3654
C:\Users\CYMR90~1\AppData\Local\Temp\ccmBQqfl.s:31183  .debug_str:0000000000025868 .LASF3655
C:\Users\CYMR90~1\AppData\Local\Temp\ccmBQqfl.s:22052  .debug_str:00000000000010bb .LASF3656
C:\Users\CYMR90~1\AppData\Local\Temp\ccmBQqfl.s:29193  .debug_str:000000000001ddb6 .LASF3657
C:\Users\CYMR90~1\AppData\Local\Temp\ccmBQqfl.s:26616  .debug_str:0000000000013504 .LASF3658
C:\Users\CYMR90~1\AppData\Local\Temp\ccmBQqfl.s:33123  .debug_str:000000000002d37b .LASF3659
C:\Users\CYMR90~1\AppData\Local\Temp\ccmBQqfl.s:22474  .debug_str:0000000000002b9d .LASF3660
C:\Users\CYMR90~1\AppData\Local\Temp\ccmBQqfl.s:31633  .debug_str:0000000000027483 .LASF3661
C:\Users\CYMR90~1\AppData\Local\Temp\ccmBQqfl.s:26476  .debug_str:0000000000012c02 .LASF3662
C:\Users\CYMR90~1\AppData\Local\Temp\ccmBQqfl.s:29911  .debug_str:0000000000020920 .LASF3663
C:\Users\CYMR90~1\AppData\Local\Temp\ccmBQqfl.s:30053  .debug_str:000000000002120c .LASF3664
C:\Users\CYMR90~1\AppData\Local\Temp\ccmBQqfl.s:22008  .debug_str:0000000000000db7 .LASF3665
C:\Users\CYMR90~1\AppData\Local\Temp\ccmBQqfl.s:29253  .debug_str:000000000001e137 .LASF3666
C:\Users\CYMR90~1\AppData\Local\Temp\ccmBQqfl.s:22108  .debug_str:00000000000013ec .LASF3667
C:\Users\CYMR90~1\AppData\Local\Temp\ccmBQqfl.s:31881  .debug_str:0000000000028521 .LASF3668
C:\Users\CYMR90~1\AppData\Local\Temp\ccmBQqfl.s:26380  .debug_str:00000000000125aa .LASF3669
C:\Users\CYMR90~1\AppData\Local\Temp\ccmBQqfl.s:29397  .debug_str:000000000001ea48 .LASF3670
C:\Users\CYMR90~1\AppData\Local\Temp\ccmBQqfl.s:28283  .debug_str:000000000001a0ce .LASF3671
C:\Users\CYMR90~1\AppData\Local\Temp\ccmBQqfl.s:27042  .debug_str:0000000000015010 .LASF3672
C:\Users\CYMR90~1\AppData\Local\Temp\ccmBQqfl.s:25860  .debug_str:000000000001044b .LASF3673
C:\Users\CYMR90~1\AppData\Local\Temp\ccmBQqfl.s:32751  .debug_str:000000000002ba9f .LASF3674
C:\Users\CYMR90~1\AppData\Local\Temp\ccmBQqfl.s:31093  .debug_str:00000000000251eb .LASF3675
C:\Users\CYMR90~1\AppData\Local\Temp\ccmBQqfl.s:22226  .debug_str:0000000000001c42 .LASF3676
C:\Users\CYMR90~1\AppData\Local\Temp\ccmBQqfl.s:31869  .debug_str:00000000000283fd .LASF3677
C:\Users\CYMR90~1\AppData\Local\Temp\ccmBQqfl.s:32115  .debug_str:00000000000293f9 .LASF3678
C:\Users\CYMR90~1\AppData\Local\Temp\ccmBQqfl.s:25046  .debug_str:000000000000d146 .LASF3679
C:\Users\CYMR90~1\AppData\Local\Temp\ccmBQqfl.s:29313  .debug_str:000000000001e551 .LASF3680
C:\Users\CYMR90~1\AppData\Local\Temp\ccmBQqfl.s:24474  .debug_str:000000000000ab81 .LASF3681
C:\Users\CYMR90~1\AppData\Local\Temp\ccmBQqfl.s:31109  .debug_str:0000000000025303 .LASF3682
C:\Users\CYMR90~1\AppData\Local\Temp\ccmBQqfl.s:24332  .debug_str:000000000000a2a7 .LASF3683
C:\Users\CYMR90~1\AppData\Local\Temp\ccmBQqfl.s:30163  .debug_str:000000000002184a .LASF3684
C:\Users\CYMR90~1\AppData\Local\Temp\ccmBQqfl.s:22510  .debug_str:0000000000002e04 .LASF3685
C:\Users\CYMR90~1\AppData\Local\Temp\ccmBQqfl.s:28301  .debug_str:000000000001a1f2 .LASF3686
C:\Users\CYMR90~1\AppData\Local\Temp\ccmBQqfl.s:25144  .debug_str:000000000000d827 .LASF3687
C:\Users\CYMR90~1\AppData\Local\Temp\ccmBQqfl.s:23244  .debug_str:0000000000005d50 .LASF3688
C:\Users\CYMR90~1\AppData\Local\Temp\ccmBQqfl.s:31789  .debug_str:0000000000027e78 .LASF3689
C:\Users\CYMR90~1\AppData\Local\Temp\ccmBQqfl.s:25630  .debug_str:000000000000f56d .LASF3690
C:\Users\CYMR90~1\AppData\Local\Temp\ccmBQqfl.s:24822  .debug_str:000000000000c31d .LASF3691
C:\Users\CYMR90~1\AppData\Local\Temp\ccmBQqfl.s:25490  .debug_str:000000000000ecd7 .LASF3692
C:\Users\CYMR90~1\AppData\Local\Temp\ccmBQqfl.s:21952  .debug_str:00000000000009e5 .LASF3693
C:\Users\CYMR90~1\AppData\Local\Temp\ccmBQqfl.s:26276  .debug_str:0000000000011f27 .LASF3694
C:\Users\CYMR90~1\AppData\Local\Temp\ccmBQqfl.s:30587  .debug_str:0000000000023275 .LASF3695
C:\Users\CYMR90~1\AppData\Local\Temp\ccmBQqfl.s:23392  .debug_str:00000000000065fd .LASF3696
C:\Users\CYMR90~1\AppData\Local\Temp\ccmBQqfl.s:24754  .debug_str:000000000000be59 .LASF3697
C:\Users\CYMR90~1\AppData\Local\Temp\ccmBQqfl.s:25852  .debug_str:00000000000103c8 .LASF3698
C:\Users\CYMR90~1\AppData\Local\Temp\ccmBQqfl.s:30139  .debug_str:00000000000216ea .LASF3699
C:\Users\CYMR90~1\AppData\Local\Temp\ccmBQqfl.s:23026  .debug_str:0000000000005007 .LASF3700
C:\Users\CYMR90~1\AppData\Local\Temp\ccmBQqfl.s:27248  .debug_str:0000000000015c89 .LASF3701
C:\Users\CYMR90~1\AppData\Local\Temp\ccmBQqfl.s:31595  .debug_str:0000000000027209 .LASF3702
C:\Users\CYMR90~1\AppData\Local\Temp\ccmBQqfl.s:24524  .debug_str:000000000000ae8d .LASF3703
C:\Users\CYMR90~1\AppData\Local\Temp\ccmBQqfl.s:26832  .debug_str:00000000000142a1 .LASF3704
C:\Users\CYMR90~1\AppData\Local\Temp\ccmBQqfl.s:29287  .debug_str:000000000001e3bd .LASF3705
C:\Users\CYMR90~1\AppData\Local\Temp\ccmBQqfl.s:25026  .debug_str:000000000000cfea .LASF3706
C:\Users\CYMR90~1\AppData\Local\Temp\ccmBQqfl.s:30329  .debug_str:000000000002231c .LASF3707
C:\Users\CYMR90~1\AppData\Local\Temp\ccmBQqfl.s:23240  .debug_str:0000000000005cf8 .LASF3708
C:\Users\CYMR90~1\AppData\Local\Temp\ccmBQqfl.s:32705  .debug_str:000000000002b7b6 .LASF3709
C:\Users\CYMR90~1\AppData\Local\Temp\ccmBQqfl.s:25624  .debug_str:000000000000f4ea .LASF3710
C:\Users\CYMR90~1\AppData\Local\Temp\ccmBQqfl.s:29823  .debug_str:0000000000020449 .LASF3711
C:\Users\CYMR90~1\AppData\Local\Temp\ccmBQqfl.s:22726  .debug_str:0000000000003be7 .LASF3712
C:\Users\CYMR90~1\AppData\Local\Temp\ccmBQqfl.s:25702  .debug_str:000000000000fa52 .LASF3713
C:\Users\CYMR90~1\AppData\Local\Temp\ccmBQqfl.s:28493  .debug_str:000000000001afd2 .LASF3714
C:\Users\CYMR90~1\AppData\Local\Temp\ccmBQqfl.s:24214  .debug_str:0000000000009b7d .LASF3715
C:\Users\CYMR90~1\AppData\Local\Temp\ccmBQqfl.s:28531  .debug_str:000000000001b21e .LASF3716
C:\Users\CYMR90~1\AppData\Local\Temp\ccmBQqfl.s:22836  .debug_str:00000000000042e3 .LASF3717
C:\Users\CYMR90~1\AppData\Local\Temp\ccmBQqfl.s:30931  .debug_str:00000000000246fa .LASF3718
C:\Users\CYMR90~1\AppData\Local\Temp\ccmBQqfl.s:23850  .debug_str:000000000000840e .LASF3719
C:\Users\CYMR90~1\AppData\Local\Temp\ccmBQqfl.s:25466  .debug_str:000000000000eb28 .LASF3720
C:\Users\CYMR90~1\AppData\Local\Temp\ccmBQqfl.s:32385  .debug_str:000000000002a438 .LASF3721
C:\Users\CYMR90~1\AppData\Local\Temp\ccmBQqfl.s:23676  .debug_str:00000000000077e0 .LASF3722
C:\Users\CYMR90~1\AppData\Local\Temp\ccmBQqfl.s:29695  .debug_str:000000000001fc96 .LASF3723
C:\Users\CYMR90~1\AppData\Local\Temp\ccmBQqfl.s:22438  .debug_str:000000000000293e .LASF3724
C:\Users\CYMR90~1\AppData\Local\Temp\ccmBQqfl.s:27857  .debug_str:000000000001855b .LASF3725
C:\Users\CYMR90~1\AppData\Local\Temp\ccmBQqfl.s:31063  .debug_str:0000000000024ff6 .LASF3726
C:\Users\CYMR90~1\AppData\Local\Temp\ccmBQqfl.s:23858  .debug_str:000000000000848b .LASF3727
C:\Users\CYMR90~1\AppData\Local\Temp\ccmBQqfl.s:31341  .debug_str:00000000000262c7 .LASF3728
C:\Users\CYMR90~1\AppData\Local\Temp\ccmBQqfl.s:26420  .debug_str:0000000000012861 .LASF3729
C:\Users\CYMR90~1\AppData\Local\Temp\ccmBQqfl.s:28373  .debug_str:000000000001a7f2 .LASF3730
C:\Users\CYMR90~1\AppData\Local\Temp\ccmBQqfl.s:23532  .debug_str:0000000000006eac .LASF3731
C:\Users\CYMR90~1\AppData\Local\Temp\ccmBQqfl.s:26466  .debug_str:0000000000012b42 .LASF3732
C:\Users\CYMR90~1\AppData\Local\Temp\ccmBQqfl.s:29825  .debug_str:000000000002047b .LASF3733
C:\Users\CYMR90~1\AppData\Local\Temp\ccmBQqfl.s:26386  .debug_str:0000000000012637 .LASF3734
C:\Users\CYMR90~1\AppData\Local\Temp\ccmBQqfl.s:31379  .debug_str:0000000000026565 .LASF3735
C:\Users\CYMR90~1\AppData\Local\Temp\ccmBQqfl.s:22714  .debug_str:0000000000003b10 .LASF3736
C:\Users\CYMR90~1\AppData\Local\Temp\ccmBQqfl.s:31319  .debug_str:000000000002616f .LASF3737
C:\Users\CYMR90~1\AppData\Local\Temp\ccmBQqfl.s:25414  .debug_str:000000000000e7f3 .LASF3738
C:\Users\CYMR90~1\AppData\Local\Temp\ccmBQqfl.s:30939  .debug_str:0000000000024775 .LASF3739
C:\Users\CYMR90~1\AppData\Local\Temp\ccmBQqfl.s:27262  .debug_str:0000000000015d5f .LASF3740
C:\Users\CYMR90~1\AppData\Local\Temp\ccmBQqfl.s:27697  .debug_str:0000000000017b7c .LASF3741
C:\Users\CYMR90~1\AppData\Local\Temp\ccmBQqfl.s:24708  .debug_str:000000000000bb5f .LASF3742
C:\Users\CYMR90~1\AppData\Local\Temp\ccmBQqfl.s:27050  .debug_str:0000000000015099 .LASF3743
C:\Users\CYMR90~1\AppData\Local\Temp\ccmBQqfl.s:30031  .debug_str:00000000000210b3 .LASF3744
C:\Users\CYMR90~1\AppData\Local\Temp\ccmBQqfl.s:27072  .debug_str:0000000000015228 .LASF3745
C:\Users\CYMR90~1\AppData\Local\Temp\ccmBQqfl.s:31405  .debug_str:00000000000266e5 .LASF3746
C:\Users\CYMR90~1\AppData\Local\Temp\ccmBQqfl.s:28143  .debug_str:00000000000197b0 .LASF3747
C:\Users\CYMR90~1\AppData\Local\Temp\ccmBQqfl.s:26130  .debug_str:0000000000011511 .LASF3748
C:\Users\CYMR90~1\AppData\Local\Temp\ccmBQqfl.s:25570  .debug_str:000000000000f1b8 .LASF3749
C:\Users\CYMR90~1\AppData\Local\Temp\ccmBQqfl.s:22120  .debug_str:00000000000014b9 .LASF3750
C:\Users\CYMR90~1\AppData\Local\Temp\ccmBQqfl.s:21802  .debug_str:00000000000000ff .LASF3751
C:\Users\CYMR90~1\AppData\Local\Temp\ccmBQqfl.s:26698  .debug_str:0000000000013a9f .LASF3752
C:\Users\CYMR90~1\AppData\Local\Temp\ccmBQqfl.s:23162  .debug_str:000000000000585d .LASF3753
C:\Users\CYMR90~1\AppData\Local\Temp\ccmBQqfl.s:27955  .debug_str:0000000000018b49 .LASF3754
C:\Users\CYMR90~1\AppData\Local\Temp\ccmBQqfl.s:25308  .debug_str:000000000000e1b7 .LASF3755
C:\Users\CYMR90~1\AppData\Local\Temp\ccmBQqfl.s:24340  .debug_str:000000000000a341 .LASF3756
C:\Users\CYMR90~1\AppData\Local\Temp\ccmBQqfl.s:25804  .debug_str:000000000001008d .LASF3757
C:\Users\CYMR90~1\AppData\Local\Temp\ccmBQqfl.s:27659  .debug_str:000000000001790d .LASF3758
C:\Users\CYMR90~1\AppData\Local\Temp\ccmBQqfl.s:27514  .debug_str:0000000000016eb8 .LASF3759
C:\Users\CYMR90~1\AppData\Local\Temp\ccmBQqfl.s:26506  .debug_str:0000000000012e0d .LASF3760
C:\Users\CYMR90~1\AppData\Local\Temp\ccmBQqfl.s:28859  .debug_str:000000000001c71d .LASF3761
C:\Users\CYMR90~1\AppData\Local\Temp\ccmBQqfl.s:25418  .debug_str:000000000000e872 .LASF3762
C:\Users\CYMR90~1\AppData\Local\Temp\ccmBQqfl.s:21992  .debug_str:0000000000000cc8 .LASF3763
C:\Users\CYMR90~1\AppData\Local\Temp\ccmBQqfl.s:32121  .debug_str:000000000002946e .LASF3764
C:\Users\CYMR90~1\AppData\Local\Temp\ccmBQqfl.s:26566  .debug_str:00000000000131dd .LASF3765
C:\Users\CYMR90~1\AppData\Local\Temp\ccmBQqfl.s:29207  .debug_str:000000000001de8f .LASF3766
C:\Users\CYMR90~1\AppData\Local\Temp\ccmBQqfl.s:23426  .debug_str:0000000000006808 .LASF3767
C:\Users\CYMR90~1\AppData\Local\Temp\ccmBQqfl.s:22288  .debug_str:0000000000002019 .LASF3768
C:\Users\CYMR90~1\AppData\Local\Temp\ccmBQqfl.s:31177  .debug_str:0000000000025801 .LASF3769
C:\Users\CYMR90~1\AppData\Local\Temp\ccmBQqfl.s:30951  .debug_str:0000000000024858 .LASF3770
C:\Users\CYMR90~1\AppData\Local\Temp\ccmBQqfl.s:27531  .debug_str:000000000001718e .LASF3771
C:\Users\CYMR90~1\AppData\Local\Temp\ccmBQqfl.s:26836  .debug_str:00000000000142ed .LASF3772
C:\Users\CYMR90~1\AppData\Local\Temp\ccmBQqfl.s:32109  .debug_str:00000000000293b4 .LASF3773
C:\Users\CYMR90~1\AppData\Local\Temp\ccmBQqfl.s:28685  .debug_str:000000000001bc61 .LASF3774
C:\Users\CYMR90~1\AppData\Local\Temp\ccmBQqfl.s:22512  .debug_str:0000000000002e36 .LASF3775
C:\Users\CYMR90~1\AppData\Local\Temp\ccmBQqfl.s:32489  .debug_str:000000000002aa8c .LASF3776
C:\Users\CYMR90~1\AppData\Local\Temp\ccmBQqfl.s:32795  .debug_str:000000000002bdb9 .LASF3777
C:\Users\CYMR90~1\AppData\Local\Temp\ccmBQqfl.s:22622  .debug_str:000000000000353e .LASF3778
C:\Users\CYMR90~1\AppData\Local\Temp\ccmBQqfl.s:23024  .debug_str:0000000000004fe3 .LASF3779
C:\Users\CYMR90~1\AppData\Local\Temp\ccmBQqfl.s:33021  .debug_str:000000000002ccbc .LASF3780
C:\Users\CYMR90~1\AppData\Local\Temp\ccmBQqfl.s:26260  .debug_str:0000000000011e23 .LASF3781
C:\Users\CYMR90~1\AppData\Local\Temp\ccmBQqfl.s:22810  .debug_str:0000000000004164 .LASF3782
C:\Users\CYMR90~1\AppData\Local\Temp\ccmBQqfl.s:30817  .debug_str:0000000000024013 .LASF3783
C:\Users\CYMR90~1\AppData\Local\Temp\ccmBQqfl.s:27364  .debug_str:0000000000016497 .LASF3784
C:\Users\CYMR90~1\AppData\Local\Temp\ccmBQqfl.s:25818  .debug_str:00000000000101a0 .LASF3785
C:\Users\CYMR90~1\AppData\Local\Temp\ccmBQqfl.s:31961  .debug_str:0000000000028ad9 .LASF3786
C:\Users\CYMR90~1\AppData\Local\Temp\ccmBQqfl.s:29967  .debug_str:0000000000020cd1 .LASF3787
C:\Users\CYMR90~1\AppData\Local\Temp\ccmBQqfl.s:23816  .debug_str:0000000000008167 .LASF3788
C:\Users\CYMR90~1\AppData\Local\Temp\ccmBQqfl.s:31803  .debug_str:0000000000027fa3 .LASF3789
C:\Users\CYMR90~1\AppData\Local\Temp\ccmBQqfl.s:28395  .debug_str:000000000001a8fc .LASF3790
C:\Users\CYMR90~1\AppData\Local\Temp\ccmBQqfl.s:24994  .debug_str:000000000000ce37 .LASF3791
C:\Users\CYMR90~1\AppData\Local\Temp\ccmBQqfl.s:32969  .debug_str:000000000002c9ab .LASF3792
C:\Users\CYMR90~1\AppData\Local\Temp\ccmBQqfl.s:22924  .debug_str:0000000000004900 .LASF3793
C:\Users\CYMR90~1\AppData\Local\Temp\ccmBQqfl.s:26134  .debug_str:000000000001154c .LASF3794
C:\Users\CYMR90~1\AppData\Local\Temp\ccmBQqfl.s:29041  .debug_str:000000000001d394 .LASF3795
C:\Users\CYMR90~1\AppData\Local\Temp\ccmBQqfl.s:30681  .debug_str:0000000000023771 .LASF3796
C:\Users\CYMR90~1\AppData\Local\Temp\ccmBQqfl.s:32041  .debug_str:0000000000028ff2 .LASF3797
C:\Users\CYMR90~1\AppData\Local\Temp\ccmBQqfl.s:22516  .debug_str:0000000000002e8f .LASF3798
C:\Users\CYMR90~1\AppData\Local\Temp\ccmBQqfl.s:30523  .debug_str:0000000000022e86 .LASF3799
C:\Users\CYMR90~1\AppData\Local\Temp\ccmBQqfl.s:27080  .debug_str:00000000000152a8 .LASF3800
C:\Users\CYMR90~1\AppData\Local\Temp\ccmBQqfl.s:23670  .debug_str:0000000000007783 .LASF3801
C:\Users\CYMR90~1\AppData\Local\Temp\ccmBQqfl.s:23792  .debug_str:0000000000007fb8 .LASF3802
C:\Users\CYMR90~1\AppData\Local\Temp\ccmBQqfl.s:23788  .debug_str:0000000000007f77 .LASF3803
C:\Users\CYMR90~1\AppData\Local\Temp\ccmBQqfl.s:24842  .debug_str:000000000000c44b .LASF3804
C:\Users\CYMR90~1\AppData\Local\Temp\ccmBQqfl.s:32825  .debug_str:000000000002bfce .LASF3805
C:\Users\CYMR90~1\AppData\Local\Temp\ccmBQqfl.s:22430  .debug_str:000000000000289f .LASF3806
C:\Users\CYMR90~1\AppData\Local\Temp\ccmBQqfl.s:30837  .debug_str:0000000000024131 .LASF3807
C:\Users\CYMR90~1\AppData\Local\Temp\ccmBQqfl.s:32757  .debug_str:000000000002bb1d .LASF3808
C:\Users\CYMR90~1\AppData\Local\Temp\ccmBQqfl.s:29209  .debug_str:000000000001deb3 .LASF3809
C:\Users\CYMR90~1\AppData\Local\Temp\ccmBQqfl.s:25844  .debug_str:0000000000010323 .LASF3810
C:\Users\CYMR90~1\AppData\Local\Temp\ccmBQqfl.s:22230  .debug_str:0000000000001c8c .LASF3811
C:\Users\CYMR90~1\AppData\Local\Temp\ccmBQqfl.s:30383  .debug_str:0000000000022624 .LASF3812
C:\Users\CYMR90~1\AppData\Local\Temp\ccmBQqfl.s:26944  .debug_str:00000000000149dc .LASF3813
C:\Users\CYMR90~1\AppData\Local\Temp\ccmBQqfl.s:25634  .debug_str:000000000000f5b7 .LASF3814
C:\Users\CYMR90~1\AppData\Local\Temp\ccmBQqfl.s:28223  .debug_str:0000000000019d54 .LASF3815
C:\Users\CYMR90~1\AppData\Local\Temp\ccmBQqfl.s:28109  .debug_str:000000000001959b .LASF3816
C:\Users\CYMR90~1\AppData\Local\Temp\ccmBQqfl.s:29519  .debug_str:000000000001f1b6 .LASF3817
C:\Users\CYMR90~1\AppData\Local\Temp\ccmBQqfl.s:31453  .debug_str:0000000000026990 .LASF3818
C:\Users\CYMR90~1\AppData\Local\Temp\ccmBQqfl.s:29591  .debug_str:000000000001f60f .LASF3819
C:\Users\CYMR90~1\AppData\Local\Temp\ccmBQqfl.s:24150  .debug_str:0000000000009731 .LASF3820
C:\Users\CYMR90~1\AppData\Local\Temp\ccmBQqfl.s:32607  .debug_str:000000000002b1a6 .LASF3821
C:\Users\CYMR90~1\AppData\Local\Temp\ccmBQqfl.s:29081  .debug_str:000000000001d694 .LASF3822
C:\Users\CYMR90~1\AppData\Local\Temp\ccmBQqfl.s:30321  .debug_str:0000000000022292 .LASF3823
C:\Users\CYMR90~1\AppData\Local\Temp\ccmBQqfl.s:22238  .debug_str:0000000000001d1c .LASF3824
C:\Users\CYMR90~1\AppData\Local\Temp\ccmBQqfl.s:30237  .debug_str:0000000000021d6e .LASF3825
C:\Users\CYMR90~1\AppData\Local\Temp\ccmBQqfl.s:26796  .debug_str:000000000001408c .LASF3826
C:\Users\CYMR90~1\AppData\Local\Temp\ccmBQqfl.s:29517  .debug_str:000000000001f192 .LASF3827
C:\Users\CYMR90~1\AppData\Local\Temp\ccmBQqfl.s:30173  .debug_str:00000000000218db .LASF3828
C:\Users\CYMR90~1\AppData\Local\Temp\ccmBQqfl.s:26740  .debug_str:0000000000013d2e .LASF3829
C:\Users\CYMR90~1\AppData\Local\Temp\ccmBQqfl.s:31471  .debug_str:0000000000026a96 .LASF3830
C:\Users\CYMR90~1\AppData\Local\Temp\ccmBQqfl.s:31305  .debug_str:00000000000260a1 .LASF3831
C:\Users\CYMR90~1\AppData\Local\Temp\ccmBQqfl.s:27881  .debug_str:00000000000186d6 .LASF3832
C:\Users\CYMR90~1\AppData\Local\Temp\ccmBQqfl.s:24492  .debug_str:000000000000acab .LASF3833
C:\Users\CYMR90~1\AppData\Local\Temp\ccmBQqfl.s:32457  .debug_str:000000000002a85f .LASF3834
C:\Users\CYMR90~1\AppData\Local\Temp\ccmBQqfl.s:30389  .debug_str:0000000000022691 .LASF3835
C:\Users\CYMR90~1\AppData\Local\Temp\ccmBQqfl.s:29225  .debug_str:000000000001df9c .LASF3836
C:\Users\CYMR90~1\AppData\Local\Temp\ccmBQqfl.s:23584  .debug_str:000000000000722f .LASF3837
C:\Users\CYMR90~1\AppData\Local\Temp\ccmBQqfl.s:23726  .debug_str:0000000000007b2d .LASF3838
C:\Users\CYMR90~1\AppData\Local\Temp\ccmBQqfl.s:27767  .debug_str:0000000000017fff .LASF3839
C:\Users\CYMR90~1\AppData\Local\Temp\ccmBQqfl.s:31745  .debug_str:0000000000027bd6 .LASF3840
C:\Users\CYMR90~1\AppData\Local\Temp\ccmBQqfl.s:24316  .debug_str:000000000000a1c1 .LASF3841
C:\Users\CYMR90~1\AppData\Local\Temp\ccmBQqfl.s:32895  .debug_str:000000000002c4af .LASF3842
C:\Users\CYMR90~1\AppData\Local\Temp\ccmBQqfl.s:23832  .debug_str:0000000000008307 .LASF3843
C:\Users\CYMR90~1\AppData\Local\Temp\ccmBQqfl.s:26198  .debug_str:0000000000011946 .LASF3844
C:\Users\CYMR90~1\AppData\Local\Temp\ccmBQqfl.s:28737  .debug_str:000000000001bf2f .LASF3845
C:\Users\CYMR90~1\AppData\Local\Temp\ccmBQqfl.s:32813  .debug_str:000000000002bf1b .LASF3846
C:\Users\CYMR90~1\AppData\Local\Temp\ccmBQqfl.s:26882  .debug_str:00000000000145dd .LASF3847
C:\Users\CYMR90~1\AppData\Local\Temp\ccmBQqfl.s:29345  .debug_str:000000000001e734 .LASF3848
C:\Users\CYMR90~1\AppData\Local\Temp\ccmBQqfl.s:31679  .debug_str:00000000000277f6 .LASF3849
C:\Users\CYMR90~1\AppData\Local\Temp\ccmBQqfl.s:22660  .debug_str:00000000000037b1 .LASF3850
C:\Users\CYMR90~1\AppData\Local\Temp\ccmBQqfl.s:30065  .debug_str:00000000000212ce .LASF3851
C:\Users\CYMR90~1\AppData\Local\Temp\ccmBQqfl.s:22568  .debug_str:0000000000003196 .LASF3852
C:\Users\CYMR90~1\AppData\Local\Temp\ccmBQqfl.s:29701  .debug_str:000000000001fcfa .LASF3853
C:\Users\CYMR90~1\AppData\Local\Temp\ccmBQqfl.s:32073  .debug_str:0000000000029182 .LASF3854
C:\Users\CYMR90~1\AppData\Local\Temp\ccmBQqfl.s:26522  .debug_str:0000000000012ede .LASF3855
C:\Users\CYMR90~1\AppData\Local\Temp\ccmBQqfl.s:25306  .debug_str:000000000000e191 .LASF3856
C:\Users\CYMR90~1\AppData\Local\Temp\ccmBQqfl.s:22328  .debug_str:0000000000002255 .LASF3857
C:\Users\CYMR90~1\AppData\Local\Temp\ccmBQqfl.s:23856  .debug_str:0000000000008465 .LASF3858
C:\Users\CYMR90~1\AppData\Local\Temp\ccmBQqfl.s:26224  .debug_str:0000000000011b90 .LASF3859
C:\Users\CYMR90~1\AppData\Local\Temp\ccmBQqfl.s:28135  .debug_str:000000000001973f .LASF3860
C:\Users\CYMR90~1\AppData\Local\Temp\ccmBQqfl.s:29705  .debug_str:000000000001fd39 .LASF3861
C:\Users\CYMR90~1\AppData\Local\Temp\ccmBQqfl.s:21876  .debug_str:0000000000000551 .LASF3862
C:\Users\CYMR90~1\AppData\Local\Temp\ccmBQqfl.s:28617  .debug_str:000000000001b81e .LASF3863
C:\Users\CYMR90~1\AppData\Local\Temp\ccmBQqfl.s:32671  .debug_str:000000000002b549 .LASF3864
C:\Users\CYMR90~1\AppData\Local\Temp\ccmBQqfl.s:25238  .debug_str:000000000000dd94 .LASF3865
C:\Users\CYMR90~1\AppData\Local\Temp\ccmBQqfl.s:24244  .debug_str:0000000000009d7c .LASF3866
C:\Users\CYMR90~1\AppData\Local\Temp\ccmBQqfl.s:28173  .debug_str:0000000000019958 .LASF3867
C:\Users\CYMR90~1\AppData\Local\Temp\ccmBQqfl.s:24116  .debug_str:0000000000009538 .LASF3868
C:\Users\CYMR90~1\AppData\Local\Temp\ccmBQqfl.s:28073  .debug_str:00000000000192b5 .LASF3869
C:\Users\CYMR90~1\AppData\Local\Temp\ccmBQqfl.s:32031  .debug_str:0000000000028f5e .LASF3870
C:\Users\CYMR90~1\AppData\Local\Temp\ccmBQqfl.s:27014  .debug_str:0000000000014e2c .LASF3871
C:\Users\CYMR90~1\AppData\Local\Temp\ccmBQqfl.s:28565  .debug_str:000000000001b48c .LASF3872
C:\Users\CYMR90~1\AppData\Local\Temp\ccmBQqfl.s:32605  .debug_str:000000000002b180 .LASF3873
C:\Users\CYMR90~1\AppData\Local\Temp\ccmBQqfl.s:25172  .debug_str:000000000000d9c6 .LASF3874
C:\Users\CYMR90~1\AppData\Local\Temp\ccmBQqfl.s:29103  .debug_str:000000000001d7d4 .LASF3875
C:\Users\CYMR90~1\AppData\Local\Temp\ccmBQqfl.s:26654  .debug_str:00000000000137dc .LASF3876
C:\Users\CYMR90~1\AppData\Local\Temp\ccmBQqfl.s:30129  .debug_str:000000000002166a .LASF3877
C:\Users\CYMR90~1\AppData\Local\Temp\ccmBQqfl.s:31873  .debug_str:0000000000028486 .LASF3878
C:\Users\CYMR90~1\AppData\Local\Temp\ccmBQqfl.s:29173  .debug_str:000000000001dc6f .LASF3879
C:\Users\CYMR90~1\AppData\Local\Temp\ccmBQqfl.s:24542  .debug_str:000000000000afa5 .LASF3880
C:\Users\CYMR90~1\AppData\Local\Temp\ccmBQqfl.s:28503  .debug_str:000000000001b07c .LASF3881
C:\Users\CYMR90~1\AppData\Local\Temp\ccmBQqfl.s:32533  .debug_str:000000000002ad25 .LASF3882
C:\Users\CYMR90~1\AppData\Local\Temp\ccmBQqfl.s:27821  .debug_str:0000000000018339 .LASF3883
C:\Users\CYMR90~1\AppData\Local\Temp\ccmBQqfl.s:26620  .debug_str:000000000001358d .LASF3884
C:\Users\CYMR90~1\AppData\Local\Temp\ccmBQqfl.s:33025  .debug_str:000000000002ccf7 .LASF3885
C:\Users\CYMR90~1\AppData\Local\Temp\ccmBQqfl.s:23646  .debug_str:0000000000007638 .LASF3886
C:\Users\CYMR90~1\AppData\Local\Temp\ccmBQqfl.s:22604  .debug_str:000000000000340a .LASF3887
C:\Users\CYMR90~1\AppData\Local\Temp\ccmBQqfl.s:31897  .debug_str:0000000000028626 .LASF3888
C:\Users\CYMR90~1\AppData\Local\Temp\ccmBQqfl.s:32477  .debug_str:000000000002a9df .LASF3889
C:\Users\CYMR90~1\AppData\Local\Temp\ccmBQqfl.s:31253  .debug_str:0000000000025ce6 .LASF3890
C:\Users\CYMR90~1\AppData\Local\Temp\ccmBQqfl.s:32467  .debug_str:000000000002a908 .LASF3891
C:\Users\CYMR90~1\AppData\Local\Temp\ccmBQqfl.s:25048  .debug_str:000000000000d178 .LASF3892
C:\Users\CYMR90~1\AppData\Local\Temp\ccmBQqfl.s:28977  .debug_str:000000000001ced9 .LASF3893
C:\Users\CYMR90~1\AppData\Local\Temp\ccmBQqfl.s:32965  .debug_str:000000000002c95e .LASF3894
C:\Users\CYMR90~1\AppData\Local\Temp\ccmBQqfl.s:22978  .debug_str:0000000000004d04 .LASF3895
C:\Users\CYMR90~1\AppData\Local\Temp\ccmBQqfl.s:27004  .debug_str:0000000000014dab .LASF3896
C:\Users\CYMR90~1\AppData\Local\Temp\ccmBQqfl.s:26536  .debug_str:0000000000012fdf .LASF3897
C:\Users\CYMR90~1\AppData\Local\Temp\ccmBQqfl.s:24406  .debug_str:000000000000a79e .LASF3898
C:\Users\CYMR90~1\AppData\Local\Temp\ccmBQqfl.s:28353  .debug_str:000000000001a500 .LASF3899
C:\Users\CYMR90~1\AppData\Local\Temp\ccmBQqfl.s:28017  .debug_str:0000000000018f5b .LASF3900
C:\Users\CYMR90~1\AppData\Local\Temp\ccmBQqfl.s:28749  .debug_str:000000000001c017 .LASF3901
C:\Users\CYMR90~1\AppData\Local\Temp\ccmBQqfl.s:28905  .debug_str:000000000001c9b0 .LASF3902
C:\Users\CYMR90~1\AppData\Local\Temp\ccmBQqfl.s:30239  .debug_str:0000000000021d92 .LASF3903
C:\Users\CYMR90~1\AppData\Local\Temp\ccmBQqfl.s:25448  .debug_str:000000000000ea22 .LASF3904
C:\Users\CYMR90~1\AppData\Local\Temp\ccmBQqfl.s:29369  .debug_str:000000000001e88e .LASF3905
C:\Users\CYMR90~1\AppData\Local\Temp\ccmBQqfl.s:21964  .debug_str:0000000000000af6 .LASF3906
C:\Users\CYMR90~1\AppData\Local\Temp\ccmBQqfl.s:28911  .debug_str:000000000001ca0a .LASF3907
C:\Users\CYMR90~1\AppData\Local\Temp\ccmBQqfl.s:30515  .debug_str:0000000000022df6 .LASF3908
C:\Users\CYMR90~1\AppData\Local\Temp\ccmBQqfl.s:32333  .debug_str:000000000002a158 .LASF3909
C:\Users\CYMR90~1\AppData\Local\Temp\ccmBQqfl.s:24912  .debug_str:000000000000c893 .LASF3910
C:\Users\CYMR90~1\AppData\Local\Temp\ccmBQqfl.s:27026  .debug_str:0000000000014ee2 .LASF3911
C:\Users\CYMR90~1\AppData\Local\Temp\ccmBQqfl.s:32829  .debug_str:000000000002c005 .LASF3912
C:\Users\CYMR90~1\AppData\Local\Temp\ccmBQqfl.s:29395  .debug_str:000000000001ea22 .LASF3913
C:\Users\CYMR90~1\AppData\Local\Temp\ccmBQqfl.s:29305  .debug_str:000000000001e4e3 .LASF3914
C:\Users\CYMR90~1\AppData\Local\Temp\ccmBQqfl.s:21906  .debug_str:0000000000000734 .LASF3915
C:\Users\CYMR90~1\AppData\Local\Temp\ccmBQqfl.s:33009  .debug_str:000000000002cbd6 .LASF3916
C:\Users\CYMR90~1\AppData\Local\Temp\ccmBQqfl.s:22890  .debug_str:00000000000046a6 .LASF3917
C:\Users\CYMR90~1\AppData\Local\Temp\ccmBQqfl.s:32273  .debug_str:0000000000029dd5 .LASF3918
C:\Users\CYMR90~1\AppData\Local\Temp\ccmBQqfl.s:24846  .debug_str:000000000000c488 .LASF3919
C:\Users\CYMR90~1\AppData\Local\Temp\ccmBQqfl.s:30599  .debug_str:0000000000023317 .LASF3920
C:\Users\CYMR90~1\AppData\Local\Temp\ccmBQqfl.s:32771  .debug_str:000000000002bc06 .LASF3921
C:\Users\CYMR90~1\AppData\Local\Temp\ccmBQqfl.s:25328  .debug_str:000000000000e2d3 .LASF3922
C:\Users\CYMR90~1\AppData\Local\Temp\ccmBQqfl.s:23188  .debug_str:0000000000005a0a .LASF3923
C:\Users\CYMR90~1\AppData\Local\Temp\ccmBQqfl.s:21836  .debug_str:000000000000030e .LASF3924
C:\Users\CYMR90~1\AppData\Local\Temp\ccmBQqfl.s:26400  .debug_str:000000000001270a .LASF3925
C:\Users\CYMR90~1\AppData\Local\Temp\ccmBQqfl.s:22760  .debug_str:0000000000003de6 .LASF3926
C:\Users\CYMR90~1\AppData\Local\Temp\ccmBQqfl.s:26868  .debug_str:0000000000014508 .LASF3927
C:\Users\CYMR90~1\AppData\Local\Temp\ccmBQqfl.s:24780  .debug_str:000000000000c06f .LASF3928
C:\Users\CYMR90~1\AppData\Local\Temp\ccmBQqfl.s:22122  .debug_str:00000000000014dd .LASF3929
C:\Users\CYMR90~1\AppData\Local\Temp\ccmBQqfl.s:32693  .debug_str:000000000002b701 .LASF3930
C:\Users\CYMR90~1\AppData\Local\Temp\ccmBQqfl.s:29577  .debug_str:000000000001f523 .LASF3931
C:\Users\CYMR90~1\AppData\Local\Temp\ccmBQqfl.s:29761  .debug_str:0000000000020093 .LASF3932
C:\Users\CYMR90~1\AppData\Local\Temp\ccmBQqfl.s:33167  .debug_str:000000000002d634 .LASF3933
C:\Users\CYMR90~1\AppData\Local\Temp\ccmBQqfl.s:22116  .debug_str:0000000000001481 .LASF3934
C:\Users\CYMR90~1\AppData\Local\Temp\ccmBQqfl.s:26330  .debug_str:0000000000012269 .LASF3935
C:\Users\CYMR90~1\AppData\Local\Temp\ccmBQqfl.s:28671  .debug_str:000000000001bb89 .LASF3936
C:\Users\CYMR90~1\AppData\Local\Temp\ccmBQqfl.s:31365  .debug_str:000000000002642d .LASF3937
C:\Users\CYMR90~1\AppData\Local\Temp\ccmBQqfl.s:27052  .debug_str:00000000000150bb .LASF3938
C:\Users\CYMR90~1\AppData\Local\Temp\ccmBQqfl.s:30313  .debug_str:000000000002221c .LASF3939
C:\Users\CYMR90~1\AppData\Local\Temp\ccmBQqfl.s:22560  .debug_str:0000000000003121 .LASF3940
C:\Users\CYMR90~1\AppData\Local\Temp\ccmBQqfl.s:23900  .debug_str:000000000000872d .LASF3941
C:\Users\CYMR90~1\AppData\Local\Temp\ccmBQqfl.s:27851  .debug_str:00000000000184fe .LASF3942
C:\Users\CYMR90~1\AppData\Local\Temp\ccmBQqfl.s:31823  .debug_str:00000000000280f8 .LASF3943
C:\Users\CYMR90~1\AppData\Local\Temp\ccmBQqfl.s:31815  .debug_str:000000000002806e .LASF3944
C:\Users\CYMR90~1\AppData\Local\Temp\ccmBQqfl.s:33027  .debug_str:000000000002cd1d .LASF3945
C:\Users\CYMR90~1\AppData\Local\Temp\ccmBQqfl.s:32389  .debug_str:000000000002a481 .LASF3946
C:\Users\CYMR90~1\AppData\Local\Temp\ccmBQqfl.s:24026  .debug_str:0000000000008fe0 .LASF3947
C:\Users\CYMR90~1\AppData\Local\Temp\ccmBQqfl.s:22444  .debug_str:00000000000029c3 .LASF3948
C:\Users\CYMR90~1\AppData\Local\Temp\ccmBQqfl.s:31269  .debug_str:0000000000025e73 .LASF3949
C:\Users\CYMR90~1\AppData\Local\Temp\ccmBQqfl.s:23838  .debug_str:000000000000834b .LASF3950
C:\Users\CYMR90~1\AppData\Local\Temp\ccmBQqfl.s:27779  .debug_str:00000000000180ad .LASF3951
C:\Users\CYMR90~1\AppData\Local\Temp\ccmBQqfl.s:31941  .debug_str:0000000000028972 .LASF3952
C:\Users\CYMR90~1\AppData\Local\Temp\ccmBQqfl.s:22784  .debug_str:0000000000003f90 .LASF3953
C:\Users\CYMR90~1\AppData\Local\Temp\ccmBQqfl.s:28271  .debug_str:000000000001a040 .LASF3954
C:\Users\CYMR90~1\AppData\Local\Temp\ccmBQqfl.s:27977  .debug_str:0000000000018cb7 .LASF3955
C:\Users\CYMR90~1\AppData\Local\Temp\ccmBQqfl.s:30751  .debug_str:0000000000023bdb .LASF3956
C:\Users\CYMR90~1\AppData\Local\Temp\ccmBQqfl.s:29797  .debug_str:00000000000202ba .LASF3957
C:\Users\CYMR90~1\AppData\Local\Temp\ccmBQqfl.s:28335  .debug_str:000000000001a3ff .LASF3958
C:\Users\CYMR90~1\AppData\Local\Temp\ccmBQqfl.s:33115  .debug_str:000000000002d31f .LASF3959
C:\Users\CYMR90~1\AppData\Local\Temp\ccmBQqfl.s:27719  .debug_str:0000000000017d1f .LASF3960
C:\Users\CYMR90~1\AppData\Local\Temp\ccmBQqfl.s:23994  .debug_str:0000000000008d93 .LASF3961
C:\Users\CYMR90~1\AppData\Local\Temp\ccmBQqfl.s:28445  .debug_str:000000000001acae .LASF3962
C:\Users\CYMR90~1\AppData\Local\Temp\ccmBQqfl.s:28691  .debug_str:000000000001bccb .LASF3963
C:\Users\CYMR90~1\AppData\Local\Temp\ccmBQqfl.s:32263  .debug_str:0000000000029d4b .LASF3964
C:\Users\CYMR90~1\AppData\Local\Temp\ccmBQqfl.s:24836  .debug_str:000000000000c3f8 .LASF3965
C:\Users\CYMR90~1\AppData\Local\Temp\ccmBQqfl.s:25252  .debug_str:000000000000de3b .LASF3966
C:\Users\CYMR90~1\AppData\Local\Temp\ccmBQqfl.s:28059  .debug_str:00000000000191d7 .LASF3967
C:\Users\CYMR90~1\AppData\Local\Temp\ccmBQqfl.s:23698  .debug_str:0000000000007957 .LASF3968
C:\Users\CYMR90~1\AppData\Local\Temp\ccmBQqfl.s:27649  .debug_str:0000000000017883 .LASF3969
C:\Users\CYMR90~1\AppData\Local\Temp\ccmBQqfl.s:30733  .debug_str:0000000000023a8a .LASF3970
C:\Users\CYMR90~1\AppData\Local\Temp\ccmBQqfl.s:24204  .debug_str:0000000000009a8f .LASF3971
C:\Users\CYMR90~1\AppData\Local\Temp\ccmBQqfl.s:33081  .debug_str:000000000002d0a1 .LASF3972
C:\Users\CYMR90~1\AppData\Local\Temp\ccmBQqfl.s:32201  .debug_str:0000000000029950 .LASF3973
C:\Users\CYMR90~1\AppData\Local\Temp\ccmBQqfl.s:24774  .debug_str:000000000000bff6 .LASF3974
C:\Users\CYMR90~1\AppData\Local\Temp\ccmBQqfl.s:28763  .debug_str:000000000001c0ec .LASF3975
C:\Users\CYMR90~1\AppData\Local\Temp\ccmBQqfl.s:31111  .debug_str:0000000000025335 .LASF3976
C:\Users\CYMR90~1\AppData\Local\Temp\ccmBQqfl.s:27110  .debug_str:0000000000015499 .LASF3977
C:\Users\CYMR90~1\AppData\Local\Temp\ccmBQqfl.s:27593  .debug_str:0000000000017548 .LASF3978
C:\Users\CYMR90~1\AppData\Local\Temp\ccmBQqfl.s:29063  .debug_str:000000000001d58b .LASF3979
C:\Users\CYMR90~1\AppData\Local\Temp\ccmBQqfl.s:22020  .debug_str:0000000000000e84 .LASF3980
C:\Users\CYMR90~1\AppData\Local\Temp\ccmBQqfl.s:28087  .debug_str:0000000000019466 .LASF3981
C:\Users\CYMR90~1\AppData\Local\Temp\ccmBQqfl.s:27599  .debug_str:00000000000175b4 .LASF3982
C:\Users\CYMR90~1\AppData\Local\Temp\ccmBQqfl.s:24710  .debug_str:000000000000bb81 .LASF3983
C:\Users\CYMR90~1\AppData\Local\Temp\ccmBQqfl.s:32311  .debug_str:000000000002a018 .LASF3984
C:\Users\CYMR90~1\AppData\Local\Temp\ccmBQqfl.s:32617  .debug_str:000000000002b23a .LASF3985
C:\Users\CYMR90~1\AppData\Local\Temp\ccmBQqfl.s:25628  .debug_str:000000000000f547 .LASF3986
C:\Users\CYMR90~1\AppData\Local\Temp\ccmBQqfl.s:33033  .debug_str:000000000002cd96 .LASF3987
C:\Users\CYMR90~1\AppData\Local\Temp\ccmBQqfl.s:31495  .debug_str:0000000000026c47 .LASF3988
C:\Users\CYMR90~1\AppData\Local\Temp\ccmBQqfl.s:25576  .debug_str:000000000000f206 .LASF3989
C:\Users\CYMR90~1\AppData\Local\Temp\ccmBQqfl.s:28019  .debug_str:0000000000018f81 .LASF3990
C:\Users\CYMR90~1\AppData\Local\Temp\ccmBQqfl.s:26560  .debug_str:0000000000013178 .LASF3991
C:\Users\CYMR90~1\AppData\Local\Temp\ccmBQqfl.s:30965  .debug_str:000000000002494f .LASF3992
C:\Users\CYMR90~1\AppData\Local\Temp\ccmBQqfl.s:28599  .debug_str:000000000001b6fc .LASF3993
C:\Users\CYMR90~1\AppData\Local\Temp\ccmBQqfl.s:32547  .debug_str:000000000002add6 .LASF3994
C:\Users\CYMR90~1\AppData\Local\Temp\ccmBQqfl.s:25128  .debug_str:000000000000d708 .LASF3995
C:\Users\CYMR90~1\AppData\Local\Temp\ccmBQqfl.s:31497  .debug_str:0000000000026c6d .LASF3996
C:\Users\CYMR90~1\AppData\Local\Temp\ccmBQqfl.s:27494  .debug_str:0000000000016cf3 .LASF3997
C:\Users\CYMR90~1\AppData\Local\Temp\ccmBQqfl.s:23998  .debug_str:0000000000008dcd .LASF3998
C:\Users\CYMR90~1\AppData\Local\Temp\ccmBQqfl.s:27945  .debug_str:0000000000018a84 .LASF3999
C:\Users\CYMR90~1\AppData\Local\Temp\ccmBQqfl.s:25992  .debug_str:0000000000010cae .LASF4000
C:\Users\CYMR90~1\AppData\Local\Temp\ccmBQqfl.s:24580  .debug_str:000000000000b2d9 .LASF4001
C:\Users\CYMR90~1\AppData\Local\Temp\ccmBQqfl.s:27979  .debug_str:0000000000018cdd .LASF4002
C:\Users\CYMR90~1\AppData\Local\Temp\ccmBQqfl.s:28191  .debug_str:0000000000019ac4 .LASF4003
C:\Users\CYMR90~1\AppData\Local\Temp\ccmBQqfl.s:32699  .debug_str:000000000002b757 .LASF4004
C:\Users\CYMR90~1\AppData\Local\Temp\ccmBQqfl.s:23622  .debug_str:00000000000074d7 .LASF4005
C:\Users\CYMR90~1\AppData\Local\Temp\ccmBQqfl.s:32979  .debug_str:000000000002ca3f .LASF4006
C:\Users\CYMR90~1\AppData\Local\Temp\ccmBQqfl.s:30017  .debug_str:0000000000020ff5 .LASF4007
C:\Users\CYMR90~1\AppData\Local\Temp\ccmBQqfl.s:23568  .debug_str:0000000000007118 .LASF4008
C:\Users\CYMR90~1\AppData\Local\Temp\ccmBQqfl.s:31933  .debug_str:00000000000288fc .LASF4009
C:\Users\CYMR90~1\AppData\Local\Temp\ccmBQqfl.s:24512  .debug_str:000000000000adda .LASF4010
C:\Users\CYMR90~1\AppData\Local\Temp\ccmBQqfl.s:23178  .debug_str:0000000000005932 .LASF4011
C:\Users\CYMR90~1\AppData\Local\Temp\ccmBQqfl.s:23938  .debug_str:0000000000008962 .LASF4012
C:\Users\CYMR90~1\AppData\Local\Temp\ccmBQqfl.s:25002  .debug_str:000000000000ceb1 .LASF4013
C:\Users\CYMR90~1\AppData\Local\Temp\ccmBQqfl.s:28923  .debug_str:000000000001cacc .LASF4014
C:\Users\CYMR90~1\AppData\Local\Temp\ccmBQqfl.s:32905  .debug_str:000000000002c529 .LASF4015
C:\Users\CYMR90~1\AppData\Local\Temp\ccmBQqfl.s:25564  .debug_str:000000000000f159 .LASF4016
C:\Users\CYMR90~1\AppData\Local\Temp\ccmBQqfl.s:29737  .debug_str:000000000001ff12 .LASF4017
C:\Users\CYMR90~1\AppData\Local\Temp\ccmBQqfl.s:28839  .debug_str:000000000001c602 .LASF4018
C:\Users\CYMR90~1\AppData\Local\Temp\ccmBQqfl.s:32727  .debug_str:000000000002b93a .LASF4019
C:\Users\CYMR90~1\AppData\Local\Temp\ccmBQqfl.s:28401  .debug_str:000000000001a951 .LASF4020
C:\Users\CYMR90~1\AppData\Local\Temp\ccmBQqfl.s:31071  .debug_str:0000000000025097 .LASF4021
C:\Users\CYMR90~1\AppData\Local\Temp\ccmBQqfl.s:28371  .debug_str:000000000001a7cc .LASF4022
C:\Users\CYMR90~1\AppData\Local\Temp\ccmBQqfl.s:28851  .debug_str:000000000001c6a1 .LASF4023
C:\Users\CYMR90~1\AppData\Local\Temp\ccmBQqfl.s:33075  .debug_str:000000000002d047 .LASF4024
C:\Users\CYMR90~1\AppData\Local\Temp\ccmBQqfl.s:24926  .debug_str:000000000000c963 .LASF4025
C:\Users\CYMR90~1\AppData\Local\Temp\ccmBQqfl.s:25100  .debug_str:000000000000d4fc .LASF4026
C:\Users\CYMR90~1\AppData\Local\Temp\ccmBQqfl.s:23248  .debug_str:0000000000005dbe .LASF4027
C:\Users\CYMR90~1\AppData\Local\Temp\ccmBQqfl.s:24376  .debug_str:000000000000a56c .LASF4028
C:\Users\CYMR90~1\AppData\Local\Temp\ccmBQqfl.s:28317  .debug_str:000000000001a2eb .LASF4029
C:\Users\CYMR90~1\AppData\Local\Temp\ccmBQqfl.s:32285  .debug_str:0000000000029e92 .LASF4030
C:\Users\CYMR90~1\AppData\Local\Temp\ccmBQqfl.s:24862  .debug_str:000000000000c574 .LASF4031
C:\Users\CYMR90~1\AppData\Local\Temp\ccmBQqfl.s:28791  .debug_str:000000000001c2e8 .LASF4032
C:\Users\CYMR90~1\AppData\Local\Temp\ccmBQqfl.s:29035  .debug_str:000000000001d341 .LASF4033
C:\Users\CYMR90~1\AppData\Local\Temp\ccmBQqfl.s:28465  .debug_str:000000000001ae08 .LASF4034
C:\Users\CYMR90~1\AppData\Local\Temp\ccmBQqfl.s:29341  .debug_str:000000000001e6fe .LASF4035
C:\Users\CYMR90~1\AppData\Local\Temp\ccmBQqfl.s:21930  .debug_str:0000000000000896 .LASF4036
C:\Users\CYMR90~1\AppData\Local\Temp\ccmBQqfl.s:24462  .debug_str:000000000000aaed .LASF4037
C:\Users\CYMR90~1\AppData\Local\Temp\ccmBQqfl.s:22916  .debug_str:000000000000487c .LASF4038
C:\Users\CYMR90~1\AppData\Local\Temp\ccmBQqfl.s:26970  .debug_str:0000000000014b9d .LASF4039
C:\Users\CYMR90~1\AppData\Local\Temp\ccmBQqfl.s:30943  .debug_str:00000000000247bb .LASF4040
C:\Users\CYMR90~1\AppData\Local\Temp\ccmBQqfl.s:23496  .debug_str:0000000000006c89 .LASF4041
C:\Users\CYMR90~1\AppData\Local\Temp\ccmBQqfl.s:30451  .debug_str:0000000000022a1a .LASF4042
C:\Users\CYMR90~1\AppData\Local\Temp\ccmBQqfl.s:32809  .debug_str:000000000002beba .LASF4043
C:\Users\CYMR90~1\AppData\Local\Temp\ccmBQqfl.s:23480  .debug_str:0000000000006b7e .LASF4044
C:\Users\CYMR90~1\AppData\Local\Temp\ccmBQqfl.s:27937  .debug_str:0000000000018a0d .LASF4045
C:\Users\CYMR90~1\AppData\Local\Temp\ccmBQqfl.s:31995  .debug_str:0000000000028d31 .LASF4046
C:\Users\CYMR90~1\AppData\Local\Temp\ccmBQqfl.s:31339  .debug_str:00000000000262a1 .LASF4047
C:\Users\CYMR90~1\AppData\Local\Temp\ccmBQqfl.s:26906  .debug_str:00000000000146fe .LASF4048
C:\Users\CYMR90~1\AppData\Local\Temp\ccmBQqfl.s:29245  .debug_str:000000000001e099 .LASF4049
C:\Users\CYMR90~1\AppData\Local\Temp\ccmBQqfl.s:31629  .debug_str:0000000000027449 .LASF4050
C:\Users\CYMR90~1\AppData\Local\Temp\ccmBQqfl.s:29135  .debug_str:000000000001d9e1 .LASF4051
C:\Users\CYMR90~1\AppData\Local\Temp\ccmBQqfl.s:29891  .debug_str:0000000000020814 .LASF4052
C:\Users\CYMR90~1\AppData\Local\Temp\ccmBQqfl.s:25974  .debug_str:0000000000010ba4 .LASF4053
C:\Users\CYMR90~1\AppData\Local\Temp\ccmBQqfl.s:29593  .debug_str:000000000001f633 .LASF4054
C:\Users\CYMR90~1\AppData\Local\Temp\ccmBQqfl.s:31923  .debug_str:0000000000028850 .LASF4055
C:\Users\CYMR90~1\AppData\Local\Temp\ccmBQqfl.s:23812  .debug_str:000000000000812c .LASF4056
C:\Users\CYMR90~1\AppData\Local\Temp\ccmBQqfl.s:31223  .debug_str:0000000000025acf .LASF4057
C:\Users\CYMR90~1\AppData\Local\Temp\ccmBQqfl.s:32831  .debug_str:000000000002c02b .LASF4058
C:\Users\CYMR90~1\AppData\Local\Temp\ccmBQqfl.s:24172  .debug_str:00000000000098cc .LASF4059
C:\Users\CYMR90~1\AppData\Local\Temp\ccmBQqfl.s:27304  .debug_str:0000000000016063 .LASF4060
C:\Users\CYMR90~1\AppData\Local\Temp\ccmBQqfl.s:31287  .debug_str:0000000000025f7b .LASF4061
C:\Users\CYMR90~1\AppData\Local\Temp\ccmBQqfl.s:26394  .debug_str:00000000000126af .LASF4062
C:\Users\CYMR90~1\AppData\Local\Temp\ccmBQqfl.s:26440  .debug_str:00000000000129a5 .LASF4063
C:\Users\CYMR90~1\AppData\Local\Temp\ccmBQqfl.s:31863  .debug_str:00000000000283b5 .LASF4064
C:\Users\CYMR90~1\AppData\Local\Temp\ccmBQqfl.s:24436  .debug_str:000000000000a933 .LASF4065
C:\Users\CYMR90~1\AppData\Local\Temp\ccmBQqfl.s:28391  .debug_str:000000000001a8be .LASF4066
C:\Users\CYMR90~1\AppData\Local\Temp\ccmBQqfl.s:25444  .debug_str:000000000000e9ec .LASF4067
C:\Users\CYMR90~1\AppData\Local\Temp\ccmBQqfl.s:23292  .debug_str:0000000000006018 .LASF4068
C:\Users\CYMR90~1\AppData\Local\Temp\ccmBQqfl.s:29623  .debug_str:000000000001f807 .LASF4069
C:\Users\CYMR90~1\AppData\Local\Temp\ccmBQqfl.s:31219  .debug_str:0000000000025a7d .LASF4070
C:\Users\CYMR90~1\AppData\Local\Temp\ccmBQqfl.s:31847  .debug_str:000000000002829f .LASF4071
C:\Users\CYMR90~1\AppData\Local\Temp\ccmBQqfl.s:22846  .debug_str:000000000000441a .LASF4072
C:\Users\CYMR90~1\AppData\Local\Temp\ccmBQqfl.s:28563  .debug_str:000000000001b466 .LASF4073
C:\Users\CYMR90~1\AppData\Local\Temp\ccmBQqfl.s:26060  .debug_str:0000000000011144 .LASF4074
C:\Users\CYMR90~1\AppData\Local\Temp\ccmBQqfl.s:28309  .debug_str:000000000001a274 .LASF4075
C:\Users\CYMR90~1\AppData\Local\Temp\ccmBQqfl.s:32279  .debug_str:0000000000029e28 .LASF4076
C:\Users\CYMR90~1\AppData\Local\Temp\ccmBQqfl.s:31613  .debug_str:0000000000027349 .LASF4077
C:\Users\CYMR90~1\AppData\Local\Temp\ccmBQqfl.s:27178  .debug_str:0000000000015874 .LASF4078
C:\Users\CYMR90~1\AppData\Local\Temp\ccmBQqfl.s:32917  .debug_str:000000000002c620 .LASF4079
C:\Users\CYMR90~1\AppData\Local\Temp\ccmBQqfl.s:23710  .debug_str:0000000000007a33 .LASF4080
C:\Users\CYMR90~1\AppData\Local\Temp\ccmBQqfl.s:31161  .debug_str:000000000002566d .LASF4081
C:\Users\CYMR90~1\AppData\Local\Temp\ccmBQqfl.s:33161  .debug_str:000000000002d5d0 .LASF4082
C:\Users\CYMR90~1\AppData\Local\Temp\ccmBQqfl.s:23010  .debug_str:0000000000004f02 .LASF4083
C:\Users\CYMR90~1\AppData\Local\Temp\ccmBQqfl.s:28247  .debug_str:0000000000019ecf .LASF4084
C:\Users\CYMR90~1\AppData\Local\Temp\ccmBQqfl.s:23242  .debug_str:0000000000005d2a .LASF4085
C:\Users\CYMR90~1\AppData\Local\Temp\ccmBQqfl.s:24786  .debug_str:000000000000c0cd .LASF4086
C:\Users\CYMR90~1\AppData\Local\Temp\ccmBQqfl.s:26120  .debug_str:0000000000011482 .LASF4087
C:\Users\CYMR90~1\AppData\Local\Temp\ccmBQqfl.s:24274  .debug_str:0000000000009f3f .LASF4088
C:\Users\CYMR90~1\AppData\Local\Temp\ccmBQqfl.s:30033  .debug_str:00000000000210d5 .LASF4089
C:\Users\CYMR90~1\AppData\Local\Temp\ccmBQqfl.s:27687  .debug_str:0000000000017ad7 .LASF4090
C:\Users\CYMR90~1\AppData\Local\Temp\ccmBQqfl.s:24242  .debug_str:0000000000009d56 .LASF4091
C:\Users\CYMR90~1\AppData\Local\Temp\ccmBQqfl.s:28913  .debug_str:000000000001ca30 .LASF4092
C:\Users\CYMR90~1\AppData\Local\Temp\ccmBQqfl.s:28187  .debug_str:0000000000019a79 .LASF4093
C:\Users\CYMR90~1\AppData\Local\Temp\ccmBQqfl.s:32153  .debug_str:000000000002966d .LASF4094
C:\Users\CYMR90~1\AppData\Local\Temp\ccmBQqfl.s:22216  .debug_str:0000000000001bbf .LASF4095
C:\Users\CYMR90~1\AppData\Local\Temp\ccmBQqfl.s:24592  .debug_str:000000000000b39d .LASF4096
C:\Users\CYMR90~1\AppData\Local\Temp\ccmBQqfl.s:25744  .debug_str:000000000000fcab .LASF4097
C:\Users\CYMR90~1\AppData\Local\Temp\ccmBQqfl.s:23578  .debug_str:00000000000071a1 .LASF4098
C:\Users\CYMR90~1\AppData\Local\Temp\ccmBQqfl.s:27627  .debug_str:0000000000017737 .LASF4099
C:\Users\CYMR90~1\AppData\Local\Temp\ccmBQqfl.s:31605  .debug_str:00000000000272d6 .LASF4100
C:\Users\CYMR90~1\AppData\Local\Temp\ccmBQqfl.s:30111  .debug_str:000000000002155e .LASF4101
C:\Users\CYMR90~1\AppData\Local\Temp\ccmBQqfl.s:28123  .debug_str:0000000000019668 .LASF4102
C:\Users\CYMR90~1\AppData\Local\Temp\ccmBQqfl.s:23402  .debug_str:00000000000066bb .LASF4103
C:\Users\CYMR90~1\AppData\Local\Temp\ccmBQqfl.s:24662  .debug_str:000000000000b828 .LASF4104
C:\Users\CYMR90~1\AppData\Local\Temp\ccmBQqfl.s:28115  .debug_str:00000000000195f2 .LASF4105
C:\Users\CYMR90~1\AppData\Local\Temp\ccmBQqfl.s:26288  .debug_str:0000000000011fb9 .LASF4106
C:\Users\CYMR90~1\AppData\Local\Temp\ccmBQqfl.s:23324  .debug_str:00000000000061e5 .LASF4107
C:\Users\CYMR90~1\AppData\Local\Temp\ccmBQqfl.s:27563  .debug_str:0000000000017387 .LASF4108
C:\Users\CYMR90~1\AppData\Local\Temp\ccmBQqfl.s:31533  .debug_str:0000000000026e82 .LASF4109
C:\Users\CYMR90~1\AppData\Local\Temp\ccmBQqfl.s:24102  .debug_str:000000000000945d .LASF4110
C:\Users\CYMR90~1\AppData\Local\Temp\ccmBQqfl.s:22180  .debug_str:000000000000199a .LASF4111
C:\Users\CYMR90~1\AppData\Local\Temp\ccmBQqfl.s:26940  .debug_str:00000000000149a3 .LASF4112
C:\Users\CYMR90~1\AppData\Local\Temp\ccmBQqfl.s:29279  .debug_str:000000000001e345 .LASF4113
C:\Users\CYMR90~1\AppData\Local\Temp\ccmBQqfl.s:28553  .debug_str:000000000001b3cd .LASF4114
C:\Users\CYMR90~1\AppData\Local\Temp\ccmBQqfl.s:32495  .debug_str:000000000002aaf6 .LASF4115
C:\Users\CYMR90~1\AppData\Local\Temp\ccmBQqfl.s:25162  .debug_str:000000000000d950 .LASF4116
C:\Users\CYMR90~1\AppData\Local\Temp\ccmBQqfl.s:22186  .debug_str:0000000000001a00 .LASF4117
C:\Users\CYMR90~1\AppData\Local\Temp\ccmBQqfl.s:31469  .debug_str:0000000000026a70 .LASF4118
C:\Users\CYMR90~1\AppData\Local\Temp\ccmBQqfl.s:25816  .debug_str:000000000001017a .LASF4119
C:\Users\CYMR90~1\AppData\Local\Temp\ccmBQqfl.s:28289  .debug_str:000000000001a141 .LASF4120
C:\Users\CYMR90~1\AppData\Local\Temp\ccmBQqfl.s:30507  .debug_str:0000000000022d62 .LASF4121
C:\Users\CYMR90~1\AppData\Local\Temp\ccmBQqfl.s:32859  .debug_str:000000000002c1db .LASF4122
C:\Users\CYMR90~1\AppData\Local\Temp\ccmBQqfl.s:28491  .debug_str:000000000001afac .LASF4123
C:\Users\CYMR90~1\AppData\Local\Temp\ccmBQqfl.s:32433  .debug_str:000000000002a6c9 .LASF4124
C:\Users\CYMR90~1\AppData\Local\Temp\ccmBQqfl.s:29357  .debug_str:000000000001e7ea .LASF4125
C:\Users\CYMR90~1\AppData\Local\Temp\ccmBQqfl.s:29021  .debug_str:000000000001d1bd .LASF4126
C:\Users\CYMR90~1\AppData\Local\Temp\ccmBQqfl.s:26106  .debug_str:00000000000113a8 .LASF4127
C:\Users\CYMR90~1\AppData\Local\Temp\ccmBQqfl.s:23966  .debug_str:0000000000008bee .LASF4128
C:\Users\CYMR90~1\AppData\Local\Temp\ccmBQqfl.s:27909  .debug_str:00000000000188a1 .LASF4129
C:\Users\CYMR90~1\AppData\Local\Temp\ccmBQqfl.s:29065  .debug_str:000000000001d5b1 .LASF4130
C:\Users\CYMR90~1\AppData\Local\Temp\ccmBQqfl.s:25540  .debug_str:000000000000f001 .LASF4131
C:\Users\CYMR90~1\AppData\Local\Temp\ccmBQqfl.s:28417  .debug_str:000000000001aa8f .LASF4132
C:\Users\CYMR90~1\AppData\Local\Temp\ccmBQqfl.s:26790  .debug_str:0000000000014028 .LASF4133
C:\Users\CYMR90~1\AppData\Local\Temp\ccmBQqfl.s:29399  .debug_str:000000000001ea78 .LASF4134
C:\Users\CYMR90~1\AppData\Local\Temp\ccmBQqfl.s:30177  .debug_str:000000000002191f .LASF4135
C:\Users\CYMR90~1\AppData\Local\Temp\ccmBQqfl.s:26234  .debug_str:0000000000011c10 .LASF4136
C:\Users\CYMR90~1\AppData\Local\Temp\ccmBQqfl.s:24510  .debug_str:000000000000adb4 .LASF4137
C:\Users\CYMR90~1\AppData\Local\Temp\ccmBQqfl.s:22608  .debug_str:0000000000003448 .LASF4138
C:\Users\CYMR90~1\AppData\Local\Temp\ccmBQqfl.s:26592  .debug_str:000000000001338c .LASF4139
C:\Users\CYMR90~1\AppData\Local\Temp\ccmBQqfl.s:30207  .debug_str:0000000000021b90 .LASF4140
C:\Users\CYMR90~1\AppData\Local\Temp\ccmBQqfl.s:23076  .debug_str:0000000000005307 .LASF4141
C:\Users\CYMR90~1\AppData\Local\Temp\ccmBQqfl.s:27048  .debug_str:0000000000015073 .LASF4142
C:\Users\CYMR90~1\AppData\Local\Temp\ccmBQqfl.s:31017  .debug_str:0000000000024c99 .LASF4143
C:\Users\CYMR90~1\AppData\Local\Temp\ccmBQqfl.s:23570  .debug_str:000000000000713e .LASF4144
C:\Users\CYMR90~1\AppData\Local\Temp\ccmBQqfl.s:22860  .debug_str:00000000000044da .LASF4145
C:\Users\CYMR90~1\AppData\Local\Temp\ccmBQqfl.s:31597  .debug_str:000000000002723b .LASF4146
C:\Users\CYMR90~1\AppData\Local\Temp\ccmBQqfl.s:28653  .debug_str:000000000001ba59 .LASF4147
C:\Users\CYMR90~1\AppData\Local\Temp\ccmBQqfl.s:26544  .debug_str:000000000001307a .LASF4148
C:\Users\CYMR90~1\AppData\Local\Temp\ccmBQqfl.s:30497  .debug_str:0000000000022cb0 .LASF4149
C:\Users\CYMR90~1\AppData\Local\Temp\ccmBQqfl.s:26382  .debug_str:00000000000125da .LASF4150
C:\Users\CYMR90~1\AppData\Local\Temp\ccmBQqfl.s:27092  .debug_str:0000000000015390 .LASF4151
C:\Users\CYMR90~1\AppData\Local\Temp\ccmBQqfl.s:33031  .debug_str:000000000002cd70 .LASF4152
C:\Users\CYMR90~1\AppData\Local\Temp\ccmBQqfl.s:31753  .debug_str:0000000000027c5b .LASF4153
C:\Users\CYMR90~1\AppData\Local\Temp\ccmBQqfl.s:27460  .debug_str:0000000000016a93 .LASF4154
C:\Users\CYMR90~1\AppData\Local\Temp\ccmBQqfl.s:25964  .debug_str:0000000000010b14 .LASF4155
C:\Users\CYMR90~1\AppData\Local\Temp\ccmBQqfl.s:24094  .debug_str:00000000000093ee .LASF4156
C:\Users\CYMR90~1\AppData\Local\Temp\ccmBQqfl.s:32545  .debug_str:000000000002adb0 .LASF4157
C:\Users\CYMR90~1\AppData\Local\Temp\ccmBQqfl.s:25906  .debug_str:000000000001071f .LASF4158
C:\Users\CYMR90~1\AppData\Local\Temp\ccmBQqfl.s:27342  .debug_str:0000000000016333 .LASF4159
C:\Users\CYMR90~1\AppData\Local\Temp\ccmBQqfl.s:30605  .debug_str:000000000002337d .LASF4160
C:\Users\CYMR90~1\AppData\Local\Temp\ccmBQqfl.s:25662  .debug_str:000000000000f753 .LASF4161
C:\Users\CYMR90~1\AppData\Local\Temp\ccmBQqfl.s:23442  .debug_str:00000000000068ed .LASF4162
C:\Users\CYMR90~1\AppData\Local\Temp\ccmBQqfl.s:27386  .debug_str:00000000000165d8 .LASF4163
C:\Users\CYMR90~1\AppData\Local\Temp\ccmBQqfl.s:31461  .debug_str:00000000000269f6 .LASF4164
C:\Users\CYMR90~1\AppData\Local\Temp\ccmBQqfl.s:24036  .debug_str:00000000000090a1 .LASF4165
C:\Users\CYMR90~1\AppData\Local\Temp\ccmBQqfl.s:27975  .debug_str:0000000000018c91 .LASF4166
C:\Users\CYMR90~1\AppData\Local\Temp\ccmBQqfl.s:25060  .debug_str:000000000000d22d .LASF4167
C:\Users\CYMR90~1\AppData\Local\Temp\ccmBQqfl.s:22894  .debug_str:00000000000046f0 .LASF4168
C:\Users\CYMR90~1\AppData\Local\Temp\ccmBQqfl.s:26848  .debug_str:00000000000143c5 .LASF4169
C:\Users\CYMR90~1\AppData\Local\Temp\ccmBQqfl.s:25016  .debug_str:000000000000cf70 .LASF4170
C:\Users\CYMR90~1\AppData\Local\Temp\ccmBQqfl.s:23374  .debug_str:00000000000064fa .LASF4171
C:\Users\CYMR90~1\AppData\Local\Temp\ccmBQqfl.s:22492  .debug_str:0000000000002d04 .LASF4172
C:\Users\CYMR90~1\AppData\Local\Temp\ccmBQqfl.s:33037  .debug_str:000000000002cde0 .LASF4173
C:\Users\CYMR90~1\AppData\Local\Temp\ccmBQqfl.s:23980  .debug_str:0000000000008cc3 .LASF4174
C:\Users\CYMR90~1\AppData\Local\Temp\ccmBQqfl.s:27903  .debug_str:0000000000018833 .LASF4175
C:\Users\CYMR90~1\AppData\Local\Temp\ccmBQqfl.s:22256  .debug_str:0000000000001e28 .LASF4176
C:\Users\CYMR90~1\AppData\Local\Temp\ccmBQqfl.s:28919  .debug_str:000000000001ca87 .LASF4177
C:\Users\CYMR90~1\AppData\Local\Temp\ccmBQqfl.s:26786  .debug_str:0000000000013fe5 .LASF4178
C:\Users\CYMR90~1\AppData\Local\Temp\ccmBQqfl.s:30769  .debug_str:0000000000023cff .LASF4179
C:\Users\CYMR90~1\AppData\Local\Temp\ccmBQqfl.s:27190  .debug_str:0000000000015954 .LASF4180
C:\Users\CYMR90~1\AppData\Local\Temp\ccmBQqfl.s:31925  .debug_str:0000000000028876 .LASF4181
C:\Users\CYMR90~1\AppData\Local\Temp\ccmBQqfl.s:25176  .debug_str:000000000000da0b .LASF4182
C:\Users\CYMR90~1\AppData\Local\Temp\ccmBQqfl.s:23888  .debug_str:0000000000008685 .LASF4183
C:\Users\CYMR90~1\AppData\Local\Temp\ccmBQqfl.s:29861  .debug_str:0000000000020696 .LASF4184
C:\Users\CYMR90~1\AppData\Local\Temp\ccmBQqfl.s:31811  .debug_str:0000000000028026 .LASF4185
C:\Users\CYMR90~1\AppData\Local\Temp\ccmBQqfl.s:24380  .debug_str:000000000000a5aa .LASF4186
C:\Users\CYMR90~1\AppData\Local\Temp\ccmBQqfl.s:32841  .debug_str:000000000002c0b2 .LASF4187
C:\Users\CYMR90~1\AppData\Local\Temp\ccmBQqfl.s:23672  .debug_str:00000000000077a7 .LASF4188
C:\Users\CYMR90~1\AppData\Local\Temp\ccmBQqfl.s:23238  .debug_str:0000000000005cd2 .LASF4189
C:\Users\CYMR90~1\AppData\Local\Temp\ccmBQqfl.s:26362  .debug_str:00000000000124c9 .LASF4190
C:\Users\CYMR90~1\AppData\Local\Temp\ccmBQqfl.s:27238  .debug_str:0000000000015c06 .LASF4191
C:\Users\CYMR90~1\AppData\Local\Temp\ccmBQqfl.s:23824  .debug_str:0000000000008271 .LASF4192
C:\Users\CYMR90~1\AppData\Local\Temp\ccmBQqfl.s:27424  .debug_str:000000000001688b .LASF4193
C:\Users\CYMR90~1\AppData\Local\Temp\ccmBQqfl.s:24368  .debug_str:000000000000a4e5 .LASF4194
C:\Users\CYMR90~1\AppData\Local\Temp\ccmBQqfl.s:22476  .debug_str:0000000000002bc9 .LASF4195
C:\Users\CYMR90~1\AppData\Local\Temp\ccmBQqfl.s:29837  .debug_str:000000000002053d .LASF4196
C:\Users\CYMR90~1\AppData\Local\Temp\ccmBQqfl.s:24578  .debug_str:000000000000b2b3 .LASF4197
C:\Users\CYMR90~1\AppData\Local\Temp\ccmBQqfl.s:23172  .debug_str:00000000000058e6 .LASF4198
C:\Users\CYMR90~1\AppData\Local\Temp\ccmBQqfl.s:23776  .debug_str:0000000000007e21 .LASF4199
C:\Users\CYMR90~1\AppData\Local\Temp\ccmBQqfl.s:32243  .debug_str:0000000000029c4b .LASF4200
C:\Users\CYMR90~1\AppData\Local\Temp\ccmBQqfl.s:23166  .debug_str:000000000000588e .LASF4201
C:\Users\CYMR90~1\AppData\Local\Temp\ccmBQqfl.s:23338  .debug_str:00000000000062b7 .LASF4202
C:\Users\CYMR90~1\AppData\Local\Temp\ccmBQqfl.s:24110  .debug_str:00000000000094d9 .LASF4203
C:\Users\CYMR90~1\AppData\Local\Temp\ccmBQqfl.s:30841  .debug_str:000000000002416b .LASF4204
C:\Users\CYMR90~1\AppData\Local\Temp\ccmBQqfl.s:32601  .debug_str:000000000002b145 .LASF4205
C:\Users\CYMR90~1\AppData\Local\Temp\ccmBQqfl.s:23528  .debug_str:0000000000006e59 .LASF4206
C:\Users\CYMR90~1\AppData\Local\Temp\ccmBQqfl.s:32709  .debug_str:000000000002b80b .LASF4207
C:\Users\CYMR90~1\AppData\Local\Temp\ccmBQqfl.s:23106  .debug_str:00000000000054d6 .LASF4208
C:\Users\CYMR90~1\AppData\Local\Temp\ccmBQqfl.s:24390  .debug_str:000000000000a69a .LASF4209
C:\Users\CYMR90~1\AppData\Local\Temp\ccmBQqfl.s:23682  .debug_str:000000000000785d .LASF4210
C:\Users\CYMR90~1\AppData\Local\Temp\ccmBQqfl.s:29073  .debug_str:000000000001d62b .LASF4211
C:\Users\CYMR90~1\AppData\Local\Temp\ccmBQqfl.s:31425  .debug_str:00000000000267f3 .LASF4212
C:\Users\CYMR90~1\AppData\Local\Temp\ccmBQqfl.s:28407  .debug_str:000000000001a9c3 .LASF4213
C:\Users\CYMR90~1\AppData\Local\Temp\ccmBQqfl.s:24752  .debug_str:000000000000be33 .LASF4214
C:\Users\CYMR90~1\AppData\Local\Temp\ccmBQqfl.s:32187  .debug_str:000000000002984b .LASF4215
C:\Users\CYMR90~1\AppData\Local\Temp\ccmBQqfl.s:24518  .debug_str:000000000000ae41 .LASF4216
C:\Users\CYMR90~1\AppData\Local\Temp\ccmBQqfl.s:26344  .debug_str:0000000000012374 .LASF4217
C:\Users\CYMR90~1\AppData\Local\Temp\ccmBQqfl.s:31061  .debug_str:0000000000024fd0 .LASF4218
C:\Users\CYMR90~1\AppData\Local\Temp\ccmBQqfl.s:30267  .debug_str:0000000000021f52 .LASF4219
C:\Users\CYMR90~1\AppData\Local\Temp\ccmBQqfl.s:27579  .debug_str:0000000000017461 .LASF4220
C:\Users\CYMR90~1\AppData\Local\Temp\ccmBQqfl.s:26972  .debug_str:0000000000014bc3 .LASF4221
C:\Users\CYMR90~1\AppData\Local\Temp\ccmBQqfl.s:27715  .debug_str:0000000000017cc8 .LASF4222
C:\Users\CYMR90~1\AppData\Local\Temp\ccmBQqfl.s:28495  .debug_str:000000000001b004 .LASF4223
C:\Users\CYMR90~1\AppData\Local\Temp\ccmBQqfl.s:31509  .debug_str:0000000000026d1e .LASF4224
C:\Users\CYMR90~1\AppData\Local\Temp\ccmBQqfl.s:24700  .debug_str:000000000000baee .LASF4225
C:\Users\CYMR90~1\AppData\Local\Temp\ccmBQqfl.s:28641  .debug_str:000000000001b9bc .LASF4226
C:\Users\CYMR90~1\AppData\Local\Temp\ccmBQqfl.s:30705  .debug_str:00000000000238e6 .LASF4227
C:\Users\CYMR90~1\AppData\Local\Temp\ccmBQqfl.s:23546  .debug_str:0000000000006fbd .LASF4228
C:\Users\CYMR90~1\AppData\Local\Temp\ccmBQqfl.s:27506  .debug_str:0000000000016e3f .LASF4229
C:\Users\CYMR90~1\AppData\Local\Temp\ccmBQqfl.s:31483  .debug_str:0000000000026b69 .LASF4230
C:\Users\CYMR90~1\AppData\Local\Temp\ccmBQqfl.s:24048  .debug_str:000000000000916b .LASF4231
C:\Users\CYMR90~1\AppData\Local\Temp\ccmBQqfl.s:28021  .debug_str:0000000000018fa7 .LASF4232
C:\Users\CYMR90~1\AppData\Local\Temp\ccmBQqfl.s:26658  .debug_str:000000000001383c .LASF4233
C:\Users\CYMR90~1\AppData\Local\Temp\ccmBQqfl.s:24636  .debug_str:000000000000b5f5 .LASF4234
C:\Users\CYMR90~1\AppData\Local\Temp\ccmBQqfl.s:28585  .debug_str:000000000001b601 .LASF4235
C:\Users\CYMR90~1\AppData\Local\Temp\ccmBQqfl.s:27018  .debug_str:0000000000014e5c .LASF4236
C:\Users\CYMR90~1\AppData\Local\Temp\ccmBQqfl.s:22006  .debug_str:0000000000000d91 .LASF4237
C:\Users\CYMR90~1\AppData\Local\Temp\ccmBQqfl.s:22698  .debug_str:0000000000003a25 .LASF4238
C:\Users\CYMR90~1\AppData\Local\Temp\ccmBQqfl.s:26200  .debug_str:000000000001196c .LASF4239
C:\Users\CYMR90~1\AppData\Local\Temp\ccmBQqfl.s:30151  .debug_str:00000000000217ab .LASF4240
C:\Users\CYMR90~1\AppData\Local\Temp\ccmBQqfl.s:22692  .debug_str:00000000000039b7 .LASF4241
C:\Users\CYMR90~1\AppData\Local\Temp\ccmBQqfl.s:26676  .debug_str:000000000001394a .LASF4242
C:\Users\CYMR90~1\AppData\Local\Temp\ccmBQqfl.s:30631  .debug_str:00000000000234ec .LASF4243
C:\Users\CYMR90~1\AppData\Local\Temp\ccmBQqfl.s:28891  .debug_str:000000000001c8f9 .LASF4244
C:\Users\CYMR90~1\AppData\Local\Temp\ccmBQqfl.s:28041  .debug_str:00000000000190de .LASF4245
C:\Users\CYMR90~1\AppData\Local\Temp\ccmBQqfl.s:29635  .debug_str:000000000001f8bb .LASF4246
C:\Users\CYMR90~1\AppData\Local\Temp\ccmBQqfl.s:22884  .debug_str:0000000000004650 .LASF4247
C:\Users\CYMR90~1\AppData\Local\Temp\ccmBQqfl.s:22812  .debug_str:0000000000004188 .LASF4248
C:\Users\CYMR90~1\AppData\Local\Temp\ccmBQqfl.s:30081  .debug_str:00000000000213b2 .LASF4249
C:\Users\CYMR90~1\AppData\Local\Temp\ccmBQqfl.s:28003  .debug_str:0000000000018e63 .LASF4250
C:\Users\CYMR90~1\AppData\Local\Temp\ccmBQqfl.s:26710  .debug_str:0000000000013b55 .LASF4251
C:\Users\CYMR90~1\AppData\Local\Temp\ccmBQqfl.s:30601  .debug_str:000000000002333d .LASF4252
C:\Users\CYMR90~1\AppData\Local\Temp\ccmBQqfl.s:33137  .debug_str:000000000002d43d .LASF4253
C:\Users\CYMR90~1\AppData\Local\Temp\ccmBQqfl.s:24486  .debug_str:000000000000ac55 .LASF4254
C:\Users\CYMR90~1\AppData\Local\Temp\ccmBQqfl.s:25160  .debug_str:000000000000d943 .LASF4255
C:\Users\CYMR90~1\AppData\Local\Temp\ccmBQqfl.s:30725  .debug_str:0000000000023a0e .LASF4256
C:\Users\CYMR90~1\AppData\Local\Temp\ccmBQqfl.s:29249  .debug_str:000000000001e0f5 .LASF4257
C:\Users\CYMR90~1\AppData\Local\Temp\ccmBQqfl.s:21868  .debug_str:00000000000004e7 .LASF4258
C:\Users\CYMR90~1\AppData\Local\Temp\ccmBQqfl.s:22932  .debug_str:0000000000004990 .LASF4259
C:\Users\CYMR90~1\AppData\Local\Temp\ccmBQqfl.s:25342  .debug_str:000000000000e3ac .LASF4260
C:\Users\CYMR90~1\AppData\Local\Temp\ccmBQqfl.s:23502  .debug_str:0000000000006ce3 .LASF4261
C:\Users\CYMR90~1\AppData\Local\Temp\ccmBQqfl.s:26728  .debug_str:0000000000013c68 .LASF4262
C:\Users\CYMR90~1\AppData\Local\Temp\ccmBQqfl.s:26360  .debug_str:00000000000124a2 .LASF4263
C:\Users\CYMR90~1\AppData\Local\Temp\ccmBQqfl.s:22550  .debug_str:000000000000307e .LASF4264
C:\Users\CYMR90~1\AppData\Local\Temp\ccmBQqfl.s:23132  .debug_str:0000000000005665 .LASF4265
C:\Users\CYMR90~1\AppData\Local\Temp\ccmBQqfl.s:22642  .debug_str:0000000000003699 .LASF4266
C:\Users\CYMR90~1\AppData\Local\Temp\ccmBQqfl.s:21826  .debug_str:000000000000024d .LASF4267
C:\Users\CYMR90~1\AppData\Local\Temp\ccmBQqfl.s:24104  .debug_str:0000000000009483 .LASF4268
C:\Users\CYMR90~1\AppData\Local\Temp\ccmBQqfl.s:27482  .debug_str:0000000000016c5e .LASF4269
C:\Users\CYMR90~1\AppData\Local\Temp\ccmBQqfl.s:22540  .debug_str:0000000000002ff1 .LASF4270
C:\Users\CYMR90~1\AppData\Local\Temp\ccmBQqfl.s:31571  .debug_str:00000000000270ad .LASF4271
C:\Users\CYMR90~1\AppData\Local\Temp\ccmBQqfl.s:27346  .debug_str:0000000000016374 .LASF4272
C:\Users\CYMR90~1\AppData\Local\Temp\ccmBQqfl.s:28015  .debug_str:0000000000018f34 .LASF4273
C:\Users\CYMR90~1\AppData\Local\Temp\ccmBQqfl.s:30735  .debug_str:0000000000023ab0 .LASF4274
C:\Users\CYMR90~1\AppData\Local\Temp\ccmBQqfl.s:30529  .debug_str:0000000000022ede .LASF4275
C:\Users\CYMR90~1\AppData\Local\Temp\ccmBQqfl.s:31041  .debug_str:0000000000024eab .LASF4276
C:\Users\CYMR90~1\AppData\Local\Temp\ccmBQqfl.s:32235  .debug_str:0000000000029ba8 .LASF4277
C:\Users\CYMR90~1\AppData\Local\Temp\ccmBQqfl.s:32463  .debug_str:000000000002a8d6 .LASF4278
C:\Users\CYMR90~1\AppData\Local\Temp\ccmBQqfl.s:22562  .debug_str:0000000000003147 .LASF4279
C:\Users\CYMR90~1\AppData\Local\Temp\ccmBQqfl.s:31335  .debug_str:0000000000026264 .LASF4280
C:\Users\CYMR90~1\AppData\Local\Temp\ccmBQqfl.s:26092  .debug_str:00000000000112e2 .LASF4281
C:\Users\CYMR90~1\AppData\Local\Temp\ccmBQqfl.s:29307  .debug_str:000000000001e509 .LASF4282
C:\Users\CYMR90~1\AppData\Local\Temp\ccmBQqfl.s:24278  .debug_str:0000000000009f7c .LASF4283
C:\Users\CYMR90~1\AppData\Local\Temp\ccmBQqfl.s:28549  .debug_str:000000000001b396 .LASF4284
C:\Users\CYMR90~1\AppData\Local\Temp\ccmBQqfl.s:29143  .debug_str:000000000001da75 .LASF4285
C:\Users\CYMR90~1\AppData\Local\Temp\ccmBQqfl.s:24676  .debug_str:000000000000b913 .LASF4286
C:\Users\CYMR90~1\AppData\Local\Temp\ccmBQqfl.s:27691  .debug_str:0000000000017b15 .LASF4287
C:\Users\CYMR90~1\AppData\Local\Temp\ccmBQqfl.s:28835  .debug_str:000000000001c5a1 .LASF4288
C:\Users\CYMR90~1\AppData\Local\Temp\ccmBQqfl.s:26496  .debug_str:0000000000012d61 .LASF4289
C:\Users\CYMR90~1\AppData\Local\Temp\ccmBQqfl.s:30035  .debug_str:00000000000210fb .LASF4290
C:\Users\CYMR90~1\AppData\Local\Temp\ccmBQqfl.s:24604  .debug_str:000000000000b43f .LASF4291
C:\Users\CYMR90~1\AppData\Local\Temp\ccmBQqfl.s:22220  .debug_str:0000000000001bf9 .LASF4292
C:\Users\CYMR90~1\AppData\Local\Temp\ccmBQqfl.s:27188  .debug_str:000000000001592f .LASF4293
C:\Users\CYMR90~1\AppData\Local\Temp\ccmBQqfl.s:26542  .debug_str:0000000000013055 .LASF4294
C:\Users\CYMR90~1\AppData\Local\Temp\ccmBQqfl.s:32839  .debug_str:000000000002c09b .LASF4295
C:\Users\CYMR90~1\AppData\Local\Temp\ccmBQqfl.s:28141  .debug_str:0000000000019799 .LASF4296
C:\Users\CYMR90~1\AppData\Local\Temp\ccmBQqfl.s:27689  .debug_str:0000000000017afd .LASF4297
C:\Users\CYMR90~1\AppData\Local\Temp\ccmBQqfl.s:29169  .debug_str:000000000001dc4e .LASF4298
C:\Users\CYMR90~1\AppData\Local\Temp\ccmBQqfl.s:30849  .debug_str:00000000000241e1 .LASF4299
C:\Users\CYMR90~1\AppData\Local\Temp\ccmBQqfl.s:23170  .debug_str:00000000000058cd .LASF4300
C:\Users\CYMR90~1\AppData\Local\Temp\ccmBQqfl.s:22114  .debug_str:000000000000146d .LASF4301
C:\Users\CYMR90~1\AppData\Local\Temp\ccmBQqfl.s:29493  .debug_str:000000000001f03c .LASF4302
C:\Users\CYMR90~1\AppData\Local\Temp\ccmBQqfl.s:30227  .debug_str:0000000000021cd8 .LASF4303
C:\Users\CYMR90~1\AppData\Local\Temp\ccmBQqfl.s:32407  .debug_str:000000000002a577 .LASF4304
C:\Users\CYMR90~1\AppData\Local\Temp\ccmBQqfl.s:26216  .debug_str:0000000000011a61 .LASF4305
C:\Users\CYMR90~1\AppData\Local\Temp\ccmBQqfl.s:32061  .debug_str:0000000000029100 .LASF4306
C:\Users\CYMR90~1\AppData\Local\Temp\ccmBQqfl.s:26980  .debug_str:0000000000014c30 .LASF4307
C:\Users\CYMR90~1\AppData\Local\Temp\ccmBQqfl.s:24566  .debug_str:000000000000b215 .LASF4308
C:\Users\CYMR90~1\AppData\Local\Temp\ccmBQqfl.s:30001  .debug_str:0000000000020eea .LASF4309
C:\Users\CYMR90~1\AppData\Local\Temp\ccmBQqfl.s:23996  .debug_str:0000000000008db9 .LASF4310
C:\Users\CYMR90~1\AppData\Local\Temp\ccmBQqfl.s:27605  .debug_str:0000000000017610 .LASF4311
C:\Users\CYMR90~1\AppData\Local\Temp\ccmBQqfl.s:28225  .debug_str:0000000000019d78 .LASF4312
C:\Users\CYMR90~1\AppData\Local\Temp\ccmBQqfl.s:31639  .debug_str:00000000000274e7 .LASF4313
C:\Users\CYMR90~1\AppData\Local\Temp\ccmBQqfl.s:23654  .debug_str:00000000000076b6 .LASF4314
C:\Users\CYMR90~1\AppData\Local\Temp\ccmBQqfl.s:29393  .debug_str:000000000001ea0b .LASF4315
C:\Users\CYMR90~1\AppData\Local\Temp\ccmBQqfl.s:24984  .debug_str:000000000000cd9b .LASF4316
C:\Users\CYMR90~1\AppData\Local\Temp\ccmBQqfl.s:26792  .debug_str:000000000001404e .LASF4317
C:\Users\CYMR90~1\AppData\Local\Temp\ccmBQqfl.s:29219  .debug_str:000000000001df59 .LASF4318
C:\Users\CYMR90~1\AppData\Local\Temp\ccmBQqfl.s:26568  .debug_str:0000000000013201 .LASF4319
C:\Users\CYMR90~1\AppData\Local\Temp\ccmBQqfl.s:30069  .debug_str:0000000000021319 .LASF4320
C:\Users\CYMR90~1\AppData\Local\Temp\ccmBQqfl.s:25534  .debug_str:000000000000efb7 .LASF4321
C:\Users\CYMR90~1\AppData\Local\Temp\ccmBQqfl.s:29167  .debug_str:000000000001dc39 .LASF4322
C:\Users\CYMR90~1\AppData\Local\Temp\ccmBQqfl.s:22522  .debug_str:0000000000002ee8 .LASF4323
C:\Users\CYMR90~1\AppData\Local\Temp\ccmBQqfl.s:22304  .debug_str:0000000000002126 .LASF4324
C:\Users\CYMR90~1\AppData\Local\Temp\ccmBQqfl.s:28877  .debug_str:000000000001c84f .LASF4325
C:\Users\CYMR90~1\AppData\Local\Temp\ccmBQqfl.s:23910  .debug_str:00000000000087c5 .LASF4326
C:\Users\CYMR90~1\AppData\Local\Temp\ccmBQqfl.s:32537  .debug_str:000000000002ad5c .LASF4327
C:\Users\CYMR90~1\AppData\Local\Temp\ccmBQqfl.s:23760  .debug_str:0000000000007d4f .LASF4328
C:\Users\CYMR90~1\AppData\Local\Temp\ccmBQqfl.s:21880  .debug_str:000000000000058f .LASF4329
C:\Users\CYMR90~1\AppData\Local\Temp\ccmBQqfl.s:26808  .debug_str:0000000000014151 .LASF4330
C:\Users\CYMR90~1\AppData\Local\Temp\ccmBQqfl.s:27921  .debug_str:000000000001893d .LASF4331
C:\Users\CYMR90~1\AppData\Local\Temp\ccmBQqfl.s:25642  .debug_str:000000000000f636 .LASF4332
C:\Users\CYMR90~1\AppData\Local\Temp\ccmBQqfl.s:30665  .debug_str:00000000000236b4 .LASF4333
C:\Users\CYMR90~1\AppData\Local\Temp\ccmBQqfl.s:32355  .debug_str:000000000002a2a8 .LASF4334
C:\Users\CYMR90~1\AppData\Local\Temp\ccmBQqfl.s:24834  .debug_str:000000000000c3e4 .LASF4335
C:\Users\CYMR90~1\AppData\Local\Temp\ccmBQqfl.s:23358  .debug_str:0000000000006422 .LASF4336
C:\Users\CYMR90~1\AppData\Local\Temp\ccmBQqfl.s:22988  .debug_str:0000000000004d96 .LASF4337
C:\Users\CYMR90~1\AppData\Local\Temp\ccmBQqfl.s:31403  .debug_str:00000000000266cf .LASF4338
C:\Users\CYMR90~1\AppData\Local\Temp\ccmBQqfl.s:25236  .debug_str:000000000000dd7d .LASF4339
C:\Users\CYMR90~1\AppData\Local\Temp\ccmBQqfl.s:26650  .debug_str:00000000000137a6 .LASF4340
C:\Users\CYMR90~1\AppData\Local\Temp\ccmBQqfl.s:23972  .debug_str:0000000000008c4f .LASF4341
C:\Users\CYMR90~1\AppData\Local\Temp\ccmBQqfl.s:27196  .debug_str:00000000000159a5 .LASF4342
C:\Users\CYMR90~1\AppData\Local\Temp\ccmBQqfl.s:31191  .debug_str:00000000000258e7 .LASF4343
C:\Users\CYMR90~1\AppData\Local\Temp\ccmBQqfl.s:22406  .debug_str:00000000000026e7 .LASF4344
C:\Users\CYMR90~1\AppData\Local\Temp\ccmBQqfl.s:25582  .debug_str:000000000000f273 .LASF4345
C:\Users\CYMR90~1\AppData\Local\Temp\ccmBQqfl.s:31173  .debug_str:0000000000025733 .LASF4346
C:\Users\CYMR90~1\AppData\Local\Temp\ccmBQqfl.s:26048  .debug_str:00000000000110ac .LASF4347
C:\Users\CYMR90~1\AppData\Local\Temp\ccmBQqfl.s:24722  .debug_str:000000000000bc36 .LASF4348
C:\Users\CYMR90~1\AppData\Local\Temp\ccmBQqfl.s:29763  .debug_str:00000000000200b9 .LASF4349
C:\Users\CYMR90~1\AppData\Local\Temp\ccmBQqfl.s:24508  .debug_str:000000000000ad9c .LASF4350
C:\Users\CYMR90~1\AppData\Local\Temp\ccmBQqfl.s:26460  .debug_str:0000000000012b04 .LASF4351
C:\Users\CYMR90~1\AppData\Local\Temp\ccmBQqfl.s:22400  .debug_str:000000000000269a .LASF4352
C:\Users\CYMR90~1\AppData\Local\Temp\ccmBQqfl.s:29115  .debug_str:000000000001d892 .LASF4353
C:\Users\CYMR90~1\AppData\Local\Temp\ccmBQqfl.s:24960  .debug_str:000000000000cc43 .LASF4354
C:\Users\CYMR90~1\AppData\Local\Temp\ccmBQqfl.s:32521  .debug_str:000000000002ac77 .LASF4355
C:\Users\CYMR90~1\AppData\Local\Temp\ccmBQqfl.s:27128  .debug_str:00000000000155dc .LASF4356
C:\Users\CYMR90~1\AppData\Local\Temp\ccmBQqfl.s:21912  .debug_str:0000000000000793 .LASF4357
C:\Users\CYMR90~1\AppData\Local\Temp\ccmBQqfl.s:32195  .debug_str:00000000000298de .LASF4358
C:\Users\CYMR90~1\AppData\Local\Temp\ccmBQqfl.s:27440  .debug_str:000000000001697c .LASF4359
C:\Users\CYMR90~1\AppData\Local\Temp\ccmBQqfl.s:28111  .debug_str:00000000000195bf .LASF4360
C:\Users\CYMR90~1\AppData\Local\Temp\ccmBQqfl.s:23168  .debug_str:00000000000058b4 .LASF4361
C:\Users\CYMR90~1\AppData\Local\Temp\ccmBQqfl.s:26864  .debug_str:00000000000144c3 .LASF4362
C:\Users\CYMR90~1\AppData\Local\Temp\ccmBQqfl.s:25824  .debug_str:00000000000101f9 .LASF4363
C:\Users\CYMR90~1\AppData\Local\Temp\ccmBQqfl.s:29017  .debug_str:000000000001d182 .LASF4364
C:\Users\CYMR90~1\AppData\Local\Temp\ccmBQqfl.s:30347  .debug_str:000000000002243b .LASF4365
C:\Users\CYMR90~1\AppData\Local\Temp\ccmBQqfl.s:25188  .debug_str:000000000000dab8 .LASF4366
C:\Users\CYMR90~1\AppData\Local\Temp\ccmBQqfl.s:32681  .debug_str:000000000002b622 .LASF4367
C:\Users\CYMR90~1\AppData\Local\Temp\ccmBQqfl.s:24740  .debug_str:000000000000bd8e .LASF4368
C:\Users\CYMR90~1\AppData\Local\Temp\ccmBQqfl.s:29949  .debug_str:0000000000020bf4 .LASF4369
C:\Users\CYMR90~1\AppData\Local\Temp\ccmBQqfl.s:27302  .debug_str:000000000001604d .LASF4370
C:\Users\CYMR90~1\AppData\Local\Temp\ccmBQqfl.s:30805  .debug_str:0000000000023f46 .LASF4371
C:\Users\CYMR90~1\AppData\Local\Temp\ccmBQqfl.s:32653  .debug_str:000000000002b442 .LASF4372
C:\Users\CYMR90~1\AppData\Local\Temp\ccmBQqfl.s:30147  .debug_str:0000000000021768 .LASF4373
C:\Users\CYMR90~1\AppData\Local\Temp\ccmBQqfl.s:30495  .debug_str:0000000000022c98 .LASF4374
C:\Users\CYMR90~1\AppData\Local\Temp\ccmBQqfl.s:27428  .debug_str:00000000000168cf .LASF4375
C:\Users\CYMR90~1\AppData\Local\Temp\ccmBQqfl.s:23956  .debug_str:0000000000008b56 .LASF4376
C:\Users\CYMR90~1\AppData\Local\Temp\ccmBQqfl.s:31229  .debug_str:0000000000025b59 .LASF4377
C:\Users\CYMR90~1\AppData\Local\Temp\ccmBQqfl.s:28431  .debug_str:000000000001abf3 .LASF4378
C:\Users\CYMR90~1\AppData\Local\Temp\ccmBQqfl.s:22018  .debug_str:0000000000000e6c .LASF4379
C:\Users\CYMR90~1\AppData\Local\Temp\ccmBQqfl.s:30469  .debug_str:0000000000022af9 .LASF4380
C:\Users\CYMR90~1\AppData\Local\Temp\ccmBQqfl.s:32179  .debug_str:00000000000297de .LASF4381
C:\Users\CYMR90~1\AppData\Local\Temp\ccmBQqfl.s:22482  .debug_str:0000000000002c23 .LASF4382
C:\Users\CYMR90~1\AppData\Local\Temp\ccmBQqfl.s:25512  .debug_str:000000000000ee99 .LASF4383
C:\Users\CYMR90~1\AppData\Local\Temp\ccmBQqfl.s:29471  .debug_str:000000000001eef7 .LASF4384
C:\Users\CYMR90~1\AppData\Local\Temp\ccmBQqfl.s:22712  .debug_str:0000000000003af9 .LASF4385
C:\Users\CYMR90~1\AppData\Local\Temp\ccmBQqfl.s:26768  .debug_str:0000000000013f0d .LASF4386
C:\Users\CYMR90~1\AppData\Local\Temp\ccmBQqfl.s:31141  .debug_str:00000000000254ca .LASF4387
C:\Users\CYMR90~1\AppData\Local\Temp\ccmBQqfl.s:25778  .debug_str:000000000000fed6 .LASF4388
C:\Users\CYMR90~1\AppData\Local\Temp\ccmBQqfl.s:26774  .debug_str:0000000000013f51 .LASF4389
C:\Users\CYMR90~1\AppData\Local\Temp\ccmBQqfl.s:23288  .debug_str:0000000000005fdc .LASF4390
C:\Users\CYMR90~1\AppData\Local\Temp\ccmBQqfl.s:22876  .debug_str:00000000000045bc .LASF4391
C:\Users\CYMR90~1\AppData\Local\Temp\ccmBQqfl.s:30263  .debug_str:0000000000021f1b .LASF4392
C:\Users\CYMR90~1\AppData\Local\Temp\ccmBQqfl.s:22718  .debug_str:0000000000003b59 .LASF4393
C:\Users\CYMR90~1\AppData\Local\Temp\ccmBQqfl.s:22962  .debug_str:0000000000004c05 .LASF4394
C:\Users\CYMR90~1\AppData\Local\Temp\ccmBQqfl.s:29491  .debug_str:000000000001f022 .LASF4395
C:\Users\CYMR90~1\AppData\Local\Temp\ccmBQqfl.s:31459  .debug_str:00000000000269df .LASF4396
C:\Users\CYMR90~1\AppData\Local\Temp\ccmBQqfl.s:32641  .debug_str:000000000002b398 .LASF4397
C:\Users\CYMR90~1\AppData\Local\Temp\ccmBQqfl.s:31381  .debug_str:0000000000026589 .LASF4398
C:\Users\CYMR90~1\AppData\Local\Temp\ccmBQqfl.s:22166  .debug_str:0000000000001803 .LASF4399
C:\Users\CYMR90~1\AppData\Local\Temp\ccmBQqfl.s:29359  .debug_str:000000000001e810 .LASF4400
C:\Users\CYMR90~1\AppData\Local\Temp\ccmBQqfl.s:31687  .debug_str:0000000000027899 .LASF4401
C:\Users\CYMR90~1\AppData\Local\Temp\ccmBQqfl.s:24412  .debug_str:000000000000a7fd .LASF4402
C:\Users\CYMR90~1\AppData\Local\Temp\ccmBQqfl.s:32995  .debug_str:000000000002cafa .LASF4403
C:\Users\CYMR90~1\AppData\Local\Temp\ccmBQqfl.s:32343  .debug_str:000000000002a205 .LASF4404
C:\Users\CYMR90~1\AppData\Local\Temp\ccmBQqfl.s:23766  .debug_str:0000000000007da9 .LASF4405
C:\Users\CYMR90~1\AppData\Local\Temp\ccmBQqfl.s:22856  .debug_str:00000000000044a7 .LASF4406
C:\Users\CYMR90~1\AppData\Local\Temp\ccmBQqfl.s:31543  .debug_str:0000000000026f30 .LASF4407
C:\Users\CYMR90~1\AppData\Local\Temp\ccmBQqfl.s:28895  .debug_str:000000000001c942 .LASF4408
C:\Users\CYMR90~1\AppData\Local\Temp\ccmBQqfl.s:31517  .debug_str:0000000000026d9c .LASF4409
C:\Users\CYMR90~1\AppData\Local\Temp\ccmBQqfl.s:26802  .debug_str:00000000000140f1 .LASF4410
C:\Users\CYMR90~1\AppData\Local\Temp\ccmBQqfl.s:25716  .debug_str:000000000000fb43 .LASF4411
C:\Users\CYMR90~1\AppData\Local\Temp\ccmBQqfl.s:29461  .debug_str:000000000001ee69 .LASF4412
C:\Users\CYMR90~1\AppData\Local\Temp\ccmBQqfl.s:23222  .debug_str:0000000000005c1c .LASF4413
C:\Users\CYMR90~1\AppData\Local\Temp\ccmBQqfl.s:30685  .debug_str:00000000000237b7 .LASF4414
C:\Users\CYMR90~1\AppData\Local\Temp\ccmBQqfl.s:28045  .debug_str:000000000001911f .LASF4415
C:\Users\CYMR90~1\AppData\Local\Temp\ccmBQqfl.s:22370  .debug_str:00000000000024cd .LASF4416
C:\Users\CYMR90~1\AppData\Local\Temp\ccmBQqfl.s:22570  .debug_str:00000000000031bc .LASF4417
C:\Users\CYMR90~1\AppData\Local\Temp\ccmBQqfl.s:31343  .debug_str:00000000000262f9 .LASF4418
C:\Users\CYMR90~1\AppData\Local\Temp\ccmBQqfl.s:27204  .debug_str:0000000000015a11 .LASF4419
C:\Users\CYMR90~1\AppData\Local\Temp\ccmBQqfl.s:33145  .debug_str:000000000002d4f5 .LASF4420
C:\Users\CYMR90~1\AppData\Local\Temp\ccmBQqfl.s:24076  .debug_str:00000000000092de .LASF4421
C:\Users\CYMR90~1\AppData\Local\Temp\ccmBQqfl.s:31931  .debug_str:00000000000288e2 .LASF4422
C:\Users\CYMR90~1\AppData\Local\Temp\ccmBQqfl.s:33143  .debug_str:000000000002d4bc .LASF4423
C:\Users\CYMR90~1\AppData\Local\Temp\ccmBQqfl.s:29289  .debug_str:000000000001e3ef .LASF4424
C:\Users\CYMR90~1\AppData\Local\Temp\ccmBQqfl.s:23536  .debug_str:0000000000006eee .LASF4425
C:\Users\CYMR90~1\AppData\Local\Temp\ccmBQqfl.s:23002  .debug_str:0000000000004e92 .LASF4426
C:\Users\CYMR90~1\AppData\Local\Temp\ccmBQqfl.s:27553  .debug_str:00000000000172e2 .LASF4427
C:\Users\CYMR90~1\AppData\Local\Temp\ccmBQqfl.s:32781  .debug_str:000000000002bcf6 .LASF4428
C:\Users\CYMR90~1\AppData\Local\Temp\ccmBQqfl.s:26590  .debug_str:000000000001336d .LASF4429
C:\Users\CYMR90~1\AppData\Local\Temp\ccmBQqfl.s:32409  .debug_str:000000000002a590 .LASF4430
C:\Users\CYMR90~1\AppData\Local\Temp\ccmBQqfl.s:31491  .debug_str:0000000000026bf3 .LASF4431
C:\Users\CYMR90~1\AppData\Local\Temp\ccmBQqfl.s:25792  .debug_str:000000000000ffbf .LASF4432
C:\Users\CYMR90~1\AppData\Local\Temp\ccmBQqfl.s:32241  .debug_str:0000000000029c10 .LASF4433
C:\Users\CYMR90~1\AppData\Local\Temp\ccmBQqfl.s:28799  .debug_str:000000000001c368 .LASF4434
C:\Users\CYMR90~1\AppData\Local\Temp\ccmBQqfl.s:28255  .debug_str:0000000000019f47 .LASF4435
C:\Users\CYMR90~1\AppData\Local\Temp\ccmBQqfl.s:23822  .debug_str:0000000000008258 .LASF4436
C:\Users\CYMR90~1\AppData\Local\Temp\ccmBQqfl.s:28983  .debug_str:000000000001cf2b .LASF4437
C:\Users\CYMR90~1\AppData\Local\Temp\ccmBQqfl.s:28567  .debug_str:000000000001b4b2 .LASF4438
C:\Users\CYMR90~1\AppData\Local\Temp\ccmBQqfl.s:30539  .debug_str:0000000000022f59 .LASF4439
C:\Users\CYMR90~1\AppData\Local\Temp\ccmBQqfl.s:31443  .debug_str:00000000000268eb .LASF4440
C:\Users\CYMR90~1\AppData\Local\Temp\ccmBQqfl.s:22280  .debug_str:0000000000001f9f .LASF4441
C:\Users\CYMR90~1\AppData\Local\Temp\ccmBQqfl.s:27376  .debug_str:000000000001652a .LASF4442
C:\Users\CYMR90~1\AppData\Local\Temp\ccmBQqfl.s:22584  .debug_str:00000000000032c2 .LASF4443
C:\Users\CYMR90~1\AppData\Local\Temp\ccmBQqfl.s:29779  .debug_str:00000000000201a8 .LASF4444
C:\Users\CYMR90~1\AppData\Local\Temp\ccmBQqfl.s:28965  .debug_str:000000000001ce2a .LASF4445
C:\Users\CYMR90~1\AppData\Local\Temp\ccmBQqfl.s:22076  .debug_str:0000000000001240 .LASF4446
C:\Users\CYMR90~1\AppData\Local\Temp\ccmBQqfl.s:31171  .debug_str:00000000000256f6 .LASF4447
C:\Users\CYMR90~1\AppData\Local\Temp\ccmBQqfl.s:23932  .debug_str:00000000000088ee .LASF4448
C:\Users\CYMR90~1\AppData\Local\Temp\ccmBQqfl.s:29087  .debug_str:000000000001d6f2 .LASF4449
C:\Users\CYMR90~1\AppData\Local\Temp\ccmBQqfl.s:29105  .debug_str:000000000001d7fa .LASF4450
C:\Users\CYMR90~1\AppData\Local\Temp\ccmBQqfl.s:30091  .debug_str:0000000000021448 .LASF4451
C:\Users\CYMR90~1\AppData\Local\Temp\ccmBQqfl.s:28507  .debug_str:000000000001b0bd .LASF4452
C:\Users\CYMR90~1\AppData\Local\Temp\ccmBQqfl.s:23258  .debug_str:0000000000005e45 .LASF4453
C:\Users\CYMR90~1\AppData\Local\Temp\ccmBQqfl.s:31893  .debug_str:00000000000285f2 .LASF4454
C:\Users\CYMR90~1\AppData\Local\Temp\ccmBQqfl.s:30811  .debug_str:0000000000023fc2 .LASF4455
C:\Users\CYMR90~1\AppData\Local\Temp\ccmBQqfl.s:27098  .debug_str:00000000000153e5 .LASF4456
C:\Users\CYMR90~1\AppData\Local\Temp\ccmBQqfl.s:33099  .debug_str:000000000002d225 .LASF4457
C:\Users\CYMR90~1\AppData\Local\Temp\ccmBQqfl.s:22546  .debug_str:0000000000003040 .LASF4458
C:\Users\CYMR90~1\AppData\Local\Temp\ccmBQqfl.s:21814  .debug_str:00000000000001bb .LASF4459
C:\Users\CYMR90~1\AppData\Local\Temp\ccmBQqfl.s:28207  .debug_str:0000000000019c38 .LASF4460
C:\Users\CYMR90~1\AppData\Local\Temp\ccmBQqfl.s:25994  .debug_str:0000000000010cd4 .LASF4461
C:\Users\CYMR90~1\AppData\Local\Temp\ccmBQqfl.s:22874  .debug_str:00000000000045a4 .LASF4462
C:\Users\CYMR90~1\AppData\Local\Temp\ccmBQqfl.s:28147  .debug_str:0000000000019800 .LASF4463
C:\Users\CYMR90~1\AppData\Local\Temp\ccmBQqfl.s:24820  .debug_str:000000000000c305 .LASF4464
C:\Users\CYMR90~1\AppData\Local\Temp\ccmBQqfl.s:21840  .debug_str:000000000000034a .LASF4465
C:\Users\CYMR90~1\AppData\Local\Temp\ccmBQqfl.s:23092  .debug_str:00000000000053ed .LASF4466
C:\Users\CYMR90~1\AppData\Local\Temp\ccmBQqfl.s:32161  .debug_str:00000000000296ef .LASF4467
C:\Users\CYMR90~1\AppData\Local\Temp\ccmBQqfl.s:22902  .debug_str:0000000000004789 .LASF4468
C:\Users\CYMR90~1\AppData\Local\Temp\ccmBQqfl.s:24558  .debug_str:000000000000b0e5 .LASF4469
C:\Users\CYMR90~1\AppData\Local\Temp\ccmBQqfl.s:21860  .debug_str:0000000000000486 .LASF4470
C:\Users\CYMR90~1\AppData\Local\Temp\ccmBQqfl.s:29449  .debug_str:000000000001eda7 .LASF4471
C:\Users\CYMR90~1\AppData\Local\Temp\ccmBQqfl.s:27565  .debug_str:00000000000173ad .LASF4472
C:\Users\CYMR90~1\AppData\Local\Temp\ccmBQqfl.s:22420  .debug_str:00000000000027f2 .LASF4473
C:\Users\CYMR90~1\AppData\Local\Temp\ccmBQqfl.s:31611  .debug_str:0000000000027333 .LASF4474
C:\Users\CYMR90~1\AppData\Local\Temp\ccmBQqfl.s:32951  .debug_str:000000000002c861 .LASF4475
C:\Users\CYMR90~1\AppData\Local\Temp\ccmBQqfl.s:29913  .debug_str:0000000000020940 .LASF4476
C:\Users\CYMR90~1\AppData\Local\Temp\ccmBQqfl.s:24900  .debug_str:000000000000c7c0 .LASF4477
C:\Users\CYMR90~1\AppData\Local\Temp\ccmBQqfl.s:22732  .debug_str:0000000000003c64 .LASF4478
C:\Users\CYMR90~1\AppData\Local\Temp\ccmBQqfl.s:24798  .debug_str:000000000000c1a2 .LASF4479
C:\Users\CYMR90~1\AppData\Local\Temp\ccmBQqfl.s:30537  .debug_str:0000000000022f3b .LASF4480
C:\Users\CYMR90~1\AppData\Local\Temp\ccmBQqfl.s:32051  .debug_str:0000000000029069 .LASF4481
C:\Users\CYMR90~1\AppData\Local\Temp\ccmBQqfl.s:23304  .debug_str:00000000000060de .LASF4482
C:\Users\CYMR90~1\AppData\Local\Temp\ccmBQqfl.s:26110  .debug_str:00000000000113e9 .LASF4483
C:\Users\CYMR90~1\AppData\Local\Temp\ccmBQqfl.s:25280  .debug_str:000000000000e01a .LASF4484
C:\Users\CYMR90~1\AppData\Local\Temp\ccmBQqfl.s:22954  .debug_str:0000000000004b8d .LASF4485
C:\Users\CYMR90~1\AppData\Local\Temp\ccmBQqfl.s:24226  .debug_str:0000000000009c47 .LASF4486
C:\Users\CYMR90~1\AppData\Local\Temp\ccmBQqfl.s:26764  .debug_str:0000000000013ead .LASF4487
C:\Users\CYMR90~1\AppData\Local\Temp\ccmBQqfl.s:22770  .debug_str:0000000000003e84 .LASF4488
C:\Users\CYMR90~1\AppData\Local\Temp\ccmBQqfl.s:23530  .debug_str:0000000000006e7f .LASF4489
C:\Users\CYMR90~1\AppData\Local\Temp\ccmBQqfl.s:21790  .debug_str:000000000000002e .LASF4490
C:\Users\CYMR90~1\AppData\Local\Temp\ccmBQqfl.s:26094  .debug_str:0000000000011306 .LASF4491
C:\Users\CYMR90~1\AppData\Local\Temp\ccmBQqfl.s:28463  .debug_str:000000000001adca .LASF4492
C:\Users\CYMR90~1\AppData\Local\Temp\ccmBQqfl.s:27508  .debug_str:0000000000016e65 .LASF4493
C:\Users\CYMR90~1\AppData\Local\Temp\ccmBQqfl.s:32883  .debug_str:000000000002c3d7 .LASF4494
C:\Users\CYMR90~1\AppData\Local\Temp\ccmBQqfl.s:31035  .debug_str:0000000000024e49 .LASF4495
C:\Users\CYMR90~1\AppData\Local\Temp\ccmBQqfl.s:25380  .debug_str:000000000000e5ce .LASF4496
C:\Users\CYMR90~1\AppData\Local\Temp\ccmBQqfl.s:29581  .debug_str:000000000001f560 .LASF4497
C:\Users\CYMR90~1\AppData\Local\Temp\ccmBQqfl.s:27032  .debug_str:0000000000014f4a .LASF4498
C:\Users\CYMR90~1\AppData\Local\Temp\ccmBQqfl.s:32229  .debug_str:0000000000029b29 .LASF4499
C:\Users\CYMR90~1\AppData\Local\Temp\ccmBQqfl.s:28069  .debug_str:000000000001924d .LASF4500
C:\Users\CYMR90~1\AppData\Local\Temp\ccmBQqfl.s:26618  .debug_str:0000000000013534 .LASF4501
C:\Users\CYMR90~1\AppData\Local\Temp\ccmBQqfl.s:22412  .debug_str:000000000000272d .LASF4502
C:\Users\CYMR90~1\AppData\Local\Temp\ccmBQqfl.s:29561  .debug_str:000000000001f437 .LASF4503
C:\Users\CYMR90~1\AppData\Local\Temp\ccmBQqfl.s:24404  .debug_str:000000000000a765 .LASF4504
C:\Users\CYMR90~1\AppData\Local\Temp\ccmBQqfl.s:21916  .debug_str:00000000000007c7 .LASF4505
C:\Users\CYMR90~1\AppData\Local\Temp\ccmBQqfl.s:28479  .debug_str:000000000001aef4 .LASF4506
C:\Users\CYMR90~1\AppData\Local\Temp\ccmBQqfl.s:31817  .debug_str:0000000000028094 .LASF4507
C:\Users\CYMR90~1\AppData\Local\Temp\ccmBQqfl.s:27170  .debug_str:0000000000015803 .LASF4508
C:\Users\CYMR90~1\AppData\Local\Temp\ccmBQqfl.s:28131  .debug_str:00000000000196cc .LASF4509
C:\Users\CYMR90~1\AppData\Local\Temp\ccmBQqfl.s:24790  .debug_str:000000000000c11a .LASF4510
C:\Users\CYMR90~1\AppData\Local\Temp\ccmBQqfl.s:28185  .debug_str:0000000000019a40 .LASF4511
C:\Users\CYMR90~1\AppData\Local\Temp\ccmBQqfl.s:30149  .debug_str:0000000000021780 .LASF4512
C:\Users\CYMR90~1\AppData\Local\Temp\ccmBQqfl.s:28209  .debug_str:0000000000019c73 .LASF4513
C:\Users\CYMR90~1\AppData\Local\Temp\ccmBQqfl.s:28861  .debug_str:000000000001c741 .LASF4514
C:\Users\CYMR90~1\AppData\Local\Temp\ccmBQqfl.s:24452  .debug_str:000000000000a9ff .LASF4515
C:\Users\CYMR90~1\AppData\Local\Temp\ccmBQqfl.s:25148  .debug_str:000000000000d87d .LASF4516
C:\Users\CYMR90~1\AppData\Local\Temp\ccmBQqfl.s:29985  .debug_str:0000000000020ddb .LASF4517
C:\Users\CYMR90~1\AppData\Local\Temp\ccmBQqfl.s:29575  .debug_str:000000000001f4f7 .LASF4518
C:\Users\CYMR90~1\AppData\Local\Temp\ccmBQqfl.s:25278  .debug_str:000000000000dfde .LASF4519
C:\Users\CYMR90~1\AppData\Local\Temp\ccmBQqfl.s:28587  .debug_str:000000000001b627 .LASF4520
C:\Users\CYMR90~1\AppData\Local\Temp\ccmBQqfl.s:32459  .debug_str:000000000002a883 .LASF4521
C:\Users\CYMR90~1\AppData\Local\Temp\ccmBQqfl.s:26014  .debug_str:0000000000010e2f .LASF4522
C:\Users\CYMR90~1\AppData\Local\Temp\ccmBQqfl.s:26734  .debug_str:0000000000013cb5 .LASF4523
C:\Users\CYMR90~1\AppData\Local\Temp\ccmBQqfl.s:30435  .debug_str:000000000002293b .LASF4524
C:\Users\CYMR90~1\AppData\Local\Temp\ccmBQqfl.s:32563  .debug_str:000000000002aec9 .LASF4525
C:\Users\CYMR90~1\AppData\Local\Temp\ccmBQqfl.s:25794  .debug_str:000000000000ffeb .LASF4526
C:\Users\CYMR90~1\AppData\Local\Temp\ccmBQqfl.s:30499  .debug_str:0000000000022cd6 .LASF4527
C:\Users\CYMR90~1\AppData\Local\Temp\ccmBQqfl.s:32799  .debug_str:000000000002be07 .LASF4528
C:\Users\CYMR90~1\AppData\Local\Temp\ccmBQqfl.s:30989  .debug_str:0000000000024aa3 .LASF4529
C:\Users\CYMR90~1\AppData\Local\Temp\ccmBQqfl.s:27444  .debug_str:00000000000169b9 .LASF4530
C:\Users\CYMR90~1\AppData\Local\Temp\ccmBQqfl.s:28945  .debug_str:000000000001ccc0 .LASF4531
C:\Users\CYMR90~1\AppData\Local\Temp\ccmBQqfl.s:28235  .debug_str:0000000000019e02 .LASF4532
C:\Users\CYMR90~1\AppData\Local\Temp\ccmBQqfl.s:25930  .debug_str:000000000001087a .LASF4533
C:\Users\CYMR90~1\AppData\Local\Temp\ccmBQqfl.s:26370  .debug_str:0000000000012534 .LASF4534
C:\Users\CYMR90~1\AppData\Local\Temp\ccmBQqfl.s:22644  .debug_str:00000000000036bb .LASF4535
C:\Users\CYMR90~1\AppData\Local\Temp\ccmBQqfl.s:25032  .debug_str:000000000000d050 .LASF4536
C:\Users\CYMR90~1\AppData\Local\Temp\ccmBQqfl.s:26424  .debug_str:00000000000128aa .LASF4537
C:\Users\CYMR90~1\AppData\Local\Temp\ccmBQqfl.s:29427  .debug_str:000000000001ebf5 .LASF4538
C:\Users\CYMR90~1\AppData\Local\Temp\ccmBQqfl.s:25400  .debug_str:000000000000e71e .LASF4539
C:\Users\CYMR90~1\AppData\Local\Temp\ccmBQqfl.s:28337  .debug_str:000000000001a425 .LASF4540
C:\Users\CYMR90~1\AppData\Local\Temp\ccmBQqfl.s:22004  .debug_str:0000000000000d7a .LASF4541
C:\Users\CYMR90~1\AppData\Local\Temp\ccmBQqfl.s:31821  .debug_str:00000000000280e1 .LASF4542
C:\Users\CYMR90~1\AppData\Local\Temp\ccmBQqfl.s:33059  .debug_str:000000000002cf4e .LASF4543
C:\Users\CYMR90~1\AppData\Local\Temp\ccmBQqfl.s:25174  .debug_str:000000000000d9ec .LASF4544
C:\Users\CYMR90~1\AppData\Local\Temp\ccmBQqfl.s:27859  .debug_str:000000000001858d .LASF4545
C:\Users\CYMR90~1\AppData\Local\Temp\ccmBQqfl.s:26968  .debug_str:0000000000014b7f .LASF4546
C:\Users\CYMR90~1\AppData\Local\Temp\ccmBQqfl.s:22886  .debug_str:0000000000004676 .LASF4547
C:\Users\CYMR90~1\AppData\Local\Temp\ccmBQqfl.s:27316  .debug_str:0000000000016143 .LASF4548
C:\Users\CYMR90~1\AppData\Local\Temp\ccmBQqfl.s:32527  .debug_str:000000000002accf .LASF4549
C:\Users\CYMR90~1\AppData\Local\Temp\ccmBQqfl.s:30055  .debug_str:000000000002122d .LASF4550
C:\Users\CYMR90~1\AppData\Local\Temp\ccmBQqfl.s:32529  .debug_str:000000000002aced .LASF4551
C:\Users\CYMR90~1\AppData\Local\Temp\ccmBQqfl.s:28881  .debug_str:000000000001c87d .LASF4552
C:\Users\CYMR90~1\AppData\Local\Temp\ccmBQqfl.s:22102  .debug_str:000000000000139a .LASF4553
C:\Users\CYMR90~1\AppData\Local\Temp\ccmBQqfl.s:31247  .debug_str:0000000000025c6b .LASF4554
C:\Users\CYMR90~1\AppData\Local\Temp\ccmBQqfl.s:28781  .debug_str:000000000001c233 .LASF4555
C:\Users\CYMR90~1\AppData\Local\Temp\ccmBQqfl.s:23298  .debug_str:0000000000006076 .LASF4556
C:\Users\CYMR90~1\AppData\Local\Temp\ccmBQqfl.s:25406  .debug_str:000000000000e76c .LASF4557
C:\Users\CYMR90~1\AppData\Local\Temp\ccmBQqfl.s:29925  .debug_str:00000000000209f2 .LASF4558
C:\Users\CYMR90~1\AppData\Local\Temp\ccmBQqfl.s:26556  .debug_str:0000000000013137 .LASF4559
C:\Users\CYMR90~1\AppData\Local\Temp\ccmBQqfl.s:31623  .debug_str:0000000000027405 .LASF4560
C:\Users\CYMR90~1\AppData\Local\Temp\ccmBQqfl.s:27084  .debug_str:00000000000152f2 .LASF4561
C:\Users\CYMR90~1\AppData\Local\Temp\ccmBQqfl.s:32597  .debug_str:000000000002b0ec .LASF4562
C:\Users\CYMR90~1\AppData\Local\Temp\ccmBQqfl.s:25916  .debug_str:00000000000107b8 .LASF4563
C:\Users\CYMR90~1\AppData\Local\Temp\ccmBQqfl.s:29793  .debug_str:0000000000020280 .LASF4564
C:\Users\CYMR90~1\AppData\Local\Temp\ccmBQqfl.s:25502  .debug_str:000000000000edf3 .LASF4565
C:\Users\CYMR90~1\AppData\Local\Temp\ccmBQqfl.s:23210  .debug_str:0000000000005b4d .LASF4566
C:\Users\CYMR90~1\AppData\Local\Temp\ccmBQqfl.s:32365  .debug_str:000000000002a313 .LASF4567
C:\Users\CYMR90~1\AppData\Local\Temp\ccmBQqfl.s:30105  .debug_str:0000000000021513 .LASF4568
C:\Users\CYMR90~1\AppData\Local\Temp\ccmBQqfl.s:32879  .debug_str:000000000002c3a2 .LASF4569
C:\Users\CYMR90~1\AppData\Local\Temp\ccmBQqfl.s:25708  .debug_str:000000000000fac6 .LASF4570
C:\Users\CYMR90~1\AppData\Local\Temp\ccmBQqfl.s:24114  .debug_str:0000000000009516 .LASF4571
C:\Users\CYMR90~1\AppData\Local\Temp\ccmBQqfl.s:32561  .debug_str:000000000002aea7 .LASF4572
C:\Users\CYMR90~1\AppData\Local\Temp\ccmBQqfl.s:29113  .debug_str:000000000001d86e .LASF4573
C:\Users\CYMR90~1\AppData\Local\Temp\ccmBQqfl.s:32023  .debug_str:0000000000028ed2 .LASF4574
C:\Users\CYMR90~1\AppData\Local\Temp\ccmBQqfl.s:23514  .debug_str:0000000000006d8e .LASF4575
C:\Users\CYMR90~1\AppData\Local\Temp\ccmBQqfl.s:30351  .debug_str:000000000002245f .LASF4576
C:\Users\CYMR90~1\AppData\Local\Temp\ccmBQqfl.s:32191  .debug_str:0000000000029894 .LASF4577
C:\Users\CYMR90~1\AppData\Local\Temp\ccmBQqfl.s:31917  .debug_str:0000000000028804 .LASF4578
C:\Users\CYMR90~1\AppData\Local\Temp\ccmBQqfl.s:31211  .debug_str:00000000000259fa .LASF4579
C:\Users\CYMR90~1\AppData\Local\Temp\ccmBQqfl.s:28311  .debug_str:000000000001a29a .LASF4580
C:\Users\CYMR90~1\AppData\Local\Temp\ccmBQqfl.s:24290  .debug_str:000000000000a027 .LASF4581
C:\Users\CYMR90~1\AppData\Local\Temp\ccmBQqfl.s:25710  .debug_str:000000000000fae8 .LASF4582
C:\Users\CYMR90~1\AppData\Local\Temp\ccmBQqfl.s:22374  .debug_str:0000000000002500 .LASF4583
C:\Users\CYMR90~1\AppData\Local\Temp\ccmBQqfl.s:32003  .debug_str:0000000000028d93 .LASF4584
C:\Users\CYMR90~1\AppData\Local\Temp\ccmBQqfl.s:29415  .debug_str:000000000001eb61 .LASF4585
C:\Users\CYMR90~1\AppData\Local\Temp\ccmBQqfl.s:27633  .debug_str:0000000000017791 .LASF4586
C:\Users\CYMR90~1\AppData\Local\Temp\ccmBQqfl.s:25102  .debug_str:000000000000d522 .LASF4587
C:\Users\CYMR90~1\AppData\Local\Temp\ccmBQqfl.s:32937  .debug_str:000000000002c730 .LASF4588
C:\Users\CYMR90~1\AppData\Local\Temp\ccmBQqfl.s:27468  .debug_str:0000000000016b00 .LASF4589
C:\Users\CYMR90~1\AppData\Local\Temp\ccmBQqfl.s:32591  .debug_str:000000000002b08c .LASF4590
C:\Users\CYMR90~1\AppData\Local\Temp\ccmBQqfl.s:22576  .debug_str:0000000000003244 .LASF4591
C:\Users\CYMR90~1\AppData\Local\Temp\ccmBQqfl.s:30961  .debug_str:0000000000024910 .LASF4592
C:\Users\CYMR90~1\AppData\Local\Temp\ccmBQqfl.s:27478  .debug_str:0000000000016c06 .LASF4593
C:\Users\CYMR90~1\AppData\Local\Temp\ccmBQqfl.s:24002  .debug_str:0000000000008e16 .LASF4594
C:\Users\CYMR90~1\AppData\Local\Temp\ccmBQqfl.s:31701  .debug_str:0000000000027984 .LASF4595
C:\Users\CYMR90~1\AppData\Local\Temp\ccmBQqfl.s:30639  .debug_str:000000000002355b .LASF4596
C:\Users\CYMR90~1\AppData\Local\Temp\ccmBQqfl.s:22346  .debug_str:000000000000235b .LASF4597
C:\Users\CYMR90~1\AppData\Local\Temp\ccmBQqfl.s:23474  .debug_str:0000000000006b31 .LASF4598
C:\Users\CYMR90~1\AppData\Local\Temp\ccmBQqfl.s:31839  .debug_str:000000000002822a .LASF4599
C:\Users\CYMR90~1\AppData\Local\Temp\ccmBQqfl.s:31233  .debug_str:0000000000025b8b .LASF4600
C:\Users\CYMR90~1\AppData\Local\Temp\ccmBQqfl.s:23828  .debug_str:00000000000082af .LASF4601
C:\Users\CYMR90~1\AppData\Local\Temp\ccmBQqfl.s:31757  .debug_str:0000000000027c9b .LASF4602
C:\Users\CYMR90~1\AppData\Local\Temp\ccmBQqfl.s:27214  .debug_str:0000000000015a87 .LASF4603
C:\Users\CYMR90~1\AppData\Local\Temp\ccmBQqfl.s:29023  .debug_str:000000000001d1e3 .LASF4604
C:\Users\CYMR90~1\AppData\Local\Temp\ccmBQqfl.s:29157  .debug_str:000000000001db39 .LASF4605
C:\Users\CYMR90~1\AppData\Local\Temp\ccmBQqfl.s:25224  .debug_str:000000000000dcd1 .LASF4606
C:\Users\CYMR90~1\AppData\Local\Temp\ccmBQqfl.s:25736  .debug_str:000000000000fc33 .LASF4607
C:\Users\CYMR90~1\AppData\Local\Temp\ccmBQqfl.s:32341  .debug_str:000000000002a1e6 .LASF4608
C:\Users\CYMR90~1\AppData\Local\Temp\ccmBQqfl.s:25544  .debug_str:000000000000f03a .LASF4609
C:\Users\CYMR90~1\AppData\Local\Temp\ccmBQqfl.s:28937  .debug_str:000000000001cbaa .LASF4610
C:\Users\CYMR90~1\AppData\Local\Temp\ccmBQqfl.s:24620  .debug_str:000000000000b535 .LASF4611
C:\Users\CYMR90~1\AppData\Local\Temp\ccmBQqfl.s:27787  .debug_str:0000000000018123 .LASF4612
C:\Users\CYMR90~1\AppData\Local\Temp\ccmBQqfl.s:25962  .debug_str:0000000000010af2 .LASF4613
C:\Users\CYMR90~1\AppData\Local\Temp\ccmBQqfl.s:22418  .debug_str:00000000000027d0 .LASF4614
C:\Users\CYMR90~1\AppData\Local\Temp\ccmBQqfl.s:30625  .debug_str:00000000000234ab .LASF4615
C:\Users\CYMR90~1\AppData\Local\Temp\ccmBQqfl.s:22144  .debug_str:000000000000160d .LASF4616
C:\Users\CYMR90~1\AppData\Local\Temp\ccmBQqfl.s:21970  .debug_str:0000000000000b71 .LASF4617
C:\Users\CYMR90~1\AppData\Local\Temp\ccmBQqfl.s:23048  .debug_str:0000000000005157 .LASF4618
C:\Users\CYMR90~1\AppData\Local\Temp\ccmBQqfl.s:23688  .debug_str:00000000000078ad .LASF4619
C:\Users\CYMR90~1\AppData\Local\Temp\ccmBQqfl.s:31427  .debug_str:0000000000026819 .LASF4620
C:\Users\CYMR90~1\AppData\Local\Temp\ccmBQqfl.s:22334  .debug_str:00000000000022bb .LASF4621
C:\Users\CYMR90~1\AppData\Local\Temp\ccmBQqfl.s:30165  .debug_str:000000000002187c .LASF4622
C:\Users\CYMR90~1\AppData\Local\Temp\ccmBQqfl.s:24702  .debug_str:000000000000bb14 .LASF4623
C:\Users\CYMR90~1\AppData\Local\Temp\ccmBQqfl.s:30865  .debug_str:00000000000242d4 .LASF4624
C:\Users\CYMR90~1\AppData\Local\Temp\ccmBQqfl.s:24042  .debug_str:0000000000009113 .LASF4625
C:\Users\CYMR90~1\AppData\Local\Temp\ccmBQqfl.s:29777  .debug_str:0000000000020192 .LASF4626
C:\Users\CYMR90~1\AppData\Local\Temp\ccmBQqfl.s:30413  .debug_str:00000000000227fa .LASF4627
C:\Users\CYMR90~1\AppData\Local\Temp\ccmBQqfl.s:27925  .debug_str:0000000000018979 .LASF4628
C:\Users\CYMR90~1\AppData\Local\Temp\ccmBQqfl.s:30505  .debug_str:0000000000022d4c .LASF4629
C:\Users\CYMR90~1\AppData\Local\Temp\ccmBQqfl.s:27394  .debug_str:000000000001665e .LASF4630
C:\Users\CYMR90~1\AppData\Local\Temp\ccmBQqfl.s:27298  .debug_str:0000000000016014 .LASF4631
C:\Users\CYMR90~1\AppData\Local\Temp\ccmBQqfl.s:26488  .debug_str:0000000000012cdc .LASF4632
C:\Users\CYMR90~1\AppData\Local\Temp\ccmBQqfl.s:29487  .debug_str:000000000001eff3 .LASF4633
C:\Users\CYMR90~1\AppData\Local\Temp\ccmBQqfl.s:26132  .debug_str:0000000000011535 .LASF4634
C:\Users\CYMR90~1\AppData\Local\Temp\ccmBQqfl.s:29201  .debug_str:000000000001de51 .LASF4635
C:\Users\CYMR90~1\AppData\Local\Temp\ccmBQqfl.s:33117  .debug_str:000000000002d345 .LASF4636
C:\Users\CYMR90~1\AppData\Local\Temp\ccmBQqfl.s:25392  .debug_str:000000000000e69c .LASF4637
C:\Users\CYMR90~1\AppData\Local\Temp\ccmBQqfl.s:27887  .debug_str:0000000000018736 .LASF4638
C:\Users\CYMR90~1\AppData\Local\Temp\ccmBQqfl.s:22196  .debug_str:0000000000001ab0 .LASF4639
C:\Users\CYMR90~1\AppData\Local\Temp\ccmBQqfl.s:22838  .debug_str:0000000000004315 .LASF4640
C:\Users\CYMR90~1\AppData\Local\Temp\ccmBQqfl.s:22842  .debug_str:00000000000043e5 .LASF4641
C:\Users\CYMR90~1\AppData\Local\Temp\ccmBQqfl.s:26046  .debug_str:0000000000011098 .LASF4642
C:\Users\CYMR90~1\AppData\Local\Temp\ccmBQqfl.s:30883  .debug_str:00000000000243be .LASF4643
C:\Users\CYMR90~1\AppData\Local\Temp\ccmBQqfl.s:27783  .debug_str:00000000000180ee .LASF4644
C:\Users\CYMR90~1\AppData\Local\Temp\ccmBQqfl.s:24434  .debug_str:000000000000a91b .LASF4645
C:\Users\CYMR90~1\AppData\Local\Temp\ccmBQqfl.s:30039  .debug_str:000000000002115a .LASF4646
C:\Users\CYMR90~1\AppData\Local\Temp\ccmBQqfl.s:23770  .debug_str:0000000000007dd9 .LASF4647
C:\Users\CYMR90~1\AppData\Local\Temp\ccmBQqfl.s:31311  .debug_str:00000000000260f0 .LASF4648
C:\Users\CYMR90~1\AppData\Local\Temp\ccmBQqfl.s:30945  .debug_str:00000000000247e1 .LASF4649
C:\Users\CYMR90~1\AppData\Local\Temp\ccmBQqfl.s:25870  .debug_str:000000000001050a .LASF4650
C:\Users\CYMR90~1\AppData\Local\Temp\ccmBQqfl.s:27176  .debug_str:000000000001585b .LASF4651
C:\Users\CYMR90~1\AppData\Local\Temp\ccmBQqfl.s:32729  .debug_str:000000000002b960 .LASF4652
C:\Users\CYMR90~1\AppData\Local\Temp\ccmBQqfl.s:30995  .debug_str:0000000000024b1b .LASF4653
C:\Users\CYMR90~1\AppData\Local\Temp\ccmBQqfl.s:28177  .debug_str:0000000000019995 .LASF4654
C:\Users\CYMR90~1\AppData\Local\Temp\ccmBQqfl.s:29007  .debug_str:000000000001d0b8 .LASF4655
C:\Users\CYMR90~1\AppData\Local\Temp\ccmBQqfl.s:27380  .debug_str:0000000000016576 .LASF4656
C:\Users\CYMR90~1\AppData\Local\Temp\ccmBQqfl.s:24050  .debug_str:0000000000009191 .LASF4657
C:\Users\CYMR90~1\AppData\Local\Temp\ccmBQqfl.s:28181  .debug_str:00000000000199dd .LASF4658
C:\Users\CYMR90~1\AppData\Local\Temp\ccmBQqfl.s:29683  .debug_str:000000000001fbe5 .LASF4659
C:\Users\CYMR90~1\AppData\Local\Temp\ccmBQqfl.s:27641  .debug_str:00000000000177ed .LASF4660
C:\Users\CYMR90~1\AppData\Local\Temp\ccmBQqfl.s:27408  .debug_str:0000000000016709 .LASF4661
C:\Users\CYMR90~1\AppData\Local\Temp\ccmBQqfl.s:22786  .debug_str:0000000000003fb6 .LASF4662
C:\Users\CYMR90~1\AppData\Local\Temp\ccmBQqfl.s:31721  .debug_str:0000000000027a92 .LASF4663
C:\Users\CYMR90~1\AppData\Local\Temp\ccmBQqfl.s:25362  .debug_str:000000000000e4d0 .LASF4664
C:\Users\CYMR90~1\AppData\Local\Temp\ccmBQqfl.s:22830  .debug_str:0000000000004292 .LASF4665
C:\Users\CYMR90~1\AppData\Local\Temp\ccmBQqfl.s:27022  .debug_str:0000000000014e9a .LASF4666
C:\Users\CYMR90~1\AppData\Local\Temp\ccmBQqfl.s:25356  .debug_str:000000000000e48a .LASF4667
C:\Users\CYMR90~1\AppData\Local\Temp\ccmBQqfl.s:22358  .debug_str:0000000000002425 .LASF4668
C:\Users\CYMR90~1\AppData\Local\Temp\ccmBQqfl.s:32569  .debug_str:000000000002af2d .LASF4669
C:\Users\CYMR90~1\AppData\Local\Temp\ccmBQqfl.s:23950  .debug_str:0000000000008ae2 .LASF4670
C:\Users\CYMR90~1\AppData\Local\Temp\ccmBQqfl.s:22534  .debug_str:0000000000002f9d .LASF4671
C:\Users\CYMR90~1\AppData\Local\Temp\ccmBQqfl.s:26256  .debug_str:0000000000011e05 .LASF4672
C:\Users\CYMR90~1\AppData\Local\Temp\ccmBQqfl.s:30509  .debug_str:0000000000022d88 .LASF4673
C:\Users\CYMR90~1\AppData\Local\Temp\ccmBQqfl.s:24802  .debug_str:000000000000c206 .LASF4674
C:\Users\CYMR90~1\AppData\Local\Temp\ccmBQqfl.s:28339  .debug_str:000000000001a43c .LASF4675
C:\Users\CYMR90~1\AppData\Local\Temp\ccmBQqfl.s:31255  .debug_str:0000000000025d0c .LASF4676
C:\Users\CYMR90~1\AppData\Local\Temp\ccmBQqfl.s:27118  .debug_str:0000000000015537 .LASF4677
C:\Users\CYMR90~1\AppData\Local\Temp\ccmBQqfl.s:33089  .debug_str:000000000002d0fd .LASF4678
C:\Users\CYMR90~1\AppData\Local\Temp\ccmBQqfl.s:31969  .debug_str:0000000000028b92 .LASF4679
C:\Users\CYMR90~1\AppData\Local\Temp\ccmBQqfl.s:30719  .debug_str:00000000000239aa .LASF4680
C:\Users\CYMR90~1\AppData\Local\Temp\ccmBQqfl.s:29521  .debug_str:000000000001f1da .LASF4681
C:\Users\CYMR90~1\AppData\Local\Temp\ccmBQqfl.s:25932  .debug_str:00000000000108b8 .LASF4682
C:\Users\CYMR90~1\AppData\Local\Temp\ccmBQqfl.s:32981  .debug_str:000000000002ca65 .LASF4683
C:\Users\CYMR90~1\AppData\Local\Temp\ccmBQqfl.s:31119  .debug_str:00000000000253aa .LASF4684
C:\Users\CYMR90~1\AppData\Local\Temp\ccmBQqfl.s:31031  .debug_str:0000000000024d6c .LASF4685
C:\Users\CYMR90~1\AppData\Local\Temp\ccmBQqfl.s:23566  .debug_str:00000000000070f6 .LASF4686
C:\Users\CYMR90~1\AppData\Local\Temp\ccmBQqfl.s:27432  .debug_str:00000000000168fe .LASF4687
C:\Users\CYMR90~1\AppData\Local\Temp\ccmBQqfl.s:31783  .debug_str:0000000000027e1f .LASF4688
C:\Users\CYMR90~1\AppData\Local\Temp\ccmBQqfl.s:29003  .debug_str:000000000001d061 .LASF4689
C:\Users\CYMR90~1\AppData\Local\Temp\ccmBQqfl.s:31587  .debug_str:0000000000027184 .LASF4690
C:\Users\CYMR90~1\AppData\Local\Temp\ccmBQqfl.s:27751  .debug_str:0000000000017f15 .LASF4691
C:\Users\CYMR90~1\AppData\Local\Temp\ccmBQqfl.s:30737  .debug_str:0000000000023ad7 .LASF4692
C:\Users\CYMR90~1\AppData\Local\Temp\ccmBQqfl.s:23848  .debug_str:00000000000083f4 .LASF4693
C:\Users\CYMR90~1\AppData\Local\Temp\ccmBQqfl.s:28989  .debug_str:000000000001cf7e .LASF4694
C:\Users\CYMR90~1\AppData\Local\Temp\ccmBQqfl.s:24476  .debug_str:000000000000abb3 .LASF4695
C:\Users\CYMR90~1\AppData\Local\Temp\ccmBQqfl.s:23444  .debug_str:0000000000006913 .LASF4696
C:\Users\CYMR90~1\AppData\Local\Temp\ccmBQqfl.s:27426  .debug_str:00000000000168b1 .LASF4697
C:\Users\CYMR90~1\AppData\Local\Temp\ccmBQqfl.s:28607  .debug_str:000000000001b788 .LASF4698
C:\Users\CYMR90~1\AppData\Local\Temp\ccmBQqfl.s:22820  .debug_str:0000000000004209 .LASF4699
C:\Users\CYMR90~1\AppData\Local\Temp\ccmBQqfl.s:31331  .debug_str:0000000000026239 .LASF4700
C:\Users\CYMR90~1\AppData\Local\Temp\ccmBQqfl.s:28419  .debug_str:000000000001aab5 .LASF4701
C:\Users\CYMR90~1\AppData\Local\Temp\ccmBQqfl.s:22792  .debug_str:0000000000004008 .LASF4702
C:\Users\CYMR90~1\AppData\Local\Temp\ccmBQqfl.s:26918  .debug_str:00000000000147d0 .LASF4703
C:\Users\CYMR90~1\AppData\Local\Temp\ccmBQqfl.s:25136  .debug_str:000000000000d7ad .LASF4704
C:\Users\CYMR90~1\AppData\Local\Temp\ccmBQqfl.s:30057  .debug_str:000000000002124a .LASF4705
C:\Users\CYMR90~1\AppData\Local\Temp\ccmBQqfl.s:31439  .debug_str:000000000002689b .LASF4706
C:\Users\CYMR90~1\AppData\Local\Temp\ccmBQqfl.s:29743  .debug_str:000000000001ff80 .LASF4707
C:\Users\CYMR90~1\AppData\Local\Temp\ccmBQqfl.s:30353  .debug_str:0000000000022483 .LASF4708
C:\Users\CYMR90~1\AppData\Local\Temp\ccmBQqfl.s:28569  .debug_str:000000000001b4cb .LASF4709
C:\Users\CYMR90~1\AppData\Local\Temp\ccmBQqfl.s:29895  .debug_str:000000000002084b .LASF4710
C:\Users\CYMR90~1\AppData\Local\Temp\ccmBQqfl.s:31391  .debug_str:000000000002660c .LASF4711
C:\Users\CYMR90~1\AppData\Local\Temp\ccmBQqfl.s:30869  .debug_str:000000000002430c .LASF4712
C:\Users\CYMR90~1\AppData\Local\Temp\ccmBQqfl.s:24022  .debug_str:0000000000008f08 .LASF4713
C:\Users\CYMR90~1\AppData\Local\Temp\ccmBQqfl.s:30265  .debug_str:0000000000021f30 .LASF4714
C:\Users\CYMR90~1\AppData\Local\Temp\ccmBQqfl.s:23438  .debug_str:00000000000068b4 .LASF4715
C:\Users\CYMR90~1\AppData\Local\Temp\ccmBQqfl.s:23068  .debug_str:000000000000527b .LASF4716
C:\Users\CYMR90~1\AppData\Local\Temp\ccmBQqfl.s:24728  .debug_str:000000000000bcfb .LASF4717
C:\Users\CYMR90~1\AppData\Local\Temp\ccmBQqfl.s:30553  .debug_str:0000000000023037 .LASF4718
C:\Users\CYMR90~1\AppData\Local\Temp\ccmBQqfl.s:22680  .debug_str:00000000000038dd .LASF4719
C:\Users\CYMR90~1\AppData\Local\Temp\ccmBQqfl.s:21954  .debug_str:0000000000000a17 .LASF4720
C:\Users\CYMR90~1\AppData\Local\Temp\ccmBQqfl.s:26714  .debug_str:0000000000013b91 .LASF4721
C:\Users\CYMR90~1\AppData\Local\Temp\ccmBQqfl.s:27837  .debug_str:0000000000018405 .LASF4722
C:\Users\CYMR90~1\AppData\Local\Temp\ccmBQqfl.s:29145  .debug_str:000000000001da9a .LASF4723
C:\Users\CYMR90~1\AppData\Local\Temp\ccmBQqfl.s:29049  .debug_str:000000000001d42b .LASF4724
C:\Users\CYMR90~1\AppData\Local\Temp\ccmBQqfl.s:27058  .debug_str:0000000000015139 .LASF4725
C:\Users\CYMR90~1\AppData\Local\Temp\ccmBQqfl.s:22342  .debug_str:0000000000002314 .LASF4726
C:\Users\CYMR90~1\AppData\Local\Temp\ccmBQqfl.s:23802  .debug_str:000000000000807a .LASF4727
C:\Users\CYMR90~1\AppData\Local\Temp\ccmBQqfl.s:24860  .debug_str:000000000000c54f .LASF4728
C:\Users\CYMR90~1\AppData\Local\Temp\ccmBQqfl.s:27200  .debug_str:00000000000159da .LASF4729
C:\Users\CYMR90~1\AppData\Local\Temp\ccmBQqfl.s:28733  .debug_str:000000000001bef9 .LASF4730
C:\Users\CYMR90~1\AppData\Local\Temp\ccmBQqfl.s:22908  .debug_str:00000000000047de .LASF4731
C:\Users\CYMR90~1\AppData\Local\Temp\ccmBQqfl.s:23926  .debug_str:00000000000088a6 .LASF4732
C:\Users\CYMR90~1\AppData\Local\Temp\ccmBQqfl.s:25566  .debug_str:000000000000f17f .LASF4733
C:\Users\CYMR90~1\AppData\Local\Temp\ccmBQqfl.s:29327  .debug_str:000000000001e63b .LASF4734
C:\Users\CYMR90~1\AppData\Local\Temp\ccmBQqfl.s:30963  .debug_str:000000000002492c .LASF4735
C:\Users\CYMR90~1\AppData\Local\Temp\ccmBQqfl.s:32475  .debug_str:000000000002a9bb .LASF4736
C:\Users\CYMR90~1\AppData\Local\Temp\ccmBQqfl.s:25782  .debug_str:000000000000ff06 .LASF4737
C:\Users\CYMR90~1\AppData\Local\Temp\ccmBQqfl.s:30377  .debug_str:00000000000225e7 .LASF4738
C:\Users\CYMR90~1\AppData\Local\Temp\ccmBQqfl.s:31909  .debug_str:0000000000028780 .LASF4739
C:\Users\CYMR90~1\AppData\Local\Temp\ccmBQqfl.s:30759  .debug_str:0000000000023c4a .LASF4740
C:\Users\CYMR90~1\AppData\Local\Temp\ccmBQqfl.s:27076  .debug_str:0000000000015263 .LASF4741
C:\Users\CYMR90~1\AppData\Local\Temp\ccmBQqfl.s:27060  .debug_str:000000000001515c .LASF4742
C:\Users\CYMR90~1\AppData\Local\Temp\ccmBQqfl.s:24618  .debug_str:000000000000b50c .LASF4743
C:\Users\CYMR90~1\AppData\Local\Temp\ccmBQqfl.s:32177  .debug_str:00000000000297b5 .LASF4744
C:\Users\CYMR90~1\AppData\Local\Temp\ccmBQqfl.s:27150  .debug_str:0000000000015700 .LASF4745
C:\Users\CYMR90~1\AppData\Local\Temp\ccmBQqfl.s:30255  .debug_str:0000000000021e93 .LASF4746
C:\Users\CYMR90~1\AppData\Local\Temp\ccmBQqfl.s:32579  .debug_str:000000000002afe3 .LASF4747
C:\Users\CYMR90~1\AppData\Local\Temp\ccmBQqfl.s:21926  .debug_str:000000000000085e .LASF4748
C:\Users\CYMR90~1\AppData\Local\Temp\ccmBQqfl.s:27693  .debug_str:0000000000017b3a .LASF4749
C:\Users\CYMR90~1\AppData\Local\Temp\ccmBQqfl.s:29537  .debug_str:000000000001f2db .LASF4750
C:\Users\CYMR90~1\AppData\Local\Temp\ccmBQqfl.s:24354  .debug_str:000000000000a403 .LASF4751
C:\Users\CYMR90~1\AppData\Local\Temp\ccmBQqfl.s:23184  .debug_str:00000000000059be .LASF4752
C:\Users\CYMR90~1\AppData\Local\Temp\ccmBQqfl.s:25706  .debug_str:000000000000fa9c .LASF4753
C:\Users\CYMR90~1\AppData\Local\Temp\ccmBQqfl.s:27971  .debug_str:0000000000018c45 .LASF4754
C:\Users\CYMR90~1\AppData\Local\Temp\ccmBQqfl.s:22440  .debug_str:0000000000002970 .LASF4755
C:\Users\CYMR90~1\AppData\Local\Temp\ccmBQqfl.s:28213  .debug_str:0000000000019cc6 .LASF4756
C:\Users\CYMR90~1\AppData\Local\Temp\ccmBQqfl.s:29597  .debug_str:000000000001f676 .LASF4757
C:\Users\CYMR90~1\AppData\Local\Temp\ccmBQqfl.s:21962  .debug_str:0000000000000add .LASF4758
C:\Users\CYMR90~1\AppData\Local\Temp\ccmBQqfl.s:23420  .debug_str:00000000000067b4 .LASF4759
C:\Users\CYMR90~1\AppData\Local\Temp\ccmBQqfl.s:26468  .debug_str:0000000000012b87 .LASF4760
C:\Users\CYMR90~1\AppData\Local\Temp\ccmBQqfl.s:28847  .debug_str:000000000001c673 .LASF4761
C:\Users\CYMR90~1\AppData\Local\Temp\ccmBQqfl.s:28215  .debug_str:0000000000019cf2 .LASF4762
C:\Users\CYMR90~1\AppData\Local\Temp\ccmBQqfl.s:32627  .debug_str:000000000002b2cd .LASF4763
C:\Users\CYMR90~1\AppData\Local\Temp\ccmBQqfl.s:24776  .debug_str:000000000000c01c .LASF4764
C:\Users\CYMR90~1\AppData\Local\Temp\ccmBQqfl.s:25700  .debug_str:000000000000fa2f .LASF4765
C:\Users\CYMR90~1\AppData\Local\Temp\ccmBQqfl.s:31809  .debug_str:0000000000028003 .LASF4766
C:\Users\CYMR90~1\AppData\Local\Temp\ccmBQqfl.s:27793  .debug_str:0000000000018179 .LASF4767
C:\Users\CYMR90~1\AppData\Local\Temp\ccmBQqfl.s:30043  .debug_str:0000000000021185 .LASF4768
C:\Users\CYMR90~1\AppData\Local\Temp\ccmBQqfl.s:30047  .debug_str:00000000000211be .LASF4769
C:\Users\CYMR90~1\AppData\Local\Temp\ccmBQqfl.s:22554  .debug_str:00000000000030be .LASF4770
C:\Users\CYMR90~1\AppData\Local\Temp\ccmBQqfl.s:25878  .debug_str:000000000001057f .LASF4771
C:\Users\CYMR90~1\AppData\Local\Temp\ccmBQqfl.s:32369  .debug_str:000000000002a350 .LASF4772
C:\Users\CYMR90~1\AppData\Local\Temp\ccmBQqfl.s:23960  .debug_str:0000000000008b81 .LASF4773
C:\Users\CYMR90~1\AppData\Local\Temp\ccmBQqfl.s:25742  .debug_str:000000000000fc89 .LASF4774
C:\Users\CYMR90~1\AppData\Local\Temp\ccmBQqfl.s:22496  .debug_str:0000000000002d49 .LASF4775
C:\Users\CYMR90~1\AppData\Local\Temp\ccmBQqfl.s:25768  .debug_str:000000000000fe39 .LASF4776
C:\Users\CYMR90~1\AppData\Local\Temp\ccmBQqfl.s:27597  .debug_str:0000000000017592 .LASF4777
C:\Users\CYMR90~1\AppData\Local\Temp\ccmBQqfl.s:25216  .debug_str:000000000000dc59 .LASF4778
C:\Users\CYMR90~1\AppData\Local\Temp\ccmBQqfl.s:27673  .debug_str:0000000000017a07 .LASF4779
C:\Users\CYMR90~1\AppData\Local\Temp\ccmBQqfl.s:24238  .debug_str:0000000000009d1b .LASF4780
C:\Users\CYMR90~1\AppData\Local\Temp\ccmBQqfl.s:27070  .debug_str:0000000000015205 .LASF4781
C:\Users\CYMR90~1\AppData\Local\Temp\ccmBQqfl.s:22772  .debug_str:0000000000003ebe .LASF4782
C:\Users\CYMR90~1\AppData\Local\Temp\ccmBQqfl.s:24992  .debug_str:000000000000ce14 .LASF4783
C:\Users\CYMR90~1\AppData\Local\Temp\ccmBQqfl.s:32625  .debug_str:000000000002b2a8 .LASF4784
C:\Users\CYMR90~1\AppData\Local\Temp\ccmBQqfl.s:30919  .debug_str:000000000002465e .LASF4785
C:\Users\CYMR90~1\AppData\Local\Temp\ccmBQqfl.s:32611  .debug_str:000000000002b1dd .LASF4786
C:\Users\CYMR90~1\AppData\Local\Temp\ccmBQqfl.s:27869  .debug_str:000000000001860f .LASF4787
C:\Users\CYMR90~1\AppData\Local\Temp\ccmBQqfl.s:32105  .debug_str:0000000000029379 .LASF4788
C:\Users\CYMR90~1\AppData\Local\Temp\ccmBQqfl.s:31781  .debug_str:0000000000027dfd .LASF4789
C:\Users\CYMR90~1\AppData\Local\Temp\ccmBQqfl.s:24212  .debug_str:0000000000009b5b .LASF4790
C:\Users\CYMR90~1\AppData\Local\Temp\ccmBQqfl.s:31531  .debug_str:0000000000026e60 .LASF4791
C:\Users\CYMR90~1\AppData\Local\Temp\ccmBQqfl.s:27853  .debug_str:0000000000018524 .LASF4792
C:\Users\CYMR90~1\AppData\Local\Temp\ccmBQqfl.s:27759  .debug_str:0000000000017f76 .LASF4793
C:\Users\CYMR90~1\AppData\Local\Temp\ccmBQqfl.s:31659  .debug_str:00000000000275e2 .LASF4794
C:\Users\CYMR90~1\AppData\Local\Temp\ccmBQqfl.s:25626  .debug_str:000000000000f51c .LASF4795
C:\Users\CYMR90~1\AppData\Local\Temp\ccmBQqfl.s:29027  .debug_str:000000000001d227 .LASF4796
C:\Users\CYMR90~1\AppData\Local\Temp\ccmBQqfl.s:28047  .debug_str:0000000000019139 .LASF4797
C:\Users\CYMR90~1\AppData\Local\Temp\ccmBQqfl.s:24940  .debug_str:000000000000ca9f .LASF4798
C:\Users\CYMR90~1\AppData\Local\Temp\ccmBQqfl.s:31179  .debug_str:0000000000025825 .LASF4799
C:\Users\CYMR90~1\AppData\Local\Temp\ccmBQqfl.s:24346  .debug_str:000000000000a38d .LASF4800
C:\Users\CYMR90~1\AppData\Local\Temp\ccmBQqfl.s:31005  .debug_str:0000000000024bd0 .LASF4801
C:\Users\CYMR90~1\AppData\Local\Temp\ccmBQqfl.s:28787  .debug_str:000000000001c2a5 .LASF4802
C:\Users\CYMR90~1\AppData\Local\Temp\ccmBQqfl.s:25080  .debug_str:000000000000d375 .LASF4803
C:\Users\CYMR90~1\AppData\Local\Temp\ccmBQqfl.s:25950  .debug_str:0000000000010a6f .LASF4804
C:\Users\CYMR90~1\AppData\Local\Temp\ccmBQqfl.s:22282  .debug_str:0000000000001fb8 .LASF4805
C:\Users\CYMR90~1\AppData\Local\Temp\ccmBQqfl.s:27545  .debug_str:0000000000017276 .LASF4806
C:\Users\CYMR90~1\AppData\Local\Temp\ccmBQqfl.s:28869  .debug_str:000000000001c7c8 .LASF4807
C:\Users\CYMR90~1\AppData\Local\Temp\ccmBQqfl.s:26964  .debug_str:0000000000014b3d .LASF4808
C:\Users\CYMR90~1\AppData\Local\Temp\ccmBQqfl.s:22900  .debug_str:000000000000475d .LASF4809
C:\Users\CYMR90~1\AppData\Local\Temp\ccmBQqfl.s:28501  .debug_str:000000000001b050 .LASF4810
C:\Users\CYMR90~1\AppData\Local\Temp\ccmBQqfl.s:31279  .debug_str:0000000000025f00 .LASF4811
C:\Users\CYMR90~1\AppData\Local\Temp\ccmBQqfl.s:25680  .debug_str:000000000000f862 .LASF4812
C:\Users\CYMR90~1\AppData\Local\Temp\ccmBQqfl.s:24770  .debug_str:000000000000bf88 .LASF4813
C:\Users\CYMR90~1\AppData\Local\Temp\ccmBQqfl.s:21792  .debug_str:000000000000006a .LASF4814
C:\Users\CYMR90~1\AppData\Local\Temp\ccmBQqfl.s:24850  .debug_str:000000000000c4cc .LASF4815
C:\Users\CYMR90~1\AppData\Local\Temp\ccmBQqfl.s:23440  .debug_str:00000000000068d7 .LASF4816
C:\Users\CYMR90~1\AppData\Local\Temp\ccmBQqfl.s:32823  .debug_str:000000000002bfb6 .LASF4817
C:\Users\CYMR90~1\AppData\Local\Temp\ccmBQqfl.s:27206  .debug_str:0000000000015a2b .LASF4818
C:\Users\CYMR90~1\AppData\Local\Temp\ccmBQqfl.s:24734  .debug_str:000000000000bd43 .LASF4819
C:\Users\CYMR90~1\AppData\Local\Temp\ccmBQqfl.s:27062  .debug_str:0000000000015185 .LASF4820
C:\Users\CYMR90~1\AppData\Local\Temp\ccmBQqfl.s:24688  .debug_str:000000000000ba0b .LASF4821
C:\Users\CYMR90~1\AppData\Local\Temp\ccmBQqfl.s:27252  .debug_str:0000000000015cdc .LASF4822
C:\Users\CYMR90~1\AppData\Local\Temp\ccmBQqfl.s:26150  .debug_str:0000000000011633 .LASF4823
C:\Users\CYMR90~1\AppData\Local\Temp\ccmBQqfl.s:31449  .debug_str:0000000000026942 .LASF4824
C:\Users\CYMR90~1\AppData\Local\Temp\ccmBQqfl.s:26390  .debug_str:000000000001267e .LASF4825
C:\Users\CYMR90~1\AppData\Local\Temp\ccmBQqfl.s:22264  .debug_str:0000000000001eb9 .LASF4826
C:\Users\CYMR90~1\AppData\Local\Temp\ccmBQqfl.s:26062  .debug_str:000000000001116a .LASF4827
C:\Users\CYMR90~1\AppData\Local\Temp\ccmBQqfl.s:31971  .debug_str:0000000000028bb4 .LASF4828
C:\Users\CYMR90~1\AppData\Local\Temp\ccmBQqfl.s:23690  .debug_str:00000000000078cf .LASF4829
C:\Users\CYMR90~1\AppData\Local\Temp\ccmBQqfl.s:32871  .debug_str:000000000002c29f .LASF4830
C:\Users\CYMR90~1\AppData\Local\Temp\ccmBQqfl.s:32887  .debug_str:000000000002c42f .LASF4831
C:\Users\CYMR90~1\AppData\Local\Temp\ccmBQqfl.s:30071  .debug_str:0000000000021331 .LASF4832
C:\Users\CYMR90~1\AppData\Local\Temp\ccmBQqfl.s:21990  .debug_str:0000000000000cb0 .LASF4833
C:\Users\CYMR90~1\AppData\Local\Temp\ccmBQqfl.s:24730  .debug_str:000000000000bd1d .LASF4834
C:\Users\CYMR90~1\AppData\Local\Temp\ccmBQqfl.s:29787  .debug_str:000000000002022e .LASF4835
C:\Users\CYMR90~1\AppData\Local\Temp\ccmBQqfl.s:23428  .debug_str:000000000000682c .LASF4836
C:\Users\CYMR90~1\AppData\Local\Temp\ccmBQqfl.s:23882  .debug_str:0000000000008637 .LASF4837
C:\Users\CYMR90~1\AppData\Local\Temp\ccmBQqfl.s:26574  .debug_str:0000000000013263 .LASF4838
C:\Users\CYMR90~1\AppData\Local\Temp\ccmBQqfl.s:25996  .debug_str:0000000000010ced .LASF4839
C:\Users\CYMR90~1\AppData\Local\Temp\ccmBQqfl.s:30365  .debug_str:0000000000022550 .LASF4840
C:\Users\CYMR90~1\AppData\Local\Temp\ccmBQqfl.s:29389  .debug_str:000000000001e9d8 .LASF4841
C:\Users\CYMR90~1\AppData\Local\Temp\ccmBQqfl.s:23096  .debug_str:0000000000005440 .LASF4842
C:\Users\CYMR90~1\AppData\Local\Temp\ccmBQqfl.s:30197  .debug_str:0000000000021afb .LASF4843
C:\Users\CYMR90~1\AppData\Local\Temp\ccmBQqfl.s:27306  .debug_str:0000000000016089 .LASF4844
C:\Users\CYMR90~1\AppData\Local\Temp\ccmBQqfl.s:23340  .debug_str:00000000000062dd .LASF4845
C:\Users\CYMR90~1\AppData\Local\Temp\ccmBQqfl.s:28297  .debug_str:000000000001a1b4 .LASF4846
C:\Users\CYMR90~1\AppData\Local\Temp\ccmBQqfl.s:27136  .debug_str:0000000000015631 .LASF4847
C:\Users\CYMR90~1\AppData\Local\Temp\ccmBQqfl.s:29845  .debug_str:00000000000205b7 .LASF4848
C:\Users\CYMR90~1\AppData\Local\Temp\ccmBQqfl.s:32005  .debug_str:0000000000028db4 .LASF4849
C:\Users\CYMR90~1\AppData\Local\Temp\ccmBQqfl.s:26788  .debug_str:000000000001400b .LASF4850
C:\Users\CYMR90~1\AppData\Local\Temp\ccmBQqfl.s:26724  .debug_str:0000000000013c33 .LASF4851
C:\Users\CYMR90~1\AppData\Local\Temp\ccmBQqfl.s:22390  .debug_str:0000000000002613 .LASF4852
C:\Users\CYMR90~1\AppData\Local\Temp\ccmBQqfl.s:29443  .debug_str:000000000001ed29 .LASF4853
C:\Users\CYMR90~1\AppData\Local\Temp\ccmBQqfl.s:28885  .debug_str:000000000001c8b1 .LASF4854
C:\Users\CYMR90~1\AppData\Local\Temp\ccmBQqfl.s:24600  .debug_str:000000000000b402 .LASF4855
C:\Users\CYMR90~1\AppData\Local\Temp\ccmBQqfl.s:23482  .debug_str:0000000000006ba4 .LASF4856
C:\Users\CYMR90~1\AppData\Local\Temp\ccmBQqfl.s:22250  .debug_str:0000000000001dd7 .LASF4857
C:\Users\CYMR90~1\AppData\Local\Temp\ccmBQqfl.s:24070  .debug_str:000000000000929f .LASF4858
C:\Users\CYMR90~1\AppData\Local\Temp\ccmBQqfl.s:24240  .debug_str:0000000000009d3e .LASF4859
C:\Users\CYMR90~1\AppData\Local\Temp\ccmBQqfl.s:32091  .debug_str:00000000000292af .LASF4860
C:\Users\CYMR90~1\AppData\Local\Temp\ccmBQqfl.s:32913  .debug_str:000000000002c5ca .LASF4861
C:\Users\CYMR90~1\AppData\Local\Temp\ccmBQqfl.s:27012  .debug_str:0000000000014e14 .LASF4862
C:\Users\CYMR90~1\AppData\Local\Temp\ccmBQqfl.s:26096  .debug_str:0000000000011334 .LASF4863
C:\Users\CYMR90~1\AppData\Local\Temp\ccmBQqfl.s:22470  .debug_str:0000000000002b70 .LASF4864
C:\Users\CYMR90~1\AppData\Local\Temp\ccmBQqfl.s:27388  .debug_str:00000000000165fe .LASF4865
C:\Users\CYMR90~1\AppData\Local\Temp\ccmBQqfl.s:27074  .debug_str:000000000001524a .LASF4866
C:\Users\CYMR90~1\AppData\Local\Temp\ccmBQqfl.s:23616  .debug_str:0000000000007453 .LASF4867
C:\Users\CYMR90~1\AppData\Local\Temp\ccmBQqfl.s:27849  .debug_str:00000000000184e7 .LASF4868
C:\Users\CYMR90~1\AppData\Local\Temp\ccmBQqfl.s:25728  .debug_str:000000000000fbde .LASF4869
C:\Users\CYMR90~1\AppData\Local\Temp\ccmBQqfl.s:27236  .debug_str:0000000000015bee .LASF4870
C:\Users\CYMR90~1\AppData\Local\Temp\ccmBQqfl.s:23756  .debug_str:0000000000007d16 .LASF4871
C:\Users\CYMR90~1\AppData\Local\Temp\ccmBQqfl.s:28521  .debug_str:000000000001b185 .LASF4872
C:\Users\CYMR90~1\AppData\Local\Temp\ccmBQqfl.s:33165  .debug_str:000000000002d61c .LASF4873
C:\Users\CYMR90~1\AppData\Local\Temp\ccmBQqfl.s:22684  .debug_str:0000000000003925 .LASF4874
C:\Users\CYMR90~1\AppData\Local\Temp\ccmBQqfl.s:26374  .debug_str:0000000000012564 .LASF4875
C:\Users\CYMR90~1\AppData\Local\Temp\ccmBQqfl.s:30563  .debug_str:00000000000230b1 .LASF4876
C:\Users\CYMR90~1\AppData\Local\Temp\ccmBQqfl.s:23052  .debug_str:0000000000005195 .LASF4877
C:\Users\CYMR90~1\AppData\Local\Temp\ccmBQqfl.s:24292  .debug_str:000000000000a046 .LASF4878
C:\Users\CYMR90~1\AppData\Local\Temp\ccmBQqfl.s:24236  .debug_str:0000000000009cfa .LASF4879
C:\Users\CYMR90~1\AppData\Local\Temp\ccmBQqfl.s:25138  .debug_str:000000000000d7d8 .LASF4880
C:\Users\CYMR90~1\AppData\Local\Temp\ccmBQqfl.s:22340  .debug_str:00000000000022f7 .LASF4881
C:\Users\CYMR90~1\AppData\Local\Temp\ccmBQqfl.s:30331  .debug_str:000000000002234e .LASF4882
C:\Users\CYMR90~1\AppData\Local\Temp\ccmBQqfl.s:29961  .debug_str:0000000000020c95 .LASF4883
C:\Users\CYMR90~1\AppData\Local\Temp\ccmBQqfl.s:31671  .debug_str:00000000000276e3 .LASF4884
C:\Users\CYMR90~1\AppData\Local\Temp\ccmBQqfl.s:22204  .debug_str:0000000000001b12 .LASF4885
C:\Users\CYMR90~1\AppData\Local\Temp\ccmBQqfl.s:25750  .debug_str:000000000000fd10 .LASF4886
C:\Users\CYMR90~1\AppData\Local\Temp\ccmBQqfl.s:24120  .debug_str:000000000000956e .LASF4887
C:\Users\CYMR90~1\AppData\Local\Temp\ccmBQqfl.s:31113  .debug_str:000000000002535b .LASF4888
C:\Users\CYMR90~1\AppData\Local\Temp\ccmBQqfl.s:32593  .debug_str:000000000002b0b2 .LASF4889
C:\Users\CYMR90~1\AppData\Local\Temp\ccmBQqfl.s:27567  .debug_str:00000000000173db .LASF4890
C:\Users\CYMR90~1\AppData\Local\Temp\ccmBQqfl.s:27677  .debug_str:0000000000017a49 .LASF4891
C:\Users\CYMR90~1\AppData\Local\Temp\ccmBQqfl.s:29251  .debug_str:000000000001e119 .LASF4892
C:\Users\CYMR90~1\AppData\Local\Temp\ccmBQqfl.s:24364  .debug_str:000000000000a4b4 .LASF4893
C:\Users\CYMR90~1\AppData\Local\Temp\ccmBQqfl.s:29709  .debug_str:000000000001fd78 .LASF4894
C:\Users\CYMR90~1\AppData\Local\Temp\ccmBQqfl.s:30881  .debug_str:00000000000243a1 .LASF4895
C:\Users\CYMR90~1\AppData\Local\Temp\ccmBQqfl.s:26508  .debug_str:0000000000012e31 .LASF4896
C:\Users\CYMR90~1\AppData\Local\Temp\ccmBQqfl.s:22688  .debug_str:000000000000395e .LASF4897
C:\Users\CYMR90~1\AppData\Local\Temp\ccmBQqfl.s:22882  .debug_str:000000000000462d .LASF4898
C:\Users\CYMR90~1\AppData\Local\Temp\ccmBQqfl.s:31819  .debug_str:00000000000280c2 .LASF4899
C:\Users\CYMR90~1\AppData\Local\Temp\ccmBQqfl.s:26168  .debug_str:0000000000011736 .LASF4900
C:\Users\CYMR90~1\AppData\Local\Temp\ccmBQqfl.s:24742  .debug_str:000000000000bdaa .LASF4901
C:\Users\CYMR90~1\AppData\Local\Temp\ccmBQqfl.s:30875  .debug_str:000000000002435b .LASF4902
C:\Users\CYMR90~1\AppData\Local\Temp\ccmBQqfl.s:30979  .debug_str:0000000000024a2a .LASF4903
C:\Users\CYMR90~1\AppData\Local\Temp\ccmBQqfl.s:27208  .debug_str:0000000000015a41 .LASF4904
C:\Users\CYMR90~1\AppData\Local\Temp\ccmBQqfl.s:29773  .debug_str:0000000000020169 .LASF4905
C:\Users\CYMR90~1\AppData\Local\Temp\ccmBQqfl.s:27547  .debug_str:00000000000172a0 .LASF4906
C:\Users\CYMR90~1\AppData\Local\Temp\ccmBQqfl.s:22652  .debug_str:000000000000374c .LASF4907
C:\Users\CYMR90~1\AppData\Local\Temp\ccmBQqfl.s:22320  .debug_str:00000000000021d2 .LASF4908
C:\Users\CYMR90~1\AppData\Local\Temp\ccmBQqfl.s:23390  .debug_str:00000000000065e4 .LASF4909
C:\Users\CYMR90~1\AppData\Local\Temp\ccmBQqfl.s:31463  .debug_str:0000000000026a1c .LASF4910
C:\Users\CYMR90~1\AppData\Local\Temp\ccmBQqfl.s:32373  .debug_str:000000000002a389 .LASF4911
C:\Users\CYMR90~1\AppData\Local\Temp\ccmBQqfl.s:21900  .debug_str:00000000000006c9 .LASF4912
C:\Users\CYMR90~1\AppData\Local\Temp\ccmBQqfl.s:28435  .debug_str:000000000001ac21 .LASF4913
C:\Users\CYMR90~1\AppData\Local\Temp\ccmBQqfl.s:32851  .debug_str:000000000002c165 .LASF4914
C:\Users\CYMR90~1\AppData\Local\Temp\ccmBQqfl.s:24554  .debug_str:000000000000b0ac .LASF4915
C:\Users\CYMR90~1\AppData\Local\Temp\ccmBQqfl.s:23476  .debug_str:0000000000006b4c .LASF4916
C:\Users\CYMR90~1\AppData\Local\Temp\ccmBQqfl.s:31769  .debug_str:0000000000027d36 .LASF4917
C:\Users\CYMR90~1\AppData\Local\Temp\ccmBQqfl.s:28459  .debug_str:000000000001ad88 .LASF4918
C:\Users\CYMR90~1\AppData\Local\Temp\ccmBQqfl.s:29613  .debug_str:000000000001f77f .LASF4919
C:\Users\CYMR90~1\AppData\Local\Temp\ccmBQqfl.s:28725  .debug_str:000000000001be94 .LASF4920
C:\Users\CYMR90~1\AppData\Local\Temp\ccmBQqfl.s:23182  .debug_str:00000000000059a5 .LASF4921
C:\Users\CYMR90~1\AppData\Local\Temp\ccmBQqfl.s:30653  .debug_str:0000000000023623 .LASF4922
C:\Users\CYMR90~1\AppData\Local\Temp\ccmBQqfl.s:30671  .debug_str:00000000000236f2 .LASF4923
C:\Users\CYMR90~1\AppData\Local\Temp\ccmBQqfl.s:31149  .debug_str:000000000002553c .LASF4924
C:\Users\CYMR90~1\AppData\Local\Temp\ccmBQqfl.s:32079  .debug_str:00000000000291e3 .LASF4925
C:\Users\CYMR90~1\AppData\Local\Temp\ccmBQqfl.s:30711  .debug_str:000000000002393d .LASF4926
C:\Users\CYMR90~1\AppData\Local\Temp\ccmBQqfl.s:32203  .debug_str:0000000000029976 .LASF4927
C:\Users\CYMR90~1\AppData\Local\Temp\ccmBQqfl.s:26580  .debug_str:00000000000132c1 .LASF4928
C:\Users\CYMR90~1\AppData\Local\Temp\ccmBQqfl.s:26412  .debug_str:00000000000127da .LASF4929
C:\Users\CYMR90~1\AppData\Local\Temp\ccmBQqfl.s:30241  .debug_str:0000000000021db8 .LASF4930
C:\Users\CYMR90~1\AppData\Local\Temp\ccmBQqfl.s:33135  .debug_str:000000000002d41d .LASF4931
C:\Users\CYMR90~1\AppData\Local\Temp\ccmBQqfl.s:26584  .debug_str:0000000000013305 .LASF4932
C:\Users\CYMR90~1\AppData\Local\Temp\ccmBQqfl.s:27765  .debug_str:0000000000017fe4 .LASF4933
C:\Users\CYMR90~1\AppData\Local\Temp\ccmBQqfl.s:32393  .debug_str:000000000002a4cd .LASF4934
C:\Users\CYMR90~1\AppData\Local\Temp\ccmBQqfl.s:30225  .debug_str:0000000000021cc1 .LASF4935
C:\Users\CYMR90~1\AppData\Local\Temp\ccmBQqfl.s:27486  .debug_str:0000000000016c91 .LASF4936
C:\Users\CYMR90~1\AppData\Local\Temp\ccmBQqfl.s:22552  .debug_str:00000000000030a5 .LASF4937
C:\Users\CYMR90~1\AppData\Local\Temp\ccmBQqfl.s:29509  .debug_str:000000000001f119 .LASF4938
C:\Users\CYMR90~1\AppData\Local\Temp\ccmBQqfl.s:30467  .debug_str:0000000000022ae1 .LASF4939
C:\Users\CYMR90~1\AppData\Local\Temp\ccmBQqfl.s:31865  .debug_str:00000000000283db .LASF4940
C:\Users\CYMR90~1\AppData\Local\Temp\ccmBQqfl.s:30913  .debug_str:0000000000024537 .LASF4941
C:\Users\CYMR90~1\AppData\Local\Temp\ccmBQqfl.s:29131  .debug_str:000000000001d985 .LASF4942
C:\Users\CYMR90~1\AppData\Local\Temp\ccmBQqfl.s:29111  .debug_str:000000000001d851 .LASF4943
C:\Users\CYMR90~1\AppData\Local\Temp\ccmBQqfl.s:22040  .debug_str:0000000000001025 .LASF4944
C:\Users\CYMR90~1\AppData\Local\Temp\ccmBQqfl.s:26462  .debug_str:0000000000012b19 .LASF4945
C:\Users\CYMR90~1\AppData\Local\Temp\ccmBQqfl.s:27865  .debug_str:00000000000185d3 .LASF4946
C:\Users\CYMR90~1\AppData\Local\Temp\ccmBQqfl.s:23638  .debug_str:00000000000075c9 .LASF4947
C:\Users\CYMR90~1\AppData\Local\Temp\ccmBQqfl.s:28441  .debug_str:000000000001ac6b .LASF4948
C:\Users\CYMR90~1\AppData\Local\Temp\ccmBQqfl.s:32321  .debug_str:000000000002a0a8 .LASF4949
C:\Users\CYMR90~1\AppData\Local\Temp\ccmBQqfl.s:24920  .debug_str:000000000000c90e .LASF4950
C:\Users\CYMR90~1\AppData\Local\Temp\ccmBQqfl.s:24538  .debug_str:000000000000af6f .LASF4951
C:\Users\CYMR90~1\AppData\Local\Temp\ccmBQqfl.s:25554  .debug_str:000000000000f0bb .LASF4952
C:\Users\CYMR90~1\AppData\Local\Temp\ccmBQqfl.s:23516  .debug_str:0000000000006db2 .LASF4953
C:\Users\CYMR90~1\AppData\Local\Temp\ccmBQqfl.s:33149  .debug_str:000000000002d522 .LASF4954
C:\Users\CYMR90~1\AppData\Local\Temp\ccmBQqfl.s:22394  .debug_str:0000000000002649 .LASF4955
C:\Users\CYMR90~1\AppData\Local\Temp\ccmBQqfl.s:30699  .debug_str:0000000000023875 .LASF4956
C:\Users\CYMR90~1\AppData\Local\Temp\ccmBQqfl.s:27472  .debug_str:0000000000016b67 .LASF4957
C:\Users\CYMR90~1\AppData\Local\Temp\ccmBQqfl.s:32549  .debug_str:000000000002adfc .LASF4958
C:\Users\CYMR90~1\AppData\Local\Temp\ccmBQqfl.s:25748  .debug_str:000000000000fcf0 .LASF4959
C:\Users\CYMR90~1\AppData\Local\Temp\ccmBQqfl.s:24192  .debug_str:00000000000099cd .LASF4960
C:\Users\CYMR90~1\AppData\Local\Temp\ccmBQqfl.s:23716  .debug_str:0000000000007a97 .LASF4961
C:\Users\CYMR90~1\AppData\Local\Temp\ccmBQqfl.s:25154  .debug_str:000000000000d8f0 .LASF4962
C:\Users\CYMR90~1\AppData\Local\Temp\ccmBQqfl.s:33047  .debug_str:000000000002ce78 .LASF4963
C:\Users\CYMR90~1\AppData\Local\Temp\ccmBQqfl.s:24782  .debug_str:000000000000c095 .LASF4964
C:\Users\CYMR90~1\AppData\Local\Temp\ccmBQqfl.s:24338  .debug_str:000000000000a320 .LASF4965
C:\Users\CYMR90~1\AppData\Local\Temp\ccmBQqfl.s:31773  .debug_str:0000000000027d8e .LASF4966
C:\Users\CYMR90~1\AppData\Local\Temp\ccmBQqfl.s:26206  .debug_str:00000000000119b8 .LASF4967
C:\Users\CYMR90~1\AppData\Local\Temp\ccmBQqfl.s:22968  .debug_str:0000000000004c65 .LASF4968
C:\Users\CYMR90~1\AppData\Local\Temp\ccmBQqfl.s:24282  .debug_str:0000000000009fb5 .LASF4969
C:\Users\CYMR90~1\AppData\Local\Temp\ccmBQqfl.s:28089  .debug_str:000000000001948c .LASF4970
C:\Users\CYMR90~1\AppData\Local\Temp\ccmBQqfl.s:29071  .debug_str:000000000001d607 .LASF4971
C:\Users\CYMR90~1\AppData\Local\Temp\ccmBQqfl.s:29301  .debug_str:000000000001e4b5 .LASF4972
C:\Users\CYMR90~1\AppData\Local\Temp\ccmBQqfl.s:24998  .debug_str:000000000000ce76 .LASF4973
C:\Users\CYMR90~1\AppData\Local\Temp\ccmBQqfl.s:27264  .debug_str:0000000000015d81 .LASF4974
C:\Users\CYMR90~1\AppData\Local\Temp\ccmBQqfl.s:25394  .debug_str:000000000000e6b1 .LASF4975
C:\Users\CYMR90~1\AppData\Local\Temp\ccmBQqfl.s:28257  .debug_str:0000000000019f60 .LASF4976
C:\Users\CYMR90~1\AppData\Local\Temp\ccmBQqfl.s:28005  .debug_str:0000000000018e9f .LASF4977
C:\Users\CYMR90~1\AppData\Local\Temp\ccmBQqfl.s:30771  .debug_str:0000000000023d25 .LASF4978
C:\Users\CYMR90~1\AppData\Local\Temp\ccmBQqfl.s:22928  .debug_str:0000000000004949 .LASF4979
C:\Users\CYMR90~1\AppData\Local\Temp\ccmBQqfl.s:21968  .debug_str:0000000000000b40 .LASF4980
C:\Users\CYMR90~1\AppData\Local\Temp\ccmBQqfl.s:26294  .debug_str:0000000000012010 .LASF4981
C:\Users\CYMR90~1\AppData\Local\Temp\ccmBQqfl.s:27036  .debug_str:0000000000014f86 .LASF4982
C:\Users\CYMR90~1\AppData\Local\Temp\ccmBQqfl.s:32915  .debug_str:000000000002c5e2 .LASF4983
C:\Users\CYMR90~1\AppData\Local\Temp\ccmBQqfl.s:23862  .debug_str:00000000000084d1 .LASF4984
C:\Users\CYMR90~1\AppData\Local\Temp\ccmBQqfl.s:24428  .debug_str:000000000000a8c0 .LASF4985
C:\Users\CYMR90~1\AppData\Local\Temp\ccmBQqfl.s:28095  .debug_str:00000000000194ee .LASF4986
C:\Users\CYMR90~1\AppData\Local\Temp\ccmBQqfl.s:25330  .debug_str:000000000000e2f9 .LASF4987
C:\Users\CYMR90~1\AppData\Local\Temp\ccmBQqfl.s:32971  .debug_str:000000000002c9cf .LASF4988
C:\Users\CYMR90~1\AppData\Local\Temp\ccmBQqfl.s:22208  .debug_str:0000000000001b50 .LASF4989
C:\Users\CYMR90~1\AppData\Local\Temp\ccmBQqfl.s:31849  .debug_str:00000000000282c5 .LASF4990
C:\Users\CYMR90~1\AppData\Local\Temp\ccmBQqfl.s:29195  .debug_str:000000000001ddf6 .LASF4991
C:\Users\CYMR90~1\AppData\Local\Temp\ccmBQqfl.s:27527  .debug_str:000000000001713d .LASF4992
C:\Users\CYMR90~1\AppData\Local\Temp\ccmBQqfl.s:24388  .debug_str:000000000000a673 .LASF4993
C:\Users\CYMR90~1\AppData\Local\Temp\ccmBQqfl.s:30287  .debug_str:000000000002205a .LASF4994
C:\Users\CYMR90~1\AppData\Local\Temp\ccmBQqfl.s:26586  .debug_str:0000000000013325 .LASF4995
C:\Users\CYMR90~1\AppData\Local\Temp\ccmBQqfl.s:27991  .debug_str:0000000000018dad .LASF4996
C:\Users\CYMR90~1\AppData\Local\Temp\ccmBQqfl.s:26688  .debug_str:00000000000139ed .LASF4997
C:\Users\CYMR90~1\AppData\Local\Temp\ccmBQqfl.s:30949  .debug_str:000000000002482e .LASF4998
C:\Users\CYMR90~1\AppData\Local\Temp\ccmBQqfl.s:23902  .debug_str:0000000000008753 .LASF4999
C:\Users\CYMR90~1\AppData\Local\Temp\ccmBQqfl.s:22456  .debug_str:0000000000002a87 .LASF5000
C:\Users\CYMR90~1\AppData\Local\Temp\ccmBQqfl.s:26264  .debug_str:0000000000011e6e .LASF5001
C:\Users\CYMR90~1\AppData\Local\Temp\ccmBQqfl.s:29843  .debug_str:000000000002058c .LASF5002
C:\Users\CYMR90~1\AppData\Local\Temp\ccmBQqfl.s:22598  .debug_str:00000000000033a6 .LASF5003
C:\Users\CYMR90~1\AppData\Local\Temp\ccmBQqfl.s:29771  .debug_str:000000000002012a .LASF5004
C:\Users\CYMR90~1\AppData\Local\Temp\ccmBQqfl.s:32159  .debug_str:00000000000296c2 .LASF5005
C:\Users\CYMR90~1\AppData\Local\Temp\ccmBQqfl.s:32197  .debug_str:00000000000298fa .LASF5006
C:\Users\CYMR90~1\AppData\Local\Temp\ccmBQqfl.s:24370  .debug_str:000000000000a50b .LASF5007
C:\Users\CYMR90~1\AppData\Local\Temp\ccmBQqfl.s:28085  .debug_str:0000000000019439 .LASF5008
C:\Users\CYMR90~1\AppData\Local\Temp\ccmBQqfl.s:32447  .debug_str:000000000002a7af .LASF5009
C:\Users\CYMR90~1\AppData\Local\Temp\ccmBQqfl.s:23430  .debug_str:0000000000006843 .LASF5010
C:\Users\CYMR90~1\AppData\Local\Temp\ccmBQqfl.s:32441  .debug_str:000000000002a746 .LASF5011
C:\Users\CYMR90~1\AppData\Local\Temp\ccmBQqfl.s:22532  .debug_str:0000000000002f70 .LASF5012
C:\Users\CYMR90~1\AppData\Local\Temp\ccmBQqfl.s:28523  .debug_str:000000000001b19d .LASF5013
C:\Users\CYMR90~1\AppData\Local\Temp\ccmBQqfl.s:25656  .debug_str:000000000000f6f0 .LASF5014
C:\Users\CYMR90~1\AppData\Local\Temp\ccmBQqfl.s:26842  .debug_str:0000000000014367 .LASF5015
C:\Users\CYMR90~1\AppData\Local\Temp\ccmBQqfl.s:32087  .debug_str:0000000000029264 .LASF5016
C:\Users\CYMR90~1\AppData\Local\Temp\ccmBQqfl.s:24092  .debug_str:00000000000093bf .LASF5017
C:\Users\CYMR90~1\AppData\Local\Temp\ccmBQqfl.s:29045  .debug_str:000000000001d3d4 .LASF5018
C:\Users\CYMR90~1\AppData\Local\Temp\ccmBQqfl.s:32491  .debug_str:000000000002aab0 .LASF5019
C:\Users\CYMR90~1\AppData\Local\Temp\ccmBQqfl.s:22922  .debug_str:00000000000048d1 .LASF5020
C:\Users\CYMR90~1\AppData\Local\Temp\ccmBQqfl.s:31235  .debug_str:0000000000025ba5 .LASF5021
C:\Users\CYMR90~1\AppData\Local\Temp\ccmBQqfl.s:29731  .debug_str:000000000001fe95 .LASF5022
C:\Users\CYMR90~1\AppData\Local\Temp\ccmBQqfl.s:28867  .debug_str:000000000001c7a0 .LASF5023
C:\Users\CYMR90~1\AppData\Local\Temp\ccmBQqfl.s:29865  .debug_str:00000000000206cf .LASF5024
C:\Users\CYMR90~1\AppData\Local\Temp\ccmBQqfl.s:33113  .debug_str:000000000002d2f6 .LASF5025
C:\Users\CYMR90~1\AppData\Local\Temp\ccmBQqfl.s:22656  .debug_str:000000000000377b .LASF5026
C:\Users\CYMR90~1\AppData\Local\Temp\ccmBQqfl.s:29465  .debug_str:000000000001ee9b .LASF5027
C:\Users\CYMR90~1\AppData\Local\Temp\ccmBQqfl.s:30257  .debug_str:0000000000021ebf .LASF5028
C:\Users\CYMR90~1\AppData\Local\Temp\ccmBQqfl.s:22232  .debug_str:0000000000001cb0 .LASF5029
C:\Users\CYMR90~1\AppData\Local\Temp\ccmBQqfl.s:26504  .debug_str:0000000000012de4 .LASF5030
C:\Users\CYMR90~1\AppData\Local\Temp\ccmBQqfl.s:27797  .debug_str:00000000000181be .LASF5031
C:\Users\CYMR90~1\AppData\Local\Temp\ccmBQqfl.s:26004  .debug_str:0000000000010d9b .LASF5032
C:\Users\CYMR90~1\AppData\Local\Temp\ccmBQqfl.s:22046  .debug_str:000000000000106d .LASF5033
C:\Users\CYMR90~1\AppData\Local\Temp\ccmBQqfl.s:28481  .debug_str:000000000001af33 .LASF5034
C:\Users\CYMR90~1\AppData\Local\Temp\ccmBQqfl.s:29871  .debug_str:0000000000020723 .LASF5035
C:\Users\CYMR90~1\AppData\Local\Temp\ccmBQqfl.s:33151  .debug_str:000000000002d540 .LASF5036
C:\Users\CYMR90~1\AppData\Local\Temp\ccmBQqfl.s:26958  .debug_str:0000000000014abb .LASF5037
C:\Users\CYMR90~1\AppData\Local\Temp\ccmBQqfl.s:28331  .debug_str:000000000001a3c6 .LASF5038
C:\Users\CYMR90~1\AppData\Local\Temp\ccmBQqfl.s:23138  .debug_str:00000000000056d5 .LASF5039
C:\Users\CYMR90~1\AppData\Local\Temp\ccmBQqfl.s:30971  .debug_str:0000000000024994 .LASF5040
C:\Users\CYMR90~1\AppData\Local\Temp\ccmBQqfl.s:31853  .debug_str:0000000000028308 .LASF5041
C:\Users\CYMR90~1\AppData\Local\Temp\ccmBQqfl.s:24750  .debug_str:000000000000be14 .LASF5042
C:\Users\CYMR90~1\AppData\Local\Temp\ccmBQqfl.s:32925  .debug_str:000000000002c6ac .LASF5043
C:\Users\CYMR90~1\AppData\Local\Temp\ccmBQqfl.s:25508  .debug_str:000000000000ee53 .LASF5044
C:\Users\CYMR90~1\AppData\Local\Temp\ccmBQqfl.s:27717  .debug_str:0000000000017cee .LASF5045
C:\Users\CYMR90~1\AppData\Local\Temp\ccmBQqfl.s:22824  .debug_str:0000000000004235 .LASF5046
C:\Users\CYMR90~1\AppData\Local\Temp\ccmBQqfl.s:23446  .debug_str:0000000000006935 .LASF5047
C:\Users\CYMR90~1\AppData\Local\Temp\ccmBQqfl.s:23040  .debug_str:00000000000050cc .LASF5048
C:\Users\CYMR90~1\AppData\Local\Temp\ccmBQqfl.s:31681  .debug_str:000000000002781c .LASF5049
C:\Users\CYMR90~1\AppData\Local\Temp\ccmBQqfl.s:27587  .debug_str:00000000000174d2 .LASF5050
C:\Users\CYMR90~1\AppData\Local\Temp\ccmBQqfl.s:26442  .debug_str:00000000000129cb .LASF5051
C:\Users\CYMR90~1\AppData\Local\Temp\ccmBQqfl.s:24948  .debug_str:000000000000cb31 .LASF5052
C:\Users\CYMR90~1\AppData\Local\Temp\ccmBQqfl.s:29447  .debug_str:000000000001ed71 .LASF5053
C:\Users\CYMR90~1\AppData\Local\Temp\ccmBQqfl.s:24090  .debug_str:000000000000938e .LASF5054
C:\Users\CYMR90~1\AppData\Local\Temp\ccmBQqfl.s:32651  .debug_str:000000000002b418 .LASF5055
C:\Users\CYMR90~1\AppData\Local\Temp\ccmBQqfl.s:29435  .debug_str:000000000001ec72 .LASF5056
C:\Users\CYMR90~1\AppData\Local\Temp\ccmBQqfl.s:23936  .debug_str:0000000000008941 .LASF5057
C:\Users\CYMR90~1\AppData\Local\Temp\ccmBQqfl.s:31765  .debug_str:0000000000027d04 .LASF5058
C:\Users\CYMR90~1\AppData\Local\Temp\ccmBQqfl.s:33157  .debug_str:000000000002d59a .LASF5059
C:\Users\CYMR90~1\AppData\Local\Temp\ccmBQqfl.s:29783  .debug_str:00000000000201f2 .LASF5060
C:\Users\CYMR90~1\AppData\Local\Temp\ccmBQqfl.s:32053  .debug_str:0000000000029087 .LASF5061
C:\Users\CYMR90~1\AppData\Local\Temp\ccmBQqfl.s:23022  .debug_str:0000000000004fbb .LASF5062
C:\Users\CYMR90~1\AppData\Local\Temp\ccmBQqfl.s:23364  .debug_str:000000000000646c .LASF5063
C:\Users\CYMR90~1\AppData\Local\Temp\ccmBQqfl.s:28351  .debug_str:000000000001a4e1 .LASF5064
C:\Users\CYMR90~1\AppData\Local\Temp\ccmBQqfl.s:27044  .debug_str:0000000000015040 .LASF5065
C:\Users\CYMR90~1\AppData\Local\Temp\ccmBQqfl.s:25800  .debug_str:000000000001004b .LASF5066
C:\Users\CYMR90~1\AppData\Local\Temp\ccmBQqfl.s:22896  .debug_str:0000000000004716 .LASF5067
C:\Users\CYMR90~1\AppData\Local\Temp\ccmBQqfl.s:27082  .debug_str:00000000000152cc .LASF5068
C:\Users\CYMR90~1\AppData\Local\Temp\ccmBQqfl.s:30325  .debug_str:00000000000222e2 .LASF5069
C:\Users\CYMR90~1\AppData\Local\Temp\ccmBQqfl.s:28559  .debug_str:000000000001b426 .LASF5070
C:\Users\CYMR90~1\AppData\Local\Temp\ccmBQqfl.s:24138  .debug_str:0000000000009667 .LASF5071
C:\Users\CYMR90~1\AppData\Local\Temp\ccmBQqfl.s:21844  .debug_str:0000000000000385 .LASF5072
C:\Users\CYMR90~1\AppData\Local\Temp\ccmBQqfl.s:25204  .debug_str:000000000000db78 .LASF5073
C:\Users\CYMR90~1\AppData\Local\Temp\ccmBQqfl.s:22442  .debug_str:0000000000002998 .LASF5074
C:\Users\CYMR90~1\AppData\Local\Temp\ccmBQqfl.s:29497  .debug_str:000000000001f077 .LASF5075
C:\Users\CYMR90~1\AppData\Local\Temp\ccmBQqfl.s:25118  .debug_str:000000000000d68a .LASF5076
C:\Users\CYMR90~1\AppData\Local\Temp\ccmBQqfl.s:21788  .debug_str:0000000000000000 .LASF5077
C:\Users\CYMR90~1\AppData\Local\Temp\ccmBQqfl.s:22242  .debug_str:0000000000001d55 .LASF5078
C:\Users\CYMR90~1\AppData\Local\Temp\ccmBQqfl.s:32199  .debug_str:0000000000029927 .LASF5079
C:\Users\CYMR90~1\AppData\Local\Temp\ccmBQqfl.s:31051  .debug_str:0000000000024f30 .LASF5080
C:\Users\CYMR90~1\AppData\Local\Temp\ccmBQqfl.s:29515  .debug_str:000000000001f167 .LASF5081
C:\Users\CYMR90~1\AppData\Local\Temp\ccmBQqfl.s:23144  .debug_str:0000000000005750 .LASF5082
C:\Users\CYMR90~1\AppData\Local\Temp\ccmBQqfl.s:27498  .debug_str:0000000000016d3d .LASF5083
C:\Users\CYMR90~1\AppData\Local\Temp\ccmBQqfl.s:29819  .debug_str:000000000002040b .LASF5084
C:\Users\CYMR90~1\AppData\Local\Temp\ccmBQqfl.s:28447  .debug_str:000000000001acd4 .LASF5085
C:\Users\CYMR90~1\AppData\Local\Temp\ccmBQqfl.s:33139  .debug_str:000000000002d45f .LASF5086
C:\Users\CYMR90~1\AppData\Local\Temp\ccmBQqfl.s:27625  .debug_str:000000000001770c .LASF5087
C:\Users\CYMR90~1\AppData\Local\Temp\ccmBQqfl.s:31859  .debug_str:0000000000028376 .LASF5088
C:\Users\CYMR90~1\AppData\Local\Temp\ccmBQqfl.s:25614  .debug_str:000000000000f469 .LASF5089
C:\Users\CYMR90~1\AppData\Local\Temp\ccmBQqfl.s:26334  .debug_str:00000000000122ce .LASF5090
C:\Users\CYMR90~1\AppData\Local\Temp\ccmBQqfl.s:27953  .debug_str:0000000000018b1f .LASF5091
C:\Users\CYMR90~1\AppData\Local\Temp\ccmBQqfl.s:23112  .debug_str:000000000000552d .LASF5092
C:\Users\CYMR90~1\AppData\Local\Temp\ccmBQqfl.s:31221  .debug_str:0000000000025aa3 .LASF5093
C:\Users\CYMR90~1\AppData\Local\Temp\ccmBQqfl.s:28633  .debug_str:000000000001b93d .LASF5094
C:\Users\CYMR90~1\AppData\Local\Temp\ccmBQqfl.s:31467  .debug_str:0000000000026a43 .LASF5095
C:\Users\CYMR90~1\AppData\Local\Temp\ccmBQqfl.s:26136  .debug_str:0000000000011570 .LASF5096
C:\Users\CYMR90~1\AppData\Local\Temp\ccmBQqfl.s:25040  .debug_str:000000000000d0bb .LASF5097
C:\Users\CYMR90~1\AppData\Local\Temp\ccmBQqfl.s:29981  .debug_str:0000000000020d7f .LASF5098
C:\Users\CYMR90~1\AppData\Local\Temp\ccmBQqfl.s:25694  .debug_str:000000000000f9bc .LASF5099
C:\Users\CYMR90~1\AppData\Local\Temp\ccmBQqfl.s:25004  .debug_str:000000000000ced7 .LASF5100
C:\Users\CYMR90~1\AppData\Local\Temp\ccmBQqfl.s:31441  .debug_str:00000000000268c5 .LASF5101
C:\Users\CYMR90~1\AppData\Local\Temp\ccmBQqfl.s:26598  .debug_str:0000000000013402 .LASF5102
C:\Users\CYMR90~1\AppData\Local\Temp\ccmBQqfl.s:24812  .debug_str:000000000000c283 .LASF5103
C:\Users\CYMR90~1\AppData\Local\Temp\ccmBQqfl.s:22702  .debug_str:0000000000003a69 .LASF5104
C:\Users\CYMR90~1\AppData\Local\Temp\ccmBQqfl.s:23628  .debug_str:000000000000752e .LASF5105
C:\Users\CYMR90~1\AppData\Local\Temp\ccmBQqfl.s:25698  .debug_str:000000000000fa0b .LASF5106
C:\Users\CYMR90~1\AppData\Local\Temp\ccmBQqfl.s:23212  .debug_str:0000000000005b6f .LASF5107
C:\Users\CYMR90~1\AppData\Local\Temp\ccmBQqfl.s:31885  .debug_str:0000000000028564 .LASF5108
C:\Users\CYMR90~1\AppData\Local\Temp\ccmBQqfl.s:25830  .debug_str:000000000001025b .LASF5109
C:\Users\CYMR90~1\AppData\Local\Temp\ccmBQqfl.s:22526  .debug_str:0000000000002f14 .LASF5110
C:\Users\CYMR90~1\AppData\Local\Temp\ccmBQqfl.s:31303  .debug_str:000000000002607c .LASF5111
C:\Users\CYMR90~1\AppData\Local\Temp\ccmBQqfl.s:30723  .debug_str:00000000000239e9 .LASF5112
C:\Users\CYMR90~1\AppData\Local\Temp\ccmBQqfl.s:26154  .debug_str:0000000000011673 .LASF5113
C:\Users\CYMR90~1\AppData\Local\Temp\ccmBQqfl.s:27328  .debug_str:0000000000016220 .LASF5114
C:\Users\CYMR90~1\AppData\Local\Temp\ccmBQqfl.s:30703  .debug_str:00000000000238ae .LASF5115
C:\Users\CYMR90~1\AppData\Local\Temp\ccmBQqfl.s:31475  .debug_str:0000000000026acc .LASF5116
C:\Users\CYMR90~1\AppData\Local\Temp\ccmBQqfl.s:30355  .debug_str:00000000000224ab .LASF5117
C:\Users\CYMR90~1\AppData\Local\Temp\ccmBQqfl.s:33163  .debug_str:000000000002d5f6 .LASF5118
C:\Users\CYMR90~1\AppData\Local\Temp\ccmBQqfl.s:28409  .debug_str:000000000001a9e9 .LASF5119
C:\Users\CYMR90~1\AppData\Local\Temp\ccmBQqfl.s:22174  .debug_str:000000000000192f .LASF5120
C:\Users\CYMR90~1\AppData\Local\Temp\ccmBQqfl.s:23720  .debug_str:0000000000007aca .LASF5121
C:\Users\CYMR90~1\AppData\Local\Temp\ccmBQqfl.s:23072  .debug_str:00000000000052c2 .LASF5122
C:\Users\CYMR90~1\AppData\Local\Temp\ccmBQqfl.s:30571  .debug_str:0000000000023118 .LASF5123
C:\Users\CYMR90~1\AppData\Local\Temp\ccmBQqfl.s:26452  .debug_str:0000000000012a6e .LASF5124
C:\Users\CYMR90~1\AppData\Local\Temp\ccmBQqfl.s:31025  .debug_str:0000000000024d0d .LASF5125
C:\Users\CYMR90~1\AppData\Local\Temp\ccmBQqfl.s:32335  .debug_str:000000000002a17e .LASF5126
C:\Users\CYMR90~1\AppData\Local\Temp\ccmBQqfl.s:29047  .debug_str:000000000001d403 .LASF5127
C:\Users\CYMR90~1\AppData\Local\Temp\ccmBQqfl.s:31267  .debug_str:0000000000025e4a .LASF5128
C:\Users\CYMR90~1\AppData\Local\Temp\ccmBQqfl.s:31321  .debug_str:00000000000261af .LASF5129
C:\Users\CYMR90~1\AppData\Local\Temp\ccmBQqfl.s:30099  .debug_str:00000000000214d1 .LASF5130
C:\Users\CYMR90~1\AppData\Local\Temp\ccmBQqfl.s:26026  .debug_str:0000000000010ef4 .LASF5131
C:\Users\CYMR90~1\AppData\Local\Temp\ccmBQqfl.s:26208  .debug_str:00000000000119dc .LASF5132
C:\Users\CYMR90~1\AppData\Local\Temp\ccmBQqfl.s:31145  .debug_str:00000000000254fd .LASF5133
C:\Users\CYMR90~1\AppData\Local\Temp\ccmBQqfl.s:24484  .debug_str:000000000000ac3e .LASF5134
C:\Users\CYMR90~1\AppData\Local\Temp\ccmBQqfl.s:26006  .debug_str:0000000000010dba .LASF5135
C:\Users\CYMR90~1\AppData\Local\Temp\ccmBQqfl.s:32599  .debug_str:000000000002b12f .LASF5136
C:\Users\CYMR90~1\AppData\Local\Temp\ccmBQqfl.s:24010  .debug_str:0000000000008e84 .LASF5137
C:\Users\CYMR90~1\AppData\Local\Temp\ccmBQqfl.s:24596  .debug_str:000000000000b3da .LASF5138
C:\Users\CYMR90~1\AppData\Local\Temp\ccmBQqfl.s:22852  .debug_str:0000000000004474 .LASF5139
C:\Users\CYMR90~1\AppData\Local\Temp\ccmBQqfl.s:26162  .debug_str:00000000000116eb .LASF5140
C:\Users\CYMR90~1\AppData\Local\Temp\ccmBQqfl.s:27404  .debug_str:00000000000166d1 .LASF5141
C:\Users\CYMR90~1\AppData\Local\Temp\ccmBQqfl.s:29511  .debug_str:000000000001f131 .LASF5142
C:\Users\CYMR90~1\AppData\Local\Temp\ccmBQqfl.s:31813  .debug_str:000000000002804c .LASF5143
C:\Users\CYMR90~1\AppData\Local\Temp\ccmBQqfl.s:25454  .debug_str:000000000000ea84 .LASF5144
C:\Users\CYMR90~1\AppData\Local\Temp\ccmBQqfl.s:31607  .debug_str:00000000000272fc .LASF5145
C:\Users\CYMR90~1\AppData\Local\Temp\ccmBQqfl.s:29451  .debug_str:000000000001edc5 .LASF5146
C:\Users\CYMR90~1\AppData\Local\Temp\ccmBQqfl.s:26210  .debug_str:0000000000011a00 .LASF5147
C:\Users\CYMR90~1\AppData\Local\Temp\ccmBQqfl.s:29769  .debug_str:00000000000200f9 .LASF5148
C:\Users\CYMR90~1\AppData\Local\Temp\ccmBQqfl.s:23054  .debug_str:00000000000051b3 .LASF5149
C:\Users\CYMR90~1\AppData\Local\Temp\ccmBQqfl.s:26738  .debug_str:0000000000013cff .LASF5150
C:\Users\CYMR90~1\AppData\Local\Temp\ccmBQqfl.s:29813  .debug_str:0000000000020383 .LASF5151
C:\Users\CYMR90~1\AppData\Local\Temp\ccmBQqfl.s:25314  .debug_str:000000000000e203 .LASF5152
C:\Users\CYMR90~1\AppData\Local\Temp\ccmBQqfl.s:29005  .debug_str:000000000001d087 .LASF5153
C:\Users\CYMR90~1\AppData\Local\Temp\ccmBQqfl.s:29349  .debug_str:000000000001e772 .LASF5154
C:\Users\CYMR90~1\AppData\Local\Temp\ccmBQqfl.s:32233  .debug_str:0000000000029b76 .LASF5155
C:\Users\CYMR90~1\AppData\Local\Temp\ccmBQqfl.s:33005  .debug_str:000000000002cb89 .LASF5156
C:\Users\CYMR90~1\AppData\Local\Temp\ccmBQqfl.s:25464  .debug_str:000000000000eaf8 .LASF5157
C:\Users\CYMR90~1\AppData\Local\Temp\ccmBQqfl.s:22148  .debug_str:0000000000001653 .LASF5158
C:\Users\CYMR90~1\AppData\Local\Temp\ccmBQqfl.s:32155  .debug_str:0000000000029693 .LASF5159
C:\Users\CYMR90~1\AppData\Local\Temp\ccmBQqfl.s:31645  .debug_str:0000000000027529 .LASF5160
C:\Users\CYMR90~1\AppData\Local\Temp\ccmBQqfl.s:28489  .debug_str:000000000001af96 .LASF5161
C:\Users\CYMR90~1\AppData\Local\Temp\ccmBQqfl.s:29507  .debug_str:000000000001f103 .LASF5162
C:\Users\CYMR90~1\AppData\Local\Temp\ccmBQqfl.s:21994  .debug_str:0000000000000cec .LASF5163
C:\Users\CYMR90~1\AppData\Local\Temp\ccmBQqfl.s:30117  .debug_str:00000000000215b8 .LASF5164
C:\Users\CYMR90~1\AppData\Local\Temp\ccmBQqfl.s:24952  .debug_str:000000000000cba5 .LASF5165
C:\Users\CYMR90~1\AppData\Local\Temp\ccmBQqfl.s:27272  .debug_str:0000000000015e1a .LASF5166
C:\Users\CYMR90~1\AppData\Local\Temp\ccmBQqfl.s:25722  .debug_str:000000000000fb8d .LASF5167
C:\Users\CYMR90~1\AppData\Local\Temp\ccmBQqfl.s:27895  .debug_str:00000000000187a4 .LASF5168
C:\Users\CYMR90~1\AppData\Local\Temp\ccmBQqfl.s:32499  .debug_str:000000000002ab33 .LASF5169
C:\Users\CYMR90~1\AppData\Local\Temp\ccmBQqfl.s:26670  .debug_str:00000000000138fd .LASF5170
C:\Users\CYMR90~1\AppData\Local\Temp\ccmBQqfl.s:29699  .debug_str:000000000001fce4 .LASF5171
C:\Users\CYMR90~1\AppData\Local\Temp\ccmBQqfl.s:23694  .debug_str:0000000000007928 .LASF5172
C:\Users\CYMR90~1\AppData\Local\Temp\ccmBQqfl.s:31181  .debug_str:0000000000025850 .LASF5173
C:\Users\CYMR90~1\AppData\Local\Temp\ccmBQqfl.s:23574  .debug_str:000000000000716e .LASF5174
C:\Users\CYMR90~1\AppData\Local\Temp\ccmBQqfl.s:31723  .debug_str:0000000000027ab7 .LASF5175
C:\Users\CYMR90~1\AppData\Local\Temp\ccmBQqfl.s:32211  .debug_str:00000000000299e2 .LASF5176
C:\Users\CYMR90~1\AppData\Local\Temp\ccmBQqfl.s:30453  .debug_str:0000000000022a40 .LASF5177
C:\Users\CYMR90~1\AppData\Local\Temp\ccmBQqfl.s:27182  .debug_str:00000000000158c8 .LASF5178
C:\Users\CYMR90~1\AppData\Local\Temp\ccmBQqfl.s:24016  .debug_str:0000000000008ecb .LASF5179
C:\Users\CYMR90~1\AppData\Local\Temp\ccmBQqfl.s:22606  .debug_str:0000000000003430 .LASF5180
C:\Users\CYMR90~1\AppData\Local\Temp\ccmBQqfl.s:32911  .debug_str:000000000002c5b2 .LASF5181
C:\Users\CYMR90~1\AppData\Local\Temp\ccmBQqfl.s:24200  .debug_str:0000000000009a5e .LASF5182
C:\Users\CYMR90~1\AppData\Local\Temp\ccmBQqfl.s:24020  .debug_str:0000000000008ef2 .LASF5183
C:\Users\CYMR90~1\AppData\Local\Temp\ccmBQqfl.s:24568  .debug_str:000000000000b22e .LASF5184
C:\Users\CYMR90~1\AppData\Local\Temp\ccmBQqfl.s:25556  .debug_str:000000000000f0de .LASF5185
C:\Users\CYMR90~1\AppData\Local\Temp\ccmBQqfl.s:32099  .debug_str:000000000002932b .LASF5186
C:\Users\CYMR90~1\AppData\Local\Temp\ccmBQqfl.s:24136  .debug_str:000000000000964f .LASF5187
C:\Users\CYMR90~1\AppData\Local\Temp\ccmBQqfl.s:32801  .debug_str:000000000002be4a .LASF5188
C:\Users\CYMR90~1\AppData\Local\Temp\ccmBQqfl.s:31389  .debug_str:00000000000265f4 .LASF5189
C:\Users\CYMR90~1\AppData\Local\Temp\ccmBQqfl.s:25704  .debug_str:000000000000fa84 .LASF5190
C:\Users\CYMR90~1\AppData\Local\Temp\ccmBQqfl.s:22906  .debug_str:00000000000047c6 .LASF5191
C:\Users\CYMR90~1\AppData\Local\Temp\ccmBQqfl.s:28449  .debug_str:000000000001acfb .LASF5192
C:\Users\CYMR90~1\AppData\Local\Temp\ccmBQqfl.s:31139  .debug_str:00000000000254b2 .LASF5193
C:\Users\CYMR90~1\AppData\Local\Temp\ccmBQqfl.s:25640  .debug_str:000000000000f61a .LASF5194
C:\Users\CYMR90~1\AppData\Local\Temp\ccmBQqfl.s:21898  .debug_str:00000000000006b1 .LASF5195
C:\Users\CYMR90~1\AppData\Local\Temp\ccmBQqfl.s:21846  .debug_str:00000000000003af .LASF5196
C:\Users\CYMR90~1\AppData\Local\Temp\ccmBQqfl.s:22200  .debug_str:0000000000001ad9 .LASF5197
C:\Users\CYMR90~1\AppData\Local\Temp\ccmBQqfl.s:30785  .debug_str:0000000000023e2b .LASF5198
C:\Users\CYMR90~1\AppData\Local\Temp\ccmBQqfl.s:31437  .debug_str:0000000000026884 .LASF5199
C:\Users\CYMR90~1\AppData\Local\Temp\ccmBQqfl.s:26552  .debug_str:00000000000130e9 .LASF5200
C:\Users\CYMR90~1\AppData\Local\Temp\ccmBQqfl.s:28483  .debug_str:000000000001af57 .LASF5201
C:\Users\CYMR90~1\AppData\Local\Temp\ccmBQqfl.s:29841  .debug_str:0000000000020575 .LASF5202
C:\Users\CYMR90~1\AppData\Local\Temp\ccmBQqfl.s:27280  .debug_str:0000000000015ee8 .LASF5203
C:\Users\CYMR90~1\AppData\Local\Temp\ccmBQqfl.s:29897  .debug_str:0000000000020878 .LASF5204
C:\Users\CYMR90~1\AppData\Local\Temp\ccmBQqfl.s:29197  .debug_str:000000000001de20 .LASF5205
C:\Users\CYMR90~1\AppData\Local\Temp\ccmBQqfl.s:23924  .debug_str:000000000000888f .LASF5206
C:\Users\CYMR90~1\AppData\Local\Temp\ccmBQqfl.s:30597  .debug_str:00000000000232ff .LASF5207
C:\Users\CYMR90~1\AppData\Local\Temp\ccmBQqfl.s:29877  .debug_str:000000000002076f .LASF5208
C:\Users\CYMR90~1\AppData\Local\Temp\ccmBQqfl.s:22960  .debug_str:0000000000004bee .LASF5209
C:\Users\CYMR90~1\AppData\Local\Temp\ccmBQqfl.s:23388  .debug_str:00000000000065cd .LASF5210
C:\Users\CYMR90~1\AppData\Local\Temp\ccmBQqfl.s:30551  .debug_str:0000000000023018 .LASF5211
C:\Users\CYMR90~1\AppData\Local\Temp\ccmBQqfl.s:32287  .debug_str:0000000000029eb8 .LASF5212
C:\Users\CYMR90~1\AppData\Local\Temp\ccmBQqfl.s:28075  .debug_str:00000000000192db .LASF5213
C:\Users\CYMR90~1\AppData\Local\Temp\ccmBQqfl.s:24852  .debug_str:000000000000c4f6 .LASF5214
C:\Users\CYMR90~1\AppData\Local\Temp\ccmBQqfl.s:29595  .debug_str:000000000001f659 .LASF5215
C:\Users\CYMR90~1\AppData\Local\Temp\ccmBQqfl.s:26422  .debug_str:0000000000012893 .LASF5216
C:\Users\CYMR90~1\AppData\Local\Temp\ccmBQqfl.s:29987  .debug_str:0000000000020e15 .LASF5217
C:\Users\CYMR90~1\AppData\Local\Temp\ccmBQqfl.s:26742  .debug_str:0000000000013d52 .LASF5218
C:\Users\CYMR90~1\AppData\Local\Temp\ccmBQqfl.s:32237  .debug_str:0000000000029bcc .LASF5219
C:\Users\CYMR90~1\AppData\Local\Temp\ccmBQqfl.s:25886  .debug_str:00000000000105fa .LASF5220
C:\Users\CYMR90~1\AppData\Local\Temp\ccmBQqfl.s:25108  .debug_str:000000000000d57f .LASF5221
C:\Users\CYMR90~1\AppData\Local\Temp\ccmBQqfl.s:29605  .debug_str:000000000001f712 .LASF5222
C:\Users\CYMR90~1\AppData\Local\Temp\ccmBQqfl.s:24106  .debug_str:00000000000094a6 .LASF5223
C:\Users\CYMR90~1\AppData\Local\Temp\ccmBQqfl.s:31641  .debug_str:00000000000274f9 .LASF5224
C:\Users\CYMR90~1\AppData\Local\Temp\ccmBQqfl.s:30715  .debug_str:000000000002397c .LASF5225
C:\Users\CYMR90~1\AppData\Local\Temp\ccmBQqfl.s:24642  .debug_str:000000000000b643 .LASF5226
C:\Users\CYMR90~1\AppData\Local\Temp\ccmBQqfl.s:23904  .debug_str:000000000000877d .LASF5227
C:\Users\CYMR90~1\AppData\Local\Temp\ccmBQqfl.s:30457  .debug_str:0000000000022a71 .LASF5228
C:\Users\CYMR90~1\AppData\Local\Temp\ccmBQqfl.s:29271  .debug_str:000000000001e2c9 .LASF5229
C:\Users\CYMR90~1\AppData\Local\Temp\ccmBQqfl.s:27855  .debug_str:0000000000018546 .LASF5230
C:\Users\CYMR90~1\AppData\Local\Temp\ccmBQqfl.s:23226  .debug_str:0000000000005c49 .LASF5231
C:\Users\CYMR90~1\AppData\Local\Temp\ccmBQqfl.s:29917  .debug_str:0000000000020987 .LASF5232
C:\Users\CYMR90~1\AppData\Local\Temp\ccmBQqfl.s:23768  .debug_str:0000000000007dc2 .LASF5233
C:\Users\CYMR90~1\AppData\Local\Temp\ccmBQqfl.s:23220  .debug_str:0000000000005c05 .LASF5234
C:\Users\CYMR90~1\AppData\Local\Temp\ccmBQqfl.s:23524  .debug_str:0000000000006e2c .LASF5235
C:\Users\CYMR90~1\AppData\Local\Temp\ccmBQqfl.s:29889  .debug_str:00000000000207fd .LASF5236
C:\Users\CYMR90~1\AppData\Local\Temp\ccmBQqfl.s:26356  .debug_str:0000000000012468 .LASF5237
C:\Users\CYMR90~1\AppData\Local\Temp\ccmBQqfl.s:24744  .debug_str:000000000000bdcb .LASF5238
C:\Users\CYMR90~1\AppData\Local\Temp\ccmBQqfl.s:31831  .debug_str:00000000000281bf .LASF5239
C:\Users\CYMR90~1\AppData\Local\Temp\ccmBQqfl.s:31421  .debug_str:00000000000267bb .LASF5240
C:\Users\CYMR90~1\AppData\Local\Temp\ccmBQqfl.s:29815  .debug_str:00000000000203b2 .LASF5241
C:\Users\CYMR90~1\AppData\Local\Temp\ccmBQqfl.s:29765  .debug_str:00000000000200d1 .LASF5242
C:\Users\CYMR90~1\AppData\Local\Temp\ccmBQqfl.s:26660  .debug_str:0000000000013862 .LASF5243
C:\Users\CYMR90~1\AppData\Local\Temp\ccmBQqfl.s:32987  .debug_str:000000000002ca9c .LASF5244
C:\Users\CYMR90~1\AppData\Local\Temp\ccmBQqfl.s:29239  .debug_str:000000000001e05a .LASF5245
C:\Users\CYMR90~1\AppData\Local\Temp\ccmBQqfl.s:30007  .debug_str:0000000000020f3f .LASF5246
C:\Users\CYMR90~1\AppData\Local\Temp\ccmBQqfl.s:30167  .debug_str:0000000000021893 .LASF5247
C:\Users\CYMR90~1\AppData\Local\Temp\ccmBQqfl.s:25070  .debug_str:000000000000d2bb .LASF5248
C:\Users\CYMR90~1\AppData\Local\Temp\ccmBQqfl.s:29187  .debug_str:000000000001dd59 .LASF5249
C:\Users\CYMR90~1\AppData\Local\Temp\ccmBQqfl.s:27739  .debug_str:0000000000017e57 .LASF5250
C:\Users\CYMR90~1\AppData\Local\Temp\ccmBQqfl.s:26898  .debug_str:00000000000146a9 .LASF5251
C:\Users\CYMR90~1\AppData\Local\Temp\ccmBQqfl.s:25198  .debug_str:000000000000db28 .LASF5252
C:\Users\CYMR90~1\AppData\Local\Temp\ccmBQqfl.s:27104  .debug_str:0000000000015452 .LASF5253
C:\Users\CYMR90~1\AppData\Local\Temp\ccmBQqfl.s:25134  .debug_str:000000000000d796 .LASF5254
C:\Users\CYMR90~1\AppData\Local\Temp\ccmBQqfl.s:26770  .debug_str:0000000000013f24 .LASF5255
C:\Users\CYMR90~1\AppData\Local\Temp\ccmBQqfl.s:22480  .debug_str:0000000000002c07 .LASF5256
C:\Users\CYMR90~1\AppData\Local\Temp\ccmBQqfl.s:24320  .debug_str:000000000000a200 .LASF5257
C:\Users\CYMR90~1\AppData\Local\Temp\ccmBQqfl.s:31159  .debug_str:0000000000025658 .LASF5258
C:\Users\CYMR90~1\AppData\Local\Temp\ccmBQqfl.s:29097  .debug_str:000000000001d78b .LASF5259
C:\Users\CYMR90~1\AppData\Local\Temp\ccmBQqfl.s:33067  .debug_str:000000000002cfe6 .LASF5260
C:\Users\CYMR90~1\AppData\Local\Temp\ccmBQqfl.s:32405  .debug_str:000000000002a560 .LASF5261
C:\Users\CYMR90~1\AppData\Local\Temp\ccmBQqfl.s:24352  .debug_str:000000000000a3eb .LASF5262
C:\Users\CYMR90~1\AppData\Local\Temp\ccmBQqfl.s:25166  .debug_str:000000000000d97f .LASF5263
C:\Users\CYMR90~1\AppData\Local\Temp\ccmBQqfl.s:29885  .debug_str:00000000000207c7 .LASF5264
C:\Users\CYMR90~1\AppData\Local\Temp\ccmBQqfl.s:31261  .debug_str:0000000000025dd9 .LASF5265
C:\Users\CYMR90~1\AppData\Local\Temp\ccmBQqfl.s:28077  .debug_str:00000000000192f3 .LASF5266
C:\Users\CYMR90~1\AppData\Local\Temp\ccmBQqfl.s:24382  .debug_str:000000000000a5d0 .LASF5267
C:\Users\CYMR90~1\AppData\Local\Temp\ccmBQqfl.s:28539  .debug_str:000000000001b2d3 .LASF5268
C:\Users\CYMR90~1\AppData\Local\Temp\ccmBQqfl.s:25784  .debug_str:000000000000ff2a .LASF5269
C:\Users\CYMR90~1\AppData\Local\Temp\ccmBQqfl.s:22150  .debug_str:0000000000001684 .LASF5270
C:\Users\CYMR90~1\AppData\Local\Temp\ccmBQqfl.s:24938  .debug_str:000000000000ca52 .LASF5271
C:\Users\CYMR90~1\AppData\Local\Temp\ccmBQqfl.s:25074  .debug_str:000000000000d301 .LASF5272
C:\Users\CYMR90~1\AppData\Local\Temp\ccmBQqfl.s:26158  .debug_str:00000000000116b1 .LASF5273
C:\Users\CYMR90~1\AppData\Local\Temp\ccmBQqfl.s:29233  .debug_str:000000000001dff9 .LASF5274
C:\Users\CYMR90~1\AppData\Local\Temp\ccmBQqfl.s:26876  .debug_str:0000000000014586 .LASF5275
C:\Users\CYMR90~1\AppData\Local\Temp\ccmBQqfl.s:24174  .debug_str:00000000000098f2 .LASF5276
C:\Users\CYMR90~1\AppData\Local\Temp\ccmBQqfl.s:29121  .debug_str:000000000001d90a .LASF5277
C:\Users\CYMR90~1\AppData\Local\Temp\ccmBQqfl.s:27669  .debug_str:00000000000179ac .LASF5278
C:\Users\CYMR90~1\AppData\Local\Temp\ccmBQqfl.s:30475  .debug_str:0000000000022b49 .LASF5279
C:\Users\CYMR90~1\AppData\Local\Temp\ccmBQqfl.s:21796  .debug_str:00000000000000a6 .LASF5280
C:\Users\CYMR90~1\AppData\Local\Temp\ccmBQqfl.s:29851  .debug_str:0000000000020600 .LASF5281
C:\Users\CYMR90~1\AppData\Local\Temp\ccmBQqfl.s:33141  .debug_str:000000000002d486 .LASF5282
C:\Users\CYMR90~1\AppData\Local\Temp\ccmBQqfl.s:29267  .debug_str:000000000001e290 .LASF5283
C:\Users\CYMR90~1\AppData\Local\Temp\ccmBQqfl.s:23272  .debug_str:0000000000005f0d .LASF5284
C:\Users\CYMR90~1\AppData\Local\Temp\ccmBQqfl.s:22422  .debug_str:0000000000002815 .LASF5285
C:\Users\CYMR90~1\AppData\Local\Temp\ccmBQqfl.s:30087  .debug_str:000000000002140b .LASF5286
C:\Users\CYMR90~1\AppData\Local\Temp\ccmBQqfl.s:31955  .debug_str:0000000000028a72 .LASF5287
C:\Users\CYMR90~1\AppData\Local\Temp\ccmBQqfl.s:21890  .debug_str:000000000000061d .LASF5288
C:\Users\CYMR90~1\AppData\Local\Temp\ccmBQqfl.s:26384  .debug_str:0000000000012600 .LASF5289
C:\Users\CYMR90~1\AppData\Local\Temp\ccmBQqfl.s:29329  .debug_str:000000000001e65d .LASF5290
C:\Users\CYMR90~1\AppData\Local\Temp\ccmBQqfl.s:26354  .debug_str:000000000001244f .LASF5291
C:\Users\CYMR90~1\AppData\Local\Temp\ccmBQqfl.s:23394  .debug_str:000000000000662f .LASF5292
C:\Users\CYMR90~1\AppData\Local\Temp\ccmBQqfl.s:29583  .debug_str:000000000001f585 .LASF5293
C:\Users\CYMR90~1\AppData\Local\Temp\ccmBQqfl.s:27681  .debug_str:0000000000017a8d .LASF5294
C:\Users\CYMR90~1\AppData\Local\Temp\ccmBQqfl.s:22152  .debug_str:0000000000001724 .LASF5295
C:\Users\CYMR90~1\AppData\Local\Temp\ccmBQqfl.s:29805  .debug_str:0000000000020322 .LASF5296
C:\Users\CYMR90~1\AppData\Local\Temp\ccmBQqfl.s:22494  .debug_str:0000000000002d2a .LASF5297
C:\Users\CYMR90~1\AppData\Local\Temp\ccmBQqfl.s:30617  .debug_str:000000000002342c .LASF5298
C:\Users\CYMR90~1\AppData\Local\Temp\ccmBQqfl.s:22106  .debug_str:00000000000013cf .LASF5299
C:\Users\CYMR90~1\AppData\Local\Temp\ccmBQqfl.s:31589  .debug_str:00000000000271a9 .LASF5300
C:\Users\CYMR90~1\AppData\Local\Temp\ccmBQqfl.s:27338  .debug_str:00000000000162d4 .LASF5301
C:\Users\CYMR90~1\AppData\Local\Temp\ccmBQqfl.s:22720  .debug_str:0000000000003b72 .LASF5302
C:\Users\CYMR90~1\AppData\Local\Temp\ccmBQqfl.s:24606  .debug_str:000000000000b464 .LASF5303
C:\Users\CYMR90~1\AppData\Local\Temp\ccmBQqfl.s:23544  .debug_str:0000000000006f86 .LASF5304
C:\Users\CYMR90~1\AppData\Local\Temp\ccmBQqfl.s:23300  .debug_str:00000000000060ab .LASF5305
C:\Users\CYMR90~1\AppData\Local\Temp\ccmBQqfl.s:31733  .debug_str:0000000000027b48 .LASF5306
C:\Users\CYMR90~1\AppData\Local\Temp\ccmBQqfl.s:23864  .debug_str:00000000000084f9 .LASF5307
C:\Users\CYMR90~1\AppData\Local\Temp\ccmBQqfl.s:32697  .debug_str:000000000002b73d .LASF5308
C:\Users\CYMR90~1\AppData\Local\Temp\ccmBQqfl.s:29881  .debug_str:000000000002079a .LASF5309
C:\Users\CYMR90~1\AppData\Local\Temp\ccmBQqfl.s:28167  .debug_str:00000000000198f4 .LASF5310
C:\Users\CYMR90~1\AppData\Local\Temp\ccmBQqfl.s:22028  .debug_str:0000000000000f8b .LASF5311
C:\Users\CYMR90~1\AppData\Local\Temp\ccmBQqfl.s:29713  .debug_str:000000000001fdb3 .LASF5312
C:\Users\CYMR90~1\AppData\Local\Temp\ccmBQqfl.s:23246  .debug_str:0000000000005d82 .LASF5313
C:\Users\CYMR90~1\AppData\Local\Temp\ccmBQqfl.s:32667  .debug_str:000000000002b50e .LASF5314
C:\Users\CYMR90~1\AppData\Local\Temp\ccmBQqfl.s:27402  .debug_str:00000000000166b4 .LASF5315
C:\Users\CYMR90~1\AppData\Local\Temp\ccmBQqfl.s:27202  .debug_str:00000000000159f6 .LASF5316
C:\Users\CYMR90~1\AppData\Local\Temp\ccmBQqfl.s:28233  .debug_str:0000000000019de5 .LASF5317
C:\Users\CYMR90~1\AppData\Local\Temp\ccmBQqfl.s:24672  .debug_str:000000000000b8cd .LASF5318
C:\Users\CYMR90~1\AppData\Local\Temp\ccmBQqfl.s:31043  .debug_str:0000000000024ecf .LASF5319
C:\Users\CYMR90~1\AppData\Local\Temp\ccmBQqfl.s:32645  .debug_str:000000000002b3ce .LASF5320
C:\Users\CYMR90~1\AppData\Local\Temp\ccmBQqfl.s:22776  .debug_str:0000000000003ef8 .LASF5321
C:\Users\CYMR90~1\AppData\Local\Temp\ccmBQqfl.s:29641  .debug_str:000000000001f92c .LASF5322
C:\Users\CYMR90~1\AppData\Local\Temp\ccmBQqfl.s:28921  .debug_str:000000000001caad .LASF5323
C:\Users\CYMR90~1\AppData\Local\Temp\ccmBQqfl.s:28595  .debug_str:000000000001b6a0 .LASF5324
C:\Users\CYMR90~1\AppData\Local\Temp\ccmBQqfl.s:32397  .debug_str:000000000002a4f3 .LASF5325
C:\Users\CYMR90~1\AppData\Local\Temp\ccmBQqfl.s:30297  .debug_str:000000000002211f .LASF5326
C:\Users\CYMR90~1\AppData\Local\Temp\ccmBQqfl.s:24194  .debug_str:00000000000099ed .LASF5327
C:\Users\CYMR90~1\AppData\Local\Temp\ccmBQqfl.s:33051  .debug_str:000000000002cec9 .LASF5328
C:\Users\CYMR90~1\AppData\Local\Temp\ccmBQqfl.s:32107  .debug_str:000000000002938c .LASF5329
C:\Users\CYMR90~1\AppData\Local\Temp\ccmBQqfl.s:22594  .debug_str:0000000000003352 .LASF5330
C:\Users\CYMR90~1\AppData\Local\Temp\ccmBQqfl.s:30249  .debug_str:0000000000021e4c .LASF5331
C:\Users\CYMR90~1\AppData\Local\Temp\ccmBQqfl.s:33015  .debug_str:000000000002cc38 .LASF5332
C:\Users\CYMR90~1\AppData\Local\Temp\ccmBQqfl.s:29475  .debug_str:000000000001ef29 .LASF5333
C:\Users\CYMR90~1\AppData\Local\Temp\ccmBQqfl.s:32353  .debug_str:000000000002a289 .LASF5334
C:\Users\CYMR90~1\AppData\Local\Temp\ccmBQqfl.s:27278  .debug_str:0000000000015ec8 .LASF5335
C:\Users\CYMR90~1\AppData\Local\Temp\ccmBQqfl.s:29405  .debug_str:000000000001eac6 .LASF5336
C:\Users\CYMR90~1\AppData\Local\Temp\ccmBQqfl.s:25672  .debug_str:000000000000f7e5 .LASF5337
C:\Users\CYMR90~1\AppData\Local\Temp\ccmBQqfl.s:25660  .debug_str:000000000000f738 .LASF5338
C:\Users\CYMR90~1\AppData\Local\Temp\ccmBQqfl.s:28623  .debug_str:000000000001b87a .LASF5339
C:\Users\CYMR90~1\AppData\Local\Temp\ccmBQqfl.s:27747  .debug_str:0000000000017ee0 .LASF5340
C:\Users\CYMR90~1\AppData\Local\Temp\ccmBQqfl.s:22184  .debug_str:00000000000019e6 .LASF5341
C:\Users\CYMR90~1\AppData\Local\Temp\ccmBQqfl.s:28415  .debug_str:000000000001aa53 .LASF5342
C:\Users\CYMR90~1\AppData\Local\Temp\ccmBQqfl.s:26402  .debug_str:0000000000012730 .LASF5343
C:\Users\CYMR90~1\AppData\Local\Temp\ccmBQqfl.s:27492  .debug_str:0000000000016cd6 .LASF5344
C:\Users\CYMR90~1\AppData\Local\Temp\ccmBQqfl.s:22298  .debug_str:000000000000209b .LASF5345
C:\Users\CYMR90~1\AppData\Local\Temp\ccmBQqfl.s:27274  .debug_str:0000000000015e32 .LASF5346
C:\Users\CYMR90~1\AppData\Local\Temp\ccmBQqfl.s:22942  .debug_str:0000000000004a42 .LASF5347
C:\Users\CYMR90~1\AppData\Local\Temp\ccmBQqfl.s:26160  .debug_str:00000000000116d3 .LASF5348
C:\Users\CYMR90~1\AppData\Local\Temp\ccmBQqfl.s:24540  .debug_str:000000000000af92 .LASF5349
C:\Users\CYMR90~1\AppData\Local\Temp\ccmBQqfl.s:31169  .debug_str:00000000000256e5 .LASF5350
C:\Users\CYMR90~1\AppData\Local\Temp\ccmBQqfl.s:27927  .debug_str:000000000001898d .LASF5351
C:\Users\CYMR90~1\AppData\Local\Temp\ccmBQqfl.s:24360  .debug_str:000000000000a477 .LASF5352
C:\Users\CYMR90~1\AppData\Local\Temp\ccmBQqfl.s:29483  .debug_str:000000000001efb9 .LASF5353
C:\Users\CYMR90~1\AppData\Local\Temp\ccmBQqfl.s:30729  .debug_str:0000000000023a5a .LASF5354
C:\Users\CYMR90~1\AppData\Local\Temp\ccmBQqfl.s:32791  .debug_str:000000000002bd8c .LASF5355
C:\Users\CYMR90~1\AppData\Local\Temp\ccmBQqfl.s:22088  .debug_str:00000000000012db .LASF5356
C:\Users\CYMR90~1\AppData\Local\Temp\ccmBQqfl.s:27561  .debug_str:000000000001736f .LASF5357
C:\Users\CYMR90~1\AppData\Local\Temp\ccmBQqfl.s:30367  .debug_str:0000000000022568 .LASF5358
C:\Users\CYMR90~1\AppData\Local\Temp\ccmBQqfl.s:29269  .debug_str:000000000001e2b2 .LASF5359
C:\Users\CYMR90~1\AppData\Local\Temp\ccmBQqfl.s:25848  .debug_str:0000000000010369 .LASF5360
C:\Users\CYMR90~1\AppData\Local\Temp\ccmBQqfl.s:22270  .debug_str:0000000000001ef8 .LASF5361
C:\Users\CYMR90~1\AppData\Local\Temp\ccmBQqfl.s:28519  .debug_str:000000000001b15b .LASF5362
C:\Users\CYMR90~1\AppData\Local\Temp\ccmBQqfl.s:32907  .debug_str:000000000002c54f .LASF5363
C:\Users\CYMR90~1\AppData\Local\Temp\ccmBQqfl.s:26838  .debug_str:0000000000014311 .LASF5364
C:\Users\CYMR90~1\AppData\Local\Temp\ccmBQqfl.s:31965  .debug_str:0000000000028b2a .LASF5365
C:\Users\CYMR90~1\AppData\Local\Temp\ccmBQqfl.s:32909  .debug_str:000000000002c579 .LASF5366
C:\Users\CYMR90~1\AppData\Local\Temp\ccmBQqfl.s:22662  .debug_str:00000000000037d7 .LASF5367
C:\Users\CYMR90~1\AppData\Local\Temp\ccmBQqfl.s:28149  .debug_str:0000000000019818 .LASF5368
C:\Users\CYMR90~1\AppData\Local\Temp\ccmBQqfl.s:27995  .debug_str:0000000000018def .LASF5369
C:\Users\CYMR90~1\AppData\Local\Temp\ccmBQqfl.s:26976  .debug_str:0000000000014bf3 .LASF5370
C:\Users\CYMR90~1\AppData\Local\Temp\ccmBQqfl.s:32411  .debug_str:000000000002a5a3 .LASF5371
C:\Users\CYMR90~1\AppData\Local\Temp\ccmBQqfl.s:28545  .debug_str:000000000001b35c .LASF5372
C:\Users\CYMR90~1\AppData\Local\Temp\ccmBQqfl.s:29441  .debug_str:000000000001ed06 .LASF5373
C:\Users\CYMR90~1\AppData\Local\Temp\ccmBQqfl.s:21816  .debug_str:00000000000001da .LASF5374
C:\Users\CYMR90~1\AppData\Local\Temp\ccmBQqfl.s:31637  .debug_str:00000000000274c4 .LASF5375
C:\Users\CYMR90~1\AppData\Local\Temp\ccmBQqfl.s:31663  .debug_str:0000000000027655 .LASF5376
C:\Users\CYMR90~1\AppData\Local\Temp\ccmBQqfl.s:23704  .debug_str:00000000000079e2 .LASF5377
C:\Users\CYMR90~1\AppData\Local\Temp\ccmBQqfl.s:31907  .debug_str:000000000002875e .LASF5378
C:\Users\CYMR90~1\AppData\Local\Temp\ccmBQqfl.s:26646  .debug_str:0000000000013764 .LASF5379
C:\Users\CYMR90~1\AppData\Local\Temp\ccmBQqfl.s:23154  .debug_str:00000000000057e8 .LASF5380
C:\Users\CYMR90~1\AppData\Local\Temp\ccmBQqfl.s:26040  .debug_str:0000000000011046 .LASF5381
C:\Users\CYMR90~1\AppData\Local\Temp\ccmBQqfl.s:27701  .debug_str:0000000000017bb7 .LASF5382
C:\Users\CYMR90~1\AppData\Local\Temp\ccmBQqfl.s:23554  .debug_str:0000000000007062 .LASF5383
C:\Users\CYMR90~1\AppData\Local\Temp\ccmBQqfl.s:22696  .debug_str:0000000000003a01 .LASF5384
C:\Users\CYMR90~1\AppData\Local\Temp\ccmBQqfl.s:31481  .debug_str:0000000000026b45 .LASF5385
C:\Users\CYMR90~1\AppData\Local\Temp\ccmBQqfl.s:27957  .debug_str:0000000000018b6d .LASF5386
C:\Users\CYMR90~1\AppData\Local\Temp\ccmBQqfl.s:32921  .debug_str:000000000002c674 .LASF5387
C:\Users\CYMR90~1\AppData\Local\Temp\ccmBQqfl.s:30305  .debug_str:00000000000221b0 .LASF5388
C:\Users\CYMR90~1\AppData\Local\Temp\ccmBQqfl.s:25846  .debug_str:0000000000010347 .LASF5389
C:\Users\CYMR90~1\AppData\Local\Temp\ccmBQqfl.s:29903  .debug_str:00000000000208b7 .LASF5390
C:\Users\CYMR90~1\AppData\Local\Temp\ccmBQqfl.s:26170  .debug_str:0000000000011757 .LASF5391
C:\Users\CYMR90~1\AppData\Local\Temp\ccmBQqfl.s:31899  .debug_str:000000000002864c .LASF5392
C:\Users\CYMR90~1\AppData\Local\Temp\ccmBQqfl.s:29069  .debug_str:000000000001d5f2 .LASF5393
C:\Users\CYMR90~1\AppData\Local\Temp\ccmBQqfl.s:24288  .debug_str:000000000000a012 .LASF5394
C:\Users\CYMR90~1\AppData\Local\Temp\ccmBQqfl.s:28307  .debug_str:000000000001a25f .LASF5395
C:\Users\CYMR90~1\AppData\Local\Temp\ccmBQqfl.s:24824  .debug_str:000000000000c34f .LASF5396
C:\Users\CYMR90~1\AppData\Local\Temp\ccmBQqfl.s:28581  .debug_str:000000000001b5b9 .LASF5397
C:\Users\CYMR90~1\AppData\Local\Temp\ccmBQqfl.s:31551  .debug_str:0000000000026fa4 .LASF5398
C:\Users\CYMR90~1\AppData\Local\Temp\ccmBQqfl.s:33023  .debug_str:000000000002cce0 .LASF5399
C:\Users\CYMR90~1\AppData\Local\Temp\ccmBQqfl.s:29093  .debug_str:000000000001d75a .LASF5400
C:\Users\CYMR90~1\AppData\Local\Temp\ccmBQqfl.s:30041  .debug_str:0000000000021170 .LASF5401
C:\Users\CYMR90~1\AppData\Local\Temp\ccmBQqfl.s:25796  .debug_str:0000000000010013 .LASF5402
C:\Users\CYMR90~1\AppData\Local\Temp\ccmBQqfl.s:30045  .debug_str:00000000000211a7 .LASF5403
C:\Users\CYMR90~1\AppData\Local\Temp\ccmBQqfl.s:30405  .debug_str:0000000000022799 .LASF5404
C:\Users\CYMR90~1\AppData\Local\Temp\ccmBQqfl.s:30083  .debug_str:00000000000213d8 .LASF5405
C:\Users\CYMR90~1\AppData\Local\Temp\ccmBQqfl.s:27683  .debug_str:0000000000017aa6 .LASF5406
C:\Users\CYMR90~1\AppData\Local\Temp\ccmBQqfl.s:30317  .debug_str:0000000000022261 .LASF5407
C:\Users\CYMR90~1\AppData\Local\Temp\ccmBQqfl.s:27685  .debug_str:0000000000017abd .LASF5408
C:\Users\CYMR90~1\AppData\Local\Temp\ccmBQqfl.s:25926  .debug_str:0000000000010842 .LASF5409
C:\Users\CYMR90~1\AppData\Local\Temp\ccmBQqfl.s:25730  .debug_str:000000000000fbf6 .LASF5410
C:\Users\CYMR90~1\AppData\Local\Temp\ccmBQqfl.s:31457  .debug_str:00000000000269cb .LASF5411
C:\Users\CYMR90~1\AppData\Local\Temp\ccmBQqfl.s:25610  .debug_str:000000000000f42b .LASF5412
C:\Users\CYMR90~1\AppData\Local\Temp\ccmBQqfl.s:32955  .debug_str:000000000002c8b8 .LASF5413
C:\Users\CYMR90~1\AppData\Local\Temp\ccmBQqfl.s:31353  .debug_str:0000000000026397 .LASF5414
C:\Users\CYMR90~1\AppData\Local\Temp\ccmBQqfl.s:21828  .debug_str:0000000000000275 .LASF5415
C:\Users\CYMR90~1\AppData\Local\Temp\ccmBQqfl.s:24986  .debug_str:000000000000cdb2 .LASF5416
C:\Users\CYMR90~1\AppData\Local\Temp\ccmBQqfl.s:23624  .debug_str:00000000000074fd .LASF5417
C:\Users\CYMR90~1\AppData\Local\Temp\ccmBQqfl.s:27372  .debug_str:0000000000016505 .LASF5418
C:\Users\CYMR90~1\AppData\Local\Temp\ccmBQqfl.s:27781  .debug_str:00000000000180d3 .LASF5419
C:\Users\CYMR90~1\AppData\Local\Temp\ccmBQqfl.s:27344  .debug_str:0000000000016359 .LASF5420
C:\Users\CYMR90~1\AppData\Local\Temp\ccmBQqfl.s:27450  .debug_str:0000000000016a25 .LASF5421
C:\Users\CYMR90~1\AppData\Local\Temp\ccmBQqfl.s:26044  .debug_str:000000000001107e .LASF5422
C:\Users\CYMR90~1\AppData\Local\Temp\ccmBQqfl.s:28889  .debug_str:000000000001c8df .LASF5423
C:\Users\CYMR90~1\AppData\Local\Temp\ccmBQqfl.s:31123  .debug_str:00000000000253eb .LASF5424
C:\Users\CYMR90~1\AppData\Local\Temp\ccmBQqfl.s:31131  .debug_str:0000000000025463 .LASF5425
C:\Users\CYMR90~1\AppData\Local\Temp\ccmBQqfl.s:31535  .debug_str:0000000000026ea8 .LASF5426
C:\Users\CYMR90~1\AppData\Local\Temp\ccmBQqfl.s:32735  .debug_str:000000000002b9c8 .LASF5427
C:\Users\CYMR90~1\AppData\Local\Temp\ccmBQqfl.s:32595  .debug_str:000000000002b0d5 .LASF5428
C:\Users\CYMR90~1\AppData\Local\Temp\ccmBQqfl.s:29161  .debug_str:000000000001dbe7 .LASF5429
C:\Users\CYMR90~1\AppData\Local\Temp\ccmBQqfl.s:32947  .debug_str:000000000002c809 .LASF5430
C:\Users\CYMR90~1\AppData\Local\Temp\ccmBQqfl.s:31283  .debug_str:0000000000025f43 .LASF5431
C:\Users\CYMR90~1\AppData\Local\Temp\ccmBQqfl.s:30433  .debug_str:0000000000022920 .LASF5432
C:\Users\CYMR90~1\AppData\Local\Temp\ccmBQqfl.s:26436  .debug_str:0000000000012968 .LASF5433
C:\Users\CYMR90~1\AppData\Local\Temp\ccmBQqfl.s:23962  .debug_str:0000000000008ba3 .LASF5434
C:\Users\CYMR90~1\AppData\Local\Temp\ccmBQqfl.s:29469  .debug_str:000000000001eedd .LASF5435
C:\Users\CYMR90~1\AppData\Local\Temp\ccmBQqfl.s:27448  .debug_str:0000000000016a0a .LASF5436
C:\Users\CYMR90~1\AppData\Local\Temp\ccmBQqfl.s:23408  .debug_str:000000000000670b .LASF5437
C:\Users\CYMR90~1\AppData\Local\Temp\ccmBQqfl.s:29123  .debug_str:000000000001d92b .LASF5438
C:\Users\CYMR90~1\AppData\Local\Temp\ccmBQqfl.s:31755  .debug_str:0000000000027c81 .LASF5439
C:\Users\CYMR90~1\AppData\Local\Temp\ccmBQqfl.s:27120  .debug_str:000000000001554f .LASF5440
C:\Users\CYMR90~1\AppData\Local\Temp\ccmBQqfl.s:27557  .debug_str:0000000000017337 .LASF5441
C:\Users\CYMR90~1\AppData\Local\Temp\ccmBQqfl.s:26324  .debug_str:00000000000121fd .LASF5442
C:\Users\CYMR90~1\AppData\Local\Temp\ccmBQqfl.s:27090  .debug_str:0000000000015374 .LASF5443
C:\Users\CYMR90~1\AppData\Local\Temp\ccmBQqfl.s:22142  .debug_str:00000000000015cd .LASF5444
C:\Users\CYMR90~1\AppData\Local\Temp\ccmBQqfl.s:23256  .debug_str:0000000000005e2b .LASF5445
C:\Users\CYMR90~1\AppData\Local\Temp\ccmBQqfl.s:23580  .debug_str:00000000000071c7 .LASF5446
C:\Users\CYMR90~1\AppData\Local\Temp\ccmBQqfl.s:22034  .debug_str:0000000000000fd7 .LASF5447
C:\Users\CYMR90~1\AppData\Local\Temp\ccmBQqfl.s:32239  .debug_str:0000000000029be4 .LASF5448
C:\Users\CYMR90~1\AppData\Local\Temp\ccmBQqfl.s:22670  .debug_str:0000000000003834 .LASF5449
C:\Users\CYMR90~1\AppData\Local\Temp\ccmBQqfl.s:29835  .debug_str:000000000002050c .LASF5450
C:\Users\CYMR90~1\AppData\Local\Temp\ccmBQqfl.s:32815  .debug_str:000000000002bf41 .LASF5451
C:\Users\CYMR90~1\AppData\Local\Temp\ccmBQqfl.s:27761  .debug_str:0000000000017f99 .LASF5452
C:\Users\CYMR90~1\AppData\Local\Temp\ccmBQqfl.s:25474  .debug_str:000000000000ebd2 .LASF5453
C:\Users\CYMR90~1\AppData\Local\Temp\ccmBQqfl.s:22012  .debug_str:0000000000000dfd .LASF5454
C:\Users\CYMR90~1\AppData\Local\Temp\ccmBQqfl.s:25006  .debug_str:000000000000cf02 .LASF5455
C:\Users\CYMR90~1\AppData\Local\Temp\ccmBQqfl.s:26920  .debug_str:00000000000147fb .LASF5456
C:\Users\CYMR90~1\AppData\Local\Temp\ccmBQqfl.s:23746  .debug_str:0000000000007c8c .LASF5457
C:\Users\CYMR90~1\AppData\Local\Temp\ccmBQqfl.s:30095  .debug_str:0000000000021481 .LASF5458
C:\Users\CYMR90~1\AppData\Local\Temp\ccmBQqfl.s:32315  .debug_str:000000000002a043 .LASF5459
C:\Users\CYMR90~1\AppData\Local\Temp\ccmBQqfl.s:22614  .debug_str:00000000000034c6 .LASF5460
C:\Users\CYMR90~1\AppData\Local\Temp\ccmBQqfl.s:24670  .debug_str:000000000000b8a3 .LASF5461
C:\Users\CYMR90~1\AppData\Local\Temp\ccmBQqfl.s:25678  .debug_str:000000000000f839 .LASF5462
C:\Users\CYMR90~1\AppData\Local\Temp\ccmBQqfl.s:32797  .debug_str:000000000002bddd .LASF5463
C:\Users\CYMR90~1\AppData\Local\Temp\ccmBQqfl.s:29627  .debug_str:000000000001f842 .LASF5464
C:\Users\CYMR90~1\AppData\Local\Temp\ccmBQqfl.s:30125  .debug_str:0000000000021627 .LASF5465
C:\Users\CYMR90~1\AppData\Local\Temp\ccmBQqfl.s:31981  .debug_str:0000000000028c49 .LASF5466
C:\Users\CYMR90~1\AppData\Local\Temp\ccmBQqfl.s:27943  .debug_str:0000000000018a59 .LASF5467
C:\Users\CYMR90~1\AppData\Local\Temp\ccmBQqfl.s:29739  .debug_str:000000000001ff38 .LASF5468
C:\Users\CYMR90~1\AppData\Local\Temp\ccmBQqfl.s:24224  .debug_str:0000000000009c08 .LASF5469
C:\Users\CYMR90~1\AppData\Local\Temp\ccmBQqfl.s:21972  .debug_str:0000000000000b96 .LASF5470
C:\Users\CYMR90~1\AppData\Local\Temp\ccmBQqfl.s:28775  .debug_str:000000000001c1bf .LASF5471
C:\Users\CYMR90~1\AppData\Local\Temp\ccmBQqfl.s:32765  .debug_str:000000000002bbab .LASF5472
C:\Users\CYMR90~1\AppData\Local\Temp\ccmBQqfl.s:22872  .debug_str:0000000000004579 .LASF5473
C:\Users\CYMR90~1\AppData\Local\Temp\ccmBQqfl.s:25612  .debug_str:000000000000f43f .LASF5474
C:\Users\CYMR90~1\AppData\Local\Temp\ccmBQqfl.s:30519  .debug_str:0000000000022e3d .LASF5475
C:\Users\CYMR90~1\AppData\Local\Temp\ccmBQqfl.s:29523  .debug_str:000000000001f1f6 .LASF5476
C:\Users\CYMR90~1\AppData\Local\Temp\ccmBQqfl.s:24034  .debug_str:0000000000009065 .LASF5477
C:\Users\CYMR90~1\AppData\Local\Temp\ccmBQqfl.s:22730  .debug_str:0000000000003c3f .LASF5478
C:\Users\CYMR90~1\AppData\Local\Temp\ccmBQqfl.s:28231  .debug_str:0000000000019dc0 .LASF5479
C:\Users\CYMR90~1\AppData\Local\Temp\ccmBQqfl.s:22254  .debug_str:0000000000001e02 .LASF5480
C:\Users\CYMR90~1\AppData\Local\Temp\ccmBQqfl.s:29263  .debug_str:000000000001e1cf .LASF5481
C:\Users\CYMR90~1\AppData\Local\Temp\ccmBQqfl.s:24490  .debug_str:000000000000ac85 .LASF5482
C:\Users\CYMR90~1\AppData\Local\Temp\ccmBQqfl.s:23290  .debug_str:0000000000005ff2 .LASF5483
C:\Users\CYMR90~1\AppData\Local\Temp\ccmBQqfl.s:21852  .debug_str:00000000000003f9 .LASF5484
C:\Users\CYMR90~1\AppData\Local\Temp\ccmBQqfl.s:28975  .debug_str:000000000001ceb2 .LASF5485
C:\Users\CYMR90~1\AppData\Local\Temp\ccmBQqfl.s:28953  .debug_str:000000000001cd52 .LASF5486
C:\Users\CYMR90~1\AppData\Local\Temp\ccmBQqfl.s:33019  .debug_str:000000000002cc7f .LASF5487
C:\Users\CYMR90~1\AppData\Local\Temp\ccmBQqfl.s:27480  .debug_str:0000000000016c22 .LASF5488
C:\Users\CYMR90~1\AppData\Local\Temp\ccmBQqfl.s:29137  .debug_str:000000000001da07 .LASF5489
C:\Users\CYMR90~1\AppData\Local\Temp\ccmBQqfl.s:27412  .debug_str:000000000001674c .LASF5490
C:\Users\CYMR90~1\AppData\Local\Temp\ccmBQqfl.s:21984  .debug_str:0000000000000c4e .LASF5491
C:\Users\CYMR90~1\AppData\Local\Temp\ccmBQqfl.s:23216  .debug_str:0000000000005ba8 .LASF5492
C:\Users\CYMR90~1\AppData\Local\Temp\ccmBQqfl.s:29009  .debug_str:000000000001d0e4 .LASF5493
C:\Users\CYMR90~1\AppData\Local\Temp\ccmBQqfl.s:30175  .debug_str:00000000000218ff .LASF5494
C:\Users\CYMR90~1\AppData\Local\Temp\ccmBQqfl.s:27102  .debug_str:0000000000015433 .LASF5495
C:\Users\CYMR90~1\AppData\Local\Temp\ccmBQqfl.s:29915  .debug_str:0000000000020968 .LASF5496
C:\Users\CYMR90~1\AppData\Local\Temp\ccmBQqfl.s:24694  .debug_str:000000000000ba81 .LASF5497
C:\Users\CYMR90~1\AppData\Local\Temp\ccmBQqfl.s:29937  .debug_str:0000000000020aaf .LASF5498
C:\Users\CYMR90~1\AppData\Local\Temp\ccmBQqfl.s:33171  .debug_str:000000000002d672 .LASF5499
C:\Users\CYMR90~1\AppData\Local\Temp\ccmBQqfl.s:32449  .debug_str:000000000002a7dc .LASF5500
C:\Users\CYMR90~1\AppData\Local\Temp\ccmBQqfl.s:25966  .debug_str:0000000000010b3a .LASF5501
C:\Users\CYMR90~1\AppData\Local\Temp\ccmBQqfl.s:32361  .debug_str:000000000002a2cc .LASF5502
C:\Users\CYMR90~1\AppData\Local\Temp\ccmBQqfl.s:28935  .debug_str:000000000001cb7e .LASF5503
C:\Users\CYMR90~1\AppData\Local\Temp\ccmBQqfl.s:23130  .debug_str:0000000000005639 .LASF5504
C:\Users\CYMR90~1\AppData\Local\Temp\ccmBQqfl.s:25234  .debug_str:000000000000dd51 .LASF5505
C:\Users\CYMR90~1\AppData\Local\Temp\ccmBQqfl.s:25770  .debug_str:000000000000fe5b .LASF5506
C:\Users\CYMR90~1\AppData\Local\Temp\ccmBQqfl.s:24384  .debug_str:000000000000a621 .LASF5507
C:\Users\CYMR90~1\AppData\Local\Temp\ccmBQqfl.s:27180  .debug_str:000000000001589a .LASF5508
C:\Users\CYMR90~1\AppData\Local\Temp\ccmBQqfl.s:25712  .debug_str:000000000000fb03 .LASF5509
C:\Users\CYMR90~1\AppData\Local\Temp\ccmBQqfl.s:28601  .debug_str:000000000001b722 .LASF5510
C:\Users\CYMR90~1\AppData\Local\Temp\ccmBQqfl.s:27266  .debug_str:0000000000015db0 .LASF5511
C:\Users\CYMR90~1\AppData\Local\Temp\ccmBQqfl.s:22416  .debug_str:00000000000027a1 .LASF5512
C:\Users\CYMR90~1\AppData\Local\Temp\ccmBQqfl.s:26952  .debug_str:0000000000014a53 .LASF5513
C:\Users\CYMR90~1\AppData\Local\Temp\ccmBQqfl.s:33049  .debug_str:000000000002ce99 .LASF5514
C:\Users\CYMR90~1\AppData\Local\Temp\ccmBQqfl.s:31001  .debug_str:0000000000024b71 .LASF5515
C:\Users\CYMR90~1\AppData\Local\Temp\ccmBQqfl.s:22170  .debug_str:00000000000018d2 .LASF5516
C:\Users\CYMR90~1\AppData\Local\Temp\ccmBQqfl.s:25826  .debug_str:0000000000010216 .LASF5517
C:\Users\CYMR90~1\AppData\Local\Temp\ccmBQqfl.s:29385  .debug_str:000000000001e98f .LASF5518
C:\Users\CYMR90~1\AppData\Local\Temp\ccmBQqfl.s:31521  .debug_str:0000000000026dcf .LASF5519
C:\Users\CYMR90~1\AppData\Local\Temp\ccmBQqfl.s:28761  .debug_str:000000000001c0be .LASF5520
C:\Users\CYMR90~1\AppData\Local\Temp\ccmBQqfl.s:27729  .debug_str:0000000000017dc3 .LASF5521
C:\Users\CYMR90~1\AppData\Local\Temp\ccmBQqfl.s:27040  .debug_str:0000000000014fe8 .LASF5522
C:\Users\CYMR90~1\AppData\Local\Temp\ccmBQqfl.s:23948  .debug_str:0000000000008aba .LASF5523
C:\Users\CYMR90~1\AppData\Local\Temp\ccmBQqfl.s:28783  .debug_str:000000000001c262 .LASF5524
C:\Users\CYMR90~1\AppData\Local\Temp\ccmBQqfl.s:23700  .debug_str:000000000000797d .LASF5525
C:\Users\CYMR90~1\AppData\Local\Temp\ccmBQqfl.s:24884  .debug_str:000000000000c6df .LASF5526
C:\Users\CYMR90~1\AppData\Local\Temp\ccmBQqfl.s:29203  .debug_str:000000000001de68 .LASF5527
C:\Users\CYMR90~1\AppData\Local\Temp\ccmBQqfl.s:22802  .debug_str:000000000000407f .LASF5528
C:\Users\CYMR90~1\AppData\Local\Temp\ccmBQqfl.s:33109  .debug_str:000000000002d2c1 .LASF5529
C:\Users\CYMR90~1\AppData\Local\Temp\ccmBQqfl.s:27931  .debug_str:00000000000189cb .LASF5530
C:\Users\CYMR90~1\AppData\Local\Temp\ccmBQqfl.s:24488  .debug_str:000000000000ac66 .LASF5531
C:\Users\CYMR90~1\AppData\Local\Temp\ccmBQqfl.s:23982  .debug_str:0000000000008ce9 .LASF5532
C:\Users\CYMR90~1\AppData\Local\Temp\ccmBQqfl.s:31487  .debug_str:0000000000026bb7 .LASF5533
C:\Users\CYMR90~1\AppData\Local\Temp\ccmBQqfl.s:22060  .debug_str:000000000000113a .LASF5534
C:\Users\CYMR90~1\AppData\Local\Temp\ccmBQqfl.s:30315  .debug_str:0000000000022242 .LASF5535
C:\Users\CYMR90~1\AppData\Local\Temp\ccmBQqfl.s:31345  .debug_str:0000000000026313 .LASF5536
C:\Users\CYMR90~1\AppData\Local\Temp\ccmBQqfl.s:26872  .debug_str:000000000001455b .LASF5537
C:\Users\CYMR90~1\AppData\Local\Temp\ccmBQqfl.s:25268  .debug_str:000000000000df52 .LASF5538
C:\Users\CYMR90~1\AppData\Local\Temp\ccmBQqfl.s:28593  .debug_str:000000000001b683 .LASF5539
C:\Users\CYMR90~1\AppData\Local\Temp\ccmBQqfl.s:22378  .debug_str:0000000000002546 .LASF5540
C:\Users\CYMR90~1\AppData\Local\Temp\ccmBQqfl.s:32567  .debug_str:000000000002af0f .LASF5541
C:\Users\CYMR90~1\AppData\Local\Temp\ccmBQqfl.s:23764  .debug_str:0000000000007d8b .LASF5542
C:\Users\CYMR90~1\AppData\Local\Temp\ccmBQqfl.s:32139  .debug_str:000000000002959e .LASF5543
C:\Users\CYMR90~1\AppData\Local\Temp\ccmBQqfl.s:22748  .debug_str:0000000000003d40 .LASF5544
C:\Users\CYMR90~1\AppData\Local\Temp\ccmBQqfl.s:21894  .debug_str:0000000000000659 .LASF5545
C:\Users\CYMR90~1\AppData\Local\Temp\ccmBQqfl.s:27260  .debug_str:0000000000015d3c .LASF5546
C:\Users\CYMR90~1\AppData\Local\Temp\ccmBQqfl.s:31189  .debug_str:00000000000258c4 .LASF5547
C:\Users\CYMR90~1\AppData\Local\Temp\ccmBQqfl.s:23604  .debug_str:0000000000007394 .LASF5548
C:\Users\CYMR90~1\AppData\Local\Temp\ccmBQqfl.s:26144  .debug_str:00000000000115e9 .LASF5549
C:\Users\CYMR90~1\AppData\Local\Temp\ccmBQqfl.s:32665  .debug_str:000000000002b4ec .LASF5550
C:\Users\CYMR90~1\AppData\Local\Temp\ccmBQqfl.s:30213  .debug_str:0000000000021c1c .LASF5551
C:\Users\CYMR90~1\AppData\Local\Temp\ccmBQqfl.s:29501  .debug_str:000000000001f0ba .LASF5552
C:\Users\CYMR90~1\AppData\Local\Temp\ccmBQqfl.s:23588  .debug_str:000000000000726a .LASF5553
C:\Users\CYMR90~1\AppData\Local\Temp\ccmBQqfl.s:30527  .debug_str:0000000000022eb8 .LASF5554
C:\Users\CYMR90~1\AppData\Local\Temp\ccmBQqfl.s:28853  .debug_str:000000000001c6c7 .LASF5555
                           .group:0000000000000000 wm4.0.10abbef32179bc1260444192115bdf5e
                           .group:0000000000000000 wm4.stddef.h.39.144cf5ddcd53cbfdac30259dc1a6c87f
                           .group:0000000000000000 wm4._newlib_version.h.4.bfdf54b0af045d4a71376ae00f63a22c
                           .group:0000000000000000 wm4.newlib.h.18.08a2ecba46890ca2aa56bbe21686e6c3
                           .group:0000000000000000 wm4.ieeefp.h.202.4f2759f5758fd82153cfbf98692f2ced
                           .group:0000000000000000 wm4.features.h.22.fad1cec3bc7ff06488171438dbdcfd02
                           .group:0000000000000000 wm4.config.h.83.13bbc8852bfac55b724c9822481355b5
                           .group:0000000000000000 wm4._ansi.h.31.de524f58584151836e90d8620a16f8e8
                           .group:0000000000000000 wm4.stdio.h.31.7c0e28c411445f3f9c5b11accf882760
                           .group:0000000000000000 wm4._default_types.h.6.959254cf5f09734ea7516c89e8bb21bd
                           .group:0000000000000000 wm4.stddef.h.155.ba788add86a0e365f264484f110c3c29
                           .group:0000000000000000 wm4.cdefs.h.49.39045112216f6a021dbdffe3bf5accce
                           .group:0000000000000000 wm4.stdarg.h.34.3a23a216c0c293b3d2ea2e89281481e6
                           .group:0000000000000000 wm4._types.h.20.dd0d04dca3800a0d2a6129b87f3adbb2
                           .group:0000000000000000 wm4.stddef.h.155.3588ebfdd1e8c7ede80509bb9c3b8009
                           .group:0000000000000000 wm4._types.h.127.34941de1b2539d59d5cac00e0dd27a45
                           .group:0000000000000000 wm4.reent.h.17.e292bf8b0bec6c96e131a54347145a30
                           .group:0000000000000000 wm4.lock.h.2.c0958401bd0ce484d507ee19aacab817
                           .group:0000000000000000 wm4.reent.h.77.dcd6129ff07fe81bd5636db29abe53b2
                           .group:0000000000000000 wm4.types.h.40.8b6acba56cefbb11746718204edc8f5e
                           .group:0000000000000000 wm4._stdint.h.10.c24fa3af3bc1706662bb5593a907e841
                           .group:0000000000000000 wm4._endian.h.18.1bf9649e8e5bbc91042012680270b9ed
                           .group:0000000000000000 wm4.endian.h.9.49f3a4695c1b61e8a0808de3c4a106cb
                           .group:0000000000000000 wm4._timeval.h.32.bec3221fa7a9bb0bdde696c9c57e47d2
                           .group:0000000000000000 wm4.timespec.h.41.d855182eb0e690443ab8651bcedca6e1
                           .group:0000000000000000 wm4.select.h.19.40cd3f2bfc456b193b790c2754690ebf
                           .group:0000000000000000 wm4.types.h.51.5571ec98f267d17d3c670b7a3ba33afa
                           .group:0000000000000000 wm4.sched.h.22.c60982713a5c428609783c78f9c78d95
                           .group:0000000000000000 wm4._pthreadtypes.h.36.fcee9961c35163dde6267ef772ad1972
                           .group:0000000000000000 wm4.stdio.h.2.4aa87247282eca6c8f36f9de33d8df1a
                           .group:0000000000000000 wm4.stdio.h.81.932d0c162786b883f622b8d05c120c78
                           .group:0000000000000000 wm4.gd32vw55x.h.47.379378190858578060a317909b2c8d8a
                           .group:0000000000000000 wm4._intsup.h.10.48bafbb683905c4daa4565a85aeeb264
                           .group:0000000000000000 wm4.stdint.h.23.d53047a68f4a85177f80b422d52785ed
                           .group:0000000000000000 wm4.nmsis_version.h.19.ffa173da8efb17b1050904994d6f500e
                           .group:0000000000000000 wm4.riscv_bits.h.19.ee94eb3d39937793d4cd0a62363e5d00
                           .group:0000000000000000 wm4.riscv_encoding.h.35.f5d37fad7abbab8278b4bb6f1e32fa65
                           .group:0000000000000000 wm4.nmsis_gcc.h.61.5d70d7598ffc79c3c991d847a574cf23
                           .group:0000000000000000 wm4.core_feature_base.h.20.e99d3e75c26a8f3341d35bf20d0e1d20
                           .group:0000000000000000 wm4.core_feature_fpu.h.19.695f2200274659b530cb97cda749ff4f
                           .group:0000000000000000 wm4.core_feature_dsp.h.19.e8f8d7aa42f197807aefedb6584486cd
                           .group:0000000000000000 wm4.core_compatiable.h.19.5b8282d61b1f6889a82895616b730084
                           .group:0000000000000000 wm4.core_feature_eclic.h.19.e0c091d0cbda79e8b3b031b979ebd5a1
                           .group:0000000000000000 wm4.core_feature_timer.h.19.21a5151282de34c37dfa6d84e262aa54
                           .group:0000000000000000 wm4.system_gd32vw55x.h.32.f1fcb1212d387c35ac955b0e96ada468
                           .group:0000000000000000 wm4.gd32vw55x.h.231.3529c650aff38c9372f7e03177fd2c8a
                           .group:0000000000000000 wm4.gd32vw55x_cau.h.41.50579844007a51268a8149adfbc49583
                           .group:0000000000000000 wm4.gd32vw55x_crc.h.37.c58f296814c2300a4b067c08bd88d54e
                           .group:0000000000000000 wm4.gd32vw55x_dbg.h.36.311650c8545549d482ceca8befc5a232
                           .group:0000000000000000 wm4.gd32vw55x_dma.h.36.f4adc751172b2a7b1533dda72e948737
                           .group:0000000000000000 wm4.gd32vw55x_eclic.h.36.0411499f2b2493c67246e32ccae096c1
                           .group:0000000000000000 wm4.gd32vw55x_efuse.h.36.091404cecbab70359dfd93faec5fdb62
                           .group:0000000000000000 wm4.gd32vw55x_exti.h.36.de7508334dd12f1a6a673521a1a835f5
                           .group:0000000000000000 wm4.gd32vw55x_fmc.h.36.a4b0b94c47ffe23a2fa09260c5ed4850
                           .group:0000000000000000 wm4.gd32vw55x_fwdgt.h.36.4846b6900fd24b5bfce4986c9a8ce677
                           .group:0000000000000000 wm4.gd32vw55x_gpio.h.36.adfee1371bb58d3d9043c47bdb25a90f
                           .group:0000000000000000 wm4.gd32vw55x_hau.h.36.f3cbcbd7b67c9e5bdc7a1100b1bf3458
                           .group:0000000000000000 wm4.gd32vw55x_i2c.h.36.3848990933925e084eb427083790c53f
                           .group:0000000000000000 wm4.gd32vw55x_pkcau.h.36.bb2235f4cf4967063a51bfa9aca5ef27
                           .group:0000000000000000 wm4.gd32vw55x_pmu.h.36.4c76091f1415551526d489ccf2c42052
                           .group:0000000000000000 wm4.gd32vw55x_qspi.h.36.2d2c181cfe19b935a9641008fc786613
                           .group:0000000000000000 wm4.gd32vw55x_rcu.h.36.780a8a45c00d563711cceb445027ef47
                           .group:0000000000000000 wm4.gd32vw55x_rtc.h.36.3172855e8715659e080e0eab46fdf175
                           .group:0000000000000000 wm4.gd32vw55x_spi.h.36.9fa1be2b09fb73e4b5886e97f0e96d58
                           .group:0000000000000000 wm4.gd32vw55x_syscfg.h.36.010551f05591f5e34051d2e15df0352b
                           .group:0000000000000000 wm4.gd32vw55x_timer.h.38.2cbee78ea60d47145be361b2d2c55070
                           .group:0000000000000000 wm4.gd32vw55x_trng.h.36.c9e7807af1b1ab68d3bbb54f4ed5cd73
                           .group:0000000000000000 wm4.gd32vw55x_usart.h.36.f5c497cca17945a34f154b0e17017d02
                           .group:0000000000000000 wm4.gd32vw55x_wwdgt.h.36.f7a443b7302efc0e5c335888582ee197
                           .group:0000000000000000 wm4.gd32vw55x_adc.h.42.ae73acec1704ef509ccecb41a875b50e

UNDEFINED SYMBOLS
rcu_periph_reset_enable
rcu_periph_reset_disable
