   1              		.file	"write.c"
   2              		.option nopic
   3              		.attribute arch, "rv32i2p0_m2p0_a2p0_c2p0"
   4              		.attribute unaligned_access, 0
   5              		.attribute stack_align, 16
   6              		.text
   7              	.Ltext0:
   8              		.cfi_sections	.debug_frame
   9              		.section	.text._write,"ax",@progbits
  10              		.align	1
  11              		.globl	_write
  13              	_write:
  14              	.LFB349:
  15              		.file 1 "../Firmware/RISCV/stubs/write.c"
   1:../Firmware/RISCV/stubs/write.c **** /* See LICENSE of license details. */
   2:../Firmware/RISCV/stubs/write.c **** 
   3:../Firmware/RISCV/stubs/write.c **** /* This file refers the RISC-V standard, some adjustments are made according to GigaDevice chips */
   4:../Firmware/RISCV/stubs/write.c **** 
   5:../Firmware/RISCV/stubs/write.c **** #include <stdint.h>
   6:../Firmware/RISCV/stubs/write.c **** #include <string.h>
   7:../Firmware/RISCV/stubs/write.c **** #include <errno.h>
   8:../Firmware/RISCV/stubs/write.c **** 
   9:../Firmware/RISCV/stubs/write.c **** #if   defined (__GNUC__)
  10:../Firmware/RISCV/stubs/write.c **** #include <unistd.h>
  11:../Firmware/RISCV/stubs/write.c **** #include <sys/types.h>
  12:../Firmware/RISCV/stubs/write.c **** #endif
  13:../Firmware/RISCV/stubs/write.c **** 
  14:../Firmware/RISCV/stubs/write.c **** #include "stub.h"
  15:../Firmware/RISCV/stubs/write.c **** #include "gd32vw55x.h"
  16:../Firmware/RISCV/stubs/write.c **** #include "gd32vw553h_eval.h"
  17:../Firmware/RISCV/stubs/write.c **** 
  18:../Firmware/RISCV/stubs/write.c **** //typedef unsigned int size_t;
  19:../Firmware/RISCV/stubs/write.c **** extern int _put_char(int ch) __attribute__((weak));
  20:../Firmware/RISCV/stubs/write.c **** 
  21:../Firmware/RISCV/stubs/write.c **** #if   defined (__ICCRISCV__)
  22:../Firmware/RISCV/stubs/write.c **** size_t __write(int handle, const unsigned char *buf, size_t bufSize)
  23:../Firmware/RISCV/stubs/write.c **** {
  24:../Firmware/RISCV/stubs/write.c ****   size_t nChars = 0;
  25:../Firmware/RISCV/stubs/write.c ****   
  26:../Firmware/RISCV/stubs/write.c ****   if (handle == -1)
  27:../Firmware/RISCV/stubs/write.c ****   {
  28:../Firmware/RISCV/stubs/write.c ****     return 0;
  29:../Firmware/RISCV/stubs/write.c ****   }
  30:../Firmware/RISCV/stubs/write.c ****   
  31:../Firmware/RISCV/stubs/write.c ****   for (; bufSize > 0; --bufSize)
  32:../Firmware/RISCV/stubs/write.c ****   {
  33:../Firmware/RISCV/stubs/write.c ****     _put_char((uint8_t) *buf);
  34:../Firmware/RISCV/stubs/write.c ****     ++buf;
  35:../Firmware/RISCV/stubs/write.c ****     ++nChars;
  36:../Firmware/RISCV/stubs/write.c ****   }
  37:../Firmware/RISCV/stubs/write.c ****   
  38:../Firmware/RISCV/stubs/write.c ****   return nChars;
  39:../Firmware/RISCV/stubs/write.c ****  }
  40:../Firmware/RISCV/stubs/write.c **** 
  41:../Firmware/RISCV/stubs/write.c **** int puts(const char* string) {
  42:../Firmware/RISCV/stubs/write.c ****     return __write(0, (const void *) string, strlen(string));
  43:../Firmware/RISCV/stubs/write.c **** }
  44:../Firmware/RISCV/stubs/write.c ****  
  45:../Firmware/RISCV/stubs/write.c **** #elif defined ( __GNUC__ )
  46:../Firmware/RISCV/stubs/write.c **** ssize_t _write(int fd, const void* ptr, size_t len) {
  16              		.loc 1 46 53
  17              		.cfi_startproc
  18 0000 7971     		addi	sp,sp,-48
  19              		.cfi_def_cfa_offset 48
  20 0002 06D6     		sw	ra,44(sp)
  21 0004 22D4     		sw	s0,40(sp)
  22              		.cfi_offset 1, -4
  23              		.cfi_offset 8, -8
  24 0006 0018     		addi	s0,sp,48
  25              		.cfi_def_cfa 8, 0
  26 0008 232EA4FC 		sw	a0,-36(s0)
  27 000c 232CB4FC 		sw	a1,-40(s0)
  28 0010 232AC4FC 		sw	a2,-44(s0)
  47:../Firmware/RISCV/stubs/write.c ****     const uint8_t * current = (const uint8_t *) ptr;
  29              		.loc 1 47 21
  30 0014 832784FD 		lw	a5,-40(s0)
  31 0018 2324F4FE 		sw	a5,-24(s0)
  32              	.LBB2:
  48:../Firmware/RISCV/stubs/write.c ****     {
  49:../Firmware/RISCV/stubs/write.c ****         for (size_t jj = 0; jj < len; jj++) {
  33              		.loc 1 49 21
  34 001c 232604FE 		sw	zero,-20(s0)
  35              		.loc 1 49 9
  36 0020 89A0     		j	.L2
  37              	.L4:
  50:../Firmware/RISCV/stubs/write.c ****             _put_char(current[jj]);
  38              		.loc 1 50 30
  39 0022 032784FE 		lw	a4,-24(s0)
  40 0026 8327C4FE 		lw	a5,-20(s0)
  41 002a BA97     		add	a5,a4,a5
  42 002c 83C70700 		lbu	a5,0(a5)
  43              		.loc 1 50 13
  44 0030 3E85     		mv	a0,a5
  45 0032 97000000 		call	_put_char
  45      E7800000 
  51:../Firmware/RISCV/stubs/write.c **** 
  52:../Firmware/RISCV/stubs/write.c ****             if (current[jj] == '\n') {
  46              		.loc 1 52 24
  47 003a 032784FE 		lw	a4,-24(s0)
  48 003e 8327C4FE 		lw	a5,-20(s0)
  49 0042 BA97     		add	a5,a4,a5
  50 0044 03C70700 		lbu	a4,0(a5)
  51              		.loc 1 52 16
  52 0048 A947     		li	a5,10
  53 004a 6317F700 		bne	a4,a5,.L3
  53:../Firmware/RISCV/stubs/write.c ****                 _put_char('\r');
  54              		.loc 1 53 17
  55 004e 3545     		li	a0,13
  56 0050 97000000 		call	_put_char
  56      E7800000 
  57              	.L3:
  49:../Firmware/RISCV/stubs/write.c ****             _put_char(current[jj]);
  58              		.loc 1 49 41 discriminator 2
  59 0058 8327C4FE 		lw	a5,-20(s0)
  60 005c 8507     		addi	a5,a5,1
  61 005e 2326F4FE 		sw	a5,-20(s0)
  62              	.L2:
  49:../Firmware/RISCV/stubs/write.c ****             _put_char(current[jj]);
  63              		.loc 1 49 9 discriminator 1
  64 0062 0327C4FE 		lw	a4,-20(s0)
  65 0066 832744FD 		lw	a5,-44(s0)
  66 006a E36CF7FA 		bltu	a4,a5,.L4
  67              	.LBE2:
  54:../Firmware/RISCV/stubs/write.c ****             }
  55:../Firmware/RISCV/stubs/write.c ****         }
  56:../Firmware/RISCV/stubs/write.c ****         return len;
  68              		.loc 1 56 16
  69 006e 832744FD 		lw	a5,-44(s0)
  57:../Firmware/RISCV/stubs/write.c ****     }
  58:../Firmware/RISCV/stubs/write.c **** 
  59:../Firmware/RISCV/stubs/write.c ****     return _stub(EBADF);
  60:../Firmware/RISCV/stubs/write.c **** }
  70              		.loc 1 60 1
  71 0072 3E85     		mv	a0,a5
  72 0074 B250     		lw	ra,44(sp)
  73              		.cfi_restore 1
  74 0076 2254     		lw	s0,40(sp)
  75              		.cfi_restore 8
  76              		.cfi_def_cfa 2, 48
  77 0078 4561     		addi	sp,sp,48
  78              		.cfi_def_cfa_offset 0
  79 007a 8280     		jr	ra
  80              		.cfi_endproc
  81              	.LFE349:
  83              		.section	.text.puts,"ax",@progbits
  84              		.align	1
  85              		.globl	puts
  87              	puts:
  88              	.LFB350:
  61:../Firmware/RISCV/stubs/write.c **** 
  62:../Firmware/RISCV/stubs/write.c **** int puts(const char* string) {
  89              		.loc 1 62 30
  90              		.cfi_startproc
  91 0000 0111     		addi	sp,sp,-32
  92              		.cfi_def_cfa_offset 32
  93 0002 06CE     		sw	ra,28(sp)
  94 0004 22CC     		sw	s0,24(sp)
  95              		.cfi_offset 1, -4
  96              		.cfi_offset 8, -8
  97 0006 0010     		addi	s0,sp,32
  98              		.cfi_def_cfa 8, 0
  99 0008 2326A4FE 		sw	a0,-20(s0)
  63:../Firmware/RISCV/stubs/write.c ****     return _write(0, (const void *) string, strlen(string));
 100              		.loc 1 63 12
 101 000c 0325C4FE 		lw	a0,-20(s0)
 102 0010 97000000 		call	strlen
 102      E7800000 
 103 0018 AA87     		mv	a5,a0
 104 001a 3E86     		mv	a2,a5
 105 001c 8325C4FE 		lw	a1,-20(s0)
 106 0020 0145     		li	a0,0
 107 0022 97000000 		call	_write
 107      E7800000 
 108 002a AA87     		mv	a5,a0
  64:../Firmware/RISCV/stubs/write.c **** }
 109              		.loc 1 64 1
 110 002c 3E85     		mv	a0,a5
 111 002e F240     		lw	ra,28(sp)
 112              		.cfi_restore 1
 113 0030 6244     		lw	s0,24(sp)
 114              		.cfi_restore 8
 115              		.cfi_def_cfa 2, 32
 116 0032 0561     		addi	sp,sp,32
 117              		.cfi_def_cfa_offset 0
 118 0034 8280     		jr	ra
 119              		.cfi_endproc
 120              	.LFE350:
 122              		.section	.text._put_char,"ax",@progbits
 123              		.align	1
 124              		.weak	_put_char
 126              	_put_char:
 127              	.LFB351:
  65:../Firmware/RISCV/stubs/write.c **** #endif
  66:../Firmware/RISCV/stubs/write.c **** 
  67:../Firmware/RISCV/stubs/write.c **** int _put_char(int ch)
  68:../Firmware/RISCV/stubs/write.c **** {
 128              		.loc 1 68 1
 129              		.cfi_startproc
 130 0000 0111     		addi	sp,sp,-32
 131              		.cfi_def_cfa_offset 32
 132 0002 06CE     		sw	ra,28(sp)
 133 0004 22CC     		sw	s0,24(sp)
 134              		.cfi_offset 1, -4
 135              		.cfi_offset 8, -8
 136 0006 0010     		addi	s0,sp,32
 137              		.cfi_def_cfa 8, 0
 138 0008 2326A4FE 		sw	a0,-20(s0)
  69:../Firmware/RISCV/stubs/write.c ****     usart_data_transmit(EVAL_COM0, (uint8_t) ch );
 139              		.loc 1 69 36
 140 000c 8327C4FE 		lw	a5,-20(s0)
 141 0010 93F7F70F 		andi	a5,a5,0xff
 142              		.loc 1 69 5
 143 0014 C207     		slli	a5,a5,16
 144 0016 C183     		srli	a5,a5,16
 145 0018 BE85     		mv	a1,a5
 146 001a B7570040 		li	a5,1073762304
 147 001e 13850780 		addi	a0,a5,-2048
 148 0022 97000000 		call	usart_data_transmit
 148      E7800000 
  70:../Firmware/RISCV/stubs/write.c ****     while (usart_flag_get(EVAL_COM0, USART_FLAG_TBE)== RESET){
 149              		.loc 1 70 11
 150 002a 0100     		nop
 151              	.L9:
 152              		.loc 1 70 12 discriminator 1
 153 002c 93057070 		li	a1,1799
 154 0030 B7570040 		li	a5,1073762304
 155 0034 13850780 		addi	a0,a5,-2048
 156 0038 97000000 		call	usart_flag_get
 156      E7800000 
 157 0040 AA87     		mv	a5,a0
 158              		.loc 1 70 11 discriminator 1
 159 0042 EDD7     		beq	a5,zero,.L9
  71:../Firmware/RISCV/stubs/write.c ****     }
  72:../Firmware/RISCV/stubs/write.c **** 
  73:../Firmware/RISCV/stubs/write.c ****     return ch;
 160              		.loc 1 73 12
 161 0044 8327C4FE 		lw	a5,-20(s0)
  74:../Firmware/RISCV/stubs/write.c **** }
 162              		.loc 1 74 1
 163 0048 3E85     		mv	a0,a5
 164 004a F240     		lw	ra,28(sp)
 165              		.cfi_restore 1
 166 004c 6244     		lw	s0,24(sp)
 167              		.cfi_restore 8
 168              		.cfi_def_cfa 2, 32
 169 004e 0561     		addi	sp,sp,32
 170              		.cfi_def_cfa_offset 0
 171 0050 8280     		jr	ra
 172              		.cfi_endproc
 173              	.LFE351:
 175              		.text
 176              	.Letext0:
 177              		.file 2 "e:\\gd32\\gd32embeddedbuilder_v1.5.2.30854\\tools\\nuclei_riscv_newlibc_prebuilt_win32_20
 178              		.file 3 "e:\\gd32\\gd32embeddedbuilder_v1.5.2.30854\\tools\\nuclei_riscv_newlibc_prebuilt_win32_20
 179              		.file 4 "e:\\gd32\\gd32embeddedbuilder_v1.5.2.30854\\tools\\nuclei_riscv_newlibc_prebuilt_win32_20
 180              		.file 5 "e:\\gd32\\gd32embeddedbuilder_v1.5.2.30854\\tools\\nuclei_riscv_newlibc_prebuilt_win32_20
 181              		.file 6 "e:\\gd32\\gd32embeddedbuilder_v1.5.2.30854\\tools\\nuclei_riscv_newlibc_prebuilt_win32_20
 182              		.file 7 "../Firmware/GD32VW55x_standard_peripheral/gd32vw55x.h"
 183              		.file 8 "../Firmware/GD32VW55x_standard_peripheral/Include/gd32vw55x_usart.h"
 184              		.file 9 "e:\\gd32\\gd32embeddedbuilder_v1.5.2.30854\\tools\\nuclei_riscv_newlibc_prebuilt_win32_20