   1              		.file	"fstat.c"
   2              		.option nopic
   3              		.attribute arch, "rv32i2p0_m2p0_a2p0_c2p0"
   4              		.attribute unaligned_access, 0
   5              		.attribute stack_align, 16
   6              		.text
   7              	.Ltext0:
   8              		.cfi_sections	.debug_frame
   9              		.section	.text._stub,"ax",@progbits
  10              		.align	1
  12              	_stub:
  13              	.LFB0:
  14              		.file 1 "../Firmware/RISCV/stubs/stub.h"
   1:../Firmware/RISCV/stubs/stub.h **** /* See LICENSE of license details. */
   2:../Firmware/RISCV/stubs/stub.h **** #ifndef _NUCLEI_SYS_STUB_H
   3:../Firmware/RISCV/stubs/stub.h **** #define _NUCLEI_SYS_STUB_H
   4:../Firmware/RISCV/stubs/stub.h **** 
   5:../Firmware/RISCV/stubs/stub.h **** #include <stdint.h>
   6:../Firmware/RISCV/stubs/stub.h **** #if   defined (__GNUC__)
   7:../Firmware/RISCV/stubs/stub.h **** #include <unistd.h>
   8:../Firmware/RISCV/stubs/stub.h **** #endif
   9:../Firmware/RISCV/stubs/stub.h **** 
  10:../Firmware/RISCV/stubs/stub.h **** void write_hex(int fd, unsigned long int hex);
  11:../Firmware/RISCV/stubs/stub.h **** 
  12:../Firmware/RISCV/stubs/stub.h **** static inline int _stub(int err)
  13:../Firmware/RISCV/stubs/stub.h **** {
  15              		.loc 1 13 1
  16              		.cfi_startproc
  17 0000 0111     		addi	sp,sp,-32
  18              		.cfi_def_cfa_offset 32
  19 0002 22CE     		sw	s0,28(sp)
  20              		.cfi_offset 8, -4
  21 0004 0010     		addi	s0,sp,32
  22              		.cfi_def_cfa 8, 0
  23 0006 2326A4FE 		sw	a0,-20(s0)
  14:../Firmware/RISCV/stubs/stub.h ****   return -1;
  24              		.loc 1 14 10
  25 000a FD57     		li	a5,-1
  15:../Firmware/RISCV/stubs/stub.h **** }
  26              		.loc 1 15 1
  27 000c 3E85     		mv	a0,a5
  28 000e 7244     		lw	s0,28(sp)
  29              		.cfi_restore 8
  30              		.cfi_def_cfa 2, 32
  31 0010 0561     		addi	sp,sp,32
  32              		.cfi_def_cfa_offset 0
  33 0012 8280     		jr	ra
  34              		.cfi_endproc
  35              	.LFE0:
  37              		.section	.text._fstat,"ax",@progbits
  38              		.align	1
  39              		.globl	_fstat
  41              	_fstat:
  42              	.LFB1:
  43              		.file 2 "../Firmware/RISCV/stubs/fstat.c"
   1:../Firmware/RISCV/stubs/fstat.c **** /* See LICENSE of license details. */
   2:../Firmware/RISCV/stubs/fstat.c **** 
   3:../Firmware/RISCV/stubs/fstat.c **** #include <errno.h>
   4:../Firmware/RISCV/stubs/fstat.c **** #include <unistd.h>
   5:../Firmware/RISCV/stubs/fstat.c **** #include <sys/stat.h>
   6:../Firmware/RISCV/stubs/fstat.c **** #include "stub.h"
   7:../Firmware/RISCV/stubs/fstat.c **** 
   8:../Firmware/RISCV/stubs/fstat.c **** int _fstat(int fd, struct stat* st)
   9:../Firmware/RISCV/stubs/fstat.c **** {
  44              		.loc 2 9 1
  45              		.cfi_startproc
  46 0000 0111     		addi	sp,sp,-32
  47              		.cfi_def_cfa_offset 32
  48 0002 06CE     		sw	ra,28(sp)
  49 0004 22CC     		sw	s0,24(sp)
  50              		.cfi_offset 1, -4
  51              		.cfi_offset 8, -8
  52 0006 0010     		addi	s0,sp,32
  53              		.cfi_def_cfa 8, 0
  54 0008 2326A4FE 		sw	a0,-20(s0)
  55 000c 2324B4FE 		sw	a1,-24(s0)
  10:../Firmware/RISCV/stubs/fstat.c ****   if (isatty(fd)) {
  56              		.loc 2 10 7
  57 0010 0325C4FE 		lw	a0,-20(s0)
  58 0014 97000000 		call	isatty
  58      E7800000 
  59 001c AA87     		mv	a5,a0
  60              		.loc 2 10 6
  61 001e 99C7     		beq	a5,zero,.L4
  11:../Firmware/RISCV/stubs/fstat.c ****     st->st_mode = S_IFCHR;
  62              		.loc 2 11 17
  63 0020 832784FE 		lw	a5,-24(s0)
  64 0024 0967     		li	a4,8192
  65 0026 D8C3     		sw	a4,4(a5)
  12:../Firmware/RISCV/stubs/fstat.c ****     return 0;
  66              		.loc 2 12 12
  67 0028 8147     		li	a5,0
  68 002a 39A0     		j	.L5
  69              	.L4:
  13:../Firmware/RISCV/stubs/fstat.c ****   }
  14:../Firmware/RISCV/stubs/fstat.c **** 
  15:../Firmware/RISCV/stubs/fstat.c ****   return _stub(EBADF);
  70              		.loc 2 15 10
  71 002c 2545     		li	a0,9
  72 002e 97000000 		call	_stub
  72      E7800000 
  73 0036 AA87     		mv	a5,a0
  74              	.L5:
  16:../Firmware/RISCV/stubs/fstat.c **** }
  75              		.loc 2 16 1
  76 0038 3E85     		mv	a0,a5
  77 003a F240     		lw	ra,28(sp)
  78              		.cfi_restore 1
  79 003c 6244     		lw	s0,24(sp)
  80              		.cfi_restore 8
  81              		.cfi_def_cfa 2, 32
  82 003e 0561     		addi	sp,sp,32
  83              		.cfi_def_cfa_offset 0
  84 0040 8280     		jr	ra
  85              		.cfi_endproc
  86              	.LFE1:
  88              		.text
  89              	.Letext0:
  90              		.file 3 "e:\\gd32\\gd32embeddedbuilder_v1.5.2.30854\\tools\\nuclei_riscv_newlibc_prebuilt_win32_20
  91              		.file 4 "e:\\gd32\\gd32embeddedbuilder_v1.5.2.30854\\tools\\nuclei_riscv_newlibc_prebuilt_win32_20
  92              		.file 5 "e:\\gd32\\gd32embeddedbuilder_v1.5.2.30854\\tools\\nuclei_riscv_newlibc_prebuilt_win32_20
  93              		.file 6 "e:\\gd32\\gd32embeddedbuilder_v1.5.2.30854\\tools\\nuclei_riscv_newlibc_prebuilt_win32_20
  94              		.file 7 "e:\\gd32\\gd32embeddedbuilder_v1.5.2.30854\\tools\\nuclei_riscv_newlibc_prebuilt_win32_20
  95              		.file 8 "e:\\gd32\\gd32embeddedbuilder_v1.5.2.30854\\tools\\nuclei_riscv_newlibc_prebuilt_win32_20