   1              		.file	"gd32vw55x_gpio.c"
   2              		.option nopic
   3              		.attribute arch, "rv32i2p0_m2p0_a2p0_c2p0"
   4              		.attribute unaligned_access, 0
   5              		.attribute stack_align, 16
   6              		.text
   7              	.Ltext0:
   8              		.cfi_sections	.debug_frame
   9              		.section	.text.gpio_deinit,"ax",@progbits
  10              		.align	1
  11              		.globl	gpio_deinit
  13              	gpio_deinit:
  14              	.LFB347:
  15              		.file 1 "../Firmware/GD32VW55x_standard_peripheral/Source/gd32vw55x_gpio.c"
   1:../Firmware/GD32VW55x_standard_peripheral/Source/gd32vw55x_gpio.c **** /*!
   2:../Firmware/GD32VW55x_standard_peripheral/Source/gd32vw55x_gpio.c ****     \file    gd32vw55x_gpio.c
   3:../Firmware/GD32VW55x_standard_peripheral/Source/gd32vw55x_gpio.c ****     \brief   GPIO driver
   4:../Firmware/GD32VW55x_standard_peripheral/Source/gd32vw55x_gpio.c **** 
   5:../Firmware/GD32VW55x_standard_peripheral/Source/gd32vw55x_gpio.c ****     \version 2025-01-16, V1.4.0, firmware for GD32VW55x
   6:../Firmware/GD32VW55x_standard_peripheral/Source/gd32vw55x_gpio.c **** */
   7:../Firmware/GD32VW55x_standard_peripheral/Source/gd32vw55x_gpio.c **** 
   8:../Firmware/GD32VW55x_standard_peripheral/Source/gd32vw55x_gpio.c **** /*
   9:../Firmware/GD32VW55x_standard_peripheral/Source/gd32vw55x_gpio.c ****     Copyright (c) 2025, GigaDevice Semiconductor Inc.
  10:../Firmware/GD32VW55x_standard_peripheral/Source/gd32vw55x_gpio.c **** 
  11:../Firmware/GD32VW55x_standard_peripheral/Source/gd32vw55x_gpio.c ****     Redistribution and use in source and binary forms, with or without modification,
  12:../Firmware/GD32VW55x_standard_peripheral/Source/gd32vw55x_gpio.c **** are permitted provided that the following conditions are met:
  13:../Firmware/GD32VW55x_standard_peripheral/Source/gd32vw55x_gpio.c **** 
  14:../Firmware/GD32VW55x_standard_peripheral/Source/gd32vw55x_gpio.c ****     1. Redistributions of source code must retain the above copyright notice, this
  15:../Firmware/GD32VW55x_standard_peripheral/Source/gd32vw55x_gpio.c ****        list of conditions and the following disclaimer.
  16:../Firmware/GD32VW55x_standard_peripheral/Source/gd32vw55x_gpio.c ****     2. Redistributions in binary form must reproduce the above copyright notice,
  17:../Firmware/GD32VW55x_standard_peripheral/Source/gd32vw55x_gpio.c ****        this list of conditions and the following disclaimer in the documentation
  18:../Firmware/GD32VW55x_standard_peripheral/Source/gd32vw55x_gpio.c ****        and/or other materials provided with the distribution.
  19:../Firmware/GD32VW55x_standard_peripheral/Source/gd32vw55x_gpio.c ****     3. Neither the name of the copyright holder nor the names of its contributors
  20:../Firmware/GD32VW55x_standard_peripheral/Source/gd32vw55x_gpio.c ****        may be used to endorse or promote products derived from this software without
  21:../Firmware/GD32VW55x_standard_peripheral/Source/gd32vw55x_gpio.c ****        specific prior written permission.
  22:../Firmware/GD32VW55x_standard_peripheral/Source/gd32vw55x_gpio.c **** 
  23:../Firmware/GD32VW55x_standard_peripheral/Source/gd32vw55x_gpio.c ****     THIS SOFTWARE IS PROVIDED BY THE COPYRIGHT HOLDERS AND CONTRIBUTORS "AS IS"
  24:../Firmware/GD32VW55x_standard_peripheral/Source/gd32vw55x_gpio.c **** AND ANY EXPRESS OR IMPLIED WARRANTIES, INCLUDING, BUT NOT LIMITED TO, THE IMPLIED
  25:../Firmware/GD32VW55x_standard_peripheral/Source/gd32vw55x_gpio.c **** WARRANTIES OF MERCHANTABILITY AND FITNESS FOR A PARTICULAR PURPOSE ARE DISCLAIMED.
  26:../Firmware/GD32VW55x_standard_peripheral/Source/gd32vw55x_gpio.c **** IN NO EVENT SHALL THE COPYRIGHT HOLDER OR CONTRIBUTORS BE LIABLE FOR ANY DIRECT,
  27:../Firmware/GD32VW55x_standard_peripheral/Source/gd32vw55x_gpio.c **** INDIRECT, INCIDENTAL, SPECIAL, EXEMPLARY, OR CONSEQUENTIAL DAMAGES (INCLUDING, BUT
  28:../Firmware/GD32VW55x_standard_peripheral/Source/gd32vw55x_gpio.c **** NOT LIMITED TO, PROCUREMENT OF SUBSTITUTE GOODS OR SERVICES; LOSS OF USE, DATA, OR
  29:../Firmware/GD32VW55x_standard_peripheral/Source/gd32vw55x_gpio.c **** PROFITS; OR BUSINESS INTERRUPTION) HOWEVER CAUSED AND ON ANY THEORY OF LIABILITY,
  30:../Firmware/GD32VW55x_standard_peripheral/Source/gd32vw55x_gpio.c **** WHETHER IN CONTRACT, STRICT LIABILITY, OR TORT (INCLUDING NEGLIGENCE OR OTHERWISE)
  31:../Firmware/GD32VW55x_standard_peripheral/Source/gd32vw55x_gpio.c **** ARISING IN ANY WAY OUT OF THE USE OF THIS SOFTWARE, EVEN IF ADVISED OF THE POSSIBILITY
  32:../Firmware/GD32VW55x_standard_peripheral/Source/gd32vw55x_gpio.c **** OF SUCH DAMAGE.
  33:../Firmware/GD32VW55x_standard_peripheral/Source/gd32vw55x_gpio.c **** */
  34:../Firmware/GD32VW55x_standard_peripheral/Source/gd32vw55x_gpio.c **** 
  35:../Firmware/GD32VW55x_standard_peripheral/Source/gd32vw55x_gpio.c **** #include "gd32vw55x_gpio.h"
  36:../Firmware/GD32VW55x_standard_peripheral/Source/gd32vw55x_gpio.c **** 
  37:../Firmware/GD32VW55x_standard_peripheral/Source/gd32vw55x_gpio.c **** /*!
  38:../Firmware/GD32VW55x_standard_peripheral/Source/gd32vw55x_gpio.c ****     \brief      reset GPIO port
  39:../Firmware/GD32VW55x_standard_peripheral/Source/gd32vw55x_gpio.c ****     \param[in]  gpio_periph: GPIOx(x = A,B,C)
  40:../Firmware/GD32VW55x_standard_peripheral/Source/gd32vw55x_gpio.c ****                 only one parameter can be selected which is shown as below:
  41:../Firmware/GD32VW55x_standard_peripheral/Source/gd32vw55x_gpio.c ****       \arg        GPIOx(x = A,B,C)
  42:../Firmware/GD32VW55x_standard_peripheral/Source/gd32vw55x_gpio.c ****     \param[out] none
  43:../Firmware/GD32VW55x_standard_peripheral/Source/gd32vw55x_gpio.c ****     \retval     none
  44:../Firmware/GD32VW55x_standard_peripheral/Source/gd32vw55x_gpio.c **** */
  45:../Firmware/GD32VW55x_standard_peripheral/Source/gd32vw55x_gpio.c **** void gpio_deinit(uint32_t gpio_periph)
  46:../Firmware/GD32VW55x_standard_peripheral/Source/gd32vw55x_gpio.c **** {
  16              		.loc 1 46 1
  17              		.cfi_startproc
  18 0000 0111     		addi	sp,sp,-32
  19              		.cfi_def_cfa_offset 32
  20 0002 06CE     		sw	ra,28(sp)
  21 0004 22CC     		sw	s0,24(sp)
  22              		.cfi_offset 1, -4
  23              		.cfi_offset 8, -8
  24 0006 0010     		addi	s0,sp,32
  25              		.cfi_def_cfa 8, 0
  26 0008 2326A4FE 		sw	a0,-20(s0)
  47:../Firmware/GD32VW55x_standard_peripheral/Source/gd32vw55x_gpio.c ****     switch(gpio_periph) {
  27              		.loc 1 47 5
  28 000c 0327C4FE 		lw	a4,-20(s0)
  29 0010 B7170240 		li	a5,1073876992
  30 0014 93870780 		addi	a5,a5,-2048
  31 0018 6303F706 		beq	a4,a5,.L2
  32 001c 0327C4FE 		lw	a4,-20(s0)
  33 0020 B7170240 		li	a5,1073876992
  34 0024 93870780 		addi	a5,a5,-2048
  35 0028 63E8E706 		bgtu	a4,a5,.L7
  36 002c 0327C4FE 		lw	a4,-20(s0)
  37 0030 B7070240 		li	a5,1073872896
  38 0034 630BF700 		beq	a4,a5,.L4
  39 0038 0327C4FE 		lw	a4,-20(s0)
  40 003c B7070240 		li	a5,1073872896
  41 0040 93870740 		addi	a5,a5,1024
  42 0044 6300F702 		beq	a4,a5,.L5
  48:../Firmware/GD32VW55x_standard_peripheral/Source/gd32vw55x_gpio.c ****     case GPIOA:
  49:../Firmware/GD32VW55x_standard_peripheral/Source/gd32vw55x_gpio.c ****         /* reset GPIOA */
  50:../Firmware/GD32VW55x_standard_peripheral/Source/gd32vw55x_gpio.c ****         rcu_periph_reset_enable(RCU_GPIOARST);
  51:../Firmware/GD32VW55x_standard_peripheral/Source/gd32vw55x_gpio.c ****         rcu_periph_reset_disable(RCU_GPIOARST);
  52:../Firmware/GD32VW55x_standard_peripheral/Source/gd32vw55x_gpio.c ****         break;
  53:../Firmware/GD32VW55x_standard_peripheral/Source/gd32vw55x_gpio.c ****     case GPIOB:
  54:../Firmware/GD32VW55x_standard_peripheral/Source/gd32vw55x_gpio.c ****         /* reset GPIOB */
  55:../Firmware/GD32VW55x_standard_peripheral/Source/gd32vw55x_gpio.c ****         rcu_periph_reset_enable(RCU_GPIOBRST);
  56:../Firmware/GD32VW55x_standard_peripheral/Source/gd32vw55x_gpio.c ****         rcu_periph_reset_disable(RCU_GPIOBRST);
  57:../Firmware/GD32VW55x_standard_peripheral/Source/gd32vw55x_gpio.c ****         break;
  58:../Firmware/GD32VW55x_standard_peripheral/Source/gd32vw55x_gpio.c ****     case GPIOC:
  59:../Firmware/GD32VW55x_standard_peripheral/Source/gd32vw55x_gpio.c ****         /* reset GPIOC */
  60:../Firmware/GD32VW55x_standard_peripheral/Source/gd32vw55x_gpio.c ****         rcu_periph_reset_enable(RCU_GPIOCRST);
  61:../Firmware/GD32VW55x_standard_peripheral/Source/gd32vw55x_gpio.c ****         rcu_periph_reset_disable(RCU_GPIOCRST);
  62:../Firmware/GD32VW55x_standard_peripheral/Source/gd32vw55x_gpio.c ****         break;
  63:../Firmware/GD32VW55x_standard_peripheral/Source/gd32vw55x_gpio.c ****     default:
  64:../Firmware/GD32VW55x_standard_peripheral/Source/gd32vw55x_gpio.c ****         break;
  43              		.loc 1 64 9
  44 0048 81A8     		j	.L7
  45              	.L4:
  50:../Firmware/GD32VW55x_standard_peripheral/Source/gd32vw55x_gpio.c ****         rcu_periph_reset_disable(RCU_GPIOARST);
  46              		.loc 1 50 9
  47 004a 13050040 		li	a0,1024
  48 004e 97000000 		call	rcu_periph_reset_enable
  48      E7800000 
  51:../Firmware/GD32VW55x_standard_peripheral/Source/gd32vw55x_gpio.c ****         break;
  49              		.loc 1 51 9
  50 0056 13050040 		li	a0,1024
  51 005a 97000000 		call	rcu_periph_reset_disable
  51      E7800000 
  52:../Firmware/GD32VW55x_standard_peripheral/Source/gd32vw55x_gpio.c ****     case GPIOB:
  52              		.loc 1 52 9
  53 0062 25A8     		j	.L6
  54              	.L5:
  55:../Firmware/GD32VW55x_standard_peripheral/Source/gd32vw55x_gpio.c ****         rcu_periph_reset_disable(RCU_GPIOBRST);
  55              		.loc 1 55 9
  56 0064 13051040 		li	a0,1025
  57 0068 97000000 		call	rcu_periph_reset_enable
  57      E7800000 
  56:../Firmware/GD32VW55x_standard_peripheral/Source/gd32vw55x_gpio.c ****         break;
  58              		.loc 1 56 9
  59 0070 13051040 		li	a0,1025
  60 0074 97000000 		call	rcu_periph_reset_disable
  60      E7800000 
  57:../Firmware/GD32VW55x_standard_peripheral/Source/gd32vw55x_gpio.c ****     case GPIOC:
  61              		.loc 1 57 9
  62 007c 39A8     		j	.L6
  63              	.L2:
  60:../Firmware/GD32VW55x_standard_peripheral/Source/gd32vw55x_gpio.c ****         rcu_periph_reset_disable(RCU_GPIOCRST);
  64              		.loc 1 60 9
  65 007e 13052040 		li	a0,1026
  66 0082 97000000 		call	rcu_periph_reset_enable
  66      E7800000 
  61:../Firmware/GD32VW55x_standard_peripheral/Source/gd32vw55x_gpio.c ****         break;
  67              		.loc 1 61 9
  68 008a 13052040 		li	a0,1026
  69 008e 97000000 		call	rcu_periph_reset_disable
  69      E7800000 
  62:../Firmware/GD32VW55x_standard_peripheral/Source/gd32vw55x_gpio.c ****     default:
  70              		.loc 1 62 9
  71 0096 11A0     		j	.L6
  72              	.L7:
  73              		.loc 1 64 9
  74 0098 0100     		nop
  75              	.L6:
  65:../Firmware/GD32VW55x_standard_peripheral/Source/gd32vw55x_gpio.c ****     }
  66:../Firmware/GD32VW55x_standard_peripheral/Source/gd32vw55x_gpio.c **** }
  76              		.loc 1 66 1
  77 009a 0100     		nop
  78 009c F240     		lw	ra,28(sp)
  79              		.cfi_restore 1
  80 009e 6244     		lw	s0,24(sp)
  81              		.cfi_restore 8
  82              		.cfi_def_cfa 2, 32
  83 00a0 0561     		addi	sp,sp,32
  84              		.cfi_def_cfa_offset 0
  85 00a2 8280     		jr	ra
  86              		.cfi_endproc
  87              	.LFE347:
  89              		.section	.text.gpio_mode_set,"ax",@progbits
  90              		.align	1
  91              		.globl	gpio_mode_set
  93              	gpio_mode_set:
  94              	.LFB348:
  67:../Firmware/GD32VW55x_standard_peripheral/Source/gd32vw55x_gpio.c **** 
  68:../Firmware/GD32VW55x_standard_peripheral/Source/gd32vw55x_gpio.c **** /*!
  69:../Firmware/GD32VW55x_standard_peripheral/Source/gd32vw55x_gpio.c ****     \brief      set GPIO mode
  70:../Firmware/GD32VW55x_standard_peripheral/Source/gd32vw55x_gpio.c ****     \param[in]  gpio_periph: GPIOx(x = A,B,C)
  71:../Firmware/GD32VW55x_standard_peripheral/Source/gd32vw55x_gpio.c ****                 only one parameter can be selected which is shown as below:
  72:../Firmware/GD32VW55x_standard_peripheral/Source/gd32vw55x_gpio.c ****       \arg        GPIOx(x = A,B,C)
  73:../Firmware/GD32VW55x_standard_peripheral/Source/gd32vw55x_gpio.c ****     \param[in]  mode: gpio pin mode
  74:../Firmware/GD32VW55x_standard_peripheral/Source/gd32vw55x_gpio.c ****                 only one parameter can be selected which is shown as below:
  75:../Firmware/GD32VW55x_standard_peripheral/Source/gd32vw55x_gpio.c ****       \arg        GPIO_MODE_INPUT: input mode
  76:../Firmware/GD32VW55x_standard_peripheral/Source/gd32vw55x_gpio.c ****       \arg        GPIO_MODE_OUTPUT: output mode
  77:../Firmware/GD32VW55x_standard_peripheral/Source/gd32vw55x_gpio.c ****       \arg        GPIO_MODE_AF: alternate function mode
  78:../Firmware/GD32VW55x_standard_peripheral/Source/gd32vw55x_gpio.c ****       \arg        GPIO_MODE_ANALOG: analog mode
  79:../Firmware/GD32VW55x_standard_peripheral/Source/gd32vw55x_gpio.c ****     \param[in]  pull_up_down: gpio pin with pull-up or pull-down resistor
  80:../Firmware/GD32VW55x_standard_peripheral/Source/gd32vw55x_gpio.c ****                 only one parameter can be selected which is shown as below:
  81:../Firmware/GD32VW55x_standard_peripheral/Source/gd32vw55x_gpio.c ****       \arg        GPIO_PUPD_NONE: floating mode, no pull-up and pull-down resistors
  82:../Firmware/GD32VW55x_standard_peripheral/Source/gd32vw55x_gpio.c ****       \arg        GPIO_PUPD_PULLUP: with pull-up resistor
  83:../Firmware/GD32VW55x_standard_peripheral/Source/gd32vw55x_gpio.c ****       \arg        GPIO_PUPD_PULLDOWN:with pull-down resistor
  84:../Firmware/GD32VW55x_standard_peripheral/Source/gd32vw55x_gpio.c ****     \param[in]  pin: GPIO pin
  85:../Firmware/GD32VW55x_standard_peripheral/Source/gd32vw55x_gpio.c ****                 one or more parameters can be selected which are shown as below:
  86:../Firmware/GD32VW55x_standard_peripheral/Source/gd32vw55x_gpio.c ****       \arg        GPIO_PIN_x(x=0..15), GPIO_PIN_ALL
  87:../Firmware/GD32VW55x_standard_peripheral/Source/gd32vw55x_gpio.c ****     \param[out] none
  88:../Firmware/GD32VW55x_standard_peripheral/Source/gd32vw55x_gpio.c ****     \retval     none
  89:../Firmware/GD32VW55x_standard_peripheral/Source/gd32vw55x_gpio.c **** */
  90:../Firmware/GD32VW55x_standard_peripheral/Source/gd32vw55x_gpio.c **** void gpio_mode_set(uint32_t gpio_periph, uint32_t mode, uint32_t pull_up_down, uint32_t pin)
  91:../Firmware/GD32VW55x_standard_peripheral/Source/gd32vw55x_gpio.c **** {
  95              		.loc 1 91 1
  96              		.cfi_startproc
  97 0000 7971     		addi	sp,sp,-48
  98              		.cfi_def_cfa_offset 48
  99 0002 22D6     		sw	s0,44(sp)
 100              		.cfi_offset 8, -4
 101 0004 0018     		addi	s0,sp,48
 102              		.cfi_def_cfa 8, 0
 103 0006 232EA4FC 		sw	a0,-36(s0)
 104 000a 232CB4FC 		sw	a1,-40(s0)
 105 000e 232AC4FC 		sw	a2,-44(s0)
 106 0012 2328D4FC 		sw	a3,-48(s0)
  92:../Firmware/GD32VW55x_standard_peripheral/Source/gd32vw55x_gpio.c ****     uint16_t i;
  93:../Firmware/GD32VW55x_standard_peripheral/Source/gd32vw55x_gpio.c ****     uint32_t ctl, pupd;
  94:../Firmware/GD32VW55x_standard_peripheral/Source/gd32vw55x_gpio.c **** 
  95:../Firmware/GD32VW55x_standard_peripheral/Source/gd32vw55x_gpio.c ****     ctl = GPIO_CTL(gpio_periph);
 107              		.loc 1 95 11
 108 0016 8327C4FD 		lw	a5,-36(s0)
 109              		.loc 1 95 9
 110 001a 9C43     		lw	a5,0(a5)
 111 001c 2324F4FE 		sw	a5,-24(s0)
  96:../Firmware/GD32VW55x_standard_peripheral/Source/gd32vw55x_gpio.c ****     pupd = GPIO_PUD(gpio_periph);
 112              		.loc 1 96 12
 113 0020 8327C4FD 		lw	a5,-36(s0)
 114 0024 B107     		addi	a5,a5,12
 115              		.loc 1 96 10
 116 0026 9C43     		lw	a5,0(a5)
 117 0028 2322F4FE 		sw	a5,-28(s0)
  97:../Firmware/GD32VW55x_standard_peripheral/Source/gd32vw55x_gpio.c **** 
  98:../Firmware/GD32VW55x_standard_peripheral/Source/gd32vw55x_gpio.c ****     for(i = 0U; i < 16U; i++) {
 118              		.loc 1 98 11
 119 002c 231704FE 		sh	zero,-18(s0)
 120              		.loc 1 98 5
 121 0030 49A0     		j	.L9
 122              	.L11:
  99:../Firmware/GD32VW55x_standard_peripheral/Source/gd32vw55x_gpio.c ****         if((1U << i) & pin) {
 123              		.loc 1 99 16
 124 0032 8357E4FE 		lhu	a5,-18(s0)
 125 0036 0547     		li	a4,1
 126 0038 3317F700 		sll	a4,a4,a5
 127              		.loc 1 99 22
 128 003c 832704FD 		lw	a5,-48(s0)
 129 0040 F98F     		and	a5,a4,a5
 130              		.loc 1 99 11
 131 0042 BDC3     		beq	a5,zero,.L10
 100:../Firmware/GD32VW55x_standard_peripheral/Source/gd32vw55x_gpio.c ****             /* clear the specified pin mode bits */
 101:../Firmware/GD32VW55x_standard_peripheral/Source/gd32vw55x_gpio.c ****             ctl &= ~GPIO_MODE_MASK(i);
 132              		.loc 1 101 21
 133 0044 8357E4FE 		lhu	a5,-18(s0)
 134 0048 8607     		slli	a5,a5,1
 135 004a 0D47     		li	a4,3
 136 004c B317F700 		sll	a5,a4,a5
 137              		.loc 1 101 20
 138 0050 93C7F7FF 		not	a5,a5
 139              		.loc 1 101 17
 140 0054 032784FE 		lw	a4,-24(s0)
 141 0058 F98F     		and	a5,a4,a5
 142 005a 2324F4FE 		sw	a5,-24(s0)
 102:../Firmware/GD32VW55x_standard_peripheral/Source/gd32vw55x_gpio.c ****             /* set the specified pin mode bits */
 103:../Firmware/GD32VW55x_standard_peripheral/Source/gd32vw55x_gpio.c ****             ctl |= GPIO_MODE_SET(i, mode);
 143              		.loc 1 103 20
 144 005e 8357E4FE 		lhu	a5,-18(s0)
 145 0062 8607     		slli	a5,a5,1
 146 0064 032784FD 		lw	a4,-40(s0)
 147 0068 B317F700 		sll	a5,a4,a5
 148              		.loc 1 103 17
 149 006c 032784FE 		lw	a4,-24(s0)
 150 0070 D98F     		or	a5,a4,a5
 151 0072 2324F4FE 		sw	a5,-24(s0)
 104:../Firmware/GD32VW55x_standard_peripheral/Source/gd32vw55x_gpio.c **** 
 105:../Firmware/GD32VW55x_standard_peripheral/Source/gd32vw55x_gpio.c ****             /* clear the specified pin pupd bits */
 106:../Firmware/GD32VW55x_standard_peripheral/Source/gd32vw55x_gpio.c ****             pupd &= ~GPIO_PUPD_MASK(i);
 152              		.loc 1 106 22
 153 0076 8357E4FE 		lhu	a5,-18(s0)
 154 007a 8607     		slli	a5,a5,1
 155 007c 0D47     		li	a4,3
 156 007e B317F700 		sll	a5,a4,a5
 157              		.loc 1 106 21
 158 0082 93C7F7FF 		not	a5,a5
 159              		.loc 1 106 18
 160 0086 032744FE 		lw	a4,-28(s0)
 161 008a F98F     		and	a5,a4,a5
 162 008c 2322F4FE 		sw	a5,-28(s0)
 107:../Firmware/GD32VW55x_standard_peripheral/Source/gd32vw55x_gpio.c ****             /* set the specified pin pupd bits */
 108:../Firmware/GD32VW55x_standard_peripheral/Source/gd32vw55x_gpio.c ****             pupd |= GPIO_PUPD_SET(i, pull_up_down);
 163              		.loc 1 108 21
 164 0090 8357E4FE 		lhu	a5,-18(s0)
 165 0094 8607     		slli	a5,a5,1
 166 0096 032744FD 		lw	a4,-44(s0)
 167 009a B317F700 		sll	a5,a4,a5
 168              		.loc 1 108 18
 169 009e 032744FE 		lw	a4,-28(s0)
 170 00a2 D98F     		or	a5,a4,a5
 171 00a4 2322F4FE 		sw	a5,-28(s0)
 172              	.L10:
  98:../Firmware/GD32VW55x_standard_peripheral/Source/gd32vw55x_gpio.c ****         if((1U << i) & pin) {
 173              		.loc 1 98 27 discriminator 2
 174 00a8 8357E4FE 		lhu	a5,-18(s0)
 175 00ac 8507     		addi	a5,a5,1
 176 00ae 2317F4FE 		sh	a5,-18(s0)
 177              	.L9:
  98:../Firmware/GD32VW55x_standard_peripheral/Source/gd32vw55x_gpio.c ****         if((1U << i) & pin) {
 178              		.loc 1 98 5 discriminator 1
 179 00b2 0357E4FE 		lhu	a4,-18(s0)
 180 00b6 BD47     		li	a5,15
 181 00b8 E3FDE7F6 		bleu	a4,a5,.L11
 109:../Firmware/GD32VW55x_standard_peripheral/Source/gd32vw55x_gpio.c ****         }
 110:../Firmware/GD32VW55x_standard_peripheral/Source/gd32vw55x_gpio.c ****     }
 111:../Firmware/GD32VW55x_standard_peripheral/Source/gd32vw55x_gpio.c **** 
 112:../Firmware/GD32VW55x_standard_peripheral/Source/gd32vw55x_gpio.c ****     GPIO_CTL(gpio_periph) = ctl;
 182              		.loc 1 112 5
 183 00bc 8327C4FD 		lw	a5,-36(s0)
 184              		.loc 1 112 27
 185 00c0 032784FE 		lw	a4,-24(s0)
 186 00c4 98C3     		sw	a4,0(a5)
 113:../Firmware/GD32VW55x_standard_peripheral/Source/gd32vw55x_gpio.c ****     GPIO_PUD(gpio_periph) = pupd;
 187              		.loc 1 113 5
 188 00c6 8327C4FD 		lw	a5,-36(s0)
 189 00ca B107     		addi	a5,a5,12
 190 00cc 3E87     		mv	a4,a5
 191              		.loc 1 113 27
 192 00ce 832744FE 		lw	a5,-28(s0)
 193 00d2 1CC3     		sw	a5,0(a4)
 114:../Firmware/GD32VW55x_standard_peripheral/Source/gd32vw55x_gpio.c **** }
 194              		.loc 1 114 1
 195 00d4 0100     		nop
 196 00d6 3254     		lw	s0,44(sp)
 197              		.cfi_restore 8
 198              		.cfi_def_cfa 2, 48
 199 00d8 4561     		addi	sp,sp,48
 200              		.cfi_def_cfa_offset 0
 201 00da 8280     		jr	ra
 202              		.cfi_endproc
 203              	.LFE348:
 205              		.section	.text.gpio_output_options_set,"ax",@progbits
 206              		.align	1
 207              		.globl	gpio_output_options_set
 209              	gpio_output_options_set:
 210              	.LFB349:
 115:../Firmware/GD32VW55x_standard_peripheral/Source/gd32vw55x_gpio.c **** 
 116:../Firmware/GD32VW55x_standard_peripheral/Source/gd32vw55x_gpio.c **** /*!
 117:../Firmware/GD32VW55x_standard_peripheral/Source/gd32vw55x_gpio.c ****     \brief      set GPIO output type and speed
 118:../Firmware/GD32VW55x_standard_peripheral/Source/gd32vw55x_gpio.c ****     \param[in]  gpio_periph: GPIOx(x = A,B,C)
 119:../Firmware/GD32VW55x_standard_peripheral/Source/gd32vw55x_gpio.c ****                 only one parameter can be selected which is shown as below:
 120:../Firmware/GD32VW55x_standard_peripheral/Source/gd32vw55x_gpio.c ****       \arg        GPIOx(x = A,B,C)
 121:../Firmware/GD32VW55x_standard_peripheral/Source/gd32vw55x_gpio.c ****     \param[in]  otype: gpio pin output mode
 122:../Firmware/GD32VW55x_standard_peripheral/Source/gd32vw55x_gpio.c ****                 only one parameter can be selected which is shown as below:
 123:../Firmware/GD32VW55x_standard_peripheral/Source/gd32vw55x_gpio.c ****       \arg        GPIO_OTYPE_PP: push pull mode
 124:../Firmware/GD32VW55x_standard_peripheral/Source/gd32vw55x_gpio.c ****       \arg        GPIO_OTYPE_OD: open drain mode
 125:../Firmware/GD32VW55x_standard_peripheral/Source/gd32vw55x_gpio.c ****     \param[in]  speed: gpio pin output max speed
 126:../Firmware/GD32VW55x_standard_peripheral/Source/gd32vw55x_gpio.c ****                 only one parameter can be selected which is shown as below:
 127:../Firmware/GD32VW55x_standard_peripheral/Source/gd32vw55x_gpio.c ****       \arg        GPIO_OSPEED_2MHZ: output max speed 2MHz
 128:../Firmware/GD32VW55x_standard_peripheral/Source/gd32vw55x_gpio.c ****       \arg        GPIO_OSPEED_10MHZ: output max speed 10MHz
 129:../Firmware/GD32VW55x_standard_peripheral/Source/gd32vw55x_gpio.c ****       \arg        GPIO_OSPEED_25MHZ: output max speed 25MHz
 130:../Firmware/GD32VW55x_standard_peripheral/Source/gd32vw55x_gpio.c ****       \arg        GPIO_OSPEED_MAX: output max speed
 131:../Firmware/GD32VW55x_standard_peripheral/Source/gd32vw55x_gpio.c ****     \param[in]  pin: GPIO pin
 132:../Firmware/GD32VW55x_standard_peripheral/Source/gd32vw55x_gpio.c ****                 one or more parameters can be selected which are shown as below:
 133:../Firmware/GD32VW55x_standard_peripheral/Source/gd32vw55x_gpio.c ****       \arg        GPIO_PIN_x(x=0..15), GPIO_PIN_ALL
 134:../Firmware/GD32VW55x_standard_peripheral/Source/gd32vw55x_gpio.c ****     \param[out] none
 135:../Firmware/GD32VW55x_standard_peripheral/Source/gd32vw55x_gpio.c ****     \retval     none
 136:../Firmware/GD32VW55x_standard_peripheral/Source/gd32vw55x_gpio.c **** */
 137:../Firmware/GD32VW55x_standard_peripheral/Source/gd32vw55x_gpio.c **** void gpio_output_options_set(uint32_t gpio_periph, uint8_t otype, uint32_t speed, uint32_t pin)
 138:../Firmware/GD32VW55x_standard_peripheral/Source/gd32vw55x_gpio.c **** {
 211              		.loc 1 138 1
 212              		.cfi_startproc
 213 0000 7971     		addi	sp,sp,-48
 214              		.cfi_def_cfa_offset 48
 215 0002 22D6     		sw	s0,44(sp)
 216              		.cfi_offset 8, -4
 217 0004 0018     		addi	s0,sp,48
 218              		.cfi_def_cfa 8, 0
 219 0006 232EA4FC 		sw	a0,-36(s0)
 220 000a AE87     		mv	a5,a1
 221 000c 232AC4FC 		sw	a2,-44(s0)
 222 0010 2328D4FC 		sw	a3,-48(s0)
 223 0014 A30DF4FC 		sb	a5,-37(s0)
 139:../Firmware/GD32VW55x_standard_peripheral/Source/gd32vw55x_gpio.c ****     uint16_t i;
 140:../Firmware/GD32VW55x_standard_peripheral/Source/gd32vw55x_gpio.c ****     uint32_t ospeed;
 141:../Firmware/GD32VW55x_standard_peripheral/Source/gd32vw55x_gpio.c **** 
 142:../Firmware/GD32VW55x_standard_peripheral/Source/gd32vw55x_gpio.c ****     if(GPIO_OTYPE_OD == otype) {
 224              		.loc 1 142 7
 225 0018 0347B4FD 		lbu	a4,-37(s0)
 226 001c 8547     		li	a5,1
 227 001e 631FF700 		bne	a4,a5,.L13
 143:../Firmware/GD32VW55x_standard_peripheral/Source/gd32vw55x_gpio.c ****         GPIO_OMODE(gpio_periph) |= (uint32_t)pin;
 228              		.loc 1 143 33
 229 0022 8327C4FD 		lw	a5,-36(s0)
 230 0026 9107     		addi	a5,a5,4
 231 0028 9843     		lw	a4,0(a5)
 232 002a 8327C4FD 		lw	a5,-36(s0)
 233 002e 9107     		addi	a5,a5,4
 234 0030 BE86     		mv	a3,a5
 235 0032 832704FD 		lw	a5,-48(s0)
 236 0036 D98F     		or	a5,a4,a5
 237 0038 9CC2     		sw	a5,0(a3)
 238 003a 31A8     		j	.L14
 239              	.L13:
 144:../Firmware/GD32VW55x_standard_peripheral/Source/gd32vw55x_gpio.c ****     } else {
 145:../Firmware/GD32VW55x_standard_peripheral/Source/gd32vw55x_gpio.c ****         GPIO_OMODE(gpio_periph) &= (uint32_t)(~pin);
 240              		.loc 1 145 33
 241 003c 8327C4FD 		lw	a5,-36(s0)
 242 0040 9107     		addi	a5,a5,4
 243 0042 9843     		lw	a4,0(a5)
 244              		.loc 1 145 47
 245 0044 832704FD 		lw	a5,-48(s0)
 246 0048 93C7F7FF 		not	a5,a5
 247              		.loc 1 145 33
 248 004c 8326C4FD 		lw	a3,-36(s0)
 249 0050 9106     		addi	a3,a3,4
 250 0052 F98F     		and	a5,a4,a5
 251 0054 9CC2     		sw	a5,0(a3)
 252              	.L14:
 146:../Firmware/GD32VW55x_standard_peripheral/Source/gd32vw55x_gpio.c ****     }
 147:../Firmware/GD32VW55x_standard_peripheral/Source/gd32vw55x_gpio.c **** 
 148:../Firmware/GD32VW55x_standard_peripheral/Source/gd32vw55x_gpio.c ****     /* get the specified pin output speed bits value */
 149:../Firmware/GD32VW55x_standard_peripheral/Source/gd32vw55x_gpio.c ****     ospeed = GPIO_OSPD(gpio_periph);
 253              		.loc 1 149 14
 254 0056 8327C4FD 		lw	a5,-36(s0)
 255 005a A107     		addi	a5,a5,8
 256              		.loc 1 149 12
 257 005c 9C43     		lw	a5,0(a5)
 258 005e 2324F4FE 		sw	a5,-24(s0)
 150:../Firmware/GD32VW55x_standard_peripheral/Source/gd32vw55x_gpio.c **** 
 151:../Firmware/GD32VW55x_standard_peripheral/Source/gd32vw55x_gpio.c ****     for(i = 0U; i < 16U; i++) {
 259              		.loc 1 151 11
 260 0062 231704FE 		sh	zero,-18(s0)
 261              		.loc 1 151 5
 262 0066 81A8     		j	.L15
 263              	.L17:
 152:../Firmware/GD32VW55x_standard_peripheral/Source/gd32vw55x_gpio.c ****         if((1U << i) & pin) {
 264              		.loc 1 152 16
 265 0068 8357E4FE 		lhu	a5,-18(s0)
 266 006c 0547     		li	a4,1
 267 006e 3317F700 		sll	a4,a4,a5
 268              		.loc 1 152 22
 269 0072 832704FD 		lw	a5,-48(s0)
 270 0076 F98F     		and	a5,a4,a5
 271              		.loc 1 152 11
 272 0078 95CB     		beq	a5,zero,.L16
 153:../Firmware/GD32VW55x_standard_peripheral/Source/gd32vw55x_gpio.c ****             /* clear the specified pin output speed bits */
 154:../Firmware/GD32VW55x_standard_peripheral/Source/gd32vw55x_gpio.c ****             ospeed &= ~GPIO_OSPEED_MASK(i);
 273              		.loc 1 154 24
 274 007a 8357E4FE 		lhu	a5,-18(s0)
 275 007e 8607     		slli	a5,a5,1
 276 0080 0D47     		li	a4,3
 277 0082 B317F700 		sll	a5,a4,a5
 278              		.loc 1 154 23
 279 0086 93C7F7FF 		not	a5,a5
 280              		.loc 1 154 20
 281 008a 032784FE 		lw	a4,-24(s0)
 282 008e F98F     		and	a5,a4,a5
 283 0090 2324F4FE 		sw	a5,-24(s0)
 155:../Firmware/GD32VW55x_standard_peripheral/Source/gd32vw55x_gpio.c ****             /* set the specified pin output speed bits */
 156:../Firmware/GD32VW55x_standard_peripheral/Source/gd32vw55x_gpio.c ****             ospeed |= GPIO_OSPEED_SET(i, speed);
 284              		.loc 1 156 23
 285 0094 8357E4FE 		lhu	a5,-18(s0)
 286 0098 8607     		slli	a5,a5,1
 287 009a 032744FD 		lw	a4,-44(s0)
 288 009e B317F700 		sll	a5,a4,a5
 289              		.loc 1 156 20
 290 00a2 032784FE 		lw	a4,-24(s0)
 291 00a6 D98F     		or	a5,a4,a5
 292 00a8 2324F4FE 		sw	a5,-24(s0)
 293              	.L16:
 151:../Firmware/GD32VW55x_standard_peripheral/Source/gd32vw55x_gpio.c ****         if((1U << i) & pin) {
 294              		.loc 1 151 27 discriminator 2
 295 00ac 8357E4FE 		lhu	a5,-18(s0)
 296 00b0 8507     		addi	a5,a5,1
 297 00b2 2317F4FE 		sh	a5,-18(s0)
 298              	.L15:
 151:../Firmware/GD32VW55x_standard_peripheral/Source/gd32vw55x_gpio.c ****         if((1U << i) & pin) {
 299              		.loc 1 151 5 discriminator 1
 300 00b6 0357E4FE 		lhu	a4,-18(s0)
 301 00ba BD47     		li	a5,15
 302 00bc E3F6E7FA 		bleu	a4,a5,.L17
 157:../Firmware/GD32VW55x_standard_peripheral/Source/gd32vw55x_gpio.c ****         }
 158:../Firmware/GD32VW55x_standard_peripheral/Source/gd32vw55x_gpio.c ****     }
 159:../Firmware/GD32VW55x_standard_peripheral/Source/gd32vw55x_gpio.c **** 
 160:../Firmware/GD32VW55x_standard_peripheral/Source/gd32vw55x_gpio.c ****     GPIO_OSPD(gpio_periph) = ospeed;
 303              		.loc 1 160 5
 304 00c0 8327C4FD 		lw	a5,-36(s0)
 305 00c4 A107     		addi	a5,a5,8
 306 00c6 3E87     		mv	a4,a5
 307              		.loc 1 160 28
 308 00c8 832784FE 		lw	a5,-24(s0)
 309 00cc 1CC3     		sw	a5,0(a4)
 161:../Firmware/GD32VW55x_standard_peripheral/Source/gd32vw55x_gpio.c **** }
 310              		.loc 1 161 1
 311 00ce 0100     		nop
 312 00d0 3254     		lw	s0,44(sp)
 313              		.cfi_restore 8
 314              		.cfi_def_cfa 2, 48
 315 00d2 4561     		addi	sp,sp,48
 316              		.cfi_def_cfa_offset 0
 317 00d4 8280     		jr	ra
 318              		.cfi_endproc
 319              	.LFE349:
 321              		.section	.text.gpio_bit_set,"ax",@progbits
 322              		.align	1
 323              		.globl	gpio_bit_set
 325              	gpio_bit_set:
 326              	.LFB350:
 162:../Firmware/GD32VW55x_standard_peripheral/Source/gd32vw55x_gpio.c **** 
 163:../Firmware/GD32VW55x_standard_peripheral/Source/gd32vw55x_gpio.c **** /*!
 164:../Firmware/GD32VW55x_standard_peripheral/Source/gd32vw55x_gpio.c ****     \brief      set GPIO pin bit
 165:../Firmware/GD32VW55x_standard_peripheral/Source/gd32vw55x_gpio.c ****     \param[in]  gpio_periph: GPIOx(x = A,B,C)
 166:../Firmware/GD32VW55x_standard_peripheral/Source/gd32vw55x_gpio.c ****                 only one parameter can be selected which is shown as below:
 167:../Firmware/GD32VW55x_standard_peripheral/Source/gd32vw55x_gpio.c ****       \arg        GPIOx(x = A,B,C)
 168:../Firmware/GD32VW55x_standard_peripheral/Source/gd32vw55x_gpio.c ****     \param[in]  pin: GPIO pin
 169:../Firmware/GD32VW55x_standard_peripheral/Source/gd32vw55x_gpio.c ****                 one or more parameters can be selected which are shown as below:
 170:../Firmware/GD32VW55x_standard_peripheral/Source/gd32vw55x_gpio.c ****       \arg        GPIO_PIN_x(x=0..15), GPIO_PIN_ALL
 171:../Firmware/GD32VW55x_standard_peripheral/Source/gd32vw55x_gpio.c ****     \param[out] none
 172:../Firmware/GD32VW55x_standard_peripheral/Source/gd32vw55x_gpio.c ****     \retval     none
 173:../Firmware/GD32VW55x_standard_peripheral/Source/gd32vw55x_gpio.c **** */
 174:../Firmware/GD32VW55x_standard_peripheral/Source/gd32vw55x_gpio.c **** void gpio_bit_set(uint32_t gpio_periph, uint32_t pin)
 175:../Firmware/GD32VW55x_standard_peripheral/Source/gd32vw55x_gpio.c **** {
 327              		.loc 1 175 1
 328              		.cfi_startproc
 329 0000 0111     		addi	sp,sp,-32
 330              		.cfi_def_cfa_offset 32
 331 0002 22CE     		sw	s0,28(sp)
 332              		.cfi_offset 8, -4
 333 0004 0010     		addi	s0,sp,32
 334              		.cfi_def_cfa 8, 0
 335 0006 2326A4FE 		sw	a0,-20(s0)
 336 000a 2324B4FE 		sw	a1,-24(s0)
 176:../Firmware/GD32VW55x_standard_peripheral/Source/gd32vw55x_gpio.c ****     GPIO_BOP(gpio_periph) = (uint32_t)pin;
 337              		.loc 1 176 5
 338 000e 8327C4FE 		lw	a5,-20(s0)
 339 0012 E107     		addi	a5,a5,24
 340 0014 3E87     		mv	a4,a5
 341              		.loc 1 176 27
 342 0016 832784FE 		lw	a5,-24(s0)
 343 001a 1CC3     		sw	a5,0(a4)
 177:../Firmware/GD32VW55x_standard_peripheral/Source/gd32vw55x_gpio.c **** }
 344              		.loc 1 177 1
 345 001c 0100     		nop
 346 001e 7244     		lw	s0,28(sp)
 347              		.cfi_restore 8
 348              		.cfi_def_cfa 2, 32
 349 0020 0561     		addi	sp,sp,32
 350              		.cfi_def_cfa_offset 0
 351 0022 8280     		jr	ra
 352              		.cfi_endproc
 353              	.LFE350:
 355              		.section	.text.gpio_bit_reset,"ax",@progbits
 356              		.align	1
 357              		.globl	gpio_bit_reset
 359              	gpio_bit_reset:
 360              	.LFB351:
 178:../Firmware/GD32VW55x_standard_peripheral/Source/gd32vw55x_gpio.c **** 
 179:../Firmware/GD32VW55x_standard_peripheral/Source/gd32vw55x_gpio.c **** /*!
 180:../Firmware/GD32VW55x_standard_peripheral/Source/gd32vw55x_gpio.c ****     \brief      reset GPIO pin bit
 181:../Firmware/GD32VW55x_standard_peripheral/Source/gd32vw55x_gpio.c ****     \param[in]  gpio_periph: GPIOx(x = A,B,C)
 182:../Firmware/GD32VW55x_standard_peripheral/Source/gd32vw55x_gpio.c ****                 only one parameter can be selected which is shown as below:
 183:../Firmware/GD32VW55x_standard_peripheral/Source/gd32vw55x_gpio.c ****       \arg        GPIOx(x = A,B,C)
 184:../Firmware/GD32VW55x_standard_peripheral/Source/gd32vw55x_gpio.c ****     \param[in]  pin: GPIO pin
 185:../Firmware/GD32VW55x_standard_peripheral/Source/gd32vw55x_gpio.c ****                 one or more parameters can be selected which are shown as below:
 186:../Firmware/GD32VW55x_standard_peripheral/Source/gd32vw55x_gpio.c ****       \arg        GPIO_PIN_x(x=0..15), GPIO_PIN_ALL
 187:../Firmware/GD32VW55x_standard_peripheral/Source/gd32vw55x_gpio.c ****     \param[out] none
 188:../Firmware/GD32VW55x_standard_peripheral/Source/gd32vw55x_gpio.c ****     \retval     none
 189:../Firmware/GD32VW55x_standard_peripheral/Source/gd32vw55x_gpio.c **** */
 190:../Firmware/GD32VW55x_standard_peripheral/Source/gd32vw55x_gpio.c **** void gpio_bit_reset(uint32_t gpio_periph, uint32_t pin)
 191:../Firmware/GD32VW55x_standard_peripheral/Source/gd32vw55x_gpio.c **** {
 361              		.loc 1 191 1
 362              		.cfi_startproc
 363 0000 0111     		addi	sp,sp,-32
 364              		.cfi_def_cfa_offset 32
 365 0002 22CE     		sw	s0,28(sp)
 366              		.cfi_offset 8, -4
 367 0004 0010     		addi	s0,sp,32
 368              		.cfi_def_cfa 8, 0
 369 0006 2326A4FE 		sw	a0,-20(s0)
 370 000a 2324B4FE 		sw	a1,-24(s0)
 192:../Firmware/GD32VW55x_standard_peripheral/Source/gd32vw55x_gpio.c ****     GPIO_BC(gpio_periph) = (uint32_t)pin;
 371              		.loc 1 192 5
 372 000e 8327C4FE 		lw	a5,-20(s0)
 373 0012 93878702 		addi	a5,a5,40
 374 0016 3E87     		mv	a4,a5
 375              		.loc 1 192 26
 376 0018 832784FE 		lw	a5,-24(s0)
 377 001c 1CC3     		sw	a5,0(a4)
 193:../Firmware/GD32VW55x_standard_peripheral/Source/gd32vw55x_gpio.c **** }
 378              		.loc 1 193 1
 379 001e 0100     		nop
 380 0020 7244     		lw	s0,28(sp)
 381              		.cfi_restore 8
 382              		.cfi_def_cfa 2, 32
 383 0022 0561     		addi	sp,sp,32
 384              		.cfi_def_cfa_offset 0
 385 0024 8280     		jr	ra
 386              		.cfi_endproc
 387              	.LFE351:
 389              		.section	.text.gpio_bit_write,"ax",@progbits
 390              		.align	1
 391              		.globl	gpio_bit_write
 393              	gpio_bit_write:
 394              	.LFB352:
 194:../Firmware/GD32VW55x_standard_peripheral/Source/gd32vw55x_gpio.c **** 
 195:../Firmware/GD32VW55x_standard_peripheral/Source/gd32vw55x_gpio.c **** /*!
 196:../Firmware/GD32VW55x_standard_peripheral/Source/gd32vw55x_gpio.c ****     \brief      write data to the specified GPIO pin
 197:../Firmware/GD32VW55x_standard_peripheral/Source/gd32vw55x_gpio.c ****     \param[in]  gpio_periph: GPIOx(x = A,B,C)
 198:../Firmware/GD32VW55x_standard_peripheral/Source/gd32vw55x_gpio.c ****                 only one parameter can be selected which is shown as below:
 199:../Firmware/GD32VW55x_standard_peripheral/Source/gd32vw55x_gpio.c ****       \arg        GPIOx(x = A,B,C)
 200:../Firmware/GD32VW55x_standard_peripheral/Source/gd32vw55x_gpio.c ****     \param[in]  pin: GPIO pin
 201:../Firmware/GD32VW55x_standard_peripheral/Source/gd32vw55x_gpio.c ****                 one or more parameters can be selected which are shown as below:
 202:../Firmware/GD32VW55x_standard_peripheral/Source/gd32vw55x_gpio.c ****       \arg        GPIO_PIN_x(x=0..15), GPIO_PIN_ALL
 203:../Firmware/GD32VW55x_standard_peripheral/Source/gd32vw55x_gpio.c ****     \param[in]  bit_value: SET or RESET
 204:../Firmware/GD32VW55x_standard_peripheral/Source/gd32vw55x_gpio.c ****                 only one parameter can be selected which is shown as below:
 205:../Firmware/GD32VW55x_standard_peripheral/Source/gd32vw55x_gpio.c ****       \arg        RESET: clear the port pin
 206:../Firmware/GD32VW55x_standard_peripheral/Source/gd32vw55x_gpio.c ****       \arg        SET: set the port pin
 207:../Firmware/GD32VW55x_standard_peripheral/Source/gd32vw55x_gpio.c ****     \param[out] none
 208:../Firmware/GD32VW55x_standard_peripheral/Source/gd32vw55x_gpio.c ****     \retval     none
 209:../Firmware/GD32VW55x_standard_peripheral/Source/gd32vw55x_gpio.c **** */
 210:../Firmware/GD32VW55x_standard_peripheral/Source/gd32vw55x_gpio.c **** void gpio_bit_write(uint32_t gpio_periph, uint32_t pin, bit_status bit_value)
 211:../Firmware/GD32VW55x_standard_peripheral/Source/gd32vw55x_gpio.c **** {
 395              		.loc 1 211 1
 396              		.cfi_startproc
 397 0000 0111     		addi	sp,sp,-32
 398              		.cfi_def_cfa_offset 32
 399 0002 22CE     		sw	s0,28(sp)
 400              		.cfi_offset 8, -4
 401 0004 0010     		addi	s0,sp,32
 402              		.cfi_def_cfa 8, 0
 403 0006 2326A4FE 		sw	a0,-20(s0)
 404 000a 2324B4FE 		sw	a1,-24(s0)
 405 000e 2322C4FE 		sw	a2,-28(s0)
 212:../Firmware/GD32VW55x_standard_peripheral/Source/gd32vw55x_gpio.c ****     if(RESET != bit_value) {
 406              		.loc 1 212 7
 407 0012 832744FE 		lw	a5,-28(s0)
 408 0016 89CB     		beq	a5,zero,.L21
 213:../Firmware/GD32VW55x_standard_peripheral/Source/gd32vw55x_gpio.c ****         GPIO_BOP(gpio_periph) = (uint32_t)pin;
 409              		.loc 1 213 9
 410 0018 8327C4FE 		lw	a5,-20(s0)
 411 001c E107     		addi	a5,a5,24
 412 001e 3E87     		mv	a4,a5
 413              		.loc 1 213 31
 414 0020 832784FE 		lw	a5,-24(s0)
 415 0024 1CC3     		sw	a5,0(a4)
 214:../Firmware/GD32VW55x_standard_peripheral/Source/gd32vw55x_gpio.c ****     } else {
 215:../Firmware/GD32VW55x_standard_peripheral/Source/gd32vw55x_gpio.c ****         GPIO_BC(gpio_periph) = (uint32_t)pin;
 216:../Firmware/GD32VW55x_standard_peripheral/Source/gd32vw55x_gpio.c ****     }
 217:../Firmware/GD32VW55x_standard_peripheral/Source/gd32vw55x_gpio.c **** }
 416              		.loc 1 217 1
 417 0026 09A8     		j	.L23
 418              	.L21:
 215:../Firmware/GD32VW55x_standard_peripheral/Source/gd32vw55x_gpio.c ****     }
 419              		.loc 1 215 9
 420 0028 8327C4FE 		lw	a5,-20(s0)
 421 002c 93878702 		addi	a5,a5,40
 422 0030 3E87     		mv	a4,a5
 215:../Firmware/GD32VW55x_standard_peripheral/Source/gd32vw55x_gpio.c ****     }
 423              		.loc 1 215 30
 424 0032 832784FE 		lw	a5,-24(s0)
 425 0036 1CC3     		sw	a5,0(a4)
 426              	.L23:
 427              		.loc 1 217 1
 428 0038 0100     		nop
 429 003a 7244     		lw	s0,28(sp)
 430              		.cfi_restore 8
 431              		.cfi_def_cfa 2, 32
 432 003c 0561     		addi	sp,sp,32
 433              		.cfi_def_cfa_offset 0
 434 003e 8280     		jr	ra
 435              		.cfi_endproc
 436              	.LFE352:
 438              		.section	.text.gpio_port_write,"ax",@progbits
 439              		.align	1
 440              		.globl	gpio_port_write
 442              	gpio_port_write:
 443              	.LFB353:
 218:../Firmware/GD32VW55x_standard_peripheral/Source/gd32vw55x_gpio.c **** 
 219:../Firmware/GD32VW55x_standard_peripheral/Source/gd32vw55x_gpio.c **** /*!
 220:../Firmware/GD32VW55x_standard_peripheral/Source/gd32vw55x_gpio.c ****     \brief      write data to the specified GPIO port
 221:../Firmware/GD32VW55x_standard_peripheral/Source/gd32vw55x_gpio.c ****     \param[in]  gpio_periph: GPIOx(x = A,B,C)
 222:../Firmware/GD32VW55x_standard_peripheral/Source/gd32vw55x_gpio.c ****                 only one parameter can be selected which is shown as below:
 223:../Firmware/GD32VW55x_standard_peripheral/Source/gd32vw55x_gpio.c ****       \arg        GPIOx(x = A,B,C)
 224:../Firmware/GD32VW55x_standard_peripheral/Source/gd32vw55x_gpio.c ****     \param[in]  data: specify the value to be written to the port output control register
 225:../Firmware/GD32VW55x_standard_peripheral/Source/gd32vw55x_gpio.c ****     \param[out] none
 226:../Firmware/GD32VW55x_standard_peripheral/Source/gd32vw55x_gpio.c ****     \retval     none
 227:../Firmware/GD32VW55x_standard_peripheral/Source/gd32vw55x_gpio.c **** */
 228:../Firmware/GD32VW55x_standard_peripheral/Source/gd32vw55x_gpio.c **** void gpio_port_write(uint32_t gpio_periph, uint16_t data)
 229:../Firmware/GD32VW55x_standard_peripheral/Source/gd32vw55x_gpio.c **** {
 444              		.loc 1 229 1
 445              		.cfi_startproc
 446 0000 0111     		addi	sp,sp,-32
 447              		.cfi_def_cfa_offset 32
 448 0002 22CE     		sw	s0,28(sp)
 449              		.cfi_offset 8, -4
 450 0004 0010     		addi	s0,sp,32
 451              		.cfi_def_cfa 8, 0
 452 0006 2326A4FE 		sw	a0,-20(s0)
 453 000a AE87     		mv	a5,a1
 454 000c 2315F4FE 		sh	a5,-22(s0)
 230:../Firmware/GD32VW55x_standard_peripheral/Source/gd32vw55x_gpio.c ****     GPIO_OCTL(gpio_periph) = (uint32_t)data;
 455              		.loc 1 230 5
 456 0010 8327C4FE 		lw	a5,-20(s0)
 457 0014 D107     		addi	a5,a5,20
 458 0016 3E87     		mv	a4,a5
 459              		.loc 1 230 30
 460 0018 8357A4FE 		lhu	a5,-22(s0)
 461              		.loc 1 230 28
 462 001c 1CC3     		sw	a5,0(a4)
 231:../Firmware/GD32VW55x_standard_peripheral/Source/gd32vw55x_gpio.c **** }
 463              		.loc 1 231 1
 464 001e 0100     		nop
 465 0020 7244     		lw	s0,28(sp)
 466              		.cfi_restore 8
 467              		.cfi_def_cfa 2, 32
 468 0022 0561     		addi	sp,sp,32
 469              		.cfi_def_cfa_offset 0
 470 0024 8280     		jr	ra
 471              		.cfi_endproc
 472              	.LFE353:
 474              		.section	.text.gpio_input_bit_get,"ax",@progbits
 475              		.align	1
 476              		.globl	gpio_input_bit_get
 478              	gpio_input_bit_get:
 479              	.LFB354:
 232:../Firmware/GD32VW55x_standard_peripheral/Source/gd32vw55x_gpio.c **** 
 233:../Firmware/GD32VW55x_standard_peripheral/Source/gd32vw55x_gpio.c **** /*!
 234:../Firmware/GD32VW55x_standard_peripheral/Source/gd32vw55x_gpio.c ****     \brief      get GPIO pin input status
 235:../Firmware/GD32VW55x_standard_peripheral/Source/gd32vw55x_gpio.c ****     \param[in]  gpio_periph: GPIOx(x = A,B,C)
 236:../Firmware/GD32VW55x_standard_peripheral/Source/gd32vw55x_gpio.c ****                 only one parameter can be selected which is shown as below:
 237:../Firmware/GD32VW55x_standard_peripheral/Source/gd32vw55x_gpio.c ****       \arg        GPIOx(x = A,B,C)
 238:../Firmware/GD32VW55x_standard_peripheral/Source/gd32vw55x_gpio.c ****     \param[in]  pin: GPIO pin
 239:../Firmware/GD32VW55x_standard_peripheral/Source/gd32vw55x_gpio.c ****                 one or more parameters can be selected which are shown as below:
 240:../Firmware/GD32VW55x_standard_peripheral/Source/gd32vw55x_gpio.c ****       \arg        GPIO_PIN_x(x=0..15), GPIO_PIN_ALL
 241:../Firmware/GD32VW55x_standard_peripheral/Source/gd32vw55x_gpio.c ****     \param[out] none
 242:../Firmware/GD32VW55x_standard_peripheral/Source/gd32vw55x_gpio.c ****     \retval     SET or RESET
 243:../Firmware/GD32VW55x_standard_peripheral/Source/gd32vw55x_gpio.c **** */
 244:../Firmware/GD32VW55x_standard_peripheral/Source/gd32vw55x_gpio.c **** FlagStatus gpio_input_bit_get(uint32_t gpio_periph, uint32_t pin)
 245:../Firmware/GD32VW55x_standard_peripheral/Source/gd32vw55x_gpio.c **** {
 480              		.loc 1 245 1
 481              		.cfi_startproc
 482 0000 0111     		addi	sp,sp,-32
 483              		.cfi_def_cfa_offset 32
 484 0002 22CE     		sw	s0,28(sp)
 485              		.cfi_offset 8, -4
 486 0004 0010     		addi	s0,sp,32
 487              		.cfi_def_cfa 8, 0
 488 0006 2326A4FE 		sw	a0,-20(s0)
 489 000a 2324B4FE 		sw	a1,-24(s0)
 246:../Firmware/GD32VW55x_standard_peripheral/Source/gd32vw55x_gpio.c ****     if((uint32_t)RESET != (GPIO_ISTAT(gpio_periph) & (pin))) {
 490              		.loc 1 246 28
 491 000e 8327C4FE 		lw	a5,-20(s0)
 492 0012 C107     		addi	a5,a5,16
 493 0014 9843     		lw	a4,0(a5)
 494              		.loc 1 246 52
 495 0016 832784FE 		lw	a5,-24(s0)
 496 001a F98F     		and	a5,a4,a5
 497              		.loc 1 246 7
 498 001c 99C3     		beq	a5,zero,.L26
 247:../Firmware/GD32VW55x_standard_peripheral/Source/gd32vw55x_gpio.c ****         return SET;
 499              		.loc 1 247 16
 500 001e 8547     		li	a5,1
 501 0020 11A0     		j	.L27
 502              	.L26:
 248:../Firmware/GD32VW55x_standard_peripheral/Source/gd32vw55x_gpio.c ****     } else {
 249:../Firmware/GD32VW55x_standard_peripheral/Source/gd32vw55x_gpio.c ****         return RESET;
 503              		.loc 1 249 16
 504 0022 8147     		li	a5,0
 505              	.L27:
 250:../Firmware/GD32VW55x_standard_peripheral/Source/gd32vw55x_gpio.c ****     }
 251:../Firmware/GD32VW55x_standard_peripheral/Source/gd32vw55x_gpio.c **** }
 506              		.loc 1 251 1
 507 0024 3E85     		mv	a0,a5
 508 0026 7244     		lw	s0,28(sp)
 509              		.cfi_restore 8
 510              		.cfi_def_cfa 2, 32
 511 0028 0561     		addi	sp,sp,32
 512              		.cfi_def_cfa_offset 0
 513 002a 8280     		jr	ra
 514              		.cfi_endproc
 515              	.LFE354:
 517              		.section	.text.gpio_input_port_get,"ax",@progbits
 518              		.align	1
 519              		.globl	gpio_input_port_get
 521              	gpio_input_port_get:
 522              	.LFB355:
 252:../Firmware/GD32VW55x_standard_peripheral/Source/gd32vw55x_gpio.c **** 
 253:../Firmware/GD32VW55x_standard_peripheral/Source/gd32vw55x_gpio.c **** /*!
 254:../Firmware/GD32VW55x_standard_peripheral/Source/gd32vw55x_gpio.c ****     \brief      get GPIO port input status
 255:../Firmware/GD32VW55x_standard_peripheral/Source/gd32vw55x_gpio.c ****     \param[in]  gpio_periph: GPIOx(x = A,B,C)
 256:../Firmware/GD32VW55x_standard_peripheral/Source/gd32vw55x_gpio.c ****                 only one parameter can be selected which is shown as below:
 257:../Firmware/GD32VW55x_standard_peripheral/Source/gd32vw55x_gpio.c ****       \arg        GPIOx(x = A,B,C)
 258:../Firmware/GD32VW55x_standard_peripheral/Source/gd32vw55x_gpio.c ****     \param[out] none
 259:../Firmware/GD32VW55x_standard_peripheral/Source/gd32vw55x_gpio.c ****     \retval     state of GPIO all pins:0x0000-0xFFFF
 260:../Firmware/GD32VW55x_standard_peripheral/Source/gd32vw55x_gpio.c **** */
 261:../Firmware/GD32VW55x_standard_peripheral/Source/gd32vw55x_gpio.c **** uint16_t gpio_input_port_get(uint32_t gpio_periph)
 262:../Firmware/GD32VW55x_standard_peripheral/Source/gd32vw55x_gpio.c **** {
 523              		.loc 1 262 1
 524              		.cfi_startproc
 525 0000 0111     		addi	sp,sp,-32
 526              		.cfi_def_cfa_offset 32
 527 0002 22CE     		sw	s0,28(sp)
 528              		.cfi_offset 8, -4
 529 0004 0010     		addi	s0,sp,32
 530              		.cfi_def_cfa 8, 0
 531 0006 2326A4FE 		sw	a0,-20(s0)
 263:../Firmware/GD32VW55x_standard_peripheral/Source/gd32vw55x_gpio.c ****     return ((uint16_t)GPIO_ISTAT(gpio_periph));
 532              		.loc 1 263 23
 533 000a 8327C4FE 		lw	a5,-20(s0)
 534 000e C107     		addi	a5,a5,16
 535 0010 9C43     		lw	a5,0(a5)
 536              		.loc 1 263 13
 537 0012 C207     		slli	a5,a5,16
 538 0014 C183     		srli	a5,a5,16
 264:../Firmware/GD32VW55x_standard_peripheral/Source/gd32vw55x_gpio.c **** }
 539              		.loc 1 264 1
 540 0016 3E85     		mv	a0,a5
 541 0018 7244     		lw	s0,28(sp)
 542              		.cfi_restore 8
 543              		.cfi_def_cfa 2, 32
 544 001a 0561     		addi	sp,sp,32
 545              		.cfi_def_cfa_offset 0
 546 001c 8280     		jr	ra
 547              		.cfi_endproc
 548              	.LFE355:
 550              		.section	.text.gpio_output_bit_get,"ax",@progbits
 551              		.align	1
 552              		.globl	gpio_output_bit_get
 554              	gpio_output_bit_get:
 555              	.LFB356:
 265:../Firmware/GD32VW55x_standard_peripheral/Source/gd32vw55x_gpio.c **** 
 266:../Firmware/GD32VW55x_standard_peripheral/Source/gd32vw55x_gpio.c **** /*!
 267:../Firmware/GD32VW55x_standard_peripheral/Source/gd32vw55x_gpio.c ****     \brief      get GPIO pin output status
 268:../Firmware/GD32VW55x_standard_peripheral/Source/gd32vw55x_gpio.c ****     \param[in]  gpio_periph: GPIOx(x = A,B,C)
 269:../Firmware/GD32VW55x_standard_peripheral/Source/gd32vw55x_gpio.c ****                 only one parameter can be selected which is shown as below:
 270:../Firmware/GD32VW55x_standard_peripheral/Source/gd32vw55x_gpio.c ****       \arg        GPIOx(x = A,B,C)
 271:../Firmware/GD32VW55x_standard_peripheral/Source/gd32vw55x_gpio.c ****     \param[in]  pin: GPIO pin
 272:../Firmware/GD32VW55x_standard_peripheral/Source/gd32vw55x_gpio.c ****                 one or more parameters can be selected which are shown as below:
 273:../Firmware/GD32VW55x_standard_peripheral/Source/gd32vw55x_gpio.c ****       \arg        GPIO_PIN_x(x=0..15), GPIO_PIN_ALL
 274:../Firmware/GD32VW55x_standard_peripheral/Source/gd32vw55x_gpio.c ****     \param[out] none
 275:../Firmware/GD32VW55x_standard_peripheral/Source/gd32vw55x_gpio.c ****     \retval     SET or RESET
 276:../Firmware/GD32VW55x_standard_peripheral/Source/gd32vw55x_gpio.c **** */
 277:../Firmware/GD32VW55x_standard_peripheral/Source/gd32vw55x_gpio.c **** FlagStatus gpio_output_bit_get(uint32_t gpio_periph, uint32_t pin)
 278:../Firmware/GD32VW55x_standard_peripheral/Source/gd32vw55x_gpio.c **** {
 556              		.loc 1 278 1
 557              		.cfi_startproc
 558 0000 0111     		addi	sp,sp,-32
 559              		.cfi_def_cfa_offset 32
 560 0002 22CE     		sw	s0,28(sp)
 561              		.cfi_offset 8, -4
 562 0004 0010     		addi	s0,sp,32
 563              		.cfi_def_cfa 8, 0
 564 0006 2326A4FE 		sw	a0,-20(s0)
 565 000a 2324B4FE 		sw	a1,-24(s0)
 279:../Firmware/GD32VW55x_standard_peripheral/Source/gd32vw55x_gpio.c ****     if((uint32_t)RESET != (GPIO_OCTL(gpio_periph) & (pin))) {
 566              		.loc 1 279 28
 567 000e 8327C4FE 		lw	a5,-20(s0)
 568 0012 D107     		addi	a5,a5,20
 569 0014 9843     		lw	a4,0(a5)
 570              		.loc 1 279 51
 571 0016 832784FE 		lw	a5,-24(s0)
 572 001a F98F     		and	a5,a4,a5
 573              		.loc 1 279 7
 574 001c 99C3     		beq	a5,zero,.L31
 280:../Firmware/GD32VW55x_standard_peripheral/Source/gd32vw55x_gpio.c ****         return SET;
 575              		.loc 1 280 16
 576 001e 8547     		li	a5,1
 577 0020 11A0     		j	.L32
 578              	.L31:
 281:../Firmware/GD32VW55x_standard_peripheral/Source/gd32vw55x_gpio.c ****     } else {
 282:../Firmware/GD32VW55x_standard_peripheral/Source/gd32vw55x_gpio.c ****         return RESET;
 579              		.loc 1 282 16
 580 0022 8147     		li	a5,0
 581              	.L32:
 283:../Firmware/GD32VW55x_standard_peripheral/Source/gd32vw55x_gpio.c ****     }
 284:../Firmware/GD32VW55x_standard_peripheral/Source/gd32vw55x_gpio.c **** }
 582              		.loc 1 284 1
 583 0024 3E85     		mv	a0,a5
 584 0026 7244     		lw	s0,28(sp)
 585              		.cfi_restore 8
 586              		.cfi_def_cfa 2, 32
 587 0028 0561     		addi	sp,sp,32
 588              		.cfi_def_cfa_offset 0
 589 002a 8280     		jr	ra
 590              		.cfi_endproc
 591              	.LFE356:
 593              		.section	.text.gpio_output_port_get,"ax",@progbits
 594              		.align	1
 595              		.globl	gpio_output_port_get
 597              	gpio_output_port_get:
 598              	.LFB357:
 285:../Firmware/GD32VW55x_standard_peripheral/Source/gd32vw55x_gpio.c **** 
 286:../Firmware/GD32VW55x_standard_peripheral/Source/gd32vw55x_gpio.c **** /*!
 287:../Firmware/GD32VW55x_standard_peripheral/Source/gd32vw55x_gpio.c ****     \brief      get GPIO port output status
 288:../Firmware/GD32VW55x_standard_peripheral/Source/gd32vw55x_gpio.c ****     \param[in]  gpio_periph: GPIOx(x = A,B,C)
 289:../Firmware/GD32VW55x_standard_peripheral/Source/gd32vw55x_gpio.c ****                 only one parameter can be selected which is shown as below:
 290:../Firmware/GD32VW55x_standard_peripheral/Source/gd32vw55x_gpio.c ****       \arg        GPIOx(x = A,B,C)
 291:../Firmware/GD32VW55x_standard_peripheral/Source/gd32vw55x_gpio.c ****     \param[out] none
 292:../Firmware/GD32VW55x_standard_peripheral/Source/gd32vw55x_gpio.c ****     \retval     state of GPIO all pins:0x0000-0xFFFF
 293:../Firmware/GD32VW55x_standard_peripheral/Source/gd32vw55x_gpio.c **** */
 294:../Firmware/GD32VW55x_standard_peripheral/Source/gd32vw55x_gpio.c **** uint16_t gpio_output_port_get(uint32_t gpio_periph)
 295:../Firmware/GD32VW55x_standard_peripheral/Source/gd32vw55x_gpio.c **** {
 599              		.loc 1 295 1
 600              		.cfi_startproc
 601 0000 0111     		addi	sp,sp,-32
 602              		.cfi_def_cfa_offset 32
 603 0002 22CE     		sw	s0,28(sp)
 604              		.cfi_offset 8, -4
 605 0004 0010     		addi	s0,sp,32
 606              		.cfi_def_cfa 8, 0
 607 0006 2326A4FE 		sw	a0,-20(s0)
 296:../Firmware/GD32VW55x_standard_peripheral/Source/gd32vw55x_gpio.c ****     return ((uint16_t)GPIO_OCTL(gpio_periph));
 608              		.loc 1 296 23
 609 000a 8327C4FE 		lw	a5,-20(s0)
 610 000e D107     		addi	a5,a5,20
 611 0010 9C43     		lw	a5,0(a5)
 612              		.loc 1 296 13
 613 0012 C207     		slli	a5,a5,16
 614 0014 C183     		srli	a5,a5,16
 297:../Firmware/GD32VW55x_standard_peripheral/Source/gd32vw55x_gpio.c **** }
 615              		.loc 1 297 1
 616 0016 3E85     		mv	a0,a5
 617 0018 7244     		lw	s0,28(sp)
 618              		.cfi_restore 8
 619              		.cfi_def_cfa 2, 32
 620 001a 0561     		addi	sp,sp,32
 621              		.cfi_def_cfa_offset 0
 622 001c 8280     		jr	ra
 623              		.cfi_endproc
 624              	.LFE357:
 626              		.section	.text.gpio_af_set,"ax",@progbits
 627              		.align	1
 628              		.globl	gpio_af_set
 630              	gpio_af_set:
 631              	.LFB358:
 298:../Firmware/GD32VW55x_standard_peripheral/Source/gd32vw55x_gpio.c **** 
 299:../Firmware/GD32VW55x_standard_peripheral/Source/gd32vw55x_gpio.c **** /*!
 300:../Firmware/GD32VW55x_standard_peripheral/Source/gd32vw55x_gpio.c ****     \brief      set GPIO alternate function
 301:../Firmware/GD32VW55x_standard_peripheral/Source/gd32vw55x_gpio.c ****     \param[in]  gpio_periph: GPIOx(x = A,B,C)
 302:../Firmware/GD32VW55x_standard_peripheral/Source/gd32vw55x_gpio.c ****                 only one parameter can be selected which is shown as below:
 303:../Firmware/GD32VW55x_standard_peripheral/Source/gd32vw55x_gpio.c ****       \arg        GPIOx(x = A,B,C)
 304:../Firmware/GD32VW55x_standard_peripheral/Source/gd32vw55x_gpio.c ****     \param[in]  alt_func_num: gpio pin af function
 305:../Firmware/GD32VW55x_standard_peripheral/Source/gd32vw55x_gpio.c ****                 only one parameter can be selected which is shown as below:
 306:../Firmware/GD32VW55x_standard_peripheral/Source/gd32vw55x_gpio.c ****       \arg        GPIO_AF_0: USART0, UART1, I2C1, CK_OUT0, SPI, JTAG, CK_OUT1, RTC_REF, IFRP_OUT
 307:../Firmware/GD32VW55x_standard_peripheral/Source/gd32vw55x_gpio.c ****       \arg        GPIO_AF_1: TIMER0, TIMER1
 308:../Firmware/GD32VW55x_standard_peripheral/Source/gd32vw55x_gpio.c ****       \arg        GPIO_AF_2: USART0, TIMER0, TIMER2, SPI
 309:../Firmware/GD32VW55x_standard_peripheral/Source/gd32vw55x_gpio.c ****       \arg        GPIO_AF_3: QSPI, USART1, TIMER0, TIMER1, TIMER2
 310:../Firmware/GD32VW55x_standard_peripheral/Source/gd32vw55x_gpio.c ****       \arg        GPIO_AF_4: UART1, SPI, I2C0, QSPI, I2C1
 311:../Firmware/GD32VW55x_standard_peripheral/Source/gd32vw55x_gpio.c ****       \arg        GPIO_AF_5: SPI, I2C0
 312:../Firmware/GD32VW55x_standard_peripheral/Source/gd32vw55x_gpio.c ****       \arg        GPIO_AF_6: TIMER0, I2C0, SPI, I2C1
 313:../Firmware/GD32VW55x_standard_peripheral/Source/gd32vw55x_gpio.c ****       \arg        GPIO_AF_7: USART0, UART1, TIMER16, SPI
 314:../Firmware/GD32VW55x_standard_peripheral/Source/gd32vw55x_gpio.c ****       \arg        GPIO_AF_8: USART0, UART1, UART2, TIMER0, TIMER2, TIMER15
 315:../Firmware/GD32VW55x_standard_peripheral/Source/gd32vw55x_gpio.c ****       \arg        GPIO_AF_9: RTC, TIMER0, TIMER1, TIMER16, IFRP_OUT
 316:../Firmware/GD32VW55x_standard_peripheral/Source/gd32vw55x_gpio.c ****       \arg        GPIO_AF_10: UART2, TIMER2, TIMER16
 317:../Firmware/GD32VW55x_standard_peripheral/Source/gd32vw55x_gpio.c ****       \arg        GPIO_AF_11: TIMER0, TIMER15
 318:../Firmware/GD32VW55x_standard_peripheral/Source/gd32vw55x_gpio.c ****     \param[in]  pin: GPIO pin
 319:../Firmware/GD32VW55x_standard_peripheral/Source/gd32vw55x_gpio.c ****                 one or more parameters can be selected which are shown as below:
 320:../Firmware/GD32VW55x_standard_peripheral/Source/gd32vw55x_gpio.c ****       \arg        GPIO_PIN_x(x=0..15), GPIO_PIN_ALL
 321:../Firmware/GD32VW55x_standard_peripheral/Source/gd32vw55x_gpio.c ****     \param[out] none
 322:../Firmware/GD32VW55x_standard_peripheral/Source/gd32vw55x_gpio.c ****     \retval     none
 323:../Firmware/GD32VW55x_standard_peripheral/Source/gd32vw55x_gpio.c **** */
 324:../Firmware/GD32VW55x_standard_peripheral/Source/gd32vw55x_gpio.c **** void gpio_af_set(uint32_t gpio_periph, uint32_t alt_func_num, uint32_t pin)
 325:../Firmware/GD32VW55x_standard_peripheral/Source/gd32vw55x_gpio.c **** {
 632              		.loc 1 325 1
 633              		.cfi_startproc
 634 0000 7971     		addi	sp,sp,-48
 635              		.cfi_def_cfa_offset 48
 636 0002 22D6     		sw	s0,44(sp)
 637              		.cfi_offset 8, -4
 638 0004 0018     		addi	s0,sp,48
 639              		.cfi_def_cfa 8, 0
 640 0006 232EA4FC 		sw	a0,-36(s0)
 641 000a 232CB4FC 		sw	a1,-40(s0)
 642 000e 232AC4FC 		sw	a2,-44(s0)
 326:../Firmware/GD32VW55x_standard_peripheral/Source/gd32vw55x_gpio.c ****     uint16_t i;
 327:../Firmware/GD32VW55x_standard_peripheral/Source/gd32vw55x_gpio.c ****     uint32_t afrl, afrh;
 328:../Firmware/GD32VW55x_standard_peripheral/Source/gd32vw55x_gpio.c **** 
 329:../Firmware/GD32VW55x_standard_peripheral/Source/gd32vw55x_gpio.c ****     afrl = GPIO_AFSEL0(gpio_periph);
 643              		.loc 1 329 12
 644 0012 8327C4FD 		lw	a5,-36(s0)
 645 0016 93870702 		addi	a5,a5,32
 646              		.loc 1 329 10
 647 001a 9C43     		lw	a5,0(a5)
 648 001c 2324F4FE 		sw	a5,-24(s0)
 330:../Firmware/GD32VW55x_standard_peripheral/Source/gd32vw55x_gpio.c ****     afrh = GPIO_AFSEL1(gpio_periph);
 649              		.loc 1 330 12
 650 0020 8327C4FD 		lw	a5,-36(s0)
 651 0024 93874702 		addi	a5,a5,36
 652              		.loc 1 330 10
 653 0028 9C43     		lw	a5,0(a5)
 654 002a 2322F4FE 		sw	a5,-28(s0)
 331:../Firmware/GD32VW55x_standard_peripheral/Source/gd32vw55x_gpio.c **** 
 332:../Firmware/GD32VW55x_standard_peripheral/Source/gd32vw55x_gpio.c ****     for(i = 0U; i < 8U; i++) {
 655              		.loc 1 332 11
 656 002e 231704FE 		sh	zero,-18(s0)
 657              		.loc 1 332 5
 658 0032 81A8     		j	.L36
 659              	.L38:
 333:../Firmware/GD32VW55x_standard_peripheral/Source/gd32vw55x_gpio.c ****         if((1U << i) & pin) {
 660              		.loc 1 333 16
 661 0034 8357E4FE 		lhu	a5,-18(s0)
 662 0038 0547     		li	a4,1
 663 003a 3317F700 		sll	a4,a4,a5
 664              		.loc 1 333 22
 665 003e 832744FD 		lw	a5,-44(s0)
 666 0042 F98F     		and	a5,a4,a5
 667              		.loc 1 333 11
 668 0044 95CB     		beq	a5,zero,.L37
 334:../Firmware/GD32VW55x_standard_peripheral/Source/gd32vw55x_gpio.c ****             /* clear the specified pin alternate function bits */
 335:../Firmware/GD32VW55x_standard_peripheral/Source/gd32vw55x_gpio.c ****             afrl &= ~GPIO_AFR_MASK(i);
 669              		.loc 1 335 22
 670 0046 8357E4FE 		lhu	a5,-18(s0)
 671 004a 8A07     		slli	a5,a5,2
 672 004c 3D47     		li	a4,15
 673 004e B317F700 		sll	a5,a4,a5
 674              		.loc 1 335 21
 675 0052 93C7F7FF 		not	a5,a5
 676              		.loc 1 335 18
 677 0056 032784FE 		lw	a4,-24(s0)
 678 005a F98F     		and	a5,a4,a5
 679 005c 2324F4FE 		sw	a5,-24(s0)
 336:../Firmware/GD32VW55x_standard_peripheral/Source/gd32vw55x_gpio.c ****             afrl |= GPIO_AFR_SET(i, alt_func_num);
 680              		.loc 1 336 21
 681 0060 8357E4FE 		lhu	a5,-18(s0)
 682 0064 8A07     		slli	a5,a5,2
 683 0066 032784FD 		lw	a4,-40(s0)
 684 006a B317F700 		sll	a5,a4,a5
 685              		.loc 1 336 18
 686 006e 032784FE 		lw	a4,-24(s0)
 687 0072 D98F     		or	a5,a4,a5
 688 0074 2324F4FE 		sw	a5,-24(s0)
 689              	.L37:
 332:../Firmware/GD32VW55x_standard_peripheral/Source/gd32vw55x_gpio.c ****         if((1U << i) & pin) {
 690              		.loc 1 332 26 discriminator 2
 691 0078 8357E4FE 		lhu	a5,-18(s0)
 692 007c 8507     		addi	a5,a5,1
 693 007e 2317F4FE 		sh	a5,-18(s0)
 694              	.L36:
 332:../Firmware/GD32VW55x_standard_peripheral/Source/gd32vw55x_gpio.c ****         if((1U << i) & pin) {
 695              		.loc 1 332 5 discriminator 1
 696 0082 0357E4FE 		lhu	a4,-18(s0)
 697 0086 9D47     		li	a5,7
 698 0088 E3F6E7FA 		bleu	a4,a5,.L38
 337:../Firmware/GD32VW55x_standard_peripheral/Source/gd32vw55x_gpio.c ****         }
 338:../Firmware/GD32VW55x_standard_peripheral/Source/gd32vw55x_gpio.c ****     }
 339:../Firmware/GD32VW55x_standard_peripheral/Source/gd32vw55x_gpio.c **** 
 340:../Firmware/GD32VW55x_standard_peripheral/Source/gd32vw55x_gpio.c ****     for(i = 8U; i < 16U; i++) {
 699              		.loc 1 340 11
 700 008c A147     		li	a5,8
 701 008e 2317F4FE 		sh	a5,-18(s0)
 702              		.loc 1 340 5
 703 0092 91A8     		j	.L39
 704              	.L41:
 341:../Firmware/GD32VW55x_standard_peripheral/Source/gd32vw55x_gpio.c ****         if((1U << i) & pin) {
 705              		.loc 1 341 16
 706 0094 8357E4FE 		lhu	a5,-18(s0)
 707 0098 0547     		li	a4,1
 708 009a 3317F700 		sll	a4,a4,a5
 709              		.loc 1 341 22
 710 009e 832744FD 		lw	a5,-44(s0)
 711 00a2 F98F     		and	a5,a4,a5
 712              		.loc 1 341 11
 713 00a4 85CF     		beq	a5,zero,.L40
 342:../Firmware/GD32VW55x_standard_peripheral/Source/gd32vw55x_gpio.c ****             /* clear the specified pin alternate function bits */
 343:../Firmware/GD32VW55x_standard_peripheral/Source/gd32vw55x_gpio.c ****             afrh &= ~GPIO_AFR_MASK(i - 8U);
 714              		.loc 1 343 22
 715 00a6 8357E4FE 		lhu	a5,-18(s0)
 716 00aa E117     		addi	a5,a5,-8
 717 00ac 8A07     		slli	a5,a5,2
 718 00ae 3D47     		li	a4,15
 719 00b0 B317F700 		sll	a5,a4,a5
 720              		.loc 1 343 21
 721 00b4 93C7F7FF 		not	a5,a5
 722              		.loc 1 343 18
 723 00b8 032744FE 		lw	a4,-28(s0)
 724 00bc F98F     		and	a5,a4,a5
 725 00be 2322F4FE 		sw	a5,-28(s0)
 344:../Firmware/GD32VW55x_standard_peripheral/Source/gd32vw55x_gpio.c ****             afrh |= GPIO_AFR_SET(i - 8U, alt_func_num);
 726              		.loc 1 344 21
 727 00c2 8357E4FE 		lhu	a5,-18(s0)
 728 00c6 E117     		addi	a5,a5,-8
 729 00c8 8A07     		slli	a5,a5,2
 730 00ca 032784FD 		lw	a4,-40(s0)
 731 00ce B317F700 		sll	a5,a4,a5
 732              		.loc 1 344 18
 733 00d2 032744FE 		lw	a4,-28(s0)
 734 00d6 D98F     		or	a5,a4,a5
 735 00d8 2322F4FE 		sw	a5,-28(s0)
 736              	.L40:
 340:../Firmware/GD32VW55x_standard_peripheral/Source/gd32vw55x_gpio.c ****         if((1U << i) & pin) {
 737              		.loc 1 340 27 discriminator 2
 738 00dc 8357E4FE 		lhu	a5,-18(s0)
 739 00e0 8507     		addi	a5,a5,1
 740 00e2 2317F4FE 		sh	a5,-18(s0)
 741              	.L39:
 340:../Firmware/GD32VW55x_standard_peripheral/Source/gd32vw55x_gpio.c ****         if((1U << i) & pin) {
 742              		.loc 1 340 5 discriminator 1
 743 00e6 0357E4FE 		lhu	a4,-18(s0)
 744 00ea BD47     		li	a5,15
 745 00ec E3F4E7FA 		bleu	a4,a5,.L41
 345:../Firmware/GD32VW55x_standard_peripheral/Source/gd32vw55x_gpio.c ****         }
 346:../Firmware/GD32VW55x_standard_peripheral/Source/gd32vw55x_gpio.c ****     }
 347:../Firmware/GD32VW55x_standard_peripheral/Source/gd32vw55x_gpio.c **** 
 348:../Firmware/GD32VW55x_standard_peripheral/Source/gd32vw55x_gpio.c ****     GPIO_AFSEL0(gpio_periph) = afrl;
 746              		.loc 1 348 5
 747 00f0 8327C4FD 		lw	a5,-36(s0)
 748 00f4 93870702 		addi	a5,a5,32
 749 00f8 3E87     		mv	a4,a5
 750              		.loc 1 348 30
 751 00fa 832784FE 		lw	a5,-24(s0)
 752 00fe 1CC3     		sw	a5,0(a4)
 349:../Firmware/GD32VW55x_standard_peripheral/Source/gd32vw55x_gpio.c ****     GPIO_AFSEL1(gpio_periph) = afrh;
 753              		.loc 1 349 5
 754 0100 8327C4FD 		lw	a5,-36(s0)
 755 0104 93874702 		addi	a5,a5,36
 756 0108 3E87     		mv	a4,a5
 757              		.loc 1 349 30
 758 010a 832744FE 		lw	a5,-28(s0)
 759 010e 1CC3     		sw	a5,0(a4)
 350:../Firmware/GD32VW55x_standard_peripheral/Source/gd32vw55x_gpio.c **** }
 760              		.loc 1 350 1
 761 0110 0100     		nop
 762 0112 3254     		lw	s0,44(sp)
 763              		.cfi_restore 8
 764              		.cfi_def_cfa 2, 48
 765 0114 4561     		addi	sp,sp,48
 766              		.cfi_def_cfa_offset 0
 767 0116 8280     		jr	ra
 768              		.cfi_endproc
 769              	.LFE358:
 771              		.section	.text.gpio_pin_lock,"ax",@progbits
 772              		.align	1
 773              		.globl	gpio_pin_lock
 775              	gpio_pin_lock:
 776              	.LFB359:
 351:../Firmware/GD32VW55x_standard_peripheral/Source/gd32vw55x_gpio.c **** 
 352:../Firmware/GD32VW55x_standard_peripheral/Source/gd32vw55x_gpio.c **** /*!
 353:../Firmware/GD32VW55x_standard_peripheral/Source/gd32vw55x_gpio.c ****     \brief      lock GPIO pin bit
 354:../Firmware/GD32VW55x_standard_peripheral/Source/gd32vw55x_gpio.c ****     \param[in]  gpio_periph: GPIOx(x = A,B,C)
 355:../Firmware/GD32VW55x_standard_peripheral/Source/gd32vw55x_gpio.c ****                 only one parameter can be selected which is shown as below:
 356:../Firmware/GD32VW55x_standard_peripheral/Source/gd32vw55x_gpio.c ****       \arg        GPIOx(x = A,B,C)
 357:../Firmware/GD32VW55x_standard_peripheral/Source/gd32vw55x_gpio.c ****     \param[in]  pin: GPIO pin
 358:../Firmware/GD32VW55x_standard_peripheral/Source/gd32vw55x_gpio.c ****                 one or more parameters can be selected which are shown as below:
 359:../Firmware/GD32VW55x_standard_peripheral/Source/gd32vw55x_gpio.c ****       \arg        GPIO_PIN_x(x=0..15), GPIO_PIN_ALL
 360:../Firmware/GD32VW55x_standard_peripheral/Source/gd32vw55x_gpio.c ****     \param[out] none
 361:../Firmware/GD32VW55x_standard_peripheral/Source/gd32vw55x_gpio.c ****     \retval     none
 362:../Firmware/GD32VW55x_standard_peripheral/Source/gd32vw55x_gpio.c **** */
 363:../Firmware/GD32VW55x_standard_peripheral/Source/gd32vw55x_gpio.c **** void gpio_pin_lock(uint32_t gpio_periph, uint32_t pin)
 364:../Firmware/GD32VW55x_standard_peripheral/Source/gd32vw55x_gpio.c **** {
 777              		.loc 1 364 1
 778              		.cfi_startproc
 779 0000 7971     		addi	sp,sp,-48
 780              		.cfi_def_cfa_offset 48
 781 0002 22D6     		sw	s0,44(sp)
 782              		.cfi_offset 8, -4
 783 0004 0018     		addi	s0,sp,48
 784              		.cfi_def_cfa 8, 0
 785 0006 232EA4FC 		sw	a0,-36(s0)
 786 000a 232CB4FC 		sw	a1,-40(s0)
 365:../Firmware/GD32VW55x_standard_peripheral/Source/gd32vw55x_gpio.c ****     uint32_t lock = 0x00010000U;
 787              		.loc 1 365 14
 788 000e C167     		li	a5,65536
 789 0010 2326F4FE 		sw	a5,-20(s0)
 366:../Firmware/GD32VW55x_standard_peripheral/Source/gd32vw55x_gpio.c ****     lock |= pin;
 790              		.loc 1 366 10
 791 0014 0327C4FE 		lw	a4,-20(s0)
 792 0018 832784FD 		lw	a5,-40(s0)
 793 001c D98F     		or	a5,a4,a5
 794 001e 2326F4FE 		sw	a5,-20(s0)
 367:../Firmware/GD32VW55x_standard_peripheral/Source/gd32vw55x_gpio.c ****     /* lock key writing sequence: write 1->write 0->write 1->read 0->read 1 */
 368:../Firmware/GD32VW55x_standard_peripheral/Source/gd32vw55x_gpio.c ****     GPIO_LOCK(gpio_periph) = (uint32_t)lock;
 795              		.loc 1 368 5
 796 0022 8327C4FD 		lw	a5,-36(s0)
 797 0026 F107     		addi	a5,a5,28
 798 0028 3E87     		mv	a4,a5
 799              		.loc 1 368 28
 800 002a 8327C4FE 		lw	a5,-20(s0)
 801 002e 1CC3     		sw	a5,0(a4)
 369:../Firmware/GD32VW55x_standard_peripheral/Source/gd32vw55x_gpio.c ****     GPIO_LOCK(gpio_periph) = (uint32_t)pin;
 802              		.loc 1 369 5
 803 0030 8327C4FD 		lw	a5,-36(s0)
 804 0034 F107     		addi	a5,a5,28
 805 0036 3E87     		mv	a4,a5
 806              		.loc 1 369 28
 807 0038 832784FD 		lw	a5,-40(s0)
 808 003c 1CC3     		sw	a5,0(a4)
 370:../Firmware/GD32VW55x_standard_peripheral/Source/gd32vw55x_gpio.c ****     GPIO_LOCK(gpio_periph) = (uint32_t)lock;
 809              		.loc 1 370 5
 810 003e 8327C4FD 		lw	a5,-36(s0)
 811 0042 F107     		addi	a5,a5,28
 812 0044 3E87     		mv	a4,a5
 813              		.loc 1 370 28
 814 0046 8327C4FE 		lw	a5,-20(s0)
 815 004a 1CC3     		sw	a5,0(a4)
 371:../Firmware/GD32VW55x_standard_peripheral/Source/gd32vw55x_gpio.c ****     lock = GPIO_LOCK(gpio_periph);
 816              		.loc 1 371 12
 817 004c 8327C4FD 		lw	a5,-36(s0)
 818 0050 F107     		addi	a5,a5,28
 819              		.loc 1 371 10
 820 0052 9C43     		lw	a5,0(a5)
 821 0054 2326F4FE 		sw	a5,-20(s0)
 372:../Firmware/GD32VW55x_standard_peripheral/Source/gd32vw55x_gpio.c ****     lock = GPIO_LOCK(gpio_periph);
 822              		.loc 1 372 12
 823 0058 8327C4FD 		lw	a5,-36(s0)
 824 005c F107     		addi	a5,a5,28
 825              		.loc 1 372 10
 826 005e 9C43     		lw	a5,0(a5)
 827 0060 2326F4FE 		sw	a5,-20(s0)
 373:../Firmware/GD32VW55x_standard_peripheral/Source/gd32vw55x_gpio.c **** }
 828              		.loc 1 373 1
 829 0064 0100     		nop
 830 0066 3254     		lw	s0,44(sp)
 831              		.cfi_restore 8
 832              		.cfi_def_cfa 2, 48
 833 0068 4561     		addi	sp,sp,48
 834              		.cfi_def_cfa_offset 0
 835 006a 8280     		jr	ra
 836              		.cfi_endproc
 837              	.LFE359:
 839              		.section	.text.gpio_bit_toggle,"ax",@progbits
 840              		.align	1
 841              		.globl	gpio_bit_toggle
 843              	gpio_bit_toggle:
 844              	.LFB360:
 374:../Firmware/GD32VW55x_standard_peripheral/Source/gd32vw55x_gpio.c **** 
 375:../Firmware/GD32VW55x_standard_peripheral/Source/gd32vw55x_gpio.c **** /*!
 376:../Firmware/GD32VW55x_standard_peripheral/Source/gd32vw55x_gpio.c ****     \brief      toggle GPIO pin status
 377:../Firmware/GD32VW55x_standard_peripheral/Source/gd32vw55x_gpio.c ****     \param[in]  gpio_periph: GPIOx(x = A,B,C)
 378:../Firmware/GD32VW55x_standard_peripheral/Source/gd32vw55x_gpio.c ****                 only one parameter can be selected which is shown as below:
 379:../Firmware/GD32VW55x_standard_peripheral/Source/gd32vw55x_gpio.c ****       \arg        GPIOx(x = A,B,C)
 380:../Firmware/GD32VW55x_standard_peripheral/Source/gd32vw55x_gpio.c ****     \param[in]  pin: GPIO pin
 381:../Firmware/GD32VW55x_standard_peripheral/Source/gd32vw55x_gpio.c ****                 one or more parameters can be selected which are shown as below:
 382:../Firmware/GD32VW55x_standard_peripheral/Source/gd32vw55x_gpio.c ****       \arg        GPIO_PIN_x(x=0..15), GPIO_PIN_ALL
 383:../Firmware/GD32VW55x_standard_peripheral/Source/gd32vw55x_gpio.c ****     \param[out] none
 384:../Firmware/GD32VW55x_standard_peripheral/Source/gd32vw55x_gpio.c ****     \retval     none
 385:../Firmware/GD32VW55x_standard_peripheral/Source/gd32vw55x_gpio.c **** */
 386:../Firmware/GD32VW55x_standard_peripheral/Source/gd32vw55x_gpio.c **** void gpio_bit_toggle(uint32_t gpio_periph, uint32_t pin)
 387:../Firmware/GD32VW55x_standard_peripheral/Source/gd32vw55x_gpio.c **** {
 845              		.loc 1 387 1
 846              		.cfi_startproc
 847 0000 0111     		addi	sp,sp,-32
 848              		.cfi_def_cfa_offset 32
 849 0002 22CE     		sw	s0,28(sp)
 850              		.cfi_offset 8, -4
 851 0004 0010     		addi	s0,sp,32
 852              		.cfi_def_cfa 8, 0
 853 0006 2326A4FE 		sw	a0,-20(s0)
 854 000a 2324B4FE 		sw	a1,-24(s0)
 388:../Firmware/GD32VW55x_standard_peripheral/Source/gd32vw55x_gpio.c ****     GPIO_TG(gpio_periph) = (uint32_t)pin;
 855              		.loc 1 388 5
 856 000e 8327C4FE 		lw	a5,-20(s0)
 857 0012 9387C702 		addi	a5,a5,44
 858 0016 3E87     		mv	a4,a5
 859              		.loc 1 388 26
 860 0018 832784FE 		lw	a5,-24(s0)
 861 001c 1CC3     		sw	a5,0(a4)
 389:../Firmware/GD32VW55x_standard_peripheral/Source/gd32vw55x_gpio.c **** }
 862              		.loc 1 389 1
 863 001e 0100     		nop
 864 0020 7244     		lw	s0,28(sp)
 865              		.cfi_restore 8
 866              		.cfi_def_cfa 2, 32
 867 0022 0561     		addi	sp,sp,32
 868              		.cfi_def_cfa_offset 0
 869 0024 8280     		jr	ra
 870              		.cfi_endproc
 871              	.LFE360:
 873              		.section	.text.gpio_port_toggle,"ax",@progbits
 874              		.align	1
 875              		.globl	gpio_port_toggle
 877              	gpio_port_toggle:
 878              	.LFB361:
 390:../Firmware/GD32VW55x_standard_peripheral/Source/gd32vw55x_gpio.c **** 
 391:../Firmware/GD32VW55x_standard_peripheral/Source/gd32vw55x_gpio.c **** /*!
 392:../Firmware/GD32VW55x_standard_peripheral/Source/gd32vw55x_gpio.c ****     \brief      toggle GPIO port status
 393:../Firmware/GD32VW55x_standard_peripheral/Source/gd32vw55x_gpio.c ****     \param[in]  gpio_periph: GPIOx(x = A,B,C)
 394:../Firmware/GD32VW55x_standard_peripheral/Source/gd32vw55x_gpio.c ****                 only one parameter can be selected which is shown as below:
 395:../Firmware/GD32VW55x_standard_peripheral/Source/gd32vw55x_gpio.c ****       \arg        GPIOx(x = A,B,C)
 396:../Firmware/GD32VW55x_standard_peripheral/Source/gd32vw55x_gpio.c ****     \param[out] none
 397:../Firmware/GD32VW55x_standard_peripheral/Source/gd32vw55x_gpio.c ****     \retval     none
 398:../Firmware/GD32VW55x_standard_peripheral/Source/gd32vw55x_gpio.c **** */
 399:../Firmware/GD32VW55x_standard_peripheral/Source/gd32vw55x_gpio.c **** void gpio_port_toggle(uint32_t gpio_periph)
 400:../Firmware/GD32VW55x_standard_peripheral/Source/gd32vw55x_gpio.c **** {
 879              		.loc 1 400 1
 880              		.cfi_startproc
 881 0000 0111     		addi	sp,sp,-32
 882              		.cfi_def_cfa_offset 32
 883 0002 22CE     		sw	s0,28(sp)
 884              		.cfi_offset 8, -4
 885 0004 0010     		addi	s0,sp,32
 886              		.cfi_def_cfa 8, 0
 887 0006 2326A4FE 		sw	a0,-20(s0)
 401:../Firmware/GD32VW55x_standard_peripheral/Source/gd32vw55x_gpio.c ****     GPIO_TG(gpio_periph) = 0x0000FFFFU;
 888              		.loc 1 401 5
 889 000a 8327C4FE 		lw	a5,-20(s0)
 890 000e 9387C702 		addi	a5,a5,44
 891 0012 3E87     		mv	a4,a5
 892              		.loc 1 401 26
 893 0014 C167     		li	a5,65536
 894 0016 FD17     		addi	a5,a5,-1
 895 0018 1CC3     		sw	a5,0(a4)
 402:../Firmware/GD32VW55x_standard_peripheral/Source/gd32vw55x_gpio.c **** }
 896              		.loc 1 402 1
 897 001a 0100     		nop
 898 001c 7244     		lw	s0,28(sp)
 899              		.cfi_restore 8
 900              		.cfi_def_cfa 2, 32
 901 001e 0561     		addi	sp,sp,32
 902              		.cfi_def_cfa_offset 0
 903 0020 8280     		jr	ra
 904              		.cfi_endproc
 905              	.LFE361:
 907              		.text
 908              	.Letext0:
 909              		.file 2 "e:\\gd32\\gd32embeddedbuilder_v1.5.2.30854\\tools\\nuclei_riscv_newlibc_prebuilt_win32_20
 910              		.file 3 "e:\\gd32\\gd32embeddedbuilder_v1.5.2.30854\\tools\\nuclei_riscv_newlibc_prebuilt_win32_20
 911              		.file 4 "../Firmware/GD32VW55x_standard_peripheral/gd32vw55x.h"
 912              		.file 5 "../Firmware/GD32VW55x_standard_peripheral/Include/gd32vw55x_rcu.h"
 913              		.file 6 "../Firmware/GD32VW55x_standard_peripheral/Include/gd32vw55x_gpio.h"
DEFINED SYMBOLS
                            *ABS*:0000000000000000 gd32vw55x_gpio.c
C:\Users\CYMR90~1\AppData\Local\Temp\ccbtsgth.s:13     .text.gpio_deinit:0000000000000000 gpio_deinit
C:\Users\CYMR90~1\AppData\Local\Temp\ccbtsgth.s:17     .text.gpio_deinit:0000000000000000 .L0 
C:\Users\CYMR90~1\AppData\Local\Temp\ccbtsgth.s:18     .text.gpio_deinit:0000000000000000 .L0 
C:\Users\CYMR90~1\AppData\Local\Temp\ccbtsgth.s:19     .text.gpio_deinit:0000000000000002 .L0 
C:\Users\CYMR90~1\AppData\Local\Temp\ccbtsgth.s:22     .text.gpio_deinit:0000000000000006 .L0 
C:\Users\CYMR90~1\AppData\Local\Temp\ccbtsgth.s:23     .text.gpio_deinit:0000000000000006 .L0 
C:\Users\CYMR90~1\AppData\Local\Temp\ccbtsgth.s:25     .text.gpio_deinit:0000000000000008 .L0 
C:\Users\CYMR90~1\AppData\Local\Temp\ccbtsgth.s:28     .text.gpio_deinit:000000000000000c .L0 
C:\Users\CYMR90~1\AppData\Local\Temp\ccbtsgth.s:44     .text.gpio_deinit:0000000000000048 .L0 
C:\Users\CYMR90~1\AppData\Local\Temp\ccbtsgth.s:47     .text.gpio_deinit:000000000000004a .L0 
C:\Users\CYMR90~1\AppData\Local\Temp\ccbtsgth.s:50     .text.gpio_deinit:0000000000000056 .L0 
C:\Users\CYMR90~1\AppData\Local\Temp\ccbtsgth.s:53     .text.gpio_deinit:0000000000000062 .L0 
C:\Users\CYMR90~1\AppData\Local\Temp\ccbtsgth.s:56     .text.gpio_deinit:0000000000000064 .L0 
C:\Users\CYMR90~1\AppData\Local\Temp\ccbtsgth.s:59     .text.gpio_deinit:0000000000000070 .L0 
C:\Users\CYMR90~1\AppData\Local\Temp\ccbtsgth.s:62     .text.gpio_deinit:000000000000007c .L0 
C:\Users\CYMR90~1\AppData\Local\Temp\ccbtsgth.s:65     .text.gpio_deinit:000000000000007e .L0 
C:\Users\CYMR90~1\AppData\Local\Temp\ccbtsgth.s:68     .text.gpio_deinit:000000000000008a .L0 
C:\Users\CYMR90~1\AppData\Local\Temp\ccbtsgth.s:71     .text.gpio_deinit:0000000000000096 .L0 
C:\Users\CYMR90~1\AppData\Local\Temp\ccbtsgth.s:74     .text.gpio_deinit:0000000000000098 .L0 
C:\Users\CYMR90~1\AppData\Local\Temp\ccbtsgth.s:77     .text.gpio_deinit:000000000000009a .L0 
C:\Users\CYMR90~1\AppData\Local\Temp\ccbtsgth.s:79     .text.gpio_deinit:000000000000009e .L0 
C:\Users\CYMR90~1\AppData\Local\Temp\ccbtsgth.s:81     .text.gpio_deinit:00000000000000a0 .L0 
C:\Users\CYMR90~1\AppData\Local\Temp\ccbtsgth.s:82     .text.gpio_deinit:00000000000000a0 .L0 
C:\Users\CYMR90~1\AppData\Local\Temp\ccbtsgth.s:84     .text.gpio_deinit:00000000000000a2 .L0 
C:\Users\CYMR90~1\AppData\Local\Temp\ccbtsgth.s:86     .text.gpio_deinit:00000000000000a4 .L0 
C:\Users\CYMR90~1\AppData\Local\Temp\ccbtsgth.s:93     .text.gpio_mode_set:0000000000000000 gpio_mode_set
C:\Users\CYMR90~1\AppData\Local\Temp\ccbtsgth.s:96     .text.gpio_mode_set:0000000000000000 .L0 
C:\Users\CYMR90~1\AppData\Local\Temp\ccbtsgth.s:97     .text.gpio_mode_set:0000000000000000 .L0 
C:\Users\CYMR90~1\AppData\Local\Temp\ccbtsgth.s:98     .text.gpio_mode_set:0000000000000002 .L0 
C:\Users\CYMR90~1\AppData\Local\Temp\ccbtsgth.s:100    .text.gpio_mode_set:0000000000000004 .L0 
C:\Users\CYMR90~1\AppData\Local\Temp\ccbtsgth.s:102    .text.gpio_mode_set:0000000000000006 .L0 
C:\Users\CYMR90~1\AppData\Local\Temp\ccbtsgth.s:108    .text.gpio_mode_set:0000000000000016 .L0 
C:\Users\CYMR90~1\AppData\Local\Temp\ccbtsgth.s:110    .text.gpio_mode_set:000000000000001a .L0 
C:\Users\CYMR90~1\AppData\Local\Temp\ccbtsgth.s:113    .text.gpio_mode_set:0000000000000020 .L0 
C:\Users\CYMR90~1\AppData\Local\Temp\ccbtsgth.s:116    .text.gpio_mode_set:0000000000000026 .L0 
C:\Users\CYMR90~1\AppData\Local\Temp\ccbtsgth.s:119    .text.gpio_mode_set:000000000000002c .L0 
C:\Users\CYMR90~1\AppData\Local\Temp\ccbtsgth.s:121    .text.gpio_mode_set:0000000000000030 .L0 
C:\Users\CYMR90~1\AppData\Local\Temp\ccbtsgth.s:124    .text.gpio_mode_set:0000000000000032 .L0 
C:\Users\CYMR90~1\AppData\Local\Temp\ccbtsgth.s:128    .text.gpio_mode_set:000000000000003c .L0 
C:\Users\CYMR90~1\AppData\Local\Temp\ccbtsgth.s:131    .text.gpio_mode_set:0000000000000042 .L0 
C:\Users\CYMR90~1\AppData\Local\Temp\ccbtsgth.s:133    .text.gpio_mode_set:0000000000000044 .L0 
C:\Users\CYMR90~1\AppData\Local\Temp\ccbtsgth.s:138    .text.gpio_mode_set:0000000000000050 .L0 
C:\Users\CYMR90~1\AppData\Local\Temp\ccbtsgth.s:140    .text.gpio_mode_set:0000000000000054 .L0 
C:\Users\CYMR90~1\AppData\Local\Temp\ccbtsgth.s:144    .text.gpio_mode_set:000000000000005e .L0 
C:\Users\CYMR90~1\AppData\Local\Temp\ccbtsgth.s:149    .text.gpio_mode_set:000000000000006c .L0 
C:\Users\CYMR90~1\AppData\Local\Temp\ccbtsgth.s:153    .text.gpio_mode_set:0000000000000076 .L0 
C:\Users\CYMR90~1\AppData\Local\Temp\ccbtsgth.s:158    .text.gpio_mode_set:0000000000000082 .L0 
C:\Users\CYMR90~1\AppData\Local\Temp\ccbtsgth.s:160    .text.gpio_mode_set:0000000000000086 .L0 
C:\Users\CYMR90~1\AppData\Local\Temp\ccbtsgth.s:164    .text.gpio_mode_set:0000000000000090 .L0 
C:\Users\CYMR90~1\AppData\Local\Temp\ccbtsgth.s:169    .text.gpio_mode_set:000000000000009e .L0 
C:\Users\CYMR90~1\AppData\Local\Temp\ccbtsgth.s:174    .text.gpio_mode_set:00000000000000a8 .L0 
C:\Users\CYMR90~1\AppData\Local\Temp\ccbtsgth.s:179    .text.gpio_mode_set:00000000000000b2 .L0 
C:\Users\CYMR90~1\AppData\Local\Temp\ccbtsgth.s:183    .text.gpio_mode_set:00000000000000bc .L0 
C:\Users\CYMR90~1\AppData\Local\Temp\ccbtsgth.s:185    .text.gpio_mode_set:00000000000000c0 .L0 
C:\Users\CYMR90~1\AppData\Local\Temp\ccbtsgth.s:188    .text.gpio_mode_set:00000000000000c6 .L0 
C:\Users\CYMR90~1\AppData\Local\Temp\ccbtsgth.s:192    .text.gpio_mode_set:00000000000000ce .L0 
C:\Users\CYMR90~1\AppData\Local\Temp\ccbtsgth.s:195    .text.gpio_mode_set:00000000000000d4 .L0 
C:\Users\CYMR90~1\AppData\Local\Temp\ccbtsgth.s:197    .text.gpio_mode_set:00000000000000d8 .L0 
C:\Users\CYMR90~1\AppData\Local\Temp\ccbtsgth.s:198    .text.gpio_mode_set:00000000000000d8 .L0 
C:\Users\CYMR90~1\AppData\Local\Temp\ccbtsgth.s:200    .text.gpio_mode_set:00000000000000da .L0 
C:\Users\CYMR90~1\AppData\Local\Temp\ccbtsgth.s:202    .text.gpio_mode_set:00000000000000dc .L0 
C:\Users\CYMR90~1\AppData\Local\Temp\ccbtsgth.s:209    .text.gpio_output_options_set:0000000000000000 gpio_output_options_set
C:\Users\CYMR90~1\AppData\Local\Temp\ccbtsgth.s:212    .text.gpio_output_options_set:0000000000000000 .L0 
C:\Users\CYMR90~1\AppData\Local\Temp\ccbtsgth.s:213    .text.gpio_output_options_set:0000000000000000 .L0 
C:\Users\CYMR90~1\AppData\Local\Temp\ccbtsgth.s:214    .text.gpio_output_options_set:0000000000000002 .L0 
C:\Users\CYMR90~1\AppData\Local\Temp\ccbtsgth.s:216    .text.gpio_output_options_set:0000000000000004 .L0 
C:\Users\CYMR90~1\AppData\Local\Temp\ccbtsgth.s:218    .text.gpio_output_options_set:0000000000000006 .L0 
C:\Users\CYMR90~1\AppData\Local\Temp\ccbtsgth.s:225    .text.gpio_output_options_set:0000000000000018 .L0 
C:\Users\CYMR90~1\AppData\Local\Temp\ccbtsgth.s:229    .text.gpio_output_options_set:0000000000000022 .L0 
C:\Users\CYMR90~1\AppData\Local\Temp\ccbtsgth.s:241    .text.gpio_output_options_set:000000000000003c .L0 
C:\Users\CYMR90~1\AppData\Local\Temp\ccbtsgth.s:245    .text.gpio_output_options_set:0000000000000044 .L0 
C:\Users\CYMR90~1\AppData\Local\Temp\ccbtsgth.s:248    .text.gpio_output_options_set:000000000000004c .L0 
C:\Users\CYMR90~1\AppData\Local\Temp\ccbtsgth.s:254    .text.gpio_output_options_set:0000000000000056 .L0 
C:\Users\CYMR90~1\AppData\Local\Temp\ccbtsgth.s:257    .text.gpio_output_options_set:000000000000005c .L0 
C:\Users\CYMR90~1\AppData\Local\Temp\ccbtsgth.s:260    .text.gpio_output_options_set:0000000000000062 .L0 
C:\Users\CYMR90~1\AppData\Local\Temp\ccbtsgth.s:262    .text.gpio_output_options_set:0000000000000066 .L0 
C:\Users\CYMR90~1\AppData\Local\Temp\ccbtsgth.s:265    .text.gpio_output_options_set:0000000000000068 .L0 
C:\Users\CYMR90~1\AppData\Local\Temp\ccbtsgth.s:269    .text.gpio_output_options_set:0000000000000072 .L0 
C:\Users\CYMR90~1\AppData\Local\Temp\ccbtsgth.s:272    .text.gpio_output_options_set:0000000000000078 .L0 
C:\Users\CYMR90~1\AppData\Local\Temp\ccbtsgth.s:274    .text.gpio_output_options_set:000000000000007a .L0 
C:\Users\CYMR90~1\AppData\Local\Temp\ccbtsgth.s:279    .text.gpio_output_options_set:0000000000000086 .L0 
C:\Users\CYMR90~1\AppData\Local\Temp\ccbtsgth.s:281    .text.gpio_output_options_set:000000000000008a .L0 
C:\Users\CYMR90~1\AppData\Local\Temp\ccbtsgth.s:285    .text.gpio_output_options_set:0000000000000094 .L0 
C:\Users\CYMR90~1\AppData\Local\Temp\ccbtsgth.s:290    .text.gpio_output_options_set:00000000000000a2 .L0 
C:\Users\CYMR90~1\AppData\Local\Temp\ccbtsgth.s:295    .text.gpio_output_options_set:00000000000000ac .L0 
C:\Users\CYMR90~1\AppData\Local\Temp\ccbtsgth.s:300    .text.gpio_output_options_set:00000000000000b6 .L0 
C:\Users\CYMR90~1\AppData\Local\Temp\ccbtsgth.s:304    .text.gpio_output_options_set:00000000000000c0 .L0 
C:\Users\CYMR90~1\AppData\Local\Temp\ccbtsgth.s:308    .text.gpio_output_options_set:00000000000000c8 .L0 
C:\Users\CYMR90~1\AppData\Local\Temp\ccbtsgth.s:311    .text.gpio_output_options_set:00000000000000ce .L0 
C:\Users\CYMR90~1\AppData\Local\Temp\ccbtsgth.s:313    .text.gpio_output_options_set:00000000000000d2 .L0 
C:\Users\CYMR90~1\AppData\Local\Temp\ccbtsgth.s:314    .text.gpio_output_options_set:00000000000000d2 .L0 
C:\Users\CYMR90~1\AppData\Local\Temp\ccbtsgth.s:316    .text.gpio_output_options_set:00000000000000d4 .L0 
C:\Users\CYMR90~1\AppData\Local\Temp\ccbtsgth.s:318    .text.gpio_output_options_set:00000000000000d6 .L0 
C:\Users\CYMR90~1\AppData\Local\Temp\ccbtsgth.s:325    .text.gpio_bit_set:0000000000000000 gpio_bit_set
C:\Users\CYMR90~1\AppData\Local\Temp\ccbtsgth.s:328    .text.gpio_bit_set:0000000000000000 .L0 
C:\Users\CYMR90~1\AppData\Local\Temp\ccbtsgth.s:329    .text.gpio_bit_set:0000000000000000 .L0 
C:\Users\CYMR90~1\AppData\Local\Temp\ccbtsgth.s:330    .text.gpio_bit_set:0000000000000002 .L0 
C:\Users\CYMR90~1\AppData\Local\Temp\ccbtsgth.s:332    .text.gpio_bit_set:0000000000000004 .L0 
C:\Users\CYMR90~1\AppData\Local\Temp\ccbtsgth.s:334    .text.gpio_bit_set:0000000000000006 .L0 
C:\Users\CYMR90~1\AppData\Local\Temp\ccbtsgth.s:338    .text.gpio_bit_set:000000000000000e .L0 
C:\Users\CYMR90~1\AppData\Local\Temp\ccbtsgth.s:342    .text.gpio_bit_set:0000000000000016 .L0 
C:\Users\CYMR90~1\AppData\Local\Temp\ccbtsgth.s:345    .text.gpio_bit_set:000000000000001c .L0 
C:\Users\CYMR90~1\AppData\Local\Temp\ccbtsgth.s:347    .text.gpio_bit_set:0000000000000020 .L0 
C:\Users\CYMR90~1\AppData\Local\Temp\ccbtsgth.s:348    .text.gpio_bit_set:0000000000000020 .L0 
C:\Users\CYMR90~1\AppData\Local\Temp\ccbtsgth.s:350    .text.gpio_bit_set:0000000000000022 .L0 
C:\Users\CYMR90~1\AppData\Local\Temp\ccbtsgth.s:352    .text.gpio_bit_set:0000000000000024 .L0 
C:\Users\CYMR90~1\AppData\Local\Temp\ccbtsgth.s:359    .text.gpio_bit_reset:0000000000000000 gpio_bit_reset
C:\Users\CYMR90~1\AppData\Local\Temp\ccbtsgth.s:362    .text.gpio_bit_reset:0000000000000000 .L0 
C:\Users\CYMR90~1\AppData\Local\Temp\ccbtsgth.s:363    .text.gpio_bit_reset:0000000000000000 .L0 
C:\Users\CYMR90~1\AppData\Local\Temp\ccbtsgth.s:364    .text.gpio_bit_reset:0000000000000002 .L0 
C:\Users\CYMR90~1\AppData\Local\Temp\ccbtsgth.s:366    .text.gpio_bit_reset:0000000000000004 .L0 
C:\Users\CYMR90~1\AppData\Local\Temp\ccbtsgth.s:368    .text.gpio_bit_reset:0000000000000006 .L0 
C:\Users\CYMR90~1\AppData\Local\Temp\ccbtsgth.s:372    .text.gpio_bit_reset:000000000000000e .L0 
C:\Users\CYMR90~1\AppData\Local\Temp\ccbtsgth.s:376    .text.gpio_bit_reset:0000000000000018 .L0 
C:\Users\CYMR90~1\AppData\Local\Temp\ccbtsgth.s:379    .text.gpio_bit_reset:000000000000001e .L0 
C:\Users\CYMR90~1\AppData\Local\Temp\ccbtsgth.s:381    .text.gpio_bit_reset:0000000000000022 .L0 
C:\Users\CYMR90~1\AppData\Local\Temp\ccbtsgth.s:382    .text.gpio_bit_reset:0000000000000022 .L0 
C:\Users\CYMR90~1\AppData\Local\Temp\ccbtsgth.s:384    .text.gpio_bit_reset:0000000000000024 .L0 
C:\Users\CYMR90~1\AppData\Local\Temp\ccbtsgth.s:386    .text.gpio_bit_reset:0000000000000026 .L0 
C:\Users\CYMR90~1\AppData\Local\Temp\ccbtsgth.s:393    .text.gpio_bit_write:0000000000000000 gpio_bit_write
C:\Users\CYMR90~1\AppData\Local\Temp\ccbtsgth.s:396    .text.gpio_bit_write:0000000000000000 .L0 
C:\Users\CYMR90~1\AppData\Local\Temp\ccbtsgth.s:397    .text.gpio_bit_write:0000000000000000 .L0 
C:\Users\CYMR90~1\AppData\Local\Temp\ccbtsgth.s:398    .text.gpio_bit_write:0000000000000002 .L0 
C:\Users\CYMR90~1\AppData\Local\Temp\ccbtsgth.s:400    .text.gpio_bit_write:0000000000000004 .L0 
C:\Users\CYMR90~1\AppData\Local\Temp\ccbtsgth.s:402    .text.gpio_bit_write:0000000000000006 .L0 
C:\Users\CYMR90~1\AppData\Local\Temp\ccbtsgth.s:407    .text.gpio_bit_write:0000000000000012 .L0 
C:\Users\CYMR90~1\AppData\Local\Temp\ccbtsgth.s:410    .text.gpio_bit_write:0000000000000018 .L0 
C:\Users\CYMR90~1\AppData\Local\Temp\ccbtsgth.s:414    .text.gpio_bit_write:0000000000000020 .L0 
C:\Users\CYMR90~1\AppData\Local\Temp\ccbtsgth.s:417    .text.gpio_bit_write:0000000000000026 .L0 
C:\Users\CYMR90~1\AppData\Local\Temp\ccbtsgth.s:420    .text.gpio_bit_write:0000000000000028 .L0 
C:\Users\CYMR90~1\AppData\Local\Temp\ccbtsgth.s:424    .text.gpio_bit_write:0000000000000032 .L0 
C:\Users\CYMR90~1\AppData\Local\Temp\ccbtsgth.s:428    .text.gpio_bit_write:0000000000000038 .L0 
C:\Users\CYMR90~1\AppData\Local\Temp\ccbtsgth.s:430    .text.gpio_bit_write:000000000000003c .L0 
C:\Users\CYMR90~1\AppData\Local\Temp\ccbtsgth.s:431    .text.gpio_bit_write:000000000000003c .L0 
C:\Users\CYMR90~1\AppData\Local\Temp\ccbtsgth.s:433    .text.gpio_bit_write:000000000000003e .L0 
C:\Users\CYMR90~1\AppData\Local\Temp\ccbtsgth.s:435    .text.gpio_bit_write:0000000000000040 .L0 
C:\Users\CYMR90~1\AppData\Local\Temp\ccbtsgth.s:442    .text.gpio_port_write:0000000000000000 gpio_port_write
C:\Users\CYMR90~1\AppData\Local\Temp\ccbtsgth.s:445    .text.gpio_port_write:0000000000000000 .L0 
C:\Users\CYMR90~1\AppData\Local\Temp\ccbtsgth.s:446    .text.gpio_port_write:0000000000000000 .L0 
C:\Users\CYMR90~1\AppData\Local\Temp\ccbtsgth.s:447    .text.gpio_port_write:0000000000000002 .L0 
C:\Users\CYMR90~1\AppData\Local\Temp\ccbtsgth.s:449    .text.gpio_port_write:0000000000000004 .L0 
C:\Users\CYMR90~1\AppData\Local\Temp\ccbtsgth.s:451    .text.gpio_port_write:0000000000000006 .L0 
C:\Users\CYMR90~1\AppData\Local\Temp\ccbtsgth.s:456    .text.gpio_port_write:0000000000000010 .L0 
C:\Users\CYMR90~1\AppData\Local\Temp\ccbtsgth.s:460    .text.gpio_port_write:0000000000000018 .L0 
C:\Users\CYMR90~1\AppData\Local\Temp\ccbtsgth.s:462    .text.gpio_port_write:000000000000001c .L0 
C:\Users\CYMR90~1\AppData\Local\Temp\ccbtsgth.s:464    .text.gpio_port_write:000000000000001e .L0 
C:\Users\CYMR90~1\AppData\Local\Temp\ccbtsgth.s:466    .text.gpio_port_write:0000000000000022 .L0 
C:\Users\CYMR90~1\AppData\Local\Temp\ccbtsgth.s:467    .text.gpio_port_write:0000000000000022 .L0 
C:\Users\CYMR90~1\AppData\Local\Temp\ccbtsgth.s:469    .text.gpio_port_write:0000000000000024 .L0 
C:\Users\CYMR90~1\AppData\Local\Temp\ccbtsgth.s:471    .text.gpio_port_write:0000000000000026 .L0 
C:\Users\CYMR90~1\AppData\Local\Temp\ccbtsgth.s:478    .text.gpio_input_bit_get:0000000000000000 gpio_input_bit_get
C:\Users\CYMR90~1\AppData\Local\Temp\ccbtsgth.s:481    .text.gpio_input_bit_get:0000000000000000 .L0 
C:\Users\CYMR90~1\AppData\Local\Temp\ccbtsgth.s:482    .text.gpio_input_bit_get:0000000000000000 .L0 
C:\Users\CYMR90~1\AppData\Local\Temp\ccbtsgth.s:483    .text.gpio_input_bit_get:0000000000000002 .L0 
C:\Users\CYMR90~1\AppData\Local\Temp\ccbtsgth.s:485    .text.gpio_input_bit_get:0000000000000004 .L0 
C:\Users\CYMR90~1\AppData\Local\Temp\ccbtsgth.s:487    .text.gpio_input_bit_get:0000000000000006 .L0 
C:\Users\CYMR90~1\AppData\Local\Temp\ccbtsgth.s:491    .text.gpio_input_bit_get:000000000000000e .L0 
C:\Users\CYMR90~1\AppData\Local\Temp\ccbtsgth.s:495    .text.gpio_input_bit_get:0000000000000016 .L0 
C:\Users\CYMR90~1\AppData\Local\Temp\ccbtsgth.s:498    .text.gpio_input_bit_get:000000000000001c .L0 
C:\Users\CYMR90~1\AppData\Local\Temp\ccbtsgth.s:500    .text.gpio_input_bit_get:000000000000001e .L0 
C:\Users\CYMR90~1\AppData\Local\Temp\ccbtsgth.s:504    .text.gpio_input_bit_get:0000000000000022 .L0 
C:\Users\CYMR90~1\AppData\Local\Temp\ccbtsgth.s:507    .text.gpio_input_bit_get:0000000000000024 .L0 
C:\Users\CYMR90~1\AppData\Local\Temp\ccbtsgth.s:509    .text.gpio_input_bit_get:0000000000000028 .L0 
C:\Users\CYMR90~1\AppData\Local\Temp\ccbtsgth.s:510    .text.gpio_input_bit_get:0000000000000028 .L0 
C:\Users\CYMR90~1\AppData\Local\Temp\ccbtsgth.s:512    .text.gpio_input_bit_get:000000000000002a .L0 
C:\Users\CYMR90~1\AppData\Local\Temp\ccbtsgth.s:514    .text.gpio_input_bit_get:000000000000002c .L0 
C:\Users\CYMR90~1\AppData\Local\Temp\ccbtsgth.s:521    .text.gpio_input_port_get:0000000000000000 gpio_input_port_get
C:\Users\CYMR90~1\AppData\Local\Temp\ccbtsgth.s:524    .text.gpio_input_port_get:0000000000000000 .L0 
C:\Users\CYMR90~1\AppData\Local\Temp\ccbtsgth.s:525    .text.gpio_input_port_get:0000000000000000 .L0 
C:\Users\CYMR90~1\AppData\Local\Temp\ccbtsgth.s:526    .text.gpio_input_port_get:0000000000000002 .L0 
C:\Users\CYMR90~1\AppData\Local\Temp\ccbtsgth.s:528    .text.gpio_input_port_get:0000000000000004 .L0 
C:\Users\CYMR90~1\AppData\Local\Temp\ccbtsgth.s:530    .text.gpio_input_port_get:0000000000000006 .L0 
C:\Users\CYMR90~1\AppData\Local\Temp\ccbtsgth.s:533    .text.gpio_input_port_get:000000000000000a .L0 
C:\Users\CYMR90~1\AppData\Local\Temp\ccbtsgth.s:537    .text.gpio_input_port_get:0000000000000012 .L0 
C:\Users\CYMR90~1\AppData\Local\Temp\ccbtsgth.s:540    .text.gpio_input_port_get:0000000000000016 .L0 
C:\Users\CYMR90~1\AppData\Local\Temp\ccbtsgth.s:542    .text.gpio_input_port_get:000000000000001a .L0 
C:\Users\CYMR90~1\AppData\Local\Temp\ccbtsgth.s:543    .text.gpio_input_port_get:000000000000001a .L0 
C:\Users\CYMR90~1\AppData\Local\Temp\ccbtsgth.s:545    .text.gpio_input_port_get:000000000000001c .L0 
C:\Users\CYMR90~1\AppData\Local\Temp\ccbtsgth.s:547    .text.gpio_input_port_get:000000000000001e .L0 
C:\Users\CYMR90~1\AppData\Local\Temp\ccbtsgth.s:554    .text.gpio_output_bit_get:0000000000000000 gpio_output_bit_get
C:\Users\CYMR90~1\AppData\Local\Temp\ccbtsgth.s:557    .text.gpio_output_bit_get:0000000000000000 .L0 
C:\Users\CYMR90~1\AppData\Local\Temp\ccbtsgth.s:558    .text.gpio_output_bit_get:0000000000000000 .L0 
C:\Users\CYMR90~1\AppData\Local\Temp\ccbtsgth.s:559    .text.gpio_output_bit_get:0000000000000002 .L0 
C:\Users\CYMR90~1\AppData\Local\Temp\ccbtsgth.s:561    .text.gpio_output_bit_get:0000000000000004 .L0 
C:\Users\CYMR90~1\AppData\Local\Temp\ccbtsgth.s:563    .text.gpio_output_bit_get:0000000000000006 .L0 
C:\Users\CYMR90~1\AppData\Local\Temp\ccbtsgth.s:567    .text.gpio_output_bit_get:000000000000000e .L0 
C:\Users\CYMR90~1\AppData\Local\Temp\ccbtsgth.s:571    .text.gpio_output_bit_get:0000000000000016 .L0 
C:\Users\CYMR90~1\AppData\Local\Temp\ccbtsgth.s:574    .text.gpio_output_bit_get:000000000000001c .L0 
C:\Users\CYMR90~1\AppData\Local\Temp\ccbtsgth.s:576    .text.gpio_output_bit_get:000000000000001e .L0 
C:\Users\CYMR90~1\AppData\Local\Temp\ccbtsgth.s:580    .text.gpio_output_bit_get:0000000000000022 .L0 
C:\Users\CYMR90~1\AppData\Local\Temp\ccbtsgth.s:583    .text.gpio_output_bit_get:0000000000000024 .L0 
C:\Users\CYMR90~1\AppData\Local\Temp\ccbtsgth.s:585    .text.gpio_output_bit_get:0000000000000028 .L0 
C:\Users\CYMR90~1\AppData\Local\Temp\ccbtsgth.s:586    .text.gpio_output_bit_get:0000000000000028 .L0 
C:\Users\CYMR90~1\AppData\Local\Temp\ccbtsgth.s:588    .text.gpio_output_bit_get:000000000000002a .L0 
C:\Users\CYMR90~1\AppData\Local\Temp\ccbtsgth.s:590    .text.gpio_output_bit_get:000000000000002c .L0 
C:\Users\CYMR90~1\AppData\Local\Temp\ccbtsgth.s:597    .text.gpio_output_port_get:0000000000000000 gpio_output_port_get
C:\Users\CYMR90~1\AppData\Local\Temp\ccbtsgth.s:600    .text.gpio_output_port_get:0000000000000000 .L0 
C:\Users\CYMR90~1\AppData\Local\Temp\ccbtsgth.s:601    .text.gpio_output_port_get:0000000000000000 .L0 
C:\Users\CYMR90~1\AppData\Local\Temp\ccbtsgth.s:602    .text.gpio_output_port_get:0000000000000002 .L0 
C:\Users\CYMR90~1\AppData\Local\Temp\ccbtsgth.s:604    .text.gpio_output_port_get:0000000000000004 .L0 
C:\Users\CYMR90~1\AppData\Local\Temp\ccbtsgth.s:606    .text.gpio_output_port_get:0000000000000006 .L0 
C:\Users\CYMR90~1\AppData\Local\Temp\ccbtsgth.s:609    .text.gpio_output_port_get:000000000000000a .L0 
C:\Users\CYMR90~1\AppData\Local\Temp\ccbtsgth.s:613    .text.gpio_output_port_get:0000000000000012 .L0 
C:\Users\CYMR90~1\AppData\Local\Temp\ccbtsgth.s:616    .text.gpio_output_port_get:0000000000000016 .L0 
C:\Users\CYMR90~1\AppData\Local\Temp\ccbtsgth.s:618    .text.gpio_output_port_get:000000000000001a .L0 
C:\Users\CYMR90~1\AppData\Local\Temp\ccbtsgth.s:619    .text.gpio_output_port_get:000000000000001a .L0 
C:\Users\CYMR90~1\AppData\Local\Temp\ccbtsgth.s:621    .text.gpio_output_port_get:000000000000001c .L0 
C:\Users\CYMR90~1\AppData\Local\Temp\ccbtsgth.s:623    .text.gpio_output_port_get:000000000000001e .L0 
C:\Users\CYMR90~1\AppData\Local\Temp\ccbtsgth.s:630    .text.gpio_af_set:0000000000000000 gpio_af_set
C:\Users\CYMR90~1\AppData\Local\Temp\ccbtsgth.s:633    .text.gpio_af_set:0000000000000000 .L0 
C:\Users\CYMR90~1\AppData\Local\Temp\ccbtsgth.s:634    .text.gpio_af_set:0000000000000000 .L0 
C:\Users\CYMR90~1\AppData\Local\Temp\ccbtsgth.s:635    .text.gpio_af_set:0000000000000002 .L0 
C:\Users\CYMR90~1\AppData\Local\Temp\ccbtsgth.s:637    .text.gpio_af_set:0000000000000004 .L0 
C:\Users\CYMR90~1\AppData\Local\Temp\ccbtsgth.s:639    .text.gpio_af_set:0000000000000006 .L0 
C:\Users\CYMR90~1\AppData\Local\Temp\ccbtsgth.s:644    .text.gpio_af_set:0000000000000012 .L0 
C:\Users\CYMR90~1\AppData\Local\Temp\ccbtsgth.s:647    .text.gpio_af_set:000000000000001a .L0 
C:\Users\CYMR90~1\AppData\Local\Temp\ccbtsgth.s:650    .text.gpio_af_set:0000000000000020 .L0 
C:\Users\CYMR90~1\AppData\Local\Temp\ccbtsgth.s:653    .text.gpio_af_set:0000000000000028 .L0 
C:\Users\CYMR90~1\AppData\Local\Temp\ccbtsgth.s:656    .text.gpio_af_set:000000000000002e .L0 
C:\Users\CYMR90~1\AppData\Local\Temp\ccbtsgth.s:658    .text.gpio_af_set:0000000000000032 .L0 
C:\Users\CYMR90~1\AppData\Local\Temp\ccbtsgth.s:661    .text.gpio_af_set:0000000000000034 .L0 
C:\Users\CYMR90~1\AppData\Local\Temp\ccbtsgth.s:665    .text.gpio_af_set:000000000000003e .L0 
C:\Users\CYMR90~1\AppData\Local\Temp\ccbtsgth.s:668    .text.gpio_af_set:0000000000000044 .L0 
C:\Users\CYMR90~1\AppData\Local\Temp\ccbtsgth.s:670    .text.gpio_af_set:0000000000000046 .L0 
C:\Users\CYMR90~1\AppData\Local\Temp\ccbtsgth.s:675    .text.gpio_af_set:0000000000000052 .L0 
C:\Users\CYMR90~1\AppData\Local\Temp\ccbtsgth.s:677    .text.gpio_af_set:0000000000000056 .L0 
C:\Users\CYMR90~1\AppData\Local\Temp\ccbtsgth.s:681    .text.gpio_af_set:0000000000000060 .L0 
C:\Users\CYMR90~1\AppData\Local\Temp\ccbtsgth.s:686    .text.gpio_af_set:000000000000006e .L0 
C:\Users\CYMR90~1\AppData\Local\Temp\ccbtsgth.s:691    .text.gpio_af_set:0000000000000078 .L0 
C:\Users\CYMR90~1\AppData\Local\Temp\ccbtsgth.s:696    .text.gpio_af_set:0000000000000082 .L0 
C:\Users\CYMR90~1\AppData\Local\Temp\ccbtsgth.s:700    .text.gpio_af_set:000000000000008c .L0 
C:\Users\CYMR90~1\AppData\Local\Temp\ccbtsgth.s:703    .text.gpio_af_set:0000000000000092 .L0 
C:\Users\CYMR90~1\AppData\Local\Temp\ccbtsgth.s:706    .text.gpio_af_set:0000000000000094 .L0 
C:\Users\CYMR90~1\AppData\Local\Temp\ccbtsgth.s:710    .text.gpio_af_set:000000000000009e .L0 
C:\Users\CYMR90~1\AppData\Local\Temp\ccbtsgth.s:713    .text.gpio_af_set:00000000000000a4 .L0 
C:\Users\CYMR90~1\AppData\Local\Temp\ccbtsgth.s:715    .text.gpio_af_set:00000000000000a6 .L0 
C:\Users\CYMR90~1\AppData\Local\Temp\ccbtsgth.s:721    .text.gpio_af_set:00000000000000b4 .L0 
C:\Users\CYMR90~1\AppData\Local\Temp\ccbtsgth.s:723    .text.gpio_af_set:00000000000000b8 .L0 
C:\Users\CYMR90~1\AppData\Local\Temp\ccbtsgth.s:727    .text.gpio_af_set:00000000000000c2 .L0 
C:\Users\CYMR90~1\AppData\Local\Temp\ccbtsgth.s:733    .text.gpio_af_set:00000000000000d2 .L0 
C:\Users\CYMR90~1\AppData\Local\Temp\ccbtsgth.s:738    .text.gpio_af_set:00000000000000dc .L0 
C:\Users\CYMR90~1\AppData\Local\Temp\ccbtsgth.s:743    .text.gpio_af_set:00000000000000e6 .L0 
C:\Users\CYMR90~1\AppData\Local\Temp\ccbtsgth.s:747    .text.gpio_af_set:00000000000000f0 .L0 
C:\Users\CYMR90~1\AppData\Local\Temp\ccbtsgth.s:751    .text.gpio_af_set:00000000000000fa .L0 
C:\Users\CYMR90~1\AppData\Local\Temp\ccbtsgth.s:754    .text.gpio_af_set:0000000000000100 .L0 
C:\Users\CYMR90~1\AppData\Local\Temp\ccbtsgth.s:758    .text.gpio_af_set:000000000000010a .L0 
C:\Users\CYMR90~1\AppData\Local\Temp\ccbtsgth.s:761    .text.gpio_af_set:0000000000000110 .L0 
C:\Users\CYMR90~1\AppData\Local\Temp\ccbtsgth.s:763    .text.gpio_af_set:0000000000000114 .L0 
C:\Users\CYMR90~1\AppData\Local\Temp\ccbtsgth.s:764    .text.gpio_af_set:0000000000000114 .L0 
C:\Users\CYMR90~1\AppData\Local\Temp\ccbtsgth.s:766    .text.gpio_af_set:0000000000000116 .L0 
C:\Users\CYMR90~1\AppData\Local\Temp\ccbtsgth.s:768    .text.gpio_af_set:0000000000000118 .L0 
C:\Users\CYMR90~1\AppData\Local\Temp\ccbtsgth.s:775    .text.gpio_pin_lock:0000000000000000 gpio_pin_lock
C:\Users\CYMR90~1\AppData\Local\Temp\ccbtsgth.s:778    .text.gpio_pin_lock:0000000000000000 .L0 
C:\Users\CYMR90~1\AppData\Local\Temp\ccbtsgth.s:779    .text.gpio_pin_lock:0000000000000000 .L0 
C:\Users\CYMR90~1\AppData\Local\Temp\ccbtsgth.s:780    .text.gpio_pin_lock:0000000000000002 .L0 
C:\Users\CYMR90~1\AppData\Local\Temp\ccbtsgth.s:782    .text.gpio_pin_lock:0000000000000004 .L0 
C:\Users\CYMR90~1\AppData\Local\Temp\ccbtsgth.s:784    .text.gpio_pin_lock:0000000000000006 .L0 
C:\Users\CYMR90~1\AppData\Local\Temp\ccbtsgth.s:788    .text.gpio_pin_lock:000000000000000e .L0 
C:\Users\CYMR90~1\AppData\Local\Temp\ccbtsgth.s:791    .text.gpio_pin_lock:0000000000000014 .L0 
C:\Users\CYMR90~1\AppData\Local\Temp\ccbtsgth.s:796    .text.gpio_pin_lock:0000000000000022 .L0 
C:\Users\CYMR90~1\AppData\Local\Temp\ccbtsgth.s:800    .text.gpio_pin_lock:000000000000002a .L0 
C:\Users\CYMR90~1\AppData\Local\Temp\ccbtsgth.s:803    .text.gpio_pin_lock:0000000000000030 .L0 
C:\Users\CYMR90~1\AppData\Local\Temp\ccbtsgth.s:807    .text.gpio_pin_lock:0000000000000038 .L0 
C:\Users\CYMR90~1\AppData\Local\Temp\ccbtsgth.s:810    .text.gpio_pin_lock:000000000000003e .L0 
C:\Users\CYMR90~1\AppData\Local\Temp\ccbtsgth.s:814    .text.gpio_pin_lock:0000000000000046 .L0 
C:\Users\CYMR90~1\AppData\Local\Temp\ccbtsgth.s:817    .text.gpio_pin_lock:000000000000004c .L0 
C:\Users\CYMR90~1\AppData\Local\Temp\ccbtsgth.s:820    .text.gpio_pin_lock:0000000000000052 .L0 
C:\Users\CYMR90~1\AppData\Local\Temp\ccbtsgth.s:823    .text.gpio_pin_lock:0000000000000058 .L0 
C:\Users\CYMR90~1\AppData\Local\Temp\ccbtsgth.s:826    .text.gpio_pin_lock:000000000000005e .L0 
C:\Users\CYMR90~1\AppData\Local\Temp\ccbtsgth.s:829    .text.gpio_pin_lock:0000000000000064 .L0 
C:\Users\CYMR90~1\AppData\Local\Temp\ccbtsgth.s:831    .text.gpio_pin_lock:0000000000000068 .L0 
C:\Users\CYMR90~1\AppData\Local\Temp\ccbtsgth.s:832    .text.gpio_pin_lock:0000000000000068 .L0 
C:\Users\CYMR90~1\AppData\Local\Temp\ccbtsgth.s:834    .text.gpio_pin_lock:000000000000006a .L0 
C:\Users\CYMR90~1\AppData\Local\Temp\ccbtsgth.s:836    .text.gpio_pin_lock:000000000000006c .L0 
C:\Users\CYMR90~1\AppData\Local\Temp\ccbtsgth.s:843    .text.gpio_bit_toggle:0000000000000000 gpio_bit_toggle
C:\Users\CYMR90~1\AppData\Local\Temp\ccbtsgth.s:846    .text.gpio_bit_toggle:0000000000000000 .L0 
C:\Users\CYMR90~1\AppData\Local\Temp\ccbtsgth.s:847    .text.gpio_bit_toggle:0000000000000000 .L0 
C:\Users\CYMR90~1\AppData\Local\Temp\ccbtsgth.s:848    .text.gpio_bit_toggle:0000000000000002 .L0 
C:\Users\CYMR90~1\AppData\Local\Temp\ccbtsgth.s:850    .text.gpio_bit_toggle:0000000000000004 .L0 
C:\Users\CYMR90~1\AppData\Local\Temp\ccbtsgth.s:852    .text.gpio_bit_toggle:0000000000000006 .L0 
C:\Users\CYMR90~1\AppData\Local\Temp\ccbtsgth.s:856    .text.gpio_bit_toggle:000000000000000e .L0 
C:\Users\CYMR90~1\AppData\Local\Temp\ccbtsgth.s:860    .text.gpio_bit_toggle:0000000000000018 .L0 
C:\Users\CYMR90~1\AppData\Local\Temp\ccbtsgth.s:863    .text.gpio_bit_toggle:000000000000001e .L0 
C:\Users\CYMR90~1\AppData\Local\Temp\ccbtsgth.s:865    .text.gpio_bit_toggle:0000000000000022 .L0 
C:\Users\CYMR90~1\AppData\Local\Temp\ccbtsgth.s:866    .text.gpio_bit_toggle:0000000000000022 .L0 
C:\Users\CYMR90~1\AppData\Local\Temp\ccbtsgth.s:868    .text.gpio_bit_toggle:0000000000000024 .L0 
C:\Users\CYMR90~1\AppData\Local\Temp\ccbtsgth.s:870    .text.gpio_bit_toggle:0000000000000026 .L0 
C:\Users\CYMR90~1\AppData\Local\Temp\ccbtsgth.s:877    .text.gpio_port_toggle:0000000000000000 gpio_port_toggle
C:\Users\CYMR90~1\AppData\Local\Temp\ccbtsgth.s:880    .text.gpio_port_toggle:0000000000000000 .L0 
C:\Users\CYMR90~1\AppData\Local\Temp\ccbtsgth.s:881    .text.gpio_port_toggle:0000000000000000 .L0 
C:\Users\CYMR90~1\AppData\Local\Temp\ccbtsgth.s:882    .text.gpio_port_toggle:0000000000000002 .L0 
C:\Users\CYMR90~1\AppData\Local\Temp\ccbtsgth.s:884    .text.gpio_port_toggle:0000000000000004 .L0 
C:\Users\CYMR90~1\AppData\Local\Temp\ccbtsgth.s:886    .text.gpio_port_toggle:0000000000000006 .L0 
C:\Users\CYMR90~1\AppData\Local\Temp\ccbtsgth.s:889    .text.gpio_port_toggle:000000000000000a .L0 
C:\Users\CYMR90~1\AppData\Local\Temp\ccbtsgth.s:893    .text.gpio_port_toggle:0000000000000014 .L0 
C:\Users\CYMR90~1\AppData\Local\Temp\ccbtsgth.s:897    .text.gpio_port_toggle:000000000000001a .L0 
C:\Users\CYMR90~1\AppData\Local\Temp\ccbtsgth.s:899    .text.gpio_port_toggle:000000000000001e .L0 
C:\Users\CYMR90~1\AppData\Local\Temp\ccbtsgth.s:900    .text.gpio_port_toggle:000000000000001e .L0 
C:\Users\CYMR90~1\AppData\Local\Temp\ccbtsgth.s:902    .text.gpio_port_toggle:0000000000000020 .L0 
C:\Users\CYMR90~1\AppData\Local\Temp\ccbtsgth.s:904    .text.gpio_port_toggle:0000000000000022 .L0 
C:\Users\CYMR90~1\AppData\Local\Temp\ccbtsgth.s:89     .text.gpio_deinit:00000000000000a4 .L0 
C:\Users\CYMR90~1\AppData\Local\Temp\ccbtsgth.s:205    .text.gpio_mode_set:00000000000000dc .L0 
C:\Users\CYMR90~1\AppData\Local\Temp\ccbtsgth.s:321    .text.gpio_output_options_set:00000000000000d6 .L0 
C:\Users\CYMR90~1\AppData\Local\Temp\ccbtsgth.s:355    .text.gpio_bit_set:0000000000000024 .L0 
C:\Users\CYMR90~1\AppData\Local\Temp\ccbtsgth.s:389    .text.gpio_bit_reset:0000000000000026 .L0 
C:\Users\CYMR90~1\AppData\Local\Temp\ccbtsgth.s:438    .text.gpio_bit_write:0000000000000040 .L0 
C:\Users\CYMR90~1\AppData\Local\Temp\ccbtsgth.s:474    .text.gpio_port_write:0000000000000026 .L0 
C:\Users\CYMR90~1\AppData\Local\Temp\ccbtsgth.s:517    .text.gpio_input_bit_get:000000000000002c .L0 
C:\Users\CYMR90~1\AppData\Local\Temp\ccbtsgth.s:550    .text.gpio_input_port_get:000000000000001e .L0 
C:\Users\CYMR90~1\AppData\Local\Temp\ccbtsgth.s:593    .text.gpio_output_bit_get:000000000000002c .L0 
C:\Users\CYMR90~1\AppData\Local\Temp\ccbtsgth.s:626    .text.gpio_output_port_get:000000000000001e .L0 
C:\Users\CYMR90~1\AppData\Local\Temp\ccbtsgth.s:771    .text.gpio_af_set:0000000000000118 .L0 
C:\Users\CYMR90~1\AppData\Local\Temp\ccbtsgth.s:839    .text.gpio_pin_lock:000000000000006c .L0 
C:\Users\CYMR90~1\AppData\Local\Temp\ccbtsgth.s:873    .text.gpio_bit_toggle:0000000000000026 .L0 
C:\Users\CYMR90~1\AppData\Local\Temp\ccbtsgth.s:907    .text.gpio_port_toggle:0000000000000022 .L0 
                     .debug_frame:0000000000000000 .L0 
C:\Users\CYMR90~1\AppData\Local\Temp\ccbtsgth.s:63     .text.gpio_deinit:000000000000007e .L2
C:\Users\CYMR90~1\AppData\Local\Temp\ccbtsgth.s:72     .text.gpio_deinit:0000000000000098 .L7
C:\Users\CYMR90~1\AppData\Local\Temp\ccbtsgth.s:45     .text.gpio_deinit:000000000000004a .L4
C:\Users\CYMR90~1\AppData\Local\Temp\ccbtsgth.s:54     .text.gpio_deinit:0000000000000064 .L5
C:\Users\CYMR90~1\AppData\Local\Temp\ccbtsgth.s:75     .text.gpio_deinit:000000000000009a .L6
C:\Users\CYMR90~1\AppData\Local\Temp\ccbtsgth.s:177    .text.gpio_mode_set:00000000000000b2 .L9
C:\Users\CYMR90~1\AppData\Local\Temp\ccbtsgth.s:172    .text.gpio_mode_set:00000000000000a8 .L10
C:\Users\CYMR90~1\AppData\Local\Temp\ccbtsgth.s:122    .text.gpio_mode_set:0000000000000032 .L11
C:\Users\CYMR90~1\AppData\Local\Temp\ccbtsgth.s:239    .text.gpio_output_options_set:000000000000003c .L13
C:\Users\CYMR90~1\AppData\Local\Temp\ccbtsgth.s:252    .text.gpio_output_options_set:0000000000000056 .L14
C:\Users\CYMR90~1\AppData\Local\Temp\ccbtsgth.s:298    .text.gpio_output_options_set:00000000000000b6 .L15
C:\Users\CYMR90~1\AppData\Local\Temp\ccbtsgth.s:293    .text.gpio_output_options_set:00000000000000ac .L16
C:\Users\CYMR90~1\AppData\Local\Temp\ccbtsgth.s:263    .text.gpio_output_options_set:0000000000000068 .L17
C:\Users\CYMR90~1\AppData\Local\Temp\ccbtsgth.s:418    .text.gpio_bit_write:0000000000000028 .L21
C:\Users\CYMR90~1\AppData\Local\Temp\ccbtsgth.s:426    .text.gpio_bit_write:0000000000000038 .L23
C:\Users\CYMR90~1\AppData\Local\Temp\ccbtsgth.s:502    .text.gpio_input_bit_get:0000000000000022 .L26
C:\Users\CYMR90~1\AppData\Local\Temp\ccbtsgth.s:505    .text.gpio_input_bit_get:0000000000000024 .L27
C:\Users\CYMR90~1\AppData\Local\Temp\ccbtsgth.s:578    .text.gpio_output_bit_get:0000000000000022 .L31
C:\Users\CYMR90~1\AppData\Local\Temp\ccbtsgth.s:581    .text.gpio_output_bit_get:0000000000000024 .L32
C:\Users\CYMR90~1\AppData\Local\Temp\ccbtsgth.s:694    .text.gpio_af_set:0000000000000082 .L36
C:\Users\CYMR90~1\AppData\Local\Temp\ccbtsgth.s:689    .text.gpio_af_set:0000000000000078 .L37
C:\Users\CYMR90~1\AppData\Local\Temp\ccbtsgth.s:659    .text.gpio_af_set:0000000000000034 .L38
C:\Users\CYMR90~1\AppData\Local\Temp\ccbtsgth.s:741    .text.gpio_af_set:00000000000000e6 .L39
C:\Users\CYMR90~1\AppData\Local\Temp\ccbtsgth.s:736    .text.gpio_af_set:00000000000000dc .L40
C:\Users\CYMR90~1\AppData\Local\Temp\ccbtsgth.s:704    .text.gpio_af_set:0000000000000094 .L41
C:\Users\CYMR90~1\AppData\Local\Temp\ccbtsgth.s:1678   .debug_abbrev:0000000000000000 .Ldebug_abbrev0
C:\Users\CYMR90~1\AppData\Local\Temp\ccbtsgth.s:22539  .debug_str:000000000000af3f .LASF5632
C:\Users\CYMR90~1\AppData\Local\Temp\ccbtsgth.s:28848  .debug_str:000000000002405d .LASF5633
C:\Users\CYMR90~1\AppData\Local\Temp\ccbtsgth.s:25435  .debug_str:00000000000167bf .LASF5634
C:\Users\CYMR90~1\AppData\Local\Temp\ccbtsgth.s:2132   .debug_ranges:0000000000000000 .Ldebug_ranges0
C:\Users\CYMR90~1\AppData\Local\Temp\ccbtsgth.s:19801  .debug_line:0000000000000000 .Ldebug_line0
C:\Users\CYMR90~1\AppData\Local\Temp\ccbtsgth.s:2166   .debug_macro:0000000000000000 .Ldebug_macro0
C:\Users\CYMR90~1\AppData\Local\Temp\ccbtsgth.s:31034  .debug_str:000000000002ce04 .LASF5556
C:\Users\CYMR90~1\AppData\Local\Temp\ccbtsgth.s:19819  .debug_str:0000000000000123 .LASF5557
C:\Users\CYMR90~1\AppData\Local\Temp\ccbtsgth.s:20719  .debug_str:00000000000039c5 .LASF5558
C:\Users\CYMR90~1\AppData\Local\Temp\ccbtsgth.s:25896  .debug_str:00000000000186ee .LASF5559
C:\Users\CYMR90~1\AppData\Local\Temp\ccbtsgth.s:22017  .debug_str:0000000000008d86 .LASF5562
C:\Users\CYMR90~1\AppData\Local\Temp\ccbtsgth.s:25343  .debug_str:00000000000161c4 .LASF5560
C:\Users\CYMR90~1\AppData\Local\Temp\ccbtsgth.s:27232  .debug_str:000000000001dedd .LASF5561
C:\Users\CYMR90~1\AppData\Local\Temp\ccbtsgth.s:23333  .debug_str:000000000000e2e1 .LASF5563
C:\Users\CYMR90~1\AppData\Local\Temp\ccbtsgth.s:28844  .debug_str:0000000000024018 .LASF5564
C:\Users\CYMR90~1\AppData\Local\Temp\ccbtsgth.s:27644  .debug_str:000000000001f789 .LASF5565
C:\Users\CYMR90~1\AppData\Local\Temp\ccbtsgth.s:26112  .debug_str:0000000000019575 .LASF5566
C:\Users\CYMR90~1\AppData\Local\Temp\ccbtsgth.s:19937  .debug_str:0000000000000836 .LASF5567
C:\Users\CYMR90~1\AppData\Local\Temp\ccbtsgth.s:29192  .debug_str:0000000000025866 .LASF5568
C:\Users\CYMR90~1\AppData\Local\Temp\ccbtsgth.s:27666  .debug_str:000000000001f8f3 .LASF855
C:\Users\CYMR90~1\AppData\Local\Temp\ccbtsgth.s:25105  .debug_str:00000000000152cb .LASF5569
C:\Users\CYMR90~1\AppData\Local\Temp\ccbtsgth.s:29124  .debug_str:000000000002536c .LASF5570
C:\Users\CYMR90~1\AppData\Local\Temp\ccbtsgth.s:20597  .debug_str:00000000000031d3 .LASF5571
C:\Users\CYMR90~1\AppData\Local\Temp\ccbtsgth.s:28884  .debug_str:00000000000242e7 .LASF5572
C:\Users\CYMR90~1\AppData\Local\Temp\ccbtsgth.s:22389  .debug_str:000000000000a4f4 .LASF5573
C:\Users\CYMR90~1\AppData\Local\Temp\ccbtsgth.s:22549  .debug_str:000000000000b084 .LASF5574
C:\Users\CYMR90~1\AppData\Local\Temp\ccbtsgth.s:30046  .debug_str:0000000000028f07 .LASF5575
C:\Users\CYMR90~1\AppData\Local\Temp\ccbtsgth.s:27428  .debug_str:000000000001eab6 .LASF5576
C:\Users\CYMR90~1\AppData\Local\Temp\ccbtsgth.s:28252  .debug_str:0000000000021d07 .LASF5577
C:\Users\CYMR90~1\AppData\Local\Temp\ccbtsgth.s:31014  .debug_str:000000000002ccd2 .LASF5578
C:\Users\CYMR90~1\AppData\Local\Temp\ccbtsgth.s:29472  .debug_str:000000000002697c .LASF5579
C:\Users\CYMR90~1\AppData\Local\Temp\ccbtsgth.s:21723  .debug_str:00000000000079a2 .LASF5580
C:\Users\CYMR90~1\AppData\Local\Temp\ccbtsgth.s:25255  .debug_str:0000000000015c5e .LASF5581
C:\Users\CYMR90~1\AppData\Local\Temp\ccbtsgth.s:20571  .debug_str:0000000000002ffd .LASF5582
C:\Users\CYMR90~1\AppData\Local\Temp\ccbtsgth.s:23903  .debug_str:0000000000010642 .LASF5583
C:\Users\CYMR90~1\AppData\Local\Temp\ccbtsgth.s:29374  .debug_str:0000000000026396 .LASF5584
C:\Users\CYMR90~1\AppData\Local\Temp\ccbtsgth.s:21625  .debug_str:000000000000732e .LASF5585
C:\Users\CYMR90~1\AppData\Local\Temp\ccbtsgth.s:22869  .debug_str:000000000000c594 .LASF5586
C:\Users\CYMR90~1\AppData\Local\Temp\ccbtsgth.s:31004  .debug_str:000000000002cb95 .LASF5587
C:\Users\CYMR90~1\AppData\Local\Temp\ccbtsgth.s:21423  .debug_str:00000000000065f4 .LASF5588
C:\Users\CYMR90~1\AppData\Local\Temp\ccbtsgth.s:29974  .debug_str:0000000000028a6a .LASF5589
C:\Users\CYMR90~1\AppData\Local\Temp\ccbtsgth.s:29904  .debug_str:000000000002865b .LASF5590
C:\Users\CYMR90~1\AppData\Local\Temp\ccbtsgth.s:24799  .debug_str:0000000000013fcc .LASF5591
C:\Users\CYMR90~1\AppData\Local\Temp\ccbtsgth.s:20915  .debug_str:00000000000046d5 .LASF5592
C:\Users\CYMR90~1\AppData\Local\Temp\ccbtsgth.s:26330  .debug_str:000000000001a445 .LASF5593
C:\Users\CYMR90~1\AppData\Local\Temp\ccbtsgth.s:23153  .debug_str:000000000000d829 .LASF5594
C:\Users\CYMR90~1\AppData\Local\Temp\ccbtsgth.s:30848  .debug_str:000000000002c19c .LASF5595
C:\Users\CYMR90~1\AppData\Local\Temp\ccbtsgth.s:26048  .debug_str:00000000000191ee .LASF5596
C:\Users\CYMR90~1\AppData\Local\Temp\ccbtsgth.s:21647  .debug_str:000000000000746a .LASF5597
C:\Users\CYMR90~1\AppData\Local\Temp\ccbtsgth.s:30820  .debug_str:000000000002bfe2 .LASF5598
C:\Users\CYMR90~1\AppData\Local\Temp\ccbtsgth.s:28240  .debug_str:0000000000021c3d .LASF5599
C:\Users\CYMR90~1\AppData\Local\Temp\ccbtsgth.s:20805  .debug_str:0000000000003f16 .LASF5600
C:\Users\CYMR90~1\AppData\Local\Temp\ccbtsgth.s:28840  .debug_str:0000000000023fee .LASF5601
C:\Users\CYMR90~1\AppData\Local\Temp\ccbtsgth.s:24111  .debug_str:0000000000011304 .LASF5602
C:\Users\CYMR90~1\AppData\Local\Temp\ccbtsgth.s:26520  .debug_str:000000000001b11b .LASF5603
C:\Users\CYMR90~1\AppData\Local\Temp\ccbtsgth.s:20285  .debug_str:0000000000001ea0 .LASF5604
C:\Users\CYMR90~1\AppData\Local\Temp\ccbtsgth.s:29554  .debug_str:0000000000026e5a .LASF5605
C:\Users\CYMR90~1\AppData\Local\Temp\ccbtsgth.s:878    .text.gpio_port_toggle:0000000000000000 .LFB361
C:\Users\CYMR90~1\AppData\Local\Temp\ccbtsgth.s:905    .text.gpio_port_toggle:0000000000000022 .LFE361
C:\Users\CYMR90~1\AppData\Local\Temp\ccbtsgth.s:25772  .debug_str:0000000000017f36 .LASF5607
C:\Users\CYMR90~1\AppData\Local\Temp\ccbtsgth.s:20787  .debug_str:0000000000003e24 .LASF5606
C:\Users\CYMR90~1\AppData\Local\Temp\ccbtsgth.s:844    .text.gpio_bit_toggle:0000000000000000 .LFB360
C:\Users\CYMR90~1\AppData\Local\Temp\ccbtsgth.s:871    .text.gpio_bit_toggle:0000000000000026 .LFE360
C:\Users\CYMR90~1\AppData\Local\Temp\ccbtsgth.s:26100  .debug_str:00000000000194f5 .LASF5608
C:\Users\CYMR90~1\AppData\Local\Temp\ccbtsgth.s:776    .text.gpio_pin_lock:0000000000000000 .LFB359
C:\Users\CYMR90~1\AppData\Local\Temp\ccbtsgth.s:837    .text.gpio_pin_lock:000000000000006c .LFE359
C:\Users\CYMR90~1\AppData\Local\Temp\ccbtsgth.s:22071  .debug_str:0000000000009077 .LASF5611
C:\Users\CYMR90~1\AppData\Local\Temp\ccbtsgth.s:28152  .debug_str:000000000002171c .LASF5609
C:\Users\CYMR90~1\AppData\Local\Temp\ccbtsgth.s:631    .text.gpio_af_set:0000000000000000 .LFB358
C:\Users\CYMR90~1\AppData\Local\Temp\ccbtsgth.s:769    .text.gpio_af_set:0000000000000118 .LFE358
C:\Users\CYMR90~1\AppData\Local\Temp\ccbtsgth.s:21683  .debug_str:00000000000076af .LASF5610
C:\Users\CYMR90~1\AppData\Local\Temp\ccbtsgth.s:23141  .debug_str:000000000000d783 .LASF5612
C:\Users\CYMR90~1\AppData\Local\Temp\ccbtsgth.s:23127  .debug_str:000000000000d6e1 .LASF5613
C:\Users\CYMR90~1\AppData\Local\Temp\ccbtsgth.s:22111  .debug_str:00000000000092d2 .LASF5614
C:\Users\CYMR90~1\AppData\Local\Temp\ccbtsgth.s:598    .text.gpio_output_port_get:0000000000000000 .LFB357
C:\Users\CYMR90~1\AppData\Local\Temp\ccbtsgth.s:624    .text.gpio_output_port_get:000000000000001e .LFE357
C:\Users\CYMR90~1\AppData\Local\Temp\ccbtsgth.s:25395  .debug_str:0000000000016518 .LASF5615
C:\Users\CYMR90~1\AppData\Local\Temp\ccbtsgth.s:555    .text.gpio_output_bit_get:0000000000000000 .LFB356
C:\Users\CYMR90~1\AppData\Local\Temp\ccbtsgth.s:591    .text.gpio_output_bit_get:000000000000002c .LFE356
C:\Users\CYMR90~1\AppData\Local\Temp\ccbtsgth.s:25053  .debug_str:0000000000015009 .LASF5616
C:\Users\CYMR90~1\AppData\Local\Temp\ccbtsgth.s:522    .text.gpio_input_port_get:0000000000000000 .LFB355
C:\Users\CYMR90~1\AppData\Local\Temp\ccbtsgth.s:548    .text.gpio_input_port_get:000000000000001e .LFE355
C:\Users\CYMR90~1\AppData\Local\Temp\ccbtsgth.s:31044  .debug_str:000000000002ce83 .LASF5617
C:\Users\CYMR90~1\AppData\Local\Temp\ccbtsgth.s:479    .text.gpio_input_bit_get:0000000000000000 .LFB354
C:\Users\CYMR90~1\AppData\Local\Temp\ccbtsgth.s:515    .text.gpio_input_bit_get:000000000000002c .LFE354
C:\Users\CYMR90~1\AppData\Local\Temp\ccbtsgth.s:30794  .debug_str:000000000002be5e .LASF5618
C:\Users\CYMR90~1\AppData\Local\Temp\ccbtsgth.s:443    .text.gpio_port_write:0000000000000000 .LFB353
C:\Users\CYMR90~1\AppData\Local\Temp\ccbtsgth.s:472    .text.gpio_port_write:0000000000000026 .LFE353
C:\Users\CYMR90~1\AppData\Local\Temp\ccbtsgth.s:30146  .debug_str:00000000000295ae .LASF5619
C:\Users\CYMR90~1\AppData\Local\Temp\ccbtsgth.s:20987  .debug_str:0000000000004bbe .LASF5620
C:\Users\CYMR90~1\AppData\Local\Temp\ccbtsgth.s:394    .text.gpio_bit_write:0000000000000000 .LFB352
C:\Users\CYMR90~1\AppData\Local\Temp\ccbtsgth.s:436    .text.gpio_bit_write:0000000000000040 .LFE352
C:\Users\CYMR90~1\AppData\Local\Temp\ccbtsgth.s:21971  .debug_str:0000000000008a56 .LASF5621
C:\Users\CYMR90~1\AppData\Local\Temp\ccbtsgth.s:27586  .debug_str:000000000001f456 .LASF5622
C:\Users\CYMR90~1\AppData\Local\Temp\ccbtsgth.s:360    .text.gpio_bit_reset:0000000000000000 .LFB351
C:\Users\CYMR90~1\AppData\Local\Temp\ccbtsgth.s:387    .text.gpio_bit_reset:0000000000000026 .LFE351
C:\Users\CYMR90~1\AppData\Local\Temp\ccbtsgth.s:28816  .debug_str:0000000000023dc9 .LASF5623
C:\Users\CYMR90~1\AppData\Local\Temp\ccbtsgth.s:326    .text.gpio_bit_set:0000000000000000 .LFB350
C:\Users\CYMR90~1\AppData\Local\Temp\ccbtsgth.s:353    .text.gpio_bit_set:0000000000000024 .LFE350
C:\Users\CYMR90~1\AppData\Local\Temp\ccbtsgth.s:27082  .debug_str:000000000001d4e4 .LASF5624
C:\Users\CYMR90~1\AppData\Local\Temp\ccbtsgth.s:210    .text.gpio_output_options_set:0000000000000000 .LFB349
C:\Users\CYMR90~1\AppData\Local\Temp\ccbtsgth.s:319    .text.gpio_output_options_set:00000000000000d6 .LFE349
C:\Users\CYMR90~1\AppData\Local\Temp\ccbtsgth.s:22395  .debug_str:000000000000a531 .LASF5625
C:\Users\CYMR90~1\AppData\Local\Temp\ccbtsgth.s:30084  .debug_str:00000000000291c0 .LASF5626
C:\Users\CYMR90~1\AppData\Local\Temp\ccbtsgth.s:23071  .debug_str:000000000000d2d9 .LASF5627
C:\Users\CYMR90~1\AppData\Local\Temp\ccbtsgth.s:28334  .debug_str:00000000000221c7 .LASF5628
C:\Users\CYMR90~1\AppData\Local\Temp\ccbtsgth.s:94     .text.gpio_mode_set:0000000000000000 .LFB348
C:\Users\CYMR90~1\AppData\Local\Temp\ccbtsgth.s:203    .text.gpio_mode_set:00000000000000dc .LFE348
C:\Users\CYMR90~1\AppData\Local\Temp\ccbtsgth.s:30272  .debug_str:0000000000029ce4 .LASF5629
C:\Users\CYMR90~1\AppData\Local\Temp\ccbtsgth.s:24089  .debug_str:0000000000011199 .LASF5630
C:\Users\CYMR90~1\AppData\Local\Temp\ccbtsgth.s:25055  .debug_str:000000000001501d .LASF5631
C:\Users\CYMR90~1\AppData\Local\Temp\ccbtsgth.s:19853  .debug_str:000000000000035b .LASF5635
C:\Users\CYMR90~1\AppData\Local\Temp\ccbtsgth.s:14     .text.gpio_deinit:0000000000000000 .LFB347
C:\Users\CYMR90~1\AppData\Local\Temp\ccbtsgth.s:87     .text.gpio_deinit:00000000000000a4 .LFE347
C:\Users\CYMR90~1\AppData\Local\Temp\ccbtsgth.s:915    .debug_info:0000000000000000 .Ldebug_info0
C:\Users\CYMR90~1\AppData\Local\Temp\ccbtsgth.s:2786   .debug_macro:0000000000000000 .Ldebug_macro2
C:\Users\CYMR90~1\AppData\Local\Temp\ccbtsgth.s:29130  .debug_str:00000000000253b3 .LASF314
C:\Users\CYMR90~1\AppData\Local\Temp\ccbtsgth.s:28908  .debug_str:0000000000024473 .LASF315
C:\Users\CYMR90~1\AppData\Local\Temp\ccbtsgth.s:3733   .debug_macro:0000000000000000 .Ldebug_macro3
C:\Users\CYMR90~1\AppData\Local\Temp\ccbtsgth.s:21967  .debug_str:0000000000008a08 .LASF369
C:\Users\CYMR90~1\AppData\Local\Temp\ccbtsgth.s:21531  .debug_str:0000000000006cee .LASF370
C:\Users\CYMR90~1\AppData\Local\Temp\ccbtsgth.s:25764  .debug_str:0000000000017eea .LASF371
C:\Users\CYMR90~1\AppData\Local\Temp\ccbtsgth.s:3897   .debug_macro:0000000000000000 .Ldebug_macro4
C:\Users\CYMR90~1\AppData\Local\Temp\ccbtsgth.s:3917   .debug_macro:0000000000000000 .Ldebug_macro5
C:\Users\CYMR90~1\AppData\Local\Temp\ccbtsgth.s:24393  .debug_str:00000000000125e8 .LASF390
C:\Users\CYMR90~1\AppData\Local\Temp\ccbtsgth.s:3961   .debug_macro:0000000000000000 .Ldebug_macro6
C:\Users\CYMR90~1\AppData\Local\Temp\ccbtsgth.s:3975   .debug_macro:0000000000000000 .Ldebug_macro7
C:\Users\CYMR90~1\AppData\Local\Temp\ccbtsgth.s:4043   .debug_macro:0000000000000000 .Ldebug_macro8
C:\Users\CYMR90~1\AppData\Local\Temp\ccbtsgth.s:4069   .debug_macro:0000000000000000 .Ldebug_macro9
C:\Users\CYMR90~1\AppData\Local\Temp\ccbtsgth.s:4098   .debug_macro:0000000000000000 .Ldebug_macro10
C:\Users\CYMR90~1\AppData\Local\Temp\ccbtsgth.s:25908  .debug_str:00000000000187db .LASF433
C:\Users\CYMR90~1\AppData\Local\Temp\ccbtsgth.s:4112   .debug_macro:0000000000000000 .Ldebug_macro11
C:\Users\CYMR90~1\AppData\Local\Temp\ccbtsgth.s:4156   .debug_macro:0000000000000000 .Ldebug_macro12
C:\Users\CYMR90~1\AppData\Local\Temp\ccbtsgth.s:4182   .debug_macro:0000000000000000 .Ldebug_macro13
C:\Users\CYMR90~1\AppData\Local\Temp\ccbtsgth.s:29462  .debug_str:00000000000268fa .LASF569
C:\Users\CYMR90~1\AppData\Local\Temp\ccbtsgth.s:4553   .debug_macro:0000000000000000 .Ldebug_macro14
C:\Users\CYMR90~1\AppData\Local\Temp\ccbtsgth.s:23925  .debug_str:0000000000010763 .LASF572
C:\Users\CYMR90~1\AppData\Local\Temp\ccbtsgth.s:28806  .debug_str:0000000000023d4f .LASF573
C:\Users\CYMR90~1\AppData\Local\Temp\ccbtsgth.s:4564   .debug_macro:0000000000000000 .Ldebug_macro15
C:\Users\CYMR90~1\AppData\Local\Temp\ccbtsgth.s:4578   .debug_macro:0000000000000000 .Ldebug_macro16
C:\Users\CYMR90~1\AppData\Local\Temp\ccbtsgth.s:30608  .debug_str:000000000002b165 .LASF578
C:\Users\CYMR90~1\AppData\Local\Temp\ccbtsgth.s:4610   .debug_macro:0000000000000000 .Ldebug_macro17
C:\Users\CYMR90~1\AppData\Local\Temp\ccbtsgth.s:4636   .debug_macro:0000000000000000 .Ldebug_macro18
C:\Users\CYMR90~1\AppData\Local\Temp\ccbtsgth.s:4647   .debug_macro:0000000000000000 .Ldebug_macro19
C:\Users\CYMR90~1\AppData\Local\Temp\ccbtsgth.s:4691   .debug_macro:0000000000000000 .Ldebug_macro20
C:\Users\CYMR90~1\AppData\Local\Temp\ccbtsgth.s:4861   .debug_macro:0000000000000000 .Ldebug_macro21
C:\Users\CYMR90~1\AppData\Local\Temp\ccbtsgth.s:4872   .debug_macro:0000000000000000 .Ldebug_macro22
C:\Users\CYMR90~1\AppData\Local\Temp\ccbtsgth.s:24643  .debug_str:0000000000013603 .LASF675
C:\Users\CYMR90~1\AppData\Local\Temp\ccbtsgth.s:4928   .debug_macro:0000000000000000 .Ldebug_macro23
C:\Users\CYMR90~1\AppData\Local\Temp\ccbtsgth.s:4945   .debug_macro:0000000000000000 .Ldebug_macro24
C:\Users\CYMR90~1\AppData\Local\Temp\ccbtsgth.s:27636  .debug_str:000000000001f719 .LASF693
C:\Users\CYMR90~1\AppData\Local\Temp\ccbtsgth.s:30120  .debug_str:00000000000293e2 .LASF694
C:\Users\CYMR90~1\AppData\Local\Temp\ccbtsgth.s:4989   .debug_macro:0000000000000000 .Ldebug_macro25
C:\Users\CYMR90~1\AppData\Local\Temp\ccbtsgth.s:20989  .debug_str:0000000000004bcd .LASF700
C:\Users\CYMR90~1\AppData\Local\Temp\ccbtsgth.s:22109  .debug_str:00000000000092bf .LASF701
C:\Users\CYMR90~1\AppData\Local\Temp\ccbtsgth.s:5009   .debug_macro:0000000000000000 .Ldebug_macro26
C:\Users\CYMR90~1\AppData\Local\Temp\ccbtsgth.s:5020   .debug_macro:0000000000000000 .Ldebug_macro27
C:\Users\CYMR90~1\AppData\Local\Temp\ccbtsgth.s:5064   .debug_macro:0000000000000000 .Ldebug_macro28
C:\Users\CYMR90~1\AppData\Local\Temp\ccbtsgth.s:28236  .debug_str:0000000000021c18 .LASF749
C:\Users\CYMR90~1\AppData\Local\Temp\ccbtsgth.s:5165   .debug_macro:0000000000000000 .Ldebug_macro29
C:\Users\CYMR90~1\AppData\Local\Temp\ccbtsgth.s:5182   .debug_macro:0000000000000000 .Ldebug_macro30
C:\Users\CYMR90~1\AppData\Local\Temp\ccbtsgth.s:19869  .debug_str:000000000000043d .LASF763
C:\Users\CYMR90~1\AppData\Local\Temp\ccbtsgth.s:21167  .debug_str:000000000000566f .LASF764
C:\Users\CYMR90~1\AppData\Local\Temp\ccbtsgth.s:5214   .debug_macro:0000000000000000 .Ldebug_macro31
C:\Users\CYMR90~1\AppData\Local\Temp\ccbtsgth.s:5228   .debug_macro:0000000000000000 .Ldebug_macro32
C:\Users\CYMR90~1\AppData\Local\Temp\ccbtsgth.s:5398   .debug_macro:0000000000000000 .Ldebug_macro33
C:\Users\CYMR90~1\AppData\Local\Temp\ccbtsgth.s:23599  .debug_str:000000000000f361 .LASF850
C:\Users\CYMR90~1\AppData\Local\Temp\ccbtsgth.s:25998  .debug_str:0000000000018e23 .LASF851
C:\Users\CYMR90~1\AppData\Local\Temp\ccbtsgth.s:5484   .debug_macro:0000000000000000 .Ldebug_macro34
C:\Users\CYMR90~1\AppData\Local\Temp\ccbtsgth.s:5609   .debug_macro:0000000000000000 .Ldebug_macro35
C:\Users\CYMR90~1\AppData\Local\Temp\ccbtsgth.s:20151  .debug_str:00000000000015b3 .LASF951
C:\Users\CYMR90~1\AppData\Local\Temp\ccbtsgth.s:5821   .debug_macro:0000000000000000 .Ldebug_macro36
C:\Users\CYMR90~1\AppData\Local\Temp\ccbtsgth.s:21857  .debug_str:0000000000008350 .LASF957
C:\Users\CYMR90~1\AppData\Local\Temp\ccbtsgth.s:21407  .debug_str:00000000000064ff .LASF958
C:\Users\CYMR90~1\AppData\Local\Temp\ccbtsgth.s:20305  .debug_str:0000000000001fc2 .LASF959
C:\Users\CYMR90~1\AppData\Local\Temp\ccbtsgth.s:5841   .debug_macro:0000000000000000 .Ldebug_macro37
C:\Users\CYMR90~1\AppData\Local\Temp\ccbtsgth.s:5933   .debug_macro:0000000000000000 .Ldebug_macro38
C:\Users\CYMR90~1\AppData\Local\Temp\ccbtsgth.s:7579   .debug_macro:0000000000000000 .Ldebug_macro39
C:\Users\CYMR90~1\AppData\Local\Temp\ccbtsgth.s:7671   .debug_macro:0000000000000000 .Ldebug_macro40
C:\Users\CYMR90~1\AppData\Local\Temp\ccbtsgth.s:7727   .debug_macro:0000000000000000 .Ldebug_macro41
C:\Users\CYMR90~1\AppData\Local\Temp\ccbtsgth.s:7741   .debug_macro:0000000000000000 .Ldebug_macro42
C:\Users\CYMR90~1\AppData\Local\Temp\ccbtsgth.s:25301  .debug_str:0000000000015f6d .LASF1655
C:\Users\CYMR90~1\AppData\Local\Temp\ccbtsgth.s:22237  .debug_str:0000000000009b23 .LASF1656
C:\Users\CYMR90~1\AppData\Local\Temp\ccbtsgth.s:7965   .debug_macro:0000000000000000 .Ldebug_macro43
C:\Users\CYMR90~1\AppData\Local\Temp\ccbtsgth.s:8012   .debug_macro:0000000000000000 .Ldebug_macro44
C:\Users\CYMR90~1\AppData\Local\Temp\ccbtsgth.s:8167   .debug_macro:0000000000000000 .Ldebug_macro45
C:\Users\CYMR90~1\AppData\Local\Temp\ccbtsgth.s:8223   .debug_macro:0000000000000000 .Ldebug_macro46
C:\Users\CYMR90~1\AppData\Local\Temp\ccbtsgth.s:8234   .debug_macro:0000000000000000 .Ldebug_macro47
C:\Users\CYMR90~1\AppData\Local\Temp\ccbtsgth.s:30252  .debug_str:0000000000029bef .LASF1782
C:\Users\CYMR90~1\AppData\Local\Temp\ccbtsgth.s:25061  .debug_str:0000000000015082 .LASF1783
C:\Users\CYMR90~1\AppData\Local\Temp\ccbtsgth.s:8365   .debug_macro:0000000000000000 .Ldebug_macro48
C:\Users\CYMR90~1\AppData\Local\Temp\ccbtsgth.s:8937   .debug_macro:0000000000000000 .Ldebug_macro49
C:\Users\CYMR90~1\AppData\Local\Temp\ccbtsgth.s:9224   .debug_macro:0000000000000000 .Ldebug_macro50
C:\Users\CYMR90~1\AppData\Local\Temp\ccbtsgth.s:9253   .debug_macro:0000000000000000 .Ldebug_macro51
C:\Users\CYMR90~1\AppData\Local\Temp\ccbtsgth.s:9330   .debug_macro:0000000000000000 .Ldebug_macro52
C:\Users\CYMR90~1\AppData\Local\Temp\ccbtsgth.s:9863   .debug_macro:0000000000000000 .Ldebug_macro53
C:\Users\CYMR90~1\AppData\Local\Temp\ccbtsgth.s:9886   .debug_macro:0000000000000000 .Ldebug_macro54
C:\Users\CYMR90~1\AppData\Local\Temp\ccbtsgth.s:10152  .debug_macro:0000000000000000 .Ldebug_macro55
C:\Users\CYMR90~1\AppData\Local\Temp\ccbtsgth.s:10631  .debug_macro:0000000000000000 .Ldebug_macro56
C:\Users\CYMR90~1\AppData\Local\Temp\ccbtsgth.s:10960  .debug_macro:0000000000000000 .Ldebug_macro57
C:\Users\CYMR90~1\AppData\Local\Temp\ccbtsgth.s:11049  .debug_macro:0000000000000000 .Ldebug_macro58
C:\Users\CYMR90~1\AppData\Local\Temp\ccbtsgth.s:11240  .debug_macro:0000000000000000 .Ldebug_macro59
C:\Users\CYMR90~1\AppData\Local\Temp\ccbtsgth.s:11743  .debug_macro:0000000000000000 .Ldebug_macro60
C:\Users\CYMR90~1\AppData\Local\Temp\ccbtsgth.s:11889  .debug_macro:0000000000000000 .Ldebug_macro61
C:\Users\CYMR90~1\AppData\Local\Temp\ccbtsgth.s:12419  .debug_macro:0000000000000000 .Ldebug_macro62
C:\Users\CYMR90~1\AppData\Local\Temp\ccbtsgth.s:12841  .debug_macro:0000000000000000 .Ldebug_macro63
C:\Users\CYMR90~1\AppData\Local\Temp\ccbtsgth.s:15615  .debug_macro:0000000000000000 .Ldebug_macro64
C:\Users\CYMR90~1\AppData\Local\Temp\ccbtsgth.s:16691  .debug_macro:0000000000000000 .Ldebug_macro65
C:\Users\CYMR90~1\AppData\Local\Temp\ccbtsgth.s:16960  .debug_macro:0000000000000000 .Ldebug_macro66
C:\Users\CYMR90~1\AppData\Local\Temp\ccbtsgth.s:17232  .debug_macro:0000000000000000 .Ldebug_macro67
C:\Users\CYMR90~1\AppData\Local\Temp\ccbtsgth.s:18260  .debug_macro:0000000000000000 .Ldebug_macro68
C:\Users\CYMR90~1\AppData\Local\Temp\ccbtsgth.s:18304  .debug_macro:0000000000000000 .Ldebug_macro69
C:\Users\CYMR90~1\AppData\Local\Temp\ccbtsgth.s:18930  .debug_macro:0000000000000000 .Ldebug_macro70
C:\Users\CYMR90~1\AppData\Local\Temp\ccbtsgth.s:18989  .debug_macro:0000000000000000 .Ldebug_macro71
C:\Users\CYMR90~1\AppData\Local\Temp\ccbtsgth.s:21149  .debug_str:000000000000553e .LASF0
C:\Users\CYMR90~1\AppData\Local\Temp\ccbtsgth.s:25502  .debug_str:0000000000016e3b .LASF1
C:\Users\CYMR90~1\AppData\Local\Temp\ccbtsgth.s:23757  .debug_str:000000000000fdad .LASF2
C:\Users\CYMR90~1\AppData\Local\Temp\ccbtsgth.s:23809  .debug_str:00000000000100b5 .LASF3
C:\Users\CYMR90~1\AppData\Local\Temp\ccbtsgth.s:25109  .debug_str:00000000000152e9 .LASF4
C:\Users\CYMR90~1\AppData\Local\Temp\ccbtsgth.s:30652  .debug_str:000000000002b485 .LASF5
C:\Users\CYMR90~1\AppData\Local\Temp\ccbtsgth.s:21381  .debug_str:0000000000006383 .LASF6
C:\Users\CYMR90~1\AppData\Local\Temp\ccbtsgth.s:29966  .debug_str:00000000000289ff .LASF7
C:\Users\CYMR90~1\AppData\Local\Temp\ccbtsgth.s:28926  .debug_str:0000000000024587 .LASF8
C:\Users\CYMR90~1\AppData\Local\Temp\ccbtsgth.s:26846  .debug_str:000000000001c4a2 .LASF9
C:\Users\CYMR90~1\AppData\Local\Temp\ccbtsgth.s:26192  .debug_str:0000000000019afe .LASF10
C:\Users\CYMR90~1\AppData\Local\Temp\ccbtsgth.s:26054  .debug_str:0000000000019226 .LASF11
C:\Users\CYMR90~1\AppData\Local\Temp\ccbtsgth.s:30492  .debug_str:000000000002a9fc .LASF12
C:\Users\CYMR90~1\AppData\Local\Temp\ccbtsgth.s:26066  .debug_str:00000000000192da .LASF13
C:\Users\CYMR90~1\AppData\Local\Temp\ccbtsgth.s:22393  .debug_str:000000000000a51e .LASF14
C:\Users\CYMR90~1\AppData\Local\Temp\ccbtsgth.s:27426  .debug_str:000000000001ea9f .LASF15
C:\Users\CYMR90~1\AppData\Local\Temp\ccbtsgth.s:28176  .debug_str:000000000002186a .LASF16
C:\Users\CYMR90~1\AppData\Local\Temp\ccbtsgth.s:22439  .debug_str:000000000000a7f4 .LASF17
C:\Users\CYMR90~1\AppData\Local\Temp\ccbtsgth.s:29206  .debug_str:0000000000025943 .LASF18
C:\Users\CYMR90~1\AppData\Local\Temp\ccbtsgth.s:23387  .debug_str:000000000000e64c .LASF19
C:\Users\CYMR90~1\AppData\Local\Temp\ccbtsgth.s:29016  .debug_str:0000000000024bda .LASF20
C:\Users\CYMR90~1\AppData\Local\Temp\ccbtsgth.s:25860  .debug_str:0000000000018500 .LASF21
C:\Users\CYMR90~1\AppData\Local\Temp\ccbtsgth.s:25858  .debug_str:00000000000184e6 .LASF22
C:\Users\CYMR90~1\AppData\Local\Temp\ccbtsgth.s:28478  .debug_str:0000000000022a9c .LASF23
C:\Users\CYMR90~1\AppData\Local\Temp\ccbtsgth.s:26796  .debug_str:000000000001c1fa .LASF24
C:\Users\CYMR90~1\AppData\Local\Temp\ccbtsgth.s:20693  .debug_str:000000000000380a .LASF25
C:\Users\CYMR90~1\AppData\Local\Temp\ccbtsgth.s:25235  .debug_str:0000000000015af1 .LASF26
C:\Users\CYMR90~1\AppData\Local\Temp\ccbtsgth.s:28482  .debug_str:0000000000022ac8 .LASF27
C:\Users\CYMR90~1\AppData\Local\Temp\ccbtsgth.s:28184  .debug_str:00000000000218c2 .LASF28
C:\Users\CYMR90~1\AppData\Local\Temp\ccbtsgth.s:21101  .debug_str:0000000000005282 .LASF29
C:\Users\CYMR90~1\AppData\Local\Temp\ccbtsgth.s:27208  .debug_str:000000000001dd26 .LASF30
C:\Users\CYMR90~1\AppData\Local\Temp\ccbtsgth.s:20101  .debug_str:00000000000012d5 .LASF31
C:\Users\CYMR90~1\AppData\Local\Temp\ccbtsgth.s:27670  .debug_str:000000000001f912 .LASF32
C:\Users\CYMR90~1\AppData\Local\Temp\ccbtsgth.s:24653  .debug_str:000000000001369c .LASF33
C:\Users\CYMR90~1\AppData\Local\Temp\ccbtsgth.s:22127  .debug_str:00000000000093bf .LASF34
C:\Users\CYMR90~1\AppData\Local\Temp\ccbtsgth.s:23419  .debug_str:000000000000e830 .LASF35
C:\Users\CYMR90~1\AppData\Local\Temp\ccbtsgth.s:26302  .debug_str:000000000001a125 .LASF36
C:\Users\CYMR90~1\AppData\Local\Temp\ccbtsgth.s:21623  .debug_str:0000000000007306 .LASF37
C:\Users\CYMR90~1\AppData\Local\Temp\ccbtsgth.s:23755  .debug_str:000000000000fd8a .LASF38
C:\Users\CYMR90~1\AppData\Local\Temp\ccbtsgth.s:20659  .debug_str:00000000000035b2 .LASF39
C:\Users\CYMR90~1\AppData\Local\Temp\ccbtsgth.s:20465  .debug_str:0000000000002955 .LASF40
C:\Users\CYMR90~1\AppData\Local\Temp\ccbtsgth.s:23917  .debug_str:00000000000106fc .LASF41
C:\Users\CYMR90~1\AppData\Local\Temp\ccbtsgth.s:24331  .debug_str:00000000000121e8 .LASF42
C:\Users\CYMR90~1\AppData\Local\Temp\ccbtsgth.s:24595  .debug_str:000000000001334a .LASF43
C:\Users\CYMR90~1\AppData\Local\Temp\ccbtsgth.s:26292  .debug_str:000000000001a093 .LASF44
C:\Users\CYMR90~1\AppData\Local\Temp\ccbtsgth.s:24197  .debug_str:0000000000011960 .LASF45
C:\Users\CYMR90~1\AppData\Local\Temp\ccbtsgth.s:20921  .debug_str:000000000000472f .LASF46
C:\Users\CYMR90~1\AppData\Local\Temp\ccbtsgth.s:27214  .debug_str:000000000001dd8b .LASF47
C:\Users\CYMR90~1\AppData\Local\Temp\ccbtsgth.s:28928  .debug_str:000000000002459c .LASF48
C:\Users\CYMR90~1\AppData\Local\Temp\ccbtsgth.s:23167  .debug_str:000000000000d8d2 .LASF49
C:\Users\CYMR90~1\AppData\Local\Temp\ccbtsgth.s:20303  .debug_str:0000000000001fa3 .LASF50
C:\Users\CYMR90~1\AppData\Local\Temp\ccbtsgth.s:19821  .debug_str:0000000000000131 .LASF51
C:\Users\CYMR90~1\AppData\Local\Temp\ccbtsgth.s:30264  .debug_str:0000000000029c83 .LASF52
C:\Users\CYMR90~1\AppData\Local\Temp\ccbtsgth.s:22977  .debug_str:000000000000ccb2 .LASF53
C:\Users\CYMR90~1\AppData\Local\Temp\ccbtsgth.s:24679  .debug_str:000000000001384a .LASF54
C:\Users\CYMR90~1\AppData\Local\Temp\ccbtsgth.s:23719  .debug_str:000000000000fb09 .LASF55
C:\Users\CYMR90~1\AppData\Local\Temp\ccbtsgth.s:21713  .debug_str:00000000000078ad .LASF56
C:\Users\CYMR90~1\AppData\Local\Temp\ccbtsgth.s:25087  .debug_str:00000000000151be .LASF57
C:\Users\CYMR90~1\AppData\Local\Temp\ccbtsgth.s:25353  .debug_str:0000000000016240 .LASF58
C:\Users\CYMR90~1\AppData\Local\Temp\ccbtsgth.s:29210  .debug_str:0000000000025983 .LASF59
C:\Users\CYMR90~1\AppData\Local\Temp\ccbtsgth.s:24603  .debug_str:00000000000133a5 .LASF60
C:\Users\CYMR90~1\AppData\Local\Temp\ccbtsgth.s:26582  .debug_str:000000000001b4da .LASF61
C:\Users\CYMR90~1\AppData\Local\Temp\ccbtsgth.s:20527  .debug_str:0000000000002d59 .LASF62
C:\Users\CYMR90~1\AppData\Local\Temp\ccbtsgth.s:23157  .debug_str:000000000000d84b .LASF63
C:\Users\CYMR90~1\AppData\Local\Temp\ccbtsgth.s:22895  .debug_str:000000000000c733 .LASF64
C:\Users\CYMR90~1\AppData\Local\Temp\ccbtsgth.s:26278  .debug_str:0000000000019fca .LASF65
C:\Users\CYMR90~1\AppData\Local\Temp\ccbtsgth.s:24913  .debug_str:00000000000146e7 .LASF66
C:\Users\CYMR90~1\AppData\Local\Temp\ccbtsgth.s:30036  .debug_str:0000000000028e47 .LASF67
C:\Users\CYMR90~1\AppData\Local\Temp\ccbtsgth.s:30494  .debug_str:000000000002aa0f .LASF68
C:\Users\CYMR90~1\AppData\Local\Temp\ccbtsgth.s:24153  .debug_str:000000000001164a .LASF69
C:\Users\CYMR90~1\AppData\Local\Temp\ccbtsgth.s:23315  .debug_str:000000000000e1d7 .LASF70
C:\Users\CYMR90~1\AppData\Local\Temp\ccbtsgth.s:20933  .debug_str:0000000000004882 .LASF71
C:\Users\CYMR90~1\AppData\Local\Temp\ccbtsgth.s:24187  .debug_str:00000000000118c4 .LASF72
C:\Users\CYMR90~1\AppData\Local\Temp\ccbtsgth.s:23819  .debug_str:000000000001013f .LASF73
C:\Users\CYMR90~1\AppData\Local\Temp\ccbtsgth.s:24411  .debug_str:0000000000012733 .LASF74
C:\Users\CYMR90~1\AppData\Local\Temp\ccbtsgth.s:24253  .debug_str:0000000000011cf0 .LASF75
C:\Users\CYMR90~1\AppData\Local\Temp\ccbtsgth.s:24353  .debug_str:0000000000012367 .LASF76
C:\Users\CYMR90~1\AppData\Local\Temp\ccbtsgth.s:28842  .debug_str:0000000000023ffd .LASF77
C:\Users\CYMR90~1\AppData\Local\Temp\ccbtsgth.s:26772  .debug_str:000000000001c071 .LASF78
C:\Users\CYMR90~1\AppData\Local\Temp\ccbtsgth.s:27172  .debug_str:000000000001da89 .LASF79
C:\Users\CYMR90~1\AppData\Local\Temp\ccbtsgth.s:30016  .debug_str:0000000000028cf8 .LASF80
C:\Users\CYMR90~1\AppData\Local\Temp\ccbtsgth.s:22229  .debug_str:0000000000009a96 .LASF81
C:\Users\CYMR90~1\AppData\Local\Temp\ccbtsgth.s:22425  .debug_str:000000000000a6c8 .LASF82
C:\Users\CYMR90~1\AppData\Local\Temp\ccbtsgth.s:30152  .debug_str:00000000000295f4 .LASF83
C:\Users\CYMR90~1\AppData\Local\Temp\ccbtsgth.s:22169  .debug_str:000000000000967b .LASF84
C:\Users\CYMR90~1\AppData\Local\Temp\ccbtsgth.s:21443  .debug_str:000000000000674f .LASF85
C:\Users\CYMR90~1\AppData\Local\Temp\ccbtsgth.s:26480  .debug_str:000000000001ae3f .LASF86
C:\Users\CYMR90~1\AppData\Local\Temp\ccbtsgth.s:30184  .debug_str:00000000000297c1 .LASF87
C:\Users\CYMR90~1\AppData\Local\Temp\ccbtsgth.s:27612  .debug_str:000000000001f5a3 .LASF88
C:\Users\CYMR90~1\AppData\Local\Temp\ccbtsgth.s:26396  .debug_str:000000000001a8e2 .LASF89
C:\Users\CYMR90~1\AppData\Local\Temp\ccbtsgth.s:27640  .debug_str:000000000001f74c .LASF90
C:\Users\CYMR90~1\AppData\Local\Temp\ccbtsgth.s:30394  .debug_str:000000000002a44c .LASF91
C:\Users\CYMR90~1\AppData\Local\Temp\ccbtsgth.s:29218  .debug_str:00000000000259fb .LASF92
C:\Users\CYMR90~1\AppData\Local\Temp\ccbtsgth.s:22309  .debug_str:0000000000009f88 .LASF93
C:\Users\CYMR90~1\AppData\Local\Temp\ccbtsgth.s:27050  .debug_str:000000000001d30d .LASF94
C:\Users\CYMR90~1\AppData\Local\Temp\ccbtsgth.s:24635  .debug_str:000000000001358b .LASF95
C:\Users\CYMR90~1\AppData\Local\Temp\ccbtsgth.s:24617  .debug_str:0000000000013485 .LASF96
C:\Users\CYMR90~1\AppData\Local\Temp\ccbtsgth.s:30702  .debug_str:000000000002b7fb .LASF97
C:\Users\CYMR90~1\AppData\Local\Temp\ccbtsgth.s:24265  .debug_str:0000000000011dcd .LASF98
C:\Users\CYMR90~1\AppData\Local\Temp\ccbtsgth.s:28202  .debug_str:00000000000219e9 .LASF99
C:\Users\CYMR90~1\AppData\Local\Temp\ccbtsgth.s:21655  .debug_str:00000000000074dc .LASF100
C:\Users\CYMR90~1\AppData\Local\Temp\ccbtsgth.s:23769  .debug_str:000000000000fe38 .LASF101
C:\Users\CYMR90~1\AppData\Local\Temp\ccbtsgth.s:25149  .debug_str:0000000000015515 .LASF102
C:\Users\CYMR90~1\AppData\Local\Temp\ccbtsgth.s:24045  .debug_str:0000000000010efb .LASF103
C:\Users\CYMR90~1\AppData\Local\Temp\ccbtsgth.s:23073  .debug_str:000000000000d2e0 .LASF104
C:\Users\CYMR90~1\AppData\Local\Temp\ccbtsgth.s:24207  .debug_str:00000000000119f7 .LASF105
C:\Users\CYMR90~1\AppData\Local\Temp\ccbtsgth.s:26870  .debug_str:000000000001c622 .LASF106
C:\Users\CYMR90~1\AppData\Local\Temp\ccbtsgth.s:24039  .debug_str:0000000000010e96 .LASF107
C:\Users\CYMR90~1\AppData\Local\Temp\ccbtsgth.s:23067  .debug_str:000000000000d2a4 .LASF108
C:\Users\CYMR90~1\AppData\Local\Temp\ccbtsgth.s:24463  .debug_str:0000000000012a8e .LASF109
C:\Users\CYMR90~1\AppData\Local\Temp\ccbtsgth.s:23445  .debug_str:000000000000e9e1 .LASF110
C:\Users\CYMR90~1\AppData\Local\Temp\ccbtsgth.s:25916  .debug_str:000000000001884a .LASF111
C:\Users\CYMR90~1\AppData\Local\Temp\ccbtsgth.s:22567  .debug_str:000000000000b197 .LASF112
C:\Users\CYMR90~1\AppData\Local\Temp\ccbtsgth.s:22307  .debug_str:0000000000009f5f .LASF113
C:\Users\CYMR90~1\AppData\Local\Temp\ccbtsgth.s:25185  .debug_str:0000000000015767 .LASF114
C:\Users\CYMR90~1\AppData\Local\Temp\ccbtsgth.s:30078  .debug_str:0000000000029166 .LASF115
C:\Users\CYMR90~1\AppData\Local\Temp\ccbtsgth.s:26744  .debug_str:000000000001beb3 .LASF116
C:\Users\CYMR90~1\AppData\Local\Temp\ccbtsgth.s:22055  .debug_str:0000000000008fbe .LASF117
C:\Users\CYMR90~1\AppData\Local\Temp\ccbtsgth.s:26638  .debug_str:000000000001b82e .LASF118
C:\Users\CYMR90~1\AppData\Local\Temp\ccbtsgth.s:30814  .debug_str:000000000002bf99 .LASF119
C:\Users\CYMR90~1\AppData\Local\Temp\ccbtsgth.s:23361  .debug_str:000000000000e46b .LASF120
C:\Users\CYMR90~1\AppData\Local\Temp\ccbtsgth.s:28822  .debug_str:0000000000023e1b .LASF121
C:\Users\CYMR90~1\AppData\Local\Temp\ccbtsgth.s:22857  .debug_str:000000000000c4cd .LASF122
C:\Users\CYMR90~1\AppData\Local\Temp\ccbtsgth.s:22963  .debug_str:000000000000cc05 .LASF123
C:\Users\CYMR90~1\AppData\Local\Temp\ccbtsgth.s:20629  .debug_str:00000000000033e0 .LASF124
C:\Users\CYMR90~1\AppData\Local\Temp\ccbtsgth.s:20897  .debug_str:0000000000004579 .LASF125
C:\Users\CYMR90~1\AppData\Local\Temp\ccbtsgth.s:29750  .debug_str:0000000000027b2f .LASF126
C:\Users\CYMR90~1\AppData\Local\Temp\ccbtsgth.s:24213  .debug_str:0000000000011a35 .LASF127
C:\Users\CYMR90~1\AppData\Local\Temp\ccbtsgth.s:27026  .debug_str:000000000001d1af .LASF128
C:\Users\CYMR90~1\AppData\Local\Temp\ccbtsgth.s:22135  .debug_str:0000000000009437 .LASF129
C:\Users\CYMR90~1\AppData\Local\Temp\ccbtsgth.s:29330  .debug_str:00000000000260f3 .LASF130
C:\Users\CYMR90~1\AppData\Local\Temp\ccbtsgth.s:29628  .debug_str:000000000002735d .LASF131
C:\Users\CYMR90~1\AppData\Local\Temp\ccbtsgth.s:29442  .debug_str:00000000000267b0 .LASF132
C:\Users\CYMR90~1\AppData\Local\Temp\ccbtsgth.s:23339  .debug_str:000000000000e31c .LASF133
C:\Users\CYMR90~1\AppData\Local\Temp\ccbtsgth.s:28740  .debug_str:00000000000239c8 .LASF134
C:\Users\CYMR90~1\AppData\Local\Temp\ccbtsgth.s:20891  .debug_str:0000000000004512 .LASF135
C:\Users\CYMR90~1\AppData\Local\Temp\ccbtsgth.s:21755  .debug_str:0000000000007b6e .LASF136
C:\Users\CYMR90~1\AppData\Local\Temp\ccbtsgth.s:30486  .debug_str:000000000002a9a5 .LASF137
C:\Users\CYMR90~1\AppData\Local\Temp\ccbtsgth.s:24459  .debug_str:0000000000012a5e .LASF138
C:\Users\CYMR90~1\AppData\Local\Temp\ccbtsgth.s:29964  .debug_str:00000000000289ef .LASF139
C:\Users\CYMR90~1\AppData\Local\Temp\ccbtsgth.s:29102  .debug_str:0000000000025204 .LASF140
C:\Users\CYMR90~1\AppData\Local\Temp\ccbtsgth.s:26728  .debug_str:000000000001bdca .LASF141
C:\Users\CYMR90~1\AppData\Local\Temp\ccbtsgth.s:22267  .debug_str:0000000000009ce5 .LASF142
C:\Users\CYMR90~1\AppData\Local\Temp\ccbtsgth.s:30558  .debug_str:000000000002adf2 .LASF143
C:\Users\CYMR90~1\AppData\Local\Temp\ccbtsgth.s:25882  .debug_str:000000000001861a .LASF144
C:\Users\CYMR90~1\AppData\Local\Temp\ccbtsgth.s:24925  .debug_str:00000000000147cd .LASF145
C:\Users\CYMR90~1\AppData\Local\Temp\ccbtsgth.s:22927  .debug_str:000000000000c9d2 .LASF146
C:\Users\CYMR90~1\AppData\Local\Temp\ccbtsgth.s:20931  .debug_str:000000000000486b .LASF147
C:\Users\CYMR90~1\AppData\Local\Temp\ccbtsgth.s:23483  .debug_str:000000000000ec61 .LASF148
C:\Users\CYMR90~1\AppData\Local\Temp\ccbtsgth.s:25862  .debug_str:0000000000018514 .LASF149
C:\Users\CYMR90~1\AppData\Local\Temp\ccbtsgth.s:19897  .debug_str:00000000000005aa .LASF150
C:\Users\CYMR90~1\AppData\Local\Temp\ccbtsgth.s:28186  .debug_str:00000000000218dc .LASF151
C:\Users\CYMR90~1\AppData\Local\Temp\ccbtsgth.s:24453  .debug_str:00000000000129dc .LASF152
C:\Users\CYMR90~1\AppData\Local\Temp\ccbtsgth.s:25151  .debug_str:0000000000015531 .LASF153
C:\Users\CYMR90~1\AppData\Local\Temp\ccbtsgth.s:26932  .debug_str:000000000001ca70 .LASF154
C:\Users\CYMR90~1\AppData\Local\Temp\ccbtsgth.s:23881  .debug_str:0000000000010506 .LASF155
C:\Users\CYMR90~1\AppData\Local\Temp\ccbtsgth.s:26944  .debug_str:000000000001cb56 .LASF156
C:\Users\CYMR90~1\AppData\Local\Temp\ccbtsgth.s:27056  .debug_str:000000000001d375 .LASF157
C:\Users\CYMR90~1\AppData\Local\Temp\ccbtsgth.s:22787  .debug_str:000000000000c08e .LASF158
C:\Users\CYMR90~1\AppData\Local\Temp\ccbtsgth.s:21861  .debug_str:0000000000008372 .LASF159
C:\Users\CYMR90~1\AppData\Local\Temp\ccbtsgth.s:26588  .debug_str:000000000001b52e .LASF160
C:\Users\CYMR90~1\AppData\Local\Temp\ccbtsgth.s:28006  .debug_str:0000000000020dd9 .LASF161
C:\Users\CYMR90~1\AppData\Local\Temp\ccbtsgth.s:26184  .debug_str:0000000000019a6c .LASF162
C:\Users\CYMR90~1\AppData\Local\Temp\ccbtsgth.s:28732  .debug_str:0000000000023956 .LASF163
C:\Users\CYMR90~1\AppData\Local\Temp\ccbtsgth.s:30380  .debug_str:000000000002a370 .LASF164
C:\Users\CYMR90~1\AppData\Local\Temp\ccbtsgth.s:21613  .debug_str:0000000000007284 .LASF165
C:\Users\CYMR90~1\AppData\Local\Temp\ccbtsgth.s:30066  .debug_str:0000000000029037 .LASF166
C:\Users\CYMR90~1\AppData\Local\Temp\ccbtsgth.s:29884  .debug_str:00000000000284f4 .LASF167
C:\Users\CYMR90~1\AppData\Local\Temp\ccbtsgth.s:28652  .debug_str:0000000000023459 .LASF168
C:\Users\CYMR90~1\AppData\Local\Temp\ccbtsgth.s:25648  .debug_str:0000000000017783 .LASF169
C:\Users\CYMR90~1\AppData\Local\Temp\ccbtsgth.s:29502  .debug_str:0000000000026b26 .LASF170
C:\Users\CYMR90~1\AppData\Local\Temp\ccbtsgth.s:25263  .debug_str:0000000000015cbc .LASF171
C:\Users\CYMR90~1\AppData\Local\Temp\ccbtsgth.s:26850  .debug_str:000000000001c4db .LASF172
C:\Users\CYMR90~1\AppData\Local\Temp\ccbtsgth.s:22259  .debug_str:0000000000009c71 .LASF173
C:\Users\CYMR90~1\AppData\Local\Temp\ccbtsgth.s:28540  .debug_str:0000000000022e0d .LASF174
C:\Users\CYMR90~1\AppData\Local\Temp\ccbtsgth.s:21275  .debug_str:0000000000005d13 .LASF175
C:\Users\CYMR90~1\AppData\Local\Temp\ccbtsgth.s:22101  .debug_str:0000000000009256 .LASF176
C:\Users\CYMR90~1\AppData\Local\Temp\ccbtsgth.s:20769  .debug_str:0000000000003cd7 .LASF177
C:\Users\CYMR90~1\AppData\Local\Temp\ccbtsgth.s:26062  .debug_str:0000000000019298 .LASF178
C:\Users\CYMR90~1\AppData\Local\Temp\ccbtsgth.s:23015  .debug_str:000000000000cf43 .LASF179
C:\Users\CYMR90~1\AppData\Local\Temp\ccbtsgth.s:20297  .debug_str:0000000000001f37 .LASF180
C:\Users\CYMR90~1\AppData\Local\Temp\ccbtsgth.s:30698  .debug_str:000000000002b7c2 .LASF181
C:\Users\CYMR90~1\AppData\Local\Temp\ccbtsgth.s:20087  .debug_str:000000000000122a .LASF182
C:\Users\CYMR90~1\AppData\Local\Temp\ccbtsgth.s:24571  .debug_str:00000000000131b2 .LASF183
C:\Users\CYMR90~1\AppData\Local\Temp\ccbtsgth.s:24993  .debug_str:0000000000014c32 .LASF184
C:\Users\CYMR90~1\AppData\Local\Temp\ccbtsgth.s:29894  .debug_str:00000000000285a3 .LASF185
C:\Users\CYMR90~1\AppData\Local\Temp\ccbtsgth.s:23113  .debug_str:000000000000d613 .LASF186
C:\Users\CYMR90~1\AppData\Local\Temp\ccbtsgth.s:21597  .debug_str:000000000000714f .LASF187
C:\Users\CYMR90~1\AppData\Local\Temp\ccbtsgth.s:27590  .debug_str:000000000001f489 .LASF188
C:\Users\CYMR90~1\AppData\Local\Temp\ccbtsgth.s:23381  .debug_str:000000000000e5fc .LASF189
C:\Users\CYMR90~1\AppData\Local\Temp\ccbtsgth.s:24685  .debug_str:00000000000138a9 .LASF190
C:\Users\CYMR90~1\AppData\Local\Temp\ccbtsgth.s:25876  .debug_str:00000000000185cb .LASF191
C:\Users\CYMR90~1\AppData\Local\Temp\ccbtsgth.s:25427  .debug_str:000000000001676a .LASF192
C:\Users\CYMR90~1\AppData\Local\Temp\ccbtsgth.s:28296  .debug_str:0000000000021f99 .LASF193
C:\Users\CYMR90~1\AppData\Local\Temp\ccbtsgth.s:21227  .debug_str:0000000000005a3b .LASF194
C:\Users\CYMR90~1\AppData\Local\Temp\ccbtsgth.s:20599  .debug_str:00000000000031dc .LASF195
C:\Users\CYMR90~1\AppData\Local\Temp\ccbtsgth.s:23215  .debug_str:000000000000dbad .LASF196
C:\Users\CYMR90~1\AppData\Local\Temp\ccbtsgth.s:24105  .debug_str:00000000000112b5 .LASF197
C:\Users\CYMR90~1\AppData\Local\Temp\ccbtsgth.s:21087  .debug_str:000000000000519d .LASF198
C:\Users\CYMR90~1\AppData\Local\Temp\ccbtsgth.s:29782  .debug_str:0000000000027d76 .LASF199
C:\Users\CYMR90~1\AppData\Local\Temp\ccbtsgth.s:27948  .debug_str:0000000000020a44 .LASF200
C:\Users\CYMR90~1\AppData\Local\Temp\ccbtsgth.s:27064  .debug_str:000000000001d3d3 .LASF201
C:\Users\CYMR90~1\AppData\Local\Temp\ccbtsgth.s:22235  .debug_str:0000000000009ae2 .LASF202
C:\Users\CYMR90~1\AppData\Local\Temp\ccbtsgth.s:30244  .debug_str:0000000000029b5e .LASF203
C:\Users\CYMR90~1\AppData\Local\Temp\ccbtsgth.s:22705  .debug_str:000000000000baee .LASF204
C:\Users\CYMR90~1\AppData\Local\Temp\ccbtsgth.s:23605  .debug_str:000000000000f3bb .LASF205
C:\Users\CYMR90~1\AppData\Local\Temp\ccbtsgth.s:29972  .debug_str:0000000000028a54 .LASF206
C:\Users\CYMR90~1\AppData\Local\Temp\ccbtsgth.s:24807  .debug_str:0000000000014047 .LASF207
C:\Users\CYMR90~1\AppData\Local\Temp\ccbtsgth.s:27630  .debug_str:000000000001f6be .LASF208
C:\Users\CYMR90~1\AppData\Local\Temp\ccbtsgth.s:22851  .debug_str:000000000000c47c .LASF209
C:\Users\CYMR90~1\AppData\Local\Temp\ccbtsgth.s:30914  .debug_str:000000000002c5fd .LASF210
C:\Users\CYMR90~1\AppData\Local\Temp\ccbtsgth.s:24777  .debug_str:0000000000013e76 .LASF211
C:\Users\CYMR90~1\AppData\Local\Temp\ccbtsgth.s:27466  .debug_str:000000000001ecc7 .LASF212
C:\Users\CYMR90~1\AppData\Local\Temp\ccbtsgth.s:26082  .debug_str:00000000000193c6 .LASF213
C:\Users\CYMR90~1\AppData\Local\Temp\ccbtsgth.s:21315  .debug_str:0000000000005f4a .LASF214
C:\Users\CYMR90~1\AppData\Local\Temp\ccbtsgth.s:24785  .debug_str:0000000000013ee2 .LASF215
C:\Users\CYMR90~1\AppData\Local\Temp\ccbtsgth.s:26768  .debug_str:000000000001c021 .LASF216
C:\Users\CYMR90~1\AppData\Local\Temp\ccbtsgth.s:27736  .debug_str:000000000001fce2 .LASF217
C:\Users\CYMR90~1\AppData\Local\Temp\ccbtsgth.s:23675  .debug_str:000000000000f847 .LASF218
C:\Users\CYMR90~1\AppData\Local\Temp\ccbtsgth.s:29110  .debug_str:000000000002526a .LASF219
C:\Users\CYMR90~1\AppData\Local\Temp\ccbtsgth.s:28920  .debug_str:000000000002452e .LASF220
C:\Users\CYMR90~1\AppData\Local\Temp\ccbtsgth.s:28442  .debug_str:00000000000227ff .LASF221
C:\Users\CYMR90~1\AppData\Local\Temp\ccbtsgth.s:25071  .debug_str:00000000000150f8 .LASF222
C:\Users\CYMR90~1\AppData\Local\Temp\ccbtsgth.s:21285  .debug_str:0000000000005d95 .LASF223
C:\Users\CYMR90~1\AppData\Local\Temp\ccbtsgth.s:21959  .debug_str:000000000000897f .LASF224
C:\Users\CYMR90~1\AppData\Local\Temp\ccbtsgth.s:30570  .debug_str:000000000002ae9c .LASF225
C:\Users\CYMR90~1\AppData\Local\Temp\ccbtsgth.s:23275  .debug_str:000000000000df8c .LASF226
C:\Users\CYMR90~1\AppData\Local\Temp\ccbtsgth.s:26928  .debug_str:000000000001ca42 .LASF227
C:\Users\CYMR90~1\AppData\Local\Temp\ccbtsgth.s:26778  .debug_str:000000000001c0c7 .LASF228
C:\Users\CYMR90~1\AppData\Local\Temp\ccbtsgth.s:23229  .debug_str:000000000000dc8a .LASF229
C:\Users\CYMR90~1\AppData\Local\Temp\ccbtsgth.s:27508  .debug_str:000000000001ef5e .LASF230
C:\Users\CYMR90~1\AppData\Local\Temp\ccbtsgth.s:22011  .debug_str:0000000000008ce5 .LASF231
C:\Users\CYMR90~1\AppData\Local\Temp\ccbtsgth.s:21327  .debug_str:0000000000006011 .LASF232
C:\Users\CYMR90~1\AppData\Local\Temp\ccbtsgth.s:21913  .debug_str:000000000000867f .LASF233
C:\Users\CYMR90~1\AppData\Local\Temp\ccbtsgth.s:23871  .debug_str:0000000000010459 .LASF234
C:\Users\CYMR90~1\AppData\Local\Temp\ccbtsgth.s:23601  .debug_str:000000000000f373 .LASF235
C:\Users\CYMR90~1\AppData\Local\Temp\ccbtsgth.s:28660  .debug_str:0000000000023505 .LASF236
C:\Users\CYMR90~1\AppData\Local\Temp\ccbtsgth.s:23621  .debug_str:000000000000f4a4 .LASF237
C:\Users\CYMR90~1\AppData\Local\Temp\ccbtsgth.s:29326  .debug_str:00000000000260b7 .LASF238
C:\Users\CYMR90~1\AppData\Local\Temp\ccbtsgth.s:28644  .debug_str:00000000000233da .LASF239
C:\Users\CYMR90~1\AppData\Local\Temp\ccbtsgth.s:28882  .debug_str:00000000000242ce .LASF240
C:\Users\CYMR90~1\AppData\Local\Temp\ccbtsgth.s:21727  .debug_str:00000000000079c3 .LASF241
C:\Users\CYMR90~1\AppData\Local\Temp\ccbtsgth.s:23299  .debug_str:000000000000e0db .LASF242
C:\Users\CYMR90~1\AppData\Local\Temp\ccbtsgth.s:24249  .debug_str:0000000000011c88 .LASF243
C:\Users\CYMR90~1\AppData\Local\Temp\ccbtsgth.s:28672  .debug_str:000000000002358f .LASF244
C:\Users\CYMR90~1\AppData\Local\Temp\ccbtsgth.s:24437  .debug_str:00000000000128b1 .LASF245
C:\Users\CYMR90~1\AppData\Local\Temp\ccbtsgth.s:27518  .debug_str:000000000001f01f .LASF246
C:\Users\CYMR90~1\AppData\Local\Temp\ccbtsgth.s:25844  .debug_str:00000000000183b9 .LASF247
C:\Users\CYMR90~1\AppData\Local\Temp\ccbtsgth.s:25355  .debug_str:0000000000016258 .LASF248
C:\Users\CYMR90~1\AppData\Local\Temp\ccbtsgth.s:26866  .debug_str:000000000001c5f2 .LASF249
C:\Users\CYMR90~1\AppData\Local\Temp\ccbtsgth.s:26240  .debug_str:0000000000019db1 .LASF250
C:\Users\CYMR90~1\AppData\Local\Temp\ccbtsgth.s:26798  .debug_str:000000000001c209 .LASF251
C:\Users\CYMR90~1\AppData\Local\Temp\ccbtsgth.s:28490  .debug_str:0000000000022b4d .LASF252
C:\Users\CYMR90~1\AppData\Local\Temp\ccbtsgth.s:23197  .debug_str:000000000000dac9 .LASF253
C:\Users\CYMR90~1\AppData\Local\Temp\ccbtsgth.s:29184  .debug_str:00000000000257ff .LASF254
C:\Users\CYMR90~1\AppData\Local\Temp\ccbtsgth.s:23053  .debug_str:000000000000d19a .LASF255
C:\Users\CYMR90~1\AppData\Local\Temp\ccbtsgth.s:26152  .debug_str:0000000000019845 .LASF256
C:\Users\CYMR90~1\AppData\Local\Temp\ccbtsgth.s:23295  .debug_str:000000000000e0a9 .LASF257
C:\Users\CYMR90~1\AppData\Local\Temp\ccbtsgth.s:20029  .debug_str:0000000000000e0c .LASF258
C:\Users\CYMR90~1\AppData\Local\Temp\ccbtsgth.s:22527  .debug_str:000000000000ae40 .LASF259
C:\Users\CYMR90~1\AppData\Local\Temp\ccbtsgth.s:19975  .debug_str:0000000000000a82 .LASF260
C:\Users\CYMR90~1\AppData\Local\Temp\ccbtsgth.s:30302  .debug_str:0000000000029ea6 .LASF261
C:\Users\CYMR90~1\AppData\Local\Temp\ccbtsgth.s:29762  .debug_str:0000000000027bd5 .LASF262
C:\Users\CYMR90~1\AppData\Local\Temp\ccbtsgth.s:24755  .debug_str:0000000000013cd5 .LASF263
C:\Users\CYMR90~1\AppData\Local\Temp\ccbtsgth.s:26750  .debug_str:000000000001bf26 .LASF264
C:\Users\CYMR90~1\AppData\Local\Temp\ccbtsgth.s:23723  .debug_str:000000000000fb50 .LASF265
C:\Users\CYMR90~1\AppData\Local\Temp\ccbtsgth.s:23231  .debug_str:000000000000dccb .LASF266
C:\Users\CYMR90~1\AppData\Local\Temp\ccbtsgth.s:22579  .debug_str:000000000000b25c .LASF267
C:\Users\CYMR90~1\AppData\Local\Temp\ccbtsgth.s:26852  .debug_str:000000000001c4f0 .LASF268
C:\Users\CYMR90~1\AppData\Local\Temp\ccbtsgth.s:22875  .debug_str:000000000000c60f .LASF269
C:\Users\CYMR90~1\AppData\Local\Temp\ccbtsgth.s:23787  .debug_str:000000000000ff6c .LASF270
C:\Users\CYMR90~1\AppData\Local\Temp\ccbtsgth.s:24541  .debug_str:0000000000012f8f .LASF271
C:\Users\CYMR90~1\AppData\Local\Temp\ccbtsgth.s:29426  .debug_str:00000000000266c9 .LASF272
C:\Users\CYMR90~1\AppData\Local\Temp\ccbtsgth.s:21489  .debug_str:0000000000006a12 .LASF273
C:\Users\CYMR90~1\AppData\Local\Temp\ccbtsgth.s:20419  .debug_str:0000000000002624 .LASF274
C:\Users\CYMR90~1\AppData\Local\Temp\ccbtsgth.s:21581  .debug_str:0000000000007038 .LASF275
C:\Users\CYMR90~1\AppData\Local\Temp\ccbtsgth.s:22933  .debug_str:000000000000ca1b .LASF276
C:\Users\CYMR90~1\AppData\Local\Temp\ccbtsgth.s:22771  .debug_str:000000000000bf8a .LASF277
C:\Users\CYMR90~1\AppData\Local\Temp\ccbtsgth.s:20111  .debug_str:0000000000001349 .LASF278
C:\Users\CYMR90~1\AppData\Local\Temp\ccbtsgth.s:21411  .debug_str:0000000000006529 .LASF279
C:\Users\CYMR90~1\AppData\Local\Temp\ccbtsgth.s:30090  .debug_str:0000000000029200 .LASF280
C:\Users\CYMR90~1\AppData\Local\Temp\ccbtsgth.s:22285  .debug_str:0000000000009df9 .LASF281
C:\Users\CYMR90~1\AppData\Local\Temp\ccbtsgth.s:21377  .debug_str:0000000000006346 .LASF282
C:\Users\CYMR90~1\AppData\Local\Temp\ccbtsgth.s:21279  .debug_str:0000000000005d43 .LASF283
C:\Users\CYMR90~1\AppData\Local\Temp\ccbtsgth.s:21041  .debug_str:0000000000004efb .LASF284
C:\Users\CYMR90~1\AppData\Local\Temp\ccbtsgth.s:28986  .debug_str:00000000000249be .LASF285
C:\Users\CYMR90~1\AppData\Local\Temp\ccbtsgth.s:29794  .debug_str:0000000000027e73 .LASF286
C:\Users\CYMR90~1\AppData\Local\Temp\ccbtsgth.s:30074  .debug_str:0000000000029094 .LASF287
C:\Users\CYMR90~1\AppData\Local\Temp\ccbtsgth.s:29986  .debug_str:0000000000028b0c .LASF288
C:\Users\CYMR90~1\AppData\Local\Temp\ccbtsgth.s:30842  .debug_str:000000000002c148 .LASF289
C:\Users\CYMR90~1\AppData\Local\Temp\ccbtsgth.s:25786  .debug_str:000000000001802a .LASF290
C:\Users\CYMR90~1\AppData\Local\Temp\ccbtsgth.s:24811  .debug_str:000000000001406d .LASF291
C:\Users\CYMR90~1\AppData\Local\Temp\ccbtsgth.s:29022  .debug_str:0000000000024c09 .LASF292
C:\Users\CYMR90~1\AppData\Local\Temp\ccbtsgth.s:20687  .debug_str:00000000000037a2 .LASF293
C:\Users\CYMR90~1\AppData\Local\Temp\ccbtsgth.s:27960  .debug_str:0000000000020b0c .LASF294
C:\Users\CYMR90~1\AppData\Local\Temp\ccbtsgth.s:20959  .debug_str:00000000000049f3 .LASF295
C:\Users\CYMR90~1\AppData\Local\Temp\ccbtsgth.s:30424  .debug_str:000000000002a61b .LASF296
C:\Users\CYMR90~1\AppData\Local\Temp\ccbtsgth.s:24863  .debug_str:00000000000143e0 .LASF297
C:\Users\CYMR90~1\AppData\Local\Temp\ccbtsgth.s:25670  .debug_str:0000000000017924 .LASF298
C:\Users\CYMR90~1\AppData\Local\Temp\ccbtsgth.s:19957  .debug_str:0000000000000968 .LASF299
C:\Users\CYMR90~1\AppData\Local\Temp\ccbtsgth.s:23693  .debug_str:000000000000f968 .LASF300
C:\Users\CYMR90~1\AppData\Local\Temp\ccbtsgth.s:26422  .debug_str:000000000001aa77 .LASF301
C:\Users\CYMR90~1\AppData\Local\Temp\ccbtsgth.s:24919  .debug_str:000000000001473f .LASF302
C:\Users\CYMR90~1\AppData\Local\Temp\ccbtsgth.s:24389  .debug_str:00000000000125c2 .LASF303
C:\Users\CYMR90~1\AppData\Local\Temp\ccbtsgth.s:20337  .debug_str:0000000000002169 .LASF304
C:\Users\CYMR90~1\AppData\Local\Temp\ccbtsgth.s:22883  .debug_str:000000000000c693 .LASF305
C:\Users\CYMR90~1\AppData\Local\Temp\ccbtsgth.s:28168  .debug_str:00000000000217ff .LASF306
C:\Users\CYMR90~1\AppData\Local\Temp\ccbtsgth.s:23709  .debug_str:000000000000fa71 .LASF307
C:\Users\CYMR90~1\AppData\Local\Temp\ccbtsgth.s:29006  .debug_str:0000000000024b02 .LASF308
C:\Users\CYMR90~1\AppData\Local\Temp\ccbtsgth.s:28608  .debug_str:00000000000231ba .LASF309
C:\Users\CYMR90~1\AppData\Local\Temp\ccbtsgth.s:23277  .debug_str:000000000000dfa5 .LASF310
C:\Users\CYMR90~1\AppData\Local\Temp\ccbtsgth.s:29322  .debug_str:000000000002608c .LASF311
C:\Users\CYMR90~1\AppData\Local\Temp\ccbtsgth.s:28836  .debug_str:0000000000023fc6 .LASF312
C:\Users\CYMR90~1\AppData\Local\Temp\ccbtsgth.s:22997  .debug_str:000000000000cdd0 .LASF313
C:\Users\CYMR90~1\AppData\Local\Temp\ccbtsgth.s:25936  .debug_str:00000000000189a4 .LASF316
C:\Users\CYMR90~1\AppData\Local\Temp\ccbtsgth.s:26294  .debug_str:000000000001a0b0 .LASF317
C:\Users\CYMR90~1\AppData\Local\Temp\ccbtsgth.s:26644  .debug_str:000000000001b86c .LASF318
C:\Users\CYMR90~1\AppData\Local\Temp\ccbtsgth.s:23701  .debug_str:000000000000fa05 .LASF319
C:\Users\CYMR90~1\AppData\Local\Temp\ccbtsgth.s:22645  .debug_str:000000000000b6b6 .LASF320
C:\Users\CYMR90~1\AppData\Local\Temp\ccbtsgth.s:30034  .debug_str:0000000000028e3b .LASF321
C:\Users\CYMR90~1\AppData\Local\Temp\ccbtsgth.s:23195  .debug_str:000000000000dabc .LASF322
C:\Users\CYMR90~1\AppData\Local\Temp\ccbtsgth.s:29276  .debug_str:0000000000025d76 .LASF323
C:\Users\CYMR90~1\AppData\Local\Temp\ccbtsgth.s:19839  .debug_str:000000000000025f .LASF324
C:\Users\CYMR90~1\AppData\Local\Temp\ccbtsgth.s:30450  .debug_str:000000000002a77d .LASF325
C:\Users\CYMR90~1\AppData\Local\Temp\ccbtsgth.s:20741  .debug_str:0000000000003aee .LASF326
C:\Users\CYMR90~1\AppData\Local\Temp\ccbtsgth.s:24743  .debug_str:0000000000013c05 .LASF327
C:\Users\CYMR90~1\AppData\Local\Temp\ccbtsgth.s:24391  .debug_str:00000000000125d7 .LASF328
C:\Users\CYMR90~1\AppData\Local\Temp\ccbtsgth.s:27302  .debug_str:000000000001e2db .LASF329
C:\Users\CYMR90~1\AppData\Local\Temp\ccbtsgth.s:27294  .debug_str:000000000001e28a .LASF330
C:\Users\CYMR90~1\AppData\Local\Temp\ccbtsgth.s:29464  .debug_str:000000000002690c .LASF331
C:\Users\CYMR90~1\AppData\Local\Temp\ccbtsgth.s:30014  .debug_str:0000000000028ce9 .LASF332
C:\Users\CYMR90~1\AppData\Local\Temp\ccbtsgth.s:30206  .debug_str:0000000000029915 .LASF333
C:\Users\CYMR90~1\AppData\Local\Temp\ccbtsgth.s:26270  .debug_str:0000000000019f5a .LASF334
C:\Users\CYMR90~1\AppData\Local\Temp\ccbtsgth.s:25716  .debug_str:0000000000017be5 .LASF335
C:\Users\CYMR90~1\AppData\Local\Temp\ccbtsgth.s:30054  .debug_str:0000000000028f7b .LASF336
C:\Users\CYMR90~1\AppData\Local\Temp\ccbtsgth.s:24313  .debug_str:00000000000120ca .LASF337
C:\Users\CYMR90~1\AppData\Local\Temp\ccbtsgth.s:28014  .debug_str:0000000000020e45 .LASF338
C:\Users\CYMR90~1\AppData\Local\Temp\ccbtsgth.s:22397  .debug_str:000000000000a537 .LASF339
C:\Users\CYMR90~1\AppData\Local\Temp\ccbtsgth.s:24523  .debug_str:0000000000012e81 .LASF340
C:\Users\CYMR90~1\AppData\Local\Temp\ccbtsgth.s:26472  .debug_str:000000000001ad88 .LASF341
C:\Users\CYMR90~1\AppData\Local\Temp\ccbtsgth.s:22709  .debug_str:000000000000bb2b .LASF342
C:\Users\CYMR90~1\AppData\Local\Temp\ccbtsgth.s:20093  .debug_str:0000000000001275 .LASF343
C:\Users\CYMR90~1\AppData\Local\Temp\ccbtsgth.s:30174  .debug_str:0000000000029730 .LASF344
C:\Users\CYMR90~1\AppData\Local\Temp\ccbtsgth.s:30780  .debug_str:000000000002bd19 .LASF345
C:\Users\CYMR90~1\AppData\Local\Temp\ccbtsgth.s:23591  .debug_str:000000000000f2eb .LASF346
C:\Users\CYMR90~1\AppData\Local\Temp\ccbtsgth.s:19945  .debug_str:00000000000008b1 .LASF347
C:\Users\CYMR90~1\AppData\Local\Temp\ccbtsgth.s:27814  .debug_str:00000000000201b1 .LASF348
C:\Users\CYMR90~1\AppData\Local\Temp\ccbtsgth.s:29772  .debug_str:0000000000027ca4 .LASF349
C:\Users\CYMR90~1\AppData\Local\Temp\ccbtsgth.s:27296  .debug_str:000000000001e296 .LASF350
C:\Users\CYMR90~1\AppData\Local\Temp\ccbtsgth.s:19875  .debug_str:0000000000000491 .LASF351
C:\Users\CYMR90~1\AppData\Local\Temp\ccbtsgth.s:27594  .debug_str:000000000001f4b9 .LASF352
C:\Users\CYMR90~1\AppData\Local\Temp\ccbtsgth.s:29268  .debug_str:0000000000025cf3 .LASF353
C:\Users\CYMR90~1\AppData\Local\Temp\ccbtsgth.s:26914  .debug_str:000000000001c991 .LASF354
C:\Users\CYMR90~1\AppData\Local\Temp\ccbtsgth.s:27080  .debug_str:000000000001d4d1 .LASF355
C:\Users\CYMR90~1\AppData\Local\Temp\ccbtsgth.s:23079  .debug_str:000000000000d3d6 .LASF356
C:\Users\CYMR90~1\AppData\Local\Temp\ccbtsgth.s:24007  .debug_str:0000000000010cbf .LASF357
C:\Users\CYMR90~1\AppData\Local\Temp\ccbtsgth.s:29686  .debug_str:00000000000276d3 .LASF358
C:\Users\CYMR90~1\AppData\Local\Temp\ccbtsgth.s:24381  .debug_str:0000000000012517 .LASF359
C:\Users\CYMR90~1\AppData\Local\Temp\ccbtsgth.s:22291  .debug_str:0000000000009e4d .LASF360
C:\Users\CYMR90~1\AppData\Local\Temp\ccbtsgth.s:27468  .debug_str:000000000001ecdf .LASF361
C:\Users\CYMR90~1\AppData\Local\Temp\ccbtsgth.s:24129  .debug_str:0000000000011426 .LASF362
C:\Users\CYMR90~1\AppData\Local\Temp\ccbtsgth.s:29952  .debug_str:0000000000028949 .LASF363
C:\Users\CYMR90~1\AppData\Local\Temp\ccbtsgth.s:22039  .debug_str:0000000000008ee8 .LASF364
C:\Users\CYMR90~1\AppData\Local\Temp\ccbtsgth.s:29848  .debug_str:000000000002824c .LASF365
C:\Users\CYMR90~1\AppData\Local\Temp\ccbtsgth.s:21447  .debug_str:00000000000067b4 .LASF366
C:\Users\CYMR90~1\AppData\Local\Temp\ccbtsgth.s:24515  .debug_str:0000000000012de1 .LASF367
C:\Users\CYMR90~1\AppData\Local\Temp\ccbtsgth.s:21733  .debug_str:0000000000007a2d .LASF368
C:\Users\CYMR90~1\AppData\Local\Temp\ccbtsgth.s:25756  .debug_str:0000000000017e7d .LASF372
C:\Users\CYMR90~1\AppData\Local\Temp\ccbtsgth.s:29504  .debug_str:0000000000026b6b .LASF373
C:\Users\CYMR90~1\AppData\Local\Temp\ccbtsgth.s:22475  .debug_str:000000000000aaf7 .LASF374
C:\Users\CYMR90~1\AppData\Local\Temp\ccbtsgth.s:25542  .debug_str:00000000000170b0 .LASF375
C:\Users\CYMR90~1\AppData\Local\Temp\ccbtsgth.s:25744  .debug_str:0000000000017dc0 .LASF376
C:\Users\CYMR90~1\AppData\Local\Temp\ccbtsgth.s:28262  .debug_str:0000000000021dab .LASF377
C:\Users\CYMR90~1\AppData\Local\Temp\ccbtsgth.s:26930  .debug_str:000000000001ca5b .LASF378
C:\Users\CYMR90~1\AppData\Local\Temp\ccbtsgth.s:30610  .debug_str:000000000002b178 .LASF379
C:\Users\CYMR90~1\AppData\Local\Temp\ccbtsgth.s:20433  .debug_str:000000000000271f .LASF380
C:\Users\CYMR90~1\AppData\Local\Temp\ccbtsgth.s:30550  .debug_str:000000000002ad8a .LASF381
C:\Users\CYMR90~1\AppData\Local\Temp\ccbtsgth.s:26652  .debug_str:000000000001b8d6 .LASF382
C:\Users\CYMR90~1\AppData\Local\Temp\ccbtsgth.s:21505  .debug_str:0000000000006b1f .LASF383
C:\Users\CYMR90~1\AppData\Local\Temp\ccbtsgth.s:22853  .debug_str:000000000000c497 .LASF384
C:\Users\CYMR90~1\AppData\Local\Temp\ccbtsgth.s:26168  .debug_str:0000000000019962 .LASF385
C:\Users\CYMR90~1\AppData\Local\Temp\ccbtsgth.s:23815  .debug_str:0000000000010110 .LASF386
C:\Users\CYMR90~1\AppData\Local\Temp\ccbtsgth.s:20365  .debug_str:0000000000002316 .LASF387
C:\Users\CYMR90~1\AppData\Local\Temp\ccbtsgth.s:23447  .debug_str:000000000000ea01 .LASF388
C:\Users\CYMR90~1\AppData\Local\Temp\ccbtsgth.s:22009  .debug_str:0000000000008cd1 .LASF389
C:\Users\CYMR90~1\AppData\Local\Temp\ccbtsgth.s:20829  .debug_str:0000000000004129 .LASF391
C:\Users\CYMR90~1\AppData\Local\Temp\ccbtsgth.s:23823  .debug_str:000000000001017c .LASF392
C:\Users\CYMR90~1\AppData\Local\Temp\ccbtsgth.s:27910  .debug_str:00000000000207c4 .LASF393
C:\Users\CYMR90~1\AppData\Local\Temp\ccbtsgth.s:29642  .debug_str:0000000000027429 .LASF394
C:\Users\CYMR90~1\AppData\Local\Temp\ccbtsgth.s:20393  .debug_str:0000000000002486 .LASF395
C:\Users\CYMR90~1\AppData\Local\Temp\ccbtsgth.s:22521  .debug_str:000000000000addc .LASF396
C:\Users\CYMR90~1\AppData\Local\Temp\ccbtsgth.s:26276  .debug_str:0000000000019fba .LASF397
C:\Users\CYMR90~1\AppData\Local\Temp\ccbtsgth.s:30422  .debug_str:000000000002a609 .LASF398
C:\Users\CYMR90~1\AppData\Local\Temp\ccbtsgth.s:25099  .debug_str:0000000000015287 .LASF399
C:\Users\CYMR90~1\AppData\Local\Temp\ccbtsgth.s:27552  .debug_str:000000000001f222 .LASF400
C:\Users\CYMR90~1\AppData\Local\Temp\ccbtsgth.s:22001  .debug_str:0000000000008bd9 .LASF401
C:\Users\CYMR90~1\AppData\Local\Temp\ccbtsgth.s:25598  .debug_str:0000000000017451 .LASF402
C:\Users\CYMR90~1\AppData\Local\Temp\ccbtsgth.s:21343  .debug_str:0000000000006112 .LASF403
C:\Users\CYMR90~1\AppData\Local\Temp\ccbtsgth.s:22455  .debug_str:000000000000a98b .LASF404
C:\Users\CYMR90~1\AppData\Local\Temp\ccbtsgth.s:23499  .debug_str:000000000000ed54 .LASF405
C:\Users\CYMR90~1\AppData\Local\Temp\ccbtsgth.s:26838  .debug_str:000000000001c436 .LASF406
C:\Users\CYMR90~1\AppData\Local\Temp\ccbtsgth.s:25017  .debug_str:0000000000014dcd .LASF407
C:\Users\CYMR90~1\AppData\Local\Temp\ccbtsgth.s:26014  .debug_str:0000000000018ee2 .LASF408
C:\Users\CYMR90~1\AppData\Local\Temp\ccbtsgth.s:28210  .debug_str:0000000000021a87 .LASF409
C:\Users\CYMR90~1\AppData\Local\Temp\ccbtsgth.s:21297  .debug_str:0000000000005e50 .LASF410
C:\Users\CYMR90~1\AppData\Local\Temp\ccbtsgth.s:25209  .debug_str:0000000000015902 .LASF411
C:\Users\CYMR90~1\AppData\Local\Temp\ccbtsgth.s:28330  .debug_str:000000000002219b .LASF412
C:\Users\CYMR90~1\AppData\Local\Temp\ccbtsgth.s:21481  .debug_str:00000000000069b9 .LASF413
C:\Users\CYMR90~1\AppData\Local\Temp\ccbtsgth.s:30048  .debug_str:0000000000028f14 .LASF414
C:\Users\CYMR90~1\AppData\Local\Temp\ccbtsgth.s:23593  .debug_str:000000000000f2f9 .LASF415
C:\Users\CYMR90~1\AppData\Local\Temp\ccbtsgth.s:29382  .debug_str:0000000000026419 .LASF416
C:\Users\CYMR90~1\AppData\Local\Temp\ccbtsgth.s:21537  .debug_str:0000000000006d71 .LASF417
C:\Users\CYMR90~1\AppData\Local\Temp\ccbtsgth.s:21931  .debug_str:0000000000008799 .LASF418
C:\Users\CYMR90~1\AppData\Local\Temp\ccbtsgth.s:30270  .debug_str:0000000000029cda .LASF419
C:\Users\CYMR90~1\AppData\Local\Temp\ccbtsgth.s:21549  .debug_str:0000000000006e19 .LASF420
C:\Users\CYMR90~1\AppData\Local\Temp\ccbtsgth.s:30470  .debug_str:000000000002a892 .LASF421
C:\Users\CYMR90~1\AppData\Local\Temp\ccbtsgth.s:22781  .debug_str:000000000000c03e .LASF422
C:\Users\CYMR90~1\AppData\Local\Temp\ccbtsgth.s:22975  .debug_str:000000000000cca6 .LASF423
C:\Users\CYMR90~1\AppData\Local\Temp\ccbtsgth.s:27448  .debug_str:000000000001ebcf .LASF424
C:\Users\CYMR90~1\AppData\Local\Temp\ccbtsgth.s:26052  .debug_str:000000000001920d .LASF425
C:\Users\CYMR90~1\AppData\Local\Temp\ccbtsgth.s:19849  .debug_str:000000000000030d .LASF426
C:\Users\CYMR90~1\AppData\Local\Temp\ccbtsgth.s:29962  .debug_str:00000000000289cc .LASF427
C:\Users\CYMR90~1\AppData\Local\Temp\ccbtsgth.s:25293  .debug_str:0000000000015ee9 .LASF428
C:\Users\CYMR90~1\AppData\Local\Temp\ccbtsgth.s:27226  .debug_str:000000000001de78 .LASF429
C:\Users\CYMR90~1\AppData\Local\Temp\ccbtsgth.s:23767  .debug_str:000000000000fe2f .LASF430
C:\Users\CYMR90~1\AppData\Local\Temp\ccbtsgth.s:25496  .debug_str:0000000000016dd8 .LASF431
C:\Users\CYMR90~1\AppData\Local\Temp\ccbtsgth.s:28282  .debug_str:0000000000021ebf .LASF432
C:\Users\CYMR90~1\AppData\Local\Temp\ccbtsgth.s:22959  .debug_str:000000000000cbc6 .LASF434
C:\Users\CYMR90~1\AppData\Local\Temp\ccbtsgth.s:21015  .debug_str:0000000000004d5a .LASF435
C:\Users\CYMR90~1\AppData\Local\Temp\ccbtsgth.s:25690  .debug_str:0000000000017a53 .LASF436
C:\Users\CYMR90~1\AppData\Local\Temp\ccbtsgth.s:21569  .debug_str:0000000000006f5d .LASF437
C:\Users\CYMR90~1\AppData\Local\Temp\ccbtsgth.s:29976  .debug_str:0000000000028a77 .LASF438
C:\Users\CYMR90~1\AppData\Local\Temp\ccbtsgth.s:19813  .debug_str:00000000000000c7 .LASF439
C:\Users\CYMR90~1\AppData\Local\Temp\ccbtsgth.s:27486  .debug_str:000000000001ee0c .LASF440
C:\Users\CYMR90~1\AppData\Local\Temp\ccbtsgth.s:23205  .debug_str:000000000000db36 .LASF441
C:\Users\CYMR90~1\AppData\Local\Temp\ccbtsgth.s:28518  .debug_str:0000000000022cdb .LASF442
C:\Users\CYMR90~1\AppData\Local\Temp\ccbtsgth.s:27420  .debug_str:000000000001ea3c .LASF443
C:\Users\CYMR90~1\AppData\Local\Temp\ccbtsgth.s:23901  .debug_str:0000000000010627 .LASF444
C:\Users\CYMR90~1\AppData\Local\Temp\ccbtsgth.s:30906  .debug_str:000000000002c599 .LASF445
C:\Users\CYMR90~1\AppData\Local\Temp\ccbtsgth.s:30840  .debug_str:000000000002c142 .LASF446
C:\Users\CYMR90~1\AppData\Local\Temp\ccbtsgth.s:30454  .debug_str:000000000002a7a7 .LASF447
C:\Users\CYMR90~1\AppData\Local\Temp\ccbtsgth.s:28492  .debug_str:0000000000022b5f .LASF448
C:\Users\CYMR90~1\AppData\Local\Temp\ccbtsgth.s:20841  .debug_str:00000000000041da .LASF449
C:\Users\CYMR90~1\AppData\Local\Temp\ccbtsgth.s:21589  .debug_str:00000000000070c6 .LASF450
C:\Users\CYMR90~1\AppData\Local\Temp\ccbtsgth.s:20319  .debug_str:000000000000208d .LASF451
C:\Users\CYMR90~1\AppData\Local\Temp\ccbtsgth.s:24927  .debug_str:00000000000147e1 .LASF452
C:\Users\CYMR90~1\AppData\Local\Temp\ccbtsgth.s:20307  .debug_str:0000000000001fd8 .LASF453
C:\Users\CYMR90~1\AppData\Local\Temp\ccbtsgth.s:30846  .debug_str:000000000002c188 .LASF454
C:\Users\CYMR90~1\AppData\Local\Temp\ccbtsgth.s:23367  .debug_str:000000000000e4d2 .LASF455
C:\Users\CYMR90~1\AppData\Local\Temp\ccbtsgth.s:28110  .debug_str:000000000002147d .LASF456
C:\Users\CYMR90~1\AppData\Local\Temp\ccbtsgth.s:23049  .debug_str:000000000000d178 .LASF457
C:\Users\CYMR90~1\AppData\Local\Temp\ccbtsgth.s:21355  .debug_str:00000000000061d5 .LASF458
C:\Users\CYMR90~1\AppData\Local\Temp\ccbtsgth.s:23963  .debug_str:0000000000010a86 .LASF459
C:\Users\CYMR90~1\AppData\Local\Temp\ccbtsgth.s:27864  .debug_str:00000000000204ff .LASF460
C:\Users\CYMR90~1\AppData\Local\Temp\ccbtsgth.s:29010  .debug_str:0000000000024b38 .LASF461
C:\Users\CYMR90~1\AppData\Local\Temp\ccbtsgth.s:25459  .debug_str:00000000000169dc .LASF462
C:\Users\CYMR90~1\AppData\Local\Temp\ccbtsgth.s:26324  .debug_str:000000000001a40c .LASF463
C:\Users\CYMR90~1\AppData\Local\Temp\ccbtsgth.s:23221  .debug_str:000000000000dc0f .LASF464
C:\Users\CYMR90~1\AppData\Local\Temp\ccbtsgth.s:24325  .debug_str:000000000001218d .LASF465
C:\Users\CYMR90~1\AppData\Local\Temp\ccbtsgth.s:21499  .debug_str:0000000000006ad9 .LASF466
C:\Users\CYMR90~1\AppData\Local\Temp\ccbtsgth.s:22057  .debug_str:0000000000008fcd .LASF467
C:\Users\CYMR90~1\AppData\Local\Temp\ccbtsgth.s:24103  .debug_str:000000000001129e .LASF468
C:\Users\CYMR90~1\AppData\Local\Temp\ccbtsgth.s:20643  .debug_str:00000000000034cd .LASF469
C:\Users\CYMR90~1\AppData\Local\Temp\ccbtsgth.s:23861  .debug_str:00000000000103bf .LASF470
C:\Users\CYMR90~1\AppData\Local\Temp\ccbtsgth.s:23745  .debug_str:000000000000fcc8 .LASF471
C:\Users\CYMR90~1\AppData\Local\Temp\ccbtsgth.s:23343  .debug_str:000000000000e368 .LASF472
C:\Users\CYMR90~1\AppData\Local\Temp\ccbtsgth.s:20031  .debug_str:0000000000000e4a .LASF473
C:\Users\CYMR90~1\AppData\Local\Temp\ccbtsgth.s:25421  .debug_str:00000000000166ec .LASF474
C:\Users\CYMR90~1\AppData\Local\Temp\ccbtsgth.s:19977  .debug_str:0000000000000ac0 .LASF475
C:\Users\CYMR90~1\AppData\Local\Temp\ccbtsgth.s:20807  .debug_str:0000000000003f24 .LASF476
C:\Users\CYMR90~1\AppData\Local\Temp\ccbtsgth.s:20195  .debug_str:000000000000192a .LASF477
C:\Users\CYMR90~1\AppData\Local\Temp\ccbtsgth.s:25237  .debug_str:0000000000015b0e .LASF478
C:\Users\CYMR90~1\AppData\Local\Temp\ccbtsgth.s:22663  .debug_str:000000000000b801 .LASF479
C:\Users\CYMR90~1\AppData\Local\Temp\ccbtsgth.s:30466  .debug_str:000000000002a862 .LASF480
C:\Users\CYMR90~1\AppData\Local\Temp\ccbtsgth.s:28326  .debug_str:0000000000022166 .LASF481
C:\Users\CYMR90~1\AppData\Local\Temp\ccbtsgth.s:22589  .debug_str:000000000000b2f1 .LASF482
C:\Users\CYMR90~1\AppData\Local\Temp\ccbtsgth.s:21397  .debug_str:0000000000006465 .LASF483
C:\Users\CYMR90~1\AppData\Local\Temp\ccbtsgth.s:19941  .debug_str:000000000000086a .LASF484
C:\Users\CYMR90~1\AppData\Local\Temp\ccbtsgth.s:25784  .debug_str:0000000000018007 .LASF485
C:\Users\CYMR90~1\AppData\Local\Temp\ccbtsgth.s:21025  .debug_str:0000000000004dff .LASF486
C:\Users\CYMR90~1\AppData\Local\Temp\ccbtsgth.s:24683  .debug_str:0000000000013893 .LASF487
C:\Users\CYMR90~1\AppData\Local\Temp\ccbtsgth.s:23889  .debug_str:0000000000010590 .LASF488
C:\Users\CYMR90~1\AppData\Local\Temp\ccbtsgth.s:24441  .debug_str:0000000000012913 .LASF489
C:\Users\CYMR90~1\AppData\Local\Temp\ccbtsgth.s:22935  .debug_str:000000000000ca5c .LASF490
C:\Users\CYMR90~1\AppData\Local\Temp\ccbtsgth.s:21929  .debug_str:000000000000878b .LASF491
C:\Users\CYMR90~1\AppData\Local\Temp\ccbtsgth.s:23551  .debug_str:000000000000f06a .LASF492
C:\Users\CYMR90~1\AppData\Local\Temp\ccbtsgth.s:23851  .debug_str:0000000000010339 .LASF493
C:\Users\CYMR90~1\AppData\Local\Temp\ccbtsgth.s:23749  .debug_str:000000000000fd18 .LASF494
C:\Users\CYMR90~1\AppData\Local\Temp\ccbtsgth.s:26042  .debug_str:000000000001918a .LASF495
C:\Users\CYMR90~1\AppData\Local\Temp\ccbtsgth.s:30928  .debug_str:000000000002c6cd .LASF496
C:\Users\CYMR90~1\AppData\Local\Temp\ccbtsgth.s:30866  .debug_str:000000000002c308 .LASF497
C:\Users\CYMR90~1\AppData\Local\Temp\ccbtsgth.s:23597  .debug_str:000000000000f340 .LASF498
C:\Users\CYMR90~1\AppData\Local\Temp\ccbtsgth.s:30072  .debug_str:000000000002906f .LASF499
C:\Users\CYMR90~1\AppData\Local\Temp\ccbtsgth.s:30178  .debug_str:0000000000029753 .LASF500
C:\Users\CYMR90~1\AppData\Local\Temp\ccbtsgth.s:24891  .debug_str:000000000001458c .LASF501
C:\Users\CYMR90~1\AppData\Local\Temp\ccbtsgth.s:30128  .debug_str:0000000000029485 .LASF502
C:\Users\CYMR90~1\AppData\Local\Temp\ccbtsgth.s:24839  .debug_str:00000000000141ed .LASF503
C:\Users\CYMR90~1\AppData\Local\Temp\ccbtsgth.s:20513  .debug_str:0000000000002c7a .LASF504
C:\Users\CYMR90~1\AppData\Local\Temp\ccbtsgth.s:22035  .debug_str:0000000000008e96 .LASF505
C:\Users\CYMR90~1\AppData\Local\Temp\ccbtsgth.s:29638  .debug_str:00000000000273ee .LASF506
C:\Users\CYMR90~1\AppData\Local\Temp\ccbtsgth.s:23875  .debug_str:000000000001048d .LASF507
C:\Users\CYMR90~1\AppData\Local\Temp\ccbtsgth.s:25958  .debug_str:0000000000018afd .LASF508
C:\Users\CYMR90~1\AppData\Local\Temp\ccbtsgth.s:28200  .debug_str:00000000000219ab .LASF509
C:\Users\CYMR90~1\AppData\Local\Temp\ccbtsgth.s:29866  .debug_str:0000000000028397 .LASF510
C:\Users\CYMR90~1\AppData\Local\Temp\ccbtsgth.s:25732  .debug_str:0000000000017cca .LASF511
C:\Users\CYMR90~1\AppData\Local\Temp\ccbtsgth.s:29492  .debug_str:0000000000026a76 .LASF512
C:\Users\CYMR90~1\AppData\Local\Temp\ccbtsgth.s:29608  .debug_str:0000000000027251 .LASF513
C:\Users\CYMR90~1\AppData\Local\Temp\ccbtsgth.s:30052  .debug_str:0000000000028f40 .LASF514
C:\Users\CYMR90~1\AppData\Local\Temp\ccbtsgth.s:24607  .debug_str:00000000000133f1 .LASF515
C:\Users\CYMR90~1\AppData\Local\Temp\ccbtsgth.s:29928  .debug_str:00000000000287d9 .LASF516
C:\Users\CYMR90~1\AppData\Local\Temp\ccbtsgth.s:26110  .debug_str:0000000000019561 .LASF517
C:\Users\CYMR90~1\AppData\Local\Temp\ccbtsgth.s:29874  .debug_str:000000000002844b .LASF518
C:\Users\CYMR90~1\AppData\Local\Temp\ccbtsgth.s:26760  .debug_str:000000000001bf9c .LASF519
C:\Users\CYMR90~1\AppData\Local\Temp\ccbtsgth.s:30834  .debug_str:000000000002c0e0 .LASF520
C:\Users\CYMR90~1\AppData\Local\Temp\ccbtsgth.s:27022  .debug_str:000000000001d166 .LASF521
C:\Users\CYMR90~1\AppData\Local\Temp\ccbtsgth.s:29132  .debug_str:00000000000253c5 .LASF522
C:\Users\CYMR90~1\AppData\Local\Temp\ccbtsgth.s:24487  .debug_str:0000000000012beb .LASF523
C:\Users\CYMR90~1\AppData\Local\Temp\ccbtsgth.s:28684  .debug_str:0000000000023680 .LASF524
C:\Users\CYMR90~1\AppData\Local\Temp\ccbtsgth.s:22143  .debug_str:00000000000094a3 .LASF525
C:\Users\CYMR90~1\AppData\Local\Temp\ccbtsgth.s:30856  .debug_str:000000000002c201 .LASF526
C:\Users\CYMR90~1\AppData\Local\Temp\ccbtsgth.s:23375  .debug_str:000000000000e550 .LASF527
C:\Users\CYMR90~1\AppData\Local\Temp\ccbtsgth.s:24351  .debug_str:0000000000012329 .LASF528
C:\Users\CYMR90~1\AppData\Local\Temp\ccbtsgth.s:25215  .debug_str:0000000000015966 .LASF529
C:\Users\CYMR90~1\AppData\Local\Temp\ccbtsgth.s:25247  .debug_str:0000000000015b9f .LASF530
C:\Users\CYMR90~1\AppData\Local\Temp\ccbtsgth.s:24273  .debug_str:0000000000011e52 .LASF531
C:\Users\CYMR90~1\AppData\Local\Temp\ccbtsgth.s:20573  .debug_str:0000000000003008 .LASF532
C:\Users\CYMR90~1\AppData\Local\Temp\ccbtsgth.s:23055  .debug_str:000000000000d1b2 .LASF533
C:\Users\CYMR90~1\AppData\Local\Temp\ccbtsgth.s:30692  .debug_str:000000000002b705 .LASF534
C:\Users\CYMR90~1\AppData\Local\Temp\ccbtsgth.s:23549  .debug_str:000000000000f01e .LASF535
C:\Users\CYMR90~1\AppData\Local\Temp\ccbtsgth.s:28870  .debug_str:00000000000241ee .LASF536
C:\Users\CYMR90~1\AppData\Local\Temp\ccbtsgth.s:30336  .debug_str:000000000002a07b .LASF537
C:\Users\CYMR90~1\AppData\Local\Temp\ccbtsgth.s:24117  .debug_str:0000000000011347 .LASF538
C:\Users\CYMR90~1\AppData\Local\Temp\ccbtsgth.s:24687  .debug_str:00000000000138c2 .LASF539
C:\Users\CYMR90~1\AppData\Local\Temp\ccbtsgth.s:26818  .debug_str:000000000001c333 .LASF540
C:\Users\CYMR90~1\AppData\Local\Temp\ccbtsgth.s:28400  .debug_str:00000000000225ab .LASF541
C:\Users\CYMR90~1\AppData\Local\Temp\ccbtsgth.s:27114  .debug_str:000000000001d6f2 .LASF542
C:\Users\CYMR90~1\AppData\Local\Temp\ccbtsgth.s:20911  .debug_str:0000000000004673 .LASF543
C:\Users\CYMR90~1\AppData\Local\Temp\ccbtsgth.s:23309  .debug_str:000000000000e15e .LASF544
C:\Users\CYMR90~1\AppData\Local\Temp\ccbtsgth.s:30114  .debug_str:000000000002939c .LASF545
C:\Users\CYMR90~1\AppData\Local\Temp\ccbtsgth.s:24619  .debug_str:0000000000013497 .LASF546
C:\Users\CYMR90~1\AppData\Local\Temp\ccbtsgth.s:28382  .debug_str:000000000002247a .LASF547
C:\Users\CYMR90~1\AppData\Local\Temp\ccbtsgth.s:30606  .debug_str:000000000002b14a .LASF548
C:\Users\CYMR90~1\AppData\Local\Temp\ccbtsgth.s:20617  .debug_str:000000000000330b .LASF549
C:\Users\CYMR90~1\AppData\Local\Temp\ccbtsgth.s:21759  .debug_str:0000000000007bae .LASF550
C:\Users\CYMR90~1\AppData\Local\Temp\ccbtsgth.s:29390  .debug_str:000000000002647c .LASF551
C:\Users\CYMR90~1\AppData\Local\Temp\ccbtsgth.s:21323  .debug_str:0000000000005fd6 .LASF552
C:\Users\CYMR90~1\AppData\Local\Temp\ccbtsgth.s:30354  .debug_str:000000000002a180 .LASF553
C:\Users\CYMR90~1\AppData\Local\Temp\ccbtsgth.s:22737  .debug_str:000000000000bce7 .LASF554
C:\Users\CYMR90~1\AppData\Local\Temp\ccbtsgth.s:22913  .debug_str:000000000000c8b3 .LASF555
C:\Users\CYMR90~1\AppData\Local\Temp\ccbtsgth.s:21445  .debug_str:0000000000006761 .LASF556
C:\Users\CYMR90~1\AppData\Local\Temp\ccbtsgth.s:21155  .debug_str:000000000000558a .LASF557
C:\Users\CYMR90~1\AppData\Local\Temp\ccbtsgth.s:24223  .debug_str:0000000000011ada .LASF558
C:\Users\CYMR90~1\AppData\Local\Temp\ccbtsgth.s:25984  .debug_str:0000000000018d28 .LASF559
C:\Users\CYMR90~1\AppData\Local\Temp\ccbtsgth.s:29918  .debug_str:0000000000028731 .LASF560
C:\Users\CYMR90~1\AppData\Local\Temp\ccbtsgth.s:22733  .debug_str:000000000000bc83 .LASF561
C:\Users\CYMR90~1\AppData\Local\Temp\ccbtsgth.s:23699  .debug_str:000000000000f9ba .LASF562
C:\Users\CYMR90~1\AppData\Local\Temp\ccbtsgth.s:23101  .debug_str:000000000000d51b .LASF563
C:\Users\CYMR90~1\AppData\Local\Temp\ccbtsgth.s:22435  .debug_str:000000000000a777 .LASF564
C:\Users\CYMR90~1\AppData\Local\Temp\ccbtsgth.s:28138  .debug_str:0000000000021618 .LASF565
C:\Users\CYMR90~1\AppData\Local\Temp\ccbtsgth.s:27362  .debug_str:000000000001e6a2 .LASF566
C:\Users\CYMR90~1\AppData\Local\Temp\ccbtsgth.s:24655  .debug_str:00000000000136b1 .LASF567
C:\Users\CYMR90~1\AppData\Local\Temp\ccbtsgth.s:29224  .debug_str:0000000000025a65 .LASF568
C:\Users\CYMR90~1\AppData\Local\Temp\ccbtsgth.s:20001  .debug_str:0000000000000c6b .LASF570
C:\Users\CYMR90~1\AppData\Local\Temp\ccbtsgth.s:24591  .debug_str:0000000000013314 .LASF571
C:\Users\CYMR90~1\AppData\Local\Temp\ccbtsgth.s:26754  .debug_str:000000000001bf68 .LASF574
C:\Users\CYMR90~1\AppData\Local\Temp\ccbtsgth.s:20881  .debug_str:0000000000004477 .LASF575
C:\Users\CYMR90~1\AppData\Local\Temp\ccbtsgth.s:24845  .debug_str:0000000000014285 .LASF576
C:\Users\CYMR90~1\AppData\Local\Temp\ccbtsgth.s:21859  .debug_str:0000000000008364 .LASF577
C:\Users\CYMR90~1\AppData\Local\Temp\ccbtsgth.s:28036  .debug_str:0000000000020f7c .LASF579
C:\Users\CYMR90~1\AppData\Local\Temp\ccbtsgth.s:27238  .debug_str:000000000001df31 .LASF580
C:\Users\CYMR90~1\AppData\Local\Temp\ccbtsgth.s:28770  .debug_str:0000000000023b59 .LASF581
C:\Users\CYMR90~1\AppData\Local\Temp\ccbtsgth.s:21281  .debug_str:0000000000005d5a .LASF582
C:\Users\CYMR90~1\AppData\Local\Temp\ccbtsgth.s:23843  .debug_str:00000000000102b6 .LASF583
C:\Users\CYMR90~1\AppData\Local\Temp\ccbtsgth.s:20471  .debug_str:00000000000029cd .LASF584
C:\Users\CYMR90~1\AppData\Local\Temp\ccbtsgth.s:30212  .debug_str:0000000000029974 .LASF585
C:\Users\CYMR90~1\AppData\Local\Temp\ccbtsgth.s:28430  .debug_str:0000000000022768 .LASF586
C:\Users\CYMR90~1\AppData\Local\Temp\ccbtsgth.s:26640  .debug_str:000000000001b84a .LASF587
C:\Users\CYMR90~1\AppData\Local\Temp\ccbtsgth.s:22433  .debug_str:000000000000a767 .LASF588
C:\Users\CYMR90~1\AppData\Local\Temp\ccbtsgth.s:25892  .debug_str:00000000000186ae .LASF589
C:\Users\CYMR90~1\AppData\Local\Temp\ccbtsgth.s:26272  .debug_str:0000000000019f63 .LASF590
C:\Users\CYMR90~1\AppData\Local\Temp\ccbtsgth.s:27106  .debug_str:000000000001d692 .LASF591
C:\Users\CYMR90~1\AppData\Local\Temp\ccbtsgth.s:29518  .debug_str:0000000000026c5a .LASF592
C:\Users\CYMR90~1\AppData\Local\Temp\ccbtsgth.s:28758  .debug_str:0000000000023ab6 .LASF593
C:\Users\CYMR90~1\AppData\Local\Temp\ccbtsgth.s:23803  .debug_str:000000000001005d .LASF594
C:\Users\CYMR90~1\AppData\Local\Temp\ccbtsgth.s:24681  .debug_str:0000000000013873 .LASF595
C:\Users\CYMR90~1\AppData\Local\Temp\ccbtsgth.s:24403  .debug_str:0000000000012685 .LASF596
C:\Users\CYMR90~1\AppData\Local\Temp\ccbtsgth.s:21617  .debug_str:00000000000072b8 .LASF597
C:\Users\CYMR90~1\AppData\Local\Temp\ccbtsgth.s:29734  .debug_str:0000000000027a42 .LASF598
C:\Users\CYMR90~1\AppData\Local\Temp\ccbtsgth.s:24563  .debug_str:0000000000013136 .LASF599
C:\Users\CYMR90~1\AppData\Local\Temp\ccbtsgth.s:27572  .debug_str:000000000001f356 .LASF600
C:\Users\CYMR90~1\AppData\Local\Temp\ccbtsgth.s:26826  .debug_str:000000000001c39f .LASF601
C:\Users\CYMR90~1\AppData\Local\Temp\ccbtsgth.s:29232  .debug_str:0000000000025ada .LASF602
C:\Users\CYMR90~1\AppData\Local\Temp\ccbtsgth.s:29932  .debug_str:0000000000028825 .LASF603
C:\Users\CYMR90~1\AppData\Local\Temp\ccbtsgth.s:29824  .debug_str:00000000000280cf .LASF604
C:\Users\CYMR90~1\AppData\Local\Temp\ccbtsgth.s:24513  .debug_str:0000000000012dc9 .LASF605
C:\Users\CYMR90~1\AppData\Local\Temp\ccbtsgth.s:28568  .debug_str:0000000000022f77 .LASF606
C:\Users\CYMR90~1\AppData\Local\Temp\ccbtsgth.s:22213  .debug_str:0000000000009994 .LASF607
C:\Users\CYMR90~1\AppData\Local\Temp\ccbtsgth.s:21717  .debug_str:00000000000078f6 .LASF608
C:\Users\CYMR90~1\AppData\Local\Temp\ccbtsgth.s:22499  .debug_str:000000000000ac86 .LASF609
C:\Users\CYMR90~1\AppData\Local\Temp\ccbtsgth.s:26678  .debug_str:000000000001ba53 .LASF610
C:\Users\CYMR90~1\AppData\Local\Temp\ccbtsgth.s:21247  .debug_str:0000000000005b66 .LASF611
C:\Users\CYMR90~1\AppData\Local\Temp\ccbtsgth.s:28354  .debug_str:00000000000222e8 .LASF612
C:\Users\CYMR90~1\AppData\Local\Temp\ccbtsgth.s:25081  .debug_str:0000000000015166 .LASF613
C:\Users\CYMR90~1\AppData\Local\Temp\ccbtsgth.s:21779  .debug_str:0000000000007da8 .LASF614
C:\Users\CYMR90~1\AppData\Local\Temp\ccbtsgth.s:19901  .debug_str:00000000000005d7 .LASF615
C:\Users\CYMR90~1\AppData\Local\Temp\ccbtsgth.s:25321  .debug_str:0000000000016076 .LASF616
C:\Users\CYMR90~1\AppData\Local\Temp\ccbtsgth.s:26306  .debug_str:000000000001a16c .LASF617
C:\Users\CYMR90~1\AppData\Local\Temp\ccbtsgth.s:25461  .debug_str:00000000000169eb .LASF618
C:\Users\CYMR90~1\AppData\Local\Temp\ccbtsgth.s:28440  .debug_str:00000000000227e5 .LASF619
C:\Users\CYMR90~1\AppData\Local\Temp\ccbtsgth.s:25011  .debug_str:0000000000014d66 .LASF620
C:\Users\CYMR90~1\AppData\Local\Temp\ccbtsgth.s:21529  .debug_str:0000000000006cd8 .LASF621
C:\Users\CYMR90~1\AppData\Local\Temp\ccbtsgth.s:28630  .debug_str:00000000000232eb .LASF622
C:\Users\CYMR90~1\AppData\Local\Temp\ccbtsgth.s:27750  .debug_str:000000000001fde8 .LASF623
C:\Users\CYMR90~1\AppData\Local\Temp\ccbtsgth.s:29694  .debug_str:0000000000027748 .LASF624
C:\Users\CYMR90~1\AppData\Local\Temp\ccbtsgth.s:30310  .debug_str:0000000000029f2b .LASF625
C:\Users\CYMR90~1\AppData\Local\Temp\ccbtsgth.s:24751  .debug_str:0000000000013c74 .LASF626
C:\Users\CYMR90~1\AppData\Local\Temp\ccbtsgth.s:30572  .debug_str:000000000002aeb3 .LASF627
C:\Users\CYMR90~1\AppData\Local\Temp\ccbtsgth.s:25173  .debug_str:00000000000156a9 .LASF628
C:\Users\CYMR90~1\AppData\Local\Temp\ccbtsgth.s:28380  .debug_str:0000000000022442 .LASF629
C:\Users\CYMR90~1\AppData\Local\Temp\ccbtsgth.s:21937  .debug_str:0000000000008810 .LASF630
C:\Users\CYMR90~1\AppData\Local\Temp\ccbtsgth.s:23139  .debug_str:000000000000d75c .LASF631
C:\Users\CYMR90~1\AppData\Local\Temp\ccbtsgth.s:28344  .debug_str:0000000000022248 .LASF632
C:\Users\CYMR90~1\AppData\Local\Temp\ccbtsgth.s:22859  .debug_str:000000000000c4f8 .LASF633
C:\Users\CYMR90~1\AppData\Local\Temp\ccbtsgth.s:19993  .debug_str:0000000000000bf3 .LASF634
C:\Users\CYMR90~1\AppData\Local\Temp\ccbtsgth.s:26214  .debug_str:0000000000019c40 .LASF635
C:\Users\CYMR90~1\AppData\Local\Temp\ccbtsgth.s:25379  .debug_str:0000000000016421 .LASF636
C:\Users\CYMR90~1\AppData\Local\Temp\ccbtsgth.s:26990  .debug_str:000000000001cf75 .LASF637
C:\Users\CYMR90~1\AppData\Local\Temp\ccbtsgth.s:20679  .debug_str:00000000000036fb .LASF638
C:\Users\CYMR90~1\AppData\Local\Temp\ccbtsgth.s:24175  .debug_str:0000000000011816 .LASF639
C:\Users\CYMR90~1\AppData\Local\Temp\ccbtsgth.s:21791  .debug_str:0000000000007e50 .LASF640
C:\Users\CYMR90~1\AppData\Local\Temp\ccbtsgth.s:24387  .debug_str:0000000000012586 .LASF641
C:\Users\CYMR90~1\AppData\Local\Temp\ccbtsgth.s:22653  .debug_str:000000000000b730 .LASF642
C:\Users\CYMR90~1\AppData\Local\Temp\ccbtsgth.s:29676  .debug_str:00000000000275fe .LASF643
C:\Users\CYMR90~1\AppData\Local\Temp\ccbtsgth.s:23013  .debug_str:000000000000cf01 .LASF644
C:\Users\CYMR90~1\AppData\Local\Temp\ccbtsgth.s:20853  .debug_str:0000000000004272 .LASF645
C:\Users\CYMR90~1\AppData\Local\Temp\ccbtsgth.s:21675  .debug_str:000000000000760d .LASF646
C:\Users\CYMR90~1\AppData\Local\Temp\ccbtsgth.s:20609  .debug_str:0000000000003279 .LASF647
C:\Users\CYMR90~1\AppData\Local\Temp\ccbtsgth.s:20969  .debug_str:0000000000004a7a .LASF648
C:\Users\CYMR90~1\AppData\Local\Temp\ccbtsgth.s:30210  .debug_str:0000000000029935 .LASF649
C:\Users\CYMR90~1\AppData\Local\Temp\ccbtsgth.s:24099  .debug_str:000000000001122b .LASF650
C:\Users\CYMR90~1\AppData\Local\Temp\ccbtsgth.s:30326  .debug_str:000000000002a012 .LASF651
C:\Users\CYMR90~1\AppData\Local\Temp\ccbtsgth.s:23707  .debug_str:000000000000fa57 .LASF652
C:\Users\CYMR90~1\AppData\Local\Temp\ccbtsgth.s:19879  .debug_str:00000000000004b1 .LASF653
C:\Users\CYMR90~1\AppData\Local\Temp\ccbtsgth.s:30554  .debug_str:000000000002adb5 .LASF654
C:\Users\CYMR90~1\AppData\Local\Temp\ccbtsgth.s:22027  .debug_str:0000000000008e15 .LASF655
C:\Users\CYMR90~1\AppData\Local\Temp\ccbtsgth.s:29748  .debug_str:0000000000027b17 .LASF656
C:\Users\CYMR90~1\AppData\Local\Temp\ccbtsgth.s:19935  .debug_str:0000000000000828 .LASF657
C:\Users\CYMR90~1\AppData\Local\Temp\ccbtsgth.s:30376  .debug_str:000000000002a2f8 .LASF658
C:\Users\CYMR90~1\AppData\Local\Temp\ccbtsgth.s:24481  .debug_str:0000000000012b9d .LASF659
C:\Users\CYMR90~1\AppData\Local\Temp\ccbtsgth.s:26926  .debug_str:000000000001ca2f .LASF660
C:\Users\CYMR90~1\AppData\Local\Temp\ccbtsgth.s:23411  .debug_str:000000000000e7c7 .LASF661
C:\Users\CYMR90~1\AppData\Local\Temp\ccbtsgth.s:27600  .debug_str:000000000001f504 .LASF662
C:\Users\CYMR90~1\AppData\Local\Temp\ccbtsgth.s:29532  .debug_str:0000000000026d28 .LASF663
C:\Users\CYMR90~1\AppData\Local\Temp\ccbtsgth.s:24075  .debug_str:00000000000110c7 .LASF664
C:\Users\CYMR90~1\AppData\Local\Temp\ccbtsgth.s:24067  .debug_str:0000000000011069 .LASF665
C:\Users\CYMR90~1\AppData\Local\Temp\ccbtsgth.s:25996  .debug_str:0000000000018e0f .LASF666
C:\Users\CYMR90~1\AppData\Local\Temp\ccbtsgth.s:21259  .debug_str:0000000000005c27 .LASF667
C:\Users\CYMR90~1\AppData\Local\Temp\ccbtsgth.s:31058  .debug_str:000000000002cf59 .LASF668
C:\Users\CYMR90~1\AppData\Local\Temp\ccbtsgth.s:21641  .debug_str:0000000000007412 .LASF669
C:\Users\CYMR90~1\AppData\Local\Temp\ccbtsgth.s:28232  .debug_str:0000000000021bd2 .LASF670
C:\Users\CYMR90~1\AppData\Local\Temp\ccbtsgth.s:24461  .debug_str:0000000000012a7a .LASF671
C:\Users\CYMR90~1\AppData\Local\Temp\ccbtsgth.s:27650  .debug_str:000000000001f7cb .LASF672
C:\Users\CYMR90~1\AppData\Local\Temp\ccbtsgth.s:28358  .debug_str:0000000000022319 .LASF673
C:\Users\CYMR90~1\AppData\Local\Temp\ccbtsgth.s:20261  .debug_str:0000000000001d2b .LASF674
C:\Users\CYMR90~1\AppData\Local\Temp\ccbtsgth.s:25157  .debug_str:00000000000155b7 .LASF676
C:\Users\CYMR90~1\AppData\Local\Temp\ccbtsgth.s:28788  .debug_str:0000000000023c46 .LASF677
C:\Users\CYMR90~1\AppData\Local\Temp\ccbtsgth.s:26228  .debug_str:0000000000019d1e .LASF678
C:\Users\CYMR90~1\AppData\Local\Temp\ccbtsgth.s:28892  .debug_str:0000000000024380 .LASF679
C:\Users\CYMR90~1\AppData\Local\Temp\ccbtsgth.s:27358  .debug_str:000000000001e676 .LASF680
C:\Users\CYMR90~1\AppData\Local\Temp\ccbtsgth.s:30228  .debug_str:0000000000029a61 .LASF681
C:\Users\CYMR90~1\AppData\Local\Temp\ccbtsgth.s:20855  .debug_str:00000000000042b0 .LASF682
C:\Users\CYMR90~1\AppData\Local\Temp\ccbtsgth.s:20777  .debug_str:0000000000003d37 .LASF683
C:\Users\CYMR90~1\AppData\Local\Temp\ccbtsgth.s:22171  .debug_str:000000000000968e .LASF684
C:\Users\CYMR90~1\AppData\Local\Temp\ccbtsgth.s:26682  .debug_str:000000000001ba80 .LASF685
C:\Users\CYMR90~1\AppData\Local\Temp\ccbtsgth.s:28094  .debug_str:0000000000021375 .LASF686
C:\Users\CYMR90~1\AppData\Local\Temp\ccbtsgth.s:25439  .debug_str:000000000001681c .LASF687
C:\Users\CYMR90~1\AppData\Local\Temp\ccbtsgth.s:23999  .debug_str:0000000000010c52 .LASF688
C:\Users\CYMR90~1\AppData\Local\Temp\ccbtsgth.s:20663  .debug_str:00000000000035e9 .LASF689
C:\Users\CYMR90~1\AppData\Local\Temp\ccbtsgth.s:21535  .debug_str:0000000000006d57 .LASF690
C:\Users\CYMR90~1\AppData\Local\Temp\ccbtsgth.s:24335  .debug_str:0000000000012216 .LASF691
C:\Users\CYMR90~1\AppData\Local\Temp\ccbtsgth.s:25197  .debug_str:000000000001583a .LASF692
C:\Users\CYMR90~1\AppData\Local\Temp\ccbtsgth.s:21225  .debug_str:0000000000005a29 .LASF695
C:\Users\CYMR90~1\AppData\Local\Temp\ccbtsgth.s:25612  .debug_str:000000000001752b .LASF696
C:\Users\CYMR90~1\AppData\Local\Temp\ccbtsgth.s:23039  .debug_str:000000000000d0b0 .LASF697
C:\Users\CYMR90~1\AppData\Local\Temp\ccbtsgth.s:26650  .debug_str:000000000001b8c4 .LASF698
C:\Users\CYMR90~1\AppData\Local\Temp\ccbtsgth.s:28828  .debug_str:0000000000023e65 .LASF699
C:\Users\CYMR90~1\AppData\Local\Temp\ccbtsgth.s:24923  .debug_str:000000000001475e .LASF702
C:\Users\CYMR90~1\AppData\Local\Temp\ccbtsgth.s:22193  .debug_str:00000000000097e5 .LASF703
C:\Users\CYMR90~1\AppData\Local\Temp\ccbtsgth.s:27540  .debug_str:000000000001f17d .LASF704
C:\Users\CYMR90~1\AppData\Local\Temp\ccbtsgth.s:21049  .debug_str:0000000000004f58 .LASF705
C:\Users\CYMR90~1\AppData\Local\Temp\ccbtsgth.s:25261  .debug_str:0000000000015cae .LASF706
C:\Users\CYMR90~1\AppData\Local\Temp\ccbtsgth.s:23595  .debug_str:000000000000f31a .LASF707
C:\Users\CYMR90~1\AppData\Local\Temp\ccbtsgth.s:29948  .debug_str:000000000002891d .LASF708
C:\Users\CYMR90~1\AppData\Local\Temp\ccbtsgth.s:29200  .debug_str:00000000000258d8 .LASF709
C:\Users\CYMR90~1\AppData\Local\Temp\ccbtsgth.s:23251  .debug_str:000000000000de2f .LASF710
C:\Users\CYMR90~1\AppData\Local\Temp\ccbtsgth.s:23747  .debug_str:000000000000fce5 .LASF711
C:\Users\CYMR90~1\AppData\Local\Temp\ccbtsgth.s:25411  .debug_str:00000000000165f1 .LASF712
C:\Users\CYMR90~1\AppData\Local\Temp\ccbtsgth.s:22429  .debug_str:000000000000a70d .LASF713
C:\Users\CYMR90~1\AppData\Local\Temp\ccbtsgth.s:30774  .debug_str:000000000002bc9a .LASF714
C:\Users\CYMR90~1\AppData\Local\Temp\ccbtsgth.s:21775  .debug_str:0000000000007d43 .LASF715
C:\Users\CYMR90~1\AppData\Local\Temp\ccbtsgth.s:22695  .debug_str:000000000000ba06 .LASF716
C:\Users\CYMR90~1\AppData\Local\Temp\ccbtsgth.s:27766  .debug_str:000000000001ff0d .LASF717
C:\Users\CYMR90~1\AppData\Local\Temp\ccbtsgth.s:29160  .debug_str:0000000000025600 .LASF718
C:\Users\CYMR90~1\AppData\Local\Temp\ccbtsgth.s:28936  .debug_str:0000000000024621 .LASF719
C:\Users\CYMR90~1\AppData\Local\Temp\ccbtsgth.s:25930  .debug_str:0000000000018952 .LASF720
C:\Users\CYMR90~1\AppData\Local\Temp\ccbtsgth.s:20313  .debug_str:0000000000002038 .LASF721
C:\Users\CYMR90~1\AppData\Local\Temp\ccbtsgth.s:27868  .debug_str:0000000000020533 .LASF722
C:\Users\CYMR90~1\AppData\Local\Temp\ccbtsgth.s:26840  .debug_str:000000000001c446 .LASF723
C:\Users\CYMR90~1\AppData\Local\Temp\ccbtsgth.s:27412  .debug_str:000000000001e9e3 .LASF724
C:\Users\CYMR90~1\AppData\Local\Temp\ccbtsgth.s:28336  .debug_str:00000000000221d5 .LASF725
C:\Users\CYMR90~1\AppData\Local\Temp\ccbtsgth.s:24579  .debug_str:0000000000013249 .LASF726
C:\Users\CYMR90~1\AppData\Local\Temp\ccbtsgth.s:22423  .debug_str:000000000000a6b3 .LASF727
C:\Users\CYMR90~1\AppData\Local\Temp\ccbtsgth.s:29294  .debug_str:0000000000025ec8 .LASF728
C:\Users\CYMR90~1\AppData\Local\Temp\ccbtsgth.s:20229  .debug_str:0000000000001b2d .LASF729
C:\Users\CYMR90~1\AppData\Local\Temp\ccbtsgth.s:26118  .debug_str:00000000000195c4 .LASF730
C:\Users\CYMR90~1\AppData\Local\Temp\ccbtsgth.s:24551  .debug_str:0000000000013097 .LASF731
C:\Users\CYMR90~1\AppData\Local\Temp\ccbtsgth.s:29234  .debug_str:0000000000025b15 .LASF732
C:\Users\CYMR90~1\AppData\Local\Temp\ccbtsgth.s:30986  .debug_str:000000000002cac3 .LASF733
C:\Users\CYMR90~1\AppData\Local\Temp\ccbtsgth.s:24053  .debug_str:0000000000010f82 .LASF734
C:\Users\CYMR90~1\AppData\Local\Temp\ccbtsgth.s:23163  .debug_str:000000000000d8a6 .LASF735
C:\Users\CYMR90~1\AppData\Local\Temp\ccbtsgth.s:30916  .debug_str:000000000002c613 .LASF736
C:\Users\CYMR90~1\AppData\Local\Temp\ccbtsgth.s:22983  .debug_str:000000000000cd05 .LASF737
C:\Users\CYMR90~1\AppData\Local\Temp\ccbtsgth.s:26988  .debug_str:000000000001cf64 .LASF738
C:\Users\CYMR90~1\AppData\Local\Temp\ccbtsgth.s:30658  .debug_str:000000000002b4ca .LASF739
C:\Users\CYMR90~1\AppData\Local\Temp\ccbtsgth.s:20231  .debug_str:0000000000001b40 .LASF740
C:\Users\CYMR90~1\AppData\Local\Temp\ccbtsgth.s:22919  .debug_str:000000000000c923 .LASF741
C:\Users\CYMR90~1\AppData\Local\Temp\ccbtsgth.s:20205  .debug_str:00000000000019cb .LASF742
C:\Users\CYMR90~1\AppData\Local\Temp\ccbtsgth.s:24009  .debug_str:0000000000010ccb .LASF743
C:\Users\CYMR90~1\AppData\Local\Temp\ccbtsgth.s:29624  .debug_str:000000000002732d .LASF744
C:\Users\CYMR90~1\AppData\Local\Temp\ccbtsgth.s:22037  .debug_str:0000000000008ed3 .LASF745
C:\Users\CYMR90~1\AppData\Local\Temp\ccbtsgth.s:28348  .debug_str:0000000000022297 .LASF746
C:\Users\CYMR90~1\AppData\Local\Temp\ccbtsgth.s:20107  .debug_str:000000000000131a .LASF747
C:\Users\CYMR90~1\AppData\Local\Temp\ccbtsgth.s:20097  .debug_str:0000000000001298 .LASF748
C:\Users\CYMR90~1\AppData\Local\Temp\ccbtsgth.s:21205  .debug_str:00000000000058b0 .LASF750
C:\Users\CYMR90~1\AppData\Local\Temp\ccbtsgth.s:23927  .debug_str:0000000000010775 .LASF751
C:\Users\CYMR90~1\AppData\Local\Temp\ccbtsgth.s:30110  .debug_str:000000000002935a .LASF752
C:\Users\CYMR90~1\AppData\Local\Temp\ccbtsgth.s:23869  .debug_str:000000000001044e .LASF753
C:\Users\CYMR90~1\AppData\Local\Temp\ccbtsgth.s:21091  .debug_str:00000000000051e9 .LASF754
C:\Users\CYMR90~1\AppData\Local\Temp\ccbtsgth.s:22675  .debug_str:000000000000b8bc .LASF755
C:\Users\CYMR90~1\AppData\Local\Temp\ccbtsgth.s:26190  .debug_str:0000000000019ae6 .LASF756
C:\Users\CYMR90~1\AppData\Local\Temp\ccbtsgth.s:22181  .debug_str:000000000000973d .LASF757
C:\Users\CYMR90~1\AppData\Local\Temp\ccbtsgth.s:29186  .debug_str:000000000002581c .LASF758
C:\Users\CYMR90~1\AppData\Local\Temp\ccbtsgth.s:31020  .debug_str:000000000002cd2d .LASF759
C:\Users\CYMR90~1\AppData\Local\Temp\ccbtsgth.s:26566  .debug_str:000000000001b3d2 .LASF760
C:\Users\CYMR90~1\AppData\Local\Temp\ccbtsgth.s:30756  .debug_str:000000000002bb58 .LASF761
C:\Users\CYMR90~1\AppData\Local\Temp\ccbtsgth.s:22607  .debug_str:000000000000b3d2 .LASF762
C:\Users\CYMR90~1\AppData\Local\Temp\ccbtsgth.s:26574  .debug_str:000000000001b466 .LASF765
C:\Users\CYMR90~1\AppData\Local\Temp\ccbtsgth.s:25231  .debug_str:0000000000015a6f .LASF766
C:\Users\CYMR90~1\AppData\Local\Temp\ccbtsgth.s:28242  .debug_str:0000000000021c48 .LASF767
C:\Users\CYMR90~1\AppData\Local\Temp\ccbtsgth.s:25221  .debug_str:00000000000159ff .LASF768
C:\Users\CYMR90~1\AppData\Local\Temp\ccbtsgth.s:20461  .debug_str:0000000000002928 .LASF769
C:\Users\CYMR90~1\AppData\Local\Temp\ccbtsgth.s:26696  .debug_str:000000000001bba4 .LASF770
C:\Users\CYMR90~1\AppData\Local\Temp\ccbtsgth.s:25317  .debug_str:0000000000016050 .LASF771
C:\Users\CYMR90~1\AppData\Local\Temp\ccbtsgth.s:28900  .debug_str:00000000000243ee .LASF772
C:\Users\CYMR90~1\AppData\Local\Temp\ccbtsgth.s:28526  .debug_str:0000000000022d34 .LASF773
C:\Users\CYMR90~1\AppData\Local\Temp\ccbtsgth.s:27008  .debug_str:000000000001d09f .LASF774
C:\Users\CYMR90~1\AppData\Local\Temp\ccbtsgth.s:29236  .debug_str:0000000000025b2b .LASF775
C:\Users\CYMR90~1\AppData\Local\Temp\ccbtsgth.s:23329  .debug_str:000000000000e2bb .LASF776
C:\Users\CYMR90~1\AppData\Local\Temp\ccbtsgth.s:22339  .debug_str:000000000000a189 .LASF777
C:\Users\CYMR90~1\AppData\Local\Temp\ccbtsgth.s:27348  .debug_str:000000000001e5d5 .LASF778
C:\Users\CYMR90~1\AppData\Local\Temp\ccbtsgth.s:23805  .debug_str:0000000000010085 .LASF779
C:\Users\CYMR90~1\AppData\Local\Temp\ccbtsgth.s:27608  .debug_str:000000000001f579 .LASF780
C:\Users\CYMR90~1\AppData\Local\Temp\ccbtsgth.s:28238  .debug_str:0000000000021c2f .LASF781
C:\Users\CYMR90~1\AppData\Local\Temp\ccbtsgth.s:24283  .debug_str:0000000000011ef9 .LASF782
C:\Users\CYMR90~1\AppData\Local\Temp\ccbtsgth.s:25447  .debug_str:000000000001693f .LASF783
C:\Users\CYMR90~1\AppData\Local\Temp\ccbtsgth.s:24191  .debug_str:0000000000011914 .LASF784
C:\Users\CYMR90~1\AppData\Local\Temp\ccbtsgth.s:23507  .debug_str:000000000000edc5 .LASF785
C:\Users\CYMR90~1\AppData\Local\Temp\ccbtsgth.s:28596  .debug_str:0000000000023101 .LASF786
C:\Users\CYMR90~1\AppData\Local\Temp\ccbtsgth.s:24937  .debug_str:0000000000014883 .LASF787
C:\Users\CYMR90~1\AppData\Local\Temp\ccbtsgth.s:27282  .debug_str:000000000001e1c4 .LASF788
C:\Users\CYMR90~1\AppData\Local\Temp\ccbtsgth.s:23669  .debug_str:000000000000f7f5 .LASF789
C:\Users\CYMR90~1\AppData\Local\Temp\ccbtsgth.s:21141  .debug_str:00000000000054d9 .LASF790
C:\Users\CYMR90~1\AppData\Local\Temp\ccbtsgth.s:29580  .debug_str:00000000000270b0 .LASF791
C:\Users\CYMR90~1\AppData\Local\Temp\ccbtsgth.s:21903  .debug_str:00000000000085ed .LASF792
C:\Users\CYMR90~1\AppData\Local\Temp\ccbtsgth.s:30992  .debug_str:000000000002cb13 .LASF793
C:\Users\CYMR90~1\AppData\Local\Temp\ccbtsgth.s:21687  .debug_str:00000000000076f9 .LASF794
C:\Users\CYMR90~1\AppData\Local\Temp\ccbtsgth.s:29830  .debug_str:000000000002812e .LASF795
C:\Users\CYMR90~1\AppData\Local\Temp\ccbtsgth.s:27842  .debug_str:000000000002033f .LASF796
C:\Users\CYMR90~1\AppData\Local\Temp\ccbtsgth.s:30546  .debug_str:000000000002ad64 .LASF797
C:\Users\CYMR90~1\AppData\Local\Temp\ccbtsgth.s:21519  .debug_str:0000000000006c3e .LASF798
C:\Users\CYMR90~1\AppData\Local\Temp\ccbtsgth.s:29890  .debug_str:0000000000028573 .LASF799
C:\Users\CYMR90~1\AppData\Local\Temp\ccbtsgth.s:21107  .debug_str:00000000000052e0 .LASF800
C:\Users\CYMR90~1\AppData\Local\Temp\ccbtsgth.s:26326  .debug_str:000000000001a419 .LASF801
C:\Users\CYMR90~1\AppData\Local\Temp\ccbtsgth.s:26356  .debug_str:000000000001a5d4 .LASF802
C:\Users\CYMR90~1\AppData\Local\Temp\ccbtsgth.s:22245  .debug_str:0000000000009b97 .LASF803
C:\Users\CYMR90~1\AppData\Local\Temp\ccbtsgth.s:24689  .debug_str:00000000000138e2 .LASF804
C:\Users\CYMR90~1\AppData\Local\Temp\ccbtsgth.s:21533  .debug_str:0000000000006cfc .LASF805
C:\Users\CYMR90~1\AppData\Local\Temp\ccbtsgth.s:24147  .debug_str:00000000000115b2 .LASF806
C:\Users\CYMR90~1\AppData\Local\Temp\ccbtsgth.s:27304  .debug_str:000000000001e2e7 .LASF807
C:\Users\CYMR90~1\AppData\Local\Temp\ccbtsgth.s:26890  .debug_str:000000000001c808 .LASF808
C:\Users\CYMR90~1\AppData\Local\Temp\ccbtsgth.s:29304  .debug_str:0000000000025f5f .LASF809
C:\Users\CYMR90~1\AppData\Local\Temp\ccbtsgth.s:30762  .debug_str:000000000002bbc6 .LASF810
C:\Users\CYMR90~1\AppData\Local\Temp\ccbtsgth.s:21927  .debug_str:0000000000008752 .LASF811
C:\Users\CYMR90~1\AppData\Local\Temp\ccbtsgth.s:20837  .debug_str:000000000000419a .LASF812
C:\Users\CYMR90~1\AppData\Local\Temp\ccbtsgth.s:30796  .debug_str:000000000002be6e .LASF813
C:\Users\CYMR90~1\AppData\Local\Temp\ccbtsgth.s:21201  .debug_str:0000000000005889 .LASF814
C:\Users\CYMR90~1\AppData\Local\Temp\ccbtsgth.s:21427  .debug_str:0000000000006626 .LASF815
C:\Users\CYMR90~1\AppData\Local\Temp\ccbtsgth.s:26666  .debug_str:000000000001b9ad .LASF816
C:\Users\CYMR90~1\AppData\Local\Temp\ccbtsgth.s:22105  .debug_str:0000000000009287 .LASF817
C:\Users\CYMR90~1\AppData\Local\Temp\ccbtsgth.s:26806  .debug_str:000000000001c28f .LASF818
C:\Users\CYMR90~1\AppData\Local\Temp\ccbtsgth.s:26700  .debug_str:000000000001bbbc .LASF819
C:\Users\CYMR90~1\AppData\Local\Temp\ccbtsgth.s:19979  .debug_str:0000000000000af9 .LASF820
C:\Users\CYMR90~1\AppData\Local\Temp\ccbtsgth.s:30378  .debug_str:000000000002a308 .LASF821
C:\Users\CYMR90~1\AppData\Local\Temp\ccbtsgth.s:28896  .debug_str:00000000000243be .LASF822
C:\Users\CYMR90~1\AppData\Local\Temp\ccbtsgth.s:22069  .debug_str:0000000000009064 .LASF823
C:\Users\CYMR90~1\AppData\Local\Temp\ccbtsgth.s:25367  .debug_str:000000000001637e .LASF824
C:\Users\CYMR90~1\AppData\Local\Temp\ccbtsgth.s:26758  .debug_str:000000000001bf8e .LASF825
C:\Users\CYMR90~1\AppData\Local\Temp\ccbtsgth.s:25155  .debug_str:0000000000015596 .LASF826
C:\Users\CYMR90~1\AppData\Local\Temp\ccbtsgth.s:20727  .debug_str:0000000000003a20 .LASF827
C:\Users\CYMR90~1\AppData\Local\Temp\ccbtsgth.s:23487  .debug_str:000000000000ec94 .LASF828
C:\Users\CYMR90~1\AppData\Local\Temp\ccbtsgth.s:22253  .debug_str:0000000000009bfa .LASF829
C:\Users\CYMR90~1\AppData\Local\Temp\ccbtsgth.s:29176  .debug_str:000000000002575c .LASF830
C:\Users\CYMR90~1\AppData\Local\Temp\ccbtsgth.s:22681  .debug_str:000000000000b917 .LASF831
C:\Users\CYMR90~1\AppData\Local\Temp\ccbtsgth.s:23437  .debug_str:000000000000e968 .LASF832
C:\Users\CYMR90~1\AppData\Local\Temp\ccbtsgth.s:21289  .debug_str:0000000000005dc6 .LASF833
C:\Users\CYMR90~1\AppData\Local\Temp\ccbtsgth.s:24055  .debug_str:0000000000010f93 .LASF834
C:\Users\CYMR90~1\AppData\Local\Temp\ccbtsgth.s:25848  .debug_str:0000000000018425 .LASF835
C:\Users\CYMR90~1\AppData\Local\Temp\ccbtsgth.s:23957  .debug_str:00000000000109a1 .LASF836
C:\Users\CYMR90~1\AppData\Local\Temp\ccbtsgth.s:27758  .debug_str:000000000001fe8a .LASF837
C:\Users\CYMR90~1\AppData\Local\Temp\ccbtsgth.s:21973  .debug_str:0000000000008a60 .LASF838
C:\Users\CYMR90~1\AppData\Local\Temp\ccbtsgth.s:21129  .debug_str:000000000000543a .LASF839
C:\Users\CYMR90~1\AppData\Local\Temp\ccbtsgth.s:23857  .debug_str:0000000000010388 .LASF840
C:\Users\CYMR90~1\AppData\Local\Temp\ccbtsgth.s:22809  .debug_str:000000000000c1fc .LASF841
C:\Users\CYMR90~1\AppData\Local\Temp\ccbtsgth.s:26908  .debug_str:000000000001c92a .LASF842
C:\Users\CYMR90~1\AppData\Local\Temp\ccbtsgth.s:20049  .debug_str:0000000000000ff0 .LASF843
C:\Users\CYMR90~1\AppData\Local\Temp\ccbtsgth.s:20401  .debug_str:0000000000002530 .LASF844
C:\Users\CYMR90~1\AppData\Local\Temp\ccbtsgth.s:28748  .debug_str:0000000000023a3a .LASF845
C:\Users\CYMR90~1\AppData\Local\Temp\ccbtsgth.s:19809  .debug_str:0000000000000096 .LASF846
C:\Users\CYMR90~1\AppData\Local\Temp\ccbtsgth.s:21765  .debug_str:0000000000007cb6 .LASF847
C:\Users\CYMR90~1\AppData\Local\Temp\ccbtsgth.s:27614  .debug_str:000000000001f5c7 .LASF848
C:\Users\CYMR90~1\AppData\Local\Temp\ccbtsgth.s:30408  .debug_str:000000000002a523 .LASF849
C:\Users\CYMR90~1\AppData\Local\Temp\ccbtsgth.s:23097  .debug_str:000000000000d4ed .LASF852
C:\Users\CYMR90~1\AppData\Local\Temp\ccbtsgth.s:29942  .debug_str:00000000000288c5 .LASF853
C:\Users\CYMR90~1\AppData\Local\Temp\ccbtsgth.s:24999  .debug_str:0000000000014cc0 .LASF854
C:\Users\CYMR90~1\AppData\Local\Temp\ccbtsgth.s:28248  .debug_str:0000000000021ce7 .LASF856
C:\Users\CYMR90~1\AppData\Local\Temp\ccbtsgth.s:27134  .debug_str:000000000001d858 .LASF857
C:\Users\CYMR90~1\AppData\Local\Temp\ccbtsgth.s:29760  .debug_str:0000000000027bcb .LASF858
C:\Users\CYMR90~1\AppData\Local\Temp\ccbtsgth.s:23083  .debug_str:000000000000d3ff .LASF859
C:\Users\CYMR90~1\AppData\Local\Temp\ccbtsgth.s:24943  .debug_str:00000000000148ca .LASF860
C:\Users\CYMR90~1\AppData\Local\Temp\ccbtsgth.s:28180  .debug_str:0000000000021893 .LASF861
C:\Users\CYMR90~1\AppData\Local\Temp\ccbtsgth.s:27340  .debug_str:000000000001e585 .LASF862
C:\Users\CYMR90~1\AppData\Local\Temp\ccbtsgth.s:20145  .debug_str:0000000000001572 .LASF863
C:\Users\CYMR90~1\AppData\Local\Temp\ccbtsgth.s:20781  .debug_str:0000000000003d65 .LASF864
C:\Users\CYMR90~1\AppData\Local\Temp\ccbtsgth.s:21175  .debug_str:0000000000005703 .LASF865
C:\Users\CYMR90~1\AppData\Local\Temp\ccbtsgth.s:22373  .debug_str:000000000000a3dd .LASF866
C:\Users\CYMR90~1\AppData\Local\Temp\ccbtsgth.s:21839  .debug_str:0000000000008207 .LASF867
C:\Users\CYMR90~1\AppData\Local\Temp\ccbtsgth.s:27060  .debug_str:000000000001d3a5 .LASF868
C:\Users\CYMR90~1\AppData\Local\Temp\ccbtsgth.s:27698  .debug_str:000000000001fad1 .LASF869
C:\Users\CYMR90~1\AppData\Local\Temp\ccbtsgth.s:28764  .debug_str:0000000000023b12 .LASF870
C:\Users\CYMR90~1\AppData\Local\Temp\ccbtsgth.s:22007  .debug_str:0000000000008cc5 .LASF871
C:\Users\CYMR90~1\AppData\Local\Temp\ccbtsgth.s:22451  .debug_str:000000000000a969 .LASF872
C:\Users\CYMR90~1\AppData\Local\Temp\ccbtsgth.s:26898  .debug_str:000000000001c8a1 .LASF873
C:\Users\CYMR90~1\AppData\Local\Temp\ccbtsgth.s:29466  .debug_str:0000000000026915 .LASF874
C:\Users\CYMR90~1\AppData\Local\Temp\ccbtsgth.s:24209  .debug_str:0000000000011a05 .LASF875
C:\Users\CYMR90~1\AppData\Local\Temp\ccbtsgth.s:24903  .debug_str:000000000001466c .LASF876
C:\Users\CYMR90~1\AppData\Local\Temp\ccbtsgth.s:22251  .debug_str:0000000000009bec .LASF877
C:\Users\CYMR90~1\AppData\Local\Temp\ccbtsgth.s:26606  .debug_str:000000000001b655 .LASF878
C:\Users\CYMR90~1\AppData\Local\Temp\ccbtsgth.s:24003  .debug_str:0000000000010c8f .LASF879
C:\Users\CYMR90~1\AppData\Local\Temp\ccbtsgth.s:25556  .debug_str:000000000001717c .LASF880
C:\Users\CYMR90~1\AppData\Local\Temp\ccbtsgth.s:21109  .debug_str:00000000000052f9 .LASF881
C:\Users\CYMR90~1\AppData\Local\Temp\ccbtsgth.s:24421  .debug_str:00000000000127d4 .LASF882
C:\Users\CYMR90~1\AppData\Local\Temp\ccbtsgth.s:24713  .debug_str:0000000000013a2b .LASF883
C:\Users\CYMR90~1\AppData\Local\Temp\ccbtsgth.s:20271  .debug_str:0000000000001dc6 .LASF884
C:\Users\CYMR90~1\AppData\Local\Temp\ccbtsgth.s:23383  .debug_str:000000000000e614 .LASF885
C:\Users\CYMR90~1\AppData\Local\Temp\ccbtsgth.s:26612  .debug_str:000000000001b6a1 .LASF886
C:\Users\CYMR90~1\AppData\Local\Temp\ccbtsgth.s:22119  .debug_str:0000000000009343 .LASF887
C:\Users\CYMR90~1\AppData\Local\Temp\ccbtsgth.s:28716  .debug_str:000000000002387d .LASF888
C:\Users\CYMR90~1\AppData\Local\Temp\ccbtsgth.s:24361  .debug_str:00000000000123ea .LASF889
C:\Users\CYMR90~1\AppData\Local\Temp\ccbtsgth.s:28648  .debug_str:0000000000023411 .LASF890
C:\Users\CYMR90~1\AppData\Local\Temp\ccbtsgth.s:20927  .debug_str:000000000000481e .LASF891
C:\Users\CYMR90~1\AppData\Local\Temp\ccbtsgth.s:23385  .debug_str:000000000000e62e .LASF892
C:\Users\CYMR90~1\AppData\Local\Temp\ccbtsgth.s:29414  .debug_str:0000000000026615 .LASF893
C:\Users\CYMR90~1\AppData\Local\Temp\ccbtsgth.s:28808  .debug_str:0000000000023d5e .LASF894
C:\Users\CYMR90~1\AppData\Local\Temp\ccbtsgth.s:20119  .debug_str:00000000000013cc .LASF895
C:\Users\CYMR90~1\AppData\Local\Temp\ccbtsgth.s:24753  .debug_str:0000000000013cac .LASF896
C:\Users\CYMR90~1\AppData\Local\Temp\ccbtsgth.s:21019  .debug_str:0000000000004d85 .LASF897
C:\Users\CYMR90~1\AppData\Local\Temp\ccbtsgth.s:22241  .debug_str:0000000000009b58 .LASF898
C:\Users\CYMR90~1\AppData\Local\Temp\ccbtsgth.s:29706  .debug_str:0000000000027850 .LASF899
C:\Users\CYMR90~1\AppData\Local\Temp\ccbtsgth.s:22565  .debug_str:000000000000b17d .LASF900
C:\Users\CYMR90~1\AppData\Local\Temp\ccbtsgth.s:26656  .debug_str:000000000001b8fa .LASF901
C:\Users\CYMR90~1\AppData\Local\Temp\ccbtsgth.s:30250  .debug_str:0000000000029bc4 .LASF902
C:\Users\CYMR90~1\AppData\Local\Temp\ccbtsgth.s:29002  .debug_str:0000000000024ac3 .LASF903
C:\Users\CYMR90~1\AppData\Local\Temp\ccbtsgth.s:29852  .debug_str:0000000000028299 .LASF904
C:\Users\CYMR90~1\AppData\Local\Temp\ccbtsgth.s:24407  .debug_str:00000000000126ef .LASF905
C:\Users\CYMR90~1\AppData\Local\Temp\ccbtsgth.s:21891  .debug_str:0000000000008553 .LASF906
C:\Users\CYMR90~1\AppData\Local\Temp\ccbtsgth.s:30420  .debug_str:000000000002a5ed .LASF907
C:\Users\CYMR90~1\AppData\Local\Temp\ccbtsgth.s:23379  .debug_str:000000000000e5d1 .LASF908
C:\Users\CYMR90~1\AppData\Local\Temp\ccbtsgth.s:29680  .debug_str:000000000002765e .LASF909
C:\Users\CYMR90~1\AppData\Local\Temp\ccbtsgth.s:23977  .debug_str:0000000000010b33 .LASF910
C:\Users\CYMR90~1\AppData\Local\Temp\ccbtsgth.s:20489  .debug_str:0000000000002b12 .LASF911
C:\Users\CYMR90~1\AppData\Local\Temp\ccbtsgth.s:20091  .debug_str:000000000000125b .LASF912
C:\Users\CYMR90~1\AppData\Local\Temp\ccbtsgth.s:28096  .debug_str:0000000000021399 .LASF913
C:\Users\CYMR90~1\AppData\Local\Temp\ccbtsgth.s:28984  .debug_str:0000000000024993 .LASF914
C:\Users\CYMR90~1\AppData\Local\Temp\ccbtsgth.s:22931  .debug_str:000000000000c9f5 .LASF915
C:\Users\CYMR90~1\AppData\Local\Temp\ccbtsgth.s:23243  .debug_str:000000000000dd91 .LASF916
C:\Users\CYMR90~1\AppData\Local\Temp\ccbtsgth.s:23791  .debug_str:000000000000ff96 .LASF917
C:\Users\CYMR90~1\AppData\Local\Temp\ccbtsgth.s:30498  .debug_str:000000000002aa38 .LASF918
C:\Users\CYMR90~1\AppData\Local\Temp\ccbtsgth.s:20077  .debug_str:0000000000001167 .LASF919
C:\Users\CYMR90~1\AppData\Local\Temp\ccbtsgth.s:22551  .debug_str:000000000000b091 .LASF920
C:\Users\CYMR90~1\AppData\Local\Temp\ccbtsgth.s:28938  .debug_str:0000000000024636 .LASF921
C:\Users\CYMR90~1\AppData\Local\Temp\ccbtsgth.s:26350  .debug_str:000000000001a562 .LASF922
C:\Users\CYMR90~1\AppData\Local\Temp\ccbtsgth.s:29446  .debug_str:00000000000267f7 .LASF923
C:\Users\CYMR90~1\AppData\Local\Temp\ccbtsgth.s:25486  .debug_str:0000000000016d46 .LASF924
C:\Users\CYMR90~1\AppData\Local\Temp\ccbtsgth.s:20453  .debug_str:0000000000002895 .LASF925
C:\Users\CYMR90~1\AppData\Local\Temp\ccbtsgth.s:26568  .debug_str:000000000001b40c .LASF926
C:\Users\CYMR90~1\AppData\Local\Temp\ccbtsgth.s:20185  .debug_str:000000000000187f .LASF927
C:\Users\CYMR90~1\AppData\Local\Temp\ccbtsgth.s:24929  .debug_str:00000000000147fd .LASF928
C:\Users\CYMR90~1\AppData\Local\Temp\ccbtsgth.s:27646  .debug_str:000000000001f792 .LASF929
C:\Users\CYMR90~1\AppData\Local\Temp\ccbtsgth.s:30758  .debug_str:000000000002bb90 .LASF930
C:\Users\CYMR90~1\AppData\Local\Temp\ccbtsgth.s:30984  .debug_str:000000000002caa5 .LASF931
C:\Users\CYMR90~1\AppData\Local\Temp\ccbtsgth.s:27542  .debug_str:000000000001f191 .LASF932
C:\Users\CYMR90~1\AppData\Local\Temp\ccbtsgth.s:30230  .debug_str:0000000000029a71 .LASF933
C:\Users\CYMR90~1\AppData\Local\Temp\ccbtsgth.s:25281  .debug_str:0000000000015e36 .LASF934
C:\Users\CYMR90~1\AppData\Local\Temp\ccbtsgth.s:26126  .debug_str:000000000001963e .LASF935
C:\Users\CYMR90~1\AppData\Local\Temp\ccbtsgth.s:25159  .debug_str:00000000000155cb .LASF936
C:\Users\CYMR90~1\AppData\Local\Temp\ccbtsgth.s:29074  .debug_str:0000000000024fae .LASF937
C:\Users\CYMR90~1\AppData\Local\Temp\ccbtsgth.s:19997  .debug_str:0000000000000c2c .LASF938
C:\Users\CYMR90~1\AppData\Local\Temp\ccbtsgth.s:27906  .debug_str:0000000000020795 .LASF939
C:\Users\CYMR90~1\AppData\Local\Temp\ccbtsgth.s:29162  .debug_str:000000000002560c .LASF940
C:\Users\CYMR90~1\AppData\Local\Temp\ccbtsgth.s:22683  .debug_str:000000000000b935 .LASF941
C:\Users\CYMR90~1\AppData\Local\Temp\ccbtsgth.s:26338  .debug_str:000000000001a4a9 .LASF942
C:\Users\CYMR90~1\AppData\Local\Temp\ccbtsgth.s:23423  .debug_str:000000000000e85f .LASF943
C:\Users\CYMR90~1\AppData\Local\Temp\ccbtsgth.s:29100  .debug_str:00000000000251ea .LASF944
C:\Users\CYMR90~1\AppData\Local\Temp\ccbtsgth.s:26748  .debug_str:000000000001bf0e .LASF945
C:\Users\CYMR90~1\AppData\Local\Temp\ccbtsgth.s:23615  .debug_str:000000000000f448 .LASF946
C:\Users\CYMR90~1\AppData\Local\Temp\ccbtsgth.s:25640  .debug_str:0000000000017701 .LASF947
C:\Users\CYMR90~1\AppData\Local\Temp\ccbtsgth.s:29788  .debug_str:0000000000027e02 .LASF948
C:\Users\CYMR90~1\AppData\Local\Temp\ccbtsgth.s:23953  .debug_str:0000000000010963 .LASF949
C:\Users\CYMR90~1\AppData\Local\Temp\ccbtsgth.s:22989  .debug_str:000000000000cd5b .LASF950
C:\Users\CYMR90~1\AppData\Local\Temp\ccbtsgth.s:21593  .debug_str:0000000000007123 .LASF952
C:\Users\CYMR90~1\AppData\Local\Temp\ccbtsgth.s:25083  .debug_str:000000000001517d .LASF953
C:\Users\CYMR90~1\AppData\Local\Temp\ccbtsgth.s:23023  .debug_str:000000000000cfb9 .LASF954
C:\Users\CYMR90~1\AppData\Local\Temp\ccbtsgth.s:30976  .debug_str:000000000002ca30 .LASF955
C:\Users\CYMR90~1\AppData\Local\Temp\ccbtsgth.s:30124  .debug_str:0000000000029408 .LASF956
C:\Users\CYMR90~1\AppData\Local\Temp\ccbtsgth.s:30216  .debug_str:00000000000299ac .LASF960
C:\Users\CYMR90~1\AppData\Local\Temp\ccbtsgth.s:22147  .debug_str:000000000000955a .LASF961
C:\Users\CYMR90~1\AppData\Local\Temp\ccbtsgth.s:29476  .debug_str:00000000000269ab .LASF962
C:\Users\CYMR90~1\AppData\Local\Temp\ccbtsgth.s:24183  .debug_str:0000000000011898 .LASF963
C:\Users\CYMR90~1\AppData\Local\Temp\ccbtsgth.s:21619  .debug_str:00000000000072dc .LASF964
C:\Users\CYMR90~1\AppData\Local\Temp\ccbtsgth.s:28276  .debug_str:0000000000021e75 .LASF965
C:\Users\CYMR90~1\AppData\Local\Temp\ccbtsgth.s:26562  .debug_str:000000000001b3a0 .LASF966
C:\Users\CYMR90~1\AppData\Local\Temp\ccbtsgth.s:29420  .debug_str:0000000000026671 .LASF967
C:\Users\CYMR90~1\AppData\Local\Temp\ccbtsgth.s:30540  .debug_str:000000000002acf6 .LASF968
C:\Users\CYMR90~1\AppData\Local\Temp\ccbtsgth.s:21347  .debug_str:0000000000006141 .LASF969
C:\Users\CYMR90~1\AppData\Local\Temp\ccbtsgth.s:24795  .debug_str:0000000000013f8d .LASF970
C:\Users\CYMR90~1\AppData\Local\Temp\ccbtsgth.s:30630  .debug_str:000000000002b2e4 .LASF971
C:\Users\CYMR90~1\AppData\Local\Temp\ccbtsgth.s:23433  .debug_str:000000000000e92b .LASF972
C:\Users\CYMR90~1\AppData\Local\Temp\ccbtsgth.s:23401  .debug_str:000000000000e730 .LASF973
C:\Users\CYMR90~1\AppData\Local\Temp\ccbtsgth.s:23045  .debug_str:000000000000d109 .LASF974
C:\Users\CYMR90~1\AppData\Local\Temp\ccbtsgth.s:25417  .debug_str:000000000001666b .LASF975
C:\Users\CYMR90~1\AppData\Local\Temp\ccbtsgth.s:31006  .debug_str:000000000002cba3 .LASF976
C:\Users\CYMR90~1\AppData\Local\Temp\ccbtsgth.s:22985  .debug_str:000000000000cd16 .LASF977
C:\Users\CYMR90~1\AppData\Local\Temp\ccbtsgth.s:31032  .debug_str:000000000002cdf2 .LASF978
C:\Users\CYMR90~1\AppData\Local\Temp\ccbtsgth.s:29264  .debug_str:0000000000025cb7 .LASF979
C:\Users\CYMR90~1\AppData\Local\Temp\ccbtsgth.s:29320  .debug_str:0000000000026076 .LASF980
C:\Users\CYMR90~1\AppData\Local\Temp\ccbtsgth.s:23485  .debug_str:000000000000ec7a .LASF981
C:\Users\CYMR90~1\AppData\Local\Temp\ccbtsgth.s:21059  .debug_str:0000000000005002 .LASF982
C:\Users\CYMR90~1\AppData\Local\Temp\ccbtsgth.s:24205  .debug_str:00000000000119e8 .LASF983
C:\Users\CYMR90~1\AppData\Local\Temp\ccbtsgth.s:26968  .debug_str:000000000001cd95 .LASF984
C:\Users\CYMR90~1\AppData\Local\Temp\ccbtsgth.s:26982  .debug_str:000000000001ce7c .LASF985
C:\Users\CYMR90~1\AppData\Local\Temp\ccbtsgth.s:28560  .debug_str:0000000000022f25 .LASF986
C:\Users\CYMR90~1\AppData\Local\Temp\ccbtsgth.s:25227  .debug_str:0000000000015a4b .LASF987
C:\Users\CYMR90~1\AppData\Local\Temp\ccbtsgth.s:20833  .debug_str:000000000000416b .LASF988
C:\Users\CYMR90~1\AppData\Local\Temp\ccbtsgth.s:28476  .debug_str:0000000000022a85 .LASF989
C:\Users\CYMR90~1\AppData\Local\Temp\ccbtsgth.s:25944  .debug_str:0000000000018a13 .LASF990
C:\Users\CYMR90~1\AppData\Local\Temp\ccbtsgth.s:22981  .debug_str:000000000000ccee .LASF991
C:\Users\CYMR90~1\AppData\Local\Temp\ccbtsgth.s:29422  .debug_str:0000000000026699 .LASF992
C:\Users\CYMR90~1\AppData\Local\Temp\ccbtsgth.s:21637  .debug_str:00000000000073d9 .LASF993
C:\Users\CYMR90~1\AppData\Local\Temp\ccbtsgth.s:29246  .debug_str:0000000000025b90 .LASF994
C:\Users\CYMR90~1\AppData\Local\Temp\ccbtsgth.s:26030  .debug_str:00000000000190c9 .LASF995
C:\Users\CYMR90~1\AppData\Local\Temp\ccbtsgth.s:30028  .debug_str:0000000000028de6 .LASF996
C:\Users\CYMR90~1\AppData\Local\Temp\ccbtsgth.s:27174  .debug_str:000000000001da9b .LASF997
C:\Users\CYMR90~1\AppData\Local\Temp\ccbtsgth.s:27248  .debug_str:000000000001dfb2 .LASF998
C:\Users\CYMR90~1\AppData\Local\Temp\ccbtsgth.s:20413  .debug_str:00000000000025c4 .LASF999
C:\Users\CYMR90~1\AppData\Local\Temp\ccbtsgth.s:20733  .debug_str:0000000000003a78 .LASF1000
C:\Users\CYMR90~1\AppData\Local\Temp\ccbtsgth.s:24947  .debug_str:00000000000148fa .LASF1001
C:\Users\CYMR90~1\AppData\Local\Temp\ccbtsgth.s:23799  .debug_str:000000000001001e .LASF1002
C:\Users\CYMR90~1\AppData\Local\Temp\ccbtsgth.s:21011  .debug_str:0000000000004d2c .LASF1003
C:\Users\CYMR90~1\AppData\Local\Temp\ccbtsgth.s:26792  .debug_str:000000000001c1c0 .LASF1004
C:\Users\CYMR90~1\AppData\Local\Temp\ccbtsgth.s:24161  .debug_str:00000000000116b3 .LASF1005
C:\Users\CYMR90~1\AppData\Local\Temp\ccbtsgth.s:22945  .debug_str:000000000000cafe .LASF1006
C:\Users\CYMR90~1\AppData\Local\Temp\ccbtsgth.s:21321  .debug_str:0000000000005fb8 .LASF1007
C:\Users\CYMR90~1\AppData\Local\Temp\ccbtsgth.s:28272  .debug_str:0000000000021e3d .LASF1008
C:\Users\CYMR90~1\AppData\Local\Temp\ccbtsgth.s:25720  .debug_str:0000000000017c07 .LASF1009
C:\Users\CYMR90~1\AppData\Local\Temp\ccbtsgth.s:25874  .debug_str:00000000000185b4 .LASF1010
C:\Users\CYMR90~1\AppData\Local\Temp\ccbtsgth.s:23257  .debug_str:000000000000de7d .LASF1011
C:\Users\CYMR90~1\AppData\Local\Temp\ccbtsgth.s:27030  .debug_str:000000000001d1e4 .LASF1012
C:\Users\CYMR90~1\AppData\Local\Temp\ccbtsgth.s:28480  .debug_str:0000000000022ab0 .LASF1013
C:\Users\CYMR90~1\AppData\Local\Temp\ccbtsgth.s:26144  .debug_str:0000000000019772 .LASF1014
C:\Users\CYMR90~1\AppData\Local\Temp\ccbtsgth.s:20731  .debug_str:0000000000003a62 .LASF1015
C:\Users\CYMR90~1\AppData\Local\Temp\ccbtsgth.s:21209  .debug_str:00000000000058e6 .LASF1016
C:\Users\CYMR90~1\AppData\Local\Temp\ccbtsgth.s:21165  .debug_str:0000000000005658 .LASF1017
C:\Users\CYMR90~1\AppData\Local\Temp\ccbtsgth.s:29570  .debug_str:0000000000026f70 .LASF1018
C:\Users\CYMR90~1\AppData\Local\Temp\ccbtsgth.s:23495  .debug_str:000000000000ed20 .LASF1019
C:\Users\CYMR90~1\AppData\Local\Temp\ccbtsgth.s:20407  .debug_str:000000000000257b .LASF1020
C:\Users\CYMR90~1\AppData\Local\Temp\ccbtsgth.s:25754  .debug_str:0000000000017e60 .LASF1021
C:\Users\CYMR90~1\AppData\Local\Temp\ccbtsgth.s:22807  .debug_str:000000000000c1e4 .LASF1022
C:\Users\CYMR90~1\AppData\Local\Temp\ccbtsgth.s:29494  .debug_str:0000000000026aa1 .LASF1023
C:\Users\CYMR90~1\AppData\Local\Temp\ccbtsgth.s:22049  .debug_str:0000000000008f78 .LASF1024
C:\Users\CYMR90~1\AppData\Local\Temp\ccbtsgth.s:24475  .debug_str:0000000000012b4b .LASF1025
C:\Users\CYMR90~1\AppData\Local\Temp\ccbtsgth.s:23981  .debug_str:0000000000010b74 .LASF1026
C:\Users\CYMR90~1\AppData\Local\Temp\ccbtsgth.s:24921  .debug_str:0000000000014749 .LASF1027
C:\Users\CYMR90~1\AppData\Local\Temp\ccbtsgth.s:27112  .debug_str:000000000001d6dd .LASF1028
C:\Users\CYMR90~1\AppData\Local\Temp\ccbtsgth.s:27500  .debug_str:000000000001eeec .LASF1029
C:\Users\CYMR90~1\AppData\Local\Temp\ccbtsgth.s:28782  .debug_str:0000000000023bf6 .LASF1030
C:\Users\CYMR90~1\AppData\Local\Temp\ccbtsgth.s:27862  .debug_str:00000000000204ed .LASF1031
C:\Users\CYMR90~1\AppData\Local\Temp\ccbtsgth.s:30126  .debug_str:0000000000029470 .LASF1032
C:\Users\CYMR90~1\AppData\Local\Temp\ccbtsgth.s:22201  .debug_str:00000000000098bc .LASF1033
C:\Users\CYMR90~1\AppData\Local\Temp\ccbtsgth.s:21069  .debug_str:0000000000005097 .LASF1034
C:\Users\CYMR90~1\AppData\Local\Temp\ccbtsgth.s:26074  .debug_str:0000000000019350 .LASF1035
C:\Users\CYMR90~1\AppData\Local\Temp\ccbtsgth.s:26328  .debug_str:000000000001a433 .LASF1036
C:\Users\CYMR90~1\AppData\Local\Temp\ccbtsgth.s:28574  .debug_str:0000000000022fbc .LASF1037
C:\Users\CYMR90~1\AppData\Local\Temp\ccbtsgth.s:23651  .debug_str:000000000000f718 .LASF1038
C:\Users\CYMR90~1\AppData\Local\Temp\ccbtsgth.s:27222  .debug_str:000000000001de28 .LASF1039
C:\Users\CYMR90~1\AppData\Local\Temp\ccbtsgth.s:25097  .debug_str:0000000000015275 .LASF1040
C:\Users\CYMR90~1\AppData\Local\Temp\ccbtsgth.s:23565  .debug_str:000000000000f145 .LASF1041
C:\Users\CYMR90~1\AppData\Local\Temp\ccbtsgth.s:29314  .debug_str:0000000000026028 .LASF1042
C:\Users\CYMR90~1\AppData\Local\Temp\ccbtsgth.s:23801  .debug_str:0000000000010035 .LASF1043
C:\Users\CYMR90~1\AppData\Local\Temp\ccbtsgth.s:19827  .debug_str:000000000000019a .LASF1044
C:\Users\CYMR90~1\AppData\Local\Temp\ccbtsgth.s:22061  .debug_str:0000000000008fff .LASF1045
C:\Users\CYMR90~1\AppData\Local\Temp\ccbtsgth.s:26556  .debug_str:000000000001b349 .LASF1046
C:\Users\CYMR90~1\AppData\Local\Temp\ccbtsgth.s:25351  .debug_str:0000000000016225 .LASF1047
C:\Users\CYMR90~1\AppData\Local\Temp\ccbtsgth.s:28620  .debug_str:000000000002324e .LASF1048
C:\Users\CYMR90~1\AppData\Local\Temp\ccbtsgth.s:27464  .debug_str:000000000001ecaf .LASF1049
C:\Users\CYMR90~1\AppData\Local\Temp\ccbtsgth.s:20579  .debug_str:00000000000030ba .LASF1050
C:\Users\CYMR90~1\AppData\Local\Temp\ccbtsgth.s:27476  .debug_str:000000000001ed66 .LASF1051
C:\Users\CYMR90~1\AppData\Local\Temp\ccbtsgth.s:27680  .debug_str:000000000001f9ce .LASF1052
C:\Users\CYMR90~1\AppData\Local\Temp\ccbtsgth.s:22563  .debug_str:000000000000b16b .LASF1053
C:\Users\CYMR90~1\AppData\Local\Temp\ccbtsgth.s:28520  .debug_str:0000000000022cf5 .LASF1054
C:\Users\CYMR90~1\AppData\Local\Temp\ccbtsgth.s:24447  .debug_str:000000000001297c .LASF1055
C:\Users\CYMR90~1\AppData\Local\Temp\ccbtsgth.s:23429  .debug_str:000000000000e8d9 .LASF1056
C:\Users\CYMR90~1\AppData\Local\Temp\ccbtsgth.s:29740  .debug_str:0000000000027aa2 .LASF1057
C:\Users\CYMR90~1\AppData\Local\Temp\ccbtsgth.s:30340  .debug_str:000000000002a0a0 .LASF1058
C:\Users\CYMR90~1\AppData\Local\Temp\ccbtsgth.s:29072  .debug_str:0000000000024f8c .LASF1059
C:\Users\CYMR90~1\AppData\Local\Temp\ccbtsgth.s:20267  .debug_str:0000000000001d96 .LASF1060
C:\Users\CYMR90~1\AppData\Local\Temp\ccbtsgth.s:21871  .debug_str:0000000000008410 .LASF1061
C:\Users\CYMR90~1\AppData\Local\Temp\ccbtsgth.s:19959  .debug_str:000000000000097d .LASF1062
C:\Users\CYMR90~1\AppData\Local\Temp\ccbtsgth.s:24833  .debug_str:000000000001418f .LASF1063
C:\Users\CYMR90~1\AppData\Local\Temp\ccbtsgth.s:20779  .debug_str:0000000000003d4e .LASF1064
C:\Users\CYMR90~1\AppData\Local\Temp\ccbtsgth.s:19899  .debug_str:00000000000005c0 .LASF1065
C:\Users\CYMR90~1\AppData\Local\Temp\ccbtsgth.s:31038  .debug_str:000000000002ce3b .LASF1066
C:\Users\CYMR90~1\AppData\Local\Temp\ccbtsgth.s:22063  .debug_str:0000000000009017 .LASF1067
C:\Users\CYMR90~1\AppData\Local\Temp\ccbtsgth.s:25415  .debug_str:0000000000016651 .LASF1068
C:\Users\CYMR90~1\AppData\Local\Temp\ccbtsgth.s:27000  .debug_str:000000000001d00d .LASF1069
C:\Users\CYMR90~1\AppData\Local\Temp\ccbtsgth.s:20013  .debug_str:0000000000000d03 .LASF1070
C:\Users\CYMR90~1\AppData\Local\Temp\ccbtsgth.s:22329  .debug_str:000000000000a0d9 .LASF1071
C:\Users\CYMR90~1\AppData\Local\Temp\ccbtsgth.s:28426  .debug_str:0000000000022737 .LASF1072
C:\Users\CYMR90~1\AppData\Local\Temp\ccbtsgth.s:26966  .debug_str:000000000001cd79 .LASF1073
C:\Users\CYMR90~1\AppData\Local\Temp\ccbtsgth.s:29992  .debug_str:0000000000028b81 .LASF1074
C:\Users\CYMR90~1\AppData\Local\Temp\ccbtsgth.s:25562  .debug_str:00000000000171c5 .LASF1075
C:\Users\CYMR90~1\AppData\Local\Temp\ccbtsgth.s:20447  .debug_str:0000000000002845 .LASF1076
C:\Users\CYMR90~1\AppData\Local\Temp\ccbtsgth.s:30426  .debug_str:000000000002a63c .LASF1077
C:\Users\CYMR90~1\AppData\Local\Temp\ccbtsgth.s:21385  .debug_str:00000000000063bb .LASF1078
C:\Users\CYMR90~1\AppData\Local\Temp\ccbtsgth.s:27904  .debug_str:0000000000020783 .LASF1079
C:\Users\CYMR90~1\AppData\Local\Temp\ccbtsgth.s:23267  .debug_str:000000000000df0d .LASF1080
C:\Users\CYMR90~1\AppData\Local\Temp\ccbtsgth.s:26770  .debug_str:000000000001c05f .LASF1081
C:\Users\CYMR90~1\AppData\Local\Temp\ccbtsgth.s:22447  .debug_str:000000000000a93f .LASF1082
C:\Users\CYMR90~1\AppData\Local\Temp\ccbtsgth.s:25033  .debug_str:0000000000014ed6 .LASF1083
C:\Users\CYMR90~1\AppData\Local\Temp\ccbtsgth.s:28120  .debug_str:0000000000021524 .LASF1084
C:\Users\CYMR90~1\AppData\Local\Temp\ccbtsgth.s:21089  .debug_str:00000000000051d7 .LASF1085
C:\Users\CYMR90~1\AppData\Local\Temp\ccbtsgth.s:20217  .debug_str:0000000000001a7d .LASF1086
C:\Users\CYMR90~1\AppData\Local\Temp\ccbtsgth.s:23303  .debug_str:000000000000e118 .LASF1087
C:\Users\CYMR90~1\AppData\Local\Temp\ccbtsgth.s:29318  .debug_str:0000000000026067 .LASF1088
C:\Users\CYMR90~1\AppData\Local\Temp\ccbtsgth.s:28420  .debug_str:00000000000226df .LASF1089
C:\Users\CYMR90~1\AppData\Local\Temp\ccbtsgth.s:20069  .debug_str:00000000000010f1 .LASF1090
C:\Users\CYMR90~1\AppData\Local\Temp\ccbtsgth.s:30972  .debug_str:000000000002c9d8 .LASF1091
C:\Users\CYMR90~1\AppData\Local\Temp\ccbtsgth.s:29704  .debug_str:0000000000027838 .LASF1092
C:\Users\CYMR90~1\AppData\Local\Temp\ccbtsgth.s:23633  .debug_str:000000000000f54c .LASF1093
C:\Users\CYMR90~1\AppData\Local\Temp\ccbtsgth.s:29362  .debug_str:00000000000262cc .LASF1094
C:\Users\CYMR90~1\AppData\Local\Temp\ccbtsgth.s:25113  .debug_str:0000000000015320 .LASF1095
C:\Users\CYMR90~1\AppData\Local\Temp\ccbtsgth.s:26586  .debug_str:000000000001b50e .LASF1096
C:\Users\CYMR90~1\AppData\Local\Temp\ccbtsgth.s:27116  .debug_str:000000000001d72f .LASF1097
C:\Users\CYMR90~1\AppData\Local\Temp\ccbtsgth.s:21373  .debug_str:0000000000006308 .LASF1098
C:\Users\CYMR90~1\AppData\Local\Temp\ccbtsgth.s:24467  .debug_str:0000000000012abe .LASF1099
C:\Users\CYMR90~1\AppData\Local\Temp\ccbtsgth.s:23795  .debug_str:000000000000ffed .LASF1100
C:\Users\CYMR90~1\AppData\Local\Temp\ccbtsgth.s:28698  .debug_str:0000000000023766 .LASF1101
C:\Users\CYMR90~1\AppData\Local\Temp\ccbtsgth.s:22995  .debug_str:000000000000cdb5 .LASF1102
C:\Users\CYMR90~1\AppData\Local\Temp\ccbtsgth.s:28362  .debug_str:000000000002233d .LASF1103
C:\Users\CYMR90~1\AppData\Local\Temp\ccbtsgth.s:29936  .debug_str:0000000000028873 .LASF1104
C:\Users\CYMR90~1\AppData\Local\Temp\ccbtsgth.s:27802  .debug_str:0000000000020119 .LASF1105
C:\Users\CYMR90~1\AppData\Local\Temp\ccbtsgth.s:24657  .debug_str:00000000000136e0 .LASF1106
C:\Users\CYMR90~1\AppData\Local\Temp\ccbtsgth.s:24695  .debug_str:0000000000013949 .LASF1107
C:\Users\CYMR90~1\AppData\Local\Temp\ccbtsgth.s:26498  .debug_str:000000000001af8c .LASF1108
C:\Users\CYMR90~1\AppData\Local\Temp\ccbtsgth.s:21389  .debug_str:00000000000063f7 .LASF1109
C:\Users\CYMR90~1\AppData\Local\Temp\ccbtsgth.s:22359  .debug_str:000000000000a2c0 .LASF1110
C:\Users\CYMR90~1\AppData\Local\Temp\ccbtsgth.s:20277  .debug_str:0000000000001e3c .LASF1111
C:\Users\CYMR90~1\AppData\Local\Temp\ccbtsgth.s:21475  .debug_str:0000000000006962 .LASF1112
C:\Users\CYMR90~1\AppData\Local\Temp\ccbtsgth.s:22587  .debug_str:000000000000b2d0 .LASF1113
C:\Users\CYMR90~1\AppData\Local\Temp\ccbtsgth.s:21133  .debug_str:0000000000005462 .LASF1114
C:\Users\CYMR90~1\AppData\Local\Temp\ccbtsgth.s:22151  .debug_str:000000000000957d .LASF1115
C:\Users\CYMR90~1\AppData\Local\Temp\ccbtsgth.s:29780  .debug_str:0000000000027d5d .LASF1116
C:\Users\CYMR90~1\AppData\Local\Temp\ccbtsgth.s:30290  .debug_str:0000000000029dd3 .LASF1117
C:\Users\CYMR90~1\AppData\Local\Temp\ccbtsgth.s:21291  .debug_str:0000000000005df0 .LASF1118
C:\Users\CYMR90~1\AppData\Local\Temp\ccbtsgth.s:25734  .debug_str:0000000000017cf6 .LASF1119
C:\Users\CYMR90~1\AppData\Local\Temp\ccbtsgth.s:21837  .debug_str:00000000000081ea .LASF1120
C:\Users\CYMR90~1\AppData\Local\Temp\ccbtsgth.s:22043  .debug_str:0000000000008f15 .LASF1121
C:\Users\CYMR90~1\AppData\Local\Temp\ccbtsgth.s:24585  .debug_str:000000000001329b .LASF1122
C:\Users\CYMR90~1\AppData\Local\Temp\ccbtsgth.s:24229  .debug_str:0000000000011b44 .LASF1123
C:\Users\CYMR90~1\AppData\Local\Temp\ccbtsgth.s:27880  .debug_str:00000000000205f5 .LASF1124
C:\Users\CYMR90~1\AppData\Local\Temp\ccbtsgth.s:25037  .debug_str:0000000000014eff .LASF1125
C:\Users\CYMR90~1\AppData\Local\Temp\ccbtsgth.s:25131  .debug_str:0000000000015434 .LASF1126
C:\Users\CYMR90~1\AppData\Local\Temp\ccbtsgth.s:28510  .debug_str:0000000000022c57 .LASF1127
C:\Users\CYMR90~1\AppData\Local\Temp\ccbtsgth.s:29596  .debug_str:00000000000271c7 .LASF1128
C:\Users\CYMR90~1\AppData\Local\Temp\ccbtsgth.s:21177  .debug_str:0000000000005710 .LASF1129
C:\Users\CYMR90~1\AppData\Local\Temp\ccbtsgth.s:25129  .debug_str:000000000001541f .LASF1130
C:\Users\CYMR90~1\AppData\Local\Temp\ccbtsgth.s:30122  .debug_str:00000000000293f3 .LASF1131
C:\Users\CYMR90~1\AppData\Local\Temp\ccbtsgth.s:30530  .debug_str:000000000002ac68 .LASF1132
C:\Users\CYMR90~1\AppData\Local\Temp\ccbtsgth.s:25842  .debug_str:00000000000183a0 .LASF1133
C:\Users\CYMR90~1\AppData\Local\Temp\ccbtsgth.s:28670  .debug_str:0000000000023579 .LASF1134
C:\Users\CYMR90~1\AppData\Local\Temp\ccbtsgth.s:21725  .debug_str:00000000000079ad .LASF1135
C:\Users\CYMR90~1\AppData\Local\Temp\ccbtsgth.s:20953  .debug_str:00000000000049a1 .LASF1136
C:\Users\CYMR90~1\AppData\Local\Temp\ccbtsgth.s:20783  .debug_str:0000000000003d70 .LASF1137
C:\Users\CYMR90~1\AppData\Local\Temp\ccbtsgth.s:30132  .debug_str:00000000000294cf .LASF1138
C:\Users\CYMR90~1\AppData\Local\Temp\ccbtsgth.s:27252  .debug_str:000000000001dfeb .LASF1139
C:\Users\CYMR90~1\AppData\Local\Temp\ccbtsgth.s:27152  .debug_str:000000000001d965 .LASF1140
C:\Users\CYMR90~1\AppData\Local\Temp\ccbtsgth.s:19871  .debug_str:000000000000044d .LASF1141
C:\Users\CYMR90~1\AppData\Local\Temp\ccbtsgth.s:24029  .debug_str:0000000000010dfe .LASF1142
C:\Users\CYMR90~1\AppData\Local\Temp\ccbtsgth.s:23311  .debug_str:000000000000e1a6 .LASF1143
C:\Users\CYMR90~1\AppData\Local\Temp\ccbtsgth.s:29650  .debug_str:0000000000027487 .LASF1144
C:\Users\CYMR90~1\AppData\Local\Temp\ccbtsgth.s:27840  .debug_str:0000000000020325 .LASF1145
C:\Users\CYMR90~1\AppData\Local\Temp\ccbtsgth.s:22841  .debug_str:000000000000c3e6 .LASF1146
C:\Users\CYMR90~1\AppData\Local\Temp\ccbtsgth.s:30968  .debug_str:000000000002c996 .LASF1147
C:\Users\CYMR90~1\AppData\Local\Temp\ccbtsgth.s:25592  .debug_str:00000000000173d9 .LASF1148
C:\Users\CYMR90~1\AppData\Local\Temp\ccbtsgth.s:25852  .debug_str:0000000000018487 .LASF1149
C:\Users\CYMR90~1\AppData\Local\Temp\ccbtsgth.s:26604  .debug_str:000000000001b61a .LASF1150
C:\Users\CYMR90~1\AppData\Local\Temp\ccbtsgth.s:20279  .debug_str:0000000000001e5a .LASF1151
C:\Users\CYMR90~1\AppData\Local\Temp\ccbtsgth.s:27020  .debug_str:000000000001d14f .LASF1152
C:\Users\CYMR90~1\AppData\Local\Temp\ccbtsgth.s:22175  .debug_str:00000000000096af .LASF1153
C:\Users\CYMR90~1\AppData\Local\Temp\ccbtsgth.s:28134  .debug_str:00000000000215d6 .LASF1154
C:\Users\CYMR90~1\AppData\Local\Temp\ccbtsgth.s:27380  .debug_str:000000000001e829 .LASF1155
C:\Users\CYMR90~1\AppData\Local\Temp\ccbtsgth.s:24951  .debug_str:0000000000014941 .LASF1156
C:\Users\CYMR90~1\AppData\Local\Temp\ccbtsgth.s:27216  .debug_str:000000000001ddad .LASF1157
C:\Users\CYMR90~1\AppData\Local\Temp\ccbtsgth.s:22605  .debug_str:000000000000b3c0 .LASF1158
C:\Users\CYMR90~1\AppData\Local\Temp\ccbtsgth.s:30308  .debug_str:0000000000029f19 .LASF1159
C:\Users\CYMR90~1\AppData\Local\Temp\ccbtsgth.s:27076  .debug_str:000000000001d4b2 .LASF1160
C:\Users\CYMR90~1\AppData\Local\Temp\ccbtsgth.s:30388  .debug_str:000000000002a3f5 .LASF1161
C:\Users\CYMR90~1\AppData\Local\Temp\ccbtsgth.s:30070  .debug_str:0000000000029067 .LASF1162
C:\Users\CYMR90~1\AppData\Local\Temp\ccbtsgth.s:27102  .debug_str:000000000001d664 .LASF1163
C:\Users\CYMR90~1\AppData\Local\Temp\ccbtsgth.s:26230  .debug_str:0000000000019d2f .LASF1164
C:\Users\CYMR90~1\AppData\Local\Temp\ccbtsgth.s:23129  .debug_str:000000000000d6e6 .LASF1165
C:\Users\CYMR90~1\AppData\Local\Temp\ccbtsgth.s:27772  .debug_str:000000000001ff7a .LASF1166
C:\Users\CYMR90~1\AppData\Local\Temp\ccbtsgth.s:23989  .debug_str:0000000000010bdd .LASF1167
C:\Users\CYMR90~1\AppData\Local\Temp\ccbtsgth.s:22173  .debug_str:00000000000096a5 .LASF1168
C:\Users\CYMR90~1\AppData\Local\Temp\ccbtsgth.s:25073  .debug_str:0000000000015109 .LASF1169
C:\Users\CYMR90~1\AppData\Local\Temp\ccbtsgth.s:26442  .debug_str:000000000001aba5 .LASF1170
C:\Users\CYMR90~1\AppData\Local\Temp\ccbtsgth.s:26146  .debug_str:0000000000019789 .LASF1171
C:\Users\CYMR90~1\AppData\Local\Temp\ccbtsgth.s:30334  .debug_str:000000000002a06e .LASF1172
C:\Users\CYMR90~1\AppData\Local\Temp\ccbtsgth.s:25361  .debug_str:000000000001629b .LASF1173
C:\Users\CYMR90~1\AppData\Local\Temp\ccbtsgth.s:19995  .debug_str:0000000000000c1e .LASF1174
C:\Users\CYMR90~1\AppData\Local\Temp\ccbtsgth.s:20385  .debug_str:000000000000242a .LASF1175
C:\Users\CYMR90~1\AppData\Local\Temp\ccbtsgth.s:24555  .debug_str:00000000000130c1 .LASF1176
C:\Users\CYMR90~1\AppData\Local\Temp\ccbtsgth.s:22941  .debug_str:000000000000cace .LASF1177
C:\Users\CYMR90~1\AppData\Local\Temp\ccbtsgth.s:27160  .debug_str:000000000001d9e7 .LASF1178
C:\Users\CYMR90~1\AppData\Local\Temp\ccbtsgth.s:23535  .debug_str:000000000000ef5e .LASF1179
C:\Users\CYMR90~1\AppData\Local\Temp\ccbtsgth.s:23115  .debug_str:000000000000d64f .LASF1180
C:\Users\CYMR90~1\AppData\Local\Temp\ccbtsgth.s:28874  .debug_str:0000000000024255 .LASF1181
C:\Users\CYMR90~1\AppData\Local\Temp\ccbtsgth.s:21983  .debug_str:0000000000008aef .LASF1182
C:\Users\CYMR90~1\AppData\Local\Temp\ccbtsgth.s:20545  .debug_str:0000000000002e6c .LASF1183
C:\Users\CYMR90~1\AppData\Local\Temp\ccbtsgth.s:27488  .debug_str:000000000001ee21 .LASF1184
C:\Users\CYMR90~1\AppData\Local\Temp\ccbtsgth.s:27934  .debug_str:000000000002096b .LASF1185
C:\Users\CYMR90~1\AppData\Local\Temp\ccbtsgth.s:29112  .debug_str:0000000000025283 .LASF1186
C:\Users\CYMR90~1\AppData\Local\Temp\ccbtsgth.s:20281  .debug_str:0000000000001e73 .LASF1187
C:\Users\CYMR90~1\AppData\Local\Temp\ccbtsgth.s:21187  .debug_str:00000000000057a0 .LASF1188
C:\Users\CYMR90~1\AppData\Local\Temp\ccbtsgth.s:28408  .debug_str:0000000000022627 .LASF1189
C:\Users\CYMR90~1\AppData\Local\Temp\ccbtsgth.s:28616  .debug_str:0000000000023223 .LASF1190
C:\Users\CYMR90~1\AppData\Local\Temp\ccbtsgth.s:28456  .debug_str:00000000000228e6 .LASF1191
C:\Users\CYMR90~1\AppData\Local\Temp\ccbtsgth.s:22917  .debug_str:000000000000c911 .LASF1192
C:\Users\CYMR90~1\AppData\Local\Temp\ccbtsgth.s:28122  .debug_str:0000000000021536 .LASF1193
C:\Users\CYMR90~1\AppData\Local\Temp\ccbtsgth.s:23161  .debug_str:000000000000d89b .LASF1194
C:\Users\CYMR90~1\AppData\Local\Temp\ccbtsgth.s:26698  .debug_str:000000000001bbb1 .LASF1195
C:\Users\CYMR90~1\AppData\Local\Temp\ccbtsgth.s:24709  .debug_str:0000000000013a04 .LASF1196
C:\Users\CYMR90~1\AppData\Local\Temp\ccbtsgth.s:28158  .debug_str:000000000002175d .LASF1197
C:\Users\CYMR90~1\AppData\Local\Temp\ccbtsgth.s:30332  .debug_str:000000000002a05f .LASF1198
C:\Users\CYMR90~1\AppData\Local\Temp\ccbtsgth.s:25383  .debug_str:000000000001646b .LASF1199
C:\Users\CYMR90~1\AppData\Local\Temp\ccbtsgth.s:30338  .debug_str:000000000002a095 .LASF1200
C:\Users\CYMR90~1\AppData\Local\Temp\ccbtsgth.s:22421  .debug_str:000000000000a6a7 .LASF1201
C:\Users\CYMR90~1\AppData\Local\Temp\ccbtsgth.s:22081  .debug_str:0000000000009128 .LASF1202
C:\Users\CYMR90~1\AppData\Local\Temp\ccbtsgth.s:25578  .debug_str:00000000000172da .LASF1203
C:\Users\CYMR90~1\AppData\Local\Temp\ccbtsgth.s:29434  .debug_str:0000000000026744 .LASF1204
C:\Users\CYMR90~1\AppData\Local\Temp\ccbtsgth.s:24613  .debug_str:0000000000013455 .LASF1205
C:\Users\CYMR90~1\AppData\Local\Temp\ccbtsgth.s:23691  .debug_str:000000000000f95c .LASF1206
C:\Users\CYMR90~1\AppData\Local\Temp\ccbtsgth.s:30304  .debug_str:0000000000029ee7 .LASF1207
C:\Users\CYMR90~1\AppData\Local\Temp\ccbtsgth.s:28968  .debug_str:00000000000248a7 .LASF1208
C:\Users\CYMR90~1\AppData\Local\Temp\ccbtsgth.s:23627  .debug_str:000000000000f50a .LASF1209
C:\Users\CYMR90~1\AppData\Local\Temp\ccbtsgth.s:21083  .debug_str:000000000000516f .LASF1210
C:\Users\CYMR90~1\AppData\Local\Temp\ccbtsgth.s:21179  .debug_str:0000000000005726 .LASF1211
C:\Users\CYMR90~1\AppData\Local\Temp\ccbtsgth.s:21875  .debug_str:0000000000008454 .LASF1212
C:\Users\CYMR90~1\AppData\Local\Temp\ccbtsgth.s:21469  .debug_str:00000000000068e2 .LASF1213
C:\Users\CYMR90~1\AppData\Local\Temp\ccbtsgth.s:20397  .debug_str:00000000000024f8 .LASF1214
C:\Users\CYMR90~1\AppData\Local\Temp\ccbtsgth.s:22217  .debug_str:00000000000099d6 .LASF1215
C:\Users\CYMR90~1\AppData\Local\Temp\ccbtsgth.s:20335  .debug_str:0000000000002153 .LASF1216
C:\Users\CYMR90~1\AppData\Local\Temp\ccbtsgth.s:28570  .debug_str:0000000000022f8f .LASF1217
C:\Users\CYMR90~1\AppData\Local\Temp\ccbtsgth.s:28584  .debug_str:0000000000023043 .LASF1218
C:\Users\CYMR90~1\AppData\Local\Temp\ccbtsgth.s:29020  .debug_str:0000000000024bf9 .LASF1219
C:\Users\CYMR90~1\AppData\Local\Temp\ccbtsgth.s:26590  .debug_str:000000000001b542 .LASF1220
C:\Users\CYMR90~1\AppData\Local\Temp\ccbtsgth.s:23207  .debug_str:000000000000db4b .LASF1221
C:\Users\CYMR90~1\AppData\Local\Temp\ccbtsgth.s:24885  .debug_str:0000000000014523 .LASF1222
C:\Users\CYMR90~1\AppData\Local\Temp\ccbtsgth.s:20563  .debug_str:0000000000002f92 .LASF1223
C:\Users\CYMR90~1\AppData\Local\Temp\ccbtsgth.s:26322  .debug_str:000000000001a3fd .LASF1224
C:\Users\CYMR90~1\AppData\Local\Temp\ccbtsgth.s:29612  .debug_str:0000000000027293 .LASF1225
C:\Users\CYMR90~1\AppData\Local\Temp\ccbtsgth.s:22691  .debug_str:000000000000b9d3 .LASF1226
C:\Users\CYMR90~1\AppData\Local\Temp\ccbtsgth.s:21609  .debug_str:0000000000007234 .LASF1227
C:\Users\CYMR90~1\AppData\Local\Temp\ccbtsgth.s:20655  .debug_str:0000000000003583 .LASF1228
C:\Users\CYMR90~1\AppData\Local\Temp\ccbtsgth.s:31022  .debug_str:000000000002cd47 .LASF1229
C:\Users\CYMR90~1\AppData\Local\Temp\ccbtsgth.s:30050  .debug_str:0000000000028f2a .LASF1230
C:\Users\CYMR90~1\AppData\Local\Temp\ccbtsgth.s:29080  .debug_str:0000000000025003 .LASF1231
C:\Users\CYMR90~1\AppData\Local\Temp\ccbtsgth.s:28108  .debug_str:0000000000021467 .LASF1232
C:\Users\CYMR90~1\AppData\Local\Temp\ccbtsgth.s:27992  .debug_str:0000000000020d00 .LASF1233
C:\Users\CYMR90~1\AppData\Local\Temp\ccbtsgth.s:27038  .debug_str:000000000001d247 .LASF1234
C:\Users\CYMR90~1\AppData\Local\Temp\ccbtsgth.s:26104  .debug_str:0000000000019520 .LASF1235
C:\Users\CYMR90~1\AppData\Local\Temp\ccbtsgth.s:24779  .debug_str:0000000000013e8e .LASF1236
C:\Users\CYMR90~1\AppData\Local\Temp\ccbtsgth.s:24151  .debug_str:0000000000011633 .LASF1237
C:\Users\CYMR90~1\AppData\Local\Temp\ccbtsgth.s:25478  .debug_str:0000000000016cc1 .LASF1238
C:\Users\CYMR90~1\AppData\Local\Temp\ccbtsgth.s:22293  .debug_str:0000000000009e5b .LASF1239
C:\Users\CYMR90~1\AppData\Local\Temp\ccbtsgth.s:21287  .debug_str:0000000000005daf .LASF1240
C:\Users\CYMR90~1\AppData\Local\Temp\ccbtsgth.s:20355  .debug_str:0000000000002266 .LASF1241
C:\Users\CYMR90~1\AppData\Local\Temp\ccbtsgth.s:30728  .debug_str:000000000002b9c4 .LASF1242
C:\Users\CYMR90~1\AppData\Local\Temp\ccbtsgth.s:19885  .debug_str:0000000000000501 .LASF1243
C:\Users\CYMR90~1\AppData\Local\Temp\ccbtsgth.s:30200  .debug_str:00000000000298c1 .LASF1244
C:\Users\CYMR90~1\AppData\Local\Temp\ccbtsgth.s:29226  .debug_str:0000000000025a9a .LASF1245
C:\Users\CYMR90~1\AppData\Local\Temp\ccbtsgth.s:28264  .debug_str:0000000000021dc2 .LASF1246
C:\Users\CYMR90~1\AppData\Local\Temp\ccbtsgth.s:31052  .debug_str:000000000002ceee .LASF1247
C:\Users\CYMR90~1\AppData\Local\Temp\ccbtsgth.s:26382  .debug_str:000000000001a7fc .LASF1248
C:\Users\CYMR90~1\AppData\Local\Temp\ccbtsgth.s:25431  .debug_str:0000000000016791 .LASF1249
C:\Users\CYMR90~1\AppData\Local\Temp\ccbtsgth.s:25596  .debug_str:000000000001743a .LASF1250
C:\Users\CYMR90~1\AppData\Local\Temp\ccbtsgth.s:23541  .debug_str:000000000000efa3 .LASF1251
C:\Users\CYMR90~1\AppData\Local\Temp\ccbtsgth.s:25700  .debug_str:0000000000017b02 .LASF1252
C:\Users\CYMR90~1\AppData\Local\Temp\ccbtsgth.s:23051  .debug_str:000000000000d183 .LASF1253
C:\Users\CYMR90~1\AppData\Local\Temp\ccbtsgth.s:22095  .debug_str:00000000000091f7 .LASF1254
C:\Users\CYMR90~1\AppData\Local\Temp\ccbtsgth.s:20133  .debug_str:00000000000014ca .LASF1255
C:\Users\CYMR90~1\AppData\Local\Temp\ccbtsgth.s:22973  .debug_str:000000000000cc98 .LASF1256
C:\Users\CYMR90~1\AppData\Local\Temp\ccbtsgth.s:21241  .debug_str:0000000000005b1b .LASF1257
C:\Users\CYMR90~1\AppData\Local\Temp\ccbtsgth.s:25972  .debug_str:0000000000018c92 .LASF1258
C:\Users\CYMR90~1\AppData\Local\Temp\ccbtsgth.s:25974  .debug_str:0000000000018ca5 .LASF1259
C:\Users\CYMR90~1\AppData\Local\Temp\ccbtsgth.s:28460  .debug_str:0000000000022916 .LASF1260
C:\Users\CYMR90~1\AppData\Local\Temp\ccbtsgth.s:26584  .debug_str:000000000001b4fb .LASF1261
C:\Users\CYMR90~1\AppData\Local\Temp\ccbtsgth.s:23959  .debug_str:0000000000010a67 .LASF1262
C:\Users\CYMR90~1\AppData\Local\Temp\ccbtsgth.s:21137  .debug_str:00000000000054a5 .LASF1263
C:\Users\CYMR90~1\AppData\Local\Temp\ccbtsgth.s:23283  .debug_str:000000000000dff3 .LASF1264
C:\Users\CYMR90~1\AppData\Local\Temp\ccbtsgth.s:25455  .debug_str:00000000000169b8 .LASF1265
C:\Users\CYMR90~1\AppData\Local\Temp\ccbtsgth.s:23337  .debug_str:000000000000e30a .LASF1266
C:\Users\CYMR90~1\AppData\Local\Temp\ccbtsgth.s:28486  .debug_str:0000000000022b14 .LASF1267
C:\Users\CYMR90~1\AppData\Local\Temp\ccbtsgth.s:28662  .debug_str:000000000002351d .LASF1268
C:\Users\CYMR90~1\AppData\Local\Temp\ccbtsgth.s:24095  .debug_str:00000000000111fa .LASF1269
C:\Users\CYMR90~1\AppData\Local\Temp\ccbtsgth.s:30782  .debug_str:000000000002bd23 .LASF1270
C:\Users\CYMR90~1\AppData\Local\Temp\ccbtsgth.s:25702  .debug_str:0000000000017b19 .LASF1271
C:\Users\CYMR90~1\AppData\Local\Temp\ccbtsgth.s:30160  .debug_str:0000000000029674 .LASF1272
C:\Users\CYMR90~1\AppData\Local\Temp\ccbtsgth.s:27162  .debug_str:000000000001d9f4 .LASF1273
C:\Users\CYMR90~1\AppData\Local\Temp\ccbtsgth.s:19949  .debug_str:00000000000008ef .LASF1274
C:\Users\CYMR90~1\AppData\Local\Temp\ccbtsgth.s:25980  .debug_str:0000000000018cf4 .LASF1275
C:\Users\CYMR90~1\AppData\Local\Temp\ccbtsgth.s:20059  .debug_str:000000000000106c .LASF1276
C:\Users\CYMR90~1\AppData\Local\Temp\ccbtsgth.s:22313  .debug_str:0000000000009fbd .LASF1277
C:\Users\CYMR90~1\AppData\Local\Temp\ccbtsgth.s:21305  .debug_str:0000000000005eb5 .LASF1278
C:\Users\CYMR90~1\AppData\Local\Temp\ccbtsgth.s:20383  .debug_str:0000000000002418 .LASF1279
C:\Users\CYMR90~1\AppData\Local\Temp\ccbtsgth.s:30750  .debug_str:000000000002bb09 .LASF1280
C:\Users\CYMR90~1\AppData\Local\Temp\ccbtsgth.s:21197  .debug_str:000000000000584a .LASF1281
C:\Users\CYMR90~1\AppData\Local\Temp\ccbtsgth.s:20269  .debug_str:0000000000001db3 .LASF1282
C:\Users\CYMR90~1\AppData\Local\Temp\ccbtsgth.s:27330  .debug_str:000000000001e4df .LASF1283
C:\Users\CYMR90~1\AppData\Local\Temp\ccbtsgth.s:29646  .debug_str:000000000002744e .LASF1284
C:\Users\CYMR90~1\AppData\Local\Temp\ccbtsgth.s:28688  .debug_str:00000000000236e0 .LASF1285
C:\Users\CYMR90~1\AppData\Local\Temp\ccbtsgth.s:27724  .debug_str:000000000001fc48 .LASF1286
C:\Users\CYMR90~1\AppData\Local\Temp\ccbtsgth.s:26764  .debug_str:000000000001bfe0 .LASF1287
C:\Users\CYMR90~1\AppData\Local\Temp\ccbtsgth.s:25802  .debug_str:0000000000018124 .LASF1288
C:\Users\CYMR90~1\AppData\Local\Temp\ccbtsgth.s:24821  .debug_str:0000000000014101 .LASF1289
C:\Users\CYMR90~1\AppData\Local\Temp\ccbtsgth.s:23893  .debug_str:00000000000105c1 .LASF1290
C:\Users\CYMR90~1\AppData\Local\Temp\ccbtsgth.s:28214  .debug_str:0000000000021ac4 .LASF1291
C:\Users\CYMR90~1\AppData\Local\Temp\ccbtsgth.s:27240  .debug_str:000000000001df41 .LASF1292
C:\Users\CYMR90~1\AppData\Local\Temp\ccbtsgth.s:26320  .debug_str:000000000001a3e9 .LASF1293
C:\Users\CYMR90~1\AppData\Local\Temp\ccbtsgth.s:25313  .debug_str:0000000000016024 .LASF1294
C:\Users\CYMR90~1\AppData\Local\Temp\ccbtsgth.s:24369  .debug_str:000000000001246c .LASF1295
C:\Users\CYMR90~1\AppData\Local\Temp\ccbtsgth.s:23443  .debug_str:000000000000e9cd .LASF1296
C:\Users\CYMR90~1\AppData\Local\Temp\ccbtsgth.s:22821  .debug_str:000000000000c2cc .LASF1297
C:\Users\CYMR90~1\AppData\Local\Temp\ccbtsgth.s:27690  .debug_str:000000000001fa59 .LASF1298
C:\Users\CYMR90~1\AppData\Local\Temp\ccbtsgth.s:26736  .debug_str:000000000001be4f .LASF1299
C:\Users\CYMR90~1\AppData\Local\Temp\ccbtsgth.s:25768  .debug_str:0000000000017f0a .LASF1300
C:\Users\CYMR90~1\AppData\Local\Temp\ccbtsgth.s:26710  .debug_str:000000000001bc85 .LASF1301
C:\Users\CYMR90~1\AppData\Local\Temp\ccbtsgth.s:20507  .debug_str:0000000000002c25 .LASF1302
C:\Users\CYMR90~1\AppData\Local\Temp\ccbtsgth.s:25359  .debug_str:0000000000016288 .LASF1303
C:\Users\CYMR90~1\AppData\Local\Temp\ccbtsgth.s:26238  .debug_str:0000000000019da0 .LASF1304
C:\Users\CYMR90~1\AppData\Local\Temp\ccbtsgth.s:26210  .debug_str:0000000000019c11 .LASF1305
C:\Users\CYMR90~1\AppData\Local\Temp\ccbtsgth.s:21987  .debug_str:0000000000008b23 .LASF1306
C:\Users\CYMR90~1\AppData\Local\Temp\ccbtsgth.s:20983  .debug_str:0000000000004b8c .LASF1307
C:\Users\CYMR90~1\AppData\Local\Temp\ccbtsgth.s:20071  .debug_str:0000000000001103 .LASF1308
C:\Users\CYMR90~1\AppData\Local\Temp\ccbtsgth.s:30404  .debug_str:000000000002a4f4 .LASF1309
C:\Users\CYMR90~1\AppData\Local\Temp\ccbtsgth.s:29430  .debug_str:0000000000026707 .LASF1310
C:\Users\CYMR90~1\AppData\Local\Temp\ccbtsgth.s:28464  .debug_str:0000000000022944 .LASF1311
C:\Users\CYMR90~1\AppData\Local\Temp\ccbtsgth.s:21941  .debug_str:000000000000886d .LASF1312
C:\Users\CYMR90~1\AppData\Local\Temp\ccbtsgth.s:23297  .debug_str:000000000000e0c3 .LASF1313
C:\Users\CYMR90~1\AppData\Local\Temp\ccbtsgth.s:24527  .debug_str:0000000000012eb0 .LASF1314
C:\Users\CYMR90~1\AppData\Local\Temp\ccbtsgth.s:30628  .debug_str:000000000002b2cc .LASF1315
C:\Users\CYMR90~1\AppData\Local\Temp\ccbtsgth.s:29156  .debug_str:00000000000255b1 .LASF1316
C:\Users\CYMR90~1\AppData\Local\Temp\ccbtsgth.s:28680  .debug_str:0000000000023644 .LASF1317
C:\Users\CYMR90~1\AppData\Local\Temp\ccbtsgth.s:27716  .debug_str:000000000001fbdb .LASF1318
C:\Users\CYMR90~1\AppData\Local\Temp\ccbtsgth.s:26774  .debug_str:000000000001c08a .LASF1319
C:\Users\CYMR90~1\AppData\Local\Temp\ccbtsgth.s:25812  .debug_str:00000000000181d2 .LASF1320
C:\Users\CYMR90~1\AppData\Local\Temp\ccbtsgth.s:24831  .debug_str:0000000000014177 .LASF1321
C:\Users\CYMR90~1\AppData\Local\Temp\ccbtsgth.s:23899  .debug_str:000000000001060f .LASF1322
C:\Users\CYMR90~1\AppData\Local\Temp\ccbtsgth.s:24343  .debug_str:00000000000122af .LASF1323
C:\Users\CYMR90~1\AppData\Local\Temp\ccbtsgth.s:22825  .debug_str:000000000000c2f1 .LASF1324
C:\Users\CYMR90~1\AppData\Local\Temp\ccbtsgth.s:22471  .debug_str:000000000000aaaa .LASF1325
C:\Users\CYMR90~1\AppData\Local\Temp\ccbtsgth.s:21477  .debug_str:000000000000697e .LASF1326
C:\Users\CYMR90~1\AppData\Local\Temp\ccbtsgth.s:20523  .debug_str:0000000000002d1c .LASF1327
C:\Users\CYMR90~1\AppData\Local\Temp\ccbtsgth.s:30908  .debug_str:000000000002c5b4 .LASF1328
C:\Users\CYMR90~1\AppData\Local\Temp\ccbtsgth.s:28784  .debug_str:0000000000023c0b .LASF1329
C:\Users\CYMR90~1\AppData\Local\Temp\ccbtsgth.s:29000  .debug_str:0000000000024aab .LASF1330
C:\Users\CYMR90~1\AppData\Local\Temp\ccbtsgth.s:28030  .debug_str:0000000000020f26 .LASF1331
C:\Users\CYMR90~1\AppData\Local\Temp\ccbtsgth.s:27072  .debug_str:000000000001d475 .LASF1332
C:\Users\CYMR90~1\AppData\Local\Temp\ccbtsgth.s:27510  .debug_str:000000000001ef9a .LASF1333
C:\Users\CYMR90~1\AppData\Local\Temp\ccbtsgth.s:26598  .debug_str:000000000001b5be .LASF1334
C:\Users\CYMR90~1\AppData\Local\Temp\ccbtsgth.s:25275  .debug_str:0000000000015dcc .LASF1335
C:\Users\CYMR90~1\AppData\Local\Temp\ccbtsgth.s:22969  .debug_str:000000000000cc6d .LASF1336
C:\Users\CYMR90~1\AppData\Local\Temp\ccbtsgth.s:27732  .debug_str:000000000001fca7 .LASF1337
C:\Users\CYMR90~1\AppData\Local\Temp\ccbtsgth.s:24227  .debug_str:0000000000011b2f .LASF1338
C:\Users\CYMR90~1\AppData\Local\Temp\ccbtsgth.s:20173  .debug_str:000000000000172d .LASF1339
C:\Users\CYMR90~1\AppData\Local\Temp\ccbtsgth.s:22263  .debug_str:0000000000009cac .LASF1340
C:\Users\CYMR90~1\AppData\Local\Temp\ccbtsgth.s:21257  .debug_str:0000000000005c12 .LASF1341
C:\Users\CYMR90~1\AppData\Local\Temp\ccbtsgth.s:20321  .debug_str:000000000000209c .LASF1342
C:\Users\CYMR90~1\AppData\Local\Temp\ccbtsgth.s:30708  .debug_str:000000000002b851 .LASF1343
C:\Users\CYMR90~1\AppData\Local\Temp\ccbtsgth.s:30496  .debug_str:000000000002aa22 .LASF1344
C:\Users\CYMR90~1\AppData\Local\Temp\ccbtsgth.s:29510  .debug_str:0000000000026bcf .LASF1345
C:\Users\CYMR90~1\AppData\Local\Temp\ccbtsgth.s:28548  .debug_str:0000000000022e85 .LASF1346
C:\Users\CYMR90~1\AppData\Local\Temp\ccbtsgth.s:29922  .debug_str:0000000000028794 .LASF1347
C:\Users\CYMR90~1\AppData\Local\Temp\ccbtsgth.s:26642  .debug_str:000000000001b856 .LASF1348
C:\Users\CYMR90~1\AppData\Local\Temp\ccbtsgth.s:20761  .debug_str:0000000000003c62 .LASF1349
C:\Users\CYMR90~1\AppData\Local\Temp\ccbtsgth.s:24701  .debug_str:0000000000013996 .LASF1350
C:\Users\CYMR90~1\AppData\Local\Temp\ccbtsgth.s:27866  .debug_str:000000000002051d .LASF1351
C:\Users\CYMR90~1\AppData\Local\Temp\ccbtsgth.s:22837  .debug_str:000000000000c3bb .LASF1352
C:\Users\CYMR90~1\AppData\Local\Temp\ccbtsgth.s:21767  .debug_str:0000000000007cc8 .LASF1353
C:\Users\CYMR90~1\AppData\Local\Temp\ccbtsgth.s:22343  .debug_str:000000000000a1be .LASF1354
C:\Users\CYMR90~1\AppData\Local\Temp\ccbtsgth.s:21337  .debug_str:00000000000060c5 .LASF1355
C:\Users\CYMR90~1\AppData\Local\Temp\ccbtsgth.s:20409  .debug_str:0000000000002598 .LASF1356
C:\Users\CYMR90~1\AppData\Local\Temp\ccbtsgth.s:30778  .debug_str:000000000002bd03 .LASF1357
C:\Users\CYMR90~1\AppData\Local\Temp\ccbtsgth.s:24791  .debug_str:0000000000013f52 .LASF1358
C:\Users\CYMR90~1\AppData\Local\Temp\ccbtsgth.s:21471  .debug_str:0000000000006926 .LASF1359
C:\Users\CYMR90~1\AppData\Local\Temp\ccbtsgth.s:27912  .debug_str:00000000000207ec .LASF1360
C:\Users\CYMR90~1\AppData\Local\Temp\ccbtsgth.s:26868  .debug_str:000000000001c60c .LASF1361
C:\Users\CYMR90~1\AppData\Local\Temp\ccbtsgth.s:25914  .debug_str:0000000000018834 .LASF1362
C:\Users\CYMR90~1\AppData\Local\Temp\ccbtsgth.s:24915  .debug_str:0000000000014705 .LASF1363
C:\Users\CYMR90~1\AppData\Local\Temp\ccbtsgth.s:25199  .debug_str:0000000000015854 .LASF1364
C:\Users\CYMR90~1\AppData\Local\Temp\ccbtsgth.s:21893  .debug_str:000000000000856d .LASF1365
C:\Users\CYMR90~1\AppData\Local\Temp\ccbtsgth.s:29538  .debug_str:0000000000026d81 .LASF1366
C:\Users\CYMR90~1\AppData\Local\Temp\ccbtsgth.s:28790  .debug_str:0000000000023c57 .LASF1367
C:\Users\CYMR90~1\AppData\Local\Temp\ccbtsgth.s:27810  .debug_str:0000000000020188 .LASF1368
C:\Users\CYMR90~1\AppData\Local\Temp\ccbtsgth.s:26078  .debug_str:000000000001937c .LASF1369
C:\Users\CYMR90~1\AppData\Local\Temp\ccbtsgth.s:23939  .debug_str:000000000001087b .LASF1370
C:\Users\CYMR90~1\AppData\Local\Temp\ccbtsgth.s:27084  .debug_str:000000000001d4fc .LASF1371
C:\Users\CYMR90~1\AppData\Local\Temp\ccbtsgth.s:20451  .debug_str:0000000000002882 .LASF1372
C:\Users\CYMR90~1\AppData\Local\Temp\ccbtsgth.s:23011  .debug_str:000000000000ceea .LASF1373
C:\Users\CYMR90~1\AppData\Local\Temp\ccbtsgth.s:26122  .debug_str:00000000000195fd .LASF1374
C:\Users\CYMR90~1\AppData\Local\Temp\ccbtsgth.s:29216  .debug_str:00000000000259e4 .LASF1375
C:\Users\CYMR90~1\AppData\Local\Temp\ccbtsgth.s:21013  .debug_str:0000000000004d43 .LASF1376
C:\Users\CYMR90~1\AppData\Local\Temp\ccbtsgth.s:24139  .debug_str:00000000000114c7 .LASF1377
C:\Users\CYMR90~1\AppData\Local\Temp\ccbtsgth.s:27246  .debug_str:000000000001df9b .LASF1378
C:\Users\CYMR90~1\AppData\Local\Temp\ccbtsgth.s:30400  .debug_str:000000000002a4b7 .LASF1379
C:\Users\CYMR90~1\AppData\Local\Temp\ccbtsgth.s:30368  .debug_str:000000000002a288 .LASF1380
C:\Users\CYMR90~1\AppData\Local\Temp\ccbtsgth.s:22107  .debug_str:00000000000092a7 .LASF1381
C:\Users\CYMR90~1\AppData\Local\Temp\ccbtsgth.s:25171  .debug_str:0000000000015691 .LASF1382
C:\Users\CYMR90~1\AppData\Local\Temp\ccbtsgth.s:28308  .debug_str:0000000000022061 .LASF1383
C:\Users\CYMR90~1\AppData\Local\Temp\ccbtsgth.s:20147  .debug_str:000000000000157b .LASF1384
C:\Users\CYMR90~1\AppData\Local\Temp\ccbtsgth.s:24597  .debug_str:0000000000013362 .LASF1385
C:\Users\CYMR90~1\AppData\Local\Temp\ccbtsgth.s:26418  .debug_str:000000000001aa43 .LASF1386
C:\Users\CYMR90~1\AppData\Local\Temp\ccbtsgth.s:29500  .debug_str:0000000000026b0e .LASF1387
C:\Users\CYMR90~1\AppData\Local\Temp\ccbtsgth.s:21293  .debug_str:0000000000005e12 .LASF1388
C:\Users\CYMR90~1\AppData\Local\Temp\ccbtsgth.s:24327  .debug_str:00000000000121b0 .LASF1389
C:\Users\CYMR90~1\AppData\Local\Temp\ccbtsgth.s:23697  .debug_str:000000000000f9a2 .LASF1390
C:\Users\CYMR90~1\AppData\Local\Temp\ccbtsgth.s:26720  .debug_str:000000000001bd3b .LASF1391
C:\Users\CYMR90~1\AppData\Local\Temp\ccbtsgth.s:29838  .debug_str:00000000000281b5 .LASF1392
C:\Users\CYMR90~1\AppData\Local\Temp\ccbtsgth.s:21645  .debug_str:0000000000007452 .LASF1393
C:\Users\CYMR90~1\AppData\Local\Temp\ccbtsgth.s:24729  .debug_str:0000000000013b20 .LASF1394
C:\Users\CYMR90~1\AppData\Local\Temp\ccbtsgth.s:24883  .debug_str:000000000001450b .LASF1395
C:\Users\CYMR90~1\AppData\Local\Temp\ccbtsgth.s:31080  .debug_str:000000000002d0a4 .LASF1396
C:\Users\CYMR90~1\AppData\Local\Temp\ccbtsgth.s:22893  .debug_str:000000000000c71b .LASF1397
C:\Users\CYMR90~1\AppData\Local\Temp\ccbtsgth.s:27458  .debug_str:000000000001ec5a .LASF1398
C:\Users\CYMR90~1\AppData\Local\Temp\ccbtsgth.s:24047  .debug_str:0000000000010f20 .LASF1399
C:\Users\CYMR90~1\AppData\Local\Temp\ccbtsgth.s:25341  .debug_str:00000000000161ac .LASF1400
C:\Users\CYMR90~1\AppData\Local\Temp\ccbtsgth.s:20105  .debug_str:0000000000001302 .LASF1401
C:\Users\CYMR90~1\AppData\Local\Temp\ccbtsgth.s:27794  .debug_str:00000000000200c2 .LASF1402
C:\Users\CYMR90~1\AppData\Local\Temp\ccbtsgth.s:22727  .debug_str:000000000000bc35 .LASF1403
C:\Users\CYMR90~1\AppData\Local\Temp\ccbtsgth.s:27562  .debug_str:000000000001f2cb .LASF1404
C:\Users\CYMR90~1\AppData\Local\Temp\ccbtsgth.s:20797  .debug_str:0000000000003ec1 .LASF1405
C:\Users\CYMR90~1\AppData\Local\Temp\ccbtsgth.s:30328  .debug_str:000000000002a02f .LASF1406
C:\Users\CYMR90~1\AppData\Local\Temp\ccbtsgth.s:28508  .debug_str:0000000000022c3f .LASF1407
C:\Users\CYMR90~1\AppData\Local\Temp\ccbtsgth.s:28668  .debug_str:0000000000023561 .LASF1408
C:\Users\CYMR90~1\AppData\Local\Temp\ccbtsgth.s:20479  .debug_str:0000000000002a4e .LASF1409
C:\Users\CYMR90~1\AppData\Local\Temp\ccbtsgth.s:23611  .debug_str:000000000000f416 .LASF1410
C:\Users\CYMR90~1\AppData\Local\Temp\ccbtsgth.s:30068  .debug_str:000000000002904e .LASF1411
C:\Users\CYMR90~1\AppData\Local\Temp\ccbtsgth.s:21881  .debug_str:00000000000084a9 .LASF1412
C:\Users\CYMR90~1\AppData\Local\Temp\ccbtsgth.s:26236  .debug_str:0000000000019d87 .LASF1413
C:\Users\CYMR90~1\AppData\Local\Temp\ccbtsgth.s:28090  .debug_str:000000000002133e .LASF1414
C:\Users\CYMR90~1\AppData\Local\Temp\ccbtsgth.s:19951  .debug_str:0000000000000902 .LASF1415
C:\Users\CYMR90~1\AppData\Local\Temp\ccbtsgth.s:22979  .debug_str:000000000000ccd5 .LASF1416
C:\Users\CYMR90~1\AppData\Local\Temp\ccbtsgth.s:29452  .debug_str:0000000000026864 .LASF1417
C:\Users\CYMR90~1\AppData\Local\Temp\ccbtsgth.s:27626  .debug_str:000000000001f679 .LASF1418
C:\Users\CYMR90~1\AppData\Local\Temp\ccbtsgth.s:20993  .debug_str:0000000000004c05 .LASF1419
C:\Users\CYMR90~1\AppData\Local\Temp\ccbtsgth.s:24031  .debug_str:0000000000010e14 .LASF1420
C:\Users\CYMR90~1\AppData\Local\Temp\ccbtsgth.s:23397  .debug_str:000000000000e6ef .LASF1421
C:\Users\CYMR90~1\AppData\Local\Temp\ccbtsgth.s:26530  .debug_str:000000000001b1c2 .LASF1422
C:\Users\CYMR90~1\AppData\Local\Temp\ccbtsgth.s:29610  .debug_str:000000000002727a .LASF1423
C:\Users\CYMR90~1\AppData\Local\Temp\ccbtsgth.s:20549  .debug_str:0000000000002ea5 .LASF1424
C:\Users\CYMR90~1\AppData\Local\Temp\ccbtsgth.s:24531  .debug_str:0000000000012ede .LASF1425
C:\Users\CYMR90~1\AppData\Local\Temp\ccbtsgth.s:27554  .debug_str:000000000001f232 .LASF1426
C:\Users\CYMR90~1\AppData\Local\Temp\ccbtsgth.s:30788  .debug_str:000000000002bdf7 .LASF1427
C:\Users\CYMR90~1\AppData\Local\Temp\ccbtsgth.s:22603  .debug_str:000000000000b3a7 .LASF1428
C:\Users\CYMR90~1\AppData\Local\Temp\ccbtsgth.s:25678  .debug_str:00000000000179b0 .LASF1429
C:\Users\CYMR90~1\AppData\Local\Temp\ccbtsgth.s:28800  .debug_str:0000000000023ced .LASF1430
C:\Users\CYMR90~1\AppData\Local\Temp\ccbtsgth.s:27564  .debug_str:000000000001f2e3 .LASF1431
C:\Users\CYMR90~1\AppData\Local\Temp\ccbtsgth.s:19913  .debug_str:00000000000006b8 .LASF1432
C:\Users\CYMR90~1\AppData\Local\Temp\ccbtsgth.s:24073  .debug_str:00000000000110b4 .LASF1433
C:\Users\CYMR90~1\AppData\Local\Temp\ccbtsgth.s:27798  .debug_str:00000000000200ec .LASF1434
C:\Users\CYMR90~1\AppData\Local\Temp\ccbtsgth.s:26832  .debug_str:000000000001c3eb .LASF1435
C:\Users\CYMR90~1\AppData\Local\Temp\ccbtsgth.s:25878  .debug_str:00000000000185e1 .LASF1436
C:\Users\CYMR90~1\AppData\Local\Temp\ccbtsgth.s:25297  .debug_str:0000000000015f3b .LASF1437
C:\Users\CYMR90~1\AppData\Local\Temp\ccbtsgth.s:29644  .debug_str:000000000002743a .LASF1438
C:\Users\CYMR90~1\AppData\Local\Temp\ccbtsgth.s:28686  .debug_str:00000000000236cc .LASF1439
C:\Users\CYMR90~1\AppData\Local\Temp\ccbtsgth.s:27722  .debug_str:000000000001fc34 .LASF1440
C:\Users\CYMR90~1\AppData\Local\Temp\ccbtsgth.s:26762  .debug_str:000000000001bfcc .LASF1441
C:\Users\CYMR90~1\AppData\Local\Temp\ccbtsgth.s:25800  .debug_str:0000000000018110 .LASF1442
C:\Users\CYMR90~1\AppData\Local\Temp\ccbtsgth.s:24819  .debug_str:00000000000140ed .LASF1443
C:\Users\CYMR90~1\AppData\Local\Temp\ccbtsgth.s:23891  .debug_str:00000000000105ad .LASF1444
C:\Users\CYMR90~1\AppData\Local\Temp\ccbtsgth.s:30746  .debug_str:000000000002bad1 .LASF1445
C:\Users\CYMR90~1\AppData\Local\Temp\ccbtsgth.s:21995  .debug_str:0000000000008b91 .LASF1446
C:\Users\CYMR90~1\AppData\Local\Temp\ccbtsgth.s:29998  .debug_str:0000000000028c03 .LASF1447
C:\Users\CYMR90~1\AppData\Local\Temp\ccbtsgth.s:29036  .debug_str:0000000000024cf2 .LASF1448
C:\Users\CYMR90~1\AppData\Local\Temp\ccbtsgth.s:28066  .debug_str:000000000002112b .LASF1449
C:\Users\CYMR90~1\AppData\Local\Temp\ccbtsgth.s:27094  .debug_str:000000000001d5fb .LASF1450
C:\Users\CYMR90~1\AppData\Local\Temp\ccbtsgth.s:26166  .debug_str:000000000001994d .LASF1451
C:\Users\CYMR90~1\AppData\Local\Temp\ccbtsgth.s:25167  .debug_str:0000000000015669 .LASF1452
C:\Users\CYMR90~1\AppData\Local\Temp\ccbtsgth.s:22601  .debug_str:000000000000b394 .LASF1453
C:\Users\CYMR90~1\AppData\Local\Temp\ccbtsgth.s:21203  .debug_str:00000000000058a0 .LASF1454
C:\Users\CYMR90~1\AppData\Local\Temp\ccbtsgth.s:22403  .debug_str:000000000000a587 .LASF1455
C:\Users\CYMR90~1\AppData\Local\Temp\ccbtsgth.s:27462  .debug_str:000000000001ec9c .LASF1456
C:\Users\CYMR90~1\AppData\Local\Temp\ccbtsgth.s:29088  .debug_str:0000000000025092 .LASF1457
C:\Users\CYMR90~1\AppData\Local\Temp\ccbtsgth.s:20957  .debug_str:00000000000049e3 .LASF1458
C:\Users\CYMR90~1\AppData\Local\Temp\ccbtsgth.s:27548  .debug_str:000000000001f1e4 .LASF1459
C:\Users\CYMR90~1\AppData\Local\Temp\ccbtsgth.s:24349  .debug_str:0000000000012313 .LASF1460
C:\Users\CYMR90~1\AppData\Local\Temp\ccbtsgth.s:22511  .debug_str:000000000000ad47 .LASF1461
C:\Users\CYMR90~1\AppData\Local\Temp\ccbtsgth.s:23657  .debug_str:000000000000f760 .LASF1462
C:\Users\CYMR90~1\AppData\Local\Temp\ccbtsgth.s:24145  .debug_str:00000000000115a2 .LASF1463
C:\Users\CYMR90~1\AppData\Local\Temp\ccbtsgth.s:25229  .debug_str:0000000000015a57 .LASF1464
C:\Users\CYMR90~1\AppData\Local\Temp\ccbtsgth.s:30520  .debug_str:000000000002abd2 .LASF1465
C:\Users\CYMR90~1\AppData\Local\Temp\ccbtsgth.s:26432  .debug_str:000000000001ab1b .LASF1466
C:\Users\CYMR90~1\AppData\Local\Temp\ccbtsgth.s:24823  .debug_str:0000000000014114 .LASF1467
C:\Users\CYMR90~1\AppData\Local\Temp\ccbtsgth.s:29528  .debug_str:0000000000026cf2 .LASF1468
C:\Users\CYMR90~1\AppData\Local\Temp\ccbtsgth.s:23827  .debug_str:00000000000101b0 .LASF1469
C:\Users\CYMR90~1\AppData\Local\Temp\ccbtsgth.s:21953  .debug_str:000000000000892f .LASF1470
C:\Users\CYMR90~1\AppData\Local\Temp\ccbtsgth.s:24121  .debug_str:000000000001139f .LASF1471
C:\Users\CYMR90~1\AppData\Local\Temp\ccbtsgth.s:25704  .debug_str:0000000000017b2c .LASF1472
C:\Users\CYMR90~1\AppData\Local\Temp\ccbtsgth.s:28990  .debug_str:0000000000024a09 .LASF1473
C:\Users\CYMR90~1\AppData\Local\Temp\ccbtsgth.s:29616  .debug_str:00000000000272bf .LASF1474
C:\Users\CYMR90~1\AppData\Local\Temp\ccbtsgth.s:20003  .debug_str:0000000000000c7c .LASF1475
C:\Users\CYMR90~1\AppData\Local\Temp\ccbtsgth.s:21883  .debug_str:00000000000084c2 .LASF1476
C:\Users\CYMR90~1\AppData\Local\Temp\ccbtsgth.s:20503  .debug_str:0000000000002bf5 .LASF1477
C:\Users\CYMR90~1\AppData\Local\Temp\ccbtsgth.s:29800  .debug_str:0000000000027ec7 .LASF1478
C:\Users\CYMR90~1\AppData\Local\Temp\ccbtsgth.s:28838  .debug_str:0000000000023fd7 .LASF1479
C:\Users\CYMR90~1\AppData\Local\Temp\ccbtsgth.s:20621  .debug_str:0000000000003350 .LASF1480
C:\Users\CYMR90~1\AppData\Local\Temp\ccbtsgth.s:22845  .debug_str:000000000000c417 .LASF1481
C:\Users\CYMR90~1\AppData\Local\Temp\ccbtsgth.s:28960  .debug_str:000000000002483e .LASF1482
C:\Users\CYMR90~1\AppData\Local\Temp\ccbtsgth.s:22195  .debug_str:0000000000009854 .LASF1483
C:\Users\CYMR90~1\AppData\Local\Temp\ccbtsgth.s:20999  .debug_str:0000000000004c5e .LASF1484
C:\Users\CYMR90~1\AppData\Local\Temp\ccbtsgth.s:23407  .debug_str:000000000000e791 .LASF1485
C:\Users\CYMR90~1\AppData\Local\Temp\ccbtsgth.s:24789  .debug_str:0000000000013f3f .LASF1486
C:\Users\CYMR90~1\AppData\Local\Temp\ccbtsgth.s:26414  .debug_str:000000000001aa14 .LASF1487
C:\Users\CYMR90~1\AppData\Local\Temp\ccbtsgth.s:19837  .debug_str:000000000000024c .LASF1488
C:\Users\CYMR90~1\AppData\Local\Temp\ccbtsgth.s:25187  .debug_str:000000000001577c .LASF1489
C:\Users\CYMR90~1\AppData\Local\Temp\ccbtsgth.s:23213  .debug_str:000000000000db96 .LASF1490
C:\Users\CYMR90~1\AppData\Local\Temp\ccbtsgth.s:30032  .debug_str:0000000000028e24 .LASF1491
C:\Users\CYMR90~1\AppData\Local\Temp\ccbtsgth.s:20473  .debug_str:00000000000029e7 .LASF1492
C:\Users\CYMR90~1\AppData\Local\Temp\ccbtsgth.s:28020  .debug_str:0000000000020ea1 .LASF1493
C:\Users\CYMR90~1\AppData\Local\Temp\ccbtsgth.s:30258  .debug_str:0000000000029c3b .LASF1494
C:\Users\CYMR90~1\AppData\Local\Temp\ccbtsgth.s:21633  .debug_str:00000000000073ae .LASF1495
C:\Users\CYMR90~1\AppData\Local\Temp\ccbtsgth.s:22611  .debug_str:000000000000b3ff .LASF1496
C:\Users\CYMR90~1\AppData\Local\Temp\ccbtsgth.s:30004  .debug_str:0000000000028c57 .LASF1497
C:\Users\CYMR90~1\AppData\Local\Temp\ccbtsgth.s:21429  .debug_str:0000000000006641 .LASF1498
C:\Users\CYMR90~1\AppData\Local\Temp\ccbtsgth.s:22289  .debug_str:0000000000009e34 .LASF1499
C:\Users\CYMR90~1\AppData\Local\Temp\ccbtsgth.s:30954  .debug_str:000000000002c8bb .LASF1500
C:\Users\CYMR90~1\AppData\Local\Temp\ccbtsgth.s:30172  .debug_str:000000000002971c .LASF1501
C:\Users\CYMR90~1\AppData\Local\Temp\ccbtsgth.s:27922  .debug_str:00000000000208b6 .LASF1502
C:\Users\CYMR90~1\AppData\Local\Temp\ccbtsgth.s:21409  .debug_str:0000000000006510 .LASF1503
C:\Users\CYMR90~1\AppData\Local\Temp\ccbtsgth.s:22951  .debug_str:000000000000cb50 .LASF1504
C:\Users\CYMR90~1\AppData\Local\Temp\ccbtsgth.s:27300  .debug_str:000000000001e2c7 .LASF1505
C:\Users\CYMR90~1\AppData\Local\Temp\ccbtsgth.s:26620  .debug_str:000000000001b717 .LASF1506
C:\Users\CYMR90~1\AppData\Local\Temp\ccbtsgth.s:23525  .debug_str:000000000000eec7 .LASF1507
C:\Users\CYMR90~1\AppData\Local\Temp\ccbtsgth.s:28124  .debug_str:0000000000021541 .LASF1508
C:\Users\CYMR90~1\AppData\Local\Temp\ccbtsgth.s:24291  .debug_str:0000000000011f4f .LASF1509
C:\Users\CYMR90~1\AppData\Local\Temp\ccbtsgth.s:29908  .debug_str:0000000000028678 .LASF1510
C:\Users\CYMR90~1\AppData\Local\Temp\ccbtsgth.s:28700  .debug_str:0000000000023786 .LASF1511
C:\Users\CYMR90~1\AppData\Local\Temp\ccbtsgth.s:20665  .debug_str:0000000000003603 .LASF1512
C:\Users\CYMR90~1\AppData\Local\Temp\ccbtsgth.s:25251  .debug_str:0000000000015c30 .LASF1513
C:\Users\CYMR90~1\AppData\Local\Temp\ccbtsgth.s:29114  .debug_str:0000000000025297 .LASF1514
C:\Users\CYMR90~1\AppData\Local\Temp\ccbtsgth.s:27520  .debug_str:000000000001f060 .LASF1515
C:\Users\CYMR90~1\AppData\Local\Temp\ccbtsgth.s:30686  .debug_str:000000000002b6ab .LASF1516
C:\Users\CYMR90~1\AppData\Local\Temp\ccbtsgth.s:27350  .debug_str:000000000001e5e3 .LASF1517
C:\Users\CYMR90~1\AppData\Local\Temp\ccbtsgth.s:29342  .debug_str:00000000000261a6 .LASF1518
C:\Users\CYMR90~1\AppData\Local\Temp\ccbtsgth.s:24281  .debug_str:0000000000011ede .LASF1519
C:\Users\CYMR90~1\AppData\Local\Temp\ccbtsgth.s:27748  .debug_str:000000000001fdcd .LASF1520
C:\Users\CYMR90~1\AppData\Local\Temp\ccbtsgth.s:29198  .debug_str:00000000000258c0 .LASF1521
C:\Users\CYMR90~1\AppData\Local\Temp\ccbtsgth.s:28058  .debug_str:00000000000210b7 .LASF1522
C:\Users\CYMR90~1\AppData\Local\Temp\ccbtsgth.s:26076  .debug_str:0000000000019360 .LASF1523
C:\Users\CYMR90~1\AppData\Local\Temp\ccbtsgth.s:28702  .debug_str:000000000002379c .LASF1524
C:\Users\CYMR90~1\AppData\Local\Temp\ccbtsgth.s:21073  .debug_str:00000000000050c3 .LASF1525
C:\Users\CYMR90~1\AppData\Local\Temp\ccbtsgth.s:26734  .debug_str:000000000001be34 .LASF1526
C:\Users\CYMR90~1\AppData\Local\Temp\ccbtsgth.s:22867  .debug_str:000000000000c579 .LASF1527
C:\Users\CYMR90~1\AppData\Local\Temp\ccbtsgth.s:28458  .debug_str:00000000000228fa .LASF1528
C:\Users\CYMR90~1\AppData\Local\Temp\ccbtsgth.s:29700  .debug_str:00000000000277b0 .LASF1529
C:\Users\CYMR90~1\AppData\Local\Temp\ccbtsgth.s:28952  .debug_str:000000000002471c .LASF1530
C:\Users\CYMR90~1\AppData\Local\Temp\ccbtsgth.s:29014  .debug_str:0000000000024b7b .LASF1531
C:\Users\CYMR90~1\AppData\Local\Temp\ccbtsgth.s:20819  .debug_str:0000000000003fdb .LASF1532
C:\Users\CYMR90~1\AppData\Local\Temp\ccbtsgth.s:26026  .debug_str:0000000000018fb5 .LASF1533
C:\Users\CYMR90~1\AppData\Local\Temp\ccbtsgth.s:28832  .debug_str:0000000000023e97 .LASF1534
C:\Users\CYMR90~1\AppData\Local\Temp\ccbtsgth.s:22441  .debug_str:000000000000a806 .LASF1535
C:\Users\CYMR90~1\AppData\Local\Temp\ccbtsgth.s:29018  .debug_str:0000000000024bed .LASF1536
C:\Users\CYMR90~1\AppData\Local\Temp\ccbtsgth.s:28360  .debug_str:000000000002232d .LASF1537
C:\Users\CYMR90~1\AppData\Local\Temp\ccbtsgth.s:29576  .debug_str:0000000000026fd2 .LASF1538
C:\Users\CYMR90~1\AppData\Local\Temp\ccbtsgth.s:29468  .debug_str:000000000002691e .LASF1539
C:\Users\CYMR90~1\AppData\Local\Temp\ccbtsgth.s:24169  .debug_str:00000000000117af .LASF1540
C:\Users\CYMR90~1\AppData\Local\Temp\ccbtsgth.s:30198  .debug_str:00000000000298a4 .LASF1541
C:\Users\CYMR90~1\AppData\Local\Temp\ccbtsgth.s:23189  .debug_str:000000000000da60 .LASF1542
C:\Users\CYMR90~1\AppData\Local\Temp\ccbtsgth.s:20587  .debug_str:000000000000310c .LASF1543
C:\Users\CYMR90~1\AppData\Local\Temp\ccbtsgth.s:23743  .debug_str:000000000000fc9b .LASF1544
C:\Users\CYMR90~1\AppData\Local\Temp\ccbtsgth.s:21811  .debug_str:0000000000008020 .LASF1545
C:\Users\CYMR90~1\AppData\Local\Temp\ccbtsgth.s:22297  .debug_str:0000000000009e95 .LASF1546
C:\Users\CYMR90~1\AppData\Local\Temp\ccbtsgth.s:22921  .debug_str:000000000000c936 .LASF1547
C:\Users\CYMR90~1\AppData\Local\Temp\ccbtsgth.s:29776  .debug_str:0000000000027cdf .LASF1548
C:\Users\CYMR90~1\AppData\Local\Temp\ccbtsgth.s:29280  .debug_str:0000000000025da7 .LASF1549
C:\Users\CYMR90~1\AppData\Local\Temp\ccbtsgth.s:26686  .debug_str:000000000001babd .LASF1550
C:\Users\CYMR90~1\AppData\Local\Temp\ccbtsgth.s:24043  .debug_str:0000000000010ed2 .LASF1551
C:\Users\CYMR90~1\AppData\Local\Temp\ccbtsgth.s:26654  .debug_str:000000000001b8e4 .LASF1552
C:\Users\CYMR90~1\AppData\Local\Temp\ccbtsgth.s:20073  .debug_str:000000000000111a .LASF1553
C:\Users\CYMR90~1\AppData\Local\Temp\ccbtsgth.s:20377  .debug_str:00000000000023ad .LASF1554
C:\Users\CYMR90~1\AppData\Local\Temp\ccbtsgth.s:27386  .debug_str:000000000001e873 .LASF1555
C:\Users\CYMR90~1\AppData\Local\Temp\ccbtsgth.s:25976  .debug_str:0000000000018cb4 .LASF1556
C:\Users\CYMR90~1\AppData\Local\Temp\ccbtsgth.s:26002  .debug_str:0000000000018e45 .LASF1557
C:\Users\CYMR90~1\AppData\Local\Temp\ccbtsgth.s:30284  .debug_str:0000000000029d84 .LASF1558
C:\Users\CYMR90~1\AppData\Local\Temp\ccbtsgth.s:23887  .debug_str:0000000000010581 .LASF1559
C:\Users\CYMR90~1\AppData\Local\Temp\ccbtsgth.s:28712  .debug_str:0000000000023815 .LASF1560
C:\Users\CYMR90~1\AppData\Local\Temp\ccbtsgth.s:29144  .debug_str:00000000000254b3 .LASF1561
C:\Users\CYMR90~1\AppData\Local\Temp\ccbtsgth.s:23993  .debug_str:0000000000010c0b .LASF1562
C:\Users\CYMR90~1\AppData\Local\Temp\ccbtsgth.s:20667  .debug_str:0000000000003621 .LASF1563
C:\Users\CYMR90~1\AppData\Local\Temp\ccbtsgth.s:30786  .debug_str:000000000002bd51 .LASF1564
C:\Users\CYMR90~1\AppData\Local\Temp\ccbtsgth.s:21437  .debug_str:00000000000066aa .LASF1565
C:\Users\CYMR90~1\AppData\Local\Temp\ccbtsgth.s:27092  .debug_str:000000000001d56d .LASF1566
C:\Users\CYMR90~1\AppData\Local\Temp\ccbtsgth.s:26368  .debug_str:000000000001a6af .LASF1567
C:\Users\CYMR90~1\AppData\Local\Temp\ccbtsgth.s:27858  .debug_str:0000000000020448 .LASF1568
C:\Users\CYMR90~1\AppData\Local\Temp\ccbtsgth.s:24167  .debug_str:0000000000011708 .LASF1569
C:\Users\CYMR90~1\AppData\Local\Temp\ccbtsgth.s:29170  .debug_str:0000000000025689 .LASF1570
C:\Users\CYMR90~1\AppData\Local\Temp\ccbtsgth.s:19903  .debug_str:00000000000005e3 .LASF1571
C:\Users\CYMR90~1\AppData\Local\Temp\ccbtsgth.s:21123  .debug_str:00000000000053dd .LASF1572
C:\Users\CYMR90~1\AppData\Local\Temp\ccbtsgth.s:24985  .debug_str:0000000000014bbe .LASF1573
C:\Users\CYMR90~1\AppData\Local\Temp\ccbtsgth.s:29892  .debug_str:000000000002858c .LASF1574
C:\Users\CYMR90~1\AppData\Local\Temp\ccbtsgth.s:25468  .debug_str:0000000000016c15 .LASF1575
C:\Users\CYMR90~1\AppData\Local\Temp\ccbtsgth.s:23553  .debug_str:000000000000f07a .LASF1576
C:\Users\CYMR90~1\AppData\Local\Temp\ccbtsgth.s:23177  .debug_str:000000000000d97f .LASF1577
C:\Users\CYMR90~1\AppData\Local\Temp\ccbtsgth.s:30392  .debug_str:000000000002a41b .LASF1578
C:\Users\CYMR90~1\AppData\Local\Temp\ccbtsgth.s:20389  .debug_str:000000000000244a .LASF1579
C:\Users\CYMR90~1\AppData\Local\Temp\ccbtsgth.s:26936  .debug_str:000000000001cade .LASF1580
C:\Users\CYMR90~1\AppData\Local\Temp\ccbtsgth.s:22409  .debug_str:000000000000a5da .LASF1581
C:\Users\CYMR90~1\AppData\Local\Temp\ccbtsgth.s:23103  .debug_str:000000000000d561 .LASF1582
C:\Users\CYMR90~1\AppData\Local\Temp\ccbtsgth.s:21801  .debug_str:0000000000007ef4 .LASF1583
C:\Users\CYMR90~1\AppData\Local\Temp\ccbtsgth.s:29578  .debug_str:0000000000026ff0 .LASF1584
C:\Users\CYMR90~1\AppData\Local\Temp\ccbtsgth.s:27194  .debug_str:000000000001dbdc .LASF1585
C:\Users\CYMR90~1\AppData\Local\Temp\ccbtsgth.s:31008  .debug_str:000000000002cbb5 .LASF1586
C:\Users\CYMR90~1\AppData\Local\Temp\ccbtsgth.s:23075  .debug_str:000000000000d2f8 .LASF1587
C:\Users\CYMR90~1\AppData\Local\Temp\ccbtsgth.s:21761  .debug_str:0000000000007bdd .LASF1588
C:\Users\CYMR90~1\AppData\Local\Temp\ccbtsgth.s:25443  .debug_str:0000000000016866 .LASF1589
C:\Users\CYMR90~1\AppData\Local\Temp\ccbtsgth.s:22629  .debug_str:000000000000b528 .LASF1590
C:\Users\CYMR90~1\AppData\Local\Temp\ccbtsgth.s:25365  .debug_str:00000000000162ca .LASF1591
C:\Users\CYMR90~1\AppData\Local\Temp\ccbtsgth.s:22003  .debug_str:0000000000008be9 .LASF1592
C:\Users\CYMR90~1\AppData\Local\Temp\ccbtsgth.s:24545  .debug_str:0000000000012fc5 .LASF1593
C:\Users\CYMR90~1\AppData\Local\Temp\ccbtsgth.s:30076  .debug_str:00000000000290b2 .LASF1594
C:\Users\CYMR90~1\AppData\Local\Temp\ccbtsgth.s:29810  .debug_str:0000000000027f5f .LASF1595
C:\Users\CYMR90~1\AppData\Local\Temp\ccbtsgth.s:20039  .debug_str:0000000000000ebb .LASF1596
C:\Users\CYMR90~1\AppData\Local\Temp\ccbtsgth.s:26962  .debug_str:000000000001cca6 .LASF1597
C:\Users\CYMR90~1\AppData\Local\Temp\ccbtsgth.s:20925  .debug_str:000000000000476a .LASF1598
C:\Users\CYMR90~1\AppData\Local\Temp\ccbtsgth.s:29090  .debug_str:00000000000250a1 .LASF1599
C:\Users\CYMR90~1\AppData\Local\Temp\ccbtsgth.s:20179  .debug_str:0000000000001787 .LASF1600
C:\Users\CYMR90~1\AppData\Local\Temp\ccbtsgth.s:23635  .debug_str:000000000000f564 .LASF1601
C:\Users\CYMR90~1\AppData\Local\Temp\ccbtsgth.s:28082  .debug_str:0000000000021223 .LASF1602
C:\Users\CYMR90~1\AppData\Local\Temp\ccbtsgth.s:26984  .debug_str:000000000001ce8b .LASF1603
C:\Users\CYMR90~1\AppData\Local\Temp\ccbtsgth.s:26880  .debug_str:000000000001c6c3 .LASF1604
C:\Users\CYMR90~1\AppData\Local\Temp\ccbtsgth.s:29070  .debug_str:0000000000024ee0 .LASF1605
C:\Users\CYMR90~1\AppData\Local\Temp\ccbtsgth.s:28992  .debug_str:0000000000024a1f .LASF1606
C:\Users\CYMR90~1\AppData\Local\Temp\ccbtsgth.s:28946  .debug_str:00000000000246c8 .LASF1607
C:\Users\CYMR90~1\AppData\Local\Temp\ccbtsgth.s:25920  .debug_str:0000000000018886 .LASF1608
C:\Users\CYMR90~1\AppData\Local\Temp\ccbtsgth.s:20903  .debug_str:00000000000045e3 .LASF1609
C:\Users\CYMR90~1\AppData\Local\Temp\ccbtsgth.s:28292  .debug_str:0000000000021f5d .LASF1610
C:\Users\CYMR90~1\AppData\Local\Temp\ccbtsgth.s:30918  .debug_str:000000000002c624 .LASF1611
C:\Users\CYMR90~1\AppData\Local\Temp\ccbtsgth.s:26828  .debug_str:000000000001c3af .LASF1612
C:\Users\CYMR90~1\AppData\Local\Temp\ccbtsgth.s:24867  .debug_str:000000000001441f .LASF1613
C:\Users\CYMR90~1\AppData\Local\Temp\ccbtsgth.s:22283  .debug_str:0000000000009dd6 .LASF1614
C:\Users\CYMR90~1\AppData\Local\Temp\ccbtsgth.s:26514  .debug_str:000000000001b097 .LASF1615
C:\Users\CYMR90~1\AppData\Local\Temp\ccbtsgth.s:28182  .debug_str:000000000002189f .LASF1616
C:\Users\CYMR90~1\AppData\Local\Temp\ccbtsgth.s:24957  .debug_str:000000000001499f .LASF1617
C:\Users\CYMR90~1\AppData\Local\Temp\ccbtsgth.s:26892  .debug_str:000000000001c837 .LASF1618
C:\Users\CYMR90~1\AppData\Local\Temp\ccbtsgth.s:20951  .debug_str:0000000000004983 .LASF1619
C:\Users\CYMR90~1\AppData\Local\Temp\ccbtsgth.s:22661  .debug_str:000000000000b7bb .LASF1620
C:\Users\CYMR90~1\AppData\Local\Temp\ccbtsgth.s:23479  .debug_str:000000000000ec2a .LASF1621
C:\Users\CYMR90~1\AppData\Local\Temp\ccbtsgth.s:20529  .debug_str:0000000000002d7b .LASF1622
C:\Users\CYMR90~1\AppData\Local\Temp\ccbtsgth.s:27888  .debug_str:000000000002065e .LASF1623
C:\Users\CYMR90~1\AppData\Local\Temp\ccbtsgth.s:24547  .debug_str:0000000000013060 .LASF1624
C:\Users\CYMR90~1\AppData\Local\Temp\ccbtsgth.s:22757  .debug_str:000000000000beab .LASF1625
C:\Users\CYMR90~1\AppData\Local\Temp\ccbtsgth.s:28578  .debug_str:0000000000022feb .LASF1626
C:\Users\CYMR90~1\AppData\Local\Temp\ccbtsgth.s:21433  .debug_str:000000000000667c .LASF1627
C:\Users\CYMR90~1\AppData\Local\Temp\ccbtsgth.s:27642  .debug_str:000000000001f772 .LASF1628
C:\Users\CYMR90~1\AppData\Local\Temp\ccbtsgth.s:22523  .debug_str:000000000000ae09 .LASF1629
C:\Users\CYMR90~1\AppData\Local\Temp\ccbtsgth.s:28370  .debug_str:0000000000022399 .LASF1630
C:\Users\CYMR90~1\AppData\Local\Temp\ccbtsgth.s:21989  .debug_str:0000000000008b3a .LASF1631
C:\Users\CYMR90~1\AppData\Local\Temp\ccbtsgth.s:20139  .debug_str:0000000000001526 .LASF1632
C:\Users\CYMR90~1\AppData\Local\Temp\ccbtsgth.s:26632  .debug_str:000000000001b7e3 .LASF1633
C:\Users\CYMR90~1\AppData\Local\Temp\ccbtsgth.s:25608  .debug_str:00000000000174f0 .LASF1634
C:\Users\CYMR90~1\AppData\Local\Temp\ccbtsgth.s:22739  .debug_str:000000000000bd34 .LASF1635
C:\Users\CYMR90~1\AppData\Local\Temp\ccbtsgth.s:22839  .debug_str:000000000000c3d1 .LASF1636
C:\Users\CYMR90~1\AppData\Local\Temp\ccbtsgth.s:26486  .debug_str:000000000001aedb .LASF1637
C:\Users\CYMR90~1\AppData\Local\Temp\ccbtsgth.s:28794  .debug_str:0000000000023ca0 .LASF1638
C:\Users\CYMR90~1\AppData\Local\Temp\ccbtsgth.s:22639  .debug_str:000000000000b64d .LASF1639
C:\Users\CYMR90~1\AppData\Local\Temp\ccbtsgth.s:25818  .debug_str:0000000000018223 .LASF1640
C:\Users\CYMR90~1\AppData\Local\Temp\ccbtsgth.s:23833  .debug_str:000000000001020c .LASF1641
C:\Users\CYMR90~1\AppData\Local\Temp\ccbtsgth.s:23855  .debug_str:0000000000010373 .LASF1642
C:\Users\CYMR90~1\AppData\Local\Temp\ccbtsgth.s:24177  .debug_str:0000000000011850 .LASF1643
C:\Users\CYMR90~1\AppData\Local\Temp\ccbtsgth.s:27782  .debug_str:0000000000020014 .LASF1644
C:\Users\CYMR90~1\AppData\Local\Temp\ccbtsgth.s:30886  .debug_str:000000000002c472 .LASF1645
C:\Users\CYMR90~1\AppData\Local\Temp\ccbtsgth.s:20519  .debug_str:0000000000002cf3 .LASF1646
C:\Users\CYMR90~1\AppData\Local\Temp\ccbtsgth.s:25403  .debug_str:0000000000016583 .LASF1647
C:\Users\CYMR90~1\AppData\Local\Temp\ccbtsgth.s:25512  .debug_str:0000000000016ee1 .LASF1648
C:\Users\CYMR90~1\AppData\Local\Temp\ccbtsgth.s:20325  .debug_str:00000000000020d0 .LASF1649
C:\Users\CYMR90~1\AppData\Local\Temp\ccbtsgth.s:21829  .debug_str:000000000000816e .LASF1650
C:\Users\CYMR90~1\AppData\Local\Temp\ccbtsgth.s:28594  .debug_str:00000000000230eb .LASF1651
C:\Users\CYMR90~1\AppData\Local\Temp\ccbtsgth.s:23929  .debug_str:0000000000010783 .LASF1652
C:\Users\CYMR90~1\AppData\Local\Temp\ccbtsgth.s:21721  .debug_str:000000000000792d .LASF1653
C:\Users\CYMR90~1\AppData\Local\Temp\ccbtsgth.s:20079  .debug_str:000000000000118b .LASF1654
C:\Users\CYMR90~1\AppData\Local\Temp\ccbtsgth.s:25718  .debug_str:0000000000017bef .LASF1657
C:\Users\CYMR90~1\AppData\Local\Temp\ccbtsgth.s:30446  .debug_str:000000000002a757 .LASF1658
C:\Users\CYMR90~1\AppData\Local\Temp\ccbtsgth.s:23961  .debug_str:0000000000010a75 .LASF1659
C:\Users\CYMR90~1\AppData\Local\Temp\ccbtsgth.s:26050  .debug_str:00000000000191fc .LASF1660
C:\Users\CYMR90~1\AppData\Local\Temp\ccbtsgth.s:30682  .debug_str:000000000002b66c .LASF1661
C:\Users\CYMR90~1\AppData\Local\Temp\ccbtsgth.s:30716  .debug_str:000000000002b8e5 .LASF1662
C:\Users\CYMR90~1\AppData\Local\Temp\ccbtsgth.s:27972  .debug_str:0000000000020bde .LASF1663
C:\Users\CYMR90~1\AppData\Local\Temp\ccbtsgth.s:24917  .debug_str:000000000001471b .LASF1664
C:\Users\CYMR90~1\AppData\Local\Temp\ccbtsgth.s:27140  .debug_str:000000000001d8a8 .LASF1665
C:\Users\CYMR90~1\AppData\Local\Temp\ccbtsgth.s:28060  .debug_str:00000000000210d2 .LASF1666
C:\Users\CYMR90~1\AppData\Local\Temp\ccbtsgth.s:23671  .debug_str:000000000000f801 .LASF1667
C:\Users\CYMR90~1\AppData\Local\Temp\ccbtsgth.s:23391  .debug_str:000000000000e679 .LASF1668
C:\Users\CYMR90~1\AppData\Local\Temp\ccbtsgth.s:20747  .debug_str:0000000000003b3b .LASF1669
C:\Users\CYMR90~1\AppData\Local\Temp\ccbtsgth.s:22023  .debug_str:0000000000008dce .LASF1670
C:\Users\CYMR90~1\AppData\Local\Temp\ccbtsgth.s:20965  .debug_str:0000000000004a4c .LASF1671
C:\Users\CYMR90~1\AppData\Local\Temp\ccbtsgth.s:19883  .debug_str:00000000000004e7 .LASF1672
C:\Users\CYMR90~1\AppData\Local\Temp\ccbtsgth.s:24843  .debug_str:000000000001424c .LASF1673
C:\Users\CYMR90~1\AppData\Local\Temp\ccbtsgth.s:24243  .debug_str:0000000000011c12 .LASF1674
C:\Users\CYMR90~1\AppData\Local\Temp\ccbtsgth.s:23431  .debug_str:000000000000e8ee .LASF1675
C:\Users\CYMR90~1\AppData\Local\Temp\ccbtsgth.s:28958  .debug_str:0000000000024824 .LASF1676
C:\Users\CYMR90~1\AppData\Local\Temp\ccbtsgth.s:24373  .debug_str:0000000000012495 .LASF1677
C:\Users\CYMR90~1\AppData\Local\Temp\ccbtsgth.s:30888  .debug_str:000000000002c487 .LASF1678
C:\Users\CYMR90~1\AppData\Local\Temp\ccbtsgth.s:20435  .debug_str:0000000000002736 .LASF1679
C:\Users\CYMR90~1\AppData\Local\Temp\ccbtsgth.s:23913  .debug_str:00000000000106d0 .LASF1680
C:\Users\CYMR90~1\AppData\Local\Temp\ccbtsgth.s:25095  .debug_str:0000000000015246 .LASF1681
C:\Users\CYMR90~1\AppData\Local\Temp\ccbtsgth.s:23761  .debug_str:000000000000fddc .LASF1682
C:\Users\CYMR90~1\AppData\Local\Temp\ccbtsgth.s:26470  .debug_str:000000000001ad59 .LASF1683
C:\Users\CYMR90~1\AppData\Local\Temp\ccbtsgth.s:28542  .debug_str:0000000000022e25 .LASF1684
C:\Users\CYMR90~1\AppData\Local\Temp\ccbtsgth.s:29460  .debug_str:00000000000268c3 .LASF1685
C:\Users\CYMR90~1\AppData\Local\Temp\ccbtsgth.s:23911  .debug_str:00000000000106b8 .LASF1686
C:\Users\CYMR90~1\AppData\Local\Temp\ccbtsgth.s:25019  .debug_str:0000000000014ddd .LASF1687
C:\Users\CYMR90~1\AppData\Local\Temp\ccbtsgth.s:30188  .debug_str:00000000000297f9 .LASF1688
C:\Users\CYMR90~1\AppData\Local\Temp\ccbtsgth.s:28728  .debug_str:0000000000023921 .LASF1689
C:\Users\CYMR90~1\AppData\Local\Temp\ccbtsgth.s:26594  .debug_str:000000000001b570 .LASF1690
C:\Users\CYMR90~1\AppData\Local\Temp\ccbtsgth.s:24639  .debug_str:00000000000135d2 .LASF1691
C:\Users\CYMR90~1\AppData\Local\Temp\ccbtsgth.s:28274  .debug_str:0000000000021e59 .LASF1692
C:\Users\CYMR90~1\AppData\Local\Temp\ccbtsgth.s:25906  .debug_str:00000000000187ba .LASF1693
C:\Users\CYMR90~1\AppData\Local\Temp\ccbtsgth.s:21823  .debug_str:00000000000080fa .LASF1694
C:\Users\CYMR90~1\AppData\Local\Temp\ccbtsgth.s:23829  .debug_str:00000000000101c0 .LASF1695
C:\Users\CYMR90~1\AppData\Local\Temp\ccbtsgth.s:25688  .debug_str:0000000000017a2f .LASF1696
C:\Users\CYMR90~1\AppData\Local\Temp\ccbtsgth.s:24965  .debug_str:0000000000014a32 .LASF1697
C:\Users\CYMR90~1\AppData\Local\Temp\ccbtsgth.s:27536  .debug_str:000000000001f13c .LASF1698
C:\Users\CYMR90~1\AppData\Local\Temp\ccbtsgth.s:26086  .debug_str:0000000000019427 .LASF1699
C:\Users\CYMR90~1\AppData\Local\Temp\ccbtsgth.s:27984  .debug_str:0000000000020c92 .LASF1700
C:\Users\CYMR90~1\AppData\Local\Temp\ccbtsgth.s:27530  .debug_str:000000000001f0dc .LASF1701
C:\Users\CYMR90~1\AppData\Local\Temp\ccbtsgth.s:28774  .debug_str:0000000000023b76 .LASF1702
C:\Users\CYMR90~1\AppData\Local\Temp\ccbtsgth.s:28734  .debug_str:0000000000023970 .LASF1703
C:\Users\CYMR90~1\AppData\Local\Temp\ccbtsgth.s:28266  .debug_str:0000000000021dd9 .LASF1704
C:\Users\CYMR90~1\AppData\Local\Temp\ccbtsgth.s:26716  .debug_str:000000000001bce0 .LASF1705
C:\Users\CYMR90~1\AppData\Local\Temp\ccbtsgth.s:28126  .debug_str:0000000000021555 .LASF1706
C:\Users\CYMR90~1\AppData\Local\Temp\ccbtsgth.s:25590  .debug_str:00000000000173b5 .LASF1707
C:\Users\CYMR90~1\AppData\Local\Temp\ccbtsgth.s:24549  .debug_str:0000000000013073 .LASF1708
C:\Users\CYMR90~1\AppData\Local\Temp\ccbtsgth.s:27280  .debug_str:000000000001e1a2 .LASF1709
C:\Users\CYMR90~1\AppData\Local\Temp\ccbtsgth.s:25820  .debug_str:0000000000018238 .LASF1710
C:\Users\CYMR90~1\AppData\Local\Temp\ccbtsgth.s:22741  .debug_str:000000000000bd49 .LASF1711
C:\Users\CYMR90~1\AppData\Local\Temp\ccbtsgth.s:24195  .debug_str:000000000001193c .LASF1712
C:\Users\CYMR90~1\AppData\Local\Temp\ccbtsgth.s:21359  .debug_str:0000000000006209 .LASF1713
C:\Users\CYMR90~1\AppData\Local\Temp\ccbtsgth.s:23677  .debug_str:000000000000f85e .LASF1714
C:\Users\CYMR90~1\AppData\Local\Temp\ccbtsgth.s:20641  .debug_str:00000000000034a1 .LASF1715
C:\Users\CYMR90~1\AppData\Local\Temp\ccbtsgth.s:23909  .debug_str:000000000001068c .LASF1716
C:\Users\CYMR90~1\AppData\Local\Temp\ccbtsgth.s:27250  .debug_str:000000000001dfc9 .LASF1717
C:\Users\CYMR90~1\AppData\Local\Temp\ccbtsgth.s:25782  .debug_str:0000000000017fe5 .LASF1718
C:\Users\CYMR90~1\AppData\Local\Temp\ccbtsgth.s:24143  .debug_str:00000000000114f4 .LASF1719
C:\Users\CYMR90~1\AppData\Local\Temp\ccbtsgth.s:26148  .debug_str:0000000000019796 .LASF1720
C:\Users\CYMR90~1\AppData\Local\Temp\ccbtsgth.s:24631  .debug_str:000000000001354f .LASF1721
C:\Users\CYMR90~1\AppData\Local\Temp\ccbtsgth.s:20363  .debug_str:00000000000022f4 .LASF1722
C:\Users\CYMR90~1\AppData\Local\Temp\ccbtsgth.s:26478  .debug_str:000000000001adf8 .LASF1723
C:\Users\CYMR90~1\AppData\Local\Temp\ccbtsgth.s:20427  .debug_str:00000000000026c0 .LASF1724
C:\Users\CYMR90~1\AppData\Local\Temp\ccbtsgth.s:25163  .debug_str:000000000001560c .LASF1725
C:\Users\CYMR90~1\AppData\Local\Temp\ccbtsgth.s:29980  .debug_str:0000000000028ab1 .LASF1726
C:\Users\CYMR90~1\AppData\Local\Temp\ccbtsgth.s:21251  .debug_str:0000000000005b99 .LASF1727
C:\Users\CYMR90~1\AppData\Local\Temp\ccbtsgth.s:29618  .debug_str:00000000000272d3 .LASF1728
C:\Users\CYMR90~1\AppData\Local\Temp\ccbtsgth.s:26934  .debug_str:000000000001caa7 .LASF1729
C:\Users\CYMR90~1\AppData\Local\Temp\ccbtsgth.s:30790  .debug_str:000000000002be10 .LASF1730
C:\Users\CYMR90~1\AppData\Local\Temp\ccbtsgth.s:28914  .debug_str:00000000000244b4 .LASF1731
C:\Users\CYMR90~1\AppData\Local\Temp\ccbtsgth.s:24079  .debug_str:00000000000110f6 .LASF1732
C:\Users\CYMR90~1\AppData\Local\Temp\ccbtsgth.s:22139  .debug_str:000000000000945e .LASF1733
C:\Users\CYMR90~1\AppData\Local\Temp\ccbtsgth.s:20141  .debug_str:0000000000001539 .LASF1734
C:\Users\CYMR90~1\AppData\Local\Temp\ccbtsgth.s:25544  .debug_str:00000000000170c3 .LASF1735
C:\Users\CYMR90~1\AppData\Local\Temp\ccbtsgth.s:27710  .debug_str:000000000001fb7f .LASF1736
C:\Users\CYMR90~1\AppData\Local\Temp\ccbtsgth.s:22131  .debug_str:00000000000093e8 .LASF1737
C:\Users\CYMR90~1\AppData\Local\Temp\ccbtsgth.s:21847  .debug_str:000000000000827a .LASF1738
C:\Users\CYMR90~1\AppData\Local\Temp\ccbtsgth.s:29456  .debug_str:0000000000026894 .LASF1739
C:\Users\CYMR90~1\AppData\Local\Temp\ccbtsgth.s:23455  .debug_str:000000000000eaae .LASF1740
C:\Users\CYMR90~1\AppData\Local\Temp\ccbtsgth.s:22473  .debug_str:000000000000aac2 .LASF1741
C:\Users\CYMR90~1\AppData\Local\Temp\ccbtsgth.s:27560  .debug_str:000000000001f298 .LASF1742
C:\Users\CYMR90~1\AppData\Local\Temp\ccbtsgth.s:27204  .debug_str:000000000001dce1 .LASF1743
C:\Users\CYMR90~1\AppData\Local\Temp\ccbtsgth.s:29732  .debug_str:00000000000279ea .LASF1744
C:\Users\CYMR90~1\AppData\Local\Temp\ccbtsgth.s:21853  .debug_str:00000000000082ec .LASF1745
C:\Users\CYMR90~1\AppData\Local\Temp\ccbtsgth.s:23735  .debug_str:000000000000fc12 .LASF1746
C:\Users\CYMR90~1\AppData\Local\Temp\ccbtsgth.s:28778  .debug_str:0000000000023bb4 .LASF1747
C:\Users\CYMR90~1\AppData\Local\Temp\ccbtsgth.s:28378  .debug_str:000000000002241f .LASF1748
C:\Users\CYMR90~1\AppData\Local\Temp\ccbtsgth.s:23907  .debug_str:0000000000010669 .LASF1749
C:\Users\CYMR90~1\AppData\Local\Temp\ccbtsgth.s:22635  .debug_str:000000000000b604 .LASF1750
C:\Users\CYMR90~1\AppData\Local\Temp\ccbtsgth.s:25722  .debug_str:0000000000017c23 .LASF1751
C:\Users\CYMR90~1\AppData\Local\Temp\ccbtsgth.s:21001  .debug_str:0000000000004c72 .LASF1752
C:\Users\CYMR90~1\AppData\Local\Temp\ccbtsgth.s:26458  .debug_str:000000000001ac95 .LASF1753
C:\Users\CYMR90~1\AppData\Local\Temp\ccbtsgth.s:26348  .debug_str:000000000001a53c .LASF1754
C:\Users\CYMR90~1\AppData\Local\Temp\ccbtsgth.s:22897  .debug_str:000000000000c75f .LASF1755
C:\Users\CYMR90~1\AppData\Local\Temp\ccbtsgth.s:24439  .debug_str:00000000000128f0 .LASF1756
C:\Users\CYMR90~1\AppData\Local\Temp\ccbtsgth.s:26550  .debug_str:000000000001b2e3 .LASF1757
C:\Users\CYMR90~1\AppData\Local\Temp\ccbtsgth.s:23543  .debug_str:000000000000efba .LASF1758
C:\Users\CYMR90~1\AppData\Local\Temp\ccbtsgth.s:21661  .debug_str:0000000000007543 .LASF1759
C:\Users\CYMR90~1\AppData\Local\Temp\ccbtsgth.s:26290  .debug_str:000000000001a06a .LASF1760
C:\Users\CYMR90~1\AppData\Local\Temp\ccbtsgth.s:21955  .debug_str:0000000000008941 .LASF1761
C:\Users\CYMR90~1\AppData\Local\Temp\ccbtsgth.s:20199  .debug_str:0000000000001972 .LASF1762
C:\Users\CYMR90~1\AppData\Local\Temp\ccbtsgth.s:28972  .debug_str:00000000000248ca .LASF1763
C:\Users\CYMR90~1\AppData\Local\Temp\ccbtsgth.s:21693  .debug_str:000000000000774e .LASF1764
C:\Users\CYMR90~1\AppData\Local\Temp\ccbtsgth.s:21375  .debug_str:000000000000631f .LASF1765
C:\Users\CYMR90~1\AppData\Local\Temp\ccbtsgth.s:20181  .debug_str:000000000000183d .LASF1766
C:\Users\CYMR90~1\AppData\Local\Temp\ccbtsgth.s:26660  .debug_str:000000000001b93d .LASF1767
C:\Users\CYMR90~1\AppData\Local\Temp\ccbtsgth.s:20239  .debug_str:0000000000001bce .LASF1768
C:\Users\CYMR90~1\AppData\Local\Temp\ccbtsgth.s:29172  .debug_str:0000000000025717 .LASF1769
C:\Users\CYMR90~1\AppData\Local\Temp\ccbtsgth.s:30870  .debug_str:000000000002c367 .LASF1770
C:\Users\CYMR90~1\AppData\Local\Temp\ccbtsgth.s:22789  .debug_str:000000000000c0a5 .LASF1771
C:\Users\CYMR90~1\AppData\Local\Temp\ccbtsgth.s:21383  .debug_str:0000000000006394 .LASF1772
C:\Users\CYMR90~1\AppData\Local\Temp\ccbtsgth.s:19919  .debug_str:0000000000000703 .LASF1773
C:\Users\CYMR90~1\AppData\Local\Temp\ccbtsgth.s:19969  .debug_str:0000000000000a00 .LASF1774
C:\Users\CYMR90~1\AppData\Local\Temp\ccbtsgth.s:29882  .debug_str:00000000000284cd .LASF1775
C:\Users\CYMR90~1\AppData\Local\Temp\ccbtsgth.s:24859  .debug_str:0000000000014391 .LASF1776
C:\Users\CYMR90~1\AppData\Local\Temp\ccbtsgth.s:23619  .debug_str:000000000000f47d .LASF1777
C:\Users\CYMR90~1\AppData\Local\Temp\ccbtsgth.s:25714  .debug_str:0000000000017bbe .LASF1778
C:\Users\CYMR90~1\AppData\Local\Temp\ccbtsgth.s:21097  .debug_str:0000000000005245 .LASF1779
C:\Users\CYMR90~1\AppData\Local\Temp\ccbtsgth.s:29208  .debug_str:000000000002595a .LASF1780
C:\Users\CYMR90~1\AppData\Local\Temp\ccbtsgth.s:28414  .debug_str:000000000002267c .LASF1781
C:\Users\CYMR90~1\AppData\Local\Temp\ccbtsgth.s:26942  .debug_str:000000000001cb49 .LASF1784
C:\Users\CYMR90~1\AppData\Local\Temp\ccbtsgth.s:26098  .debug_str:00000000000194d3 .LASF1785
C:\Users\CYMR90~1\AppData\Local\Temp\ccbtsgth.s:25942  .debug_str:00000000000189f1 .LASF1786
C:\Users\CYMR90~1\AppData\Local\Temp\ccbtsgth.s:24905  .debug_str:0000000000014676 .LASF1787
C:\Users\CYMR90~1\AppData\Local\Temp\ccbtsgth.s:30320  .debug_str:0000000000029fa3 .LASF1788
C:\Users\CYMR90~1\AppData\Local\Temp\ccbtsgth.s:30632  .debug_str:000000000002b30a .LASF1789
C:\Users\CYMR90~1\AppData\Local\Temp\ccbtsgth.s:20685  .debug_str:000000000000377f .LASF1790
C:\Users\CYMR90~1\AppData\Local\Temp\ccbtsgth.s:19833  .debug_str:00000000000001fc .LASF1791
C:\Users\CYMR90~1\AppData\Local\Temp\ccbtsgth.s:29540  .debug_str:0000000000026d95 .LASF1792
C:\Users\CYMR90~1\AppData\Local\Temp\ccbtsgth.s:28626  .debug_str:00000000000232a4 .LASF1793
C:\Users\CYMR90~1\AppData\Local\Temp\ccbtsgth.s:30512  .debug_str:000000000002ab29 .LASF1794
C:\Users\CYMR90~1\AppData\Local\Temp\ccbtsgth.s:29814  .debug_str:0000000000028030 .LASF1795
C:\Users\CYMR90~1\AppData\Local\Temp\ccbtsgth.s:24561  .debug_str:0000000000013114 .LASF1796
C:\Users\CYMR90~1\AppData\Local\Temp\ccbtsgth.s:24847  .debug_str:000000000001428e .LASF1797
C:\Users\CYMR90~1\AppData\Local\Temp\ccbtsgth.s:23965  .debug_str:0000000000010a92 .LASF1798
C:\Users\CYMR90~1\AppData\Local\Temp\ccbtsgth.s:22815  .debug_str:000000000000c265 .LASF1799
C:\Users\CYMR90~1\AppData\Local\Temp\ccbtsgth.s:25624  .debug_str:0000000000017608 .LASF1800
C:\Users\CYMR90~1\AppData\Local\Temp\ccbtsgth.s:25934  .debug_str:0000000000018980 .LASF1801
C:\Users\CYMR90~1\AppData\Local\Temp\ccbtsgth.s:24989  .debug_str:0000000000014bf8 .LASF1802
C:\Users\CYMR90~1\AppData\Local\Temp\ccbtsgth.s:24025  .debug_str:0000000000010dc3 .LASF1803
C:\Users\CYMR90~1\AppData\Local\Temp\ccbtsgth.s:21679  .debug_str:0000000000007666 .LASF1804
C:\Users\CYMR90~1\AppData\Local\Temp\ccbtsgth.s:28212  .debug_str:0000000000021a9d .LASF1805
C:\Users\CYMR90~1\AppData\Local\Temp\ccbtsgth.s:24869  .debug_str:0000000000014443 .LASF1806
C:\Users\CYMR90~1\AppData\Local\Temp\ccbtsgth.s:27818  .debug_str:00000000000201d8 .LASF1807
C:\Users\CYMR90~1\AppData\Local\Temp\ccbtsgth.s:25013  .debug_str:0000000000014d7c .LASF1808
C:\Users\CYMR90~1\AppData\Local\Temp\ccbtsgth.s:29806  .debug_str:0000000000027f1e .LASF1809
C:\Users\CYMR90~1\AppData\Local\Temp\ccbtsgth.s:27034  .debug_str:000000000001d216 .LASF1810
C:\Users\CYMR90~1\AppData\Local\Temp\ccbtsgth.s:25728  .debug_str:0000000000017c98 .LASF1811
C:\Users\CYMR90~1\AppData\Local\Temp\ccbtsgth.s:20159  .debug_str:0000000000001634 .LASF1812
C:\Users\CYMR90~1\AppData\Local\Temp\ccbtsgth.s:23919  .debug_str:0000000000010716 .LASF1813
C:\Users\CYMR90~1\AppData\Local\Temp\ccbtsgth.s:24181  .debug_str:0000000000011882 .LASF1814
C:\Users\CYMR90~1\AppData\Local\Temp\ccbtsgth.s:27016  .debug_str:000000000001d11e .LASF1815
C:\Users\CYMR90~1\AppData\Local\Temp\ccbtsgth.s:25694  .debug_str:0000000000017aa1 .LASF1816
C:\Users\CYMR90~1\AppData\Local\Temp\ccbtsgth.s:27024  .debug_str:000000000001d19c .LASF1817
C:\Users\CYMR90~1\AppData\Local\Temp\ccbtsgth.s:27480  .debug_str:000000000001edb4 .LASF1818
C:\Users\CYMR90~1\AppData\Local\Temp\ccbtsgth.s:23731  .debug_str:000000000000fbda .LASF1819
C:\Users\CYMR90~1\AppData\Local\Temp\ccbtsgth.s:27954  .debug_str:0000000000020ab9 .LASF1820
C:\Users\CYMR90~1\AppData\Local\Temp\ccbtsgth.s:21401  .debug_str:00000000000064a0 .LASF1821
C:\Users\CYMR90~1\AppData\Local\Temp\ccbtsgth.s:21781  .debug_str:0000000000007dbe .LASF1822
C:\Users\CYMR90~1\AppData\Local\Temp\ccbtsgth.s:27410  .debug_str:000000000001e9cc .LASF1823
C:\Users\CYMR90~1\AppData\Local\Temp\ccbtsgth.s:30094  .debug_str:0000000000029241 .LASF1824
C:\Users\CYMR90~1\AppData\Local\Temp\ccbtsgth.s:22699  .debug_str:000000000000baae .LASF1825
C:\Users\CYMR90~1\AppData\Local\Temp\ccbtsgth.s:28048  .debug_str:0000000000021020 .LASF1826
C:\Users\CYMR90~1\AppData\Local\Temp\ccbtsgth.s:30452  .debug_str:000000000002a791 .LASF1827
C:\Users\CYMR90~1\AppData\Local\Temp\ccbtsgth.s:23497  .debug_str:000000000000ed40 .LASF1828
C:\Users\CYMR90~1\AppData\Local\Temp\ccbtsgth.s:23561  .debug_str:000000000000f109 .LASF1829
C:\Users\CYMR90~1\AppData\Local\Temp\ccbtsgth.s:24319  .debug_str:0000000000012125 .LASF1830
C:\Users\CYMR90~1\AppData\Local\Temp\ccbtsgth.s:22161  .debug_str:000000000000960f .LASF1831
C:\Users\CYMR90~1\AppData\Local\Temp\ccbtsgth.s:29486  .debug_str:0000000000026a1d .LASF1832
C:\Users\CYMR90~1\AppData\Local\Temp\ccbtsgth.s:22949  .debug_str:000000000000cb35 .LASF1833
C:\Users\CYMR90~1\AppData\Local\Temp\ccbtsgth.s:21605  .debug_str:00000000000071f5 .LASF1834
C:\Users\CYMR90~1\AppData\Local\Temp\ccbtsgth.s:25315  .debug_str:0000000000016038 .LASF1835
C:\Users\CYMR90~1\AppData\Local\Temp\ccbtsgth.s:29356  .debug_str:0000000000026275 .LASF1836
C:\Users\CYMR90~1\AppData\Local\Temp\ccbtsgth.s:25283  .debug_str:0000000000015e5d .LASF1837
C:\Users\CYMR90~1\AppData\Local\Temp\ccbtsgth.s:26024  .debug_str:0000000000018f9d .LASF1838
C:\Users\CYMR90~1\AppData\Local\Temp\ccbtsgth.s:23969  .debug_str:0000000000010aca .LASF1839
C:\Users\CYMR90~1\AppData\Local\Temp\ccbtsgth.s:26970  .debug_str:000000000001cda6 .LASF1840
C:\Users\CYMR90~1\AppData\Local\Temp\ccbtsgth.s:26254  .debug_str:0000000000019e73 .LASF1841
C:\Users\CYMR90~1\AppData\Local\Temp\ccbtsgth.s:29050  .debug_str:0000000000024dcc .LASF1842
C:\Users\CYMR90~1\AppData\Local\Temp\ccbtsgth.s:29440  .debug_str:0000000000026798 .LASF1843
C:\Users\CYMR90~1\AppData\Local\Temp\ccbtsgth.s:30650  .debug_str:000000000002b46d .LASF1844
C:\Users\CYMR90~1\AppData\Local\Temp\ccbtsgth.s:30506  .debug_str:000000000002aad6 .LASF1845
C:\Users\CYMR90~1\AppData\Local\Temp\ccbtsgth.s:21889  .debug_str:000000000000853c .LASF1846
C:\Users\CYMR90~1\AppData\Local\Temp\ccbtsgth.s:27176  .debug_str:000000000001dab2 .LASF1847
C:\Users\CYMR90~1\AppData\Local\Temp\ccbtsgth.s:28318  .debug_str:00000000000220ef .LASF1848
C:\Users\CYMR90~1\AppData\Local\Temp\ccbtsgth.s:28332  .debug_str:00000000000221ac .LASF1849
C:\Users\CYMR90~1\AppData\Local\Temp\ccbtsgth.s:27570  .debug_str:000000000001f339 .LASF1850
C:\Users\CYMR90~1\AppData\Local\Temp\ccbtsgth.s:21947  .debug_str:00000000000088be .LASF1851
C:\Users\CYMR90~1\AppData\Local\Temp\ccbtsgth.s:29396  .debug_str:00000000000264ea .LASF1852
C:\Users\CYMR90~1\AppData\Local\Temp\ccbtsgth.s:23191  .debug_str:000000000000da7d .LASF1853
C:\Users\CYMR90~1\AppData\Local\Temp\ccbtsgth.s:20593  .debug_str:0000000000003191 .LASF1854
C:\Users\CYMR90~1\AppData\Local\Temp\ccbtsgth.s:27054  .debug_str:000000000001d35b .LASF1855
C:\Users\CYMR90~1\AppData\Local\Temp\ccbtsgth.s:29658  .debug_str:000000000002750e .LASF1856
C:\Users\CYMR90~1\AppData\Local\Temp\ccbtsgth.s:22029  .debug_str:0000000000008e3d .LASF1857
C:\Users\CYMR90~1\AppData\Local\Temp\ccbtsgth.s:22879  .debug_str:000000000000c653 .LASF1858
C:\Users\CYMR90~1\AppData\Local\Temp\ccbtsgth.s:29752  .debug_str:0000000000027b4d .LASF1859
C:\Users\CYMR90~1\AppData\Local\Temp\ccbtsgth.s:25021  .debug_str:0000000000014e12 .LASF1860
C:\Users\CYMR90~1\AppData\Local\Temp\ccbtsgth.s:25964  .debug_str:0000000000018be5 .LASF1861
C:\Users\CYMR90~1\AppData\Local\Temp\ccbtsgth.s:23779  .debug_str:000000000000fed4 .LASF1862
C:\Users\CYMR90~1\AppData\Local\Temp\ccbtsgth.s:21557  .debug_str:0000000000006e7c .LASF1863
C:\Users\CYMR90~1\AppData\Local\Temp\ccbtsgth.s:25872  .debug_str:0000000000018593 .LASF1864
C:\Users\CYMR90~1\AppData\Local\Temp\ccbtsgth.s:21199  .debug_str:000000000000585d .LASF1865
C:\Users\CYMR90~1\AppData\Local\Temp\ccbtsgth.s:28516  .debug_str:0000000000022cbb .LASF1866
C:\Users\CYMR90~1\AppData\Local\Temp\ccbtsgth.s:27754  .debug_str:000000000001fe33 .LASF1867
C:\Users\CYMR90~1\AppData\Local\Temp\ccbtsgth.s:22813  .debug_str:000000000000c235 .LASF1868
C:\Users\CYMR90~1\AppData\Local\Temp\ccbtsgth.s:19947  .debug_str:00000000000008be .LASF1869
C:\Users\CYMR90~1\AppData\Local\Temp\ccbtsgth.s:20301  .debug_str:0000000000001f6b .LASF1870
C:\Users\CYMR90~1\AppData\Local\Temp\ccbtsgth.s:30040  .debug_str:0000000000028e77 .LASF1871
C:\Users\CYMR90~1\AppData\Local\Temp\ccbtsgth.s:29150  .debug_str:0000000000025535 .LASF1872
C:\Users\CYMR90~1\AppData\Local\Temp\ccbtsgth.s:25153  .debug_str:000000000001556d .LASF1873
C:\Users\CYMR90~1\AppData\Local\Temp\ccbtsgth.s:21729  .debug_str:00000000000079de .LASF1874
C:\Users\CYMR90~1\AppData\Local\Temp\ccbtsgth.s:22615  .debug_str:000000000000b436 .LASF1875
C:\Users\CYMR90~1\AppData\Local\Temp\ccbtsgth.s:30226  .debug_str:0000000000029a38 .LASF1876
C:\Users\CYMR90~1\AppData\Local\Temp\ccbtsgth.s:26488  .debug_str:000000000001aef0 .LASF1877
C:\Users\CYMR90~1\AppData\Local\Temp\ccbtsgth.s:27242  .debug_str:000000000001df55 .LASF1878
C:\Users\CYMR90~1\AppData\Local\Temp\ccbtsgth.s:23623  .debug_str:000000000000f4b6 .LASF1879
C:\Users\CYMR90~1\AppData\Local\Temp\ccbtsgth.s:21991  .debug_str:0000000000008b51 .LASF1880
C:\Users\CYMR90~1\AppData\Local\Temp\ccbtsgth.s:27550  .debug_str:000000000001f1f9 .LASF1881
C:\Users\CYMR90~1\AppData\Local\Temp\ccbtsgth.s:20061  .debug_str:000000000000107a .LASF1882
C:\Users\CYMR90~1\AppData\Local\Temp\ccbtsgth.s:27944  .debug_str:00000000000209f4 .LASF1883
C:\Users\CYMR90~1\AppData\Local\Temp\ccbtsgth.s:30646  .debug_str:000000000002b425 .LASF1884
C:\Users\CYMR90~1\AppData\Local\Temp\ccbtsgth.s:27660  .debug_str:000000000001f883 .LASF1885
C:\Users\CYMR90~1\AppData\Local\Temp\ccbtsgth.s:29768  .debug_str:0000000000027c4d .LASF1886
C:\Users\CYMR90~1\AppData\Local\Temp\ccbtsgth.s:22215  .debug_str:00000000000099ac .LASF1887
C:\Users\CYMR90~1\AppData\Local\Temp\ccbtsgth.s:22019  .debug_str:0000000000008d90 .LASF1888
C:\Users\CYMR90~1\AppData\Local\Temp\ccbtsgth.s:30678  .debug_str:000000000002b62a .LASF1889
C:\Users\CYMR90~1\AppData\Local\Temp\ccbtsgth.s:26114  .debug_str:0000000000019580 .LASF1890
C:\Users\CYMR90~1\AppData\Local\Temp\ccbtsgth.s:22207  .debug_str:0000000000009906 .LASF1891
C:\Users\CYMR90~1\AppData\Local\Temp\ccbtsgth.s:22303  .debug_str:0000000000009f19 .LASF1892
C:\Users\CYMR90~1\AppData\Local\Temp\ccbtsgth.s:26860  .debug_str:000000000001c577 .LASF1893
C:\Users\CYMR90~1\AppData\Local\Temp\ccbtsgth.s:22013  .debug_str:0000000000008d24 .LASF1894
C:\Users\CYMR90~1\AppData\Local\Temp\ccbtsgth.s:23253  .debug_str:000000000000de43 .LASF1895
C:\Users\CYMR90~1\AppData\Local\Temp\ccbtsgth.s:25554  .debug_str:0000000000017157 .LASF1896
C:\Users\CYMR90~1\AppData\Local\Temp\ccbtsgth.s:20257  .debug_str:0000000000001cdf .LASF1897
C:\Users\CYMR90~1\AppData\Local\Temp\ccbtsgth.s:29508  .debug_str:0000000000026ba9 .LASF1898
C:\Users\CYMR90~1\AppData\Local\Temp\ccbtsgth.s:26354  .debug_str:000000000001a5ae .LASF1899
C:\Users\CYMR90~1\AppData\Local\Temp\ccbtsgth.s:23077  .debug_str:000000000000d3b0 .LASF1900
C:\Users\CYMR90~1\AppData\Local\Temp\ccbtsgth.s:19867  .debug_str:0000000000000416 .LASF1901
C:\Users\CYMR90~1\AppData\Local\Temp\ccbtsgth.s:20671  .debug_str:000000000000366f .LASF1902
C:\Users\CYMR90~1\AppData\Local\Temp\ccbtsgth.s:22721  .debug_str:000000000000bbc2 .LASF1903
C:\Users\CYMR90~1\AppData\Local\Temp\ccbtsgth.s:30932  .debug_str:000000000002c710 .LASF1904
C:\Users\CYMR90~1\AppData\Local\Temp\ccbtsgth.s:25423  .debug_str:000000000001670b .LASF1905
C:\Users\CYMR90~1\AppData\Local\Temp\ccbtsgth.s:22177  .debug_str:00000000000096ca .LASF1906
C:\Users\CYMR90~1\AppData\Local\Temp\ccbtsgth.s:29850  .debug_str:000000000002825d .LASF1907
C:\Users\CYMR90~1\AppData\Local\Temp\ccbtsgth.s:26900  .debug_str:000000000001c8ae .LASF1908
C:\Users\CYMR90~1\AppData\Local\Temp\ccbtsgth.s:21189  .debug_str:00000000000057b4 .LASF1909
C:\Users\CYMR90~1\AppData\Local\Temp\ccbtsgth.s:30214  .debug_str:000000000002998c .LASF1910
C:\Users\CYMR90~1\AppData\Local\Temp\ccbtsgth.s:26534  .debug_str:000000000001b1f1 .LASF1911
C:\Users\CYMR90~1\AppData\Local\Temp\ccbtsgth.s:26208  .debug_str:0000000000019bf2 .LASF1912
C:\Users\CYMR90~1\AppData\Local\Temp\ccbtsgth.s:22633  .debug_str:000000000000b5e5 .LASF1913
C:\Users\CYMR90~1\AppData\Local\Temp\ccbtsgth.s:22469  .debug_str:000000000000aa6a .LASF1914
C:\Users\CYMR90~1\AppData\Local\Temp\ccbtsgth.s:27848  .debug_str:000000000002038f .LASF1915
C:\Users\CYMR90~1\AppData\Local\Temp\ccbtsgth.s:29122  .debug_str:0000000000025340 .LASF1916
C:\Users\CYMR90~1\AppData\Local\Temp\ccbtsgth.s:25726  .debug_str:0000000000017c6c .LASF1917
C:\Users\CYMR90~1\AppData\Local\Temp\ccbtsgth.s:22375  .debug_str:000000000000a3e4 .LASF1918
C:\Users\CYMR90~1\AppData\Local\Temp\ccbtsgth.s:30274  .debug_str:0000000000029ce9 .LASF1919
C:\Users\CYMR90~1\AppData\Local\Temp\ccbtsgth.s:26872  .debug_str:000000000001c639 .LASF1920
C:\Users\CYMR90~1\AppData\Local\Temp\ccbtsgth.s:22669  .debug_str:000000000000b847 .LASF1921
C:\Users\CYMR90~1\AppData\Local\Temp\ccbtsgth.s:21579  .debug_str:000000000000700c .LASF1922
C:\Users\CYMR90~1\AppData\Local\Temp\ccbtsgth.s:27916  .debug_str:000000000002083a .LASF1923
C:\Users\CYMR90~1\AppData\Local\Temp\ccbtsgth.s:29994  .debug_str:0000000000028b9d .LASF1924
C:\Users\CYMR90~1\AppData\Local\Temp\ccbtsgth.s:22493  .debug_str:000000000000ac16 .LASF1925
C:\Users\CYMR90~1\AppData\Local\Temp\ccbtsgth.s:27752  .debug_str:000000000001fe05 .LASF1926
C:\Users\CYMR90~1\AppData\Local\Temp\ccbtsgth.s:26766  .debug_str:000000000001bff3 .LASF1927
C:\Users\CYMR90~1\AppData\Local\Temp\ccbtsgth.s:20707  .debug_str:00000000000038c9 .LASF1928
C:\Users\CYMR90~1\AppData\Local\Temp\ccbtsgth.s:21629  .debug_str:0000000000007352 .LASF1929
C:\Users\CYMR90~1\AppData\Local\Temp\ccbtsgth.s:27678  .debug_str:000000000001f99f .LASF1930
C:\Users\CYMR90~1\AppData\Local\Temp\ccbtsgth.s:30964  .debug_str:000000000002c93f .LASF1931
C:\Users\CYMR90~1\AppData\Local\Temp\ccbtsgth.s:30638  .debug_str:000000000002b378 .LASF1932
C:\Users\CYMR90~1\AppData\Local\Temp\ccbtsgth.s:21741  .debug_str:0000000000007a9a .LASF1933
C:\Users\CYMR90~1\AppData\Local\Temp\ccbtsgth.s:22793  .debug_str:000000000000c100 .LASF1934
C:\Users\CYMR90~1\AppData\Local\Temp\ccbtsgth.s:26844  .debug_str:000000000001c47d .LASF1935
C:\Users\CYMR90~1\AppData\Local\Temp\ccbtsgth.s:21229  .debug_str:0000000000005a55 .LASF1936
C:\Users\CYMR90~1\AppData\Local\Temp\ccbtsgth.s:26702  .debug_str:000000000001bbe3 .LASF1937
C:\Users\CYMR90~1\AppData\Local\Temp\ccbtsgth.s:25676  .debug_str:0000000000017984 .LASF1938
C:\Users\CYMR90~1\AppData\Local\Temp\ccbtsgth.s:24967  .debug_str:0000000000014a5e .LASF1939
C:\Users\CYMR90~1\AppData\Local\Temp\ccbtsgth.s:21933  .debug_str:00000000000087af .LASF1940
C:\Users\CYMR90~1\AppData\Local\Temp\ccbtsgth.s:30058  .debug_str:0000000000028fab .LASF1941
C:\Users\CYMR90~1\AppData\Local\Temp\ccbtsgth.s:26954  .debug_str:000000000001cc0f .LASF1942
C:\Users\CYMR90~1\AppData\Local\Temp\ccbtsgth.s:22849  .debug_str:000000000000c45d .LASF1943
C:\Users\CYMR90~1\AppData\Local\Temp\ccbtsgth.s:23951  .debug_str:0000000000010944 .LASF1944
C:\Users\CYMR90~1\AppData\Local\Temp\ccbtsgth.s:27786  .debug_str:0000000000020050 .LASF1945
C:\Users\CYMR90~1\AppData\Local\Temp\ccbtsgth.s:24677  .debug_str:000000000001382b .LASF1946
C:\Users\CYMR90~1\AppData\Local\Temp\ccbtsgth.s:21525  .debug_str:0000000000006c93 .LASF1947
C:\Users\CYMR90~1\AppData\Local\Temp\ccbtsgth.s:20457  .debug_str:00000000000028df .LASF1948
C:\Users\CYMR90~1\AppData\Local\Temp\ccbtsgth.s:26592  .debug_str:000000000001b551 .LASF1949
C:\Users\CYMR90~1\AppData\Local\Temp\ccbtsgth.s:23515  .debug_str:000000000000ee23 .LASF1950
C:\Users\CYMR90~1\AppData\Local\Temp\ccbtsgth.s:20323  .debug_str:00000000000020b1 .LASF1951
C:\Users\CYMR90~1\AppData\Local\Temp\ccbtsgth.s:28530  .debug_str:0000000000022d58 .LASF1952
C:\Users\CYMR90~1\AppData\Local\Temp\ccbtsgth.s:29256  .debug_str:0000000000025c33 .LASF1953
C:\Users\CYMR90~1\AppData\Local\Temp\ccbtsgth.s:24805  .debug_str:000000000001402c .LASF1954
C:\Users\CYMR90~1\AppData\Local\Temp\ccbtsgth.s:28062  .debug_str:00000000000210f5 .LASF1955
C:\Users\CYMR90~1\AppData\Local\Temp\ccbtsgth.s:28730  .debug_str:0000000000023939 .LASF1956
C:\Users\CYMR90~1\AppData\Local\Temp\ccbtsgth.s:20379  .debug_str:00000000000023d7 .LASF1957
C:\Users\CYMR90~1\AppData\Local\Temp\ccbtsgth.s:30478  .debug_str:000000000002a917 .LASF1958
C:\Users\CYMR90~1\AppData\Local\Temp\ccbtsgth.s:21747  .debug_str:0000000000007b0b .LASF1959
C:\Users\CYMR90~1\AppData\Local\Temp\ccbtsgth.s:30042  .debug_str:0000000000028eb6 .LASF1960
C:\Users\CYMR90~1\AppData\Local\Temp\ccbtsgth.s:26910  .debug_str:000000000001c94b .LASF1961
C:\Users\CYMR90~1\AppData\Local\Temp\ccbtsgth.s:19909  .debug_str:000000000000065f .LASF1962
C:\Users\CYMR90~1\AppData\Local\Temp\ccbtsgth.s:25201  .debug_str:000000000001586a .LASF1963
C:\Users\CYMR90~1\AppData\Local\Temp\ccbtsgth.s:29104  .debug_str:000000000002521c .LASF1964
C:\Users\CYMR90~1\AppData\Local\Temp\ccbtsgth.s:21583  .debug_str:0000000000007077 .LASF1965
C:\Users\CYMR90~1\AppData\Local\Temp\ccbtsgth.s:27044  .debug_str:000000000001d29f .LASF1966
C:\Users\CYMR90~1\AppData\Local\Temp\ccbtsgth.s:30578  .debug_str:000000000002af27 .LASF1967
C:\Users\CYMR90~1\AppData\Local\Temp\ccbtsgth.s:26886  .debug_str:000000000001c7c8 .LASF1968
C:\Users\CYMR90~1\AppData\Local\Temp\ccbtsgth.s:28418  .debug_str:00000000000226bc .LASF1969
C:\Users\CYMR90~1\AppData\Local\Temp\ccbtsgth.s:21567  .debug_str:0000000000006f3a .LASF1970
C:\Users\CYMR90~1\AppData\Local\Temp\ccbtsgth.s:28422  .debug_str:00000000000226ed .LASF1971
C:\Users\CYMR90~1\AppData\Local\Temp\ccbtsgth.s:29142  .debug_str:000000000002548b .LASF1972
C:\Users\CYMR90~1\AppData\Local\Temp\ccbtsgth.s:26196  .debug_str:0000000000019b37 .LASF1973
C:\Users\CYMR90~1\AppData\Local\Temp\ccbtsgth.s:26008  .debug_str:0000000000018ea7 .LASF1974
C:\Users\CYMR90~1\AppData\Local\Temp\ccbtsgth.s:30526  .debug_str:000000000002ac21 .LASF1975
C:\Users\CYMR90~1\AppData\Local\Temp\ccbtsgth.s:21763  .debug_str:0000000000007c93 .LASF1976
C:\Users\CYMR90~1\AppData\Local\Temp\ccbtsgth.s:22125  .debug_str:000000000000939f .LASF1977
C:\Users\CYMR90~1\AppData\Local\Temp\ccbtsgth.s:30292  .debug_str:0000000000029df0 .LASF1978
C:\Users\CYMR90~1\AppData\Local\Temp\ccbtsgth.s:21055  .debug_str:0000000000004fb6 .LASF1979
C:\Users\CYMR90~1\AppData\Local\Temp\ccbtsgth.s:29040  .debug_str:0000000000024d25 .LASF1980
C:\Users\CYMR90~1\AppData\Local\Temp\ccbtsgth.s:28898  .debug_str:00000000000243cb .LASF1981
C:\Users\CYMR90~1\AppData\Local\Temp\ccbtsgth.s:28736  .debug_str:0000000000023994 .LASF1982
C:\Users\CYMR90~1\AppData\Local\Temp\ccbtsgth.s:30240  .debug_str:0000000000029b15 .LASF1983
C:\Users\CYMR90~1\AppData\Local\Temp\ccbtsgth.s:30482  .debug_str:000000000002a96d .LASF1984
C:\Users\CYMR90~1\AppData\Local\Temp\ccbtsgth.s:27438  .debug_str:000000000001eb1d .LASF1985
C:\Users\CYMR90~1\AppData\Local\Temp\ccbtsgth.s:26622  .debug_str:000000000001b730 .LASF1986
C:\Users\CYMR90~1\AppData\Local\Temp\ccbtsgth.s:24881  .debug_str:00000000000144e8 .LASF1987
C:\Users\CYMR90~1\AppData\Local\Temp\ccbtsgth.s:25902  .debug_str:0000000000018748 .LASF1988
C:\Users\CYMR90~1\AppData\Local\Temp\ccbtsgth.s:22943  .debug_str:000000000000cadb .LASF1989
C:\Users\CYMR90~1\AppData\Local\Temp\ccbtsgth.s:27532  .debug_str:000000000001f0fe .LASF1990
C:\Users\CYMR90~1\AppData\Local\Temp\ccbtsgth.s:23003  .debug_str:000000000000ce37 .LASF1991
C:\Users\CYMR90~1\AppData\Local\Temp\ccbtsgth.s:23879  .debug_str:00000000000104e4 .LASF1992
C:\Users\CYMR90~1\AppData\Local\Temp\ccbtsgth.s:26626  .debug_str:000000000001b777 .LASF1993
C:\Users\CYMR90~1\AppData\Local\Temp\ccbtsgth.s:20057  .debug_str:000000000000104a .LASF1994
C:\Users\CYMR90~1\AppData\Local\Temp\ccbtsgth.s:29158  .debug_str:00000000000255c9 .LASF1995
C:\Users\CYMR90~1\AppData\Local\Temp\ccbtsgth.s:20669  .debug_str:000000000000363b .LASF1996
C:\Users\CYMR90~1\AppData\Local\Temp\ccbtsgth.s:29606  .debug_str:000000000002723b .LASF1997
C:\Users\CYMR90~1\AppData\Local\Temp\ccbtsgth.s:21905  .debug_str:0000000000008603 .LASF1998
C:\Users\CYMR90~1\AppData\Local\Temp\ccbtsgth.s:25826  .debug_str:00000000000182a2 .LASF1999
C:\Users\CYMR90~1\AppData\Local\Temp\ccbtsgth.s:28222  .debug_str:0000000000021b2f .LASF2000
C:\Users\CYMR90~1\AppData\Local\Temp\ccbtsgth.s:24115  .debug_str:0000000000011330 .LASF2001
C:\Users\CYMR90~1\AppData\Local\Temp\ccbtsgth.s:28428  .debug_str:0000000000022752 .LASF2002
C:\Users\CYMR90~1\AppData\Local\Temp\ccbtsgth.s:29828  .debug_str:0000000000028110 .LASF2003
C:\Users\CYMR90~1\AppData\Local\Temp\ccbtsgth.s:24835  .debug_str:00000000000141ac .LASF2004
C:\Users\CYMR90~1\AppData\Local\Temp\ccbtsgth.s:28320  .debug_str:000000000002210a .LASF2005
C:\Users\CYMR90~1\AppData\Local\Temp\ccbtsgth.s:25514  .debug_str:0000000000016ef5 .LASF2006
C:\Users\CYMR90~1\AppData\Local\Temp\ccbtsgth.s:30730  .debug_str:000000000002b9db .LASF2007
C:\Users\CYMR90~1\AppData\Local\Temp\ccbtsgth.s:21099  .debug_str:000000000000526d .LASF2008
C:\Users\CYMR90~1\AppData\Local\Temp\ccbtsgth.s:24599  .debug_str:000000000001337a .LASF2009
C:\Users\CYMR90~1\AppData\Local\Temp\ccbtsgth.s:27332  .debug_str:000000000001e4f2 .LASF2010
C:\Users\CYMR90~1\AppData\Local\Temp\ccbtsgth.s:22971  .debug_str:000000000000cc83 .LASF2011
C:\Users\CYMR90~1\AppData\Local\Temp\ccbtsgth.s:20241  .debug_str:0000000000001bf9 .LASF2012
C:\Users\CYMR90~1\AppData\Local\Temp\ccbtsgth.s:28610  .debug_str:00000000000231d3 .LASF2013
C:\Users\CYMR90~1\AppData\Local\Temp\ccbtsgth.s:28368  .debug_str:0000000000022381 .LASF2014
C:\Users\CYMR90~1\AppData\Local\Temp\ccbtsgth.s:26332  .debug_str:000000000001a451 .LASF2015
C:\Users\CYMR90~1\AppData\Local\Temp\ccbtsgth.s:30202  .debug_str:00000000000298d8 .LASF2016
C:\Users\CYMR90~1\AppData\Local\Temp\ccbtsgth.s:28522  .debug_str:0000000000022d0d .LASF2017
C:\Users\CYMR90~1\AppData\Local\Temp\ccbtsgth.s:28154  .debug_str:0000000000021728 .LASF2018
C:\Users\CYMR90~1\AppData\Local\Temp\ccbtsgth.s:27088  .debug_str:000000000001d537 .LASF2019
C:\Users\CYMR90~1\AppData\Local\Temp\ccbtsgth.s:21463  .debug_str:0000000000006896 .LASF2020
C:\Users\CYMR90~1\AppData\Local\Temp\ccbtsgth.s:28564  .debug_str:0000000000022f47 .LASF2021
C:\Users\CYMR90~1\AppData\Local\Temp\ccbtsgth.s:29548  .debug_str:0000000000026e07 .LASF2022
C:\Users\CYMR90~1\AppData\Local\Temp\ccbtsgth.s:23995  .debug_str:0000000000010c22 .LASF2023
C:\Users\CYMR90~1\AppData\Local\Temp\ccbtsgth.s:29488  .debug_str:0000000000026a32 .LASF2024
C:\Users\CYMR90~1\AppData\Local\Temp\ccbtsgth.s:22697  .debug_str:000000000000ba93 .LASF2025
C:\Users\CYMR90~1\AppData\Local\Temp\ccbtsgth.s:30592  .debug_str:000000000002b005 .LASF2026
C:\Users\CYMR90~1\AppData\Local\Temp\ccbtsgth.s:20633  .debug_str:000000000000341f .LASF2027
C:\Users\CYMR90~1\AppData\Local\Temp\ccbtsgth.s:28624  .debug_str:0000000000023286 .LASF2028
C:\Users\CYMR90~1\AppData\Local\Temp\ccbtsgth.s:27648  .debug_str:000000000001f7ae .LASF2029
C:\Users\CYMR90~1\AppData\Local\Temp\ccbtsgth.s:30158  .debug_str:0000000000029657 .LASF2030
C:\Users\CYMR90~1\AppData\Local\Temp\ccbtsgth.s:25730  .debug_str:0000000000017cad .LASF2031
C:\Users\CYMR90~1\AppData\Local\Temp\ccbtsgth.s:22465  .debug_str:000000000000aa3c .LASF2032
C:\Users\CYMR90~1\AppData\Local\Temp\ccbtsgth.s:23639  .debug_str:000000000000f650 .LASF2033
C:\Users\CYMR90~1\AppData\Local\Temp\ccbtsgth.s:22673  .debug_str:000000000000b89f .LASF2034
C:\Users\CYMR90~1\AppData\Local\Temp\ccbtsgth.s:24179  .debug_str:0000000000011865 .LASF2035
C:\Users\CYMR90~1\AppData\Local\Temp\ccbtsgth.s:28098  .debug_str:00000000000213b5 .LASF2036
C:\Users\CYMR90~1\AppData\Local\Temp\ccbtsgth.s:28502  .debug_str:0000000000022bee .LASF2037
C:\Users\CYMR90~1\AppData\Local\Temp\ccbtsgth.s:29084  .debug_str:0000000000025037 .LASF2038
C:\Users\CYMR90~1\AppData\Local\Temp\ccbtsgth.s:24267  .debug_str:0000000000011de7 .LASF2039
C:\Users\CYMR90~1\AppData\Local\Temp\ccbtsgth.s:26274  .debug_str:0000000000019f9a .LASF2040
C:\Users\CYMR90~1\AppData\Local\Temp\ccbtsgth.s:22999  .debug_str:000000000000cde7 .LASF2041
C:\Users\CYMR90~1\AppData\Local\Temp\ccbtsgth.s:20463  .debug_str:0000000000002936 .LASF2042
C:\Users\CYMR90~1\AppData\Local\Temp\ccbtsgth.s:21191  .debug_str:00000000000057f2 .LASF2043
C:\Users\CYMR90~1\AppData\Local\Temp\ccbtsgth.s:31010  .debug_str:000000000002cc6b .LASF2044
C:\Users\CYMR90~1\AppData\Local\Temp\ccbtsgth.s:24567  .debug_str:000000000001316d .LASF2045
C:\Users\CYMR90~1\AppData\Local\Temp\ccbtsgth.s:28384  .debug_str:000000000002248d .LASF2046
C:\Users\CYMR90~1\AppData\Local\Temp\ccbtsgth.s:30006  .debug_str:0000000000028c6b .LASF2047
C:\Users\CYMR90~1\AppData\Local\Temp\ccbtsgth.s:26746  .debug_str:000000000001becc .LASF2048
C:\Users\CYMR90~1\AppData\Local\Temp\ccbtsgth.s:27290  .debug_str:000000000001e230 .LASF2049
C:\Users\CYMR90~1\AppData\Local\Temp\ccbtsgth.s:21253  .debug_str:0000000000005bdc .LASF2050
C:\Users\CYMR90~1\AppData\Local\Temp\ccbtsgth.s:20619  .debug_str:0000000000003325 .LASF2051
C:\Users\CYMR90~1\AppData\Local\Temp\ccbtsgth.s:22581  .debug_str:000000000000b26e .LASF2052
C:\Users\CYMR90~1\AppData\Local\Temp\ccbtsgth.s:29120  .debug_str:00000000000252f9 .LASF2053
C:\Users\CYMR90~1\AppData\Local\Temp\ccbtsgth.s:30432  .debug_str:000000000002a68a .LASF2054
C:\Users\CYMR90~1\AppData\Local\Temp\ccbtsgth.s:21067  .debug_str:0000000000005071 .LASF2055
C:\Users\CYMR90~1\AppData\Local\Temp\ccbtsgth.s:29444  .debug_str:00000000000267cf .LASF2056
C:\Users\CYMR90~1\AppData\Local\Temp\ccbtsgth.s:27456  .debug_str:000000000001ec36 .LASF2057
C:\Users\CYMR90~1\AppData\Local\Temp\ccbtsgth.s:25574  .debug_str:000000000001729f .LASF2058
C:\Users\CYMR90~1\AppData\Local\Temp\ccbtsgth.s:23547  .debug_str:000000000000effe .LASF2059
C:\Users\CYMR90~1\AppData\Local\Temp\ccbtsgth.s:23247  .debug_str:000000000000dde4 .LASF2060
C:\Users\CYMR90~1\AppData\Local\Temp\ccbtsgth.s:27902  .debug_str:0000000000020763 .LASF2061
C:\Users\CYMR90~1\AppData\Local\Temp\ccbtsgth.s:24707  .debug_str:00000000000139e3 .LASF2062
C:\Users\CYMR90~1\AppData\Local\Temp\ccbtsgth.s:20437  .debug_str:000000000000276f .LASF2063
C:\Users\CYMR90~1\AppData\Local\Temp\ccbtsgth.s:26476  .debug_str:000000000001adcc .LASF2064
C:\Users\CYMR90~1\AppData\Local\Temp\ccbtsgth.s:25335  .debug_str:0000000000016162 .LASF2065
C:\Users\CYMR90~1\AppData\Local\Temp\ccbtsgth.s:22141  .debug_str:000000000000947f .LASF2066
C:\Users\CYMR90~1\AppData\Local\Temp\ccbtsgth.s:22609  .debug_str:000000000000b3ee .LASF2067
C:\Users\CYMR90~1\AppData\Local\Temp\ccbtsgth.s:25682  .debug_str:00000000000179e5 .LASF2068
C:\Users\CYMR90~1\AppData\Local\Temp\ccbtsgth.s:25277  .debug_str:0000000000015de2 .LASF2069
C:\Users\CYMR90~1\AppData\Local\Temp\ccbtsgth.s:23135  .debug_str:000000000000d719 .LASF2070
C:\Users\CYMR90~1\AppData\Local\Temp\ccbtsgth.s:21223  .debug_str:0000000000005a0e .LASF2071
C:\Users\CYMR90~1\AppData\Local\Temp\ccbtsgth.s:24423  .debug_str:00000000000127ed .LASF2072
C:\Users\CYMR90~1\AppData\Local\Temp\ccbtsgth.s:23475  .debug_str:000000000000ebf7 .LASF2073
C:\Users\CYMR90~1\AppData\Local\Temp\ccbtsgth.s:22735  .debug_str:000000000000bcd4 .LASF2074
C:\Users\CYMR90~1\AppData\Local\Temp\ccbtsgth.s:30816  .debug_str:000000000002bfa9 .LASF2075
C:\Users\CYMR90~1\AppData\Local\Temp\ccbtsgth.s:22703  .debug_str:000000000000bae1 .LASF2076
C:\Users\CYMR90~1\AppData\Local\Temp\ccbtsgth.s:30086  .debug_str:00000000000291c6 .LASF2077
C:\Users\CYMR90~1\AppData\Local\Temp\ccbtsgth.s:21079  .debug_str:0000000000005131 .LASF2078
C:\Users\CYMR90~1\AppData\Local\Temp\ccbtsgth.s:20209  .debug_str:00000000000019f4 .LASF2079
C:\Users\CYMR90~1\AppData\Local\Temp\ccbtsgth.s:28654  .debug_str:00000000000234a0 .LASF2080
C:\Users\CYMR90~1\AppData\Local\Temp\ccbtsgth.s:29970  .debug_str:0000000000028a3a .LASF2081
C:\Users\CYMR90~1\AppData\Local\Temp\ccbtsgth.s:30060  .debug_str:0000000000028fd3 .LASF2082
C:\Users\CYMR90~1\AppData\Local\Temp\ccbtsgth.s:24293  .debug_str:0000000000011f63 .LASF2083
C:\Users\CYMR90~1\AppData\Local\Temp\ccbtsgth.s:21785  .debug_str:0000000000007dfe .LASF2084
C:\Users\CYMR90~1\AppData\Local\Temp\ccbtsgth.s:28534  .debug_str:0000000000022d9d .LASF2085
C:\Users\CYMR90~1\AppData\Local\Temp\ccbtsgth.s:20109  .debug_str:000000000000132d .LASF2086
C:\Users\CYMR90~1\AppData\Local\Temp\ccbtsgth.s:19961  .debug_str:000000000000099a .LASF2087
C:\Users\CYMR90~1\AppData\Local\Temp\ccbtsgth.s:26540  .debug_str:000000000001b25c .LASF2088
C:\Users\CYMR90~1\AppData\Local\Temp\ccbtsgth.s:27620  .debug_str:000000000001f621 .LASF2089
C:\Users\CYMR90~1\AppData\Local\Temp\ccbtsgth.s:25504  .debug_str:0000000000016e54 .LASF2090
C:\Users\CYMR90~1\AppData\Local\Temp\ccbtsgth.s:24231  .debug_str:0000000000011b59 .LASF2091
C:\Users\CYMR90~1\AppData\Local\Temp\ccbtsgth.s:25604  .debug_str:00000000000174b1 .LASF2092
C:\Users\CYMR90~1\AppData\Local\Temp\ccbtsgth.s:24737  .debug_str:0000000000013ba5 .LASF2093
C:\Users\CYMR90~1\AppData\Local\Temp\ccbtsgth.s:20613  .debug_str:00000000000032d5 .LASF2094
C:\Users\CYMR90~1\AppData\Local\Temp\ccbtsgth.s:20827  .debug_str:000000000000410b .LASF2095
C:\Users\CYMR90~1\AppData\Local\Temp\ccbtsgth.s:22255  .debug_str:0000000000009c25 .LASF2096
C:\Users\CYMR90~1\AppData\Local\Temp\ccbtsgth.s:24759  .debug_str:0000000000013d00 .LASF2097
C:\Users\CYMR90~1\AppData\Local\Temp\ccbtsgth.s:29266  .debug_str:0000000000025ccb .LASF2098
C:\Users\CYMR90~1\AppData\Local\Temp\ccbtsgth.s:23789  .debug_str:000000000000ff85 .LASF2099
C:\Users\CYMR90~1\AppData\Local\Temp\ccbtsgth.s:22617  .debug_str:000000000000b45f .LASF2100
C:\Users\CYMR90~1\AppData\Local\Temp\ccbtsgth.s:21399  .debug_str:000000000000647d .LASF2101
C:\Users\CYMR90~1\AppData\Local\Temp\ccbtsgth.s:20509  .debug_str:0000000000002c33 .LASF2102
C:\Users\CYMR90~1\AppData\Local\Temp\ccbtsgth.s:22295  .debug_str:0000000000009e72 .LASF2103
C:\Users\CYMR90~1\AppData\Local\Temp\ccbtsgth.s:30764  .debug_str:000000000002bbf8 .LASF2104
C:\Users\CYMR90~1\AppData\Local\Temp\ccbtsgth.s:25602  .debug_str:000000000001748d .LASF2105
C:\Users\CYMR90~1\AppData\Local\Temp\ccbtsgth.s:20607  .debug_str:0000000000003255 .LASF2106
C:\Users\CYMR90~1\AppData\Local\Temp\ccbtsgth.s:30030  .debug_str:0000000000028dfe .LASF2107
C:\Users\CYMR90~1\AppData\Local\Temp\ccbtsgth.s:24261  .debug_str:0000000000011d6d .LASF2108
C:\Users\CYMR90~1\AppData\Local\Temp\ccbtsgth.s:20623  .debug_str:0000000000003363 .LASF2109
C:\Users\CYMR90~1\AppData\Local\Temp\ccbtsgth.s:23041  .debug_str:000000000000d0c2 .LASF2110
C:\Users\CYMR90~1\AppData\Local\Temp\ccbtsgth.s:25548  .debug_str:00000000000170fb .LASF2111
C:\Users\CYMR90~1\AppData\Local\Temp\ccbtsgth.s:27638  .debug_str:000000000001f728 .LASF2112
C:\Users\CYMR90~1\AppData\Local\Temp\ccbtsgth.s:30196  .debug_str:000000000002987e .LASF2113
C:\Users\CYMR90~1\AppData\Local\Temp\ccbtsgth.s:29590  .debug_str:0000000000027154 .LASF2114
C:\Users\CYMR90~1\AppData\Local\Temp\ccbtsgth.s:24625  .debug_str:00000000000134df .LASF2115
C:\Users\CYMR90~1\AppData\Local\Temp\ccbtsgth.s:26466  .debug_str:000000000001ad07 .LASF2116
C:\Users\CYMR90~1\AppData\Local\Temp\ccbtsgth.s:24817  .debug_str:00000000000140c9 .LASF2117
C:\Users\CYMR90~1\AppData\Local\Temp\ccbtsgth.s:28890  .debug_str:000000000002435c .LASF2118
C:\Users\CYMR90~1\AppData\Local\Temp\ccbtsgth.s:27582  .debug_str:000000000001f3f0 .LASF2119
C:\Users\CYMR90~1\AppData\Local\Temp\ccbtsgth.s:20467  .debug_str:000000000000296d .LASF2120
C:\Users\CYMR90~1\AppData\Local\Temp\ccbtsgth.s:28004  .debug_str:0000000000020db2 .LASF2121
C:\Users\CYMR90~1\AppData\Local\Temp\ccbtsgth.s:21863  .debug_str:000000000000838a .LASF2122
C:\Users\CYMR90~1\AppData\Local\Temp\ccbtsgth.s:24675  .debug_str:0000000000013807 .LASF2123
C:\Users\CYMR90~1\AppData\Local\Temp\ccbtsgth.s:27316  .debug_str:000000000001e3c2 .LASF2124
C:\Users\CYMR90~1\AppData\Local\Temp\ccbtsgth.s:24521  .debug_str:0000000000012e5b .LASF2125
C:\Users\CYMR90~1\AppData\Local\Temp\ccbtsgth.s:25674  .debug_str:000000000001795d .LASF2126
C:\Users\CYMR90~1\AppData\Local\Temp\ccbtsgth.s:29572  .debug_str:0000000000026f88 .LASF2127
C:\Users\CYMR90~1\AppData\Local\Temp\ccbtsgth.s:28112  .debug_str:000000000002148b .LASF2128
C:\Users\CYMR90~1\AppData\Local\Temp\ccbtsgth.s:23991  .debug_str:0000000000010be7 .LASF2129
C:\Users\CYMR90~1\AppData\Local\Temp\ccbtsgth.s:28018  .debug_str:0000000000020e7d .LASF2130
C:\Users\CYMR90~1\AppData\Local\Temp\ccbtsgth.s:25890  .debug_str:0000000000018688 .LASF2131
C:\Users\CYMR90~1\AppData\Local\Temp\ccbtsgth.s:27844  .debug_str:000000000002034a .LASF2132
C:\Users\CYMR90~1\AppData\Local\Temp\ccbtsgth.s:24173  .debug_str:00000000000117ef .LASF2133
C:\Users\CYMR90~1\AppData\Local\Temp\ccbtsgth.s:26896  .debug_str:000000000001c87c .LASF2134
C:\Users\CYMR90~1\AppData\Local\Temp\ccbtsgth.s:20351  .debug_str:000000000000222e .LASF2135
C:\Users\CYMR90~1\AppData\Local\Temp\ccbtsgth.s:26056  .debug_str:0000000000019239 .LASF2136
C:\Users\CYMR90~1\AppData\Local\Temp\ccbtsgth.s:30300  .debug_str:0000000000029e80 .LASF2137
C:\Users\CYMR90~1\AppData\Local\Temp\ccbtsgth.s:21865  .debug_str:00000000000083af .LASF2138
C:\Users\CYMR90~1\AppData\Local\Temp\ccbtsgth.s:28208  .debug_str:0000000000021a60 .LASF2139
C:\Users\CYMR90~1\AppData\Local\Temp\ccbtsgth.s:24093  .debug_str:00000000000111d5 .LASF2140
C:\Users\CYMR90~1\AppData\Local\Temp\ccbtsgth.s:23585  .debug_str:000000000000f293 .LASF2141
C:\Users\CYMR90~1\AppData\Local\Temp\ccbtsgth.s:27598  .debug_str:000000000001f4e0 .LASF2142
C:\Users\CYMR90~1\AppData\Local\Temp\ccbtsgth.s:28136  .debug_str:00000000000215f2 .LASF2143
C:\Users\CYMR90~1\AppData\Local\Temp\ccbtsgth.s:24359  .debug_str:00000000000123c3 .LASF2144
C:\Users\CYMR90~1\AppData\Local\Temp\ccbtsgth.s:20625  .debug_str:000000000000338a .LASF2145
C:\Users\CYMR90~1\AppData\Local\Temp\ccbtsgth.s:19823  .debug_str:000000000000014f .LASF2146
C:\Users\CYMR90~1\AppData\Local\Temp\ccbtsgth.s:23451  .debug_str:000000000000ea35 .LASF2147
C:\Users\CYMR90~1\AppData\Local\Temp\ccbtsgth.s:25610  .debug_str:0000000000017507 .LASF2148
C:\Users\CYMR90~1\AppData\Local\Temp\ccbtsgth.s:29996  .debug_str:0000000000028bdd .LASF2149
C:\Users\CYMR90~1\AppData\Local\Temp\ccbtsgth.s:29592  .debug_str:000000000002717b .LASF2150
C:\Users\CYMR90~1\AppData\Local\Temp\ccbtsgth.s:24627  .debug_str:0000000000013506 .LASF2151
C:\Users\CYMR90~1\AppData\Local\Temp\ccbtsgth.s:23219  .debug_str:000000000000dbea .LASF2152
C:\Users\CYMR90~1\AppData\Local\Temp\ccbtsgth.s:21235  .debug_str:0000000000005ac0 .LASF2153
C:\Users\CYMR90~1\AppData\Local\Temp\ccbtsgth.s:25381  .debug_str:0000000000016455 .LASF2154
C:\Users\CYMR90~1\AppData\Local\Temp\ccbtsgth.s:20163  .debug_str:0000000000001684 .LASF2155
C:\Users\CYMR90~1\AppData\Local\Temp\ccbtsgth.s:20695  .debug_str:0000000000003823 .LASF2156
C:\Users\CYMR90~1\AppData\Local\Temp\ccbtsgth.s:29560  .debug_str:0000000000026ea0 .LASF2157
C:\Users\CYMR90~1\AppData\Local\Temp\ccbtsgth.s:24027  .debug_str:0000000000010de7 .LASF2158
C:\Users\CYMR90~1\AppData\Local\Temp\ccbtsgth.s:25956  .debug_str:0000000000018ae6 .LASF2159
C:\Users\CYMR90~1\AppData\Local\Temp\ccbtsgth.s:29366  .debug_str:0000000000026327 .LASF2160
C:\Users\CYMR90~1\AppData\Local\Temp\ccbtsgth.s:22033  .debug_str:0000000000008e7f .LASF2161
C:\Users\CYMR90~1\AppData\Local\Temp\ccbtsgth.s:30282  .debug_str:0000000000029d6d .LASF2162
C:\Users\CYMR90~1\AppData\Local\Temp\ccbtsgth.s:31000  .debug_str:000000000002cb66 .LASF2163
C:\Users\CYMR90~1\AppData\Local\Temp\ccbtsgth.s:20729  .debug_str:0000000000003a4a .LASF2164
C:\Users\CYMR90~1\AppData\Local\Temp\ccbtsgth.s:28634  .debug_str:0000000000023322 .LASF2165
C:\Users\CYMR90~1\AppData\Local\Temp\ccbtsgth.s:26040  .debug_str:0000000000019172 .LASF2166
C:\Users\CYMR90~1\AppData\Local\Temp\ccbtsgth.s:23579  .debug_str:000000000000f23c .LASF2167
C:\Users\CYMR90~1\AppData\Local\Temp\ccbtsgth.s:21897  .debug_str:0000000000008597 .LASF2168
C:\Users\CYMR90~1\AppData\Local\Temp\ccbtsgth.s:27142  .debug_str:000000000001d8cc .LASF2169
C:\Users\CYMR90~1\AppData\Local\Temp\ccbtsgth.s:25325  .debug_str:00000000000160da .LASF2170
C:\Users\CYMR90~1\AppData\Local\Temp\ccbtsgth.s:23365  .debug_str:000000000000e4ba .LASF2171
C:\Users\CYMR90~1\AppData\Local\Temp\ccbtsgth.s:23503  .debug_str:000000000000ed82 .LASF2172
C:\Users\CYMR90~1\AppData\Local\Temp\ccbtsgth.s:27602  .debug_str:000000000001f517 .LASF2173
C:\Users\CYMR90~1\AppData\Local\Temp\ccbtsgth.s:25265  .debug_str:0000000000015d05 .LASF2174
C:\Users\CYMR90~1\AppData\Local\Temp\ccbtsgth.s:24225  .debug_str:0000000000011b17 .LASF2175
C:\Users\CYMR90~1\AppData\Local\Temp\ccbtsgth.s:27384  .debug_str:000000000001e857 .LASF2176
C:\Users\CYMR90~1\AppData\Local\Temp\ccbtsgth.s:22619  .debug_str:000000000000b46e .LASF2177
C:\Users\CYMR90~1\AppData\Local\Temp\ccbtsgth.s:28280  .debug_str:0000000000021ea8 .LASF2178
C:\Users\CYMR90~1\AppData\Local\Temp\ccbtsgth.s:23233  .debug_str:000000000000dce3 .LASF2179
C:\Users\CYMR90~1\AppData\Local\Temp\ccbtsgth.s:21737  .debug_str:0000000000007a64 .LASF2180
C:\Users\CYMR90~1\AppData\Local\Temp\ccbtsgth.s:29286  .debug_str:0000000000025e47 .LASF2181
C:\Users\CYMR90~1\AppData\Local\Temp\ccbtsgth.s:23395  .debug_str:000000000000e6d5 .LASF2182
C:\Users\CYMR90~1\AppData\Local\Temp\ccbtsgth.s:25299  .debug_str:0000000000015f4f .LASF2183
C:\Users\CYMR90~1\AppData\Local\Temp\ccbtsgth.s:20847  .debug_str:0000000000004224 .LASF2184
C:\Users\CYMR90~1\AppData\Local\Temp\ccbtsgth.s:23661  .debug_str:000000000000f78d .LASF2185
C:\Users\CYMR90~1\AppData\Local\Temp\ccbtsgth.s:30548  .debug_str:000000000002ad6f .LASF2186
C:\Users\CYMR90~1\AppData\Local\Temp\ccbtsgth.s:27396  .debug_str:000000000001e910 .LASF2187
C:\Users\CYMR90~1\AppData\Local\Temp\ccbtsgth.s:22239  .debug_str:0000000000009b3d .LASF2188
C:\Users\CYMR90~1\AppData\Local\Temp\ccbtsgth.s:26372  .debug_str:000000000001a769 .LASF2189
C:\Users\CYMR90~1\AppData\Local\Temp\ccbtsgth.s:20785  .debug_str:0000000000003d87 .LASF2190
C:\Users\CYMR90~1\AppData\Local\Temp\ccbtsgth.s:22337  .debug_str:000000000000a14d .LASF2191
C:\Users\CYMR90~1\AppData\Local\Temp\ccbtsgth.s:27478  .debug_str:000000000001ed78 .LASF2192
C:\Users\CYMR90~1\AppData\Local\Temp\ccbtsgth.s:20711  .debug_str:0000000000003916 .LASF2193
C:\Users\CYMR90~1\AppData\Local\Temp\ccbtsgth.s:24119  .debug_str:0000000000011360 .LASF2194
C:\Users\CYMR90~1\AppData\Local\Temp\ccbtsgth.s:20487  .debug_str:0000000000002ad3 .LASF2195
C:\Users\CYMR90~1\AppData\Local\Temp\ccbtsgth.s:21685  .debug_str:00000000000076bc .LASF2196
C:\Users\CYMR90~1\AppData\Local\Temp\ccbtsgth.s:24983  .debug_str:0000000000014b7d .LASF2197
C:\Users\CYMR90~1\AppData\Local\Temp\ccbtsgth.s:21961  .debug_str:000000000000899b .LASF2198
C:\Users\CYMR90~1\AppData\Local\Temp\ccbtsgth.s:27838  .debug_str:0000000000020301 .LASF2199
C:\Users\CYMR90~1\AppData\Local\Temp\ccbtsgth.s:22477  .debug_str:000000000000ab04 .LASF2200
C:\Users\CYMR90~1\AppData\Local\Temp\ccbtsgth.s:28346  .debug_str:0000000000022273 .LASF2201
C:\Users\CYMR90~1\AppData\Local\Temp\ccbtsgth.s:27682  .debug_str:000000000001f9e0 .LASF2202
C:\Users\CYMR90~1\AppData\Local\Temp\ccbtsgth.s:28856  .debug_str:00000000000240f3 .LASF2203
C:\Users\CYMR90~1\AppData\Local\Temp\ccbtsgth.s:23471  .debug_str:000000000000ebbd .LASF2204
C:\Users\CYMR90~1\AppData\Local\Temp\ccbtsgth.s:29270  .debug_str:0000000000025cfe .LASF2205
C:\Users\CYMR90~1\AppData\Local\Temp\ccbtsgth.s:28906  .debug_str:0000000000024432 .LASF2206
C:\Users\CYMR90~1\AppData\Local\Temp\ccbtsgth.s:27968  .debug_str:0000000000020b9d .LASF2207
C:\Users\CYMR90~1\AppData\Local\Temp\ccbtsgth.s:23835  .debug_str:0000000000010221 .LASF2208
C:\Users\CYMR90~1\AppData\Local\Temp\ccbtsgth.s:26004  .debug_str:0000000000018e59 .LASF2209
C:\Users\CYMR90~1\AppData\Local\Temp\ccbtsgth.s:27820  .debug_str:00000000000201ec .LASF2210
C:\Users\CYMR90~1\AppData\Local\Temp\ccbtsgth.s:22745  .debug_str:000000000000bd9a .LASF2211
C:\Users\CYMR90~1\AppData\Local\Temp\ccbtsgth.s:21459  .debug_str:0000000000006855 .LASF2212
C:\Users\CYMR90~1\AppData\Local\Temp\ccbtsgth.s:30734  .debug_str:000000000002ba09 .LASF2213
C:\Users\CYMR90~1\AppData\Local\Temp\ccbtsgth.s:30818  .debug_str:000000000002bfba .LASF2214
C:\Users\CYMR90~1\AppData\Local\Temp\ccbtsgth.s:24723  .debug_str:0000000000013ac3 .LASF2215
C:\Users\CYMR90~1\AppData\Local\Temp\ccbtsgth.s:22437  .debug_str:000000000000a7b5 .LASF2216
C:\Users\CYMR90~1\AppData\Local\Temp\ccbtsgth.s:26618  .debug_str:000000000001b6f8 .LASF2217
C:\Users\CYMR90~1\AppData\Local\Temp\ccbtsgth.s:25928  .debug_str:0000000000018930 .LASF2218
C:\Users\CYMR90~1\AppData\Local\Temp\ccbtsgth.s:30582  .debug_str:000000000002af64 .LASF2219
C:\Users\CYMR90~1\AppData\Local\Temp\ccbtsgth.s:27166  .debug_str:000000000001da27 .LASF2220
C:\Users\CYMR90~1\AppData\Local\Temp\ccbtsgth.s:26018  .debug_str:0000000000018f1e .LASF2221
C:\Users\CYMR90~1\AppData\Local\Temp\ccbtsgth.s:24395  .debug_str:00000000000125fa .LASF2222
C:\Users\CYMR90~1\AppData\Local\Temp\ccbtsgth.s:26658  .debug_str:000000000001b916 .LASF2223
C:\Users\CYMR90~1\AppData\Local\Temp\ccbtsgth.s:21393  .debug_str:0000000000006425 .LASF2224
C:\Users\CYMR90~1\AppData\Local\Temp\ccbtsgth.s:19845  .debug_str:00000000000002b1 .LASF2225
C:\Users\CYMR90~1\AppData\Local\Temp\ccbtsgth.s:20919  .debug_str:0000000000004709 .LASF2226
C:\Users\CYMR90~1\AppData\Local\Temp\ccbtsgth.s:26198  .debug_str:0000000000019b48 .LASF2227
C:\Users\CYMR90~1\AppData\Local\Temp\ccbtsgth.s:25474  .debug_str:0000000000016c76 .LASF2228
C:\Users\CYMR90~1\AppData\Local\Temp\ccbtsgth.s:27224  .debug_str:000000000001de3e .LASF2229
C:\Users\CYMR90~1\AppData\Local\Temp\ccbtsgth.s:20889  .debug_str:00000000000044f1 .LASF2230
C:\Users\CYMR90~1\AppData\Local\Temp\ccbtsgth.s:27450  .debug_str:000000000001ebd9 .LASF2231
C:\Users\CYMR90~1\AppData\Local\Temp\ccbtsgth.s:20219  .debug_str:0000000000001a8f .LASF2232
C:\Users\CYMR90~1\AppData\Local\Temp\ccbtsgth.s:26186  .debug_str:0000000000019a84 .LASF2233
C:\Users\CYMR90~1\AppData\Local\Temp\ccbtsgth.s:22909  .debug_str:000000000000c867 .LASF2234
C:\Users\CYMR90~1\AppData\Local\Temp\ccbtsgth.s:23975  .debug_str:0000000000010b14 .LASF2235
C:\Users\CYMR90~1\AppData\Local\Temp\ccbtsgth.s:30770  .debug_str:000000000002bc55 .LASF2236
C:\Users\CYMR90~1\AppData\Local\Temp\ccbtsgth.s:23369  .debug_str:000000000000e4f5 .LASF2237
C:\Users\CYMR90~1\AppData\Local\Temp\ccbtsgth.s:28088  .debug_str:0000000000021319 .LASF2238
C:\Users\CYMR90~1\AppData\Local\Temp\ccbtsgth.s:27120  .debug_str:000000000001d76c .LASF2239
C:\Users\CYMR90~1\AppData\Local\Temp\ccbtsgth.s:27048  .debug_str:000000000001d2dc .LASF2240
C:\Users\CYMR90~1\AppData\Local\Temp\ccbtsgth.s:20275  .debug_str:0000000000001e0a .LASF2241
C:\Users\CYMR90~1\AppData\Local\Temp\ccbtsgth.s:28106  .debug_str:0000000000021437 .LASF2242
C:\Users\CYMR90~1\AppData\Local\Temp\ccbtsgth.s:29634  .debug_str:00000000000273a2 .LASF2243
C:\Users\CYMR90~1\AppData\Local\Temp\ccbtsgth.s:24245  .debug_str:0000000000011c2f .LASF2244
C:\Users\CYMR90~1\AppData\Local\Temp\ccbtsgth.s:25484  .debug_str:0000000000016d12 .LASF2245
C:\Users\CYMR90~1\AppData\Local\Temp\ccbtsgth.s:22427  .debug_str:000000000000a6da .LASF2246
C:\Users\CYMR90~1\AppData\Local\Temp\ccbtsgth.s:25049  .debug_str:0000000000014fbd .LASF2247
C:\Users\CYMR90~1\AppData\Local\Temp\ccbtsgth.s:20627  .debug_str:00000000000033b1 .LASF2248
C:\Users\CYMR90~1\AppData\Local\Temp\ccbtsgth.s:27470  .debug_str:000000000001ecf2 .LASF2249
C:\Users\CYMR90~1\AppData\Local\Temp\ccbtsgth.s:26596  .debug_str:000000000001b58f .LASF2250
C:\Users\CYMR90~1\AppData\Local\Temp\ccbtsgth.s:25646  .debug_str:0000000000017754 .LASF2251
C:\Users\CYMR90~1\AppData\Local\Temp\ccbtsgth.s:28862  .debug_str:000000000002415c .LASF2252
C:\Users\CYMR90~1\AppData\Local\Temp\ccbtsgth.s:24401  .debug_str:0000000000012658 .LASF2253
C:\Users\CYMR90~1\AppData\Local\Temp\ccbtsgth.s:23181  .debug_str:000000000000d9bf .LASF2254
C:\Users\CYMR90~1\AppData\Local\Temp\ccbtsgth.s:21949  .debug_str:00000000000088db .LASF2255
C:\Users\CYMR90~1\AppData\Local\Temp\ccbtsgth.s:23811  .debug_str:00000000000100c7 .LASF2256
C:\Users\CYMR90~1\AppData\Local\Temp\ccbtsgth.s:26864  .debug_str:000000000001c5c2 .LASF2257
C:\Users\CYMR90~1\AppData\Local\Temp\ccbtsgth.s:28338  .debug_str:00000000000221e8 .LASF2258
C:\Users\CYMR90~1\AppData\Local\Temp\ccbtsgth.s:24321  .debug_str:0000000000012139 .LASF2259
C:\Users\CYMR90~1\AppData\Local\Temp\ccbtsgth.s:24011  .debug_str:0000000000010cde .LASF2260
C:\Users\CYMR90~1\AppData\Local\Temp\ccbtsgth.s:25103  .debug_str:00000000000152af .LASF2261
C:\Users\CYMR90~1\AppData\Local\Temp\ccbtsgth.s:20331  .debug_str:0000000000002122 .LASF2262
C:\Users\CYMR90~1\AppData\Local\Temp\ccbtsgth.s:23417  .debug_str:000000000000e814 .LASF2263
C:\Users\CYMR90~1\AppData\Local\Temp\ccbtsgth.s:27244  .debug_str:000000000001df7f .LASF2264
C:\Users\CYMR90~1\AppData\Local\Temp\ccbtsgth.s:26286  .debug_str:000000000001a02e .LASF2265
C:\Users\CYMR90~1\AppData\Local\Temp\ccbtsgth.s:23261  .debug_str:000000000000deb2 .LASF2266
C:\Users\CYMR90~1\AppData\Local\Temp\ccbtsgth.s:22631  .debug_str:000000000000b5c5 .LASF2267
C:\Users\CYMR90~1\AppData\Local\Temp\ccbtsgth.s:25654  .debug_str:0000000000017810 .LASF2268
C:\Users\CYMR90~1\AppData\Local\Temp\ccbtsgth.s:30500  .debug_str:000000000002aa5a .LASF2269
C:\Users\CYMR90~1\AppData\Local\Temp\ccbtsgth.s:20943  .debug_str:00000000000048fd .LASF2270
C:\Users\CYMR90~1\AppData\Local\Temp\ccbtsgth.s:26742  .debug_str:000000000001be96 .LASF2271
C:\Users\CYMR90~1\AppData\Local\Temp\ccbtsgth.s:27144  .debug_str:000000000001d8e4 .LASF2272
C:\Users\CYMR90~1\AppData\Local\Temp\ccbtsgth.s:24935  .debug_str:0000000000014866 .LASF2273
C:\Users\CYMR90~1\AppData\Local\Temp\ccbtsgth.s:29844  .debug_str:000000000002820d .LASF2274
C:\Users\CYMR90~1\AppData\Local\Temp\ccbtsgth.s:26494  .debug_str:000000000001af53 .LASF2275
C:\Users\CYMR90~1\AppData\Local\Temp\ccbtsgth.s:23187  .debug_str:000000000000da42 .LASF2276
C:\Users\CYMR90~1\AppData\Local\Temp\ccbtsgth.s:21565  .debug_str:0000000000006f1c .LASF2277
C:\Users\CYMR90~1\AppData\Local\Temp\ccbtsgth.s:20017  .debug_str:0000000000000d3e .LASF2278
C:\Users\CYMR90~1\AppData\Local\Temp\ccbtsgth.s:29698  .debug_str:0000000000027792 .LASF2279
C:\Users\CYMR90~1\AppData\Local\Temp\ccbtsgth.s:28092  .debug_str:0000000000021357 .LASF2280
C:\Users\CYMR90~1\AppData\Local\Temp\ccbtsgth.s:21131  .debug_str:000000000000544f .LASF2281
C:\Users\CYMR90~1\AppData\Local\Temp\ccbtsgth.s:26220  .debug_str:0000000000019cbb .LASF2282
C:\Users\CYMR90~1\AppData\Local\Temp\ccbtsgth.s:25536  .debug_str:0000000000017044 .LASF2283
C:\Users\CYMR90~1\AppData\Local\Temp\ccbtsgth.s:26922  .debug_str:000000000001c9f3 .LASF2284
C:\Users\CYMR90~1\AppData\Local\Temp\ccbtsgth.s:26456  .debug_str:000000000001ac6f .LASF2285
C:\Users\CYMR90~1\AppData\Local\Temp\ccbtsgth.s:29652  .debug_str:000000000002749e .LASF2286
C:\Users\CYMR90~1\AppData\Local\Temp\ccbtsgth.s:24017  .debug_str:0000000000010d38 .LASF2287
C:\Users\CYMR90~1\AppData\Local\Temp\ccbtsgth.s:28246  .debug_str:0000000000021cbe .LASF2288
C:\Users\CYMR90~1\AppData\Local\Temp\ccbtsgth.s:30162  .debug_str:0000000000029683 .LASF2289
C:\Users\CYMR90~1\AppData\Local\Temp\ccbtsgth.s:24219  .debug_str:0000000000011a9b .LASF2290
C:\Users\CYMR90~1\AppData\Local\Temp\ccbtsgth.s:30634  .debug_str:000000000002b32e .LASF2291
C:\Users\CYMR90~1\AppData\Local\Temp\ccbtsgth.s:27336  .debug_str:000000000001e53f .LASF2292
C:\Users\CYMR90~1\AppData\Local\Temp\ccbtsgth.s:21027  .debug_str:0000000000004e12 .LASF2293
C:\Users\CYMR90~1\AppData\Local\Temp\ccbtsgth.s:30020  .debug_str:0000000000028d3c .LASF2294
C:\Users\CYMR90~1\AppData\Local\Temp\ccbtsgth.s:30598  .debug_str:000000000002b09c .LASF2295
C:\Users\CYMR90~1\AppData\Local\Temp\ccbtsgth.s:23245  .debug_str:000000000000ddb9 .LASF2296
C:\Users\CYMR90~1\AppData\Local\Temp\ccbtsgth.s:23223  .debug_str:000000000000dc20 .LASF2297
C:\Users\CYMR90~1\AppData\Local\Temp\ccbtsgth.s:26662  .debug_str:000000000001b967 .LASF2298
C:\Users\CYMR90~1\AppData\Local\Temp\ccbtsgth.s:24735  .debug_str:0000000000013b7a .LASF2299
C:\Users\CYMR90~1\AppData\Local\Temp\ccbtsgth.s:29858  .debug_str:0000000000028302 .LASF2300
C:\Users\CYMR90~1\AppData\Local\Temp\ccbtsgth.s:23557  .debug_str:000000000000f0b6 .LASF2301
C:\Users\CYMR90~1\AppData\Local\Temp\ccbtsgth.s:26692  .debug_str:000000000001bb5d .LASF2302
C:\Users\CYMR90~1\AppData\Local\Temp\ccbtsgth.s:28996  .debug_str:0000000000024a63 .LASF2303
C:\Users\CYMR90~1\AppData\Local\Temp\ccbtsgth.s:23179  .debug_str:000000000000d998 .LASF2304
C:\Users\CYMR90~1\AppData\Local\Temp\ccbtsgth.s:28140  .debug_str:000000000002162d .LASF2305
C:\Users\CYMR90~1\AppData\Local\Temp\ccbtsgth.s:20099  .debug_str:00000000000012ae .LASF2306
C:\Users\CYMR90~1\AppData\Local\Temp\ccbtsgth.s:26394  .debug_str:000000000001a8bb .LASF2307
C:\Users\CYMR90~1\AppData\Local\Temp\ccbtsgth.s:26884  .debug_str:000000000001c79f .LASF2308
C:\Users\CYMR90~1\AppData\Local\Temp\ccbtsgth.s:20577  .debug_str:0000000000003091 .LASF2309
C:\Users\CYMR90~1\AppData\Local\Temp\ccbtsgth.s:29284  .debug_str:0000000000025e1e .LASF2310
C:\Users\CYMR90~1\AppData\Local\Temp\ccbtsgth.s:30098  .debug_str:0000000000029279 .LASF2311
C:\Users\CYMR90~1\AppData\Local\Temp\ccbtsgth.s:24773  .debug_str:0000000000013e1b .LASF2312
C:\Users\CYMR90~1\AppData\Local\Temp\ccbtsgth.s:29808  .debug_str:0000000000027f33 .LASF2313
C:\Users\CYMR90~1\AppData\Local\Temp\ccbtsgth.s:21643  .debug_str:0000000000007426 .LASF2314
C:\Users\CYMR90~1\AppData\Local\Temp\ccbtsgth.s:27920  .debug_str:000000000002088a .LASF2315
C:\Users\CYMR90~1\AppData\Local\Temp\ccbtsgth.s:21705  .debug_str:000000000000780d .LASF2316
C:\Users\CYMR90~1\AppData\Local\Temp\ccbtsgth.s:26708  .debug_str:000000000001bc59 .LASF2317
C:\Users\CYMR90~1\AppData\Local\Temp\ccbtsgth.s:29854  .debug_str:00000000000282c1 .LASF2318
C:\Users\CYMR90~1\AppData\Local\Temp\ccbtsgth.s:24887  .debug_str:0000000000014530 .LASF2319
C:\Users\CYMR90~1\AppData\Local\Temp\ccbtsgth.s:20955  .debug_str:00000000000049b9 .LASF2320
C:\Users\CYMR90~1\AppData\Local\Temp\ccbtsgth.s:20501  .debug_str:0000000000002bdf .LASF2321
C:\Users\CYMR90~1\AppData\Local\Temp\ccbtsgth.s:31082  .debug_str:000000000002d0bc .LASF2322
C:\Users\CYMR90~1\AppData\Local\Temp\ccbtsgth.s:21317  .debug_str:0000000000005f8a .LASF2323
C:\Users\CYMR90~1\AppData\Local\Temp\ccbtsgth.s:24897  .debug_str:000000000001460a .LASF2324
C:\Users\CYMR90~1\AppData\Local\Temp\ccbtsgth.s:30660  .debug_str:000000000002b4db .LASF2325
C:\Users\CYMR90~1\AppData\Local\Temp\ccbtsgth.s:22405  .debug_str:000000000000a59c .LASF2326
C:\Users\CYMR90~1\AppData\Local\Temp\ccbtsgth.s:25884  .debug_str:000000000001862a .LASF2327
C:\Users\CYMR90~1\AppData\Local\Temp\ccbtsgth.s:20367  .debug_str:000000000000232c .LASF2328
C:\Users\CYMR90~1\AppData\Local\Temp\ccbtsgth.s:24809  .debug_str:0000000000014057 .LASF2329
C:\Users\CYMR90~1\AppData\Local\Temp\ccbtsgth.s:21699  .debug_str:00000000000077ac .LASF2330
C:\Users\CYMR90~1\AppData\Local\Temp\ccbtsgth.s:22843  .debug_str:000000000000c3fe .LASF2331
C:\Users\CYMR90~1\AppData\Local\Temp\ccbtsgth.s:23859  .debug_str:00000000000103a3 .LASF2332
C:\Users\CYMR90~1\AppData\Local\Temp\ccbtsgth.s:28046  .debug_str:0000000000021003 .LASF2333
C:\Users\CYMR90~1\AppData\Local\Temp\ccbtsgth.s:29454  .debug_str:000000000002687d .LASF2334
C:\Users\CYMR90~1\AppData\Local\Temp\ccbtsgth.s:23873  .debug_str:0000000000010472 .LASF2335
C:\Users\CYMR90~1\AppData\Local\Temp\ccbtsgth.s:24255  .debug_str:0000000000011d09 .LASF2336
C:\Users\CYMR90~1\AppData\Local\Temp\ccbtsgth.s:23347  .debug_str:000000000000e3a9 .LASF2337
C:\Users\CYMR90~1\AppData\Local\Temp\ccbtsgth.s:21331  .debug_str:0000000000006077 .LASF2338
C:\Users\CYMR90~1\AppData\Local\Temp\ccbtsgth.s:20415  .debug_str:00000000000025da .LASF2339
C:\Users\CYMR90~1\AppData\Local\Temp\ccbtsgth.s:27108  .debug_str:000000000001d6af .LASF2340
C:\Users\CYMR90~1\AppData\Local\Temp\ccbtsgth.s:29340  .debug_str:000000000002618e .LASF2341
C:\Users\CYMR90~1\AppData\Local\Temp\ccbtsgth.s:27712  .debug_str:000000000001fba1 .LASF2342
C:\Users\CYMR90~1\AppData\Local\Temp\ccbtsgth.s:27728  .debug_str:000000000001fc79 .LASF2343
C:\Users\CYMR90~1\AppData\Local\Temp\ccbtsgth.s:28756  .debug_str:0000000000023a9d .LASF2344
C:\Users\CYMR90~1\AppData\Local\Temp\ccbtsgth.s:29562  .debug_str:0000000000026eb6 .LASF2345
C:\Users\CYMR90~1\AppData\Local\Temp\ccbtsgth.s:26808  .debug_str:000000000001c2b3 .LASF2346
C:\Users\CYMR90~1\AppData\Local\Temp\ccbtsgth.s:26974  .debug_str:000000000001cde4 .LASF2347
C:\Users\CYMR90~1\AppData\Local\Temp\ccbtsgth.s:21919  .debug_str:00000000000086e4 .LASF2348
C:\Users\CYMR90~1\AppData\Local\Temp\ccbtsgth.s:24609  .debug_str:0000000000013424 .LASF2349
C:\Users\CYMR90~1\AppData\Local\Temp\ccbtsgth.s:28192  .debug_str:000000000002192e .LASF2350
C:\Users\CYMR90~1\AppData\Local\Temp\ccbtsgth.s:30464  .debug_str:000000000002a843 .LASF2351
C:\Users\CYMR90~1\AppData\Local\Temp\ccbtsgth.s:28982  .debug_str:0000000000024974 .LASF2352
C:\Users\CYMR90~1\AppData\Local\Temp\ccbtsgth.s:21487  .debug_str:00000000000069f8 .LASF2353
C:\Users\CYMR90~1\AppData\Local\Temp\ccbtsgth.s:23771  .debug_str:000000000000fe4e .LASF2354
C:\Users\CYMR90~1\AppData\Local\Temp\ccbtsgth.s:21431  .debug_str:0000000000006658 .LASF2355
C:\Users\CYMR90~1\AppData\Local\Temp\ccbtsgth.s:30878  .debug_str:000000000002c3e5 .LASF2356
C:\Users\CYMR90~1\AppData\Local\Temp\ccbtsgth.s:30286  .debug_str:0000000000029d92 .LASF2357
C:\Users\CYMR90~1\AppData\Local\Temp\ccbtsgth.s:23093  .debug_str:000000000000d4ae .LASF2358
C:\Users\CYMR90~1\AppData\Local\Temp\ccbtsgth.s:22153  .debug_str:0000000000009599 .LASF2359
C:\Users\CYMR90~1\AppData\Local\Temp\ccbtsgth.s:20717  .debug_str:000000000000399f .LASF2360
C:\Users\CYMR90~1\AppData\Local\Temp\ccbtsgth.s:23781  .debug_str:000000000000feee .LASF2361
C:\Users\CYMR90~1\AppData\Local\Temp\ccbtsgth.s:22591  .debug_str:000000000000b30a .LASF2362
C:\Users\CYMR90~1\AppData\Local\Temp\ccbtsgth.s:21363  .debug_str:000000000000624c .LASF2363
C:\Users\CYMR90~1\AppData\Local\Temp\ccbtsgth.s:28762  .debug_str:0000000000023aed .LASF2364
C:\Users\CYMR90~1\AppData\Local\Temp\ccbtsgth.s:27930  .debug_str:0000000000020935 .LASF2365
C:\Users\CYMR90~1\AppData\Local\Temp\ccbtsgth.s:24315  .debug_str:00000000000120d8 .LASF2366
C:\Users\CYMR90~1\AppData\Local\Temp\ccbtsgth.s:22687  .debug_str:000000000000b98e .LASF2367
C:\Users\CYMR90~1\AppData\Local\Temp\ccbtsgth.s:29630  .debug_str:0000000000027375 .LASF2368
C:\Users\CYMR90~1\AppData\Local\Temp\ccbtsgth.s:22137  .debug_str:000000000000944f .LASF2369
C:\Users\CYMR90~1\AppData\Local\Temp\ccbtsgth.s:23449  .debug_str:000000000000ea10 .LASF2370
C:\Users\CYMR90~1\AppData\Local\Temp\ccbtsgth.s:21497  .debug_str:0000000000006ab5 .LASF2371
C:\Users\CYMR90~1\AppData\Local\Temp\ccbtsgth.s:23831  .debug_str:00000000000101e8 .LASF2372
C:\Users\CYMR90~1\AppData\Local\Temp\ccbtsgth.s:30748  .debug_str:000000000002bae5 .LASF2373
C:\Users\CYMR90~1\AppData\Local\Temp\ccbtsgth.s:29408  .debug_str:00000000000265ba .LASF2374
C:\Users\CYMR90~1\AppData\Local\Temp\ccbtsgth.s:19955  .debug_str:0000000000000946 .LASF2375
C:\Users\CYMR90~1\AppData\Local\Temp\ccbtsgth.s:24221  .debug_str:0000000000011ac1 .LASF2376
C:\Users\CYMR90~1\AppData\Local\Temp\ccbtsgth.s:27416  .debug_str:000000000001ea0b .LASF2377
C:\Users\CYMR90~1\AppData\Local\Temp\ccbtsgth.s:30694  .debug_str:000000000002b77c .LASF2378
C:\Users\CYMR90~1\AppData\Local\Temp\ccbtsgth.s:22593  .debug_str:000000000000b32f .LASF2379
C:\Users\CYMR90~1\AppData\Local\Temp\ccbtsgth.s:25750  .debug_str:0000000000017e2a .LASF2380
C:\Users\CYMR90~1\AppData\Local\Temp\ccbtsgth.s:28974  .debug_str:00000000000248f1 .LASF2381
C:\Users\CYMR90~1\AppData\Local\Temp\ccbtsgth.s:28720  .debug_str:00000000000238b1 .LASF2382
C:\Users\CYMR90~1\AppData\Local\Temp\ccbtsgth.s:24001  .debug_str:0000000000010c76 .LASF2383
C:\Users\CYMR90~1\AppData\Local\Temp\ccbtsgth.s:27186  .debug_str:000000000001db73 .LASF2384
C:\Users\CYMR90~1\AppData\Local\Temp\ccbtsgth.s:30430  .debug_str:000000000002a671 .LASF2385
C:\Users\CYMR90~1\AppData\Local\Temp\ccbtsgth.s:20253  .debug_str:0000000000001cb1 .LASF2386
C:\Users\CYMR90~1\AppData\Local\Temp\ccbtsgth.s:24907  .debug_str:0000000000014698 .LASF2387
C:\Users\CYMR90~1\AppData\Local\Temp\ccbtsgth.s:29632  .debug_str:0000000000027387 .LASF2388
C:\Users\CYMR90~1\AppData\Local\Temp\ccbtsgth.s:26554  .debug_str:000000000001b32e .LASF2389
C:\Users\CYMR90~1\AppData\Local\Temp\ccbtsgth.s:27720  .debug_str:000000000001fc19 .LASF2390
C:\Users\CYMR90~1\AppData\Local\Temp\ccbtsgth.s:21103  .debug_str:00000000000052a9 .LASF2391
C:\Users\CYMR90~1\AppData\Local\Temp\ccbtsgth.s:25806  .debug_str:0000000000018158 .LASF2392
C:\Users\CYMR90~1\AppData\Local\Temp\ccbtsgth.s:30534  .debug_str:000000000002ac95 .LASF2393
C:\Users\CYMR90~1\AppData\Local\Temp\ccbtsgth.s:26668  .debug_str:000000000001b9c9 .LASF2394
C:\Users\CYMR90~1\AppData\Local\Temp\ccbtsgth.s:29692  .debug_str:000000000002772d .LASF2395
C:\Users\CYMR90~1\AppData\Local\Temp\ccbtsgth.s:23105  .debug_str:000000000000d577 .LASF2396
C:\Users\CYMR90~1\AppData\Local\Temp\ccbtsgth.s:27774  .debug_str:000000000001ff85 .LASF2397
C:\Users\CYMR90~1\AppData\Local\Temp\ccbtsgth.s:21151  .debug_str:0000000000005549 .LASF2398
C:\Users\CYMR90~1\AppData\Local\Temp\ccbtsgth.s:25864  .debug_str:0000000000018528 .LASF2399
C:\Users\CYMR90~1\AppData\Local\Temp\ccbtsgth.s:30594  .debug_str:000000000002b06b .LASF2400
C:\Users\CYMR90~1\AppData\Local\Temp\ccbtsgth.s:30468  .debug_str:000000000002a87b .LASF2401
C:\Users\CYMR90~1\AppData\Local\Temp\ccbtsgth.s:22379  .debug_str:000000000000a436 .LASF2402
C:\Users\CYMR90~1\AppData\Local\Temp\ccbtsgth.s:25552  .debug_str:0000000000017140 .LASF2403
C:\Users\CYMR90~1\AppData\Local\Temp\ccbtsgth.s:28766  .debug_str:0000000000023b1e .LASF2404
C:\Users\CYMR90~1\AppData\Local\Temp\ccbtsgth.s:20745  .debug_str:0000000000003b24 .LASF2405
C:\Users\CYMR90~1\AppData\Local\Temp\ccbtsgth.s:23883  .debug_str:0000000000010540 .LASF2406
C:\Users\CYMR90~1\AppData\Local\Temp\ccbtsgth.s:27078  .debug_str:000000000001d4ba .LASF2407
C:\Users\CYMR90~1\AppData\Local\Temp\ccbtsgth.s:30312  .debug_str:0000000000029f49 .LASF2408
C:\Users\CYMR90~1\AppData\Local\Temp\ccbtsgth.s:24663  .debug_str:000000000001373e .LASF2409
C:\Users\CYMR90~1\AppData\Local\Temp\ccbtsgth.s:23081  .debug_str:000000000000d3e8 .LASF2410
C:\Users\CYMR90~1\AppData\Local\Temp\ccbtsgth.s:26444  .debug_str:000000000001abb2 .LASF2411
C:\Users\CYMR90~1\AppData\Local\Temp\ccbtsgth.s:19841  .debug_str:0000000000000270 .LASF2412
C:\Users\CYMR90~1\AppData\Local\Temp\ccbtsgth.s:24479  .debug_str:0000000000012b84 .LASF2413
C:\Users\CYMR90~1\AppData\Local\Temp\ccbtsgth.s:29188  .debug_str:0000000000025836 .LASF2414
C:\Users\CYMR90~1\AppData\Local\Temp\ccbtsgth.s:22627  .debug_str:000000000000b50f .LASF2415
C:\Users\CYMR90~1\AppData\Local\Temp\ccbtsgth.s:27260  .debug_str:000000000001e072 .LASF2416
C:\Users\CYMR90~1\AppData\Local\Temp\ccbtsgth.s:22937  .debug_str:000000000000ca75 .LASF2417
C:\Users\CYMR90~1\AppData\Local\Temp\ccbtsgth.s:25345  .debug_str:00000000000161d2 .LASF2418
C:\Users\CYMR90~1\AppData\Local\Temp\ccbtsgth.s:23477  .debug_str:000000000000ec11 .LASF2419
C:\Users\CYMR90~1\AppData\Local\Temp\ccbtsgth.s:24525  .debug_str:0000000000012e97 .LASF2420
C:\Users\CYMR90~1\AppData\Local\Temp\ccbtsgth.s:29240  .debug_str:0000000000025b4f .LASF2421
C:\Users\CYMR90~1\AppData\Local\Temp\ccbtsgth.s:22665  .debug_str:000000000000b818 .LASF2422
C:\Users\CYMR90~1\AppData\Local\Temp\ccbtsgth.s:27308  .debug_str:000000000001e359 .LASF2423
C:\Users\CYMR90~1\AppData\Local\Temp\ccbtsgth.s:20713  .debug_str:0000000000003954 .LASF2424
C:\Users\CYMR90~1\AppData\Local\Temp\ccbtsgth.s:25405  .debug_str:0000000000016598 .LASF2425
C:\Users\CYMR90~1\AppData\Local\Temp\ccbtsgth.s:22507  .debug_str:000000000000ad0e .LASF2426
C:\Users\CYMR90~1\AppData\Local\Temp\ccbtsgth.s:25580  .debug_str:00000000000172e6 .LASF2427
C:\Users\CYMR90~1\AppData\Local\Temp\ccbtsgth.s:28804  .debug_str:0000000000023d38 .LASF2428
C:\Users\CYMR90~1\AppData\Local\Temp\ccbtsgth.s:20697  .debug_str:0000000000003839 .LASF2429
C:\Users\CYMR90~1\AppData\Local\Temp\ccbtsgth.s:23915  .debug_str:00000000000106e5 .LASF2430
C:\Users\CYMR90~1\AppData\Local\Temp\ccbtsgth.s:24155  .debug_str:000000000001165e .LASF2431
C:\Users\CYMR90~1\AppData\Local\Temp\ccbtsgth.s:30352  .debug_str:000000000002a169 .LASF2432
C:\Users\CYMR90~1\AppData\Local\Temp\ccbtsgth.s:20895  .debug_str:0000000000004562 .LASF2433
C:\Users\CYMR90~1\AppData\Local\Temp\ccbtsgth.s:29600  .debug_str:00000000000271ef .LASF2434
C:\Users\CYMR90~1\AppData\Local\Temp\ccbtsgth.s:28562  .debug_str:0000000000022f30 .LASF2435
C:\Users\CYMR90~1\AppData\Local\Temp\ccbtsgth.s:29914  .debug_str:00000000000286e9 .LASF2436
C:\Users\CYMR90~1\AppData\Local\Temp\ccbtsgth.s:23321  .debug_str:000000000000e231 .LASF2437
C:\Users\CYMR90~1\AppData\Local\Temp\ccbtsgth.s:27988  .debug_str:0000000000020cc1 .LASF2438
C:\Users\CYMR90~1\AppData\Local\Temp\ccbtsgth.s:23897  .debug_str:00000000000105f6 .LASF2439
C:\Users\CYMR90~1\AppData\Local\Temp\ccbtsgth.s:26108  .debug_str:0000000000019548 .LASF2440
C:\Users\CYMR90~1\AppData\Local\Temp\ccbtsgth.s:22155  .debug_str:00000000000095b9 .LASF2441
C:\Users\CYMR90~1\AppData\Local\Temp\ccbtsgth.s:24163  .debug_str:00000000000116cb .LASF2442
C:\Users\CYMR90~1\AppData\Local\Temp\ccbtsgth.s:28872  .debug_str:000000000002423c .LASF2443
C:\Users\CYMR90~1\AppData\Local\Temp\ccbtsgth.s:22795  .debug_str:000000000000c130 .LASF2444
C:\Users\CYMR90~1\AppData\Local\Temp\ccbtsgth.s:28040  .debug_str:0000000000020f98 .LASF2445
C:\Users\CYMR90~1\AppData\Local\Temp\ccbtsgth.s:21435  .debug_str:0000000000006691 .LASF2446
C:\Users\CYMR90~1\AppData\Local\Temp\ccbtsgth.s:26154  .debug_str:000000000001985f .LASF2447
C:\Users\CYMR90~1\AppData\Local\Temp\ccbtsgth.s:30874  .debug_str:000000000002c3a6 .LASF2448
C:\Users\CYMR90~1\AppData\Local\Temp\ccbtsgth.s:24215  .debug_str:0000000000011a4d .LASF2449
C:\Users\CYMR90~1\AppData\Local\Temp\ccbtsgth.s:28924  .debug_str:000000000002456e .LASF2450
C:\Users\CYMR90~1\AppData\Local\Temp\ccbtsgth.s:27742  .debug_str:000000000001fd60 .LASF2451
C:\Users\CYMR90~1\AppData\Local\Temp\ccbtsgth.s:29034  .debug_str:0000000000024cdb .LASF2452
C:\Users\CYMR90~1\AppData\Local\Temp\ccbtsgth.s:27382  .debug_str:000000000001e840 .LASF2453
C:\Users\CYMR90~1\AppData\Local\Temp\ccbtsgth.s:26000  .debug_str:0000000000018e2e .LASF2454
C:\Users\CYMR90~1\AppData\Local\Temp\ccbtsgth.s:29190  .debug_str:000000000002584f .LASF2455
C:\Users\CYMR90~1\AppData\Local\Temp\ccbtsgth.s:22571  .debug_str:000000000000b1f2 .LASF2456
C:\Users\CYMR90~1\AppData\Local\Temp\ccbtsgth.s:24287  .debug_str:0000000000011f20 .LASF2457
C:\Users\CYMR90~1\AppData\Local\Temp\ccbtsgth.s:27482  .debug_str:000000000001edc9 .LASF2458
C:\Users\CYMR90~1\AppData\Local\Temp\ccbtsgth.s:28966  .debug_str:0000000000024890 .LASF2459
C:\Users\CYMR90~1\AppData\Local\Temp\ccbtsgth.s:22575  .debug_str:000000000000b22f .LASF2460
C:\Users\CYMR90~1\AppData\Local\Temp\ccbtsgth.s:28598  .debug_str:000000000002310a .LASF2461
C:\Users\CYMR90~1\AppData\Local\Temp\ccbtsgth.s:30690  .debug_str:000000000002b6ec .LASF2462
C:\Users\CYMR90~1\AppData\Local\Temp\ccbtsgth.s:26964  .debug_str:000000000001cd60 .LASF2463
C:\Users\CYMR90~1\AppData\Local\Temp\ccbtsgth.s:20373  .debug_str:0000000000002378 .LASF2464
C:\Users\CYMR90~1\AppData\Local\Temp\ccbtsgth.s:25029  .debug_str:0000000000014e81 .LASF2465
C:\Users\CYMR90~1\AppData\Local\Temp\ccbtsgth.s:29756  .debug_str:0000000000027b93 .LASF2466
C:\Users\CYMR90~1\AppData\Local\Temp\ccbtsgth.s:23169  .debug_str:000000000000d8f2 .LASF2467
C:\Users\CYMR90~1\AppData\Local\Temp\ccbtsgth.s:22445  .debug_str:000000000000a926 .LASF2468
C:\Users\CYMR90~1\AppData\Local\Temp\ccbtsgth.s:25940  .debug_str:00000000000189d8 .LASF2469
C:\Users\CYMR90~1\AppData\Local\Temp\ccbtsgth.s:20773  .debug_str:0000000000003d0b .LASF2470
C:\Users\CYMR90~1\AppData\Local\Temp\ccbtsgth.s:20429  .debug_str:00000000000026e2 .LASF2471
C:\Users\CYMR90~1\AppData\Local\Temp\ccbtsgth.s:25079  .debug_str:000000000001514d .LASF2472
C:\Users\CYMR90~1\AppData\Local\Temp\ccbtsgth.s:29812  .debug_str:0000000000028017 .LASF2473
C:\Users\CYMR90~1\AppData\Local\Temp\ccbtsgth.s:23227  .debug_str:000000000000dc71 .LASF2474
C:\Users\CYMR90~1\AppData\Local\Temp\ccbtsgth.s:27890  .debug_str:0000000000020675 .LASF2475
C:\Users\CYMR90~1\AppData\Local\Temp\ccbtsgth.s:30038  .debug_str:0000000000028e5e .LASF2476
C:\Users\CYMR90~1\AppData\Local\Temp\ccbtsgth.s:21127  .debug_str:0000000000005421 .LASF2477
C:\Users\CYMR90~1\AppData\Local\Temp\ccbtsgth.s:25115  .debug_str:000000000001533a .LASF2478
C:\Users\CYMR90~1\AppData\Local\Temp\ccbtsgth.s:29796  .debug_str:0000000000027e91 .LASF2479
C:\Users\CYMR90~1\AppData\Local\Temp\ccbtsgth.s:28160  .debug_str:000000000002176c .LASF2480
C:\Users\CYMR90~1\AppData\Local\Temp\ccbtsgth.s:26560  .debug_str:000000000001b387 .LASF2481
C:\Users\CYMR90~1\AppData\Local\Temp\ccbtsgth.s:26674  .debug_str:000000000001ba14 .LASF2482
C:\Users\CYMR90~1\AppData\Local\Temp\ccbtsgth.s:29886  .debug_str:0000000000028536 .LASF2483
C:\Users\CYMR90~1\AppData\Local\Temp\ccbtsgth.s:21789  .debug_str:0000000000007e37 .LASF2484
C:\Users\CYMR90~1\AppData\Local\Temp\ccbtsgth.s:24875  .debug_str:000000000001449c .LASF2485
C:\Users\CYMR90~1\AppData\Local\Temp\ccbtsgth.s:24581  .debug_str:000000000001325d .LASF2486
C:\Users\CYMR90~1\AppData\Local\Temp\ccbtsgth.s:29298  .debug_str:0000000000025eff .LASF2487
C:\Users\CYMR90~1\AppData\Local\Temp\ccbtsgth.s:22717  .debug_str:000000000000bb90 .LASF2488
C:\Users\CYMR90~1\AppData\Local\Temp\ccbtsgth.s:27360  .debug_str:000000000001e687 .LASF2489
C:\Users\CYMR90~1\AppData\Local\Temp\ccbtsgth.s:20763  .debug_str:0000000000003c78 .LASF2490
C:\Users\CYMR90~1\AppData\Local\Temp\ccbtsgth.s:25470  .debug_str:0000000000016c31 .LASF2491
C:\Users\CYMR90~1\AppData\Local\Temp\ccbtsgth.s:30182  .debug_str:00000000000297a6 .LASF2492
C:\Users\CYMR90~1\AppData\Local\Temp\ccbtsgth.s:23569  .debug_str:000000000000f16c .LASF2493
C:\Users\CYMR90~1\AppData\Local\Temp\ccbtsgth.s:21649  .debug_str:0000000000007477 .LASF2494
C:\Users\CYMR90~1\AppData\Local\Temp\ccbtsgth.s:22767  .debug_str:000000000000bf51 .LASF2495
C:\Users\CYMR90~1\AppData\Local\Temp\ccbtsgth.s:27406  .debug_str:000000000001e996 .LASF2496
C:\Users\CYMR90~1\AppData\Local\Temp\ccbtsgth.s:20811  .debug_str:0000000000003f5d .LASF2497
C:\Users\CYMR90~1\AppData\Local\Temp\ccbtsgth.s:25520  .debug_str:0000000000016f3d .LASF2498
C:\Users\CYMR90~1\AppData\Local\Temp\ccbtsgth.s:30238  .debug_str:0000000000029afa .LASF2499
C:\Users\CYMR90~1\AppData\Local\Temp\ccbtsgth.s:23629  .debug_str:000000000000f516 .LASF2500
C:\Users\CYMR90~1\AppData\Local\Temp\ccbtsgth.s:23359  .debug_str:000000000000e458 .LASF2501
C:\Users\CYMR90~1\AppData\Local\Temp\ccbtsgth.s:26570  .debug_str:000000000001b435 .LASF2502
C:\Users\CYMR90~1\AppData\Local\Temp\ccbtsgth.s:29766  .debug_str:0000000000027c3a .LASF2503
C:\Users\CYMR90~1\AppData\Local\Temp\ccbtsgth.s:21667  .debug_str:00000000000075aa .LASF2504
C:\Users\CYMR90~1\AppData\Local\Temp\ccbtsgth.s:24757  .debug_str:0000000000013ced .LASF2505
C:\Users\CYMR90~1\AppData\Local\Temp\ccbtsgth.s:27986  .debug_str:0000000000020cae .LASF2506
C:\Users\CYMR90~1\AppData\Local\Temp\ccbtsgth.s:30168  .debug_str:00000000000296e3 .LASF2507
C:\Users\CYMR90~1\AppData\Local\Temp\ccbtsgth.s:23133  .debug_str:000000000000d706 .LASF2508
C:\Users\CYMR90~1\AppData\Local\Temp\ccbtsgth.s:26344  .debug_str:000000000001a503 .LASF2509
C:\Users\CYMR90~1\AppData\Local\Temp\ccbtsgth.s:29526  .debug_str:0000000000026cdf .LASF2510
C:\Users\CYMR90~1\AppData\Local\Temp\ccbtsgth.s:29856  .debug_str:00000000000282ed .LASF2511
C:\Users\CYMR90~1\AppData\Local\Temp\ccbtsgth.s:23263  .debug_str:000000000000ded2 .LASF2512
C:\Users\CYMR90~1\AppData\Local\Temp\ccbtsgth.s:27932  .debug_str:0000000000020956 .LASF2513
C:\Users\CYMR90~1\AppData\Local\Temp\ccbtsgth.s:21309  .debug_str:0000000000005ef3 .LASF2514
C:\Users\CYMR90~1\AppData\Local\Temp\ccbtsgth.s:26046  .debug_str:00000000000191d9 .LASF2515
C:\Users\CYMR90~1\AppData\Local\Temp\ccbtsgth.s:26812  .debug_str:000000000001c2ef .LASF2516
C:\Users\CYMR90~1\AppData\Local\Temp\ccbtsgth.s:24109  .debug_str:00000000000112ef .LASF2517
C:\Users\CYMR90~1\AppData\Local\Temp\ccbtsgth.s:28814  .debug_str:0000000000023db4 .LASF2518
C:\Users\CYMR90~1\AppData\Local\Temp\ccbtsgth.s:26902  .debug_str:000000000001c8e9 .LASF2519
C:\Users\CYMR90~1\AppData\Local\Temp\ccbtsgth.s:28074  .debug_str:00000000000211a0 .LASF2520
C:\Users\CYMR90~1\AppData\Local\Temp\ccbtsgth.s:21467  .debug_str:00000000000068cd .LASF2521
C:\Users\CYMR90~1\AppData\Local\Temp\ccbtsgth.s:26176  .debug_str:00000000000199ec .LASF2522
C:\Users\CYMR90~1\AppData\Local\Temp\ccbtsgth.s:30904  .debug_str:000000000002c584 .LASF2523
C:\Users\CYMR90~1\AppData\Local\Temp\ccbtsgth.s:24237  .debug_str:0000000000011bb4 .LASF2524
C:\Users\CYMR90~1\AppData\Local\Temp\ccbtsgth.s:28948  .debug_str:00000000000246ea .LASF2525
C:\Users\CYMR90~1\AppData\Local\Temp\ccbtsgth.s:24433  .debug_str:000000000001287a .LASF2526
C:\Users\CYMR90~1\AppData\Local\Temp\ccbtsgth.s:20651  .debug_str:0000000000003550 .LASF2527
C:\Users\CYMR90~1\AppData\Local\Temp\ccbtsgth.s:25832  .debug_str:00000000000182e6 .LASF2528
C:\Users\CYMR90~1\AppData\Local\Temp\ccbtsgth.s:22211  .debug_str:0000000000009971 .LASF2529
C:\Users\CYMR90~1\AppData\Local\Temp\ccbtsgth.s:20979  .debug_str:0000000000004b3e .LASF2530
C:\Users\CYMR90~1\AppData\Local\Temp\ccbtsgth.s:29258  .debug_str:0000000000025c53 .LASF2531
C:\Users\CYMR90~1\AppData\Local\Temp\ccbtsgth.s:25241  .debug_str:0000000000015b41 .LASF2532
C:\Users\CYMR90~1\AppData\Local\Temp\ccbtsgth.s:24997  .debug_str:0000000000014c9c .LASF2533
C:\Users\CYMR90~1\AppData\Local\Temp\ccbtsgth.s:25387  .debug_str:0000000000016498 .LASF2534
C:\Users\CYMR90~1\AppData\Local\Temp\ccbtsgth.s:22277  .debug_str:0000000000009d80 .LASF2535
C:\Users\CYMR90~1\AppData\Local\Temp\ccbtsgth.s:21515  .debug_str:0000000000006be0 .LASF2536
C:\Users\CYMR90~1\AppData\Local\Temp\ccbtsgth.s:29988  .debug_str:0000000000028b2e .LASF2537
C:\Users\CYMR90~1\AppData\Local\Temp\ccbtsgth.s:19921  .debug_str:000000000000072a .LASF2538
C:\Users\CYMR90~1\AppData\Local\Temp\ccbtsgth.s:21689  .debug_str:0000000000007704 .LASF2539
C:\Users\CYMR90~1\AppData\Local\Temp\ccbtsgth.s:20691  .debug_str:00000000000037e6 .LASF2540
C:\Users\CYMR90~1\AppData\Local\Temp\ccbtsgth.s:29154  .debug_str:000000000002558d .LASF2541
C:\Users\CYMR90~1\AppData\Local\Temp\ccbtsgth.s:24239  .debug_str:0000000000011bc9 .LASF2542
C:\Users\CYMR90~1\AppData\Local\Temp\ccbtsgth.s:23043  .debug_str:000000000000d0e7 .LASF2543
C:\Users\CYMR90~1\AppData\Local\Temp\ccbtsgth.s:27674  .debug_str:000000000001f957 .LASF2544
C:\Users\CYMR90~1\AppData\Local\Temp\ccbtsgth.s:26782  .debug_str:000000000001c129 .LASF2545
C:\Users\CYMR90~1\AppData\Local\Temp\ccbtsgth.s:20737  .debug_str:0000000000003aa5 .LASF2546
C:\Users\CYMR90~1\AppData\Local\Temp\ccbtsgth.s:29306  .debug_str:0000000000025f8f .LASF2547
C:\Users\CYMR90~1\AppData\Local\Temp\ccbtsgth.s:23019  .debug_str:000000000000cf71 .LASF2548
C:\Users\CYMR90~1\AppData\Local\Temp\ccbtsgth.s:22115  .debug_str:0000000000009307 .LASF2549
C:\Users\CYMR90~1\AppData\Local\Temp\ccbtsgth.s:21075  .debug_str:00000000000050de .LASF2550
C:\Users\CYMR90~1\AppData\Local\Temp\ccbtsgth.s:29640  .debug_str:0000000000027407 .LASF2551
C:\Users\CYMR90~1\AppData\Local\Temp\ccbtsgth.s:29940  .debug_str:00000000000288a3 .LASF2552
C:\Users\CYMR90~1\AppData\Local\Temp\ccbtsgth.s:24107  .debug_str:00000000000112cd .LASF2553
C:\Users\CYMR90~1\AppData\Local\Temp\ccbtsgth.s:28024  .debug_str:0000000000020eca .LASF2554
C:\Users\CYMR90~1\AppData\Local\Temp\ccbtsgth.s:25161  .debug_str:00000000000155ea .LASF2555
C:\Users\CYMR90~1\AppData\Local\Temp\ccbtsgth.s:25652  .debug_str:00000000000177ee .LASF2556
C:\Users\CYMR90~1\AppData\Local\Temp\ccbtsgth.s:24559  .debug_str:00000000000130f2 .LASF2557
C:\Users\CYMR90~1\AppData\Local\Temp\ccbtsgth.s:25059  .debug_str:000000000001505f .LASF2558
C:\Users\CYMR90~1\AppData\Local\Temp\ccbtsgth.s:23775  .debug_str:000000000000fe8d .LASF2559
C:\Users\CYMR90~1\AppData\Local\Temp\ccbtsgth.s:24057  .debug_str:0000000000010fbd .LASF2560
C:\Users\CYMR90~1\AppData\Local\Temp\ccbtsgth.s:23175  .debug_str:000000000000d95c .LASF2561
C:\Users\CYMR90~1\AppData\Local\Temp\ccbtsgth.s:22191  .debug_str:00000000000097c2 .LASF2562
C:\Users\CYMR90~1\AppData\Local\Temp\ccbtsgth.s:30654  .debug_str:000000000002b491 .LASF2563
C:\Users\CYMR90~1\AppData\Local\Temp\ccbtsgth.s:23797  .debug_str:0000000000010007 .LASF2564
C:\Users\CYMR90~1\AppData\Local\Temp\ccbtsgth.s:29982  .debug_str:0000000000028ad1 .LASF2565
C:\Users\CYMR90~1\AppData\Local\Temp\ccbtsgth.s:28706  .debug_str:00000000000237cf .LASF2566
C:\Users\CYMR90~1\AppData\Local\Temp\ccbtsgth.s:25560  .debug_str:00000000000171af .LASF2567
C:\Users\CYMR90~1\AppData\Local\Temp\ccbtsgth.s:30484  .debug_str:000000000002a990 .LASF2568
C:\Users\CYMR90~1\AppData\Local\Temp\ccbtsgth.s:25311  .debug_str:0000000000016012 .LASF2569
C:\Users\CYMR90~1\AppData\Local\Temp\ccbtsgth.s:29664  .debug_str:000000000002755c .LASF2570
C:\Users\CYMR90~1\AppData\Local\Temp\ccbtsgth.s:23035  .debug_str:000000000000d085 .LASF2571
C:\Users\CYMR90~1\AppData\Local\Temp\ccbtsgth.s:27452  .debug_str:000000000001ebfa .LASF2572
C:\Users\CYMR90~1\AppData\Local\Temp\ccbtsgth.s:21587  .debug_str:00000000000070b1 .LASF2573
C:\Users\CYMR90~1\AppData\Local\Temp\ccbtsgth.s:20063  .debug_str:00000000000010a5 .LASF2574
C:\Users\CYMR90~1\AppData\Local\Temp\ccbtsgth.s:26434  .debug_str:000000000001ab2e .LASF2575
C:\Users\CYMR90~1\AppData\Local\Temp\ccbtsgth.s:22453  .debug_str:000000000000a975 .LASF2576
C:\Users\CYMR90~1\AppData\Local\Temp\ccbtsgth.s:25291  .debug_str:0000000000015ed3 .LASF2577
C:\Users\CYMR90~1\AppData\Local\Temp\ccbtsgth.s:22765  .debug_str:000000000000bf39 .LASF2578
C:\Users\CYMR90~1\AppData\Local\Temp\ccbtsgth.s:22889  .debug_str:000000000000c6df .LASF2579
C:\Users\CYMR90~1\AppData\Local\Temp\ccbtsgth.s:26822  .debug_str:000000000001c368 .LASF2580
C:\Users\CYMR90~1\AppData\Local\Temp\ccbtsgth.s:21017  .debug_str:0000000000004d6f .LASF2581
C:\Users\CYMR90~1\AppData\Local\Temp\ccbtsgth.s:26680  .debug_str:000000000001ba6b .LASF2582
C:\Users\CYMR90~1\AppData\Local\Temp\ccbtsgth.s:25165  .debug_str:0000000000015653 .LASF2583
C:\Users\CYMR90~1\AppData\Local\Temp\ccbtsgth.s:30130  .debug_str:00000000000294b8 .LASF2584
C:\Users\CYMR90~1\AppData\Local\Temp\ccbtsgth.s:28310  .debug_str:0000000000022079 .LASF2585
C:\Users\CYMR90~1\AppData\Local\Temp\ccbtsgth.s:20985  .debug_str:0000000000004ba3 .LASF2586
C:\Users\CYMR90~1\AppData\Local\Temp\ccbtsgth.s:20075  .debug_str:000000000000114d .LASF2587
C:\Users\CYMR90~1\AppData\Local\Temp\ccbtsgth.s:30410  .debug_str:000000000002a536 .LASF2588
C:\Users\CYMR90~1\AppData\Local\Temp\ccbtsgth.s:20015  .debug_str:0000000000000d1e .LASF2589
C:\Users\CYMR90~1\AppData\Local\Temp\ccbtsgth.s:21711  .debug_str:000000000000788b .LASF2590
C:\Users\CYMR90~1\AppData\Local\Temp\ccbtsgth.s:22189  .debug_str:00000000000097a2 .LASF2591
C:\Users\CYMR90~1\AppData\Local\Temp\ccbtsgth.s:24415  .debug_str:000000000001276f .LASF2592
C:\Users\CYMR90~1\AppData\Local\Temp\ccbtsgth.s:22247  .debug_str:0000000000009bb3 .LASF2593
C:\Users\CYMR90~1\AppData\Local\Temp\ccbtsgth.s:28324  .debug_str:0000000000022142 .LASF2594
C:\Users\CYMR90~1\AppData\Local\Temp\ccbtsgth.s:26690  .debug_str:000000000001bb3b .LASF2595
C:\Users\CYMR90~1\AppData\Local\Temp\ccbtsgth.s:25824  .debug_str:000000000001827e .LASF2596
C:\Users\CYMR90~1\AppData\Local\Temp\ccbtsgth.s:27404  .debug_str:000000000001e974 .LASF2597
C:\Users\CYMR90~1\AppData\Local\Temp\ccbtsgth.s:30994  .debug_str:000000000002cb23 .LASF2598
C:\Users\CYMR90~1\AppData\Local\Temp\ccbtsgth.s:20249  .debug_str:0000000000001c77 .LASF2599
C:\Users\CYMR90~1\AppData\Local\Temp\ccbtsgth.s:24673  .debug_str:00000000000137e3 .LASF2600
C:\Users\CYMR90~1\AppData\Local\Temp\ccbtsgth.s:28286  .debug_str:0000000000021ef0 .LASF2601
C:\Users\CYMR90~1\AppData\Local\Temp\ccbtsgth.s:30768  .debug_str:000000000002bc37 .LASF2602
C:\Users\CYMR90~1\AppData\Local\Temp\ccbtsgth.s:24113  .debug_str:0000000000011313 .LASF2603
C:\Users\CYMR90~1\AppData\Local\Temp\ccbtsgth.s:23467  .debug_str:000000000000eb8c .LASF2604
C:\Users\CYMR90~1\AppData\Local\Temp\ccbtsgth.s:26948  .debug_str:000000000001cbbb .LASF2605
C:\Users\CYMR90~1\AppData\Local\Temp\ccbtsgth.s:26212  .debug_str:0000000000019c24 .LASF2606
C:\Users\CYMR90~1\AppData\Local\Temp\ccbtsgth.s:21033  .debug_str:0000000000004e78 .LASF2607
C:\Users\CYMR90~1\AppData\Local\Temp\ccbtsgth.s:20949  .debug_str:0000000000004968 .LASF2608
C:\Users\CYMR90~1\AppData\Local\Temp\ccbtsgth.s:31024  .debug_str:000000000002cd5d .LASF2609
C:\Users\CYMR90~1\AppData\Local\Temp\ccbtsgth.s:27580  .debug_str:000000000001f3d2 .LASF2610
C:\Users\CYMR90~1\AppData\Local\Temp\ccbtsgth.s:21867  .debug_str:00000000000083d6 .LASF2611
C:\Users\CYMR90~1\AppData\Local\Temp\ccbtsgth.s:21855  .debug_str:0000000000008335 .LASF2612
C:\Users\CYMR90~1\AppData\Local\Temp\ccbtsgth.s:29194  .debug_str:000000000002587d .LASF2613
C:\Users\CYMR90~1\AppData\Local\Temp\ccbtsgth.s:24069  .debug_str:000000000001107c .LASF2614
C:\Users\CYMR90~1\AppData\Local\Temp\ccbtsgth.s:28304  .debug_str:0000000000022026 .LASF2615
C:\Users\CYMR90~1\AppData\Local\Temp\ccbtsgth.s:26636  .debug_str:000000000001b814 .LASF2616
C:\Users\CYMR90~1\AppData\Local\Temp\ccbtsgth.s:29920  .debug_str:0000000000028778 .LASF2617
C:\Users\CYMR90~1\AppData\Local\Temp\ccbtsgth.s:28166  .debug_str:00000000000217da .LASF2618
C:\Users\CYMR90~1\AppData\Local\Temp\ccbtsgth.s:27190  .debug_str:000000000001dba4 .LASF2619
C:\Users\CYMR90~1\AppData\Local\Temp\ccbtsgth.s:26188  .debug_str:0000000000019ac1 .LASF2620
C:\Users\CYMR90~1\AppData\Local\Temp\ccbtsgth.s:25267  .debug_str:0000000000015d23 .LASF2621
C:\Users\CYMR90~1\AppData\Local\Temp\ccbtsgth.s:24323  .debug_str:0000000000012168 .LASF2622
C:\Users\CYMR90~1\AppData\Local\Temp\ccbtsgth.s:28546  .debug_str:0000000000022e60 .LASF2623
C:\Users\CYMR90~1\AppData\Local\Temp\ccbtsgth.s:25093  .debug_str:0000000000015221 .LASF2624
C:\Users\CYMR90~1\AppData\Local\Temp\ccbtsgth.s:20873  .debug_str:00000000000043df .LASF2625
C:\Users\CYMR90~1\AppData\Local\Temp\ccbtsgth.s:20585  .debug_str:00000000000030f2 .LASF2626
C:\Users\CYMR90~1\AppData\Local\Temp\ccbtsgth.s:22117  .debug_str:0000000000009329 .LASF2627
C:\Users\CYMR90~1\AppData\Local\Temp\ccbtsgth.s:20011  .debug_str:0000000000000ce7 .LASF2628
C:\Users\CYMR90~1\AppData\Local\Temp\ccbtsgth.s:23259  .debug_str:000000000000de94 .LASF2629
C:\Users\CYMR90~1\AppData\Local\Temp\ccbtsgth.s:28714  .debug_str:0000000000023862 .LASF2630
C:\Users\CYMR90~1\AppData\Local\Temp\ccbtsgth.s:20291  .debug_str:0000000000001ef2 .LASF2631
C:\Users\CYMR90~1\AppData\Local\Temp\ccbtsgth.s:22731  .debug_str:000000000000bc64 .LASF2632
C:\Users\CYMR90~1\AppData\Local\Temp\ccbtsgth.s:20115  .debug_str:0000000000001387 .LASF2633
C:\Users\CYMR90~1\AppData\Local\Temp\ccbtsgth.s:26314  .debug_str:000000000001a394 .LASF2634
C:\Users\CYMR90~1\AppData\Local\Temp\ccbtsgth.s:26106  .debug_str:0000000000019537 .LASF2635
C:\Users\CYMR90~1\AppData\Local\Temp\ccbtsgth.s:24589  .debug_str:00000000000132ed .LASF2636
C:\Users\CYMR90~1\AppData\Local\Temp\ccbtsgth.s:29822  .debug_str:00000000000280a8 .LASF2637
C:\Users\CYMR90~1\AppData\Local\Temp\ccbtsgth.s:22317  .debug_str:000000000000a007 .LASF2638
C:\Users\CYMR90~1\AppData\Local\Temp\ccbtsgth.s:26358  .debug_str:000000000001a5f0 .LASF2639
C:\Users\CYMR90~1\AppData\Local\Temp\ccbtsgth.s:26994  .debug_str:000000000001cfc1 .LASF2640
C:\Users\CYMR90~1\AppData\Local\Temp\ccbtsgth.s:25498  .debug_str:0000000000016de7 .LASF2641
C:\Users\CYMR90~1\AppData\Local\Temp\ccbtsgth.s:29418  .debug_str:0000000000026658 .LASF2642
C:\Users\CYMR90~1\AppData\Local\Temp\ccbtsgth.s:24529  .debug_str:0000000000012ec8 .LASF2643
C:\Users\CYMR90~1\AppData\Local\Temp\ccbtsgth.s:19877  .debug_str:000000000000049b .LASF2644
C:\Users\CYMR90~1\AppData\Local\Temp\ccbtsgth.s:20357  .debug_str:000000000000227d .LASF2645
C:\Users\CYMR90~1\AppData\Local\Temp\ccbtsgth.s:25123  .debug_str:00000000000153aa .LASF2646
C:\Users\CYMR90~1\AppData\Local\Temp\ccbtsgth.s:19999  .debug_str:0000000000000c46 .LASF2647
C:\Users\CYMR90~1\AppData\Local\Temp\ccbtsgth.s:27096  .debug_str:000000000001d610 .LASF2648
C:\Users\CYMR90~1\AppData\Local\Temp\ccbtsgth.s:27676  .debug_str:000000000001f979 .LASF2649
C:\Users\CYMR90~1\AppData\Local\Temp\ccbtsgth.s:28994  .debug_str:0000000000024a3d .LASF2650
C:\Users\CYMR90~1\AppData\Local\Temp\ccbtsgth.s:21135  .debug_str:000000000000547e .LASF2651
C:\Users\CYMR90~1\AppData\Local\Temp\ccbtsgth.s:20739  .debug_str:0000000000003ac7 .LASF2652
C:\Users\CYMR90~1\AppData\Local\Temp\ccbtsgth.s:24803  .debug_str:0000000000013fff .LASF2653
C:\Users\CYMR90~1\AppData\Local\Temp\ccbtsgth.s:22799  .debug_str:000000000000c164 .LASF2654
C:\Users\CYMR90~1\AppData\Local\Temp\ccbtsgth.s:27566  .debug_str:000000000001f2fc .LASF2655
C:\Users\CYMR90~1\AppData\Local\Temp\ccbtsgth.s:23345  .debug_str:000000000000e384 .LASF2656
C:\Users\CYMR90~1\AppData\Local\Temp\ccbtsgth.s:27372  .debug_str:000000000001e77a .LASF2657
C:\Users\CYMR90~1\AppData\Local\Temp\ccbtsgth.s:30978  .debug_str:000000000002ca4b .LASF2658
C:\Users\CYMR90~1\AppData\Local\Temp\ccbtsgth.s:21249  .debug_str:0000000000005b7b .LASF2659
C:\Users\CYMR90~1\AppData\Local\Temp\ccbtsgth.s:26342  .debug_str:000000000001a4e5 .LASF2660
C:\Users\CYMR90~1\AppData\Local\Temp\ccbtsgth.s:22529  .debug_str:000000000000ae83 .LASF2661
C:\Users\CYMR90~1\AppData\Local\Temp\ccbtsgth.s:28524  .debug_str:0000000000022d23 .LASF2662
C:\Users\CYMR90~1\AppData\Local\Temp\ccbtsgth.s:30998  .debug_str:000000000002cb59 .LASF2663
C:\Users\CYMR90~1\AppData\Local\Temp\ccbtsgth.s:24259  .debug_str:0000000000011d4c .LASF2664
C:\Users\CYMR90~1\AppData\Local\Temp\ccbtsgth.s:25135  .debug_str:000000000001545f .LASF2665
C:\Users\CYMR90~1\AppData\Local\Temp\ccbtsgth.s:20403  .debug_str:0000000000002540 .LASF2666
C:\Users\CYMR90~1\AppData\Local\Temp\ccbtsgth.s:26986  .debug_str:000000000001cf43 .LASF2667
C:\Users\CYMR90~1\AppData\Local\Temp\ccbtsgth.s:26374  .debug_str:000000000001a782 .LASF2668
C:\Users\CYMR90~1\AppData\Local\Temp\ccbtsgth.s:26412  .debug_str:000000000001a9f3 .LASF2669
C:\Users\CYMR90~1\AppData\Local\Temp\ccbtsgth.s:25363  .debug_str:00000000000162a9 .LASF2670
C:\Users\CYMR90~1\AppData\Local\Temp\ccbtsgth.s:22657  .debug_str:000000000000b781 .LASF2671
C:\Users\CYMR90~1\AppData\Local\Temp\ccbtsgth.s:24741  .debug_str:0000000000013be4 .LASF2672
C:\Users\CYMR90~1\AppData\Local\Temp\ccbtsgth.s:29324  .debug_str:0000000000026096 .LASF2673
C:\Users\CYMR90~1\AppData\Local\Temp\ccbtsgth.s:26578  .debug_str:000000000001b493 .LASF2674
C:\Users\CYMR90~1\AppData\Local\Temp\ccbtsgth.s:21283  .debug_str:0000000000005d72 .LASF2675
C:\Users\CYMR90~1\AppData\Local\Temp\ccbtsgth.s:22833  .debug_str:000000000000c375 .LASF2676
C:\Users\CYMR90~1\AppData\Local\Temp\ccbtsgth.s:25057  .debug_str:0000000000015022 .LASF2677
C:\Users\CYMR90~1\AppData\Local\Temp\ccbtsgth.s:29682  .debug_str:0000000000027684 .LASF2678
C:\Users\CYMR90~1\AppData\Local\Temp\ccbtsgth.s:22779  .debug_str:000000000000c02a .LASF2679
C:\Users\CYMR90~1\AppData\Local\Temp\ccbtsgth.s:23331  .debug_str:000000000000e2c9 .LASF2680
C:\Users\CYMR90~1\AppData\Local\Temp\ccbtsgth.s:27314  .debug_str:000000000001e3af .LASF2681
C:\Users\CYMR90~1\AppData\Local\Temp\ccbtsgth.s:21045  .debug_str:0000000000004f2a .LASF2682
C:\Users\CYMR90~1\AppData\Local\Temp\ccbtsgth.s:30560  .debug_str:000000000002ae08 .LASF2683
C:\Users\CYMR90~1\AppData\Local\Temp\ccbtsgth.s:28752  .debug_str:0000000000023a76 .LASF2684
C:\Users\CYMR90~1\AppData\Local\Temp\ccbtsgth.s:29556  .debug_str:0000000000026e6b .LASF2685
C:\Users\CYMR90~1\AppData\Local\Temp\ccbtsgth.s:21483  .debug_str:00000000000069c9 .LASF2686
C:\Users\CYMR90~1\AppData\Local\Temp\ccbtsgth.s:31070  .debug_str:000000000002d003 .LASF2687
C:\Users\CYMR90~1\AppData\Local\Temp\ccbtsgth.s:20557  .debug_str:0000000000002f33 .LASF2688
C:\Users\CYMR90~1\AppData\Local\Temp\ccbtsgth.s:20293  .debug_str:0000000000001f14 .LASF2689
C:\Users\CYMR90~1\AppData\Local\Temp\ccbtsgth.s:27342  .debug_str:000000000001e58d .LASF2690
C:\Users\CYMR90~1\AppData\Local\Temp\ccbtsgth.s:20535  .debug_str:0000000000002dd3 .LASF2691
C:\Users\CYMR90~1\AppData\Local\Temp\ccbtsgth.s:24641  .debug_str:00000000000135ed .LASF2692
C:\Users\CYMR90~1\AppData\Local\Temp\ccbtsgth.s:30854  .debug_str:000000000002c1eb .LASF2693
C:\Users\CYMR90~1\AppData\Local\Temp\ccbtsgth.s:29458  .debug_str:00000000000268af .LASF2694
C:\Users\CYMR90~1\AppData\Local\Temp\ccbtsgth.s:21269  .debug_str:0000000000005cad .LASF2695
C:\Users\CYMR90~1\AppData\Local\Temp\ccbtsgth.s:30532  .debug_str:000000000002ac80 .LASF2696
C:\Users\CYMR90~1\AppData\Local\Temp\ccbtsgth.s:26904  .debug_str:000000000001c8fe .LASF2697
C:\Users\CYMR90~1\AppData\Local\Temp\ccbtsgth.s:27900  .debug_str:000000000002073d .LASF2698
C:\Users\CYMR90~1\AppData\Local\Temp\ccbtsgth.s:23683  .debug_str:000000000000f8cc .LASF2699
C:\Users\CYMR90~1\AppData\Local\Temp\ccbtsgth.s:22847  .debug_str:000000000000c42b .LASF2700
C:\Users\CYMR90~1\AppData\Local\Temp\ccbtsgth.s:26634  .debug_str:000000000001b7f8 .LASF2701
C:\Users\CYMR90~1\AppData\Local\Temp\ccbtsgth.s:29862  .debug_str:000000000002834d .LASF2702
C:\Users\CYMR90~1\AppData\Local\Temp\ccbtsgth.s:28298  .debug_str:0000000000021fb1 .LASF2703
C:\Users\CYMR90~1\AppData\Local\Temp\ccbtsgth.s:29222  .debug_str:0000000000025a28 .LASF2704
C:\Users\CYMR90~1\AppData\Local\Temp\ccbtsgth.s:20875  .debug_str:00000000000043fb .LASF2705
C:\Users\CYMR90~1\AppData\Local\Temp\ccbtsgth.s:26952  .debug_str:000000000001cbed .LASF2706
C:\Users\CYMR90~1\AppData\Local\Temp\ccbtsgth.s:30118  .debug_str:00000000000293c1 .LASF2707
C:\Users\CYMR90~1\AppData\Local\Temp\ccbtsgth.s:29262  .debug_str:0000000000025c96 .LASF2708
C:\Users\CYMR90~1\AppData\Local\Temp\ccbtsgth.s:27086  .debug_str:000000000001d50c .LASF2709
C:\Users\CYMR90~1\AppData\Local\Temp\ccbtsgth.s:23147  .debug_str:000000000000d7c7 .LASF2710
C:\Users\CYMR90~1\AppData\Local\Temp\ccbtsgth.s:30626  .debug_str:000000000002b29f .LASF2711
C:\Users\CYMR90~1\AppData\Local\Temp\ccbtsgth.s:25746  .debug_str:0000000000017dd8 .LASF2712
C:\Users\CYMR90~1\AppData\Local\Temp\ccbtsgth.s:20749  .debug_str:0000000000003b63 .LASF2713
C:\Users\CYMR90~1\AppData\Local\Temp\ccbtsgth.s:30666  .debug_str:000000000002b540 .LASF2714
C:\Users\CYMR90~1\AppData\Local\Temp\ccbtsgth.s:26992  .debug_str:000000000001cf9f .LASF2715
C:\Users\CYMR90~1\AppData\Local\Temp\ccbtsgth.s:23519  .debug_str:000000000000ee5a .LASF2716
C:\Users\CYMR90~1\AppData\Local\Temp\ccbtsgth.s:24955  .debug_str:000000000001497e .LASF2717
C:\Users\CYMR90~1\AppData\Local\Temp\ccbtsgth.s:24855  .debug_str:000000000001434f .LASF2718
C:\Users\CYMR90~1\AppData\Local\Temp\ccbtsgth.s:23539  .debug_str:000000000000ef88 .LASF2719
C:\Users\CYMR90~1\AppData\Local\Temp\ccbtsgth.s:23235  .debug_str:000000000000dd01 .LASF2720
C:\Users\CYMR90~1\AppData\Local\Temp\ccbtsgth.s:28690  .debug_str:00000000000236f3 .LASF2721
C:\Users\CYMR90~1\AppData\Local\Temp\ccbtsgth.s:25558  .debug_str:000000000001718a .LASF2722
C:\Users\CYMR90~1\AppData\Local\Temp\ccbtsgth.s:24637  .debug_str:00000000000135a3 .LASF2723
C:\Users\CYMR90~1\AppData\Local\Temp\ccbtsgth.s:21975  .debug_str:0000000000008a7e .LASF2724
C:\Users\CYMR90~1\AppData\Local\Temp\ccbtsgth.s:30372  .debug_str:000000000002a2c4 .LASF2725
C:\Users\CYMR90~1\AppData\Local\Temp\ccbtsgth.s:30844  .debug_str:000000000002c16a .LASF2726
C:\Users\CYMR90~1\AppData\Local\Temp\ccbtsgth.s:25045  .debug_str:0000000000014f79 .LASF2727
C:\Users\CYMR90~1\AppData\Local\Temp\ccbtsgth.s:21117  .debug_str:000000000000536b .LASF2728
C:\Users\CYMR90~1\AppData\Local\Temp\ccbtsgth.s:25233  .debug_str:0000000000015ac4 .LASF2729
C:\Users\CYMR90~1\AppData\Local\Temp\ccbtsgth.s:30810  .debug_str:000000000002bf46 .LASF2730
C:\Users\CYMR90~1\AppData\Local\Temp\ccbtsgth.s:23877  .debug_str:00000000000104b7 .LASF2731
C:\Users\CYMR90~1\AppData\Local\Temp\ccbtsgth.s:22387  .debug_str:000000000000a4c6 .LASF2732
C:\Users\CYMR90~1\AppData\Local\Temp\ccbtsgth.s:19953  .debug_str:000000000000091b .LASF2733
C:\Users\CYMR90~1\AppData\Local\Temp\ccbtsgth.s:27894  .debug_str:00000000000206be .LASF2734
C:\Users\CYMR90~1\AppData\Local\Temp\ccbtsgth.s:30920  .debug_str:000000000002c649 .LASF2735
C:\Users\CYMR90~1\AppData\Local\Temp\ccbtsgth.s:22671  .debug_str:000000000000b873 .LASF2736
C:\Users\CYMR90~1\AppData\Local\Temp\ccbtsgth.s:20175  .debug_str:0000000000001742 .LASF2737
C:\Users\CYMR90~1\AppData\Local\Temp\ccbtsgth.s:29450  .debug_str:0000000000026839 .LASF2738
C:\Users\CYMR90~1\AppData\Local\Temp\ccbtsgth.s:31046  .debug_str:000000000002ce96 .LASF2739
C:\Users\CYMR90~1\AppData\Local\Temp\ccbtsgth.s:23421  .debug_str:000000000000e84b .LASF2740
C:\Users\CYMR90~1\AppData\Local\Temp\ccbtsgth.s:26756  .debug_str:000000000001bf77 .LASF2741
C:\Users\CYMR90~1\AppData\Local\Temp\ccbtsgth.s:28454  .debug_str:00000000000228cf .LASF2742
C:\Users\CYMR90~1\AppData\Local\Temp\ccbtsgth.s:23997  .debug_str:0000000000010c3b .LASF2743
C:\Users\CYMR90~1\AppData\Local\Temp\ccbtsgth.s:23145  .debug_str:000000000000d7ae .LASF2744
C:\Users\CYMR90~1\AppData\Local\Temp\ccbtsgth.s:27884  .debug_str:000000000002062c .LASF2745
C:\Users\CYMR90~1\AppData\Local\Temp\ccbtsgth.s:30236  .debug_str:0000000000029ae4 .LASF2746
C:\Users\CYMR90~1\AppData\Local\Temp\ccbtsgth.s:22801  .debug_str:000000000000c192 .LASF2747
C:\Users\CYMR90~1\AppData\Local\Temp\ccbtsgth.s:21585  .debug_str:000000000000709a .LASF2748
C:\Users\CYMR90~1\AppData\Local\Temp\ccbtsgth.s:28050  .debug_str:0000000000021038 .LASF2749
C:\Users\CYMR90~1\AppData\Local\Temp\ccbtsgth.s:30260  .debug_str:0000000000029c49 .LASF2750
C:\Users\CYMR90~1\AppData\Local\Temp\ccbtsgth.s:20543  .debug_str:0000000000002e55 .LASF2751
C:\Users\CYMR90~1\AppData\Local\Temp\ccbtsgth.s:22861  .debug_str:000000000000c519 .LASF2752
C:\Users\CYMR90~1\AppData\Local\Temp\ccbtsgth.s:23355  .debug_str:000000000000e429 .LASF2753
C:\Users\CYMR90~1\AppData\Local\Temp\ccbtsgth.s:30656  .debug_str:000000000002b4b4 .LASF2754
C:\Users\CYMR90~1\AppData\Local\Temp\ccbtsgth.s:21553  .debug_str:0000000000006e3d .LASF2755
C:\Users\CYMR90~1\AppData\Local\Temp\ccbtsgth.s:27788  .debug_str:000000000002006f .LASF2756
C:\Users\CYMR90~1\AppData\Local\Temp\ccbtsgth.s:23713  .debug_str:000000000000fa98 .LASF2757
C:\Users\CYMR90~1\AppData\Local\Temp\ccbtsgth.s:29820  .debug_str:0000000000028091 .LASF2758
C:\Users\CYMR90~1\AppData\Local\Temp\ccbtsgth.s:22203  .debug_str:00000000000098cd .LASF2759
C:\Users\CYMR90~1\AppData\Local\Temp\ccbtsgth.s:22311  .debug_str:0000000000009fa6 .LASF2760
C:\Users\CYMR90~1\AppData\Local\Temp\ccbtsgth.s:23307  .debug_str:000000000000e145 .LASF2761
C:\Users\CYMR90~1\AppData\Local\Temp\ccbtsgth.s:22419  .debug_str:000000000000a68e .LASF2762
C:\Users\CYMR90~1\AppData\Local\Temp\ccbtsgth.s:26222  .debug_str:0000000000019cce .LASF2763
C:\Users\CYMR90~1\AppData\Local\Temp\ccbtsgth.s:23473  .debug_str:000000000000ebe1 .LASF2764
C:\Users\CYMR90~1\AppData\Local\Temp\ccbtsgth.s:24015  .debug_str:0000000000010d20 .LASF2765
C:\Users\CYMR90~1\AppData\Local\Temp\ccbtsgth.s:29784  .debug_str:0000000000027db5 .LASF2766
C:\Users\CYMR90~1\AppData\Local\Temp\ccbtsgth.s:21943  .debug_str:0000000000008884 .LASF2767
C:\Users\CYMR90~1\AppData\Local\Temp\ccbtsgth.s:30732  .debug_str:000000000002b9f0 .LASF2768
C:\Users\CYMR90~1\AppData\Local\Temp\ccbtsgth.s:29880  .debug_str:00000000000284b3 .LASF2769
C:\Users\CYMR90~1\AppData\Local\Temp\ccbtsgth.s:30150  .debug_str:00000000000295d9 .LASF2770
C:\Users\CYMR90~1\AppData\Local\Temp\ccbtsgth.s:20795  .debug_str:0000000000003ea4 .LASF2771
C:\Users\CYMR90~1\AppData\Local\Temp\ccbtsgth.s:26810  .debug_str:000000000001c2d0 .LASF2772
C:\Users\CYMR90~1\AppData\Local\Temp\ccbtsgth.s:26616  .debug_str:000000000001b6db .LASF2773
C:\Users\CYMR90~1\AppData\Local\Temp\ccbtsgth.s:29060  .debug_str:0000000000024e50 .LASF2774
C:\Users\CYMR90~1\AppData\Local\Temp\ccbtsgth.s:23151  .debug_str:000000000000d80b .LASF2775
C:\Users\CYMR90~1\AppData\Local\Temp\ccbtsgth.s:26224  .debug_str:0000000000019ce5 .LASF2776
C:\Users\CYMR90~1\AppData\Local\Temp\ccbtsgth.s:20085  .debug_str:000000000000120c .LASF2777
C:\Users\CYMR90~1\AppData\Local\Temp\ccbtsgth.s:20183  .debug_str:0000000000001865 .LASF2778
C:\Users\CYMR90~1\AppData\Local\Temp\ccbtsgth.s:26814  .debug_str:000000000001c304 .LASF2779
C:\Users\CYMR90~1\AppData\Local\Temp\ccbtsgth.s:30166  .debug_str:00000000000296c4 .LASF2780
C:\Users\CYMR90~1\AppData\Local\Temp\ccbtsgth.s:20213  .debug_str:0000000000001a35 .LASF2781
C:\Users\CYMR90~1\AppData\Local\Temp\ccbtsgth.s:22275  .debug_str:0000000000009d65 .LASF2782
C:\Users\CYMR90~1\AppData\Local\Temp\ccbtsgth.s:29586  .debug_str:0000000000027114 .LASF2783
C:\Users\CYMR90~1\AppData\Local\Temp\ccbtsgth.s:21827  .debug_str:0000000000008153 .LASF2784
C:\Users\CYMR90~1\AppData\Local\Temp\ccbtsgth.s:23313  .debug_str:000000000000e1be .LASF2785
C:\Users\CYMR90~1\AppData\Local\Temp\ccbtsgth.s:28818  .debug_str:0000000000023dd6 .LASF2786
C:\Users\CYMR90~1\AppData\Local\Temp\ccbtsgth.s:26156  .debug_str:0000000000019878 .LASF2787
C:\Users\CYMR90~1\AppData\Local\Temp\ccbtsgth.s:27656  .debug_str:000000000001f849 .LASF2788
C:\Users\CYMR90~1\AppData\Local\Temp\ccbtsgth.s:27578  .debug_str:000000000001f3bf .LASF2789
C:\Users\CYMR90~1\AppData\Local\Temp\ccbtsgth.s:21799  .debug_str:0000000000007edf .LASF2790
C:\Users\CYMR90~1\AppData\Local\Temp\ccbtsgth.s:29770  .debug_str:0000000000027c8c .LASF2791
C:\Users\CYMR90~1\AppData\Local\Temp\ccbtsgth.s:29282  .debug_str:0000000000025e09 .LASF2792
C:\Users\CYMR90~1\AppData\Local\Temp\ccbtsgth.s:29052  .debug_str:0000000000024de5 .LASF2793
C:\Users\CYMR90~1\AppData\Local\Temp\ccbtsgth.s:20775  .debug_str:0000000000003d24 .LASF2794
C:\Users\CYMR90~1\AppData\Local\Temp\ccbtsgth.s:28028  .debug_str:0000000000020f12 .LASF2795
C:\Users\CYMR90~1\AppData\Local\Temp\ccbtsgth.s:23983  .debug_str:0000000000010b89 .LASF2796
C:\Users\CYMR90~1\AppData\Local\Temp\ccbtsgth.s:29524  .debug_str:0000000000026cc7 .LASF2797
C:\Users\CYMR90~1\AppData\Local\Temp\ccbtsgth.s:28694  .debug_str:0000000000023730 .LASF2798
C:\Users\CYMR90~1\AppData\Local\Temp\ccbtsgth.s:25518  .debug_str:0000000000016f25 .LASF2799
C:\Users\CYMR90~1\AppData\Local\Temp\ccbtsgth.s:25253  .debug_str:0000000000015c45 .LASF2800
C:\Users\CYMR90~1\AppData\Local\Temp\ccbtsgth.s:27528  .debug_str:000000000001f0c4 .LASF2801
C:\Users\CYMR90~1\AppData\Local\Temp\ccbtsgth.s:23943  .debug_str:00000000000108c7 .LASF2802
C:\Users\CYMR90~1\AppData\Local\Temp\ccbtsgth.s:24071  .debug_str:00000000000110a0 .LASF2803
C:\Users\CYMR90~1\AppData\Local\Temp\ccbtsgth.s:23489  .debug_str:000000000000ecb6 .LASF2804
C:\Users\CYMR90~1\AppData\Local\Temp\ccbtsgth.s:23613  .debug_str:000000000000f42e .LASF2805
C:\Users\CYMR90~1\AppData\Local\Temp\ccbtsgth.s:24553  .debug_str:00000000000130aa .LASF2806
C:\Users\CYMR90~1\AppData\Local\Temp\ccbtsgth.s:29898  .debug_str:00000000000285f2 .LASF2807
C:\Users\CYMR90~1\AppData\Local\Temp\ccbtsgth.s:25375  .debug_str:00000000000163e7 .LASF2808
C:\Users\CYMR90~1\AppData\Local\Temp\ccbtsgth.s:28812  .debug_str:0000000000023d9a .LASF2809
C:\Users\CYMR90~1\AppData\Local\Temp\ccbtsgth.s:26262  .debug_str:0000000000019eeb .LASF2810
C:\Users\CYMR90~1\AppData\Local\Temp\ccbtsgth.s:21577  .debug_str:0000000000006ff2 .LASF2811
C:\Users\CYMR90~1\AppData\Local\Temp\ccbtsgth.s:29950  .debug_str:000000000002892e .LASF2812
C:\Users\CYMR90~1\AppData\Local\Temp\ccbtsgth.s:22325  .debug_str:000000000000a093 .LASF2813
C:\Users\CYMR90~1\AppData\Local\Temp\ccbtsgth.s:24745  .debug_str:0000000000013c1a .LASF2814
C:\Users\CYMR90~1\AppData\Local\Temp\ccbtsgth.s:25039  .debug_str:0000000000014f15 .LASF2815
C:\Users\CYMR90~1\AppData\Local\Temp\ccbtsgth.s:25101  .debug_str:0000000000015295 .LASF2816
C:\Users\CYMR90~1\AppData\Local\Temp\ccbtsgth.s:27970  .debug_str:0000000000020bc5 .LASF2817
C:\Users\CYMR90~1\AppData\Local\Temp\ccbtsgth.s:25904  .debug_str:000000000001876b .LASF2818
C:\Users\CYMR90~1\AppData\Local\Temp\ccbtsgth.s:23453  .debug_str:000000000000ea59 .LASF2819
C:\Users\CYMR90~1\AppData\Local\Temp\ccbtsgth.s:30044  .debug_str:0000000000028ed6 .LASF2820
C:\Users\CYMR90~1\AppData\Local\Temp\ccbtsgth.s:28474  .debug_str:00000000000229e7 .LASF2821
C:\Users\CYMR90~1\AppData\Local\Temp\ccbtsgth.s:22873  .debug_str:000000000000c5c8 .LASF2822
C:\Users\CYMR90~1\AppData\Local\Temp\ccbtsgth.s:30868  .debug_str:000000000002c32d .LASF2823
C:\Users\CYMR90~1\AppData\Local\Temp\ccbtsgth.s:27628  .debug_str:000000000001f692 .LASF2824
C:\Users\CYMR90~1\AppData\Local\Temp\ccbtsgth.s:29568  .debug_str:0000000000026f44 .LASF2825
C:\Users\CYMR90~1\AppData\Local\Temp\ccbtsgth.s:25614  .debug_str:0000000000017542 .LASF2826
C:\Users\CYMR90~1\AppData\Local\Temp\ccbtsgth.s:22777  .debug_str:000000000000c002 .LASF2827
C:\Users\CYMR90~1\AppData\Local\Temp\ccbtsgth.s:26226  .debug_str:0000000000019d03 .LASF2828
C:\Users\CYMR90~1\AppData\Local\Temp\ccbtsgth.s:25047  .debug_str:0000000000014fa4 .LASF2829
C:\Users\CYMR90~1\AppData\Local\Temp\ccbtsgth.s:25970  .debug_str:0000000000018c71 .LASF2830
C:\Users\CYMR90~1\AppData\Local\Temp\ccbtsgth.s:27662  .debug_str:000000000001f8ae .LASF2831
C:\Users\CYMR90~1\AppData\Local\Temp\ccbtsgth.s:28912  .debug_str:0000000000024497 .LASF2832
C:\Users\CYMR90~1\AppData\Local\Temp\ccbtsgth.s:26102  .debug_str:0000000000019503 .LASF2833
C:\Users\CYMR90~1\AppData\Local\Temp\ccbtsgth.s:23663  .debug_str:000000000000f7ad .LASF2834
C:\Users\CYMR90~1\AppData\Local\Temp\ccbtsgth.s:20555  .debug_str:0000000000002f07 .LASF2835
C:\Users\CYMR90~1\AppData\Local\Temp\ccbtsgth.s:23531  .debug_str:000000000000ef17 .LASF2836
C:\Users\CYMR90~1\AppData\Local\Temp\ccbtsgth.s:27852  .debug_str:00000000000203e2 .LASF2837
C:\Users\CYMR90~1\AppData\Local\Temp\ccbtsgth.s:25125  .debug_str:00000000000153cf .LASF2838
C:\Users\CYMR90~1\AppData\Local\Temp\ccbtsgth.s:21325  .debug_str:0000000000005fea .LASF2839
C:\Users\CYMR90~1\AppData\Local\Temp\ccbtsgth.s:26752  .debug_str:000000000001bf40 .LASF2840
C:\Users\CYMR90~1\AppData\Local\Temp\ccbtsgth.s:25778  .debug_str:0000000000017f8b .LASF2841
C:\Users\CYMR90~1\AppData\Local\Temp\ccbtsgth.s:20611  .debug_str:00000000000032ad .LASF2842
C:\Users\CYMR90~1\AppData\Local\Temp\ccbtsgth.s:23945  .debug_str:00000000000108df .LASF2843
C:\Users\CYMR90~1\AppData\Local\Temp\ccbtsgth.s:29832  .debug_str:0000000000028139 .LASF2844
C:\Users\CYMR90~1\AppData\Local\Temp\ccbtsgth.s:22041  .debug_str:0000000000008eed .LASF2845
C:\Users\CYMR90~1\AppData\Local\Temp\ccbtsgth.s:21125  .debug_str:00000000000053f9 .LASF2846
C:\Users\CYMR90~1\AppData\Local\Temp\ccbtsgth.s:20197  .debug_str:000000000000194a .LASF2847
C:\Users\CYMR90~1\AppData\Local\Temp\ccbtsgth.s:30544  .debug_str:000000000002ad3c .LASF2848
C:\Users\CYMR90~1\AppData\Local\Temp\ccbtsgth.s:28118  .debug_str:00000000000214fb .LASF2849
C:\Users\CYMR90~1\AppData\Local\Temp\ccbtsgth.s:27148  .debug_str:000000000001d928 .LASF2850
C:\Users\CYMR90~1\AppData\Local\Temp\ccbtsgth.s:26304  .debug_str:000000000001a143 .LASF2851
C:\Users\CYMR90~1\AppData\Local\Temp\ccbtsgth.s:25295  .debug_str:0000000000015f12 .LASF2852
C:\Users\CYMR90~1\AppData\Local\Temp\ccbtsgth.s:24345  .debug_str:00000000000122c7 .LASF2853
C:\Users\CYMR90~1\AppData\Local\Temp\ccbtsgth.s:23413  .debug_str:000000000000e7da .LASF2854
C:\Users\CYMR90~1\AppData\Local\Temp\ccbtsgth.s:27870  .debug_str:0000000000020546 .LASF2855
C:\Users\CYMR90~1\AppData\Local\Temp\ccbtsgth.s:29516  .debug_str:0000000000026c2d .LASF2856
C:\Users\CYMR90~1\AppData\Local\Temp\ccbtsgth.s:29312  .debug_str:0000000000025ffb .LASF2857
C:\Users\CYMR90~1\AppData\Local\Temp\ccbtsgth.s:23849  .debug_str:000000000001030c .LASF2858
C:\Users\CYMR90~1\AppData\Local\Temp\ccbtsgth.s:22463  .debug_str:000000000000aa0f .LASF2859
C:\Users\CYMR90~1\AppData\Local\Temp\ccbtsgth.s:21631  .debug_str:0000000000007381 .LASF2860
C:\Users\CYMR90~1\AppData\Local\Temp\ccbtsgth.s:28206  .debug_str:0000000000021a33 .LASF2861
C:\Users\CYMR90~1\AppData\Local\Temp\ccbtsgth.s:28588  .debug_str:000000000002307f .LASF2862
C:\Users\CYMR90~1\AppData\Local\Temp\ccbtsgth.s:22907  .debug_str:000000000000c836 .LASF2863
C:\Users\CYMR90~1\AppData\Local\Temp\ccbtsgth.s:30640  .debug_str:000000000002b3a8 .LASF2864
C:\Users\CYMR90~1\AppData\Local\Temp\ccbtsgth.s:20975  .debug_str:0000000000004af1 .LASF2865
C:\Users\CYMR90~1\AppData\Local\Temp\ccbtsgth.s:20165  .debug_str:000000000000169a .LASF2866
C:\Users\CYMR90~1\AppData\Local\Temp\ccbtsgth.s:21353  .debug_str:00000000000061a8 .LASF2867
C:\Users\CYMR90~1\AppData\Local\Temp\ccbtsgth.s:20491  .debug_str:0000000000002b31 .LASF2868
C:\Users\CYMR90~1\AppData\Local\Temp\ccbtsgth.s:30940  .debug_str:000000000002c7bd .LASF2869
C:\Users\CYMR90~1\AppData\Local\Temp\ccbtsgth.s:29870  .debug_str:00000000000283e5 .LASF2870
C:\Users\CYMR90~1\AppData\Local\Temp\ccbtsgth.s:20945  .debug_str:000000000000491a .LASF2871
C:\Users\CYMR90~1\AppData\Local\Temp\ccbtsgth.s:26732  .debug_str:000000000001be06 .LASF2872
C:\Users\CYMR90~1\AppData\Local\Temp\ccbtsgth.s:30688  .debug_str:000000000002b6c6 .LASF2873
C:\Users\CYMR90~1\AppData\Local\Temp\ccbtsgth.s:27032  .debug_str:000000000001d1fc .LASF2874
C:\Users\CYMR90~1\AppData\Local\Temp\ccbtsgth.s:19893  .debug_str:000000000000057d .LASF2875
C:\Users\CYMR90~1\AppData\Local\Temp\ccbtsgth.s:24519  .debug_str:0000000000012e3f .LASF2876
C:\Users\CYMR90~1\AppData\Local\Temp\ccbtsgth.s:29260  .debug_str:0000000000025c74 .LASF2877
C:\Users\CYMR90~1\AppData\Local\Temp\ccbtsgth.s:24425  .debug_str:0000000000012806 .LASF2878
C:\Users\CYMR90~1\AppData\Local\Temp\ccbtsgth.s:21345  .debug_str:0000000000006121 .LASF2879
C:\Users\CYMR90~1\AppData\Local\Temp\ccbtsgth.s:21925  .debug_str:000000000000873a .LASF2880
C:\Users\CYMR90~1\AppData\Local\Temp\ccbtsgth.s:24193  .debug_str:0000000000011922 .LASF2881
C:\Users\CYMR90~1\AppData\Local\Temp\ccbtsgth.s:22773  .debug_str:000000000000bfd0 .LASF2882
C:\Users\CYMR90~1\AppData\Local\Temp\ccbtsgth.s:26602  .debug_str:000000000001b5f8 .LASF2883
C:\Users\CYMR90~1\AppData\Local\Temp\ccbtsgth.s:23119  .debug_str:000000000000d67c .LASF2884
C:\Users\CYMR90~1\AppData\Local\Temp\ccbtsgth.s:22113  .debug_str:00000000000092e7 .LASF2885
C:\Users\CYMR90~1\AppData\Local\Temp\ccbtsgth.s:28964  .debug_str:000000000002486e .LASF2886
C:\Users\CYMR90~1\AppData\Local\Temp\ccbtsgth.s:24233  .debug_str:0000000000011b74 .LASF2887
C:\Users\CYMR90~1\AppData\Local\Temp\ccbtsgth.s:28558  .debug_str:0000000000022f05 .LASF2888
C:\Users\CYMR90~1\AppData\Local\Temp\ccbtsgth.s:22449  .debug_str:000000000000a951 .LASF2889
C:\Users\CYMR90~1\AppData\Local\Temp\ccbtsgth.s:29108  .debug_str:0000000000025257 .LASF2890
C:\Users\CYMR90~1\AppData\Local\Temp\ccbtsgth.s:29482  .debug_str:00000000000269ed .LASF2891
C:\Users\CYMR90~1\AppData\Local\Temp\ccbtsgth.s:23149  .debug_str:000000000000d7e6 .LASF2892
C:\Users\CYMR90~1\AppData\Local\Temp\ccbtsgth.s:25570  .debug_str:000000000001724b .LASF2893
C:\Users\CYMR90~1\AppData\Local\Temp\ccbtsgth.s:22761  .debug_str:000000000000bee8 .LASF2894
C:\Users\CYMR90~1\AppData\Local\Temp\ccbtsgth.s:27834  .debug_str:00000000000202b9 .LASF2895
C:\Users\CYMR90~1\AppData\Local\Temp\ccbtsgth.s:23441  .debug_str:000000000000e9b6 .LASF2896
C:\Users\CYMR90~1\AppData\Local\Temp\ccbtsgth.s:20041  .debug_str:0000000000000f71 .LASF2897
C:\Users\CYMR90~1\AppData\Local\Temp\ccbtsgth.s:30680  .debug_str:000000000002b654 .LASF2898
C:\Users\CYMR90~1\AppData\Local\Temp\ccbtsgth.s:30276  .debug_str:0000000000029d15 .LASF2899
C:\Users\CYMR90~1\AppData\Local\Temp\ccbtsgth.s:20589  .debug_str:000000000000313d .LASF2900
C:\Users\CYMR90~1\AppData\Local\Temp\ccbtsgth.s:20169  .debug_str:00000000000016e5 .LASF2901
C:\Users\CYMR90~1\AppData\Local\Temp\ccbtsgth.s:27274  .debug_str:000000000001e154 .LASF2902
C:\Users\CYMR90~1\AppData\Local\Temp\ccbtsgth.s:27668  .debug_str:000000000001f8f8 .LASF2903
C:\Users\CYMR90~1\AppData\Local\Temp\ccbtsgth.s:29620  .debug_str:00000000000272ed .LASF2904
C:\Users\CYMR90~1\AppData\Local\Temp\ccbtsgth.s:24825  .debug_str:0000000000014128 .LASF2905
C:\Users\CYMR90~1\AppData\Local\Temp\ccbtsgth.s:25399  .debug_str:0000000000016541 .LASF2906
C:\Users\CYMR90~1\AppData\Local\Temp\ccbtsgth.s:21615  .debug_str:000000000000729b .LASF2907
C:\Users\CYMR90~1\AppData\Local\Temp\ccbtsgth.s:27654  .debug_str:000000000001f80f .LASF2908
C:\Users\CYMR90~1\AppData\Local\Temp\ccbtsgth.s:27604  .debug_str:000000000001f535 .LASF2909
C:\Users\CYMR90~1\AppData\Local\Temp\ccbtsgth.s:26706  .debug_str:000000000001bc37 .LASF2910
C:\Users\CYMR90~1\AppData\Local\Temp\ccbtsgth.s:20455  .debug_str:00000000000028bb .LASF2911
C:\Users\CYMR90~1\AppData\Local\Temp\ccbtsgth.s:29128  .debug_str:0000000000025394 .LASF2912
C:\Users\CYMR90~1\AppData\Local\Temp\ccbtsgth.s:21735  .debug_str:0000000000007a3f .LASF2913
C:\Users\CYMR90~1\AppData\Local\Temp\ccbtsgth.s:20793  .debug_str:0000000000003e7e .LASF2914
C:\Users\CYMR90~1\AppData\Local\Temp\ccbtsgth.s:20539  .debug_str:0000000000002e0a .LASF2915
C:\Users\CYMR90~1\AppData\Local\Temp\ccbtsgth.s:21939  .debug_str:0000000000008846 .LASF2916
C:\Users\CYMR90~1\AppData\Local\Temp\ccbtsgth.s:27264  .debug_str:000000000001e0a6 .LASF2917
C:\Users\CYMR90~1\AppData\Local\Temp\ccbtsgth.s:22751  .debug_str:000000000000be3e .LASF2918
C:\Users\CYMR90~1\AppData\Local\Temp\ccbtsgth.s:22319  .debug_str:000000000000a02e .LASF2919
C:\Users\CYMR90~1\AppData\Local\Temp\ccbtsgth.s:23949  .debug_str:0000000000010924 .LASF2920
C:\Users\CYMR90~1\AppData\Local\Temp\ccbtsgth.s:29558  .debug_str:0000000000026e7f .LASF2921
C:\Users\CYMR90~1\AppData\Local\Temp\ccbtsgth.s:23273  .debug_str:000000000000df65 .LASF2922
C:\Users\CYMR90~1\AppData\Local\Temp\ccbtsgth.s:26484  .debug_str:000000000001aeaf .LASF2923
C:\Users\CYMR90~1\AppData\Local\Temp\ccbtsgth.s:26130  .debug_str:0000000000019682 .LASF2924
C:\Users\CYMR90~1\AppData\Local\Temp\ccbtsgth.s:26406  .debug_str:000000000001a964 .LASF2925
C:\Users\CYMR90~1\AppData\Local\Temp\ccbtsgth.s:27856  .debug_str:0000000000020424 .LASF2926
C:\Users\CYMR90~1\AppData\Local\Temp\ccbtsgth.s:25684  .debug_str:00000000000179f2 .LASF2927
C:\Users\CYMR90~1\AppData\Local\Temp\ccbtsgth.s:29864  .debug_str:0000000000028373 .LASF2928
C:\Users\CYMR90~1\AppData\Local\Temp\ccbtsgth.s:27368  .debug_str:000000000001e73e .LASF2929
C:\Users\CYMR90~1\AppData\Local\Temp\ccbtsgth.s:26684  .debug_str:000000000001ba97 .LASF2930
C:\Users\CYMR90~1\AppData\Local\Temp\ccbtsgth.s:23209  .debug_str:000000000000db57 .LASF2931
C:\Users\CYMR90~1\AppData\Local\Temp\ccbtsgth.s:20311  .debug_str:0000000000002019 .LASF2932
C:\Users\CYMR90~1\AppData\Local\Temp\ccbtsgth.s:22279  .debug_str:0000000000009da4 .LASF2933
C:\Users\CYMR90~1\AppData\Local\Temp\ccbtsgth.s:23505  .debug_str:000000000000ed9b .LASF2934
C:\Users\CYMR90~1\AppData\Local\Temp\ccbtsgth.s:29394  .debug_str:00000000000264c2 .LASF2935
C:\Users\CYMR90~1\AppData\Local\Temp\ccbtsgth.s:29746  .debug_str:0000000000027af3 .LASF2936
C:\Users\CYMR90~1\AppData\Local\Temp\ccbtsgth.s:25766  .debug_str:0000000000017ef9 .LASF2937
C:\Users\CYMR90~1\AppData\Local\Temp\ccbtsgth.s:28506  .debug_str:0000000000022c32 .LASF2938
C:\Users\CYMR90~1\AppData\Local\Temp\ccbtsgth.s:20155  .debug_str:00000000000015df .LASF2939
C:\Users\CYMR90~1\AppData\Local\Temp\ccbtsgth.s:20449  .debug_str:000000000000285f .LASF2940
C:\Users\CYMR90~1\AppData\Local\Temp\ccbtsgth.s:27288  .debug_str:000000000001e20c .LASF2941
C:\Users\CYMR90~1\AppData\Local\Temp\ccbtsgth.s:21329  .debug_str:0000000000006054 .LASF2942
C:\Users\CYMR90~1\AppData\Local\Temp\ccbtsgth.s:29310  .debug_str:0000000000025fd7 .LASF2943
C:\Users\CYMR90~1\AppData\Local\Temp\ccbtsgth.s:23109  .debug_str:000000000000d5c4 .LASF2944
C:\Users\CYMR90~1\AppData\Local\Temp\ccbtsgth.s:28076  .debug_str:00000000000211b5 .LASF2945
C:\Users\CYMR90~1\AppData\Local\Temp\ccbtsgth.s:28116  .debug_str:00000000000214d6 .LASF2946
C:\Users\CYMR90~1\AppData\Local\Temp\ccbtsgth.s:22299  .debug_str:0000000000009ece .LASF2947
C:\Users\CYMR90~1\AppData\Local\Temp\ccbtsgth.s:22953  .debug_str:000000000000cb67 .LASF2948
C:\Users\CYMR90~1\AppData\Local\Temp\ccbtsgth.s:29968  .debug_str:0000000000028a15 .LASF2949
C:\Users\CYMR90~1\AppData\Local\Temp\ccbtsgth.s:20869  .debug_str:0000000000004395 .LASF2950
C:\Users\CYMR90~1\AppData\Local\Temp\ccbtsgth.s:23967  .debug_str:0000000000010ab4 .LASF2951
C:\Users\CYMR90~1\AppData\Local\Temp\ccbtsgth.s:22905  .debug_str:000000000000c81f .LASF2952
C:\Users\CYMR90~1\AppData\Local\Temp\ccbtsgth.s:21915  .debug_str:0000000000008696 .LASF2953
C:\Users\CYMR90~1\AppData\Local\Temp\ccbtsgth.s:22719  .debug_str:000000000000bbab .LASF2954
C:\Users\CYMR90~1\AppData\Local\Temp\ccbtsgth.s:22667  .debug_str:000000000000b831 .LASF2955
C:\Users\CYMR90~1\AppData\Local\Temp\ccbtsgth.s:23517  .debug_str:000000000000ee42 .LASF2956
C:\Users\CYMR90~1\AppData\Local\Temp\ccbtsgth.s:29478  .debug_str:00000000000269b4 .LASF2957
C:\Users\CYMR90~1\AppData\Local\Temp\ccbtsgth.s:26142  .debug_str:000000000001975c .LASF2958
C:\Users\CYMR90~1\AppData\Local\Temp\ccbtsgth.s:29044  .debug_str:0000000000024d6e .LASF2959
C:\Users\CYMR90~1\AppData\Local\Temp\ccbtsgth.s:27400  .debug_str:000000000001e941 .LASF2960
C:\Users\CYMR90~1\AppData\Local\Temp\ccbtsgth.s:29598  .debug_str:00000000000271dc .LASF2961
C:\Users\CYMR90~1\AppData\Local\Temp\ccbtsgth.s:25954  .debug_str:0000000000018ad2 .LASF2962
C:\Users\CYMR90~1\AppData\Local\Temp\ccbtsgth.s:28772  .debug_str:0000000000023b62 .LASF2963
C:\Users\CYMR90~1\AppData\Local\Temp\ccbtsgth.s:30952  .debug_str:000000000002c8a5 .LASF2964
C:\Users\CYMR90~1\AppData\Local\Temp\ccbtsgth.s:25107  .debug_str:00000000000152d3 .LASF2965
C:\Users\CYMR90~1\AppData\Local\Temp\ccbtsgth.s:28910  .debug_str:0000000000024480 .LASF2966
C:\Users\CYMR90~1\AppData\Local\Temp\ccbtsgth.s:22331  .debug_str:000000000000a0f4 .LASF2967
C:\Users\CYMR90~1\AppData\Local\Temp\ccbtsgth.s:20251  .debug_str:0000000000001c99 .LASF2968
C:\Users\CYMR90~1\AppData\Local\Temp\ccbtsgth.s:21351  .debug_str:000000000000618f .LASF2969
C:\Users\CYMR90~1\AppData\Local\Temp\ccbtsgth.s:26564  .debug_str:000000000001b3bd .LASF2970
C:\Users\CYMR90~1\AppData\Local\Temp\ccbtsgth.s:20801  .debug_str:0000000000003eed .LASF2971
C:\Users\CYMR90~1\AppData\Local\Temp\ccbtsgth.s:22051  .debug_str:0000000000008f8f .LASF2972
C:\Users\CYMR90~1\AppData\Local\Temp\ccbtsgth.s:21105  .debug_str:00000000000052c4 .LASF2973
C:\Users\CYMR90~1\AppData\Local\Temp\ccbtsgth.s:30440  .debug_str:000000000002a6ff .LASF2974
C:\Users\CYMR90~1\AppData\Local\Temp\ccbtsgth.s:22785  .debug_str:000000000000c072 .LASF2975
C:\Users\CYMR90~1\AppData\Local\Temp\ccbtsgth.s:20721  .debug_str:00000000000039d1 .LASF2976
C:\Users\CYMR90~1\AppData\Local\Temp\ccbtsgth.s:20053  .debug_str:0000000000001015 .LASF2977
C:\Users\CYMR90~1\AppData\Local\Temp\ccbtsgth.s:22497  .debug_str:000000000000ac6a .LASF2978
C:\Users\CYMR90~1\AppData\Local\Temp\ccbtsgth.s:21627  .debug_str:000000000000733a .LASF2979
C:\Users\CYMR90~1\AppData\Local\Temp\ccbtsgth.s:26542  .debug_str:000000000001b276 .LASF2980
C:\Users\CYMR90~1\AppData\Local\Temp\ccbtsgth.s:21237  .debug_str:0000000000005ad6 .LASF2981
C:\Users\CYMR90~1\AppData\Local\Temp\ccbtsgth.s:20647  .debug_str:000000000000350a .LASF2982
C:\Users\CYMR90~1\AppData\Local\Temp\ccbtsgth.s:24363  .debug_str:0000000000012403 .LASF2983
C:\Users\CYMR90~1\AppData\Local\Temp\ccbtsgth.s:28376  .debug_str:0000000000022401 .LASF2984
C:\Users\CYMR90~1\AppData\Local\Temp\ccbtsgth.s:29730  .debug_str:00000000000279cf .LASF2985
C:\Users\CYMR90~1\AppData\Local\Temp\ccbtsgth.s:25758  .debug_str:0000000000017e93 .LASF2986
C:\Users\CYMR90~1\AppData\Local\Temp\ccbtsgth.s:24577  .debug_str:0000000000013229 .LASF2987
C:\Users\CYMR90~1\AppData\Local\Temp\ccbtsgth.s:28374  .debug_str:00000000000223e8 .LASF2988
C:\Users\CYMR90~1\AppData\Local\Temp\ccbtsgth.s:30176  .debug_str:0000000000029739 .LASF2989
C:\Users\CYMR90~1\AppData\Local\Temp\ccbtsgth.s:26398  .debug_str:000000000001a8f8 .LASF2990
C:\Users\CYMR90~1\AppData\Local\Temp\ccbtsgth.s:21495  .debug_str:0000000000006a98 .LASF2991
C:\Users\CYMR90~1\AppData\Local\Temp\ccbtsgth.s:21111  .debug_str:0000000000005308 .LASF2992
C:\Users\CYMR90~1\AppData\Local\Temp\ccbtsgth.s:27312  .debug_str:000000000001e392 .LASF2993
C:\Users\CYMR90~1\AppData\Local\Temp\ccbtsgth.s:23335  .debug_str:000000000000e2ec .LASF2994
C:\Users\CYMR90~1\AppData\Local\Temp\ccbtsgth.s:28576  .debug_str:0000000000022fce .LASF2995
C:\Users\CYMR90~1\AppData\Local\Temp\ccbtsgth.s:25620  .debug_str:00000000000175c6 .LASF2996
C:\Users\CYMR90~1\AppData\Local\Temp\ccbtsgth.s:29026  .debug_str:0000000000024c42 .LASF2997
C:\Users\CYMR90~1\AppData\Local\Temp\ccbtsgth.s:28416  .debug_str:000000000002269d .LASF2998
C:\Users\CYMR90~1\AppData\Local\Temp\ccbtsgth.s:25680  .debug_str:00000000000179c9 .LASF2999
C:\Users\CYMR90~1\AppData\Local\Temp\ccbtsgth.s:30616  .debug_str:000000000002b1e1 .LASF3000
C:\Users\CYMR90~1\AppData\Local\Temp\ccbtsgth.s:30922  .debug_str:000000000002c673 .LASF3001
C:\Users\CYMR90~1\AppData\Local\Temp\ccbtsgth.s:29328  .debug_str:00000000000260d3 .LASF3002
C:\Users\CYMR90~1\AppData\Local\Temp\ccbtsgth.s:20755  .debug_str:0000000000003be7 .LASF3003
C:\Users\CYMR90~1\AppData\Local\Temp\ccbtsgth.s:23545  .debug_str:000000000000efe1 .LASF3004
C:\Users\CYMR90~1\AppData\Local\Temp\ccbtsgth.s:20725  .debug_str:0000000000003a02 .LASF3005
C:\Users\CYMR90~1\AppData\Local\Temp\ccbtsgth.s:24083  .debug_str:0000000000011140 .LASF3006
C:\Users\CYMR90~1\AppData\Local\Temp\ccbtsgth.s:23905  .debug_str:000000000001064d .LASF3007
C:\Users\CYMR90~1\AppData\Local\Temp\ccbtsgth.s:21465  .debug_str:00000000000068b1 .LASF3008
C:\Users\CYMR90~1\AppData\Local\Temp\ccbtsgth.s:24279  .debug_str:0000000000011ec2 .LASF3009
C:\Users\CYMR90~1\AppData\Local\Temp\ccbtsgth.s:23947  .debug_str:0000000000010907 .LASF3010
C:\Users\CYMR90~1\AppData\Local\Temp\ccbtsgth.s:21715  .debug_str:00000000000078da .LASF3011
C:\Users\CYMR90~1\AppData\Local\Temp\ccbtsgth.s:22401  .debug_str:000000000000a56b .LASF3012
C:\Users\CYMR90~1\AppData\Local\Temp\ccbtsgth.s:24765  .debug_str:0000000000013da0 .LASF3013
C:\Users\CYMR90~1\AppData\Local\Temp\ccbtsgth.s:27320  .debug_str:000000000001e401 .LASF3014
C:\Users\CYMR90~1\AppData\Local\Temp\ccbtsgth.s:20907  .debug_str:0000000000004639 .LASF3015
C:\Users\CYMR90~1\AppData\Local\Temp\ccbtsgth.s:27854  .debug_str:000000000002040e .LASF3016
C:\Users\CYMR90~1\AppData\Local\Temp\ccbtsgth.s:28216  .debug_str:0000000000021ad8 .LASF3017
C:\Users\CYMR90~1\AppData\Local\Temp\ccbtsgth.s:22205  .debug_str:00000000000098e9 .LASF3018
C:\Users\CYMR90~1\AppData\Local\Temp\ccbtsgth.s:21541  .debug_str:0000000000006d92 .LASF3019
C:\Users\CYMR90~1\AppData\Local\Temp\ccbtsgth.s:22065  .debug_str:000000000000902b .LASF3020
C:\Users\CYMR90~1\AppData\Local\Temp\ccbtsgth.s:20517  .debug_str:0000000000002cd3 .LASF3021
C:\Users\CYMR90~1\AppData\Local\Temp\ccbtsgth.s:20317  .debug_str:0000000000002070 .LASF3022
C:\Users\CYMR90~1\AppData\Local\Temp\ccbtsgth.s:21335  .debug_str:00000000000060a7 .LASF3023
C:\Users\CYMR90~1\AppData\Local\Temp\ccbtsgth.s:19927  .debug_str:000000000000078e .LASF3024
C:\Users\CYMR90~1\AppData\Local\Temp\ccbtsgth.s:20913  .debug_str:00000000000046b6 .LASF3025
C:\Users\CYMR90~1\AppData\Local\Temp\ccbtsgth.s:28316  .debug_str:00000000000220d0 .LASF3026
C:\Users\CYMR90~1\AppData\Local\Temp\ccbtsgth.s:24355  .debug_str:0000000000012377 .LASF3027
C:\Users\CYMR90~1\AppData\Local\Temp\ccbtsgth.s:27938  .debug_str:0000000000020998 .LASF3028
C:\Users\CYMR90~1\AppData\Local\Temp\ccbtsgth.s:19863  .debug_str:00000000000003e3 .LASF3029
C:\Users\CYMR90~1\AppData\Local\Temp\ccbtsgth.s:27538  .debug_str:000000000001f160 .LASF3030
C:\Users\CYMR90~1\AppData\Local\Temp\ccbtsgth.s:26386  .debug_str:000000000001a836 .LASF3031
C:\Users\CYMR90~1\AppData\Local\Temp\ccbtsgth.s:27310  .debug_str:000000000001e372 .LASF3032
C:\Users\CYMR90~1\AppData\Local\Temp\ccbtsgth.s:26888  .debug_str:000000000001c7ea .LASF3033
C:\Users\CYMR90~1\AppData\Local\Temp\ccbtsgth.s:25742  .debug_str:0000000000017da2 .LASF3034
C:\Users\CYMR90~1\AppData\Local\Temp\ccbtsgth.s:24241  .debug_str:0000000000011beb .LASF3035
C:\Users\CYMR90~1\AppData\Local\Temp\ccbtsgth.s:24235  .debug_str:0000000000011b94 .LASF3036
C:\Users\CYMR90~1\AppData\Local\Temp\ccbtsgth.s:27178  .debug_str:000000000001dacf .LASF3037
C:\Users\CYMR90~1\AppData\Local\Temp\ccbtsgth.s:30872  .debug_str:000000000002c38e .LASF3038
C:\Users\CYMR90~1\AppData\Local\Temp\ccbtsgth.s:26150  .debug_str:000000000001982d .LASF3039
C:\Users\CYMR90~1\AppData\Local\Temp\ccbtsgth.s:27568  .debug_str:000000000001f321 .LASF3040
C:\Users\CYMR90~1\AppData\Local\Temp\ccbtsgth.s:28956  .debug_str:000000000002480c .LASF3041
C:\Users\CYMR90~1\AppData\Local\Temp\ccbtsgth.s:30344  .debug_str:000000000002a0dc .LASF3042
C:\Users\CYMR90~1\AppData\Local\Temp\ccbtsgth.s:24131  .debug_str:0000000000011434 .LASF3043
C:\Users\CYMR90~1\AppData\Local\Temp\ccbtsgth.s:27130  .debug_str:000000000001d829 .LASF3044
C:\Users\CYMR90~1\AppData\Local\Temp\ccbtsgth.s:23239  .debug_str:000000000000dd3a .LASF3045
C:\Users\CYMR90~1\AppData\Local\Temp\ccbtsgth.s:30112  .debug_str:0000000000029367 .LASF3046
C:\Users\CYMR90~1\AppData\Local\Temp\ccbtsgth.s:21639  .debug_str:00000000000073f1 .LASF3047
C:\Users\CYMR90~1\AppData\Local\Temp\ccbtsgth.s:30390  .debug_str:000000000002a3fd .LASF3048
C:\Users\CYMR90~1\AppData\Local\Temp\ccbtsgth.s:29178  .debug_str:000000000002577b .LASF3049
C:\Users\CYMR90~1\AppData\Local\Temp\ccbtsgth.s:20683  .debug_str:000000000000375b .LASF3050
C:\Users\CYMR90~1\AppData\Local\Temp\ccbtsgth.s:23841  .debug_str:0000000000010295 .LASF3051
C:\Users\CYMR90~1\AppData\Local\Temp\ccbtsgth.s:29836  .debug_str:0000000000028187 .LASF3052
C:\Users\CYMR90~1\AppData\Local\Temp\ccbtsgth.s:24303  .debug_str:000000000001202e .LASF3053
C:\Users\CYMR90~1\AppData\Local\Temp\ccbtsgth.s:22461  .debug_str:000000000000a9f0 .LASF3054
C:\Users\CYMR90~1\AppData\Local\Temp\ccbtsgth.s:30672  .debug_str:000000000002b5c0 .LASF3055
C:\Users\CYMR90~1\AppData\Local\Temp\ccbtsgth.s:22547  .debug_str:000000000000b065 .LASF3056
C:\Users\CYMR90~1\AppData\Local\Temp\ccbtsgth.s:28244  .debug_str:0000000000021c9f .LASF3057
C:\Users\CYMR90~1\AppData\Local\Temp\ccbtsgth.s:30418  .debug_str:000000000002a5b5 .LASF3058
C:\Users\CYMR90~1\AppData\Local\Temp\ccbtsgth.s:25948  .debug_str:0000000000018a49 .LASF3059
C:\Users\CYMR90~1\AppData\Local\Temp\ccbtsgth.s:30462  .debug_str:000000000002a824 .LASF3060
C:\Users\CYMR90~1\AppData\Local\Temp\ccbtsgth.s:28042  .debug_str:0000000000020fb1 .LASF3061
C:\Users\CYMR90~1\AppData\Local\Temp\ccbtsgth.s:29412  .debug_str:00000000000265f7 .LASF3062
C:\Users\CYMR90~1\AppData\Local\Temp\ccbtsgth.s:23085  .debug_str:000000000000d404 .LASF3063
C:\Users\CYMR90~1\AppData\Local\Temp\ccbtsgth.s:28798  .debug_str:0000000000023cca .LASF3064
C:\Users\CYMR90~1\AppData\Local\Temp\ccbtsgth.s:24893  .debug_str:00000000000145b9 .LASF3065
C:\Users\CYMR90~1\AppData\Local\Temp\ccbtsgth.s:23739  .debug_str:000000000000fc54 .LASF3066
C:\Users\CYMR90~1\AppData\Local\Temp\ccbtsgth.s:26876  .debug_str:000000000001c680 .LASF3067
C:\Users\CYMR90~1\AppData\Local\Temp\ccbtsgth.s:29668  .debug_str:0000000000027585 .LASF3068
C:\Users\CYMR90~1\AppData\Local\Temp\ccbtsgth.s:20705  .debug_str:00000000000038a4 .LASF3069
C:\Users\CYMR90~1\AppData\Local\Temp\ccbtsgth.s:28406  .debug_str:0000000000022604 .LASF3070
C:\Users\CYMR90~1\AppData\Local\Temp\ccbtsgth.s:29846  .debug_str:000000000002822b .LASF3071
C:\Users\CYMR90~1\AppData\Local\Temp\ccbtsgth.s:20125  .debug_str:0000000000001450 .LASF3072
C:\Users\CYMR90~1\AppData\Local\Temp\ccbtsgth.s:28288  .debug_str:0000000000021f0d .LASF3073
C:\Users\CYMR90~1\AppData\Local\Temp\ccbtsgth.s:25085  .debug_str:0000000000015198 .LASF3074
C:\Users\CYMR90~1\AppData\Local\Temp\ccbtsgth.s:22047  .debug_str:0000000000008f50 .LASF3075
C:\Users\CYMR90~1\AppData\Local\Temp\ccbtsgth.s:27014  .debug_str:000000000001d0fd .LASF3076
C:\Users\CYMR90~1\AppData\Local\Temp\ccbtsgth.s:24445  .debug_str:000000000001295b .LASF3077
C:\Users\CYMR90~1\AppData\Local\Temp\ccbtsgth.s:22525  .debug_str:000000000000ae1e .LASF3078
C:\Users\CYMR90~1\AppData\Local\Temp\ccbtsgth.s:26946  .debug_str:000000000001cb94 .LASF3079
C:\Users\CYMR90~1\AppData\Local\Temp\ccbtsgth.s:29048  .debug_str:0000000000024da2 .LASF3080
C:\Users\CYMR90~1\AppData\Local\Temp\ccbtsgth.s:20995  .debug_str:0000000000004c1e .LASF3081
C:\Users\CYMR90~1\AppData\Local\Temp\ccbtsgth.s:30358  .debug_str:000000000002a1d2 .LASF3082
C:\Users\CYMR90~1\AppData\Local\Temp\ccbtsgth.s:26200  .debug_str:0000000000019b6f .LASF3083
C:\Users\CYMR90~1\AppData\Local\Temp\ccbtsgth.s:26242  .debug_str:0000000000019dcc .LASF3084
C:\Users\CYMR90~1\AppData\Local\Temp\ccbtsgth.s:26252  .debug_str:0000000000019e58 .LASF3085
C:\Users\CYMR90~1\AppData\Local\Temp\ccbtsgth.s:23185  .debug_str:000000000000da10 .LASF3086
C:\Users\CYMR90~1\AppData\Local\Temp\ccbtsgth.s:24337  .debug_str:0000000000012230 .LASF3087
C:\Users\CYMR90~1\AppData\Local\Temp\ccbtsgth.s:25195  .debug_str:0000000000015802 .LASF3088
C:\Users\CYMR90~1\AppData\Local\Temp\ccbtsgth.s:25912  .debug_str:00000000000187fd .LASF3089
C:\Users\CYMR90~1\AppData\Local\Temp\ccbtsgth.s:27768  .debug_str:000000000001ff1f .LASF3090
C:\Users\CYMR90~1\AppData\Local\Temp\ccbtsgth.s:20887  .debug_str:00000000000044ba .LASF3091
C:\Users\CYMR90~1\AppData\Local\Temp\ccbtsgth.s:23937  .debug_str:0000000000010842 .LASF3092
C:\Users\CYMR90~1\AppData\Local\Temp\ccbtsgth.s:27292  .debug_str:000000000001e253 .LASF3093
C:\Users\CYMR90~1\AppData\Local\Temp\ccbtsgth.s:24263  .debug_str:0000000000011d94 .LASF3094
C:\Users\CYMR90~1\AppData\Local\Temp\ccbtsgth.s:23689  .debug_str:000000000000f925 .LASF3095
C:\Users\CYMR90~1\AppData\Local\Temp\ccbtsgth.s:24443  .debug_str:0000000000012922 .LASF3096
C:\Users\CYMR90~1\AppData\Local\Temp\ccbtsgth.s:28514  .debug_str:0000000000022c88 .LASF3097
C:\Users\CYMR90~1\AppData\Local\Temp\ccbtsgth.s:25273  .debug_str:0000000000015d97 .LASF3098
C:\Users\CYMR90~1\AppData\Local\Temp\ccbtsgth.s:29910  .debug_str:0000000000028693 .LASF3099
C:\Users\CYMR90~1\AppData\Local\Temp\ccbtsgth.s:29684  .debug_str:0000000000027699 .LASF3100
C:\Users\CYMR90~1\AppData\Local\Temp\ccbtsgth.s:21745  .debug_str:0000000000007ae6 .LASF3101
C:\Users\CYMR90~1\AppData\Local\Temp\ccbtsgth.s:21051  .debug_str:0000000000004f6b .LASF3102
C:\Users\CYMR90~1\AppData\Local\Temp\ccbtsgth.s:24397  .debug_str:0000000000012620 .LASF3103
C:\Users\CYMR90~1\AppData\Local\Temp\ccbtsgth.s:20083  .debug_str:00000000000011dc .LASF3104
C:\Users\CYMR90~1\AppData\Local\Temp\ccbtsgth.s:20171  .debug_str:00000000000016fd .LASF3105
C:\Users\CYMR90~1\AppData\Local\Temp\ccbtsgth.s:29792  .debug_str:0000000000027e41 .LASF3106
C:\Users\CYMR90~1\AppData\Local\Temp\ccbtsgth.s:26524  .debug_str:000000000001b13d .LASF3107
C:\Users\CYMR90~1\AppData\Local\Temp\ccbtsgth.s:23005  .debug_str:000000000000ce59 .LASF3108
C:\Users\CYMR90~1\AppData\Local\Temp\ccbtsgth.s:24853  .debug_str:0000000000014316 .LASF3109
C:\Users\CYMR90~1\AppData\Local\Temp\ccbtsgth.s:20221  .debug_str:0000000000001ab0 .LASF3110
C:\Users\CYMR90~1\AppData\Local\Temp\ccbtsgth.s:23687  .debug_str:000000000000f90c .LASF3111
C:\Users\CYMR90~1\AppData\Local\Temp\ccbtsgth.s:27346  .debug_str:000000000001e5c3 .LASF3112
C:\Users\CYMR90~1\AppData\Local\Temp\ccbtsgth.s:22823  .debug_str:000000000000c2de .LASF3113
C:\Users\CYMR90~1\AppData\Local\Temp\ccbtsgth.s:22399  .debug_str:000000000000a548 .LASF3114
C:\Users\CYMR90~1\AppData\Local\Temp\ccbtsgth.s:30346  .debug_str:000000000002a0f4 .LASF3115
C:\Users\CYMR90~1\AppData\Local\Temp\ccbtsgth.s:26300  .debug_str:000000000001a101 .LASF3116
C:\Users\CYMR90~1\AppData\Local\Temp\ccbtsgth.s:27606  .debug_str:000000000001f554 .LASF3117
C:\Users\CYMR90~1\AppData\Local\Temp\ccbtsgth.s:23765  .debug_str:000000000000fe0a .LASF3118
C:\Users\CYMR90~1\AppData\Local\Temp\ccbtsgth.s:30946  .debug_str:000000000002c83f .LASF3119
C:\Users\CYMR90~1\AppData\Local\Temp\ccbtsgth.s:25668  .debug_str:0000000000017900 .LASF3120
C:\Users\CYMR90~1\AppData\Local\Temp\ccbtsgth.s:28314  .debug_str:00000000000220ac .LASF3121
C:\Users\CYMR90~1\AppData\Local\Temp\ccbtsgth.s:22707  .debug_str:000000000000bb07 .LASF3122
C:\Users\CYMR90~1\AppData\Local\Temp\ccbtsgth.s:28590  .debug_str:00000000000230ac .LASF3123
C:\Users\CYMR90~1\AppData\Local\Temp\ccbtsgth.s:24731  .debug_str:0000000000013b38 .LASF3124
C:\Users\CYMR90~1\AppData\Local\Temp\ccbtsgth.s:27494  .debug_str:000000000001ee72 .LASF3125
C:\Users\CYMR90~1\AppData\Local\Temp\ccbtsgth.s:23533  .debug_str:000000000000ef39 .LASF3126
C:\Users\CYMR90~1\AppData\Local\Temp\ccbtsgth.s:30324  .debug_str:0000000000029fed .LASF3127
C:\Users\CYMR90~1\AppData\Local\Temp\ccbtsgth.s:27110  .debug_str:000000000001d6c6 .LASF3128
C:\Users\CYMR90~1\AppData\Local\Temp\ccbtsgth.s:29926  .debug_str:00000000000287c3 .LASF3129
C:\Users\CYMR90~1\AppData\Local\Temp\ccbtsgth.s:21539  .debug_str:0000000000006d7c .LASF3130
C:\Users\CYMR90~1\AppData\Local\Temp\ccbtsgth.s:24157  .debug_str:0000000000011675 .LASF3131
C:\Users\CYMR90~1\AppData\Local\Temp\ccbtsgth.s:22091  .debug_str:00000000000091b6 .LASF3132
C:\Users\CYMR90~1\AppData\Local\Temp\ccbtsgth.s:21669  .debug_str:00000000000075bd .LASF3133
C:\Users\CYMR90~1\AppData\Local\Temp\ccbtsgth.s:31064  .debug_str:000000000002cfb7 .LASF3134
C:\Users\CYMR90~1\AppData\Local\Temp\ccbtsgth.s:20843  .debug_str:00000000000041e3 .LASF3135
C:\Users\CYMR90~1\AppData\Local\Temp\ccbtsgth.s:30590  .debug_str:000000000002afed .LASF3136
C:\Users\CYMR90~1\AppData\Local\Temp\ccbtsgth.s:23155  .debug_str:000000000000d835 .LASF3137
C:\Users\CYMR90~1\AppData\Local\Temp\ccbtsgth.s:25830  .debug_str:00000000000182d0 .LASF3138
C:\Users\CYMR90~1\AppData\Local\Temp\ccbtsgth.s:25271  .debug_str:0000000000015d7f .LASF3139
C:\Users\CYMR90~1\AppData\Local\Temp\ccbtsgth.s:28602  .debug_str:0000000000023143 .LASF3140
C:\Users\CYMR90~1\AppData\Local\Temp\ccbtsgth.s:20095  .debug_str:0000000000001282 .LASF3141
C:\Users\CYMR90~1\AppData\Local\Temp\ccbtsgth.s:21009  .debug_str:0000000000004d16 .LASF3142
C:\Users\CYMR90~1\AppData\Local\Temp\ccbtsgth.s:28468  .debug_str:0000000000022975 .LASF3143
C:\Users\CYMR90~1\AppData\Local\Temp\ccbtsgth.s:21255  .debug_str:0000000000005bfb .LASF3144
C:\Users\CYMR90~1\AppData\Local\Temp\ccbtsgth.s:27158  .debug_str:000000000001d9cd .LASF3145
C:\Users\CYMR90~1\AppData\Local\Temp\ccbtsgth.s:29204  .debug_str:0000000000025928 .LASF3146
C:\Users\CYMR90~1\AppData\Local\Temp\ccbtsgth.s:27926  .debug_str:00000000000208ef .LASF3147
C:\Users\CYMR90~1\AppData\Local\Temp\ccbtsgth.s:25175  .debug_str:00000000000156e1 .LASF3148
C:\Users\CYMR90~1\AppData\Local\Temp\ccbtsgth.s:24911  .debug_str:00000000000146d3 .LASF3149
C:\Users\CYMR90~1\AppData\Local\Temp\ccbtsgth.s:25656  .debug_str:0000000000017830 .LASF3150
C:\Users\CYMR90~1\AppData\Local\Temp\ccbtsgth.s:27824  .debug_str:000000000002022a .LASF3151
C:\Users\CYMR90~1\AppData\Local\Temp\ccbtsgth.s:21635  .debug_str:00000000000073c3 .LASF3152
C:\Users\CYMR90~1\AppData\Local\Temp\ccbtsgth.s:19857  .debug_str:000000000000038a .LASF3153
C:\Users\CYMR90~1\AppData\Local\Temp\ccbtsgth.s:29946  .debug_str:0000000000028905 .LASF3154
C:\Users\CYMR90~1\AppData\Local\Temp\ccbtsgth.s:19991  .debug_str:0000000000000bdd .LASF3155
C:\Users\CYMR90~1\AppData\Local\Temp\ccbtsgth.s:28294  .debug_str:0000000000021f81 .LASF3156
C:\Users\CYMR90~1\AppData\Local\Temp\ccbtsgth.s:25067  .debug_str:00000000000150c2 .LASF3157
C:\Users\CYMR90~1\AppData\Local\Temp\ccbtsgth.s:24711  .debug_str:0000000000013a0f .LASF3158
C:\Users\CYMR90~1\AppData\Local\Temp\ccbtsgth.s:24909  .debug_str:00000000000146b3 .LASF3159
C:\Users\CYMR90~1\AppData\Local\Temp\ccbtsgth.s:28592  .debug_str:00000000000230d2 .LASF3160
C:\Users\CYMR90~1\AppData\Local\Temp\ccbtsgth.s:26572  .debug_str:000000000001b448 .LASF3161
C:\Users\CYMR90~1\AppData\Local\Temp\ccbtsgth.s:25752  .debug_str:0000000000017e43 .LASF3162
C:\Users\CYMR90~1\AppData\Local\Temp\ccbtsgth.s:29046  .debug_str:0000000000024d84 .LASF3163
C:\Users\CYMR90~1\AppData\Local\Temp\ccbtsgth.s:23655  .debug_str:000000000000f743 .LASF3164
C:\Users\CYMR90~1\AppData\Local\Temp\ccbtsgth.s:28512  .debug_str:0000000000022c6c .LASF3165
C:\Users\CYMR90~1\AppData\Local\Temp\ccbtsgth.s:24539  .debug_str:0000000000012f71 .LASF3166
C:\Users\CYMR90~1\AppData\Local\Temp\ccbtsgth.s:27058  .debug_str:000000000001d38a .LASF3167
C:\Users\CYMR90~1\AppData\Local\Temp\ccbtsgth.s:29714  .debug_str:00000000000278c1 .LASF3168
C:\Users\CYMR90~1\AppData\Local\Temp\ccbtsgth.s:30988  .debug_str:000000000002cad3 .LASF3169
C:\Users\CYMR90~1\AppData\Local\Temp\ccbtsgth.s:28674  .debug_str:00000000000235d3 .LASF3170
C:\Users\CYMR90~1\AppData\Local\Temp\ccbtsgth.s:20771  .debug_str:0000000000003cf1 .LASF3171
C:\Users\CYMR90~1\AppData\Local\Temp\ccbtsgth.s:30662  .debug_str:000000000002b4f4 .LASF3172
C:\Users\CYMR90~1\AppData\Local\Temp\ccbtsgth.s:22555  .debug_str:000000000000b0d3 .LASF3173
C:\Users\CYMR90~1\AppData\Local\Temp\ccbtsgth.s:24705  .debug_str:00000000000139c1 .LASF3174
C:\Users\CYMR90~1\AppData\Local\Temp\ccbtsgth.s:21043  .debug_str:0000000000004f0b .LASF3175
C:\Users\CYMR90~1\AppData\Local\Temp\ccbtsgth.s:29536  .debug_str:0000000000026d69 .LASF3176
C:\Users\CYMR90~1\AppData\Local\Temp\ccbtsgth.s:21233  .debug_str:0000000000005a96 .LASF3177
C:\Users\CYMR90~1\AppData\Local\Temp\ccbtsgth.s:22649  .debug_str:000000000000b6e8 .LASF3178
C:\Users\CYMR90~1\AppData\Local\Temp\ccbtsgth.s:21171  .debug_str:00000000000056a3 .LASF3179
C:\Users\CYMR90~1\AppData\Local\Temp\ccbtsgth.s:24257  .debug_str:0000000000011d23 .LASF3180
C:\Users\CYMR90~1\AppData\Local\Temp\ccbtsgth.s:29272  .debug_str:0000000000025d22 .LASF3181
C:\Users\CYMR90~1\AppData\Local\Temp\ccbtsgth.s:24747  .debug_str:0000000000013c31 .LASF3182
C:\Users\CYMR90~1\AppData\Local\Temp\ccbtsgth.s:24851  .debug_str:00000000000142db .LASF3183
C:\Users\CYMR90~1\AppData\Local\Temp\ccbtsgth.s:31016  .debug_str:000000000002ccde .LASF3184
C:\Users\CYMR90~1\AppData\Local\Temp\ccbtsgth.s:27576  .debug_str:000000000001f398 .LASF3185
C:\Users\CYMR90~1\AppData\Local\Temp\ccbtsgth.s:22557  .debug_str:000000000000b0f3 .LASF3186
C:\Users\CYMR90~1\AppData\Local\Temp\ccbtsgth.s:21357  .debug_str:00000000000061e2 .LASF3187
C:\Users\CYMR90~1\AppData\Local\Temp\ccbtsgth.s:28650  .debug_str:0000000000023432 .LASF3188
C:\Users\CYMR90~1\AppData\Local\Temp\ccbtsgth.s:25225  .debug_str:0000000000015a24 .LASF3189
C:\Users\CYMR90~1\AppData\Local\Temp\ccbtsgth.s:21877  .debug_str:0000000000008465 .LASF3190
C:\Users\CYMR90~1\AppData\Local\Temp\ccbtsgth.s:25774  .debug_str:0000000000017f42 .LASF3191
C:\Users\CYMR90~1\AppData\Local\Temp\ccbtsgth.s:30724  .debug_str:000000000002b963 .LASF3192
C:\Users\CYMR90~1\AppData\Local\Temp\ccbtsgth.s:29278  .debug_str:0000000000025d83 .LASF3193
C:\Users\CYMR90~1\AppData\Local\Temp\ccbtsgth.s:20189  .debug_str:00000000000018c4 .LASF3194
C:\Users\CYMR90~1\AppData\Local\Temp\ccbtsgth.s:21207  .debug_str:00000000000058bf .LASF3195
C:\Users\CYMR90~1\AppData\Local\Temp\ccbtsgth.s:27354  .debug_str:000000000001e60f .LASF3196
C:\Users\CYMR90~1\AppData\Local\Temp\ccbtsgth.s:27584  .debug_str:000000000001f416 .LASF3197
C:\Users\CYMR90~1\AppData\Local\Temp\ccbtsgth.s:28696  .debug_str:0000000000023747 .LASF3198
C:\Users\CYMR90~1\AppData\Local\Temp\ccbtsgth.s:20187  .debug_str:00000000000018a3 .LASF3199
C:\Users\CYMR90~1\AppData\Local\Temp\ccbtsgth.s:25888  .debug_str:0000000000018666 .LASF3200
C:\Users\CYMR90~1\AppData\Local\Temp\ccbtsgth.s:30970  .debug_str:000000000002c9b6 .LASF3201
C:\Users\CYMR90~1\AppData\Local\Temp\ccbtsgth.s:22625  .debug_str:000000000000b4d0 .LASF3202
C:\Users\CYMR90~1\AppData\Local\Temp\ccbtsgth.s:22353  .debug_str:000000000000a258 .LASF3203
C:\Users\CYMR90~1\AppData\Local\Temp\ccbtsgth.s:20127  .debug_str:000000000000146f .LASF3204
C:\Users\CYMR90~1\AppData\Local\Temp\ccbtsgth.s:26834  .debug_str:000000000001c3fe .LASF3205
C:\Users\CYMR90~1\AppData\Local\Temp\ccbtsgth.s:22831  .debug_str:000000000000c354 .LASF3206
C:\Users\CYMR90~1\AppData\Local\Temp\ccbtsgth.s:23091  .debug_str:000000000000d46e .LASF3207
C:\Users\CYMR90~1\AppData\Local\Temp\ccbtsgth.s:30720  .debug_str:000000000002b918 .LASF3208
C:\Users\CYMR90~1\AppData\Local\Temp\ccbtsgth.s:27778  .debug_str:000000000001ffc7 .LASF3209
C:\Users\CYMR90~1\AppData\Local\Temp\ccbtsgth.s:23559  .debug_str:000000000000f0e1 .LASF3210
C:\Users\CYMR90~1\AppData\Local\Temp\ccbtsgth.s:29202  .debug_str:0000000000025900 .LASF3211
C:\Users\CYMR90~1\AppData\Local\Temp\ccbtsgth.s:28148  .debug_str:00000000000216be .LASF3212
C:\Users\CYMR90~1\AppData\Local\Temp\ccbtsgth.s:23853  .debug_str:000000000001034d .LASF3213
C:\Users\CYMR90~1\AppData\Local\Temp\ccbtsgth.s:27776  .debug_str:000000000001ffa0 .LASF3214
C:\Users\CYMR90~1\AppData\Local\Temp\ccbtsgth.s:24861  .debug_str:00000000000143b9 .LASF3215
C:\Users\CYMR90~1\AppData\Local\Temp\ccbtsgth.s:30600  .debug_str:000000000002b0c5 .LASF3216
C:\Users\CYMR90~1\AppData\Local\Temp\ccbtsgth.s:21887  .debug_str:00000000000084fc .LASF3217
C:\Users\CYMR90~1\AppData\Local\Temp\ccbtsgth.s:27806  .debug_str:0000000000020143 .LASF3218
C:\Users\CYMR90~1\AppData\Local\Temp\ccbtsgth.s:29334  .debug_str:0000000000026132 .LASF3219
C:\Users\CYMR90~1\AppData\Local\Temp\ccbtsgth.s:27882  .debug_str:000000000002060a .LASF3220
C:\Users\CYMR90~1\AppData\Local\Temp\ccbtsgth.s:22269  .debug_str:0000000000009d06 .LASF3221
C:\Users\CYMR90~1\AppData\Local\Temp\ccbtsgth.s:26132  .debug_str:00000000000196a5 .LASF3222
C:\Users\CYMR90~1\AppData\Local\Temp\ccbtsgth.s:23537  .debug_str:000000000000ef69 .LASF3223
C:\Users\CYMR90~1\AppData\Local\Temp\ccbtsgth.s:27492  .debug_str:000000000001ee54 .LASF3224
C:\Users\CYMR90~1\AppData\Local\Temp\ccbtsgth.s:25946  .debug_str:0000000000018a2a .LASF3225
C:\Users\CYMR90~1\AppData\Local\Temp\ccbtsgth.s:30524  .debug_str:000000000002ac01 .LASF3226
C:\Users\CYMR90~1\AppData\Local\Temp\ccbtsgth.s:26718  .debug_str:000000000001bd0a .LASF3227
C:\Users\CYMR90~1\AppData\Local\Temp\ccbtsgth.s:20759  .debug_str:0000000000003c35 .LASF3228
C:\Users\CYMR90~1\AppData\Local\Temp\ccbtsgth.s:22537  .debug_str:000000000000af14 .LASF3229
C:\Users\CYMR90~1\AppData\Local\Temp\ccbtsgth.s:23555  .debug_str:000000000000f093 .LASF3230
C:\Users\CYMR90~1\AppData\Local\Temp\ccbtsgth.s:28226  .debug_str:0000000000021b6a .LASF3231
C:\Users\CYMR90~1\AppData\Local\Temp\ccbtsgth.s:25445  .debug_str:000000000001691e .LASF3232
C:\Users\CYMR90~1\AppData\Local\Temp\ccbtsgth.s:27254  .debug_str:000000000001e005 .LASF3233
C:\Users\CYMR90~1\AppData\Local\Temp\ccbtsgth.s:27146  .debug_str:000000000001d901 .LASF3234
C:\Users\CYMR90~1\AppData\Local\Temp\ccbtsgth.s:28250  .debug_str:0000000000021ced .LASF3235
C:\Users\CYMR90~1\AppData\Local\Temp\ccbtsgth.s:22503  .debug_str:000000000000acd0 .LASF3236
C:\Users\CYMR90~1\AppData\Local\Temp\ccbtsgth.s:24827  .debug_str:0000000000014142 .LASF3237
C:\Users\CYMR90~1\AppData\Local\Temp\ccbtsgth.s:21303  .debug_str:0000000000005e97 .LASF3238
C:\Users\CYMR90~1\AppData\Local\Temp\ccbtsgth.s:27982  .debug_str:0000000000020c72 .LASF3239
C:\Users\CYMR90~1\AppData\Local\Temp\ccbtsgth.s:24431  .debug_str:000000000001285c .LASF3240
C:\Users\CYMR90~1\AppData\Local\Temp\ccbtsgth.s:26548  .debug_str:000000000001b2c5 .LASF3241
C:\Users\CYMR90~1\AppData\Local\Temp\ccbtsgth.s:26416  .debug_str:000000000001aa29 .LASF3242
C:\Users\CYMR90~1\AppData\Local\Temp\ccbtsgth.s:21065  .debug_str:0000000000005057 .LASF3243
C:\Users\CYMR90~1\AppData\Local\Temp\ccbtsgth.s:27846  .debug_str:0000000000020371 .LASF3244
C:\Users\CYMR90~1\AppData\Local\Temp\ccbtsgth.s:24507  .debug_str:0000000000012d64 .LASF3245
C:\Users\CYMR90~1\AppData\Local\Temp\ccbtsgth.s:28544  .debug_str:0000000000022e3e .LASF3246
C:\Users\CYMR90~1\AppData\Local\Temp\ccbtsgth.s:26878  .debug_str:000000000001c6a5 .LASF3247
C:\Users\CYMR90~1\AppData\Local\Temp\ccbtsgth.s:21573  .debug_str:0000000000006f91 .LASF3248
C:\Users\CYMR90~1\AppData\Local\Temp\ccbtsgth.s:29514  .debug_str:0000000000026c0b .LASF3249
C:\Users\CYMR90~1\AppData\Local\Temp\ccbtsgth.s:20973  .debug_str:0000000000004acd .LASF3250
C:\Users\CYMR90~1\AppData\Local\Temp\ccbtsgth.s:21301  .debug_str:0000000000005e86 .LASF3251
C:\Users\CYMR90~1\AppData\Local\Temp\ccbtsgth.s:20295  .debug_str:0000000000001f2a .LASF3252
C:\Users\CYMR90~1\AppData\Local\Temp\ccbtsgth.s:25834  .debug_str:0000000000018307 .LASF3253
C:\Users\CYMR90~1\AppData\Local\Temp\ccbtsgth.s:25550  .debug_str:000000000001711f .LASF3254
C:\Users\CYMR90~1\AppData\Local\Temp\ccbtsgth.s:26600  .debug_str:000000000001b5d6 .LASF3255
C:\Users\CYMR90~1\AppData\Local\Temp\ccbtsgth.s:26788  .debug_str:000000000001c179 .LASF3256
C:\Users\CYMR90~1\AppData\Local\Temp\ccbtsgth.s:27976  .debug_str:0000000000020c1c .LASF3257
C:\Users\CYMR90~1\AppData\Local\Temp\ccbtsgth.s:28850  .debug_str:000000000002409f .LASF3258
C:\Users\CYMR90~1\AppData\Local\Temp\ccbtsgth.s:29716  .debug_str:00000000000278d8 .LASF3259
C:\Users\CYMR90~1\AppData\Local\Temp\ccbtsgth.s:28100  .debug_str:00000000000213d2 .LASF3260
C:\Users\CYMR90~1\AppData\Local\Temp\ccbtsgth.s:29358  .debug_str:0000000000026290 .LASF3261
C:\Users\CYMR90~1\AppData\Local\Temp\ccbtsgth.s:21591  .debug_str:00000000000070ff .LASF3262
C:\Users\CYMR90~1\AppData\Local\Temp\ccbtsgth.s:26608  .debug_str:000000000001b663 .LASF3263
C:\Users\CYMR90~1\AppData\Local\Temp\ccbtsgth.s:20391  .debug_str:0000000000002462 .LASF3264
C:\Users\CYMR90~1\AppData\Local\Temp\ccbtsgth.s:29118  .debug_str:00000000000252d5 .LASF3265
C:\Users\CYMR90~1\AppData\Local\Temp\ccbtsgth.s:22835  .debug_str:000000000000c397 .LASF3266
C:\Users\CYMR90~1\AppData\Local\Temp\ccbtsgth.s:25305  .debug_str:0000000000015f9b .LASF3267
C:\Users\CYMR90~1\AppData\Local\Temp\ccbtsgth.s:29552  .debug_str:0000000000026e37 .LASF3268
C:\Users\CYMR90~1\AppData\Local\Temp\ccbtsgth.s:22491  .debug_str:000000000000abf2 .LASF3269
C:\Users\CYMR90~1\AppData\Local\Temp\ccbtsgth.s:23325  .debug_str:000000000000e271 .LASF3270
C:\Users\CYMR90~1\AppData\Local\Temp\ccbtsgth.s:20977  .debug_str:0000000000004b1c .LASF3271
C:\Users\CYMR90~1\AppData\Local\Temp\ccbtsgth.s:19985  .debug_str:0000000000000b63 .LASF3272
C:\Users\CYMR90~1\AppData\Local\Temp\ccbtsgth.s:28260  .debug_str:0000000000021d83 .LASF3273
C:\Users\CYMR90~1\AppData\Local\Temp\ccbtsgth.s:22509  .debug_str:000000000000ad25 .LASF3274
C:\Users\CYMR90~1\AppData\Local\Temp\ccbtsgth.s:20675  .debug_str:00000000000036bb .LASF3275
C:\Users\CYMR90~1\AppData\Local\Temp\ccbtsgth.s:20153  .debug_str:00000000000015c7 .LASF3276
C:\Users\CYMR90~1\AppData\Local\Temp\ccbtsgth.s:25856  .debug_str:00000000000184cd .LASF3277
C:\Users\CYMR90~1\AppData\Local\Temp\ccbtsgth.s:25327  .debug_str:00000000000160f1 .LASF3278
C:\Users\CYMR90~1\AppData\Local\Temp\ccbtsgth.s:24495  .debug_str:0000000000012c8a .LASF3279
C:\Users\CYMR90~1\AppData\Local\Temp\ccbtsgth.s:26206  .debug_str:0000000000019bd3 .LASF3280
C:\Users\CYMR90~1\AppData\Local\Temp\ccbtsgth.s:30488  .debug_str:000000000002a9b9 .LASF3281
C:\Users\CYMR90~1\AppData\Local\Temp\ccbtsgth.s:23845  .debug_str:00000000000102cf .LASF3282
C:\Users\CYMR90~1\AppData\Local\Temp\ccbtsgth.s:24413  .debug_str:0000000000012756 .LASF3283
C:\Users\CYMR90~1\AppData\Local\Temp\ccbtsgth.s:26500  .debug_str:000000000001afa6 .LASF3284
C:\Users\CYMR90~1\AppData\Local\Temp\ccbtsgth.s:29388  .debug_str:0000000000026463 .LASF3285
C:\Users\CYMR90~1\AppData\Local\Temp\ccbtsgth.s:21807  .debug_str:0000000000007feb .LASF3286
C:\Users\CYMR90~1\AppData\Local\Temp\ccbtsgth.s:20505  .debug_str:0000000000002c0b .LASF3287
C:\Users\CYMR90~1\AppData\Local\Temp\ccbtsgth.s:28188  .debug_str:00000000000218f2 .LASF3288
C:\Users\CYMR90~1\AppData\Local\Temp\ccbtsgth.s:27526  .debug_str:000000000001f0a9 .LASF3289
C:\Users\CYMR90~1\AppData\Local\Temp\ccbtsgth.s:27816  .debug_str:00000000000201be .LASF3290
C:\Users\CYMR90~1\AppData\Local\Temp\ccbtsgth.s:28342  .debug_str:0000000000022231 .LASF3291
C:\Users\CYMR90~1\AppData\Local\Temp\ccbtsgth.s:23935  .debug_str:000000000001082a .LASF3292
C:\Users\CYMR90~1\AppData\Local\Temp\ccbtsgth.s:21521  .debug_str:0000000000006c55 .LASF3293
C:\Users\CYMR90~1\AppData\Local\Temp\ccbtsgth.s:30648  .debug_str:000000000002b450 .LASF3294
C:\Users\CYMR90~1\AppData\Local\Temp\ccbtsgth.s:30476  .debug_str:000000000002a8fa .LASF3295
C:\Users\CYMR90~1\AppData\Local\Temp\ccbtsgth.s:24377  .debug_str:00000000000124e3 .LASF3296
C:\Users\CYMR90~1\AppData\Local\Temp\ccbtsgth.s:19967  .debug_str:00000000000009e1 .LASF3297
C:\Users\CYMR90~1\AppData\Local\Temp\ccbtsgth.s:29484  .debug_str:00000000000269fe .LASF3298
C:\Users\CYMR90~1\AppData\Local\Temp\ccbtsgth.s:23721  .debug_str:000000000000fb31 .LASF3299
C:\Users\CYMR90~1\AppData\Local\Temp\ccbtsgth.s:30956  .debug_str:000000000002c8d2 .LASF3300
C:\Users\CYMR90~1\AppData\Local\Temp\ccbtsgth.s:26028  .debug_str:00000000000190ae .LASF3301
C:\Users\CYMR90~1\AppData\Local\Temp\ccbtsgth.s:30586  .debug_str:000000000002afaa .LASF3302
C:\Users\CYMR90~1\AppData\Local\Temp\ccbtsgth.s:26070  .debug_str:000000000001930f .LASF3303
C:\Users\CYMR90~1\AppData\Local\Temp\ccbtsgth.s:28328  .debug_str:0000000000022181 .LASF3304
C:\Users\CYMR90~1\AppData\Local\Temp\ccbtsgth.s:27940  .debug_str:00000000000209b7 .LASF3305
C:\Users\CYMR90~1\AppData\Local\Temp\ccbtsgth.s:22929  .debug_str:000000000000c9e0 .LASF3306
C:\Users\CYMR90~1\AppData\Local\Temp\ccbtsgth.s:20565  .debug_str:0000000000002fa2 .LASF3307
C:\Users\CYMR90~1\AppData\Local\Temp\ccbtsgth.s:26380  .debug_str:000000000001a7e2 .LASF3308
C:\Users\CYMR90~1\AppData\Local\Temp\ccbtsgth.s:27610  .debug_str:000000000001f587 .LASF3309
C:\Users\CYMR90~1\AppData\Local\Temp\ccbtsgth.s:30280  .debug_str:0000000000029d52 .LASF3310
C:\Users\CYMR90~1\AppData\Local\Temp\ccbtsgth.s:29470  .debug_str:0000000000026960 .LASF3311
C:\Users\CYMR90~1\AppData\Local\Temp\ccbtsgth.s:28388  .debug_str:00000000000224d1 .LASF3312
C:\Users\CYMR90~1\AppData\Local\Temp\ccbtsgth.s:29064  .debug_str:0000000000024e91 .LASF3313
C:\Users\CYMR90~1\AppData\Local\Temp\ccbtsgth.s:27202  .debug_str:000000000001dcc5 .LASF3314
C:\Users\CYMR90~1\AppData\Local\Temp\ccbtsgth.s:27262  .debug_str:000000000001e08b .LASF3315
C:\Users\CYMR90~1\AppData\Local\Temp\ccbtsgth.s:26288  .debug_str:000000000001a04e .LASF3316
C:\Users\CYMR90~1\AppData\Local\Temp\ccbtsgth.s:19865  .debug_str:0000000000000400 .LASF3317
C:\Users\CYMR90~1\AppData\Local\Temp\ccbtsgth.s:25644  .debug_str:000000000001773b .LASF3318
C:\Users\CYMR90~1\AppData\Local\Temp\ccbtsgth.s:29248  .debug_str:0000000000025ba8 .LASF3319
C:\Users\CYMR90~1\AppData\Local\Temp\ccbtsgth.s:21093  .debug_str:0000000000005201 .LASF3320
C:\Users\CYMR90~1\AppData\Local\Temp\ccbtsgth.s:20201  .debug_str:0000000000001999 .LASF3321
C:\Users\CYMR90~1\AppData\Local\Temp\ccbtsgth.s:25183  .debug_str:000000000001574b .LASF3322
C:\Users\CYMR90~1\AppData\Local\Temp\ccbtsgth.s:26216  .debug_str:0000000000019c7a .LASF3323
C:\Users\CYMR90~1\AppData\Local\Temp\ccbtsgth.s:22183  .debug_str:0000000000009756 .LASF3324
C:\Users\CYMR90~1\AppData\Local\Temp\ccbtsgth.s:27278  .debug_str:000000000001e186 .LASF3325
C:\Users\CYMR90~1\AppData\Local\Temp\ccbtsgth.s:20287  .debug_str:0000000000001eab .LASF3326
C:\Users\CYMR90~1\AppData\Local\Temp\ccbtsgth.s:27592  .debug_str:000000000001f49f .LASF3327
C:\Users\CYMR90~1\AppData\Local\Temp\ccbtsgth.s:22159  .debug_str:00000000000095f4 .LASF3328
C:\Users\CYMR90~1\AppData\Local\Temp\ccbtsgth.s:25762  .debug_str:0000000000017ecf .LASF3329
C:\Users\CYMR90~1\AppData\Local\Temp\ccbtsgth.s:29346  .debug_str:00000000000261d8 .LASF3330
C:\Users\CYMR90~1\AppData\Local\Temp\ccbtsgth.s:23281  .debug_str:000000000000dfd6 .LASF3331
C:\Users\CYMR90~1\AppData\Local\Temp\ccbtsgth.s:27338  .debug_str:000000000001e568 .LASF3332
C:\Users\CYMR90~1\AppData\Local\Temp\ccbtsgth.s:30852  .debug_str:000000000002c1ce .LASF3333
C:\Users\CYMR90~1\AppData\Local\Temp\ccbtsgth.s:23583  .debug_str:000000000000f278 .LASF3334
C:\Users\CYMR90~1\AppData\Local\Temp\ccbtsgth.s:23029  .debug_str:000000000000d014 .LASF3335
C:\Users\CYMR90~1\AppData\Local\Temp\ccbtsgth.s:20961  .debug_str:0000000000004a17 .LASF3336
C:\Users\CYMR90~1\AppData\Local\Temp\ccbtsgth.s:27522  .debug_str:000000000001f075 .LASF3337
C:\Users\CYMR90~1\AppData\Local\Temp\ccbtsgth.s:23293  .debug_str:000000000000e08d .LASF3338
C:\Users\CYMR90~1\AppData\Local\Temp\ccbtsgth.s:30602  .debug_str:000000000002b0ec .LASF3339
C:\Users\CYMR90~1\AppData\Local\Temp\ccbtsgth.s:29672  .debug_str:00000000000275c7 .LASF3340
C:\Users\CYMR90~1\AppData\Local\Temp\ccbtsgth.s:25532  .debug_str:0000000000017002 .LASF3341
C:\Users\CYMR90~1\AppData\Local\Temp\ccbtsgth.s:27068  .debug_str:000000000001d437 .LASF3342
C:\Users\CYMR90~1\AppData\Local\Temp\ccbtsgth.s:25584  .debug_str:000000000001733c .LASF3343
C:\Users\CYMR90~1\AppData\Local\Temp\ccbtsgth.s:29082  .debug_str:0000000000025019 .LASF3344
C:\Users\CYMR90~1\AppData\Local\Temp\ccbtsgth.s:27228  .debug_str:000000000001de9a .LASF3345
C:\Users\CYMR90~1\AppData\Local\Temp\ccbtsgth.s:28150  .debug_str:00000000000216fd .LASF3346
C:\Users\CYMR90~1\AppData\Local\Temp\ccbtsgth.s:23825  .debug_str:0000000000010196 .LASF3347
C:\Users\CYMR90~1\AppData\Local\Temp\ccbtsgth.s:24961  .debug_str:00000000000149e5 .LASF3348
C:\Users\CYMR90~1\AppData\Local\Temp\ccbtsgth.s:30980  .debug_str:000000000002ca75 .LASF3349
C:\Users\CYMR90~1\AppData\Local\Temp\ccbtsgth.s:23017  .debug_str:000000000000cf5a .LASF3350
C:\Users\CYMR90~1\AppData\Local\Temp\ccbtsgth.s:25814  .debug_str:00000000000181ea .LASF3351
C:\Users\CYMR90~1\AppData\Local\Temp\ccbtsgth.s:22187  .debug_str:0000000000009788 .LASF3352
C:\Users\CYMR90~1\AppData\Local\Temp\ccbtsgth.s:29344  .debug_str:00000000000261bb .LASF3353
C:\Users\CYMR90~1\AppData\Local\Temp\ccbtsgth.s:30414  .debug_str:000000000002a575 .LASF3354
C:\Users\CYMR90~1\AppData\Local\Temp\ccbtsgth.s:22729  .debug_str:000000000000bc49 .LASF3355
C:\Users\CYMR90~1\AppData\Local\Temp\ccbtsgth.s:29818  .debug_str:0000000000028076 .LASF3356
C:\Users\CYMR90~1\AppData\Local\Temp\ccbtsgth.s:26724  .debug_str:000000000001bd82 .LASF3357
C:\Users\CYMR90~1\AppData\Local\Temp\ccbtsgth.s:30288  .debug_str:0000000000029dba .LASF3358
C:\Users\CYMR90~1\AppData\Local\Temp\ccbtsgth.s:20361  .debug_str:00000000000022db .LASF3359
C:\Users\CYMR90~1\AppData\Local\Temp\ccbtsgth.s:29400  .debug_str:000000000002653e .LASF3360
C:\Users\CYMR90~1\AppData\Local\Temp\ccbtsgth.s:26162  .debug_str:0000000000019909 .LASF3361
C:\Users\CYMR90~1\AppData\Local\Temp\ccbtsgth.s:26088  .debug_str:0000000000019443 .LASF3362
C:\Users\CYMR90~1\AppData\Local\Temp\ccbtsgth.s:26504  .debug_str:000000000001afe6 .LASF3363
C:\Users\CYMR90~1\AppData\Local\Temp\ccbtsgth.s:20369  .debug_str:0000000000002345 .LASF3364
C:\Users\CYMR90~1\AppData\Local\Temp\ccbtsgth.s:29738  .debug_str:0000000000027a87 .LASF3365
C:\Users\CYMR90~1\AppData\Local\Temp\ccbtsgth.s:27392  .debug_str:000000000001e8cc .LASF3366
C:\Users\CYMR90~1\AppData\Local\Temp\ccbtsgth.s:20971  .debug_str:0000000000004ab2 .LASF3367
C:\Users\CYMR90~1\AppData\Local\Temp\ccbtsgth.s:28390  .debug_str:00000000000224ed .LASF3368
C:\Users\CYMR90~1\AppData\Local\Temp\ccbtsgth.s:27936  .debug_str:000000000002097f .LASF3369
C:\Users\CYMR90~1\AppData\Local\Temp\ccbtsgth.s:30806  .debug_str:000000000002bf0b .LASF3370
C:\Users\CYMR90~1\AppData\Local\Temp\ccbtsgth.s:30542  .debug_str:000000000002ad20 .LASF3371
C:\Users\CYMR90~1\AppData\Local\Temp\ccbtsgth.s:19925  .debug_str:0000000000000774 .LASF3372
C:\Users\CYMR90~1\AppData\Local\Temp\ccbtsgth.s:23509  .debug_str:000000000000edce .LASF3373
C:\Users\CYMR90~1\AppData\Local\Temp\ccbtsgth.s:29004  .debug_str:0000000000024ae9 .LASF3374
C:\Users\CYMR90~1\AppData\Local\Temp\ccbtsgth.s:28708  .debug_str:00000000000237e4 .LASF3375
C:\Users\CYMR90~1\AppData\Local\Temp\ccbtsgth.s:26334  .debug_str:000000000001a469 .LASF3376
C:\Users\CYMR90~1\AppData\Local\Temp\ccbtsgth.s:25480  .debug_str:0000000000016cd8 .LASF3377
C:\Users\CYMR90~1\AppData\Local\Temp\ccbtsgth.s:25932  .debug_str:0000000000018967 .LASF3378
C:\Users\CYMR90~1\AppData\Local\Temp\ccbtsgth.s:30360  .debug_str:000000000002a1f0 .LASF3379
C:\Users\CYMR90~1\AppData\Local\Temp\ccbtsgth.s:23063  .debug_str:000000000000d270 .LASF3380
C:\Users\CYMR90~1\AppData\Local\Temp\ccbtsgth.s:26646  .debug_str:000000000001b87c .LASF3381
C:\Users\CYMR90~1\AppData\Local\Temp\ccbtsgth.s:25181  .debug_str:0000000000015733 .LASF3382
C:\Users\CYMR90~1\AppData\Local\Temp\ccbtsgth.s:24933  .debug_str:0000000000014849 .LASF3383
C:\Users\CYMR90~1\AppData\Local\Temp\ccbtsgth.s:27306  .debug_str:000000000001e340 .LASF3384
C:\Users\CYMR90~1\AppData\Local\Temp\ccbtsgth.s:30156  .debug_str:000000000002963d .LASF3385
C:\Users\CYMR90~1\AppData\Local\Temp\ccbtsgth.s:20499  .debug_str:0000000000002bc5 .LASF3386
C:\Users\CYMR90~1\AppData\Local\Temp\ccbtsgth.s:27506  .debug_str:000000000001ef41 .LASF3387
C:\Users\CYMR90~1\AppData\Local\Temp\ccbtsgth.s:28064  .debug_str:0000000000021110 .LASF3388
C:\Users\CYMR90~1\AppData\Local\Temp\ccbtsgth.s:20615  .debug_str:00000000000032f3 .LASF3389
C:\Users\CYMR90~1\AppData\Local\Temp\ccbtsgth.s:22553  .debug_str:000000000000b0ba .LASF3390
C:\Users\CYMR90~1\AppData\Local\Temp\ccbtsgth.s:21485  .debug_str:00000000000069dd .LASF3391
C:\Users\CYMR90~1\AppData\Local\Temp\ccbtsgth.s:29024  .debug_str:0000000000024c26 .LASF3392
C:\Users\CYMR90~1\AppData\Local\Temp\ccbtsgth.s:26400  .debug_str:000000000001a917 .LASF3393
C:\Users\CYMR90~1\AppData\Local\Temp\ccbtsgth.s:26260  .debug_str:0000000000019ed1 .LASF3394
C:\Users\CYMR90~1\AppData\Local\Temp\ccbtsgth.s:21441  .debug_str:0000000000006734 .LASF3395
C:\Users\CYMR90~1\AppData\Local\Temp\ccbtsgth.s:23389  .debug_str:000000000000e65f .LASF3396
C:\Users\CYMR90~1\AppData\Local\Temp\ccbtsgth.s:23237  .debug_str:000000000000dd1d .LASF3397
C:\Users\CYMR90~1\AppData\Local\Temp\ccbtsgth.s:21879  .debug_str:000000000000848c .LASF3398
C:\Users\CYMR90~1\AppData\Local\Temp\ccbtsgth.s:22067  .debug_str:000000000000904a .LASF3399
C:\Users\CYMR90~1\AppData\Local\Temp\ccbtsgth.s:22651  .debug_str:000000000000b70a .LASF3400
C:\Users\CYMR90~1\AppData\Local\Temp\ccbtsgth.s:20639  .debug_str:0000000000003478 .LASF3401
C:\Users\CYMR90~1\AppData\Local\Temp\ccbtsgth.s:21997  .debug_str:0000000000008ba5 .LASF3402
C:\Users\CYMR90~1\AppData\Local\Temp\ccbtsgth.s:19847  .debug_str:00000000000002f2 .LASF3403
C:\Users\CYMR90~1\AppData\Local\Temp\ccbtsgth.s:25526  .debug_str:0000000000016f97 .LASF3404
C:\Users\CYMR90~1\AppData\Local\Temp\ccbtsgth.s:22797  .debug_str:000000000000c149 .LASF3405
C:\Users\CYMR90~1\AppData\Local\Temp\ccbtsgth.s:28646  .debug_str:00000000000233f8 .LASF3406
C:\Users\CYMR90~1\AppData\Local\Temp\ccbtsgth.s:30718  .debug_str:000000000002b8fe .LASF3407
C:\Users\CYMR90~1\AppData\Local\Temp\ccbtsgth.s:24309  .debug_str:000000000001208a .LASF3408
C:\Users\CYMR90~1\AppData\Local\Temp\ccbtsgth.s:24171  .debug_str:00000000000117d9 .LASF3409
C:\Users\CYMR90~1\AppData\Local\Temp\ccbtsgth.s:26518  .debug_str:000000000001b0fe .LASF3410
C:\Users\CYMR90~1\AppData\Local\Temp\ccbtsgth.s:28658  .debug_str:00000000000234e8 .LASF3411
C:\Users\CYMR90~1\AppData\Local\Temp\ccbtsgth.s:30088  .debug_str:00000000000291e6 .LASF3412
C:\Users\CYMR90~1\AppData\Local\Temp\ccbtsgth.s:26174  .debug_str:00000000000199cf .LASF3413
C:\Users\CYMR90~1\AppData\Local\Temp\ccbtsgth.s:27490  .debug_str:000000000001ee35 .LASF3414
C:\Users\CYMR90~1\AppData\Local\Temp\ccbtsgth.s:28580  .debug_str:0000000000023000 .LASF3415
C:\Users\CYMR90~1\AppData\Local\Temp\ccbtsgth.s:29428  .debug_str:00000000000266e3 .LASF3416
C:\Users\CYMR90~1\AppData\Local\Temp\ccbtsgth.s:20027  .debug_str:0000000000000de8 .LASF3417
C:\Users\CYMR90~1\AppData\Local\Temp\ccbtsgth.s:23457  .debug_str:000000000000eae3 .LASF3418
C:\Users\CYMR90~1\AppData\Local\Temp\ccbtsgth.s:30800  .debug_str:000000000002bec0 .LASF3419
C:\Users\CYMR90~1\AppData\Local\Temp\ccbtsgth.s:29566  .debug_str:0000000000026ef4 .LASF3420
C:\Users\CYMR90~1\AppData\Local\Temp\ccbtsgth.s:20485  .debug_str:0000000000002a95 .LASF3421
C:\Users\CYMR90~1\AppData\Local\Temp\ccbtsgth.s:26648  .debug_str:000000000001b899 .LASF3422
C:\Users\CYMR90~1\AppData\Local\Temp\ccbtsgth.s:21601  .debug_str:00000000000071a7 .LASF3423
C:\Users\CYMR90~1\AppData\Local\Temp\ccbtsgth.s:22991  .debug_str:000000000000cd77 .LASF3424
C:\Users\CYMR90~1\AppData\Local\Temp\ccbtsgth.s:21341  .debug_str:00000000000060fa .LASF3425
C:\Users\CYMR90~1\AppData\Local\Temp\ccbtsgth.s:28034  .debug_str:0000000000020f64 .LASF3426
C:\Users\CYMR90~1\AppData\Local\Temp\ccbtsgth.s:28300  .debug_str:0000000000021fcb .LASF3427
C:\Users\CYMR90~1\AppData\Local\Temp\ccbtsgth.s:22165  .debug_str:000000000000964b .LASF3428
C:\Users\CYMR90~1\AppData\Local\Temp\ccbtsgth.s:28704  .debug_str:00000000000237b6 .LASF3429
C:\Users\CYMR90~1\AppData\Local\Temp\ccbtsgth.s:30926  .debug_str:000000000002c6b4 .LASF3430
C:\Users\CYMR90~1\AppData\Local\Temp\ccbtsgth.s:23763  .debug_str:000000000000fdf1 .LASF3431
C:\Users\CYMR90~1\AppData\Local\Temp\ccbtsgth.s:23279  .debug_str:000000000000dfbd .LASF3432
C:\Users\CYMR90~1\AppData\Local\Temp\ccbtsgth.s:27430  .debug_str:000000000001eac3 .LASF3433
C:\Users\CYMR90~1\AppData\Local\Temp\ccbtsgth.s:20923  .debug_str:0000000000004752 .LASF3434
C:\Users\CYMR90~1\AppData\Local\Temp\ccbtsgth.s:20245  .debug_str:0000000000001c35 .LASF3435
C:\Users\CYMR90~1\AppData\Local\Temp\ccbtsgth.s:22249  .debug_str:0000000000009bd5 .LASF3436
C:\Users\CYMR90~1\AppData\Local\Temp\ccbtsgth.s:28556  .debug_str:0000000000022eed .LASF3437
C:\Users\CYMR90~1\AppData\Local\Temp\ccbtsgth.s:24201  .debug_str:00000000000119af .LASF3438
C:\Users\CYMR90~1\AppData\Local\Temp\ccbtsgth.s:22655  .debug_str:000000000000b76c .LASF3439
C:\Users\CYMR90~1\AppData\Local\Temp\ccbtsgth.s:22129  .debug_str:00000000000093d2 .LASF3440
C:\Users\CYMR90~1\AppData\Local\Temp\ccbtsgth.s:26420  .debug_str:000000000001aa5b .LASF3441
C:\Users\CYMR90~1\AppData\Local\Temp\ccbtsgth.s:26010  .debug_str:0000000000018eb4 .LASF3442
C:\Users\CYMR90~1\AppData\Local\Temp\ccbtsgth.s:29938  .debug_str:0000000000028887 .LASF3443
C:\Users\CYMR90~1\AppData\Local\Temp\ccbtsgth.s:25692  .debug_str:0000000000017a67 .LASF3444
C:\Users\CYMR90~1\AppData\Local\Temp\ccbtsgth.s:29860  .debug_str:000000000002832d .LASF3445
C:\Users\CYMR90~1\AppData\Local\Temp\ccbtsgth.s:23291  .debug_str:000000000000e06e .LASF3446
C:\Users\CYMR90~1\AppData\Local\Temp\ccbtsgth.s:21787  .debug_str:0000000000007e17 .LASF3447
C:\Users\CYMR90~1\AppData\Local\Temp\ccbtsgth.s:30862  .debug_str:000000000002c29b .LASF3448
C:\Users\CYMR90~1\AppData\Local\Temp\ccbtsgth.s:25069  .debug_str:00000000000150db .LASF3449
C:\Users\CYMR90~1\AppData\Local\Temp\ccbtsgth.s:26800  .debug_str:000000000001c220 .LASF3450
C:\Users\CYMR90~1\AppData\Local\Temp\ccbtsgth.s:26234  .debug_str:0000000000019d6a .LASF3451
C:\Users\CYMR90~1\AppData\Local\Temp\ccbtsgth.s:25838  .debug_str:000000000001833d .LASF3452
C:\Users\CYMR90~1\AppData\Local\Temp\ccbtsgth.s:28084  .debug_str:00000000000212d9 .LASF3453
C:\Users\CYMR90~1\AppData\Local\Temp\ccbtsgth.s:22679  .debug_str:000000000000b8f5 .LASF3454
C:\Users\CYMR90~1\AppData\Local\Temp\ccbtsgth.s:26280  .debug_str:0000000000019fde .LASF3455
C:\Users\CYMR90~1\AppData\Local\Temp\ccbtsgth.s:19815  .debug_str:00000000000000dc .LASF3456
C:\Users\CYMR90~1\AppData\Local\Temp\ccbtsgth.s:24165  .debug_str:00000000000116e4 .LASF3457
C:\Users\CYMR90~1\AppData\Local\Temp\ccbtsgth.s:28128  .debug_str:0000000000021583 .LASF3458
C:\Users\CYMR90~1\AppData\Local\Temp\ccbtsgth.s:28386  .debug_str:00000000000224ac .LASF3459
C:\Users\CYMR90~1\AppData\Local\Temp\ccbtsgth.s:25259  .debug_str:0000000000015c89 .LASF3460
C:\Users\CYMR90~1\AppData\Local\Temp\ccbtsgth.s:30222  .debug_str:0000000000029a03 .LASF3461
C:\Users\CYMR90~1\AppData\Local\Temp\ccbtsgth.s:27366  .debug_str:000000000001e6fd .LASF3462
C:\Users\CYMR90~1\AppData\Local\Temp\ccbtsgth.s:31042  .debug_str:000000000002ce5f .LASF3463
C:\Users\CYMR90~1\AppData\Local\Temp\ccbtsgth.s:28682  .debug_str:000000000002365c .LASF3464
C:\Users\CYMR90~1\AppData\Local\Temp\ccbtsgth.s:29116  .debug_str:00000000000252b1 .LASF3465
C:\Users\CYMR90~1\AppData\Local\Temp\ccbtsgth.s:24203  .debug_str:00000000000119c4 .LASF3466
C:\Users\CYMR90~1\AppData\Local\Temp\ccbtsgth.s:24557  .debug_str:00000000000130cd .LASF3467
C:\Users\CYMR90~1\AppData\Local\Temp\ccbtsgth.s:20265  .debug_str:0000000000001d55 .LASF3468
C:\Users\CYMR90~1\AppData\Local\Temp\ccbtsgth.s:21571  .debug_str:0000000000006f6d .LASF3469
C:\Users\CYMR90~1\AppData\Local\Temp\ccbtsgth.s:30674  .debug_str:000000000002b5df .LASF3470
C:\Users\CYMR90~1\AppData\Local\Temp\ccbtsgth.s:25289  .debug_str:0000000000015eaf .LASF3471
C:\Users\CYMR90~1\AppData\Local\Temp\ccbtsgth.s:27634  .debug_str:000000000001f6f5 .LASF3472
C:\Users\CYMR90~1\AppData\Local\Temp\ccbtsgth.s:23173  .debug_str:000000000000d937 .LASF3473
C:\Users\CYMR90~1\AppData\Local\Temp\ccbtsgth.s:24405  .debug_str:00000000000126af .LASF3474
C:\Users\CYMR90~1\AppData\Local\Temp\ccbtsgth.s:20047  .debug_str:0000000000000fce .LASF3475
C:\Users\CYMR90~1\AppData\Local\Temp\ccbtsgth.s:26366  .debug_str:000000000001a68d .LASF3476
C:\Users\CYMR90~1\AppData\Local\Temp\ccbtsgth.s:20845  .debug_str:0000000000004202 .LASF3477
C:\Users\CYMR90~1\AppData\Local\Temp\ccbtsgth.s:26614  .debug_str:000000000001b6b9 .LASF3478
C:\Users\CYMR90~1\AppData\Local\Temp\ccbtsgth.s:21115  .debug_str:0000000000005349 .LASF3479
C:\Users\CYMR90~1\AppData\Local\Temp\ccbtsgth.s:22233  .debug_str:0000000000009ac0 .LASF3480
C:\Users\CYMR90~1\AppData\Local\Temp\ccbtsgth.s:21387  .debug_str:00000000000063d5 .LASF3481
C:\Users\CYMR90~1\AppData\Local\Temp\ccbtsgth.s:27118  .debug_str:000000000001d74a .LASF3482
C:\Users\CYMR90~1\AppData\Local\Temp\ccbtsgth.s:29588  .debug_str:0000000000027132 .LASF3483
C:\Users\CYMR90~1\AppData\Local\Temp\ccbtsgth.s:28322  .debug_str:000000000002211f .LASF3484
C:\Users\CYMR90~1\AppData\Local\Temp\ccbtsgth.s:21425  .debug_str:0000000000006602 .LASF3485
C:\Users\CYMR90~1\AppData\Local\Temp\ccbtsgth.s:30234  .debug_str:0000000000029ac0 .LASF3486
C:\Users\CYMR90~1\AppData\Local\Temp\ccbtsgth.s:27588  .debug_str:000000000001f465 .LASF3487
C:\Users\CYMR90~1\AppData\Local\Temp\ccbtsgth.s:23481  .debug_str:000000000000ec3d .LASF3488
C:\Users\CYMR90~1\AppData\Local\Temp\ccbtsgth.s:22505  .debug_str:000000000000acea .LASF3489
C:\Users\CYMR90~1\AppData\Local\Temp\ccbtsgth.s:19907  .debug_str:000000000000063b .LASF3490
C:\Users\CYMR90~1\AppData\Local\Temp\ccbtsgth.s:23705  .debug_str:000000000000fa33 .LASF3491
C:\Users\CYMR90~1\AppData\Local\Temp\ccbtsgth.s:22689  .debug_str:000000000000b9af .LASF3492
C:\Users\CYMR90~1\AppData\Local\Temp\ccbtsgth.s:23439  .debug_str:000000000000e992 .LASF3493
C:\Users\CYMR90~1\AppData\Local\Temp\ccbtsgth.s:21607  .debug_str:0000000000007210 .LASF3494
C:\Users\CYMR90~1\AppData\Local\Temp\ccbtsgth.s:29654  .debug_str:00000000000274c4 .LASF3495
C:\Users\CYMR90~1\AppData\Local\Temp\ccbtsgth.s:27040  .debug_str:000000000001d25e .LASF3496
C:\Users\CYMR90~1\AppData\Local\Temp\ccbtsgth.s:24501  .debug_str:0000000000012cf8 .LASF3497
C:\Users\CYMR90~1\AppData\Local\Temp\ccbtsgth.s:26628  .debug_str:000000000001b799 .LASF3498
C:\Users\CYMR90~1\AppData\Local\Temp\ccbtsgth.s:30636  .debug_str:000000000002b354 .LASF3499
C:\Users\CYMR90~1\AppData\Local\Temp\ccbtsgth.s:23847  .debug_str:00000000000102e8 .LASF3500
C:\Users\CYMR90~1\AppData\Local\Temp\ccbtsgth.s:29888  .debug_str:000000000002854f .LASF3501
C:\Users\CYMR90~1\AppData\Local\Temp\ccbtsgth.s:22881  .debug_str:000000000000c66f .LASF3502
C:\Users\CYMR90~1\AppData\Local\Temp\ccbtsgth.s:20345  .debug_str:00000000000021cf .LASF3503
C:\Users\CYMR90~1\AppData\Local\Temp\ccbtsgth.s:23821  .debug_str:0000000000010158 .LASF3504
C:\Users\CYMR90~1\AppData\Local\Temp\ccbtsgth.s:28810  .debug_str:0000000000023d76 .LASF3505
C:\Users\CYMR90~1\AppData\Local\Temp\ccbtsgth.s:23955  .debug_str:000000000001097d .LASF3506
C:\Users\CYMR90~1\AppData\Local\Temp\ccbtsgth.s:28302  .debug_str:0000000000021fe3 .LASF3507
C:\Users\CYMR90~1\AppData\Local\Temp\ccbtsgth.s:24621  .debug_str:00000000000134a2 .LASF3508
C:\Users\CYMR90~1\AppData\Local\Temp\ccbtsgth.s:21777  .debug_str:0000000000007d82 .LASF3509
C:\Users\CYMR90~1\AppData\Local\Temp\ccbtsgth.s:28532  .debug_str:0000000000022d77 .LASF3510
C:\Users\CYMR90~1\AppData\Local\Temp\ccbtsgth.s:30676  .debug_str:000000000002b603 .LASF3511
C:\Users\CYMR90~1\AppData\Local\Temp\ccbtsgth.s:30204  .debug_str:00000000000298ee .LASF3512
C:\Users\CYMR90~1\AppData\Local\Temp\ccbtsgth.s:26714  .debug_str:000000000001bcba .LASF3513
C:\Users\CYMR90~1\AppData\Local\Temp\ccbtsgth.s:21575  .debug_str:0000000000006faf .LASF3514
C:\Users\CYMR90~1\AppData\Local\Temp\ccbtsgth.s:21161  .debug_str:000000000000561a .LASF3515
C:\Users\CYMR90~1\AppData\Local\Temp\ccbtsgth.s:21659  .debug_str:0000000000007521 .LASF3516
C:\Users\CYMR90~1\AppData\Local\Temp\ccbtsgth.s:20631  .debug_str:00000000000033fd .LASF3517
C:\Users\CYMR90~1\AppData\Local\Temp\ccbtsgth.s:28930  .debug_str:00000000000245c3 .LASF3518
C:\Users\CYMR90~1\AppData\Local\Temp\ccbtsgth.s:23773  .debug_str:000000000000fe6b .LASF3519
C:\Users\CYMR90~1\AppData\Local\Temp\ccbtsgth.s:21969  .debug_str:0000000000008a13 .LASF3520
C:\Users\CYMR90~1\AppData\Local\Temp\ccbtsgth.s:22079  .debug_str:0000000000009102 .LASF3521
C:\Users\CYMR90~1\AppData\Local\Temp\ccbtsgth.s:28198  .debug_str:0000000000021984 .LASF3522
C:\Users\CYMR90~1\AppData\Local\Temp\ccbtsgth.s:30136  .debug_str:00000000000294ff .LASF3523
C:\Users\CYMR90~1\AppData\Local\Temp\ccbtsgth.s:28446  .debug_str:0000000000022834 .LASF3524
C:\Users\CYMR90~1\AppData\Local\Temp\ccbtsgth.s:30026  .debug_str:0000000000028da3 .LASF3525
C:\Users\CYMR90~1\AppData\Local\Temp\ccbtsgth.s:19939  .debug_str:0000000000000848 .LASF3526
C:\Users\CYMR90~1\AppData\Local\Temp\ccbtsgth.s:28270  .debug_str:0000000000021e1b .LASF3527
C:\Users\CYMR90~1\AppData\Local\Temp\ccbtsgth.s:25482  .debug_str:0000000000016cf0 .LASF3528
C:\Users\CYMR90~1\AppData\Local\Temp\ccbtsgth.s:22513  .debug_str:000000000000ad5e .LASF3529
C:\Users\CYMR90~1\AppData\Local\Temp\ccbtsgth.s:23047  .debug_str:000000000000d156 .LASF3530
C:\Users\CYMR90~1\AppData\Local\Temp\ccbtsgth.s:21559  .debug_str:0000000000006ea3 .LASF3531
C:\Users\CYMR90~1\AppData\Local\Temp\ccbtsgth.s:25089  .debug_str:00000000000151d5 .LASF3532
C:\Users\CYMR90~1\AppData\Local\Temp\ccbtsgth.s:22925  .debug_str:000000000000c9b0 .LASF3533
C:\Users\CYMR90~1\AppData\Local\Temp\ccbtsgth.s:28550  .debug_str:0000000000022e9b .LASF3534
C:\Users\CYMR90~1\AppData\Local\Temp\ccbtsgth.s:26516  .debug_str:000000000001b0bb .LASF3535
C:\Users\CYMR90~1\AppData\Local\Temp\ccbtsgth.s:28488  .debug_str:0000000000022b26 .LASF3536
C:\Users\CYMR90~1\AppData\Local\Temp\ccbtsgth.s:25628  .debug_str:000000000001764a .LASF3537
C:\Users\CYMR90~1\AppData\Local\Temp\ccbtsgth.s:28026  .debug_str:0000000000020eec .LASF3538
C:\Users\CYMR90~1\AppData\Local\Temp\ccbtsgth.s:27556  .debug_str:000000000001f24b .LASF3539
C:\Users\CYMR90~1\AppData\Local\Temp\ccbtsgth.s:22569  .debug_str:000000000000b1b0 .LASF3540
C:\Users\CYMR90~1\AppData\Local\Temp\ccbtsgth.s:24787  .debug_str:0000000000013f1d .LASF3541
C:\Users\CYMR90~1\AppData\Local\Temp\ccbtsgth.s:25760  .debug_str:0000000000017ead .LASF3542
C:\Users\CYMR90~1\AppData\Local\Temp\ccbtsgth.s:29480  .debug_str:00000000000269cb .LASF3543
C:\Users\CYMR90~1\AppData\Local\Temp\ccbtsgth.s:22355  .debug_str:000000000000a278 .LASF3544
C:\Users\CYMR90~1\AppData\Local\Temp\ccbtsgth.s:21085  .debug_str:000000000000517b .LASF3545
C:\Users\CYMR90~1\AppData\Local\Temp\ccbtsgth.s:26068  .debug_str:00000000000192ed .LASF3546
C:\Users\CYMR90~1\AppData\Local\Temp\ccbtsgth.s:22613  .debug_str:000000000000b414 .LASF3547
C:\Users\CYMR90~1\AppData\Local\Temp\ccbtsgth.s:23327  .debug_str:000000000000e299 .LASF3548
C:\Users\CYMR90~1\AppData\Local\Temp\ccbtsgth.s:30776  .debug_str:000000000002bce1 .LASF3549
C:\Users\CYMR90~1\AppData\Local\Temp\ccbtsgth.s:30622  .debug_str:000000000002b256 .LASF3550
C:\Users\CYMR90~1\AppData\Local\Temp\ccbtsgth.s:23193  .debug_str:000000000000da98 .LASF3551
C:\Users\CYMR90~1\AppData\Local\Temp\ccbtsgth.s:21169  .debug_str:000000000000567f .LASF3552
C:\Users\CYMR90~1\AppData\Local\Temp\ccbtsgth.s:30262  .debug_str:0000000000029c5f .LASF3553
C:\Users\CYMR90~1\AppData\Local\Temp\ccbtsgth.s:27998  .debug_str:0000000000020d45 .LASF3554
C:\Users\CYMR90~1\AppData\Local\Temp\ccbtsgth.s:21173  .debug_str:00000000000056df .LASF3555
C:\Users\CYMR90~1\AppData\Local\Temp\ccbtsgth.s:25207  .debug_str:00000000000158de .LASF3556
C:\Users\CYMR90~1\AppData\Local\Temp\ccbtsgth.s:21267  .debug_str:0000000000005c89 .LASF3557
C:\Users\CYMR90~1\AppData\Local\Temp\ccbtsgth.s:24671  .debug_str:00000000000137bf .LASF3558
C:\Users\CYMR90~1\AppData\Local\Temp\ccbtsgth.s:28190  .debug_str:000000000002190a .LASF3559
C:\Users\CYMR90~1\AppData\Local\Temp\ccbtsgth.s:29296  .debug_str:0000000000025edb .LASF3560
C:\Users\CYMR90~1\AppData\Local\Temp\ccbtsgth.s:20997  .debug_str:0000000000004c3a .LASF3561
C:\Users\CYMR90~1\AppData\Local\Temp\ccbtsgth.s:28768  .debug_str:0000000000023b35 .LASF3562
C:\Users\CYMR90~1\AppData\Local\Temp\ccbtsgth.s:27918  .debug_str:0000000000020866 .LASF3563
C:\Users\CYMR90~1\AppData\Local\Temp\ccbtsgth.s:30412  .debug_str:000000000002a551 .LASF3564
C:\Users\CYMR90~1\AppData\Local\Temp\ccbtsgth.s:23459  .debug_str:000000000000eafb .LASF3565
C:\Users\CYMR90~1\AppData\Local\Temp\ccbtsgth.s:21181  .debug_str:0000000000005735 .LASF3566
C:\Users\CYMR90~1\AppData\Local\Temp\ccbtsgth.s:21523  .debug_str:0000000000006c6f .LASF3567
C:\Users\CYMR90~1\AppData\Local\Temp\ccbtsgth.s:28008  .debug_str:0000000000020de8 .LASF3568
C:\Users\CYMR90~1\AppData\Local\Temp\ccbtsgth.s:25868  .debug_str:000000000001855b .LASF3569
C:\Users\CYMR90~1\AppData\Local\Temp\ccbtsgth.s:26958  .debug_str:000000000001cc57 .LASF3570
C:\Users\CYMR90~1\AppData\Local\Temp\ccbtsgth.s:30000  .debug_str:0000000000028c18 .LASF3571
C:\Users\CYMR90~1\AppData\Local\Temp\ccbtsgth.s:27832  .debug_str:0000000000020295 .LASF3572
C:\Users\CYMR90~1\AppData\Local\Temp\ccbtsgth.s:30950  .debug_str:000000000002c87f .LASF3573
C:\Users\CYMR90~1\AppData\Local\Temp\ccbtsgth.s:20673  .debug_str:0000000000003696 .LASF3574
C:\Users\CYMR90~1\AppData\Local\Temp\ccbtsgth.s:29098  .debug_str:00000000000251c0 .LASF3575
C:\Users\CYMR90~1\AppData\Local\Temp\ccbtsgth.s:20067  .debug_str:00000000000010ce .LASF3576
C:\Users\CYMR90~1\AppData\Local\Temp\ccbtsgth.s:27122  .debug_str:000000000001d791 .LASF3577
C:\Users\CYMR90~1\AppData\Local\Temp\ccbtsgth.s:24533  .debug_str:0000000000012ef7 .LASF3578
C:\Users\CYMR90~1\AppData\Local\Temp\ccbtsgth.s:31036  .debug_str:000000000002ce11 .LASF3579
C:\Users\CYMR90~1\AppData\Local\Temp\ccbtsgth.s:20475  .debug_str:00000000000029fc .LASF3580
C:\Users\CYMR90~1\AppData\Local\Temp\ccbtsgth.s:29534  .debug_str:0000000000026d3c .LASF3581
C:\Users\CYMR90~1\AppData\Local\Temp\ccbtsgth.s:22411  .debug_str:000000000000a5f1 .LASF3582
C:\Users\CYMR90~1\AppData\Local\Temp\ccbtsgth.s:27826  .debug_str:0000000000020241 .LASF3583
C:\Users\CYMR90~1\AppData\Local\Temp\ccbtsgth.s:27962  .debug_str:0000000000020b2b .LASF3584
C:\Users\CYMR90~1\AppData\Local\Temp\ccbtsgth.s:20023  .debug_str:0000000000000d99 .LASF3585
C:\Users\CYMR90~1\AppData\Local\Temp\ccbtsgth.s:27184  .debug_str:000000000001db47 .LASF3586
C:\Users\CYMR90~1\AppData\Local\Temp\ccbtsgth.s:20123  .debug_str:0000000000001403 .LASF3587
C:\Users\CYMR90~1\AppData\Local\Temp\ccbtsgth.s:29786  .debug_str:0000000000027dd2 .LASF3588
C:\Users\CYMR90~1\AppData\Local\Temp\ccbtsgth.s:24295  .debug_str:0000000000011f7d .LASF3589
C:\Users\CYMR90~1\AppData\Local\Temp\ccbtsgth.s:27326  .debug_str:000000000001e489 .LASF3590
C:\Users\CYMR90~1\AppData\Local\Temp\ccbtsgth.s:26232  .debug_str:0000000000019d3a .LASF3591
C:\Users\CYMR90~1\AppData\Local\Temp\ccbtsgth.s:24971  .debug_str:0000000000014aac .LASF3592
C:\Users\CYMR90~1\AppData\Local\Temp\ccbtsgth.s:23793  .debug_str:000000000000ffbd .LASF3593
C:\Users\CYMR90~1\AppData\Local\Temp\ccbtsgth.s:30664  .debug_str:000000000002b510 .LASF3594
C:\Users\CYMR90~1\AppData\Local\Temp\ccbtsgth.s:29012  .debug_str:0000000000024b4b .LASF3595
C:\Users\CYMR90~1\AppData\Local\Temp\ccbtsgth.s:20233  .debug_str:0000000000001b51 .LASF3596
C:\Users\CYMR90~1\AppData\Local\Temp\ccbtsgth.s:29774  .debug_str:0000000000027cae .LASF3597
C:\Users\CYMR90~1\AppData\Local\Temp\ccbtsgth.s:30018  .debug_str:0000000000028d0a .LASF3598
C:\Users\CYMR90~1\AppData\Local\Temp\ccbtsgth.s:23007  .debug_str:000000000000ce92 .LASF3599
C:\Users\CYMR90~1\AppData\Local\Temp\ccbtsgth.s:30902  .debug_str:000000000002c552 .LASF3600
C:\Users\CYMR90~1\AppData\Local\Temp\ccbtsgth.s:22457  .debug_str:000000000000a99c .LASF3601
C:\Users\CYMR90~1\AppData\Local\Temp\ccbtsgth.s:29028  .debug_str:0000000000024c60 .LASF3602
C:\Users\CYMR90~1\AppData\Local\Temp\ccbtsgth.s:28398  .debug_str:0000000000022579 .LASF3603
C:\Users\CYMR90~1\AppData\Local\Temp\ccbtsgth.s:28068  .debug_str:0000000000021140 .LASF3604
C:\Users\CYMR90~1\AppData\Local\Temp\ccbtsgth.s:24497  .debug_str:0000000000012ca6 .LASF3605
C:\Users\CYMR90~1\AppData\Local\Temp\ccbtsgth.s:30154  .debug_str:000000000002960b .LASF3606
C:\Users\CYMR90~1\AppData\Local\Temp\ccbtsgth.s:23107  .debug_str:000000000000d592 .LASF3607
C:\Users\CYMR90~1\AppData\Local\Temp\ccbtsgth.s:21217  .debug_str:000000000000597a .LASF3608
C:\Users\CYMR90~1\AppData\Local\Temp\ccbtsgth.s:29696  .debug_str:0000000000027760 .LASF3609
C:\Users\CYMR90~1\AppData\Local\Temp\ccbtsgth.s:23577  .debug_str:000000000000f20a .LASF3610
C:\Users\CYMR90~1\AppData\Local\Temp\ccbtsgth.s:22791  .debug_str:000000000000c0ce .LASF3611
C:\Users\CYMR90~1\AppData\Local\Temp\ccbtsgth.s:22623  .debug_str:000000000000b49e .LASF3612
C:\Users\CYMR90~1\AppData\Local\Temp\ccbtsgth.s:19971  .debug_str:0000000000000a2c .LASF3613
C:\Users\CYMR90~1\AppData\Local\Temp\ccbtsgth.s:24199  .debug_str:000000000001197d .LASF3614
C:\Users\CYMR90~1\AppData\Local\Temp\ccbtsgth.s:28484  .debug_str:0000000000022ae2 .LASF3615
C:\Users\CYMR90~1\AppData\Local\Temp\ccbtsgth.s:21369  .debug_str:000000000000629f .LASF3616
C:\Users\CYMR90~1\AppData\Local\Temp\ccbtsgth.s:25528  .debug_str:0000000000016fb3 .LASF3617
C:\Users\CYMR90~1\AppData\Local\Temp\ccbtsgth.s:23783  .debug_str:000000000000ff14 .LASF3618
C:\Users\CYMR90~1\AppData\Local\Temp\ccbtsgth.s:28044  .debug_str:0000000000020fd1 .LASF3619
C:\Users\CYMR90~1\AppData\Local\Temp\ccbtsgth.s:21007  .debug_str:0000000000004ce4 .LASF3620
C:\Users\CYMR90~1\AppData\Local\Temp\ccbtsgth.s:25189  .debug_str:0000000000015793 .LASF3621
C:\Users\CYMR90~1\AppData\Local\Temp\ccbtsgth.s:29496  .debug_str:0000000000026ab6 .LASF3622
C:\Users\CYMR90~1\AppData\Local\Temp\ccbtsgth.s:22501  .debug_str:000000000000ac9e .LASF3623
C:\Users\CYMR90~1\AppData\Local\Temp\ccbtsgth.s:24761  .debug_str:0000000000013d2b .LASF3624
C:\Users\CYMR90~1\AppData\Local\Temp\ccbtsgth.s:27218  .debug_str:000000000001ddcb .LASF3625
C:\Users\CYMR90~1\AppData\Local\Temp\ccbtsgth.s:22987  .debug_str:000000000000cd29 .LASF3626
C:\Users\CYMR90~1\AppData\Local\Temp\ccbtsgth.s:28234  .debug_str:0000000000021be6 .LASF3627
C:\Users\CYMR90~1\AppData\Local\Temp\ccbtsgth.s:21213  .debug_str:0000000000005922 .LASF3628
C:\Users\CYMR90~1\AppData\Local\Temp\ccbtsgth.s:30620  .debug_str:000000000002b224 .LASF3629
C:\Users\CYMR90~1\AppData\Local\Temp\ccbtsgth.s:23571  .debug_str:000000000000f187 .LASF3630
C:\Users\CYMR90~1\AppData\Local\Temp\ccbtsgth.s:27744  .debug_str:000000000001fd77 .LASF3631
C:\Users\CYMR90~1\AppData\Local\Temp\ccbtsgth.s:20715  .debug_str:000000000000396d .LASF3632
C:\Users\CYMR90~1\AppData\Local\Temp\ccbtsgth.s:23643  .debug_str:000000000000f691 .LASF3633
C:\Users\CYMR90~1\AppData\Local\Temp\ccbtsgth.s:28802  .debug_str:0000000000023d06 .LASF3634
C:\Users\CYMR90~1\AppData\Local\Temp\ccbtsgth.s:22199  .debug_str:000000000000988a .LASF3635
C:\Users\CYMR90~1\AppData\Local\Temp\ccbtsgth.s:26474  .debug_str:000000000001ad9a .LASF3636
C:\Users\CYMR90~1\AppData\Local\Temp\ccbtsgth.s:20815  .debug_str:0000000000003f93 .LASF3637
C:\Users\CYMR90~1\AppData\Local\Temp\ccbtsgth.s:28846  .debug_str:000000000002402b .LASF3638
C:\Users\CYMR90~1\AppData\Local\Temp\ccbtsgth.s:21833  .debug_str:000000000000819b .LASF3639
C:\Users\CYMR90~1\AppData\Local\Temp\ccbtsgth.s:23427  .debug_str:000000000000e8a7 .LASF3640
C:\Users\CYMR90~1\AppData\Local\Temp\ccbtsgth.s:30294  .debug_str:0000000000029e10 .LASF3641
C:\Users\CYMR90~1\AppData\Local\Temp\ccbtsgth.s:21657  .debug_str:00000000000074ef .LASF3642
C:\Users\CYMR90~1\AppData\Local\Temp\ccbtsgth.s:27618  .debug_str:000000000001f5ef .LASF3643
C:\Users\CYMR90~1\AppData\Local\Temp\ccbtsgth.s:20439  .debug_str:000000000000279a .LASF3644
C:\Users\CYMR90~1\AppData\Local\Temp\ccbtsgth.s:25796  .debug_str:00000000000180bf .LASF3645
C:\Users\CYMR90~1\AppData\Local\Temp\ccbtsgth.s:28980  .debug_str:0000000000024942 .LASF3646
C:\Users\CYMR90~1\AppData\Local\Temp\ccbtsgth.s:21845  .debug_str:0000000000008248 .LASF3647
C:\Users\CYMR90~1\AppData\Local\Temp\ccbtsgth.s:29252  .debug_str:0000000000025be7 .LASF3648
C:\Users\CYMR90~1\AppData\Local\Temp\ccbtsgth.s:24339  .debug_str:0000000000012264 .LASF3649
C:\Users\CYMR90~1\AppData\Local\Temp\ccbtsgth.s:28536  .debug_str:0000000000022db9 .LASF3650
C:\Users\CYMR90~1\AppData\Local\Temp\ccbtsgth.s:21513  .debug_str:0000000000006bae .LASF3651
C:\Users\CYMR90~1\AppData\Local\Temp\ccbtsgth.s:24383  .debug_str:0000000000012528 .LASF3652
C:\Users\CYMR90~1\AppData\Local\Temp\ccbtsgth.s:27746  .debug_str:000000000001fda9 .LASF3653
C:\Users\CYMR90~1\AppData\Local\Temp\ccbtsgth.s:24301  .debug_str:000000000001200a .LASF3654
C:\Users\CYMR90~1\AppData\Local\Temp\ccbtsgth.s:29288  .debug_str:0000000000025e65 .LASF3655
C:\Users\CYMR90~1\AppData\Local\Temp\ccbtsgth.s:20701  .debug_str:0000000000003867 .LASF3656
C:\Users\CYMR90~1\AppData\Local\Temp\ccbtsgth.s:22939  .debug_str:000000000000ca8e .LASF3657
C:\Users\CYMR90~1\AppData\Local\Temp\ccbtsgth.s:23373  .debug_str:000000000000e52e .LASF3658
C:\Users\CYMR90~1\AppData\Local\Temp\ccbtsgth.s:28854  .debug_str:00000000000240d1 .LASF3659
C:\Users\CYMR90~1\AppData\Local\Temp\ccbtsgth.s:25203  .debug_str:000000000001588d .LASF3660
C:\Users\CYMR90~1\AppData\Local\Temp\ccbtsgth.s:25642  .debug_str:0000000000017719 .LASF3661
C:\Users\CYMR90~1\AppData\Local\Temp\ccbtsgth.s:22677  .debug_str:000000000000b8d3 .LASF3662
C:\Users\CYMR90~1\AppData\Local\Temp\ccbtsgth.s:24979  .debug_str:0000000000014b35 .LASF3663
C:\Users\CYMR90~1\AppData\Local\Temp\ccbtsgth.s:27942  .debug_str:00000000000209d2 .LASF3664
C:\Users\CYMR90~1\AppData\Local\Temp\ccbtsgth.s:25003  .debug_str:0000000000014cea .LASF3665
C:\Users\CYMR90~1\AppData\Local\Temp\ccbtsgth.s:25666  .debug_str:00000000000178de .LASF3666
C:\Users\CYMR90~1\AppData\Local\Temp\ccbtsgth.s:26092  .debug_str:0000000000019472 .LASF3667
C:\Users\CYMR90~1\AppData\Local\Temp\ccbtsgth.s:26894  .debug_str:000000000001c858 .LASF3668
C:\Users\CYMR90~1\AppData\Local\Temp\ccbtsgth.s:23527  .debug_str:000000000000eede .LASF3669
C:\Users\CYMR90~1\AppData\Local\Temp\ccbtsgth.s:20135  .debug_str:00000000000014dc .LASF3670
C:\Users\CYMR90~1\AppData\Local\Temp\ccbtsgth.s:19817  .debug_str:00000000000000ff .LASF3671
C:\Users\CYMR90~1\AppData\Local\Temp\ccbtsgth.s:24615  .debug_str:0000000000013461 .LASF3672
C:\Users\CYMR90~1\AppData\Local\Temp\ccbtsgth.s:21139  .debug_str:00000000000054b5 .LASF3673
C:\Users\CYMR90~1\AppData\Local\Temp\ccbtsgth.s:25900  .debug_str:0000000000018724 .LASF3674
C:\Users\CYMR90~1\AppData\Local\Temp\ccbtsgth.s:24451  .debug_str:00000000000129b8 .LASF3675
C:\Users\CYMR90~1\AppData\Local\Temp\ccbtsgth.s:22323  .debug_str:000000000000a06f .LASF3676
C:\Users\CYMR90~1\AppData\Local\Temp\ccbtsgth.s:23741  .debug_str:000000000000fc77 .LASF3677
C:\Users\CYMR90~1\AppData\Local\Temp\ccbtsgth.s:25606  .debug_str:00000000000174cc .LASF3678
C:\Users\CYMR90~1\AppData\Local\Temp\ccbtsgth.s:25041  .debug_str:0000000000014f2f .LASF3679
C:\Users\CYMR90~1\AppData\Local\Temp\ccbtsgth.s:24417  .debug_str:0000000000012791 .LASF3680
C:\Users\CYMR90~1\AppData\Local\Temp\ccbtsgth.s:26794  .debug_str:000000000001c1d6 .LASF3681
C:\Users\CYMR90~1\AppData\Local\Temp\ccbtsgth.s:23377  .debug_str:000000000000e5ad .LASF3682
C:\Users\CYMR90~1\AppData\Local\Temp\ccbtsgth.s:20007  .debug_str:0000000000000caa .LASF3683
C:\Users\CYMR90~1\AppData\Local\Temp\ccbtsgth.s:30024  .debug_str:0000000000028d7f .LASF3684
C:\Users\CYMR90~1\AppData\Local\Temp\ccbtsgth.s:24483  .debug_str:0000000000012baf .LASF3685
C:\Users\CYMR90~1\AppData\Local\Temp\ccbtsgth.s:27136  .debug_str:000000000001d860 .LASF3686
C:\Users\CYMR90~1\AppData\Local\Temp\ccbtsgth.s:20381  .debug_str:00000000000023f4 .LASF3687
C:\Users\CYMR90~1\AppData\Local\Temp\ccbtsgth.s:25391  .debug_str:00000000000164dd .LASF3688
C:\Users\CYMR90~1\AppData\Local\Temp\ccbtsgth.s:29092  .debug_str:0000000000025159 .LASF3689
C:\Users\CYMR90~1\AppData\Local\Temp\ccbtsgth.s:28866  .debug_str:00000000000241b4 .LASF3690
C:\Users\CYMR90~1\AppData\Local\Temp\ccbtsgth.s:25476  .debug_str:0000000000016c9d .LASF3691
C:\Users\CYMR90~1\AppData\Local\Temp\ccbtsgth.s:24769  .debug_str:0000000000013dcd .LASF3692
C:\Users\CYMR90~1\AppData\Local\Temp\ccbtsgth.s:30012  .debug_str:0000000000028cc5 .LASF3693
C:\Users\CYMR90~1\AppData\Local\Temp\ccbtsgth.s:26624  .debug_str:000000000001b753 .LASF3694
C:\Users\CYMR90~1\AppData\Local\Temp\ccbtsgth.s:20511  .debug_str:0000000000002c56 .LASF3695
C:\Users\CYMR90~1\AppData\Local\Temp\ccbtsgth.s:30396  .debug_str:000000000002a464 .LASF3696
C:\Users\CYMR90~1\AppData\Local\Temp\ccbtsgth.s:30710  .debug_str:000000000002b866 .LASF3697
C:\Users\CYMR90~1\AppData\Local\Temp\ccbtsgth.s:22483  .debug_str:000000000000ab6a .LASF3698
C:\Users\CYMR90~1\AppData\Local\Temp\ccbtsgth.s:21005  .debug_str:0000000000004cc0 .LASF3699
C:\Users\CYMR90~1\AppData\Local\Temp\ccbtsgth.s:30934  .debug_str:000000000002c74d .LASF3700
C:\Users\CYMR90~1\AppData\Local\Temp\ccbtsgth.s:24185  .debug_str:00000000000118a0 .LASF3701
C:\Users\CYMR90~1\AppData\Local\Temp\ccbtsgth.s:20789  .debug_str:0000000000003e34 .LASF3702
C:\Users\CYMR90~1\AppData\Local\Temp\ccbtsgth.s:28726  .debug_str:00000000000238fd .LASF3703
C:\Users\CYMR90~1\AppData\Local\Temp\ccbtsgth.s:25307  .debug_str:0000000000015fc1 .LASF3704
C:\Users\CYMR90~1\AppData\Local\Temp\ccbtsgth.s:23753  .debug_str:000000000000fd66 .LASF3705
C:\Users\CYMR90~1\AppData\Local\Temp\ccbtsgth.s:29868  .debug_str:00000000000283c1 .LASF3706
C:\Users\CYMR90~1\AppData\Local\Temp\ccbtsgth.s:27878  .debug_str:00000000000205d1 .LASF3707
C:\Users\CYMR90~1\AppData\Local\Temp\ccbtsgth.s:21797  .debug_str:0000000000007ebb .LASF3708
C:\Users\CYMR90~1\AppData\Local\Temp\ccbtsgth.s:29710  .debug_str:0000000000027883 .LASF3709
C:\Users\CYMR90~1\AppData\Local\Temp\ccbtsgth.s:26340  .debug_str:000000000001a4c1 .LASF3710
C:\Users\CYMR90~1\AppData\Local\Temp\ccbtsgth.s:22957  .debug_str:000000000000cba2 .LASF3711
C:\Users\CYMR90~1\AppData\Local\Temp\ccbtsgth.s:30880  .debug_str:000000000002c40c .LASF3712
C:\Users\CYMR90~1\AppData\Local\Temp\ccbtsgth.s:20901  .debug_str:00000000000045bf .LASF3713
C:\Users\CYMR90~1\AppData\Local\Temp\ccbtsgth.s:24063  .debug_str:0000000000011017 .LASF3714
C:\Users\CYMR90~1\AppData\Local\Temp\ccbtsgth.s:26972  .debug_str:000000000001cdc0 .LASF3715
C:\Users\CYMR90~1\AppData\Local\Temp\ccbtsgth.s:28582  .debug_str:000000000002301f .LASF3716
C:\Users\CYMR90~1\AppData\Local\Temp\ccbtsgth.s:29944  .debug_str:00000000000288e1 .LASF3717
C:\Users\CYMR90~1\AppData\Local\Temp\ccbtsgth.s:20515  .debug_str:0000000000002caf .LASF3718
C:\Users\CYMR90~1\AppData\Local\Temp\ccbtsgth.s:25600  .debug_str:0000000000017469 .LASF3719
C:\Users\CYMR90~1\AppData\Local\Temp\ccbtsgth.s:27070  .debug_str:000000000001d451 .LASF3720
C:\Users\CYMR90~1\AppData\Local\Temp\ccbtsgth.s:21651  .debug_str:0000000000007492 .LASF3721
C:\Users\CYMR90~1\AppData\Local\Temp\ccbtsgth.s:21773  .debug_str:0000000000007d1f .LASF3722
C:\Users\CYMR90~1\AppData\Local\Temp\ccbtsgth.s:21769  .debug_str:0000000000007cde .LASF3723
C:\Users\CYMR90~1\AppData\Local\Temp\ccbtsgth.s:22811  .debug_str:000000000000c211 .LASF3724
C:\Users\CYMR90~1\AppData\Local\Temp\ccbtsgth.s:30738  .debug_str:000000000002ba49 .LASF3725
C:\Users\CYMR90~1\AppData\Local\Temp\ccbtsgth.s:20431  .debug_str:00000000000026fb .LASF3726
C:\Users\CYMR90~1\AppData\Local\Temp\ccbtsgth.s:28746  .debug_str:0000000000023a16 .LASF3727
C:\Users\CYMR90~1\AppData\Local\Temp\ccbtsgth.s:30670  .debug_str:000000000002b59c .LASF3728
C:\Users\CYMR90~1\AppData\Local\Temp\ccbtsgth.s:27138  .debug_str:000000000001d884 .LASF3729
C:\Users\CYMR90~1\AppData\Local\Temp\ccbtsgth.s:23777  .debug_str:000000000000feb0 .LASF3730
C:\Users\CYMR90~1\AppData\Local\Temp\ccbtsgth.s:20235  .debug_str:0000000000001b81 .LASF3731
C:\Users\CYMR90~1\AppData\Local\Temp\ccbtsgth.s:28284  .debug_str:0000000000021ecc .LASF3732
C:\Users\CYMR90~1\AppData\Local\Temp\ccbtsgth.s:24873  .debug_str:0000000000014478 .LASF3733
C:\Users\CYMR90~1\AppData\Local\Temp\ccbtsgth.s:23581  .debug_str:000000000000f254 .LASF3734
C:\Users\CYMR90~1\AppData\Local\Temp\ccbtsgth.s:26170  .debug_str:0000000000019985 .LASF3735
C:\Users\CYMR90~1\AppData\Local\Temp\ccbtsgth.s:26058  .debug_str:000000000001925d .LASF3736
C:\Users\CYMR90~1\AppData\Local\Temp\ccbtsgth.s:27444  .debug_str:000000000001eb8f .LASF3737
C:\Users\CYMR90~1\AppData\Local\Temp\ccbtsgth.s:29364  .debug_str:0000000000026303 .LASF3738
C:\Users\CYMR90~1\AppData\Local\Temp\ccbtsgth.s:25982  .debug_str:0000000000018d04 .LASF3739
C:\Users\CYMR90~1\AppData\Local\Temp\ccbtsgth.s:22133  .debug_str:0000000000009413 .LASF3740
C:\Users\CYMR90~1\AppData\Local\Temp\ccbtsgth.s:30518  .debug_str:000000000002abae .LASF3741
C:\Users\CYMR90~1\AppData\Local\Temp\ccbtsgth.s:27012  .debug_str:000000000001d0d9 .LASF3742
C:\Users\CYMR90~1\AppData\Local\Temp\ccbtsgth.s:28224  .debug_str:0000000000021b46 .LASF3743
C:\Users\CYMR90~1\AppData\Local\Temp\ccbtsgth.s:20243  .debug_str:0000000000001c11 .LASF3744
C:\Users\CYMR90~1\AppData\Local\Temp\ccbtsgth.s:28142  .debug_str:0000000000021654 .LASF3745
C:\Users\CYMR90~1\AppData\Local\Temp\ccbtsgth.s:24727  .debug_str:0000000000013afc .LASF3746
C:\Users\CYMR90~1\AppData\Local\Temp\ccbtsgth.s:27442  .debug_str:000000000001eb6b .LASF3747
C:\Users\CYMR90~1\AppData\Local\Temp\ccbtsgth.s:28078  .debug_str:00000000000211d9 .LASF3748
C:\Users\CYMR90~1\AppData\Local\Temp\ccbtsgth.s:24667  .debug_str:0000000000013784 .LASF3749
C:\Users\CYMR90~1\AppData\Local\Temp\ccbtsgth.s:29380  .debug_str:00000000000263f5 .LASF3750
C:\Users\CYMR90~1\AppData\Local\Temp\ccbtsgth.s:29214  .debug_str:00000000000259c0 .LASF3751
C:\Users\CYMR90~1\AppData\Local\Temp\ccbtsgth.s:25822  .debug_str:000000000001825a .LASF3752
C:\Users\CYMR90~1\AppData\Local\Temp\ccbtsgth.s:21023  .debug_str:0000000000004ddb .LASF3753
C:\Users\CYMR90~1\AppData\Local\Temp\ccbtsgth.s:30364  .debug_str:000000000002a229 .LASF3754
C:\Users\CYMR90~1\AppData\Local\Temp\ccbtsgth.s:28290  .debug_str:0000000000021f39 .LASF3755
C:\Users\CYMR90~1\AppData\Local\Temp\ccbtsgth.s:27154  .debug_str:000000000001d97d .LASF3756
C:\Users\CYMR90~1\AppData\Local\Temp\ccbtsgth.s:21563  .debug_str:0000000000006ef7 .LASF3757
C:\Users\CYMR90~1\AppData\Local\Temp\ccbtsgth.s:21707  .debug_str:0000000000007839 .LASF3758
C:\Users\CYMR90~1\AppData\Local\Temp\ccbtsgth.s:25712  .debug_str:0000000000017b98 .LASF3759
C:\Users\CYMR90~1\AppData\Local\Temp\ccbtsgth.s:29648  .debug_str:0000000000027461 .LASF3760
C:\Users\CYMR90~1\AppData\Local\Temp\ccbtsgth.s:22301  .debug_str:0000000000009ef3 .LASF3761
C:\Users\CYMR90~1\AppData\Local\Temp\ccbtsgth.s:30812  .debug_str:000000000002bf73 .LASF3762
C:\Users\CYMR90~1\AppData\Local\Temp\ccbtsgth.s:21813  .debug_str:000000000000805b .LASF3763
C:\Users\CYMR90~1\AppData\Local\Temp\ccbtsgth.s:24125  .debug_str:00000000000113da .LASF3764
C:\Users\CYMR90~1\AppData\Local\Temp\ccbtsgth.s:26676  .debug_str:000000000001ba2d .LASF3765
C:\Users\CYMR90~1\AppData\Local\Temp\ccbtsgth.s:30726  .debug_str:000000000002b99e .LASF3766
C:\Users\CYMR90~1\AppData\Local\Temp\ccbtsgth.s:24813  .debug_str:000000000001408c .LASF3767
C:\Users\CYMR90~1\AppData\Local\Temp\ccbtsgth.s:27272  .debug_str:000000000001e12e .LASF3768
C:\Users\CYMR90~1\AppData\Local\Temp\ccbtsgth.s:29582  .debug_str:00000000000270c2 .LASF3769
C:\Users\CYMR90~1\AppData\Local\Temp\ccbtsgth.s:20653  .debug_str:000000000000355d .LASF3770
C:\Users\CYMR90~1\AppData\Local\Temp\ccbtsgth.s:27974  .debug_str:0000000000020bf6 .LASF3771
C:\Users\CYMR90~1\AppData\Local\Temp\ccbtsgth.s:20567  .debug_str:0000000000002fbd .LASF3772
C:\Users\CYMR90~1\AppData\Local\Temp\ccbtsgth.s:27624  .debug_str:000000000001f653 .LASF3773
C:\Users\CYMR90~1\AppData\Local\Temp\ccbtsgth.s:29978  .debug_str:0000000000028a8b .LASF3774
C:\Users\CYMR90~1\AppData\Local\Temp\ccbtsgth.s:24435  .debug_str:000000000001288b .LASF3775
C:\Users\CYMR90~1\AppData\Local\Temp\ccbtsgth.s:23265  .debug_str:000000000000dee7 .LASF3776
C:\Users\CYMR90~1\AppData\Local\Temp\ccbtsgth.s:20327  .debug_str:00000000000020e3 .LASF3777
C:\Users\CYMR90~1\AppData\Local\Temp\ccbtsgth.s:21843  .debug_str:0000000000008222 .LASF3778
C:\Users\CYMR90~1\AppData\Local\Temp\ccbtsgth.s:24149  .debug_str:000000000001160d .LASF3779
C:\Users\CYMR90~1\AppData\Local\Temp\ccbtsgth.s:26084  .debug_str:0000000000019401 .LASF3780
C:\Users\CYMR90~1\AppData\Local\Temp\ccbtsgth.s:28820  .debug_str:0000000000023df5 .LASF3781
C:\Users\CYMR90~1\AppData\Local\Temp\ccbtsgth.s:19889  .debug_str:0000000000000542 .LASF3782
C:\Users\CYMR90~1\AppData\Local\Temp\ccbtsgth.s:26558  .debug_str:000000000001b361 .LASF3783
C:\Users\CYMR90~1\AppData\Local\Temp\ccbtsgth.s:30584  .debug_str:000000000002af84 .LASF3784
C:\Users\CYMR90~1\AppData\Local\Temp\ccbtsgth.s:23203  .debug_str:000000000000db10 .LASF3785
C:\Users\CYMR90~1\AppData\Local\Temp\ccbtsgth.s:30576  .debug_str:000000000002af01 .LASF3786
C:\Users\CYMR90~1\AppData\Local\Temp\ccbtsgth.s:26120  .debug_str:00000000000195d7 .LASF3787
C:\Users\CYMR90~1\AppData\Local\Temp\ccbtsgth.s:22099  .debug_str:0000000000009230 .LASF3788
C:\Users\CYMR90~1\AppData\Local\Temp\ccbtsgth.s:26020  .debug_str:0000000000018f5f .LASF3789
C:\Users\CYMR90~1\AppData\Local\Temp\ccbtsgth.s:29934  .debug_str:000000000002884d .LASF3790
C:\Users\CYMR90~1\AppData\Local\Temp\ccbtsgth.s:24941  .debug_str:00000000000148a4 .LASF3791
C:\Users\CYMR90~1\AppData\Local\Temp\ccbtsgth.s:26508  .debug_str:000000000001b02b .LASF3792
C:\Users\CYMR90~1\AppData\Local\Temp\ccbtsgth.s:30516  .debug_str:000000000002ab88 .LASF3793
C:\Users\CYMR90~1\AppData\Local\Temp\ccbtsgth.s:23137  .debug_str:000000000000d736 .LASF3794
C:\Users\CYMR90~1\AppData\Local\Temp\ccbtsgth.s:22287  .debug_str:0000000000009e0e .LASF3795
C:\Users\CYMR90~1\AppData\Local\Temp\ccbtsgth.s:24569  .debug_str:000000000001318c .LASF3796
C:\Users\CYMR90~1\AppData\Local\Temp\ccbtsgth.s:28032  .debug_str:0000000000020f3e .LASF3797
C:\Users\CYMR90~1\AppData\Local\Temp\ccbtsgth.s:29778  .debug_str:0000000000027d37 .LASF3798
C:\Users\CYMR90~1\AppData\Local\Temp\ccbtsgth.s:27104  .debug_str:000000000001d66c .LASF3799
C:\Users\CYMR90~1\AppData\Local\Temp\ccbtsgth.s:22519  .debug_str:000000000000adb6 .LASF3800
C:\Users\CYMR90~1\AppData\Local\Temp\ccbtsgth.s:26448  .debug_str:000000000001abf7 .LASF3801
C:\Users\CYMR90~1\AppData\Local\Temp\ccbtsgth.s:30444  .debug_str:000000000002a731 .LASF3802
C:\Users\CYMR90~1\AppData\Local\Temp\ccbtsgth.s:23069  .debug_str:000000000000d2b3 .LASF3803
C:\Users\CYMR90~1\AppData\Local\Temp\ccbtsgth.s:24537  .debug_str:0000000000012f4b .LASF3804
C:\Users\CYMR90~1\AppData\Local\Temp\ccbtsgth.s:30936  .debug_str:000000000002c771 .LASF3805
C:\Users\CYMR90~1\AppData\Local\Temp\ccbtsgth.s:24123  .debug_str:00000000000113b4 .LASF3806
C:\Users\CYMR90~1\AppData\Local\Temp\ccbtsgth.s:20601  .debug_str:00000000000031f1 .LASF3807
C:\Users\CYMR90~1\AppData\Local\Temp\ccbtsgth.s:29804  .debug_str:0000000000027ef8 .LASF3808
C:\Users\CYMR90~1\AppData\Local\Temp\ccbtsgth.s:30384  .debug_str:000000000002a3a9 .LASF3809
C:\Users\CYMR90~1\AppData\Local\Temp\ccbtsgth.s:26376  .debug_str:000000000001a7a3 .LASF3810
C:\Users\CYMR90~1\AppData\Local\Temp\ccbtsgth.s:30374  .debug_str:000000000002a2d2 .LASF3811
C:\Users\CYMR90~1\AppData\Local\Temp\ccbtsgth.s:23009  .debug_str:000000000000cec4 .LASF3812
C:\Users\CYMR90~1\AppData\Local\Temp\ccbtsgth.s:26912  .debug_str:000000000001c96b .LASF3813
C:\Users\CYMR90~1\AppData\Local\Temp\ccbtsgth.s:30876  .debug_str:000000000002c3bf .LASF3814
C:\Users\CYMR90~1\AppData\Local\Temp\ccbtsgth.s:21815  .debug_str:0000000000008081 .LASF3815
C:\Users\CYMR90~1\AppData\Local\Temp\ccbtsgth.s:24931  .debug_str:0000000000014823 .LASF3816
C:\Users\CYMR90~1\AppData\Local\Temp\ccbtsgth.s:24449  .debug_str:0000000000012992 .LASF3817
C:\Users\CYMR90~1\AppData\Local\Temp\ccbtsgth.s:22385  .debug_str:000000000000a4a0 .LASF3818
C:\Users\CYMR90~1\AppData\Local\Temp\ccbtsgth.s:26298  .debug_str:000000000001a0db .LASF3819
C:\Users\CYMR90~1\AppData\Local\Temp\ccbtsgth.s:23785  .debug_str:000000000000ff46 .LASF3820
C:\Users\CYMR90~1\AppData\Local\Temp\ccbtsgth.s:26688  .debug_str:000000000001bb15 .LASF3821
C:\Users\CYMR90~1\AppData\Local\Temp\ccbtsgth.s:26842  .debug_str:000000000001c457 .LASF3822
C:\Users\CYMR90~1\AppData\Local\Temp\ccbtsgth.s:28144  .debug_str:0000000000021678 .LASF3823
C:\Users\CYMR90~1\AppData\Local\Temp\ccbtsgth.s:23409  .debug_str:000000000000e7a1 .LASF3824
C:\Users\CYMR90~1\AppData\Local\Temp\ccbtsgth.s:27298  .debug_str:000000000001e2a1 .LASF3825
C:\Users\CYMR90~1\AppData\Local\Temp\ccbtsgth.s:19983  .debug_str:0000000000000b3d .LASF3826
C:\Users\CYMR90~1\AppData\Local\Temp\ccbtsgth.s:26848  .debug_str:000000000001c4b5 .LASF3827
C:\Users\CYMR90~1\AppData\Local\Temp\ccbtsgth.s:28412  .debug_str:0000000000022656 .LASF3828
C:\Users\CYMR90~1\AppData\Local\Temp\ccbtsgth.s:30246  .debug_str:0000000000029b75 .LASF3829
C:\Users\CYMR90~1\AppData\Local\Temp\ccbtsgth.s:22877  .debug_str:000000000000c62d .LASF3830
C:\Users\CYMR90~1\AppData\Local\Temp\ccbtsgth.s:24953  .debug_str:0000000000014958 .LASF3831
C:\Users\CYMR90~1\AppData\Local\Temp\ccbtsgth.s:30742  .debug_str:000000000002ba85 .LASF3832
C:\Users\CYMR90~1\AppData\Local\Temp\ccbtsgth.s:24647  .debug_str:0000000000013637 .LASF3833
C:\Users\CYMR90~1\AppData\Local\Temp\ccbtsgth.s:27234  .debug_str:000000000001dee7 .LASF3834
C:\Users\CYMR90~1\AppData\Local\Temp\ccbtsgth.s:19923  .debug_str:000000000000074e .LASF3835
C:\Users\CYMR90~1\AppData\Local\Temp\ccbtsgth.s:30924  .debug_str:000000000002c68e .LASF3836
C:\Users\CYMR90~1\AppData\Local\Temp\ccbtsgth.s:20867  .debug_str:000000000000436f .LASF3837
C:\Users\CYMR90~1\AppData\Local\Temp\ccbtsgth.s:30180  .debug_str:0000000000029780 .LASF3838
C:\Users\CYMR90~1\AppData\Local\Temp\ccbtsgth.s:26178  .debug_str:0000000000019a01 .LASF3839
C:\Users\CYMR90~1\AppData\Local\Temp\ccbtsgth.s:28496  .debug_str:0000000000022b84 .LASF3840
C:\Users\CYMR90~1\AppData\Local\Temp\ccbtsgth.s:30684  .debug_str:000000000002b685 .LASF3841
C:\Users\CYMR90~1\AppData\Local\Temp\ccbtsgth.s:23287  .debug_str:000000000000e01c .LASF3842
C:\Users\CYMR90~1\AppData\Local\Temp\ccbtsgth.s:27168  .debug_str:000000000001da4d .LASF3843
C:\Users\CYMR90~1\AppData\Local\Temp\ccbtsgth.s:19851  .debug_str:0000000000000335 .LASF3844
C:\Users\CYMR90~1\AppData\Local\Temp\ccbtsgth.s:24317  .debug_str:00000000000120ff .LASF3845
C:\Users\CYMR90~1\AppData\Local\Temp\ccbtsgth.s:20743  .debug_str:0000000000003afe .LASF3846
C:\Users\CYMR90~1\AppData\Local\Temp\ccbtsgth.s:24801  .debug_str:0000000000013fd9 .LASF3847
C:\Users\CYMR90~1\AppData\Local\Temp\ccbtsgth.s:22753  .debug_str:000000000000be64 .LASF3848
C:\Users\CYMR90~1\AppData\Local\Temp\ccbtsgth.s:20137  .debug_str:0000000000001500 .LASF3849
C:\Users\CYMR90~1\AppData\Local\Temp\ccbtsgth.s:23057  .debug_str:000000000000d20a .LASF3850
C:\Users\CYMR90~1\AppData\Local\Temp\ccbtsgth.s:27498  .debug_str:000000000001eec6 .LASF3851
C:\Users\CYMR90~1\AppData\Local\Temp\ccbtsgth.s:27684  .debug_str:000000000001fa04 .LASF3852
C:\Users\CYMR90~1\AppData\Local\Temp\ccbtsgth.s:31078  .debug_str:000000000002d07e .LASF3853
C:\Users\CYMR90~1\AppData\Local\Temp\ccbtsgth.s:20131  .debug_str:00000000000014a4 .LASF3854
C:\Users\CYMR90~1\AppData\Local\Temp\ccbtsgth.s:24247  .debug_str:0000000000011c62 .LASF3855
C:\Users\CYMR90~1\AppData\Local\Temp\ccbtsgth.s:20315  .debug_str:000000000000204a .LASF3856
C:\Users\CYMR90~1\AppData\Local\Temp\ccbtsgth.s:29274  .debug_str:0000000000025d50 .LASF3857
C:\Users\CYMR90~1\AppData\Local\Temp\ccbtsgth.s:24981  .debug_str:0000000000014b57 .LASF3858
C:\Users\CYMR90~1\AppData\Local\Temp\ccbtsgth.s:28220  .debug_str:0000000000021b09 .LASF3859
C:\Users\CYMR90~1\AppData\Local\Temp\ccbtsgth.s:20559  .debug_str:0000000000002f48 .LASF3860
C:\Users\CYMR90~1\AppData\Local\Temp\ccbtsgth.s:21885  .debug_str:00000000000084d6 .LASF3861
C:\Users\CYMR90~1\AppData\Local\Temp\ccbtsgth.s:25790  .debug_str:0000000000018062 .LASF3862
C:\Users\CYMR90~1\AppData\Local\Temp\ccbtsgth.s:29728  .debug_str:00000000000279a9 .LASF3863
C:\Users\CYMR90~1\AppData\Local\Temp\ccbtsgth.s:22377  .debug_str:000000000000a410 .LASF3864
C:\Users\CYMR90~1\AppData\Local\Temp\ccbtsgth.s:30938  .debug_str:000000000002c797 .LASF3865
C:\Users\CYMR90~1\AppData\Local\Temp\ccbtsgth.s:30298  .debug_str:0000000000029e5a .LASF3866
C:\Users\CYMR90~1\AppData\Local\Temp\ccbtsgth.s:22005  .debug_str:0000000000008c9f .LASF3867
C:\Users\CYMR90~1\AppData\Local\Temp\ccbtsgth.s:20445  .debug_str:000000000000281f .LASF3868
C:\Users\CYMR90~1\AppData\Local\Temp\ccbtsgth.s:29182  .debug_str:00000000000257d9 .LASF3869
C:\Users\CYMR90~1\AppData\Local\Temp\ccbtsgth.s:21821  .debug_str:00000000000080d4 .LASF3870
C:\Users\CYMR90~1\AppData\Local\Temp\ccbtsgth.s:25724  .debug_str:0000000000017c46 .LASF3871
C:\Users\CYMR90~1\AppData\Local\Temp\ccbtsgth.s:30508  .debug_str:000000000002aaed .LASF3872
C:\Users\CYMR90~1\AppData\Local\Temp\ccbtsgth.s:20765  .debug_str:0000000000003c93 .LASF3873
C:\Users\CYMR90~1\AppData\Local\Temp\ccbtsgth.s:26218  .debug_str:0000000000019c95 .LASF3874
C:\Users\CYMR90~1\AppData\Local\Temp\ccbtsgth.s:30242  .debug_str:0000000000029b38 .LASF3875
C:\Users\CYMR90~1\AppData\Local\Temp\ccbtsgth.s:28656  .debug_str:00000000000234c2 .LASF3876
C:\Users\CYMR90~1\AppData\Local\Temp\ccbtsgth.s:27718  .debug_str:000000000001fbf3 .LASF3877
C:\Users\CYMR90~1\AppData\Local\Temp\ccbtsgth.s:29008  .debug_str:0000000000024b12 .LASF3878
C:\Users\CYMR90~1\AppData\Local\Temp\ccbtsgth.s:24137  .debug_str:00000000000114a1 .LASF3879
C:\Users\CYMR90~1\AppData\Local\Temp\ccbtsgth.s:25664  .debug_str:00000000000178b8 .LASF3880
C:\Users\CYMR90~1\AppData\Local\Temp\ccbtsgth.s:21977  .debug_str:0000000000008a8f .LASF3881
C:\Users\CYMR90~1\AppData\Local\Temp\ccbtsgth.s:26388  .debug_str:000000000001a856 .LASF3882
C:\Users\CYMR90~1\AppData\Local\Temp\ccbtsgth.s:26630  .debug_str:000000000001b7bd .LASF3883
C:\Users\CYMR90~1\AppData\Local\Temp\ccbtsgth.s:30170  .debug_str:00000000000296f6 .LASF3884
C:\Users\CYMR90~1\AppData\Local\Temp\ccbtsgth.s:22805  .debug_str:000000000000c1be .LASF3885
C:\Users\CYMR90~1\AppData\Local\Temp\ccbtsgth.s:23217  .debug_str:000000000000dbc4 .LASF3886
C:\Users\CYMR90~1\AppData\Local\Temp\ccbtsgth.s:30566  .debug_str:000000000002ae61 .LASF3887
C:\Users\CYMR90~1\AppData\Local\Temp\ccbtsgth.s:21681  .debug_str:0000000000007689 .LASF3888
C:\Users\CYMR90~1\AppData\Local\Temp\ccbtsgth.s:25594  .debug_str:0000000000017414 .LASF3889
C:\Users\CYMR90~1\AppData\Local\Temp\ccbtsgth.s:28636  .debug_str:000000000002333a .LASF3890
C:\Users\CYMR90~1\AppData\Local\Temp\ccbtsgth.s:22163  .debug_str:0000000000009625 .LASF3891
C:\Users\CYMR90~1\AppData\Local\Temp\ccbtsgth.s:26916  .debug_str:000000000001c9a0 .LASF3892
C:\Users\CYMR90~1\AppData\Local\Temp\ccbtsgth.s:30106  .debug_str:0000000000029314 .LASF3893
C:\Users\CYMR90~1\AppData\Local\Temp\ccbtsgth.s:22747  .debug_str:000000000000bddb .LASF3894
C:\Users\CYMR90~1\AppData\Local\Temp\ccbtsgth.s:26704  .debug_str:000000000001bc11 .LASF3895
C:\Users\CYMR90~1\AppData\Local\Temp\ccbtsgth.s:29030  .debug_str:0000000000024c92 .LASF3896
C:\Users\CYMR90~1\AppData\Local\Temp\ccbtsgth.s:25043  .debug_str:0000000000014f53 .LASF3897
C:\Users\CYMR90~1\AppData\Local\Temp\ccbtsgth.s:25534  .debug_str:000000000001701e .LASF3898
C:\Users\CYMR90~1\AppData\Local\Temp\ccbtsgth.s:28472  .debug_str:00000000000229c1 .LASF3899
C:\Users\CYMR90~1\AppData\Local\Temp\ccbtsgth.s:20035  .debug_str:0000000000000e7f .LASF3900
C:\Users\CYMR90~1\AppData\Local\Temp\ccbtsgth.s:26036  .debug_str:0000000000019128 .LASF3901
C:\Users\CYMR90~1\AppData\Local\Temp\ccbtsgth.s:25540  .debug_str:000000000001708a .LASF3902
C:\Users\CYMR90~1\AppData\Local\Temp\ccbtsgth.s:27874  .debug_str:0000000000020594 .LASF3903
C:\Users\CYMR90~1\AppData\Local\Temp\ccbtsgth.s:30220  .debug_str:00000000000299dd .LASF3904
C:\Users\CYMR90~1\AppData\Local\Temp\ccbtsgth.s:30528  .debug_str:000000000002ac42 .LASF3905
C:\Users\CYMR90~1\AppData\Local\Temp\ccbtsgth.s:23575  .debug_str:000000000000f1e4 .LASF3906
C:\Users\CYMR90~1\AppData\Local\Temp\ccbtsgth.s:30944  .debug_str:000000000002c819 .LASF3907
C:\Users\CYMR90~1\AppData\Local\Temp\ccbtsgth.s:29402  .debug_str:0000000000026558 .LASF3908
C:\Users\CYMR90~1\AppData\Local\Temp\ccbtsgth.s:22045  .debug_str:0000000000008f2a .LASF3909
C:\Users\CYMR90~1\AppData\Local\Temp\ccbtsgth.s:25966  .debug_str:0000000000018c25 .LASF3910
C:\Users\CYMR90~1\AppData\Local\Temp\ccbtsgth.s:29054  .debug_str:0000000000024dfc .LASF3911
C:\Users\CYMR90~1\AppData\Local\Temp\ccbtsgth.s:28880  .debug_str:00000000000242a8 .LASF3912
C:\Users\CYMR90~1\AppData\Local\Temp\ccbtsgth.s:26538  .debug_str:000000000001b236 .LASF3913
C:\Users\CYMR90~1\AppData\Local\Temp\ccbtsgth.s:30458  .debug_str:000000000002a7de .LASF3914
C:\Users\CYMR90~1\AppData\Local\Temp\ccbtsgth.s:23087  .debug_str:000000000000d429 .LASF3915
C:\Users\CYMR90~1\AppData\Local\Temp\ccbtsgth.s:29404  .debug_str:000000000002657e .LASF3916
C:\Users\CYMR90~1\AppData\Local\Temp\ccbtsgth.s:25437  .debug_str:00000000000167f6 .LASF3917
C:\Users\CYMR90~1\AppData\Local\Temp\ccbtsgth.s:21981  .debug_str:0000000000008ac9 .LASF3918
C:\Users\CYMR90~1\AppData\Local\Temp\ccbtsgth.s:25886  .debug_str:0000000000018640 .LASF3919
C:\Users\CYMR90~1\AppData\Local\Temp\ccbtsgth.s:21239  .debug_str:0000000000005af5 .LASF3920
C:\Users\CYMR90~1\AppData\Local\Temp\ccbtsgth.s:22559  .debug_str:000000000000b11a .LASF3921
C:\Users\CYMR90~1\AppData\Local\Temp\ccbtsgth.s:25926  .debug_str:000000000001890a .LASF3922
C:\Users\CYMR90~1\AppData\Local\Temp\ccbtsgth.s:30386  .debug_str:000000000002a3cf .LASF3923
C:\Users\CYMR90~1\AppData\Local\Temp\ccbtsgth.s:23025  .debug_str:000000000000cfd4 .LASF3924
C:\Users\CYMR90~1\AppData\Local\Temp\ccbtsgth.s:21603  .debug_str:00000000000071cf .LASF3925
C:\Users\CYMR90~1\AppData\Local\Temp\ccbtsgth.s:30892  .debug_str:000000000002c4ba .LASF3926
C:\Users\CYMR90~1\AppData\Local\Temp\ccbtsgth.s:27924  .debug_str:00000000000208c9 .LASF3927
C:\Users\CYMR90~1\AppData\Local\Temp\ccbtsgth.s:21545  .debug_str:0000000000006dcd .LASF3928
C:\Users\CYMR90~1\AppData\Local\Temp\ccbtsgth.s:29842  .debug_str:00000000000281e7 .LASF3929
C:\Users\CYMR90~1\AppData\Local\Temp\ccbtsgth.s:22489  .debug_str:000000000000abcc .LASF3930
C:\Users\CYMR90~1\AppData\Local\Temp\ccbtsgth.s:21153  .debug_str:0000000000005564 .LASF3931
C:\Users\CYMR90~1\AppData\Local\Temp\ccbtsgth.s:30322  .debug_str:0000000000029fc7 .LASF3932
C:\Users\CYMR90~1\AppData\Local\Temp\ccbtsgth.s:22965  .debug_str:000000000000cc1c .LASF3933
C:\Users\CYMR90~1\AppData\Local\Temp\ccbtsgth.s:26858  .debug_str:000000000001c551 .LASF3934
C:\Users\CYMR90~1\AppData\Local\Temp\ccbtsgth.s:30822  .debug_str:000000000002bfed .LASF3935
C:\Users\CYMR90~1\AppData\Local\Temp\ccbtsgth.s:23521  .debug_str:000000000000ee86 .LASF3936
C:\Users\CYMR90~1\AppData\Local\Temp\ccbtsgth.s:27658  .debug_str:000000000001f85d .LASF3937
C:\Users\CYMR90~1\AppData\Local\Temp\ccbtsgth.s:26780  .debug_str:000000000001c103 .LASF3938
C:\Users\CYMR90~1\AppData\Local\Temp\ccbtsgth.s:30642  .debug_str:000000000002b3d1 .LASF3939
C:\Users\CYMR90~1\AppData\Local\Temp\ccbtsgth.s:26346  .debug_str:000000000001a516 .LASF3940
C:\Users\CYMR90~1\AppData\Local\Temp\ccbtsgth.s:28988  .debug_str:00000000000249e3 .LASF3941
C:\Users\CYMR90~1\AppData\Local\Temp\ccbtsgth.s:26316  .debug_str:000000000001a3a7 .LASF3942
C:\Users\CYMR90~1\AppData\Local\Temp\ccbtsgth.s:26790  .debug_str:000000000001c19a .LASF3943
C:\Users\CYMR90~1\AppData\Local\Temp\ccbtsgth.s:30990  .debug_str:000000000002caed .LASF3944
C:\Users\CYMR90~1\AppData\Local\Temp\ccbtsgth.s:22891  .debug_str:000000000000c6f5 .LASF3945
C:\Users\CYMR90~1\AppData\Local\Temp\ccbtsgth.s:20857  .debug_str:00000000000042cd .LASF3946
C:\Users\CYMR90~1\AppData\Local\Temp\ccbtsgth.s:21221  .debug_str:00000000000059e8 .LASF3947
C:\Users\CYMR90~1\AppData\Local\Temp\ccbtsgth.s:22357  .debug_str:000000000000a29a .LASF3948
C:\Users\CYMR90~1\AppData\Local\Temp\ccbtsgth.s:26264  .debug_str:0000000000019f04 .LASF3949
C:\Users\CYMR90~1\AppData\Local\Temp\ccbtsgth.s:30192  .debug_str:000000000002983d .LASF3950
C:\Users\CYMR90~1\AppData\Local\Temp\ccbtsgth.s:22829  .debug_str:000000000000c32e .LASF3951
C:\Users\CYMR90~1\AppData\Local\Temp\ccbtsgth.s:26730  .debug_str:000000000001bde0 .LASF3952
C:\Users\CYMR90~1\AppData\Local\Temp\ccbtsgth.s:30700  .debug_str:000000000002b7d5 .LASF3953
C:\Users\CYMR90~1\AppData\Local\Temp\ccbtsgth.s:26410  .debug_str:000000000001a9cd .LASF3954
C:\Users\CYMR90~1\AppData\Local\Temp\ccbtsgth.s:27268  .debug_str:000000000001e0f8 .LASF3955
C:\Users\CYMR90~1\AppData\Local\Temp\ccbtsgth.s:30894  .debug_str:000000000002c4e0 .LASF3956
C:\Users\CYMR90~1\AppData\Local\Temp\ccbtsgth.s:22443  .debug_str:000000000000a900 .LASF3957
C:\Users\CYMR90~1\AppData\Local\Temp\ccbtsgth.s:20893  .debug_str:000000000000453c .LASF3958
C:\Users\CYMR90~1\AppData\Local\Temp\ccbtsgth.s:24899  .debug_str:0000000000014620 .LASF3959
C:\Users\CYMR90~1\AppData\Local\Temp\ccbtsgth.s:28858  .debug_str:0000000000024117 .LASF3960
C:\Users\CYMR90~1\AppData\Local\Temp\ccbtsgth.s:21473  .debug_str:000000000000693c .LASF3961
C:\Users\CYMR90~1\AppData\Local\Temp\ccbtsgth.s:28350  .debug_str:00000000000222aa .LASF3962
C:\Users\CYMR90~1\AppData\Local\Temp\ccbtsgth.s:30722  .debug_str:000000000002b93d .LASF3963
C:\Users\CYMR90~1\AppData\Local\Temp\ccbtsgth.s:21455  .debug_str:0000000000006818 .LASF3964
C:\Users\CYMR90~1\AppData\Local\Temp\ccbtsgth.s:25880  .debug_str:00000000000185f4 .LASF3965
C:\Users\CYMR90~1\AppData\Local\Temp\ccbtsgth.s:29902  .debug_str:0000000000028635 .LASF3966
C:\Users\CYMR90~1\AppData\Local\Temp\ccbtsgth.s:29250  .debug_str:0000000000025bc1 .LASF3967
C:\Users\CYMR90~1\AppData\Local\Temp\ccbtsgth.s:24837  .debug_str:00000000000141c7 .LASF3968
C:\Users\CYMR90~1\AppData\Local\Temp\ccbtsgth.s:28944  .debug_str:00000000000246a2 .LASF3969
C:\Users\CYMR90~1\AppData\Local\Temp\ccbtsgth.s:29530  .debug_str:0000000000026d02 .LASF3970
C:\Users\CYMR90~1\AppData\Local\Temp\ccbtsgth.s:27066  .debug_str:000000000001d411 .LASF3971
C:\Users\CYMR90~1\AppData\Local\Temp\ccbtsgth.s:27808  .debug_str:0000000000020162 .LASF3972
C:\Users\CYMR90~1\AppData\Local\Temp\ccbtsgth.s:25191  .debug_str:00000000000157c5 .LASF3973
C:\Users\CYMR90~1\AppData\Local\Temp\ccbtsgth.s:27512  .debug_str:000000000001efb2 .LASF3974
C:\Users\CYMR90~1\AppData\Local\Temp\ccbtsgth.s:23225  .debug_str:000000000000dc4b .LASF3975
C:\Users\CYMR90~1\AppData\Local\Temp\ccbtsgth.s:22481  .debug_str:000000000000ab44 .LASF3976
C:\Users\CYMR90~1\AppData\Local\Temp\ccbtsgth.s:29138  .debug_str:000000000002544a .LASF3977
C:\Users\CYMR90~1\AppData\Local\Temp\ccbtsgth.s:30744  .debug_str:000000000002baab .LASF3978
C:\Users\CYMR90~1\AppData\Local\Temp\ccbtsgth.s:22545  .debug_str:000000000000b03f .LASF3979
C:\Users\CYMR90~1\AppData\Local\Temp\ccbtsgth.s:25245  .debug_str:0000000000015b79 .LASF3980
C:\Users\CYMR90~1\AppData\Local\Temp\ccbtsgth.s:29196  .debug_str:000000000002589a .LASF3981
C:\Users\CYMR90~1\AppData\Local\Temp\ccbtsgth.s:24311  .debug_str:00000000000120a4 .LASF3982
C:\Users\CYMR90~1\AppData\Local\Temp\ccbtsgth.s:25738  .debug_str:0000000000017d36 .LASF3983
C:\Users\CYMR90~1\AppData\Local\Temp\ccbtsgth.s:22993  .debug_str:000000000000cd8f .LASF3984
C:\Users\CYMR90~1\AppData\Local\Temp\ccbtsgth.s:22415  .debug_str:000000000000a647 .LASF3985
C:\Users\CYMR90~1\AppData\Local\Temp\ccbtsgth.s:26336  .debug_str:000000000001a483 .LASF3986
C:\Users\CYMR90~1\AppData\Local\Temp\ccbtsgth.s:23405  .debug_str:000000000000e76b .LASF3987
C:\Users\CYMR90~1\AppData\Local\Temp\ccbtsgth.s:21265  .debug_str:0000000000005c63 .LASF3988
C:\Users\CYMR90~1\AppData\Local\Temp\ccbtsgth.s:27546  .debug_str:000000000001f1be .LASF3989
C:\Users\CYMR90~1\AppData\Local\Temp\ccbtsgth.s:29134  .debug_str:00000000000253f8 .LASF3990
C:\Users\CYMR90~1\AppData\Local\Temp\ccbtsgth.s:28922  .debug_str:0000000000024548 .LASF3991
C:\Users\CYMR90~1\AppData\Local\Temp\ccbtsgth.s:20825  .debug_str:00000000000040e5 .LASF3992
C:\Users\CYMR90~1\AppData\Local\Temp\ccbtsgth.s:29702  .debug_str:0000000000027812 .LASF3993
C:\Users\CYMR90~1\AppData\Local\Temp\ccbtsgth.s:23985  .debug_str:0000000000010b9e .LASF3994
C:\Users\CYMR90~1\AppData\Local\Temp\ccbtsgth.s:26256  .debug_str:0000000000019e8c .LASF3995
C:\Users\CYMR90~1\AppData\Local\Temp\ccbtsgth.s:30186  .debug_str:00000000000297d3 .LASF3996
C:\Users\CYMR90~1\AppData\Local\Temp\ccbtsgth.s:29512  .debug_str:0000000000026be5 .LASF3997
C:\Users\CYMR90~1\AppData\Local\Temp\ccbtsgth.s:25119  .debug_str:000000000001536c .LASF3998
C:\Users\CYMR90~1\AppData\Local\Temp\ccbtsgth.s:30832  .debug_str:000000000002c0ba .LASF3999
C:\Users\CYMR90~1\AppData\Local\Temp\ccbtsgth.s:21691  .debug_str:0000000000007728 .LASF4000
C:\Users\CYMR90~1\AppData\Local\Temp\ccbtsgth.s:29078  .debug_str:0000000000024fdd .LASF4001
C:\Users\CYMR90~1\AppData\Local\Temp\ccbtsgth.s:31072  .debug_str:000000000002d01a .LASF4002
C:\Users\CYMR90~1\AppData\Local\Temp\ccbtsgth.s:20991  .debug_str:0000000000004bdf .LASF4003
C:\Users\CYMR90~1\AppData\Local\Temp\ccbtsgth.s:26194  .debug_str:0000000000019b11 .LASF4004
C:\Users\CYMR90~1\AppData\Local\Temp\ccbtsgth.s:21215  .debug_str:0000000000005954 .LASF4005
C:\Users\CYMR90~1\AppData\Local\Temp\ccbtsgth.s:22759  .debug_str:000000000000bec2 .LASF4006
C:\Users\CYMR90~1\AppData\Local\Temp\ccbtsgth.s:24051  .debug_str:0000000000010f5c .LASF4007
C:\Users\CYMR90~1\AppData\Local\Temp\ccbtsgth.s:22257  .debug_str:0000000000009c4b .LASF4008
C:\Users\CYMR90~1\AppData\Local\Temp\ccbtsgth.s:29292  .debug_str:0000000000025ea2 .LASF4009
C:\Users\CYMR90~1\AppData\Local\Temp\ccbtsgth.s:25634  .debug_str:000000000001769e .LASF4010
C:\Users\CYMR90~1\AppData\Local\Temp\ccbtsgth.s:22225  .debug_str:0000000000009a4a .LASF4011
C:\Users\CYMR90~1\AppData\Local\Temp\ccbtsgth.s:22227  .debug_str:0000000000009a70 .LASF4012
C:\Users\CYMR90~1\AppData\Local\Temp\ccbtsgth.s:26138  .debug_str:0000000000019720 .LASF4013
C:\Users\CYMR90~1\AppData\Local\Temp\ccbtsgth.s:30056  .debug_str:0000000000028f85 .LASF4014
C:\Users\CYMR90~1\AppData\Local\Temp\ccbtsgth.s:20223  .debug_str:0000000000001ac9 .LASF4015
C:\Users\CYMR90~1\AppData\Local\Temp\ccbtsgth.s:22573  .debug_str:000000000000b209 .LASF4016
C:\Users\CYMR90~1\AppData\Local\Temp\ccbtsgth.s:23681  .debug_str:000000000000f8a6 .LASF4017
C:\Users\CYMR90~1\AppData\Local\Temp\ccbtsgth.s:21555  .debug_str:0000000000006e56 .LASF4018
C:\Users\CYMR90~1\AppData\Local\Temp\ccbtsgth.s:25566  .debug_str:000000000001720c .LASF4019
C:\Users\CYMR90~1\AppData\Local\Temp\ccbtsgth.s:29506  .debug_str:0000000000026b83 .LASF4020
C:\Users\CYMR90~1\AppData\Local\Temp\ccbtsgth.s:28016  .debug_str:0000000000020e57 .LASF4021
C:\Users\CYMR90~1\AppData\Local\Temp\ccbtsgth.s:26072  .debug_str:000000000001932a .LASF4022
C:\Users\CYMR90~1\AppData\Local\Temp\ccbtsgth.s:21379  .debug_str:000000000000635d .LASF4023
C:\Users\CYMR90~1\AppData\Local\Temp\ccbtsgth.s:22637  .debug_str:000000000000b627 .LASF4024
C:\Users\CYMR90~1\AppData\Local\Temp\ccbtsgth.s:26064  .debug_str:00000000000192b4 .LASF4025
C:\Users\CYMR90~1\AppData\Local\Temp\ccbtsgth.s:24211  .debug_str:0000000000011a0f .LASF4026
C:\Users\CYMR90~1\AppData\Local\Temp\ccbtsgth.s:21295  .debug_str:0000000000005e2a .LASF4027
C:\Users\CYMR90~1\AppData\Local\Temp\ccbtsgth.s:25506  .debug_str:0000000000016e70 .LASF4028
C:\Users\CYMR90~1\AppData\Local\Temp\ccbtsgth.s:29438  .debug_str:0000000000026772 .LASF4029
C:\Users\CYMR90~1\AppData\Local\Temp\ccbtsgth.s:22085  .debug_str:000000000000914b .LASF4030
C:\Users\CYMR90~1\AppData\Local\Temp\ccbtsgth.s:26006  .debug_str:0000000000018e81 .LASF4031
C:\Users\CYMR90~1\AppData\Local\Temp\ccbtsgth.s:26172  .debug_str:00000000000199a9 .LASF4032
C:\Users\CYMR90~1\AppData\Local\Temp\ccbtsgth.s:27210  .debug_str:000000000001dd53 .LASF4033
C:\Users\CYMR90~1\AppData\Local\Temp\ccbtsgth.s:26496  .debug_str:000000000001af66 .LASF4034
C:\Users\CYMR90~1\AppData\Local\Temp\ccbtsgth.s:30402  .debug_str:000000000002a4ce .LASF4035
C:\Users\CYMR90~1\AppData\Local\Temp\ccbtsgth.s:23125  .debug_str:000000000000d6bb .LASF4036
C:\Users\CYMR90~1\AppData\Local\Temp\ccbtsgth.s:20193  .debug_str:0000000000001904 .LASF4037
C:\Users\CYMR90~1\AppData\Local\Temp\ccbtsgth.s:29378  .debug_str:00000000000263cf .LASF4038
C:\Users\CYMR90~1\AppData\Local\Temp\ccbtsgth.s:23751  .debug_str:000000000000fd40 .LASF4039
C:\Users\CYMR90~1\AppData\Local\Temp\ccbtsgth.s:26094  .debug_str:0000000000019495 .LASF4040
C:\Users\CYMR90~1\AppData\Local\Temp\ccbtsgth.s:28404  .debug_str:00000000000225de .LASF4041
C:\Users\CYMR90~1\AppData\Local\Temp\ccbtsgth.s:30772  .debug_str:000000000002bc74 .LASF4042
C:\Users\CYMR90~1\AppData\Local\Temp\ccbtsgth.s:26438  .debug_str:000000000001ab59 .LASF4043
C:\Users\CYMR90~1\AppData\Local\Temp\ccbtsgth.s:30342  .debug_str:000000000002a0b6 .LASF4044
C:\Users\CYMR90~1\AppData\Local\Temp\ccbtsgth.s:27284  .debug_str:000000000001e1cd .LASF4045
C:\Users\CYMR90~1\AppData\Local\Temp\ccbtsgth.s:23695  .debug_str:000000000000f97c .LASF4046
C:\Users\CYMR90~1\AppData\Local\Temp\ccbtsgth.s:24037  .debug_str:0000000000010e70 .LASF4047
C:\Users\CYMR90~1\AppData\Local\Temp\ccbtsgth.s:21951  .debug_str:0000000000008909 .LASF4048
C:\Users\CYMR90~1\AppData\Local\Temp\ccbtsgth.s:25854  .debug_str:00000000000184a7 .LASF4049
C:\Users\CYMR90~1\AppData\Local\Temp\ccbtsgth.s:24841  .debug_str:0000000000014226 .LASF4050
C:\Users\CYMR90~1\AppData\Local\Temp\ccbtsgth.s:24013  .debug_str:0000000000010cfa .LASF4051
C:\Users\CYMR90~1\AppData\Local\Temp\ccbtsgth.s:26362  .debug_str:000000000001a654 .LASF4052
C:\Users\CYMR90~1\AppData\Local\Temp\ccbtsgth.s:24719  .debug_str:0000000000013a88 .LASF4053
C:\Users\CYMR90~1\AppData\Local\Temp\ccbtsgth.s:27328  .debug_str:000000000001e4b9 .LASF4054
C:\Users\CYMR90~1\AppData\Local\Temp\ccbtsgth.s:28080  .debug_str:00000000000211fd .LASF4055
C:\Users\CYMR90~1\AppData\Local\Temp\ccbtsgth.s:24159  .debug_str:000000000001168d .LASF4056
C:\Users\CYMR90~1\AppData\Local\Temp\ccbtsgth.s:22487  .debug_str:000000000000aba6 .LASF4057
C:\Users\CYMR90~1\AppData\Local\Temp\ccbtsgth.s:20605  .debug_str:000000000000322f .LASF4058
C:\Users\CYMR90~1\AppData\Local\Temp\ccbtsgth.s:24511  .debug_str:0000000000012da3 .LASF4059
C:\Users\CYMR90~1\AppData\Local\Temp\ccbtsgth.s:28114  .debug_str:00000000000214b0 .LASF4060
C:\Users\CYMR90~1\AppData\Local\Temp\ccbtsgth.s:21063  .debug_str:0000000000005031 .LASF4061
C:\Users\CYMR90~1\AppData\Local\Temp\ccbtsgth.s:24977  .debug_str:0000000000014b0f .LASF4062
C:\Users\CYMR90~1\AppData\Local\Temp\ccbtsgth.s:28932  .debug_str:00000000000245e5 .LASF4063
C:\Users\CYMR90~1\AppData\Local\Temp\ccbtsgth.s:21547  .debug_str:0000000000006df3 .LASF4064
C:\Users\CYMR90~1\AppData\Local\Temp\ccbtsgth.s:20839  .debug_str:00000000000041b4 .LASF4065
C:\Users\CYMR90~1\AppData\Local\Temp\ccbtsgth.s:29498  .debug_str:0000000000026ae8 .LASF4066
C:\Users\CYMR90~1\AppData\Local\Temp\ccbtsgth.s:27734  .debug_str:000000000001fcbc .LASF4067
C:\Users\CYMR90~1\AppData\Local\Temp\ccbtsgth.s:24457  .debug_str:0000000000012a38 .LASF4068
C:\Users\CYMR90~1\AppData\Local\Temp\ccbtsgth.s:28394  .debug_str:0000000000022520 .LASF4069
C:\Users\CYMR90~1\AppData\Local\Temp\ccbtsgth.s:24297  .debug_str:0000000000011fad .LASF4070
C:\Users\CYMR90~1\AppData\Local\Temp\ccbtsgth.s:25023  .debug_str:0000000000014e2e .LASF4071
C:\Users\CYMR90~1\AppData\Local\Temp\ccbtsgth.s:22725  .debug_str:000000000000bc0f .LASF4072
C:\Users\CYMR90~1\AppData\Local\Temp\ccbtsgth.s:29656  .debug_str:00000000000274e8 .LASF4073
C:\Users\CYMR90~1\AppData\Local\Temp\ccbtsgth.s:25401  .debug_str:000000000001655d .LASF4074
C:\Users\CYMR90~1\AppData\Local\Temp\ccbtsgth.s:29432  .debug_str:000000000002671e .LASF4075
C:\Users\CYMR90~1\AppData\Local\Temp\ccbtsgth.s:22077  .debug_str:00000000000090dc .LASF4076
C:\Users\CYMR90~1\AppData\Local\Temp\ccbtsgth.s:30456  .debug_str:000000000002a7b8 .LASF4077
C:\Users\CYMR90~1\AppData\Local\Temp\ccbtsgth.s:23839  .debug_str:000000000001026f .LASF4078
C:\Users\CYMR90~1\AppData\Local\Temp\ccbtsgth.s:20113  .debug_str:0000000000001361 .LASF4079
C:\Users\CYMR90~1\AppData\Local\Temp\ccbtsgth.s:28504  .debug_str:0000000000022c0c .LASF4080
C:\Users\CYMR90~1\AppData\Local\Temp\ccbtsgth.s:23609  .debug_str:000000000000f3f0 .LASF4081
C:\Users\CYMR90~1\AppData\Local\Temp\ccbtsgth.s:21417  .debug_str:000000000000657c .LASF4082
C:\Users\CYMR90~1\AppData\Local\Temp\ccbtsgth.s:25329  .debug_str:000000000001610b .LASF4083
C:\Users\CYMR90~1\AppData\Local\Temp\ccbtsgth.s:29370  .debug_str:0000000000026355 .LASF4084
C:\Users\CYMR90~1\AppData\Local\Temp\ccbtsgth.s:22015  .debug_str:0000000000008d60 .LASF4085
C:\Users\CYMR90~1\AppData\Local\Temp\ccbtsgth.s:25922  .debug_str:00000000000188aa .LASF4086
C:\Users\CYMR90~1\AppData\Local\Temp\ccbtsgth.s:23021  .debug_str:000000000000cf93 .LASF4087
C:\Users\CYMR90~1\AppData\Local\Temp\ccbtsgth.s:20871  .debug_str:00000000000043b9 .LASF4088
C:\Users\CYMR90~1\AppData\Local\Temp\ccbtsgth.s:24781  .debug_str:0000000000013ea5 .LASF4089
C:\Users\CYMR90~1\AppData\Local\Temp\ccbtsgth.s:22871  .debug_str:000000000000c5a2 .LASF4090
C:\Users\CYMR90~1\AppData\Local\Temp\ccbtsgth.s:21349  .debug_str:0000000000006169 .LASF4091
C:\Users\CYMR90~1\AppData\Local\Temp\ccbtsgth.s:20493  .debug_str:0000000000002b5e .LASF4092
C:\Users\CYMR90~1\AppData\Local\Temp\ccbtsgth.s:29308  .debug_str:0000000000025fb1 .LASF4093
C:\Users\CYMR90~1\AppData\Local\Temp\ccbtsgth.s:21963  .debug_str:00000000000089bf .LASF4094
C:\Users\CYMR90~1\AppData\Local\Temp\ccbtsgth.s:25846  .debug_str:00000000000183ff .LASF4095
C:\Users\CYMR90~1\AppData\Local\Temp\ccbtsgth.s:20259  .debug_str:0000000000001d05 .LASF4096
C:\Users\CYMR90~1\AppData\Local\Temp\ccbtsgth.s:26854  .debug_str:000000000001c50c .LASF4097
C:\Users\CYMR90~1\AppData\Local\Temp\ccbtsgth.s:24715  .debug_str:0000000000013a45 .LASF4098
C:\Users\CYMR90~1\AppData\Local\Temp\ccbtsgth.s:28676  .debug_str:00000000000235ed .LASF4099
C:\Users\CYMR90~1\AppData\Local\Temp\ccbtsgth.s:25127  .debug_str:00000000000153f9 .LASF4100
C:\Users\CYMR90~1\AppData\Local\Temp\ccbtsgth.s:29834  .debug_str:0000000000028161 .LASF4101
C:\Users\CYMR90~1\AppData\Local\Temp\ccbtsgth.s:23143  .debug_str:000000000000d788 .LASF4102
C:\Users\CYMR90~1\AppData\Local\Temp\ccbtsgth.s:21873  .debug_str:000000000000842e .LASF4103
C:\Users\CYMR90~1\AppData\Local\Temp\ccbtsgth.s:27780  .debug_str:000000000001ffee .LASF4104
C:\Users\CYMR90~1\AppData\Local\Temp\ccbtsgth.s:29718  .debug_str:00000000000278fd .LASF4105
C:\Users\CYMR90~1\AppData\Local\Temp\ccbtsgth.s:22363  .debug_str:000000000000a307 .LASF4106
C:\Users\CYMR90~1\AppData\Local\Temp\ccbtsgth.s:30754  .debug_str:000000000002bb32 .LASF4107
C:\Users\CYMR90~1\AppData\Local\Temp\ccbtsgth.s:21653  .debug_str:00000000000074b6 .LASF4108
C:\Users\CYMR90~1\AppData\Local\Temp\ccbtsgth.s:21211  .debug_str:00000000000058fc .LASF4109
C:\Users\CYMR90~1\AppData\Local\Temp\ccbtsgth.s:24277  .debug_str:0000000000011e9c .LASF4110
C:\Users\CYMR90~1\AppData\Local\Temp\ccbtsgth.s:25179  .debug_str:000000000001570d .LASF4111
C:\Users\CYMR90~1\AppData\Local\Temp\ccbtsgth.s:21805  .debug_str:0000000000007fc5 .LASF4112
C:\Users\CYMR90~1\AppData\Local\Temp\ccbtsgth.s:25369  .debug_str:000000000001638b .LASF4113
C:\Users\CYMR90~1\AppData\Local\Temp\ccbtsgth.s:22349  .debug_str:000000000000a205 .LASF4114
C:\Users\CYMR90~1\AppData\Local\Temp\ccbtsgth.s:20477  .debug_str:0000000000002a28 .LASF4115
C:\Users\CYMR90~1\AppData\Local\Temp\ccbtsgth.s:27756  .debug_str:000000000001fe64 .LASF4116
C:\Users\CYMR90~1\AppData\Local\Temp\ccbtsgth.s:21511  .debug_str:0000000000006b88 .LASF4117
C:\Users\CYMR90~1\AppData\Local\Temp\ccbtsgth.s:21147  .debug_str:0000000000005518 .LASF4118
C:\Users\CYMR90~1\AppData\Local\Temp\ccbtsgth.s:21757  .debug_str:0000000000007b88 .LASF4119
C:\Users\CYMR90~1\AppData\Local\Temp\ccbtsgth.s:30148  .debug_str:00000000000295b3 .LASF4120
C:\Users\CYMR90~1\AppData\Local\Temp\ccbtsgth.s:21731  .debug_str:0000000000007a07 .LASF4121
C:\Users\CYMR90~1\AppData\Local\Temp\ccbtsgth.s:21311  .debug_str:0000000000005f08 .LASF4122
C:\Users\CYMR90~1\AppData\Local\Temp\ccbtsgth.s:22093  .debug_str:00000000000091d1 .LASF4123
C:\Users\CYMR90~1\AppData\Local\Temp\ccbtsgth.s:28750  .debug_str:0000000000023a50 .LASF4124
C:\Users\CYMR90~1\AppData\Local\Temp\ccbtsgth.s:20917  .debug_str:00000000000046e3 .LASF4125
C:\Users\CYMR90~1\AppData\Local\Temp\ccbtsgth.s:21507  .debug_str:0000000000006b35 .LASF4126
C:\Users\CYMR90~1\AppData\Local\Temp\ccbtsgth.s:30624  .debug_str:000000000002b279 .LASF4127
C:\Users\CYMR90~1\AppData\Local\Temp\ccbtsgth.s:20043  .debug_str:0000000000000f8e .LASF4128
C:\Users\CYMR90~1\AppData\Local\Temp\ccbtsgth.s:22371  .debug_str:000000000000a3b7 .LASF4129
C:\Users\CYMR90~1\AppData\Local\Temp\ccbtsgth.s:21665  .debug_str:0000000000007584 .LASF4130
C:\Users\CYMR90~1\AppData\Local\Temp\ccbtsgth.s:27006  .debug_str:000000000001d079 .LASF4131
C:\Users\CYMR90~1\AppData\Local\Temp\ccbtsgth.s:29336  .debug_str:0000000000026153 .LASF4132
C:\Users\CYMR90~1\AppData\Local\Temp\ccbtsgth.s:26352  .debug_str:000000000001a588 .LASF4133
C:\Users\CYMR90~1\AppData\Local\Temp\ccbtsgth.s:22723  .debug_str:000000000000bbe9 .LASF4134
C:\Users\CYMR90~1\AppData\Local\Temp\ccbtsgth.s:30092  .debug_str:000000000002921b .LASF4135
C:\Users\CYMR90~1\AppData\Local\Temp\ccbtsgth.s:22495  .debug_str:000000000000ac44 .LASF4136
C:\Users\CYMR90~1\AppData\Local\Temp\ccbtsgth.s:19825  .debug_str:0000000000000174 .LASF4137
C:\Users\CYMR90~1\AppData\Local\Temp\ccbtsgth.s:28978  .debug_str:000000000002491c .LASF4138
C:\Users\CYMR90~1\AppData\Local\Temp\ccbtsgth.s:28174  .debug_str:0000000000021844 .LASF4139
C:\Users\CYMR90~1\AppData\Local\Temp\ccbtsgth.s:25524  .debug_str:0000000000016f71 .LASF4140
C:\Users\CYMR90~1\AppData\Local\Temp\ccbtsgth.s:24901  .debug_str:0000000000014646 .LASF4141
C:\Users\CYMR90~1\AppData\Local\Temp\ccbtsgth.s:25658  .debug_str:0000000000017846 .LASF4142
C:\Users\CYMR90~1\AppData\Local\Temp\ccbtsgth.s:26440  .debug_str:000000000001ab7f .LASF4143
C:\Users\CYMR90~1\AppData\Local\Temp\ccbtsgth.s:29416  .debug_str:0000000000026632 .LASF4144
C:\Users\CYMR90~1\AppData\Local\Temp\ccbtsgth.s:29546  .debug_str:0000000000026de1 .LASF4145
C:\Users\CYMR90~1\AppData\Local\Temp\ccbtsgth.s:26580  .debug_str:000000000001b4b4 .LASF4146
C:\Users\CYMR90~1\AppData\Local\Temp\ccbtsgth.s:28606  .debug_str:0000000000023194 .LASF4147
C:\Users\CYMR90~1\AppData\Local\Temp\ccbtsgth.s:21527  .debug_str:0000000000006cb2 .LASF4148
C:\Users\CYMR90~1\AppData\Local\Temp\ccbtsgth.s:25451  .debug_str:0000000000016963 .LASF4149
C:\Users\CYMR90~1\AppData\Local\Temp\ccbtsgth.s:29392  .debug_str:000000000002649c .LASF4150
C:\Users\CYMR90~1\AppData\Local\Temp\ccbtsgth.s:20861  .debug_str:0000000000004319 .LASF4151
C:\Users\CYMR90~1\AppData\Local\Temp\ccbtsgth.s:25968  .debug_str:0000000000018c4b .LASF4152
C:\Users\CYMR90~1\AppData\Local\Temp\ccbtsgth.s:24573  .debug_str:00000000000131ec .LASF4153
C:\Users\CYMR90~1\AppData\Local\Temp\ccbtsgth.s:26712  .debug_str:000000000001bc94 .LASF4154
C:\Users\CYMR90~1\AppData\Local\Temp\ccbtsgth.s:26526  .debug_str:000000000001b16f .LASF4155
C:\Users\CYMR90~1\AppData\Local\Temp\ccbtsgth.s:24945  .debug_str:00000000000148d4 .LASF4156
C:\Users\CYMR90~1\AppData\Local\Temp\ccbtsgth.s:20021  .debug_str:0000000000000d73 .LASF4157
C:\Users\CYMR90~1\AppData\Local\Temp\ccbtsgth.s:20227  .debug_str:0000000000001b07 .LASF4158
C:\Users\CYMR90~1\AppData\Local\Temp\ccbtsgth.s:24127  .debug_str:0000000000011400 .LASF4159
C:\Users\CYMR90~1\AppData\Local\Temp\ccbtsgth.s:28056  .debug_str:0000000000021091 .LASF4160
C:\Users\CYMR90~1\AppData\Local\Temp\ccbtsgth.s:20681  .debug_str:0000000000003735 .LASF4161
C:\Users\CYMR90~1\AppData\Local\Temp\ccbtsgth.s:24593  .debug_str:0000000000013324 .LASF4162
C:\Users\CYMR90~1\AppData\Local\Temp\ccbtsgth.s:27964  .debug_str:0000000000020b4c .LASF4163
C:\Users\CYMR90~1\AppData\Local\Temp\ccbtsgth.s:30618  .debug_str:000000000002b1fe .LASF4164
C:\Users\CYMR90~1\AppData\Local\Temp\ccbtsgth.s:25986  .debug_str:0000000000018d75 .LASF4165
C:\Users\CYMR90~1\AppData\Local\Temp\ccbtsgth.s:27558  .debug_str:000000000001f272 .LASF4166
C:\Users\CYMR90~1\AppData\Local\Temp\ccbtsgth.s:20859  .debug_str:00000000000042f3 .LASF4167
C:\Users\CYMR90~1\AppData\Local\Temp\ccbtsgth.s:20791  .debug_str:0000000000003e58 .LASF4168
C:\Users\CYMR90~1\AppData\Local\Temp\ccbtsgth.s:27990  .debug_str:0000000000020cda .LASF4169
C:\Users\CYMR90~1\AppData\Local\Temp\ccbtsgth.s:25950  .debug_str:0000000000018a65 .LASF4170
C:\Users\CYMR90~1\AppData\Local\Temp\ccbtsgth.s:24629  .debug_str:000000000001352d .LASF4171
C:\Users\CYMR90~1\AppData\Local\Temp\ccbtsgth.s:28498  .debug_str:0000000000022baa .LASF4172
C:\Users\CYMR90~1\AppData\Local\Temp\ccbtsgth.s:31050  .debug_str:000000000002cecc .LASF4173
C:\Users\CYMR90~1\AppData\Local\Temp\ccbtsgth.s:22467  .debug_str:000000000000aa59 .LASF4174
C:\Users\CYMR90~1\AppData\Local\Temp\ccbtsgth.s:23123  .debug_str:000000000000d6ae .LASF4175
C:\Users\CYMR90~1\AppData\Local\Temp\ccbtsgth.s:28628  .debug_str:00000000000232c7 .LASF4176
C:\Users\CYMR90~1\AppData\Local\Temp\ccbtsgth.s:27180  .debug_str:000000000001db05 .LASF4177
C:\Users\CYMR90~1\AppData\Local\Temp\ccbtsgth.s:19881  .debug_str:00000000000004c4 .LASF4178
C:\Users\CYMR90~1\AppData\Local\Temp\ccbtsgth.s:20909  .debug_str:000000000000464f .LASF4179
C:\Users\CYMR90~1\AppData\Local\Temp\ccbtsgth.s:23301  .debug_str:000000000000e0f5 .LASF4180
C:\Users\CYMR90~1\AppData\Local\Temp\ccbtsgth.s:21479  .debug_str:0000000000006996 .LASF4181
C:\Users\CYMR90~1\AppData\Local\Temp\ccbtsgth.s:24649  .debug_str:000000000001365d .LASF4182
C:\Users\CYMR90~1\AppData\Local\Temp\ccbtsgth.s:24275  .debug_str:0000000000011e75 .LASF4183
C:\Users\CYMR90~1\AppData\Local\Temp\ccbtsgth.s:20551  .debug_str:0000000000002ebe .LASF4184
C:\Users\CYMR90~1\AppData\Local\Temp\ccbtsgth.s:21113  .debug_str:0000000000005326 .LASF4185
C:\Users\CYMR90~1\AppData\Local\Temp\ccbtsgth.s:20635  .debug_str:000000000000343d .LASF4186
C:\Users\CYMR90~1\AppData\Local\Temp\ccbtsgth.s:19843  .debug_str:0000000000000289 .LASF4187
C:\Users\CYMR90~1\AppData\Local\Temp\ccbtsgth.s:22087  .debug_str:0000000000009171 .LASF4188
C:\Users\CYMR90~1\AppData\Local\Temp\ccbtsgth.s:25425  .debug_str:0000000000016747 .LASF4189
C:\Users\CYMR90~1\AppData\Local\Temp\ccbtsgth.s:20541  .debug_str:0000000000002e31 .LASF4190
C:\Users\CYMR90~1\AppData\Local\Temp\ccbtsgth.s:29474  .debug_str:0000000000026987 .LASF4191
C:\Users\CYMR90~1\AppData\Local\Temp\ccbtsgth.s:25287  .debug_str:0000000000015e8b .LASF4192
C:\Users\CYMR90~1\AppData\Local\Temp\ccbtsgth.s:25962  .debug_str:0000000000018bbe .LASF4193
C:\Users\CYMR90~1\AppData\Local\Temp\ccbtsgth.s:28640  .debug_str:0000000000023397 .LASF4194
C:\Users\CYMR90~1\AppData\Local\Temp\ccbtsgth.s:28424  .debug_str:0000000000022713 .LASF4195
C:\Users\CYMR90~1\AppData\Local\Temp\ccbtsgth.s:24477  .debug_str:0000000000012b60 .LASF4196
C:\Users\CYMR90~1\AppData\Local\Temp\ccbtsgth.s:30140  .debug_str:0000000000029557 .LASF4197
C:\Users\CYMR90~1\AppData\Local\Temp\ccbtsgth.s:30370  .debug_str:000000000002a2a0 .LASF4198
C:\Users\CYMR90~1\AppData\Local\Temp\ccbtsgth.s:20561  .debug_str:0000000000002f6e .LASF4199
C:\Users\CYMR90~1\AppData\Local\Temp\ccbtsgth.s:30348  .debug_str:000000000002a118 .LASF4200
C:\Users\CYMR90~1\AppData\Local\Temp\ccbtsgth.s:24021  .debug_str:0000000000010d71 .LASF4201
C:\Users\CYMR90~1\AppData\Local\Temp\ccbtsgth.s:27236  .debug_str:000000000001df0d .LASF4202
C:\Users\CYMR90~1\AppData\Local\Temp\ccbtsgth.s:22261  .debug_str:0000000000009c88 .LASF4203
C:\Users\CYMR90~1\AppData\Local\Temp\ccbtsgth.s:26492  .debug_str:000000000001af2f .LASF4204
C:\Users\CYMR90~1\AppData\Local\Temp\ccbtsgth.s:27074  .debug_str:000000000001d48d .LASF4205
C:\Users\CYMR90~1\AppData\Local\Temp\ccbtsgth.s:22647  .debug_str:000000000000b6c3 .LASF4206
C:\Users\CYMR90~1\AppData\Local\Temp\ccbtsgth.s:25638  .debug_str:00000000000176dc .LASF4207
C:\Users\CYMR90~1\AppData\Local\Temp\ccbtsgth.s:26776  .debug_str:000000000001c0a2 .LASF4208
C:\Users\CYMR90~1\AppData\Local\Temp\ccbtsgth.s:24409  .debug_str:000000000001270e .LASF4209
C:\Users\CYMR90~1\AppData\Local\Temp\ccbtsgth.s:27946  .debug_str:0000000000020a1f .LASF4210
C:\Users\CYMR90~1\AppData\Local\Temp\ccbtsgth.s:22583  .debug_str:000000000000b28d .LASF4211
C:\Users\CYMR90~1\AppData\Local\Temp\ccbtsgth.s:26462  .debug_str:000000000001acca .LASF4212
C:\Users\CYMR90~1\AppData\Local\Temp\ccbtsgth.s:21299  .debug_str:0000000000005e61 .LASF4213
C:\Users\CYMR90~1\AppData\Local\Temp\ccbtsgth.s:24455  .debug_str:0000000000012a13 .LASF4214
C:\Users\CYMR90~1\AppData\Local\Temp\ccbtsgth.s:30752  .debug_str:000000000002bb1b .LASF4215
C:\Users\CYMR90~1\AppData\Local\Temp\ccbtsgth.s:26090  .debug_str:000000000001945b .LASF4216
C:\Users\CYMR90~1\AppData\Local\Temp\ccbtsgth.s:25636  .debug_str:00000000000176c4 .LASF4217
C:\Users\CYMR90~1\AppData\Local\Temp\ccbtsgth.s:27100  .debug_str:000000000001d64b .LASF4218
C:\Users\CYMR90~1\AppData\Local\Temp\ccbtsgth.s:28760  .debug_str:0000000000023ad4 .LASF4219
C:\Users\CYMR90~1\AppData\Local\Temp\ccbtsgth.s:21145  .debug_str:00000000000054ff .LASF4220
C:\Users\CYMR90~1\AppData\Local\Temp\ccbtsgth.s:20129  .debug_str:0000000000001490 .LASF4221
C:\Users\CYMR90~1\AppData\Local\Temp\ccbtsgth.s:27418  .debug_str:000000000001ea24 .LASF4222
C:\Users\CYMR90~1\AppData\Local\Temp\ccbtsgth.s:28132  .debug_str:00000000000215be .LASF4223
C:\Users\CYMR90~1\AppData\Local\Temp\ccbtsgth.s:30316  .debug_str:0000000000029f77 .LASF4224
C:\Users\CYMR90~1\AppData\Local\Temp\ccbtsgth.s:24141  .debug_str:00000000000114de .LASF4225
C:\Users\CYMR90~1\AppData\Local\Temp\ccbtsgth.s:23357  .debug_str:000000000000e43f .LASF4226
C:\Users\CYMR90~1\AppData\Local\Temp\ccbtsgth.s:20657  .debug_str:0000000000003599 .LASF4227
C:\Users\CYMR90~1\AppData\Local\Temp\ccbtsgth.s:22543  .debug_str:000000000000b026 .LASF4228
C:\Users\CYMR90~1\AppData\Local\Temp\ccbtsgth.s:27908  .debug_str:00000000000207ad .LASF4229
C:\Users\CYMR90~1\AppData\Local\Temp\ccbtsgth.s:21979  .debug_str:0000000000008ab5 .LASF4230
C:\Users\CYMR90~1\AppData\Local\Temp\ccbtsgth.s:25546  .debug_str:00000000000170e6 .LASF4231
C:\Users\CYMR90~1\AppData\Local\Temp\ccbtsgth.s:28724  .debug_str:00000000000238e7 .LASF4232
C:\Users\CYMR90~1\AppData\Local\Temp\ccbtsgth.s:29544  .debug_str:0000000000026dcf .LASF4233
C:\Users\CYMR90~1\AppData\Local\Temp\ccbtsgth.s:20353  .debug_str:0000000000002252 .LASF4234
C:\Users\CYMR90~1\AppData\Local\Temp\ccbtsgth.s:27322  .debug_str:000000000001e419 .LASF4235
C:\Users\CYMR90~1\AppData\Local\Temp\ccbtsgth.s:22947  .debug_str:000000000000cb1e .LASF4236
C:\Users\CYMR90~1\AppData\Local\Temp\ccbtsgth.s:24721  .debug_str:0000000000013aae .LASF4237
C:\Users\CYMR90~1\AppData\Local\Temp\ccbtsgth.s:23567  .debug_str:000000000000f157 .LASF4238
C:\Users\CYMR90~1\AppData\Local\Temp\ccbtsgth.s:24485  .debug_str:0000000000012bd3 .LASF4239
C:\Users\CYMR90~1\AppData\Local\Temp\ccbtsgth.s:27978  .debug_str:0000000000020c41 .LASF4240
C:\Users\CYMR90~1\AppData\Local\Temp\ccbtsgth.s:23491  .debug_str:000000000000ecd2 .LASF4241
C:\Users\CYMR90~1\AppData\Local\Temp\ccbtsgth.s:27098  .debug_str:000000000001d636 .LASF4242
C:\Users\CYMR90~1\AppData\Local\Temp\ccbtsgth.s:20521  .debug_str:0000000000002d08 .LASF4243
C:\Users\CYMR90~1\AppData\Local\Temp\ccbtsgth.s:27150  .debug_str:000000000001d951 .LASF4244
C:\Users\CYMR90~1\AppData\Local\Temp\ccbtsgth.s:26816  .debug_str:000000000001c31f .LASF4245
C:\Users\CYMR90~1\AppData\Local\Temp\ccbtsgth.s:21895  .debug_str:0000000000008583 .LASF4246
C:\Users\CYMR90~1\AppData\Local\Temp\ccbtsgth.s:30448  .debug_str:000000000002a768 .LASF4247
C:\Users\CYMR90~1\AppData\Local\Temp\ccbtsgth.s:21743  .debug_str:0000000000007acf .LASF4248
C:\Users\CYMR90~1\AppData\Local\Temp\ccbtsgth.s:19895  .debug_str:0000000000000595 .LASF4249
C:\Users\CYMR90~1\AppData\Local\Temp\ccbtsgth.s:28970  .debug_str:00000000000248b3 .LASF4250
C:\Users\CYMR90~1\AppData\Local\Temp\ccbtsgth.s:25866  .debug_str:0000000000018543 .LASF4251
C:\Users\CYMR90~1\AppData\Local\Temp\ccbtsgth.s:23589  .debug_str:000000000000f2d3 .LASF4252
C:\Users\CYMR90~1\AppData\Local\Temp\ccbtsgth.s:28566  .debug_str:0000000000022f62 .LASF4253
C:\Users\CYMR90~1\AppData\Local\Temp\ccbtsgth.s:30268  .debug_str:0000000000029cc5 .LASF4254
C:\Users\CYMR90~1\AppData\Local\Temp\ccbtsgth.s:22803  .debug_str:000000000000c1aa .LASF4255
C:\Users\CYMR90~1\AppData\Local\Temp\ccbtsgth.s:21333  .debug_str:0000000000006091 .LASF4256
C:\Users\CYMR90~1\AppData\Local\Temp\ccbtsgth.s:20967  .debug_str:0000000000004a64 .LASF4257
C:\Users\CYMR90~1\AppData\Local\Temp\ccbtsgth.s:29316  .debug_str:0000000000026051 .LASF4258
C:\Users\CYMR90~1\AppData\Local\Temp\ccbtsgth.s:23199  .debug_str:000000000000dae4 .LASF4259
C:\Users\CYMR90~1\AppData\Local\Temp\ccbtsgth.s:24565  .debug_str:0000000000013156 .LASF4260
C:\Users\CYMR90~1\AppData\Local\Temp\ccbtsgth.s:21957  .debug_str:000000000000896a .LASF4261
C:\Users\CYMR90~1\AppData\Local\Temp\ccbtsgth.s:25133  .debug_str:000000000001544a .LASF4262
C:\Users\CYMR90~1\AppData\Local\Temp\ccbtsgth.s:29106  .debug_str:000000000002523f .LASF4263
C:\Users\CYMR90~1\AppData\Local\Temp\ccbtsgth.s:20411  .debug_str:00000000000025ae .LASF4264
C:\Users\CYMR90~1\AppData\Local\Temp\ccbtsgth.s:25303  .debug_str:0000000000015f85 .LASF4265
C:\Users\CYMR90~1\AppData\Local\Temp\ccbtsgth.s:20037  .debug_str:0000000000000ea5 .LASF4266
C:\Users\CYMR90~1\AppData\Local\Temp\ccbtsgth.s:23973  .debug_str:0000000000010af8 .LASF4267
C:\Users\CYMR90~1\AppData\Local\Temp\ccbtsgth.s:22693  .debug_str:000000000000b9e9 .LASF4268
C:\Users\CYMR90~1\AppData\Local\Temp\ccbtsgth.s:27686  .debug_str:000000000001fa2a .LASF4269
C:\Users\CYMR90~1\AppData\Local\Temp\ccbtsgth.s:22485  .debug_str:000000000000ab8e .LASF4270
C:\Users\CYMR90~1\AppData\Local\Temp\ccbtsgth.s:24375  .debug_str:00000000000124ce .LASF4271
C:\Users\CYMR90~1\AppData\Local\Temp\ccbtsgth.s:20405  .debug_str:0000000000002561 .LASF4272
C:\Users\CYMR90~1\AppData\Local\Temp\ccbtsgth.s:27046  .debug_str:000000000001d2c2 .LASF4273
C:\Users\CYMR90~1\AppData\Local\Temp\ccbtsgth.s:22923  .debug_str:000000000000c998 .LASF4274
C:\Users\CYMR90~1\AppData\Local\Temp\ccbtsgth.s:30428  .debug_str:000000000002a656 .LASF4275
C:\Users\CYMR90~1\AppData\Local\Temp\ccbtsgth.s:26318  .debug_str:000000000001a3cd .LASF4276
C:\Users\CYMR90~1\AppData\Local\Temp\ccbtsgth.s:19929  .debug_str:00000000000007ad .LASF4277
C:\Users\CYMR90~1\AppData\Local\Temp\ccbtsgth.s:30100  .debug_str:00000000000292a2 .LASF4278
C:\Users\CYMR90~1\AppData\Local\Temp\ccbtsgth.s:25385  .debug_str:000000000001647c .LASF4279
C:\Users\CYMR90~1\AppData\Local\Temp\ccbtsgth.s:26060  .debug_str:0000000000019281 .LASF4280
C:\Users\CYMR90~1\AppData\Local\Temp\ccbtsgth.s:21143  .debug_str:00000000000054e6 .LASF4281
C:\Users\CYMR90~1\AppData\Local\Temp\ccbtsgth.s:24797  .debug_str:0000000000013faf .LASF4282
C:\Users\CYMR90~1\AppData\Local\Temp\ccbtsgth.s:23759  .debug_str:000000000000fdbf .LASF4283
C:\Users\CYMR90~1\AppData\Local\Temp\ccbtsgth.s:26950  .debug_str:000000000001cbd4 .LASF4284
C:\Users\CYMR90~1\AppData\Local\Temp\ccbtsgth.s:25522  .debug_str:0000000000016f58 .LASF4285
C:\Users\CYMR90~1\AppData\Local\Temp\ccbtsgth.s:29406  .debug_str:00000000000265a4 .LASF4286
C:\Users\CYMR90~1\AppData\Local\Temp\ccbtsgth.s:30596  .debug_str:000000000002b086 .LASF4287
C:\Users\CYMR90~1\AppData\Local\Temp\ccbtsgth.s:22711  .debug_str:000000000000bb3c .LASF4288
C:\Users\CYMR90~1\AppData\Local\Temp\ccbtsgth.s:27860  .debug_str:00000000000204d4 .LASF4289
C:\Users\CYMR90~1\AppData\Local\Temp\ccbtsgth.s:25243  .debug_str:0000000000015b63 .LASF4290
C:\Users\CYMR90~1\AppData\Local\Temp\ccbtsgth.s:28710  .debug_str:00000000000237ff .LASF4291
C:\Users\CYMR90~1\AppData\Local\Temp\ccbtsgth.s:30564  .debug_str:000000000002ae4a .LASF4292
C:\Users\CYMR90~1\AppData\Local\Temp\ccbtsgth.s:28052  .debug_str:000000000002104e .LASF4293
C:\Users\CYMR90~1\AppData\Local\Temp\ccbtsgth.s:28392  .debug_str:0000000000022508 .LASF4294
C:\Users\CYMR90~1\AppData\Local\Temp\ccbtsgth.s:25373  .debug_str:00000000000163cf .LASF4295
C:\Users\CYMR90~1\AppData\Local\Temp\ccbtsgth.s:21561  .debug_str:0000000000006ee4 .LASF4296
C:\Users\CYMR90~1\AppData\Local\Temp\ccbtsgth.s:29146  .debug_str:0000000000025500 .LASF4297
C:\Users\CYMR90~1\AppData\Local\Temp\ccbtsgth.s:24399  .debug_str:0000000000012641 .LASF4298
C:\Users\CYMR90~1\AppData\Local\Temp\ccbtsgth.s:20033  .debug_str:0000000000000e67 .LASF4299
C:\Users\CYMR90~1\AppData\Local\Temp\ccbtsgth.s:28366  .debug_str:000000000002236c .LASF4300
C:\Users\CYMR90~1\AppData\Local\Temp\ccbtsgth.s:30082  .debug_str:00000000000291a8 .LASF4301
C:\Users\CYMR90~1\AppData\Local\Temp\ccbtsgth.s:20483  .debug_str:0000000000002a7d .LASF4302
C:\Users\CYMR90~1\AppData\Local\Temp\ccbtsgth.s:23469  .debug_str:000000000000eba5 .LASF4303
C:\Users\CYMR90~1\AppData\Local\Temp\ccbtsgth.s:27398  .debug_str:000000000001e929 .LASF4304
C:\Users\CYMR90~1\AppData\Local\Temp\ccbtsgth.s:20699  .debug_str:0000000000003850 .LASF4305
C:\Users\CYMR90~1\AppData\Local\Temp\ccbtsgth.s:24697  .debug_str:0000000000013968 .LASF4306
C:\Users\CYMR90~1\AppData\Local\Temp\ccbtsgth.s:29058  .debug_str:0000000000024e3a .LASF4307
C:\Users\CYMR90~1\AppData\Local\Temp\ccbtsgth.s:23711  .debug_str:000000000000fa82 .LASF4308
C:\Users\CYMR90~1\AppData\Local\Temp\ccbtsgth.s:24703  .debug_str:00000000000139ac .LASF4309
C:\Users\CYMR90~1\AppData\Local\Temp\ccbtsgth.s:21261  .debug_str:0000000000005c3b .LASF4310
C:\Users\CYMR90~1\AppData\Local\Temp\ccbtsgth.s:20851  .debug_str:000000000000425c .LASF4311
C:\Users\CYMR90~1\AppData\Local\Temp\ccbtsgth.s:28170  .debug_str:000000000002180d .LASF4312
C:\Users\CYMR90~1\AppData\Local\Temp\ccbtsgth.s:24365  .debug_str:000000000001241f .LASF4313
C:\Users\CYMR90~1\AppData\Local\Temp\ccbtsgth.s:20941  .debug_str:00000000000048e4 .LASF4314
C:\Users\CYMR90~1\AppData\Local\Temp\ccbtsgth.s:27958  .debug_str:0000000000020af2 .LASF4315
C:\Users\CYMR90~1\AppData\Local\Temp\ccbtsgth.s:29368  .debug_str:000000000002633e .LASF4316
C:\Users\CYMR90~1\AppData\Local\Temp\ccbtsgth.s:30552  .debug_str:000000000002ada0 .LASF4317
C:\Users\CYMR90~1\AppData\Local\Temp\ccbtsgth.s:29290  .debug_str:0000000000025e89 .LASF4318
C:\Users\CYMR90~1\AppData\Local\Temp\ccbtsgth.s:20177  .debug_str:000000000000176e .LASF4319
C:\Users\CYMR90~1\AppData\Local\Temp\ccbtsgth.s:27286  .debug_str:000000000001e1f3 .LASF4320
C:\Users\CYMR90~1\AppData\Local\Temp\ccbtsgth.s:22887  .debug_str:000000000000c6c4 .LASF4321
C:\Users\CYMR90~1\AppData\Local\Temp\ccbtsgth.s:22391  .debug_str:000000000000a4ff .LASF4322
C:\Users\CYMR90~1\AppData\Local\Temp\ccbtsgth.s:30910  .debug_str:000000000002c5cc .LASF4323
C:\Users\CYMR90~1\AppData\Local\Temp\ccbtsgth.s:30256  .debug_str:0000000000029c22 .LASF4324
C:\Users\CYMR90~1\AppData\Local\Temp\ccbtsgth.s:21749  .debug_str:0000000000007b29 .LASF4325
C:\Users\CYMR90~1\AppData\Local\Temp\ccbtsgth.s:20835  .debug_str:0000000000004181 .LASF4326
C:\Users\CYMR90~1\AppData\Local\Temp\ccbtsgth.s:29448  .debug_str:0000000000026820 .LASF4327
C:\Users\CYMR90~1\AppData\Local\Temp\ccbtsgth.s:26830  .debug_str:000000000001c3d2 .LASF4328
C:\Users\CYMR90~1\AppData\Local\Temp\ccbtsgth.s:29424  .debug_str:00000000000266b0 .LASF4329
C:\Users\CYMR90~1\AppData\Local\Temp\ccbtsgth.s:24733  .debug_str:0000000000013b61 .LASF4330
C:\Users\CYMR90~1\AppData\Local\Temp\ccbtsgth.s:23653  .debug_str:000000000000f72a .LASF4331
C:\Users\CYMR90~1\AppData\Local\Temp\ccbtsgth.s:27388  .debug_str:000000000001e89c .LASF4332
C:\Users\CYMR90~1\AppData\Local\Temp\ccbtsgth.s:28340  .debug_str:0000000000022217 .LASF4333
C:\Users\CYMR90~1\AppData\Local\Temp\ccbtsgth.s:28586  .debug_str:0000000000023065 .LASF4334
C:\Users\CYMR90~1\AppData\Local\Temp\ccbtsgth.s:25988  .debug_str:0000000000018d9b .LASF4335
C:\Users\CYMR90~1\AppData\Local\Temp\ccbtsgth.s:20371  .debug_str:000000000000235e .LASF4336
C:\Users\CYMR90~1\AppData\Local\Temp\ccbtsgth.s:20569  .debug_str:0000000000002fe3 .LASF4337
C:\Users\CYMR90~1\AppData\Local\Temp\ccbtsgth.s:29254  .debug_str:0000000000025c19 .LASF4338
C:\Users\CYMR90~1\AppData\Local\Temp\ccbtsgth.s:25143  .debug_str:00000000000154cb .LASF4339
C:\Users\CYMR90~1\AppData\Local\Temp\ccbtsgth.s:21793  .debug_str:0000000000007e8c .LASF4340
C:\Users\CYMR90~1\AppData\Local\Temp\ccbtsgth.s:22059  .debug_str:0000000000008fe5 .LASF4341
C:\Users\CYMR90~1\AppData\Local\Temp\ccbtsgth.s:29840  .debug_str:00000000000281cd .LASF4342
C:\Users\CYMR90~1\AppData\Local\Temp\ccbtsgth.s:31054  .debug_str:000000000002cf05 .LASF4343
C:\Users\CYMR90~1\AppData\Local\Temp\ccbtsgth.s:27220  .debug_str:000000000001ddfd .LASF4344
C:\Users\CYMR90~1\AppData\Local\Temp\ccbtsgth.s:21517  .debug_str:0000000000006c04 .LASF4345
C:\Users\CYMR90~1\AppData\Local\Temp\ccbtsgth.s:20981  .debug_str:0000000000004b60 .LASF4346
C:\Users\CYMR90~1\AppData\Local\Temp\ccbtsgth.s:25500  .debug_str:0000000000016dff .LASF4347
C:\Users\CYMR90~1\AppData\Local\Temp\ccbtsgth.s:30696  .debug_str:000000000002b795 .LASF4348
C:\Users\CYMR90~1\AppData\Local\Temp\ccbtsgth.s:24509  .debug_str:0000000000012d84 .LASF4349
C:\Users\CYMR90~1\AppData\Local\Temp\ccbtsgth.s:30318  .debug_str:0000000000029f90 .LASF4350
C:\Users\CYMR90~1\AppData\Local\Temp\ccbtsgth.s:29398  .debug_str:0000000000026504 .LASF4351
C:\Users\CYMR90~1\AppData\Local\Temp\ccbtsgth.s:23727  .debug_str:000000000000fb86 .LASF4352
C:\Users\CYMR90~1\AppData\Local\Temp\ccbtsgth.s:20823  .debug_str:00000000000040aa .LASF4353
C:\Users\CYMR90~1\AppData\Local\Temp\ccbtsgth.s:20289  .debug_str:0000000000001ec5 .LASF4354
C:\Users\CYMR90~1\AppData\Local\Temp\ccbtsgth.s:26202  .debug_str:0000000000019b89 .LASF4355
C:\Users\CYMR90~1\AppData\Local\Temp\ccbtsgth.s:21803  .debug_str:0000000000007fac .LASF4356
C:\Users\CYMR90~1\AppData\Local\Temp\ccbtsgth.s:26918  .debug_str:000000000001c9c6 .LASF4357
C:\Users\CYMR90~1\AppData\Local\Temp\ccbtsgth.s:26510  .debug_str:000000000001b051 .LASF4358
C:\Users\CYMR90~1\AppData\Local\Temp\ccbtsgth.s:28434  .debug_str:000000000002278e .LASF4359
C:\Users\CYMR90~1\AppData\Local\Temp\ccbtsgth.s:29354  .debug_str:000000000002625c .LASF4360
C:\Users\CYMR90~1\AppData\Local\Temp\ccbtsgth.s:20283  .debug_str:0000000000001e87 .LASF4361
C:\Users\CYMR90~1\AppData\Local\Temp\ccbtsgth.s:25319  .debug_str:000000000001605d .LASF4362
C:\Users\CYMR90~1\AppData\Local\Temp\ccbtsgth.s:30898  .debug_str:000000000002c523 .LASF4363
C:\Users\CYMR90~1\AppData\Local\Temp\ccbtsgth.s:27702  .debug_str:000000000001faf7 .LASF4364
C:\Users\CYMR90~1\AppData\Local\Temp\ccbtsgth.s:27402  .debug_str:000000000001e95b .LASF4365
C:\Users\CYMR90~1\AppData\Local\Temp\ccbtsgth.s:20089  .debug_str:0000000000001242 .LASF4366
C:\Users\CYMR90~1\AppData\Local\Temp\ccbtsgth.s:29086  .debug_str:0000000000025055 .LASF4367
C:\Users\CYMR90~1\AppData\Local\Temp\ccbtsgth.s:21917  .debug_str:00000000000086ac .LASF4368
C:\Users\CYMR90~1\AppData\Local\Temp\ccbtsgth.s:27018  .debug_str:000000000001d134 .LASF4369
C:\Users\CYMR90~1\AppData\Local\Temp\ccbtsgth.s:27036  .debug_str:000000000001d22b .LASF4370
C:\Users\CYMR90~1\AppData\Local\Temp\ccbtsgth.s:28000  .debug_str:0000000000020d69 .LASF4371
C:\Users\CYMR90~1\AppData\Local\Temp\ccbtsgth.s:26454  .debug_str:000000000001ac52 .LASF4372
C:\Users\CYMR90~1\AppData\Local\Temp\ccbtsgth.s:21231  .debug_str:0000000000005a7b .LASF4373
C:\Users\CYMR90~1\AppData\Local\Temp\ccbtsgth.s:29798  .debug_str:0000000000027eaa .LASF4374
C:\Users\CYMR90~1\AppData\Local\Temp\ccbtsgth.s:28718  .debug_str:0000000000023896 .LASF4375
C:\Users\CYMR90~1\AppData\Local\Temp\ccbtsgth.s:25031  .debug_str:0000000000014e9a .LASF4376
C:\Users\CYMR90~1\AppData\Local\Temp\ccbtsgth.s:31012  .debug_str:000000000002cca5 .LASF4377
C:\Users\CYMR90~1\AppData\Local\Temp\ccbtsgth.s:20547  .debug_str:0000000000002e80 .LASF4378
C:\Users\CYMR90~1\AppData\Local\Temp\ccbtsgth.s:19831  .debug_str:00000000000001dd .LASF4379
C:\Users\CYMR90~1\AppData\Local\Temp\ccbtsgth.s:26158  .debug_str:0000000000019893 .LASF4380
C:\Users\CYMR90~1\AppData\Local\Temp\ccbtsgth.s:23921  .debug_str:0000000000010731 .LASF4381
C:\Users\CYMR90~1\AppData\Local\Temp\ccbtsgth.s:20849  .debug_str:0000000000004244 .LASF4382
C:\Users\CYMR90~1\AppData\Local\Temp\ccbtsgth.s:26096  .debug_str:00000000000194bb .LASF4383
C:\Users\CYMR90~1\AppData\Local\Temp\ccbtsgth.s:29410  .debug_str:00000000000265df .LASF4384
C:\Users\CYMR90~1\AppData\Local\Temp\ccbtsgth.s:19855  .debug_str:0000000000000367 .LASF4385
C:\Users\CYMR90~1\AppData\Local\Temp\ccbtsgth.s:21077  .debug_str:0000000000005100 .LASF4386
C:\Users\CYMR90~1\AppData\Local\Temp\ccbtsgth.s:30064  .debug_str:0000000000029019 .LASF4387
C:\Users\CYMR90~1\AppData\Local\Temp\ccbtsgth.s:20879  .debug_str:0000000000004449 .LASF4388
C:\Users\CYMR90~1\AppData\Local\Temp\ccbtsgth.s:22535  .debug_str:000000000000aef6 .LASF4389
C:\Users\CYMR90~1\AppData\Local\Temp\ccbtsgth.s:19873  .debug_str:0000000000000463 .LASF4390
C:\Users\CYMR90~1\AppData\Local\Temp\ccbtsgth.s:27376  .debug_str:000000000001e7da .LASF4391
C:\Users\CYMR90~1\AppData\Local\Temp\ccbtsgth.s:25508  .debug_str:0000000000016e96 .LASF4392
C:\Users\CYMR90~1\AppData\Local\Temp\ccbtsgth.s:20425  .debug_str:000000000000269d .LASF4393
C:\Users\CYMR90~1\AppData\Local\Temp\ccbtsgth.s:28742  .debug_str:00000000000239e8 .LASF4394
C:\Users\CYMR90~1\AppData\Local\Temp\ccbtsgth.s:30864  .debug_str:000000000002c2d6 .LASF4395
C:\Users\CYMR90~1\AppData\Local\Temp\ccbtsgth.s:27454  .debug_str:000000000001ec0e .LASF4396
C:\Users\CYMR90~1\AppData\Local\Temp\ccbtsgth.s:22865  .debug_str:000000000000c54a .LASF4397
C:\Users\CYMR90~1\AppData\Local\Temp\ccbtsgth.s:28444  .debug_str:0000000000022815 .LASF4398
C:\Users\CYMR90~1\AppData\Local\Temp\ccbtsgth.s:22769  .debug_str:000000000000bf6c .LASF4399
C:\Users\CYMR90~1\AppData\Local\Temp\ccbtsgth.s:28432  .debug_str:0000000000022770 .LASF4400
C:\Users\CYMR90~1\AppData\Local\Temp\ccbtsgth.s:29958  .debug_str:000000000002897e .LASF4401
C:\Users\CYMR90~1\AppData\Local\Temp\ccbtsgth.s:21277  .debug_str:0000000000005d29 .LASF4402
C:\Users\CYMR90~1\AppData\Local\Temp\ccbtsgth.s:24041  .debug_str:0000000000010eb1 .LASF4403
C:\Users\CYMR90~1\AppData\Local\Temp\ccbtsgth.s:23241  .debug_str:000000000000dd52 .LASF4404
C:\Users\CYMR90~1\AppData\Local\Temp\ccbtsgth.s:20929  .debug_str:000000000000483a .LASF4405
C:\Users\CYMR90~1\AppData\Local\Temp\ccbtsgth.s:22209  .debug_str:0000000000009930 .LASF4406
C:\Users\CYMR90~1\AppData\Local\Temp\ccbtsgth.s:24691  .debug_str:00000000000138fa .LASF4407
C:\Users\CYMR90~1\AppData\Local\Temp\ccbtsgth.s:20753  .debug_str:0000000000003bad .LASF4408
C:\Users\CYMR90~1\AppData\Local\Temp\ccbtsgth.s:21509  .debug_str:0000000000006b5b .LASF4409
C:\Users\CYMR90~1\AppData\Local\Temp\ccbtsgth.s:19805  .debug_str:000000000000002e .LASF4410
C:\Users\CYMR90~1\AppData\Local\Temp\ccbtsgth.s:24023  .debug_str:0000000000010d95 .LASF4411
C:\Users\CYMR90~1\AppData\Local\Temp\ccbtsgth.s:26408  .debug_str:000000000001a98f .LASF4412
C:\Users\CYMR90~1\AppData\Local\Temp\ccbtsgth.s:25453  .debug_str:0000000000016989 .LASF4413
C:\Users\CYMR90~1\AppData\Local\Temp\ccbtsgth.s:30798  .debug_str:000000000002be81 .LASF4414
C:\Users\CYMR90~1\AppData\Local\Temp\ccbtsgth.s:28954  .debug_str:00000000000247dc .LASF4415
C:\Users\CYMR90~1\AppData\Local\Temp\ccbtsgth.s:23341  .debug_str:000000000000e33c .LASF4416
C:\Users\CYMR90~1\AppData\Local\Temp\ccbtsgth.s:27502  .debug_str:000000000001ef03 .LASF4417
C:\Users\CYMR90~1\AppData\Local\Temp\ccbtsgth.s:24959  .debug_str:00000000000149c0 .LASF4418
C:\Users\CYMR90~1\AppData\Local\Temp\ccbtsgth.s:20751  .debug_str:0000000000003b86 .LASF4419
C:\Users\CYMR90~1\AppData\Local\Temp\ccbtsgth.s:26016  .debug_str:0000000000018ef7 .LASF4420
C:\Users\CYMR90~1\AppData\Local\Temp\ccbtsgth.s:27324  .debug_str:000000000001e430 .LASF4421
C:\Users\CYMR90~1\AppData\Local\Temp\ccbtsgth.s:20417  .debug_str:00000000000025f4 .LASF4422
C:\Users\CYMR90~1\AppData\Local\Temp\ccbtsgth.s:27484  .debug_str:000000000001ede0 .LASF4423
C:\Users\CYMR90~1\AppData\Local\Temp\ccbtsgth.s:22383  .debug_str:000000000000a467 .LASF4424
C:\Users\CYMR90~1\AppData\Local\Temp\ccbtsgth.s:19933  .debug_str:00000000000007ef .LASF4425
C:\Users\CYMR90~1\AppData\Local\Temp\ccbtsgth.s:26424  .debug_str:000000000001aa8e .LASF4426
C:\Users\CYMR90~1\AppData\Local\Temp\ccbtsgth.s:29722  .debug_str:0000000000027945 .LASF4427
C:\Users\CYMR90~1\AppData\Local\Temp\ccbtsgth.s:25111  .debug_str:00000000000152fb .LASF4428
C:\Users\CYMR90~1\AppData\Local\Temp\ccbtsgth.s:26080  .debug_str:000000000001938e .LASF4429
C:\Users\CYMR90~1\AppData\Local\Temp\ccbtsgth.s:22763  .debug_str:000000000000bf0f .LASF4430
C:\Users\CYMR90~1\AppData\Local\Temp\ccbtsgth.s:23493  .debug_str:000000000000ece7 .LASF4431
C:\Users\CYMR90~1\AppData\Local\Temp\ccbtsgth.s:28054  .debug_str:0000000000021066 .LASF4432
C:\Users\CYMR90~1\AppData\Local\Temp\ccbtsgth.s:26160  .debug_str:00000000000198ce .LASF4433
C:\Users\CYMR90~1\AppData\Local\Temp\ccbtsgth.s:20831  .debug_str:000000000000413f .LASF4434
C:\Users\CYMR90~1\AppData\Local\Temp\ccbtsgth.s:22431  .debug_str:000000000000a72e .LASF4435
C:\Users\CYMR90~1\AppData\Local\Temp\ccbtsgth.s:23111  .debug_str:000000000000d5e8 .LASF4436
C:\Users\CYMR90~1\AppData\Local\Temp\ccbtsgth.s:27896  .debug_str:00000000000206ea .LASF4437
C:\Users\CYMR90~1\AppData\Local\Temp\ccbtsgth.s:27496  .debug_str:000000000001ee9a .LASF4438
C:\Users\CYMR90~1\AppData\Local\Temp\ccbtsgth.s:25588  .debug_str:0000000000017379 .LASF4439
C:\Users\CYMR90~1\AppData\Local\Temp\ccbtsgth.s:26528  .debug_str:000000000001b195 .LASF4440
C:\Users\CYMR90~1\AppData\Local\Temp\ccbtsgth.s:30366  .debug_str:000000000002a24d .LASF4441
C:\Users\CYMR90~1\AppData\Local\Temp\ccbtsgth.s:23941  .debug_str:000000000001088c .LASF4442
C:\Users\CYMR90~1\AppData\Local\Temp\ccbtsgth.s:24659  .debug_str:00000000000136f6 .LASF4443
C:\Users\CYMR90~1\AppData\Local\Temp\ccbtsgth.s:28002  .debug_str:0000000000020d87 .LASF4444
C:\Users\CYMR90~1\AppData\Local\Temp\ccbtsgth.s:30474  .debug_str:000000000002a8d1 .LASF4445
C:\Users\CYMR90~1\AppData\Local\Temp\ccbtsgth.s:23729  .debug_str:000000000000fbb2 .LASF4446
C:\Users\CYMR90~1\AppData\Local\Temp\ccbtsgth.s:28396  .debug_str:0000000000022546 .LASF4447
C:\Users\CYMR90~1\AppData\Local\Temp\ccbtsgth.s:30712  .debug_str:000000000002b88a .LASF4448
C:\Users\CYMR90~1\AppData\Local\Temp\ccbtsgth.s:28902  .debug_str:00000000000243fb .LASF4449
C:\Users\CYMR90~1\AppData\Local\Temp\ccbtsgth.s:25389  .debug_str:00000000000164b9 .LASF4450
C:\Users\CYMR90~1\AppData\Local\Temp\ccbtsgth.s:26882  .debug_str:000000000001c77b .LASF4451
C:\Users\CYMR90~1\AppData\Local\Temp\ccbtsgth.s:26182  .debug_str:0000000000019a44 .LASF4452
C:\Users\CYMR90~1\AppData\Local\Temp\ccbtsgth.s:23863  .debug_str:00000000000103df .LASF4453
C:\Users\CYMR90~1\AppData\Local\Temp\ccbtsgth.s:24285  .debug_str:0000000000011f07 .LASF4454
C:\Users\CYMR90~1\AppData\Local\Temp\ccbtsgth.s:20637  .debug_str:000000000000345f .LASF4455
C:\Users\CYMR90~1\AppData\Local\Temp\ccbtsgth.s:21501  .debug_str:0000000000006aef .LASF4456
C:\Users\CYMR90~1\AppData\Local\Temp\ccbtsgth.s:24341  .debug_str:0000000000012296 .LASF4457
C:\Users\CYMR90~1\AppData\Local\Temp\ccbtsgth.s:30514  .debug_str:000000000002ab4b .LASF4458
C:\Users\CYMR90~1\AppData\Local\Temp\ccbtsgth.s:25978  .debug_str:0000000000018cdb .LASF4459
C:\Users\CYMR90~1\AppData\Local\Temp\ccbtsgth.s:26282  .debug_str:000000000001a000 .LASF4460
C:\Users\CYMR90~1\AppData\Local\Temp\ccbtsgth.s:20019  .debug_str:0000000000000d5c .LASF4461
C:\Users\CYMR90~1\AppData\Local\Temp\ccbtsgth.s:29726  .debug_str:0000000000027992 .LASF4462
C:\Users\CYMR90~1\AppData\Local\Temp\ccbtsgth.s:30974  .debug_str:000000000002c9f4 .LASF4463
C:\Users\CYMR90~1\AppData\Local\Temp\ccbtsgth.s:26862  .debug_str:000000000001c5a3 .LASF4464
C:\Users\CYMR90~1\AppData\Local\Temp\ccbtsgth.s:25798  .debug_str:00000000000180f1 .LASF4465
C:\Users\CYMR90~1\AppData\Local\Temp\ccbtsgth.s:20167  .debug_str:00000000000016c7 .LASF4466
C:\Users\CYMR90~1\AppData\Local\Temp\ccbtsgth.s:20863  .debug_str:000000000000433f .LASF4467
C:\Users\CYMR90~1\AppData\Local\Temp\ccbtsgth.s:25257  .debug_str:0000000000015c6b .LASF4468
C:\Users\CYMR90~1\AppData\Local\Temp\ccbtsgth.s:30434  .debug_str:000000000002a6ae .LASF4469
C:\Users\CYMR90~1\AppData\Local\Temp\ccbtsgth.s:29384  .debug_str:000000000002642b .LASF4470
C:\Users\CYMR90~1\AppData\Local\Temp\ccbtsgth.s:30438  .debug_str:000000000002a6e2 .LASF4471
C:\Users\CYMR90~1\AppData\Local\Temp\ccbtsgth.s:26820  .debug_str:000000000001c34d .LASF4472
C:\Users\CYMR90~1\AppData\Local\Temp\ccbtsgth.s:20117  .debug_str:00000000000013b1 .LASF4473
C:\Users\CYMR90~1\AppData\Local\Temp\ccbtsgth.s:29164  .debug_str:0000000000025624 .LASF4474
C:\Users\CYMR90~1\AppData\Local\Temp\ccbtsgth.s:26722  .debug_str:000000000001bd53 .LASF4475
C:\Users\CYMR90~1\AppData\Local\Temp\ccbtsgth.s:21271  .debug_str:0000000000005cc1 .LASF4476
C:\Users\CYMR90~1\AppData\Local\Temp\ccbtsgth.s:23363  .debug_str:000000000000e48d .LASF4477
C:\Users\CYMR90~1\AppData\Local\Temp\ccbtsgth.s:27836  .debug_str:00000000000202d2 .LASF4478
C:\Users\CYMR90~1\AppData\Local\Temp\ccbtsgth.s:24471  .debug_str:0000000000012b0b .LASF4479
C:\Users\CYMR90~1\AppData\Local\Temp\ccbtsgth.s:29522  .debug_str:0000000000026ca6 .LASF4480
C:\Users\CYMR90~1\AppData\Local\Temp\ccbtsgth.s:25015  .debug_str:0000000000014d90 .LASF4481
C:\Users\CYMR90~1\AppData\Local\Temp\ccbtsgth.s:24763  .debug_str:0000000000013d5d .LASF4482
C:\Users\CYMR90~1\AppData\Local\Temp\ccbtsgth.s:22855  .debug_str:000000000000c4ab .LASF4483
C:\Users\CYMR90~1\AppData\Local\Temp\ccbtsgth.s:27714  .debug_str:000000000001fbb9 .LASF4484
C:\Users\CYMR90~1\AppData\Local\Temp\ccbtsgth.s:23461  .debug_str:000000000000eb1f .LASF4485
C:\Users\CYMR90~1\AppData\Local\Temp\ccbtsgth.s:21183  .debug_str:0000000000005759 .LASF4486
C:\Users\CYMR90~1\AppData\Local\Temp\ccbtsgth.s:30278  .debug_str:0000000000029d30 .LASF4487
C:\Users\CYMR90~1\AppData\Local\Temp\ccbtsgth.s:28010  .debug_str:0000000000020e0c .LASF4488
C:\Users\CYMR90~1\AppData\Local\Temp\ccbtsgth.s:30792  .debug_str:000000000002be3c .LASF4489
C:\Users\CYMR90~1\AppData\Local\Temp\ccbtsgth.s:23647  .debug_str:000000000000f6db .LASF4490
C:\Users\CYMR90~1\AppData\Local\Temp\ccbtsgth.s:22097  .debug_str:000000000000920e .LASF4491
C:\Users\CYMR90~1\AppData\Local\Temp\ccbtsgth.s:30472  .debug_str:000000000002a8af .LASF4492
C:\Users\CYMR90~1\AppData\Local\Temp\ccbtsgth.s:28102  .debug_str:00000000000213f7 .LASF4493
C:\Users\CYMR90~1\AppData\Local\Temp\ccbtsgth.s:29930  .debug_str:0000000000028801 .LASF4494
C:\Users\CYMR90~1\AppData\Local\Temp\ccbtsgth.s:21491  .debug_str:0000000000006a51 .LASF4495
C:\Users\CYMR90~1\AppData\Local\Temp\ccbtsgth.s:28254  .debug_str:0000000000021d12 .LASF4496
C:\Users\CYMR90~1\AppData\Local\Temp\ccbtsgth.s:30096  .debug_str:0000000000029258 .LASF4497
C:\Users\CYMR90~1\AppData\Local\Temp\ccbtsgth.s:29826  .debug_str:00000000000280ed .LASF4498
C:\Users\CYMR90~1\AppData\Local\Temp\ccbtsgth.s:29126  .debug_str:0000000000025375 .LASF4499
C:\Users\CYMR90~1\AppData\Local\Temp\ccbtsgth.s:26258  .debug_str:0000000000019eb2 .LASF4500
C:\Users\CYMR90~1\AppData\Local\Temp\ccbtsgth.s:22271  .debug_str:0000000000009d28 .LASF4501
C:\Users\CYMR90~1\AppData\Local\Temp\ccbtsgth.s:23649  .debug_str:000000000000f6fd .LASF4502
C:\Users\CYMR90~1\AppData\Local\Temp\ccbtsgth.s:20375  .debug_str:0000000000002391 .LASF4503
C:\Users\CYMR90~1\AppData\Local\Temp\ccbtsgth.s:22417  .debug_str:000000000000a66d .LASF4504
C:\Users\CYMR90~1\AppData\Local\Temp\ccbtsgth.s:27344  .debug_str:000000000001e5a2 .LASF4505
C:\Users\CYMR90~1\AppData\Local\Temp\ccbtsgth.s:25576  .debug_str:00000000000172bc .LASF4506
C:\Users\CYMR90~1\AppData\Local\Temp\ccbtsgth.s:23059  .debug_str:000000000000d230 .LASF4507
C:\Users\CYMR90~1\AppData\Local\Temp\ccbtsgth.s:30850  .debug_str:000000000002c1a7 .LASF4508
C:\Users\CYMR90~1\AppData\Local\Temp\ccbtsgth.s:25409  .debug_str:00000000000165ca .LASF4509
C:\Users\CYMR90~1\AppData\Local\Temp\ccbtsgth.s:23837  .debug_str:0000000000010249 .LASF4510
C:\Users\CYMR90~1\AppData\Local\Temp\ccbtsgth.s:20575  .debug_str:000000000000306b .LASF4511
C:\Users\CYMR90~1\AppData\Local\Temp\ccbtsgth.s:28876  .debug_str:0000000000024269 .LASF4512
C:\Users\CYMR90~1\AppData\Local\Temp\ccbtsgth.s:25419  .debug_str:00000000000166d0 .LASF4513
C:\Users\CYMR90~1\AppData\Local\Temp\ccbtsgth.s:21985  .debug_str:0000000000008b03 .LASF4514
C:\Users\CYMR90~1\AppData\Local\Temp\ccbtsgth.s:29602  .debug_str:0000000000027206 .LASF4515
C:\Users\CYMR90~1\AppData\Local\Temp\ccbtsgth.s:28538  .debug_str:0000000000022deb .LASF4516
C:\Users\CYMR90~1\AppData\Local\Temp\ccbtsgth.s:20349  .debug_str:000000000000220c .LASF4517
C:\Users\CYMR90~1\AppData\Local\Temp\ccbtsgth.s:21449  .debug_str:00000000000067c0 .LASF4518
C:\Users\CYMR90~1\AppData\Local\Temp\ccbtsgth.s:29742  .debug_str:0000000000027ab7 .LASF4519
C:\Users\CYMR90~1\AppData\Local\Temp\ccbtsgth.s:27276  .debug_str:000000000001e16c .LASF4520
C:\Users\CYMR90~1\AppData\Local\Temp\ccbtsgth.s:21809  .debug_str:0000000000008003 .LASF4521
C:\Users\CYMR90~1\AppData\Local\Temp\ccbtsgth.s:29660  .debug_str:0000000000027528 .LASF4522
C:\Users\CYMR90~1\AppData\Local\Temp\ccbtsgth.s:23523  .debug_str:000000000000eeac .LASF4523
C:\Users\CYMR90~1\AppData\Local\Temp\ccbtsgth.s:26956  .debug_str:000000000001cc37 .LASF4524
C:\Users\CYMR90~1\AppData\Local\Temp\ccbtsgth.s:27090  .debug_str:000000000001d54d .LASF4525
C:\Users\CYMR90~1\AppData\Local\Temp\ccbtsgth.s:20329  .debug_str:0000000000002109 .LASF4526
C:\Users\CYMR90~1\AppData\Local\Temp\ccbtsgth.s:23673  .debug_str:000000000000f82e .LASF4527
C:\Users\CYMR90~1\AppData\Local\Temp\ccbtsgth.s:30254  .debug_str:0000000000029c03 .LASF4528
C:\Users\CYMR90~1\AppData\Local\Temp\ccbtsgth.s:23501  .debug_str:000000000000ed67 .LASF4529
C:\Users\CYMR90~1\AppData\Local\Temp\ccbtsgth.s:26874  .debug_str:000000000001c665 .LASF4530
C:\Users\CYMR90~1\AppData\Local\Temp\ccbtsgth.s:22599  .debug_str:000000000000b383 .LASF4531
C:\Users\CYMR90~1\AppData\Local\Temp\ccbtsgth.s:28852  .debug_str:00000000000240c4 .LASF4532
C:\Users\CYMR90~1\AppData\Local\Temp\ccbtsgth.s:23895  .debug_str:00000000000105d4 .LASF4533
C:\Users\CYMR90~1\AppData\Local\Temp\ccbtsgth.s:20423  .debug_str:000000000000267b .LASF4534
C:\Users\CYMR90~1\AppData\Local\Temp\ccbtsgth.s:26552  .debug_str:000000000001b30c .LASF4535
C:\Users\CYMR90~1\AppData\Local\Temp\ccbtsgth.s:21195  .debug_str:0000000000005828 .LASF4536
C:\Users\CYMR90~1\AppData\Local\Temp\ccbtsgth.s:19989  .debug_str:0000000000000bb8 .LASF4537
C:\Users\CYMR90~1\AppData\Local\Temp\ccbtsgth.s:21031  .debug_str:0000000000004e56 .LASF4538
C:\Users\CYMR90~1\AppData\Local\Temp\ccbtsgth.s:21671  .debug_str:00000000000075d4 .LASF4539
C:\Users\CYMR90~1\AppData\Local\Temp\ccbtsgth.s:29338  .debug_str:0000000000026179 .LASF4540
C:\Users\CYMR90~1\AppData\Local\Temp\ccbtsgth.s:20333  .debug_str:000000000000213e .LASF4541
C:\Users\CYMR90~1\AppData\Local\Temp\ccbtsgth.s:28070  .debug_str:0000000000021172 .LASF4542
C:\Users\CYMR90~1\AppData\Local\Temp\ccbtsgth.s:26250  .debug_str:0000000000019e41 .LASF4543
C:\Users\CYMR90~1\AppData\Local\Temp\ccbtsgth.s:28776  .debug_str:0000000000023b9e .LASF4544
C:\Users\CYMR90~1\AppData\Local\Temp\ccbtsgth.s:22021  .debug_str:0000000000008dbb .LASF4545
C:\Users\CYMR90~1\AppData\Local\Temp\ccbtsgth.s:27700  .debug_str:000000000001fae1 .LASF4546
C:\Users\CYMR90~1\AppData\Local\Temp\ccbtsgth.s:28312  .debug_str:0000000000022094 .LASF4547
C:\Users\CYMR90~1\AppData\Local\Temp\ccbtsgth.s:25870  .debug_str:000000000001857f .LASF4548
C:\Users\CYMR90~1\AppData\Local\Temp\ccbtsgth.s:28402  .debug_str:00000000000225c8 .LASF4549
C:\Users\CYMR90~1\AppData\Local\Temp\ccbtsgth.s:25339  .debug_str:0000000000016195 .LASF4550
C:\Users\CYMR90~1\AppData\Local\Temp\ccbtsgth.s:25239  .debug_str:0000000000015b2a .LASF4551
C:\Users\CYMR90~1\AppData\Local\Temp\ccbtsgth.s:24815  .debug_str:00000000000140b2 .LASF4552
C:\Users\CYMR90~1\AppData\Local\Temp\ccbtsgth.s:27414  .debug_str:000000000001e9f5 .LASF4553
C:\Users\CYMR90~1\AppData\Local\Temp\ccbtsgth.s:24061  .debug_str:0000000000011000 .LASF4554
C:\Users\CYMR90~1\AppData\Local\Temp\ccbtsgth.s:27132  .debug_str:000000000001d841 .LASF4555
C:\Users\CYMR90~1\AppData\Local\Temp\ccbtsgth.s:31030  .debug_str:000000000002cddb .LASF4556
C:\Users\CYMR90~1\AppData\Local\Temp\ccbtsgth.s:23351  .debug_str:000000000000e3e3 .LASF4557
C:\Users\CYMR90~1\AppData\Local\Temp\ccbtsgth.s:25828  .debug_str:00000000000182ba .LASF4558
C:\Users\CYMR90~1\AppData\Local\Temp\ccbtsgth.s:20203  .debug_str:00000000000019b4 .LASF4559
C:\Users\CYMR90~1\AppData\Local\Temp\ccbtsgth.s:20817  .debug_str:0000000000003fc5 .LASF4560
C:\Users\CYMR90~1\AppData\Local\Temp\ccbtsgth.s:20821  .debug_str:0000000000004095 .LASF4561
C:\Users\CYMR90~1\AppData\Local\Temp\ccbtsgth.s:23971  .debug_str:0000000000010ae4 .LASF4562
C:\Users\CYMR90~1\AppData\Local\Temp\ccbtsgth.s:28796  .debug_str:0000000000023cb3 .LASF4563
C:\Users\CYMR90~1\AppData\Local\Temp\ccbtsgth.s:25333  .debug_str:000000000001614a .LASF4564
C:\Users\CYMR90~1\AppData\Local\Temp\ccbtsgth.s:22413  .debug_str:000000000000a62f .LASF4565
C:\Users\CYMR90~1\AppData\Local\Temp\ccbtsgth.s:19965  .debug_str:00000000000009cb .LASF4566
C:\Users\CYMR90~1\AppData\Local\Temp\ccbtsgth.s:21753  .debug_str:0000000000007b59 .LASF4567
C:\Users\CYMR90~1\AppData\Local\Temp\ccbtsgth.s:29220  .debug_str:0000000000025a0f .LASF4568
C:\Users\CYMR90~1\AppData\Local\Temp\ccbtsgth.s:28860  .debug_str:000000000002413d .LASF4569
C:\Users\CYMR90~1\AppData\Local\Temp\ccbtsgth.s:22149  .debug_str:0000000000009564 .LASF4570
C:\Users\CYMR90~1\AppData\Local\Temp\ccbtsgth.s:25117  .debug_str:0000000000015353 .LASF4571
C:\Users\CYMR90~1\AppData\Local\Temp\ccbtsgth.s:30644  .debug_str:000000000002b3f7 .LASF4572
C:\Users\CYMR90~1\AppData\Local\Temp\ccbtsgth.s:24005  .debug_str:0000000000010c9d .LASF4573
C:\Users\CYMR90~1\AppData\Local\Temp\ccbtsgth.s:26124  .debug_str:0000000000019614 .LASF4574
C:\Users\CYMR90~1\AppData\Local\Temp\ccbtsgth.s:27156  .debug_str:000000000001d9a1 .LASF4575
C:\Users\CYMR90~1\AppData\Local\Temp\ccbtsgth.s:25323  .debug_str:00000000000160a9 .LASF4576
C:\Users\CYMR90~1\AppData\Local\Temp\ccbtsgth.s:22031  .debug_str:0000000000008e59 .LASF4577
C:\Users\CYMR90~1\AppData\Local\Temp\ccbtsgth.s:26128  .debug_str:000000000001965c .LASF4578
C:\Users\CYMR90~1\AppData\Local\Temp\ccbtsgth.s:25924  .debug_str:00000000000188d0 .LASF4579
C:\Users\CYMR90~1\AppData\Local\Temp\ccbtsgth.s:25586  .debug_str:0000000000017357 .LASF4580
C:\Users\CYMR90~1\AppData\Local\Temp\ccbtsgth.s:22145  .debug_str:000000000000952f .LASF4581
C:\Users\CYMR90~1\AppData\Local\Temp\ccbtsgth.s:20767  .debug_str:0000000000003cb9 .LASF4582
C:\Users\CYMR90~1\AppData\Local\Temp\ccbtsgth.s:29622  .debug_str:0000000000027308 .LASF4583
C:\Users\CYMR90~1\AppData\Local\Temp\ccbtsgth.s:23323  .debug_str:000000000000e24a .LASF4584
C:\Users\CYMR90~1\AppData\Local\Temp\ccbtsgth.s:20809  .debug_str:0000000000003f42 .LASF4585
C:\Users\CYMR90~1\AppData\Local\Temp\ccbtsgth.s:24949  .debug_str:0000000000014912 .LASF4586
C:\Users\CYMR90~1\AppData\Local\Temp\ccbtsgth.s:23317  .debug_str:000000000000e1ee .LASF4587
C:\Users\CYMR90~1\AppData\Local\Temp\ccbtsgth.s:20359  .debug_str:00000000000022b6 .LASF4588
C:\Users\CYMR90~1\AppData\Local\Temp\ccbtsgth.s:30480  .debug_str:000000000002a935 .LASF4589
C:\Users\CYMR90~1\AppData\Local\Temp\ccbtsgth.s:21935  .debug_str:00000000000087d7 .LASF4590
C:\Users\CYMR90~1\AppData\Local\Temp\ccbtsgth.s:20533  .debug_str:0000000000002dbd .LASF4591
C:\Users\CYMR90~1\AppData\Local\Temp\ccbtsgth.s:24469  .debug_str:0000000000012af5 .LASF4592
C:\Users\CYMR90~1\AppData\Local\Temp\ccbtsgth.s:30208  .debug_str:000000000002991f .LASF4593
C:\Users\CYMR90~1\AppData\Local\Temp\ccbtsgth.s:26248  .debug_str:0000000000019e2a .LASF4594
C:\Users\CYMR90~1\AppData\Local\Temp\ccbtsgth.s:26284  .debug_str:000000000001a017 .LASF4595
C:\Users\CYMR90~1\AppData\Local\Temp\ccbtsgth.s:29168  .debug_str:0000000000025672 .LASF4596
C:\Users\CYMR90~1\AppData\Local\Temp\ccbtsgth.s:25051  .debug_str:0000000000014ff1 .LASF4597
C:\Users\CYMR90~1\AppData\Local\Temp\ccbtsgth.s:31002  .debug_str:000000000002cb7d .LASF4598
C:\Users\CYMR90~1\AppData\Local\Temp\ccbtsgth.s:29876  .debug_str:000000000002847a .LASF4599
C:\Users\CYMR90~1\AppData\Local\Temp\ccbtsgth.s:28622  .debug_str:0000000000023265 .LASF4600
C:\Users\CYMR90~1\AppData\Local\Temp\ccbtsgth.s:27446  .debug_str:000000000001ebb3 .LASF4601
C:\Users\CYMR90~1\AppData\Local\Temp\ccbtsgth.s:23865  .debug_str:000000000001041d .LASF4602
C:\Users\CYMR90~1\AppData\Local\Temp\ccbtsgth.s:30896  .debug_str:000000000002c506 .LASF4603
C:\Users\CYMR90~1\AppData\Local\Temp\ccbtsgth.s:29038  .debug_str:0000000000024d07 .LASF4604
C:\Users\CYMR90~1\AppData\Local\Temp\ccbtsgth.s:28950  .debug_str:00000000000246ff .LASF4605
C:\Users\CYMR90~1\AppData\Local\Temp\ccbtsgth.s:21543  .debug_str:0000000000006dab .LASF4606
C:\Users\CYMR90~1\AppData\Local\Temp\ccbtsgth.s:25377  .debug_str:00000000000163fe .LASF4607
C:\Users\CYMR90~1\AppData\Local\Temp\ccbtsgth.s:29690  .debug_str:0000000000027707 .LASF4608
C:\Users\CYMR90~1\AppData\Local\Temp\ccbtsgth.s:26938  .debug_str:000000000001caf2 .LASF4609
C:\Users\CYMR90~1\AppData\Local\Temp\ccbtsgth.s:29520  .debug_str:0000000000026c81 .LASF4610
C:\Users\CYMR90~1\AppData\Local\Temp\ccbtsgth.s:25698  .debug_str:0000000000017adf .LASF4611
C:\Users\CYMR90~1\AppData\Local\Temp\ccbtsgth.s:28642  .debug_str:00000000000233be .LASF4612
C:\Users\CYMR90~1\AppData\Local\Temp\ccbtsgth.s:21831  .debug_str:0000000000008181 .LASF4613
C:\Users\CYMR90~1\AppData\Local\Temp\ccbtsgth.s:24059  .debug_str:0000000000010fe0 .LASF4614
C:\Users\CYMR90~1\AppData\Local\Temp\ccbtsgth.s:22459  .debug_str:000000000000a9ce .LASF4615
C:\Users\CYMR90~1\AppData\Local\Temp\ccbtsgth.s:21419  .debug_str:00000000000065a2 .LASF4616
C:\Users\CYMR90~1\AppData\Local\Temp\ccbtsgth.s:25371  .debug_str:00000000000163b1 .LASF4617
C:\Users\CYMR90~1\AppData\Local\Temp\ccbtsgth.s:26546  .debug_str:000000000001b2a9 .LASF4618
C:\Users\CYMR90~1\AppData\Local\Temp\ccbtsgth.s:20799  .debug_str:0000000000003ed9 .LASF4619
C:\Users\CYMR90~1\AppData\Local\Temp\ccbtsgth.s:29242  .debug_str:0000000000025b68 .LASF4620
C:\Users\CYMR90~1\AppData\Local\Temp\ccbtsgth.s:23399  .debug_str:000000000000e708 .LASF4621
C:\Users\CYMR90~1\AppData\Local\Temp\ccbtsgth.s:20309  .debug_str:0000000000001fee .LASF4622
C:\Users\CYMR90~1\AppData\Local\Temp\ccbtsgth.s:24849  .debug_str:00000000000142b0 .LASF4623
C:\Users\CYMR90~1\AppData\Local\Temp\ccbtsgth.s:22561  .debug_str:000000000000b140 .LASF4624
C:\Users\CYMR90~1\AppData\Local\Temp\ccbtsgth.s:27966  .debug_str:0000000000020b72 .LASF4625
C:\Users\CYMR90~1\AppData\Local\Temp\ccbtsgth.s:29350  .debug_str:000000000002620c .LASF4626
C:\Users\CYMR90~1\AppData\Local\Temp\ccbtsgth.s:27664  .debug_str:000000000001f8cb .LASF4627
C:\Users\CYMR90~1\AppData\Local\Temp\ccbtsgth.s:28256  .debug_str:0000000000021d36 .LASF4628
C:\Users\CYMR90~1\AppData\Local\Temp\ccbtsgth.s:26512  .debug_str:000000000001b06a .LASF4629
C:\Users\CYMR90~1\AppData\Local\Temp\ccbtsgth.s:19835  .debug_str:000000000000021f .LASF4630
C:\Users\CYMR90~1\AppData\Local\Temp\ccbtsgth.s:29302  .debug_str:0000000000025f32 .LASF4631
C:\Users\CYMR90~1\AppData\Local\Temp\ccbtsgth.s:28780  .debug_str:0000000000023bd6 .LASF4632
C:\Users\CYMR90~1\AppData\Local\Temp\ccbtsgth.s:21453  .debug_str:00000000000067f6 .LASF4633
C:\Users\CYMR90~1\AppData\Local\Temp\ccbtsgth.s:28172  .debug_str:0000000000021822 .LASF4634
C:\Users\CYMR90~1\AppData\Local\Temp\ccbtsgth.s:21413  .debug_str:0000000000006543 .LASF4635
C:\Users\CYMR90~1\AppData\Local\Temp\ccbtsgth.s:21053  .debug_str:0000000000004f92 .LASF4636
C:\Users\CYMR90~1\AppData\Local\Temp\ccbtsgth.s:28500  .debug_str:0000000000022bcc .LASF4637
C:\Users\CYMR90~1\AppData\Local\Temp\ccbtsgth.s:28452  .debug_str:00000000000228ad .LASF4638
C:\Users\CYMR90~1\AppData\Local\Temp\ccbtsgth.s:24865  .debug_str:00000000000143fc .LASF4639
C:\Users\CYMR90~1\AppData\Local\Temp\ccbtsgth.s:19973  .debug_str:0000000000000a5e .LASF4640
C:\Users\CYMR90~1\AppData\Local\Temp\ccbtsgth.s:24633  .debug_str:0000000000013569 .LASF4641
C:\Users\CYMR90~1\AppData\Local\Temp\ccbtsgth.s:25776  .debug_str:0000000000017f69 .LASF4642
C:\Users\CYMR90~1\AppData\Local\Temp\ccbtsgth.s:24535  .debug_str:0000000000012f27 .LASF4643
C:\Users\CYMR90~1\AppData\Local\Temp\ccbtsgth.s:26980  .debug_str:000000000001ce57 .LASF4644
C:\Users\CYMR90~1\AppData\Local\Temp\ccbtsgth.s:24987  .debug_str:0000000000014bd5 .LASF4645
C:\Users\CYMR90~1\AppData\Local\Temp\ccbtsgth.s:20343  .debug_str:00000000000021ac .LASF4646
C:\Users\CYMR90~1\AppData\Local\Temp\ccbtsgth.s:21783  .debug_str:0000000000007dda .LASF4647
C:\Users\CYMR90~1\AppData\Local\Temp\ccbtsgth.s:22827  .debug_str:000000000000c309 .LASF4648
C:\Users\CYMR90~1\AppData\Local\Temp\ccbtsgth.s:25139  .debug_str:0000000000015494 .LASF4649
C:\Users\CYMR90~1\AppData\Local\Temp\ccbtsgth.s:26672  .debug_str:000000000001b9f7 .LASF4650
C:\Users\CYMR90~1\AppData\Local\Temp\ccbtsgth.s:20885  .debug_str:000000000000449e .LASF4651
C:\Users\CYMR90~1\AppData\Local\Temp\ccbtsgth.s:21911  .debug_str:0000000000008664 .LASF4652
C:\Users\CYMR90~1\AppData\Local\Temp\ccbtsgth.s:20935  .debug_str:000000000000489b .LASF4653
C:\Users\CYMR90~1\AppData\Local\Temp\ccbtsgth.s:27256  .debug_str:000000000001e037 .LASF4654
C:\Users\CYMR90~1\AppData\Local\Temp\ccbtsgth.s:28878  .debug_str:0000000000024285 .LASF4655
C:\Users\CYMR90~1\AppData\Local\Temp\ccbtsgth.s:30382  .debug_str:000000000002a385 .LASF4656
C:\Users\CYMR90~1\AppData\Local\Temp\ccbtsgth.s:23715  .debug_str:000000000000fab2 .LASF4657
C:\Users\CYMR90~1\AppData\Local\Temp\ccbtsgth.s:28278  .debug_str:0000000000021e84 .LASF4658
C:\Users\CYMR90~1\AppData\Local\Temp\ccbtsgth.s:29816  .debug_str:0000000000028052 .LASF4659
C:\Users\CYMR90~1\AppData\Local\Temp\ccbtsgth.s:28666  .debug_str:000000000002353d .LASF4660
C:\Users\CYMR90~1\AppData\Local\Temp\ccbtsgth.s:25007  .debug_str:0000000000014d25 .LASF4661
C:\Users\CYMR90~1\AppData\Local\Temp\ccbtsgth.s:30588  .debug_str:000000000002afc4 .LASF4662
C:\Users\CYMR90~1\AppData\Local\Temp\ccbtsgth.s:22597  .debug_str:000000000000b35a .LASF4663
C:\Users\CYMR90~1\AppData\Local\Temp\ccbtsgth.s:30080  .debug_str:000000000002917f .LASF4664
C:\Users\CYMR90~1\AppData\Local\Temp\ccbtsgth.s:25091  .debug_str:00000000000151f8 .LASF4665
C:\Users\CYMR90~1\AppData\Local\Temp\ccbtsgth.s:28162  .debug_str:0000000000021785 .LASF4666
C:\Users\CYMR90~1\AppData\Local\Temp\ccbtsgth.s:30490  .debug_str:000000000002a9d1 .LASF4667
C:\Users\CYMR90~1\AppData\Local\Temp\ccbtsgth.s:19943  .debug_str:0000000000000886 .LASF4668
C:\Users\CYMR90~1\AppData\Local\Temp\ccbtsgth.s:19887  .debug_str:0000000000000518 .LASF4669
C:\Users\CYMR90~1\AppData\Local\Temp\ccbtsgth.s:27460  .debug_str:000000000001ec72 .LASF4670
C:\Users\CYMR90~1\AppData\Local\Temp\ccbtsgth.s:22335  .debug_str:000000000000a123 .LASF4671
C:\Users\CYMR90~1\AppData\Local\Temp\ccbtsgth.s:21159  .debug_str:00000000000055f0 .LASF4672
C:\Users\CYMR90~1\AppData\Local\Temp\ccbtsgth.s:29900  .debug_str:000000000002860b .LASF4673
C:\Users\CYMR90~1\AppData\Local\Temp\ccbtsgth.s:25918  .debug_str:000000000001885e .LASF4674
C:\Users\CYMR90~1\AppData\Local\Temp\ccbtsgth.s:20441  .debug_str:00000000000027cc .LASF4675
C:\Users\CYMR90~1\AppData\Local\Temp\ccbtsgth.s:26164  .debug_str:0000000000019921 .LASF4676
C:\Users\CYMR90~1\AppData\Local\Temp\ccbtsgth.s:27516  .debug_str:000000000001eff5 .LASF4677
C:\Users\CYMR90~1\AppData\Local\Temp\ccbtsgth.s:19981  .debug_str:0000000000000b24 .LASF4678
C:\Users\CYMR90~1\AppData\Local\Temp\ccbtsgth.s:21395  .debug_str:000000000000644c .LASF4679
C:\Users\CYMR90~1\AppData\Local\Temp\ccbtsgth.s:24385  .debug_str:000000000001256d .LASF4680
C:\Users\CYMR90~1\AppData\Local\Temp\ccbtsgth.s:26786  .debug_str:000000000001c160 .LASF4681
C:\Users\CYMR90~1\AppData\Local\Temp\ccbtsgth.s:26996  .debug_str:000000000001cfda .LASF4682
C:\Users\CYMR90~1\AppData\Local\Temp\ccbtsgth.s:30538  .debug_str:000000000002acd5 .LASF4683
C:\Users\CYMR90~1\AppData\Local\Temp\ccbtsgth.s:22749  .debug_str:000000000000be01 .LASF4684
C:\Users\CYMR90~1\AppData\Local\Temp\ccbtsgth.s:25748  .debug_str:0000000000017e07 .LASF4685
C:\Users\CYMR90~1\AppData\Local\Temp\ccbtsgth.s:24739  .debug_str:0000000000013bc1 .LASF4686
C:\Users\CYMR90~1\AppData\Local\Temp\ccbtsgth.s:25736  .debug_str:0000000000017d13 .LASF4687
C:\Users\CYMR90~1\AppData\Local\Temp\ccbtsgth.s:27952  .debug_str:0000000000020a97 .LASF4688
C:\Users\CYMR90~1\AppData\Local\Temp\ccbtsgth.s:27956  .debug_str:0000000000020ad0 .LASF4689
C:\Users\CYMR90~1\AppData\Local\Temp\ccbtsgth.s:20553  .debug_str:0000000000002ee5 .LASF4690
C:\Users\CYMR90~1\AppData\Local\Temp\ccbtsgth.s:23807  .debug_str:0000000000010093 .LASF4691
C:\Users\CYMR90~1\AppData\Local\Temp\ccbtsgth.s:24429  .debug_str:000000000001283a .LASF4692
C:\Users\CYMR90~1\AppData\Local\Temp\ccbtsgth.s:21945  .debug_str:000000000000889c .LASF4693
C:\Users\CYMR90~1\AppData\Local\Temp\ccbtsgth.s:23679  .debug_str:000000000000f884 .LASF4694
C:\Users\CYMR90~1\AppData\Local\Temp\ccbtsgth.s:20497  .debug_str:0000000000002ba3 .LASF4695
C:\Users\CYMR90~1\AppData\Local\Temp\ccbtsgth.s:23703  .debug_str:000000000000fa11 .LASF4696
C:\Users\CYMR90~1\AppData\Local\Temp\ccbtsgth.s:25538  .debug_str:0000000000017068 .LASF4697
C:\Users\CYMR90~1\AppData\Local\Temp\ccbtsgth.s:23183  .debug_str:000000000000d9ed .LASF4698
C:\Users\CYMR90~1\AppData\Local\Temp\ccbtsgth.s:25622  .debug_str:00000000000175e5 .LASF4699
C:\Users\CYMR90~1\AppData\Local\Temp\ccbtsgth.s:22221  .debug_str:0000000000009a0f .LASF4700
C:\Users\CYMR90~1\AppData\Local\Temp\ccbtsgth.s:25001  .debug_str:0000000000014cc7 .LASF4701
C:\Users\CYMR90~1\AppData\Local\Temp\ccbtsgth.s:21965  .debug_str:00000000000089e5 .LASF4702
C:\Users\CYMR90~1\AppData\Local\Temp\ccbtsgth.s:21901  .debug_str:00000000000085ca .LASF4703
C:\Users\CYMR90~1\AppData\Local\Temp\ccbtsgth.s:30536  .debug_str:000000000002acb0 .LASF4704
C:\Users\CYMR90~1\AppData\Local\Temp\ccbtsgth.s:28834  .debug_str:0000000000023f8f .LASF4705
C:\Users\CYMR90~1\AppData\Local\Temp\ccbtsgth.s:30522  .debug_str:000000000002abe5 .LASF4706
C:\Users\CYMR90~1\AppData\Local\Temp\ccbtsgth.s:25808  .debug_str:0000000000018173 .LASF4707
C:\Users\CYMR90~1\AppData\Local\Temp\ccbtsgth.s:30008  .debug_str:0000000000028c8a .LASF4708
C:\Users\CYMR90~1\AppData\Local\Temp\ccbtsgth.s:29688  .debug_str:00000000000276e5 .LASF4709
C:\Users\CYMR90~1\AppData\Local\Temp\ccbtsgth.s:22197  .debug_str:0000000000009868 .LASF4710
C:\Users\CYMR90~1\AppData\Local\Temp\ccbtsgth.s:29436  .debug_str:0000000000026750 .LASF4711
C:\Users\CYMR90~1\AppData\Local\Temp\ccbtsgth.s:25792  .debug_str:0000000000018088 .LASF4712
C:\Users\CYMR90~1\AppData\Local\Temp\ccbtsgth.s:25706  .debug_str:0000000000017b40 .LASF4713
C:\Users\CYMR90~1\AppData\Local\Temp\ccbtsgth.s:29564  .debug_str:0000000000026ed1 .LASF4714
C:\Users\CYMR90~1\AppData\Local\Temp\ccbtsgth.s:23573  .debug_str:000000000000f1b9 .LASF4715
C:\Users\CYMR90~1\AppData\Local\Temp\ccbtsgth.s:26960  .debug_str:000000000001cc7b .LASF4716
C:\Users\CYMR90~1\AppData\Local\Temp\ccbtsgth.s:25992  .debug_str:0000000000018dcd .LASF4717
C:\Users\CYMR90~1\AppData\Local\Temp\ccbtsgth.s:22903  .debug_str:000000000000c7f0 .LASF4718
C:\Users\CYMR90~1\AppData\Local\Temp\ccbtsgth.s:29094  .debug_str:000000000002517d .LASF4719
C:\Users\CYMR90~1\AppData\Local\Temp\ccbtsgth.s:22327  .debug_str:000000000000a0ad .LASF4720
C:\Users\CYMR90~1\AppData\Local\Temp\ccbtsgth.s:28916  .debug_str:00000000000244e3 .LASF4721
C:\Users\CYMR90~1\AppData\Local\Temp\ccbtsgth.s:26726  .debug_str:000000000001bd9d .LASF4722
C:\Users\CYMR90~1\AppData\Local\Temp\ccbtsgth.s:25309  .debug_str:0000000000015fe5 .LASF4723
C:\Users\CYMR90~1\AppData\Local\Temp\ccbtsgth.s:23885  .debug_str:0000000000010557 .LASF4724
C:\Users\CYMR90~1\AppData\Local\Temp\ccbtsgth.s:27760  .debug_str:000000000001fe9c .LASF4725
C:\Users\CYMR90~1\AppData\Local\Temp\ccbtsgth.s:27266  .debug_str:000000000001e0ce .LASF4726
C:\Users\CYMR90~1\AppData\Local\Temp\ccbtsgth.s:26804  .debug_str:000000000001c264 .LASF4727
C:\Users\CYMR90~1\AppData\Local\Temp\ccbtsgth.s:24895  .debug_str:00000000000145de .LASF4728
C:\Users\CYMR90~1\AppData\Local\Temp\ccbtsgth.s:20877  .debug_str:000000000000441d .LASF4729
C:\Users\CYMR90~1\AppData\Local\Temp\ccbtsgth.s:26446  .debug_str:000000000001abcb .LASF4730
C:\Users\CYMR90~1\AppData\Local\Temp\ccbtsgth.s:26506  .debug_str:000000000001afff .LASF4731
C:\Users\CYMR90~1\AppData\Local\Temp\ccbtsgth.s:23625  .debug_str:000000000000f4df .LASF4732
C:\Users\CYMR90~1\AppData\Local\Temp\ccbtsgth.s:22743  .debug_str:000000000000bd6d .LASF4733
C:\Users\CYMR90~1\AppData\Local\Temp\ccbtsgth.s:19807  .debug_str:000000000000006a .LASF4734
C:\Users\CYMR90~1\AppData\Local\Temp\ccbtsgth.s:22817  .debug_str:000000000000c286 .LASF4735
C:\Users\CYMR90~1\AppData\Local\Temp\ccbtsgth.s:21415  .debug_str:0000000000006566 .LASF4736
C:\Users\CYMR90~1\AppData\Local\Temp\ccbtsgth.s:30736  .debug_str:000000000002ba31 .LASF4737
C:\Users\CYMR90~1\AppData\Local\Temp\ccbtsgth.s:25145  .debug_str:00000000000154e5 .LASF4738
C:\Users\CYMR90~1\AppData\Local\Temp\ccbtsgth.s:22775  .debug_str:000000000000bfec .LASF4739
C:\Users\CYMR90~1\AppData\Local\Temp\ccbtsgth.s:24991  .debug_str:0000000000014c1c .LASF4740
C:\Users\CYMR90~1\AppData\Local\Temp\ccbtsgth.s:22659  .debug_str:000000000000b7a2 .LASF4741
C:\Users\CYMR90~1\AppData\Local\Temp\ccbtsgth.s:25193  .debug_str:00000000000157eb .LASF4742
C:\Users\CYMR90~1\AppData\Local\Temp\ccbtsgth.s:24077  .debug_str:00000000000110db .LASF4743
C:\Users\CYMR90~1\AppData\Local\Temp\ccbtsgth.s:29360  .debug_str:00000000000262b5 .LASF4744
C:\Users\CYMR90~1\AppData\Local\Temp\ccbtsgth.s:24307  .debug_str:0000000000012073 .LASF4745
C:\Users\CYMR90~1\AppData\Local\Temp\ccbtsgth.s:25063  .debug_str:0000000000015093 .LASF4746
C:\Users\CYMR90~1\AppData\Local\Temp\ccbtsgth.s:23987  .debug_str:0000000000010bc4 .LASF4747
C:\Users\CYMR90~1\AppData\Local\Temp\ccbtsgth.s:29878  .debug_str:000000000002849c .LASF4748
C:\Users\CYMR90~1\AppData\Local\Temp\ccbtsgth.s:21673  .debug_str:00000000000075f6 .LASF4749
C:\Users\CYMR90~1\AppData\Local\Temp\ccbtsgth.s:25009  .debug_str:0000000000014d4e .LASF4750
C:\Users\CYMR90~1\AppData\Local\Temp\ccbtsgth.s:30804  .debug_str:000000000002bef3 .LASF4751
C:\Users\CYMR90~1\AppData\Local\Temp\ccbtsgth.s:27980  .debug_str:0000000000020c59 .LASF4752
C:\Users\CYMR90~1\AppData\Local\Temp\ccbtsgth.s:20005  .debug_str:0000000000000c92 .LASF4753
C:\Users\CYMR90~1\AppData\Local\Temp\ccbtsgth.s:22701  .debug_str:000000000000bac8 .LASF4754
C:\Users\CYMR90~1\AppData\Local\Temp\ccbtsgth.s:27708  .debug_str:000000000001fb67 .LASF4755
C:\Users\CYMR90~1\AppData\Local\Temp\ccbtsgth.s:20963  .debug_str:0000000000004a35 .LASF4756
C:\Users\CYMR90~1\AppData\Local\Temp\ccbtsgth.s:21869  .debug_str:00000000000083f4 .LASF4757
C:\Users\CYMR90~1\AppData\Local\Temp\ccbtsgth.s:24493  .debug_str:0000000000012c6c .LASF4758
C:\Users\CYMR90~1\AppData\Local\Temp\ccbtsgth.s:23923  .debug_str:000000000001074a .LASF4759
C:\Users\CYMR90~1\AppData\Local\Temp\ccbtsgth.s:28268  .debug_str:0000000000021e03 .LASF4760
C:\Users\CYMR90~1\AppData\Local\Temp\ccbtsgth.s:27318  .debug_str:000000000001e3e6 .LASF4761
C:\Users\CYMR90~1\AppData\Local\Temp\ccbtsgth.s:21081  .debug_str:0000000000005153 .LASF4762
C:\Users\CYMR90~1\AppData\Local\Temp\ccbtsgth.s:28104  .debug_str:000000000002141b .LASF4763
C:\Users\CYMR90~1\AppData\Local\Temp\ccbtsgth.s:30948  .debug_str:000000000002c863 .LASF4764
C:\Users\CYMR90~1\AppData\Local\Temp\ccbtsgth.s:21313  .debug_str:0000000000005f2e .LASF4765
C:\Users\CYMR90~1\AppData\Local\Temp\ccbtsgth.s:26244  .debug_str:0000000000019ded .LASF4766
C:\Users\CYMR90~1\AppData\Local\Temp\ccbtsgth.s:25077  .debug_str:0000000000015131 .LASF4767
C:\Users\CYMR90~1\AppData\Local\Temp\ccbtsgth.s:27764  .debug_str:000000000001fef1 .LASF4768
C:\Users\CYMR90~1\AppData\Local\Temp\ccbtsgth.s:29912  .debug_str:00000000000286cd .LASF4769
C:\Users\CYMR90~1\AppData\Local\Temp\ccbtsgth.s:24717  .debug_str:0000000000013a6b .LASF4770
C:\Users\CYMR90~1\AppData\Local\Temp\ccbtsgth.s:24645  .debug_str:0000000000013619 .LASF4771
C:\Users\CYMR90~1\AppData\Local\Temp\ccbtsgth.s:20395  .debug_str:00000000000024da .LASF4772
C:\Users\CYMR90~1\AppData\Local\Temp\ccbtsgth.s:27370  .debug_str:000000000001e75c .LASF4773
C:\Users\CYMR90~1\AppData\Local\Temp\ccbtsgth.s:26824  .debug_str:000000000001c381 .LASF4774
C:\Users\CYMR90~1\AppData\Local\Temp\ccbtsgth.s:29148  .debug_str:0000000000025517 .LASF4775
C:\Users\CYMR90~1\AppData\Local\Temp\ccbtsgth.s:21457  .debug_str:000000000000683e .LASF4776
C:\Users\CYMR90~1\AppData\Local\Temp\ccbtsgth.s:27188  .debug_str:000000000001db8c .LASF4777
C:\Users\CYMR90~1\AppData\Local\Temp\ccbtsgth.s:22053  .debug_str:0000000000008fa6 .LASF4778
C:\Users\CYMR90~1\AppData\Local\Temp\ccbtsgth.s:22223  .debug_str:0000000000009a32 .LASF4779
C:\Users\CYMR90~1\AppData\Local\Temp\ccbtsgth.s:30296  .debug_str:0000000000029e42 .LASF4780
C:\Users\CYMR90~1\AppData\Local\Temp\ccbtsgth.s:30828  .debug_str:000000000002c064 .LASF4781
C:\Users\CYMR90~1\AppData\Local\Temp\ccbtsgth.s:24939  .debug_str:000000000001488c .LASF4782
C:\Users\CYMR90~1\AppData\Local\Temp\ccbtsgth.s:25357  .debug_str:0000000000016270 .LASF4783
C:\Users\CYMR90~1\AppData\Local\Temp\ccbtsgth.s:24427  .debug_str:0000000000012822 .LASF4784
C:\Users\CYMR90~1\AppData\Local\Temp\ccbtsgth.s:25331  .debug_str:0000000000016131 .LASF4785
C:\Users\CYMR90~1\AppData\Local\Temp\ccbtsgth.s:25005  .debug_str:0000000000014d0c .LASF4786
C:\Users\CYMR90~1\AppData\Local\Temp\ccbtsgth.s:21595  .debug_str:0000000000007136 .LASF4787
C:\Users\CYMR90~1\AppData\Local\Temp\ccbtsgth.s:25788  .debug_str:000000000001804b .LASF4788
C:\Users\CYMR90~1\AppData\Local\Temp\ccbtsgth.s:23665  .debug_str:000000000000f7c5 .LASF4789
C:\Users\CYMR90~1\AppData\Local\Temp\ccbtsgth.s:25177  .debug_str:00000000000156f5 .LASF4790
C:\Users\CYMR90~1\AppData\Local\Temp\ccbtsgth.s:21739  .debug_str:0000000000007a82 .LASF4791
C:\Users\CYMR90~1\AppData\Local\Temp\ccbtsgth.s:26464  .debug_str:000000000001acef .LASF4792
C:\Users\CYMR90~1\AppData\Local\Temp\ccbtsgth.s:31076  .debug_str:000000000002d066 .LASF4793
C:\Users\CYMR90~1\AppData\Local\Temp\ccbtsgth.s:30330  .debug_str:000000000002a047 .LASF4794
C:\Users\CYMR90~1\AppData\Local\Temp\ccbtsgth.s:24289  .debug_str:0000000000011f37 .LASF4795
C:\Users\CYMR90~1\AppData\Local\Temp\ccbtsgth.s:28462  .debug_str:0000000000022927 .LASF4796
C:\Users\CYMR90~1\AppData\Local\Temp\ccbtsgth.s:21035  .debug_str:0000000000004e94 .LASF4797
C:\Users\CYMR90~1\AppData\Local\Temp\ccbtsgth.s:22273  .debug_str:0000000000009d47 .LASF4798
C:\Users\CYMR90~1\AppData\Local\Temp\ccbtsgth.s:22219  .debug_str:00000000000099ee .LASF4799
C:\Users\CYMR90~1\AppData\Local\Temp\ccbtsgth.s:23099  .debug_str:000000000000d4fd .LASF4800
C:\Users\CYMR90~1\AppData\Local\Temp\ccbtsgth.s:20339  .debug_str:000000000000217a .LASF4801
C:\Users\CYMR90~1\AppData\Local\Temp\ccbtsgth.s:30218  .debug_str:00000000000299be .LASF4802
C:\Users\CYMR90~1\AppData\Local\Temp\ccbtsgth.s:27872  .debug_str:0000000000020575 .LASF4803
C:\Users\CYMR90~1\AppData\Local\Temp\ccbtsgth.s:29574  .debug_str:0000000000026faf .LASF4804
C:\Users\CYMR90~1\AppData\Local\Temp\ccbtsgth.s:20211  .debug_str:0000000000001a16 .LASF4805
C:\Users\CYMR90~1\AppData\Local\Temp\ccbtsgth.s:23685  .debug_str:000000000000f8eb .LASF4806
C:\Users\CYMR90~1\AppData\Local\Temp\ccbtsgth.s:22103  .debug_str:0000000000009266 .LASF4807
C:\Users\CYMR90~1\AppData\Local\Temp\ccbtsgth.s:29032  .debug_str:0000000000024cb8 .LASF4808
C:\Users\CYMR90~1\AppData\Local\Temp\ccbtsgth.s:30504  .debug_str:000000000002aab3 .LASF4809
C:\Users\CYMR90~1\AppData\Local\Temp\ccbtsgth.s:25510  .debug_str:0000000000016ec4 .LASF4810
C:\Users\CYMR90~1\AppData\Local\Temp\ccbtsgth.s:25626  .debug_str:000000000001762c .LASF4811
C:\Users\CYMR90~1\AppData\Local\Temp\ccbtsgth.s:27182  .debug_str:000000000001db29 .LASF4812
C:\Users\CYMR90~1\AppData\Local\Temp\ccbtsgth.s:22345  .debug_str:000000000000a1d4 .LASF4813
C:\Users\CYMR90~1\AppData\Local\Temp\ccbtsgth.s:27632  .debug_str:000000000001f6d7 .LASF4814
C:\Users\CYMR90~1\AppData\Local\Temp\ccbtsgth.s:27694  .debug_str:000000000001fa9b .LASF4815
C:\Users\CYMR90~1\AppData\Local\Temp\ccbtsgth.s:24419  .debug_str:00000000000127b5 .LASF4816
C:\Users\CYMR90~1\AppData\Local\Temp\ccbtsgth.s:20677  .debug_str:00000000000036dc .LASF4817
C:\Users\CYMR90~1\AppData\Local\Temp\ccbtsgth.s:24583  .debug_str:0000000000013278 .LASF4818
C:\Users\CYMR90~1\AppData\Local\Temp\ccbtsgth.s:29724  .debug_str:0000000000027973 .LASF4819
C:\Users\CYMR90~1\AppData\Local\Temp\ccbtsgth.s:24097  .debug_str:000000000001120a .LASF4820
C:\Users\CYMR90~1\AppData\Local\Temp\ccbtsgth.s:22713  .debug_str:000000000000bb58 .LASF4821
C:\Users\CYMR90~1\AppData\Local\Temp\ccbtsgth.s:28786  .debug_str:0000000000023c23 .LASF4822
C:\Users\CYMR90~1\AppData\Local\Temp\ccbtsgth.s:28894  .debug_str:000000000002439b .LASF4823
C:\Users\CYMR90~1\AppData\Local\Temp\ccbtsgth.s:25147  .debug_str:00000000000154fb .LASF4824
C:\Users\CYMR90~1\AppData\Local\Temp\ccbtsgth.s:27696  .debug_str:000000000001fab8 .LASF4825
C:\Users\CYMR90~1\AppData\Local\Temp\ccbtsgth.s:25494  .debug_str:0000000000016dbd .LASF4826
C:\Users\CYMR90~1\AppData\Local\Temp\ccbtsgth.s:20645  .debug_str:00000000000034f0 .LASF4827
C:\Users\CYMR90~1\AppData\Local\Temp\ccbtsgth.s:22381  .debug_str:000000000000a44d .LASF4828
C:\Users\CYMR90~1\AppData\Local\Temp\ccbtsgth.s:21367  .debug_str:0000000000006286 .LASF4829
C:\Users\CYMR90~1\AppData\Local\Temp\ccbtsgth.s:29372  .debug_str:000000000002637b .LASF4830
C:\Users\CYMR90~1\AppData\Local\Temp\ccbtsgth.s:29614  .debug_str:00000000000272a5 .LASF4831
C:\Users\CYMR90~1\AppData\Local\Temp\ccbtsgth.s:19917  .debug_str:00000000000006e9 .LASF4832
C:\Users\CYMR90~1\AppData\Local\Temp\ccbtsgth.s:26378  .debug_str:000000000001a7c9 .LASF4833
C:\Users\CYMR90~1\AppData\Local\Temp\ccbtsgth.s:30766  .debug_str:000000000002bc1b .LASF4834
C:\Users\CYMR90~1\AppData\Local\Temp\ccbtsgth.s:22531  .debug_str:000000000000aebd .LASF4835
C:\Users\CYMR90~1\AppData\Local\Temp\ccbtsgth.s:21451  .debug_str:00000000000067db .LASF4836
C:\Users\CYMR90~1\AppData\Local\Temp\ccbtsgth.s:29674  .debug_str:00000000000275e4 .LASF4837
C:\Users\CYMR90~1\AppData\Local\Temp\ccbtsgth.s:26404  .debug_str:000000000001a949 .LASF4838
C:\Users\CYMR90~1\AppData\Local\Temp\ccbtsgth.s:27534  .debug_str:000000000001f121 .LASF4839
C:\Users\CYMR90~1\AppData\Local\Temp\ccbtsgth.s:26664  .debug_str:000000000001b992 .LASF4840
C:\Users\CYMR90~1\AppData\Local\Temp\ccbtsgth.s:21157  .debug_str:00000000000055d7 .LASF4841
C:\Users\CYMR90~1\AppData\Local\Temp\ccbtsgth.s:28552  .debug_str:0000000000022ebe .LASF4842
C:\Users\CYMR90~1\AppData\Local\Temp\ccbtsgth.s:28572  .debug_str:0000000000022fa0 .LASF4843
C:\Users\CYMR90~1\AppData\Local\Temp\ccbtsgth.s:29066  .debug_str:0000000000024eac .LASF4844
C:\Users\CYMR90~1\AppData\Local\Temp\ccbtsgth.s:29984  .debug_str:0000000000028aec .LASF4845
C:\Users\CYMR90~1\AppData\Local\Temp\ccbtsgth.s:28612  .debug_str:00000000000231eb .LASF4846
C:\Users\CYMR90~1\AppData\Local\Temp\ccbtsgth.s:30108  .debug_str:000000000002933a .LASF4847
C:\Users\CYMR90~1\AppData\Local\Temp\ccbtsgth.s:24499  .debug_str:0000000000012cd8 .LASF4848
C:\Users\CYMR90~1\AppData\Local\Temp\ccbtsgth.s:24329  .debug_str:00000000000121c8 .LASF4849
C:\Users\CYMR90~1\AppData\Local\Temp\ccbtsgth.s:28146  .debug_str:000000000002169e .LASF4850
C:\Users\CYMR90~1\AppData\Local\Temp\ccbtsgth.s:31048  .debug_str:000000000002ceac .LASF4851
C:\Users\CYMR90~1\AppData\Local\Temp\ccbtsgth.s:24503  .debug_str:0000000000012d1c .LASF4852
C:\Users\CYMR90~1\AppData\Local\Temp\ccbtsgth.s:25710  .debug_str:0000000000017b7d .LASF4853
C:\Users\CYMR90~1\AppData\Local\Temp\ccbtsgth.s:26610  .debug_str:000000000001b687 .LASF4854
C:\Users\CYMR90~1\AppData\Local\Temp\ccbtsgth.s:28130  .debug_str:00000000000215a7 .LASF4855
C:\Users\CYMR90~1\AppData\Local\Temp\ccbtsgth.s:25429  .debug_str:000000000001677a .LASF4856
C:\Users\CYMR90~1\AppData\Local\Temp\ccbtsgth.s:27950  .debug_str:0000000000020a7e .LASF4857
C:\Users\CYMR90~1\AppData\Local\Temp\ccbtsgth.s:27434  .debug_str:000000000001eaf2 .LASF4858
C:\Users\CYMR90~1\AppData\Local\Temp\ccbtsgth.s:28364  .debug_str:0000000000022354 .LASF4859
C:\Users\CYMR90~1\AppData\Local\Temp\ccbtsgth.s:21319  .debug_str:0000000000005fa0 .LASF4860
C:\Users\CYMR90~1\AppData\Local\Temp\ccbtsgth.s:28826  .debug_str:0000000000023e48 .LASF4861
C:\Users\CYMR90~1\AppData\Local\Temp\ccbtsgth.s:27062  .debug_str:000000000001d3b5 .LASF4862
C:\Users\CYMR90~1\AppData\Local\Temp\ccbtsgth.s:27042  .debug_str:000000000001d282 .LASF4863
C:\Users\CYMR90~1\AppData\Local\Temp\ccbtsgth.s:20055  .debug_str:0000000000001032 .LASF4864
C:\Users\CYMR90~1\AppData\Local\Temp\ccbtsgth.s:24379  .debug_str:00000000000124ff .LASF4865
C:\Users\CYMR90~1\AppData\Local\Temp\ccbtsgth.s:25804  .debug_str:0000000000018137 .LASF4866
C:\Users\CYMR90~1\AppData\Local\Temp\ccbtsgth.s:21621  .debug_str:00000000000072e3 .LASF4867
C:\Users\CYMR90~1\AppData\Local\Temp\ccbtsgth.s:26384  .debug_str:000000000001a813 .LASF4868
C:\Users\CYMR90~1\AppData\Local\Temp\ccbtsgth.s:30232  .debug_str:0000000000029a9d .LASF4869
C:\Users\CYMR90~1\AppData\Local\Temp\ccbtsgth.s:22885  .debug_str:000000000000c6a1 .LASF4870
C:\Users\CYMR90~1\AppData\Local\Temp\ccbtsgth.s:22515  .debug_str:000000000000ad80 .LASF4871
C:\Users\CYMR90~1\AppData\Local\Temp\ccbtsgth.s:23511  .debug_str:000000000000ede8 .LASF4872
C:\Users\CYMR90~1\AppData\Local\Temp\ccbtsgth.s:21493  .debug_str:0000000000006a75 .LASF4873
C:\Users\CYMR90~1\AppData\Local\Temp\ccbtsgth.s:31060  .debug_str:000000000002cf6c .LASF4874
C:\Users\CYMR90~1\AppData\Local\Temp\ccbtsgth.s:20399  .debug_str:0000000000002510 .LASF4875
C:\Users\CYMR90~1\AppData\Local\Temp\ccbtsgth.s:28600  .debug_str:0000000000023123 .LASF4876
C:\Users\CYMR90~1\AppData\Local\Temp\ccbtsgth.s:25413  .debug_str:0000000000016631 .LASF4877
C:\Users\CYMR90~1\AppData\Local\Temp\ccbtsgth.s:30460  .debug_str:000000000002a804 .LASF4878
C:\Users\CYMR90~1\AppData\Local\Temp\ccbtsgth.s:23349  .debug_str:000000000000e3c3 .LASF4879
C:\Users\CYMR90~1\AppData\Local\Temp\ccbtsgth.s:29764  .debug_str:0000000000027c1a .LASF4880
C:\Users\CYMR90~1\AppData\Local\Temp\ccbtsgth.s:21697  .debug_str:000000000000778c .LASF4881
C:\Users\CYMR90~1\AppData\Local\Temp\ccbtsgth.s:23117  .debug_str:000000000000d65b .LASF4882
C:\Users\CYMR90~1\AppData\Local\Temp\ccbtsgth.s:30960  .debug_str:000000000002c903 .LASF4883
C:\Users\CYMR90~1\AppData\Local\Temp\ccbtsgth.s:22755  .debug_str:000000000000be8a .LASF4884
C:\Users\CYMR90~1\AppData\Local\Temp\ccbtsgth.s:22321  .debug_str:000000000000a04e .LASF4885
C:\Users\CYMR90~1\AppData\Local\Temp\ccbtsgth.s:29678  .debug_str:000000000002763c .LASF4886
C:\Users\CYMR90~1\AppData\Local\Temp\ccbtsgth.s:24133  .debug_str:000000000001144c .LASF4887
C:\Users\CYMR90~1\AppData\Local\Temp\ccbtsgth.s:20947  .debug_str:0000000000004944 .LASF4888
C:\Users\CYMR90~1\AppData\Local\Temp\ccbtsgth.s:22265  .debug_str:0000000000009cc1 .LASF4889
C:\Users\CYMR90~1\AppData\Local\Temp\ccbtsgth.s:26038  .debug_str:000000000001914e .LASF4890
C:\Users\CYMR90~1\AppData\Local\Temp\ccbtsgth.s:27002  .debug_str:000000000001d028 .LASF4891
C:\Users\CYMR90~1\AppData\Local\Temp\ccbtsgth.s:27230  .debug_str:000000000001deb9 .LASF4892
C:\Users\CYMR90~1\AppData\Local\Temp\ccbtsgth.s:22961  .debug_str:000000000000cbe1 .LASF4893
C:\Users\CYMR90~1\AppData\Local\Temp\ccbtsgth.s:25205  .debug_str:00000000000158af .LASF4894
C:\Users\CYMR90~1\AppData\Local\Temp\ccbtsgth.s:23353  .debug_str:000000000000e3f8 .LASF4895
C:\Users\CYMR90~1\AppData\Local\Temp\ccbtsgth.s:26204  .debug_str:0000000000019ba2 .LASF4896
C:\Users\CYMR90~1\AppData\Local\Temp\ccbtsgth.s:25952  .debug_str:0000000000018aa1 .LASF4897
C:\Users\CYMR90~1\AppData\Local\Temp\ccbtsgth.s:28678  .debug_str:0000000000023613 .LASF4898
C:\Users\CYMR90~1\AppData\Local\Temp\ccbtsgth.s:20905  .debug_str:0000000000004608 .LASF4899
C:\Users\CYMR90~1\AppData\Local\Temp\ccbtsgth.s:19987  .debug_str:0000000000000b87 .LASF4900
C:\Users\CYMR90~1\AppData\Local\Temp\ccbtsgth.s:24217  .debug_str:0000000000011a66 .LASF4901
C:\Users\CYMR90~1\AppData\Local\Temp\ccbtsgth.s:24963  .debug_str:00000000000149fc .LASF4902
C:\Users\CYMR90~1\AppData\Local\Temp\ccbtsgth.s:30830  .debug_str:000000000002c07c .LASF4903
C:\Users\CYMR90~1\AppData\Local\Temp\ccbtsgth.s:21849  .debug_str:000000000000828e .LASF4904
C:\Users\CYMR90~1\AppData\Local\Temp\ccbtsgth.s:22407  .debug_str:000000000000a5b2 .LASF4905
C:\Users\CYMR90~1\AppData\Local\Temp\ccbtsgth.s:26044  .debug_str:00000000000191b0 .LASF4906
C:\Users\CYMR90~1\AppData\Local\Temp\ccbtsgth.s:23289  .debug_str:000000000000e042 .LASF4907
C:\Users\CYMR90~1\AppData\Local\Temp\ccbtsgth.s:30882  .debug_str:000000000002c430 .LASF4908
C:\Users\CYMR90~1\AppData\Local\Temp\ccbtsgth.s:20215  .debug_str:0000000000001a54 .LASF4909
C:\Users\CYMR90~1\AppData\Local\Temp\ccbtsgth.s:29754  .debug_str:0000000000027b69 .LASF4910
C:\Users\CYMR90~1\AppData\Local\Temp\ccbtsgth.s:27124  .debug_str:000000000001d7d1 .LASF4911
C:\Users\CYMR90~1\AppData\Local\Temp\ccbtsgth.s:25472  .debug_str:0000000000016c4c .LASF4912
C:\Users\CYMR90~1\AppData\Local\Temp\ccbtsgth.s:22369  .debug_str:000000000000a390 .LASF4913
C:\Users\CYMR90~1\AppData\Local\Temp\ccbtsgth.s:28194  .debug_str:0000000000021947 .LASF4914
C:\Users\CYMR90~1\AppData\Local\Temp\ccbtsgth.s:24505  .debug_str:0000000000012d3c .LASF4915
C:\Users\CYMR90~1\AppData\Local\Temp\ccbtsgth.s:25938  .debug_str:00000000000189af .LASF4916
C:\Users\CYMR90~1\AppData\Local\Temp\ccbtsgth.s:24605  .debug_str:00000000000133c7 .LASF4917
C:\Users\CYMR90~1\AppData\Local\Temp\ccbtsgth.s:28864  .debug_str:000000000002418a .LASF4918
C:\Users\CYMR90~1\AppData\Local\Temp\ccbtsgth.s:22025  .debug_str:0000000000008deb .LASF4919
C:\Users\CYMR90~1\AppData\Local\Temp\ccbtsgth.s:20459  .debug_str:00000000000028fe .LASF4920
C:\Users\CYMR90~1\AppData\Local\Temp\ccbtsgth.s:24189  .debug_str:00000000000118eb .LASF4921
C:\Users\CYMR90~1\AppData\Local\Temp\ccbtsgth.s:27762  .debug_str:000000000001fec6 .LASF4922
C:\Users\CYMR90~1\AppData\Local\Temp\ccbtsgth.s:20595  .debug_str:00000000000031a9 .LASF4923
C:\Users\CYMR90~1\AppData\Local\Temp\ccbtsgth.s:25582  .debug_str:00000000000172fd .LASF4924
C:\Users\CYMR90~1\AppData\Local\Temp\ccbtsgth.s:30062  .debug_str:0000000000028fec .LASF4925
C:\Users\CYMR90~1\AppData\Local\Temp\ccbtsgth.s:30102  .debug_str:00000000000292be .LASF4926
C:\Users\CYMR90~1\AppData\Local\Temp\ccbtsgth.s:22351  .debug_str:000000000000a22b .LASF4927
C:\Users\CYMR90~1\AppData\Local\Temp\ccbtsgth.s:26034  .debug_str:00000000000190fb .LASF4928
C:\Users\CYMR90~1\AppData\Local\Temp\ccbtsgth.s:30356  .debug_str:000000000002a1a5 .LASF4929
C:\Users\CYMR90~1\AppData\Local\Temp\ccbtsgth.s:21405  .debug_str:00000000000064d2 .LASF4930
C:\Users\CYMR90~1\AppData\Local\Temp\ccbtsgth.s:30350  .debug_str:000000000002a13c .LASF4931
C:\Users\CYMR90~1\AppData\Local\Temp\ccbtsgth.s:20531  .debug_str:0000000000002d90 .LASF4932
C:\Users\CYMR90~1\AppData\Local\Temp\ccbtsgth.s:26468  .debug_str:000000000001ad2c .LASF4933
C:\Users\CYMR90~1\AppData\Local\Temp\ccbtsgth.s:23603  .debug_str:000000000000f38d .LASF4934
C:\Users\CYMR90~1\AppData\Local\Temp\ccbtsgth.s:24775  .debug_str:0000000000013e47 .LASF4935
C:\Users\CYMR90~1\AppData\Local\Temp\ccbtsgth.s:29990  .debug_str:0000000000028b52 .LASF4936
C:\Users\CYMR90~1\AppData\Local\Temp\ccbtsgth.s:22075  .debug_str:00000000000090ad .LASF4937
C:\Users\CYMR90~1\AppData\Local\Temp\ccbtsgth.s:26976  .debug_str:000000000001ce00 .LASF4938
C:\Users\CYMR90~1\AppData\Local\Temp\ccbtsgth.s:30398  .debug_str:000000000002a488 .LASF4939
C:\Users\CYMR90~1\AppData\Local\Temp\ccbtsgth.s:20899  .debug_str:0000000000004590 .LASF4940
C:\Users\CYMR90~1\AppData\Local\Temp\ccbtsgth.s:29152  .debug_str:000000000002555e .LASF4941
C:\Users\CYMR90~1\AppData\Local\Temp\ccbtsgth.s:27652  .debug_str:000000000001f7e0 .LASF4942
C:\Users\CYMR90~1\AppData\Local\Temp\ccbtsgth.s:26802  .debug_str:000000000001c23c .LASF4943
C:\Users\CYMR90~1\AppData\Local\Temp\ccbtsgth.s:27784  .debug_str:0000000000020027 .LASF4944
C:\Users\CYMR90~1\AppData\Local\Temp\ccbtsgth.s:31026  .debug_str:000000000002cd7c .LASF4945
C:\Users\CYMR90~1\AppData\Local\Temp\ccbtsgth.s:20649  .debug_str:0000000000003527 .LASF4946
C:\Users\CYMR90~1\AppData\Local\Temp\ccbtsgth.s:27394  .debug_str:000000000001e8e7 .LASF4947
C:\Users\CYMR90~1\AppData\Local\Temp\ccbtsgth.s:28164  .debug_str:00000000000217b1 .LASF4948
C:\Users\CYMR90~1\AppData\Local\Temp\ccbtsgth.s:20237  .debug_str:0000000000001ba5 .LASF4949
C:\Users\CYMR90~1\AppData\Local\Temp\ccbtsgth.s:21703  .debug_str:00000000000077e4 .LASF4950
C:\Users\CYMR90~1\AppData\Local\Temp\ccbtsgth.s:25740  .debug_str:0000000000017d5c .LASF4951
C:\Users\CYMR90~1\AppData\Local\Temp\ccbtsgth.s:23931  .debug_str:00000000000107f8 .LASF4952
C:\Users\CYMR90~1\AppData\Local\Temp\ccbtsgth.s:25840  .debug_str:000000000001837a .LASF4953
C:\Users\CYMR90~1\AppData\Local\Temp\ccbtsgth.s:26426  .debug_str:000000000001aacd .LASF4954
C:\Users\CYMR90~1\AppData\Local\Temp\ccbtsgth.s:27790  .debug_str:0000000000020088 .LASF4955
C:\Users\CYMR90~1\AppData\Local\Temp\ccbtsgth.s:31062  .debug_str:000000000002cf8a .LASF4956
C:\Users\CYMR90~1\AppData\Local\Temp\ccbtsgth.s:24889  .debug_str:000000000001455c .LASF4957
C:\Users\CYMR90~1\AppData\Local\Temp\ccbtsgth.s:24793  .debug_str:0000000000013f68 .LASF4958
C:\Users\CYMR90~1\AppData\Local\Temp\ccbtsgth.s:21121  .debug_str:00000000000053af .LASF4959
C:\Users\CYMR90~1\AppData\Local\Temp\ccbtsgth.s:28888  .debug_str:0000000000024314 .LASF4960
C:\Users\CYMR90~1\AppData\Local\Temp\ccbtsgth.s:29758  .debug_str:0000000000027bac .LASF4961
C:\Users\CYMR90~1\AppData\Local\Temp\ccbtsgth.s:21719  .debug_str:000000000000790e .LASF4962
C:\Users\CYMR90~1\AppData\Local\Temp\ccbtsgth.s:30838  .debug_str:000000000002c123 .LASF4963
C:\Users\CYMR90~1\AppData\Local\Temp\ccbtsgth.s:23465  .debug_str:000000000000eb5f .LASF4964
C:\Users\CYMR90~1\AppData\Local\Temp\ccbtsgth.s:25662  .debug_str:0000000000017887 .LASF4965
C:\Users\CYMR90~1\AppData\Local\Temp\ccbtsgth.s:21825  .debug_str:0000000000008122 .LASF4966
C:\Users\CYMR90~1\AppData\Local\Temp\ccbtsgth.s:21421  .debug_str:00000000000065c4 .LASF4967
C:\Users\CYMR90~1\AppData\Local\Temp\ccbtsgth.s:21021  .debug_str:0000000000004da9 .LASF4968
C:\Users\CYMR90~1\AppData\Local\Temp\ccbtsgth.s:29584  .debug_str:00000000000270e8 .LASF4969
C:\Users\CYMR90~1\AppData\Local\Temp\ccbtsgth.s:25780  .debug_str:0000000000017fb3 .LASF4970
C:\Users\CYMR90~1\AppData\Local\Temp\ccbtsgth.s:24357  .debug_str:0000000000012397 .LASF4971
C:\Users\CYMR90~1\AppData\Local\Temp\ccbtsgth.s:22911  .debug_str:000000000000c886 .LASF4972
C:\Users\CYMR90~1\AppData\Local\Temp\ccbtsgth.s:27374  .debug_str:000000000001e7a4 .LASF4973
C:\Users\CYMR90~1\AppData\Local\Temp\ccbtsgth.s:22073  .debug_str:000000000000907c .LASF4974
C:\Users\CYMR90~1\AppData\Local\Temp\ccbtsgth.s:30562  .debug_str:000000000002ae20 .LASF4975
C:\Users\CYMR90~1\AppData\Local\Temp\ccbtsgth.s:27364  .debug_str:000000000001e6b6 .LASF4976
C:\Users\CYMR90~1\AppData\Local\Temp\ccbtsgth.s:21921  .debug_str:00000000000086ff .LASF4977
C:\Users\CYMR90~1\AppData\Local\Temp\ccbtsgth.s:29670  .debug_str:00000000000275a8 .LASF4978
C:\Users\CYMR90~1\AppData\Local\Temp\ccbtsgth.s:31068  .debug_str:000000000002cfe4 .LASF4979
C:\Users\CYMR90~1\AppData\Local\Temp\ccbtsgth.s:27704  .debug_str:000000000001fb10 .LASF4980
C:\Users\CYMR90~1\AppData\Local\Temp\ccbtsgth.s:29960  .debug_str:000000000002899c .LASF4981
C:\Users\CYMR90~1\AppData\Local\Temp\ccbtsgth.s:21003  .debug_str:0000000000004c98 .LASF4982
C:\Users\CYMR90~1\AppData\Local\Temp\ccbtsgth.s:21339  .debug_str:00000000000060db .LASF4983
C:\Users\CYMR90~1\AppData\Local\Temp\ccbtsgth.s:26296  .debug_str:000000000001a0bc .LASF4984
C:\Users\CYMR90~1\AppData\Local\Temp\ccbtsgth.s:24973  .debug_str:0000000000014adc .LASF4985
C:\Users\CYMR90~1\AppData\Local\Temp\ccbtsgth.s:23737  .debug_str:000000000000fc35 .LASF4986
C:\Users\CYMR90~1\AppData\Local\Temp\ccbtsgth.s:30416  .debug_str:000000000002a590 .LASF4987
C:\Users\CYMR90~1\AppData\Local\Temp\ccbtsgth.s:26740  .debug_str:000000000001be70 .LASF4988
C:\Users\CYMR90~1\AppData\Local\Temp\ccbtsgth.s:28228  .debug_str:0000000000021b96 .LASF4989
C:\Users\CYMR90~1\AppData\Local\Temp\ccbtsgth.s:26502  .debug_str:000000000001afbf .LASF4990
C:\Users\CYMR90~1\AppData\Local\Temp\ccbtsgth.s:22123  .debug_str:0000000000009374 .LASF4991
C:\Users\CYMR90~1\AppData\Local\Temp\ccbtsgth.s:19859  .debug_str:00000000000003a2 .LASF4992
C:\Users\CYMR90~1\AppData\Local\Temp\ccbtsgth.s:23171  .debug_str:000000000000d90b .LASF4993
C:\Users\CYMR90~1\AppData\Local\Temp\ccbtsgth.s:20443  .debug_str:00000000000027f4 .LASF4994
C:\Users\CYMR90~1\AppData\Local\Temp\ccbtsgth.s:27422  .debug_str:000000000001ea57 .LASF4995
C:\Users\CYMR90~1\AppData\Local\Temp\ccbtsgth.s:24995  .debug_str:0000000000014c71 .LASF4996
C:\Users\CYMR90~1\AppData\Local\Temp\ccbtsgth.s:19803  .debug_str:0000000000000000 .LASF4997
C:\Users\CYMR90~1\AppData\Local\Temp\ccbtsgth.s:20247  .debug_str:0000000000001c4a .LASF4998
C:\Users\CYMR90~1\AppData\Local\Temp\ccbtsgth.s:30104  .debug_str:00000000000292eb .LASF4999
C:\Users\CYMR90~1\AppData\Local\Temp\ccbtsgth.s:25650  .debug_str:00000000000177c5 .LASF5000
C:\Users\CYMR90~1\AppData\Local\Temp\ccbtsgth.s:27440  .debug_str:000000000001eb40 .LASF5001
C:\Users\CYMR90~1\AppData\Local\Temp\ccbtsgth.s:19931  .debug_str:00000000000007c6 .LASF5002
C:\Users\CYMR90~1\AppData\Local\Temp\ccbtsgth.s:25441  .debug_str:0000000000016840 .LASF5003
C:\Users\CYMR90~1\AppData\Local\Temp\ccbtsgth.s:27738  .debug_str:000000000001fd24 .LASF5004
C:\Users\CYMR90~1\AppData\Local\Temp\ccbtsgth.s:26390  .debug_str:000000000001a87c .LASF5005
C:\Users\CYMR90~1\AppData\Local\Temp\ccbtsgth.s:25696  .debug_str:0000000000017ab8 .LASF5006
C:\Users\CYMR90~1\AppData\Local\Temp\ccbtsgth.s:25564  .debug_str:00000000000171e1 .LASF5007
C:\Users\CYMR90~1\AppData\Local\Temp\ccbtsgth.s:21307  .debug_str:0000000000005ec7 .LASF5008
C:\Users\CYMR90~1\AppData\Local\Temp\ccbtsgth.s:23563  .debug_str:000000000000f11d .LASF5009
C:\Users\CYMR90~1\AppData\Local\Temp\ccbtsgth.s:24251  .debug_str:0000000000011cc7 .LASF5010
C:\Users\CYMR90~1\AppData\Local\Temp\ccbtsgth.s:25898  .debug_str:00000000000186fa .LASF5011
C:\Users\CYMR90~1\AppData\Local\Temp\ccbtsgth.s:21095  .debug_str:000000000000521a .LASF5012
C:\Users\CYMR90~1\AppData\Local\Temp\ccbtsgth.s:29136  .debug_str:000000000002541e .LASF5013
C:\Users\CYMR90~1\AppData\Local\Temp\ccbtsgth.s:29916  .debug_str:0000000000028702 .LASF5014
C:\Users\CYMR90~1\AppData\Local\Temp\ccbtsgth.s:29376  .debug_str:00000000000263a2 .LASF5015
C:\Users\CYMR90~1\AppData\Local\Temp\ccbtsgth.s:24065  .debug_str:000000000001103b .LASF5016
C:\Users\CYMR90~1\AppData\Local\Temp\ccbtsgth.s:23001  .debug_str:000000000000ce07 .LASF5017
C:\Users\CYMR90~1\AppData\Local\Temp\ccbtsgth.s:27892  .debug_str:000000000002068e .LASF5018
C:\Users\CYMR90~1\AppData\Local\Temp\ccbtsgth.s:23637  .debug_str:000000000000f61e .LASF5019
C:\Users\CYMR90~1\AppData\Local\Temp\ccbtsgth.s:22967  .debug_str:000000000000cc42 .LASF5020
C:\Users\CYMR90~1\AppData\Local\Temp\ccbtsgth.s:29352  .debug_str:0000000000026236 .LASF5021
C:\Users\CYMR90~1\AppData\Local\Temp\ccbtsgth.s:24517  .debug_str:0000000000012e19 .LASF5022
C:\Users\CYMR90~1\AppData\Local\Temp\ccbtsgth.s:22783  .debug_str:000000000000c04c .LASF5023
C:\Users\CYMR90~1\AppData\Local\Temp\ccbtsgth.s:20689  .debug_str:00000000000037c0 .LASF5024
C:\Users\CYMR90~1\AppData\Local\Temp\ccbtsgth.s:21611  .debug_str:000000000000724a .LASF5025
C:\Users\CYMR90~1\AppData\Local\Temp\ccbtsgth.s:23641  .debug_str:000000000000f66d .LASF5026
C:\Users\CYMR90~1\AppData\Local\Temp\ccbtsgth.s:21185  .debug_str:000000000000577b .LASF5027
C:\Users\CYMR90~1\AppData\Local\Temp\ccbtsgth.s:29790  .debug_str:0000000000027e1c .LASF5028
C:\Users\CYMR90~1\AppData\Local\Temp\ccbtsgth.s:24305  .debug_str:0000000000012051 .LASF5029
C:\Users\CYMR90~1\AppData\Local\Temp\ccbtsgth.s:20525  .debug_str:0000000000002d34 .LASF5030
C:\Users\CYMR90~1\AppData\Local\Temp\ccbtsgth.s:29212  .debug_str:000000000002599b .LASF5031
C:\Users\CYMR90~1\AppData\Local\Temp\ccbtsgth.s:29594  .debug_str:00000000000271a2 .LASF5032
C:\Users\CYMR90~1\AppData\Local\Temp\ccbtsgth.s:24081  .debug_str:000000000001111b .LASF5033
C:\Users\CYMR90~1\AppData\Local\Temp\ccbtsgth.s:25269  .debug_str:0000000000015d48 .LASF5034
C:\Users\CYMR90~1\AppData\Local\Temp\ccbtsgth.s:28604  .debug_str:000000000002315c .LASF5035
C:\Users\CYMR90~1\AppData\Local\Temp\ccbtsgth.s:27356  .debug_str:000000000001e636 .LASF5036
C:\Users\CYMR90~1\AppData\Local\Temp\ccbtsgth.s:28258  .debug_str:0000000000021d5e .LASF5037
C:\Users\CYMR90~1\AppData\Local\Temp\ccbtsgth.s:31074  .debug_str:000000000002d040 .LASF5038
C:\Users\CYMR90~1\AppData\Local\Temp\ccbtsgth.s:28438  .debug_str:00000000000227bf .LASF5039
C:\Users\CYMR90~1\AppData\Local\Temp\ccbtsgth.s:29042  .debug_str:0000000000024d48 .LASF5040
C:\Users\CYMR90~1\AppData\Local\Temp\ccbtsgth.s:21701  .debug_str:00000000000077c2 .LASF5041
C:\Users\CYMR90~1\AppData\Local\Temp\ccbtsgth.s:21057  .debug_str:0000000000004fd9 .LASF5042
C:\Users\CYMR90~1\AppData\Local\Temp\ccbtsgth.s:28470  .debug_str:000000000002298e .LASF5043
C:\Users\CYMR90~1\AppData\Local\Temp\ccbtsgth.s:24367  .debug_str:0000000000012438 .LASF5044
C:\Users\CYMR90~1\AppData\Local\Temp\ccbtsgth.s:28942  .debug_str:000000000002467a .LASF5045
C:\Users\CYMR90~1\AppData\Local\Temp\ccbtsgth.s:30248  .debug_str:0000000000029b9b .LASF5046
C:\Users\CYMR90~1\AppData\Local\Temp\ccbtsgth.s:26978  .debug_str:000000000001ce2f .LASF5047
C:\Users\CYMR90~1\AppData\Local\Temp\ccbtsgth.s:29180  .debug_str:00000000000257b0 .LASF5048
C:\Users\CYMR90~1\AppData\Local\Temp\ccbtsgth.s:29228  .debug_str:0000000000025ab1 .LASF5049
C:\Users\CYMR90~1\AppData\Local\Temp\ccbtsgth.s:26460  .debug_str:000000000001acbb .LASF5050
C:\Users\CYMR90~1\AppData\Local\Temp\ccbtsgth.s:23733  .debug_str:000000000000fbef .LASF5051
C:\Users\CYMR90~1\AppData\Local\Temp\ccbtsgth.s:24049  .debug_str:0000000000010f38 .LASF5052
C:\Users\CYMR90~1\AppData\Local\Temp\ccbtsgth.s:29062  .debug_str:0000000000024e6d .LASF5053
C:\Users\CYMR90~1\AppData\Local\Temp\ccbtsgth.s:24783  .debug_str:0000000000013ecb .LASF5054
C:\Users\CYMR90~1\AppData\Local\Temp\ccbtsgth.s:23933  .debug_str:0000000000010817 .LASF5055
C:\Users\CYMR90~1\AppData\Local\Temp\ccbtsgth.s:30510  .debug_str:000000000002ab13 .LASF5056
C:\Users\CYMR90~1\AppData\Local\Temp\ccbtsgth.s:21993  .debug_str:0000000000008b7b .LASF5057
C:\Users\CYMR90~1\AppData\Local\Temp\ccbtsgth.s:22577  .debug_str:000000000000b246 .LASF5058
C:\Users\CYMR90~1\AppData\Local\Temp\ccbtsgth.s:29238  .debug_str:0000000000025b39 .LASF5059
C:\Users\CYMR90~1\AppData\Local\Temp\ccbtsgth.s:20081  .debug_str:00000000000011c6 .LASF5060
C:\Users\CYMR90~1\AppData\Local\Temp\ccbtsgth.s:25349  .debug_str:0000000000016208 .LASF5061
C:\Users\CYMR90~1\AppData\Local\Temp\ccbtsgth.s:27436  .debug_str:000000000001eb0a .LASF5062
C:\Users\CYMR90~1\AppData\Local\Temp\ccbtsgth.s:29720  .debug_str:0000000000027923 .LASF5063
C:\Users\CYMR90~1\AppData\Local\Temp\ccbtsgth.s:23415  .debug_str:000000000000e803 .LASF5064
C:\Users\CYMR90~1\AppData\Local\Temp\ccbtsgth.s:29744  .debug_str:0000000000027ad2 .LASF5065
C:\Users\CYMR90~1\AppData\Local\Temp\ccbtsgth.s:27378  .debug_str:000000000001e7f8 .LASF5066
C:\Users\CYMR90~1\AppData\Local\Temp\ccbtsgth.s:24135  .debug_str:0000000000011470 .LASF5067
C:\Users\CYMR90~1\AppData\Local\Temp\ccbtsgth.s:27692  .debug_str:000000000001fa6a .LASF5068
C:\Users\CYMR90~1\AppData\Local\Temp\ccbtsgth.s:21037  .debug_str:0000000000004eb2 .LASF5069
C:\Users\CYMR90~1\AppData\Local\Temp\ccbtsgth.s:24665  .debug_str:0000000000013755 .LASF5070
C:\Users\CYMR90~1\AppData\Local\Temp\ccbtsgth.s:30942  .debug_str:000000000002c7ea .LASF5071
C:\Users\CYMR90~1\AppData\Local\Temp\ccbtsgth.s:23271  .debug_str:000000000000df35 .LASF5072
C:\Users\CYMR90~1\AppData\Local\Temp\ccbtsgth.s:26940  .debug_str:000000000001cb18 .LASF5073
C:\Users\CYMR90~1\AppData\Local\Temp\ccbtsgth.s:23393  .debug_str:000000000000e6a4 .LASF5074
C:\Users\CYMR90~1\AppData\Local\Temp\ccbtsgth.s:30138  .debug_str:0000000000029525 .LASF5075
C:\Users\CYMR90~1\AppData\Local\Temp\ccbtsgth.s:27472  .debug_str:000000000001ed21 .LASF5076
C:\Users\CYMR90~1\AppData\Local\Temp\ccbtsgth.s:23425  .debug_str:000000000000e877 .LASF5077
C:\Users\CYMR90~1\AppData\Local\Temp\ccbtsgth.s:20157  .debug_str:0000000000001603 .LASF5078
C:\Users\CYMR90~1\AppData\Local\Temp\ccbtsgth.s:26924  .debug_str:000000000001ca19 .LASF5079
C:\Users\CYMR90~1\AppData\Local\Temp\ccbtsgth.s:29550  .debug_str:0000000000026e20 .LASF5080
C:\Users\CYMR90~1\AppData\Local\Temp\ccbtsgth.s:26436  .debug_str:000000000001ab43 .LASF5081
C:\Users\CYMR90~1\AppData\Local\Temp\ccbtsgth.s:27432  .debug_str:000000000001eadc .LASF5082
C:\Users\CYMR90~1\AppData\Local\Temp\ccbtsgth.s:20009  .debug_str:0000000000000cce .LASF5083
C:\Users\CYMR90~1\AppData\Local\Temp\ccbtsgth.s:28022  .debug_str:0000000000020eb1 .LASF5084
C:\Users\CYMR90~1\AppData\Local\Temp\ccbtsgth.s:22915  .debug_str:000000000000c8fa .LASF5085
C:\Users\CYMR90~1\AppData\Local\Temp\ccbtsgth.s:25211  .debug_str:0000000000015919 .LASF5086
C:\Users\CYMR90~1\AppData\Local\Temp\ccbtsgth.s:23659  .debug_str:000000000000f774 .LASF5087
C:\Users\CYMR90~1\AppData\Local\Temp\ccbtsgth.s:25836  .debug_str:0000000000018328 .LASF5088
C:\Users\CYMR90~1\AppData\Local\Temp\ccbtsgth.s:30406  .debug_str:000000000002a50b .LASF5089
C:\Users\CYMR90~1\AppData\Local\Temp\ccbtsgth.s:24587  .debug_str:00000000000132d7 .LASF5090
C:\Users\CYMR90~1\AppData\Local\Temp\ccbtsgth.s:27622  .debug_str:000000000001f63d .LASF5091
C:\Users\CYMR90~1\AppData\Local\Temp\ccbtsgth.s:21677  .debug_str:000000000000764f .LASF5092
C:\Users\CYMR90~1\AppData\Local\Temp\ccbtsgth.s:29096  .debug_str:00000000000251a8 .LASF5093
C:\Users\CYMR90~1\AppData\Local\Temp\ccbtsgth.s:21551  .debug_str:0000000000006e23 .LASF5094
C:\Users\CYMR90~1\AppData\Local\Temp\ccbtsgth.s:29626  .debug_str:0000000000027342 .LASF5095
C:\Users\CYMR90~1\AppData\Local\Temp\ccbtsgth.s:30116  .debug_str:00000000000293a6 .LASF5096
C:\Users\CYMR90~1\AppData\Local\Temp\ccbtsgth.s:28352  .debug_str:00000000000222d0 .LASF5097
C:\Users\CYMR90~1\AppData\Local\Temp\ccbtsgth.s:25121  .debug_str:0000000000015392 .LASF5098
C:\Users\CYMR90~1\AppData\Local\Temp\ccbtsgth.s:21999  .debug_str:0000000000008bc2 .LASF5099
C:\Users\CYMR90~1\AppData\Local\Temp\ccbtsgth.s:20603  .debug_str:0000000000003217 .LASF5100
C:\Users\CYMR90~1\AppData\Local\Temp\ccbtsgth.s:30826  .debug_str:000000000002c04c .LASF5101
C:\Users\CYMR90~1\AppData\Local\Temp\ccbtsgth.s:22185  .debug_str:0000000000009771 .LASF5102
C:\Users\CYMR90~1\AppData\Local\Temp\ccbtsgth.s:28934  .debug_str:000000000002460b .LASF5103
C:\Users\CYMR90~1\AppData\Local\Temp\ccbtsgth.s:30314  .debug_str:0000000000029f60 .LASF5104
C:\Users\CYMR90~1\AppData\Local\Temp\ccbtsgth.s:23513  .debug_str:000000000000ee0b .LASF5105
C:\Users\CYMR90~1\AppData\Local\Temp\ccbtsgth.s:30002  .debug_str:0000000000028c3c .LASF5106
C:\Users\CYMR90~1\AppData\Local\Temp\ccbtsgth.s:22121  .debug_str:000000000000935c .LASF5107
C:\Users\CYMR90~1\AppData\Local\Temp\ccbtsgth.s:30714  .debug_str:000000000002b8cd .LASF5108
C:\Users\CYMR90~1\AppData\Local\Temp\ccbtsgth.s:28178  .debug_str:000000000002187b .LASF5109
C:\Users\CYMR90~1\AppData\Local\Temp\ccbtsgth.s:23645  .debug_str:000000000000f6c3 .LASF5110
C:\Users\CYMR90~1\AppData\Local\Temp\ccbtsgth.s:20883  .debug_str:0000000000004486 .LASF5111
C:\Users\CYMR90~1\AppData\Local\Temp\ccbtsgth.s:26392  .debug_str:000000000001a8a3 .LASF5112
C:\Users\CYMR90~1\AppData\Local\Temp\ccbtsgth.s:29056  .debug_str:0000000000024e22 .LASF5113
C:\Users\CYMR90~1\AppData\Local\Temp\ccbtsgth.s:23587  .debug_str:000000000000f2b7 .LASF5114
C:\Users\CYMR90~1\AppData\Local\Temp\ccbtsgth.s:19915  .debug_str:00000000000006d1 .LASF5115
C:\Users\CYMR90~1\AppData\Local\Temp\ccbtsgth.s:19861  .debug_str:00000000000003cc .LASF5116
C:\Users\CYMR90~1\AppData\Local\Temp\ccbtsgth.s:20207  .debug_str:00000000000019dd .LASF5117
C:\Users\CYMR90~1\AppData\Local\Temp\ccbtsgth.s:28692  .debug_str:0000000000023719 .LASF5118
C:\Users\CYMR90~1\AppData\Local\Temp\ccbtsgth.s:29348  .debug_str:00000000000261f5 .LASF5119
C:\Users\CYMR90~1\AppData\Local\Temp\ccbtsgth.s:24465  .debug_str:0000000000012aa7 .LASF5120
C:\Users\CYMR90~1\AppData\Local\Temp\ccbtsgth.s:26430  .debug_str:000000000001ab04 .LASF5121
C:\Users\CYMR90~1\AppData\Local\Temp\ccbtsgth.s:20481  .debug_str:0000000000002a66 .LASF5122
C:\Users\CYMR90~1\AppData\Local\Temp\ccbtsgth.s:25219  .debug_str:00000000000159e7 .LASF5123
C:\Users\CYMR90~1\AppData\Local\Temp\ccbtsgth.s:27812  .debug_str:0000000000020199 .LASF5124
C:\Users\CYMR90~1\AppData\Local\Temp\ccbtsgth.s:27126  .debug_str:000000000001d7fb .LASF5125
C:\Users\CYMR90~1\AppData\Local\Temp\ccbtsgth.s:21909  .debug_str:000000000000864d .LASF5126
C:\Users\CYMR90~1\AppData\Local\Temp\ccbtsgth.s:28494  .debug_str:0000000000022b6c .LASF5127
C:\Users\CYMR90~1\AppData\Local\Temp\ccbtsgth.s:27796  .debug_str:00000000000200d4 .LASF5128
C:\Users\CYMR90~1\AppData\Local\Temp\ccbtsgth.s:20937  .debug_str:00000000000048bd .LASF5129
C:\Users\CYMR90~1\AppData\Local\Temp\ccbtsgth.s:21365  .debug_str:000000000000626f .LASF5130
C:\Users\CYMR90~1\AppData\Local\Temp\ccbtsgth.s:28450  .debug_str:000000000002288e .LASF5131
C:\Users\CYMR90~1\AppData\Local\Temp\ccbtsgth.s:30194  .debug_str:0000000000029863 .LASF5132
C:\Users\CYMR90~1\AppData\Local\Temp\ccbtsgth.s:26022  .debug_str:0000000000018f85 .LASF5133
C:\Users\CYMR90~1\AppData\Local\Temp\ccbtsgth.s:22819  .debug_str:000000000000c2b0 .LASF5134
C:\Users\CYMR90~1\AppData\Local\Temp\ccbtsgth.s:27514  .debug_str:000000000001efd8 .LASF5135
C:\Users\CYMR90~1\AppData\Local\Temp\ccbtsgth.s:20065  .debug_str:00000000000010b7 .LASF5136
C:\Users\CYMR90~1\AppData\Local\Temp\ccbtsgth.s:27898  .debug_str:0000000000020724 .LASF5137
C:\Users\CYMR90~1\AppData\Local\Temp\ccbtsgth.s:24669  .debug_str:00000000000137a8 .LASF5138
C:\Users\CYMR90~1\AppData\Local\Temp\ccbtsgth.s:30142  .debug_str:000000000002957b .LASF5139
C:\Users\CYMR90~1\AppData\Local\Temp\ccbtsgth.s:23817  .debug_str:0000000000010127 .LASF5140
C:\Users\CYMR90~1\AppData\Local\Temp\ccbtsgth.s:23065  .debug_str:000000000000d28d .LASF5141
C:\Users\CYMR90~1\AppData\Local\Temp\ccbtsgth.s:27524  .debug_str:000000000001f091 .LASF5142
C:\Users\CYMR90~1\AppData\Local\Temp\ccbtsgth.s:30740  .debug_str:000000000002ba6d .LASF5143
C:\Users\CYMR90~1\AppData\Local\Temp\ccbtsgth.s:27390  .debug_str:000000000001e8b5 .LASF5144
C:\Users\CYMR90~1\AppData\Local\Temp\ccbtsgth.s:28618  .debug_str:0000000000023237 .LASF5145
C:\Users\CYMR90~1\AppData\Local\Temp\ccbtsgth.s:22621  .debug_str:000000000000b487 .LASF5146
C:\Users\CYMR90~1\AppData\Local\Temp\ccbtsgth.s:28744  .debug_str:00000000000239fe .LASF5147
C:\Users\CYMR90~1\AppData\Local\Temp\ccbtsgth.s:28356  .debug_str:0000000000022301 .LASF5148
C:\Users\CYMR90~1\AppData\Local\Temp\ccbtsgth.s:26266  .debug_str:0000000000019f2a .LASF5149
C:\Users\CYMR90~1\AppData\Local\Temp\ccbtsgth.s:25794  .debug_str:00000000000180aa .LASF5150
C:\Users\CYMR90~1\AppData\Local\Temp\ccbtsgth.s:28230  .debug_str:0000000000021bbc .LASF5151
C:\Users\CYMR90~1\AppData\Local\Temp\ccbtsgth.s:27828  .debug_str:0000000000020261 .LASF5152
C:\Users\CYMR90~1\AppData\Local\Temp\ccbtsgth.s:21751  .debug_str:0000000000007b42 .LASF5153
C:\Users\CYMR90~1\AppData\Local\Temp\ccbtsgth.s:21193  .debug_str:0000000000005811 .LASF5154
C:\Users\CYMR90~1\AppData\Local\Temp\ccbtsgth.s:21503  .debug_str:0000000000006b08 .LASF5155
C:\Users\CYMR90~1\AppData\Local\Temp\ccbtsgth.s:22955  .debug_str:000000000000cb8b .LASF5156
C:\Users\CYMR90~1\AppData\Local\Temp\ccbtsgth.s:24271  .debug_str:0000000000011e3b .LASF5157
C:\Users\CYMR90~1\AppData\Local\Temp\ccbtsgth.s:22715  .debug_str:000000000000bb79 .LASF5158
C:\Users\CYMR90~1\AppData\Local\Temp\ccbtsgth.s:29736  .debug_str:0000000000027a70 .LASF5159
C:\Users\CYMR90~1\AppData\Local\Temp\ccbtsgth.s:29332  .debug_str:000000000002611b .LASF5160
C:\Users\CYMR90~1\AppData\Local\Temp\ccbtsgth.s:25027  .debug_str:0000000000014e6a .LASF5161
C:\Users\CYMR90~1\AppData\Local\Temp\ccbtsgth.s:27688  .debug_str:000000000001fa42 .LASF5162
C:\Users\CYMR90~1\AppData\Local\Temp\ccbtsgth.s:24575  .debug_str:0000000000013212 .LASF5163
C:\Users\CYMR90~1\AppData\Local\Temp\ccbtsgth.s:30900  .debug_str:000000000002c53c .LASF5164
C:\Users\CYMR90~1\AppData\Local\Temp\ccbtsgth.s:27170  .debug_str:000000000001da73 .LASF5165
C:\Users\CYMR90~1\AppData\Local\Temp\ccbtsgth.s:28868  .debug_str:00000000000241d8 .LASF5166
C:\Users\CYMR90~1\AppData\Local\Temp\ccbtsgth.s:28072  .debug_str:0000000000021189 .LASF5167
C:\Users\CYMR90~1\AppData\Local\Temp\ccbtsgth.s:23031  .debug_str:000000000000d031 .LASF5168
C:\Users\CYMR90~1\AppData\Local\Temp\ccbtsgth.s:30134  .debug_str:00000000000294e9 .LASF5169
C:\Users\CYMR90~1\AppData\Local\Temp\ccbtsgth.s:25686  .debug_str:0000000000017a18 .LASF5170
C:\Users\CYMR90~1\AppData\Local\Temp\ccbtsgth.s:24829  .debug_str:0000000000014160 .LASF5171
C:\Users\CYMR90~1\AppData\Local\Temp\ccbtsgth.s:24857  .debug_str:000000000001437a .LASF5172
C:\Users\CYMR90~1\AppData\Local\Temp\ccbtsgth.s:25035  .debug_str:0000000000014ee8 .LASF5173
C:\Users\CYMR90~1\AppData\Local\Temp\ccbtsgth.s:23095  .debug_str:000000000000d4d6 .LASF5174
C:\Users\CYMR90~1\AppData\Local\Temp\ccbtsgth.s:24699  .debug_str:000000000001397f .LASF5175
C:\Users\CYMR90~1\AppData\Local\Temp\ccbtsgth.s:26998  .debug_str:000000000001cff1 .LASF5176
C:\Users\CYMR90~1\AppData\Local\Temp\ccbtsgth.s:22305  .debug_str:0000000000009f43 .LASF5177
C:\Users\CYMR90~1\AppData\Local\Temp\ccbtsgth.s:29076  .debug_str:0000000000024fc8 .LASF5178
C:\Users\CYMR90~1\AppData\Local\Temp\ccbtsgth.s:27028  .debug_str:000000000001d1cd .LASF5179
C:\Users\CYMR90~1\AppData\Local\Temp\ccbtsgth.s:30982  .debug_str:000000000002ca8c .LASF5180
C:\Users\CYMR90~1\AppData\Local\Temp\ccbtsgth.s:25223  .debug_str:0000000000015a0d .LASF5181
C:\Users\CYMR90~1\AppData\Local\Temp\ccbtsgth.s:22333  .debug_str:000000000000a10b .LASF5182
C:\Users\CYMR90~1\AppData\Local\Temp\ccbtsgth.s:23131  .debug_str:000000000000d6ef .LASF5183
C:\Users\CYMR90~1\AppData\Local\Temp\ccbtsgth.s:27804  .debug_str:000000000002012c .LASF5184
C:\Users\CYMR90~1\AppData\Local\Temp\ccbtsgth.s:29174  .debug_str:000000000002573f .LASF5185
C:\Users\CYMR90~1\AppData\Local\Temp\ccbtsgth.s:21923  .debug_str:0000000000008720 .LASF5186
C:\Users\CYMR90~1\AppData\Local\Temp\ccbtsgth.s:22365  .debug_str:000000000000a32d .LASF5187
C:\Users\CYMR90~1\AppData\Local\Temp\ccbtsgth.s:26482  .debug_str:000000000001ae54 .LASF5188
C:\Users\CYMR90~1\AppData\Local\Temp\ccbtsgth.s:23717  .debug_str:000000000000fad6 .LASF5189
C:\Users\CYMR90~1\AppData\Local\Temp\ccbtsgth.s:25960  .debug_str:0000000000018b1e .LASF5190
C:\Users\CYMR90~1\AppData\Local\Temp\ccbtsgth.s:22901  .debug_str:000000000000c7a3 .LASF5191
C:\Users\CYMR90~1\AppData\Local\Temp\ccbtsgth.s:23033  .debug_str:000000000000d049 .LASF5192
C:\Users\CYMR90~1\AppData\Local\Temp\ccbtsgth.s:24085  .debug_str:000000000001115f .LASF5193
C:\Users\CYMR90~1\AppData\Local\Temp\ccbtsgth.s:27164  .debug_str:000000000001da05 .LASF5194
C:\Users\CYMR90~1\AppData\Local\Temp\ccbtsgth.s:22089  .debug_str:0000000000009194 .LASF5195
C:\Users\CYMR90~1\AppData\Local\Temp\ccbtsgth.s:22157  .debug_str:00000000000095d2 .LASF5196
C:\Users\CYMR90~1\AppData\Local\Temp\ccbtsgth.s:27052  .debug_str:000000000001d33a .LASF5197
C:\Users\CYMR90~1\AppData\Local\Temp\ccbtsgth.s:25616  .debug_str:000000000001756b .LASF5198
C:\Users\CYMR90~1\AppData\Local\Temp\ccbtsgth.s:28372  .debug_str:00000000000223b2 .LASF5199
C:\Users\CYMR90~1\AppData\Local\Temp\ccbtsgth.s:19811  .debug_str:00000000000000a6 .LASF5200
C:\Users\CYMR90~1\AppData\Local\Temp\ccbtsgth.s:27770  .debug_str:000000000001ff58 .LASF5201
C:\Users\CYMR90~1\AppData\Local\Temp\ccbtsgth.s:31028  .debug_str:000000000002cda5 .LASF5202
C:\Users\CYMR90~1\AppData\Local\Temp\ccbtsgth.s:27196  .debug_str:000000000001dc77 .LASF5203
C:\Users\CYMR90~1\AppData\Local\Temp\ccbtsgth.s:21245  .debug_str:0000000000005b43 .LASF5204
C:\Users\CYMR90~1\AppData\Local\Temp\ccbtsgth.s:30614  .debug_str:000000000002b1a8 .LASF5205
C:\Users\CYMR90~1\AppData\Local\Temp\ccbtsgth.s:27996  .debug_str:0000000000020d2c .LASF5206
C:\Users\CYMR90~1\AppData\Local\Temp\ccbtsgth.s:26268  .debug_str:0000000000019f41 .LASF5207
C:\Users\CYMR90~1\AppData\Local\Temp\ccbtsgth.s:19905  .debug_str:0000000000000623 .LASF5208
C:\Users\CYMR90~1\AppData\Local\Temp\ccbtsgth.s:24299  .debug_str:0000000000011fd3 .LASF5209
C:\Users\CYMR90~1\AppData\Local\Temp\ccbtsgth.s:27258  .debug_str:000000000001e059 .LASF5210
C:\Users\CYMR90~1\AppData\Local\Temp\ccbtsgth.s:24269  .debug_str:0000000000011e22 .LASF5211
C:\Users\CYMR90~1\AppData\Local\Temp\ccbtsgth.s:21371  .debug_str:00000000000062d1 .LASF5212
C:\Users\CYMR90~1\AppData\Local\Temp\ccbtsgth.s:27504  .debug_str:000000000001ef28 .LASF5213
C:\Users\CYMR90~1\AppData\Local\Temp\ccbtsgth.s:25630  .debug_str:0000000000017670 .LASF5214
C:\Users\CYMR90~1\AppData\Local\Temp\ccbtsgth.s:20161  .debug_str:0000000000001649 .LASF5215
C:\Users\CYMR90~1\AppData\Local\Temp\ccbtsgth.s:27726  .debug_str:000000000001fc5b .LASF5216
C:\Users\CYMR90~1\AppData\Local\Temp\ccbtsgth.s:20495  .debug_str:0000000000002b84 .LASF5217
C:\Users\CYMR90~1\AppData\Local\Temp\ccbtsgth.s:28638  .debug_str:0000000000023360 .LASF5218
C:\Users\CYMR90~1\AppData\Local\Temp\ccbtsgth.s:20121  .debug_str:00000000000013e6 .LASF5219
C:\Users\CYMR90~1\AppData\Local\Temp\ccbtsgth.s:29490  .debug_str:0000000000026a56 .LASF5220
C:\Users\CYMR90~1\AppData\Local\Temp\ccbtsgth.s:25279  .debug_str:0000000000015dfe .LASF5221
C:\Users\CYMR90~1\AppData\Local\Temp\ccbtsgth.s:20709  .debug_str:00000000000038f8 .LASF5222
C:\Users\CYMR90~1\AppData\Local\Temp\ccbtsgth.s:22585  .debug_str:000000000000b2b2 .LASF5223
C:\Users\CYMR90~1\AppData\Local\Temp\ccbtsgth.s:28792  .debug_str:0000000000023c69 .LASF5224
C:\Users\CYMR90~1\AppData\Local\Temp\ccbtsgth.s:21273  .debug_str:0000000000005cf6 .LASF5225
C:\Users\CYMR90~1\AppData\Local\Temp\ccbtsgth.s:29636  .debug_str:00000000000273d3 .LASF5226
C:\Users\CYMR90~1\AppData\Local\Temp\ccbtsgth.s:21851  .debug_str:00000000000082b6 .LASF5227
C:\Users\CYMR90~1\AppData\Local\Temp\ccbtsgth.s:30612  .debug_str:000000000002b18e .LASF5228
C:\Users\CYMR90~1\AppData\Local\Temp\ccbtsgth.s:27800  .debug_str:00000000000200ff .LASF5229
C:\Users\CYMR90~1\AppData\Local\Temp\ccbtsgth.s:22315  .debug_str:0000000000009fcf .LASF5230
C:\Users\CYMR90~1\AppData\Local\Temp\ccbtsgth.s:20045  .debug_str:0000000000000fb4 .LASF5231
C:\Users\CYMR90~1\AppData\Local\Temp\ccbtsgth.s:29140  .debug_str:0000000000025470 .LASF5232
C:\Users\CYMR90~1\AppData\Local\Temp\ccbtsgth.s:21219  .debug_str:00000000000059ac .LASF5233
C:\Users\CYMR90~1\AppData\Local\Temp\ccbtsgth.s:30580  .debug_str:000000000002af49 .LASF5234
C:\Users\CYMR90~1\AppData\Local\Temp\ccbtsgth.s:25347  .debug_str:00000000000161eb .LASF5235
C:\Users\CYMR90~1\AppData\Local\Temp\ccbtsgth.s:25141  .debug_str:00000000000154b0 .LASF5236
C:\Users\CYMR90~1\AppData\Local\Temp\ccbtsgth.s:26180  .debug_str:0000000000019a27 .LASF5237
C:\Users\CYMR90~1\AppData\Local\Temp\ccbtsgth.s:22643  .debug_str:000000000000b67d .LASF5238
C:\Users\CYMR90~1\AppData\Local\Temp\ccbtsgth.s:28962  .debug_str:0000000000024852 .LASF5239
C:\Users\CYMR90~1\AppData\Local\Temp\ccbtsgth.s:30556  .debug_str:000000000002add6 .LASF5240
C:\Users\CYMR90~1\AppData\Local\Temp\ccbtsgth.s:20757  .debug_str:0000000000003bfe .LASF5241
C:\Users\CYMR90~1\AppData\Local\Temp\ccbtsgth.s:27424  .debug_str:000000000001ea83 .LASF5242
C:\Users\CYMR90~1\AppData\Local\Temp\ccbtsgth.s:26856  .debug_str:000000000001c532 .LASF5243
C:\Users\CYMR90~1\AppData\Local\Temp\ccbtsgth.s:24491  .debug_str:0000000000012c35 .LASF5244
C:\Users\CYMR90~1\AppData\Local\Temp\ccbtsgth.s:30306  .debug_str:0000000000029ef3 .LASF5245
C:\Users\CYMR90~1\AppData\Local\Temp\ccbtsgth.s:28204  .debug_str:0000000000021a0c .LASF5246
C:\Users\CYMR90~1\AppData\Local\Temp\ccbtsgth.s:22179  .debug_str:0000000000009706 .LASF5247
C:\Users\CYMR90~1\AppData\Local\Temp\ccbtsgth.s:30966  .debug_str:000000000002c96f .LASF5248
C:\Users\CYMR90~1\AppData\Local\Temp\ccbtsgth.s:30010  .debug_str:0000000000028c9d .LASF5249
C:\Users\CYMR90~1\AppData\Local\Temp\ccbtsgth.s:20591  .debug_str:0000000000003159 .LASF5250
C:\Users\CYMR90~1\AppData\Local\Temp\ccbtsgth.s:28156  .debug_str:000000000002173e .LASF5251
C:\Users\CYMR90~1\AppData\Local\Temp\ccbtsgth.s:30930  .debug_str:000000000002c6f0 .LASF5252
C:\Users\CYMR90~1\AppData\Local\Temp\ccbtsgth.s:27914  .debug_str:0000000000020802 .LASF5253
C:\Users\CYMR90~1\AppData\Local\Temp\ccbtsgth.s:30266  .debug_str:0000000000029ca6 .LASF5254
C:\Users\CYMR90~1\AppData\Local\Temp\ccbtsgth.s:25217  .debug_str:00000000000159c7 .LASF5255
C:\Users\CYMR90~1\AppData\Local\Temp\ccbtsgth.s:27334  .debug_str:000000000001e507 .LASF5256
C:\Users\CYMR90~1\AppData\Local\Temp\ccbtsgth.s:23617  .debug_str:000000000000f462 .LASF5257
C:\Users\CYMR90~1\AppData\Local\Temp\ccbtsgth.s:23607  .debug_str:000000000000f3d5 .LASF5258
C:\Users\CYMR90~1\AppData\Local\Temp\ccbtsgth.s:27706  .debug_str:000000000001fb2f .LASF5259
C:\Users\CYMR90~1\AppData\Local\Temp\ccbtsgth.s:29386  .debug_str:0000000000026448 .LASF5260
C:\Users\CYMR90~1\AppData\Local\Temp\ccbtsgth.s:20191  .debug_str:00000000000018ea .LASF5261
C:\Users\CYMR90~1\AppData\Local\Temp\ccbtsgth.s:26360  .debug_str:000000000001a618 .LASF5262
C:\Users\CYMR90~1\AppData\Local\Temp\ccbtsgth.s:21029  .debug_str:0000000000004e3b .LASF5263
C:\Users\CYMR90~1\AppData\Local\Temp\ccbtsgth.s:25672  .debug_str:0000000000017940 .LASF5264
C:\Users\CYMR90~1\AppData\Local\Temp\ccbtsgth.s:20299  .debug_str:0000000000001f50 .LASF5265
C:\Users\CYMR90~1\AppData\Local\Temp\ccbtsgth.s:25213  .debug_str:0000000000015931 .LASF5266
C:\Users\CYMR90~1\AppData\Local\Temp\ccbtsgth.s:23371  .debug_str:000000000000e514 .LASF5267
C:\Users\CYMR90~1\AppData\Local\Temp\ccbtsgth.s:24087  .debug_str:0000000000011181 .LASF5268
C:\Users\CYMR90~1\AppData\Local\Temp\ccbtsgth.s:22517  .debug_str:000000000000ada3 .LASF5269
C:\Users\CYMR90~1\AppData\Local\Temp\ccbtsgth.s:20803  .debug_str:0000000000003f05 .LASF5270
C:\Users\CYMR90~1\AppData\Local\Temp\ccbtsgth.s:30668  .debug_str:000000000002b575 .LASF5271
C:\Users\CYMR90~1\AppData\Local\Temp\ccbtsgth.s:22341  .debug_str:000000000000a197 .LASF5272
C:\Users\CYMR90~1\AppData\Local\Temp\ccbtsgth.s:31018  .debug_str:000000000002cd05 .LASF5273
C:\Users\CYMR90~1\AppData\Local\Temp\ccbtsgth.s:28632  .debug_str:000000000002330a .LASF5274
C:\Users\CYMR90~1\AppData\Local\Temp\ccbtsgth.s:30706  .debug_str:000000000002b839 .LASF5275
C:\Users\CYMR90~1\AppData\Local\Temp\ccbtsgth.s:20103  .debug_str:00000000000012ea .LASF5276
C:\Users\CYMR90~1\AppData\Local\Temp\ccbtsgth.s:29300  .debug_str:0000000000025f1a .LASF5277
C:\Users\CYMR90~1\AppData\Local\Temp\ccbtsgth.s:20581  .debug_str:00000000000030cc .LASF5278
C:\Users\CYMR90~1\AppData\Local\Temp\ccbtsgth.s:27198  .debug_str:000000000001dc99 .LASF5279
C:\Users\CYMR90~1\AppData\Local\Temp\ccbtsgth.s:30502  .debug_str:000000000002aa7a .LASF5280
C:\Users\CYMR90~1\AppData\Local\Temp\ccbtsgth.s:20273  .debug_str:0000000000001de0 .LASF5281
C:\Users\CYMR90~1\AppData\Local\Temp\ccbtsgth.s:27672  .debug_str:000000000001f92d .LASF5282
C:\Users\CYMR90~1\AppData\Local\Temp\ccbtsgth.s:23249  .debug_str:000000000000de05 .LASF5283
C:\Users\CYMR90~1\AppData\Local\Temp\ccbtsgth.s:24771  .debug_str:0000000000013df1 .LASF5284
C:\Users\CYMR90~1\AppData\Local\Temp\ccbtsgth.s:29872  .debug_str:0000000000028412 .LASF5285
C:\Users\CYMR90~1\AppData\Local\Temp\ccbtsgth.s:30824  .debug_str:000000000002c013 .LASF5286
C:\Users\CYMR90~1\AppData\Local\Temp\ccbtsgth.s:20537  .debug_str:0000000000002dea .LASF5287
C:\Users\CYMR90~1\AppData\Local\Temp\ccbtsgth.s:30858  .debug_str:000000000002c260 .LASF5288
C:\Users\CYMR90~1\AppData\Local\Temp\ccbtsgth.s:20149  .debug_str:0000000000001593 .LASF5289
C:\Users\CYMR90~1\AppData\Local\Temp\ccbtsgth.s:24035  .debug_str:0000000000010e43 .LASF5290
C:\Users\CYMR90~1\AppData\Local\Temp\ccbtsgth.s:24091  .debug_str:00000000000111a6 .LASF5291
C:\Users\CYMR90~1\AppData\Local\Temp\ccbtsgth.s:25572  .debug_str:0000000000017271 .LASF5292
C:\Users\CYMR90~1\AppData\Local\Temp\ccbtsgth.s:27004  .debug_str:000000000001d04c .LASF5293
C:\Users\CYMR90~1\AppData\Local\Temp\ccbtsgth.s:22361  .debug_str:000000000000a2d8 .LASF5294
C:\Users\CYMR90~1\AppData\Local\Temp\ccbtsgth.s:25249  .debug_str:0000000000015c02 .LASF5295
C:\Users\CYMR90~1\AppData\Local\Temp\ccbtsgth.s:20025  .debug_str:0000000000000dbb .LASF5296
C:\Users\CYMR90~1\AppData\Local\Temp\ccbtsgth.s:23159  .debug_str:000000000000d86d .LASF5297
C:\Users\CYMR90~1\AppData\Local\Temp\ccbtsgth.s:30190  .debug_str:000000000002980d .LASF5298
C:\Users\CYMR90~1\AppData\Local\Temp\ccbtsgth.s:27928  .debug_str:0000000000020905 .LASF5299
C:\Users\CYMR90~1\AppData\Local\Temp\ccbtsgth.s:27010  .debug_str:000000000001d0ad .LASF5300
C:\Users\CYMR90~1\AppData\Local\Temp\ccbtsgth.s:21709  .debug_str:000000000000785f .LASF5301
C:\Users\CYMR90~1\AppData\Local\Temp\ccbtsgth.s:28436  .debug_str:00000000000227a7 .LASF5302
C:\Users\CYMR90~1\AppData\Local\Temp\ccbtsgth.s:26522  .debug_str:000000000001b125 .LASF5303
C:\Users\CYMR90~1\AppData\Local\Temp\ccbtsgth.s:30574  .debug_str:000000000002aee9 .LASF5304
C:\Users\CYMR90~1\AppData\Local\Temp\ccbtsgth.s:21047  .debug_str:0000000000004f40 .LASF5305
C:\Users\CYMR90~1\AppData\Local\Temp\ccbtsgth.s:20225  .debug_str:0000000000001aef .LASF5306
C:\Users\CYMR90~1\AppData\Local\Temp\ccbtsgth.s:19911  .debug_str:000000000000069e .LASF5307
C:\Users\CYMR90~1\AppData\Local\Temp\ccbtsgth.s:26032  .debug_str:00000000000190e1 .LASF5308
C:\Users\CYMR90~1\AppData\Local\Temp\ccbtsgth.s:29068  .debug_str:0000000000024ec6 .LASF5309
C:\Users\CYMR90~1\AppData\Local\Temp\ccbtsgth.s:23027  .debug_str:000000000000cffa .LASF5310
C:\Users\CYMR90~1\AppData\Local\Temp\ccbtsgth.s:29712  .debug_str:00000000000278a7 .LASF5311
C:\Users\CYMR90~1\AppData\Local\Temp\ccbtsgth.s:30860  .debug_str:000000000002c280 .LASF5312
C:\Users\CYMR90~1\AppData\Local\Temp\ccbtsgth.s:24101  .debug_str:0000000000011283 .LASF5313
C:\Users\CYMR90~1\AppData\Local\Temp\ccbtsgth.s:30164  .debug_str:00000000000296a9 .LASF5314
C:\Users\CYMR90~1\AppData\Local\Temp\ccbtsgth.s:25770  .debug_str:0000000000017f1b .LASF5315
C:\Users\CYMR90~1\AppData\Local\Temp\ccbtsgth.s:21403  .debug_str:00000000000064b7 .LASF5316
C:\Users\CYMR90~1\AppData\Local\Temp\ccbtsgth.s:25660  .debug_str:000000000001786c .LASF5317
C:\Users\CYMR90~1\AppData\Local\Temp\ccbtsgth.s:28528  .debug_str:0000000000022d42 .LASF5318
C:\Users\CYMR90~1\AppData\Local\Temp\ccbtsgth.s:21817  .debug_str:00000000000080a7 .LASF5319
C:\Users\CYMR90~1\AppData\Local\Temp\ccbtsgth.s:25994  .debug_str:0000000000018df9 .LASF5320
C:\Users\CYMR90~1\AppData\Local\Temp\ccbtsgth.s:28218  .debug_str:0000000000021af3 .LASF5321
C:\Users\CYMR90~1\AppData\Local\Temp\ccbtsgth.s:26140  .debug_str:0000000000019746 .LASF5322
C:\Users\CYMR90~1\AppData\Local\Temp\ccbtsgth.s:23269  .debug_str:000000000000df1f .LASF5323
C:\Users\CYMR90~1\AppData\Local\Temp\ccbtsgth.s:26490  .debug_str:000000000001af19 .LASF5324
C:\Users\CYMR90~1\AppData\Local\Temp\ccbtsgth.s:29666  .debug_str:000000000002756f .LASF5325
C:\Users\CYMR90~1\AppData\Local\Temp\ccbtsgth.s:24623  .debug_str:00000000000134c9 .LASF5326
C:\Users\CYMR90~1\AppData\Local\Temp\ccbtsgth.s:24749  .debug_str:0000000000013c5e .LASF5327
C:\Users\CYMR90~1\AppData\Local\Temp\ccbtsgth.s:21243  .debug_str:0000000000005b2b .LASF5328
C:\Users\CYMR90~1\AppData\Local\Temp\ccbtsgth.s:21663  .debug_str:000000000000756c .LASF5329
C:\Users\CYMR90~1\AppData\Local\Temp\ccbtsgth.s:25990  .debug_str:0000000000018db5 .LASF5330
C:\Users\CYMR90~1\AppData\Local\Temp\ccbtsgth.s:25065  .debug_str:00000000000150aa .LASF5331
C:\Users\CYMR90~1\AppData\Local\Temp\ccbtsgth.s:27574  .debug_str:000000000001f380 .LASF5332
C:\Users\CYMR90~1\AppData\Local\Temp\ccbtsgth.s:22167  .debug_str:0000000000009663 .LASF5333
C:\Users\CYMR90~1\AppData\Local\Temp\ccbtsgth.s:22541  .debug_str:000000000000b00c .LASF5334
C:\Users\CYMR90~1\AppData\Local\Temp\ccbtsgth.s:29802  .debug_str:0000000000027ede .LASF5335
C:\Users\CYMR90~1\AppData\Local\Temp\ccbtsgth.s:28466  .debug_str:000000000002295b .LASF5336
C:\Users\CYMR90~1\AppData\Local\Temp\ccbtsgth.s:25708  .debug_str:0000000000017b63 .LASF5337
C:\Users\CYMR90~1\AppData\Local\Temp\ccbtsgth.s:26136  .debug_str:0000000000019706 .LASF5338
C:\Users\CYMR90~1\AppData\Local\Temp\ccbtsgth.s:22479  .debug_str:000000000000ab28 .LASF5339
C:\Users\CYMR90~1\AppData\Local\Temp\ccbtsgth.s:27596  .debug_str:000000000001f4c4 .LASF5340
C:\Users\CYMR90~1\AppData\Local\Temp\ccbtsgth.s:21163  .debug_str:000000000000563c .LASF5341
C:\Users\CYMR90~1\AppData\Local\Temp\ccbtsgth.s:26694  .debug_str:000000000001bb88 .LASF5342
C:\Users\CYMR90~1\AppData\Local\Temp\ccbtsgth.s:24879  .debug_str:00000000000144cc .LASF5343
C:\Users\CYMR90~1\AppData\Local\Temp\ccbtsgth.s:22641  .debug_str:000000000000b660 .LASF5344
C:\Users\CYMR90~1\AppData\Local\Temp\ccbtsgth.s:27830  .debug_str:0000000000020278 .LASF5345
C:\Users\CYMR90~1\AppData\Local\Temp\ccbtsgth.s:21771  .debug_str:0000000000007d02 .LASF5346
C:\Users\CYMR90~1\AppData\Local\Temp\ccbtsgth.s:23319  .debug_str:000000000000e214 .LASF5347
C:\Users\CYMR90~1\AppData\Local\Temp\ccbtsgth.s:25075  .debug_str:0000000000015114 .LASF5348
C:\Users\CYMR90~1\AppData\Local\Temp\ccbtsgth.s:28722  .debug_str:00000000000238ca .LASF5349
C:\Users\CYMR90~1\AppData\Local\Temp\ccbtsgth.s:26012  .debug_str:0000000000018eca .LASF5350
C:\Users\CYMR90~1\AppData\Local\Temp\ccbtsgth.s:30912  .debug_str:000000000002c5e5 .LASF5351
C:\Users\CYMR90~1\AppData\Local\Temp\ccbtsgth.s:23667  .debug_str:000000000000f7dd .LASF5352
C:\Users\CYMR90~1\AppData\Local\Temp\ccbtsgth.s:23037  .debug_str:000000000000d098 .LASF5353
C:\Users\CYMR90~1\AppData\Local\Temp\ccbtsgth.s:21039  .debug_str:0000000000004ee3 .LASF5354
C:\Users\CYMR90~1\AppData\Local\Temp\ccbtsgth.s:30884  .debug_str:000000000002c458 .LASF5355
C:\Users\CYMR90~1\AppData\Local\Temp\ccbtsgth.s:30890  .debug_str:000000000002c4a0 .LASF5356
C:\Users\CYMR90~1\AppData\Local\Temp\ccbtsgth.s:26452  .debug_str:000000000001ac38 .LASF5357
C:\Users\CYMR90~1\AppData\Local\Temp\ccbtsgth.s:30022  .debug_str:0000000000028d65 .LASF5358
C:\Users\CYMR90~1\AppData\Local\Temp\ccbtsgth.s:30802  .debug_str:000000000002bed9 .LASF5359
C:\Users\CYMR90~1\AppData\Local\Temp\ccbtsgth.s:26450  .debug_str:000000000001ac1d .LASF5360
C:\Users\CYMR90~1\AppData\Local\Temp\ccbtsgth.s:23165  .debug_str:000000000000d8b7 .LASF5361
C:\Users\CYMR90~1\AppData\Local\Temp\ccbtsgth.s:25490  .debug_str:0000000000016d81 .LASF5362
C:\Users\CYMR90~1\AppData\Local\Temp\ccbtsgth.s:23305  .debug_str:000000000000e12a .LASF5363
C:\Users\CYMR90~1\AppData\Local\Temp\ccbtsgth.s:24543  .debug_str:0000000000012faa .LASF5364
C:\Users\CYMR90~1\AppData\Local\Temp\ccbtsgth.s:30144  .debug_str:0000000000029593 .LASF5365
C:\Users\CYMR90~1\AppData\Local\Temp\ccbtsgth.s:30760  .debug_str:000000000002bbad .LASF5366
C:\Users\CYMR90~1\AppData\Local\Temp\ccbtsgth.s:22231  .debug_str:0000000000009aa7 .LASF5367
C:\Users\CYMR90~1\AppData\Local\Temp\ccbtsgth.s:30784  .debug_str:000000000002bd38 .LASF5368
C:\Users\CYMR90~1\AppData\Local\Temp\ccbtsgth.s:26402  .debug_str:000000000001a930 .LASF5369
C:\Users\CYMR90~1\AppData\Local\Temp\ccbtsgth.s:20347  .debug_str:00000000000021f3 .LASF5370
C:\Users\CYMR90~1\AppData\Local\Temp\ccbtsgth.s:23979  .debug_str:0000000000010b5b .LASF5371
C:\Users\CYMR90~1\AppData\Local\Temp\ccbtsgth.s:20703  .debug_str:000000000000388b .LASF5372
C:\Users\CYMR90~1\AppData\Local\Temp\ccbtsgth.s:21461  .debug_str:000000000000687d .LASF5373
C:\Users\CYMR90~1\AppData\Local\Temp\ccbtsgth.s:22243  .debug_str:0000000000009b7e .LASF5374
C:\Users\CYMR90~1\AppData\Local\Temp\ccbtsgth.s:25407  .debug_str:00000000000165b1 .LASF5375
C:\Users\CYMR90~1\AppData\Local\Temp\ccbtsgth.s:27408  .debug_str:000000000001e9b1 .LASF5376
C:\Users\CYMR90~1\AppData\Local\Temp\ccbtsgth.s:20813  .debug_str:0000000000003f78 .LASF5377
C:\Users\CYMR90~1\AppData\Local\Temp\ccbtsgth.s:25516  .debug_str:0000000000016f0a .LASF5378
C:\Users\CYMR90~1\AppData\Local\Temp\ccbtsgth.s:24651  .debug_str:0000000000013681 .LASF5379
C:\Users\CYMR90~1\AppData\Local\Temp\ccbtsgth.s:23631  .debug_str:000000000000f531 .LASF5380
C:\Users\CYMR90~1\AppData\Local\Temp\ccbtsgth.s:28410  .debug_str:000000000002263b .LASF5381
C:\Users\CYMR90~1\AppData\Local\Temp\ccbtsgth.s:21695  .debug_str:0000000000007775 .LASF5382
C:\Users\CYMR90~1\AppData\Local\Temp\ccbtsgth.s:24877  .debug_str:00000000000144b5 .LASF5383
C:\Users\CYMR90~1\AppData\Local\Temp\ccbtsgth.s:28012  .debug_str:0000000000020e2e .LASF5384
C:\Users\CYMR90~1\AppData\Local\Temp\ccbtsgth.s:25393  .debug_str:0000000000016501 .LASF5385
C:\Users\CYMR90~1\AppData\Local\Temp\ccbtsgth.s:23435  .debug_str:000000000000e951 .LASF5386
C:\Users\CYMR90~1\AppData\Local\Temp\ccbtsgth.s:21599  .debug_str:0000000000007190 .LASF5387
C:\Users\CYMR90~1\AppData\Local\Temp\ccbtsgth.s:26906  .debug_str:000000000001c913 .LASF5388
C:\Users\CYMR90~1\AppData\Local\Temp\ccbtsgth.s:29662  .debug_str:0000000000027545 .LASF5389
C:\Users\CYMR90~1\AppData\Local\Temp\ccbtsgth.s:26836  .debug_str:000000000001c41f .LASF5390
C:\Users\CYMR90~1\AppData\Local\Temp\ccbtsgth.s:27876  .debug_str:00000000000205ba .LASF5391
C:\Users\CYMR90~1\AppData\Local\Temp\ccbtsgth.s:21119  .debug_str:0000000000005396 .LASF5392
C:\Users\CYMR90~1\AppData\Local\Temp\ccbtsgth.s:29924  .debug_str:00000000000287aa .LASF5393
C:\Users\CYMR90~1\AppData\Local\Temp\ccbtsgth.s:25568  .debug_str:0000000000017232 .LASF5394
C:\Users\CYMR90~1\AppData\Local\Temp\ccbtsgth.s:21391  .debug_str:000000000000640c .LASF5395
C:\Users\CYMR90~1\AppData\Local\Temp\ccbtsgth.s:26116  .debug_str:00000000000195ab .LASF5396
C:\Users\CYMR90~1\AppData\Local\Temp\ccbtsgth.s:24601  .debug_str:0000000000013390 .LASF5397
C:\Users\CYMR90~1\AppData\Local\Temp\ccbtsgth.s:27822  .debug_str:0000000000020215 .LASF5398
C:\Users\CYMR90~1\AppData\Local\Temp\ccbtsgth.s:31066  .debug_str:000000000002cfcf .LASF5399
C:\Users\CYMR90~1\AppData\Local\Temp\ccbtsgth.s:26784  .debug_str:000000000001c14b .LASF5400
C:\Users\CYMR90~1\AppData\Local\Temp\ccbtsgth.s:20341  .debug_str:0000000000002197 .LASF5401
C:\Users\CYMR90~1\AppData\Local\Temp\ccbtsgth.s:27206  .debug_str:000000000001dd11 .LASF5402
C:\Users\CYMR90~1\AppData\Local\Temp\ccbtsgth.s:27544  .debug_str:000000000001f1a9 .LASF5403
C:\Users\CYMR90~1\AppData\Local\Temp\ccbtsgth.s:24371  .debug_str:0000000000012480 .LASF5404
C:\Users\CYMR90~1\AppData\Local\Temp\ccbtsgth.s:23201  .debug_str:000000000000dafb .LASF5405
C:\Users\CYMR90~1\AppData\Local\Temp\ccbtsgth.s:30836  .debug_str:000000000002c10e .LASF5406
C:\Users\CYMR90~1\AppData\Local\Temp\ccbtsgth.s:28306  .debug_str:000000000002204a .LASF5407
C:\Users\CYMR90~1\AppData\Local\Temp\ccbtsgth.s:30442  .debug_str:000000000002a71a .LASF5408
C:\Users\CYMR90~1\AppData\Local\Temp\ccbtsgth.s:20735  .debug_str:0000000000003a8e .LASF5409
C:\Users\CYMR90~1\AppData\Local\Temp\ccbtsgth.s:25433  .debug_str:00000000000167a8 .LASF5410
C:\Users\CYMR90~1\AppData\Local\Temp\ccbtsgth.s:24611  .debug_str:000000000001343e .LASF5411
C:\Users\CYMR90~1\AppData\Local\Temp\ccbtsgth.s:29542  .debug_str:0000000000026db8 .LASF5412
C:\Users\CYMR90~1\AppData\Local\Temp\ccbtsgth.s:25397  .debug_str:000000000001652c .LASF5413
C:\Users\CYMR90~1\AppData\Local\Temp\ccbtsgth.s:27200  .debug_str:000000000001dcb0 .LASF5414
C:\Users\CYMR90~1\AppData\Local\Temp\ccbtsgth.s:23529  .debug_str:000000000000ef02 .LASF5415
C:\Users\CYMR90~1\AppData\Local\Temp\ccbtsgth.s:28196  .debug_str:000000000002196f .LASF5416
C:\Users\CYMR90~1\AppData\Local\Temp\ccbtsgth.s:24661  .debug_str:0000000000013729 .LASF5417
C:\Users\CYMR90~1\AppData\Local\Temp\ccbtsgth.s:20263  .debug_str:0000000000001d40 .LASF5418
C:\Users\CYMR90~1\AppData\Local\Temp\ccbtsgth.s:20723  .debug_str:00000000000039ed .LASF5419
C:\Users\CYMR90~1\AppData\Local\Temp\ccbtsgth.s:19891  .debug_str:0000000000000568 .LASF5420
C:\Users\CYMR90~1\AppData\Local\Temp\ccbtsgth.s:23061  .debug_str:000000000000d25b .LASF5421
C:\Users\CYMR90~1\AppData\Local\Temp\ccbtsgth.s:27730  .debug_str:000000000001fc92 .LASF5422
C:\Users\CYMR90~1\AppData\Local\Temp\ccbtsgth.s:26532  .debug_str:000000000001b1db .LASF5423
C:\Users\CYMR90~1\AppData\Local\Temp\ccbtsgth.s:27352  .debug_str:000000000001e5f9 .LASF5424
C:\Users\CYMR90~1\AppData\Local\Temp\ccbtsgth.s:25025  .debug_str:0000000000014e54 .LASF5425
C:\Users\CYMR90~1\AppData\Local\Temp\ccbtsgth.s:25449  .debug_str:000000000001694d .LASF5426
C:\Users\CYMR90~1\AppData\Local\Temp\ccbtsgth.s:22083  .debug_str:0000000000009135 .LASF5427
C:\Users\CYMR90~1\AppData\Local\Temp\ccbtsgth.s:30436  .debug_str:000000000002a6cc .LASF5428
C:\Users\CYMR90~1\AppData\Local\Temp\ccbtsgth.s:27994  .debug_str:0000000000020d17 .LASF5429
C:\Users\CYMR90~1\AppData\Local\Temp\ccbtsgth.s:19963  .debug_str:00000000000009b6 .LASF5430
C:\Users\CYMR90~1\AppData\Local\Temp\ccbtsgth.s:29604  .debug_str:0000000000027226 .LASF5431
C:\Users\CYMR90~1\AppData\Local\Temp\ccbtsgth.s:29896  .debug_str:00000000000285dd .LASF5432
C:\Users\CYMR90~1\AppData\Local\Temp\ccbtsgth.s:29244  .debug_str:0000000000025b7b .LASF5433
C:\Users\CYMR90~1\AppData\Local\Temp\ccbtsgth.s:20661  .debug_str:00000000000035d4 .LASF5434
C:\Users\CYMR90~1\AppData\Local\Temp\ccbtsgth.s:27616  .debug_str:000000000001f5da .LASF5435
C:\Users\CYMR90~1\AppData\Local\Temp\ccbtsgth.s:20051  .debug_str:0000000000001000 .LASF5436
C:\Users\CYMR90~1\AppData\Local\Temp\ccbtsgth.s:23255  .debug_str:000000000000de68 .LASF5437
C:\Users\CYMR90~1\AppData\Local\Temp\ccbtsgth.s:21795  .debug_str:0000000000007ea6 .LASF5438
C:\Users\CYMR90~1\AppData\Local\Temp\ccbtsgth.s:29230  .debug_str:0000000000025ac3 .LASF5439
C:\Users\CYMR90~1\AppData\Local\Temp\ccbtsgth.s:25488  .debug_str:0000000000016d6a .LASF5440
C:\Users\CYMR90~1\AppData\Local\Temp\ccbtsgth.s:28824  .debug_str:0000000000023e31 .LASF5441
C:\Users\CYMR90~1\AppData\Local\Temp\ccbtsgth.s:23285  .debug_str:000000000000e005 .LASF5442
C:\Users\CYMR90~1\AppData\Local\Temp\ccbtsgth.s:29166  .debug_str:000000000002565b .LASF5443
C:\Users\CYMR90~1\AppData\Local\Temp\ccbtsgth.s:21819  .debug_str:00000000000080bd .LASF5444
C:\Users\CYMR90~1\AppData\Local\Temp\ccbtsgth.s:24033  .debug_str:0000000000010e2d .LASF5445
C:\Users\CYMR90~1\AppData\Local\Temp\ccbtsgth.s:23725  .debug_str:000000000000fb6b .LASF5446
C:\Users\CYMR90~1\AppData\Local\Temp\ccbtsgth.s:31056  .debug_str:000000000002cf3e .LASF5447
C:\Users\CYMR90~1\AppData\Local\Temp\ccbtsgth.s:21899  .debug_str:00000000000085ae .LASF5448
C:\Users\CYMR90~1\AppData\Local\Temp\ccbtsgth.s:22863  .debug_str:000000000000c52d .LASF5449
C:\Users\CYMR90~1\AppData\Local\Temp\ccbtsgth.s:30362  .debug_str:000000000002a20c .LASF5450
C:\Users\CYMR90~1\AppData\Local\Temp\ccbtsgth.s:21835  .debug_str:00000000000081cd .LASF5451
C:\Users\CYMR90~1\AppData\Local\Temp\ccbtsgth.s:21361  .debug_str:000000000000622f .LASF5452
C:\Users\CYMR90~1\AppData\Local\Temp\ccbtsgth.s:25530  .debug_str:0000000000016fe5 .LASF5453
C:\Users\CYMR90~1\AppData\Local\Temp\ccbtsgth.s:30962  .debug_str:000000000002c924 .LASF5454
C:\Users\CYMR90~1\AppData\Local\Temp\ccbtsgth.s:21071  .debug_str:00000000000050a8 .LASF5455
C:\Users\CYMR90~1\AppData\Local\Temp\ccbtsgth.s:27886  .debug_str:0000000000020641 .LASF5456
C:\Users\CYMR90~1\AppData\Local\Temp\ccbtsgth.s:28918  .debug_str:0000000000024510 .LASF5457
C:\Users\CYMR90~1\AppData\Local\Temp\ccbtsgth.s:23463  .debug_str:000000000000eb41 .LASF5458
C:\Users\CYMR90~1\AppData\Local\Temp\ccbtsgth.s:22533  .debug_str:000000000000aed8 .LASF5459
C:\Users\CYMR90~1\AppData\Local\Temp\ccbtsgth.s:28086  .debug_str:00000000000212fb .LASF5460
C:\Users\CYMR90~1\AppData\Local\Temp\ccbtsgth.s:22899  .debug_str:000000000000c785 .LASF5461
C:\Users\CYMR90~1\AppData\Local\Temp\ccbtsgth.s:26364  .debug_str:000000000001a67a .LASF5462
C:\Users\CYMR90~1\AppData\Local\Temp\ccbtsgth.s:25285  .debug_str:0000000000015e78 .LASF5463
C:\Users\CYMR90~1\AppData\Local\Temp\ccbtsgth.s:20421  .debug_str:0000000000002668 .LASF5464
C:\Users\CYMR90~1\AppData\Local\Temp\ccbtsgth.s:27474  .debug_str:000000000001ed53 .LASF5465
C:\Users\CYMR90~1\AppData\Local\Temp\ccbtsgth.s:26428  .debug_str:000000000001aaf1 .LASF5466
C:\Users\CYMR90~1\AppData\Local\Temp\ccbtsgth.s:25910  .debug_str:00000000000187ea .LASF5467
C:\Users\CYMR90~1\AppData\Local\Temp\ccbtsgth.s:21061  .debug_str:000000000000501e .LASF5468
C:\Users\CYMR90~1\AppData\Local\Temp\ccbtsgth.s:28038  .debug_str:0000000000020f85 .LASF5469
C:\Users\CYMR90~1\AppData\Local\Temp\ccbtsgth.s:25169  .debug_str:000000000001567e .LASF5470
C:\Users\CYMR90~1\AppData\Local\Temp\ccbtsgth.s:24767  .debug_str:0000000000013dba .LASF5471
C:\Users\CYMR90~1\AppData\Local\Temp\ccbtsgth.s:20143  .debug_str:000000000000155d .LASF5472
C:\Users\CYMR90~1\AppData\Local\Temp\ccbtsgth.s:30568  .debug_str:000000000002ae87 .LASF5473
C:\Users\CYMR90~1\AppData\Local\Temp\ccbtsgth.s:27740  .debug_str:000000000001fd4b .LASF5474
C:\Users\CYMR90~1\AppData\Local\Temp\ccbtsgth.s:19829  .debug_str:00000000000001c8 .LASF5475
C:\Users\CYMR90~1\AppData\Local\Temp\ccbtsgth.s:24333  .debug_str:0000000000012201 .LASF5476
C:\Users\CYMR90~1\AppData\Local\Temp\ccbtsgth.s:27128  .debug_str:000000000001d814 .LASF5477
C:\Users\CYMR90~1\AppData\Local\Temp\ccbtsgth.s:25894  .debug_str:00000000000186db .LASF5478
C:\Users\CYMR90~1\AppData\Local\Temp\ccbtsgth.s:20255  .debug_str:0000000000001ccc .LASF5479
C:\Users\CYMR90~1\AppData\Local\Temp\ccbtsgth.s:21841  .debug_str:000000000000820f .LASF5480
C:\Users\CYMR90~1\AppData\Local\Temp\ccbtsgth.s:26670  .debug_str:000000000001b9e4 .LASF5481
C:\Users\CYMR90~1\AppData\Local\Temp\ccbtsgth.s:29954  .debug_str:0000000000028958 .LASF5482
C:\Users\CYMR90~1\AppData\Local\Temp\ccbtsgth.s:23403  .debug_str:000000000000e758 .LASF5483
C:\Users\CYMR90~1\AppData\Local\Temp\ccbtsgth.s:24871  .debug_str:0000000000014465 .LASF5484
C:\Users\CYMR90~1\AppData\Local\Temp\ccbtsgth.s:27192  .debug_str:000000000001dbc9 .LASF5485
C:\Users\CYMR90~1\AppData\Local\Temp\ccbtsgth.s:28554  .debug_str:0000000000022eda .LASF5486
C:\Users\CYMR90~1\AppData\Local\Temp\ccbtsgth.s:29956  .debug_str:000000000002896b .LASF5487
C:\Users\CYMR90~1\AppData\Local\Temp\ccbtsgth.s:25457  .debug_str:00000000000169c7 .LASF5488
C:\Users\CYMR90~1\AppData\Local\Temp\ccbtsgth.s:26544  .debug_str:000000000001b294 .LASF5489
C:\Users\CYMR90~1\AppData\Local\Temp\ccbtsgth.s:25632  .debug_str:0000000000017689 .LASF5490
C:\Users\CYMR90~1\AppData\Local\Temp\ccbtsgth.s:25137  .debug_str:000000000001547f .LASF5491
C:\Users\CYMR90~1\AppData\Local\Temp\ccbtsgth.s:23867  .debug_str:0000000000010439 .LASF5492
C:\Users\CYMR90~1\AppData\Local\Temp\ccbtsgth.s:26370  .debug_str:000000000001a754 .LASF5493
C:\Users\CYMR90~1\AppData\Local\Temp\ccbtsgth.s:25618  .debug_str:000000000001758d .LASF5494
C:\Users\CYMR90~1\AppData\Local\Temp\ccbtsgth.s:26576  .debug_str:000000000001b477 .LASF5495
C:\Users\CYMR90~1\AppData\Local\Temp\ccbtsgth.s:24489  .debug_str:0000000000012c18 .LASF5496
C:\Users\CYMR90~1\AppData\Local\Temp\ccbtsgth.s:23813  .debug_str:00000000000100f7 .LASF5497
C:\Users\CYMR90~1\AppData\Local\Temp\ccbtsgth.s:24693  .debug_str:000000000001392c .LASF5498
C:\Users\CYMR90~1\AppData\Local\Temp\ccbtsgth.s:20469  .debug_str:0000000000002994 .LASF5499
C:\Users\CYMR90~1\AppData\Local\Temp\ccbtsgth.s:23211  .debug_str:000000000000db7b .LASF5500
C:\Users\CYMR90~1\AppData\Local\Temp\ccbtsgth.s:28998  .debug_str:0000000000024a8e .LASF5501
C:\Users\CYMR90~1\AppData\Local\Temp\ccbtsgth.s:23089  .debug_str:000000000000d44f .LASF5502
C:\Users\CYMR90~1\AppData\Local\Temp\ccbtsgth.s:22595  .debug_str:000000000000b348 .LASF5503
C:\Users\CYMR90~1\AppData\Local\Temp\ccbtsgth.s:28664  .debug_str:000000000002352b .LASF5504
C:\Users\CYMR90~1\AppData\Local\Temp\ccbtsgth.s:28976  .debug_str:000000000002490a .LASF5505
C:\Users\CYMR90~1\AppData\Local\Temp\ccbtsgth.s:20865  .debug_str:000000000000435d .LASF5506
C:\Users\CYMR90~1\AppData\Local\Temp\ccbtsgth.s:30958  .debug_str:000000000002c8f1 .LASF5507
C:\Users\CYMR90~1\AppData\Local\Temp\ccbtsgth.s:21263  .debug_str:0000000000005c51 .LASF5508
C:\Users\CYMR90~1\AppData\Local\Temp\ccbtsgth.s:30996  .debug_str:000000000002cb47 .LASF5509
C:\Users\CYMR90~1\AppData\Local\Temp\ccbtsgth.s:20387  .debug_str:0000000000002438 .LASF5510
C:\Users\CYMR90~1\AppData\Local\Temp\ccbtsgth.s:29906  .debug_str:0000000000028666 .LASF5511
C:\Users\CYMR90~1\AppData\Local\Temp\ccbtsgth.s:28738  .debug_str:00000000000239b6 .LASF5512
C:\Users\CYMR90~1\AppData\Local\Temp\ccbtsgth.s:26920  .debug_str:000000000001c9df .LASF5513
C:\Users\CYMR90~1\AppData\Local\Temp\ccbtsgth.s:24473  .debug_str:0000000000012b37 .LASF5514
C:\Users\CYMR90~1\AppData\Local\Temp\ccbtsgth.s:24975  .debug_str:0000000000014afb .LASF5515
C:\Users\CYMR90~1\AppData\Local\Temp\ccbtsgth.s:29708  .debug_str:000000000002786f .LASF5516
C:\Users\CYMR90~1\AppData\Local\Temp\ccbtsgth.s:23121  .debug_str:000000000000d69a .LASF5517
C:\Users\CYMR90~1\AppData\Local\Temp\ccbtsgth.s:27792  .debug_str:00000000000200ae .LASF5518
C:\Users\CYMR90~1\AppData\Local\Temp\ccbtsgth.s:28614  .debug_str:000000000002320b .LASF5519
C:\Users\CYMR90~1\AppData\Local\Temp\ccbtsgth.s:30604  .debug_str:000000000002b107 .LASF5520
C:\Users\CYMR90~1\AppData\Local\Temp\ccbtsgth.s:28886  .debug_str:00000000000242ed .LASF5521
C:\Users\CYMR90~1\AppData\Local\Temp\ccbtsgth.s:22685  .debug_str:000000000000b94b .LASF5522
C:\Users\CYMR90~1\AppData\Local\Temp\ccbtsgth.s:21907  .debug_str:0000000000008626 .LASF5523
C:\Users\CYMR90~1\AppData\Local\Temp\ccbtsgth.s:25810  .debug_str:000000000001818b .LASF5524
C:\Users\CYMR90~1\AppData\Local\Temp\ccbtsgth.s:30704  .debug_str:000000000002b810 .LASF5525
C:\Users\CYMR90~1\AppData\Local\Temp\ccbtsgth.s:26246  .debug_str:0000000000019e09 .LASF5526
C:\Users\CYMR90~1\AppData\Local\Temp\ccbtsgth.s:25492  .debug_str:0000000000016d9c .LASF5527
C:\Users\CYMR90~1\AppData\Local\Temp\ccbtsgth.s:25850  .debug_str:000000000001844d .LASF5528
C:\Users\CYMR90~1\AppData\Local\Temp\ccbtsgth.s:25816  .debug_str:0000000000018203 .LASF5529
C:\Users\CYMR90~1\AppData\Local\Temp\ccbtsgth.s:28830  .debug_str:0000000000023e77 .LASF5530
C:\Users\CYMR90~1\AppData\Local\Temp\ccbtsgth.s:30808  .debug_str:000000000002bf26 .LASF5531
C:\Users\CYMR90~1\AppData\Local\Temp\ccbtsgth.s:28940  .debug_str:000000000002465a .LASF5532
C:\Users\CYMR90~1\AppData\Local\Temp\ccbtsgth.s:26134  .debug_str:00000000000196e2 .LASF5533
C:\Users\CYMR90~1\AppData\Local\Temp\ccbtsgth.s:26536  .debug_str:000000000001b211 .LASF5534
C:\Users\CYMR90~1\AppData\Local\Temp\ccbtsgth.s:27850  .debug_str:00000000000203bd .LASF5535
C:\Users\CYMR90~1\AppData\Local\Temp\ccbtsgth.s:24347  .debug_str:00000000000122f0 .LASF5536
C:\Users\CYMR90~1\AppData\Local\Temp\ccbtsgth.s:26312  .debug_str:000000000001a356 .LASF5537
C:\Users\CYMR90~1\AppData\Local\Temp\ccbtsgth.s:24969  .debug_str:0000000000014a86 .LASF5538
C:\Users\CYMR90~1\AppData\Local\Temp\ccbtsgth.s:28448  .debug_str:000000000002285b .LASF5539
C:\Users\CYMR90~1\AppData\Local\Temp\ccbtsgth.s:26738  .debug_str:000000000001be60 .LASF5540
C:\Users\CYMR90~1\AppData\Local\Temp\ccbtsgth.s:30224  .debug_str:0000000000029a28 .LASF5541
C:\Users\CYMR90~1\AppData\Local\Temp\ccbtsgth.s:27270  .debug_str:000000000001e11e .LASF5542
C:\Users\CYMR90~1\AppData\Local\Temp\ccbtsgth.s:24725  .debug_str:0000000000013aec .LASF5543
C:\Users\CYMR90~1\AppData\Local\Temp\ccbtsgth.s:20939  .debug_str:00000000000048d4 .LASF5544
C:\Users\CYMR90~1\AppData\Local\Temp\ccbtsgth.s:22347  .debug_str:000000000000a1f5 .LASF5545
C:\Users\CYMR90~1\AppData\Local\Temp\ccbtsgth.s:21439  .debug_str:0000000000006724 .LASF5546
C:\Users\CYMR90~1\AppData\Local\Temp\ccbtsgth.s:20583  .debug_str:00000000000030e2 .LASF5547
C:\Users\CYMR90~1\AppData\Local\Temp\ccbtsgth.s:31040  .debug_str:000000000002ce4f .LASF5548
C:\Users\CYMR90~1\AppData\Local\Temp\ccbtsgth.s:25337  .debug_str:0000000000016185 .LASF5549
C:\Users\CYMR90~1\AppData\Local\Temp\ccbtsgth.s:28904  .debug_str:0000000000024420 .LASF5550
C:\Users\CYMR90~1\AppData\Local\Temp\ccbtsgth.s:28754  .debug_str:0000000000023a8b .LASF5551
C:\Users\CYMR90~1\AppData\Local\Temp\ccbtsgth.s:24019  .debug_str:0000000000010d5f .LASF5552
C:\Users\CYMR90~1\AppData\Local\Temp\ccbtsgth.s:27212  .debug_str:000000000001dd79 .LASF5553
C:\Users\CYMR90~1\AppData\Local\Temp\ccbtsgth.s:22281  .debug_str:0000000000009dc4 .LASF5554
C:\Users\CYMR90~1\AppData\Local\Temp\ccbtsgth.s:22367  .debug_str:000000000000a37e .LASF5555
                           .group:0000000000000000 wm4.0.10abbef32179bc1260444192115bdf5e
                           .group:0000000000000000 wm4.stddef.h.39.144cf5ddcd53cbfdac30259dc1a6c87f
                           .group:0000000000000000 wm4._newlib_version.h.4.bfdf54b0af045d4a71376ae00f63a22c
                           .group:0000000000000000 wm4.newlib.h.18.08a2ecba46890ca2aa56bbe21686e6c3
                           .group:0000000000000000 wm4.ieeefp.h.202.4f2759f5758fd82153cfbf98692f2ced
                           .group:0000000000000000 wm4.features.h.22.fad1cec3bc7ff06488171438dbdcfd02
                           .group:0000000000000000 wm4.config.h.83.13bbc8852bfac55b724c9822481355b5
                           .group:0000000000000000 wm4._ansi.h.31.de524f58584151836e90d8620a16f8e8
                           .group:0000000000000000 wm4.stdio.h.31.7c0e28c411445f3f9c5b11accf882760
                           .group:0000000000000000 wm4._default_types.h.6.959254cf5f09734ea7516c89e8bb21bd
                           .group:0000000000000000 wm4.stddef.h.155.ba788add86a0e365f264484f110c3c29
                           .group:0000000000000000 wm4.cdefs.h.49.39045112216f6a021dbdffe3bf5accce
                           .group:0000000000000000 wm4.stdarg.h.34.3a23a216c0c293b3d2ea2e89281481e6
                           .group:0000000000000000 wm4._types.h.20.dd0d04dca3800a0d2a6129b87f3adbb2
                           .group:0000000000000000 wm4.stddef.h.155.3588ebfdd1e8c7ede80509bb9c3b8009
                           .group:0000000000000000 wm4._types.h.127.34941de1b2539d59d5cac00e0dd27a45
                           .group:0000000000000000 wm4.reent.h.17.e292bf8b0bec6c96e131a54347145a30
                           .group:0000000000000000 wm4.lock.h.2.c0958401bd0ce484d507ee19aacab817
                           .group:0000000000000000 wm4.reent.h.77.dcd6129ff07fe81bd5636db29abe53b2
                           .group:0000000000000000 wm4.types.h.40.8b6acba56cefbb11746718204edc8f5e
                           .group:0000000000000000 wm4._stdint.h.10.c24fa3af3bc1706662bb5593a907e841
                           .group:0000000000000000 wm4._endian.h.18.1bf9649e8e5bbc91042012680270b9ed
                           .group:0000000000000000 wm4.endian.h.9.49f3a4695c1b61e8a0808de3c4a106cb
                           .group:0000000000000000 wm4._timeval.h.32.bec3221fa7a9bb0bdde696c9c57e47d2
                           .group:0000000000000000 wm4.timespec.h.41.d855182eb0e690443ab8651bcedca6e1
                           .group:0000000000000000 wm4.select.h.19.40cd3f2bfc456b193b790c2754690ebf
                           .group:0000000000000000 wm4.types.h.51.5571ec98f267d17d3c670b7a3ba33afa
                           .group:0000000000000000 wm4.sched.h.22.c60982713a5c428609783c78f9c78d95
                           .group:0000000000000000 wm4._pthreadtypes.h.36.fcee9961c35163dde6267ef772ad1972
                           .group:0000000000000000 wm4.stdio.h.2.4aa87247282eca6c8f36f9de33d8df1a
                           .group:0000000000000000 wm4.stdio.h.81.932d0c162786b883f622b8d05c120c78
                           .group:0000000000000000 wm4.gd32vw55x.h.47.379378190858578060a317909b2c8d8a
                           .group:0000000000000000 wm4._intsup.h.10.48bafbb683905c4daa4565a85aeeb264
                           .group:0000000000000000 wm4.stdint.h.23.d53047a68f4a85177f80b422d52785ed
                           .group:0000000000000000 wm4.nmsis_version.h.19.ffa173da8efb17b1050904994d6f500e
                           .group:0000000000000000 wm4.riscv_bits.h.19.ee94eb3d39937793d4cd0a62363e5d00
                           .group:0000000000000000 wm4.riscv_encoding.h.35.f5d37fad7abbab8278b4bb6f1e32fa65
                           .group:0000000000000000 wm4.nmsis_gcc.h.61.5d70d7598ffc79c3c991d847a574cf23
                           .group:0000000000000000 wm4.core_feature_base.h.20.e99d3e75c26a8f3341d35bf20d0e1d20
                           .group:0000000000000000 wm4.core_feature_fpu.h.19.695f2200274659b530cb97cda749ff4f
                           .group:0000000000000000 wm4.core_feature_dsp.h.19.e8f8d7aa42f197807aefedb6584486cd
                           .group:0000000000000000 wm4.core_compatiable.h.19.5b8282d61b1f6889a82895616b730084
                           .group:0000000000000000 wm4.core_feature_eclic.h.19.e0c091d0cbda79e8b3b031b979ebd5a1
                           .group:0000000000000000 wm4.core_feature_timer.h.19.21a5151282de34c37dfa6d84e262aa54
                           .group:0000000000000000 wm4.system_gd32vw55x.h.32.f1fcb1212d387c35ac955b0e96ada468
                           .group:0000000000000000 wm4.gd32vw55x.h.231.3529c650aff38c9372f7e03177fd2c8a
                           .group:0000000000000000 wm4.gd32vw55x_adc.h.42.ae73acec1704ef509ccecb41a875b50e
                           .group:0000000000000000 wm4.gd32vw55x_cau.h.36.c98428fe1eae7edb4721da5c8078c974
                           .group:0000000000000000 wm4.gd32vw55x_crc.h.37.c58f296814c2300a4b067c08bd88d54e
                           .group:0000000000000000 wm4.gd32vw55x_dbg.h.36.311650c8545549d482ceca8befc5a232
                           .group:0000000000000000 wm4.gd32vw55x_dma.h.36.f4adc751172b2a7b1533dda72e948737
                           .group:0000000000000000 wm4.gd32vw55x_eclic.h.36.0411499f2b2493c67246e32ccae096c1
                           .group:0000000000000000 wm4.gd32vw55x_efuse.h.36.091404cecbab70359dfd93faec5fdb62
                           .group:0000000000000000 wm4.gd32vw55x_exti.h.36.de7508334dd12f1a6a673521a1a835f5
                           .group:0000000000000000 wm4.gd32vw55x_fmc.h.36.a4b0b94c47ffe23a2fa09260c5ed4850
                           .group:0000000000000000 wm4.gd32vw55x_fwdgt.h.36.4846b6900fd24b5bfce4986c9a8ce677
                           .group:0000000000000000 wm4.gd32vw55x_hau.h.36.f3cbcbd7b67c9e5bdc7a1100b1bf3458
                           .group:0000000000000000 wm4.gd32vw55x_i2c.h.36.3848990933925e084eb427083790c53f
                           .group:0000000000000000 wm4.gd32vw55x_pkcau.h.36.bb2235f4cf4967063a51bfa9aca5ef27
                           .group:0000000000000000 wm4.gd32vw55x_pmu.h.36.4c76091f1415551526d489ccf2c42052
                           .group:0000000000000000 wm4.gd32vw55x_qspi.h.36.2d2c181cfe19b935a9641008fc786613
                           .group:0000000000000000 wm4.gd32vw55x_rcu.h.36.780a8a45c00d563711cceb445027ef47
                           .group:0000000000000000 wm4.gd32vw55x_rtc.h.36.3172855e8715659e080e0eab46fdf175
                           .group:0000000000000000 wm4.gd32vw55x_spi.h.36.9fa1be2b09fb73e4b5886e97f0e96d58
                           .group:0000000000000000 wm4.gd32vw55x_syscfg.h.36.010551f05591f5e34051d2e15df0352b
                           .group:0000000000000000 wm4.gd32vw55x_timer.h.38.2cbee78ea60d47145be361b2d2c55070
                           .group:0000000000000000 wm4.gd32vw55x_trng.h.36.c9e7807af1b1ab68d3bbb54f4ed5cd73
                           .group:0000000000000000 wm4.gd32vw55x_usart.h.36.f5c497cca17945a34f154b0e17017d02
                           .group:0000000000000000 wm4.gd32vw55x_wwdgt.h.36.f7a443b7302efc0e5c335888582ee197
                           .group:0000000000000000 wm4.gd32vw55x_gpio.h.41.de438b46b63e8d7b1287bd1de819aab6

UNDEFINED SYMBOLS
rcu_periph_reset_enable
rcu_periph_reset_disable
