   1              		.file	"gd32vw55x_hau_sha_md5.c"
   2              		.option nopic
   3              		.attribute arch, "rv32i2p0_m2p0_a2p0_c2p0"
   4              		.attribute unaligned_access, 0
   5              		.attribute stack_align, 16
   6              		.text
   7              	.Ltext0:
   8              		.cfi_sections	.debug_frame
   9              		.section	.text.hau_hash_sha_1,"ax",@progbits
  10              		.align	1
  11              		.globl	hau_hash_sha_1
  13              	hau_hash_sha_1:
  14              	.LFB347:
  15              		.file 1 "../Firmware/GD32VW55x_standard_peripheral/Source/gd32vw55x_hau_sha_md5.c"
   1:../Firmware/GD32VW55x_standard_peripheral/Source/gd32vw55x_hau_sha_md5.c **** /*!
   2:../Firmware/GD32VW55x_standard_peripheral/Source/gd32vw55x_hau_sha_md5.c ****     \file    gd32vw55x_hau_sha_md5.c
   3:../Firmware/GD32VW55x_standard_peripheral/Source/gd32vw55x_hau_sha_md5.c ****     \brief   HAU_SHA_MD5 driver
   4:../Firmware/GD32VW55x_standard_peripheral/Source/gd32vw55x_hau_sha_md5.c **** 
   5:../Firmware/GD32VW55x_standard_peripheral/Source/gd32vw55x_hau_sha_md5.c ****     \version 2025-01-16, V1.4.0, firmware for GD32VW55x
   6:../Firmware/GD32VW55x_standard_peripheral/Source/gd32vw55x_hau_sha_md5.c **** */
   7:../Firmware/GD32VW55x_standard_peripheral/Source/gd32vw55x_hau_sha_md5.c **** 
   8:../Firmware/GD32VW55x_standard_peripheral/Source/gd32vw55x_hau_sha_md5.c **** /*
   9:../Firmware/GD32VW55x_standard_peripheral/Source/gd32vw55x_hau_sha_md5.c ****     Copyright (c) 2025, GigaDevice Semiconductor Inc.
  10:../Firmware/GD32VW55x_standard_peripheral/Source/gd32vw55x_hau_sha_md5.c **** 
  11:../Firmware/GD32VW55x_standard_peripheral/Source/gd32vw55x_hau_sha_md5.c ****     Redistribution and use in source and binary forms, with or without modification,
  12:../Firmware/GD32VW55x_standard_peripheral/Source/gd32vw55x_hau_sha_md5.c **** are permitted provided that the following conditions are met:
  13:../Firmware/GD32VW55x_standard_peripheral/Source/gd32vw55x_hau_sha_md5.c **** 
  14:../Firmware/GD32VW55x_standard_peripheral/Source/gd32vw55x_hau_sha_md5.c ****     1. Redistributions of source code must retain the above copyright notice, this
  15:../Firmware/GD32VW55x_standard_peripheral/Source/gd32vw55x_hau_sha_md5.c ****        list of conditions and the following disclaimer.
  16:../Firmware/GD32VW55x_standard_peripheral/Source/gd32vw55x_hau_sha_md5.c ****     2. Redistributions in binary form must reproduce the above copyright notice,
  17:../Firmware/GD32VW55x_standard_peripheral/Source/gd32vw55x_hau_sha_md5.c ****        this list of conditions and the following disclaimer in the documentation
  18:../Firmware/GD32VW55x_standard_peripheral/Source/gd32vw55x_hau_sha_md5.c ****        and/or other materials provided with the distribution.
  19:../Firmware/GD32VW55x_standard_peripheral/Source/gd32vw55x_hau_sha_md5.c ****     3. Neither the name of the copyright holder nor the names of its contributors
  20:../Firmware/GD32VW55x_standard_peripheral/Source/gd32vw55x_hau_sha_md5.c ****        may be used to endorse or promote products derived from this software without
  21:../Firmware/GD32VW55x_standard_peripheral/Source/gd32vw55x_hau_sha_md5.c ****        specific prior written permission.
  22:../Firmware/GD32VW55x_standard_peripheral/Source/gd32vw55x_hau_sha_md5.c **** 
  23:../Firmware/GD32VW55x_standard_peripheral/Source/gd32vw55x_hau_sha_md5.c ****     THIS SOFTWARE IS PROVIDED BY THE COPYRIGHT HOLDERS AND CONTRIBUTORS "AS IS"
  24:../Firmware/GD32VW55x_standard_peripheral/Source/gd32vw55x_hau_sha_md5.c **** AND ANY EXPRESS OR IMPLIED WARRANTIES, INCLUDING, BUT NOT LIMITED TO, THE IMPLIED
  25:../Firmware/GD32VW55x_standard_peripheral/Source/gd32vw55x_hau_sha_md5.c **** WARRANTIES OF MERCHANTABILITY AND FITNESS FOR A PARTICULAR PURPOSE ARE DISCLAIMED.
  26:../Firmware/GD32VW55x_standard_peripheral/Source/gd32vw55x_hau_sha_md5.c **** IN NO EVENT SHALL THE COPYRIGHT HOLDER OR CONTRIBUTORS BE LIABLE FOR ANY DIRECT,
  27:../Firmware/GD32VW55x_standard_peripheral/Source/gd32vw55x_hau_sha_md5.c **** INDIRECT, INCIDENTAL, SPECIAL, EXEMPLARY, OR CONSEQUENTIAL DAMAGES (INCLUDING, BUT
  28:../Firmware/GD32VW55x_standard_peripheral/Source/gd32vw55x_hau_sha_md5.c **** NOT LIMITED TO, PROCUREMENT OF SUBSTITUTE GOODS OR SERVICES; LOSS OF USE, DATA, OR
  29:../Firmware/GD32VW55x_standard_peripheral/Source/gd32vw55x_hau_sha_md5.c **** PROFITS; OR BUSINESS INTERRUPTION) HOWEVER CAUSED AND ON ANY THEORY OF LIABILITY,
  30:../Firmware/GD32VW55x_standard_peripheral/Source/gd32vw55x_hau_sha_md5.c **** WHETHER IN CONTRACT, STRICT LIABILITY, OR TORT (INCLUDING NEGLIGENCE OR OTHERWISE)
  31:../Firmware/GD32VW55x_standard_peripheral/Source/gd32vw55x_hau_sha_md5.c **** ARISING IN ANY WAY OUT OF THE USE OF THIS SOFTWARE, EVEN IF ADVISED OF THE POSSIBILITY
  32:../Firmware/GD32VW55x_standard_peripheral/Source/gd32vw55x_hau_sha_md5.c **** OF SUCH DAMAGE.
  33:../Firmware/GD32VW55x_standard_peripheral/Source/gd32vw55x_hau_sha_md5.c **** */
  34:../Firmware/GD32VW55x_standard_peripheral/Source/gd32vw55x_hau_sha_md5.c **** 
  35:../Firmware/GD32VW55x_standard_peripheral/Source/gd32vw55x_hau_sha_md5.c **** #include "gd32vw55x_hau.h"
  36:../Firmware/GD32VW55x_standard_peripheral/Source/gd32vw55x_hau_sha_md5.c **** 
  37:../Firmware/GD32VW55x_standard_peripheral/Source/gd32vw55x_hau_sha_md5.c **** #define SHAMD5_BSY_TIMEOUT    ((uint32_t)0x00010000U)
  38:../Firmware/GD32VW55x_standard_peripheral/Source/gd32vw55x_hau_sha_md5.c **** 
  39:../Firmware/GD32VW55x_standard_peripheral/Source/gd32vw55x_hau_sha_md5.c **** /* HAU SHA/MD5 digest read in HASH mode */
  40:../Firmware/GD32VW55x_standard_peripheral/Source/gd32vw55x_hau_sha_md5.c **** static void hau_sha_md5_digest_read(uint32_t algo, uint8_t *output);
  41:../Firmware/GD32VW55x_standard_peripheral/Source/gd32vw55x_hau_sha_md5.c **** /* HAU digest calculate process in HASH mode */
  42:../Firmware/GD32VW55x_standard_peripheral/Source/gd32vw55x_hau_sha_md5.c **** static ErrStatus hau_hash_calculate(uint32_t algo, uint8_t *input, uint32_t in_length, uint8_t *out
  43:../Firmware/GD32VW55x_standard_peripheral/Source/gd32vw55x_hau_sha_md5.c **** /* HAU digest calculate process in HMAC mode */
  44:../Firmware/GD32VW55x_standard_peripheral/Source/gd32vw55x_hau_sha_md5.c **** static ErrStatus hau_hmac_calculate(uint32_t algo, uint8_t *key, uint32_t keysize, uint8_t *input, 
  45:../Firmware/GD32VW55x_standard_peripheral/Source/gd32vw55x_hau_sha_md5.c **** 
  46:../Firmware/GD32VW55x_standard_peripheral/Source/gd32vw55x_hau_sha_md5.c **** /*!
  47:../Firmware/GD32VW55x_standard_peripheral/Source/gd32vw55x_hau_sha_md5.c ****     \brief      calculate digest using SHA1 in HASH mode
  48:../Firmware/GD32VW55x_standard_peripheral/Source/gd32vw55x_hau_sha_md5.c ****     \param[in]  input: pointer to the input buffer
  49:../Firmware/GD32VW55x_standard_peripheral/Source/gd32vw55x_hau_sha_md5.c ****     \param[in]  in_length: length of the input buffer
  50:../Firmware/GD32VW55x_standard_peripheral/Source/gd32vw55x_hau_sha_md5.c ****     \param[in]  output: the result digest
  51:../Firmware/GD32VW55x_standard_peripheral/Source/gd32vw55x_hau_sha_md5.c ****     \param[out] none
  52:../Firmware/GD32VW55x_standard_peripheral/Source/gd32vw55x_hau_sha_md5.c ****     \retval     ErrStatus: SUCCESS or ERROR
  53:../Firmware/GD32VW55x_standard_peripheral/Source/gd32vw55x_hau_sha_md5.c **** */
  54:../Firmware/GD32VW55x_standard_peripheral/Source/gd32vw55x_hau_sha_md5.c **** ErrStatus hau_hash_sha_1(uint8_t *input, uint32_t in_length, uint8_t output[20])
  55:../Firmware/GD32VW55x_standard_peripheral/Source/gd32vw55x_hau_sha_md5.c **** {
  16              		.loc 1 55 1
  17              		.cfi_startproc
  18 0000 7971     		addi	sp,sp,-48
  19              		.cfi_def_cfa_offset 48
  20 0002 06D6     		sw	ra,44(sp)
  21 0004 22D4     		sw	s0,40(sp)
  22              		.cfi_offset 1, -4
  23              		.cfi_offset 8, -8
  24 0006 0018     		addi	s0,sp,48
  25              		.cfi_def_cfa 8, 0
  26 0008 232EA4FC 		sw	a0,-36(s0)
  27 000c 232CB4FC 		sw	a1,-40(s0)
  28 0010 232AC4FC 		sw	a2,-44(s0)
  56:../Firmware/GD32VW55x_standard_peripheral/Source/gd32vw55x_hau_sha_md5.c ****     ErrStatus ret = ERROR;
  29              		.loc 1 56 15
  30 0014 232604FE 		sw	zero,-20(s0)
  57:../Firmware/GD32VW55x_standard_peripheral/Source/gd32vw55x_hau_sha_md5.c ****     ret = hau_hash_calculate(HAU_ALGO_SHA1, input, in_length, output);
  31              		.loc 1 57 11
  32 0018 832644FD 		lw	a3,-44(s0)
  33 001c 032684FD 		lw	a2,-40(s0)
  34 0020 8325C4FD 		lw	a1,-36(s0)
  35 0024 0145     		li	a0,0
  36 0026 97000000 		call	hau_hash_calculate
  36      E7800000 
  37 002e 2326A4FE 		sw	a0,-20(s0)
  58:../Firmware/GD32VW55x_standard_peripheral/Source/gd32vw55x_hau_sha_md5.c ****     return ret;
  38              		.loc 1 58 12
  39 0032 8327C4FE 		lw	a5,-20(s0)
  59:../Firmware/GD32VW55x_standard_peripheral/Source/gd32vw55x_hau_sha_md5.c **** }
  40              		.loc 1 59 1
  41 0036 3E85     		mv	a0,a5
  42 0038 B250     		lw	ra,44(sp)
  43              		.cfi_restore 1
  44 003a 2254     		lw	s0,40(sp)
  45              		.cfi_restore 8
  46              		.cfi_def_cfa 2, 48
  47 003c 4561     		addi	sp,sp,48
  48              		.cfi_def_cfa_offset 0
  49 003e 8280     		jr	ra
  50              		.cfi_endproc
  51              	.LFE347:
  53              		.section	.text.hau_hmac_sha_1,"ax",@progbits
  54              		.align	1
  55              		.globl	hau_hmac_sha_1
  57              	hau_hmac_sha_1:
  58              	.LFB348:
  60:../Firmware/GD32VW55x_standard_peripheral/Source/gd32vw55x_hau_sha_md5.c **** 
  61:../Firmware/GD32VW55x_standard_peripheral/Source/gd32vw55x_hau_sha_md5.c **** /*!
  62:../Firmware/GD32VW55x_standard_peripheral/Source/gd32vw55x_hau_sha_md5.c ****     \brief      calculate digest using SHA1 in HMAC mode
  63:../Firmware/GD32VW55x_standard_peripheral/Source/gd32vw55x_hau_sha_md5.c ****     \param[in]  key: pointer to the key used for HMAC
  64:../Firmware/GD32VW55x_standard_peripheral/Source/gd32vw55x_hau_sha_md5.c ****     \param[in]  keysize: length of the key used for HMAC
  65:../Firmware/GD32VW55x_standard_peripheral/Source/gd32vw55x_hau_sha_md5.c ****     \param[in]  input: pointer to the input buffer
  66:../Firmware/GD32VW55x_standard_peripheral/Source/gd32vw55x_hau_sha_md5.c ****     \param[in]  in_length: length of the input buffer
  67:../Firmware/GD32VW55x_standard_peripheral/Source/gd32vw55x_hau_sha_md5.c ****     \param[in]  output: the result digest
  68:../Firmware/GD32VW55x_standard_peripheral/Source/gd32vw55x_hau_sha_md5.c ****     \param[out] none
  69:../Firmware/GD32VW55x_standard_peripheral/Source/gd32vw55x_hau_sha_md5.c ****     \retval     ErrStatus: SUCCESS or ERROR
  70:../Firmware/GD32VW55x_standard_peripheral/Source/gd32vw55x_hau_sha_md5.c **** */
  71:../Firmware/GD32VW55x_standard_peripheral/Source/gd32vw55x_hau_sha_md5.c **** ErrStatus hau_hmac_sha_1(uint8_t *key, uint32_t keysize, uint8_t *input, uint32_t in_length, uint8_
  72:../Firmware/GD32VW55x_standard_peripheral/Source/gd32vw55x_hau_sha_md5.c **** {
  59              		.loc 1 72 1
  60              		.cfi_startproc
  61 0000 3971     		addi	sp,sp,-64
  62              		.cfi_def_cfa_offset 64
  63 0002 06DE     		sw	ra,60(sp)
  64 0004 22DC     		sw	s0,56(sp)
  65              		.cfi_offset 1, -4
  66              		.cfi_offset 8, -8
  67 0006 8000     		addi	s0,sp,64
  68              		.cfi_def_cfa 8, 0
  69 0008 232EA4FC 		sw	a0,-36(s0)
  70 000c 232CB4FC 		sw	a1,-40(s0)
  71 0010 232AC4FC 		sw	a2,-44(s0)
  72 0014 2328D4FC 		sw	a3,-48(s0)
  73 0018 2326E4FC 		sw	a4,-52(s0)
  73:../Firmware/GD32VW55x_standard_peripheral/Source/gd32vw55x_hau_sha_md5.c ****     ErrStatus ret = ERROR;
  74              		.loc 1 73 15
  75 001c 232604FE 		sw	zero,-20(s0)
  74:../Firmware/GD32VW55x_standard_peripheral/Source/gd32vw55x_hau_sha_md5.c ****     ret = hau_hmac_calculate(HAU_ALGO_SHA1, key, keysize, input, in_length, output);
  76              		.loc 1 74 11
  77 0020 8327C4FC 		lw	a5,-52(s0)
  78 0024 032704FD 		lw	a4,-48(s0)
  79 0028 832644FD 		lw	a3,-44(s0)
  80 002c 032684FD 		lw	a2,-40(s0)
  81 0030 8325C4FD 		lw	a1,-36(s0)
  82 0034 0145     		li	a0,0
  83 0036 97000000 		call	hau_hmac_calculate
  83      E7800000 
  84 003e 2326A4FE 		sw	a0,-20(s0)
  75:../Firmware/GD32VW55x_standard_peripheral/Source/gd32vw55x_hau_sha_md5.c ****     return ret;
  85              		.loc 1 75 12
  86 0042 8327C4FE 		lw	a5,-20(s0)
  76:../Firmware/GD32VW55x_standard_peripheral/Source/gd32vw55x_hau_sha_md5.c **** }
  87              		.loc 1 76 1
  88 0046 3E85     		mv	a0,a5
  89 0048 F250     		lw	ra,60(sp)
  90              		.cfi_restore 1
  91 004a 6254     		lw	s0,56(sp)
  92              		.cfi_restore 8
  93              		.cfi_def_cfa 2, 64
  94 004c 2161     		addi	sp,sp,64
  95              		.cfi_def_cfa_offset 0
  96 004e 8280     		jr	ra
  97              		.cfi_endproc
  98              	.LFE348:
 100              		.section	.text.hau_hash_sha_224,"ax",@progbits
 101              		.align	1
 102              		.globl	hau_hash_sha_224
 104              	hau_hash_sha_224:
 105              	.LFB349:
  77:../Firmware/GD32VW55x_standard_peripheral/Source/gd32vw55x_hau_sha_md5.c **** 
  78:../Firmware/GD32VW55x_standard_peripheral/Source/gd32vw55x_hau_sha_md5.c **** /*!
  79:../Firmware/GD32VW55x_standard_peripheral/Source/gd32vw55x_hau_sha_md5.c ****     \brief      calculate digest using SHA224 in HASH mode
  80:../Firmware/GD32VW55x_standard_peripheral/Source/gd32vw55x_hau_sha_md5.c ****     \param[in]  input: pointer to the input buffer
  81:../Firmware/GD32VW55x_standard_peripheral/Source/gd32vw55x_hau_sha_md5.c ****     \param[in]  in_length: length of the input buffer
  82:../Firmware/GD32VW55x_standard_peripheral/Source/gd32vw55x_hau_sha_md5.c ****     \param[in]  output: the result digest
  83:../Firmware/GD32VW55x_standard_peripheral/Source/gd32vw55x_hau_sha_md5.c ****     \param[out] none
  84:../Firmware/GD32VW55x_standard_peripheral/Source/gd32vw55x_hau_sha_md5.c ****     \retval     ErrStatus: SUCCESS or ERROR
  85:../Firmware/GD32VW55x_standard_peripheral/Source/gd32vw55x_hau_sha_md5.c **** */
  86:../Firmware/GD32VW55x_standard_peripheral/Source/gd32vw55x_hau_sha_md5.c **** ErrStatus hau_hash_sha_224(uint8_t *input, uint32_t in_length, uint8_t output[28])
  87:../Firmware/GD32VW55x_standard_peripheral/Source/gd32vw55x_hau_sha_md5.c **** {
 106              		.loc 1 87 1
 107              		.cfi_startproc
 108 0000 7971     		addi	sp,sp,-48
 109              		.cfi_def_cfa_offset 48
 110 0002 06D6     		sw	ra,44(sp)
 111 0004 22D4     		sw	s0,40(sp)
 112              		.cfi_offset 1, -4
 113              		.cfi_offset 8, -8
 114 0006 0018     		addi	s0,sp,48
 115              		.cfi_def_cfa 8, 0
 116 0008 232EA4FC 		sw	a0,-36(s0)
 117 000c 232CB4FC 		sw	a1,-40(s0)
 118 0010 232AC4FC 		sw	a2,-44(s0)
  88:../Firmware/GD32VW55x_standard_peripheral/Source/gd32vw55x_hau_sha_md5.c ****     ErrStatus ret = ERROR;
 119              		.loc 1 88 15
 120 0014 232604FE 		sw	zero,-20(s0)
  89:../Firmware/GD32VW55x_standard_peripheral/Source/gd32vw55x_hau_sha_md5.c ****     ret = hau_hash_calculate(HAU_ALGO_SHA224, input, in_length, output);
 121              		.loc 1 89 11
 122 0018 832644FD 		lw	a3,-44(s0)
 123 001c 032684FD 		lw	a2,-40(s0)
 124 0020 8325C4FD 		lw	a1,-36(s0)
 125 0024 37050400 		li	a0,262144
 126 0028 97000000 		call	hau_hash_calculate
 126      E7800000 
 127 0030 2326A4FE 		sw	a0,-20(s0)
  90:../Firmware/GD32VW55x_standard_peripheral/Source/gd32vw55x_hau_sha_md5.c ****     return ret;
 128              		.loc 1 90 12
 129 0034 8327C4FE 		lw	a5,-20(s0)
  91:../Firmware/GD32VW55x_standard_peripheral/Source/gd32vw55x_hau_sha_md5.c **** }
 130              		.loc 1 91 1
 131 0038 3E85     		mv	a0,a5
 132 003a B250     		lw	ra,44(sp)
 133              		.cfi_restore 1
 134 003c 2254     		lw	s0,40(sp)
 135              		.cfi_restore 8
 136              		.cfi_def_cfa 2, 48
 137 003e 4561     		addi	sp,sp,48
 138              		.cfi_def_cfa_offset 0
 139 0040 8280     		jr	ra
 140              		.cfi_endproc
 141              	.LFE349:
 143              		.section	.text.hau_hmac_sha_224,"ax",@progbits
 144              		.align	1
 145              		.globl	hau_hmac_sha_224
 147              	hau_hmac_sha_224:
 148              	.LFB350:
  92:../Firmware/GD32VW55x_standard_peripheral/Source/gd32vw55x_hau_sha_md5.c **** 
  93:../Firmware/GD32VW55x_standard_peripheral/Source/gd32vw55x_hau_sha_md5.c **** /*!
  94:../Firmware/GD32VW55x_standard_peripheral/Source/gd32vw55x_hau_sha_md5.c ****     \brief      calculate digest using SHA224 in HMAC mode
  95:../Firmware/GD32VW55x_standard_peripheral/Source/gd32vw55x_hau_sha_md5.c ****     \param[in]  key: pointer to the key used for HMAC
  96:../Firmware/GD32VW55x_standard_peripheral/Source/gd32vw55x_hau_sha_md5.c ****     \param[in]  keysize: length of the key used for HMAC
  97:../Firmware/GD32VW55x_standard_peripheral/Source/gd32vw55x_hau_sha_md5.c ****     \param[in]  input: pointer to the input buffer
  98:../Firmware/GD32VW55x_standard_peripheral/Source/gd32vw55x_hau_sha_md5.c ****     \param[in]  in_length: length of the input buffer
  99:../Firmware/GD32VW55x_standard_peripheral/Source/gd32vw55x_hau_sha_md5.c ****     \param[in]  output: the result digest
 100:../Firmware/GD32VW55x_standard_peripheral/Source/gd32vw55x_hau_sha_md5.c ****     \param[out] none
 101:../Firmware/GD32VW55x_standard_peripheral/Source/gd32vw55x_hau_sha_md5.c ****     \retval     ErrStatus: SUCCESS or ERROR
 102:../Firmware/GD32VW55x_standard_peripheral/Source/gd32vw55x_hau_sha_md5.c **** */
 103:../Firmware/GD32VW55x_standard_peripheral/Source/gd32vw55x_hau_sha_md5.c **** ErrStatus hau_hmac_sha_224(uint8_t *key, uint32_t keysize, uint8_t *input, uint32_t in_length, uint
 104:../Firmware/GD32VW55x_standard_peripheral/Source/gd32vw55x_hau_sha_md5.c **** {
 149              		.loc 1 104 1
 150              		.cfi_startproc
 151 0000 3971     		addi	sp,sp,-64
 152              		.cfi_def_cfa_offset 64
 153 0002 06DE     		sw	ra,60(sp)
 154 0004 22DC     		sw	s0,56(sp)
 155              		.cfi_offset 1, -4
 156              		.cfi_offset 8, -8
 157 0006 8000     		addi	s0,sp,64
 158              		.cfi_def_cfa 8, 0
 159 0008 232EA4FC 		sw	a0,-36(s0)
 160 000c 232CB4FC 		sw	a1,-40(s0)
 161 0010 232AC4FC 		sw	a2,-44(s0)
 162 0014 2328D4FC 		sw	a3,-48(s0)
 163 0018 2326E4FC 		sw	a4,-52(s0)
 105:../Firmware/GD32VW55x_standard_peripheral/Source/gd32vw55x_hau_sha_md5.c ****     ErrStatus ret = ERROR;
 164              		.loc 1 105 15
 165 001c 232604FE 		sw	zero,-20(s0)
 106:../Firmware/GD32VW55x_standard_peripheral/Source/gd32vw55x_hau_sha_md5.c ****     ret = hau_hmac_calculate(HAU_ALGO_SHA224, key, keysize, input, in_length, output);
 166              		.loc 1 106 11
 167 0020 8327C4FC 		lw	a5,-52(s0)
 168 0024 032704FD 		lw	a4,-48(s0)
 169 0028 832644FD 		lw	a3,-44(s0)
 170 002c 032684FD 		lw	a2,-40(s0)
 171 0030 8325C4FD 		lw	a1,-36(s0)
 172 0034 37050400 		li	a0,262144
 173 0038 97000000 		call	hau_hmac_calculate
 173      E7800000 
 174 0040 2326A4FE 		sw	a0,-20(s0)
 107:../Firmware/GD32VW55x_standard_peripheral/Source/gd32vw55x_hau_sha_md5.c ****     return ret;
 175              		.loc 1 107 12
 176 0044 8327C4FE 		lw	a5,-20(s0)
 108:../Firmware/GD32VW55x_standard_peripheral/Source/gd32vw55x_hau_sha_md5.c **** }
 177              		.loc 1 108 1
 178 0048 3E85     		mv	a0,a5
 179 004a F250     		lw	ra,60(sp)
 180              		.cfi_restore 1
 181 004c 6254     		lw	s0,56(sp)
 182              		.cfi_restore 8
 183              		.cfi_def_cfa 2, 64
 184 004e 2161     		addi	sp,sp,64
 185              		.cfi_def_cfa_offset 0
 186 0050 8280     		jr	ra
 187              		.cfi_endproc
 188              	.LFE350:
 190              		.section	.text.hau_hash_sha_256,"ax",@progbits
 191              		.align	1
 192              		.globl	hau_hash_sha_256
 194              	hau_hash_sha_256:
 195              	.LFB351:
 109:../Firmware/GD32VW55x_standard_peripheral/Source/gd32vw55x_hau_sha_md5.c **** 
 110:../Firmware/GD32VW55x_standard_peripheral/Source/gd32vw55x_hau_sha_md5.c **** /*!
 111:../Firmware/GD32VW55x_standard_peripheral/Source/gd32vw55x_hau_sha_md5.c ****     \brief      calculate digest using SHA256 in HASH mode
 112:../Firmware/GD32VW55x_standard_peripheral/Source/gd32vw55x_hau_sha_md5.c ****     \param[in]  input: pointer to the input buffer
 113:../Firmware/GD32VW55x_standard_peripheral/Source/gd32vw55x_hau_sha_md5.c ****     \param[in]  in_length: length of the input buffer
 114:../Firmware/GD32VW55x_standard_peripheral/Source/gd32vw55x_hau_sha_md5.c ****     \param[in]  output: the result digest
 115:../Firmware/GD32VW55x_standard_peripheral/Source/gd32vw55x_hau_sha_md5.c ****     \param[out] none
 116:../Firmware/GD32VW55x_standard_peripheral/Source/gd32vw55x_hau_sha_md5.c ****     \retval     ErrStatus: SUCCESS or ERROR
 117:../Firmware/GD32VW55x_standard_peripheral/Source/gd32vw55x_hau_sha_md5.c **** */
 118:../Firmware/GD32VW55x_standard_peripheral/Source/gd32vw55x_hau_sha_md5.c **** ErrStatus hau_hash_sha_256(uint8_t *input, uint32_t in_length, uint8_t output[32])
 119:../Firmware/GD32VW55x_standard_peripheral/Source/gd32vw55x_hau_sha_md5.c **** {
 196              		.loc 1 119 1
 197              		.cfi_startproc
 198 0000 7971     		addi	sp,sp,-48
 199              		.cfi_def_cfa_offset 48
 200 0002 06D6     		sw	ra,44(sp)
 201 0004 22D4     		sw	s0,40(sp)
 202              		.cfi_offset 1, -4
 203              		.cfi_offset 8, -8
 204 0006 0018     		addi	s0,sp,48
 205              		.cfi_def_cfa 8, 0
 206 0008 232EA4FC 		sw	a0,-36(s0)
 207 000c 232CB4FC 		sw	a1,-40(s0)
 208 0010 232AC4FC 		sw	a2,-44(s0)
 120:../Firmware/GD32VW55x_standard_peripheral/Source/gd32vw55x_hau_sha_md5.c ****     ErrStatus ret = ERROR;
 209              		.loc 1 120 15
 210 0014 232604FE 		sw	zero,-20(s0)
 121:../Firmware/GD32VW55x_standard_peripheral/Source/gd32vw55x_hau_sha_md5.c ****     ret = hau_hash_calculate(HAU_ALGO_SHA256, input, in_length, output);
 211              		.loc 1 121 11
 212 0018 832644FD 		lw	a3,-44(s0)
 213 001c 032684FD 		lw	a2,-40(s0)
 214 0020 8325C4FD 		lw	a1,-36(s0)
 215 0024 B7070400 		li	a5,262144
 216 0028 13850708 		addi	a0,a5,128
 217 002c 97000000 		call	hau_hash_calculate
 217      E7800000 
 218 0034 2326A4FE 		sw	a0,-20(s0)
 122:../Firmware/GD32VW55x_standard_peripheral/Source/gd32vw55x_hau_sha_md5.c ****     return ret;
 219              		.loc 1 122 12
 220 0038 8327C4FE 		lw	a5,-20(s0)
 123:../Firmware/GD32VW55x_standard_peripheral/Source/gd32vw55x_hau_sha_md5.c **** }
 221              		.loc 1 123 1
 222 003c 3E85     		mv	a0,a5
 223 003e B250     		lw	ra,44(sp)
 224              		.cfi_restore 1
 225 0040 2254     		lw	s0,40(sp)
 226              		.cfi_restore 8
 227              		.cfi_def_cfa 2, 48
 228 0042 4561     		addi	sp,sp,48
 229              		.cfi_def_cfa_offset 0
 230 0044 8280     		jr	ra
 231              		.cfi_endproc
 232              	.LFE351:
 234              		.section	.text.hau_hmac_sha_256,"ax",@progbits
 235              		.align	1
 236              		.globl	hau_hmac_sha_256
 238              	hau_hmac_sha_256:
 239              	.LFB352:
 124:../Firmware/GD32VW55x_standard_peripheral/Source/gd32vw55x_hau_sha_md5.c **** 
 125:../Firmware/GD32VW55x_standard_peripheral/Source/gd32vw55x_hau_sha_md5.c **** /*!
 126:../Firmware/GD32VW55x_standard_peripheral/Source/gd32vw55x_hau_sha_md5.c ****     \brief      calculate digest using SHA256 in HMAC mode
 127:../Firmware/GD32VW55x_standard_peripheral/Source/gd32vw55x_hau_sha_md5.c ****     \param[in]  key: pointer to the key used for HMAC
 128:../Firmware/GD32VW55x_standard_peripheral/Source/gd32vw55x_hau_sha_md5.c ****     \param[in]  keysize: length of the key used for HMAC
 129:../Firmware/GD32VW55x_standard_peripheral/Source/gd32vw55x_hau_sha_md5.c ****     \param[in]  input: pointer to the input buffer
 130:../Firmware/GD32VW55x_standard_peripheral/Source/gd32vw55x_hau_sha_md5.c ****     \param[in]  in_length: length of the input buffer
 131:../Firmware/GD32VW55x_standard_peripheral/Source/gd32vw55x_hau_sha_md5.c ****     \param[in]  output: the result digest
 132:../Firmware/GD32VW55x_standard_peripheral/Source/gd32vw55x_hau_sha_md5.c ****     \param[out] none
 133:../Firmware/GD32VW55x_standard_peripheral/Source/gd32vw55x_hau_sha_md5.c ****     \retval     ErrStatus: SUCCESS or ERROR
 134:../Firmware/GD32VW55x_standard_peripheral/Source/gd32vw55x_hau_sha_md5.c **** */
 135:../Firmware/GD32VW55x_standard_peripheral/Source/gd32vw55x_hau_sha_md5.c **** ErrStatus hau_hmac_sha_256(uint8_t *key, uint32_t keysize, uint8_t *input, uint32_t in_length, uint
 136:../Firmware/GD32VW55x_standard_peripheral/Source/gd32vw55x_hau_sha_md5.c **** {
 240              		.loc 1 136 1
 241              		.cfi_startproc
 242 0000 3971     		addi	sp,sp,-64
 243              		.cfi_def_cfa_offset 64
 244 0002 06DE     		sw	ra,60(sp)
 245 0004 22DC     		sw	s0,56(sp)
 246              		.cfi_offset 1, -4
 247              		.cfi_offset 8, -8
 248 0006 8000     		addi	s0,sp,64
 249              		.cfi_def_cfa 8, 0
 250 0008 232EA4FC 		sw	a0,-36(s0)
 251 000c 232CB4FC 		sw	a1,-40(s0)
 252 0010 232AC4FC 		sw	a2,-44(s0)
 253 0014 2328D4FC 		sw	a3,-48(s0)
 254 0018 2326E4FC 		sw	a4,-52(s0)
 137:../Firmware/GD32VW55x_standard_peripheral/Source/gd32vw55x_hau_sha_md5.c ****     ErrStatus ret = ERROR;
 255              		.loc 1 137 15
 256 001c 232604FE 		sw	zero,-20(s0)
 138:../Firmware/GD32VW55x_standard_peripheral/Source/gd32vw55x_hau_sha_md5.c ****     ret = hau_hmac_calculate(HAU_ALGO_SHA256, key, keysize, input, in_length, output);
 257              		.loc 1 138 11
 258 0020 8327C4FC 		lw	a5,-52(s0)
 259 0024 032704FD 		lw	a4,-48(s0)
 260 0028 832644FD 		lw	a3,-44(s0)
 261 002c 032684FD 		lw	a2,-40(s0)
 262 0030 8325C4FD 		lw	a1,-36(s0)
 263 0034 37050400 		li	a0,262144
 264 0038 13050508 		addi	a0,a0,128
 265 003c 97000000 		call	hau_hmac_calculate
 265      E7800000 
 266 0044 2326A4FE 		sw	a0,-20(s0)
 139:../Firmware/GD32VW55x_standard_peripheral/Source/gd32vw55x_hau_sha_md5.c ****     return ret;
 267              		.loc 1 139 12
 268 0048 8327C4FE 		lw	a5,-20(s0)
 140:../Firmware/GD32VW55x_standard_peripheral/Source/gd32vw55x_hau_sha_md5.c **** }
 269              		.loc 1 140 1
 270 004c 3E85     		mv	a0,a5
 271 004e F250     		lw	ra,60(sp)
 272              		.cfi_restore 1
 273 0050 6254     		lw	s0,56(sp)
 274              		.cfi_restore 8
 275              		.cfi_def_cfa 2, 64
 276 0052 2161     		addi	sp,sp,64
 277              		.cfi_def_cfa_offset 0
 278 0054 8280     		jr	ra
 279              		.cfi_endproc
 280              	.LFE352:
 282              		.section	.text.hau_hash_md5,"ax",@progbits
 283              		.align	1
 284              		.globl	hau_hash_md5
 286              	hau_hash_md5:
 287              	.LFB353:
 141:../Firmware/GD32VW55x_standard_peripheral/Source/gd32vw55x_hau_sha_md5.c **** 
 142:../Firmware/GD32VW55x_standard_peripheral/Source/gd32vw55x_hau_sha_md5.c **** /*!
 143:../Firmware/GD32VW55x_standard_peripheral/Source/gd32vw55x_hau_sha_md5.c ****     \brief      calculate digest using MD5 in HASH mode
 144:../Firmware/GD32VW55x_standard_peripheral/Source/gd32vw55x_hau_sha_md5.c ****     \param[in]  input: pointer to the input buffer
 145:../Firmware/GD32VW55x_standard_peripheral/Source/gd32vw55x_hau_sha_md5.c ****     \param[in]  in_length: length of the input buffer
 146:../Firmware/GD32VW55x_standard_peripheral/Source/gd32vw55x_hau_sha_md5.c ****     \param[in]  output: the result digest
 147:../Firmware/GD32VW55x_standard_peripheral/Source/gd32vw55x_hau_sha_md5.c ****     \param[out] none
 148:../Firmware/GD32VW55x_standard_peripheral/Source/gd32vw55x_hau_sha_md5.c ****     \retval     ErrStatus: SUCCESS or ERROR
 149:../Firmware/GD32VW55x_standard_peripheral/Source/gd32vw55x_hau_sha_md5.c **** */
 150:../Firmware/GD32VW55x_standard_peripheral/Source/gd32vw55x_hau_sha_md5.c **** ErrStatus hau_hash_md5(uint8_t *input, uint32_t in_length, uint8_t output[16])
 151:../Firmware/GD32VW55x_standard_peripheral/Source/gd32vw55x_hau_sha_md5.c **** {
 288              		.loc 1 151 1
 289              		.cfi_startproc
 290 0000 7971     		addi	sp,sp,-48
 291              		.cfi_def_cfa_offset 48
 292 0002 06D6     		sw	ra,44(sp)
 293 0004 22D4     		sw	s0,40(sp)
 294              		.cfi_offset 1, -4
 295              		.cfi_offset 8, -8
 296 0006 0018     		addi	s0,sp,48
 297              		.cfi_def_cfa 8, 0
 298 0008 232EA4FC 		sw	a0,-36(s0)
 299 000c 232CB4FC 		sw	a1,-40(s0)
 300 0010 232AC4FC 		sw	a2,-44(s0)
 152:../Firmware/GD32VW55x_standard_peripheral/Source/gd32vw55x_hau_sha_md5.c ****     ErrStatus ret = ERROR;
 301              		.loc 1 152 15
 302 0014 232604FE 		sw	zero,-20(s0)
 153:../Firmware/GD32VW55x_standard_peripheral/Source/gd32vw55x_hau_sha_md5.c ****     ret = hau_hash_calculate(HAU_ALGO_MD5, input, in_length, output);
 303              		.loc 1 153 11
 304 0018 832644FD 		lw	a3,-44(s0)
 305 001c 032684FD 		lw	a2,-40(s0)
 306 0020 8325C4FD 		lw	a1,-36(s0)
 307 0024 13050008 		li	a0,128
 308 0028 97000000 		call	hau_hash_calculate
 308      E7800000 
 309 0030 2326A4FE 		sw	a0,-20(s0)
 154:../Firmware/GD32VW55x_standard_peripheral/Source/gd32vw55x_hau_sha_md5.c ****     return ret;
 310              		.loc 1 154 12
 311 0034 8327C4FE 		lw	a5,-20(s0)
 155:../Firmware/GD32VW55x_standard_peripheral/Source/gd32vw55x_hau_sha_md5.c **** }
 312              		.loc 1 155 1
 313 0038 3E85     		mv	a0,a5
 314 003a B250     		lw	ra,44(sp)
 315              		.cfi_restore 1
 316 003c 2254     		lw	s0,40(sp)
 317              		.cfi_restore 8
 318              		.cfi_def_cfa 2, 48
 319 003e 4561     		addi	sp,sp,48
 320              		.cfi_def_cfa_offset 0
 321 0040 8280     		jr	ra
 322              		.cfi_endproc
 323              	.LFE353:
 325              		.section	.text.hau_hmac_md5,"ax",@progbits
 326              		.align	1
 327              		.globl	hau_hmac_md5
 329              	hau_hmac_md5:
 330              	.LFB354:
 156:../Firmware/GD32VW55x_standard_peripheral/Source/gd32vw55x_hau_sha_md5.c **** 
 157:../Firmware/GD32VW55x_standard_peripheral/Source/gd32vw55x_hau_sha_md5.c **** /*!
 158:../Firmware/GD32VW55x_standard_peripheral/Source/gd32vw55x_hau_sha_md5.c ****     \brief      calculate digest using MD5 in HMAC mode
 159:../Firmware/GD32VW55x_standard_peripheral/Source/gd32vw55x_hau_sha_md5.c ****     \param[in]  key: pointer to the key used for HMAC
 160:../Firmware/GD32VW55x_standard_peripheral/Source/gd32vw55x_hau_sha_md5.c ****     \param[in]  keysize: length of the key used for HMAC
 161:../Firmware/GD32VW55x_standard_peripheral/Source/gd32vw55x_hau_sha_md5.c ****     \param[in]  input: pointer to the input buffer
 162:../Firmware/GD32VW55x_standard_peripheral/Source/gd32vw55x_hau_sha_md5.c ****     \param[in]  in_length: length of the input buffer
 163:../Firmware/GD32VW55x_standard_peripheral/Source/gd32vw55x_hau_sha_md5.c ****     \param[in]  output: the result digest
 164:../Firmware/GD32VW55x_standard_peripheral/Source/gd32vw55x_hau_sha_md5.c ****     \param[out] none
 165:../Firmware/GD32VW55x_standard_peripheral/Source/gd32vw55x_hau_sha_md5.c ****     \retval     ErrStatus: SUCCESS or ERROR
 166:../Firmware/GD32VW55x_standard_peripheral/Source/gd32vw55x_hau_sha_md5.c **** */
 167:../Firmware/GD32VW55x_standard_peripheral/Source/gd32vw55x_hau_sha_md5.c **** ErrStatus hau_hmac_md5(uint8_t *key, uint32_t keysize, uint8_t *input, uint32_t in_length, uint8_t 
 168:../Firmware/GD32VW55x_standard_peripheral/Source/gd32vw55x_hau_sha_md5.c **** {
 331              		.loc 1 168 1
 332              		.cfi_startproc
 333 0000 3971     		addi	sp,sp,-64
 334              		.cfi_def_cfa_offset 64
 335 0002 06DE     		sw	ra,60(sp)
 336 0004 22DC     		sw	s0,56(sp)
 337              		.cfi_offset 1, -4
 338              		.cfi_offset 8, -8
 339 0006 8000     		addi	s0,sp,64
 340              		.cfi_def_cfa 8, 0
 341 0008 232EA4FC 		sw	a0,-36(s0)
 342 000c 232CB4FC 		sw	a1,-40(s0)
 343 0010 232AC4FC 		sw	a2,-44(s0)
 344 0014 2328D4FC 		sw	a3,-48(s0)
 345 0018 2326E4FC 		sw	a4,-52(s0)
 169:../Firmware/GD32VW55x_standard_peripheral/Source/gd32vw55x_hau_sha_md5.c ****     ErrStatus ret = ERROR;
 346              		.loc 1 169 15
 347 001c 232604FE 		sw	zero,-20(s0)
 170:../Firmware/GD32VW55x_standard_peripheral/Source/gd32vw55x_hau_sha_md5.c ****     ret = hau_hmac_calculate(HAU_ALGO_MD5, key, keysize, input, in_length, output);
 348              		.loc 1 170 11
 349 0020 8327C4FC 		lw	a5,-52(s0)
 350 0024 032704FD 		lw	a4,-48(s0)
 351 0028 832644FD 		lw	a3,-44(s0)
 352 002c 032684FD 		lw	a2,-40(s0)
 353 0030 8325C4FD 		lw	a1,-36(s0)
 354 0034 13050008 		li	a0,128
 355 0038 97000000 		call	hau_hmac_calculate
 355      E7800000 
 356 0040 2326A4FE 		sw	a0,-20(s0)
 171:../Firmware/GD32VW55x_standard_peripheral/Source/gd32vw55x_hau_sha_md5.c ****     return ret;
 357              		.loc 1 171 12
 358 0044 8327C4FE 		lw	a5,-20(s0)
 172:../Firmware/GD32VW55x_standard_peripheral/Source/gd32vw55x_hau_sha_md5.c **** }
 359              		.loc 1 172 1
 360 0048 3E85     		mv	a0,a5
 361 004a F250     		lw	ra,60(sp)
 362              		.cfi_restore 1
 363 004c 6254     		lw	s0,56(sp)
 364              		.cfi_restore 8
 365              		.cfi_def_cfa 2, 64
 366 004e 2161     		addi	sp,sp,64
 367              		.cfi_def_cfa_offset 0
 368 0050 8280     		jr	ra
 369              		.cfi_endproc
 370              	.LFE354:
 372              		.section	.text.hau_sha_md5_digest_read,"ax",@progbits
 373              		.align	1
 375              	hau_sha_md5_digest_read:
 376              	.LFB355:
 173:../Firmware/GD32VW55x_standard_peripheral/Source/gd32vw55x_hau_sha_md5.c **** 
 174:../Firmware/GD32VW55x_standard_peripheral/Source/gd32vw55x_hau_sha_md5.c **** /*!
 175:../Firmware/GD32VW55x_standard_peripheral/Source/gd32vw55x_hau_sha_md5.c ****     \brief      HAU SHA/MD5 digest read
 176:../Firmware/GD32VW55x_standard_peripheral/Source/gd32vw55x_hau_sha_md5.c ****     \param[in]  algo: algorithm selection
 177:../Firmware/GD32VW55x_standard_peripheral/Source/gd32vw55x_hau_sha_md5.c ****     \param[out] output: the result digest
 178:../Firmware/GD32VW55x_standard_peripheral/Source/gd32vw55x_hau_sha_md5.c ****     \retval     none
 179:../Firmware/GD32VW55x_standard_peripheral/Source/gd32vw55x_hau_sha_md5.c **** */
 180:../Firmware/GD32VW55x_standard_peripheral/Source/gd32vw55x_hau_sha_md5.c **** static void hau_sha_md5_digest_read(uint32_t algo, uint8_t *output)
 181:../Firmware/GD32VW55x_standard_peripheral/Source/gd32vw55x_hau_sha_md5.c **** {
 377              		.loc 1 181 1
 378              		.cfi_startproc
 379 0000 6D71     		addi	sp,sp,-272
 380              		.cfi_def_cfa_offset 272
 381 0002 23261110 		sw	ra,268(sp)
 382 0006 23248110 		sw	s0,264(sp)
 383              		.cfi_offset 1, -4
 384              		.cfi_offset 8, -8
 385 000a 000A     		addi	s0,sp,272
 386              		.cfi_def_cfa 8, 0
 387 000c 232EA4EE 		sw	a0,-260(s0)
 388 0010 232CB4EE 		sw	a1,-264(s0)
 182:../Firmware/GD32VW55x_standard_peripheral/Source/gd32vw55x_hau_sha_md5.c ****     hau_digest_parameter_struct digest_para;
 183:../Firmware/GD32VW55x_standard_peripheral/Source/gd32vw55x_hau_sha_md5.c ****     uint32_t outputaddr = (uint32_t)output;
 389              		.loc 1 183 14
 390 0014 832784EF 		lw	a5,-264(s0)
 391 0018 2326F4FE 		sw	a5,-20(s0)
 184:../Firmware/GD32VW55x_standard_peripheral/Source/gd32vw55x_hau_sha_md5.c **** 
 185:../Firmware/GD32VW55x_standard_peripheral/Source/gd32vw55x_hau_sha_md5.c ****     switch(algo){
 392              		.loc 1 185 5
 393 001c 0327C4EF 		lw	a4,-260(s0)
 394 0020 B7070400 		li	a5,262144
 395 0024 93870708 		addi	a5,a5,128
 396 0028 6302F742 		beq	a4,a5,.L18
 397 002c 0327C4EF 		lw	a4,-260(s0)
 398 0030 B7070400 		li	a5,262144
 399 0034 93870708 		addi	a5,a5,128
 400 0038 63ECE77E 		bgtu	a4,a5,.L48
 401 003c 0327C4EF 		lw	a4,-260(s0)
 402 0040 B7070400 		li	a5,262144
 403 0044 6302F71C 		beq	a4,a5,.L20
 404 0048 0327C4EF 		lw	a4,-260(s0)
 405 004c B7070400 		li	a5,262144
 406 0050 63E0E77E 		bgtu	a4,a5,.L48
 407 0054 8327C4EF 		lw	a5,-260(s0)
 408 0058 81CB     		beq	a5,zero,.L21
 409 005a 0327C4EF 		lw	a4,-260(s0)
 410 005e 93070008 		li	a5,128
 411 0062 6300F768 		beq	a4,a5,.L22
 186:../Firmware/GD32VW55x_standard_peripheral/Source/gd32vw55x_hau_sha_md5.c ****     case HAU_ALGO_SHA1:
 187:../Firmware/GD32VW55x_standard_peripheral/Source/gd32vw55x_hau_sha_md5.c ****         hau_digest_read(&digest_para);
 188:../Firmware/GD32VW55x_standard_peripheral/Source/gd32vw55x_hau_sha_md5.c ****         *(uint32_t*)(outputaddr)  = __REV(digest_para.out[0]);
 189:../Firmware/GD32VW55x_standard_peripheral/Source/gd32vw55x_hau_sha_md5.c ****         outputaddr += 4U;
 190:../Firmware/GD32VW55x_standard_peripheral/Source/gd32vw55x_hau_sha_md5.c ****         *(uint32_t*)(outputaddr)  = __REV(digest_para.out[1]);
 191:../Firmware/GD32VW55x_standard_peripheral/Source/gd32vw55x_hau_sha_md5.c ****         outputaddr += 4U;
 192:../Firmware/GD32VW55x_standard_peripheral/Source/gd32vw55x_hau_sha_md5.c ****         *(uint32_t*)(outputaddr)  = __REV(digest_para.out[2]);
 193:../Firmware/GD32VW55x_standard_peripheral/Source/gd32vw55x_hau_sha_md5.c ****         outputaddr += 4U;
 194:../Firmware/GD32VW55x_standard_peripheral/Source/gd32vw55x_hau_sha_md5.c ****         *(uint32_t*)(outputaddr)  = __REV(digest_para.out[3]);
 195:../Firmware/GD32VW55x_standard_peripheral/Source/gd32vw55x_hau_sha_md5.c ****         outputaddr += 4U;
 196:../Firmware/GD32VW55x_standard_peripheral/Source/gd32vw55x_hau_sha_md5.c ****         *(uint32_t*)(outputaddr)  = __REV(digest_para.out[4]);
 197:../Firmware/GD32VW55x_standard_peripheral/Source/gd32vw55x_hau_sha_md5.c ****         break;
 198:../Firmware/GD32VW55x_standard_peripheral/Source/gd32vw55x_hau_sha_md5.c ****     case HAU_ALGO_SHA224:
 199:../Firmware/GD32VW55x_standard_peripheral/Source/gd32vw55x_hau_sha_md5.c ****         hau_digest_read(&digest_para);
 200:../Firmware/GD32VW55x_standard_peripheral/Source/gd32vw55x_hau_sha_md5.c ****         *(uint32_t*)(outputaddr)  = __REV(digest_para.out[0]);
 201:../Firmware/GD32VW55x_standard_peripheral/Source/gd32vw55x_hau_sha_md5.c ****         outputaddr += 4U;
 202:../Firmware/GD32VW55x_standard_peripheral/Source/gd32vw55x_hau_sha_md5.c ****         *(uint32_t*)(outputaddr)  = __REV(digest_para.out[1]);
 203:../Firmware/GD32VW55x_standard_peripheral/Source/gd32vw55x_hau_sha_md5.c ****         outputaddr += 4U;
 204:../Firmware/GD32VW55x_standard_peripheral/Source/gd32vw55x_hau_sha_md5.c ****         *(uint32_t*)(outputaddr)  = __REV(digest_para.out[2]);
 205:../Firmware/GD32VW55x_standard_peripheral/Source/gd32vw55x_hau_sha_md5.c ****         outputaddr += 4U;
 206:../Firmware/GD32VW55x_standard_peripheral/Source/gd32vw55x_hau_sha_md5.c ****         *(uint32_t*)(outputaddr)  = __REV(digest_para.out[3]);
 207:../Firmware/GD32VW55x_standard_peripheral/Source/gd32vw55x_hau_sha_md5.c ****         outputaddr += 4U;
 208:../Firmware/GD32VW55x_standard_peripheral/Source/gd32vw55x_hau_sha_md5.c ****         *(uint32_t*)(outputaddr)  = __REV(digest_para.out[4]);
 209:../Firmware/GD32VW55x_standard_peripheral/Source/gd32vw55x_hau_sha_md5.c ****         outputaddr += 4U;
 210:../Firmware/GD32VW55x_standard_peripheral/Source/gd32vw55x_hau_sha_md5.c ****         *(uint32_t*)(outputaddr)  = __REV(digest_para.out[5]);
 211:../Firmware/GD32VW55x_standard_peripheral/Source/gd32vw55x_hau_sha_md5.c ****         outputaddr += 4U;
 212:../Firmware/GD32VW55x_standard_peripheral/Source/gd32vw55x_hau_sha_md5.c ****         *(uint32_t*)(outputaddr)  = __REV(digest_para.out[6]);
 213:../Firmware/GD32VW55x_standard_peripheral/Source/gd32vw55x_hau_sha_md5.c ****         break;
 214:../Firmware/GD32VW55x_standard_peripheral/Source/gd32vw55x_hau_sha_md5.c ****     case HAU_ALGO_SHA256:
 215:../Firmware/GD32VW55x_standard_peripheral/Source/gd32vw55x_hau_sha_md5.c ****         hau_digest_read(&digest_para);
 216:../Firmware/GD32VW55x_standard_peripheral/Source/gd32vw55x_hau_sha_md5.c ****         *(uint32_t*)(outputaddr)  = __REV(digest_para.out[0]);
 217:../Firmware/GD32VW55x_standard_peripheral/Source/gd32vw55x_hau_sha_md5.c ****         outputaddr += 4U;
 218:../Firmware/GD32VW55x_standard_peripheral/Source/gd32vw55x_hau_sha_md5.c ****         *(uint32_t*)(outputaddr)  = __REV(digest_para.out[1]);
 219:../Firmware/GD32VW55x_standard_peripheral/Source/gd32vw55x_hau_sha_md5.c ****         outputaddr += 4U;
 220:../Firmware/GD32VW55x_standard_peripheral/Source/gd32vw55x_hau_sha_md5.c ****         *(uint32_t*)(outputaddr)  = __REV(digest_para.out[2]);
 221:../Firmware/GD32VW55x_standard_peripheral/Source/gd32vw55x_hau_sha_md5.c ****         outputaddr += 4U;
 222:../Firmware/GD32VW55x_standard_peripheral/Source/gd32vw55x_hau_sha_md5.c ****         *(uint32_t*)(outputaddr)  = __REV(digest_para.out[3]);
 223:../Firmware/GD32VW55x_standard_peripheral/Source/gd32vw55x_hau_sha_md5.c ****         outputaddr += 4U;
 224:../Firmware/GD32VW55x_standard_peripheral/Source/gd32vw55x_hau_sha_md5.c ****         *(uint32_t*)(outputaddr)  = __REV(digest_para.out[4]);
 225:../Firmware/GD32VW55x_standard_peripheral/Source/gd32vw55x_hau_sha_md5.c ****         outputaddr += 4U;
 226:../Firmware/GD32VW55x_standard_peripheral/Source/gd32vw55x_hau_sha_md5.c ****         *(uint32_t*)(outputaddr)  = __REV(digest_para.out[5]);
 227:../Firmware/GD32VW55x_standard_peripheral/Source/gd32vw55x_hau_sha_md5.c ****         outputaddr += 4U;
 228:../Firmware/GD32VW55x_standard_peripheral/Source/gd32vw55x_hau_sha_md5.c ****         *(uint32_t*)(outputaddr)  = __REV(digest_para.out[6]);
 229:../Firmware/GD32VW55x_standard_peripheral/Source/gd32vw55x_hau_sha_md5.c ****         outputaddr += 4U;
 230:../Firmware/GD32VW55x_standard_peripheral/Source/gd32vw55x_hau_sha_md5.c ****         *(uint32_t*)(outputaddr)  = __REV(digest_para.out[7]);
 231:../Firmware/GD32VW55x_standard_peripheral/Source/gd32vw55x_hau_sha_md5.c ****         break;
 232:../Firmware/GD32VW55x_standard_peripheral/Source/gd32vw55x_hau_sha_md5.c ****     case HAU_ALGO_MD5:
 233:../Firmware/GD32VW55x_standard_peripheral/Source/gd32vw55x_hau_sha_md5.c ****         hau_digest_read(&digest_para);
 234:../Firmware/GD32VW55x_standard_peripheral/Source/gd32vw55x_hau_sha_md5.c ****         *(uint32_t*)(outputaddr)  = __REV(digest_para.out[0]);
 235:../Firmware/GD32VW55x_standard_peripheral/Source/gd32vw55x_hau_sha_md5.c ****         outputaddr += 4U;
 236:../Firmware/GD32VW55x_standard_peripheral/Source/gd32vw55x_hau_sha_md5.c ****         *(uint32_t*)(outputaddr)  = __REV(digest_para.out[1]);
 237:../Firmware/GD32VW55x_standard_peripheral/Source/gd32vw55x_hau_sha_md5.c ****         outputaddr += 4U;
 238:../Firmware/GD32VW55x_standard_peripheral/Source/gd32vw55x_hau_sha_md5.c ****         *(uint32_t*)(outputaddr)  = __REV(digest_para.out[2]);
 239:../Firmware/GD32VW55x_standard_peripheral/Source/gd32vw55x_hau_sha_md5.c ****         outputaddr += 4U;
 240:../Firmware/GD32VW55x_standard_peripheral/Source/gd32vw55x_hau_sha_md5.c ****         *(uint32_t*)(outputaddr)  = __REV(digest_para.out[3]);
 241:../Firmware/GD32VW55x_standard_peripheral/Source/gd32vw55x_hau_sha_md5.c ****         break;
 242:../Firmware/GD32VW55x_standard_peripheral/Source/gd32vw55x_hau_sha_md5.c ****     default:
 243:../Firmware/GD32VW55x_standard_peripheral/Source/gd32vw55x_hau_sha_md5.c ****         break;
 412              		.loc 1 243 9
 413 0066 E9A7     		j	.L48
 414              	.L21:
 187:../Firmware/GD32VW55x_standard_peripheral/Source/gd32vw55x_hau_sha_md5.c ****         *(uint32_t*)(outputaddr)  = __REV(digest_para.out[0]);
 415              		.loc 1 187 9
 416 0068 9307C4F0 		addi	a5,s0,-244
 417 006c 3E85     		mv	a0,a5
 418 006e 97000000 		call	hau_digest_read
 418      E7800000 
 188:../Firmware/GD32VW55x_standard_peripheral/Source/gd32vw55x_hau_sha_md5.c ****         outputaddr += 4U;
 419              		.loc 1 188 37
 420 0076 0327C4F0 		lw	a4,-244(s0)
 188:../Firmware/GD32VW55x_standard_peripheral/Source/gd32vw55x_hau_sha_md5.c ****         outputaddr += 4U;
 421              		.loc 1 188 10
 422 007a 8327C4FE 		lw	a5,-20(s0)
 423 007e 2324E4FC 		sw	a4,-56(s0)
 424              	.LBB50:
 425              	.LBB51:
 426              		.file 2 "../Firmware/RISCV/drivers/core_compatiable.h"
   1:../Firmware/RISCV/drivers/core_compatiable.h **** /*
   2:../Firmware/RISCV/drivers/core_compatiable.h ****  * Copyright (c) 2019 Nuclei Limited. All rights reserved.
   3:../Firmware/RISCV/drivers/core_compatiable.h ****  *
   4:../Firmware/RISCV/drivers/core_compatiable.h ****  * SPDX-License-Identifier: Apache-2.0
   5:../Firmware/RISCV/drivers/core_compatiable.h ****  *
   6:../Firmware/RISCV/drivers/core_compatiable.h ****  * Licensed under the Apache License, Version 2.0 (the License); you may
   7:../Firmware/RISCV/drivers/core_compatiable.h ****  * not use this file except in compliance with the License.
   8:../Firmware/RISCV/drivers/core_compatiable.h ****  * You may obtain a copy of the License at
   9:../Firmware/RISCV/drivers/core_compatiable.h ****  *
  10:../Firmware/RISCV/drivers/core_compatiable.h ****  * www.apache.org/licenses/LICENSE-2.0
  11:../Firmware/RISCV/drivers/core_compatiable.h ****  *
  12:../Firmware/RISCV/drivers/core_compatiable.h ****  * Unless required by applicable law or agreed to in writing, software
  13:../Firmware/RISCV/drivers/core_compatiable.h ****  * distributed under the License is distributed on an AS IS BASIS, WITHOUT
  14:../Firmware/RISCV/drivers/core_compatiable.h ****  * WARRANTIES OR CONDITIONS OF ANY KIND, either express or implied.
  15:../Firmware/RISCV/drivers/core_compatiable.h ****  * See the License for the specific language governing permissions and
  16:../Firmware/RISCV/drivers/core_compatiable.h ****  * limitations under the License.
  17:../Firmware/RISCV/drivers/core_compatiable.h ****  */
  18:../Firmware/RISCV/drivers/core_compatiable.h **** #ifndef __CORE_COMPATIABLE_H__
  19:../Firmware/RISCV/drivers/core_compatiable.h **** #define __CORE_COMPATIABLE_H__
  20:../Firmware/RISCV/drivers/core_compatiable.h **** /*!
  21:../Firmware/RISCV/drivers/core_compatiable.h ****  * @file     core_compatiable.h
  22:../Firmware/RISCV/drivers/core_compatiable.h ****  * @brief    ARM compatiable function definitions header file
  23:../Firmware/RISCV/drivers/core_compatiable.h ****  */
  24:../Firmware/RISCV/drivers/core_compatiable.h **** #ifdef __cplusplus
  25:../Firmware/RISCV/drivers/core_compatiable.h ****  extern "C" {
  26:../Firmware/RISCV/drivers/core_compatiable.h **** #endif
  27:../Firmware/RISCV/drivers/core_compatiable.h **** 
  28:../Firmware/RISCV/drivers/core_compatiable.h **** /* ===== ARM Compatiable Functions ===== */
  29:../Firmware/RISCV/drivers/core_compatiable.h **** /**
  30:../Firmware/RISCV/drivers/core_compatiable.h ****  * \defgroup NMSIS_Core_ARMCompatiable_Functions   ARM Compatiable Functions
  31:../Firmware/RISCV/drivers/core_compatiable.h ****  * \ingroup  NMSIS_Core
  32:../Firmware/RISCV/drivers/core_compatiable.h ****  * \brief    A few functions that compatiable with ARM CMSIS-Core.
  33:../Firmware/RISCV/drivers/core_compatiable.h ****  * \details
  34:../Firmware/RISCV/drivers/core_compatiable.h ****  *
  35:../Firmware/RISCV/drivers/core_compatiable.h ****  * Here we provided a few functions that compatiable with ARM CMSIS-Core,
  36:../Firmware/RISCV/drivers/core_compatiable.h ****  * mostly used in the DSP and NN library.
  37:../Firmware/RISCV/drivers/core_compatiable.h ****  * @{
  38:../Firmware/RISCV/drivers/core_compatiable.h ****  */
  39:../Firmware/RISCV/drivers/core_compatiable.h **** /** \brief Instruction Synchronization Barrier, compatiable with ARM */
  40:../Firmware/RISCV/drivers/core_compatiable.h **** #define __ISB()                             __RWMB()
  41:../Firmware/RISCV/drivers/core_compatiable.h **** 
  42:../Firmware/RISCV/drivers/core_compatiable.h **** /** \brief Data Synchronization Barrier, compatiable with ARM */
  43:../Firmware/RISCV/drivers/core_compatiable.h **** #define __DSB()                             __RWMB()
  44:../Firmware/RISCV/drivers/core_compatiable.h **** 
  45:../Firmware/RISCV/drivers/core_compatiable.h **** /** \brief Data Memory Barrier, compatiable with ARM */
  46:../Firmware/RISCV/drivers/core_compatiable.h **** #define __DMB()                             __RWMB()
  47:../Firmware/RISCV/drivers/core_compatiable.h **** 
  48:../Firmware/RISCV/drivers/core_compatiable.h **** /** \brief LDRT Unprivileged (8 bit), ARM Compatiable */
  49:../Firmware/RISCV/drivers/core_compatiable.h **** #define __LDRBT(ptr)                        __LB((ptr))
  50:../Firmware/RISCV/drivers/core_compatiable.h **** /** \brief LDRT Unprivileged (16 bit), ARM Compatiable */
  51:../Firmware/RISCV/drivers/core_compatiable.h **** #define __LDRHT(ptr)                        __LH((ptr))
  52:../Firmware/RISCV/drivers/core_compatiable.h **** /** \brief LDRT Unprivileged (32 bit), ARM Compatiable */
  53:../Firmware/RISCV/drivers/core_compatiable.h **** #define __LDRT(ptr)                         __LW((ptr))
  54:../Firmware/RISCV/drivers/core_compatiable.h **** 
  55:../Firmware/RISCV/drivers/core_compatiable.h **** /** \brief STRT Unprivileged (8 bit), ARM Compatiable */
  56:../Firmware/RISCV/drivers/core_compatiable.h **** #define __STRBT(val, ptr)                   __SB((ptr), (val))
  57:../Firmware/RISCV/drivers/core_compatiable.h **** /** \brief STRT Unprivileged (16 bit), ARM Compatiable */
  58:../Firmware/RISCV/drivers/core_compatiable.h **** #define __STRHT(val, ptr)                   __SH((ptr), (val))
  59:../Firmware/RISCV/drivers/core_compatiable.h **** /** \brief STRT Unprivileged (32 bit), ARM Compatiable */
  60:../Firmware/RISCV/drivers/core_compatiable.h **** #define __STRT(val, ptr)                    __SW((ptr), (val))
  61:../Firmware/RISCV/drivers/core_compatiable.h **** 
  62:../Firmware/RISCV/drivers/core_compatiable.h **** /* ===== Saturation Operations ===== */
  63:../Firmware/RISCV/drivers/core_compatiable.h **** /**
  64:../Firmware/RISCV/drivers/core_compatiable.h ****  * \brief   Signed Saturate
  65:../Firmware/RISCV/drivers/core_compatiable.h ****  * \details Saturates a signed value.
  66:../Firmware/RISCV/drivers/core_compatiable.h ****  * \param [in]  value  Value to be saturated
  67:../Firmware/RISCV/drivers/core_compatiable.h ****  * \param [in]    sat  Bit position to saturate to (1..32)
  68:../Firmware/RISCV/drivers/core_compatiable.h ****  * \return             Saturated value
  69:../Firmware/RISCV/drivers/core_compatiable.h ****  */
  70:../Firmware/RISCV/drivers/core_compatiable.h **** #if defined(__DSP_PRESENT) && (__DSP_PRESENT == 1)
  71:../Firmware/RISCV/drivers/core_compatiable.h **** #define __SSAT(val, sat)          __RV_SCLIP32((val), (sat-1))
  72:../Firmware/RISCV/drivers/core_compatiable.h **** #else
  73:../Firmware/RISCV/drivers/core_compatiable.h **** __STATIC_FORCEINLINE int32_t __SSAT(int32_t val, uint32_t sat)
  74:../Firmware/RISCV/drivers/core_compatiable.h **** {
  75:../Firmware/RISCV/drivers/core_compatiable.h ****     if ((sat >= 1U) && (sat <= 32U)) {
  76:../Firmware/RISCV/drivers/core_compatiable.h ****         const int32_t max = (int32_t)((1U << (sat - 1U)) - 1U);
  77:../Firmware/RISCV/drivers/core_compatiable.h ****         const int32_t min = -1 - max ;
  78:../Firmware/RISCV/drivers/core_compatiable.h ****         if (val > max) {
  79:../Firmware/RISCV/drivers/core_compatiable.h ****             return max;
  80:../Firmware/RISCV/drivers/core_compatiable.h ****         } else if (val < min) {
  81:../Firmware/RISCV/drivers/core_compatiable.h ****             return min;
  82:../Firmware/RISCV/drivers/core_compatiable.h ****         }
  83:../Firmware/RISCV/drivers/core_compatiable.h ****     }
  84:../Firmware/RISCV/drivers/core_compatiable.h ****     return val;
  85:../Firmware/RISCV/drivers/core_compatiable.h **** }
  86:../Firmware/RISCV/drivers/core_compatiable.h **** #endif
  87:../Firmware/RISCV/drivers/core_compatiable.h **** 
  88:../Firmware/RISCV/drivers/core_compatiable.h **** /**
  89:../Firmware/RISCV/drivers/core_compatiable.h ****  * \brief   Unsigned Saturate
  90:../Firmware/RISCV/drivers/core_compatiable.h ****  * \details Saturates an unsigned value.
  91:../Firmware/RISCV/drivers/core_compatiable.h ****  * \param [in]  value  Value to be saturated
  92:../Firmware/RISCV/drivers/core_compatiable.h ****  * \param [in]    sat  Bit position to saturate to (0..31)
  93:../Firmware/RISCV/drivers/core_compatiable.h ****  * \return             Saturated value
  94:../Firmware/RISCV/drivers/core_compatiable.h ****  */
  95:../Firmware/RISCV/drivers/core_compatiable.h **** #if defined(__DSP_PRESENT) && (__DSP_PRESENT == 1)
  96:../Firmware/RISCV/drivers/core_compatiable.h **** #define __USAT(val, sat)        __RV_UCLIP32((val), (sat))
  97:../Firmware/RISCV/drivers/core_compatiable.h **** #else
  98:../Firmware/RISCV/drivers/core_compatiable.h **** __STATIC_FORCEINLINE uint32_t __USAT(int32_t val, uint32_t sat)
  99:../Firmware/RISCV/drivers/core_compatiable.h **** {
 100:../Firmware/RISCV/drivers/core_compatiable.h ****     if (sat <= 31U) {
 101:../Firmware/RISCV/drivers/core_compatiable.h ****         const uint32_t max = ((1U << sat) - 1U);
 102:../Firmware/RISCV/drivers/core_compatiable.h ****         if (val > (int32_t)max) {
 103:../Firmware/RISCV/drivers/core_compatiable.h ****             return max;
 104:../Firmware/RISCV/drivers/core_compatiable.h ****         } else if (val < 0) {
 105:../Firmware/RISCV/drivers/core_compatiable.h ****             return 0U;
 106:../Firmware/RISCV/drivers/core_compatiable.h ****         }
 107:../Firmware/RISCV/drivers/core_compatiable.h ****     }
 108:../Firmware/RISCV/drivers/core_compatiable.h ****     return (uint32_t)val;
 109:../Firmware/RISCV/drivers/core_compatiable.h **** }
 110:../Firmware/RISCV/drivers/core_compatiable.h **** #endif
 111:../Firmware/RISCV/drivers/core_compatiable.h **** 
 112:../Firmware/RISCV/drivers/core_compatiable.h **** /* ===== Data Processing Operations ===== */
 113:../Firmware/RISCV/drivers/core_compatiable.h **** /**
 114:../Firmware/RISCV/drivers/core_compatiable.h ****  * \brief   Reverse byte order (32 bit)
 115:../Firmware/RISCV/drivers/core_compatiable.h ****  * \details Reverses the byte order in unsigned integer value.
 116:../Firmware/RISCV/drivers/core_compatiable.h ****  * For example, 0x12345678 becomes 0x78563412.
 117:../Firmware/RISCV/drivers/core_compatiable.h ****  * \param [in]    value  Value to reverse
 118:../Firmware/RISCV/drivers/core_compatiable.h ****  * \return               Reversed value
 119:../Firmware/RISCV/drivers/core_compatiable.h ****  */
 120:../Firmware/RISCV/drivers/core_compatiable.h **** __STATIC_FORCEINLINE uint32_t __REV(uint32_t value)
 121:../Firmware/RISCV/drivers/core_compatiable.h **** {
 122:../Firmware/RISCV/drivers/core_compatiable.h ****     uint32_t result;
 123:../Firmware/RISCV/drivers/core_compatiable.h **** 
 124:../Firmware/RISCV/drivers/core_compatiable.h ****     result =  ((value & 0xff000000) >> 24)
 427              		.loc 2 124 37
 428 0082 032784FC 		lw	a4,-56(s0)
 429 0086 93568701 		srli	a3,a4,24
 125:../Firmware/RISCV/drivers/core_compatiable.h ****         | ((value & 0x00ff0000) >> 8 )
 430              		.loc 2 125 33
 431 008a 032784FC 		lw	a4,-56(s0)
 432 008e 13568700 		srli	a2,a4,8
 433 0092 4167     		li	a4,65536
 434 0094 130707F0 		addi	a4,a4,-256
 435 0098 718F     		and	a4,a2,a4
 436              		.loc 2 125 9
 437 009a D98E     		or	a3,a3,a4
 126:../Firmware/RISCV/drivers/core_compatiable.h ****         | ((value & 0x0000ff00) << 8 )
 438              		.loc 2 126 33
 439 009c 032784FC 		lw	a4,-56(s0)
 440 00a0 13168700 		slli	a2,a4,8
 441 00a4 3707FF00 		li	a4,16711680
 442 00a8 718F     		and	a4,a2,a4
 443              		.loc 2 126 9
 444 00aa D98E     		or	a3,a3,a4
 127:../Firmware/RISCV/drivers/core_compatiable.h ****         | ((value & 0x000000ff) << 24);
 445              		.loc 2 127 33
 446 00ac 032784FC 		lw	a4,-56(s0)
 447 00b0 6207     		slli	a4,a4,24
 124:../Firmware/RISCV/drivers/core_compatiable.h ****         | ((value & 0x00ff0000) >> 8 )
 448              		.loc 2 124 12
 449 00b2 558F     		or	a4,a3,a4
 450 00b4 2322E4FC 		sw	a4,-60(s0)
 128:../Firmware/RISCV/drivers/core_compatiable.h ****     return result;
 451              		.loc 2 128 12
 452 00b8 032744FC 		lw	a4,-60(s0)
 453              	.LBE51:
 454              	.LBE50:
 188:../Firmware/GD32VW55x_standard_peripheral/Source/gd32vw55x_hau_sha_md5.c ****         outputaddr += 4U;
 455              		.loc 1 188 35
 456 00bc 98C3     		sw	a4,0(a5)
 189:../Firmware/GD32VW55x_standard_peripheral/Source/gd32vw55x_hau_sha_md5.c ****         *(uint32_t*)(outputaddr)  = __REV(digest_para.out[1]);
 457              		.loc 1 189 20
 458 00be 8327C4FE 		lw	a5,-20(s0)
 459 00c2 9107     		addi	a5,a5,4
 460 00c4 2326F4FE 		sw	a5,-20(s0)
 190:../Firmware/GD32VW55x_standard_peripheral/Source/gd32vw55x_hau_sha_md5.c ****         outputaddr += 4U;
 461              		.loc 1 190 37
 462 00c8 032704F1 		lw	a4,-240(s0)
 190:../Firmware/GD32VW55x_standard_peripheral/Source/gd32vw55x_hau_sha_md5.c ****         outputaddr += 4U;
 463              		.loc 1 190 10
 464 00cc 8327C4FE 		lw	a5,-20(s0)
 465 00d0 2328E4FC 		sw	a4,-48(s0)
 466              	.LBB52:
 467              	.LBB53:
 124:../Firmware/RISCV/drivers/core_compatiable.h ****         | ((value & 0x00ff0000) >> 8 )
 468              		.loc 2 124 37
 469 00d4 032704FD 		lw	a4,-48(s0)
 470 00d8 93568701 		srli	a3,a4,24
 125:../Firmware/RISCV/drivers/core_compatiable.h ****         | ((value & 0x0000ff00) << 8 )
 471              		.loc 2 125 33
 472 00dc 032704FD 		lw	a4,-48(s0)
 473 00e0 13568700 		srli	a2,a4,8
 474 00e4 4167     		li	a4,65536
 475 00e6 130707F0 		addi	a4,a4,-256
 476 00ea 718F     		and	a4,a2,a4
 125:../Firmware/RISCV/drivers/core_compatiable.h ****         | ((value & 0x0000ff00) << 8 )
 477              		.loc 2 125 9
 478 00ec D98E     		or	a3,a3,a4
 126:../Firmware/RISCV/drivers/core_compatiable.h ****         | ((value & 0x000000ff) << 24);
 479              		.loc 2 126 33
 480 00ee 032704FD 		lw	a4,-48(s0)
 481 00f2 13168700 		slli	a2,a4,8
 482 00f6 3707FF00 		li	a4,16711680
 483 00fa 718F     		and	a4,a2,a4
 126:../Firmware/RISCV/drivers/core_compatiable.h ****         | ((value & 0x000000ff) << 24);
 484              		.loc 2 126 9
 485 00fc D98E     		or	a3,a3,a4
 127:../Firmware/RISCV/drivers/core_compatiable.h ****     return result;
 486              		.loc 2 127 33
 487 00fe 032704FD 		lw	a4,-48(s0)
 488 0102 6207     		slli	a4,a4,24
 124:../Firmware/RISCV/drivers/core_compatiable.h ****         | ((value & 0x00ff0000) >> 8 )
 489              		.loc 2 124 12
 490 0104 558F     		or	a4,a3,a4
 491 0106 2326E4FC 		sw	a4,-52(s0)
 492              		.loc 2 128 12
 493 010a 0327C4FC 		lw	a4,-52(s0)
 494              	.LBE53:
 495              	.LBE52:
 190:../Firmware/GD32VW55x_standard_peripheral/Source/gd32vw55x_hau_sha_md5.c ****         outputaddr += 4U;
 496              		.loc 1 190 35
 497 010e 98C3     		sw	a4,0(a5)
 191:../Firmware/GD32VW55x_standard_peripheral/Source/gd32vw55x_hau_sha_md5.c ****         *(uint32_t*)(outputaddr)  = __REV(digest_para.out[2]);
 498              		.loc 1 191 20
 499 0110 8327C4FE 		lw	a5,-20(s0)
 500 0114 9107     		addi	a5,a5,4
 501 0116 2326F4FE 		sw	a5,-20(s0)
 192:../Firmware/GD32VW55x_standard_peripheral/Source/gd32vw55x_hau_sha_md5.c ****         outputaddr += 4U;
 502              		.loc 1 192 37
 503 011a 032744F1 		lw	a4,-236(s0)
 192:../Firmware/GD32VW55x_standard_peripheral/Source/gd32vw55x_hau_sha_md5.c ****         outputaddr += 4U;
 504              		.loc 1 192 10
 505 011e 8327C4FE 		lw	a5,-20(s0)
 506 0122 232CE4FC 		sw	a4,-40(s0)
 507              	.LBB54:
 508              	.LBB55:
 124:../Firmware/RISCV/drivers/core_compatiable.h ****         | ((value & 0x00ff0000) >> 8 )
 509              		.loc 2 124 37
 510 0126 032784FD 		lw	a4,-40(s0)
 511 012a 93568701 		srli	a3,a4,24
 125:../Firmware/RISCV/drivers/core_compatiable.h ****         | ((value & 0x0000ff00) << 8 )
 512              		.loc 2 125 33
 513 012e 032784FD 		lw	a4,-40(s0)
 514 0132 13568700 		srli	a2,a4,8
 515 0136 4167     		li	a4,65536
 516 0138 130707F0 		addi	a4,a4,-256
 517 013c 718F     		and	a4,a2,a4
 125:../Firmware/RISCV/drivers/core_compatiable.h ****         | ((value & 0x0000ff00) << 8 )
 518              		.loc 2 125 9
 519 013e D98E     		or	a3,a3,a4
 126:../Firmware/RISCV/drivers/core_compatiable.h ****         | ((value & 0x000000ff) << 24);
 520              		.loc 2 126 33
 521 0140 032784FD 		lw	a4,-40(s0)
 522 0144 13168700 		slli	a2,a4,8
 523 0148 3707FF00 		li	a4,16711680
 524 014c 718F     		and	a4,a2,a4
 126:../Firmware/RISCV/drivers/core_compatiable.h ****         | ((value & 0x000000ff) << 24);
 525              		.loc 2 126 9
 526 014e D98E     		or	a3,a3,a4
 127:../Firmware/RISCV/drivers/core_compatiable.h ****     return result;
 527              		.loc 2 127 33
 528 0150 032784FD 		lw	a4,-40(s0)
 529 0154 6207     		slli	a4,a4,24
 124:../Firmware/RISCV/drivers/core_compatiable.h ****         | ((value & 0x00ff0000) >> 8 )
 530              		.loc 2 124 12
 531 0156 558F     		or	a4,a3,a4
 532 0158 232AE4FC 		sw	a4,-44(s0)
 533              		.loc 2 128 12
 534 015c 032744FD 		lw	a4,-44(s0)
 535              	.LBE55:
 536              	.LBE54:
 192:../Firmware/GD32VW55x_standard_peripheral/Source/gd32vw55x_hau_sha_md5.c ****         outputaddr += 4U;
 537              		.loc 1 192 35
 538 0160 98C3     		sw	a4,0(a5)
 193:../Firmware/GD32VW55x_standard_peripheral/Source/gd32vw55x_hau_sha_md5.c ****         *(uint32_t*)(outputaddr)  = __REV(digest_para.out[3]);
 539              		.loc 1 193 20
 540 0162 8327C4FE 		lw	a5,-20(s0)
 541 0166 9107     		addi	a5,a5,4
 542 0168 2326F4FE 		sw	a5,-20(s0)
 194:../Firmware/GD32VW55x_standard_peripheral/Source/gd32vw55x_hau_sha_md5.c ****         outputaddr += 4U;
 543              		.loc 1 194 37
 544 016c 032784F1 		lw	a4,-232(s0)
 194:../Firmware/GD32VW55x_standard_peripheral/Source/gd32vw55x_hau_sha_md5.c ****         outputaddr += 4U;
 545              		.loc 1 194 10
 546 0170 8327C4FE 		lw	a5,-20(s0)
 547 0174 2320E4FE 		sw	a4,-32(s0)
 548              	.LBB56:
 549              	.LBB57:
 124:../Firmware/RISCV/drivers/core_compatiable.h ****         | ((value & 0x00ff0000) >> 8 )
 550              		.loc 2 124 37
 551 0178 032704FE 		lw	a4,-32(s0)
 552 017c 93568701 		srli	a3,a4,24
 125:../Firmware/RISCV/drivers/core_compatiable.h ****         | ((value & 0x0000ff00) << 8 )
 553              		.loc 2 125 33
 554 0180 032704FE 		lw	a4,-32(s0)
 555 0184 13568700 		srli	a2,a4,8
 556 0188 4167     		li	a4,65536
 557 018a 130707F0 		addi	a4,a4,-256
 558 018e 718F     		and	a4,a2,a4
 125:../Firmware/RISCV/drivers/core_compatiable.h ****         | ((value & 0x0000ff00) << 8 )
 559              		.loc 2 125 9
 560 0190 D98E     		or	a3,a3,a4
 126:../Firmware/RISCV/drivers/core_compatiable.h ****         | ((value & 0x000000ff) << 24);
 561              		.loc 2 126 33
 562 0192 032704FE 		lw	a4,-32(s0)
 563 0196 13168700 		slli	a2,a4,8
 564 019a 3707FF00 		li	a4,16711680
 565 019e 718F     		and	a4,a2,a4
 126:../Firmware/RISCV/drivers/core_compatiable.h ****         | ((value & 0x000000ff) << 24);
 566              		.loc 2 126 9
 567 01a0 D98E     		or	a3,a3,a4
 127:../Firmware/RISCV/drivers/core_compatiable.h ****     return result;
 568              		.loc 2 127 33
 569 01a2 032704FE 		lw	a4,-32(s0)
 570 01a6 6207     		slli	a4,a4,24
 124:../Firmware/RISCV/drivers/core_compatiable.h ****         | ((value & 0x00ff0000) >> 8 )
 571              		.loc 2 124 12
 572 01a8 558F     		or	a4,a3,a4
 573 01aa 232EE4FC 		sw	a4,-36(s0)
 574              		.loc 2 128 12
 575 01ae 0327C4FD 		lw	a4,-36(s0)
 576              	.LBE57:
 577              	.LBE56:
 194:../Firmware/GD32VW55x_standard_peripheral/Source/gd32vw55x_hau_sha_md5.c ****         outputaddr += 4U;
 578              		.loc 1 194 35
 579 01b2 98C3     		sw	a4,0(a5)
 195:../Firmware/GD32VW55x_standard_peripheral/Source/gd32vw55x_hau_sha_md5.c ****         *(uint32_t*)(outputaddr)  = __REV(digest_para.out[4]);
 580              		.loc 1 195 20
 581 01b4 8327C4FE 		lw	a5,-20(s0)
 582 01b8 9107     		addi	a5,a5,4
 583 01ba 2326F4FE 		sw	a5,-20(s0)
 196:../Firmware/GD32VW55x_standard_peripheral/Source/gd32vw55x_hau_sha_md5.c ****         break;
 584              		.loc 1 196 37
 585 01be 0327C4F1 		lw	a4,-228(s0)
 196:../Firmware/GD32VW55x_standard_peripheral/Source/gd32vw55x_hau_sha_md5.c ****         break;
 586              		.loc 1 196 10
 587 01c2 8327C4FE 		lw	a5,-20(s0)
 588 01c6 2324E4FE 		sw	a4,-24(s0)
 589              	.LBB58:
 590              	.LBB59:
 124:../Firmware/RISCV/drivers/core_compatiable.h ****         | ((value & 0x00ff0000) >> 8 )
 591              		.loc 2 124 37
 592 01ca 032784FE 		lw	a4,-24(s0)
 593 01ce 93568701 		srli	a3,a4,24
 125:../Firmware/RISCV/drivers/core_compatiable.h ****         | ((value & 0x0000ff00) << 8 )
 594              		.loc 2 125 33
 595 01d2 032784FE 		lw	a4,-24(s0)
 596 01d6 13568700 		srli	a2,a4,8
 597 01da 4167     		li	a4,65536
 598 01dc 130707F0 		addi	a4,a4,-256
 599 01e0 718F     		and	a4,a2,a4
 125:../Firmware/RISCV/drivers/core_compatiable.h ****         | ((value & 0x0000ff00) << 8 )
 600              		.loc 2 125 9
 601 01e2 D98E     		or	a3,a3,a4
 126:../Firmware/RISCV/drivers/core_compatiable.h ****         | ((value & 0x000000ff) << 24);
 602              		.loc 2 126 33
 603 01e4 032784FE 		lw	a4,-24(s0)
 604 01e8 13168700 		slli	a2,a4,8
 605 01ec 3707FF00 		li	a4,16711680
 606 01f0 718F     		and	a4,a2,a4
 126:../Firmware/RISCV/drivers/core_compatiable.h ****         | ((value & 0x000000ff) << 24);
 607              		.loc 2 126 9
 608 01f2 D98E     		or	a3,a3,a4
 127:../Firmware/RISCV/drivers/core_compatiable.h ****     return result;
 609              		.loc 2 127 33
 610 01f4 032784FE 		lw	a4,-24(s0)
 611 01f8 6207     		slli	a4,a4,24
 124:../Firmware/RISCV/drivers/core_compatiable.h ****         | ((value & 0x00ff0000) >> 8 )
 612              		.loc 2 124 12
 613 01fa 558F     		or	a4,a3,a4
 614 01fc 2322E4FE 		sw	a4,-28(s0)
 615              		.loc 2 128 12
 616 0200 032744FE 		lw	a4,-28(s0)
 617              	.LBE59:
 618              	.LBE58:
 196:../Firmware/GD32VW55x_standard_peripheral/Source/gd32vw55x_hau_sha_md5.c ****         break;
 619              		.loc 1 196 35
 620 0204 98C3     		sw	a4,0(a5)
 197:../Firmware/GD32VW55x_standard_peripheral/Source/gd32vw55x_hau_sha_md5.c ****     case HAU_ALGO_SHA224:
 621              		.loc 1 197 9
 622 0206 35A5     		j	.L28
 623              	.L20:
 199:../Firmware/GD32VW55x_standard_peripheral/Source/gd32vw55x_hau_sha_md5.c ****         *(uint32_t*)(outputaddr)  = __REV(digest_para.out[0]);
 624              		.loc 1 199 9
 625 0208 9307C4F0 		addi	a5,s0,-244
 626 020c 3E85     		mv	a0,a5
 627 020e 97000000 		call	hau_digest_read
 627      E7800000 
 200:../Firmware/GD32VW55x_standard_peripheral/Source/gd32vw55x_hau_sha_md5.c ****         outputaddr += 4U;
 628              		.loc 1 200 37
 629 0216 0327C4F0 		lw	a4,-244(s0)
 200:../Firmware/GD32VW55x_standard_peripheral/Source/gd32vw55x_hau_sha_md5.c ****         outputaddr += 4U;
 630              		.loc 1 200 10
 631 021a 8327C4FE 		lw	a5,-20(s0)
 632 021e 2328E4F8 		sw	a4,-112(s0)
 633              	.LBB60:
 634              	.LBB61:
 124:../Firmware/RISCV/drivers/core_compatiable.h ****         | ((value & 0x00ff0000) >> 8 )
 635              		.loc 2 124 37
 636 0222 032704F9 		lw	a4,-112(s0)
 637 0226 93568701 		srli	a3,a4,24
 125:../Firmware/RISCV/drivers/core_compatiable.h ****         | ((value & 0x0000ff00) << 8 )
 638              		.loc 2 125 33
 639 022a 032704F9 		lw	a4,-112(s0)
 640 022e 13568700 		srli	a2,a4,8
 641 0232 4167     		li	a4,65536
 642 0234 130707F0 		addi	a4,a4,-256
 643 0238 718F     		and	a4,a2,a4
 125:../Firmware/RISCV/drivers/core_compatiable.h ****         | ((value & 0x0000ff00) << 8 )
 644              		.loc 2 125 9
 645 023a D98E     		or	a3,a3,a4
 126:../Firmware/RISCV/drivers/core_compatiable.h ****         | ((value & 0x000000ff) << 24);
 646              		.loc 2 126 33
 647 023c 032704F9 		lw	a4,-112(s0)
 648 0240 13168700 		slli	a2,a4,8
 649 0244 3707FF00 		li	a4,16711680
 650 0248 718F     		and	a4,a2,a4
 126:../Firmware/RISCV/drivers/core_compatiable.h ****         | ((value & 0x000000ff) << 24);
 651              		.loc 2 126 9
 652 024a D98E     		or	a3,a3,a4
 127:../Firmware/RISCV/drivers/core_compatiable.h ****     return result;
 653              		.loc 2 127 33
 654 024c 032704F9 		lw	a4,-112(s0)
 655 0250 6207     		slli	a4,a4,24
 124:../Firmware/RISCV/drivers/core_compatiable.h ****         | ((value & 0x00ff0000) >> 8 )
 656              		.loc 2 124 12
 657 0252 558F     		or	a4,a3,a4
 658 0254 2326E4F8 		sw	a4,-116(s0)
 659              		.loc 2 128 12
 660 0258 0327C4F8 		lw	a4,-116(s0)
 661              	.LBE61:
 662              	.LBE60:
 200:../Firmware/GD32VW55x_standard_peripheral/Source/gd32vw55x_hau_sha_md5.c ****         outputaddr += 4U;
 663              		.loc 1 200 35
 664 025c 98C3     		sw	a4,0(a5)
 201:../Firmware/GD32VW55x_standard_peripheral/Source/gd32vw55x_hau_sha_md5.c ****         *(uint32_t*)(outputaddr)  = __REV(digest_para.out[1]);
 665              		.loc 1 201 20
 666 025e 8327C4FE 		lw	a5,-20(s0)
 667 0262 9107     		addi	a5,a5,4
 668 0264 2326F4FE 		sw	a5,-20(s0)
 202:../Firmware/GD32VW55x_standard_peripheral/Source/gd32vw55x_hau_sha_md5.c ****         outputaddr += 4U;
 669              		.loc 1 202 37
 670 0268 032704F1 		lw	a4,-240(s0)
 202:../Firmware/GD32VW55x_standard_peripheral/Source/gd32vw55x_hau_sha_md5.c ****         outputaddr += 4U;
 671              		.loc 1 202 10
 672 026c 8327C4FE 		lw	a5,-20(s0)
 673 0270 232CE4F8 		sw	a4,-104(s0)
 674              	.LBB62:
 675              	.LBB63:
 124:../Firmware/RISCV/drivers/core_compatiable.h ****         | ((value & 0x00ff0000) >> 8 )
 676              		.loc 2 124 37
 677 0274 032784F9 		lw	a4,-104(s0)
 678 0278 93568701 		srli	a3,a4,24
 125:../Firmware/RISCV/drivers/core_compatiable.h ****         | ((value & 0x0000ff00) << 8 )
 679              		.loc 2 125 33
 680 027c 032784F9 		lw	a4,-104(s0)
 681 0280 13568700 		srli	a2,a4,8
 682 0284 4167     		li	a4,65536
 683 0286 130707F0 		addi	a4,a4,-256
 684 028a 718F     		and	a4,a2,a4
 125:../Firmware/RISCV/drivers/core_compatiable.h ****         | ((value & 0x0000ff00) << 8 )
 685              		.loc 2 125 9
 686 028c D98E     		or	a3,a3,a4
 126:../Firmware/RISCV/drivers/core_compatiable.h ****         | ((value & 0x000000ff) << 24);
 687              		.loc 2 126 33
 688 028e 032784F9 		lw	a4,-104(s0)
 689 0292 13168700 		slli	a2,a4,8
 690 0296 3707FF00 		li	a4,16711680
 691 029a 718F     		and	a4,a2,a4
 126:../Firmware/RISCV/drivers/core_compatiable.h ****         | ((value & 0x000000ff) << 24);
 692              		.loc 2 126 9
 693 029c D98E     		or	a3,a3,a4
 127:../Firmware/RISCV/drivers/core_compatiable.h ****     return result;
 694              		.loc 2 127 33
 695 029e 032784F9 		lw	a4,-104(s0)
 696 02a2 6207     		slli	a4,a4,24
 124:../Firmware/RISCV/drivers/core_compatiable.h ****         | ((value & 0x00ff0000) >> 8 )
 697              		.loc 2 124 12
 698 02a4 558F     		or	a4,a3,a4
 699 02a6 232AE4F8 		sw	a4,-108(s0)
 700              		.loc 2 128 12
 701 02aa 032744F9 		lw	a4,-108(s0)
 702              	.LBE63:
 703              	.LBE62:
 202:../Firmware/GD32VW55x_standard_peripheral/Source/gd32vw55x_hau_sha_md5.c ****         outputaddr += 4U;
 704              		.loc 1 202 35
 705 02ae 98C3     		sw	a4,0(a5)
 203:../Firmware/GD32VW55x_standard_peripheral/Source/gd32vw55x_hau_sha_md5.c ****         *(uint32_t*)(outputaddr)  = __REV(digest_para.out[2]);
 706              		.loc 1 203 20
 707 02b0 8327C4FE 		lw	a5,-20(s0)
 708 02b4 9107     		addi	a5,a5,4
 709 02b6 2326F4FE 		sw	a5,-20(s0)
 204:../Firmware/GD32VW55x_standard_peripheral/Source/gd32vw55x_hau_sha_md5.c ****         outputaddr += 4U;
 710              		.loc 1 204 37
 711 02ba 032744F1 		lw	a4,-236(s0)
 204:../Firmware/GD32VW55x_standard_peripheral/Source/gd32vw55x_hau_sha_md5.c ****         outputaddr += 4U;
 712              		.loc 1 204 10
 713 02be 8327C4FE 		lw	a5,-20(s0)
 714 02c2 2320E4FA 		sw	a4,-96(s0)
 715              	.LBB64:
 716              	.LBB65:
 124:../Firmware/RISCV/drivers/core_compatiable.h ****         | ((value & 0x00ff0000) >> 8 )
 717              		.loc 2 124 37
 718 02c6 032704FA 		lw	a4,-96(s0)
 719 02ca 93568701 		srli	a3,a4,24
 125:../Firmware/RISCV/drivers/core_compatiable.h ****         | ((value & 0x0000ff00) << 8 )
 720              		.loc 2 125 33
 721 02ce 032704FA 		lw	a4,-96(s0)
 722 02d2 13568700 		srli	a2,a4,8
 723 02d6 4167     		li	a4,65536
 724 02d8 130707F0 		addi	a4,a4,-256
 725 02dc 718F     		and	a4,a2,a4
 125:../Firmware/RISCV/drivers/core_compatiable.h ****         | ((value & 0x0000ff00) << 8 )
 726              		.loc 2 125 9
 727 02de D98E     		or	a3,a3,a4
 126:../Firmware/RISCV/drivers/core_compatiable.h ****         | ((value & 0x000000ff) << 24);
 728              		.loc 2 126 33
 729 02e0 032704FA 		lw	a4,-96(s0)
 730 02e4 13168700 		slli	a2,a4,8
 731 02e8 3707FF00 		li	a4,16711680
 732 02ec 718F     		and	a4,a2,a4
 126:../Firmware/RISCV/drivers/core_compatiable.h ****         | ((value & 0x000000ff) << 24);
 733              		.loc 2 126 9
 734 02ee D98E     		or	a3,a3,a4
 127:../Firmware/RISCV/drivers/core_compatiable.h ****     return result;
 735              		.loc 2 127 33
 736 02f0 032704FA 		lw	a4,-96(s0)
 737 02f4 6207     		slli	a4,a4,24
 124:../Firmware/RISCV/drivers/core_compatiable.h ****         | ((value & 0x00ff0000) >> 8 )
 738              		.loc 2 124 12
 739 02f6 558F     		or	a4,a3,a4
 740 02f8 232EE4F8 		sw	a4,-100(s0)
 741              		.loc 2 128 12
 742 02fc 0327C4F9 		lw	a4,-100(s0)
 743              	.LBE65:
 744              	.LBE64:
 204:../Firmware/GD32VW55x_standard_peripheral/Source/gd32vw55x_hau_sha_md5.c ****         outputaddr += 4U;
 745              		.loc 1 204 35
 746 0300 98C3     		sw	a4,0(a5)
 205:../Firmware/GD32VW55x_standard_peripheral/Source/gd32vw55x_hau_sha_md5.c ****         *(uint32_t*)(outputaddr)  = __REV(digest_para.out[3]);
 747              		.loc 1 205 20
 748 0302 8327C4FE 		lw	a5,-20(s0)
 749 0306 9107     		addi	a5,a5,4
 750 0308 2326F4FE 		sw	a5,-20(s0)
 206:../Firmware/GD32VW55x_standard_peripheral/Source/gd32vw55x_hau_sha_md5.c ****         outputaddr += 4U;
 751              		.loc 1 206 37
 752 030c 032784F1 		lw	a4,-232(s0)
 206:../Firmware/GD32VW55x_standard_peripheral/Source/gd32vw55x_hau_sha_md5.c ****         outputaddr += 4U;
 753              		.loc 1 206 10
 754 0310 8327C4FE 		lw	a5,-20(s0)
 755 0314 2324E4FA 		sw	a4,-88(s0)
 756              	.LBB66:
 757              	.LBB67:
 124:../Firmware/RISCV/drivers/core_compatiable.h ****         | ((value & 0x00ff0000) >> 8 )
 758              		.loc 2 124 37
 759 0318 032784FA 		lw	a4,-88(s0)
 760 031c 93568701 		srli	a3,a4,24
 125:../Firmware/RISCV/drivers/core_compatiable.h ****         | ((value & 0x0000ff00) << 8 )
 761              		.loc 2 125 33
 762 0320 032784FA 		lw	a4,-88(s0)
 763 0324 13568700 		srli	a2,a4,8
 764 0328 4167     		li	a4,65536
 765 032a 130707F0 		addi	a4,a4,-256
 766 032e 718F     		and	a4,a2,a4
 125:../Firmware/RISCV/drivers/core_compatiable.h ****         | ((value & 0x0000ff00) << 8 )
 767              		.loc 2 125 9
 768 0330 D98E     		or	a3,a3,a4
 126:../Firmware/RISCV/drivers/core_compatiable.h ****         | ((value & 0x000000ff) << 24);
 769              		.loc 2 126 33
 770 0332 032784FA 		lw	a4,-88(s0)
 771 0336 13168700 		slli	a2,a4,8
 772 033a 3707FF00 		li	a4,16711680
 773 033e 718F     		and	a4,a2,a4
 126:../Firmware/RISCV/drivers/core_compatiable.h ****         | ((value & 0x000000ff) << 24);
 774              		.loc 2 126 9
 775 0340 D98E     		or	a3,a3,a4
 127:../Firmware/RISCV/drivers/core_compatiable.h ****     return result;
 776              		.loc 2 127 33
 777 0342 032784FA 		lw	a4,-88(s0)
 778 0346 6207     		slli	a4,a4,24
 124:../Firmware/RISCV/drivers/core_compatiable.h ****         | ((value & 0x00ff0000) >> 8 )
 779              		.loc 2 124 12
 780 0348 558F     		or	a4,a3,a4
 781 034a 2322E4FA 		sw	a4,-92(s0)
 782              		.loc 2 128 12
 783 034e 032744FA 		lw	a4,-92(s0)
 784              	.LBE67:
 785              	.LBE66:
 206:../Firmware/GD32VW55x_standard_peripheral/Source/gd32vw55x_hau_sha_md5.c ****         outputaddr += 4U;
 786              		.loc 1 206 35
 787 0352 98C3     		sw	a4,0(a5)
 207:../Firmware/GD32VW55x_standard_peripheral/Source/gd32vw55x_hau_sha_md5.c ****         *(uint32_t*)(outputaddr)  = __REV(digest_para.out[4]);
 788              		.loc 1 207 20
 789 0354 8327C4FE 		lw	a5,-20(s0)
 790 0358 9107     		addi	a5,a5,4
 791 035a 2326F4FE 		sw	a5,-20(s0)
 208:../Firmware/GD32VW55x_standard_peripheral/Source/gd32vw55x_hau_sha_md5.c ****         outputaddr += 4U;
 792              		.loc 1 208 37
 793 035e 0327C4F1 		lw	a4,-228(s0)
 208:../Firmware/GD32VW55x_standard_peripheral/Source/gd32vw55x_hau_sha_md5.c ****         outputaddr += 4U;
 794              		.loc 1 208 10
 795 0362 8327C4FE 		lw	a5,-20(s0)
 796 0366 2328E4FA 		sw	a4,-80(s0)
 797              	.LBB68:
 798              	.LBB69:
 124:../Firmware/RISCV/drivers/core_compatiable.h ****         | ((value & 0x00ff0000) >> 8 )
 799              		.loc 2 124 37
 800 036a 032704FB 		lw	a4,-80(s0)
 801 036e 93568701 		srli	a3,a4,24
 125:../Firmware/RISCV/drivers/core_compatiable.h ****         | ((value & 0x0000ff00) << 8 )
 802              		.loc 2 125 33
 803 0372 032704FB 		lw	a4,-80(s0)
 804 0376 13568700 		srli	a2,a4,8
 805 037a 4167     		li	a4,65536
 806 037c 130707F0 		addi	a4,a4,-256
 807 0380 718F     		and	a4,a2,a4
 125:../Firmware/RISCV/drivers/core_compatiable.h ****         | ((value & 0x0000ff00) << 8 )
 808              		.loc 2 125 9
 809 0382 D98E     		or	a3,a3,a4
 126:../Firmware/RISCV/drivers/core_compatiable.h ****         | ((value & 0x000000ff) << 24);
 810              		.loc 2 126 33
 811 0384 032704FB 		lw	a4,-80(s0)
 812 0388 13168700 		slli	a2,a4,8
 813 038c 3707FF00 		li	a4,16711680
 814 0390 718F     		and	a4,a2,a4
 126:../Firmware/RISCV/drivers/core_compatiable.h ****         | ((value & 0x000000ff) << 24);
 815              		.loc 2 126 9
 816 0392 D98E     		or	a3,a3,a4
 127:../Firmware/RISCV/drivers/core_compatiable.h ****     return result;
 817              		.loc 2 127 33
 818 0394 032704FB 		lw	a4,-80(s0)
 819 0398 6207     		slli	a4,a4,24
 124:../Firmware/RISCV/drivers/core_compatiable.h ****         | ((value & 0x00ff0000) >> 8 )
 820              		.loc 2 124 12
 821 039a 558F     		or	a4,a3,a4
 822 039c 2326E4FA 		sw	a4,-84(s0)
 823              		.loc 2 128 12
 824 03a0 0327C4FA 		lw	a4,-84(s0)
 825              	.LBE69:
 826              	.LBE68:
 208:../Firmware/GD32VW55x_standard_peripheral/Source/gd32vw55x_hau_sha_md5.c ****         outputaddr += 4U;
 827              		.loc 1 208 35
 828 03a4 98C3     		sw	a4,0(a5)
 209:../Firmware/GD32VW55x_standard_peripheral/Source/gd32vw55x_hau_sha_md5.c ****         *(uint32_t*)(outputaddr)  = __REV(digest_para.out[5]);
 829              		.loc 1 209 20
 830 03a6 8327C4FE 		lw	a5,-20(s0)
 831 03aa 9107     		addi	a5,a5,4
 832 03ac 2326F4FE 		sw	a5,-20(s0)
 210:../Firmware/GD32VW55x_standard_peripheral/Source/gd32vw55x_hau_sha_md5.c ****         outputaddr += 4U;
 833              		.loc 1 210 37
 834 03b0 032704F2 		lw	a4,-224(s0)
 210:../Firmware/GD32VW55x_standard_peripheral/Source/gd32vw55x_hau_sha_md5.c ****         outputaddr += 4U;
 835              		.loc 1 210 10
 836 03b4 8327C4FE 		lw	a5,-20(s0)
 837 03b8 232CE4FA 		sw	a4,-72(s0)
 838              	.LBB70:
 839              	.LBB71:
 124:../Firmware/RISCV/drivers/core_compatiable.h ****         | ((value & 0x00ff0000) >> 8 )
 840              		.loc 2 124 37
 841 03bc 032784FB 		lw	a4,-72(s0)
 842 03c0 93568701 		srli	a3,a4,24
 125:../Firmware/RISCV/drivers/core_compatiable.h ****         | ((value & 0x0000ff00) << 8 )
 843              		.loc 2 125 33
 844 03c4 032784FB 		lw	a4,-72(s0)
 845 03c8 13568700 		srli	a2,a4,8
 846 03cc 4167     		li	a4,65536
 847 03ce 130707F0 		addi	a4,a4,-256
 848 03d2 718F     		and	a4,a2,a4
 125:../Firmware/RISCV/drivers/core_compatiable.h ****         | ((value & 0x0000ff00) << 8 )
 849              		.loc 2 125 9
 850 03d4 D98E     		or	a3,a3,a4
 126:../Firmware/RISCV/drivers/core_compatiable.h ****         | ((value & 0x000000ff) << 24);
 851              		.loc 2 126 33
 852 03d6 032784FB 		lw	a4,-72(s0)
 853 03da 13168700 		slli	a2,a4,8
 854 03de 3707FF00 		li	a4,16711680
 855 03e2 718F     		and	a4,a2,a4
 126:../Firmware/RISCV/drivers/core_compatiable.h ****         | ((value & 0x000000ff) << 24);
 856              		.loc 2 126 9
 857 03e4 D98E     		or	a3,a3,a4
 127:../Firmware/RISCV/drivers/core_compatiable.h ****     return result;
 858              		.loc 2 127 33
 859 03e6 032784FB 		lw	a4,-72(s0)
 860 03ea 6207     		slli	a4,a4,24
 124:../Firmware/RISCV/drivers/core_compatiable.h ****         | ((value & 0x00ff0000) >> 8 )
 861              		.loc 2 124 12
 862 03ec 558F     		or	a4,a3,a4
 863 03ee 232AE4FA 		sw	a4,-76(s0)
 864              		.loc 2 128 12
 865 03f2 032744FB 		lw	a4,-76(s0)
 866              	.LBE71:
 867              	.LBE70:
 210:../Firmware/GD32VW55x_standard_peripheral/Source/gd32vw55x_hau_sha_md5.c ****         outputaddr += 4U;
 868              		.loc 1 210 35
 869 03f6 98C3     		sw	a4,0(a5)
 211:../Firmware/GD32VW55x_standard_peripheral/Source/gd32vw55x_hau_sha_md5.c ****         *(uint32_t*)(outputaddr)  = __REV(digest_para.out[6]);
 870              		.loc 1 211 20
 871 03f8 8327C4FE 		lw	a5,-20(s0)
 872 03fc 9107     		addi	a5,a5,4
 873 03fe 2326F4FE 		sw	a5,-20(s0)
 212:../Firmware/GD32VW55x_standard_peripheral/Source/gd32vw55x_hau_sha_md5.c ****         break;
 874              		.loc 1 212 37
 875 0402 032744F2 		lw	a4,-220(s0)
 212:../Firmware/GD32VW55x_standard_peripheral/Source/gd32vw55x_hau_sha_md5.c ****         break;
 876              		.loc 1 212 10
 877 0406 8327C4FE 		lw	a5,-20(s0)
 878 040a 2320E4FC 		sw	a4,-64(s0)
 879              	.LBB72:
 880              	.LBB73:
 124:../Firmware/RISCV/drivers/core_compatiable.h ****         | ((value & 0x00ff0000) >> 8 )
 881              		.loc 2 124 37
 882 040e 032704FC 		lw	a4,-64(s0)
 883 0412 93568701 		srli	a3,a4,24
 125:../Firmware/RISCV/drivers/core_compatiable.h ****         | ((value & 0x0000ff00) << 8 )
 884              		.loc 2 125 33
 885 0416 032704FC 		lw	a4,-64(s0)
 886 041a 13568700 		srli	a2,a4,8
 887 041e 4167     		li	a4,65536
 888 0420 130707F0 		addi	a4,a4,-256
 889 0424 718F     		and	a4,a2,a4
 125:../Firmware/RISCV/drivers/core_compatiable.h ****         | ((value & 0x0000ff00) << 8 )
 890              		.loc 2 125 9
 891 0426 D98E     		or	a3,a3,a4
 126:../Firmware/RISCV/drivers/core_compatiable.h ****         | ((value & 0x000000ff) << 24);
 892              		.loc 2 126 33
 893 0428 032704FC 		lw	a4,-64(s0)
 894 042c 13168700 		slli	a2,a4,8
 895 0430 3707FF00 		li	a4,16711680
 896 0434 718F     		and	a4,a2,a4
 126:../Firmware/RISCV/drivers/core_compatiable.h ****         | ((value & 0x000000ff) << 24);
 897              		.loc 2 126 9
 898 0436 D98E     		or	a3,a3,a4
 127:../Firmware/RISCV/drivers/core_compatiable.h ****     return result;
 899              		.loc 2 127 33
 900 0438 032704FC 		lw	a4,-64(s0)
 901 043c 6207     		slli	a4,a4,24
 124:../Firmware/RISCV/drivers/core_compatiable.h ****         | ((value & 0x00ff0000) >> 8 )
 902              		.loc 2 124 12
 903 043e 558F     		or	a4,a3,a4
 904 0440 232EE4FA 		sw	a4,-68(s0)
 905              		.loc 2 128 12
 906 0444 0327C4FB 		lw	a4,-68(s0)
 907              	.LBE73:
 908              	.LBE72:
 212:../Firmware/GD32VW55x_standard_peripheral/Source/gd32vw55x_hau_sha_md5.c ****         break;
 909              		.loc 1 212 35
 910 0448 98C3     		sw	a4,0(a5)
 213:../Firmware/GD32VW55x_standard_peripheral/Source/gd32vw55x_hau_sha_md5.c ****     case HAU_ALGO_SHA256:
 911              		.loc 1 213 9
 912 044a E5A6     		j	.L28
 913              	.L18:
 215:../Firmware/GD32VW55x_standard_peripheral/Source/gd32vw55x_hau_sha_md5.c ****         *(uint32_t*)(outputaddr)  = __REV(digest_para.out[0]);
 914              		.loc 1 215 9
 915 044c 9307C4F0 		addi	a5,s0,-244
 916 0450 3E85     		mv	a0,a5
 917 0452 97000000 		call	hau_digest_read
 917      E7800000 
 216:../Firmware/GD32VW55x_standard_peripheral/Source/gd32vw55x_hau_sha_md5.c ****         outputaddr += 4U;
 918              		.loc 1 216 37
 919 045a 0327C4F0 		lw	a4,-244(s0)
 216:../Firmware/GD32VW55x_standard_peripheral/Source/gd32vw55x_hau_sha_md5.c ****         outputaddr += 4U;
 920              		.loc 1 216 10
 921 045e 8327C4FE 		lw	a5,-20(s0)
 922 0462 2328E4F4 		sw	a4,-176(s0)
 923              	.LBB74:
 924              	.LBB75:
 124:../Firmware/RISCV/drivers/core_compatiable.h ****         | ((value & 0x00ff0000) >> 8 )
 925              		.loc 2 124 37
 926 0466 032704F5 		lw	a4,-176(s0)
 927 046a 93568701 		srli	a3,a4,24
 125:../Firmware/RISCV/drivers/core_compatiable.h ****         | ((value & 0x0000ff00) << 8 )
 928              		.loc 2 125 33
 929 046e 032704F5 		lw	a4,-176(s0)
 930 0472 13568700 		srli	a2,a4,8
 931 0476 4167     		li	a4,65536
 932 0478 130707F0 		addi	a4,a4,-256
 933 047c 718F     		and	a4,a2,a4
 125:../Firmware/RISCV/drivers/core_compatiable.h ****         | ((value & 0x0000ff00) << 8 )
 934              		.loc 2 125 9
 935 047e D98E     		or	a3,a3,a4
 126:../Firmware/RISCV/drivers/core_compatiable.h ****         | ((value & 0x000000ff) << 24);
 936              		.loc 2 126 33
 937 0480 032704F5 		lw	a4,-176(s0)
 938 0484 13168700 		slli	a2,a4,8
 939 0488 3707FF00 		li	a4,16711680
 940 048c 718F     		and	a4,a2,a4
 126:../Firmware/RISCV/drivers/core_compatiable.h ****         | ((value & 0x000000ff) << 24);
 941              		.loc 2 126 9
 942 048e D98E     		or	a3,a3,a4
 127:../Firmware/RISCV/drivers/core_compatiable.h ****     return result;
 943              		.loc 2 127 33
 944 0490 032704F5 		lw	a4,-176(s0)
 945 0494 6207     		slli	a4,a4,24
 124:../Firmware/RISCV/drivers/core_compatiable.h ****         | ((value & 0x00ff0000) >> 8 )
 946              		.loc 2 124 12
 947 0496 558F     		or	a4,a3,a4
 948 0498 2326E4F4 		sw	a4,-180(s0)
 949              		.loc 2 128 12
 950 049c 0327C4F4 		lw	a4,-180(s0)
 951              	.LBE75:
 952              	.LBE74:
 216:../Firmware/GD32VW55x_standard_peripheral/Source/gd32vw55x_hau_sha_md5.c ****         outputaddr += 4U;
 953              		.loc 1 216 35
 954 04a0 98C3     		sw	a4,0(a5)
 217:../Firmware/GD32VW55x_standard_peripheral/Source/gd32vw55x_hau_sha_md5.c ****         *(uint32_t*)(outputaddr)  = __REV(digest_para.out[1]);
 955              		.loc 1 217 20
 956 04a2 8327C4FE 		lw	a5,-20(s0)
 957 04a6 9107     		addi	a5,a5,4
 958 04a8 2326F4FE 		sw	a5,-20(s0)
 218:../Firmware/GD32VW55x_standard_peripheral/Source/gd32vw55x_hau_sha_md5.c ****         outputaddr += 4U;
 959              		.loc 1 218 37
 960 04ac 032704F1 		lw	a4,-240(s0)
 218:../Firmware/GD32VW55x_standard_peripheral/Source/gd32vw55x_hau_sha_md5.c ****         outputaddr += 4U;
 961              		.loc 1 218 10
 962 04b0 8327C4FE 		lw	a5,-20(s0)
 963 04b4 232CE4F4 		sw	a4,-168(s0)
 964              	.LBB76:
 965              	.LBB77:
 124:../Firmware/RISCV/drivers/core_compatiable.h ****         | ((value & 0x00ff0000) >> 8 )
 966              		.loc 2 124 37
 967 04b8 032784F5 		lw	a4,-168(s0)
 968 04bc 93568701 		srli	a3,a4,24
 125:../Firmware/RISCV/drivers/core_compatiable.h ****         | ((value & 0x0000ff00) << 8 )
 969              		.loc 2 125 33
 970 04c0 032784F5 		lw	a4,-168(s0)
 971 04c4 13568700 		srli	a2,a4,8
 972 04c8 4167     		li	a4,65536
 973 04ca 130707F0 		addi	a4,a4,-256
 974 04ce 718F     		and	a4,a2,a4
 125:../Firmware/RISCV/drivers/core_compatiable.h ****         | ((value & 0x0000ff00) << 8 )
 975              		.loc 2 125 9
 976 04d0 D98E     		or	a3,a3,a4
 126:../Firmware/RISCV/drivers/core_compatiable.h ****         | ((value & 0x000000ff) << 24);
 977              		.loc 2 126 33
 978 04d2 032784F5 		lw	a4,-168(s0)
 979 04d6 13168700 		slli	a2,a4,8
 980 04da 3707FF00 		li	a4,16711680
 981 04de 718F     		and	a4,a2,a4
 126:../Firmware/RISCV/drivers/core_compatiable.h ****         | ((value & 0x000000ff) << 24);
 982              		.loc 2 126 9
 983 04e0 D98E     		or	a3,a3,a4
 127:../Firmware/RISCV/drivers/core_compatiable.h ****     return result;
 984              		.loc 2 127 33
 985 04e2 032784F5 		lw	a4,-168(s0)
 986 04e6 6207     		slli	a4,a4,24
 124:../Firmware/RISCV/drivers/core_compatiable.h ****         | ((value & 0x00ff0000) >> 8 )
 987              		.loc 2 124 12
 988 04e8 558F     		or	a4,a3,a4
 989 04ea 232AE4F4 		sw	a4,-172(s0)
 990              		.loc 2 128 12
 991 04ee 032744F5 		lw	a4,-172(s0)
 992              	.LBE77:
 993              	.LBE76:
 218:../Firmware/GD32VW55x_standard_peripheral/Source/gd32vw55x_hau_sha_md5.c ****         outputaddr += 4U;
 994              		.loc 1 218 35
 995 04f2 98C3     		sw	a4,0(a5)
 219:../Firmware/GD32VW55x_standard_peripheral/Source/gd32vw55x_hau_sha_md5.c ****         *(uint32_t*)(outputaddr)  = __REV(digest_para.out[2]);
 996              		.loc 1 219 20
 997 04f4 8327C4FE 		lw	a5,-20(s0)
 998 04f8 9107     		addi	a5,a5,4
 999 04fa 2326F4FE 		sw	a5,-20(s0)
 220:../Firmware/GD32VW55x_standard_peripheral/Source/gd32vw55x_hau_sha_md5.c ****         outputaddr += 4U;
 1000              		.loc 1 220 37
 1001 04fe 032744F1 		lw	a4,-236(s0)
 220:../Firmware/GD32VW55x_standard_peripheral/Source/gd32vw55x_hau_sha_md5.c ****         outputaddr += 4U;
 1002              		.loc 1 220 10
 1003 0502 8327C4FE 		lw	a5,-20(s0)
 1004 0506 2320E4F6 		sw	a4,-160(s0)
 1005              	.LBB78:
 1006              	.LBB79:
 124:../Firmware/RISCV/drivers/core_compatiable.h ****         | ((value & 0x00ff0000) >> 8 )
 1007              		.loc 2 124 37
 1008 050a 032704F6 		lw	a4,-160(s0)
 1009 050e 93568701 		srli	a3,a4,24
 125:../Firmware/RISCV/drivers/core_compatiable.h ****         | ((value & 0x0000ff00) << 8 )
 1010              		.loc 2 125 33
 1011 0512 032704F6 		lw	a4,-160(s0)
 1012 0516 13568700 		srli	a2,a4,8
 1013 051a 4167     		li	a4,65536
 1014 051c 130707F0 		addi	a4,a4,-256
 1015 0520 718F     		and	a4,a2,a4
 125:../Firmware/RISCV/drivers/core_compatiable.h ****         | ((value & 0x0000ff00) << 8 )
 1016              		.loc 2 125 9
 1017 0522 D98E     		or	a3,a3,a4
 126:../Firmware/RISCV/drivers/core_compatiable.h ****         | ((value & 0x000000ff) << 24);
 1018              		.loc 2 126 33
 1019 0524 032704F6 		lw	a4,-160(s0)
 1020 0528 13168700 		slli	a2,a4,8
 1021 052c 3707FF00 		li	a4,16711680
 1022 0530 718F     		and	a4,a2,a4
 126:../Firmware/RISCV/drivers/core_compatiable.h ****         | ((value & 0x000000ff) << 24);
 1023              		.loc 2 126 9
 1024 0532 D98E     		or	a3,a3,a4
 127:../Firmware/RISCV/drivers/core_compatiable.h ****     return result;
 1025              		.loc 2 127 33
 1026 0534 032704F6 		lw	a4,-160(s0)
 1027 0538 6207     		slli	a4,a4,24
 124:../Firmware/RISCV/drivers/core_compatiable.h ****         | ((value & 0x00ff0000) >> 8 )
 1028              		.loc 2 124 12
 1029 053a 558F     		or	a4,a3,a4
 1030 053c 232EE4F4 		sw	a4,-164(s0)
 1031              		.loc 2 128 12
 1032 0540 0327C4F5 		lw	a4,-164(s0)
 1033              	.LBE79:
 1034              	.LBE78:
 220:../Firmware/GD32VW55x_standard_peripheral/Source/gd32vw55x_hau_sha_md5.c ****         outputaddr += 4U;
 1035              		.loc 1 220 35
 1036 0544 98C3     		sw	a4,0(a5)
 221:../Firmware/GD32VW55x_standard_peripheral/Source/gd32vw55x_hau_sha_md5.c ****         *(uint32_t*)(outputaddr)  = __REV(digest_para.out[3]);
 1037              		.loc 1 221 20
 1038 0546 8327C4FE 		lw	a5,-20(s0)
 1039 054a 9107     		addi	a5,a5,4
 1040 054c 2326F4FE 		sw	a5,-20(s0)
 222:../Firmware/GD32VW55x_standard_peripheral/Source/gd32vw55x_hau_sha_md5.c ****         outputaddr += 4U;
 1041              		.loc 1 222 37
 1042 0550 032784F1 		lw	a4,-232(s0)
 222:../Firmware/GD32VW55x_standard_peripheral/Source/gd32vw55x_hau_sha_md5.c ****         outputaddr += 4U;
 1043              		.loc 1 222 10
 1044 0554 8327C4FE 		lw	a5,-20(s0)
 1045 0558 2324E4F6 		sw	a4,-152(s0)
 1046              	.LBB80:
 1047              	.LBB81:
 124:../Firmware/RISCV/drivers/core_compatiable.h ****         | ((value & 0x00ff0000) >> 8 )
 1048              		.loc 2 124 37
 1049 055c 032784F6 		lw	a4,-152(s0)
 1050 0560 93568701 		srli	a3,a4,24
 125:../Firmware/RISCV/drivers/core_compatiable.h ****         | ((value & 0x0000ff00) << 8 )
 1051              		.loc 2 125 33
 1052 0564 032784F6 		lw	a4,-152(s0)
 1053 0568 13568700 		srli	a2,a4,8
 1054 056c 4167     		li	a4,65536
 1055 056e 130707F0 		addi	a4,a4,-256
 1056 0572 718F     		and	a4,a2,a4
 125:../Firmware/RISCV/drivers/core_compatiable.h ****         | ((value & 0x0000ff00) << 8 )
 1057              		.loc 2 125 9
 1058 0574 D98E     		or	a3,a3,a4
 126:../Firmware/RISCV/drivers/core_compatiable.h ****         | ((value & 0x000000ff) << 24);
 1059              		.loc 2 126 33
 1060 0576 032784F6 		lw	a4,-152(s0)
 1061 057a 13168700 		slli	a2,a4,8
 1062 057e 3707FF00 		li	a4,16711680
 1063 0582 718F     		and	a4,a2,a4
 126:../Firmware/RISCV/drivers/core_compatiable.h ****         | ((value & 0x000000ff) << 24);
 1064              		.loc 2 126 9
 1065 0584 D98E     		or	a3,a3,a4
 127:../Firmware/RISCV/drivers/core_compatiable.h ****     return result;
 1066              		.loc 2 127 33
 1067 0586 032784F6 		lw	a4,-152(s0)
 1068 058a 6207     		slli	a4,a4,24
 124:../Firmware/RISCV/drivers/core_compatiable.h ****         | ((value & 0x00ff0000) >> 8 )
 1069              		.loc 2 124 12
 1070 058c 558F     		or	a4,a3,a4
 1071 058e 2322E4F6 		sw	a4,-156(s0)
 1072              		.loc 2 128 12
 1073 0592 032744F6 		lw	a4,-156(s0)
 1074              	.LBE81:
 1075              	.LBE80:
 222:../Firmware/GD32VW55x_standard_peripheral/Source/gd32vw55x_hau_sha_md5.c ****         outputaddr += 4U;
 1076              		.loc 1 222 35
 1077 0596 98C3     		sw	a4,0(a5)
 223:../Firmware/GD32VW55x_standard_peripheral/Source/gd32vw55x_hau_sha_md5.c ****         *(uint32_t*)(outputaddr)  = __REV(digest_para.out[4]);
 1078              		.loc 1 223 20
 1079 0598 8327C4FE 		lw	a5,-20(s0)
 1080 059c 9107     		addi	a5,a5,4
 1081 059e 2326F4FE 		sw	a5,-20(s0)
 224:../Firmware/GD32VW55x_standard_peripheral/Source/gd32vw55x_hau_sha_md5.c ****         outputaddr += 4U;
 1082              		.loc 1 224 37
 1083 05a2 0327C4F1 		lw	a4,-228(s0)
 224:../Firmware/GD32VW55x_standard_peripheral/Source/gd32vw55x_hau_sha_md5.c ****         outputaddr += 4U;
 1084              		.loc 1 224 10
 1085 05a6 8327C4FE 		lw	a5,-20(s0)
 1086 05aa 2328E4F6 		sw	a4,-144(s0)
 1087              	.LBB82:
 1088              	.LBB83:
 124:../Firmware/RISCV/drivers/core_compatiable.h ****         | ((value & 0x00ff0000) >> 8 )
 1089              		.loc 2 124 37
 1090 05ae 032704F7 		lw	a4,-144(s0)
 1091 05b2 93568701 		srli	a3,a4,24
 125:../Firmware/RISCV/drivers/core_compatiable.h ****         | ((value & 0x0000ff00) << 8 )
 1092              		.loc 2 125 33
 1093 05b6 032704F7 		lw	a4,-144(s0)
 1094 05ba 13568700 		srli	a2,a4,8
 1095 05be 4167     		li	a4,65536
 1096 05c0 130707F0 		addi	a4,a4,-256
 1097 05c4 718F     		and	a4,a2,a4
 125:../Firmware/RISCV/drivers/core_compatiable.h ****         | ((value & 0x0000ff00) << 8 )
 1098              		.loc 2 125 9
 1099 05c6 D98E     		or	a3,a3,a4
 126:../Firmware/RISCV/drivers/core_compatiable.h ****         | ((value & 0x000000ff) << 24);
 1100              		.loc 2 126 33
 1101 05c8 032704F7 		lw	a4,-144(s0)
 1102 05cc 13168700 		slli	a2,a4,8
 1103 05d0 3707FF00 		li	a4,16711680
 1104 05d4 718F     		and	a4,a2,a4
 126:../Firmware/RISCV/drivers/core_compatiable.h ****         | ((value & 0x000000ff) << 24);
 1105              		.loc 2 126 9
 1106 05d6 D98E     		or	a3,a3,a4
 127:../Firmware/RISCV/drivers/core_compatiable.h ****     return result;
 1107              		.loc 2 127 33
 1108 05d8 032704F7 		lw	a4,-144(s0)
 1109 05dc 6207     		slli	a4,a4,24
 124:../Firmware/RISCV/drivers/core_compatiable.h ****         | ((value & 0x00ff0000) >> 8 )
 1110              		.loc 2 124 12
 1111 05de 558F     		or	a4,a3,a4
 1112 05e0 2326E4F6 		sw	a4,-148(s0)
 1113              		.loc 2 128 12
 1114 05e4 0327C4F6 		lw	a4,-148(s0)
 1115              	.LBE83:
 1116              	.LBE82:
 224:../Firmware/GD32VW55x_standard_peripheral/Source/gd32vw55x_hau_sha_md5.c ****         outputaddr += 4U;
 1117              		.loc 1 224 35
 1118 05e8 98C3     		sw	a4,0(a5)
 225:../Firmware/GD32VW55x_standard_peripheral/Source/gd32vw55x_hau_sha_md5.c ****         *(uint32_t*)(outputaddr)  = __REV(digest_para.out[5]);
 1119              		.loc 1 225 20
 1120 05ea 8327C4FE 		lw	a5,-20(s0)
 1121 05ee 9107     		addi	a5,a5,4
 1122 05f0 2326F4FE 		sw	a5,-20(s0)
 226:../Firmware/GD32VW55x_standard_peripheral/Source/gd32vw55x_hau_sha_md5.c ****         outputaddr += 4U;
 1123              		.loc 1 226 37
 1124 05f4 032704F2 		lw	a4,-224(s0)
 226:../Firmware/GD32VW55x_standard_peripheral/Source/gd32vw55x_hau_sha_md5.c ****         outputaddr += 4U;
 1125              		.loc 1 226 10
 1126 05f8 8327C4FE 		lw	a5,-20(s0)
 1127 05fc 232CE4F6 		sw	a4,-136(s0)
 1128              	.LBB84:
 1129              	.LBB85:
 124:../Firmware/RISCV/drivers/core_compatiable.h ****         | ((value & 0x00ff0000) >> 8 )
 1130              		.loc 2 124 37
 1131 0600 032784F7 		lw	a4,-136(s0)
 1132 0604 93568701 		srli	a3,a4,24
 125:../Firmware/RISCV/drivers/core_compatiable.h ****         | ((value & 0x0000ff00) << 8 )
 1133              		.loc 2 125 33
 1134 0608 032784F7 		lw	a4,-136(s0)
 1135 060c 13568700 		srli	a2,a4,8
 1136 0610 4167     		li	a4,65536
 1137 0612 130707F0 		addi	a4,a4,-256
 1138 0616 718F     		and	a4,a2,a4
 125:../Firmware/RISCV/drivers/core_compatiable.h ****         | ((value & 0x0000ff00) << 8 )
 1139              		.loc 2 125 9
 1140 0618 D98E     		or	a3,a3,a4
 126:../Firmware/RISCV/drivers/core_compatiable.h ****         | ((value & 0x000000ff) << 24);
 1141              		.loc 2 126 33
 1142 061a 032784F7 		lw	a4,-136(s0)
 1143 061e 13168700 		slli	a2,a4,8
 1144 0622 3707FF00 		li	a4,16711680
 1145 0626 718F     		and	a4,a2,a4
 126:../Firmware/RISCV/drivers/core_compatiable.h ****         | ((value & 0x000000ff) << 24);
 1146              		.loc 2 126 9
 1147 0628 D98E     		or	a3,a3,a4
 127:../Firmware/RISCV/drivers/core_compatiable.h ****     return result;
 1148              		.loc 2 127 33
 1149 062a 032784F7 		lw	a4,-136(s0)
 1150 062e 6207     		slli	a4,a4,24
 124:../Firmware/RISCV/drivers/core_compatiable.h ****         | ((value & 0x00ff0000) >> 8 )
 1151              		.loc 2 124 12
 1152 0630 558F     		or	a4,a3,a4
 1153 0632 232AE4F6 		sw	a4,-140(s0)
 1154              		.loc 2 128 12
 1155 0636 032744F7 		lw	a4,-140(s0)
 1156              	.LBE85:
 1157              	.LBE84:
 226:../Firmware/GD32VW55x_standard_peripheral/Source/gd32vw55x_hau_sha_md5.c ****         outputaddr += 4U;
 1158              		.loc 1 226 35
 1159 063a 98C3     		sw	a4,0(a5)
 227:../Firmware/GD32VW55x_standard_peripheral/Source/gd32vw55x_hau_sha_md5.c ****         *(uint32_t*)(outputaddr)  = __REV(digest_para.out[6]);
 1160              		.loc 1 227 20
 1161 063c 8327C4FE 		lw	a5,-20(s0)
 1162 0640 9107     		addi	a5,a5,4
 1163 0642 2326F4FE 		sw	a5,-20(s0)
 228:../Firmware/GD32VW55x_standard_peripheral/Source/gd32vw55x_hau_sha_md5.c ****         outputaddr += 4U;
 1164              		.loc 1 228 37
 1165 0646 032744F2 		lw	a4,-220(s0)
 228:../Firmware/GD32VW55x_standard_peripheral/Source/gd32vw55x_hau_sha_md5.c ****         outputaddr += 4U;
 1166              		.loc 1 228 10
 1167 064a 8327C4FE 		lw	a5,-20(s0)
 1168 064e 2320E4F8 		sw	a4,-128(s0)
 1169              	.LBB86:
 1170              	.LBB87:
 124:../Firmware/RISCV/drivers/core_compatiable.h ****         | ((value & 0x00ff0000) >> 8 )
 1171              		.loc 2 124 37
 1172 0652 032704F8 		lw	a4,-128(s0)
 1173 0656 93568701 		srli	a3,a4,24
 125:../Firmware/RISCV/drivers/core_compatiable.h ****         | ((value & 0x0000ff00) << 8 )
 1174              		.loc 2 125 33
 1175 065a 032704F8 		lw	a4,-128(s0)
 1176 065e 13568700 		srli	a2,a4,8
 1177 0662 4167     		li	a4,65536
 1178 0664 130707F0 		addi	a4,a4,-256
 1179 0668 718F     		and	a4,a2,a4
 125:../Firmware/RISCV/drivers/core_compatiable.h ****         | ((value & 0x0000ff00) << 8 )
 1180              		.loc 2 125 9
 1181 066a D98E     		or	a3,a3,a4
 126:../Firmware/RISCV/drivers/core_compatiable.h ****         | ((value & 0x000000ff) << 24);
 1182              		.loc 2 126 33
 1183 066c 032704F8 		lw	a4,-128(s0)
 1184 0670 13168700 		slli	a2,a4,8
 1185 0674 3707FF00 		li	a4,16711680
 1186 0678 718F     		and	a4,a2,a4
 126:../Firmware/RISCV/drivers/core_compatiable.h ****         | ((value & 0x000000ff) << 24);
 1187              		.loc 2 126 9
 1188 067a D98E     		or	a3,a3,a4
 127:../Firmware/RISCV/drivers/core_compatiable.h ****     return result;
 1189              		.loc 2 127 33
 1190 067c 032704F8 		lw	a4,-128(s0)
 1191 0680 6207     		slli	a4,a4,24
 124:../Firmware/RISCV/drivers/core_compatiable.h ****         | ((value & 0x00ff0000) >> 8 )
 1192              		.loc 2 124 12
 1193 0682 558F     		or	a4,a3,a4
 1194 0684 232EE4F6 		sw	a4,-132(s0)
 1195              		.loc 2 128 12
 1196 0688 0327C4F7 		lw	a4,-132(s0)
 1197              	.LBE87:
 1198              	.LBE86:
 228:../Firmware/GD32VW55x_standard_peripheral/Source/gd32vw55x_hau_sha_md5.c ****         outputaddr += 4U;
 1199              		.loc 1 228 35
 1200 068c 98C3     		sw	a4,0(a5)
 229:../Firmware/GD32VW55x_standard_peripheral/Source/gd32vw55x_hau_sha_md5.c ****         *(uint32_t*)(outputaddr)  = __REV(digest_para.out[7]);
 1201              		.loc 1 229 20
 1202 068e 8327C4FE 		lw	a5,-20(s0)
 1203 0692 9107     		addi	a5,a5,4
 1204 0694 2326F4FE 		sw	a5,-20(s0)
 230:../Firmware/GD32VW55x_standard_peripheral/Source/gd32vw55x_hau_sha_md5.c ****         break;
 1205              		.loc 1 230 37
 1206 0698 032784F2 		lw	a4,-216(s0)
 230:../Firmware/GD32VW55x_standard_peripheral/Source/gd32vw55x_hau_sha_md5.c ****         break;
 1207              		.loc 1 230 10
 1208 069c 8327C4FE 		lw	a5,-20(s0)
 1209 06a0 2324E4F8 		sw	a4,-120(s0)
 1210              	.LBB88:
 1211              	.LBB89:
 124:../Firmware/RISCV/drivers/core_compatiable.h ****         | ((value & 0x00ff0000) >> 8 )
 1212              		.loc 2 124 37
 1213 06a4 032784F8 		lw	a4,-120(s0)
 1214 06a8 93568701 		srli	a3,a4,24
 125:../Firmware/RISCV/drivers/core_compatiable.h ****         | ((value & 0x0000ff00) << 8 )
 1215              		.loc 2 125 33
 1216 06ac 032784F8 		lw	a4,-120(s0)
 1217 06b0 13568700 		srli	a2,a4,8
 1218 06b4 4167     		li	a4,65536
 1219 06b6 130707F0 		addi	a4,a4,-256
 1220 06ba 718F     		and	a4,a2,a4
 125:../Firmware/RISCV/drivers/core_compatiable.h ****         | ((value & 0x0000ff00) << 8 )
 1221              		.loc 2 125 9
 1222 06bc D98E     		or	a3,a3,a4
 126:../Firmware/RISCV/drivers/core_compatiable.h ****         | ((value & 0x000000ff) << 24);
 1223              		.loc 2 126 33
 1224 06be 032784F8 		lw	a4,-120(s0)
 1225 06c2 13168700 		slli	a2,a4,8
 1226 06c6 3707FF00 		li	a4,16711680
 1227 06ca 718F     		and	a4,a2,a4
 126:../Firmware/RISCV/drivers/core_compatiable.h ****         | ((value & 0x000000ff) << 24);
 1228              		.loc 2 126 9
 1229 06cc D98E     		or	a3,a3,a4
 127:../Firmware/RISCV/drivers/core_compatiable.h ****     return result;
 1230              		.loc 2 127 33
 1231 06ce 032784F8 		lw	a4,-120(s0)
 1232 06d2 6207     		slli	a4,a4,24
 124:../Firmware/RISCV/drivers/core_compatiable.h ****         | ((value & 0x00ff0000) >> 8 )
 1233              		.loc 2 124 12
 1234 06d4 558F     		or	a4,a3,a4
 1235 06d6 2322E4F8 		sw	a4,-124(s0)
 1236              		.loc 2 128 12
 1237 06da 032744F8 		lw	a4,-124(s0)
 1238              	.LBE89:
 1239              	.LBE88:
 230:../Firmware/GD32VW55x_standard_peripheral/Source/gd32vw55x_hau_sha_md5.c ****         break;
 1240              		.loc 1 230 35
 1241 06de 98C3     		sw	a4,0(a5)
 231:../Firmware/GD32VW55x_standard_peripheral/Source/gd32vw55x_hau_sha_md5.c ****     case HAU_ALGO_MD5:
 1242              		.loc 1 231 9
 1243 06e0 89AA     		j	.L28
 1244              	.L22:
 233:../Firmware/GD32VW55x_standard_peripheral/Source/gd32vw55x_hau_sha_md5.c ****         *(uint32_t*)(outputaddr)  = __REV(digest_para.out[0]);
 1245              		.loc 1 233 9
 1246 06e2 9307C4F0 		addi	a5,s0,-244
 1247 06e6 3E85     		mv	a0,a5
 1248 06e8 97000000 		call	hau_digest_read
 1248      E7800000 
 234:../Firmware/GD32VW55x_standard_peripheral/Source/gd32vw55x_hau_sha_md5.c ****         outputaddr += 4U;
 1249              		.loc 1 234 37
 1250 06f0 0327C4F0 		lw	a4,-244(s0)
 234:../Firmware/GD32VW55x_standard_peripheral/Source/gd32vw55x_hau_sha_md5.c ****         outputaddr += 4U;
 1251              		.loc 1 234 10
 1252 06f4 8327C4FE 		lw	a5,-20(s0)
 1253 06f8 2328E4F2 		sw	a4,-208(s0)
 1254              	.LBB90:
 1255              	.LBB91:
 124:../Firmware/RISCV/drivers/core_compatiable.h ****         | ((value & 0x00ff0000) >> 8 )
 1256              		.loc 2 124 37
 1257 06fc 032704F3 		lw	a4,-208(s0)
 1258 0700 93568701 		srli	a3,a4,24
 125:../Firmware/RISCV/drivers/core_compatiable.h ****         | ((value & 0x0000ff00) << 8 )
 1259              		.loc 2 125 33
 1260 0704 032704F3 		lw	a4,-208(s0)
 1261 0708 13568700 		srli	a2,a4,8
 1262 070c 4167     		li	a4,65536
 1263 070e 130707F0 		addi	a4,a4,-256
 1264 0712 718F     		and	a4,a2,a4
 125:../Firmware/RISCV/drivers/core_compatiable.h ****         | ((value & 0x0000ff00) << 8 )
 1265              		.loc 2 125 9
 1266 0714 D98E     		or	a3,a3,a4
 126:../Firmware/RISCV/drivers/core_compatiable.h ****         | ((value & 0x000000ff) << 24);
 1267              		.loc 2 126 33
 1268 0716 032704F3 		lw	a4,-208(s0)
 1269 071a 13168700 		slli	a2,a4,8
 1270 071e 3707FF00 		li	a4,16711680
 1271 0722 718F     		and	a4,a2,a4
 126:../Firmware/RISCV/drivers/core_compatiable.h ****         | ((value & 0x000000ff) << 24);
 1272              		.loc 2 126 9
 1273 0724 D98E     		or	a3,a3,a4
 127:../Firmware/RISCV/drivers/core_compatiable.h ****     return result;
 1274              		.loc 2 127 33
 1275 0726 032704F3 		lw	a4,-208(s0)
 1276 072a 6207     		slli	a4,a4,24
 124:../Firmware/RISCV/drivers/core_compatiable.h ****         | ((value & 0x00ff0000) >> 8 )
 1277              		.loc 2 124 12
 1278 072c 558F     		or	a4,a3,a4
 1279 072e 2326E4F2 		sw	a4,-212(s0)
 1280              		.loc 2 128 12
 1281 0732 0327C4F2 		lw	a4,-212(s0)
 1282              	.LBE91:
 1283              	.LBE90:
 234:../Firmware/GD32VW55x_standard_peripheral/Source/gd32vw55x_hau_sha_md5.c ****         outputaddr += 4U;
 1284              		.loc 1 234 35
 1285 0736 98C3     		sw	a4,0(a5)
 235:../Firmware/GD32VW55x_standard_peripheral/Source/gd32vw55x_hau_sha_md5.c ****         *(uint32_t*)(outputaddr)  = __REV(digest_para.out[1]);
 1286              		.loc 1 235 20
 1287 0738 8327C4FE 		lw	a5,-20(s0)
 1288 073c 9107     		addi	a5,a5,4
 1289 073e 2326F4FE 		sw	a5,-20(s0)
 236:../Firmware/GD32VW55x_standard_peripheral/Source/gd32vw55x_hau_sha_md5.c ****         outputaddr += 4U;
 1290              		.loc 1 236 37
 1291 0742 032704F1 		lw	a4,-240(s0)
 236:../Firmware/GD32VW55x_standard_peripheral/Source/gd32vw55x_hau_sha_md5.c ****         outputaddr += 4U;
 1292              		.loc 1 236 10
 1293 0746 8327C4FE 		lw	a5,-20(s0)
 1294 074a 232CE4F2 		sw	a4,-200(s0)
 1295              	.LBB92:
 1296              	.LBB93:
 124:../Firmware/RISCV/drivers/core_compatiable.h ****         | ((value & 0x00ff0000) >> 8 )
 1297              		.loc 2 124 37
 1298 074e 032784F3 		lw	a4,-200(s0)
 1299 0752 93568701 		srli	a3,a4,24
 125:../Firmware/RISCV/drivers/core_compatiable.h ****         | ((value & 0x0000ff00) << 8 )
 1300              		.loc 2 125 33
 1301 0756 032784F3 		lw	a4,-200(s0)
 1302 075a 13568700 		srli	a2,a4,8
 1303 075e 4167     		li	a4,65536
 1304 0760 130707F0 		addi	a4,a4,-256
 1305 0764 718F     		and	a4,a2,a4
 125:../Firmware/RISCV/drivers/core_compatiable.h ****         | ((value & 0x0000ff00) << 8 )
 1306              		.loc 2 125 9
 1307 0766 D98E     		or	a3,a3,a4
 126:../Firmware/RISCV/drivers/core_compatiable.h ****         | ((value & 0x000000ff) << 24);
 1308              		.loc 2 126 33
 1309 0768 032784F3 		lw	a4,-200(s0)
 1310 076c 13168700 		slli	a2,a4,8
 1311 0770 3707FF00 		li	a4,16711680
 1312 0774 718F     		and	a4,a2,a4
 126:../Firmware/RISCV/drivers/core_compatiable.h ****         | ((value & 0x000000ff) << 24);
 1313              		.loc 2 126 9
 1314 0776 D98E     		or	a3,a3,a4
 127:../Firmware/RISCV/drivers/core_compatiable.h ****     return result;
 1315              		.loc 2 127 33
 1316 0778 032784F3 		lw	a4,-200(s0)
 1317 077c 6207     		slli	a4,a4,24
 124:../Firmware/RISCV/drivers/core_compatiable.h ****         | ((value & 0x00ff0000) >> 8 )
 1318              		.loc 2 124 12
 1319 077e 558F     		or	a4,a3,a4
 1320 0780 232AE4F2 		sw	a4,-204(s0)
 1321              		.loc 2 128 12
 1322 0784 032744F3 		lw	a4,-204(s0)
 1323              	.LBE93:
 1324              	.LBE92:
 236:../Firmware/GD32VW55x_standard_peripheral/Source/gd32vw55x_hau_sha_md5.c ****         outputaddr += 4U;
 1325              		.loc 1 236 35
 1326 0788 98C3     		sw	a4,0(a5)
 237:../Firmware/GD32VW55x_standard_peripheral/Source/gd32vw55x_hau_sha_md5.c ****         *(uint32_t*)(outputaddr)  = __REV(digest_para.out[2]);
 1327              		.loc 1 237 20
 1328 078a 8327C4FE 		lw	a5,-20(s0)
 1329 078e 9107     		addi	a5,a5,4
 1330 0790 2326F4FE 		sw	a5,-20(s0)
 238:../Firmware/GD32VW55x_standard_peripheral/Source/gd32vw55x_hau_sha_md5.c ****         outputaddr += 4U;
 1331              		.loc 1 238 37
 1332 0794 032744F1 		lw	a4,-236(s0)
 238:../Firmware/GD32VW55x_standard_peripheral/Source/gd32vw55x_hau_sha_md5.c ****         outputaddr += 4U;
 1333              		.loc 1 238 10
 1334 0798 8327C4FE 		lw	a5,-20(s0)
 1335 079c 2320E4F4 		sw	a4,-192(s0)
 1336              	.LBB94:
 1337              	.LBB95:
 124:../Firmware/RISCV/drivers/core_compatiable.h ****         | ((value & 0x00ff0000) >> 8 )
 1338              		.loc 2 124 37
 1339 07a0 032704F4 		lw	a4,-192(s0)
 1340 07a4 93568701 		srli	a3,a4,24
 125:../Firmware/RISCV/drivers/core_compatiable.h ****         | ((value & 0x0000ff00) << 8 )
 1341              		.loc 2 125 33
 1342 07a8 032704F4 		lw	a4,-192(s0)
 1343 07ac 13568700 		srli	a2,a4,8
 1344 07b0 4167     		li	a4,65536
 1345 07b2 130707F0 		addi	a4,a4,-256
 1346 07b6 718F     		and	a4,a2,a4
 125:../Firmware/RISCV/drivers/core_compatiable.h ****         | ((value & 0x0000ff00) << 8 )
 1347              		.loc 2 125 9
 1348 07b8 D98E     		or	a3,a3,a4
 126:../Firmware/RISCV/drivers/core_compatiable.h ****         | ((value & 0x000000ff) << 24);
 1349              		.loc 2 126 33
 1350 07ba 032704F4 		lw	a4,-192(s0)
 1351 07be 13168700 		slli	a2,a4,8
 1352 07c2 3707FF00 		li	a4,16711680
 1353 07c6 718F     		and	a4,a2,a4
 126:../Firmware/RISCV/drivers/core_compatiable.h ****         | ((value & 0x000000ff) << 24);
 1354              		.loc 2 126 9
 1355 07c8 D98E     		or	a3,a3,a4
 127:../Firmware/RISCV/drivers/core_compatiable.h ****     return result;
 1356              		.loc 2 127 33
 1357 07ca 032704F4 		lw	a4,-192(s0)
 1358 07ce 6207     		slli	a4,a4,24
 124:../Firmware/RISCV/drivers/core_compatiable.h ****         | ((value & 0x00ff0000) >> 8 )
 1359              		.loc 2 124 12
 1360 07d0 558F     		or	a4,a3,a4
 1361 07d2 232EE4F2 		sw	a4,-196(s0)
 1362              		.loc 2 128 12
 1363 07d6 0327C4F3 		lw	a4,-196(s0)
 1364              	.LBE95:
 1365              	.LBE94:
 238:../Firmware/GD32VW55x_standard_peripheral/Source/gd32vw55x_hau_sha_md5.c ****         outputaddr += 4U;
 1366              		.loc 1 238 35
 1367 07da 98C3     		sw	a4,0(a5)
 239:../Firmware/GD32VW55x_standard_peripheral/Source/gd32vw55x_hau_sha_md5.c ****         *(uint32_t*)(outputaddr)  = __REV(digest_para.out[3]);
 1368              		.loc 1 239 20
 1369 07dc 8327C4FE 		lw	a5,-20(s0)
 1370 07e0 9107     		addi	a5,a5,4
 1371 07e2 2326F4FE 		sw	a5,-20(s0)
 240:../Firmware/GD32VW55x_standard_peripheral/Source/gd32vw55x_hau_sha_md5.c ****         break;
 1372              		.loc 1 240 37
 1373 07e6 032784F1 		lw	a4,-232(s0)
 240:../Firmware/GD32VW55x_standard_peripheral/Source/gd32vw55x_hau_sha_md5.c ****         break;
 1374              		.loc 1 240 10
 1375 07ea 8327C4FE 		lw	a5,-20(s0)
 1376 07ee 2324E4F4 		sw	a4,-184(s0)
 1377              	.LBB96:
 1378              	.LBB97:
 124:../Firmware/RISCV/drivers/core_compatiable.h ****         | ((value & 0x00ff0000) >> 8 )
 1379              		.loc 2 124 37
 1380 07f2 032784F4 		lw	a4,-184(s0)
 1381 07f6 93568701 		srli	a3,a4,24
 125:../Firmware/RISCV/drivers/core_compatiable.h ****         | ((value & 0x0000ff00) << 8 )
 1382              		.loc 2 125 33
 1383 07fa 032784F4 		lw	a4,-184(s0)
 1384 07fe 13568700 		srli	a2,a4,8
 1385 0802 4167     		li	a4,65536
 1386 0804 130707F0 		addi	a4,a4,-256
 1387 0808 718F     		and	a4,a2,a4
 125:../Firmware/RISCV/drivers/core_compatiable.h ****         | ((value & 0x0000ff00) << 8 )
 1388              		.loc 2 125 9
 1389 080a D98E     		or	a3,a3,a4
 126:../Firmware/RISCV/drivers/core_compatiable.h ****         | ((value & 0x000000ff) << 24);
 1390              		.loc 2 126 33
 1391 080c 032784F4 		lw	a4,-184(s0)
 1392 0810 13168700 		slli	a2,a4,8
 1393 0814 3707FF00 		li	a4,16711680
 1394 0818 718F     		and	a4,a2,a4
 126:../Firmware/RISCV/drivers/core_compatiable.h ****         | ((value & 0x000000ff) << 24);
 1395              		.loc 2 126 9
 1396 081a D98E     		or	a3,a3,a4
 127:../Firmware/RISCV/drivers/core_compatiable.h ****     return result;
 1397              		.loc 2 127 33
 1398 081c 032784F4 		lw	a4,-184(s0)
 1399 0820 6207     		slli	a4,a4,24
 124:../Firmware/RISCV/drivers/core_compatiable.h ****         | ((value & 0x00ff0000) >> 8 )
 1400              		.loc 2 124 12
 1401 0822 558F     		or	a4,a3,a4
 1402 0824 2322E4F4 		sw	a4,-188(s0)
 1403              		.loc 2 128 12
 1404 0828 032744F4 		lw	a4,-188(s0)
 1405              	.LBE97:
 1406              	.LBE96:
 240:../Firmware/GD32VW55x_standard_peripheral/Source/gd32vw55x_hau_sha_md5.c ****         break;
 1407              		.loc 1 240 35
 1408 082c 98C3     		sw	a4,0(a5)
 241:../Firmware/GD32VW55x_standard_peripheral/Source/gd32vw55x_hau_sha_md5.c ****     default:
 1409              		.loc 1 241 9
 1410 082e 11A0     		j	.L28
 1411              	.L48:
 1412              		.loc 1 243 9
 1413 0830 0100     		nop
 1414              	.L28:
 244:../Firmware/GD32VW55x_standard_peripheral/Source/gd32vw55x_hau_sha_md5.c ****     }
 245:../Firmware/GD32VW55x_standard_peripheral/Source/gd32vw55x_hau_sha_md5.c **** }
 1415              		.loc 1 245 1
 1416 0832 0100     		nop
 1417 0834 8320C110 		lw	ra,268(sp)
 1418              		.cfi_restore 1
 1419 0838 03248110 		lw	s0,264(sp)
 1420              		.cfi_restore 8
 1421              		.cfi_def_cfa 2, 272
 1422 083c 5161     		addi	sp,sp,272
 1423              		.cfi_def_cfa_offset 0
 1424 083e 8280     		jr	ra
 1425              		.cfi_endproc
 1426              	.LFE355:
 1428              		.section	.text.hau_hash_calculate,"ax",@progbits
 1429              		.align	1
 1431              	hau_hash_calculate:
 1432              	.LFB356:
 246:../Firmware/GD32VW55x_standard_peripheral/Source/gd32vw55x_hau_sha_md5.c **** 
 247:../Firmware/GD32VW55x_standard_peripheral/Source/gd32vw55x_hau_sha_md5.c **** /*!
 248:../Firmware/GD32VW55x_standard_peripheral/Source/gd32vw55x_hau_sha_md5.c ****     \brief      HAU digest calculate process in HASH mode
 249:../Firmware/GD32VW55x_standard_peripheral/Source/gd32vw55x_hau_sha_md5.c ****     \param[in]  algo: algorithm selection
 250:../Firmware/GD32VW55x_standard_peripheral/Source/gd32vw55x_hau_sha_md5.c ****     \param[in]  input: pointer to the input buffer
 251:../Firmware/GD32VW55x_standard_peripheral/Source/gd32vw55x_hau_sha_md5.c ****     \param[in]  in_length: length of the input buffer
 252:../Firmware/GD32VW55x_standard_peripheral/Source/gd32vw55x_hau_sha_md5.c ****     \param[in]  output: the result digest
 253:../Firmware/GD32VW55x_standard_peripheral/Source/gd32vw55x_hau_sha_md5.c ****     \param[out] none
 254:../Firmware/GD32VW55x_standard_peripheral/Source/gd32vw55x_hau_sha_md5.c ****     \retval     ErrStatus: SUCCESS or ERROR
 255:../Firmware/GD32VW55x_standard_peripheral/Source/gd32vw55x_hau_sha_md5.c **** */
 256:../Firmware/GD32VW55x_standard_peripheral/Source/gd32vw55x_hau_sha_md5.c **** static ErrStatus hau_hash_calculate(uint32_t algo, uint8_t *input, uint32_t in_length, uint8_t *out
 257:../Firmware/GD32VW55x_standard_peripheral/Source/gd32vw55x_hau_sha_md5.c **** {
 1433              		.loc 1 257 1
 1434              		.cfi_startproc
 1435 0000 5D71     		addi	sp,sp,-80
 1436              		.cfi_def_cfa_offset 80
 1437 0002 86C6     		sw	ra,76(sp)
 1438 0004 A2C4     		sw	s0,72(sp)
 1439              		.cfi_offset 1, -4
 1440              		.cfi_offset 8, -8
 1441 0006 8008     		addi	s0,sp,80
 1442              		.cfi_def_cfa 8, 0
 1443 0008 232EA4FA 		sw	a0,-68(s0)
 1444 000c 232CB4FA 		sw	a1,-72(s0)
 1445 0010 232AC4FA 		sw	a2,-76(s0)
 1446 0014 2328D4FA 		sw	a3,-80(s0)
 258:../Firmware/GD32VW55x_standard_peripheral/Source/gd32vw55x_hau_sha_md5.c ****     hau_init_parameter_struct init_para;
 259:../Firmware/GD32VW55x_standard_peripheral/Source/gd32vw55x_hau_sha_md5.c **** 
 260:../Firmware/GD32VW55x_standard_peripheral/Source/gd32vw55x_hau_sha_md5.c ****     __IO uint32_t num_last_valid = 0U;
 1447              		.loc 1 260 19
 1448 0018 232804FC 		sw	zero,-48(s0)
 261:../Firmware/GD32VW55x_standard_peripheral/Source/gd32vw55x_hau_sha_md5.c ****     uint32_t i = 0U;
 1449              		.loc 1 261 14
 1450 001c 232604FE 		sw	zero,-20(s0)
 262:../Firmware/GD32VW55x_standard_peripheral/Source/gd32vw55x_hau_sha_md5.c ****     __IO uint32_t counter = 0U;
 1451              		.loc 1 262 19
 1452 0020 232604FC 		sw	zero,-52(s0)
 263:../Firmware/GD32VW55x_standard_peripheral/Source/gd32vw55x_hau_sha_md5.c ****     uint32_t busystatus = 0U;
 1453              		.loc 1 263 14
 1454 0024 232204FE 		sw	zero,-28(s0)
 264:../Firmware/GD32VW55x_standard_peripheral/Source/gd32vw55x_hau_sha_md5.c ****     uint32_t inputaddr  = (uint32_t)input;
 1455              		.loc 1 264 14
 1456 0028 832784FB 		lw	a5,-72(s0)
 1457 002c 2324F4FE 		sw	a5,-24(s0)
 265:../Firmware/GD32VW55x_standard_peripheral/Source/gd32vw55x_hau_sha_md5.c **** 
 266:../Firmware/GD32VW55x_standard_peripheral/Source/gd32vw55x_hau_sha_md5.c ****     /* number of valid bits in last word */
 267:../Firmware/GD32VW55x_standard_peripheral/Source/gd32vw55x_hau_sha_md5.c ****     num_last_valid = 8U * (in_length % 4U);
 1458              		.loc 1 267 38
 1459 0030 832744FB 		lw	a5,-76(s0)
 1460 0034 8D8B     		andi	a5,a5,3
 1461              		.loc 1 267 25
 1462 0036 8E07     		slli	a5,a5,3
 1463              		.loc 1 267 20
 1464 0038 2328F4FC 		sw	a5,-48(s0)
 268:../Firmware/GD32VW55x_standard_peripheral/Source/gd32vw55x_hau_sha_md5.c **** 
 269:../Firmware/GD32VW55x_standard_peripheral/Source/gd32vw55x_hau_sha_md5.c ****     /* HAU peripheral initialization */
 270:../Firmware/GD32VW55x_standard_peripheral/Source/gd32vw55x_hau_sha_md5.c ****     hau_deinit();
 1465              		.loc 1 270 5
 1466 003c 97000000 		call	hau_deinit
 1466      E7800000 
 271:../Firmware/GD32VW55x_standard_peripheral/Source/gd32vw55x_hau_sha_md5.c **** 
 272:../Firmware/GD32VW55x_standard_peripheral/Source/gd32vw55x_hau_sha_md5.c ****     /* HAU configuration */
 273:../Firmware/GD32VW55x_standard_peripheral/Source/gd32vw55x_hau_sha_md5.c ****     init_para.algo = algo;
 1467              		.loc 1 273 20
 1468 0044 8327C4FB 		lw	a5,-68(s0)
 1469 0048 232AF4FC 		sw	a5,-44(s0)
 274:../Firmware/GD32VW55x_standard_peripheral/Source/gd32vw55x_hau_sha_md5.c ****     init_para.mode = HAU_MODE_HASH;
 1470              		.loc 1 274 20
 1471 004c 232C04FC 		sw	zero,-40(s0)
 275:../Firmware/GD32VW55x_standard_peripheral/Source/gd32vw55x_hau_sha_md5.c ****     init_para.datatype = HAU_SWAPPING_8BIT;
 1472              		.loc 1 275 24
 1473 0050 93070002 		li	a5,32
 1474 0054 232EF4FC 		sw	a5,-36(s0)
 276:../Firmware/GD32VW55x_standard_peripheral/Source/gd32vw55x_hau_sha_md5.c ****     hau_init(&init_para);
 1475              		.loc 1 276 5
 1476 0058 930744FD 		addi	a5,s0,-44
 1477 005c 3E85     		mv	a0,a5
 1478 005e 97000000 		call	hau_init
 1478      E7800000 
 277:../Firmware/GD32VW55x_standard_peripheral/Source/gd32vw55x_hau_sha_md5.c **** 
 278:../Firmware/GD32VW55x_standard_peripheral/Source/gd32vw55x_hau_sha_md5.c ****     /* configure the number of valid bits in last word of the message */
 279:../Firmware/GD32VW55x_standard_peripheral/Source/gd32vw55x_hau_sha_md5.c ****     hau_last_word_validbits_num_config(num_last_valid);
 1479              		.loc 1 279 5
 1480 0066 832704FD 		lw	a5,-48(s0)
 1481 006a 3E85     		mv	a0,a5
 1482 006c 97000000 		call	hau_last_word_validbits_num_config
 1482      E7800000 
 280:../Firmware/GD32VW55x_standard_peripheral/Source/gd32vw55x_hau_sha_md5.c **** 
 281:../Firmware/GD32VW55x_standard_peripheral/Source/gd32vw55x_hau_sha_md5.c ****     /* write data to the IN FIFO */
 282:../Firmware/GD32VW55x_standard_peripheral/Source/gd32vw55x_hau_sha_md5.c ****     for(i = 0U; i < in_length; i += 4U){
 1483              		.loc 1 282 11
 1484 0074 232604FE 		sw	zero,-20(s0)
 1485              		.loc 1 282 5
 1486 0078 1DA0     		j	.L50
 1487              	.L51:
 283:../Firmware/GD32VW55x_standard_peripheral/Source/gd32vw55x_hau_sha_md5.c ****         hau_data_write(*(uint32_t*)inputaddr);
 1488              		.loc 1 283 25 discriminator 3
 1489 007a 832784FE 		lw	a5,-24(s0)
 1490              		.loc 1 283 9 discriminator 3
 1491 007e 9C43     		lw	a5,0(a5)
 1492 0080 3E85     		mv	a0,a5
 1493 0082 97000000 		call	hau_data_write
 1493      E7800000 
 284:../Firmware/GD32VW55x_standard_peripheral/Source/gd32vw55x_hau_sha_md5.c ****         inputaddr += 4U;
 1494              		.loc 1 284 19 discriminator 3
 1495 008a 832784FE 		lw	a5,-24(s0)
 1496 008e 9107     		addi	a5,a5,4
 1497 0090 2324F4FE 		sw	a5,-24(s0)
 282:../Firmware/GD32VW55x_standard_peripheral/Source/gd32vw55x_hau_sha_md5.c ****         hau_data_write(*(uint32_t*)inputaddr);
 1498              		.loc 1 282 34 discriminator 3
 1499 0094 8327C4FE 		lw	a5,-20(s0)
 1500 0098 9107     		addi	a5,a5,4
 1501 009a 2326F4FE 		sw	a5,-20(s0)
 1502              	.L50:
 282:../Firmware/GD32VW55x_standard_peripheral/Source/gd32vw55x_hau_sha_md5.c ****         hau_data_write(*(uint32_t*)inputaddr);
 1503              		.loc 1 282 5 discriminator 1
 1504 009e 0327C4FE 		lw	a4,-20(s0)
 1505 00a2 832744FB 		lw	a5,-76(s0)
 1506 00a6 E36AF7FC 		bltu	a4,a5,.L51
 285:../Firmware/GD32VW55x_standard_peripheral/Source/gd32vw55x_hau_sha_md5.c ****     }
 286:../Firmware/GD32VW55x_standard_peripheral/Source/gd32vw55x_hau_sha_md5.c **** 
 287:../Firmware/GD32VW55x_standard_peripheral/Source/gd32vw55x_hau_sha_md5.c ****     /* enable digest calculation */
 288:../Firmware/GD32VW55x_standard_peripheral/Source/gd32vw55x_hau_sha_md5.c ****     hau_digest_calculation_enable();
 1507              		.loc 1 288 5
 1508 00aa 97000000 		call	hau_digest_calculation_enable
 1508      E7800000 
 1509              	.L53:
 289:../Firmware/GD32VW55x_standard_peripheral/Source/gd32vw55x_hau_sha_md5.c **** 
 290:../Firmware/GD32VW55x_standard_peripheral/Source/gd32vw55x_hau_sha_md5.c ****     /* wait until the busy flag is reset */
 291:../Firmware/GD32VW55x_standard_peripheral/Source/gd32vw55x_hau_sha_md5.c ****     do{
 292:../Firmware/GD32VW55x_standard_peripheral/Source/gd32vw55x_hau_sha_md5.c ****         busystatus = hau_flag_get(HAU_FLAG_BUSY);
 1510              		.loc 1 292 22 discriminator 2
 1511 00b2 2145     		li	a0,8
 1512 00b4 97000000 		call	hau_flag_get
 1512      E7800000 
 1513 00bc 2322A4FE 		sw	a0,-28(s0)
 293:../Firmware/GD32VW55x_standard_peripheral/Source/gd32vw55x_hau_sha_md5.c ****         counter++;
 1514              		.loc 1 293 16 discriminator 2
 1515 00c0 8327C4FC 		lw	a5,-52(s0)
 1516 00c4 8507     		addi	a5,a5,1
 1517 00c6 2326F4FC 		sw	a5,-52(s0)
 294:../Firmware/GD32VW55x_standard_peripheral/Source/gd32vw55x_hau_sha_md5.c ****     }while((SHAMD5_BSY_TIMEOUT != counter) && (RESET != busystatus));
 1518              		.loc 1 294 32 discriminator 2
 1519 00ca 0327C4FC 		lw	a4,-52(s0)
 1520              		.loc 1 294 5 discriminator 2
 1521 00ce C167     		li	a5,65536
 1522 00d0 6305F700 		beq	a4,a5,.L52
 1523              		.loc 1 294 44 discriminator 1
 1524 00d4 832744FE 		lw	a5,-28(s0)
 1525 00d8 E9FF     		bne	a5,zero,.L53
 1526              	.L52:
 295:../Firmware/GD32VW55x_standard_peripheral/Source/gd32vw55x_hau_sha_md5.c **** 
 296:../Firmware/GD32VW55x_standard_peripheral/Source/gd32vw55x_hau_sha_md5.c ****     if(RESET != busystatus){
 1527              		.loc 1 296 7
 1528 00da 832744FE 		lw	a5,-28(s0)
 1529 00de 99C3     		beq	a5,zero,.L54
 297:../Firmware/GD32VW55x_standard_peripheral/Source/gd32vw55x_hau_sha_md5.c ****         return ERROR;
 1530              		.loc 1 297 16
 1531 00e0 8147     		li	a5,0
 1532 00e2 11A8     		j	.L56
 1533              	.L54:
 298:../Firmware/GD32VW55x_standard_peripheral/Source/gd32vw55x_hau_sha_md5.c ****     }else{
 299:../Firmware/GD32VW55x_standard_peripheral/Source/gd32vw55x_hau_sha_md5.c ****         /* read the message digest */
 300:../Firmware/GD32VW55x_standard_peripheral/Source/gd32vw55x_hau_sha_md5.c ****         hau_sha_md5_digest_read(algo, output);
 1534              		.loc 1 300 9
 1535 00e4 832504FB 		lw	a1,-80(s0)
 1536 00e8 0325C4FB 		lw	a0,-68(s0)
 1537 00ec 97000000 		call	hau_sha_md5_digest_read
 1537      E7800000 
 301:../Firmware/GD32VW55x_standard_peripheral/Source/gd32vw55x_hau_sha_md5.c ****     }
 302:../Firmware/GD32VW55x_standard_peripheral/Source/gd32vw55x_hau_sha_md5.c ****     return SUCCESS;
 1538              		.loc 1 302 12
 1539 00f4 8547     		li	a5,1
 1540              	.L56:
 303:../Firmware/GD32VW55x_standard_peripheral/Source/gd32vw55x_hau_sha_md5.c **** }
 1541              		.loc 1 303 1 discriminator 1
 1542 00f6 3E85     		mv	a0,a5
 1543 00f8 B640     		lw	ra,76(sp)
 1544              		.cfi_restore 1
 1545 00fa 2644     		lw	s0,72(sp)
 1546              		.cfi_restore 8
 1547              		.cfi_def_cfa 2, 80
 1548 00fc 6161     		addi	sp,sp,80
 1549              		.cfi_def_cfa_offset 0
 1550 00fe 8280     		jr	ra
 1551              		.cfi_endproc
 1552              	.LFE356:
 1554              		.section	.text.hau_hmac_calculate,"ax",@progbits
 1555              		.align	1
 1557              	hau_hmac_calculate:
 1558              	.LFB357:
 304:../Firmware/GD32VW55x_standard_peripheral/Source/gd32vw55x_hau_sha_md5.c **** 
 305:../Firmware/GD32VW55x_standard_peripheral/Source/gd32vw55x_hau_sha_md5.c **** /*!
 306:../Firmware/GD32VW55x_standard_peripheral/Source/gd32vw55x_hau_sha_md5.c ****     \brief      HAU digest calculate process in HMAC mode
 307:../Firmware/GD32VW55x_standard_peripheral/Source/gd32vw55x_hau_sha_md5.c ****     \param[in]  algo: algorithm selection
 308:../Firmware/GD32VW55x_standard_peripheral/Source/gd32vw55x_hau_sha_md5.c ****     \param[in]  key: pointer to the key used for HMAC
 309:../Firmware/GD32VW55x_standard_peripheral/Source/gd32vw55x_hau_sha_md5.c ****     \param[in]  keysize: length of the key used for HMAC
 310:../Firmware/GD32VW55x_standard_peripheral/Source/gd32vw55x_hau_sha_md5.c ****     \param[in]  input: pointer to the input buffer
 311:../Firmware/GD32VW55x_standard_peripheral/Source/gd32vw55x_hau_sha_md5.c ****     \param[in]  in_length: length of the input buffer
 312:../Firmware/GD32VW55x_standard_peripheral/Source/gd32vw55x_hau_sha_md5.c ****     \param[in]  output: the result digest
 313:../Firmware/GD32VW55x_standard_peripheral/Source/gd32vw55x_hau_sha_md5.c ****     \param[out] none
 314:../Firmware/GD32VW55x_standard_peripheral/Source/gd32vw55x_hau_sha_md5.c ****     \retval     ErrStatus: SUCCESS or ERROR
 315:../Firmware/GD32VW55x_standard_peripheral/Source/gd32vw55x_hau_sha_md5.c **** */
 316:../Firmware/GD32VW55x_standard_peripheral/Source/gd32vw55x_hau_sha_md5.c **** static ErrStatus hau_hmac_calculate(uint32_t algo, uint8_t *key, uint32_t keysize, uint8_t *input, 
 317:../Firmware/GD32VW55x_standard_peripheral/Source/gd32vw55x_hau_sha_md5.c **** {
 1559              		.loc 1 317 1
 1560              		.cfi_startproc
 1561 0000 1D71     		addi	sp,sp,-96
 1562              		.cfi_def_cfa_offset 96
 1563 0002 86CE     		sw	ra,92(sp)
 1564 0004 A2CC     		sw	s0,88(sp)
 1565              		.cfi_offset 1, -4
 1566              		.cfi_offset 8, -8
 1567 0006 8010     		addi	s0,sp,96
 1568              		.cfi_def_cfa 8, 0
 1569 0008 232EA4FA 		sw	a0,-68(s0)
 1570 000c 232CB4FA 		sw	a1,-72(s0)
 1571 0010 232AC4FA 		sw	a2,-76(s0)
 1572 0014 2328D4FA 		sw	a3,-80(s0)
 1573 0018 2326E4FA 		sw	a4,-84(s0)
 1574 001c 2324F4FA 		sw	a5,-88(s0)
 318:../Firmware/GD32VW55x_standard_peripheral/Source/gd32vw55x_hau_sha_md5.c ****     hau_init_parameter_struct init_para;
 319:../Firmware/GD32VW55x_standard_peripheral/Source/gd32vw55x_hau_sha_md5.c **** 
 320:../Firmware/GD32VW55x_standard_peripheral/Source/gd32vw55x_hau_sha_md5.c ****     __IO uint16_t num_last_valid = 0U;
 1575              		.loc 1 320 19
 1576 0020 231704FC 		sh	zero,-50(s0)
 321:../Firmware/GD32VW55x_standard_peripheral/Source/gd32vw55x_hau_sha_md5.c ****     __IO uint16_t num_key_valid = 0U;
 1577              		.loc 1 321 19
 1578 0024 231604FC 		sh	zero,-52(s0)
 322:../Firmware/GD32VW55x_standard_peripheral/Source/gd32vw55x_hau_sha_md5.c ****     uint32_t i = 0U;
 1579              		.loc 1 322 14
 1580 0028 232604FE 		sw	zero,-20(s0)
 323:../Firmware/GD32VW55x_standard_peripheral/Source/gd32vw55x_hau_sha_md5.c ****     __IO uint32_t counter = 0U;
 1581              		.loc 1 323 19
 1582 002c 232404FC 		sw	zero,-56(s0)
 324:../Firmware/GD32VW55x_standard_peripheral/Source/gd32vw55x_hau_sha_md5.c ****     uint32_t busystatus = 0U;
 1583              		.loc 1 324 14
 1584 0030 232004FE 		sw	zero,-32(s0)
 325:../Firmware/GD32VW55x_standard_peripheral/Source/gd32vw55x_hau_sha_md5.c ****     uint32_t keyaddr    = (uint32_t)key;
 1585              		.loc 1 325 14
 1586 0034 832784FB 		lw	a5,-72(s0)
 1587 0038 2324F4FE 		sw	a5,-24(s0)
 326:../Firmware/GD32VW55x_standard_peripheral/Source/gd32vw55x_hau_sha_md5.c ****     uint32_t inputaddr  = (uint32_t)input;
 1588              		.loc 1 326 14
 1589 003c 832704FB 		lw	a5,-80(s0)
 1590 0040 2322F4FE 		sw	a5,-28(s0)
 327:../Firmware/GD32VW55x_standard_peripheral/Source/gd32vw55x_hau_sha_md5.c **** 
 328:../Firmware/GD32VW55x_standard_peripheral/Source/gd32vw55x_hau_sha_md5.c ****     /* number of valid bits in last word of the message */
 329:../Firmware/GD32VW55x_standard_peripheral/Source/gd32vw55x_hau_sha_md5.c ****     num_last_valid = 8U * (uint16_t)(in_length % 4U);
 1591              		.loc 1 329 20
 1592 0044 8327C4FA 		lw	a5,-84(s0)
 1593 0048 C207     		slli	a5,a5,16
 1594 004a C183     		srli	a5,a5,16
 1595 004c 8D8B     		andi	a5,a5,3
 1596 004e C207     		slli	a5,a5,16
 1597 0050 C183     		srli	a5,a5,16
 1598 0052 8E07     		slli	a5,a5,3
 1599 0054 C207     		slli	a5,a5,16
 1600 0056 C183     		srli	a5,a5,16
 1601 0058 2317F4FC 		sh	a5,-50(s0)
 330:../Firmware/GD32VW55x_standard_peripheral/Source/gd32vw55x_hau_sha_md5.c ****     /* number of valid bits in last word of the key */
 331:../Firmware/GD32VW55x_standard_peripheral/Source/gd32vw55x_hau_sha_md5.c ****     num_key_valid = 8U * (uint16_t)(keysize % 4U);
 1602              		.loc 1 331 19
 1603 005c 832744FB 		lw	a5,-76(s0)
 1604 0060 C207     		slli	a5,a5,16
 1605 0062 C183     		srli	a5,a5,16
 1606 0064 8D8B     		andi	a5,a5,3
 1607 0066 C207     		slli	a5,a5,16
 1608 0068 C183     		srli	a5,a5,16
 1609 006a 8E07     		slli	a5,a5,3
 1610 006c C207     		slli	a5,a5,16
 1611 006e C183     		srli	a5,a5,16
 1612 0070 2316F4FC 		sh	a5,-52(s0)
 332:../Firmware/GD32VW55x_standard_peripheral/Source/gd32vw55x_hau_sha_md5.c **** 
 333:../Firmware/GD32VW55x_standard_peripheral/Source/gd32vw55x_hau_sha_md5.c ****     /* HAU peripheral initialization */
 334:../Firmware/GD32VW55x_standard_peripheral/Source/gd32vw55x_hau_sha_md5.c ****     hau_deinit();
 1613              		.loc 1 334 5
 1614 0074 97000000 		call	hau_deinit
 1614      E7800000 
 335:../Firmware/GD32VW55x_standard_peripheral/Source/gd32vw55x_hau_sha_md5.c **** 
 336:../Firmware/GD32VW55x_standard_peripheral/Source/gd32vw55x_hau_sha_md5.c ****     /* HAU configuration */
 337:../Firmware/GD32VW55x_standard_peripheral/Source/gd32vw55x_hau_sha_md5.c ****     init_para.algo = algo;
 1615              		.loc 1 337 20
 1616 007c 8327C4FB 		lw	a5,-68(s0)
 1617 0080 2328F4FC 		sw	a5,-48(s0)
 338:../Firmware/GD32VW55x_standard_peripheral/Source/gd32vw55x_hau_sha_md5.c ****     init_para.mode = HAU_MODE_HMAC;
 1618              		.loc 1 338 20
 1619 0084 93070004 		li	a5,64
 1620 0088 232AF4FC 		sw	a5,-44(s0)
 339:../Firmware/GD32VW55x_standard_peripheral/Source/gd32vw55x_hau_sha_md5.c ****     init_para.datatype = HAU_SWAPPING_8BIT;
 1621              		.loc 1 339 24
 1622 008c 93070002 		li	a5,32
 1623 0090 232CF4FC 		sw	a5,-40(s0)
 340:../Firmware/GD32VW55x_standard_peripheral/Source/gd32vw55x_hau_sha_md5.c ****     if(keysize > 64U){
 1624              		.loc 1 340 7
 1625 0094 032744FB 		lw	a4,-76(s0)
 1626 0098 93070004 		li	a5,64
 1627 009c 63F6E700 		bleu	a4,a5,.L58
 341:../Firmware/GD32VW55x_standard_peripheral/Source/gd32vw55x_hau_sha_md5.c ****         init_para.keytype = HAU_KEY_LONGGER_64;
 1628              		.loc 1 341 27
 1629 00a0 C167     		li	a5,65536
 1630 00a2 232EF4FC 		sw	a5,-36(s0)
 1631 00a6 19A0     		j	.L59
 1632              	.L58:
 342:../Firmware/GD32VW55x_standard_peripheral/Source/gd32vw55x_hau_sha_md5.c ****     }else{
 343:../Firmware/GD32VW55x_standard_peripheral/Source/gd32vw55x_hau_sha_md5.c ****         init_para.keytype = HAU_KEY_SHORTER_64;
 1633              		.loc 1 343 27
 1634 00a8 232E04FC 		sw	zero,-36(s0)
 1635              	.L59:
 344:../Firmware/GD32VW55x_standard_peripheral/Source/gd32vw55x_hau_sha_md5.c ****     }
 345:../Firmware/GD32VW55x_standard_peripheral/Source/gd32vw55x_hau_sha_md5.c ****     hau_init(&init_para);
 1636              		.loc 1 345 5
 1637 00ac 930704FD 		addi	a5,s0,-48
 1638 00b0 3E85     		mv	a0,a5
 1639 00b2 97000000 		call	hau_init
 1639      E7800000 
 346:../Firmware/GD32VW55x_standard_peripheral/Source/gd32vw55x_hau_sha_md5.c **** 
 347:../Firmware/GD32VW55x_standard_peripheral/Source/gd32vw55x_hau_sha_md5.c ****     /* configure the number of valid bits in last word of the key */
 348:../Firmware/GD32VW55x_standard_peripheral/Source/gd32vw55x_hau_sha_md5.c ****     hau_last_word_validbits_num_config((uint32_t)num_key_valid);
 1640              		.loc 1 348 5
 1641 00ba 8357C4FC 		lhu	a5,-52(s0)
 1642 00be C207     		slli	a5,a5,16
 1643 00c0 C183     		srli	a5,a5,16
 1644 00c2 3E85     		mv	a0,a5
 1645 00c4 97000000 		call	hau_last_word_validbits_num_config
 1645      E7800000 
 349:../Firmware/GD32VW55x_standard_peripheral/Source/gd32vw55x_hau_sha_md5.c **** 
 350:../Firmware/GD32VW55x_standard_peripheral/Source/gd32vw55x_hau_sha_md5.c ****     /* write the key */
 351:../Firmware/GD32VW55x_standard_peripheral/Source/gd32vw55x_hau_sha_md5.c ****     for(i = 0U; i < keysize; i += 4U){
 1646              		.loc 1 351 11
 1647 00cc 232604FE 		sw	zero,-20(s0)
 1648              		.loc 1 351 5
 1649 00d0 1DA0     		j	.L60
 1650              	.L61:
 352:../Firmware/GD32VW55x_standard_peripheral/Source/gd32vw55x_hau_sha_md5.c ****         hau_data_write(*(uint32_t*)keyaddr);
 1651              		.loc 1 352 25 discriminator 3
 1652 00d2 832784FE 		lw	a5,-24(s0)
 1653              		.loc 1 352 9 discriminator 3
 1654 00d6 9C43     		lw	a5,0(a5)
 1655 00d8 3E85     		mv	a0,a5
 1656 00da 97000000 		call	hau_data_write
 1656      E7800000 
 353:../Firmware/GD32VW55x_standard_peripheral/Source/gd32vw55x_hau_sha_md5.c ****         keyaddr += 4U;
 1657              		.loc 1 353 17 discriminator 3
 1658 00e2 832784FE 		lw	a5,-24(s0)
 1659 00e6 9107     		addi	a5,a5,4
 1660 00e8 2324F4FE 		sw	a5,-24(s0)
 351:../Firmware/GD32VW55x_standard_peripheral/Source/gd32vw55x_hau_sha_md5.c ****         hau_data_write(*(uint32_t*)keyaddr);
 1661              		.loc 1 351 32 discriminator 3
 1662 00ec 8327C4FE 		lw	a5,-20(s0)
 1663 00f0 9107     		addi	a5,a5,4
 1664 00f2 2326F4FE 		sw	a5,-20(s0)
 1665              	.L60:
 351:../Firmware/GD32VW55x_standard_peripheral/Source/gd32vw55x_hau_sha_md5.c ****         hau_data_write(*(uint32_t*)keyaddr);
 1666              		.loc 1 351 5 discriminator 1
 1667 00f6 0327C4FE 		lw	a4,-20(s0)
 1668 00fa 832744FB 		lw	a5,-76(s0)
 1669 00fe E36AF7FC 		bltu	a4,a5,.L61
 354:../Firmware/GD32VW55x_standard_peripheral/Source/gd32vw55x_hau_sha_md5.c ****     }
 355:../Firmware/GD32VW55x_standard_peripheral/Source/gd32vw55x_hau_sha_md5.c **** 
 356:../Firmware/GD32VW55x_standard_peripheral/Source/gd32vw55x_hau_sha_md5.c ****     /* enable digest calculation */
 357:../Firmware/GD32VW55x_standard_peripheral/Source/gd32vw55x_hau_sha_md5.c ****     hau_digest_calculation_enable();
 1670              		.loc 1 357 5
 1671 0102 97000000 		call	hau_digest_calculation_enable
 1671      E7800000 
 1672              	.L63:
 358:../Firmware/GD32VW55x_standard_peripheral/Source/gd32vw55x_hau_sha_md5.c **** 
 359:../Firmware/GD32VW55x_standard_peripheral/Source/gd32vw55x_hau_sha_md5.c ****     /* wait until the busy flag is reset */
 360:../Firmware/GD32VW55x_standard_peripheral/Source/gd32vw55x_hau_sha_md5.c ****     do{
 361:../Firmware/GD32VW55x_standard_peripheral/Source/gd32vw55x_hau_sha_md5.c ****         busystatus = hau_flag_get(HAU_FLAG_BUSY);
 1673              		.loc 1 361 22 discriminator 2
 1674 010a 2145     		li	a0,8
 1675 010c 97000000 		call	hau_flag_get
 1675      E7800000 
 1676 0114 2320A4FE 		sw	a0,-32(s0)
 362:../Firmware/GD32VW55x_standard_peripheral/Source/gd32vw55x_hau_sha_md5.c ****         counter++;
 1677              		.loc 1 362 16 discriminator 2
 1678 0118 832784FC 		lw	a5,-56(s0)
 1679 011c 8507     		addi	a5,a5,1
 1680 011e 2324F4FC 		sw	a5,-56(s0)
 363:../Firmware/GD32VW55x_standard_peripheral/Source/gd32vw55x_hau_sha_md5.c ****     }while((SHAMD5_BSY_TIMEOUT != counter) && (RESET != busystatus));
 1681              		.loc 1 363 32 discriminator 2
 1682 0122 032784FC 		lw	a4,-56(s0)
 1683              		.loc 1 363 5 discriminator 2
 1684 0126 C167     		li	a5,65536
 1685 0128 6305F700 		beq	a4,a5,.L62
 1686              		.loc 1 363 44 discriminator 1
 1687 012c 832704FE 		lw	a5,-32(s0)
 1688 0130 E9FF     		bne	a5,zero,.L63
 1689              	.L62:
 364:../Firmware/GD32VW55x_standard_peripheral/Source/gd32vw55x_hau_sha_md5.c **** 
 365:../Firmware/GD32VW55x_standard_peripheral/Source/gd32vw55x_hau_sha_md5.c ****     if(RESET != busystatus){
 1690              		.loc 1 365 7
 1691 0132 832704FE 		lw	a5,-32(s0)
 1692 0136 99C3     		beq	a5,zero,.L64
 366:../Firmware/GD32VW55x_standard_peripheral/Source/gd32vw55x_hau_sha_md5.c ****         return ERROR;
 1693              		.loc 1 366 16
 1694 0138 8147     		li	a5,0
 1695 013a 25A2     		j	.L76
 1696              	.L64:
 367:../Firmware/GD32VW55x_standard_peripheral/Source/gd32vw55x_hau_sha_md5.c ****     }else{
 368:../Firmware/GD32VW55x_standard_peripheral/Source/gd32vw55x_hau_sha_md5.c ****         /* configure the number of valid bits in last word of the message */
 369:../Firmware/GD32VW55x_standard_peripheral/Source/gd32vw55x_hau_sha_md5.c ****         hau_last_word_validbits_num_config((uint32_t)num_last_valid);
 1697              		.loc 1 369 9
 1698 013c 8357E4FC 		lhu	a5,-50(s0)
 1699 0140 C207     		slli	a5,a5,16
 1700 0142 C183     		srli	a5,a5,16
 1701 0144 3E85     		mv	a0,a5
 1702 0146 97000000 		call	hau_last_word_validbits_num_config
 1702      E7800000 
 370:../Firmware/GD32VW55x_standard_peripheral/Source/gd32vw55x_hau_sha_md5.c **** 
 371:../Firmware/GD32VW55x_standard_peripheral/Source/gd32vw55x_hau_sha_md5.c ****         /* write data to the IN FIFO */
 372:../Firmware/GD32VW55x_standard_peripheral/Source/gd32vw55x_hau_sha_md5.c ****         for(i = 0U; i < in_length; i += 4U){
 1703              		.loc 1 372 15
 1704 014e 232604FE 		sw	zero,-20(s0)
 1705              		.loc 1 372 9
 1706 0152 1DA0     		j	.L66
 1707              	.L67:
 373:../Firmware/GD32VW55x_standard_peripheral/Source/gd32vw55x_hau_sha_md5.c ****             hau_data_write(*(uint32_t*)inputaddr);
 1708              		.loc 1 373 29 discriminator 3
 1709 0154 832744FE 		lw	a5,-28(s0)
 1710              		.loc 1 373 13 discriminator 3
 1711 0158 9C43     		lw	a5,0(a5)
 1712 015a 3E85     		mv	a0,a5
 1713 015c 97000000 		call	hau_data_write
 1713      E7800000 
 374:../Firmware/GD32VW55x_standard_peripheral/Source/gd32vw55x_hau_sha_md5.c ****             inputaddr += 4U;
 1714              		.loc 1 374 23 discriminator 3
 1715 0164 832744FE 		lw	a5,-28(s0)
 1716 0168 9107     		addi	a5,a5,4
 1717 016a 2322F4FE 		sw	a5,-28(s0)
 372:../Firmware/GD32VW55x_standard_peripheral/Source/gd32vw55x_hau_sha_md5.c ****             hau_data_write(*(uint32_t*)inputaddr);
 1718              		.loc 1 372 38 discriminator 3
 1719 016e 8327C4FE 		lw	a5,-20(s0)
 1720 0172 9107     		addi	a5,a5,4
 1721 0174 2326F4FE 		sw	a5,-20(s0)
 1722              	.L66:
 372:../Firmware/GD32VW55x_standard_peripheral/Source/gd32vw55x_hau_sha_md5.c ****             hau_data_write(*(uint32_t*)inputaddr);
 1723              		.loc 1 372 9 discriminator 1
 1724 0178 0327C4FE 		lw	a4,-20(s0)
 1725 017c 8327C4FA 		lw	a5,-84(s0)
 1726 0180 E36AF7FC 		bltu	a4,a5,.L67
 375:../Firmware/GD32VW55x_standard_peripheral/Source/gd32vw55x_hau_sha_md5.c ****         }
 376:../Firmware/GD32VW55x_standard_peripheral/Source/gd32vw55x_hau_sha_md5.c **** 
 377:../Firmware/GD32VW55x_standard_peripheral/Source/gd32vw55x_hau_sha_md5.c ****         /* enable digest calculation */
 378:../Firmware/GD32VW55x_standard_peripheral/Source/gd32vw55x_hau_sha_md5.c ****         hau_digest_calculation_enable();
 1727              		.loc 1 378 9
 1728 0184 97000000 		call	hau_digest_calculation_enable
 1728      E7800000 
 379:../Firmware/GD32VW55x_standard_peripheral/Source/gd32vw55x_hau_sha_md5.c **** 
 380:../Firmware/GD32VW55x_standard_peripheral/Source/gd32vw55x_hau_sha_md5.c ****         /* wait until the busy flag is reset */
 381:../Firmware/GD32VW55x_standard_peripheral/Source/gd32vw55x_hau_sha_md5.c ****         counter = 0U;
 1729              		.loc 1 381 17
 1730 018c 232404FC 		sw	zero,-56(s0)
 1731              	.L69:
 382:../Firmware/GD32VW55x_standard_peripheral/Source/gd32vw55x_hau_sha_md5.c ****         do{
 383:../Firmware/GD32VW55x_standard_peripheral/Source/gd32vw55x_hau_sha_md5.c ****             busystatus = hau_flag_get(HAU_FLAG_BUSY);
 1732              		.loc 1 383 26 discriminator 2
 1733 0190 2145     		li	a0,8
 1734 0192 97000000 		call	hau_flag_get
 1734      E7800000 
 1735 019a 2320A4FE 		sw	a0,-32(s0)
 384:../Firmware/GD32VW55x_standard_peripheral/Source/gd32vw55x_hau_sha_md5.c ****             counter++;
 1736              		.loc 1 384 20 discriminator 2
 1737 019e 832784FC 		lw	a5,-56(s0)
 1738 01a2 8507     		addi	a5,a5,1
 1739 01a4 2324F4FC 		sw	a5,-56(s0)
 385:../Firmware/GD32VW55x_standard_peripheral/Source/gd32vw55x_hau_sha_md5.c ****         }while((SHAMD5_BSY_TIMEOUT != counter) && (RESET != busystatus));
 1740              		.loc 1 385 36 discriminator 2
 1741 01a8 032784FC 		lw	a4,-56(s0)
 1742              		.loc 1 385 9 discriminator 2
 1743 01ac C167     		li	a5,65536
 1744 01ae 6305F700 		beq	a4,a5,.L68
 1745              		.loc 1 385 48 discriminator 1
 1746 01b2 832704FE 		lw	a5,-32(s0)
 1747 01b6 E9FF     		bne	a5,zero,.L69
 1748              	.L68:
 386:../Firmware/GD32VW55x_standard_peripheral/Source/gd32vw55x_hau_sha_md5.c **** 
 387:../Firmware/GD32VW55x_standard_peripheral/Source/gd32vw55x_hau_sha_md5.c ****         if(RESET != busystatus){
 1749              		.loc 1 387 11
 1750 01b8 832704FE 		lw	a5,-32(s0)
 1751 01bc 99C3     		beq	a5,zero,.L70
 388:../Firmware/GD32VW55x_standard_peripheral/Source/gd32vw55x_hau_sha_md5.c ****             return ERROR;
 1752              		.loc 1 388 20
 1753 01be 8147     		li	a5,0
 1754 01c0 4DA0     		j	.L76
 1755              	.L70:
 389:../Firmware/GD32VW55x_standard_peripheral/Source/gd32vw55x_hau_sha_md5.c ****         }else{
 390:../Firmware/GD32VW55x_standard_peripheral/Source/gd32vw55x_hau_sha_md5.c ****             /* configure the number of valid bits in last word of the key */
 391:../Firmware/GD32VW55x_standard_peripheral/Source/gd32vw55x_hau_sha_md5.c ****             hau_last_word_validbits_num_config((uint32_t)num_key_valid);
 1756              		.loc 1 391 13
 1757 01c2 8357C4FC 		lhu	a5,-52(s0)
 1758 01c6 C207     		slli	a5,a5,16
 1759 01c8 C183     		srli	a5,a5,16
 1760 01ca 3E85     		mv	a0,a5
 1761 01cc 97000000 		call	hau_last_word_validbits_num_config
 1761      E7800000 
 392:../Firmware/GD32VW55x_standard_peripheral/Source/gd32vw55x_hau_sha_md5.c **** 
 393:../Firmware/GD32VW55x_standard_peripheral/Source/gd32vw55x_hau_sha_md5.c ****             /* write the key */
 394:../Firmware/GD32VW55x_standard_peripheral/Source/gd32vw55x_hau_sha_md5.c ****             keyaddr = (uint32_t)key;
 1762              		.loc 1 394 21
 1763 01d4 832784FB 		lw	a5,-72(s0)
 1764 01d8 2324F4FE 		sw	a5,-24(s0)
 395:../Firmware/GD32VW55x_standard_peripheral/Source/gd32vw55x_hau_sha_md5.c ****             for(i = 0U; i < keysize; i += 4U){
 1765              		.loc 1 395 19
 1766 01dc 232604FE 		sw	zero,-20(s0)
 1767              		.loc 1 395 13
 1768 01e0 1DA0     		j	.L71
 1769              	.L72:
 396:../Firmware/GD32VW55x_standard_peripheral/Source/gd32vw55x_hau_sha_md5.c ****                 hau_data_write(*(uint32_t*)keyaddr);
 1770              		.loc 1 396 33 discriminator 3
 1771 01e2 832784FE 		lw	a5,-24(s0)
 1772              		.loc 1 396 17 discriminator 3
 1773 01e6 9C43     		lw	a5,0(a5)
 1774 01e8 3E85     		mv	a0,a5
 1775 01ea 97000000 		call	hau_data_write
 1775      E7800000 
 397:../Firmware/GD32VW55x_standard_peripheral/Source/gd32vw55x_hau_sha_md5.c ****                 keyaddr += 4U;
 1776              		.loc 1 397 25 discriminator 3
 1777 01f2 832784FE 		lw	a5,-24(s0)
 1778 01f6 9107     		addi	a5,a5,4
 1779 01f8 2324F4FE 		sw	a5,-24(s0)
 395:../Firmware/GD32VW55x_standard_peripheral/Source/gd32vw55x_hau_sha_md5.c ****             for(i = 0U; i < keysize; i += 4U){
 1780              		.loc 1 395 40 discriminator 3
 1781 01fc 8327C4FE 		lw	a5,-20(s0)
 1782 0200 9107     		addi	a5,a5,4
 1783 0202 2326F4FE 		sw	a5,-20(s0)
 1784              	.L71:
 395:../Firmware/GD32VW55x_standard_peripheral/Source/gd32vw55x_hau_sha_md5.c ****             for(i = 0U; i < keysize; i += 4U){
 1785              		.loc 1 395 13 discriminator 1
 1786 0206 0327C4FE 		lw	a4,-20(s0)
 1787 020a 832744FB 		lw	a5,-76(s0)
 1788 020e E36AF7FC 		bltu	a4,a5,.L72
 398:../Firmware/GD32VW55x_standard_peripheral/Source/gd32vw55x_hau_sha_md5.c ****             }
 399:../Firmware/GD32VW55x_standard_peripheral/Source/gd32vw55x_hau_sha_md5.c **** 
 400:../Firmware/GD32VW55x_standard_peripheral/Source/gd32vw55x_hau_sha_md5.c ****             /* enable digest calculation */
 401:../Firmware/GD32VW55x_standard_peripheral/Source/gd32vw55x_hau_sha_md5.c ****             hau_digest_calculation_enable();
 1789              		.loc 1 401 13
 1790 0212 97000000 		call	hau_digest_calculation_enable
 1790      E7800000 
 402:../Firmware/GD32VW55x_standard_peripheral/Source/gd32vw55x_hau_sha_md5.c **** 
 403:../Firmware/GD32VW55x_standard_peripheral/Source/gd32vw55x_hau_sha_md5.c ****             /* wait until the busy flag is reset */
 404:../Firmware/GD32VW55x_standard_peripheral/Source/gd32vw55x_hau_sha_md5.c ****             counter = 0U;
 1791              		.loc 1 404 21
 1792 021a 232404FC 		sw	zero,-56(s0)
 1793              	.L74:
 405:../Firmware/GD32VW55x_standard_peripheral/Source/gd32vw55x_hau_sha_md5.c ****             do{
 406:../Firmware/GD32VW55x_standard_peripheral/Source/gd32vw55x_hau_sha_md5.c ****                 busystatus = hau_flag_get(HAU_FLAG_BUSY);
 1794              		.loc 1 406 30 discriminator 2
 1795 021e 2145     		li	a0,8
 1796 0220 97000000 		call	hau_flag_get
 1796      E7800000 
 1797 0228 2320A4FE 		sw	a0,-32(s0)
 407:../Firmware/GD32VW55x_standard_peripheral/Source/gd32vw55x_hau_sha_md5.c ****                 counter++;
 1798              		.loc 1 407 24 discriminator 2
 1799 022c 832784FC 		lw	a5,-56(s0)
 1800 0230 8507     		addi	a5,a5,1
 1801 0232 2324F4FC 		sw	a5,-56(s0)
 408:../Firmware/GD32VW55x_standard_peripheral/Source/gd32vw55x_hau_sha_md5.c ****             }while((SHAMD5_BSY_TIMEOUT != counter) && (RESET != busystatus));
 1802              		.loc 1 408 40 discriminator 2
 1803 0236 032784FC 		lw	a4,-56(s0)
 1804              		.loc 1 408 13 discriminator 2
 1805 023a C167     		li	a5,65536
 1806 023c 6305F700 		beq	a4,a5,.L73
 1807              		.loc 1 408 52 discriminator 1
 1808 0240 832704FE 		lw	a5,-32(s0)
 1809 0244 E9FF     		bne	a5,zero,.L74
 1810              	.L73:
 409:../Firmware/GD32VW55x_standard_peripheral/Source/gd32vw55x_hau_sha_md5.c **** 
 410:../Firmware/GD32VW55x_standard_peripheral/Source/gd32vw55x_hau_sha_md5.c ****             if(RESET != busystatus){
 1811              		.loc 1 410 15
 1812 0246 832704FE 		lw	a5,-32(s0)
 1813 024a 99C3     		beq	a5,zero,.L75
 411:../Firmware/GD32VW55x_standard_peripheral/Source/gd32vw55x_hau_sha_md5.c ****                 return ERROR;
 1814              		.loc 1 411 24
 1815 024c 8147     		li	a5,0
 1816 024e 11A8     		j	.L76
 1817              	.L75:
 412:../Firmware/GD32VW55x_standard_peripheral/Source/gd32vw55x_hau_sha_md5.c ****             }else{
 413:../Firmware/GD32VW55x_standard_peripheral/Source/gd32vw55x_hau_sha_md5.c ****                 /* read the message digest */
 414:../Firmware/GD32VW55x_standard_peripheral/Source/gd32vw55x_hau_sha_md5.c ****                 hau_sha_md5_digest_read(algo, output);
 1818              		.loc 1 414 17
 1819 0250 832584FA 		lw	a1,-88(s0)
 1820 0254 0325C4FB 		lw	a0,-68(s0)
 1821 0258 97000000 		call	hau_sha_md5_digest_read
 1821      E7800000 
 415:../Firmware/GD32VW55x_standard_peripheral/Source/gd32vw55x_hau_sha_md5.c ****             }
 416:../Firmware/GD32VW55x_standard_peripheral/Source/gd32vw55x_hau_sha_md5.c ****         }
 417:../Firmware/GD32VW55x_standard_peripheral/Source/gd32vw55x_hau_sha_md5.c ****     }
 418:../Firmware/GD32VW55x_standard_peripheral/Source/gd32vw55x_hau_sha_md5.c ****     return SUCCESS;
 1822              		.loc 1 418 12
 1823 0260 8547     		li	a5,1
 1824              	.L76:
 419:../Firmware/GD32VW55x_standard_peripheral/Source/gd32vw55x_hau_sha_md5.c **** }
 1825              		.loc 1 419 1 discriminator 1
 1826 0262 3E85     		mv	a0,a5
 1827 0264 F640     		lw	ra,92(sp)
 1828              		.cfi_restore 1
 1829 0266 6644     		lw	s0,88(sp)
 1830              		.cfi_restore 8
 1831              		.cfi_def_cfa 2, 96
 1832 0268 2561     		addi	sp,sp,96
 1833              		.cfi_def_cfa_offset 0
 1834 026a 8280     		jr	ra
 1835              		.cfi_endproc
 1836              	.LFE357:
 1838              		.text
 1839              	.Letext0:
 1840              		.file 3 "e:\\gd32\\gd32embeddedbuilder_v1.5.2.30854\\tools\\nuclei_riscv_newlibc_prebuilt_win32_20
 1841              		.file 4 "e:\\gd32\\gd32embeddedbuilder_v1.5.2.30854\\tools\\nuclei_riscv_newlibc_prebuilt_win32_20
 1842              		.file 5 "../Firmware/GD32VW55x_standard_peripheral/gd32vw55x.h"
 1843              		.file 6 "../Firmware/GD32VW55x_standard_peripheral/Include/gd32vw55x_hau.h"
DEFINED SYMBOLS
                            *ABS*:0000000000000000 gd32vw55x_hau_sha_md5.c
C:\Users\CYMR90~1\AppData\Local\Temp\ccxApcqi.s:13     .text.hau_hash_sha_1:0000000000000000 hau_hash_sha_1
C:\Users\CYMR90~1\AppData\Local\Temp\ccxApcqi.s:17     .text.hau_hash_sha_1:0000000000000000 .L0 
C:\Users\CYMR90~1\AppData\Local\Temp\ccxApcqi.s:18     .text.hau_hash_sha_1:0000000000000000 .L0 
C:\Users\CYMR90~1\AppData\Local\Temp\ccxApcqi.s:19     .text.hau_hash_sha_1:0000000000000002 .L0 
C:\Users\CYMR90~1\AppData\Local\Temp\ccxApcqi.s:22     .text.hau_hash_sha_1:0000000000000006 .L0 
C:\Users\CYMR90~1\AppData\Local\Temp\ccxApcqi.s:23     .text.hau_hash_sha_1:0000000000000006 .L0 
C:\Users\CYMR90~1\AppData\Local\Temp\ccxApcqi.s:25     .text.hau_hash_sha_1:0000000000000008 .L0 
C:\Users\CYMR90~1\AppData\Local\Temp\ccxApcqi.s:30     .text.hau_hash_sha_1:0000000000000014 .L0 
C:\Users\CYMR90~1\AppData\Local\Temp\ccxApcqi.s:32     .text.hau_hash_sha_1:0000000000000018 .L0 
C:\Users\CYMR90~1\AppData\Local\Temp\ccxApcqi.s:1431   .text.hau_hash_calculate:0000000000000000 hau_hash_calculate
C:\Users\CYMR90~1\AppData\Local\Temp\ccxApcqi.s:39     .text.hau_hash_sha_1:0000000000000032 .L0 
C:\Users\CYMR90~1\AppData\Local\Temp\ccxApcqi.s:41     .text.hau_hash_sha_1:0000000000000036 .L0 
C:\Users\CYMR90~1\AppData\Local\Temp\ccxApcqi.s:43     .text.hau_hash_sha_1:000000000000003a .L0 
C:\Users\CYMR90~1\AppData\Local\Temp\ccxApcqi.s:45     .text.hau_hash_sha_1:000000000000003c .L0 
C:\Users\CYMR90~1\AppData\Local\Temp\ccxApcqi.s:46     .text.hau_hash_sha_1:000000000000003c .L0 
C:\Users\CYMR90~1\AppData\Local\Temp\ccxApcqi.s:48     .text.hau_hash_sha_1:000000000000003e .L0 
C:\Users\CYMR90~1\AppData\Local\Temp\ccxApcqi.s:50     .text.hau_hash_sha_1:0000000000000040 .L0 
C:\Users\CYMR90~1\AppData\Local\Temp\ccxApcqi.s:57     .text.hau_hmac_sha_1:0000000000000000 hau_hmac_sha_1
C:\Users\CYMR90~1\AppData\Local\Temp\ccxApcqi.s:60     .text.hau_hmac_sha_1:0000000000000000 .L0 
C:\Users\CYMR90~1\AppData\Local\Temp\ccxApcqi.s:61     .text.hau_hmac_sha_1:0000000000000000 .L0 
C:\Users\CYMR90~1\AppData\Local\Temp\ccxApcqi.s:62     .text.hau_hmac_sha_1:0000000000000002 .L0 
C:\Users\CYMR90~1\AppData\Local\Temp\ccxApcqi.s:65     .text.hau_hmac_sha_1:0000000000000006 .L0 
C:\Users\CYMR90~1\AppData\Local\Temp\ccxApcqi.s:66     .text.hau_hmac_sha_1:0000000000000006 .L0 
C:\Users\CYMR90~1\AppData\Local\Temp\ccxApcqi.s:68     .text.hau_hmac_sha_1:0000000000000008 .L0 
C:\Users\CYMR90~1\AppData\Local\Temp\ccxApcqi.s:75     .text.hau_hmac_sha_1:000000000000001c .L0 
C:\Users\CYMR90~1\AppData\Local\Temp\ccxApcqi.s:77     .text.hau_hmac_sha_1:0000000000000020 .L0 
C:\Users\CYMR90~1\AppData\Local\Temp\ccxApcqi.s:1557   .text.hau_hmac_calculate:0000000000000000 hau_hmac_calculate
C:\Users\CYMR90~1\AppData\Local\Temp\ccxApcqi.s:86     .text.hau_hmac_sha_1:0000000000000042 .L0 
C:\Users\CYMR90~1\AppData\Local\Temp\ccxApcqi.s:88     .text.hau_hmac_sha_1:0000000000000046 .L0 
C:\Users\CYMR90~1\AppData\Local\Temp\ccxApcqi.s:90     .text.hau_hmac_sha_1:000000000000004a .L0 
C:\Users\CYMR90~1\AppData\Local\Temp\ccxApcqi.s:92     .text.hau_hmac_sha_1:000000000000004c .L0 
C:\Users\CYMR90~1\AppData\Local\Temp\ccxApcqi.s:93     .text.hau_hmac_sha_1:000000000000004c .L0 
C:\Users\CYMR90~1\AppData\Local\Temp\ccxApcqi.s:95     .text.hau_hmac_sha_1:000000000000004e .L0 
C:\Users\CYMR90~1\AppData\Local\Temp\ccxApcqi.s:97     .text.hau_hmac_sha_1:0000000000000050 .L0 
C:\Users\CYMR90~1\AppData\Local\Temp\ccxApcqi.s:104    .text.hau_hash_sha_224:0000000000000000 hau_hash_sha_224
C:\Users\CYMR90~1\AppData\Local\Temp\ccxApcqi.s:107    .text.hau_hash_sha_224:0000000000000000 .L0 
C:\Users\CYMR90~1\AppData\Local\Temp\ccxApcqi.s:108    .text.hau_hash_sha_224:0000000000000000 .L0 
C:\Users\CYMR90~1\AppData\Local\Temp\ccxApcqi.s:109    .text.hau_hash_sha_224:0000000000000002 .L0 
C:\Users\CYMR90~1\AppData\Local\Temp\ccxApcqi.s:112    .text.hau_hash_sha_224:0000000000000006 .L0 
C:\Users\CYMR90~1\AppData\Local\Temp\ccxApcqi.s:113    .text.hau_hash_sha_224:0000000000000006 .L0 
C:\Users\CYMR90~1\AppData\Local\Temp\ccxApcqi.s:115    .text.hau_hash_sha_224:0000000000000008 .L0 
C:\Users\CYMR90~1\AppData\Local\Temp\ccxApcqi.s:120    .text.hau_hash_sha_224:0000000000000014 .L0 
C:\Users\CYMR90~1\AppData\Local\Temp\ccxApcqi.s:122    .text.hau_hash_sha_224:0000000000000018 .L0 
C:\Users\CYMR90~1\AppData\Local\Temp\ccxApcqi.s:129    .text.hau_hash_sha_224:0000000000000034 .L0 
C:\Users\CYMR90~1\AppData\Local\Temp\ccxApcqi.s:131    .text.hau_hash_sha_224:0000000000000038 .L0 
C:\Users\CYMR90~1\AppData\Local\Temp\ccxApcqi.s:133    .text.hau_hash_sha_224:000000000000003c .L0 
C:\Users\CYMR90~1\AppData\Local\Temp\ccxApcqi.s:135    .text.hau_hash_sha_224:000000000000003e .L0 
C:\Users\CYMR90~1\AppData\Local\Temp\ccxApcqi.s:136    .text.hau_hash_sha_224:000000000000003e .L0 
C:\Users\CYMR90~1\AppData\Local\Temp\ccxApcqi.s:138    .text.hau_hash_sha_224:0000000000000040 .L0 
C:\Users\CYMR90~1\AppData\Local\Temp\ccxApcqi.s:140    .text.hau_hash_sha_224:0000000000000042 .L0 
C:\Users\CYMR90~1\AppData\Local\Temp\ccxApcqi.s:147    .text.hau_hmac_sha_224:0000000000000000 hau_hmac_sha_224
C:\Users\CYMR90~1\AppData\Local\Temp\ccxApcqi.s:150    .text.hau_hmac_sha_224:0000000000000000 .L0 
C:\Users\CYMR90~1\AppData\Local\Temp\ccxApcqi.s:151    .text.hau_hmac_sha_224:0000000000000000 .L0 
C:\Users\CYMR90~1\AppData\Local\Temp\ccxApcqi.s:152    .text.hau_hmac_sha_224:0000000000000002 .L0 
C:\Users\CYMR90~1\AppData\Local\Temp\ccxApcqi.s:155    .text.hau_hmac_sha_224:0000000000000006 .L0 
C:\Users\CYMR90~1\AppData\Local\Temp\ccxApcqi.s:156    .text.hau_hmac_sha_224:0000000000000006 .L0 
C:\Users\CYMR90~1\AppData\Local\Temp\ccxApcqi.s:158    .text.hau_hmac_sha_224:0000000000000008 .L0 
C:\Users\CYMR90~1\AppData\Local\Temp\ccxApcqi.s:165    .text.hau_hmac_sha_224:000000000000001c .L0 
C:\Users\CYMR90~1\AppData\Local\Temp\ccxApcqi.s:167    .text.hau_hmac_sha_224:0000000000000020 .L0 
C:\Users\CYMR90~1\AppData\Local\Temp\ccxApcqi.s:176    .text.hau_hmac_sha_224:0000000000000044 .L0 
C:\Users\CYMR90~1\AppData\Local\Temp\ccxApcqi.s:178    .text.hau_hmac_sha_224:0000000000000048 .L0 
C:\Users\CYMR90~1\AppData\Local\Temp\ccxApcqi.s:180    .text.hau_hmac_sha_224:000000000000004c .L0 
C:\Users\CYMR90~1\AppData\Local\Temp\ccxApcqi.s:182    .text.hau_hmac_sha_224:000000000000004e .L0 
C:\Users\CYMR90~1\AppData\Local\Temp\ccxApcqi.s:183    .text.hau_hmac_sha_224:000000000000004e .L0 
C:\Users\CYMR90~1\AppData\Local\Temp\ccxApcqi.s:185    .text.hau_hmac_sha_224:0000000000000050 .L0 
C:\Users\CYMR90~1\AppData\Local\Temp\ccxApcqi.s:187    .text.hau_hmac_sha_224:0000000000000052 .L0 
C:\Users\CYMR90~1\AppData\Local\Temp\ccxApcqi.s:194    .text.hau_hash_sha_256:0000000000000000 hau_hash_sha_256
C:\Users\CYMR90~1\AppData\Local\Temp\ccxApcqi.s:197    .text.hau_hash_sha_256:0000000000000000 .L0 
C:\Users\CYMR90~1\AppData\Local\Temp\ccxApcqi.s:198    .text.hau_hash_sha_256:0000000000000000 .L0 
C:\Users\CYMR90~1\AppData\Local\Temp\ccxApcqi.s:199    .text.hau_hash_sha_256:0000000000000002 .L0 
C:\Users\CYMR90~1\AppData\Local\Temp\ccxApcqi.s:202    .text.hau_hash_sha_256:0000000000000006 .L0 
C:\Users\CYMR90~1\AppData\Local\Temp\ccxApcqi.s:203    .text.hau_hash_sha_256:0000000000000006 .L0 
C:\Users\CYMR90~1\AppData\Local\Temp\ccxApcqi.s:205    .text.hau_hash_sha_256:0000000000000008 .L0 
C:\Users\CYMR90~1\AppData\Local\Temp\ccxApcqi.s:210    .text.hau_hash_sha_256:0000000000000014 .L0 
C:\Users\CYMR90~1\AppData\Local\Temp\ccxApcqi.s:212    .text.hau_hash_sha_256:0000000000000018 .L0 
C:\Users\CYMR90~1\AppData\Local\Temp\ccxApcqi.s:220    .text.hau_hash_sha_256:0000000000000038 .L0 
C:\Users\CYMR90~1\AppData\Local\Temp\ccxApcqi.s:222    .text.hau_hash_sha_256:000000000000003c .L0 
C:\Users\CYMR90~1\AppData\Local\Temp\ccxApcqi.s:224    .text.hau_hash_sha_256:0000000000000040 .L0 
C:\Users\CYMR90~1\AppData\Local\Temp\ccxApcqi.s:226    .text.hau_hash_sha_256:0000000000000042 .L0 
C:\Users\CYMR90~1\AppData\Local\Temp\ccxApcqi.s:227    .text.hau_hash_sha_256:0000000000000042 .L0 
C:\Users\CYMR90~1\AppData\Local\Temp\ccxApcqi.s:229    .text.hau_hash_sha_256:0000000000000044 .L0 
C:\Users\CYMR90~1\AppData\Local\Temp\ccxApcqi.s:231    .text.hau_hash_sha_256:0000000000000046 .L0 
C:\Users\CYMR90~1\AppData\Local\Temp\ccxApcqi.s:238    .text.hau_hmac_sha_256:0000000000000000 hau_hmac_sha_256
C:\Users\CYMR90~1\AppData\Local\Temp\ccxApcqi.s:241    .text.hau_hmac_sha_256:0000000000000000 .L0 
C:\Users\CYMR90~1\AppData\Local\Temp\ccxApcqi.s:242    .text.hau_hmac_sha_256:0000000000000000 .L0 
C:\Users\CYMR90~1\AppData\Local\Temp\ccxApcqi.s:243    .text.hau_hmac_sha_256:0000000000000002 .L0 
C:\Users\CYMR90~1\AppData\Local\Temp\ccxApcqi.s:246    .text.hau_hmac_sha_256:0000000000000006 .L0 
C:\Users\CYMR90~1\AppData\Local\Temp\ccxApcqi.s:247    .text.hau_hmac_sha_256:0000000000000006 .L0 
C:\Users\CYMR90~1\AppData\Local\Temp\ccxApcqi.s:249    .text.hau_hmac_sha_256:0000000000000008 .L0 
C:\Users\CYMR90~1\AppData\Local\Temp\ccxApcqi.s:256    .text.hau_hmac_sha_256:000000000000001c .L0 
C:\Users\CYMR90~1\AppData\Local\Temp\ccxApcqi.s:258    .text.hau_hmac_sha_256:0000000000000020 .L0 
C:\Users\CYMR90~1\AppData\Local\Temp\ccxApcqi.s:268    .text.hau_hmac_sha_256:0000000000000048 .L0 
C:\Users\CYMR90~1\AppData\Local\Temp\ccxApcqi.s:270    .text.hau_hmac_sha_256:000000000000004c .L0 
C:\Users\CYMR90~1\AppData\Local\Temp\ccxApcqi.s:272    .text.hau_hmac_sha_256:0000000000000050 .L0 
C:\Users\CYMR90~1\AppData\Local\Temp\ccxApcqi.s:274    .text.hau_hmac_sha_256:0000000000000052 .L0 
C:\Users\CYMR90~1\AppData\Local\Temp\ccxApcqi.s:275    .text.hau_hmac_sha_256:0000000000000052 .L0 
C:\Users\CYMR90~1\AppData\Local\Temp\ccxApcqi.s:277    .text.hau_hmac_sha_256:0000000000000054 .L0 
C:\Users\CYMR90~1\AppData\Local\Temp\ccxApcqi.s:279    .text.hau_hmac_sha_256:0000000000000056 .L0 
C:\Users\CYMR90~1\AppData\Local\Temp\ccxApcqi.s:286    .text.hau_hash_md5:0000000000000000 hau_hash_md5
C:\Users\CYMR90~1\AppData\Local\Temp\ccxApcqi.s:289    .text.hau_hash_md5:0000000000000000 .L0 
C:\Users\CYMR90~1\AppData\Local\Temp\ccxApcqi.s:290    .text.hau_hash_md5:0000000000000000 .L0 
C:\Users\CYMR90~1\AppData\Local\Temp\ccxApcqi.s:291    .text.hau_hash_md5:0000000000000002 .L0 
C:\Users\CYMR90~1\AppData\Local\Temp\ccxApcqi.s:294    .text.hau_hash_md5:0000000000000006 .L0 
C:\Users\CYMR90~1\AppData\Local\Temp\ccxApcqi.s:295    .text.hau_hash_md5:0000000000000006 .L0 
C:\Users\CYMR90~1\AppData\Local\Temp\ccxApcqi.s:297    .text.hau_hash_md5:0000000000000008 .L0 
C:\Users\CYMR90~1\AppData\Local\Temp\ccxApcqi.s:302    .text.hau_hash_md5:0000000000000014 .L0 
C:\Users\CYMR90~1\AppData\Local\Temp\ccxApcqi.s:304    .text.hau_hash_md5:0000000000000018 .L0 
C:\Users\CYMR90~1\AppData\Local\Temp\ccxApcqi.s:311    .text.hau_hash_md5:0000000000000034 .L0 
C:\Users\CYMR90~1\AppData\Local\Temp\ccxApcqi.s:313    .text.hau_hash_md5:0000000000000038 .L0 
C:\Users\CYMR90~1\AppData\Local\Temp\ccxApcqi.s:315    .text.hau_hash_md5:000000000000003c .L0 
C:\Users\CYMR90~1\AppData\Local\Temp\ccxApcqi.s:317    .text.hau_hash_md5:000000000000003e .L0 
C:\Users\CYMR90~1\AppData\Local\Temp\ccxApcqi.s:318    .text.hau_hash_md5:000000000000003e .L0 
C:\Users\CYMR90~1\AppData\Local\Temp\ccxApcqi.s:320    .text.hau_hash_md5:0000000000000040 .L0 
C:\Users\CYMR90~1\AppData\Local\Temp\ccxApcqi.s:322    .text.hau_hash_md5:0000000000000042 .L0 
C:\Users\CYMR90~1\AppData\Local\Temp\ccxApcqi.s:329    .text.hau_hmac_md5:0000000000000000 hau_hmac_md5
C:\Users\CYMR90~1\AppData\Local\Temp\ccxApcqi.s:332    .text.hau_hmac_md5:0000000000000000 .L0 
C:\Users\CYMR90~1\AppData\Local\Temp\ccxApcqi.s:333    .text.hau_hmac_md5:0000000000000000 .L0 
C:\Users\CYMR90~1\AppData\Local\Temp\ccxApcqi.s:334    .text.hau_hmac_md5:0000000000000002 .L0 
C:\Users\CYMR90~1\AppData\Local\Temp\ccxApcqi.s:337    .text.hau_hmac_md5:0000000000000006 .L0 
C:\Users\CYMR90~1\AppData\Local\Temp\ccxApcqi.s:338    .text.hau_hmac_md5:0000000000000006 .L0 
C:\Users\CYMR90~1\AppData\Local\Temp\ccxApcqi.s:340    .text.hau_hmac_md5:0000000000000008 .L0 
C:\Users\CYMR90~1\AppData\Local\Temp\ccxApcqi.s:347    .text.hau_hmac_md5:000000000000001c .L0 
C:\Users\CYMR90~1\AppData\Local\Temp\ccxApcqi.s:349    .text.hau_hmac_md5:0000000000000020 .L0 
C:\Users\CYMR90~1\AppData\Local\Temp\ccxApcqi.s:358    .text.hau_hmac_md5:0000000000000044 .L0 
C:\Users\CYMR90~1\AppData\Local\Temp\ccxApcqi.s:360    .text.hau_hmac_md5:0000000000000048 .L0 
C:\Users\CYMR90~1\AppData\Local\Temp\ccxApcqi.s:362    .text.hau_hmac_md5:000000000000004c .L0 
C:\Users\CYMR90~1\AppData\Local\Temp\ccxApcqi.s:364    .text.hau_hmac_md5:000000000000004e .L0 
C:\Users\CYMR90~1\AppData\Local\Temp\ccxApcqi.s:365    .text.hau_hmac_md5:000000000000004e .L0 
C:\Users\CYMR90~1\AppData\Local\Temp\ccxApcqi.s:367    .text.hau_hmac_md5:0000000000000050 .L0 
C:\Users\CYMR90~1\AppData\Local\Temp\ccxApcqi.s:369    .text.hau_hmac_md5:0000000000000052 .L0 
C:\Users\CYMR90~1\AppData\Local\Temp\ccxApcqi.s:375    .text.hau_sha_md5_digest_read:0000000000000000 hau_sha_md5_digest_read
C:\Users\CYMR90~1\AppData\Local\Temp\ccxApcqi.s:378    .text.hau_sha_md5_digest_read:0000000000000000 .L0 
C:\Users\CYMR90~1\AppData\Local\Temp\ccxApcqi.s:379    .text.hau_sha_md5_digest_read:0000000000000000 .L0 
C:\Users\CYMR90~1\AppData\Local\Temp\ccxApcqi.s:380    .text.hau_sha_md5_digest_read:0000000000000002 .L0 
C:\Users\CYMR90~1\AppData\Local\Temp\ccxApcqi.s:383    .text.hau_sha_md5_digest_read:000000000000000a .L0 
C:\Users\CYMR90~1\AppData\Local\Temp\ccxApcqi.s:384    .text.hau_sha_md5_digest_read:000000000000000a .L0 
C:\Users\CYMR90~1\AppData\Local\Temp\ccxApcqi.s:386    .text.hau_sha_md5_digest_read:000000000000000c .L0 
C:\Users\CYMR90~1\AppData\Local\Temp\ccxApcqi.s:390    .text.hau_sha_md5_digest_read:0000000000000014 .L0 
C:\Users\CYMR90~1\AppData\Local\Temp\ccxApcqi.s:393    .text.hau_sha_md5_digest_read:000000000000001c .L0 
C:\Users\CYMR90~1\AppData\Local\Temp\ccxApcqi.s:413    .text.hau_sha_md5_digest_read:0000000000000066 .L0 
C:\Users\CYMR90~1\AppData\Local\Temp\ccxApcqi.s:416    .text.hau_sha_md5_digest_read:0000000000000068 .L0 
C:\Users\CYMR90~1\AppData\Local\Temp\ccxApcqi.s:420    .text.hau_sha_md5_digest_read:0000000000000076 .L0 
C:\Users\CYMR90~1\AppData\Local\Temp\ccxApcqi.s:422    .text.hau_sha_md5_digest_read:000000000000007a .L0 
C:\Users\CYMR90~1\AppData\Local\Temp\ccxApcqi.s:428    .text.hau_sha_md5_digest_read:0000000000000082 .L0 
C:\Users\CYMR90~1\AppData\Local\Temp\ccxApcqi.s:431    .text.hau_sha_md5_digest_read:000000000000008a .L0 
C:\Users\CYMR90~1\AppData\Local\Temp\ccxApcqi.s:437    .text.hau_sha_md5_digest_read:000000000000009a .L0 
C:\Users\CYMR90~1\AppData\Local\Temp\ccxApcqi.s:439    .text.hau_sha_md5_digest_read:000000000000009c .L0 
C:\Users\CYMR90~1\AppData\Local\Temp\ccxApcqi.s:444    .text.hau_sha_md5_digest_read:00000000000000aa .L0 
C:\Users\CYMR90~1\AppData\Local\Temp\ccxApcqi.s:446    .text.hau_sha_md5_digest_read:00000000000000ac .L0 
C:\Users\CYMR90~1\AppData\Local\Temp\ccxApcqi.s:449    .text.hau_sha_md5_digest_read:00000000000000b2 .L0 
C:\Users\CYMR90~1\AppData\Local\Temp\ccxApcqi.s:452    .text.hau_sha_md5_digest_read:00000000000000b8 .L0 
C:\Users\CYMR90~1\AppData\Local\Temp\ccxApcqi.s:456    .text.hau_sha_md5_digest_read:00000000000000bc .L0 
C:\Users\CYMR90~1\AppData\Local\Temp\ccxApcqi.s:458    .text.hau_sha_md5_digest_read:00000000000000be .L0 
C:\Users\CYMR90~1\AppData\Local\Temp\ccxApcqi.s:462    .text.hau_sha_md5_digest_read:00000000000000c8 .L0 
C:\Users\CYMR90~1\AppData\Local\Temp\ccxApcqi.s:464    .text.hau_sha_md5_digest_read:00000000000000cc .L0 
C:\Users\CYMR90~1\AppData\Local\Temp\ccxApcqi.s:469    .text.hau_sha_md5_digest_read:00000000000000d4 .L0 
C:\Users\CYMR90~1\AppData\Local\Temp\ccxApcqi.s:472    .text.hau_sha_md5_digest_read:00000000000000dc .L0 
C:\Users\CYMR90~1\AppData\Local\Temp\ccxApcqi.s:478    .text.hau_sha_md5_digest_read:00000000000000ec .L0 
C:\Users\CYMR90~1\AppData\Local\Temp\ccxApcqi.s:480    .text.hau_sha_md5_digest_read:00000000000000ee .L0 
C:\Users\CYMR90~1\AppData\Local\Temp\ccxApcqi.s:485    .text.hau_sha_md5_digest_read:00000000000000fc .L0 
C:\Users\CYMR90~1\AppData\Local\Temp\ccxApcqi.s:487    .text.hau_sha_md5_digest_read:00000000000000fe .L0 
C:\Users\CYMR90~1\AppData\Local\Temp\ccxApcqi.s:490    .text.hau_sha_md5_digest_read:0000000000000104 .L0 
C:\Users\CYMR90~1\AppData\Local\Temp\ccxApcqi.s:493    .text.hau_sha_md5_digest_read:000000000000010a .L0 
C:\Users\CYMR90~1\AppData\Local\Temp\ccxApcqi.s:497    .text.hau_sha_md5_digest_read:000000000000010e .L0 
C:\Users\CYMR90~1\AppData\Local\Temp\ccxApcqi.s:499    .text.hau_sha_md5_digest_read:0000000000000110 .L0 
C:\Users\CYMR90~1\AppData\Local\Temp\ccxApcqi.s:503    .text.hau_sha_md5_digest_read:000000000000011a .L0 
C:\Users\CYMR90~1\AppData\Local\Temp\ccxApcqi.s:505    .text.hau_sha_md5_digest_read:000000000000011e .L0 
C:\Users\CYMR90~1\AppData\Local\Temp\ccxApcqi.s:510    .text.hau_sha_md5_digest_read:0000000000000126 .L0 
C:\Users\CYMR90~1\AppData\Local\Temp\ccxApcqi.s:513    .text.hau_sha_md5_digest_read:000000000000012e .L0 
C:\Users\CYMR90~1\AppData\Local\Temp\ccxApcqi.s:519    .text.hau_sha_md5_digest_read:000000000000013e .L0 
C:\Users\CYMR90~1\AppData\Local\Temp\ccxApcqi.s:521    .text.hau_sha_md5_digest_read:0000000000000140 .L0 
C:\Users\CYMR90~1\AppData\Local\Temp\ccxApcqi.s:526    .text.hau_sha_md5_digest_read:000000000000014e .L0 
C:\Users\CYMR90~1\AppData\Local\Temp\ccxApcqi.s:528    .text.hau_sha_md5_digest_read:0000000000000150 .L0 
C:\Users\CYMR90~1\AppData\Local\Temp\ccxApcqi.s:531    .text.hau_sha_md5_digest_read:0000000000000156 .L0 
C:\Users\CYMR90~1\AppData\Local\Temp\ccxApcqi.s:534    .text.hau_sha_md5_digest_read:000000000000015c .L0 
C:\Users\CYMR90~1\AppData\Local\Temp\ccxApcqi.s:538    .text.hau_sha_md5_digest_read:0000000000000160 .L0 
C:\Users\CYMR90~1\AppData\Local\Temp\ccxApcqi.s:540    .text.hau_sha_md5_digest_read:0000000000000162 .L0 
C:\Users\CYMR90~1\AppData\Local\Temp\ccxApcqi.s:544    .text.hau_sha_md5_digest_read:000000000000016c .L0 
C:\Users\CYMR90~1\AppData\Local\Temp\ccxApcqi.s:546    .text.hau_sha_md5_digest_read:0000000000000170 .L0 
C:\Users\CYMR90~1\AppData\Local\Temp\ccxApcqi.s:551    .text.hau_sha_md5_digest_read:0000000000000178 .L0 
C:\Users\CYMR90~1\AppData\Local\Temp\ccxApcqi.s:554    .text.hau_sha_md5_digest_read:0000000000000180 .L0 
C:\Users\CYMR90~1\AppData\Local\Temp\ccxApcqi.s:560    .text.hau_sha_md5_digest_read:0000000000000190 .L0 
C:\Users\CYMR90~1\AppData\Local\Temp\ccxApcqi.s:562    .text.hau_sha_md5_digest_read:0000000000000192 .L0 
C:\Users\CYMR90~1\AppData\Local\Temp\ccxApcqi.s:567    .text.hau_sha_md5_digest_read:00000000000001a0 .L0 
C:\Users\CYMR90~1\AppData\Local\Temp\ccxApcqi.s:569    .text.hau_sha_md5_digest_read:00000000000001a2 .L0 
C:\Users\CYMR90~1\AppData\Local\Temp\ccxApcqi.s:572    .text.hau_sha_md5_digest_read:00000000000001a8 .L0 
C:\Users\CYMR90~1\AppData\Local\Temp\ccxApcqi.s:575    .text.hau_sha_md5_digest_read:00000000000001ae .L0 
C:\Users\CYMR90~1\AppData\Local\Temp\ccxApcqi.s:579    .text.hau_sha_md5_digest_read:00000000000001b2 .L0 
C:\Users\CYMR90~1\AppData\Local\Temp\ccxApcqi.s:581    .text.hau_sha_md5_digest_read:00000000000001b4 .L0 
C:\Users\CYMR90~1\AppData\Local\Temp\ccxApcqi.s:585    .text.hau_sha_md5_digest_read:00000000000001be .L0 
C:\Users\CYMR90~1\AppData\Local\Temp\ccxApcqi.s:587    .text.hau_sha_md5_digest_read:00000000000001c2 .L0 
C:\Users\CYMR90~1\AppData\Local\Temp\ccxApcqi.s:592    .text.hau_sha_md5_digest_read:00000000000001ca .L0 
C:\Users\CYMR90~1\AppData\Local\Temp\ccxApcqi.s:595    .text.hau_sha_md5_digest_read:00000000000001d2 .L0 
C:\Users\CYMR90~1\AppData\Local\Temp\ccxApcqi.s:601    .text.hau_sha_md5_digest_read:00000000000001e2 .L0 
C:\Users\CYMR90~1\AppData\Local\Temp\ccxApcqi.s:603    .text.hau_sha_md5_digest_read:00000000000001e4 .L0 
C:\Users\CYMR90~1\AppData\Local\Temp\ccxApcqi.s:608    .text.hau_sha_md5_digest_read:00000000000001f2 .L0 
C:\Users\CYMR90~1\AppData\Local\Temp\ccxApcqi.s:610    .text.hau_sha_md5_digest_read:00000000000001f4 .L0 
C:\Users\CYMR90~1\AppData\Local\Temp\ccxApcqi.s:613    .text.hau_sha_md5_digest_read:00000000000001fa .L0 
C:\Users\CYMR90~1\AppData\Local\Temp\ccxApcqi.s:616    .text.hau_sha_md5_digest_read:0000000000000200 .L0 
C:\Users\CYMR90~1\AppData\Local\Temp\ccxApcqi.s:620    .text.hau_sha_md5_digest_read:0000000000000204 .L0 
C:\Users\CYMR90~1\AppData\Local\Temp\ccxApcqi.s:622    .text.hau_sha_md5_digest_read:0000000000000206 .L0 
C:\Users\CYMR90~1\AppData\Local\Temp\ccxApcqi.s:625    .text.hau_sha_md5_digest_read:0000000000000208 .L0 
C:\Users\CYMR90~1\AppData\Local\Temp\ccxApcqi.s:629    .text.hau_sha_md5_digest_read:0000000000000216 .L0 
C:\Users\CYMR90~1\AppData\Local\Temp\ccxApcqi.s:631    .text.hau_sha_md5_digest_read:000000000000021a .L0 
C:\Users\CYMR90~1\AppData\Local\Temp\ccxApcqi.s:636    .text.hau_sha_md5_digest_read:0000000000000222 .L0 
C:\Users\CYMR90~1\AppData\Local\Temp\ccxApcqi.s:639    .text.hau_sha_md5_digest_read:000000000000022a .L0 
C:\Users\CYMR90~1\AppData\Local\Temp\ccxApcqi.s:645    .text.hau_sha_md5_digest_read:000000000000023a .L0 
C:\Users\CYMR90~1\AppData\Local\Temp\ccxApcqi.s:647    .text.hau_sha_md5_digest_read:000000000000023c .L0 
C:\Users\CYMR90~1\AppData\Local\Temp\ccxApcqi.s:652    .text.hau_sha_md5_digest_read:000000000000024a .L0 
C:\Users\CYMR90~1\AppData\Local\Temp\ccxApcqi.s:654    .text.hau_sha_md5_digest_read:000000000000024c .L0 
C:\Users\CYMR90~1\AppData\Local\Temp\ccxApcqi.s:657    .text.hau_sha_md5_digest_read:0000000000000252 .L0 
C:\Users\CYMR90~1\AppData\Local\Temp\ccxApcqi.s:660    .text.hau_sha_md5_digest_read:0000000000000258 .L0 
C:\Users\CYMR90~1\AppData\Local\Temp\ccxApcqi.s:664    .text.hau_sha_md5_digest_read:000000000000025c .L0 
C:\Users\CYMR90~1\AppData\Local\Temp\ccxApcqi.s:666    .text.hau_sha_md5_digest_read:000000000000025e .L0 
C:\Users\CYMR90~1\AppData\Local\Temp\ccxApcqi.s:670    .text.hau_sha_md5_digest_read:0000000000000268 .L0 
C:\Users\CYMR90~1\AppData\Local\Temp\ccxApcqi.s:672    .text.hau_sha_md5_digest_read:000000000000026c .L0 
C:\Users\CYMR90~1\AppData\Local\Temp\ccxApcqi.s:677    .text.hau_sha_md5_digest_read:0000000000000274 .L0 
C:\Users\CYMR90~1\AppData\Local\Temp\ccxApcqi.s:680    .text.hau_sha_md5_digest_read:000000000000027c .L0 
C:\Users\CYMR90~1\AppData\Local\Temp\ccxApcqi.s:686    .text.hau_sha_md5_digest_read:000000000000028c .L0 
C:\Users\CYMR90~1\AppData\Local\Temp\ccxApcqi.s:688    .text.hau_sha_md5_digest_read:000000000000028e .L0 
C:\Users\CYMR90~1\AppData\Local\Temp\ccxApcqi.s:693    .text.hau_sha_md5_digest_read:000000000000029c .L0 
C:\Users\CYMR90~1\AppData\Local\Temp\ccxApcqi.s:695    .text.hau_sha_md5_digest_read:000000000000029e .L0 
C:\Users\CYMR90~1\AppData\Local\Temp\ccxApcqi.s:698    .text.hau_sha_md5_digest_read:00000000000002a4 .L0 
C:\Users\CYMR90~1\AppData\Local\Temp\ccxApcqi.s:701    .text.hau_sha_md5_digest_read:00000000000002aa .L0 
C:\Users\CYMR90~1\AppData\Local\Temp\ccxApcqi.s:705    .text.hau_sha_md5_digest_read:00000000000002ae .L0 
C:\Users\CYMR90~1\AppData\Local\Temp\ccxApcqi.s:707    .text.hau_sha_md5_digest_read:00000000000002b0 .L0 
C:\Users\CYMR90~1\AppData\Local\Temp\ccxApcqi.s:711    .text.hau_sha_md5_digest_read:00000000000002ba .L0 
C:\Users\CYMR90~1\AppData\Local\Temp\ccxApcqi.s:713    .text.hau_sha_md5_digest_read:00000000000002be .L0 
C:\Users\CYMR90~1\AppData\Local\Temp\ccxApcqi.s:718    .text.hau_sha_md5_digest_read:00000000000002c6 .L0 
C:\Users\CYMR90~1\AppData\Local\Temp\ccxApcqi.s:721    .text.hau_sha_md5_digest_read:00000000000002ce .L0 
C:\Users\CYMR90~1\AppData\Local\Temp\ccxApcqi.s:727    .text.hau_sha_md5_digest_read:00000000000002de .L0 
C:\Users\CYMR90~1\AppData\Local\Temp\ccxApcqi.s:729    .text.hau_sha_md5_digest_read:00000000000002e0 .L0 
C:\Users\CYMR90~1\AppData\Local\Temp\ccxApcqi.s:734    .text.hau_sha_md5_digest_read:00000000000002ee .L0 
C:\Users\CYMR90~1\AppData\Local\Temp\ccxApcqi.s:736    .text.hau_sha_md5_digest_read:00000000000002f0 .L0 
C:\Users\CYMR90~1\AppData\Local\Temp\ccxApcqi.s:739    .text.hau_sha_md5_digest_read:00000000000002f6 .L0 
C:\Users\CYMR90~1\AppData\Local\Temp\ccxApcqi.s:742    .text.hau_sha_md5_digest_read:00000000000002fc .L0 
C:\Users\CYMR90~1\AppData\Local\Temp\ccxApcqi.s:746    .text.hau_sha_md5_digest_read:0000000000000300 .L0 
C:\Users\CYMR90~1\AppData\Local\Temp\ccxApcqi.s:748    .text.hau_sha_md5_digest_read:0000000000000302 .L0 
C:\Users\CYMR90~1\AppData\Local\Temp\ccxApcqi.s:752    .text.hau_sha_md5_digest_read:000000000000030c .L0 
C:\Users\CYMR90~1\AppData\Local\Temp\ccxApcqi.s:754    .text.hau_sha_md5_digest_read:0000000000000310 .L0 
C:\Users\CYMR90~1\AppData\Local\Temp\ccxApcqi.s:759    .text.hau_sha_md5_digest_read:0000000000000318 .L0 
C:\Users\CYMR90~1\AppData\Local\Temp\ccxApcqi.s:762    .text.hau_sha_md5_digest_read:0000000000000320 .L0 
C:\Users\CYMR90~1\AppData\Local\Temp\ccxApcqi.s:768    .text.hau_sha_md5_digest_read:0000000000000330 .L0 
C:\Users\CYMR90~1\AppData\Local\Temp\ccxApcqi.s:770    .text.hau_sha_md5_digest_read:0000000000000332 .L0 
C:\Users\CYMR90~1\AppData\Local\Temp\ccxApcqi.s:775    .text.hau_sha_md5_digest_read:0000000000000340 .L0 
C:\Users\CYMR90~1\AppData\Local\Temp\ccxApcqi.s:777    .text.hau_sha_md5_digest_read:0000000000000342 .L0 
C:\Users\CYMR90~1\AppData\Local\Temp\ccxApcqi.s:780    .text.hau_sha_md5_digest_read:0000000000000348 .L0 
C:\Users\CYMR90~1\AppData\Local\Temp\ccxApcqi.s:783    .text.hau_sha_md5_digest_read:000000000000034e .L0 
C:\Users\CYMR90~1\AppData\Local\Temp\ccxApcqi.s:787    .text.hau_sha_md5_digest_read:0000000000000352 .L0 
C:\Users\CYMR90~1\AppData\Local\Temp\ccxApcqi.s:789    .text.hau_sha_md5_digest_read:0000000000000354 .L0 
C:\Users\CYMR90~1\AppData\Local\Temp\ccxApcqi.s:793    .text.hau_sha_md5_digest_read:000000000000035e .L0 
C:\Users\CYMR90~1\AppData\Local\Temp\ccxApcqi.s:795    .text.hau_sha_md5_digest_read:0000000000000362 .L0 
C:\Users\CYMR90~1\AppData\Local\Temp\ccxApcqi.s:800    .text.hau_sha_md5_digest_read:000000000000036a .L0 
C:\Users\CYMR90~1\AppData\Local\Temp\ccxApcqi.s:803    .text.hau_sha_md5_digest_read:0000000000000372 .L0 
C:\Users\CYMR90~1\AppData\Local\Temp\ccxApcqi.s:809    .text.hau_sha_md5_digest_read:0000000000000382 .L0 
C:\Users\CYMR90~1\AppData\Local\Temp\ccxApcqi.s:811    .text.hau_sha_md5_digest_read:0000000000000384 .L0 
C:\Users\CYMR90~1\AppData\Local\Temp\ccxApcqi.s:816    .text.hau_sha_md5_digest_read:0000000000000392 .L0 
C:\Users\CYMR90~1\AppData\Local\Temp\ccxApcqi.s:818    .text.hau_sha_md5_digest_read:0000000000000394 .L0 
C:\Users\CYMR90~1\AppData\Local\Temp\ccxApcqi.s:821    .text.hau_sha_md5_digest_read:000000000000039a .L0 
C:\Users\CYMR90~1\AppData\Local\Temp\ccxApcqi.s:824    .text.hau_sha_md5_digest_read:00000000000003a0 .L0 
C:\Users\CYMR90~1\AppData\Local\Temp\ccxApcqi.s:828    .text.hau_sha_md5_digest_read:00000000000003a4 .L0 
C:\Users\CYMR90~1\AppData\Local\Temp\ccxApcqi.s:830    .text.hau_sha_md5_digest_read:00000000000003a6 .L0 
C:\Users\CYMR90~1\AppData\Local\Temp\ccxApcqi.s:834    .text.hau_sha_md5_digest_read:00000000000003b0 .L0 
C:\Users\CYMR90~1\AppData\Local\Temp\ccxApcqi.s:836    .text.hau_sha_md5_digest_read:00000000000003b4 .L0 
C:\Users\CYMR90~1\AppData\Local\Temp\ccxApcqi.s:841    .text.hau_sha_md5_digest_read:00000000000003bc .L0 
C:\Users\CYMR90~1\AppData\Local\Temp\ccxApcqi.s:844    .text.hau_sha_md5_digest_read:00000000000003c4 .L0 
C:\Users\CYMR90~1\AppData\Local\Temp\ccxApcqi.s:850    .text.hau_sha_md5_digest_read:00000000000003d4 .L0 
C:\Users\CYMR90~1\AppData\Local\Temp\ccxApcqi.s:852    .text.hau_sha_md5_digest_read:00000000000003d6 .L0 
C:\Users\CYMR90~1\AppData\Local\Temp\ccxApcqi.s:857    .text.hau_sha_md5_digest_read:00000000000003e4 .L0 
C:\Users\CYMR90~1\AppData\Local\Temp\ccxApcqi.s:859    .text.hau_sha_md5_digest_read:00000000000003e6 .L0 
C:\Users\CYMR90~1\AppData\Local\Temp\ccxApcqi.s:862    .text.hau_sha_md5_digest_read:00000000000003ec .L0 
C:\Users\CYMR90~1\AppData\Local\Temp\ccxApcqi.s:865    .text.hau_sha_md5_digest_read:00000000000003f2 .L0 
C:\Users\CYMR90~1\AppData\Local\Temp\ccxApcqi.s:869    .text.hau_sha_md5_digest_read:00000000000003f6 .L0 
C:\Users\CYMR90~1\AppData\Local\Temp\ccxApcqi.s:871    .text.hau_sha_md5_digest_read:00000000000003f8 .L0 
C:\Users\CYMR90~1\AppData\Local\Temp\ccxApcqi.s:875    .text.hau_sha_md5_digest_read:0000000000000402 .L0 
C:\Users\CYMR90~1\AppData\Local\Temp\ccxApcqi.s:877    .text.hau_sha_md5_digest_read:0000000000000406 .L0 
C:\Users\CYMR90~1\AppData\Local\Temp\ccxApcqi.s:882    .text.hau_sha_md5_digest_read:000000000000040e .L0 
C:\Users\CYMR90~1\AppData\Local\Temp\ccxApcqi.s:885    .text.hau_sha_md5_digest_read:0000000000000416 .L0 
C:\Users\CYMR90~1\AppData\Local\Temp\ccxApcqi.s:891    .text.hau_sha_md5_digest_read:0000000000000426 .L0 
C:\Users\CYMR90~1\AppData\Local\Temp\ccxApcqi.s:893    .text.hau_sha_md5_digest_read:0000000000000428 .L0 
C:\Users\CYMR90~1\AppData\Local\Temp\ccxApcqi.s:898    .text.hau_sha_md5_digest_read:0000000000000436 .L0 
C:\Users\CYMR90~1\AppData\Local\Temp\ccxApcqi.s:900    .text.hau_sha_md5_digest_read:0000000000000438 .L0 
C:\Users\CYMR90~1\AppData\Local\Temp\ccxApcqi.s:903    .text.hau_sha_md5_digest_read:000000000000043e .L0 
C:\Users\CYMR90~1\AppData\Local\Temp\ccxApcqi.s:906    .text.hau_sha_md5_digest_read:0000000000000444 .L0 
C:\Users\CYMR90~1\AppData\Local\Temp\ccxApcqi.s:910    .text.hau_sha_md5_digest_read:0000000000000448 .L0 
C:\Users\CYMR90~1\AppData\Local\Temp\ccxApcqi.s:912    .text.hau_sha_md5_digest_read:000000000000044a .L0 
C:\Users\CYMR90~1\AppData\Local\Temp\ccxApcqi.s:915    .text.hau_sha_md5_digest_read:000000000000044c .L0 
C:\Users\CYMR90~1\AppData\Local\Temp\ccxApcqi.s:919    .text.hau_sha_md5_digest_read:000000000000045a .L0 
C:\Users\CYMR90~1\AppData\Local\Temp\ccxApcqi.s:921    .text.hau_sha_md5_digest_read:000000000000045e .L0 
C:\Users\CYMR90~1\AppData\Local\Temp\ccxApcqi.s:926    .text.hau_sha_md5_digest_read:0000000000000466 .L0 
C:\Users\CYMR90~1\AppData\Local\Temp\ccxApcqi.s:929    .text.hau_sha_md5_digest_read:000000000000046e .L0 
C:\Users\CYMR90~1\AppData\Local\Temp\ccxApcqi.s:935    .text.hau_sha_md5_digest_read:000000000000047e .L0 
C:\Users\CYMR90~1\AppData\Local\Temp\ccxApcqi.s:937    .text.hau_sha_md5_digest_read:0000000000000480 .L0 
C:\Users\CYMR90~1\AppData\Local\Temp\ccxApcqi.s:942    .text.hau_sha_md5_digest_read:000000000000048e .L0 
C:\Users\CYMR90~1\AppData\Local\Temp\ccxApcqi.s:944    .text.hau_sha_md5_digest_read:0000000000000490 .L0 
C:\Users\CYMR90~1\AppData\Local\Temp\ccxApcqi.s:947    .text.hau_sha_md5_digest_read:0000000000000496 .L0 
C:\Users\CYMR90~1\AppData\Local\Temp\ccxApcqi.s:950    .text.hau_sha_md5_digest_read:000000000000049c .L0 
C:\Users\CYMR90~1\AppData\Local\Temp\ccxApcqi.s:954    .text.hau_sha_md5_digest_read:00000000000004a0 .L0 
C:\Users\CYMR90~1\AppData\Local\Temp\ccxApcqi.s:956    .text.hau_sha_md5_digest_read:00000000000004a2 .L0 
C:\Users\CYMR90~1\AppData\Local\Temp\ccxApcqi.s:960    .text.hau_sha_md5_digest_read:00000000000004ac .L0 
C:\Users\CYMR90~1\AppData\Local\Temp\ccxApcqi.s:962    .text.hau_sha_md5_digest_read:00000000000004b0 .L0 
C:\Users\CYMR90~1\AppData\Local\Temp\ccxApcqi.s:967    .text.hau_sha_md5_digest_read:00000000000004b8 .L0 
C:\Users\CYMR90~1\AppData\Local\Temp\ccxApcqi.s:970    .text.hau_sha_md5_digest_read:00000000000004c0 .L0 
C:\Users\CYMR90~1\AppData\Local\Temp\ccxApcqi.s:976    .text.hau_sha_md5_digest_read:00000000000004d0 .L0 
C:\Users\CYMR90~1\AppData\Local\Temp\ccxApcqi.s:978    .text.hau_sha_md5_digest_read:00000000000004d2 .L0 
C:\Users\CYMR90~1\AppData\Local\Temp\ccxApcqi.s:983    .text.hau_sha_md5_digest_read:00000000000004e0 .L0 
C:\Users\CYMR90~1\AppData\Local\Temp\ccxApcqi.s:985    .text.hau_sha_md5_digest_read:00000000000004e2 .L0 
C:\Users\CYMR90~1\AppData\Local\Temp\ccxApcqi.s:988    .text.hau_sha_md5_digest_read:00000000000004e8 .L0 
C:\Users\CYMR90~1\AppData\Local\Temp\ccxApcqi.s:991    .text.hau_sha_md5_digest_read:00000000000004ee .L0 
C:\Users\CYMR90~1\AppData\Local\Temp\ccxApcqi.s:995    .text.hau_sha_md5_digest_read:00000000000004f2 .L0 
C:\Users\CYMR90~1\AppData\Local\Temp\ccxApcqi.s:997    .text.hau_sha_md5_digest_read:00000000000004f4 .L0 
C:\Users\CYMR90~1\AppData\Local\Temp\ccxApcqi.s:1001   .text.hau_sha_md5_digest_read:00000000000004fe .L0 
C:\Users\CYMR90~1\AppData\Local\Temp\ccxApcqi.s:1003   .text.hau_sha_md5_digest_read:0000000000000502 .L0 
C:\Users\CYMR90~1\AppData\Local\Temp\ccxApcqi.s:1008   .text.hau_sha_md5_digest_read:000000000000050a .L0 
C:\Users\CYMR90~1\AppData\Local\Temp\ccxApcqi.s:1011   .text.hau_sha_md5_digest_read:0000000000000512 .L0 
C:\Users\CYMR90~1\AppData\Local\Temp\ccxApcqi.s:1017   .text.hau_sha_md5_digest_read:0000000000000522 .L0 
C:\Users\CYMR90~1\AppData\Local\Temp\ccxApcqi.s:1019   .text.hau_sha_md5_digest_read:0000000000000524 .L0 
C:\Users\CYMR90~1\AppData\Local\Temp\ccxApcqi.s:1024   .text.hau_sha_md5_digest_read:0000000000000532 .L0 
C:\Users\CYMR90~1\AppData\Local\Temp\ccxApcqi.s:1026   .text.hau_sha_md5_digest_read:0000000000000534 .L0 
C:\Users\CYMR90~1\AppData\Local\Temp\ccxApcqi.s:1029   .text.hau_sha_md5_digest_read:000000000000053a .L0 
C:\Users\CYMR90~1\AppData\Local\Temp\ccxApcqi.s:1032   .text.hau_sha_md5_digest_read:0000000000000540 .L0 
C:\Users\CYMR90~1\AppData\Local\Temp\ccxApcqi.s:1036   .text.hau_sha_md5_digest_read:0000000000000544 .L0 
C:\Users\CYMR90~1\AppData\Local\Temp\ccxApcqi.s:1038   .text.hau_sha_md5_digest_read:0000000000000546 .L0 
C:\Users\CYMR90~1\AppData\Local\Temp\ccxApcqi.s:1042   .text.hau_sha_md5_digest_read:0000000000000550 .L0 
C:\Users\CYMR90~1\AppData\Local\Temp\ccxApcqi.s:1044   .text.hau_sha_md5_digest_read:0000000000000554 .L0 
C:\Users\CYMR90~1\AppData\Local\Temp\ccxApcqi.s:1049   .text.hau_sha_md5_digest_read:000000000000055c .L0 
C:\Users\CYMR90~1\AppData\Local\Temp\ccxApcqi.s:1052   .text.hau_sha_md5_digest_read:0000000000000564 .L0 
C:\Users\CYMR90~1\AppData\Local\Temp\ccxApcqi.s:1058   .text.hau_sha_md5_digest_read:0000000000000574 .L0 
C:\Users\CYMR90~1\AppData\Local\Temp\ccxApcqi.s:1060   .text.hau_sha_md5_digest_read:0000000000000576 .L0 
C:\Users\CYMR90~1\AppData\Local\Temp\ccxApcqi.s:1065   .text.hau_sha_md5_digest_read:0000000000000584 .L0 
C:\Users\CYMR90~1\AppData\Local\Temp\ccxApcqi.s:1067   .text.hau_sha_md5_digest_read:0000000000000586 .L0 
C:\Users\CYMR90~1\AppData\Local\Temp\ccxApcqi.s:1070   .text.hau_sha_md5_digest_read:000000000000058c .L0 
C:\Users\CYMR90~1\AppData\Local\Temp\ccxApcqi.s:1073   .text.hau_sha_md5_digest_read:0000000000000592 .L0 
C:\Users\CYMR90~1\AppData\Local\Temp\ccxApcqi.s:1077   .text.hau_sha_md5_digest_read:0000000000000596 .L0 
C:\Users\CYMR90~1\AppData\Local\Temp\ccxApcqi.s:1079   .text.hau_sha_md5_digest_read:0000000000000598 .L0 
C:\Users\CYMR90~1\AppData\Local\Temp\ccxApcqi.s:1083   .text.hau_sha_md5_digest_read:00000000000005a2 .L0 
C:\Users\CYMR90~1\AppData\Local\Temp\ccxApcqi.s:1085   .text.hau_sha_md5_digest_read:00000000000005a6 .L0 
C:\Users\CYMR90~1\AppData\Local\Temp\ccxApcqi.s:1090   .text.hau_sha_md5_digest_read:00000000000005ae .L0 
C:\Users\CYMR90~1\AppData\Local\Temp\ccxApcqi.s:1093   .text.hau_sha_md5_digest_read:00000000000005b6 .L0 
C:\Users\CYMR90~1\AppData\Local\Temp\ccxApcqi.s:1099   .text.hau_sha_md5_digest_read:00000000000005c6 .L0 
C:\Users\CYMR90~1\AppData\Local\Temp\ccxApcqi.s:1101   .text.hau_sha_md5_digest_read:00000000000005c8 .L0 
C:\Users\CYMR90~1\AppData\Local\Temp\ccxApcqi.s:1106   .text.hau_sha_md5_digest_read:00000000000005d6 .L0 
C:\Users\CYMR90~1\AppData\Local\Temp\ccxApcqi.s:1108   .text.hau_sha_md5_digest_read:00000000000005d8 .L0 
C:\Users\CYMR90~1\AppData\Local\Temp\ccxApcqi.s:1111   .text.hau_sha_md5_digest_read:00000000000005de .L0 
C:\Users\CYMR90~1\AppData\Local\Temp\ccxApcqi.s:1114   .text.hau_sha_md5_digest_read:00000000000005e4 .L0 
C:\Users\CYMR90~1\AppData\Local\Temp\ccxApcqi.s:1118   .text.hau_sha_md5_digest_read:00000000000005e8 .L0 
C:\Users\CYMR90~1\AppData\Local\Temp\ccxApcqi.s:1120   .text.hau_sha_md5_digest_read:00000000000005ea .L0 
C:\Users\CYMR90~1\AppData\Local\Temp\ccxApcqi.s:1124   .text.hau_sha_md5_digest_read:00000000000005f4 .L0 
C:\Users\CYMR90~1\AppData\Local\Temp\ccxApcqi.s:1126   .text.hau_sha_md5_digest_read:00000000000005f8 .L0 
C:\Users\CYMR90~1\AppData\Local\Temp\ccxApcqi.s:1131   .text.hau_sha_md5_digest_read:0000000000000600 .L0 
C:\Users\CYMR90~1\AppData\Local\Temp\ccxApcqi.s:1134   .text.hau_sha_md5_digest_read:0000000000000608 .L0 
C:\Users\CYMR90~1\AppData\Local\Temp\ccxApcqi.s:1140   .text.hau_sha_md5_digest_read:0000000000000618 .L0 
C:\Users\CYMR90~1\AppData\Local\Temp\ccxApcqi.s:1142   .text.hau_sha_md5_digest_read:000000000000061a .L0 
C:\Users\CYMR90~1\AppData\Local\Temp\ccxApcqi.s:1147   .text.hau_sha_md5_digest_read:0000000000000628 .L0 
C:\Users\CYMR90~1\AppData\Local\Temp\ccxApcqi.s:1149   .text.hau_sha_md5_digest_read:000000000000062a .L0 
C:\Users\CYMR90~1\AppData\Local\Temp\ccxApcqi.s:1152   .text.hau_sha_md5_digest_read:0000000000000630 .L0 
C:\Users\CYMR90~1\AppData\Local\Temp\ccxApcqi.s:1155   .text.hau_sha_md5_digest_read:0000000000000636 .L0 
C:\Users\CYMR90~1\AppData\Local\Temp\ccxApcqi.s:1159   .text.hau_sha_md5_digest_read:000000000000063a .L0 
C:\Users\CYMR90~1\AppData\Local\Temp\ccxApcqi.s:1161   .text.hau_sha_md5_digest_read:000000000000063c .L0 
C:\Users\CYMR90~1\AppData\Local\Temp\ccxApcqi.s:1165   .text.hau_sha_md5_digest_read:0000000000000646 .L0 
C:\Users\CYMR90~1\AppData\Local\Temp\ccxApcqi.s:1167   .text.hau_sha_md5_digest_read:000000000000064a .L0 
C:\Users\CYMR90~1\AppData\Local\Temp\ccxApcqi.s:1172   .text.hau_sha_md5_digest_read:0000000000000652 .L0 
C:\Users\CYMR90~1\AppData\Local\Temp\ccxApcqi.s:1175   .text.hau_sha_md5_digest_read:000000000000065a .L0 
C:\Users\CYMR90~1\AppData\Local\Temp\ccxApcqi.s:1181   .text.hau_sha_md5_digest_read:000000000000066a .L0 
C:\Users\CYMR90~1\AppData\Local\Temp\ccxApcqi.s:1183   .text.hau_sha_md5_digest_read:000000000000066c .L0 
C:\Users\CYMR90~1\AppData\Local\Temp\ccxApcqi.s:1188   .text.hau_sha_md5_digest_read:000000000000067a .L0 
C:\Users\CYMR90~1\AppData\Local\Temp\ccxApcqi.s:1190   .text.hau_sha_md5_digest_read:000000000000067c .L0 
C:\Users\CYMR90~1\AppData\Local\Temp\ccxApcqi.s:1193   .text.hau_sha_md5_digest_read:0000000000000682 .L0 
C:\Users\CYMR90~1\AppData\Local\Temp\ccxApcqi.s:1196   .text.hau_sha_md5_digest_read:0000000000000688 .L0 
C:\Users\CYMR90~1\AppData\Local\Temp\ccxApcqi.s:1200   .text.hau_sha_md5_digest_read:000000000000068c .L0 
C:\Users\CYMR90~1\AppData\Local\Temp\ccxApcqi.s:1202   .text.hau_sha_md5_digest_read:000000000000068e .L0 
C:\Users\CYMR90~1\AppData\Local\Temp\ccxApcqi.s:1206   .text.hau_sha_md5_digest_read:0000000000000698 .L0 
C:\Users\CYMR90~1\AppData\Local\Temp\ccxApcqi.s:1208   .text.hau_sha_md5_digest_read:000000000000069c .L0 
C:\Users\CYMR90~1\AppData\Local\Temp\ccxApcqi.s:1213   .text.hau_sha_md5_digest_read:00000000000006a4 .L0 
C:\Users\CYMR90~1\AppData\Local\Temp\ccxApcqi.s:1216   .text.hau_sha_md5_digest_read:00000000000006ac .L0 
C:\Users\CYMR90~1\AppData\Local\Temp\ccxApcqi.s:1222   .text.hau_sha_md5_digest_read:00000000000006bc .L0 
C:\Users\CYMR90~1\AppData\Local\Temp\ccxApcqi.s:1224   .text.hau_sha_md5_digest_read:00000000000006be .L0 
C:\Users\CYMR90~1\AppData\Local\Temp\ccxApcqi.s:1229   .text.hau_sha_md5_digest_read:00000000000006cc .L0 
C:\Users\CYMR90~1\AppData\Local\Temp\ccxApcqi.s:1231   .text.hau_sha_md5_digest_read:00000000000006ce .L0 
C:\Users\CYMR90~1\AppData\Local\Temp\ccxApcqi.s:1234   .text.hau_sha_md5_digest_read:00000000000006d4 .L0 
C:\Users\CYMR90~1\AppData\Local\Temp\ccxApcqi.s:1237   .text.hau_sha_md5_digest_read:00000000000006da .L0 
C:\Users\CYMR90~1\AppData\Local\Temp\ccxApcqi.s:1241   .text.hau_sha_md5_digest_read:00000000000006de .L0 
C:\Users\CYMR90~1\AppData\Local\Temp\ccxApcqi.s:1243   .text.hau_sha_md5_digest_read:00000000000006e0 .L0 
C:\Users\CYMR90~1\AppData\Local\Temp\ccxApcqi.s:1246   .text.hau_sha_md5_digest_read:00000000000006e2 .L0 
C:\Users\CYMR90~1\AppData\Local\Temp\ccxApcqi.s:1250   .text.hau_sha_md5_digest_read:00000000000006f0 .L0 
C:\Users\CYMR90~1\AppData\Local\Temp\ccxApcqi.s:1252   .text.hau_sha_md5_digest_read:00000000000006f4 .L0 
C:\Users\CYMR90~1\AppData\Local\Temp\ccxApcqi.s:1257   .text.hau_sha_md5_digest_read:00000000000006fc .L0 
C:\Users\CYMR90~1\AppData\Local\Temp\ccxApcqi.s:1260   .text.hau_sha_md5_digest_read:0000000000000704 .L0 
C:\Users\CYMR90~1\AppData\Local\Temp\ccxApcqi.s:1266   .text.hau_sha_md5_digest_read:0000000000000714 .L0 
C:\Users\CYMR90~1\AppData\Local\Temp\ccxApcqi.s:1268   .text.hau_sha_md5_digest_read:0000000000000716 .L0 
C:\Users\CYMR90~1\AppData\Local\Temp\ccxApcqi.s:1273   .text.hau_sha_md5_digest_read:0000000000000724 .L0 
C:\Users\CYMR90~1\AppData\Local\Temp\ccxApcqi.s:1275   .text.hau_sha_md5_digest_read:0000000000000726 .L0 
C:\Users\CYMR90~1\AppData\Local\Temp\ccxApcqi.s:1278   .text.hau_sha_md5_digest_read:000000000000072c .L0 
C:\Users\CYMR90~1\AppData\Local\Temp\ccxApcqi.s:1281   .text.hau_sha_md5_digest_read:0000000000000732 .L0 
C:\Users\CYMR90~1\AppData\Local\Temp\ccxApcqi.s:1285   .text.hau_sha_md5_digest_read:0000000000000736 .L0 
C:\Users\CYMR90~1\AppData\Local\Temp\ccxApcqi.s:1287   .text.hau_sha_md5_digest_read:0000000000000738 .L0 
C:\Users\CYMR90~1\AppData\Local\Temp\ccxApcqi.s:1291   .text.hau_sha_md5_digest_read:0000000000000742 .L0 
C:\Users\CYMR90~1\AppData\Local\Temp\ccxApcqi.s:1293   .text.hau_sha_md5_digest_read:0000000000000746 .L0 
C:\Users\CYMR90~1\AppData\Local\Temp\ccxApcqi.s:1298   .text.hau_sha_md5_digest_read:000000000000074e .L0 
C:\Users\CYMR90~1\AppData\Local\Temp\ccxApcqi.s:1301   .text.hau_sha_md5_digest_read:0000000000000756 .L0 
C:\Users\CYMR90~1\AppData\Local\Temp\ccxApcqi.s:1307   .text.hau_sha_md5_digest_read:0000000000000766 .L0 
C:\Users\CYMR90~1\AppData\Local\Temp\ccxApcqi.s:1309   .text.hau_sha_md5_digest_read:0000000000000768 .L0 
C:\Users\CYMR90~1\AppData\Local\Temp\ccxApcqi.s:1314   .text.hau_sha_md5_digest_read:0000000000000776 .L0 
C:\Users\CYMR90~1\AppData\Local\Temp\ccxApcqi.s:1316   .text.hau_sha_md5_digest_read:0000000000000778 .L0 
C:\Users\CYMR90~1\AppData\Local\Temp\ccxApcqi.s:1319   .text.hau_sha_md5_digest_read:000000000000077e .L0 
C:\Users\CYMR90~1\AppData\Local\Temp\ccxApcqi.s:1322   .text.hau_sha_md5_digest_read:0000000000000784 .L0 
C:\Users\CYMR90~1\AppData\Local\Temp\ccxApcqi.s:1326   .text.hau_sha_md5_digest_read:0000000000000788 .L0 
C:\Users\CYMR90~1\AppData\Local\Temp\ccxApcqi.s:1328   .text.hau_sha_md5_digest_read:000000000000078a .L0 
C:\Users\CYMR90~1\AppData\Local\Temp\ccxApcqi.s:1332   .text.hau_sha_md5_digest_read:0000000000000794 .L0 
C:\Users\CYMR90~1\AppData\Local\Temp\ccxApcqi.s:1334   .text.hau_sha_md5_digest_read:0000000000000798 .L0 
C:\Users\CYMR90~1\AppData\Local\Temp\ccxApcqi.s:1339   .text.hau_sha_md5_digest_read:00000000000007a0 .L0 
C:\Users\CYMR90~1\AppData\Local\Temp\ccxApcqi.s:1342   .text.hau_sha_md5_digest_read:00000000000007a8 .L0 
C:\Users\CYMR90~1\AppData\Local\Temp\ccxApcqi.s:1348   .text.hau_sha_md5_digest_read:00000000000007b8 .L0 
C:\Users\CYMR90~1\AppData\Local\Temp\ccxApcqi.s:1350   .text.hau_sha_md5_digest_read:00000000000007ba .L0 
C:\Users\CYMR90~1\AppData\Local\Temp\ccxApcqi.s:1355   .text.hau_sha_md5_digest_read:00000000000007c8 .L0 
C:\Users\CYMR90~1\AppData\Local\Temp\ccxApcqi.s:1357   .text.hau_sha_md5_digest_read:00000000000007ca .L0 
C:\Users\CYMR90~1\AppData\Local\Temp\ccxApcqi.s:1360   .text.hau_sha_md5_digest_read:00000000000007d0 .L0 
C:\Users\CYMR90~1\AppData\Local\Temp\ccxApcqi.s:1363   .text.hau_sha_md5_digest_read:00000000000007d6 .L0 
C:\Users\CYMR90~1\AppData\Local\Temp\ccxApcqi.s:1367   .text.hau_sha_md5_digest_read:00000000000007da .L0 
C:\Users\CYMR90~1\AppData\Local\Temp\ccxApcqi.s:1369   .text.hau_sha_md5_digest_read:00000000000007dc .L0 
C:\Users\CYMR90~1\AppData\Local\Temp\ccxApcqi.s:1373   .text.hau_sha_md5_digest_read:00000000000007e6 .L0 
C:\Users\CYMR90~1\AppData\Local\Temp\ccxApcqi.s:1375   .text.hau_sha_md5_digest_read:00000000000007ea .L0 
C:\Users\CYMR90~1\AppData\Local\Temp\ccxApcqi.s:1380   .text.hau_sha_md5_digest_read:00000000000007f2 .L0 
C:\Users\CYMR90~1\AppData\Local\Temp\ccxApcqi.s:1383   .text.hau_sha_md5_digest_read:00000000000007fa .L0 
C:\Users\CYMR90~1\AppData\Local\Temp\ccxApcqi.s:1389   .text.hau_sha_md5_digest_read:000000000000080a .L0 
C:\Users\CYMR90~1\AppData\Local\Temp\ccxApcqi.s:1391   .text.hau_sha_md5_digest_read:000000000000080c .L0 
C:\Users\CYMR90~1\AppData\Local\Temp\ccxApcqi.s:1396   .text.hau_sha_md5_digest_read:000000000000081a .L0 
C:\Users\CYMR90~1\AppData\Local\Temp\ccxApcqi.s:1398   .text.hau_sha_md5_digest_read:000000000000081c .L0 
C:\Users\CYMR90~1\AppData\Local\Temp\ccxApcqi.s:1401   .text.hau_sha_md5_digest_read:0000000000000822 .L0 
C:\Users\CYMR90~1\AppData\Local\Temp\ccxApcqi.s:1404   .text.hau_sha_md5_digest_read:0000000000000828 .L0 
C:\Users\CYMR90~1\AppData\Local\Temp\ccxApcqi.s:1408   .text.hau_sha_md5_digest_read:000000000000082c .L0 
C:\Users\CYMR90~1\AppData\Local\Temp\ccxApcqi.s:1410   .text.hau_sha_md5_digest_read:000000000000082e .L0 
C:\Users\CYMR90~1\AppData\Local\Temp\ccxApcqi.s:1413   .text.hau_sha_md5_digest_read:0000000000000830 .L0 
C:\Users\CYMR90~1\AppData\Local\Temp\ccxApcqi.s:1416   .text.hau_sha_md5_digest_read:0000000000000832 .L0 
C:\Users\CYMR90~1\AppData\Local\Temp\ccxApcqi.s:1418   .text.hau_sha_md5_digest_read:0000000000000838 .L0 
C:\Users\CYMR90~1\AppData\Local\Temp\ccxApcqi.s:1420   .text.hau_sha_md5_digest_read:000000000000083c .L0 
C:\Users\CYMR90~1\AppData\Local\Temp\ccxApcqi.s:1421   .text.hau_sha_md5_digest_read:000000000000083c .L0 
C:\Users\CYMR90~1\AppData\Local\Temp\ccxApcqi.s:1423   .text.hau_sha_md5_digest_read:000000000000083e .L0 
C:\Users\CYMR90~1\AppData\Local\Temp\ccxApcqi.s:1425   .text.hau_sha_md5_digest_read:0000000000000840 .L0 
C:\Users\CYMR90~1\AppData\Local\Temp\ccxApcqi.s:1434   .text.hau_hash_calculate:0000000000000000 .L0 
C:\Users\CYMR90~1\AppData\Local\Temp\ccxApcqi.s:1435   .text.hau_hash_calculate:0000000000000000 .L0 
C:\Users\CYMR90~1\AppData\Local\Temp\ccxApcqi.s:1436   .text.hau_hash_calculate:0000000000000002 .L0 
C:\Users\CYMR90~1\AppData\Local\Temp\ccxApcqi.s:1439   .text.hau_hash_calculate:0000000000000006 .L0 
C:\Users\CYMR90~1\AppData\Local\Temp\ccxApcqi.s:1440   .text.hau_hash_calculate:0000000000000006 .L0 
C:\Users\CYMR90~1\AppData\Local\Temp\ccxApcqi.s:1442   .text.hau_hash_calculate:0000000000000008 .L0 
C:\Users\CYMR90~1\AppData\Local\Temp\ccxApcqi.s:1448   .text.hau_hash_calculate:0000000000000018 .L0 
C:\Users\CYMR90~1\AppData\Local\Temp\ccxApcqi.s:1450   .text.hau_hash_calculate:000000000000001c .L0 
C:\Users\CYMR90~1\AppData\Local\Temp\ccxApcqi.s:1452   .text.hau_hash_calculate:0000000000000020 .L0 
C:\Users\CYMR90~1\AppData\Local\Temp\ccxApcqi.s:1454   .text.hau_hash_calculate:0000000000000024 .L0 
C:\Users\CYMR90~1\AppData\Local\Temp\ccxApcqi.s:1456   .text.hau_hash_calculate:0000000000000028 .L0 
C:\Users\CYMR90~1\AppData\Local\Temp\ccxApcqi.s:1459   .text.hau_hash_calculate:0000000000000030 .L0 
C:\Users\CYMR90~1\AppData\Local\Temp\ccxApcqi.s:1462   .text.hau_hash_calculate:0000000000000036 .L0 
C:\Users\CYMR90~1\AppData\Local\Temp\ccxApcqi.s:1464   .text.hau_hash_calculate:0000000000000038 .L0 
C:\Users\CYMR90~1\AppData\Local\Temp\ccxApcqi.s:1466   .text.hau_hash_calculate:000000000000003c .L0 
C:\Users\CYMR90~1\AppData\Local\Temp\ccxApcqi.s:1468   .text.hau_hash_calculate:0000000000000044 .L0 
C:\Users\CYMR90~1\AppData\Local\Temp\ccxApcqi.s:1471   .text.hau_hash_calculate:000000000000004c .L0 
C:\Users\CYMR90~1\AppData\Local\Temp\ccxApcqi.s:1473   .text.hau_hash_calculate:0000000000000050 .L0 
C:\Users\CYMR90~1\AppData\Local\Temp\ccxApcqi.s:1476   .text.hau_hash_calculate:0000000000000058 .L0 
C:\Users\CYMR90~1\AppData\Local\Temp\ccxApcqi.s:1480   .text.hau_hash_calculate:0000000000000066 .L0 
C:\Users\CYMR90~1\AppData\Local\Temp\ccxApcqi.s:1484   .text.hau_hash_calculate:0000000000000074 .L0 
C:\Users\CYMR90~1\AppData\Local\Temp\ccxApcqi.s:1486   .text.hau_hash_calculate:0000000000000078 .L0 
C:\Users\CYMR90~1\AppData\Local\Temp\ccxApcqi.s:1489   .text.hau_hash_calculate:000000000000007a .L0 
C:\Users\CYMR90~1\AppData\Local\Temp\ccxApcqi.s:1491   .text.hau_hash_calculate:000000000000007e .L0 
C:\Users\CYMR90~1\AppData\Local\Temp\ccxApcqi.s:1495   .text.hau_hash_calculate:000000000000008a .L0 
C:\Users\CYMR90~1\AppData\Local\Temp\ccxApcqi.s:1499   .text.hau_hash_calculate:0000000000000094 .L0 
C:\Users\CYMR90~1\AppData\Local\Temp\ccxApcqi.s:1504   .text.hau_hash_calculate:000000000000009e .L0 
C:\Users\CYMR90~1\AppData\Local\Temp\ccxApcqi.s:1508   .text.hau_hash_calculate:00000000000000aa .L0 
C:\Users\CYMR90~1\AppData\Local\Temp\ccxApcqi.s:1511   .text.hau_hash_calculate:00000000000000b2 .L0 
C:\Users\CYMR90~1\AppData\Local\Temp\ccxApcqi.s:1515   .text.hau_hash_calculate:00000000000000c0 .L0 
C:\Users\CYMR90~1\AppData\Local\Temp\ccxApcqi.s:1519   .text.hau_hash_calculate:00000000000000ca .L0 
C:\Users\CYMR90~1\AppData\Local\Temp\ccxApcqi.s:1521   .text.hau_hash_calculate:00000000000000ce .L0 
C:\Users\CYMR90~1\AppData\Local\Temp\ccxApcqi.s:1524   .text.hau_hash_calculate:00000000000000d4 .L0 
C:\Users\CYMR90~1\AppData\Local\Temp\ccxApcqi.s:1528   .text.hau_hash_calculate:00000000000000da .L0 
C:\Users\CYMR90~1\AppData\Local\Temp\ccxApcqi.s:1531   .text.hau_hash_calculate:00000000000000e0 .L0 
C:\Users\CYMR90~1\AppData\Local\Temp\ccxApcqi.s:1535   .text.hau_hash_calculate:00000000000000e4 .L0 
C:\Users\CYMR90~1\AppData\Local\Temp\ccxApcqi.s:1539   .text.hau_hash_calculate:00000000000000f4 .L0 
C:\Users\CYMR90~1\AppData\Local\Temp\ccxApcqi.s:1542   .text.hau_hash_calculate:00000000000000f6 .L0 
C:\Users\CYMR90~1\AppData\Local\Temp\ccxApcqi.s:1544   .text.hau_hash_calculate:00000000000000fa .L0 
C:\Users\CYMR90~1\AppData\Local\Temp\ccxApcqi.s:1546   .text.hau_hash_calculate:00000000000000fc .L0 
C:\Users\CYMR90~1\AppData\Local\Temp\ccxApcqi.s:1547   .text.hau_hash_calculate:00000000000000fc .L0 
C:\Users\CYMR90~1\AppData\Local\Temp\ccxApcqi.s:1549   .text.hau_hash_calculate:00000000000000fe .L0 
C:\Users\CYMR90~1\AppData\Local\Temp\ccxApcqi.s:1551   .text.hau_hash_calculate:0000000000000100 .L0 
C:\Users\CYMR90~1\AppData\Local\Temp\ccxApcqi.s:1560   .text.hau_hmac_calculate:0000000000000000 .L0 
C:\Users\CYMR90~1\AppData\Local\Temp\ccxApcqi.s:1561   .text.hau_hmac_calculate:0000000000000000 .L0 
C:\Users\CYMR90~1\AppData\Local\Temp\ccxApcqi.s:1562   .text.hau_hmac_calculate:0000000000000002 .L0 
C:\Users\CYMR90~1\AppData\Local\Temp\ccxApcqi.s:1565   .text.hau_hmac_calculate:0000000000000006 .L0 
C:\Users\CYMR90~1\AppData\Local\Temp\ccxApcqi.s:1566   .text.hau_hmac_calculate:0000000000000006 .L0 
C:\Users\CYMR90~1\AppData\Local\Temp\ccxApcqi.s:1568   .text.hau_hmac_calculate:0000000000000008 .L0 
C:\Users\CYMR90~1\AppData\Local\Temp\ccxApcqi.s:1576   .text.hau_hmac_calculate:0000000000000020 .L0 
C:\Users\CYMR90~1\AppData\Local\Temp\ccxApcqi.s:1578   .text.hau_hmac_calculate:0000000000000024 .L0 
C:\Users\CYMR90~1\AppData\Local\Temp\ccxApcqi.s:1580   .text.hau_hmac_calculate:0000000000000028 .L0 
C:\Users\CYMR90~1\AppData\Local\Temp\ccxApcqi.s:1582   .text.hau_hmac_calculate:000000000000002c .L0 
C:\Users\CYMR90~1\AppData\Local\Temp\ccxApcqi.s:1584   .text.hau_hmac_calculate:0000000000000030 .L0 
C:\Users\CYMR90~1\AppData\Local\Temp\ccxApcqi.s:1586   .text.hau_hmac_calculate:0000000000000034 .L0 
C:\Users\CYMR90~1\AppData\Local\Temp\ccxApcqi.s:1589   .text.hau_hmac_calculate:000000000000003c .L0 
C:\Users\CYMR90~1\AppData\Local\Temp\ccxApcqi.s:1592   .text.hau_hmac_calculate:0000000000000044 .L0 
C:\Users\CYMR90~1\AppData\Local\Temp\ccxApcqi.s:1603   .text.hau_hmac_calculate:000000000000005c .L0 
C:\Users\CYMR90~1\AppData\Local\Temp\ccxApcqi.s:1614   .text.hau_hmac_calculate:0000000000000074 .L0 
C:\Users\CYMR90~1\AppData\Local\Temp\ccxApcqi.s:1616   .text.hau_hmac_calculate:000000000000007c .L0 
C:\Users\CYMR90~1\AppData\Local\Temp\ccxApcqi.s:1619   .text.hau_hmac_calculate:0000000000000084 .L0 
C:\Users\CYMR90~1\AppData\Local\Temp\ccxApcqi.s:1622   .text.hau_hmac_calculate:000000000000008c .L0 
C:\Users\CYMR90~1\AppData\Local\Temp\ccxApcqi.s:1625   .text.hau_hmac_calculate:0000000000000094 .L0 
C:\Users\CYMR90~1\AppData\Local\Temp\ccxApcqi.s:1629   .text.hau_hmac_calculate:00000000000000a0 .L0 
C:\Users\CYMR90~1\AppData\Local\Temp\ccxApcqi.s:1634   .text.hau_hmac_calculate:00000000000000a8 .L0 
C:\Users\CYMR90~1\AppData\Local\Temp\ccxApcqi.s:1637   .text.hau_hmac_calculate:00000000000000ac .L0 
C:\Users\CYMR90~1\AppData\Local\Temp\ccxApcqi.s:1641   .text.hau_hmac_calculate:00000000000000ba .L0 
C:\Users\CYMR90~1\AppData\Local\Temp\ccxApcqi.s:1647   .text.hau_hmac_calculate:00000000000000cc .L0 
C:\Users\CYMR90~1\AppData\Local\Temp\ccxApcqi.s:1649   .text.hau_hmac_calculate:00000000000000d0 .L0 
C:\Users\CYMR90~1\AppData\Local\Temp\ccxApcqi.s:1652   .text.hau_hmac_calculate:00000000000000d2 .L0 
C:\Users\CYMR90~1\AppData\Local\Temp\ccxApcqi.s:1654   .text.hau_hmac_calculate:00000000000000d6 .L0 
C:\Users\CYMR90~1\AppData\Local\Temp\ccxApcqi.s:1658   .text.hau_hmac_calculate:00000000000000e2 .L0 
C:\Users\CYMR90~1\AppData\Local\Temp\ccxApcqi.s:1662   .text.hau_hmac_calculate:00000000000000ec .L0 
C:\Users\CYMR90~1\AppData\Local\Temp\ccxApcqi.s:1667   .text.hau_hmac_calculate:00000000000000f6 .L0 
C:\Users\CYMR90~1\AppData\Local\Temp\ccxApcqi.s:1671   .text.hau_hmac_calculate:0000000000000102 .L0 
C:\Users\CYMR90~1\AppData\Local\Temp\ccxApcqi.s:1674   .text.hau_hmac_calculate:000000000000010a .L0 
C:\Users\CYMR90~1\AppData\Local\Temp\ccxApcqi.s:1678   .text.hau_hmac_calculate:0000000000000118 .L0 
C:\Users\CYMR90~1\AppData\Local\Temp\ccxApcqi.s:1682   .text.hau_hmac_calculate:0000000000000122 .L0 
C:\Users\CYMR90~1\AppData\Local\Temp\ccxApcqi.s:1684   .text.hau_hmac_calculate:0000000000000126 .L0 
C:\Users\CYMR90~1\AppData\Local\Temp\ccxApcqi.s:1687   .text.hau_hmac_calculate:000000000000012c .L0 
C:\Users\CYMR90~1\AppData\Local\Temp\ccxApcqi.s:1691   .text.hau_hmac_calculate:0000000000000132 .L0 
C:\Users\CYMR90~1\AppData\Local\Temp\ccxApcqi.s:1694   .text.hau_hmac_calculate:0000000000000138 .L0 
C:\Users\CYMR90~1\AppData\Local\Temp\ccxApcqi.s:1698   .text.hau_hmac_calculate:000000000000013c .L0 
C:\Users\CYMR90~1\AppData\Local\Temp\ccxApcqi.s:1704   .text.hau_hmac_calculate:000000000000014e .L0 
C:\Users\CYMR90~1\AppData\Local\Temp\ccxApcqi.s:1706   .text.hau_hmac_calculate:0000000000000152 .L0 
C:\Users\CYMR90~1\AppData\Local\Temp\ccxApcqi.s:1709   .text.hau_hmac_calculate:0000000000000154 .L0 
C:\Users\CYMR90~1\AppData\Local\Temp\ccxApcqi.s:1711   .text.hau_hmac_calculate:0000000000000158 .L0 
C:\Users\CYMR90~1\AppData\Local\Temp\ccxApcqi.s:1715   .text.hau_hmac_calculate:0000000000000164 .L0 
C:\Users\CYMR90~1\AppData\Local\Temp\ccxApcqi.s:1719   .text.hau_hmac_calculate:000000000000016e .L0 
C:\Users\CYMR90~1\AppData\Local\Temp\ccxApcqi.s:1724   .text.hau_hmac_calculate:0000000000000178 .L0 
C:\Users\CYMR90~1\AppData\Local\Temp\ccxApcqi.s:1728   .text.hau_hmac_calculate:0000000000000184 .L0 
C:\Users\CYMR90~1\AppData\Local\Temp\ccxApcqi.s:1730   .text.hau_hmac_calculate:000000000000018c .L0 
C:\Users\CYMR90~1\AppData\Local\Temp\ccxApcqi.s:1733   .text.hau_hmac_calculate:0000000000000190 .L0 
C:\Users\CYMR90~1\AppData\Local\Temp\ccxApcqi.s:1737   .text.hau_hmac_calculate:000000000000019e .L0 
C:\Users\CYMR90~1\AppData\Local\Temp\ccxApcqi.s:1741   .text.hau_hmac_calculate:00000000000001a8 .L0 
C:\Users\CYMR90~1\AppData\Local\Temp\ccxApcqi.s:1743   .text.hau_hmac_calculate:00000000000001ac .L0 
C:\Users\CYMR90~1\AppData\Local\Temp\ccxApcqi.s:1746   .text.hau_hmac_calculate:00000000000001b2 .L0 
C:\Users\CYMR90~1\AppData\Local\Temp\ccxApcqi.s:1750   .text.hau_hmac_calculate:00000000000001b8 .L0 
C:\Users\CYMR90~1\AppData\Local\Temp\ccxApcqi.s:1753   .text.hau_hmac_calculate:00000000000001be .L0 
C:\Users\CYMR90~1\AppData\Local\Temp\ccxApcqi.s:1757   .text.hau_hmac_calculate:00000000000001c2 .L0 
C:\Users\CYMR90~1\AppData\Local\Temp\ccxApcqi.s:1763   .text.hau_hmac_calculate:00000000000001d4 .L0 
C:\Users\CYMR90~1\AppData\Local\Temp\ccxApcqi.s:1766   .text.hau_hmac_calculate:00000000000001dc .L0 
C:\Users\CYMR90~1\AppData\Local\Temp\ccxApcqi.s:1768   .text.hau_hmac_calculate:00000000000001e0 .L0 
C:\Users\CYMR90~1\AppData\Local\Temp\ccxApcqi.s:1771   .text.hau_hmac_calculate:00000000000001e2 .L0 
C:\Users\CYMR90~1\AppData\Local\Temp\ccxApcqi.s:1773   .text.hau_hmac_calculate:00000000000001e6 .L0 
C:\Users\CYMR90~1\AppData\Local\Temp\ccxApcqi.s:1777   .text.hau_hmac_calculate:00000000000001f2 .L0 
C:\Users\CYMR90~1\AppData\Local\Temp\ccxApcqi.s:1781   .text.hau_hmac_calculate:00000000000001fc .L0 
C:\Users\CYMR90~1\AppData\Local\Temp\ccxApcqi.s:1786   .text.hau_hmac_calculate:0000000000000206 .L0 
C:\Users\CYMR90~1\AppData\Local\Temp\ccxApcqi.s:1790   .text.hau_hmac_calculate:0000000000000212 .L0 
C:\Users\CYMR90~1\AppData\Local\Temp\ccxApcqi.s:1792   .text.hau_hmac_calculate:000000000000021a .L0 
C:\Users\CYMR90~1\AppData\Local\Temp\ccxApcqi.s:1795   .text.hau_hmac_calculate:000000000000021e .L0 
C:\Users\CYMR90~1\AppData\Local\Temp\ccxApcqi.s:1799   .text.hau_hmac_calculate:000000000000022c .L0 
C:\Users\CYMR90~1\AppData\Local\Temp\ccxApcqi.s:1803   .text.hau_hmac_calculate:0000000000000236 .L0 
C:\Users\CYMR90~1\AppData\Local\Temp\ccxApcqi.s:1805   .text.hau_hmac_calculate:000000000000023a .L0 
C:\Users\CYMR90~1\AppData\Local\Temp\ccxApcqi.s:1808   .text.hau_hmac_calculate:0000000000000240 .L0 
C:\Users\CYMR90~1\AppData\Local\Temp\ccxApcqi.s:1812   .text.hau_hmac_calculate:0000000000000246 .L0 
C:\Users\CYMR90~1\AppData\Local\Temp\ccxApcqi.s:1815   .text.hau_hmac_calculate:000000000000024c .L0 
C:\Users\CYMR90~1\AppData\Local\Temp\ccxApcqi.s:1819   .text.hau_hmac_calculate:0000000000000250 .L0 
C:\Users\CYMR90~1\AppData\Local\Temp\ccxApcqi.s:1823   .text.hau_hmac_calculate:0000000000000260 .L0 
C:\Users\CYMR90~1\AppData\Local\Temp\ccxApcqi.s:1826   .text.hau_hmac_calculate:0000000000000262 .L0 
C:\Users\CYMR90~1\AppData\Local\Temp\ccxApcqi.s:1828   .text.hau_hmac_calculate:0000000000000266 .L0 
C:\Users\CYMR90~1\AppData\Local\Temp\ccxApcqi.s:1830   .text.hau_hmac_calculate:0000000000000268 .L0 
C:\Users\CYMR90~1\AppData\Local\Temp\ccxApcqi.s:1831   .text.hau_hmac_calculate:0000000000000268 .L0 
C:\Users\CYMR90~1\AppData\Local\Temp\ccxApcqi.s:1833   .text.hau_hmac_calculate:000000000000026a .L0 
C:\Users\CYMR90~1\AppData\Local\Temp\ccxApcqi.s:1835   .text.hau_hmac_calculate:000000000000026c .L0 
C:\Users\CYMR90~1\AppData\Local\Temp\ccxApcqi.s:53     .text.hau_hash_sha_1:0000000000000040 .L0 
C:\Users\CYMR90~1\AppData\Local\Temp\ccxApcqi.s:100    .text.hau_hmac_sha_1:0000000000000050 .L0 
C:\Users\CYMR90~1\AppData\Local\Temp\ccxApcqi.s:143    .text.hau_hash_sha_224:0000000000000042 .L0 
C:\Users\CYMR90~1\AppData\Local\Temp\ccxApcqi.s:190    .text.hau_hmac_sha_224:0000000000000052 .L0 
C:\Users\CYMR90~1\AppData\Local\Temp\ccxApcqi.s:234    .text.hau_hash_sha_256:0000000000000046 .L0 
C:\Users\CYMR90~1\AppData\Local\Temp\ccxApcqi.s:282    .text.hau_hmac_sha_256:0000000000000056 .L0 
C:\Users\CYMR90~1\AppData\Local\Temp\ccxApcqi.s:325    .text.hau_hash_md5:0000000000000042 .L0 
C:\Users\CYMR90~1\AppData\Local\Temp\ccxApcqi.s:372    .text.hau_hmac_md5:0000000000000052 .L0 
C:\Users\CYMR90~1\AppData\Local\Temp\ccxApcqi.s:1428   .text.hau_sha_md5_digest_read:0000000000000840 .L0 
C:\Users\CYMR90~1\AppData\Local\Temp\ccxApcqi.s:1554   .text.hau_hash_calculate:0000000000000100 .L0 
C:\Users\CYMR90~1\AppData\Local\Temp\ccxApcqi.s:1838   .text.hau_hmac_calculate:000000000000026c .L0 
                     .debug_frame:0000000000000000 .L0 
C:\Users\CYMR90~1\AppData\Local\Temp\ccxApcqi.s:913    .text.hau_sha_md5_digest_read:000000000000044c .L18
C:\Users\CYMR90~1\AppData\Local\Temp\ccxApcqi.s:1411   .text.hau_sha_md5_digest_read:0000000000000830 .L48
C:\Users\CYMR90~1\AppData\Local\Temp\ccxApcqi.s:623    .text.hau_sha_md5_digest_read:0000000000000208 .L20
C:\Users\CYMR90~1\AppData\Local\Temp\ccxApcqi.s:414    .text.hau_sha_md5_digest_read:0000000000000068 .L21
C:\Users\CYMR90~1\AppData\Local\Temp\ccxApcqi.s:1244   .text.hau_sha_md5_digest_read:00000000000006e2 .L22
C:\Users\CYMR90~1\AppData\Local\Temp\ccxApcqi.s:1414   .text.hau_sha_md5_digest_read:0000000000000832 .L28
C:\Users\CYMR90~1\AppData\Local\Temp\ccxApcqi.s:1502   .text.hau_hash_calculate:000000000000009e .L50
C:\Users\CYMR90~1\AppData\Local\Temp\ccxApcqi.s:1487   .text.hau_hash_calculate:000000000000007a .L51
C:\Users\CYMR90~1\AppData\Local\Temp\ccxApcqi.s:1526   .text.hau_hash_calculate:00000000000000da .L52
C:\Users\CYMR90~1\AppData\Local\Temp\ccxApcqi.s:1509   .text.hau_hash_calculate:00000000000000b2 .L53
C:\Users\CYMR90~1\AppData\Local\Temp\ccxApcqi.s:1533   .text.hau_hash_calculate:00000000000000e4 .L54
C:\Users\CYMR90~1\AppData\Local\Temp\ccxApcqi.s:1540   .text.hau_hash_calculate:00000000000000f6 .L56
C:\Users\CYMR90~1\AppData\Local\Temp\ccxApcqi.s:1632   .text.hau_hmac_calculate:00000000000000a8 .L58
C:\Users\CYMR90~1\AppData\Local\Temp\ccxApcqi.s:1635   .text.hau_hmac_calculate:00000000000000ac .L59
C:\Users\CYMR90~1\AppData\Local\Temp\ccxApcqi.s:1665   .text.hau_hmac_calculate:00000000000000f6 .L60
C:\Users\CYMR90~1\AppData\Local\Temp\ccxApcqi.s:1650   .text.hau_hmac_calculate:00000000000000d2 .L61
C:\Users\CYMR90~1\AppData\Local\Temp\ccxApcqi.s:1689   .text.hau_hmac_calculate:0000000000000132 .L62
C:\Users\CYMR90~1\AppData\Local\Temp\ccxApcqi.s:1672   .text.hau_hmac_calculate:000000000000010a .L63
C:\Users\CYMR90~1\AppData\Local\Temp\ccxApcqi.s:1696   .text.hau_hmac_calculate:000000000000013c .L64
C:\Users\CYMR90~1\AppData\Local\Temp\ccxApcqi.s:1824   .text.hau_hmac_calculate:0000000000000262 .L76
C:\Users\CYMR90~1\AppData\Local\Temp\ccxApcqi.s:1722   .text.hau_hmac_calculate:0000000000000178 .L66
C:\Users\CYMR90~1\AppData\Local\Temp\ccxApcqi.s:1707   .text.hau_hmac_calculate:0000000000000154 .L67
C:\Users\CYMR90~1\AppData\Local\Temp\ccxApcqi.s:1748   .text.hau_hmac_calculate:00000000000001b8 .L68
C:\Users\CYMR90~1\AppData\Local\Temp\ccxApcqi.s:1731   .text.hau_hmac_calculate:0000000000000190 .L69
C:\Users\CYMR90~1\AppData\Local\Temp\ccxApcqi.s:1755   .text.hau_hmac_calculate:00000000000001c2 .L70
C:\Users\CYMR90~1\AppData\Local\Temp\ccxApcqi.s:1784   .text.hau_hmac_calculate:0000000000000206 .L71
C:\Users\CYMR90~1\AppData\Local\Temp\ccxApcqi.s:1769   .text.hau_hmac_calculate:00000000000001e2 .L72
C:\Users\CYMR90~1\AppData\Local\Temp\ccxApcqi.s:1810   .text.hau_hmac_calculate:0000000000000246 .L73
C:\Users\CYMR90~1\AppData\Local\Temp\ccxApcqi.s:1793   .text.hau_hmac_calculate:000000000000021e .L74
C:\Users\CYMR90~1\AppData\Local\Temp\ccxApcqi.s:1817   .text.hau_hmac_calculate:0000000000000250 .L75
C:\Users\CYMR90~1\AppData\Local\Temp\ccxApcqi.s:3274   .debug_abbrev:0000000000000000 .Ldebug_abbrev0
C:\Users\CYMR90~1\AppData\Local\Temp\ccxApcqi.s:24195  .debug_str:000000000000ad3a .LASF5606
C:\Users\CYMR90~1\AppData\Local\Temp\ccxApcqi.s:24911  .debug_str:000000000000dd33 .LASF5607
C:\Users\CYMR90~1\AppData\Local\Temp\ccxApcqi.s:27095  .debug_str:000000000001682a .LASF5608
C:\Users\CYMR90~1\AppData\Local\Temp\ccxApcqi.s:3807   .debug_ranges:0000000000000000 .Ldebug_ranges0
C:\Users\CYMR90~1\AppData\Local\Temp\ccxApcqi.s:21471  .debug_line:0000000000000000 .Ldebug_line0
C:\Users\CYMR90~1\AppData\Local\Temp\ccxApcqi.s:3833   .debug_macro:0000000000000000 .Ldebug_macro0
C:\Users\CYMR90~1\AppData\Local\Temp\ccxApcqi.s:32654  .debug_str:000000000002cc8d .LASF5557
C:\Users\CYMR90~1\AppData\Local\Temp\ccxApcqi.s:21489  .debug_str:000000000000011c .LASF5558
C:\Users\CYMR90~1\AppData\Local\Temp\ccxApcqi.s:22403  .debug_str:0000000000003a01 .LASF5559
C:\Users\CYMR90~1\AppData\Local\Temp\ccxApcqi.s:27554  .debug_str:00000000000185d1 .LASF5560
C:\Users\CYMR90~1\AppData\Local\Temp\ccxApcqi.s:23689  .debug_str:0000000000008d8a .LASF5563
C:\Users\CYMR90~1\AppData\Local\Temp\ccxApcqi.s:27007  .debug_str:000000000001623f .LASF5561
C:\Users\CYMR90~1\AppData\Local\Temp\ccxApcqi.s:28878  .debug_str:000000000001dd7d .LASF5562
C:\Users\CYMR90~1\AppData\Local\Temp\ccxApcqi.s:24991  .debug_str:000000000000e233 .LASF5564
C:\Users\CYMR90~1\AppData\Local\Temp\ccxApcqi.s:26487  .debug_str:00000000000141ef .LASF5565
C:\Users\CYMR90~1\AppData\Local\Temp\ccxApcqi.s:29282  .debug_str:000000000001f572 .LASF5566
C:\Users\CYMR90~1\AppData\Local\Temp\ccxApcqi.s:27764  .debug_str:000000000001943d .LASF5567
C:\Users\CYMR90~1\AppData\Local\Temp\ccxApcqi.s:21601  .debug_str:00000000000007ce .LASF5568
C:\Users\CYMR90~1\AppData\Local\Temp\ccxApcqi.s:30834  .debug_str:00000000000257ad .LASF5569
C:\Users\CYMR90~1\AppData\Local\Temp\ccxApcqi.s:29304  .debug_str:000000000001f6dc .LASF855
C:\Users\CYMR90~1\AppData\Local\Temp\ccxApcqi.s:26777  .debug_str:00000000000153ba .LASF5570
C:\Users\CYMR90~1\AppData\Local\Temp\ccxApcqi.s:30766  .debug_str:00000000000252a2 .LASF5571
C:\Users\CYMR90~1\AppData\Local\Temp\ccxApcqi.s:30950  .debug_str:0000000000025eef .LASF5572
C:\Users\CYMR90~1\AppData\Local\Temp\ccxApcqi.s:30530  .debug_str:000000000002423a .LASF5573
C:\Users\CYMR90~1\AppData\Local\Temp\ccxApcqi.s:29084  .debug_str:000000000001e9d0 .LASF5574
C:\Users\CYMR90~1\AppData\Local\Temp\ccxApcqi.s:26335  .debug_str:00000000000138be .LASF5575
C:\Users\CYMR90~1\AppData\Local\Temp\ccxApcqi.s:32630  .debug_str:000000000002cb1e .LASF5576
C:\Users\CYMR90~1\AppData\Local\Temp\ccxApcqi.s:29120  .debug_str:000000000001ebc1 .LASF5577
C:\Users\CYMR90~1\AppData\Local\Temp\ccxApcqi.s:31902  .debug_str:0000000000029c85 .LASF5578
C:\Users\CYMR90~1\AppData\Local\Temp\ccxApcqi.s:30478  .debug_str:0000000000023e9f .LASF5579
C:\Users\CYMR90~1\AppData\Local\Temp\ccxApcqi.s:27468  .debug_str:00000000000180d5 .LASF5580
C:\Users\CYMR90~1\AppData\Local\Temp\ccxApcqi.s:28780  .debug_str:000000000001d793 .LASF5581
C:\Users\CYMR90~1\AppData\Local\Temp\ccxApcqi.s:22013  .debug_str:00000000000020df .LASF5582
C:\Users\CYMR90~1\AppData\Local\Temp\ccxApcqi.s:28288  .debug_str:000000000001b77e .LASF5594
C:\Users\CYMR90~1\AppData\Local\Temp\ccxApcqi.s:1558   .text.hau_hmac_calculate:0000000000000000 .LFB357
C:\Users\CYMR90~1\AppData\Local\Temp\ccxApcqi.s:1836   .text.hau_hmac_calculate:000000000000026c .LFE357
C:\Users\CYMR90~1\AppData\Local\Temp\ccxApcqi.s:22889  .debug_str:00000000000058fe .LASF5583
C:\Users\CYMR90~1\AppData\Local\Temp\ccxApcqi.s:22599  .debug_str:000000000000470d .LASF5584
C:\Users\CYMR90~1\AppData\Local\Temp\ccxApcqi.s:26403  .debug_str:0000000000013ca8 .LASF5585
C:\Users\CYMR90~1\AppData\Local\Temp\ccxApcqi.s:28588  .debug_str:000000000001ca71 .LASF5586
C:\Users\CYMR90~1\AppData\Local\Temp\ccxApcqi.s:24681  .debug_str:000000000000ce68 .LASF5587
C:\Users\CYMR90~1\AppData\Local\Temp\ccxApcqi.s:25843  .debug_str:000000000001181c .LASF5588
C:\Users\CYMR90~1\AppData\Local\Temp\ccxApcqi.s:22079  .debug_str:00000000000024b9 .LASF5589
C:\Users\CYMR90~1\AppData\Local\Temp\ccxApcqi.s:31802  .debug_str:00000000000296c6 .LASF5590
C:\Users\CYMR90~1\AppData\Local\Temp\ccxApcqi.s:26395  .debug_str:0000000000013c50 .LASF5591
C:\Users\CYMR90~1\AppData\Local\Temp\ccxApcqi.s:24545  .debug_str:000000000000c4dd .LASF5592
C:\Users\CYMR90~1\AppData\Local\Temp\ccxApcqi.s:32592  .debug_str:000000000002c88d .LASF5593
C:\Users\CYMR90~1\AppData\Local\Temp\ccxApcqi.s:27876  .debug_str:0000000000019bd9 .LASF5595
C:\Users\CYMR90~1\AppData\Local\Temp\ccxApcqi.s:1432   .text.hau_hash_calculate:0000000000000000 .LFB356
C:\Users\CYMR90~1\AppData\Local\Temp\ccxApcqi.s:1552   .text.hau_hash_calculate:0000000000000100 .LFE356
C:\Users\CYMR90~1\AppData\Local\Temp\ccxApcqi.s:27560  .debug_str:000000000001861f .LASF5609
C:\Users\CYMR90~1\AppData\Local\Temp\ccxApcqi.s:376    .text.hau_sha_md5_digest_read:0000000000000000 .LFB355
C:\Users\CYMR90~1\AppData\Local\Temp\ccxApcqi.s:1426   .text.hau_sha_md5_digest_read:0000000000000840 .LFE355
C:\Users\CYMR90~1\AppData\Local\Temp\ccxApcqi.s:21833  .debug_str:00000000000015ff .LASF5596
C:\Users\CYMR90~1\AppData\Local\Temp\ccxApcqi.s:32134  .debug_str:000000000002aa4b .LASF5597
C:\Users\CYMR90~1\AppData\Local\Temp\ccxApcqi.s:424    .text.hau_sha_md5_digest_read:0000000000000082 .LBB50
C:\Users\CYMR90~1\AppData\Local\Temp\ccxApcqi.s:454    .text.hau_sha_md5_digest_read:00000000000000bc .LBE50
C:\Users\CYMR90~1\AppData\Local\Temp\ccxApcqi.s:466    .text.hau_sha_md5_digest_read:00000000000000d4 .LBB52
C:\Users\CYMR90~1\AppData\Local\Temp\ccxApcqi.s:495    .text.hau_sha_md5_digest_read:000000000000010e .LBE52
C:\Users\CYMR90~1\AppData\Local\Temp\ccxApcqi.s:507    .text.hau_sha_md5_digest_read:0000000000000126 .LBB54
C:\Users\CYMR90~1\AppData\Local\Temp\ccxApcqi.s:536    .text.hau_sha_md5_digest_read:0000000000000160 .LBE54
C:\Users\CYMR90~1\AppData\Local\Temp\ccxApcqi.s:548    .text.hau_sha_md5_digest_read:0000000000000178 .LBB56
C:\Users\CYMR90~1\AppData\Local\Temp\ccxApcqi.s:577    .text.hau_sha_md5_digest_read:00000000000001b2 .LBE56
C:\Users\CYMR90~1\AppData\Local\Temp\ccxApcqi.s:589    .text.hau_sha_md5_digest_read:00000000000001ca .LBB58
C:\Users\CYMR90~1\AppData\Local\Temp\ccxApcqi.s:618    .text.hau_sha_md5_digest_read:0000000000000204 .LBE58
C:\Users\CYMR90~1\AppData\Local\Temp\ccxApcqi.s:633    .text.hau_sha_md5_digest_read:0000000000000222 .LBB60
C:\Users\CYMR90~1\AppData\Local\Temp\ccxApcqi.s:662    .text.hau_sha_md5_digest_read:000000000000025c .LBE60
C:\Users\CYMR90~1\AppData\Local\Temp\ccxApcqi.s:674    .text.hau_sha_md5_digest_read:0000000000000274 .LBB62
C:\Users\CYMR90~1\AppData\Local\Temp\ccxApcqi.s:703    .text.hau_sha_md5_digest_read:00000000000002ae .LBE62
C:\Users\CYMR90~1\AppData\Local\Temp\ccxApcqi.s:715    .text.hau_sha_md5_digest_read:00000000000002c6 .LBB64
C:\Users\CYMR90~1\AppData\Local\Temp\ccxApcqi.s:744    .text.hau_sha_md5_digest_read:0000000000000300 .LBE64
C:\Users\CYMR90~1\AppData\Local\Temp\ccxApcqi.s:756    .text.hau_sha_md5_digest_read:0000000000000318 .LBB66
C:\Users\CYMR90~1\AppData\Local\Temp\ccxApcqi.s:785    .text.hau_sha_md5_digest_read:0000000000000352 .LBE66
C:\Users\CYMR90~1\AppData\Local\Temp\ccxApcqi.s:797    .text.hau_sha_md5_digest_read:000000000000036a .LBB68
C:\Users\CYMR90~1\AppData\Local\Temp\ccxApcqi.s:826    .text.hau_sha_md5_digest_read:00000000000003a4 .LBE68
C:\Users\CYMR90~1\AppData\Local\Temp\ccxApcqi.s:838    .text.hau_sha_md5_digest_read:00000000000003bc .LBB70
C:\Users\CYMR90~1\AppData\Local\Temp\ccxApcqi.s:867    .text.hau_sha_md5_digest_read:00000000000003f6 .LBE70
C:\Users\CYMR90~1\AppData\Local\Temp\ccxApcqi.s:879    .text.hau_sha_md5_digest_read:000000000000040e .LBB72
C:\Users\CYMR90~1\AppData\Local\Temp\ccxApcqi.s:908    .text.hau_sha_md5_digest_read:0000000000000448 .LBE72
C:\Users\CYMR90~1\AppData\Local\Temp\ccxApcqi.s:923    .text.hau_sha_md5_digest_read:0000000000000466 .LBB74
C:\Users\CYMR90~1\AppData\Local\Temp\ccxApcqi.s:952    .text.hau_sha_md5_digest_read:00000000000004a0 .LBE74
C:\Users\CYMR90~1\AppData\Local\Temp\ccxApcqi.s:964    .text.hau_sha_md5_digest_read:00000000000004b8 .LBB76
C:\Users\CYMR90~1\AppData\Local\Temp\ccxApcqi.s:993    .text.hau_sha_md5_digest_read:00000000000004f2 .LBE76
C:\Users\CYMR90~1\AppData\Local\Temp\ccxApcqi.s:1005   .text.hau_sha_md5_digest_read:000000000000050a .LBB78
C:\Users\CYMR90~1\AppData\Local\Temp\ccxApcqi.s:1034   .text.hau_sha_md5_digest_read:0000000000000544 .LBE78
C:\Users\CYMR90~1\AppData\Local\Temp\ccxApcqi.s:1046   .text.hau_sha_md5_digest_read:000000000000055c .LBB80
C:\Users\CYMR90~1\AppData\Local\Temp\ccxApcqi.s:1075   .text.hau_sha_md5_digest_read:0000000000000596 .LBE80
C:\Users\CYMR90~1\AppData\Local\Temp\ccxApcqi.s:1087   .text.hau_sha_md5_digest_read:00000000000005ae .LBB82
C:\Users\CYMR90~1\AppData\Local\Temp\ccxApcqi.s:1116   .text.hau_sha_md5_digest_read:00000000000005e8 .LBE82
C:\Users\CYMR90~1\AppData\Local\Temp\ccxApcqi.s:1128   .text.hau_sha_md5_digest_read:0000000000000600 .LBB84
C:\Users\CYMR90~1\AppData\Local\Temp\ccxApcqi.s:1157   .text.hau_sha_md5_digest_read:000000000000063a .LBE84
C:\Users\CYMR90~1\AppData\Local\Temp\ccxApcqi.s:1169   .text.hau_sha_md5_digest_read:0000000000000652 .LBB86
C:\Users\CYMR90~1\AppData\Local\Temp\ccxApcqi.s:1198   .text.hau_sha_md5_digest_read:000000000000068c .LBE86
C:\Users\CYMR90~1\AppData\Local\Temp\ccxApcqi.s:1210   .text.hau_sha_md5_digest_read:00000000000006a4 .LBB88
C:\Users\CYMR90~1\AppData\Local\Temp\ccxApcqi.s:1239   .text.hau_sha_md5_digest_read:00000000000006de .LBE88
C:\Users\CYMR90~1\AppData\Local\Temp\ccxApcqi.s:1254   .text.hau_sha_md5_digest_read:00000000000006fc .LBB90
C:\Users\CYMR90~1\AppData\Local\Temp\ccxApcqi.s:1283   .text.hau_sha_md5_digest_read:0000000000000736 .LBE90
C:\Users\CYMR90~1\AppData\Local\Temp\ccxApcqi.s:1295   .text.hau_sha_md5_digest_read:000000000000074e .LBB92
C:\Users\CYMR90~1\AppData\Local\Temp\ccxApcqi.s:1324   .text.hau_sha_md5_digest_read:0000000000000788 .LBE92
C:\Users\CYMR90~1\AppData\Local\Temp\ccxApcqi.s:1336   .text.hau_sha_md5_digest_read:00000000000007a0 .LBB94
C:\Users\CYMR90~1\AppData\Local\Temp\ccxApcqi.s:1365   .text.hau_sha_md5_digest_read:00000000000007da .LBE94
C:\Users\CYMR90~1\AppData\Local\Temp\ccxApcqi.s:1377   .text.hau_sha_md5_digest_read:00000000000007f2 .LBB96
C:\Users\CYMR90~1\AppData\Local\Temp\ccxApcqi.s:1406   .text.hau_sha_md5_digest_read:000000000000082c .LBE96
C:\Users\CYMR90~1\AppData\Local\Temp\ccxApcqi.s:29378  .debug_str:000000000001fb64 .LASF5598
C:\Users\CYMR90~1\AppData\Local\Temp\ccxApcqi.s:330    .text.hau_hmac_md5:0000000000000000 .LFB354
C:\Users\CYMR90~1\AppData\Local\Temp\ccxApcqi.s:370    .text.hau_hmac_md5:0000000000000052 .LFE354
C:\Users\CYMR90~1\AppData\Local\Temp\ccxApcqi.s:24431  .debug_str:000000000000bdf7 .LASF5599
C:\Users\CYMR90~1\AppData\Local\Temp\ccxApcqi.s:287    .text.hau_hash_md5:0000000000000000 .LFB353
C:\Users\CYMR90~1\AppData\Local\Temp\ccxApcqi.s:323    .text.hau_hash_md5:0000000000000042 .LFE353
C:\Users\CYMR90~1\AppData\Local\Temp\ccxApcqi.s:26269  .debug_str:00000000000134d7 .LASF5600
C:\Users\CYMR90~1\AppData\Local\Temp\ccxApcqi.s:239    .text.hau_hmac_sha_256:0000000000000000 .LFB352
C:\Users\CYMR90~1\AppData\Local\Temp\ccxApcqi.s:280    .text.hau_hmac_sha_256:0000000000000056 .LFE352
C:\Users\CYMR90~1\AppData\Local\Temp\ccxApcqi.s:32342  .debug_str:000000000002b7a1 .LASF5601
C:\Users\CYMR90~1\AppData\Local\Temp\ccxApcqi.s:195    .text.hau_hash_sha_256:0000000000000000 .LFB351
C:\Users\CYMR90~1\AppData\Local\Temp\ccxApcqi.s:232    .text.hau_hash_sha_256:0000000000000046 .LFE351
C:\Users\CYMR90~1\AppData\Local\Temp\ccxApcqi.s:25989  .debug_str:0000000000012213 .LASF5602
C:\Users\CYMR90~1\AppData\Local\Temp\ccxApcqi.s:148    .text.hau_hmac_sha_224:0000000000000000 .LFB350
C:\Users\CYMR90~1\AppData\Local\Temp\ccxApcqi.s:188    .text.hau_hmac_sha_224:0000000000000052 .LFE350
C:\Users\CYMR90~1\AppData\Local\Temp\ccxApcqi.s:32038  .debug_str:000000000002a4c1 .LASF5603
C:\Users\CYMR90~1\AppData\Local\Temp\ccxApcqi.s:105    .text.hau_hash_sha_224:0000000000000000 .LFB349
C:\Users\CYMR90~1\AppData\Local\Temp\ccxApcqi.s:141    .text.hau_hash_sha_224:0000000000000042 .LFE349
C:\Users\CYMR90~1\AppData\Local\Temp\ccxApcqi.s:28086  .debug_str:000000000001aa87 .LASF5604
C:\Users\CYMR90~1\AppData\Local\Temp\ccxApcqi.s:58     .text.hau_hmac_sha_1:0000000000000000 .LFB348
C:\Users\CYMR90~1\AppData\Local\Temp\ccxApcqi.s:98     .text.hau_hmac_sha_1:0000000000000050 .LFE348
C:\Users\CYMR90~1\AppData\Local\Temp\ccxApcqi.s:23943  .debug_str:0000000000009d1b .LASF5605
C:\Users\CYMR90~1\AppData\Local\Temp\ccxApcqi.s:14     .text.hau_hash_sha_1:0000000000000000 .LFB347
C:\Users\CYMR90~1\AppData\Local\Temp\ccxApcqi.s:51     .text.hau_hash_sha_1:0000000000000040 .LFE347
C:\Users\CYMR90~1\AppData\Local\Temp\ccxApcqi.s:32118  .debug_str:000000000002a984 .LASF5610
C:\Users\CYMR90~1\AppData\Local\Temp\ccxApcqi.s:27774  .debug_str:00000000000194d7 .LASF5611
C:\Users\CYMR90~1\AppData\Local\Temp\ccxApcqi.s:22077  .debug_str:00000000000024b2 .LASF5612
C:\Users\CYMR90~1\AppData\Local\Temp\ccxApcqi.s:1845   .debug_info:0000000000000000 .Ldebug_info0
C:\Users\CYMR90~1\AppData\Local\Temp\ccxApcqi.s:4456   .debug_macro:0000000000000000 .Ldebug_macro2
C:\Users\CYMR90~1\AppData\Local\Temp\ccxApcqi.s:30176  .debug_str:0000000000022bfc .LASF314
C:\Users\CYMR90~1\AppData\Local\Temp\ccxApcqi.s:27184  .debug_str:0000000000016fc6 .LASF315
C:\Users\CYMR90~1\AppData\Local\Temp\ccxApcqi.s:5403   .debug_macro:0000000000000000 .Ldebug_macro3
C:\Users\CYMR90~1\AppData\Local\Temp\ccxApcqi.s:23637  .debug_str:0000000000008a23 .LASF369
C:\Users\CYMR90~1\AppData\Local\Temp\ccxApcqi.s:23205  .debug_str:0000000000006ca8 .LASF370
C:\Users\CYMR90~1\AppData\Local\Temp\ccxApcqi.s:27428  .debug_str:0000000000017e7d .LASF371
C:\Users\CYMR90~1\AppData\Local\Temp\ccxApcqi.s:5567   .debug_macro:0000000000000000 .Ldebug_macro4
C:\Users\CYMR90~1\AppData\Local\Temp\ccxApcqi.s:5587   .debug_macro:0000000000000000 .Ldebug_macro5
C:\Users\CYMR90~1\AppData\Local\Temp\ccxApcqi.s:26085  .debug_str:000000000001285c .LASF390
C:\Users\CYMR90~1\AppData\Local\Temp\ccxApcqi.s:5631   .debug_macro:0000000000000000 .Ldebug_macro6
C:\Users\CYMR90~1\AppData\Local\Temp\ccxApcqi.s:5645   .debug_macro:0000000000000000 .Ldebug_macro7
C:\Users\CYMR90~1\AppData\Local\Temp\ccxApcqi.s:5713   .debug_macro:0000000000000000 .Ldebug_macro8
C:\Users\CYMR90~1\AppData\Local\Temp\ccxApcqi.s:5739   .debug_macro:0000000000000000 .Ldebug_macro9
C:\Users\CYMR90~1\AppData\Local\Temp\ccxApcqi.s:5768   .debug_macro:0000000000000000 .Ldebug_macro10
C:\Users\CYMR90~1\AppData\Local\Temp\ccxApcqi.s:27566  .debug_str:00000000000186a7 .LASF433
C:\Users\CYMR90~1\AppData\Local\Temp\ccxApcqi.s:5782   .debug_macro:0000000000000000 .Ldebug_macro11
C:\Users\CYMR90~1\AppData\Local\Temp\ccxApcqi.s:5826   .debug_macro:0000000000000000 .Ldebug_macro12
C:\Users\CYMR90~1\AppData\Local\Temp\ccxApcqi.s:5852   .debug_macro:0000000000000000 .Ldebug_macro13
C:\Users\CYMR90~1\AppData\Local\Temp\ccxApcqi.s:31112  .debug_str:00000000000268ea .LASF569
C:\Users\CYMR90~1\AppData\Local\Temp\ccxApcqi.s:6223   .debug_macro:0000000000000000 .Ldebug_macro14
C:\Users\CYMR90~1\AppData\Local\Temp\ccxApcqi.s:25611  .debug_str:0000000000010888 .LASF572
C:\Users\CYMR90~1\AppData\Local\Temp\ccxApcqi.s:30454  .debug_str:0000000000023c93 .LASF573
C:\Users\CYMR90~1\AppData\Local\Temp\ccxApcqi.s:6234   .debug_macro:0000000000000000 .Ldebug_macro15
C:\Users\CYMR90~1\AppData\Local\Temp\ccxApcqi.s:6248   .debug_macro:0000000000000000 .Ldebug_macro16
C:\Users\CYMR90~1\AppData\Local\Temp\ccxApcqi.s:22169  .debug_str:0000000000002aa6 .LASF578
C:\Users\CYMR90~1\AppData\Local\Temp\ccxApcqi.s:6280   .debug_macro:0000000000000000 .Ldebug_macro17
C:\Users\CYMR90~1\AppData\Local\Temp\ccxApcqi.s:6306   .debug_macro:0000000000000000 .Ldebug_macro18
C:\Users\CYMR90~1\AppData\Local\Temp\ccxApcqi.s:6317   .debug_macro:0000000000000000 .Ldebug_macro19
C:\Users\CYMR90~1\AppData\Local\Temp\ccxApcqi.s:6361   .debug_macro:0000000000000000 .Ldebug_macro20
C:\Users\CYMR90~1\AppData\Local\Temp\ccxApcqi.s:6531   .debug_macro:0000000000000000 .Ldebug_macro21
C:\Users\CYMR90~1\AppData\Local\Temp\ccxApcqi.s:6542   .debug_macro:0000000000000000 .Ldebug_macro22
C:\Users\CYMR90~1\AppData\Local\Temp\ccxApcqi.s:26091  .debug_str:00000000000128b5 .LASF675
C:\Users\CYMR90~1\AppData\Local\Temp\ccxApcqi.s:6598   .debug_macro:0000000000000000 .Ldebug_macro23
C:\Users\CYMR90~1\AppData\Local\Temp\ccxApcqi.s:6615   .debug_macro:0000000000000000 .Ldebug_macro24
C:\Users\CYMR90~1\AppData\Local\Temp\ccxApcqi.s:29274  .debug_str:000000000001f502 .LASF693
C:\Users\CYMR90~1\AppData\Local\Temp\ccxApcqi.s:27434  .debug_str:0000000000017eae .LASF694
C:\Users\CYMR90~1\AppData\Local\Temp\ccxApcqi.s:6659   .debug_macro:0000000000000000 .Ldebug_macro25
C:\Users\CYMR90~1\AppData\Local\Temp\ccxApcqi.s:22671  .debug_str:0000000000004c07 .LASF700
C:\Users\CYMR90~1\AppData\Local\Temp\ccxApcqi.s:23775  .debug_str:0000000000009267 .LASF701
C:\Users\CYMR90~1\AppData\Local\Temp\ccxApcqi.s:6679   .debug_macro:0000000000000000 .Ldebug_macro26
C:\Users\CYMR90~1\AppData\Local\Temp\ccxApcqi.s:6690   .debug_macro:0000000000000000 .Ldebug_macro27
C:\Users\CYMR90~1\AppData\Local\Temp\ccxApcqi.s:6734   .debug_macro:0000000000000000 .Ldebug_macro28
C:\Users\CYMR90~1\AppData\Local\Temp\ccxApcqi.s:23035  .debug_str:0000000000006216 .LASF749
C:\Users\CYMR90~1\AppData\Local\Temp\ccxApcqi.s:6835   .debug_macro:0000000000000000 .Ldebug_macro29
C:\Users\CYMR90~1\AppData\Local\Temp\ccxApcqi.s:6852   .debug_macro:0000000000000000 .Ldebug_macro30
C:\Users\CYMR90~1\AppData\Local\Temp\ccxApcqi.s:21537  .debug_str:0000000000000414 .LASF763
C:\Users\CYMR90~1\AppData\Local\Temp\ccxApcqi.s:22847  .debug_str:00000000000056a5 .LASF764
C:\Users\CYMR90~1\AppData\Local\Temp\ccxApcqi.s:6884   .debug_macro:0000000000000000 .Ldebug_macro31
C:\Users\CYMR90~1\AppData\Local\Temp\ccxApcqi.s:6898   .debug_macro:0000000000000000 .Ldebug_macro32
C:\Users\CYMR90~1\AppData\Local\Temp\ccxApcqi.s:7068   .debug_macro:0000000000000000 .Ldebug_macro33
C:\Users\CYMR90~1\AppData\Local\Temp\ccxApcqi.s:25271  .debug_str:000000000000f356 .LASF850
C:\Users\CYMR90~1\AppData\Local\Temp\ccxApcqi.s:27652  .debug_str:0000000000018cd2 .LASF851
C:\Users\CYMR90~1\AppData\Local\Temp\ccxApcqi.s:7154   .debug_macro:0000000000000000 .Ldebug_macro34
C:\Users\CYMR90~1\AppData\Local\Temp\ccxApcqi.s:7279   .debug_macro:0000000000000000 .Ldebug_macro35
C:\Users\CYMR90~1\AppData\Local\Temp\ccxApcqi.s:21815  .debug_str:00000000000014d8 .LASF951
C:\Users\CYMR90~1\AppData\Local\Temp\ccxApcqi.s:7491   .debug_macro:0000000000000000 .Ldebug_macro36
C:\Users\CYMR90~1\AppData\Local\Temp\ccxApcqi.s:23523  .debug_str:00000000000082ef .LASF957
C:\Users\CYMR90~1\AppData\Local\Temp\ccxApcqi.s:23085  .debug_str:00000000000064fa .LASF958
C:\Users\CYMR90~1\AppData\Local\Temp\ccxApcqi.s:21983  .debug_str:0000000000001f76 .LASF959
C:\Users\CYMR90~1\AppData\Local\Temp\ccxApcqi.s:7511   .debug_macro:0000000000000000 .Ldebug_macro37
C:\Users\CYMR90~1\AppData\Local\Temp\ccxApcqi.s:7603   .debug_macro:0000000000000000 .Ldebug_macro38
C:\Users\CYMR90~1\AppData\Local\Temp\ccxApcqi.s:9249   .debug_macro:0000000000000000 .Ldebug_macro39
C:\Users\CYMR90~1\AppData\Local\Temp\ccxApcqi.s:9341   .debug_macro:0000000000000000 .Ldebug_macro40
C:\Users\CYMR90~1\AppData\Local\Temp\ccxApcqi.s:9397   .debug_macro:0000000000000000 .Ldebug_macro41
C:\Users\CYMR90~1\AppData\Local\Temp\ccxApcqi.s:9411   .debug_macro:0000000000000000 .Ldebug_macro42
C:\Users\CYMR90~1\AppData\Local\Temp\ccxApcqi.s:26969  .debug_str:0000000000016013 .LASF1655
C:\Users\CYMR90~1\AppData\Local\Temp\ccxApcqi.s:23897  .debug_str:0000000000009a78 .LASF1656
C:\Users\CYMR90~1\AppData\Local\Temp\ccxApcqi.s:9635   .debug_macro:0000000000000000 .Ldebug_macro43
C:\Users\CYMR90~1\AppData\Local\Temp\ccxApcqi.s:9682   .debug_macro:0000000000000000 .Ldebug_macro44
C:\Users\CYMR90~1\AppData\Local\Temp\ccxApcqi.s:9837   .debug_macro:0000000000000000 .Ldebug_macro45
C:\Users\CYMR90~1\AppData\Local\Temp\ccxApcqi.s:9893   .debug_macro:0000000000000000 .Ldebug_macro46
C:\Users\CYMR90~1\AppData\Local\Temp\ccxApcqi.s:9904   .debug_macro:0000000000000000 .Ldebug_macro47
C:\Users\CYMR90~1\AppData\Local\Temp\ccxApcqi.s:31882  .debug_str:0000000000029b90 .LASF1782
C:\Users\CYMR90~1\AppData\Local\Temp\ccxApcqi.s:26735  .debug_str:000000000001517f .LASF1783
C:\Users\CYMR90~1\AppData\Local\Temp\ccxApcqi.s:10035  .debug_macro:0000000000000000 .Ldebug_macro48
C:\Users\CYMR90~1\AppData\Local\Temp\ccxApcqi.s:10607  .debug_macro:0000000000000000 .Ldebug_macro49
C:\Users\CYMR90~1\AppData\Local\Temp\ccxApcqi.s:10894  .debug_macro:0000000000000000 .Ldebug_macro50
C:\Users\CYMR90~1\AppData\Local\Temp\ccxApcqi.s:10923  .debug_macro:0000000000000000 .Ldebug_macro51
C:\Users\CYMR90~1\AppData\Local\Temp\ccxApcqi.s:11000  .debug_macro:0000000000000000 .Ldebug_macro52
C:\Users\CYMR90~1\AppData\Local\Temp\ccxApcqi.s:11533  .debug_macro:0000000000000000 .Ldebug_macro53
C:\Users\CYMR90~1\AppData\Local\Temp\ccxApcqi.s:11556  .debug_macro:0000000000000000 .Ldebug_macro54
C:\Users\CYMR90~1\AppData\Local\Temp\ccxApcqi.s:11822  .debug_macro:0000000000000000 .Ldebug_macro55
C:\Users\CYMR90~1\AppData\Local\Temp\ccxApcqi.s:12301  .debug_macro:0000000000000000 .Ldebug_macro56
C:\Users\CYMR90~1\AppData\Local\Temp\ccxApcqi.s:12630  .debug_macro:0000000000000000 .Ldebug_macro57
C:\Users\CYMR90~1\AppData\Local\Temp\ccxApcqi.s:12719  .debug_macro:0000000000000000 .Ldebug_macro58
C:\Users\CYMR90~1\AppData\Local\Temp\ccxApcqi.s:13534  .debug_macro:0000000000000000 .Ldebug_macro59
C:\Users\CYMR90~1\AppData\Local\Temp\ccxApcqi.s:14037  .debug_macro:0000000000000000 .Ldebug_macro60
C:\Users\CYMR90~1\AppData\Local\Temp\ccxApcqi.s:14183  .debug_macro:0000000000000000 .Ldebug_macro61
C:\Users\CYMR90~1\AppData\Local\Temp\ccxApcqi.s:14713  .debug_macro:0000000000000000 .Ldebug_macro62
C:\Users\CYMR90~1\AppData\Local\Temp\ccxApcqi.s:15135  .debug_macro:0000000000000000 .Ldebug_macro63
C:\Users\CYMR90~1\AppData\Local\Temp\ccxApcqi.s:17909  .debug_macro:0000000000000000 .Ldebug_macro64
C:\Users\CYMR90~1\AppData\Local\Temp\ccxApcqi.s:18985  .debug_macro:0000000000000000 .Ldebug_macro65
C:\Users\CYMR90~1\AppData\Local\Temp\ccxApcqi.s:19254  .debug_macro:0000000000000000 .Ldebug_macro66
C:\Users\CYMR90~1\AppData\Local\Temp\ccxApcqi.s:19526  .debug_macro:0000000000000000 .Ldebug_macro67
C:\Users\CYMR90~1\AppData\Local\Temp\ccxApcqi.s:20554  .debug_macro:0000000000000000 .Ldebug_macro68
C:\Users\CYMR90~1\AppData\Local\Temp\ccxApcqi.s:20598  .debug_macro:0000000000000000 .Ldebug_macro69
C:\Users\CYMR90~1\AppData\Local\Temp\ccxApcqi.s:21224  .debug_macro:0000000000000000 .Ldebug_macro70
C:\Users\CYMR90~1\AppData\Local\Temp\ccxApcqi.s:21283  .debug_macro:0000000000000000 .Ldebug_macro71
C:\Users\CYMR90~1\AppData\Local\Temp\ccxApcqi.s:22387  .debug_str:00000000000038b5 .LASF5556
C:\Users\CYMR90~1\AppData\Local\Temp\ccxApcqi.s:22829  .debug_str:000000000000556a .LASF0
C:\Users\CYMR90~1\AppData\Local\Temp\ccxApcqi.s:27162  .debug_str:0000000000016e8a .LASF1
C:\Users\CYMR90~1\AppData\Local\Temp\ccxApcqi.s:25439  .debug_str:000000000000fe58 .LASF2
C:\Users\CYMR90~1\AppData\Local\Temp\ccxApcqi.s:25497  .debug_str:00000000000101d8 .LASF3
C:\Users\CYMR90~1\AppData\Local\Temp\ccxApcqi.s:26781  .debug_str:00000000000153d8 .LASF4
C:\Users\CYMR90~1\AppData\Local\Temp\ccxApcqi.s:32284  .debug_str:000000000002b3f4 .LASF5
C:\Users\CYMR90~1\AppData\Local\Temp\ccxApcqi.s:23061  .debug_str:00000000000063be .LASF6
C:\Users\CYMR90~1\AppData\Local\Temp\ccxApcqi.s:31606  .debug_str:00000000000289fa .LASF7
C:\Users\CYMR90~1\AppData\Local\Temp\ccxApcqi.s:30568  .debug_str:0000000000024495 .LASF8
C:\Users\CYMR90~1\AppData\Local\Temp\ccxApcqi.s:28498  .debug_str:000000000001c3fb .LASF9
C:\Users\CYMR90~1\AppData\Local\Temp\ccxApcqi.s:27852  .debug_str:0000000000019a7f .LASF10
C:\Users\CYMR90~1\AppData\Local\Temp\ccxApcqi.s:27708  .debug_str:00000000000190ed .LASF11
C:\Users\CYMR90~1\AppData\Local\Temp\ccxApcqi.s:32124  .debug_str:000000000002a9cd .LASF12
C:\Users\CYMR90~1\AppData\Local\Temp\ccxApcqi.s:27720  .debug_str:00000000000191a1 .LASF13
C:\Users\CYMR90~1\AppData\Local\Temp\ccxApcqi.s:24051  .debug_str:000000000000a430 .LASF14
C:\Users\CYMR90~1\AppData\Local\Temp\ccxApcqi.s:29072  .debug_str:000000000001e940 .LASF15
C:\Users\CYMR90~1\AppData\Local\Temp\ccxApcqi.s:29822  .debug_str:00000000000216a4 .LASF16
C:\Users\CYMR90~1\AppData\Local\Temp\ccxApcqi.s:24099  .debug_str:000000000000a71d .LASF17
C:\Users\CYMR90~1\AppData\Local\Temp\ccxApcqi.s:30848  .debug_str:000000000002588a .LASF18
C:\Users\CYMR90~1\AppData\Local\Temp\ccxApcqi.s:25047  .debug_str:000000000000e5ca .LASF19
C:\Users\CYMR90~1\AppData\Local\Temp\ccxApcqi.s:22151  .debug_str:000000000000298b .LASF20
C:\Users\CYMR90~1\AppData\Local\Temp\ccxApcqi.s:27520  .debug_str:00000000000183fc .LASF21
C:\Users\CYMR90~1\AppData\Local\Temp\ccxApcqi.s:27518  .debug_str:00000000000183e2 .LASF22
C:\Users\CYMR90~1\AppData\Local\Temp\ccxApcqi.s:30126  .debug_str:000000000002292b .LASF23
C:\Users\CYMR90~1\AppData\Local\Temp\ccxApcqi.s:28450  .debug_str:000000000001c163 .LASF24
C:\Users\CYMR90~1\AppData\Local\Temp\ccxApcqi.s:22375  .debug_str:0000000000003813 .LASF25
C:\Users\CYMR90~1\AppData\Local\Temp\ccxApcqi.s:26905  .debug_str:0000000000015ba3 .LASF26
C:\Users\CYMR90~1\AppData\Local\Temp\ccxApcqi.s:30130  .debug_str:0000000000022957 .LASF27
C:\Users\CYMR90~1\AppData\Local\Temp\ccxApcqi.s:29830  .debug_str:0000000000021701 .LASF28
C:\Users\CYMR90~1\AppData\Local\Temp\ccxApcqi.s:22781  .debug_str:0000000000005298 .LASF29
C:\Users\CYMR90~1\AppData\Local\Temp\ccxApcqi.s:28854  .debug_str:000000000001dbc6 .LASF30
C:\Users\CYMR90~1\AppData\Local\Temp\ccxApcqi.s:21763  .debug_str:00000000000011ed .LASF31
C:\Users\CYMR90~1\AppData\Local\Temp\ccxApcqi.s:29310  .debug_str:000000000001f710 .LASF32
C:\Users\CYMR90~1\AppData\Local\Temp\ccxApcqi.s:23939  .debug_str:0000000000009ce3 .LASF33
C:\Users\CYMR90~1\AppData\Local\Temp\ccxApcqi.s:23791  .debug_str:0000000000009352 .LASF34
C:\Users\CYMR90~1\AppData\Local\Temp\ccxApcqi.s:25081  .debug_str:000000000000e7d4 .LASF35
C:\Users\CYMR90~1\AppData\Local\Temp\ccxApcqi.s:27966  .debug_str:000000000001a100 .LASF36
C:\Users\CYMR90~1\AppData\Local\Temp\ccxApcqi.s:23299  .debug_str:000000000000731d .LASF37
C:\Users\CYMR90~1\AppData\Local\Temp\ccxApcqi.s:25437  .debug_str:000000000000fe35 .LASF38
C:\Users\CYMR90~1\AppData\Local\Temp\ccxApcqi.s:22341  .debug_str:000000000000358c .LASF39
C:\Users\CYMR90~1\AppData\Local\Temp\ccxApcqi.s:22143  .debug_str:00000000000028f9 .LASF40
C:\Users\CYMR90~1\AppData\Local\Temp\ccxApcqi.s:25601  .debug_str:00000000000107fb .LASF41
C:\Users\CYMR90~1\AppData\Local\Temp\ccxApcqi.s:26025  .debug_str:000000000001245f .LASF42
C:\Users\CYMR90~1\AppData\Local\Temp\ccxApcqi.s:26287  .debug_str:00000000000135fc .LASF43
C:\Users\CYMR90~1\AppData\Local\Temp\ccxApcqi.s:27956  .debug_str:000000000001a06e .LASF44
C:\Users\CYMR90~1\AppData\Local\Temp\ccxApcqi.s:25885  .debug_str:0000000000011b25 .LASF45
C:\Users\CYMR90~1\AppData\Local\Temp\ccxApcqi.s:22607  .debug_str:0000000000004773 .LASF46
C:\Users\CYMR90~1\AppData\Local\Temp\ccxApcqi.s:28860  .debug_str:000000000001dc2b .LASF47
C:\Users\CYMR90~1\AppData\Local\Temp\ccxApcqi.s:30570  .debug_str:00000000000244aa .LASF48
C:\Users\CYMR90~1\AppData\Local\Temp\ccxApcqi.s:24825  .debug_str:000000000000d7ce .LASF49
C:\Users\CYMR90~1\AppData\Local\Temp\ccxApcqi.s:21979  .debug_str:0000000000001f38 .LASF50
C:\Users\CYMR90~1\AppData\Local\Temp\ccxApcqi.s:21491  .debug_str:000000000000012a .LASF51
C:\Users\CYMR90~1\AppData\Local\Temp\ccxApcqi.s:31894  .debug_str:0000000000029c24 .LASF52
C:\Users\CYMR90~1\AppData\Local\Temp\ccxApcqi.s:30200  .debug_str:0000000000022d56 .LASF53
C:\Users\CYMR90~1\AppData\Local\Temp\ccxApcqi.s:26365  .debug_str:0000000000013a7e .LASF54
C:\Users\CYMR90~1\AppData\Local\Temp\ccxApcqi.s:25401  .debug_str:000000000000fbab .LASF55
C:\Users\CYMR90~1\AppData\Local\Temp\ccxApcqi.s:23383  .debug_str:0000000000007871 .LASF56
C:\Users\CYMR90~1\AppData\Local\Temp\ccxApcqi.s:26759  .debug_str:00000000000152ad .LASF57
C:\Users\CYMR90~1\AppData\Local\Temp\ccxApcqi.s:21715  .debug_str:0000000000000f36 .LASF58
C:\Users\CYMR90~1\AppData\Local\Temp\ccxApcqi.s:30852  .debug_str:00000000000258ca .LASF59
C:\Users\CYMR90~1\AppData\Local\Temp\ccxApcqi.s:26295  .debug_str:0000000000013657 .LASF60
C:\Users\CYMR90~1\AppData\Local\Temp\ccxApcqi.s:28230  .debug_str:000000000001b3e7 .LASF61
C:\Users\CYMR90~1\AppData\Local\Temp\ccxApcqi.s:22209  .debug_str:0000000000002d10 .LASF62
C:\Users\CYMR90~1\AppData\Local\Temp\ccxApcqi.s:24819  .debug_str:000000000000d78a .LASF63
C:\Users\CYMR90~1\AppData\Local\Temp\ccxApcqi.s:24553  .debug_str:000000000000c539 .LASF64
C:\Users\CYMR90~1\AppData\Local\Temp\ccxApcqi.s:27942  .debug_str:0000000000019fa5 .LASF65
C:\Users\CYMR90~1\AppData\Local\Temp\ccxApcqi.s:26599  .debug_str:0000000000014883 .LASF66
C:\Users\CYMR90~1\AppData\Local\Temp\ccxApcqi.s:31678  .debug_str:0000000000028e70 .LASF67
C:\Users\CYMR90~1\AppData\Local\Temp\ccxApcqi.s:32126  .debug_str:000000000002a9e0 .LASF68
C:\Users\CYMR90~1\AppData\Local\Temp\ccxApcqi.s:25839  .debug_str:00000000000117f1 .LASF69
C:\Users\CYMR90~1\AppData\Local\Temp\ccxApcqi.s:24975  .debug_str:000000000000e12b .LASF70
C:\Users\CYMR90~1\AppData\Local\Temp\ccxApcqi.s:22619  .debug_str:00000000000048c6 .LASF71
C:\Users\CYMR90~1\AppData\Local\Temp\ccxApcqi.s:25873  .debug_str:0000000000011a62 .LASF72
C:\Users\CYMR90~1\AppData\Local\Temp\ccxApcqi.s:25505  .debug_str:0000000000010249 .LASF73
C:\Users\CYMR90~1\AppData\Local\Temp\ccxApcqi.s:26103  .debug_str:00000000000129a6 .LASF74
C:\Users\CYMR90~1\AppData\Local\Temp\ccxApcqi.s:25945  .debug_str:0000000000011ef6 .LASF75
C:\Users\CYMR90~1\AppData\Local\Temp\ccxApcqi.s:26045  .debug_str:00000000000125bd .LASF76
C:\Users\CYMR90~1\AppData\Local\Temp\ccxApcqi.s:30488  .debug_str:0000000000023f46 .LASF77
C:\Users\CYMR90~1\AppData\Local\Temp\ccxApcqi.s:28424  .debug_str:000000000001bfd3 .LASF78
C:\Users\CYMR90~1\AppData\Local\Temp\ccxApcqi.s:28824  .debug_str:000000000001da06 .LASF79
C:\Users\CYMR90~1\AppData\Local\Temp\ccxApcqi.s:31658  .debug_str:0000000000028d21 .LASF80
C:\Users\CYMR90~1\AppData\Local\Temp\ccxApcqi.s:23891  .debug_str:0000000000009a04 .LASF81
C:\Users\CYMR90~1\AppData\Local\Temp\ccxApcqi.s:24085  .debug_str:000000000000a5e9 .LASF82
C:\Users\CYMR90~1\AppData\Local\Temp\ccxApcqi.s:31788  .debug_str:000000000002961a .LASF83
C:\Users\CYMR90~1\AppData\Local\Temp\ccxApcqi.s:23831  .debug_str:00000000000095f4 .LASF84
C:\Users\CYMR90~1\AppData\Local\Temp\ccxApcqi.s:23121  .debug_str:0000000000006757 .LASF85
C:\Users\CYMR90~1\AppData\Local\Temp\ccxApcqi.s:28136  .debug_str:000000000001adaf .LASF86
C:\Users\CYMR90~1\AppData\Local\Temp\ccxApcqi.s:31818  .debug_str:0000000000029799 .LASF87
C:\Users\CYMR90~1\AppData\Local\Temp\ccxApcqi.s:29250  .debug_str:000000000001f38d .LASF88
C:\Users\CYMR90~1\AppData\Local\Temp\ccxApcqi.s:28056  .debug_str:000000000001a86a .LASF89
C:\Users\CYMR90~1\AppData\Local\Temp\ccxApcqi.s:29278  .debug_str:000000000001f535 .LASF90
C:\Users\CYMR90~1\AppData\Local\Temp\ccxApcqi.s:32030  .debug_str:000000000002a43f .LASF91
C:\Users\CYMR90~1\AppData\Local\Temp\ccxApcqi.s:30860  .debug_str:0000000000025942 .LASF92
C:\Users\CYMR90~1\AppData\Local\Temp\ccxApcqi.s:23967  .debug_str:0000000000009eb6 .LASF93
C:\Users\CYMR90~1\AppData\Local\Temp\ccxApcqi.s:28704  .debug_str:000000000001d28e .LASF94
C:\Users\CYMR90~1\AppData\Local\Temp\ccxApcqi.s:26323  .debug_str:0000000000013810 .LASF95
C:\Users\CYMR90~1\AppData\Local\Temp\ccxApcqi.s:26307  .debug_str:0000000000013720 .LASF96
C:\Users\CYMR90~1\AppData\Local\Temp\ccxApcqi.s:32332  .debug_str:000000000002b712 .LASF97
C:\Users\CYMR90~1\AppData\Local\Temp\ccxApcqi.s:25959  .debug_str:0000000000012063 .LASF98
C:\Users\CYMR90~1\AppData\Local\Temp\ccxApcqi.s:29848  .debug_str:0000000000021828 .LASF99
C:\Users\CYMR90~1\AppData\Local\Temp\ccxApcqi.s:23331  .debug_str:000000000000750f .LASF100
C:\Users\CYMR90~1\AppData\Local\Temp\ccxApcqi.s:25451  .debug_str:000000000000fee3 .LASF101
C:\Users\CYMR90~1\AppData\Local\Temp\ccxApcqi.s:26823  .debug_str:000000000001562f .LASF102
C:\Users\CYMR90~1\AppData\Local\Temp\ccxApcqi.s:25725  .debug_str:0000000000010fd9 .LASF103
C:\Users\CYMR90~1\AppData\Local\Temp\ccxApcqi.s:24737  .debug_str:000000000000d1f3 .LASF104
C:\Users\CYMR90~1\AppData\Local\Temp\ccxApcqi.s:25895  .debug_str:0000000000011bbc .LASF105
C:\Users\CYMR90~1\AppData\Local\Temp\ccxApcqi.s:28522  .debug_str:000000000001c59d .LASF106
C:\Users\CYMR90~1\AppData\Local\Temp\ccxApcqi.s:25719  .debug_str:0000000000010f74 .LASF107
C:\Users\CYMR90~1\AppData\Local\Temp\ccxApcqi.s:24733  .debug_str:000000000000d1cf .LASF108
C:\Users\CYMR90~1\AppData\Local\Temp\ccxApcqi.s:26157  .debug_str:0000000000012d0d .LASF109
C:\Users\CYMR90~1\AppData\Local\Temp\ccxApcqi.s:25105  .debug_str:000000000000e96e .LASF110
C:\Users\CYMR90~1\AppData\Local\Temp\ccxApcqi.s:27572  .debug_str:0000000000018703 .LASF111
C:\Users\CYMR90~1\AppData\Local\Temp\ccxApcqi.s:24221  .debug_str:000000000000af77 .LASF112
C:\Users\CYMR90~1\AppData\Local\Temp\ccxApcqi.s:23965  .debug_str:0000000000009e8d .LASF113
C:\Users\CYMR90~1\AppData\Local\Temp\ccxApcqi.s:26855  .debug_str:000000000001582f .LASF114
C:\Users\CYMR90~1\AppData\Local\Temp\ccxApcqi.s:31718  .debug_str:000000000002916b .LASF115
C:\Users\CYMR90~1\AppData\Local\Temp\ccxApcqi.s:30372  .debug_str:00000000000237bc .LASF116
C:\Users\CYMR90~1\AppData\Local\Temp\ccxApcqi.s:23725  .debug_str:0000000000008f7f .LASF117
C:\Users\CYMR90~1\AppData\Local\Temp\ccxApcqi.s:28286  .debug_str:000000000001b762 .LASF118
C:\Users\CYMR90~1\AppData\Local\Temp\ccxApcqi.s:32438  .debug_str:000000000002be43 .LASF119
C:\Users\CYMR90~1\AppData\Local\Temp\ccxApcqi.s:25021  .debug_str:000000000000e3df .LASF120
C:\Users\CYMR90~1\AppData\Local\Temp\ccxApcqi.s:30470  .debug_str:0000000000023d62 .LASF121
C:\Users\CYMR90~1\AppData\Local\Temp\ccxApcqi.s:24515  .debug_str:000000000000c2ea .LASF122
C:\Users\CYMR90~1\AppData\Local\Temp\ccxApcqi.s:24627  .debug_str:000000000000cb10 .LASF123
C:\Users\CYMR90~1\AppData\Local\Temp\ccxApcqi.s:22311  .debug_str:00000000000033c3 .LASF124
C:\Users\CYMR90~1\AppData\Local\Temp\ccxApcqi.s:22581  .debug_str:00000000000045b1 .LASF125
C:\Users\CYMR90~1\AppData\Local\Temp\ccxApcqi.s:31398  .debug_str:0000000000027b97 .LASF126
C:\Users\CYMR90~1\AppData\Local\Temp\ccxApcqi.s:25901  .debug_str:0000000000011bfa .LASF127
C:\Users\CYMR90~1\AppData\Local\Temp\ccxApcqi.s:28680  .debug_str:000000000001d130 .LASF128
C:\Users\CYMR90~1\AppData\Local\Temp\ccxApcqi.s:23799  .debug_str:00000000000093ca .LASF129
C:\Users\CYMR90~1\AppData\Local\Temp\ccxApcqi.s:30976  .debug_str:000000000002606e .LASF130
C:\Users\CYMR90~1\AppData\Local\Temp\ccxApcqi.s:31276  .debug_str:0000000000027381 .LASF131
C:\Users\CYMR90~1\AppData\Local\Temp\ccxApcqi.s:31090  .debug_str:0000000000026778 .LASF132
C:\Users\CYMR90~1\AppData\Local\Temp\ccxApcqi.s:24997  .debug_str:000000000000e26e .LASF133
C:\Users\CYMR90~1\AppData\Local\Temp\ccxApcqi.s:30388  .debug_str:00000000000238a0 .LASF134
C:\Users\CYMR90~1\AppData\Local\Temp\ccxApcqi.s:22575  .debug_str:000000000000454a .LASF135
C:\Users\CYMR90~1\AppData\Local\Temp\ccxApcqi.s:23429  .debug_str:0000000000007b70 .LASF136
C:\Users\CYMR90~1\AppData\Local\Temp\ccxApcqi.s:28436  .debug_str:000000000001c0ad .LASF137
C:\Users\CYMR90~1\AppData\Local\Temp\ccxApcqi.s:26153  .debug_str:0000000000012cdd .LASF138
C:\Users\CYMR90~1\AppData\Local\Temp\ccxApcqi.s:31604  .debug_str:00000000000289ea .LASF139
C:\Users\CYMR90~1\AppData\Local\Temp\ccxApcqi.s:30744  .debug_str:0000000000025140 .LASF140
C:\Users\CYMR90~1\AppData\Local\Temp\ccxApcqi.s:28380  .debug_str:000000000001bd03 .LASF141
C:\Users\CYMR90~1\AppData\Local\Temp\ccxApcqi.s:23927  .debug_str:0000000000009c24 .LASF142
C:\Users\CYMR90~1\AppData\Local\Temp\ccxApcqi.s:32192  .debug_str:000000000002adbb .LASF143
C:\Users\CYMR90~1\AppData\Local\Temp\ccxApcqi.s:27542  .debug_str:0000000000018510 .LASF144
C:\Users\CYMR90~1\AppData\Local\Temp\ccxApcqi.s:26611  .debug_str:0000000000014968 .LASF145
C:\Users\CYMR90~1\AppData\Local\Temp\ccxApcqi.s:24587  .debug_str:000000000000c815 .LASF146
C:\Users\CYMR90~1\AppData\Local\Temp\ccxApcqi.s:22617  .debug_str:00000000000048af .LASF147
C:\Users\CYMR90~1\AppData\Local\Temp\ccxApcqi.s:25147  .debug_str:000000000000ebf0 .LASF148
C:\Users\CYMR90~1\AppData\Local\Temp\ccxApcqi.s:27522  .debug_str:0000000000018410 .LASF149
C:\Users\CYMR90~1\AppData\Local\Temp\ccxApcqi.s:21563  .debug_str:000000000000056c .LASF150
C:\Users\CYMR90~1\AppData\Local\Temp\ccxApcqi.s:29832  .debug_str:000000000002171b .LASF151
C:\Users\CYMR90~1\AppData\Local\Temp\ccxApcqi.s:26147  .debug_str:0000000000012c5b .LASF152
C:\Users\CYMR90~1\AppData\Local\Temp\ccxApcqi.s:30750  .debug_str:0000000000025193 .LASF153
C:\Users\CYMR90~1\AppData\Local\Temp\ccxApcqi.s:28582  .debug_str:000000000001c9ef .LASF154
C:\Users\CYMR90~1\AppData\Local\Temp\ccxApcqi.s:25563  .debug_str:00000000000105b9 .LASF155
C:\Users\CYMR90~1\AppData\Local\Temp\ccxApcqi.s:28596  .debug_str:000000000001cadc .LASF156
C:\Users\CYMR90~1\AppData\Local\Temp\ccxApcqi.s:28710  .debug_str:000000000001d2f6 .LASF157
C:\Users\CYMR90~1\AppData\Local\Temp\ccxApcqi.s:24447  .debug_str:000000000000bec7 .LASF158
C:\Users\CYMR90~1\AppData\Local\Temp\ccxApcqi.s:23527  .debug_str:0000000000008311 .LASF159
C:\Users\CYMR90~1\AppData\Local\Temp\ccxApcqi.s:28236  .debug_str:000000000001b43b .LASF160
C:\Users\CYMR90~1\AppData\Local\Temp\ccxApcqi.s:29652  .debug_str:0000000000020c31 .LASF161
C:\Users\CYMR90~1\AppData\Local\Temp\ccxApcqi.s:27844  .debug_str:00000000000199ed .LASF162
C:\Users\CYMR90~1\AppData\Local\Temp\ccxApcqi.s:30380  .debug_str:000000000002382e .LASF163
C:\Users\CYMR90~1\AppData\Local\Temp\ccxApcqi.s:32014  .debug_str:000000000002a355 .LASF164
C:\Users\CYMR90~1\AppData\Local\Temp\ccxApcqi.s:23289  .debug_str:0000000000007299 .LASF165
C:\Users\CYMR90~1\AppData\Local\Temp\ccxApcqi.s:31706  .debug_str:000000000002903c .LASF166
C:\Users\CYMR90~1\AppData\Local\Temp\ccxApcqi.s:31528  .debug_str:0000000000028524 .LASF167
C:\Users\CYMR90~1\AppData\Local\Temp\ccxApcqi.s:30302  .debug_str:0000000000023340 .LASF168
C:\Users\CYMR90~1\AppData\Local\Temp\ccxApcqi.s:27306  .debug_str:0000000000017716 .LASF169
C:\Users\CYMR90~1\AppData\Local\Temp\ccxApcqi.s:31152  .debug_str:0000000000026b48 .LASF170
C:\Users\CYMR90~1\AppData\Local\Temp\ccxApcqi.s:26931  .debug_str:0000000000015d4f .LASF171
C:\Users\CYMR90~1\AppData\Local\Temp\ccxApcqi.s:28504  .debug_str:000000000001c45a .LASF172
C:\Users\CYMR90~1\AppData\Local\Temp\ccxApcqi.s:23919  .debug_str:0000000000009bb0 .LASF173
C:\Users\CYMR90~1\AppData\Local\Temp\ccxApcqi.s:30192  .debug_str:0000000000022ce9 .LASF174
C:\Users\CYMR90~1\AppData\Local\Temp\ccxApcqi.s:22957  .debug_str:0000000000005d52 .LASF175
C:\Users\CYMR90~1\AppData\Local\Temp\ccxApcqi.s:23767  .debug_str:00000000000091fe .LASF176
C:\Users\CYMR90~1\AppData\Local\Temp\ccxApcqi.s:22453  .debug_str:0000000000003d0d .LASF177
C:\Users\CYMR90~1\AppData\Local\Temp\ccxApcqi.s:27716  .debug_str:000000000001915f .LASF178
C:\Users\CYMR90~1\AppData\Local\Temp\ccxApcqi.s:24679  .debug_str:000000000000ce51 .LASF179
C:\Users\CYMR90~1\AppData\Local\Temp\ccxApcqi.s:21973  .debug_str:0000000000001ecc .LASF180
C:\Users\CYMR90~1\AppData\Local\Temp\ccxApcqi.s:32328  .debug_str:000000000002b6e7 .LASF181
C:\Users\CYMR90~1\AppData\Local\Temp\ccxApcqi.s:21749  .debug_str:0000000000001142 .LASF182
C:\Users\CYMR90~1\AppData\Local\Temp\ccxApcqi.s:26265  .debug_str:0000000000013477 .LASF183
C:\Users\CYMR90~1\AppData\Local\Temp\ccxApcqi.s:26673  .debug_str:0000000000014d81 .LASF184
C:\Users\CYMR90~1\AppData\Local\Temp\ccxApcqi.s:31538  .debug_str:00000000000285d3 .LASF185
C:\Users\CYMR90~1\AppData\Local\Temp\ccxApcqi.s:24775  .debug_str:000000000000d507 .LASF186
C:\Users\CYMR90~1\AppData\Local\Temp\ccxApcqi.s:23273  .debug_str:0000000000007138 .LASF187
C:\Users\CYMR90~1\AppData\Local\Temp\ccxApcqi.s:29226  .debug_str:000000000001f251 .LASF188
C:\Users\CYMR90~1\AppData\Local\Temp\ccxApcqi.s:25041  .debug_str:000000000000e570 .LASF189
C:\Users\CYMR90~1\AppData\Local\Temp\ccxApcqi.s:26373  .debug_str:0000000000013b03 .LASF190
C:\Users\CYMR90~1\AppData\Local\Temp\ccxApcqi.s:29712  .debug_str:0000000000020f77 .LASF191
C:\Users\CYMR90~1\AppData\Local\Temp\ccxApcqi.s:27087  .debug_str:00000000000167d5 .LASF192
C:\Users\CYMR90~1\AppData\Local\Temp\ccxApcqi.s:29946  .debug_str:0000000000021e3d .LASF193
C:\Users\CYMR90~1\AppData\Local\Temp\ccxApcqi.s:22911  .debug_str:0000000000005a82 .LASF194
C:\Users\CYMR90~1\AppData\Local\Temp\ccxApcqi.s:22281  .debug_str:00000000000031ce .LASF195
C:\Users\CYMR90~1\AppData\Local\Temp\ccxApcqi.s:24869  .debug_str:000000000000da34 .LASF196
C:\Users\CYMR90~1\AppData\Local\Temp\ccxApcqi.s:25787  .debug_str:00000000000113f6 .LASF197
C:\Users\CYMR90~1\AppData\Local\Temp\ccxApcqi.s:22767  .debug_str:00000000000051b8 .LASF198
C:\Users\CYMR90~1\AppData\Local\Temp\ccxApcqi.s:31430  .debug_str:0000000000027dde .LASF199
C:\Users\CYMR90~1\AppData\Local\Temp\ccxApcqi.s:29594  .debug_str:00000000000208ba .LASF200
C:\Users\CYMR90~1\AppData\Local\Temp\ccxApcqi.s:28718  .debug_str:000000000001d354 .LASF201
C:\Users\CYMR90~1\AppData\Local\Temp\ccxApcqi.s:23895  .debug_str:0000000000009a37 .LASF202
C:\Users\CYMR90~1\AppData\Local\Temp\ccxApcqi.s:31874  .debug_str:0000000000029aff .LASF203
C:\Users\CYMR90~1\AppData\Local\Temp\ccxApcqi.s:22293  .debug_str:000000000000329f .LASF204
C:\Users\CYMR90~1\AppData\Local\Temp\ccxApcqi.s:25277  .debug_str:000000000000f3b0 .LASF205
C:\Users\CYMR90~1\AppData\Local\Temp\ccxApcqi.s:31614  .debug_str:0000000000028a5b .LASF206
C:\Users\CYMR90~1\AppData\Local\Temp\ccxApcqi.s:26495  .debug_str:0000000000014270 .LASF207
C:\Users\CYMR90~1\AppData\Local\Temp\ccxApcqi.s:29266  .debug_str:000000000001f493 .LASF208
C:\Users\CYMR90~1\AppData\Local\Temp\ccxApcqi.s:24509  .debug_str:000000000000c299 .LASF209
C:\Users\CYMR90~1\AppData\Local\Temp\ccxApcqi.s:32532  .debug_str:000000000002c462 .LASF210
C:\Users\CYMR90~1\AppData\Local\Temp\ccxApcqi.s:26465  .debug_str:00000000000140a5 .LASF211
C:\Users\CYMR90~1\AppData\Local\Temp\ccxApcqi.s:29110  .debug_str:000000000001eb3c .LASF212
C:\Users\CYMR90~1\AppData\Local\Temp\ccxApcqi.s:27736  .debug_str:000000000001928d .LASF213
C:\Users\CYMR90~1\AppData\Local\Temp\ccxApcqi.s:22997  .debug_str:0000000000005f9b .LASF214
C:\Users\CYMR90~1\AppData\Local\Temp\ccxApcqi.s:26473  .debug_str:0000000000014115 .LASF215
C:\Users\CYMR90~1\AppData\Local\Temp\ccxApcqi.s:28420  .debug_str:000000000001bf83 .LASF216
C:\Users\CYMR90~1\AppData\Local\Temp\ccxApcqi.s:29376  .debug_str:000000000001fb22 .LASF217
C:\Users\CYMR90~1\AppData\Local\Temp\ccxApcqi.s:25357  .debug_str:000000000000f8df .LASF218
C:\Users\CYMR90~1\AppData\Local\Temp\ccxApcqi.s:30752  .debug_str:00000000000251cf .LASF219
C:\Users\CYMR90~1\AppData\Local\Temp\ccxApcqi.s:30562  .debug_str:0000000000024431 .LASF220
C:\Users\CYMR90~1\AppData\Local\Temp\ccxApcqi.s:30090  .debug_str:000000000002269f .LASF221
C:\Users\CYMR90~1\AppData\Local\Temp\ccxApcqi.s:26743  .debug_str:00000000000151dd .LASF222
C:\Users\CYMR90~1\AppData\Local\Temp\ccxApcqi.s:22967  .debug_str:0000000000005dd2 .LASF223
C:\Users\CYMR90~1\AppData\Local\Temp\ccxApcqi.s:23629  .debug_str:000000000000899a .LASF224
C:\Users\CYMR90~1\AppData\Local\Temp\ccxApcqi.s:32202  .debug_str:000000000002ae3f .LASF225
C:\Users\CYMR90~1\AppData\Local\Temp\ccxApcqi.s:24939  .debug_str:000000000000defd .LASF226
C:\Users\CYMR90~1\AppData\Local\Temp\ccxApcqi.s:28578  .debug_str:000000000001c9c1 .LASF227
C:\Users\CYMR90~1\AppData\Local\Temp\ccxApcqi.s:28430  .debug_str:000000000001c029 .LASF228
C:\Users\CYMR90~1\AppData\Local\Temp\ccxApcqi.s:24883  .debug_str:000000000000db11 .LASF229
C:\Users\CYMR90~1\AppData\Local\Temp\ccxApcqi.s:29150  .debug_str:000000000001ed70 .LASF230
C:\Users\CYMR90~1\AppData\Local\Temp\ccxApcqi.s:28908  .debug_str:000000000001df29 .LASF231
C:\Users\CYMR90~1\AppData\Local\Temp\ccxApcqi.s:23009  .debug_str:000000000000607f .LASF232
C:\Users\CYMR90~1\AppData\Local\Temp\ccxApcqi.s:23579  .debug_str:0000000000008640 .LASF233
C:\Users\CYMR90~1\AppData\Local\Temp\ccxApcqi.s:25555  .debug_str:0000000000010536 .LASF234
C:\Users\CYMR90~1\AppData\Local\Temp\ccxApcqi.s:25273  .debug_str:000000000000f368 .LASF235
C:\Users\CYMR90~1\AppData\Local\Temp\ccxApcqi.s:30310  .debug_str:00000000000233ec .LASF236
C:\Users\CYMR90~1\AppData\Local\Temp\ccxApcqi.s:25295  .debug_str:000000000000f4b9 .LASF237
C:\Users\CYMR90~1\AppData\Local\Temp\ccxApcqi.s:30972  .debug_str:0000000000026032 .LASF238
C:\Users\CYMR90~1\AppData\Local\Temp\ccxApcqi.s:30294  .debug_str:00000000000232c1 .LASF239
C:\Users\CYMR90~1\AppData\Local\Temp\ccxApcqi.s:30528  .debug_str:0000000000024221 .LASF240
C:\Users\CYMR90~1\AppData\Local\Temp\ccxApcqi.s:23397  .debug_str:000000000000799f .LASF241
C:\Users\CYMR90~1\AppData\Local\Temp\ccxApcqi.s:24961  .debug_str:000000000000e04a .LASF242
C:\Users\CYMR90~1\AppData\Local\Temp\ccxApcqi.s:25941  .debug_str:0000000000011e8e .LASF243
C:\Users\CYMR90~1\AppData\Local\Temp\ccxApcqi.s:30320  .debug_str:0000000000023464 .LASF244
C:\Users\CYMR90~1\AppData\Local\Temp\ccxApcqi.s:26131  .debug_str:0000000000012b3b .LASF245
C:\Users\CYMR90~1\AppData\Local\Temp\ccxApcqi.s:29162  .debug_str:000000000001ee55 .LASF246
C:\Users\CYMR90~1\AppData\Local\Temp\ccxApcqi.s:27506  .debug_str:00000000000182fc .LASF247
C:\Users\CYMR90~1\AppData\Local\Temp\ccxApcqi.s:27019  .debug_str:00000000000162e6 .LASF248
C:\Users\CYMR90~1\AppData\Local\Temp\ccxApcqi.s:28518  .debug_str:000000000001c56d .LASF249
C:\Users\CYMR90~1\AppData\Local\Temp\ccxApcqi.s:27904  .debug_str:0000000000019d60 .LASF250
C:\Users\CYMR90~1\AppData\Local\Temp\ccxApcqi.s:28452  .debug_str:000000000001c172 .LASF251
C:\Users\CYMR90~1\AppData\Local\Temp\ccxApcqi.s:30138  .debug_str:00000000000229dc .LASF252
C:\Users\CYMR90~1\AppData\Local\Temp\ccxApcqi.s:24853  .debug_str:000000000000d970 .LASF253
C:\Users\CYMR90~1\AppData\Local\Temp\ccxApcqi.s:30824  .debug_str:000000000002571a .LASF254
C:\Users\CYMR90~1\AppData\Local\Temp\ccxApcqi.s:24719  .debug_str:000000000000d0c5 .LASF255
C:\Users\CYMR90~1\AppData\Local\Temp\ccxApcqi.s:27808  .debug_str:000000000001979c .LASF256
C:\Users\CYMR90~1\AppData\Local\Temp\ccxApcqi.s:24957  .debug_str:000000000000e003 .LASF257
C:\Users\CYMR90~1\AppData\Local\Temp\ccxApcqi.s:29098  .debug_str:000000000001ea6d .LASF258
C:\Users\CYMR90~1\AppData\Local\Temp\ccxApcqi.s:24183  .debug_str:000000000000ac3b .LASF259
C:\Users\CYMR90~1\AppData\Local\Temp\ccxApcqi.s:21637  .debug_str:0000000000000a06 .LASF260
C:\Users\CYMR90~1\AppData\Local\Temp\ccxApcqi.s:31936  .debug_str:0000000000029e81 .LASF261
C:\Users\CYMR90~1\AppData\Local\Temp\ccxApcqi.s:31410  .debug_str:0000000000027c3d .LASF262
C:\Users\CYMR90~1\AppData\Local\Temp\ccxApcqi.s:26445  .debug_str:0000000000013f27 .LASF263
C:\Users\CYMR90~1\AppData\Local\Temp\ccxApcqi.s:28404  .debug_str:000000000001be96 .LASF264
C:\Users\CYMR90~1\AppData\Local\Temp\ccxApcqi.s:25405  .debug_str:000000000000fbf2 .LASF265
C:\Users\CYMR90~1\AppData\Local\Temp\ccxApcqi.s:24885  .debug_str:000000000000db52 .LASF266
C:\Users\CYMR90~1\AppData\Local\Temp\ccxApcqi.s:24233  .debug_str:000000000000b03c .LASF267
C:\Users\CYMR90~1\AppData\Local\Temp\ccxApcqi.s:28506  .debug_str:000000000001c46f .LASF268
C:\Users\CYMR90~1\AppData\Local\Temp\ccxApcqi.s:24533  .debug_str:000000000000c428 .LASF269
C:\Users\CYMR90~1\AppData\Local\Temp\ccxApcqi.s:25471  .debug_str:0000000000010050 .LASF270
C:\Users\CYMR90~1\AppData\Local\Temp\ccxApcqi.s:26717  .debug_str:0000000000015041 .LASF271
C:\Users\CYMR90~1\AppData\Local\Temp\ccxApcqi.s:31072  .debug_str:0000000000026668 .LASF272
C:\Users\CYMR90~1\AppData\Local\Temp\ccxApcqi.s:23165  .debug_str:00000000000069fd .LASF273
C:\Users\CYMR90~1\AppData\Local\Temp\ccxApcqi.s:22093  .debug_str:0000000000002570 .LASF274
C:\Users\CYMR90~1\AppData\Local\Temp\ccxApcqi.s:23257  .debug_str:0000000000007021 .LASF275
C:\Users\CYMR90~1\AppData\Local\Temp\ccxApcqi.s:22345  .debug_str:00000000000035c8 .LASF276
C:\Users\CYMR90~1\AppData\Local\Temp\ccxApcqi.s:24429  .debug_str:000000000000bdb1 .LASF277
C:\Users\CYMR90~1\AppData\Local\Temp\ccxApcqi.s:21773  .debug_str:0000000000001261 .LASF278
C:\Users\CYMR90~1\AppData\Local\Temp\ccxApcqi.s:23089  .debug_str:0000000000006524 .LASF279
C:\Users\CYMR90~1\AppData\Local\Temp\ccxApcqi.s:31728  .debug_str:00000000000291ff .LASF280
C:\Users\CYMR90~1\AppData\Local\Temp\ccxApcqi.s:21733  .debug_str:000000000000101d .LASF281
C:\Users\CYMR90~1\AppData\Local\Temp\ccxApcqi.s:23057  .debug_str:0000000000006381 .LASF282
C:\Users\CYMR90~1\AppData\Local\Temp\ccxApcqi.s:22961  .debug_str:0000000000005d82 .LASF283
C:\Users\CYMR90~1\AppData\Local\Temp\ccxApcqi.s:22723  .debug_str:0000000000004f2f .LASF284
C:\Users\CYMR90~1\AppData\Local\Temp\ccxApcqi.s:30626  .debug_str:00000000000248ae .LASF285
C:\Users\CYMR90~1\AppData\Local\Temp\ccxApcqi.s:31442  .debug_str:0000000000027ed4 .LASF286
C:\Users\CYMR90~1\AppData\Local\Temp\ccxApcqi.s:31714  .debug_str:0000000000029099 .LASF287
C:\Users\CYMR90~1\AppData\Local\Temp\ccxApcqi.s:31628  .debug_str:0000000000028b2c .LASF288
C:\Users\CYMR90~1\AppData\Local\Temp\ccxApcqi.s:32466  .debug_str:000000000002c000 .LASF289
C:\Users\CYMR90~1\AppData\Local\Temp\ccxApcqi.s:27448  .debug_str:0000000000017fa7 .LASF290
C:\Users\CYMR90~1\AppData\Local\Temp\ccxApcqi.s:26499  .debug_str:0000000000014296 .LASF291
C:\Users\CYMR90~1\AppData\Local\Temp\ccxApcqi.s:30664  .debug_str:0000000000024b2e .LASF292
C:\Users\CYMR90~1\AppData\Local\Temp\ccxApcqi.s:22369  .debug_str:00000000000037ab .LASF293
C:\Users\CYMR90~1\AppData\Local\Temp\ccxApcqi.s:29606  .debug_str:000000000002097f .LASF294
C:\Users\CYMR90~1\AppData\Local\Temp\ccxApcqi.s:22643  .debug_str:0000000000004a39 .LASF295
C:\Users\CYMR90~1\AppData\Local\Temp\ccxApcqi.s:32062  .debug_str:000000000002a63a .LASF296
C:\Users\CYMR90~1\AppData\Local\Temp\ccxApcqi.s:32250  .debug_str:000000000002b194 .LASF297
C:\Users\CYMR90~1\AppData\Local\Temp\ccxApcqi.s:27324  .debug_str:000000000001786b .LASF298
C:\Users\CYMR90~1\AppData\Local\Temp\ccxApcqi.s:21621  .debug_str:0000000000000900 .LASF299
C:\Users\CYMR90~1\AppData\Local\Temp\ccxApcqi.s:25377  .debug_str:000000000000fa20 .LASF300
C:\Users\CYMR90~1\AppData\Local\Temp\ccxApcqi.s:28080  .debug_str:000000000001aa0d .LASF301
C:\Users\CYMR90~1\AppData\Local\Temp\ccxApcqi.s:26605  .debug_str:00000000000148da .LASF302
C:\Users\CYMR90~1\AppData\Local\Temp\ccxApcqi.s:26079  .debug_str:00000000000127f8 .LASF303
C:\Users\CYMR90~1\AppData\Local\Temp\ccxApcqi.s:22015  .debug_str:00000000000020fb .LASF304
C:\Users\CYMR90~1\AppData\Local\Temp\ccxApcqi.s:24541  .debug_str:000000000000c4ac .LASF305
C:\Users\CYMR90~1\AppData\Local\Temp\ccxApcqi.s:29814  .debug_str:000000000002163e .LASF306
C:\Users\CYMR90~1\AppData\Local\Temp\ccxApcqi.s:25395  .debug_str:000000000000fb4d .LASF307
C:\Users\CYMR90~1\AppData\Local\Temp\ccxApcqi.s:30648  .debug_str:0000000000024a19 .LASF308
C:\Users\CYMR90~1\AppData\Local\Temp\ccxApcqi.s:30262  .debug_str:00000000000230d5 .LASF309
C:\Users\CYMR90~1\AppData\Local\Temp\ccxApcqi.s:24941  .debug_str:000000000000df16 .LASF310
C:\Users\CYMR90~1\AppData\Local\Temp\ccxApcqi.s:30968  .debug_str:0000000000025fe9 .LASF311
C:\Users\CYMR90~1\AppData\Local\Temp\ccxApcqi.s:30482  .debug_str:0000000000023edf .LASF312
C:\Users\CYMR90~1\AppData\Local\Temp\ccxApcqi.s:24661  .debug_str:000000000000ccde .LASF313
C:\Users\CYMR90~1\AppData\Local\Temp\ccxApcqi.s:27592  .debug_str:000000000001885d .LASF316
C:\Users\CYMR90~1\AppData\Local\Temp\ccxApcqi.s:27958  .debug_str:000000000001a08b .LASF317
C:\Users\CYMR90~1\AppData\Local\Temp\ccxApcqi.s:28294  .debug_str:000000000001b7b3 .LASF318
C:\Users\CYMR90~1\AppData\Local\Temp\ccxApcqi.s:25385  .debug_str:000000000000fabd .LASF319
C:\Users\CYMR90~1\AppData\Local\Temp\ccxApcqi.s:24301  .debug_str:000000000000b4d1 .LASF320
C:\Users\CYMR90~1\AppData\Local\Temp\ccxApcqi.s:31676  .debug_str:0000000000028e64 .LASF321
C:\Users\CYMR90~1\AppData\Local\Temp\ccxApcqi.s:24851  .debug_str:000000000000d963 .LASF322
C:\Users\CYMR90~1\AppData\Local\Temp\ccxApcqi.s:30918  .debug_str:0000000000025cb4 .LASF323
C:\Users\CYMR90~1\AppData\Local\Temp\ccxApcqi.s:21507  .debug_str:0000000000000229 .LASF324
C:\Users\CYMR90~1\AppData\Local\Temp\ccxApcqi.s:32084  .debug_str:000000000002a76f .LASF325
C:\Users\CYMR90~1\AppData\Local\Temp\ccxApcqi.s:22425  .debug_str:0000000000003b32 .LASF326
C:\Users\CYMR90~1\AppData\Local\Temp\ccxApcqi.s:26433  .debug_str:0000000000013e6a .LASF327
C:\Users\CYMR90~1\AppData\Local\Temp\ccxApcqi.s:26081  .debug_str:000000000001280d .LASF328
C:\Users\CYMR90~1\AppData\Local\Temp\ccxApcqi.s:28948  .debug_str:000000000001e18b .LASF329
C:\Users\CYMR90~1\AppData\Local\Temp\ccxApcqi.s:28940  .debug_str:000000000001e13a .LASF330
C:\Users\CYMR90~1\AppData\Local\Temp\ccxApcqi.s:31114  .debug_str:00000000000268fc .LASF331
C:\Users\CYMR90~1\AppData\Local\Temp\ccxApcqi.s:31656  .debug_str:0000000000028d12 .LASF332
C:\Users\CYMR90~1\AppData\Local\Temp\ccxApcqi.s:31840  .debug_str:00000000000298ed .LASF333
C:\Users\CYMR90~1\AppData\Local\Temp\ccxApcqi.s:27932  .debug_str:0000000000019f10 .LASF334
C:\Users\CYMR90~1\AppData\Local\Temp\ccxApcqi.s:27370  .debug_str:0000000000017b1f .LASF335
C:\Users\CYMR90~1\AppData\Local\Temp\ccxApcqi.s:31696  .debug_str:0000000000028fad .LASF336
C:\Users\CYMR90~1\AppData\Local\Temp\ccxApcqi.s:26007  .debug_str:0000000000012341 .LASF337
C:\Users\CYMR90~1\AppData\Local\Temp\ccxApcqi.s:29660  .debug_str:0000000000020c9d .LASF338
C:\Users\CYMR90~1\AppData\Local\Temp\ccxApcqi.s:24055  .debug_str:000000000000a459 .LASF339
C:\Users\CYMR90~1\AppData\Local\Temp\ccxApcqi.s:26217  .debug_str:000000000001310b .LASF340
C:\Users\CYMR90~1\AppData\Local\Temp\ccxApcqi.s:28128  .debug_str:000000000001acfd .LASF341
C:\Users\CYMR90~1\AppData\Local\Temp\ccxApcqi.s:24363  .debug_str:000000000000b8fe .LASF342
C:\Users\CYMR90~1\AppData\Local\Temp\ccxApcqi.s:21755  .debug_str:000000000000118d .LASF343
C:\Users\CYMR90~1\AppData\Local\Temp\ccxApcqi.s:31808  .debug_str:0000000000029708 .LASF344
C:\Users\CYMR90~1\AppData\Local\Temp\ccxApcqi.s:32410  .debug_str:000000000002bc2d .LASF345
C:\Users\CYMR90~1\AppData\Local\Temp\ccxApcqi.s:25263  .debug_str:000000000000f2e0 .LASF346
C:\Users\CYMR90~1\AppData\Local\Temp\ccxApcqi.s:21609  .debug_str:0000000000000849 .LASF347
C:\Users\CYMR90~1\AppData\Local\Temp\ccxApcqi.s:29460  .debug_str:000000000002000c .LASF348
C:\Users\CYMR90~1\AppData\Local\Temp\ccxApcqi.s:31420  .debug_str:0000000000027d0c .LASF349
C:\Users\CYMR90~1\AppData\Local\Temp\ccxApcqi.s:28942  .debug_str:000000000001e146 .LASF350
C:\Users\CYMR90~1\AppData\Local\Temp\ccxApcqi.s:21543  .debug_str:0000000000000468 .LASF351
C:\Users\CYMR90~1\AppData\Local\Temp\ccxApcqi.s:29230  .debug_str:000000000001f281 .LASF352
C:\Users\CYMR90~1\AppData\Local\Temp\ccxApcqi.s:30910  .debug_str:0000000000025c4a .LASF353
C:\Users\CYMR90~1\AppData\Local\Temp\ccxApcqi.s:28564  .debug_str:000000000001c90f .LASF354
C:\Users\CYMR90~1\AppData\Local\Temp\ccxApcqi.s:28734  .debug_str:000000000001d45f .LASF355
C:\Users\CYMR90~1\AppData\Local\Temp\ccxApcqi.s:24743  .debug_str:000000000000d2e9 .LASF356
C:\Users\CYMR90~1\AppData\Local\Temp\ccxApcqi.s:27888  .debug_str:0000000000019c8e .LASF357
C:\Users\CYMR90~1\AppData\Local\Temp\ccxApcqi.s:31332  .debug_str:00000000000276fc .LASF358
C:\Users\CYMR90~1\AppData\Local\Temp\ccxApcqi.s:26071  .debug_str:000000000001274d .LASF359
C:\Users\CYMR90~1\AppData\Local\Temp\ccxApcqi.s:24153  .debug_str:000000000000aa73 .LASF360
C:\Users\CYMR90~1\AppData\Local\Temp\ccxApcqi.s:29112  .debug_str:000000000001eb54 .LASF361
C:\Users\CYMR90~1\AppData\Local\Temp\ccxApcqi.s:25811  .debug_str:0000000000011587 .LASF362
C:\Users\CYMR90~1\AppData\Local\Temp\ccxApcqi.s:31596  .debug_str:000000000002896a .LASF363
C:\Users\CYMR90~1\AppData\Local\Temp\ccxApcqi.s:23709  .debug_str:0000000000008eab .LASF364
C:\Users\CYMR90~1\AppData\Local\Temp\ccxApcqi.s:31492  .debug_str:000000000002827c .LASF365
C:\Users\CYMR90~1\AppData\Local\Temp\ccxApcqi.s:23125  .debug_str:00000000000067bc .LASF366
C:\Users\CYMR90~1\AppData\Local\Temp\ccxApcqi.s:26209  .debug_str:000000000001306d .LASF367
C:\Users\CYMR90~1\AppData\Local\Temp\ccxApcqi.s:23405  .debug_str:0000000000007a1d .LASF368
C:\Users\CYMR90~1\AppData\Local\Temp\ccxApcqi.s:27418  .debug_str:0000000000017df0 .LASF372
C:\Users\CYMR90~1\AppData\Local\Temp\ccxApcqi.s:31154  .debug_str:0000000000026b8d .LASF373
C:\Users\CYMR90~1\AppData\Local\Temp\ccxApcqi.s:24135  .debug_str:000000000000a941 .LASF374
C:\Users\CYMR90~1\AppData\Local\Temp\ccxApcqi.s:27206  .debug_str:000000000001710d .LASF375
C:\Users\CYMR90~1\AppData\Local\Temp\ccxApcqi.s:27404  .debug_str:0000000000017d3e .LASF376
C:\Users\CYMR90~1\AppData\Local\Temp\ccxApcqi.s:29910  .debug_str:0000000000021c39 .LASF377
C:\Users\CYMR90~1\AppData\Local\Temp\ccxApcqi.s:28580  .debug_str:000000000001c9da .LASF378
C:\Users\CYMR90~1\AppData\Local\Temp\ccxApcqi.s:32242  .debug_str:000000000002b121 .LASF379
C:\Users\CYMR90~1\AppData\Local\Temp\ccxApcqi.s:22109  .debug_str:00000000000026a7 .LASF380
C:\Users\CYMR90~1\AppData\Local\Temp\ccxApcqi.s:32184  .debug_str:000000000002ad53 .LASF381
C:\Users\CYMR90~1\AppData\Local\Temp\ccxApcqi.s:28302  .debug_str:000000000001b804 .LASF382
C:\Users\CYMR90~1\AppData\Local\Temp\ccxApcqi.s:23181  .debug_str:0000000000006b0a .LASF383
C:\Users\CYMR90~1\AppData\Local\Temp\ccxApcqi.s:24511  .debug_str:000000000000c2b4 .LASF384
C:\Users\CYMR90~1\AppData\Local\Temp\ccxApcqi.s:27826  .debug_str:00000000000198d0 .LASF385
C:\Users\CYMR90~1\AppData\Local\Temp\ccxApcqi.s:25501  .debug_str:000000000001021a .LASF386
C:\Users\CYMR90~1\AppData\Local\Temp\ccxApcqi.s:22041  .debug_str:000000000000229a .LASF387
C:\Users\CYMR90~1\AppData\Local\Temp\ccxApcqi.s:25107  .debug_str:000000000000e98e .LASF388
C:\Users\CYMR90~1\AppData\Local\Temp\ccxApcqi.s:23681  .debug_str:0000000000008d03 .LASF389
C:\Users\CYMR90~1\AppData\Local\Temp\ccxApcqi.s:22509  .debug_str:000000000000411d .LASF391
C:\Users\CYMR90~1\AppData\Local\Temp\ccxApcqi.s:25509  .debug_str:0000000000010286 .LASF392
C:\Users\CYMR90~1\AppData\Local\Temp\ccxApcqi.s:29558  .debug_str:000000000002067c .LASF393
C:\Users\CYMR90~1\AppData\Local\Temp\ccxApcqi.s:31290  .debug_str:000000000002744d .LASF394
C:\Users\CYMR90~1\AppData\Local\Temp\ccxApcqi.s:22067  .debug_str:00000000000023f8 .LASF395
C:\Users\CYMR90~1\AppData\Local\Temp\ccxApcqi.s:24177  .debug_str:000000000000abd7 .LASF396
C:\Users\CYMR90~1\AppData\Local\Temp\ccxApcqi.s:27938  .debug_str:0000000000019f70 .LASF397
C:\Users\CYMR90~1\AppData\Local\Temp\ccxApcqi.s:32060  .debug_str:000000000002a628 .LASF398
C:\Users\CYMR90~1\AppData\Local\Temp\ccxApcqi.s:26771  .debug_str:0000000000015376 .LASF399
C:\Users\CYMR90~1\AppData\Local\Temp\ccxApcqi.s:29192  .debug_str:000000000001f020 .LASF400
C:\Users\CYMR90~1\AppData\Local\Temp\ccxApcqi.s:23669  .debug_str:0000000000008bec .LASF401
C:\Users\CYMR90~1\AppData\Local\Temp\ccxApcqi.s:27258  .debug_str:0000000000017412 .LASF402
C:\Users\CYMR90~1\AppData\Local\Temp\ccxApcqi.s:23025  .debug_str:0000000000006180 .LASF403
C:\Users\CYMR90~1\AppData\Local\Temp\ccxApcqi.s:24111  .debug_str:000000000000a7b5 .LASF404
C:\Users\CYMR90~1\AppData\Local\Temp\ccxApcqi.s:25163  .debug_str:000000000000ecbf .LASF405
C:\Users\CYMR90~1\AppData\Local\Temp\ccxApcqi.s:28490  .debug_str:000000000001c38f .LASF406
C:\Users\CYMR90~1\AppData\Local\Temp\ccxApcqi.s:26697  .debug_str:0000000000014f2e .LASF407
C:\Users\CYMR90~1\AppData\Local\Temp\ccxApcqi.s:27668  .debug_str:0000000000018d91 .LASF408
C:\Users\CYMR90~1\AppData\Local\Temp\ccxApcqi.s:29858  .debug_str:00000000000218e6 .LASF409
C:\Users\CYMR90~1\AppData\Local\Temp\ccxApcqi.s:22979  .debug_str:0000000000005e8d .LASF410
C:\Users\CYMR90~1\AppData\Local\Temp\ccxApcqi.s:26879  .debug_str:00000000000159b4 .LASF411
C:\Users\CYMR90~1\AppData\Local\Temp\ccxApcqi.s:29982  .debug_str:000000000002208c .LASF412
C:\Users\CYMR90~1\AppData\Local\Temp\ccxApcqi.s:23157  .debug_str:000000000000699d .LASF413
C:\Users\CYMR90~1\AppData\Local\Temp\ccxApcqi.s:31690  .debug_str:0000000000028f46 .LASF414
C:\Users\CYMR90~1\AppData\Local\Temp\ccxApcqi.s:25265  .debug_str:000000000000f2ee .LASF415
C:\Users\CYMR90~1\AppData\Local\Temp\ccxApcqi.s:31028  .debug_str:00000000000263ae .LASF416
C:\Users\CYMR90~1\AppData\Local\Temp\ccxApcqi.s:32530  .debug_str:000000000002c457 .LASF417
C:\Users\CYMR90~1\AppData\Local\Temp\ccxApcqi.s:23597  .debug_str:0000000000008769 .LASF418
C:\Users\CYMR90~1\AppData\Local\Temp\ccxApcqi.s:31900  .debug_str:0000000000029c7b .LASF419
C:\Users\CYMR90~1\AppData\Local\Temp\ccxApcqi.s:23225  .debug_str:0000000000006e0a .LASF420
C:\Users\CYMR90~1\AppData\Local\Temp\ccxApcqi.s:32102  .debug_str:000000000002a86f .LASF421
C:\Users\CYMR90~1\AppData\Local\Temp\ccxApcqi.s:24441  .debug_str:000000000000be77 .LASF422
C:\Users\CYMR90~1\AppData\Local\Temp\ccxApcqi.s:24639  .debug_str:000000000000cbb1 .LASF423
C:\Users\CYMR90~1\AppData\Local\Temp\ccxApcqi.s:29092  .debug_str:000000000001ea2e .LASF424
C:\Users\CYMR90~1\AppData\Local\Temp\ccxApcqi.s:27706  .debug_str:00000000000190d4 .LASF425
C:\Users\CYMR90~1\AppData\Local\Temp\ccxApcqi.s:21517  .debug_str:00000000000002d7 .LASF426
C:\Users\CYMR90~1\AppData\Local\Temp\ccxApcqi.s:31602  .debug_str:00000000000289c7 .LASF427
C:\Users\CYMR90~1\AppData\Local\Temp\ccxApcqi.s:26961  .debug_str:0000000000015f8f .LASF428
C:\Users\CYMR90~1\AppData\Local\Temp\ccxApcqi.s:28872  .debug_str:000000000001dd18 .LASF429
C:\Users\CYMR90~1\AppData\Local\Temp\ccxApcqi.s:25449  .debug_str:000000000000feda .LASF430
C:\Users\CYMR90~1\AppData\Local\Temp\ccxApcqi.s:27156  .debug_str:0000000000016e4b .LASF431
C:\Users\CYMR90~1\AppData\Local\Temp\ccxApcqi.s:29932  .debug_str:0000000000021d63 .LASF432
C:\Users\CYMR90~1\AppData\Local\Temp\ccxApcqi.s:24623  .debug_str:000000000000cad1 .LASF434
C:\Users\CYMR90~1\AppData\Local\Temp\ccxApcqi.s:22699  .debug_str:0000000000004dae .LASF435
C:\Users\CYMR90~1\AppData\Local\Temp\ccxApcqi.s:27344  .debug_str:000000000001799a .LASF436
C:\Users\CYMR90~1\AppData\Local\Temp\ccxApcqi.s:23245  .debug_str:0000000000006f46 .LASF437
C:\Users\CYMR90~1\AppData\Local\Temp\ccxApcqi.s:31618  .debug_str:0000000000028a97 .LASF438
C:\Users\CYMR90~1\AppData\Local\Temp\ccxApcqi.s:21483  .debug_str:00000000000000c7 .LASF439
C:\Users\CYMR90~1\AppData\Local\Temp\ccxApcqi.s:29128  .debug_str:000000000001ec1e .LASF440
C:\Users\CYMR90~1\AppData\Local\Temp\ccxApcqi.s:24859  .debug_str:000000000000d9c8 .LASF441
C:\Users\CYMR90~1\AppData\Local\Temp\ccxApcqi.s:30166  .debug_str:0000000000022b6a .LASF442
C:\Users\CYMR90~1\AppData\Local\Temp\ccxApcqi.s:25741  .debug_str:00000000000110ef .LASF443
C:\Users\CYMR90~1\AppData\Local\Temp\ccxApcqi.s:25583  .debug_str:00000000000106e7 .LASF444
C:\Users\CYMR90~1\AppData\Local\Temp\ccxApcqi.s:32524  .debug_str:000000000002c40b .LASF445
C:\Users\CYMR90~1\AppData\Local\Temp\ccxApcqi.s:32464  .debug_str:000000000002bffa .LASF446
C:\Users\CYMR90~1\AppData\Local\Temp\ccxApcqi.s:25927  .debug_str:0000000000011da9 .LASF447
C:\Users\CYMR90~1\AppData\Local\Temp\ccxApcqi.s:30140  .debug_str:00000000000229ee .LASF448
C:\Users\CYMR90~1\AppData\Local\Temp\ccxApcqi.s:22521  .debug_str:00000000000041d5 .LASF449
C:\Users\CYMR90~1\AppData\Local\Temp\ccxApcqi.s:23265  .debug_str:00000000000070af .LASF450
C:\Users\CYMR90~1\AppData\Local\Temp\ccxApcqi.s:21995  .debug_str:0000000000001fff .LASF451
C:\Users\CYMR90~1\AppData\Local\Temp\ccxApcqi.s:26613  .debug_str:000000000001497c .LASF452
C:\Users\CYMR90~1\AppData\Local\Temp\ccxApcqi.s:21985  .debug_str:0000000000001f8c .LASF453
C:\Users\CYMR90~1\AppData\Local\Temp\ccxApcqi.s:32470  .debug_str:000000000002c040 .LASF454
C:\Users\CYMR90~1\AppData\Local\Temp\ccxApcqi.s:25027  .debug_str:000000000000e446 .LASF455
C:\Users\CYMR90~1\AppData\Local\Temp\ccxApcqi.s:29758  .debug_str:00000000000212d8 .LASF456
C:\Users\CYMR90~1\AppData\Local\Temp\ccxApcqi.s:24715  .debug_str:000000000000d0a3 .LASF457
C:\Users\CYMR90~1\AppData\Local\Temp\ccxApcqi.s:23037  .debug_str:000000000000622d .LASF458
C:\Users\CYMR90~1\AppData\Local\Temp\ccxApcqi.s:25649  .debug_str:0000000000010bc6 .LASF459
C:\Users\CYMR90~1\AppData\Local\Temp\ccxApcqi.s:29512  .debug_str:00000000000203c0 .LASF460
C:\Users\CYMR90~1\AppData\Local\Temp\ccxApcqi.s:30652  .debug_str:0000000000024a4f .LASF461
C:\Users\CYMR90~1\AppData\Local\Temp\ccxApcqi.s:27119  .debug_str:0000000000016a47 .LASF462
C:\Users\CYMR90~1\AppData\Local\Temp\ccxApcqi.s:27988  .debug_str:000000000001a3e7 .LASF463
C:\Users\CYMR90~1\AppData\Local\Temp\ccxApcqi.s:24875  .debug_str:000000000000da96 .LASF464
C:\Users\CYMR90~1\AppData\Local\Temp\ccxApcqi.s:26019  .debug_str:0000000000012404 .LASF465
C:\Users\CYMR90~1\AppData\Local\Temp\ccxApcqi.s:23175  .debug_str:0000000000006ac4 .LASF466
C:\Users\CYMR90~1\AppData\Local\Temp\ccxApcqi.s:23727  .debug_str:0000000000008f8e .LASF467
C:\Users\CYMR90~1\AppData\Local\Temp\ccxApcqi.s:25785  .debug_str:00000000000113df .LASF468
C:\Users\CYMR90~1\AppData\Local\Temp\ccxApcqi.s:22325  .debug_str:00000000000034b0 .LASF469
C:\Users\CYMR90~1\AppData\Local\Temp\ccxApcqi.s:25545  .debug_str:0000000000010497 .LASF470
C:\Users\CYMR90~1\AppData\Local\Temp\ccxApcqi.s:25425  .debug_str:000000000000fd4f .LASF471
C:\Users\CYMR90~1\AppData\Local\Temp\ccxApcqi.s:25001  .debug_str:000000000000e2ba .LASF472
C:\Users\CYMR90~1\AppData\Local\Temp\ccxApcqi.s:21693  .debug_str:0000000000000d7e .LASF473
C:\Users\CYMR90~1\AppData\Local\Temp\ccxApcqi.s:23291  .debug_str:00000000000072b0 .LASF474
C:\Users\CYMR90~1\AppData\Local\Temp\ccxApcqi.s:21639  .debug_str:0000000000000a44 .LASF475
C:\Users\CYMR90~1\AppData\Local\Temp\ccxApcqi.s:22487  .debug_str:0000000000003f33 .LASF476
C:\Users\CYMR90~1\AppData\Local\Temp\ccxApcqi.s:21863  .debug_str:000000000000185e .LASF477
C:\Users\CYMR90~1\AppData\Local\Temp\ccxApcqi.s:26907  .debug_str:0000000000015bc0 .LASF478
C:\Users\CYMR90~1\AppData\Local\Temp\ccxApcqi.s:24321  .debug_str:000000000000b64d .LASF479
C:\Users\CYMR90~1\AppData\Local\Temp\ccxApcqi.s:32098  .debug_str:000000000002a83f .LASF480
C:\Users\CYMR90~1\AppData\Local\Temp\ccxApcqi.s:27500  .debug_str:00000000000182a2 .LASF481
C:\Users\CYMR90~1\AppData\Local\Temp\ccxApcqi.s:24243  .debug_str:000000000000b0d1 .LASF482
C:\Users\CYMR90~1\AppData\Local\Temp\ccxApcqi.s:23077  .debug_str:0000000000006491 .LASF483
C:\Users\CYMR90~1\AppData\Local\Temp\ccxApcqi.s:21605  .debug_str:0000000000000802 .LASF484
C:\Users\CYMR90~1\AppData\Local\Temp\ccxApcqi.s:27446  .debug_str:0000000000017f84 .LASF485
C:\Users\CYMR90~1\AppData\Local\Temp\ccxApcqi.s:22709  .debug_str:0000000000004e4c .LASF486
C:\Users\CYMR90~1\AppData\Local\Temp\ccxApcqi.s:26369  .debug_str:0000000000013ac7 .LASF487
C:\Users\CYMR90~1\AppData\Local\Temp\ccxApcqi.s:25571  .debug_str:0000000000010643 .LASF488
C:\Users\CYMR90~1\AppData\Local\Temp\ccxApcqi.s:26135  .debug_str:0000000000012b9d .LASF489
C:\Users\CYMR90~1\AppData\Local\Temp\ccxApcqi.s:24597  .debug_str:000000000000c972 .LASF490
C:\Users\CYMR90~1\AppData\Local\Temp\ccxApcqi.s:23595  .debug_str:000000000000875b .LASF491
C:\Users\CYMR90~1\AppData\Local\Temp\ccxApcqi.s:25221  .debug_str:000000000000f039 .LASF492
C:\Users\CYMR90~1\AppData\Local\Temp\ccxApcqi.s:25535  .debug_str:000000000001041b .LASF493
C:\Users\CYMR90~1\AppData\Local\Temp\ccxApcqi.s:25431  .debug_str:000000000000fdc3 .LASF494
C:\Users\CYMR90~1\AppData\Local\Temp\ccxApcqi.s:27696  .debug_str:0000000000019039 .LASF495
C:\Users\CYMR90~1\AppData\Local\Temp\ccxApcqi.s:32548  .debug_str:000000000002c564 .LASF496
C:\Users\CYMR90~1\AppData\Local\Temp\ccxApcqi.s:32486  .debug_str:000000000002c19a .LASF497
C:\Users\CYMR90~1\AppData\Local\Temp\ccxApcqi.s:25269  .debug_str:000000000000f335 .LASF498
C:\Users\CYMR90~1\AppData\Local\Temp\ccxApcqi.s:31712  .debug_str:0000000000029074 .LASF499
C:\Users\CYMR90~1\AppData\Local\Temp\ccxApcqi.s:31812  .debug_str:000000000002972b .LASF500
C:\Users\CYMR90~1\AppData\Local\Temp\ccxApcqi.s:27920  .debug_str:0000000000019e5b .LASF501
C:\Users\CYMR90~1\AppData\Local\Temp\ccxApcqi.s:31766  .debug_str:000000000002947f .LASF502
C:\Users\CYMR90~1\AppData\Local\Temp\ccxApcqi.s:26527  .debug_str:0000000000014416 .LASF503
C:\Users\CYMR90~1\AppData\Local\Temp\ccxApcqi.s:22195  .debug_str:0000000000002c29 .LASF504
C:\Users\CYMR90~1\AppData\Local\Temp\ccxApcqi.s:30418  .debug_str:0000000000023a28 .LASF505
C:\Users\CYMR90~1\AppData\Local\Temp\ccxApcqi.s:31286  .debug_str:0000000000027412 .LASF506
C:\Users\CYMR90~1\AppData\Local\Temp\ccxApcqi.s:30864  .debug_str:000000000002596f .LASF507
C:\Users\CYMR90~1\AppData\Local\Temp\ccxApcqi.s:27614  .debug_str:00000000000189b6 .LASF508
C:\Users\CYMR90~1\AppData\Local\Temp\ccxApcqi.s:29846  .debug_str:00000000000217ea .LASF509
C:\Users\CYMR90~1\AppData\Local\Temp\ccxApcqi.s:31510  .debug_str:00000000000283c7 .LASF510
C:\Users\CYMR90~1\AppData\Local\Temp\ccxApcqi.s:27390  .debug_str:0000000000017c33 .LASF511
C:\Users\CYMR90~1\AppData\Local\Temp\ccxApcqi.s:31142  .debug_str:0000000000026a98 .LASF512
C:\Users\CYMR90~1\AppData\Local\Temp\ccxApcqi.s:31258  .debug_str:000000000002728a .LASF513
C:\Users\CYMR90~1\AppData\Local\Temp\ccxApcqi.s:31694  .debug_str:0000000000028f72 .LASF514
C:\Users\CYMR90~1\AppData\Local\Temp\ccxApcqi.s:26299  .debug_str:00000000000136a3 .LASF515
C:\Users\CYMR90~1\AppData\Local\Temp\ccxApcqi.s:31568  .debug_str:00000000000287c3 .LASF516
C:\Users\CYMR90~1\AppData\Local\Temp\ccxApcqi.s:27762  .debug_str:0000000000019429 .LASF517
C:\Users\CYMR90~1\AppData\Local\Temp\ccxApcqi.s:31518  .debug_str:000000000002847b .LASF518
C:\Users\CYMR90~1\AppData\Local\Temp\ccxApcqi.s:28412  .debug_str:000000000001befe .LASF519
C:\Users\CYMR90~1\AppData\Local\Temp\ccxApcqi.s:32458  .debug_str:000000000002bf98 .LASF520
C:\Users\CYMR90~1\AppData\Local\Temp\ccxApcqi.s:31126  .debug_str:0000000000026999 .LASF521
C:\Users\CYMR90~1\AppData\Local\Temp\ccxApcqi.s:30774  .debug_str:00000000000252fb .LASF522
C:\Users\CYMR90~1\AppData\Local\Temp\ccxApcqi.s:26179  .debug_str:0000000000012e6a .LASF523
C:\Users\CYMR90~1\AppData\Local\Temp\ccxApcqi.s:30332  .debug_str:000000000002355a .LASF524
C:\Users\CYMR90~1\AppData\Local\Temp\ccxApcqi.s:23807  .debug_str:0000000000009436 .LASF525
C:\Users\CYMR90~1\AppData\Local\Temp\ccxApcqi.s:32478  .debug_str:000000000002c0ae .LASF526
C:\Users\CYMR90~1\AppData\Local\Temp\ccxApcqi.s:25035  .debug_str:000000000000e4c4 .LASF527
C:\Users\CYMR90~1\AppData\Local\Temp\ccxApcqi.s:26043  .debug_str:000000000001257f .LASF528
C:\Users\CYMR90~1\AppData\Local\Temp\ccxApcqi.s:26885  .debug_str:0000000000015a18 .LASF529
C:\Users\CYMR90~1\AppData\Local\Temp\ccxApcqi.s:26919  .debug_str:0000000000015c6d .LASF530
C:\Users\CYMR90~1\AppData\Local\Temp\ccxApcqi.s:25967  .debug_str:00000000000120e8 .LASF531
C:\Users\CYMR90~1\AppData\Local\Temp\ccxApcqi.s:22253  .debug_str:0000000000002faf .LASF532
C:\Users\CYMR90~1\AppData\Local\Temp\ccxApcqi.s:24721  .debug_str:000000000000d0dd .LASF533
C:\Users\CYMR90~1\AppData\Local\Temp\ccxApcqi.s:32322  .debug_str:000000000002b62a .LASF534
C:\Users\CYMR90~1\AppData\Local\Temp\ccxApcqi.s:25219  .debug_str:000000000000efed .LASF535
C:\Users\CYMR90~1\AppData\Local\Temp\ccxApcqi.s:30516  .debug_str:0000000000024141 .LASF536
C:\Users\CYMR90~1\AppData\Local\Temp\ccxApcqi.s:31970  .debug_str:000000000002a069 .LASF537
C:\Users\CYMR90~1\AppData\Local\Temp\ccxApcqi.s:25801  .debug_str:00000000000114ce .LASF538
C:\Users\CYMR90~1\AppData\Local\Temp\ccxApcqi.s:26375  .debug_str:0000000000013b1c .LASF539
C:\Users\CYMR90~1\AppData\Local\Temp\ccxApcqi.s:28470  .debug_str:000000000001c27d .LASF540
C:\Users\CYMR90~1\AppData\Local\Temp\ccxApcqi.s:24813  .debug_str:000000000000d741 .LASF541
C:\Users\CYMR90~1\AppData\Local\Temp\ccxApcqi.s:28766  .debug_str:000000000001d674 .LASF542
C:\Users\CYMR90~1\AppData\Local\Temp\ccxApcqi.s:22595  .debug_str:00000000000046ab .LASF543
C:\Users\CYMR90~1\AppData\Local\Temp\ccxApcqi.s:24969  .debug_str:000000000000e0b2 .LASF544
C:\Users\CYMR90~1\AppData\Local\Temp\ccxApcqi.s:31752  .debug_str:000000000002939b .LASF545
C:\Users\CYMR90~1\AppData\Local\Temp\ccxApcqi.s:26309  .debug_str:0000000000013732 .LASF546
C:\Users\CYMR90~1\AppData\Local\Temp\ccxApcqi.s:30036  .debug_str:0000000000022384 .LASF547
C:\Users\CYMR90~1\AppData\Local\Temp\ccxApcqi.s:32238  .debug_str:000000000002b0e0 .LASF548
C:\Users\CYMR90~1\AppData\Local\Temp\ccxApcqi.s:22299  .debug_str:00000000000032ee .LASF549
C:\Users\CYMR90~1\AppData\Local\Temp\ccxApcqi.s:23433  .debug_str:0000000000007bb0 .LASF550
C:\Users\CYMR90~1\AppData\Local\Temp\ccxApcqi.s:31036  .debug_str:0000000000026411 .LASF551
C:\Users\CYMR90~1\AppData\Local\Temp\ccxApcqi.s:23005  .debug_str:0000000000006036 .LASF552
C:\Users\CYMR90~1\AppData\Local\Temp\ccxApcqi.s:31988  .debug_str:000000000002a165 .LASF553
C:\Users\CYMR90~1\AppData\Local\Temp\ccxApcqi.s:24391  .debug_str:000000000000bac6 .LASF554
C:\Users\CYMR90~1\AppData\Local\Temp\ccxApcqi.s:24573  .debug_str:000000000000c6f6 .LASF555
C:\Users\CYMR90~1\AppData\Local\Temp\ccxApcqi.s:23123  .debug_str:0000000000006769 .LASF556
C:\Users\CYMR90~1\AppData\Local\Temp\ccxApcqi.s:22835  .debug_str:00000000000055b6 .LASF557
C:\Users\CYMR90~1\AppData\Local\Temp\ccxApcqi.s:25913  .debug_str:0000000000011cce .LASF558
C:\Users\CYMR90~1\AppData\Local\Temp\ccxApcqi.s:27642  .debug_str:0000000000018c0c .LASF559
C:\Users\CYMR90~1\AppData\Local\Temp\ccxApcqi.s:31558  .debug_str:000000000002871b .LASF560
C:\Users\CYMR90~1\AppData\Local\Temp\ccxApcqi.s:24387  .debug_str:000000000000ba62 .LASF561
C:\Users\CYMR90~1\AppData\Local\Temp\ccxApcqi.s:25383  .debug_str:000000000000fa72 .LASF562
C:\Users\CYMR90~1\AppData\Local\Temp\ccxApcqi.s:24763  .debug_str:000000000000d40f .LASF563
C:\Users\CYMR90~1\AppData\Local\Temp\ccxApcqi.s:24095  .debug_str:000000000000a6a0 .LASF564
C:\Users\CYMR90~1\AppData\Local\Temp\ccxApcqi.s:29784  .debug_str:000000000002144e .LASF565
C:\Users\CYMR90~1\AppData\Local\Temp\ccxApcqi.s:29008  .debug_str:000000000001e525 .LASF566
C:\Users\CYMR90~1\AppData\Local\Temp\ccxApcqi.s:25909  .debug_str:0000000000011c86 .LASF567
C:\Users\CYMR90~1\AppData\Local\Temp\ccxApcqi.s:23007  .debug_str:000000000000604a .LASF568
C:\Users\CYMR90~1\AppData\Local\Temp\ccxApcqi.s:21665  .debug_str:0000000000000c0a .LASF570
C:\Users\CYMR90~1\AppData\Local\Temp\ccxApcqi.s:27274  .debug_str:0000000000017503 .LASF571
C:\Users\CYMR90~1\AppData\Local\Temp\ccxApcqi.s:28408  .debug_str:000000000001bed8 .LASF574
C:\Users\CYMR90~1\AppData\Local\Temp\ccxApcqi.s:22565  .debug_str:00000000000044af .LASF575
C:\Users\CYMR90~1\AppData\Local\Temp\ccxApcqi.s:26533  .debug_str:00000000000144a0 .LASF576
C:\Users\CYMR90~1\AppData\Local\Temp\ccxApcqi.s:23525  .debug_str:0000000000008303 .LASF577
C:\Users\CYMR90~1\AppData\Local\Temp\ccxApcqi.s:29684  .debug_str:0000000000020de3 .LASF579
C:\Users\CYMR90~1\AppData\Local\Temp\ccxApcqi.s:28884  .debug_str:000000000001ddd1 .LASF580
C:\Users\CYMR90~1\AppData\Local\Temp\ccxApcqi.s:30416  .debug_str:0000000000023a1f .LASF581
C:\Users\CYMR90~1\AppData\Local\Temp\ccxApcqi.s:22963  .debug_str:0000000000005d99 .LASF582
C:\Users\CYMR90~1\AppData\Local\Temp\ccxApcqi.s:25529  .debug_str:00000000000103b1 .LASF583
C:\Users\CYMR90~1\AppData\Local\Temp\ccxApcqi.s:22149  .debug_str:0000000000002971 .LASF584
C:\Users\CYMR90~1\AppData\Local\Temp\ccxApcqi.s:31846  .debug_str:000000000002994c .LASF585
C:\Users\CYMR90~1\AppData\Local\Temp\ccxApcqi.s:30080  .debug_str:0000000000022620 .LASF586
C:\Users\CYMR90~1\AppData\Local\Temp\ccxApcqi.s:28290  .debug_str:000000000001b791 .LASF587
C:\Users\CYMR90~1\AppData\Local\Temp\ccxApcqi.s:23189  .debug_str:0000000000006ba5 .LASF588
C:\Users\CYMR90~1\AppData\Local\Temp\ccxApcqi.s:27552  .debug_str:00000000000185a4 .LASF589
C:\Users\CYMR90~1\AppData\Local\Temp\ccxApcqi.s:27934  .debug_str:0000000000019f19 .LASF590
C:\Users\CYMR90~1\AppData\Local\Temp\ccxApcqi.s:28758  .debug_str:000000000001d608 .LASF591
C:\Users\CYMR90~1\AppData\Local\Temp\ccxApcqi.s:28546  .debug_str:000000000001c7d3 .LASF592
C:\Users\CYMR90~1\AppData\Local\Temp\ccxApcqi.s:30404  .debug_str:000000000002397c .LASF593
C:\Users\CYMR90~1\AppData\Local\Temp\ccxApcqi.s:25491  .debug_str:0000000000010180 .LASF594
C:\Users\CYMR90~1\AppData\Local\Temp\ccxApcqi.s:26367  .debug_str:0000000000013aa7 .LASF595
C:\Users\CYMR90~1\AppData\Local\Temp\ccxApcqi.s:26095  .debug_str:00000000000128f8 .LASF596
C:\Users\CYMR90~1\AppData\Local\Temp\ccxApcqi.s:23293  .debug_str:00000000000072cf .LASF597
C:\Users\CYMR90~1\AppData\Local\Temp\ccxApcqi.s:31382  .debug_str:0000000000027aaa .LASF598
C:\Users\CYMR90~1\AppData\Local\Temp\ccxApcqi.s:26257  .debug_str:0000000000013409 .LASF599
C:\Users\CYMR90~1\AppData\Local\Temp\ccxApcqi.s:29210  .debug_str:000000000001f12b .LASF600
C:\Users\CYMR90~1\AppData\Local\Temp\ccxApcqi.s:28478  .debug_str:000000000001c2e9 .LASF601
C:\Users\CYMR90~1\AppData\Local\Temp\ccxApcqi.s:30872  .debug_str:0000000000025a02 .LASF602
C:\Users\CYMR90~1\AppData\Local\Temp\ccxApcqi.s:31574  .debug_str:0000000000028825 .LASF603
C:\Users\CYMR90~1\AppData\Local\Temp\ccxApcqi.s:31468  .debug_str:00000000000280ff .LASF604
C:\Users\CYMR90~1\AppData\Local\Temp\ccxApcqi.s:26207  .debug_str:0000000000013055 .LASF605
C:\Users\CYMR90~1\AppData\Local\Temp\ccxApcqi.s:30218  .debug_str:0000000000022e42 .LASF606
C:\Users\CYMR90~1\AppData\Local\Temp\ccxApcqi.s:23875  .debug_str:000000000000990d .LASF607
C:\Users\CYMR90~1\AppData\Local\Temp\ccxApcqi.s:23387  .debug_str:00000000000078ba .LASF608
C:\Users\CYMR90~1\AppData\Local\Temp\ccxApcqi.s:24155  .debug_str:000000000000aa81 .LASF609
C:\Users\CYMR90~1\AppData\Local\Temp\ccxApcqi.s:28326  .debug_str:000000000001b956 .LASF610
C:\Users\CYMR90~1\AppData\Local\Temp\ccxApcqi.s:28844  .debug_str:000000000001db40 .LASF611
C:\Users\CYMR90~1\AppData\Local\Temp\ccxApcqi.s:30006  .debug_str:00000000000221d5 .LASF612
C:\Users\CYMR90~1\AppData\Local\Temp\ccxApcqi.s:26751  .debug_str:0000000000015236 .LASF613
C:\Users\CYMR90~1\AppData\Local\Temp\ccxApcqi.s:23453  .debug_str:0000000000007daa .LASF614
C:\Users\CYMR90~1\AppData\Local\Temp\ccxApcqi.s:21567  .debug_str:0000000000000599 .LASF615
C:\Users\CYMR90~1\AppData\Local\Temp\ccxApcqi.s:26989  .debug_str:0000000000016114 .LASF616
C:\Users\CYMR90~1\AppData\Local\Temp\ccxApcqi.s:27970  .debug_str:000000000001a147 .LASF617
C:\Users\CYMR90~1\AppData\Local\Temp\ccxApcqi.s:27121  .debug_str:0000000000016a56 .LASF618
C:\Users\CYMR90~1\AppData\Local\Temp\ccxApcqi.s:30088  .debug_str:0000000000022685 .LASF619
C:\Users\CYMR90~1\AppData\Local\Temp\ccxApcqi.s:24407  .debug_str:000000000000bc4a .LASF620
C:\Users\CYMR90~1\AppData\Local\Temp\ccxApcqi.s:23203  .debug_str:0000000000006c92 .LASF621
C:\Users\CYMR90~1\AppData\Local\Temp\ccxApcqi.s:30282  .debug_str:00000000000231ee .LASF622
C:\Users\CYMR90~1\AppData\Local\Temp\ccxApcqi.s:29388  .debug_str:000000000001fbf9 .LASF623
C:\Users\CYMR90~1\AppData\Local\Temp\ccxApcqi.s:31340  .debug_str:0000000000027771 .LASF624
C:\Users\CYMR90~1\AppData\Local\Temp\ccxApcqi.s:31944  .debug_str:0000000000029f06 .LASF625
C:\Users\CYMR90~1\AppData\Local\Temp\ccxApcqi.s:26441  .debug_str:0000000000013ec6 .LASF626
C:\Users\CYMR90~1\AppData\Local\Temp\ccxApcqi.s:32204  .debug_str:000000000002ae56 .LASF627
C:\Users\CYMR90~1\AppData\Local\Temp\ccxApcqi.s:26843  .debug_str:0000000000015774 .LASF628
C:\Users\CYMR90~1\AppData\Local\Temp\ccxApcqi.s:30034  .debug_str:000000000002234c .LASF629
C:\Users\CYMR90~1\AppData\Local\Temp\ccxApcqi.s:23603  .debug_str:00000000000087e0 .LASF630
C:\Users\CYMR90~1\AppData\Local\Temp\ccxApcqi.s:24799  .debug_str:000000000000d65a .LASF631
C:\Users\CYMR90~1\AppData\Local\Temp\ccxApcqi.s:29996  .debug_str:0000000000022135 .LASF632
C:\Users\CYMR90~1\AppData\Local\Temp\ccxApcqi.s:24517  .debug_str:000000000000c315 .LASF633
C:\Users\CYMR90~1\AppData\Local\Temp\ccxApcqi.s:21655  .debug_str:0000000000000b77 .LASF634
C:\Users\CYMR90~1\AppData\Local\Temp\ccxApcqi.s:27878  .debug_str:0000000000019bec .LASF635
C:\Users\CYMR90~1\AppData\Local\Temp\ccxApcqi.s:27043  .debug_str:00000000000164b4 .LASF636
C:\Users\CYMR90~1\AppData\Local\Temp\ccxApcqi.s:28646  .debug_str:000000000001cf43 .LASF637
C:\Users\CYMR90~1\AppData\Local\Temp\ccxApcqi.s:22361  .debug_str:0000000000003704 .LASF638
C:\Users\CYMR90~1\AppData\Local\Temp\ccxApcqi.s:25861  .debug_str:00000000000119b4 .LASF639
C:\Users\CYMR90~1\AppData\Local\Temp\ccxApcqi.s:23465  .debug_str:0000000000007e52 .LASF640
C:\Users\CYMR90~1\AppData\Local\Temp\ccxApcqi.s:26077  .debug_str:00000000000127bc .LASF641
C:\Users\CYMR90~1\AppData\Local\Temp\ccxApcqi.s:24309  .debug_str:000000000000b54b .LASF642
C:\Users\CYMR90~1\AppData\Local\Temp\ccxApcqi.s:31322  .debug_str:0000000000027603 .LASF643
C:\Users\CYMR90~1\AppData\Local\Temp\ccxApcqi.s:24677  .debug_str:000000000000ce0f .LASF644
C:\Users\CYMR90~1\AppData\Local\Temp\ccxApcqi.s:22533  .debug_str:000000000000426d .LASF645
C:\Users\CYMR90~1\AppData\Local\Temp\ccxApcqi.s:23349  .debug_str:0000000000007628 .LASF646
C:\Users\CYMR90~1\AppData\Local\Temp\ccxApcqi.s:22291  .debug_str:000000000000326b .LASF647
C:\Users\CYMR90~1\AppData\Local\Temp\ccxApcqi.s:22653  .debug_str:0000000000004ac3 .LASF648
C:\Users\CYMR90~1\AppData\Local\Temp\ccxApcqi.s:31844  .debug_str:000000000002990d .LASF649
C:\Users\CYMR90~1\AppData\Local\Temp\ccxApcqi.s:25781  .debug_str:000000000001136c .LASF650
C:\Users\CYMR90~1\AppData\Local\Temp\ccxApcqi.s:31960  .debug_str:0000000000029fe0 .LASF651
C:\Users\CYMR90~1\AppData\Local\Temp\ccxApcqi.s:25393  .debug_str:000000000000fb33 .LASF652
C:\Users\CYMR90~1\AppData\Local\Temp\ccxApcqi.s:21547  .debug_str:0000000000000488 .LASF653
C:\Users\CYMR90~1\AppData\Local\Temp\ccxApcqi.s:32188  .debug_str:000000000002ad7e .LASF654
C:\Users\CYMR90~1\AppData\Local\Temp\ccxApcqi.s:23699  .debug_str:0000000000008e15 .LASF655
C:\Users\CYMR90~1\AppData\Local\Temp\ccxApcqi.s:31396  .debug_str:0000000000027b7f .LASF656
C:\Users\CYMR90~1\AppData\Local\Temp\ccxApcqi.s:21599  .debug_str:00000000000007c0 .LASF657
C:\Users\CYMR90~1\AppData\Local\Temp\ccxApcqi.s:32010  .debug_str:000000000002a2dd .LASF658
C:\Users\CYMR90~1\AppData\Local\Temp\ccxApcqi.s:26173  .debug_str:0000000000012e1c .LASF659
C:\Users\CYMR90~1\AppData\Local\Temp\ccxApcqi.s:28576  .debug_str:000000000001c9ae .LASF660
C:\Users\CYMR90~1\AppData\Local\Temp\ccxApcqi.s:27870  .debug_str:0000000000019b97 .LASF661
C:\Users\CYMR90~1\AppData\Local\Temp\ccxApcqi.s:29236  .debug_str:000000000001f2cc .LASF662
C:\Users\CYMR90~1\AppData\Local\Temp\ccxApcqi.s:31184  .debug_str:0000000000026d5b .LASF663
C:\Users\CYMR90~1\AppData\Local\Temp\ccxApcqi.s:25761  .debug_str:0000000000011244 .LASF664
C:\Users\CYMR90~1\AppData\Local\Temp\ccxApcqi.s:25751  .debug_str:0000000000011197 .LASF665
C:\Users\CYMR90~1\AppData\Local\Temp\ccxApcqi.s:27650  .debug_str:0000000000018cbe .LASF666
C:\Users\CYMR90~1\AppData\Local\Temp\ccxApcqi.s:22943  .debug_str:0000000000005c78 .LASF667
C:\Users\CYMR90~1\AppData\Local\Temp\ccxApcqi.s:32680  .debug_str:000000000002ce2e .LASF668
C:\Users\CYMR90~1\AppData\Local\Temp\ccxApcqi.s:23317  .debug_str:0000000000007435 .LASF669
C:\Users\CYMR90~1\AppData\Local\Temp\ccxApcqi.s:29880  .debug_str:0000000000021a34 .LASF670
C:\Users\CYMR90~1\AppData\Local\Temp\ccxApcqi.s:26155  .debug_str:0000000000012cf9 .LASF671
C:\Users\CYMR90~1\AppData\Local\Temp\ccxApcqi.s:29288  .debug_str:000000000001f5b4 .LASF672
C:\Users\CYMR90~1\AppData\Local\Temp\ccxApcqi.s:30010  .debug_str:0000000000022206 .LASF673
C:\Users\CYMR90~1\AppData\Local\Temp\ccxApcqi.s:21931  .debug_str:0000000000001c69 .LASF674
C:\Users\CYMR90~1\AppData\Local\Temp\ccxApcqi.s:26829  .debug_str:0000000000015695 .LASF676
C:\Users\CYMR90~1\AppData\Local\Temp\ccxApcqi.s:30434  .debug_str:0000000000023b3f .LASF677
C:\Users\CYMR90~1\AppData\Local\Temp\ccxApcqi.s:27890  .debug_str:0000000000019c9a .LASF678
C:\Users\CYMR90~1\AppData\Local\Temp\ccxApcqi.s:30536  .debug_str:00000000000242ac .LASF679
C:\Users\CYMR90~1\AppData\Local\Temp\ccxApcqi.s:29004  .debug_str:000000000001e4f9 .LASF680
C:\Users\CYMR90~1\AppData\Local\Temp\ccxApcqi.s:31858  .debug_str:0000000000029a0a .LASF681
C:\Users\CYMR90~1\AppData\Local\Temp\ccxApcqi.s:22535  .debug_str:00000000000042ab .LASF682
C:\Users\CYMR90~1\AppData\Local\Temp\ccxApcqi.s:22461  .debug_str:0000000000003d6d .LASF683
C:\Users\CYMR90~1\AppData\Local\Temp\ccxApcqi.s:23833  .debug_str:0000000000009607 .LASF684
C:\Users\CYMR90~1\AppData\Local\Temp\ccxApcqi.s:28330  .debug_str:000000000001b983 .LASF685
C:\Users\CYMR90~1\AppData\Local\Temp\ccxApcqi.s:29742  .debug_str:00000000000211d0 .LASF686
C:\Users\CYMR90~1\AppData\Local\Temp\ccxApcqi.s:27099  .debug_str:0000000000016887 .LASF687
C:\Users\CYMR90~1\AppData\Local\Temp\ccxApcqi.s:25685  .debug_str:0000000000010d97 .LASF688
C:\Users\CYMR90~1\AppData\Local\Temp\ccxApcqi.s:22343  .debug_str:00000000000035ae .LASF689
C:\Users\CYMR90~1\AppData\Local\Temp\ccxApcqi.s:23209  .debug_str:0000000000006d11 .LASF690
C:\Users\CYMR90~1\AppData\Local\Temp\ccxApcqi.s:26027  .debug_str:0000000000012478 .LASF691
C:\Users\CYMR90~1\AppData\Local\Temp\ccxApcqi.s:26867  .debug_str:00000000000158de .LASF692
C:\Users\CYMR90~1\AppData\Local\Temp\ccxApcqi.s:22909  .debug_str:0000000000005a70 .LASF695
C:\Users\CYMR90~1\AppData\Local\Temp\ccxApcqi.s:27272  .debug_str:00000000000174ec .LASF696
C:\Users\CYMR90~1\AppData\Local\Temp\ccxApcqi.s:24705  .debug_str:000000000000cfdb .LASF697
C:\Users\CYMR90~1\AppData\Local\Temp\ccxApcqi.s:28300  .debug_str:000000000001b7f2 .LASF698
C:\Users\CYMR90~1\AppData\Local\Temp\ccxApcqi.s:30474  .debug_str:0000000000023d95 .LASF699
C:\Users\CYMR90~1\AppData\Local\Temp\ccxApcqi.s:26609  .debug_str:00000000000148f9 .LASF702
C:\Users\CYMR90~1\AppData\Local\Temp\ccxApcqi.s:23855  .debug_str:000000000000975e .LASF703
C:\Users\CYMR90~1\AppData\Local\Temp\ccxApcqi.s:29182  .debug_str:000000000001ef90 .LASF704
C:\Users\CYMR90~1\AppData\Local\Temp\ccxApcqi.s:22731  .debug_str:0000000000004f8c .LASF705
C:\Users\CYMR90~1\AppData\Local\Temp\ccxApcqi.s:26929  .debug_str:0000000000015d41 .LASF706
C:\Users\CYMR90~1\AppData\Local\Temp\ccxApcqi.s:25267  .debug_str:000000000000f30f .LASF707
C:\Users\CYMR90~1\AppData\Local\Temp\ccxApcqi.s:31592  .debug_str:000000000002893e .LASF708
C:\Users\CYMR90~1\AppData\Local\Temp\ccxApcqi.s:30842  .debug_str:000000000002581f .LASF709
C:\Users\CYMR90~1\AppData\Local\Temp\ccxApcqi.s:24913  .debug_str:000000000000dd7c .LASF710
C:\Users\CYMR90~1\AppData\Local\Temp\ccxApcqi.s:25429  .debug_str:000000000000fd90 .LASF711
C:\Users\CYMR90~1\AppData\Local\Temp\ccxApcqi.s:27073  .debug_str:000000000001667b .LASF712
C:\Users\CYMR90~1\AppData\Local\Temp\ccxApcqi.s:24089  .debug_str:000000000000a62e .LASF713
C:\Users\CYMR90~1\AppData\Local\Temp\ccxApcqi.s:32404  .debug_str:000000000002bbae .LASF714
C:\Users\CYMR90~1\AppData\Local\Temp\ccxApcqi.s:23449  .debug_str:0000000000007d45 .LASF715
C:\Users\CYMR90~1\AppData\Local\Temp\ccxApcqi.s:24349  .debug_str:000000000000b7d3 .LASF716
C:\Users\CYMR90~1\AppData\Local\Temp\ccxApcqi.s:29404  .debug_str:000000000001fd00 .LASF717
C:\Users\CYMR90~1\AppData\Local\Temp\ccxApcqi.s:30800  .debug_str:000000000002551b .LASF718
C:\Users\CYMR90~1\AppData\Local\Temp\ccxApcqi.s:30578  .debug_str:000000000002452e .LASF719
C:\Users\CYMR90~1\AppData\Local\Temp\ccxApcqi.s:27586  .debug_str:000000000001880b .LASF720
C:\Users\CYMR90~1\AppData\Local\Temp\ccxApcqi.s:21989  .debug_str:0000000000001fc1 .LASF721
C:\Users\CYMR90~1\AppData\Local\Temp\ccxApcqi.s:29516  .debug_str:00000000000203f4 .LASF722
C:\Users\CYMR90~1\AppData\Local\Temp\ccxApcqi.s:28492  .debug_str:000000000001c39f .LASF723
C:\Users\CYMR90~1\AppData\Local\Temp\ccxApcqi.s:29056  .debug_str:000000000001e85b .LASF724
C:\Users\CYMR90~1\AppData\Local\Temp\ccxApcqi.s:29988  .debug_str:00000000000220e3 .LASF725
C:\Users\CYMR90~1\AppData\Local\Temp\ccxApcqi.s:26273  .debug_str:0000000000013501 .LASF726
C:\Users\CYMR90~1\AppData\Local\Temp\ccxApcqi.s:24083  .debug_str:000000000000a5d4 .LASF727
C:\Users\CYMR90~1\AppData\Local\Temp\ccxApcqi.s:30936  .debug_str:0000000000025e06 .LASF728
C:\Users\CYMR90~1\AppData\Local\Temp\ccxApcqi.s:21895  .debug_str:0000000000001a39 .LASF729
C:\Users\CYMR90~1\AppData\Local\Temp\ccxApcqi.s:27772  .debug_str:00000000000194c4 .LASF730
C:\Users\CYMR90~1\AppData\Local\Temp\ccxApcqi.s:26245  .debug_str:0000000000013341 .LASF731
C:\Users\CYMR90~1\AppData\Local\Temp\ccxApcqi.s:30874  .debug_str:0000000000025a3d .LASF732
C:\Users\CYMR90~1\AppData\Local\Temp\ccxApcqi.s:32604  .debug_str:000000000002c92a .LASF733
C:\Users\CYMR90~1\AppData\Local\Temp\ccxApcqi.s:25735  .debug_str:0000000000011091 .LASF734
C:\Users\CYMR90~1\AppData\Local\Temp\ccxApcqi.s:25661  .debug_str:0000000000010c54 .LASF735
C:\Users\CYMR90~1\AppData\Local\Temp\ccxApcqi.s:32534  .debug_str:000000000002c478 .LASF736
C:\Users\CYMR90~1\AppData\Local\Temp\ccxApcqi.s:24647  .debug_str:000000000000cc13 .LASF737
C:\Users\CYMR90~1\AppData\Local\Temp\ccxApcqi.s:28644  .debug_str:000000000001cf32 .LASF738
C:\Users\CYMR90~1\AppData\Local\Temp\ccxApcqi.s:32290  .debug_str:000000000002b439 .LASF739
C:\Users\CYMR90~1\AppData\Local\Temp\ccxApcqi.s:21897  .debug_str:0000000000001a4c .LASF740
C:\Users\CYMR90~1\AppData\Local\Temp\ccxApcqi.s:24579  .debug_str:000000000000c766 .LASF741
C:\Users\CYMR90~1\AppData\Local\Temp\ccxApcqi.s:21873  .debug_str:00000000000018ff .LASF742
C:\Users\CYMR90~1\AppData\Local\Temp\ccxApcqi.s:25693  .debug_str:0000000000010dec .LASF743
C:\Users\CYMR90~1\AppData\Local\Temp\ccxApcqi.s:22329  .debug_str:00000000000034ed .LASF744
C:\Users\CYMR90~1\AppData\Local\Temp\ccxApcqi.s:23707  .debug_str:0000000000008e96 .LASF745
C:\Users\CYMR90~1\AppData\Local\Temp\ccxApcqi.s:30000  .debug_str:0000000000022184 .LASF746
C:\Users\CYMR90~1\AppData\Local\Temp\ccxApcqi.s:21769  .debug_str:0000000000001232 .LASF747
C:\Users\CYMR90~1\AppData\Local\Temp\ccxApcqi.s:21759  .debug_str:00000000000011b0 .LASF748
C:\Users\CYMR90~1\AppData\Local\Temp\ccxApcqi.s:25261  .debug_str:000000000000f2d1 .LASF750
C:\Users\CYMR90~1\AppData\Local\Temp\ccxApcqi.s:25613  .debug_str:000000000001089a .LASF751
C:\Users\CYMR90~1\AppData\Local\Temp\ccxApcqi.s:31748  .debug_str:0000000000029359 .LASF752
C:\Users\CYMR90~1\AppData\Local\Temp\ccxApcqi.s:25553  .debug_str:000000000001052b .LASF753
C:\Users\CYMR90~1\AppData\Local\Temp\ccxApcqi.s:22773  .debug_str:000000000000522a .LASF754
C:\Users\CYMR90~1\AppData\Local\Temp\ccxApcqi.s:24333  .debug_str:000000000000b6ed .LASF755
C:\Users\CYMR90~1\AppData\Local\Temp\ccxApcqi.s:27850  .debug_str:0000000000019a67 .LASF756
C:\Users\CYMR90~1\AppData\Local\Temp\ccxApcqi.s:23843  .debug_str:00000000000096b6 .LASF757
C:\Users\CYMR90~1\AppData\Local\Temp\ccxApcqi.s:30826  .debug_str:0000000000025737 .LASF758
C:\Users\CYMR90~1\AppData\Local\Temp\ccxApcqi.s:32640  .debug_str:000000000002cbc6 .LASF759
C:\Users\CYMR90~1\AppData\Local\Temp\ccxApcqi.s:28216  .debug_str:000000000001b2fb .LASF760
C:\Users\CYMR90~1\AppData\Local\Temp\ccxApcqi.s:32386  .debug_str:000000000002ba68 .LASF761
C:\Users\CYMR90~1\AppData\Local\Temp\ccxApcqi.s:24261  .debug_str:000000000000b1b2 .LASF762
C:\Users\CYMR90~1\AppData\Local\Temp\ccxApcqi.s:28224  .debug_str:000000000001b38f .LASF765
C:\Users\CYMR90~1\AppData\Local\Temp\ccxApcqi.s:26901  .debug_str:0000000000015b21 .LASF766
C:\Users\CYMR90~1\AppData\Local\Temp\ccxApcqi.s:29890  .debug_str:0000000000021ad2 .LASF767
C:\Users\CYMR90~1\AppData\Local\Temp\ccxApcqi.s:26891  .debug_str:0000000000015ab1 .LASF768
C:\Users\CYMR90~1\AppData\Local\Temp\ccxApcqi.s:22137  .debug_str:00000000000028b0 .LASF769
C:\Users\CYMR90~1\AppData\Local\Temp\ccxApcqi.s:28346  .debug_str:000000000001bac6 .LASF770
C:\Users\CYMR90~1\AppData\Local\Temp\ccxApcqi.s:26985  .debug_str:00000000000160ee .LASF771
C:\Users\CYMR90~1\AppData\Local\Temp\ccxApcqi.s:30544  .debug_str:000000000002431a .LASF772
C:\Users\CYMR90~1\AppData\Local\Temp\ccxApcqi.s:30178  .debug_str:0000000000022c0d .LASF773
C:\Users\CYMR90~1\AppData\Local\Temp\ccxApcqi.s:28662  .debug_str:000000000001d045 .LASF774
C:\Users\CYMR90~1\AppData\Local\Temp\ccxApcqi.s:30876  .debug_str:0000000000025a53 .LASF775
C:\Users\CYMR90~1\AppData\Local\Temp\ccxApcqi.s:23985  .debug_str:0000000000009fd6 .LASF776
C:\Users\CYMR90~1\AppData\Local\Temp\ccxApcqi.s:24001  .debug_str:000000000000a0da .LASF777
C:\Users\CYMR90~1\AppData\Local\Temp\ccxApcqi.s:28994  .debug_str:000000000001e458 .LASF778
C:\Users\CYMR90~1\AppData\Local\Temp\ccxApcqi.s:25493  .debug_str:00000000000101a8 .LASF779
C:\Users\CYMR90~1\AppData\Local\Temp\ccxApcqi.s:29246  .debug_str:000000000001f363 .LASF780
C:\Users\CYMR90~1\AppData\Local\Temp\ccxApcqi.s:29886  .debug_str:0000000000021a99 .LASF781
C:\Users\CYMR90~1\AppData\Local\Temp\ccxApcqi.s:25977  .debug_str:000000000001218f .LASF782
C:\Users\CYMR90~1\AppData\Local\Temp\ccxApcqi.s:27107  .debug_str:00000000000169aa .LASF783
C:\Users\CYMR90~1\AppData\Local\Temp\ccxApcqi.s:25877  .debug_str:0000000000011ab2 .LASF784
C:\Users\CYMR90~1\AppData\Local\Temp\ccxApcqi.s:25171  .debug_str:000000000000ed30 .LASF785
C:\Users\CYMR90~1\AppData\Local\Temp\ccxApcqi.s:30250  .debug_str:000000000002301c .LASF786
C:\Users\CYMR90~1\AppData\Local\Temp\ccxApcqi.s:26623  .debug_str:0000000000014a1e .LASF787
C:\Users\CYMR90~1\AppData\Local\Temp\ccxApcqi.s:28928  .debug_str:000000000001e081 .LASF788
C:\Users\CYMR90~1\AppData\Local\Temp\ccxApcqi.s:25351  .debug_str:000000000000f88d .LASF789
C:\Users\CYMR90~1\AppData\Local\Temp\ccxApcqi.s:22821  .debug_str:0000000000005505 .LASF790
C:\Users\CYMR90~1\AppData\Local\Temp\ccxApcqi.s:31226  .debug_str:0000000000027096 .LASF791
C:\Users\CYMR90~1\AppData\Local\Temp\ccxApcqi.s:23569  .debug_str:00000000000085ae .LASF792
C:\Users\CYMR90~1\AppData\Local\Temp\ccxApcqi.s:32610  .debug_str:000000000002c978 .LASF793
C:\Users\CYMR90~1\AppData\Local\Temp\ccxApcqi.s:23359  .debug_str:00000000000076fc .LASF794
C:\Users\CYMR90~1\AppData\Local\Temp\ccxApcqi.s:31474  .debug_str:000000000002815e .LASF795
C:\Users\CYMR90~1\AppData\Local\Temp\ccxApcqi.s:29490  .debug_str:0000000000020200 .LASF796
C:\Users\CYMR90~1\AppData\Local\Temp\ccxApcqi.s:32180  .debug_str:000000000002ad2d .LASF797
C:\Users\CYMR90~1\AppData\Local\Temp\ccxApcqi.s:23193  .debug_str:0000000000006bef .LASF798
C:\Users\CYMR90~1\AppData\Local\Temp\ccxApcqi.s:31534  .debug_str:00000000000285a3 .LASF799
C:\Users\CYMR90~1\AppData\Local\Temp\ccxApcqi.s:22787  .debug_str:00000000000052f6 .LASF800
C:\Users\CYMR90~1\AppData\Local\Temp\ccxApcqi.s:27990  .debug_str:000000000001a3f4 .LASF801
C:\Users\CYMR90~1\AppData\Local\Temp\ccxApcqi.s:28018  .debug_str:000000000001a5a3 .LASF802
C:\Users\CYMR90~1\AppData\Local\Temp\ccxApcqi.s:23905  .debug_str:0000000000009aec .LASF803
C:\Users\CYMR90~1\AppData\Local\Temp\ccxApcqi.s:26377  .debug_str:0000000000013b3c .LASF804
C:\Users\CYMR90~1\AppData\Local\Temp\ccxApcqi.s:23207  .debug_str:0000000000006cb6 .LASF805
C:\Users\CYMR90~1\AppData\Local\Temp\ccxApcqi.s:25831  .debug_str:000000000001172d .LASF806
C:\Users\CYMR90~1\AppData\Local\Temp\ccxApcqi.s:28950  .debug_str:000000000001e197 .LASF807
C:\Users\CYMR90~1\AppData\Local\Temp\ccxApcqi.s:28542  .debug_str:000000000001c783 .LASF808
C:\Users\CYMR90~1\AppData\Local\Temp\ccxApcqi.s:30946  .debug_str:0000000000025e9d .LASF809
C:\Users\CYMR90~1\AppData\Local\Temp\ccxApcqi.s:32390  .debug_str:000000000002babd .LASF810
C:\Users\CYMR90~1\AppData\Local\Temp\ccxApcqi.s:23593  .debug_str:0000000000008722 .LASF811
C:\Users\CYMR90~1\AppData\Local\Temp\ccxApcqi.s:22517  .debug_str:0000000000004195 .LASF812
C:\Users\CYMR90~1\AppData\Local\Temp\ccxApcqi.s:32424  .debug_str:000000000002bd71 .LASF813
C:\Users\CYMR90~1\AppData\Local\Temp\ccxApcqi.s:22885  .debug_str:00000000000058d7 .LASF814
C:\Users\CYMR90~1\AppData\Local\Temp\ccxApcqi.s:23103  .debug_str:0000000000006616 .LASF815
C:\Users\CYMR90~1\AppData\Local\Temp\ccxApcqi.s:28314  .debug_str:000000000001b8b0 .LASF816
C:\Users\CYMR90~1\AppData\Local\Temp\ccxApcqi.s:23771  .debug_str:000000000000922f .LASF817
C:\Users\CYMR90~1\AppData\Local\Temp\ccxApcqi.s:28460  .debug_str:000000000001c1f8 .LASF818
C:\Users\CYMR90~1\AppData\Local\Temp\ccxApcqi.s:28350  .debug_str:000000000001bade .LASF819
C:\Users\CYMR90~1\AppData\Local\Temp\ccxApcqi.s:21641  .debug_str:0000000000000a7d .LASF820
C:\Users\CYMR90~1\AppData\Local\Temp\ccxApcqi.s:32012  .debug_str:000000000002a2ed .LASF821
C:\Users\CYMR90~1\AppData\Local\Temp\ccxApcqi.s:30540  .debug_str:00000000000242ea .LASF822
C:\Users\CYMR90~1\AppData\Local\Temp\ccxApcqi.s:23737  .debug_str:0000000000009011 .LASF823
C:\Users\CYMR90~1\AppData\Local\Temp\ccxApcqi.s:27031  .debug_str:0000000000016411 .LASF824
C:\Users\CYMR90~1\AppData\Local\Temp\ccxApcqi.s:28648  .debug_str:000000000001cf6d .LASF825
C:\Users\CYMR90~1\AppData\Local\Temp\ccxApcqi.s:26827  .debug_str:0000000000015674 .LASF826
C:\Users\CYMR90~1\AppData\Local\Temp\ccxApcqi.s:22411  .debug_str:0000000000003a64 .LASF827
C:\Users\CYMR90~1\AppData\Local\Temp\ccxApcqi.s:25151  .debug_str:000000000000ec23 .LASF828
C:\Users\CYMR90~1\AppData\Local\Temp\ccxApcqi.s:30646  .debug_str:00000000000249ee .LASF829
C:\Users\CYMR90~1\AppData\Local\Temp\ccxApcqi.s:30816  .debug_str:0000000000025677 .LASF830
C:\Users\CYMR90~1\AppData\Local\Temp\ccxApcqi.s:24339  .debug_str:000000000000b748 .LASF831
C:\Users\CYMR90~1\AppData\Local\Temp\ccxApcqi.s:25097  .debug_str:000000000000e8f5 .LASF832
C:\Users\CYMR90~1\AppData\Local\Temp\ccxApcqi.s:22971  .debug_str:0000000000005e03 .LASF833
C:\Users\CYMR90~1\AppData\Local\Temp\ccxApcqi.s:25737  .debug_str:00000000000110a2 .LASF834
C:\Users\CYMR90~1\AppData\Local\Temp\ccxApcqi.s:27510  .debug_str:0000000000018368 .LASF835
C:\Users\CYMR90~1\AppData\Local\Temp\ccxApcqi.s:25643  .debug_str:0000000000010ae1 .LASF836
C:\Users\CYMR90~1\AppData\Local\Temp\ccxApcqi.s:29396  .debug_str:000000000001fc9b .LASF837
C:\Users\CYMR90~1\AppData\Local\Temp\ccxApcqi.s:23641  .debug_str:0000000000008a71 .LASF838
C:\Users\CYMR90~1\AppData\Local\Temp\ccxApcqi.s:22809  .debug_str:0000000000005466 .LASF839
C:\Users\CYMR90~1\AppData\Local\Temp\ccxApcqi.s:25541  .debug_str:0000000000010460 .LASF840
C:\Users\CYMR90~1\AppData\Local\Temp\ccxApcqi.s:24469  .debug_str:000000000000c041 .LASF841
C:\Users\CYMR90~1\AppData\Local\Temp\ccxApcqi.s:28558  .debug_str:000000000001c8a8 .LASF842
C:\Users\CYMR90~1\AppData\Local\Temp\ccxApcqi.s:21711  .debug_str:0000000000000f11 .LASF843
C:\Users\CYMR90~1\AppData\Local\Temp\ccxApcqi.s:22075  .debug_str:00000000000024a2 .LASF844
C:\Users\CYMR90~1\AppData\Local\Temp\ccxApcqi.s:30396  .debug_str:0000000000023914 .LASF845
C:\Users\CYMR90~1\AppData\Local\Temp\ccxApcqi.s:21479  .debug_str:0000000000000096 .LASF846
C:\Users\CYMR90~1\AppData\Local\Temp\ccxApcqi.s:23439  .debug_str:0000000000007cb8 .LASF847
C:\Users\CYMR90~1\AppData\Local\Temp\ccxApcqi.s:29252  .debug_str:000000000001f3b1 .LASF848
C:\Users\CYMR90~1\AppData\Local\Temp\ccxApcqi.s:23407  .debug_str:0000000000007a2f .LASF849
C:\Users\CYMR90~1\AppData\Local\Temp\ccxApcqi.s:24759  .debug_str:000000000000d3e1 .LASF852
C:\Users\CYMR90~1\AppData\Local\Temp\ccxApcqi.s:31586  .debug_str:00000000000288e6 .LASF853
C:\Users\CYMR90~1\AppData\Local\Temp\ccxApcqi.s:26679  .debug_str:0000000000014e0f .LASF854
C:\Users\CYMR90~1\AppData\Local\Temp\ccxApcqi.s:29896  .debug_str:0000000000021b67 .LASF856
C:\Users\CYMR90~1\AppData\Local\Temp\ccxApcqi.s:28786  .debug_str:000000000001d7dc .LASF857
C:\Users\CYMR90~1\AppData\Local\Temp\ccxApcqi.s:31408  .debug_str:0000000000027c33 .LASF858
C:\Users\CYMR90~1\AppData\Local\Temp\ccxApcqi.s:24747  .debug_str:000000000000d312 .LASF859
C:\Users\CYMR90~1\AppData\Local\Temp\ccxApcqi.s:25691  .debug_str:0000000000010de2 .LASF860
C:\Users\CYMR90~1\AppData\Local\Temp\ccxApcqi.s:29826  .debug_str:00000000000216d2 .LASF861
C:\Users\CYMR90~1\AppData\Local\Temp\ccxApcqi.s:28986  .debug_str:000000000001e408 .LASF862
C:\Users\CYMR90~1\AppData\Local\Temp\ccxApcqi.s:21807  .debug_str:0000000000001476 .LASF863
C:\Users\CYMR90~1\AppData\Local\Temp\ccxApcqi.s:22465  .debug_str:0000000000003d9b .LASF864
C:\Users\CYMR90~1\AppData\Local\Temp\ccxApcqi.s:22855  .debug_str:0000000000005725 .LASF865
C:\Users\CYMR90~1\AppData\Local\Temp\ccxApcqi.s:24033  .debug_str:000000000000a2f1 .LASF866
C:\Users\CYMR90~1\AppData\Local\Temp\ccxApcqi.s:23509  .debug_str:00000000000081e1 .LASF867
C:\Users\CYMR90~1\AppData\Local\Temp\ccxApcqi.s:28714  .debug_str:000000000001d326 .LASF868
C:\Users\CYMR90~1\AppData\Local\Temp\ccxApcqi.s:29336  .debug_str:000000000001f8de .LASF869
C:\Users\CYMR90~1\AppData\Local\Temp\ccxApcqi.s:30410  .debug_str:00000000000239d8 .LASF870
C:\Users\CYMR90~1\AppData\Local\Temp\ccxApcqi.s:23679  .debug_str:0000000000008cf7 .LASF871
C:\Users\CYMR90~1\AppData\Local\Temp\ccxApcqi.s:24107  .debug_str:000000000000a793 .LASF872
C:\Users\CYMR90~1\AppData\Local\Temp\ccxApcqi.s:28550  .debug_str:000000000001c827 .LASF873
C:\Users\CYMR90~1\AppData\Local\Temp\ccxApcqi.s:31116  .debug_str:0000000000026905 .LASF874
C:\Users\CYMR90~1\AppData\Local\Temp\ccxApcqi.s:25897  .debug_str:0000000000011bca .LASF875
C:\Users\CYMR90~1\AppData\Local\Temp\ccxApcqi.s:26587  .debug_str:00000000000147fc .LASF876
C:\Users\CYMR90~1\AppData\Local\Temp\ccxApcqi.s:23911  .debug_str:0000000000009b41 .LASF877
C:\Users\CYMR90~1\AppData\Local\Temp\ccxApcqi.s:28254  .debug_str:000000000001b562 .LASF878
C:\Users\CYMR90~1\AppData\Local\Temp\ccxApcqi.s:25689  .debug_str:0000000000010dd4 .LASF879
C:\Users\CYMR90~1\AppData\Local\Temp\ccxApcqi.s:27220  .debug_str:00000000000171d9 .LASF880
C:\Users\CYMR90~1\AppData\Local\Temp\ccxApcqi.s:22789  .debug_str:000000000000530f .LASF881
C:\Users\CYMR90~1\AppData\Local\Temp\ccxApcqi.s:26115  .debug_str:0000000000012a70 .LASF882
C:\Users\CYMR90~1\AppData\Local\Temp\ccxApcqi.s:29222  .debug_str:000000000001f213 .LASF883
C:\Users\CYMR90~1\AppData\Local\Temp\ccxApcqi.s:29408  .debug_str:000000000001fd2d .LASF884
C:\Users\CYMR90~1\AppData\Local\Temp\ccxApcqi.s:32664  .debug_str:000000000002cd0c .LASF885
C:\Users\CYMR90~1\AppData\Local\Temp\ccxApcqi.s:28260  .debug_str:000000000001b5ba .LASF886
C:\Users\CYMR90~1\AppData\Local\Temp\ccxApcqi.s:23783  .debug_str:00000000000092d6 .LASF887
C:\Users\CYMR90~1\AppData\Local\Temp\ccxApcqi.s:30362  .debug_str:000000000002373c .LASF888
C:\Users\CYMR90~1\AppData\Local\Temp\ccxApcqi.s:26053  .debug_str:000000000001263a .LASF889
C:\Users\CYMR90~1\AppData\Local\Temp\ccxApcqi.s:30298  .debug_str:00000000000232f8 .LASF890
C:\Users\CYMR90~1\AppData\Local\Temp\ccxApcqi.s:22613  .debug_str:0000000000004862 .LASF891
C:\Users\CYMR90~1\AppData\Local\Temp\ccxApcqi.s:25043  .debug_str:000000000000e588 .LASF892
C:\Users\CYMR90~1\AppData\Local\Temp\ccxApcqi.s:31060  .debug_str:00000000000265b4 .LASF893
C:\Users\CYMR90~1\AppData\Local\Temp\ccxApcqi.s:30456  .debug_str:0000000000023ca2 .LASF894
C:\Users\CYMR90~1\AppData\Local\Temp\ccxApcqi.s:21781  .debug_str:00000000000012dc .LASF895
C:\Users\CYMR90~1\AppData\Local\Temp\ccxApcqi.s:26443  .debug_str:0000000000013efe .LASF896
C:\Users\CYMR90~1\AppData\Local\Temp\ccxApcqi.s:22703  .debug_str:0000000000004dd9 .LASF897
C:\Users\CYMR90~1\AppData\Local\Temp\ccxApcqi.s:23901  .debug_str:0000000000009aad .LASF898
C:\Users\CYMR90~1\AppData\Local\Temp\ccxApcqi.s:31352  .debug_str:0000000000027881 .LASF899
C:\Users\CYMR90~1\AppData\Local\Temp\ccxApcqi.s:24219  .debug_str:000000000000af5d .LASF900
C:\Users\CYMR90~1\AppData\Local\Temp\ccxApcqi.s:28306  .debug_str:000000000001b828 .LASF901
C:\Users\CYMR90~1\AppData\Local\Temp\ccxApcqi.s:31880  .debug_str:0000000000029b65 .LASF902
C:\Users\CYMR90~1\AppData\Local\Temp\ccxApcqi.s:30644  .debug_str:00000000000249c8 .LASF903
C:\Users\CYMR90~1\AppData\Local\Temp\ccxApcqi.s:31496  .debug_str:00000000000282c9 .LASF904
C:\Users\CYMR90~1\AppData\Local\Temp\ccxApcqi.s:26099  .debug_str:0000000000012962 .LASF905
C:\Users\CYMR90~1\AppData\Local\Temp\ccxApcqi.s:23557  .debug_str:000000000000850b .LASF906
C:\Users\CYMR90~1\AppData\Local\Temp\ccxApcqi.s:28642  .debug_str:000000000001cf16 .LASF907
C:\Users\CYMR90~1\AppData\Local\Temp\ccxApcqi.s:25039  .debug_str:000000000000e545 .LASF908
C:\Users\CYMR90~1\AppData\Local\Temp\ccxApcqi.s:31326  .debug_str:0000000000027663 .LASF909
C:\Users\CYMR90~1\AppData\Local\Temp\ccxApcqi.s:25663  .debug_str:0000000000010c65 .LASF910
C:\Users\CYMR90~1\AppData\Local\Temp\ccxApcqi.s:22171  .debug_str:0000000000002ab9 .LASF911
C:\Users\CYMR90~1\AppData\Local\Temp\ccxApcqi.s:21753  .debug_str:0000000000001173 .LASF912
C:\Users\CYMR90~1\AppData\Local\Temp\ccxApcqi.s:29744  .debug_str:00000000000211f4 .LASF913
C:\Users\CYMR90~1\AppData\Local\Temp\ccxApcqi.s:30624  .debug_str:0000000000024883 .LASF914
C:\Users\CYMR90~1\AppData\Local\Temp\ccxApcqi.s:24591  .debug_str:000000000000c838 .LASF915
C:\Users\CYMR90~1\AppData\Local\Temp\ccxApcqi.s:24901  .debug_str:000000000000dc74 .LASF916
C:\Users\CYMR90~1\AppData\Local\Temp\ccxApcqi.s:25475  .debug_str:000000000001007a .LASF917
C:\Users\CYMR90~1\AppData\Local\Temp\ccxApcqi.s:32130  .debug_str:000000000002aa09 .LASF918
C:\Users\CYMR90~1\AppData\Local\Temp\ccxApcqi.s:21739  .debug_str:000000000000107f .LASF919
C:\Users\CYMR90~1\AppData\Local\Temp\ccxApcqi.s:24205  .debug_str:000000000000ae72 .LASF920
C:\Users\CYMR90~1\AppData\Local\Temp\ccxApcqi.s:30580  .debug_str:0000000000024543 .LASF921
C:\Users\CYMR90~1\AppData\Local\Temp\ccxApcqi.s:28012  .debug_str:000000000001a531 .LASF922
C:\Users\CYMR90~1\AppData\Local\Temp\ccxApcqi.s:31094  .debug_str:00000000000267bf .LASF923
C:\Users\CYMR90~1\AppData\Local\Temp\ccxApcqi.s:27146  .debug_str:0000000000016db1 .LASF924
C:\Users\CYMR90~1\AppData\Local\Temp\ccxApcqi.s:22129  .debug_str:000000000000281d .LASF925
C:\Users\CYMR90~1\AppData\Local\Temp\ccxApcqi.s:28218  .debug_str:000000000001b335 .LASF926
C:\Users\CYMR90~1\AppData\Local\Temp\ccxApcqi.s:21851  .debug_str:000000000000178d .LASF927
C:\Users\CYMR90~1\AppData\Local\Temp\ccxApcqi.s:26615  .debug_str:0000000000014998 .LASF928
C:\Users\CYMR90~1\AppData\Local\Temp\ccxApcqi.s:29284  .debug_str:000000000001f57b .LASF929
C:\Users\CYMR90~1\AppData\Local\Temp\ccxApcqi.s:32388  .debug_str:000000000002baa0 .LASF930
C:\Users\CYMR90~1\AppData\Local\Temp\ccxApcqi.s:32602  .debug_str:000000000002c90c .LASF931
C:\Users\CYMR90~1\AppData\Local\Temp\ccxApcqi.s:29184  .debug_str:000000000001efa4 .LASF932
C:\Users\CYMR90~1\AppData\Local\Temp\ccxApcqi.s:31860  .debug_str:0000000000029a1a .LASF933
C:\Users\CYMR90~1\AppData\Local\Temp\ccxApcqi.s:26949  .debug_str:0000000000015ec9 .LASF934
C:\Users\CYMR90~1\AppData\Local\Temp\ccxApcqi.s:27782  .debug_str:0000000000019544 .LASF935
C:\Users\CYMR90~1\AppData\Local\Temp\ccxApcqi.s:26831  .debug_str:00000000000156a9 .LASF936
C:\Users\CYMR90~1\AppData\Local\Temp\ccxApcqi.s:30716  .debug_str:0000000000024eea .LASF937
C:\Users\CYMR90~1\AppData\Local\Temp\ccxApcqi.s:21659  .debug_str:0000000000000bb0 .LASF938
C:\Users\CYMR90~1\AppData\Local\Temp\ccxApcqi.s:29554  .debug_str:000000000002064d .LASF939
C:\Users\CYMR90~1\AppData\Local\Temp\ccxApcqi.s:30802  .debug_str:0000000000025527 .LASF940
C:\Users\CYMR90~1\AppData\Local\Temp\ccxApcqi.s:24341  .debug_str:000000000000b766 .LASF941
C:\Users\CYMR90~1\AppData\Local\Temp\ccxApcqi.s:28000  .debug_str:000000000001a478 .LASF942
C:\Users\CYMR90~1\AppData\Local\Temp\ccxApcqi.s:25085  .debug_str:000000000000e803 .LASF943
C:\Users\CYMR90~1\AppData\Local\Temp\ccxApcqi.s:30742  .debug_str:0000000000025126 .LASF944
C:\Users\CYMR90~1\AppData\Local\Temp\ccxApcqi.s:28402  .debug_str:000000000001be7e .LASF945
C:\Users\CYMR90~1\AppData\Local\Temp\ccxApcqi.s:25289  .debug_str:000000000000f45d .LASF946
C:\Users\CYMR90~1\AppData\Local\Temp\ccxApcqi.s:27298  .debug_str:0000000000017694 .LASF947
C:\Users\CYMR90~1\AppData\Local\Temp\ccxApcqi.s:28914  .debug_str:000000000001dfab .LASF948
C:\Users\CYMR90~1\AppData\Local\Temp\ccxApcqi.s:25639  .debug_str:0000000000010aa3 .LASF949
C:\Users\CYMR90~1\AppData\Local\Temp\ccxApcqi.s:24653  .debug_str:000000000000cc69 .LASF950
C:\Users\CYMR90~1\AppData\Local\Temp\ccxApcqi.s:23269  .debug_str:000000000000710c .LASF952
C:\Users\CYMR90~1\AppData\Local\Temp\ccxApcqi.s:26753  .debug_str:000000000001524d .LASF953
C:\Users\CYMR90~1\AppData\Local\Temp\ccxApcqi.s:24687  .debug_str:000000000000ceba .LASF954
C:\Users\CYMR90~1\AppData\Local\Temp\ccxApcqi.s:32594  .debug_str:000000000002c897 .LASF955
C:\Users\CYMR90~1\AppData\Local\Temp\ccxApcqi.s:31762  .debug_str:0000000000029402 .LASF956
C:\Users\CYMR90~1\AppData\Local\Temp\ccxApcqi.s:31850  .debug_str:0000000000029984 .LASF960
C:\Users\CYMR90~1\AppData\Local\Temp\ccxApcqi.s:23809  .debug_str:00000000000094c2 .LASF961
C:\Users\CYMR90~1\AppData\Local\Temp\ccxApcqi.s:31124  .debug_str:0000000000026990 .LASF962
C:\Users\CYMR90~1\AppData\Local\Temp\ccxApcqi.s:25869  .debug_str:0000000000011a36 .LASF963
C:\Users\CYMR90~1\AppData\Local\Temp\ccxApcqi.s:23295  .debug_str:00000000000072f3 .LASF964
C:\Users\CYMR90~1\AppData\Local\Temp\ccxApcqi.s:29926  .debug_str:0000000000021d19 .LASF965
C:\Users\CYMR90~1\AppData\Local\Temp\ccxApcqi.s:28212  .debug_str:000000000001b2c9 .LASF966
C:\Users\CYMR90~1\AppData\Local\Temp\ccxApcqi.s:31066  .debug_str:0000000000026610 .LASF967
C:\Users\CYMR90~1\AppData\Local\Temp\ccxApcqi.s:32174  .debug_str:000000000002acbf .LASF968
C:\Users\CYMR90~1\AppData\Local\Temp\ccxApcqi.s:23029  .debug_str:00000000000061af .LASF969
C:\Users\CYMR90~1\AppData\Local\Temp\ccxApcqi.s:26483  .debug_str:00000000000141b0 .LASF970
C:\Users\CYMR90~1\AppData\Local\Temp\ccxApcqi.s:32262  .debug_str:000000000002b266 .LASF971
C:\Users\CYMR90~1\AppData\Local\Temp\ccxApcqi.s:25095  .debug_str:000000000000e8cf .LASF972
C:\Users\CYMR90~1\AppData\Local\Temp\ccxApcqi.s:25063  .debug_str:000000000000e6bb .LASF973
C:\Users\CYMR90~1\AppData\Local\Temp\ccxApcqi.s:24711  .debug_str:000000000000d034 .LASF974
C:\Users\CYMR90~1\AppData\Local\Temp\ccxApcqi.s:27079  .debug_str:00000000000166f5 .LASF975
C:\Users\CYMR90~1\AppData\Local\Temp\ccxApcqi.s:32626  .debug_str:000000000002ca56 .LASF976
C:\Users\CYMR90~1\AppData\Local\Temp\ccxApcqi.s:24649  .debug_str:000000000000cc24 .LASF977
C:\Users\CYMR90~1\AppData\Local\Temp\ccxApcqi.s:32652  .debug_str:000000000002cc7b .LASF978
C:\Users\CYMR90~1\AppData\Local\Temp\ccxApcqi.s:30906  .debug_str:0000000000025c0e .LASF979
C:\Users\CYMR90~1\AppData\Local\Temp\ccxApcqi.s:30966  .debug_str:0000000000025fd3 .LASF980
C:\Users\CYMR90~1\AppData\Local\Temp\ccxApcqi.s:25149  .debug_str:000000000000ec09 .LASF981
C:\Users\CYMR90~1\AppData\Local\Temp\ccxApcqi.s:22741  .debug_str:0000000000005036 .LASF982
C:\Users\CYMR90~1\AppData\Local\Temp\ccxApcqi.s:25893  .debug_str:0000000000011bad .LASF983
C:\Users\CYMR90~1\AppData\Local\Temp\ccxApcqi.s:23683  .debug_str:0000000000008d17 .LASF984
C:\Users\CYMR90~1\AppData\Local\Temp\ccxApcqi.s:28638  .debug_str:000000000001ce4f .LASF985
C:\Users\CYMR90~1\AppData\Local\Temp\ccxApcqi.s:30210  .debug_str:0000000000022df0 .LASF986
C:\Users\CYMR90~1\AppData\Local\Temp\ccxApcqi.s:26897  .debug_str:0000000000015afd .LASF987
C:\Users\CYMR90~1\AppData\Local\Temp\ccxApcqi.s:22189  .debug_str:0000000000002bcc .LASF988
C:\Users\CYMR90~1\AppData\Local\Temp\ccxApcqi.s:30124  .debug_str:0000000000022914 .LASF989
C:\Users\CYMR90~1\AppData\Local\Temp\ccxApcqi.s:27600  .debug_str:00000000000188cc .LASF990
C:\Users\CYMR90~1\AppData\Local\Temp\ccxApcqi.s:24645  .debug_str:000000000000cbfc .LASF991
C:\Users\CYMR90~1\AppData\Local\Temp\ccxApcqi.s:31068  .debug_str:0000000000026638 .LASF992
C:\Users\CYMR90~1\AppData\Local\Temp\ccxApcqi.s:23313  .debug_str:00000000000073fc .LASF993
C:\Users\CYMR90~1\AppData\Local\Temp\ccxApcqi.s:30886  .debug_str:0000000000025abd .LASF994
C:\Users\CYMR90~1\AppData\Local\Temp\ccxApcqi.s:27684  .debug_str:0000000000018f78 .LASF995
C:\Users\CYMR90~1\AppData\Local\Temp\ccxApcqi.s:31670  .debug_str:0000000000028e0f .LASF996
C:\Users\CYMR90~1\AppData\Local\Temp\ccxApcqi.s:28826  .debug_str:000000000001da18 .LASF997
C:\Users\CYMR90~1\AppData\Local\Temp\ccxApcqi.s:28894  .debug_str:000000000001de52 .LASF998
C:\Users\CYMR90~1\AppData\Local\Temp\ccxApcqi.s:22087  .debug_str:0000000000002510 .LASF999
C:\Users\CYMR90~1\AppData\Local\Temp\ccxApcqi.s:22417  .debug_str:0000000000003abc .LASF1000
C:\Users\CYMR90~1\AppData\Local\Temp\ccxApcqi.s:30556  .debug_str:00000000000243d8 .LASF1001
C:\Users\CYMR90~1\AppData\Local\Temp\ccxApcqi.s:25483  .debug_str:0000000000010102 .LASF1002
C:\Users\CYMR90~1\AppData\Local\Temp\ccxApcqi.s:22695  .debug_str:0000000000004d80 .LASF1003
C:\Users\CYMR90~1\AppData\Local\Temp\ccxApcqi.s:28444  .debug_str:000000000001c111 .LASF1004
C:\Users\CYMR90~1\AppData\Local\Temp\ccxApcqi.s:25847  .debug_str:0000000000011851 .LASF1005
C:\Users\CYMR90~1\AppData\Local\Temp\ccxApcqi.s:24607  .debug_str:000000000000c9e6 .LASF1006
C:\Users\CYMR90~1\AppData\Local\Temp\ccxApcqi.s:23003  .debug_str:0000000000006018 .LASF1007
C:\Users\CYMR90~1\AppData\Local\Temp\ccxApcqi.s:29922  .debug_str:0000000000021ce1 .LASF1008
C:\Users\CYMR90~1\AppData\Local\Temp\ccxApcqi.s:27376  .debug_str:0000000000017b63 .LASF1009
C:\Users\CYMR90~1\AppData\Local\Temp\ccxApcqi.s:27534  .debug_str:00000000000184b0 .LASF1010
C:\Users\CYMR90~1\AppData\Local\Temp\ccxApcqi.s:24919  .debug_str:000000000000ddca .LASF1011
C:\Users\CYMR90~1\AppData\Local\Temp\ccxApcqi.s:28684  .debug_str:000000000001d165 .LASF1012
C:\Users\CYMR90~1\AppData\Local\Temp\ccxApcqi.s:30128  .debug_str:000000000002293f .LASF1013
C:\Users\CYMR90~1\AppData\Local\Temp\ccxApcqi.s:27800  .debug_str:00000000000196c9 .LASF1014
C:\Users\CYMR90~1\AppData\Local\Temp\ccxApcqi.s:22415  .debug_str:0000000000003aa6 .LASF1015
C:\Users\CYMR90~1\AppData\Local\Temp\ccxApcqi.s:22893  .debug_str:000000000000592d .LASF1016
C:\Users\CYMR90~1\AppData\Local\Temp\ccxApcqi.s:22845  .debug_str:000000000000568e .LASF1017
C:\Users\CYMR90~1\AppData\Local\Temp\ccxApcqi.s:31216  .debug_str:0000000000026f56 .LASF1018
C:\Users\CYMR90~1\AppData\Local\Temp\ccxApcqi.s:25159  .debug_str:000000000000ec8b .LASF1019
C:\Users\CYMR90~1\AppData\Local\Temp\ccxApcqi.s:22081  .debug_str:00000000000024c7 .LASF1020
C:\Users\CYMR90~1\AppData\Local\Temp\ccxApcqi.s:27416  .debug_str:0000000000017dd3 .LASF1021
C:\Users\CYMR90~1\AppData\Local\Temp\ccxApcqi.s:24467  .debug_str:000000000000c029 .LASF1022
C:\Users\CYMR90~1\AppData\Local\Temp\ccxApcqi.s:31144  .debug_str:0000000000026ac3 .LASF1023
C:\Users\CYMR90~1\AppData\Local\Temp\ccxApcqi.s:23719  .debug_str:0000000000008f39 .LASF1024
C:\Users\CYMR90~1\AppData\Local\Temp\ccxApcqi.s:26167  .debug_str:0000000000012db6 .LASF1025
C:\Users\CYMR90~1\AppData\Local\Temp\ccxApcqi.s:25667  .debug_str:0000000000010ca6 .LASF1026
C:\Users\CYMR90~1\AppData\Local\Temp\ccxApcqi.s:26607  .debug_str:00000000000148e4 .LASF1027
C:\Users\CYMR90~1\AppData\Local\Temp\ccxApcqi.s:28764  .debug_str:000000000001d65f .LASF1028
C:\Users\CYMR90~1\AppData\Local\Temp\ccxApcqi.s:29142  .debug_str:000000000001ecfe .LASF1029
C:\Users\CYMR90~1\AppData\Local\Temp\ccxApcqi.s:30428  .debug_str:0000000000023aed .LASF1030
C:\Users\CYMR90~1\AppData\Local\Temp\ccxApcqi.s:29510  .debug_str:00000000000203ae .LASF1031
C:\Users\CYMR90~1\AppData\Local\Temp\ccxApcqi.s:31764  .debug_str:000000000002946a .LASF1032
C:\Users\CYMR90~1\AppData\Local\Temp\ccxApcqi.s:23863  .debug_str:0000000000009835 .LASF1033
C:\Users\CYMR90~1\AppData\Local\Temp\ccxApcqi.s:22749  .debug_str:00000000000050b8 .LASF1034
C:\Users\CYMR90~1\AppData\Local\Temp\ccxApcqi.s:27728  .debug_str:0000000000019217 .LASF1035
C:\Users\CYMR90~1\AppData\Local\Temp\ccxApcqi.s:27992  .debug_str:000000000001a40e .LASF1036
C:\Users\CYMR90~1\AppData\Local\Temp\ccxApcqi.s:30224  .debug_str:0000000000022e87 .LASF1037
C:\Users\CYMR90~1\AppData\Local\Temp\ccxApcqi.s:25329  .debug_str:000000000000f772 .LASF1038
C:\Users\CYMR90~1\AppData\Local\Temp\ccxApcqi.s:28868  .debug_str:000000000001dcc8 .LASF1039
C:\Users\CYMR90~1\AppData\Local\Temp\ccxApcqi.s:26769  .debug_str:0000000000015364 .LASF1040
C:\Users\CYMR90~1\AppData\Local\Temp\ccxApcqi.s:25235  .debug_str:000000000000f114 .LASF1041
C:\Users\CYMR90~1\AppData\Local\Temp\ccxApcqi.s:30956  .debug_str:0000000000025f3a .LASF1042
C:\Users\CYMR90~1\AppData\Local\Temp\ccxApcqi.s:25485  .debug_str:0000000000010119 .LASF1043
C:\Users\CYMR90~1\AppData\Local\Temp\ccxApcqi.s:21497  .debug_str:0000000000000193 .LASF1044
C:\Users\CYMR90~1\AppData\Local\Temp\ccxApcqi.s:23731  .debug_str:0000000000008fc0 .LASF1045
C:\Users\CYMR90~1\AppData\Local\Temp\ccxApcqi.s:27924  .debug_str:0000000000019ea2 .LASF1046
C:\Users\CYMR90~1\AppData\Local\Temp\ccxApcqi.s:27015  .debug_str:00000000000162a0 .LASF1047
C:\Users\CYMR90~1\AppData\Local\Temp\ccxApcqi.s:30272  .debug_str:000000000002315c .LASF1048
C:\Users\CYMR90~1\AppData\Local\Temp\ccxApcqi.s:29108  .debug_str:000000000001eb24 .LASF1049
C:\Users\CYMR90~1\AppData\Local\Temp\ccxApcqi.s:22259  .debug_str:0000000000003061 .LASF1050
C:\Users\CYMR90~1\AppData\Local\Temp\ccxApcqi.s:29118  .debug_str:000000000001ebaf .LASF1051
C:\Users\CYMR90~1\AppData\Local\Temp\ccxApcqi.s:29318  .debug_str:000000000001f7aa .LASF1052
C:\Users\CYMR90~1\AppData\Local\Temp\ccxApcqi.s:24217  .debug_str:000000000000af4b .LASF1053
C:\Users\CYMR90~1\AppData\Local\Temp\ccxApcqi.s:30168  .debug_str:0000000000022b84 .LASF1054
C:\Users\CYMR90~1\AppData\Local\Temp\ccxApcqi.s:26141  .debug_str:0000000000012c06 .LASF1055
C:\Users\CYMR90~1\AppData\Local\Temp\ccxApcqi.s:25091  .debug_str:000000000000e87d .LASF1056
C:\Users\CYMR90~1\AppData\Local\Temp\ccxApcqi.s:31388  .debug_str:0000000000027b0a .LASF1057
C:\Users\CYMR90~1\AppData\Local\Temp\ccxApcqi.s:31974  .debug_str:000000000002a08e .LASF1058
C:\Users\CYMR90~1\AppData\Local\Temp\ccxApcqi.s:30714  .debug_str:0000000000024ec8 .LASF1059
C:\Users\CYMR90~1\AppData\Local\Temp\ccxApcqi.s:21939  .debug_str:0000000000001cec .LASF1060
C:\Users\CYMR90~1\AppData\Local\Temp\ccxApcqi.s:23537  .debug_str:00000000000083af .LASF1061
C:\Users\CYMR90~1\AppData\Local\Temp\ccxApcqi.s:21623  .debug_str:0000000000000915 .LASF1062
C:\Users\CYMR90~1\AppData\Local\Temp\ccxApcqi.s:26521  .debug_str:00000000000143b8 .LASF1063
C:\Users\CYMR90~1\AppData\Local\Temp\ccxApcqi.s:22463  .debug_str:0000000000003d84 .LASF1064
C:\Users\CYMR90~1\AppData\Local\Temp\ccxApcqi.s:21565  .debug_str:0000000000000582 .LASF1065
C:\Users\CYMR90~1\AppData\Local\Temp\ccxApcqi.s:32658  .debug_str:000000000002ccc4 .LASF1066
C:\Users\CYMR90~1\AppData\Local\Temp\ccxApcqi.s:30558  .debug_str:00000000000243f0 .LASF1067
C:\Users\CYMR90~1\AppData\Local\Temp\ccxApcqi.s:27077  .debug_str:00000000000166db .LASF1068
C:\Users\CYMR90~1\AppData\Local\Temp\ccxApcqi.s:28656  .debug_str:000000000001cfe0 .LASF1069
C:\Users\CYMR90~1\AppData\Local\Temp\ccxApcqi.s:21677  .debug_str:0000000000000ca2 .LASF1070
C:\Users\CYMR90~1\AppData\Local\Temp\ccxApcqi.s:23991  .debug_str:000000000000a02a .LASF1071
C:\Users\CYMR90~1\AppData\Local\Temp\ccxApcqi.s:30076  .debug_str:00000000000225ef .LASF1072
C:\Users\CYMR90~1\AppData\Local\Temp\ccxApcqi.s:28620  .debug_str:000000000001cd0c .LASF1073
C:\Users\CYMR90~1\AppData\Local\Temp\ccxApcqi.s:31634  .debug_str:0000000000028ba1 .LASF1074
C:\Users\CYMR90~1\AppData\Local\Temp\ccxApcqi.s:27228  .debug_str:000000000001723a .LASF1075
C:\Users\CYMR90~1\AppData\Local\Temp\ccxApcqi.s:22123  .debug_str:00000000000027cd .LASF1076
C:\Users\CYMR90~1\AppData\Local\Temp\ccxApcqi.s:32064  .debug_str:000000000002a65b .LASF1077
C:\Users\CYMR90~1\AppData\Local\Temp\ccxApcqi.s:23065  .debug_str:00000000000063e8 .LASF1078
C:\Users\CYMR90~1\AppData\Local\Temp\ccxApcqi.s:29552  .debug_str:000000000002063b .LASF1079
C:\Users\CYMR90~1\AppData\Local\Temp\ccxApcqi.s:24931  .debug_str:000000000000de7e .LASF1080
C:\Users\CYMR90~1\AppData\Local\Temp\ccxApcqi.s:28422  .debug_str:000000000001bfc1 .LASF1081
C:\Users\CYMR90~1\AppData\Local\Temp\ccxApcqi.s:31246  .debug_str:00000000000271dd .LASF1082
C:\Users\CYMR90~1\AppData\Local\Temp\ccxApcqi.s:26711  .debug_str:0000000000015002 .LASF1083
C:\Users\CYMR90~1\AppData\Local\Temp\ccxApcqi.s:29766  .debug_str:000000000002135a .LASF1084
C:\Users\CYMR90~1\AppData\Local\Temp\ccxApcqi.s:22769  .debug_str:00000000000051f2 .LASF1085
C:\Users\CYMR90~1\AppData\Local\Temp\ccxApcqi.s:22865  .debug_str:000000000000579d .LASF1086
C:\Users\CYMR90~1\AppData\Local\Temp\ccxApcqi.s:24965  .debug_str:000000000000e087 .LASF1087
C:\Users\CYMR90~1\AppData\Local\Temp\ccxApcqi.s:30964  .debug_str:0000000000025fc4 .LASF1088
C:\Users\CYMR90~1\AppData\Local\Temp\ccxApcqi.s:30070  .debug_str:0000000000022597 .LASF1089
C:\Users\CYMR90~1\AppData\Local\Temp\ccxApcqi.s:21729  .debug_str:0000000000000ff4 .LASF1090
C:\Users\CYMR90~1\AppData\Local\Temp\ccxApcqi.s:32588  .debug_str:000000000002c835 .LASF1091
C:\Users\CYMR90~1\AppData\Local\Temp\ccxApcqi.s:31350  .debug_str:0000000000027869 .LASF1092
C:\Users\CYMR90~1\AppData\Local\Temp\ccxApcqi.s:25309  .debug_str:000000000000f57c .LASF1093
C:\Users\CYMR90~1\AppData\Local\Temp\ccxApcqi.s:31008  .debug_str:0000000000026247 .LASF1094
C:\Users\CYMR90~1\AppData\Local\Temp\ccxApcqi.s:26785  .debug_str:000000000001540f .LASF1095
C:\Users\CYMR90~1\AppData\Local\Temp\ccxApcqi.s:28234  .debug_str:000000000001b41b .LASF1096
C:\Users\CYMR90~1\AppData\Local\Temp\ccxApcqi.s:28768  .debug_str:000000000001d6b1 .LASF1097
C:\Users\CYMR90~1\AppData\Local\Temp\ccxApcqi.s:23053  .debug_str:0000000000006343 .LASF1098
C:\Users\CYMR90~1\AppData\Local\Temp\ccxApcqi.s:26161  .debug_str:0000000000012d3d .LASF1099
C:\Users\CYMR90~1\AppData\Local\Temp\ccxApcqi.s:25479  .debug_str:00000000000100d1 .LASF1100
C:\Users\CYMR90~1\AppData\Local\Temp\ccxApcqi.s:30346  .debug_str:0000000000023640 .LASF1101
C:\Users\CYMR90~1\AppData\Local\Temp\ccxApcqi.s:24659  .debug_str:000000000000ccc3 .LASF1102
C:\Users\CYMR90~1\AppData\Local\Temp\ccxApcqi.s:30016  .debug_str:0000000000022247 .LASF1103
C:\Users\CYMR90~1\AppData\Local\Temp\ccxApcqi.s:31578  .debug_str:0000000000028873 .LASF1104
C:\Users\CYMR90~1\AppData\Local\Temp\ccxApcqi.s:29442  .debug_str:000000000001ff08 .LASF1105
C:\Users\CYMR90~1\AppData\Local\Temp\ccxApcqi.s:26343  .debug_str:0000000000013914 .LASF1106
C:\Users\CYMR90~1\AppData\Local\Temp\ccxApcqi.s:30268  .debug_str:0000000000023126 .LASF1107
C:\Users\CYMR90~1\AppData\Local\Temp\ccxApcqi.s:28154  .debug_str:000000000001aefc .LASF1108
C:\Users\CYMR90~1\AppData\Local\Temp\ccxApcqi.s:23069  .debug_str:0000000000006424 .LASF1109
C:\Users\CYMR90~1\AppData\Local\Temp\ccxApcqi.s:24021  .debug_str:000000000000a203 .LASF1110
C:\Users\CYMR90~1\AppData\Local\Temp\ccxApcqi.s:21951  .debug_str:0000000000001d9e .LASF1111
C:\Users\CYMR90~1\AppData\Local\Temp\ccxApcqi.s:23151  .debug_str:0000000000006946 .LASF1112
C:\Users\CYMR90~1\AppData\Local\Temp\ccxApcqi.s:24241  .debug_str:000000000000b0b0 .LASF1113
C:\Users\CYMR90~1\AppData\Local\Temp\ccxApcqi.s:22813  .debug_str:000000000000548e .LASF1114
C:\Users\CYMR90~1\AppData\Local\Temp\ccxApcqi.s:23813  .debug_str:00000000000094e9 .LASF1115
C:\Users\CYMR90~1\AppData\Local\Temp\ccxApcqi.s:31428  .debug_str:0000000000027dc5 .LASF1116
C:\Users\CYMR90~1\AppData\Local\Temp\ccxApcqi.s:31924  .debug_str:0000000000029daf .LASF1117
C:\Users\CYMR90~1\AppData\Local\Temp\ccxApcqi.s:22973  .debug_str:0000000000005e2d .LASF1118
C:\Users\CYMR90~1\AppData\Local\Temp\ccxApcqi.s:27392  .debug_str:0000000000017c5f .LASF1119
C:\Users\CYMR90~1\AppData\Local\Temp\ccxApcqi.s:23507  .debug_str:00000000000081c4 .LASF1120
C:\Users\CYMR90~1\AppData\Local\Temp\ccxApcqi.s:23713  .debug_str:0000000000008ed8 .LASF1121
C:\Users\CYMR90~1\AppData\Local\Temp\ccxApcqi.s:26277  .debug_str:0000000000013530 .LASF1122
C:\Users\CYMR90~1\AppData\Local\Temp\ccxApcqi.s:25919  .debug_str:0000000000011d38 .LASF1123
C:\Users\CYMR90~1\AppData\Local\Temp\ccxApcqi.s:29528  .debug_str:00000000000204bc .LASF1124
C:\Users\CYMR90~1\AppData\Local\Temp\ccxApcqi.s:26715  .debug_str:000000000001502b .LASF1125
C:\Users\CYMR90~1\AppData\Local\Temp\ccxApcqi.s:26805  .debug_str:0000000000015548 .LASF1126
C:\Users\CYMR90~1\AppData\Local\Temp\ccxApcqi.s:30158  .debug_str:0000000000022ae6 .LASF1127
C:\Users\CYMR90~1\AppData\Local\Temp\ccxApcqi.s:31244  .debug_str:00000000000271c8 .LASF1128
C:\Users\CYMR90~1\AppData\Local\Temp\ccxApcqi.s:22857  .debug_str:0000000000005732 .LASF1129
C:\Users\CYMR90~1\AppData\Local\Temp\ccxApcqi.s:26803  .debug_str:0000000000015533 .LASF1130
C:\Users\CYMR90~1\AppData\Local\Temp\ccxApcqi.s:31760  .debug_str:00000000000293ed .LASF1131
C:\Users\CYMR90~1\AppData\Local\Temp\ccxApcqi.s:32164  .debug_str:000000000002ac31 .LASF1132
C:\Users\CYMR90~1\AppData\Local\Temp\ccxApcqi.s:27504  .debug_str:00000000000182e3 .LASF1133
C:\Users\CYMR90~1\AppData\Local\Temp\ccxApcqi.s:30318  .debug_str:000000000002344e .LASF1134
C:\Users\CYMR90~1\AppData\Local\Temp\ccxApcqi.s:23395  .debug_str:0000000000007989 .LASF1135
C:\Users\CYMR90~1\AppData\Local\Temp\ccxApcqi.s:22637  .debug_str:00000000000049d5 .LASF1136
C:\Users\CYMR90~1\AppData\Local\Temp\ccxApcqi.s:22467  .debug_str:0000000000003da6 .LASF1137
C:\Users\CYMR90~1\AppData\Local\Temp\ccxApcqi.s:31770  .debug_str:00000000000294c9 .LASF1138
C:\Users\CYMR90~1\AppData\Local\Temp\ccxApcqi.s:28898  .debug_str:000000000001de8b .LASF1139
C:\Users\CYMR90~1\AppData\Local\Temp\ccxApcqi.s:31756  .debug_str:00000000000293c0 .LASF1140
C:\Users\CYMR90~1\AppData\Local\Temp\ccxApcqi.s:21539  .debug_str:0000000000000424 .LASF1141
C:\Users\CYMR90~1\AppData\Local\Temp\ccxApcqi.s:25953  .debug_str:0000000000011fed .LASF1142
C:\Users\CYMR90~1\AppData\Local\Temp\ccxApcqi.s:24971  .debug_str:000000000000e0fa .LASF1143
C:\Users\CYMR90~1\AppData\Local\Temp\ccxApcqi.s:31298  .debug_str:00000000000274ad .LASF1144
C:\Users\CYMR90~1\AppData\Local\Temp\ccxApcqi.s:29488  .debug_str:00000000000201e6 .LASF1145
C:\Users\CYMR90~1\AppData\Local\Temp\ccxApcqi.s:24499  .debug_str:000000000000c203 .LASF1146
C:\Users\CYMR90~1\AppData\Local\Temp\ccxApcqi.s:32584  .debug_str:000000000002c7f3 .LASF1147
C:\Users\CYMR90~1\AppData\Local\Temp\ccxApcqi.s:27252  .debug_str:000000000001739a .LASF1148
C:\Users\CYMR90~1\AppData\Local\Temp\ccxApcqi.s:27512  .debug_str:0000000000018390 .LASF1149
C:\Users\CYMR90~1\AppData\Local\Temp\ccxApcqi.s:28252  .debug_str:000000000001b527 .LASF1150
C:\Users\CYMR90~1\AppData\Local\Temp\ccxApcqi.s:21953  .debug_str:0000000000001dbc .LASF1151
C:\Users\CYMR90~1\AppData\Local\Temp\ccxApcqi.s:28674  .debug_str:000000000001d0f5 .LASF1152
C:\Users\CYMR90~1\AppData\Local\Temp\ccxApcqi.s:23837  .debug_str:0000000000009628 .LASF1153
C:\Users\CYMR90~1\AppData\Local\Temp\ccxApcqi.s:29780  .debug_str:000000000002140c .LASF1154
C:\Users\CYMR90~1\AppData\Local\Temp\ccxApcqi.s:29026  .debug_str:000000000001e69a .LASF1155
C:\Users\CYMR90~1\AppData\Local\Temp\ccxApcqi.s:26633  .debug_str:0000000000014ab6 .LASF1156
C:\Users\CYMR90~1\AppData\Local\Temp\ccxApcqi.s:28862  .debug_str:000000000001dc4d .LASF1157
C:\Users\CYMR90~1\AppData\Local\Temp\ccxApcqi.s:24259  .debug_str:000000000000b1a0 .LASF1158
C:\Users\CYMR90~1\AppData\Local\Temp\ccxApcqi.s:31942  .debug_str:0000000000029ef4 .LASF1159
C:\Users\CYMR90~1\AppData\Local\Temp\ccxApcqi.s:21835  .debug_str:000000000000160b .LASF1160
C:\Users\CYMR90~1\AppData\Local\Temp\ccxApcqi.s:32022  .debug_str:000000000002a3cc .LASF1161
C:\Users\CYMR90~1\AppData\Local\Temp\ccxApcqi.s:31710  .debug_str:000000000002906c .LASF1162
C:\Users\CYMR90~1\AppData\Local\Temp\ccxApcqi.s:28754  .debug_str:000000000001d5da .LASF1163
C:\Users\CYMR90~1\AppData\Local\Temp\ccxApcqi.s:27892  .debug_str:0000000000019cab .LASF1164
C:\Users\CYMR90~1\AppData\Local\Temp\ccxApcqi.s:24789  .debug_str:000000000000d5d5 .LASF1165
C:\Users\CYMR90~1\AppData\Local\Temp\ccxApcqi.s:29412  .debug_str:000000000001fd69 .LASF1166
C:\Users\CYMR90~1\AppData\Local\Temp\ccxApcqi.s:25675  .debug_str:0000000000010d0f .LASF1167
C:\Users\CYMR90~1\AppData\Local\Temp\ccxApcqi.s:23835  .debug_str:000000000000961e .LASF1168
C:\Users\CYMR90~1\AppData\Local\Temp\ccxApcqi.s:26745  .debug_str:00000000000151ee .LASF1169
C:\Users\CYMR90~1\AppData\Local\Temp\ccxApcqi.s:28098  .debug_str:000000000001ab20 .LASF1170
C:\Users\CYMR90~1\AppData\Local\Temp\ccxApcqi.s:27802  .debug_str:00000000000196e0 .LASF1171
C:\Users\CYMR90~1\AppData\Local\Temp\ccxApcqi.s:31968  .debug_str:000000000002a05c .LASF1172
C:\Users\CYMR90~1\AppData\Local\Temp\ccxApcqi.s:27025  .debug_str:0000000000016329 .LASF1173
C:\Users\CYMR90~1\AppData\Local\Temp\ccxApcqi.s:21657  .debug_str:0000000000000ba2 .LASF1174
C:\Users\CYMR90~1\AppData\Local\Temp\ccxApcqi.s:22061  .debug_str:00000000000023ae .LASF1175
C:\Users\CYMR90~1\AppData\Local\Temp\ccxApcqi.s:26249  .debug_str:0000000000013394 .LASF1176
C:\Users\CYMR90~1\AppData\Local\Temp\ccxApcqi.s:24603  .debug_str:000000000000c9b6 .LASF1177
C:\Users\CYMR90~1\AppData\Local\Temp\ccxApcqi.s:28812  .debug_str:000000000001d971 .LASF1178
C:\Users\CYMR90~1\AppData\Local\Temp\ccxApcqi.s:25203  .debug_str:000000000000eefe .LASF1179
C:\Users\CYMR90~1\AppData\Local\Temp\ccxApcqi.s:24777  .debug_str:000000000000d543 .LASF1180
C:\Users\CYMR90~1\AppData\Local\Temp\ccxApcqi.s:30520  .debug_str:00000000000241a8 .LASF1181
C:\Users\CYMR90~1\AppData\Local\Temp\ccxApcqi.s:23651  .debug_str:0000000000008b02 .LASF1182
C:\Users\CYMR90~1\AppData\Local\Temp\ccxApcqi.s:22227  .debug_str:0000000000002e23 .LASF1183
C:\Users\CYMR90~1\AppData\Local\Temp\ccxApcqi.s:29130  .debug_str:000000000001ec33 .LASF1184
C:\Users\CYMR90~1\AppData\Local\Temp\ccxApcqi.s:29582  .debug_str:00000000000207ed .LASF1185
C:\Users\CYMR90~1\AppData\Local\Temp\ccxApcqi.s:30754  .debug_str:00000000000251e8 .LASF1186
C:\Users\CYMR90~1\AppData\Local\Temp\ccxApcqi.s:21955  .debug_str:0000000000001dd5 .LASF1187
C:\Users\CYMR90~1\AppData\Local\Temp\ccxApcqi.s:22869  .debug_str:00000000000057d4 .LASF1188
C:\Users\CYMR90~1\AppData\Local\Temp\ccxApcqi.s:30060  .debug_str:00000000000224fa .LASF1189
C:\Users\CYMR90~1\AppData\Local\Temp\ccxApcqi.s:23399  .debug_str:00000000000079ba .LASF1190
C:\Users\CYMR90~1\AppData\Local\Temp\ccxApcqi.s:30104  .debug_str:0000000000022786 .LASF1191
C:\Users\CYMR90~1\AppData\Local\Temp\ccxApcqi.s:24577  .debug_str:000000000000c754 .LASF1192
C:\Users\CYMR90~1\AppData\Local\Temp\ccxApcqi.s:29768  .debug_str:000000000002136c .LASF1193
C:\Users\CYMR90~1\AppData\Local\Temp\ccxApcqi.s:24821  .debug_str:000000000000d7ac .LASF1194
C:\Users\CYMR90~1\AppData\Local\Temp\ccxApcqi.s:28348  .debug_str:000000000001bad3 .LASF1195
C:\Users\CYMR90~1\AppData\Local\Temp\ccxApcqi.s:26397  .debug_str:0000000000013c5b .LASF1196
C:\Users\CYMR90~1\AppData\Local\Temp\ccxApcqi.s:29804  .debug_str:00000000000215b4 .LASF1197
C:\Users\CYMR90~1\AppData\Local\Temp\ccxApcqi.s:31966  .debug_str:000000000002a04d .LASF1198
C:\Users\CYMR90~1\AppData\Local\Temp\ccxApcqi.s:27047  .debug_str:00000000000164fe .LASF1199
C:\Users\CYMR90~1\AppData\Local\Temp\ccxApcqi.s:31972  .debug_str:000000000002a083 .LASF1200
C:\Users\CYMR90~1\AppData\Local\Temp\ccxApcqi.s:24081  .debug_str:000000000000a5c8 .LASF1201
C:\Users\CYMR90~1\AppData\Local\Temp\ccxApcqi.s:23747  .debug_str:00000000000090d0 .LASF1202
C:\Users\CYMR90~1\AppData\Local\Temp\ccxApcqi.s:27240  .debug_str:00000000000172f9 .LASF1203
C:\Users\CYMR90~1\AppData\Local\Temp\ccxApcqi.s:31082  .debug_str:000000000002670c .LASF1204
C:\Users\CYMR90~1\AppData\Local\Temp\ccxApcqi.s:26303  .debug_str:00000000000136f0 .LASF1205
C:\Users\CYMR90~1\AppData\Local\Temp\ccxApcqi.s:25375  .debug_str:000000000000fa14 .LASF1206
C:\Users\CYMR90~1\AppData\Local\Temp\ccxApcqi.s:31938  .debug_str:0000000000029ec2 .LASF1207
C:\Users\CYMR90~1\AppData\Local\Temp\ccxApcqi.s:30606  .debug_str:000000000002476e .LASF1208
C:\Users\CYMR90~1\AppData\Local\Temp\ccxApcqi.s:25301  .debug_str:000000000000f51f .LASF1209
C:\Users\CYMR90~1\AppData\Local\Temp\ccxApcqi.s:22763  .debug_str:000000000000518a .LASF1210
C:\Users\CYMR90~1\AppData\Local\Temp\ccxApcqi.s:22859  .debug_str:0000000000005748 .LASF1211
C:\Users\CYMR90~1\AppData\Local\Temp\ccxApcqi.s:28676  .debug_str:000000000001d10c .LASF1212
C:\Users\CYMR90~1\AppData\Local\Temp\ccxApcqi.s:23145  .debug_str:00000000000068c6 .LASF1213
C:\Users\CYMR90~1\AppData\Local\Temp\ccxApcqi.s:22071  .debug_str:000000000000246a .LASF1214
C:\Users\CYMR90~1\AppData\Local\Temp\ccxApcqi.s:23879  .debug_str:0000000000009944 .LASF1215
C:\Users\CYMR90~1\AppData\Local\Temp\ccxApcqi.s:32554  .debug_str:000000000002c5e4 .LASF1216
C:\Users\CYMR90~1\AppData\Local\Temp\ccxApcqi.s:30220  .debug_str:0000000000022e5a .LASF1217
C:\Users\CYMR90~1\AppData\Local\Temp\ccxApcqi.s:30234  .debug_str:0000000000022f0e .LASF1218
C:\Users\CYMR90~1\AppData\Local\Temp\ccxApcqi.s:30662  .debug_str:0000000000024b1e .LASF1219
C:\Users\CYMR90~1\AppData\Local\Temp\ccxApcqi.s:28238  .debug_str:000000000001b44f .LASF1220
C:\Users\CYMR90~1\AppData\Local\Temp\ccxApcqi.s:24861  .debug_str:000000000000d9dd .LASF1221
C:\Users\CYMR90~1\AppData\Local\Temp\ccxApcqi.s:26569  .debug_str:00000000000146fa .LASF1222
C:\Users\CYMR90~1\AppData\Local\Temp\ccxApcqi.s:22245  .debug_str:0000000000002f44 .LASF1223
C:\Users\CYMR90~1\AppData\Local\Temp\ccxApcqi.s:27986  .debug_str:000000000001a3d8 .LASF1224
C:\Users\CYMR90~1\AppData\Local\Temp\ccxApcqi.s:31262  .debug_str:00000000000272cc .LASF1225
C:\Users\CYMR90~1\AppData\Local\Temp\ccxApcqi.s:24345  .debug_str:000000000000b7a0 .LASF1226
C:\Users\CYMR90~1\AppData\Local\Temp\ccxApcqi.s:23285  .debug_str:0000000000007249 .LASF1227
C:\Users\CYMR90~1\AppData\Local\Temp\ccxApcqi.s:22337  .debug_str:000000000000355e .LASF1228
C:\Users\CYMR90~1\AppData\Local\Temp\ccxApcqi.s:32642  .debug_str:000000000002cbe0 .LASF1229
C:\Users\CYMR90~1\AppData\Local\Temp\ccxApcqi.s:31692  .debug_str:0000000000028f5c .LASF1230
C:\Users\CYMR90~1\AppData\Local\Temp\ccxApcqi.s:30722  .debug_str:0000000000024f3f .LASF1231
C:\Users\CYMR90~1\AppData\Local\Temp\ccxApcqi.s:29756  .debug_str:00000000000212c2 .LASF1232
C:\Users\CYMR90~1\AppData\Local\Temp\ccxApcqi.s:29638  .debug_str:0000000000020b6e .LASF1233
C:\Users\CYMR90~1\AppData\Local\Temp\ccxApcqi.s:28692  .debug_str:000000000001d1c8 .LASF1234
C:\Users\CYMR90~1\AppData\Local\Temp\ccxApcqi.s:27756  .debug_str:00000000000193e8 .LASF1235
C:\Users\CYMR90~1\AppData\Local\Temp\ccxApcqi.s:26467  .debug_str:00000000000140bd .LASF1236
C:\Users\CYMR90~1\AppData\Local\Temp\ccxApcqi.s:25837  .debug_str:00000000000117da .LASF1237
C:\Users\CYMR90~1\AppData\Local\Temp\ccxApcqi.s:27138  .debug_str:0000000000016d2c .LASF1238
C:\Users\CYMR90~1\AppData\Local\Temp\ccxApcqi.s:23951  .debug_str:0000000000009d89 .LASF1239
C:\Users\CYMR90~1\AppData\Local\Temp\ccxApcqi.s:22969  .debug_str:0000000000005dec .LASF1240
C:\Users\CYMR90~1\AppData\Local\Temp\ccxApcqi.s:22029  .debug_str:00000000000021d1 .LASF1241
C:\Users\CYMR90~1\AppData\Local\Temp\ccxApcqi.s:32360  .debug_str:000000000002b8ec .LASF1242
C:\Users\CYMR90~1\AppData\Local\Temp\ccxApcqi.s:21553  .debug_str:00000000000004d8 .LASF1243
C:\Users\CYMR90~1\AppData\Local\Temp\ccxApcqi.s:31834  .debug_str:0000000000029899 .LASF1244
C:\Users\CYMR90~1\AppData\Local\Temp\ccxApcqi.s:30866  .debug_str:0000000000025999 .LASF1245
C:\Users\CYMR90~1\AppData\Local\Temp\ccxApcqi.s:29912  .debug_str:0000000000021c50 .LASF1246
C:\Users\CYMR90~1\AppData\Local\Temp\ccxApcqi.s:28934  .debug_str:000000000001e0c9 .LASF1247
C:\Users\CYMR90~1\AppData\Local\Temp\ccxApcqi.s:28042  .debug_str:000000000001a784 .LASF1248
C:\Users\CYMR90~1\AppData\Local\Temp\ccxApcqi.s:27091  .debug_str:00000000000167fc .LASF1249
C:\Users\CYMR90~1\AppData\Local\Temp\ccxApcqi.s:27256  .debug_str:00000000000173fb .LASF1250
C:\Users\CYMR90~1\AppData\Local\Temp\ccxApcqi.s:25209  .debug_str:000000000000ef4c .LASF1251
C:\Users\CYMR90~1\AppData\Local\Temp\ccxApcqi.s:27354  .debug_str:0000000000017a3c .LASF1252
C:\Users\CYMR90~1\AppData\Local\Temp\ccxApcqi.s:24717  .debug_str:000000000000d0ae .LASF1253
C:\Users\CYMR90~1\AppData\Local\Temp\ccxApcqi.s:23761  .debug_str:000000000000919f .LASF1254
C:\Users\CYMR90~1\AppData\Local\Temp\ccxApcqi.s:21795  .debug_str:00000000000013ce .LASF1255
C:\Users\CYMR90~1\AppData\Local\Temp\ccxApcqi.s:24637  .debug_str:000000000000cba3 .LASF1256
C:\Users\CYMR90~1\AppData\Local\Temp\ccxApcqi.s:22925  .debug_str:0000000000005b62 .LASF1257
C:\Users\CYMR90~1\AppData\Local\Temp\ccxApcqi.s:27628  .debug_str:0000000000018b4b .LASF1258
C:\Users\CYMR90~1\AppData\Local\Temp\ccxApcqi.s:27630  .debug_str:0000000000018b5e .LASF1259
C:\Users\CYMR90~1\AppData\Local\Temp\ccxApcqi.s:30108  .debug_str:00000000000227b6 .LASF1260
C:\Users\CYMR90~1\AppData\Local\Temp\ccxApcqi.s:28232  .debug_str:000000000001b408 .LASF1261
C:\Users\CYMR90~1\AppData\Local\Temp\ccxApcqi.s:25645  .debug_str:0000000000010ba7 .LASF1262
C:\Users\CYMR90~1\AppData\Local\Temp\ccxApcqi.s:22817  .debug_str:00000000000054d1 .LASF1263
C:\Users\CYMR90~1\AppData\Local\Temp\ccxApcqi.s:24947  .debug_str:000000000000df64 .LASF1264
C:\Users\CYMR90~1\AppData\Local\Temp\ccxApcqi.s:27115  .debug_str:0000000000016a23 .LASF1265
C:\Users\CYMR90~1\AppData\Local\Temp\ccxApcqi.s:24995  .debug_str:000000000000e25c .LASF1266
C:\Users\CYMR90~1\AppData\Local\Temp\ccxApcqi.s:30134  .debug_str:00000000000229a3 .LASF1267
C:\Users\CYMR90~1\AppData\Local\Temp\ccxApcqi.s:30312  .debug_str:0000000000023404 .LASF1268
C:\Users\CYMR90~1\AppData\Local\Temp\ccxApcqi.s:25777  .debug_str:000000000001133b .LASF1269
C:\Users\CYMR90~1\AppData\Local\Temp\ccxApcqi.s:32412  .debug_str:000000000002bc37 .LASF1270
C:\Users\CYMR90~1\AppData\Local\Temp\ccxApcqi.s:27356  .debug_str:0000000000017a53 .LASF1271
C:\Users\CYMR90~1\AppData\Local\Temp\ccxApcqi.s:31796  .debug_str:0000000000029672 .LASF1272
C:\Users\CYMR90~1\AppData\Local\Temp\ccxApcqi.s:28814  .debug_str:000000000001d97e .LASF1273
C:\Users\CYMR90~1\AppData\Local\Temp\ccxApcqi.s:21613  .debug_str:0000000000000887 .LASF1274
C:\Users\CYMR90~1\AppData\Local\Temp\ccxApcqi.s:27638  .debug_str:0000000000018be1 .LASF1275
C:\Users\CYMR90~1\AppData\Local\Temp\ccxApcqi.s:21719  .debug_str:0000000000000f70 .LASF1276
C:\Users\CYMR90~1\AppData\Local\Temp\ccxApcqi.s:23973  .debug_str:0000000000009f06 .LASF1277
C:\Users\CYMR90~1\AppData\Local\Temp\ccxApcqi.s:22987  .debug_str:0000000000005f07 .LASF1278
C:\Users\CYMR90~1\AppData\Local\Temp\ccxApcqi.s:22059  .debug_str:000000000000239c .LASF1279
C:\Users\CYMR90~1\AppData\Local\Temp\ccxApcqi.s:32380  .debug_str:000000000002ba19 .LASF1280
C:\Users\CYMR90~1\AppData\Local\Temp\ccxApcqi.s:22881  .debug_str:0000000000005898 .LASF1281
C:\Users\CYMR90~1\AppData\Local\Temp\ccxApcqi.s:21941  .debug_str:0000000000001d09 .LASF1282
C:\Users\CYMR90~1\AppData\Local\Temp\ccxApcqi.s:28976  .debug_str:000000000001e362 .LASF1283
C:\Users\CYMR90~1\AppData\Local\Temp\ccxApcqi.s:21685  .debug_str:0000000000000d12 .LASF1284
C:\Users\CYMR90~1\AppData\Local\Temp\ccxApcqi.s:30336  .debug_str:00000000000235ba .LASF1285
C:\Users\CYMR90~1\AppData\Local\Temp\ccxApcqi.s:29362  .debug_str:000000000001fa59 .LASF1286
C:\Users\CYMR90~1\AppData\Local\Temp\ccxApcqi.s:28416  .debug_str:000000000001bf42 .LASF1287
C:\Users\CYMR90~1\AppData\Local\Temp\ccxApcqi.s:27464  .debug_str:00000000000180a1 .LASF1288
C:\Users\CYMR90~1\AppData\Local\Temp\ccxApcqi.s:26509  .debug_str:000000000001432a .LASF1289
C:\Users\CYMR90~1\AppData\Local\Temp\ccxApcqi.s:25575  .debug_str:0000000000010674 .LASF1290
C:\Users\CYMR90~1\AppData\Local\Temp\ccxApcqi.s:29862  .debug_str:0000000000021923 .LASF1291
C:\Users\CYMR90~1\AppData\Local\Temp\ccxApcqi.s:28886  .debug_str:000000000001dde1 .LASF1292
C:\Users\CYMR90~1\AppData\Local\Temp\ccxApcqi.s:27984  .debug_str:000000000001a3c4 .LASF1293
C:\Users\CYMR90~1\AppData\Local\Temp\ccxApcqi.s:26981  .debug_str:00000000000160c2 .LASF1294
C:\Users\CYMR90~1\AppData\Local\Temp\ccxApcqi.s:26061  .debug_str:00000000000126be .LASF1295
C:\Users\CYMR90~1\AppData\Local\Temp\ccxApcqi.s:25103  .debug_str:000000000000e95a .LASF1296
C:\Users\CYMR90~1\AppData\Local\Temp\ccxApcqi.s:24479  .debug_str:000000000000c0e7 .LASF1297
C:\Users\CYMR90~1\AppData\Local\Temp\ccxApcqi.s:29328  .debug_str:000000000001f835 .LASF1298
C:\Users\CYMR90~1\AppData\Local\Temp\ccxApcqi.s:28388  .debug_str:000000000001bd88 .LASF1299
C:\Users\CYMR90~1\AppData\Local\Temp\ccxApcqi.s:27432  .debug_str:0000000000017e9d .LASF1300
C:\Users\CYMR90~1\AppData\Local\Temp\ccxApcqi.s:28360  .debug_str:000000000001bba7 .LASF1301
C:\Users\CYMR90~1\AppData\Local\Temp\ccxApcqi.s:29578  .debug_str:00000000000207ca .LASF1302
C:\Users\CYMR90~1\AppData\Local\Temp\ccxApcqi.s:27023  .debug_str:0000000000016316 .LASF1303
C:\Users\CYMR90~1\AppData\Local\Temp\ccxApcqi.s:27902  .debug_str:0000000000019d4f .LASF1304
C:\Users\CYMR90~1\AppData\Local\Temp\ccxApcqi.s:27872  .debug_str:0000000000019baa .LASF1305
C:\Users\CYMR90~1\AppData\Local\Temp\ccxApcqi.s:23655  .debug_str:0000000000008b36 .LASF1306
C:\Users\CYMR90~1\AppData\Local\Temp\ccxApcqi.s:22667  .debug_str:0000000000004bd5 .LASF1307
C:\Users\CYMR90~1\AppData\Local\Temp\ccxApcqi.s:21731  .debug_str:0000000000001006 .LASF1308
C:\Users\CYMR90~1\AppData\Local\Temp\ccxApcqi.s:32042  .debug_str:000000000002a4f8 .LASF1309
C:\Users\CYMR90~1\AppData\Local\Temp\ccxApcqi.s:31078  .debug_str:00000000000266d1 .LASF1310
C:\Users\CYMR90~1\AppData\Local\Temp\ccxApcqi.s:30110  .debug_str:00000000000227c7 .LASF1311
C:\Users\CYMR90~1\AppData\Local\Temp\ccxApcqi.s:23609  .debug_str:0000000000008869 .LASF1312
C:\Users\CYMR90~1\AppData\Local\Temp\ccxApcqi.s:22873  .debug_str:0000000000005826 .LASF1313
C:\Users\CYMR90~1\AppData\Local\Temp\ccxApcqi.s:26223  .debug_str:000000000001314d .LASF1314
C:\Users\CYMR90~1\AppData\Local\Temp\ccxApcqi.s:32260  .debug_str:000000000002b24e .LASF1315
C:\Users\CYMR90~1\AppData\Local\Temp\ccxApcqi.s:30796  .debug_str:00000000000254cc .LASF1316
C:\Users\CYMR90~1\AppData\Local\Temp\ccxApcqi.s:30328  .debug_str:000000000002351e .LASF1317
C:\Users\CYMR90~1\AppData\Local\Temp\ccxApcqi.s:29354  .debug_str:000000000001f9ec .LASF1318
C:\Users\CYMR90~1\AppData\Local\Temp\ccxApcqi.s:28426  .debug_str:000000000001bfec .LASF1319
C:\Users\CYMR90~1\AppData\Local\Temp\ccxApcqi.s:27476  .debug_str:0000000000018157 .LASF1320
C:\Users\CYMR90~1\AppData\Local\Temp\ccxApcqi.s:26519  .debug_str:00000000000143a0 .LASF1321
C:\Users\CYMR90~1\AppData\Local\Temp\ccxApcqi.s:25581  .debug_str:00000000000106cf .LASF1322
C:\Users\CYMR90~1\AppData\Local\Temp\ccxApcqi.s:26037  .debug_str:0000000000012528 .LASF1323
C:\Users\CYMR90~1\AppData\Local\Temp\ccxApcqi.s:24483  .debug_str:000000000000c10c .LASF1324
C:\Users\CYMR90~1\AppData\Local\Temp\ccxApcqi.s:24131  .debug_str:000000000000a8f4 .LASF1325
C:\Users\CYMR90~1\AppData\Local\Temp\ccxApcqi.s:23153  .debug_str:0000000000006962 .LASF1326
C:\Users\CYMR90~1\AppData\Local\Temp\ccxApcqi.s:22205  .debug_str:0000000000002cd3 .LASF1327
C:\Users\CYMR90~1\AppData\Local\Temp\ccxApcqi.s:32526  .debug_str:000000000002c426 .LASF1328
C:\Users\CYMR90~1\AppData\Local\Temp\ccxApcqi.s:31610  .debug_str:0000000000028a29 .LASF1329
C:\Users\CYMR90~1\AppData\Local\Temp\ccxApcqi.s:30642  .debug_str:00000000000249b0 .LASF1330
C:\Users\CYMR90~1\AppData\Local\Temp\ccxApcqi.s:29678  .debug_str:0000000000020d8d .LASF1331
C:\Users\CYMR90~1\AppData\Local\Temp\ccxApcqi.s:28724  .debug_str:000000000001d3d2 .LASF1332
C:\Users\CYMR90~1\AppData\Local\Temp\ccxApcqi.s:29152  .debug_str:000000000001edac .LASF1333
C:\Users\CYMR90~1\AppData\Local\Temp\ccxApcqi.s:28246  .debug_str:000000000001b4cb .LASF1334
C:\Users\CYMR90~1\AppData\Local\Temp\ccxApcqi.s:26943  .debug_str:0000000000015e5f .LASF1335
C:\Users\CYMR90~1\AppData\Local\Temp\ccxApcqi.s:24633  .debug_str:000000000000cb78 .LASF1336
C:\Users\CYMR90~1\AppData\Local\Temp\ccxApcqi.s:29370  .debug_str:000000000001fab8 .LASF1337
C:\Users\CYMR90~1\AppData\Local\Temp\ccxApcqi.s:25917  .debug_str:0000000000011d23 .LASF1338
C:\Users\CYMR90~1\AppData\Local\Temp\ccxApcqi.s:21839  .debug_str:0000000000001643 .LASF1339
C:\Users\CYMR90~1\AppData\Local\Temp\ccxApcqi.s:23923  .debug_str:0000000000009beb .LASF1340
C:\Users\CYMR90~1\AppData\Local\Temp\ccxApcqi.s:22941  .debug_str:0000000000005c63 .LASF1341
C:\Users\CYMR90~1\AppData\Local\Temp\ccxApcqi.s:21999  .debug_str:0000000000002028 .LASF1342
C:\Users\CYMR90~1\AppData\Local\Temp\ccxApcqi.s:32338  .debug_str:000000000002b768 .LASF1343
C:\Users\CYMR90~1\AppData\Local\Temp\ccxApcqi.s:32128  .debug_str:000000000002a9f3 .LASF1344
C:\Users\CYMR90~1\AppData\Local\Temp\ccxApcqi.s:31160  .debug_str:0000000000026bf1 .LASF1345
C:\Users\CYMR90~1\AppData\Local\Temp\ccxApcqi.s:23647  .debug_str:0000000000008ac6 .LASF1346
C:\Users\CYMR90~1\AppData\Local\Temp\ccxApcqi.s:31562  .debug_str:000000000002877e .LASF1347
C:\Users\CYMR90~1\AppData\Local\Temp\ccxApcqi.s:28292  .debug_str:000000000001b79d .LASF1348
C:\Users\CYMR90~1\AppData\Local\Temp\ccxApcqi.s:28804  .debug_str:000000000001d8f0 .LASF1349
C:\Users\CYMR90~1\AppData\Local\Temp\ccxApcqi.s:26387  .debug_str:0000000000013be2 .LASF1350
C:\Users\CYMR90~1\AppData\Local\Temp\ccxApcqi.s:29514  .debug_str:00000000000203de .LASF1351
C:\Users\CYMR90~1\AppData\Local\Temp\ccxApcqi.s:24495  .debug_str:000000000000c1d8 .LASF1352
C:\Users\CYMR90~1\AppData\Local\Temp\ccxApcqi.s:23441  .debug_str:0000000000007cca .LASF1353
C:\Users\CYMR90~1\AppData\Local\Temp\ccxApcqi.s:24005  .debug_str:000000000000a10f .LASF1354
C:\Users\CYMR90~1\AppData\Local\Temp\ccxApcqi.s:23019  .debug_str:0000000000006133 .LASF1355
C:\Users\CYMR90~1\AppData\Local\Temp\ccxApcqi.s:22083  .debug_str:00000000000024e4 .LASF1356
C:\Users\CYMR90~1\AppData\Local\Temp\ccxApcqi.s:32408  .debug_str:000000000002bc17 .LASF1357
C:\Users\CYMR90~1\AppData\Local\Temp\ccxApcqi.s:26479  .debug_str:0000000000014185 .LASF1358
C:\Users\CYMR90~1\AppData\Local\Temp\ccxApcqi.s:23147  .debug_str:000000000000690a .LASF1359
C:\Users\CYMR90~1\AppData\Local\Temp\ccxApcqi.s:29560  .debug_str:00000000000206a4 .LASF1360
C:\Users\CYMR90~1\AppData\Local\Temp\ccxApcqi.s:28520  .debug_str:000000000001c587 .LASF1361
C:\Users\CYMR90~1\AppData\Local\Temp\ccxApcqi.s:27570  .debug_str:00000000000186ed .LASF1362
C:\Users\CYMR90~1\AppData\Local\Temp\ccxApcqi.s:31572  .debug_str:000000000002880f .LASF1363
C:\Users\CYMR90~1\AppData\Local\Temp\ccxApcqi.s:26869  .debug_str:00000000000158f8 .LASF1364
C:\Users\CYMR90~1\AppData\Local\Temp\ccxApcqi.s:23559  .debug_str:0000000000008525 .LASF1365
C:\Users\CYMR90~1\AppData\Local\Temp\ccxApcqi.s:31188  .debug_str:0000000000026d9c .LASF1366
C:\Users\CYMR90~1\AppData\Local\Temp\ccxApcqi.s:21885  .debug_str:00000000000019b1 .LASF1367
C:\Users\CYMR90~1\AppData\Local\Temp\ccxApcqi.s:29452  .debug_str:000000000001ff95 .LASF1368
C:\Users\CYMR90~1\AppData\Local\Temp\ccxApcqi.s:27732  .debug_str:0000000000019243 .LASF1369
C:\Users\CYMR90~1\AppData\Local\Temp\ccxApcqi.s:32298  .debug_str:000000000002b4af .LASF1370
C:\Users\CYMR90~1\AppData\Local\Temp\ccxApcqi.s:28736  .debug_str:000000000001d472 .LASF1371
C:\Users\CYMR90~1\AppData\Local\Temp\ccxApcqi.s:22127  .debug_str:000000000000280a .LASF1372
C:\Users\CYMR90~1\AppData\Local\Temp\ccxApcqi.s:24675  .debug_str:000000000000cdf8 .LASF1373
C:\Users\CYMR90~1\AppData\Local\Temp\ccxApcqi.s:27778  .debug_str:0000000000019503 .LASF1374
C:\Users\CYMR90~1\AppData\Local\Temp\ccxApcqi.s:30858  .debug_str:000000000002592b .LASF1375
C:\Users\CYMR90~1\AppData\Local\Temp\ccxApcqi.s:22697  .debug_str:0000000000004d97 .LASF1376
C:\Users\CYMR90~1\AppData\Local\Temp\ccxApcqi.s:25823  .debug_str:0000000000011642 .LASF1377
C:\Users\CYMR90~1\AppData\Local\Temp\ccxApcqi.s:28892  .debug_str:000000000001de3b .LASF1378
C:\Users\CYMR90~1\AppData\Local\Temp\ccxApcqi.s:32036  .debug_str:000000000002a4aa .LASF1379
C:\Users\CYMR90~1\AppData\Local\Temp\ccxApcqi.s:32002  .debug_str:000000000002a26d .LASF1380
C:\Users\CYMR90~1\AppData\Local\Temp\ccxApcqi.s:23773  .debug_str:000000000000924f .LASF1381
C:\Users\CYMR90~1\AppData\Local\Temp\ccxApcqi.s:26841  .debug_str:000000000001575c .LASF1382
C:\Users\CYMR90~1\AppData\Local\Temp\ccxApcqi.s:29958  .debug_str:0000000000021f06 .LASF1383
C:\Users\CYMR90~1\AppData\Local\Temp\ccxApcqi.s:21809  .debug_str:000000000000147f .LASF1384
C:\Users\CYMR90~1\AppData\Local\Temp\ccxApcqi.s:26289  .debug_str:0000000000013614 .LASF1385
C:\Users\CYMR90~1\AppData\Local\Temp\ccxApcqi.s:28076  .debug_str:000000000001a9ae .LASF1386
C:\Users\CYMR90~1\AppData\Local\Temp\ccxApcqi.s:31150  .debug_str:0000000000026b30 .LASF1387
C:\Users\CYMR90~1\AppData\Local\Temp\ccxApcqi.s:22975  .debug_str:0000000000005e4f .LASF1388
C:\Users\CYMR90~1\AppData\Local\Temp\ccxApcqi.s:26021  .debug_str:0000000000012427 .LASF1389
C:\Users\CYMR90~1\AppData\Local\Temp\ccxApcqi.s:25381  .debug_str:000000000000fa5a .LASF1390
C:\Users\CYMR90~1\AppData\Local\Temp\ccxApcqi.s:28370  .debug_str:000000000001bc5d .LASF1391
C:\Users\CYMR90~1\AppData\Local\Temp\ccxApcqi.s:31482  .debug_str:00000000000281e5 .LASF1392
C:\Users\CYMR90~1\AppData\Local\Temp\ccxApcqi.s:23321  .debug_str:0000000000007475 .LASF1393
C:\Users\CYMR90~1\AppData\Local\Temp\ccxApcqi.s:26417  .debug_str:0000000000013d70 .LASF1394
C:\Users\CYMR90~1\AppData\Local\Temp\ccxApcqi.s:26567  .debug_str:00000000000146e2 .LASF1395
C:\Users\CYMR90~1\AppData\Local\Temp\ccxApcqi.s:32704  .debug_str:000000000002cfa9 .LASF1396
C:\Users\CYMR90~1\AppData\Local\Temp\ccxApcqi.s:24551  .debug_str:000000000000c521 .LASF1397
C:\Users\CYMR90~1\AppData\Local\Temp\ccxApcqi.s:29102  .debug_str:000000000001eacf .LASF1398
C:\Users\CYMR90~1\AppData\Local\Temp\ccxApcqi.s:25727  .debug_str:0000000000010ffe .LASF1399
C:\Users\CYMR90~1\AppData\Local\Temp\ccxApcqi.s:27005  .debug_str:0000000000016227 .LASF1400
C:\Users\CYMR90~1\AppData\Local\Temp\ccxApcqi.s:21767  .debug_str:000000000000121a .LASF1401
C:\Users\CYMR90~1\AppData\Local\Temp\ccxApcqi.s:29434  .debug_str:000000000001feb1 .LASF1402
C:\Users\CYMR90~1\AppData\Local\Temp\ccxApcqi.s:24381  .debug_str:000000000000ba14 .LASF1403
C:\Users\CYMR90~1\AppData\Local\Temp\ccxApcqi.s:29200  .debug_str:000000000001f0a3 .LASF1404
C:\Users\CYMR90~1\AppData\Local\Temp\ccxApcqi.s:22479  .debug_str:0000000000003ed3 .LASF1405
C:\Users\CYMR90~1\AppData\Local\Temp\ccxApcqi.s:31962  .debug_str:0000000000029ffd .LASF1406
C:\Users\CYMR90~1\AppData\Local\Temp\ccxApcqi.s:30156  .debug_str:0000000000022ace .LASF1407
C:\Users\CYMR90~1\AppData\Local\Temp\ccxApcqi.s:30316  .debug_str:0000000000023436 .LASF1408
C:\Users\CYMR90~1\AppData\Local\Temp\ccxApcqi.s:22159  .debug_str:0000000000002a05 .LASF1409
C:\Users\CYMR90~1\AppData\Local\Temp\ccxApcqi.s:25283  .debug_str:000000000000f40b .LASF1410
C:\Users\CYMR90~1\AppData\Local\Temp\ccxApcqi.s:31708  .debug_str:0000000000029053 .LASF1411
C:\Users\CYMR90~1\AppData\Local\Temp\ccxApcqi.s:23547  .debug_str:0000000000008461 .LASF1412
C:\Users\CYMR90~1\AppData\Local\Temp\ccxApcqi.s:29078  .debug_str:000000000001e986 .LASF1413
C:\Users\CYMR90~1\AppData\Local\Temp\ccxApcqi.s:29738  .debug_str:0000000000021199 .LASF1414
C:\Users\CYMR90~1\AppData\Local\Temp\ccxApcqi.s:21615  .debug_str:000000000000089a .LASF1415
C:\Users\CYMR90~1\AppData\Local\Temp\ccxApcqi.s:24643  .debug_str:000000000000cbe3 .LASF1416
C:\Users\CYMR90~1\AppData\Local\Temp\ccxApcqi.s:27754  .debug_str:00000000000193cf .LASF1417
C:\Users\CYMR90~1\AppData\Local\Temp\ccxApcqi.s:29262  .debug_str:000000000001f44e .LASF1418
C:\Users\CYMR90~1\AppData\Local\Temp\ccxApcqi.s:22675  .debug_str:0000000000004c3f .LASF1419
C:\Users\CYMR90~1\AppData\Local\Temp\ccxApcqi.s:25713  .debug_str:0000000000010f1f .LASF1420
C:\Users\CYMR90~1\AppData\Local\Temp\ccxApcqi.s:25059  .debug_str:000000000000e67a .LASF1421
C:\Users\CYMR90~1\AppData\Local\Temp\ccxApcqi.s:28186  .debug_str:000000000001b147 .LASF1422
C:\Users\CYMR90~1\AppData\Local\Temp\ccxApcqi.s:31260  .debug_str:00000000000272b3 .LASF1423
C:\Users\CYMR90~1\AppData\Local\Temp\ccxApcqi.s:23099  .debug_str:00000000000065d9 .LASF1424
C:\Users\CYMR90~1\AppData\Local\Temp\ccxApcqi.s:26227  .debug_str:000000000001317b .LASF1425
C:\Users\CYMR90~1\AppData\Local\Temp\ccxApcqi.s:29194  .debug_str:000000000001f030 .LASF1426
C:\Users\CYMR90~1\AppData\Local\Temp\ccxApcqi.s:32418  .debug_str:000000000002bd0a .LASF1427
C:\Users\CYMR90~1\AppData\Local\Temp\ccxApcqi.s:24257  .debug_str:000000000000b187 .LASF1428
C:\Users\CYMR90~1\AppData\Local\Temp\ccxApcqi.s:27332  .debug_str:00000000000178f7 .LASF1429
C:\Users\CYMR90~1\AppData\Local\Temp\ccxApcqi.s:30448  .debug_str:0000000000023c31 .LASF1430
C:\Users\CYMR90~1\AppData\Local\Temp\ccxApcqi.s:29202  .debug_str:000000000001f0bb .LASF1431
C:\Users\CYMR90~1\AppData\Local\Temp\ccxApcqi.s:21577  .debug_str:0000000000000651 .LASF1432
C:\Users\CYMR90~1\AppData\Local\Temp\ccxApcqi.s:30400  .debug_str:0000000000023950 .LASF1433
C:\Users\CYMR90~1\AppData\Local\Temp\ccxApcqi.s:29438  .debug_str:000000000001fedb .LASF1434
C:\Users\CYMR90~1\AppData\Local\Temp\ccxApcqi.s:28486  .debug_str:000000000001c35b .LASF1435
C:\Users\CYMR90~1\AppData\Local\Temp\ccxApcqi.s:27538  .debug_str:00000000000184d7 .LASF1436
C:\Users\CYMR90~1\AppData\Local\Temp\ccxApcqi.s:26965  .debug_str:0000000000015fe1 .LASF1437
C:\Users\CYMR90~1\AppData\Local\Temp\ccxApcqi.s:31292  .debug_str:000000000002745e .LASF1438
C:\Users\CYMR90~1\AppData\Local\Temp\ccxApcqi.s:30334  .debug_str:00000000000235a6 .LASF1439
C:\Users\CYMR90~1\AppData\Local\Temp\ccxApcqi.s:29360  .debug_str:000000000001fa45 .LASF1440
C:\Users\CYMR90~1\AppData\Local\Temp\ccxApcqi.s:28414  .debug_str:000000000001bf2e .LASF1441
C:\Users\CYMR90~1\AppData\Local\Temp\ccxApcqi.s:27462  .debug_str:000000000001808d .LASF1442
C:\Users\CYMR90~1\AppData\Local\Temp\ccxApcqi.s:26507  .debug_str:0000000000014316 .LASF1443
C:\Users\CYMR90~1\AppData\Local\Temp\ccxApcqi.s:25573  .debug_str:0000000000010660 .LASF1444
C:\Users\CYMR90~1\AppData\Local\Temp\ccxApcqi.s:32376  .debug_str:000000000002b9e1 .LASF1445
C:\Users\CYMR90~1\AppData\Local\Temp\ccxApcqi.s:23663  .debug_str:0000000000008ba4 .LASF1446
C:\Users\CYMR90~1\AppData\Local\Temp\ccxApcqi.s:25193  .debug_str:000000000000ee66 .LASF1447
C:\Users\CYMR90~1\AppData\Local\Temp\ccxApcqi.s:30678  .debug_str:0000000000024c17 .LASF1448
C:\Users\CYMR90~1\AppData\Local\Temp\ccxApcqi.s:29714  .debug_str:0000000000020f8d .LASF1449
C:\Users\CYMR90~1\AppData\Local\Temp\ccxApcqi.s:28746  .debug_str:000000000001d571 .LASF1450
C:\Users\CYMR90~1\AppData\Local\Temp\ccxApcqi.s:27824  .debug_str:00000000000198bb .LASF1451
C:\Users\CYMR90~1\AppData\Local\Temp\ccxApcqi.s:26839  .debug_str:0000000000015747 .LASF1452
C:\Users\CYMR90~1\AppData\Local\Temp\ccxApcqi.s:24255  .debug_str:000000000000b174 .LASF1453
C:\Users\CYMR90~1\AppData\Local\Temp\ccxApcqi.s:22887  .debug_str:00000000000058ee .LASF1454
C:\Users\CYMR90~1\AppData\Local\Temp\ccxApcqi.s:24061  .debug_str:000000000000a4a9 .LASF1455
C:\Users\CYMR90~1\AppData\Local\Temp\ccxApcqi.s:29106  .debug_str:000000000001eb11 .LASF1456
C:\Users\CYMR90~1\AppData\Local\Temp\ccxApcqi.s:30730  .debug_str:0000000000024fce .LASF1457
C:\Users\CYMR90~1\AppData\Local\Temp\ccxApcqi.s:22853  .debug_str:0000000000005715 .LASF1458
C:\Users\CYMR90~1\AppData\Local\Temp\ccxApcqi.s:29188  .debug_str:000000000001efe2 .LASF1459
C:\Users\CYMR90~1\AppData\Local\Temp\ccxApcqi.s:26041  .debug_str:0000000000012569 .LASF1460
C:\Users\CYMR90~1\AppData\Local\Temp\ccxApcqi.s:24167  .debug_str:000000000000ab42 .LASF1461
C:\Users\CYMR90~1\AppData\Local\Temp\ccxApcqi.s:25337  .debug_str:000000000000f7e0 .LASF1462
C:\Users\CYMR90~1\AppData\Local\Temp\ccxApcqi.s:25829  .debug_str:000000000001171d .LASF1463
C:\Users\CYMR90~1\AppData\Local\Temp\ccxApcqi.s:26899  .debug_str:0000000000015b09 .LASF1464
C:\Users\CYMR90~1\AppData\Local\Temp\ccxApcqi.s:32154  .debug_str:000000000002ab9b .LASF1465
C:\Users\CYMR90~1\AppData\Local\Temp\ccxApcqi.s:28088  .debug_str:000000000001aa96 .LASF1466
C:\Users\CYMR90~1\AppData\Local\Temp\ccxApcqi.s:26511  .debug_str:000000000001433d .LASF1467
C:\Users\CYMR90~1\AppData\Local\Temp\ccxApcqi.s:31180  .debug_str:0000000000026d25 .LASF1468
C:\Users\CYMR90~1\AppData\Local\Temp\ccxApcqi.s:25513  .debug_str:00000000000102ba .LASF1469
C:\Users\CYMR90~1\AppData\Local\Temp\ccxApcqi.s:23621  .debug_str:000000000000892b .LASF1470
C:\Users\CYMR90~1\AppData\Local\Temp\ccxApcqi.s:25805  .debug_str:0000000000011526 .LASF1471
C:\Users\CYMR90~1\AppData\Local\Temp\ccxApcqi.s:27358  .debug_str:0000000000017a66 .LASF1472
C:\Users\CYMR90~1\AppData\Local\Temp\ccxApcqi.s:30630  .debug_str:00000000000248f9 .LASF1473
C:\Users\CYMR90~1\AppData\Local\Temp\ccxApcqi.s:31266  .debug_str:00000000000272f8 .LASF1474
C:\Users\CYMR90~1\AppData\Local\Temp\ccxApcqi.s:21667  .debug_str:0000000000000c1b .LASF1475
C:\Users\CYMR90~1\AppData\Local\Temp\ccxApcqi.s:23549  .debug_str:000000000000847a .LASF1476
C:\Users\CYMR90~1\AppData\Local\Temp\ccxApcqi.s:22185  .debug_str:0000000000002b9c .LASF1477
C:\Users\CYMR90~1\AppData\Local\Temp\ccxApcqi.s:31448  .debug_str:0000000000027f28 .LASF1478
C:\Users\CYMR90~1\AppData\Local\Temp\ccxApcqi.s:30484  .debug_str:0000000000023ef0 .LASF1479
C:\Users\CYMR90~1\AppData\Local\Temp\ccxApcqi.s:22303  .debug_str:0000000000003333 .LASF1480
C:\Users\CYMR90~1\AppData\Local\Temp\ccxApcqi.s:24503  .debug_str:000000000000c234 .LASF1481
C:\Users\CYMR90~1\AppData\Local\Temp\ccxApcqi.s:30598  .debug_str:0000000000024705 .LASF1482
C:\Users\CYMR90~1\AppData\Local\Temp\ccxApcqi.s:23857  .debug_str:00000000000097cd .LASF1483
C:\Users\CYMR90~1\AppData\Local\Temp\ccxApcqi.s:22681  .debug_str:0000000000004c98 .LASF1484
C:\Users\CYMR90~1\AppData\Local\Temp\ccxApcqi.s:25069  .debug_str:000000000000e71c .LASF1485
C:\Users\CYMR90~1\AppData\Local\Temp\ccxApcqi.s:26477  .debug_str:0000000000014172 .LASF1486
C:\Users\CYMR90~1\AppData\Local\Temp\ccxApcqi.s:28072  .debug_str:000000000001a97f .LASF1487
C:\Users\CYMR90~1\AppData\Local\Temp\ccxApcqi.s:21505  .debug_str:0000000000000216 .LASF1488
C:\Users\CYMR90~1\AppData\Local\Temp\ccxApcqi.s:26857  .debug_str:0000000000015844 .LASF1489
C:\Users\CYMR90~1\AppData\Local\Temp\ccxApcqi.s:24867  .debug_str:000000000000da1d .LASF1490
C:\Users\CYMR90~1\AppData\Local\Temp\ccxApcqi.s:31674  .debug_str:0000000000028e4d .LASF1491
C:\Users\CYMR90~1\AppData\Local\Temp\ccxApcqi.s:22153  .debug_str:000000000000299e .LASF1492
C:\Users\CYMR90~1\AppData\Local\Temp\ccxApcqi.s:29668  .debug_str:0000000000020d0e .LASF1493
C:\Users\CYMR90~1\AppData\Local\Temp\ccxApcqi.s:31888  .debug_str:0000000000029bdc .LASF1494
C:\Users\CYMR90~1\AppData\Local\Temp\ccxApcqi.s:23309  .debug_str:00000000000073d1 .LASF1495
C:\Users\CYMR90~1\AppData\Local\Temp\ccxApcqi.s:30952  .debug_str:0000000000025ef8 .LASF1496
C:\Users\CYMR90~1\AppData\Local\Temp\ccxApcqi.s:31646  .debug_str:0000000000028c80 .LASF1497
C:\Users\CYMR90~1\AppData\Local\Temp\ccxApcqi.s:23105  .debug_str:0000000000006631 .LASF1498
C:\Users\CYMR90~1\AppData\Local\Temp\ccxApcqi.s:23947  .debug_str:0000000000009d50 .LASF1499
C:\Users\CYMR90~1\AppData\Local\Temp\ccxApcqi.s:32574  .debug_str:000000000002c745 .LASF1500
C:\Users\CYMR90~1\AppData\Local\Temp\ccxApcqi.s:31806  .debug_str:00000000000296f4 .LASF1501
C:\Users\CYMR90~1\AppData\Local\Temp\ccxApcqi.s:29570  .debug_str:000000000002075a .LASF1502
C:\Users\CYMR90~1\AppData\Local\Temp\ccxApcqi.s:23087  .debug_str:000000000000650b .LASF1503
C:\Users\CYMR90~1\AppData\Local\Temp\ccxApcqi.s:24613  .debug_str:000000000000ca38 .LASF1504
C:\Users\CYMR90~1\AppData\Local\Temp\ccxApcqi.s:28946  .debug_str:000000000001e177 .LASF1505
C:\Users\CYMR90~1\AppData\Local\Temp\ccxApcqi.s:28268  .debug_str:000000000001b630 .LASF1506
C:\Users\CYMR90~1\AppData\Local\Temp\ccxApcqi.s:24315  .debug_str:000000000000b5d7 .LASF1507
C:\Users\CYMR90~1\AppData\Local\Temp\ccxApcqi.s:29770  .debug_str:0000000000021377 .LASF1508
C:\Users\CYMR90~1\AppData\Local\Temp\ccxApcqi.s:25985  .debug_str:00000000000121e5 .LASF1509
C:\Users\CYMR90~1\AppData\Local\Temp\ccxApcqi.s:31548  .debug_str:0000000000028686 .LASF1510
C:\Users\CYMR90~1\AppData\Local\Temp\ccxApcqi.s:30348  .debug_str:0000000000023660 .LASF1511
C:\Users\CYMR90~1\AppData\Local\Temp\ccxApcqi.s:22347  .debug_str:0000000000003609 .LASF1512
C:\Users\CYMR90~1\AppData\Local\Temp\ccxApcqi.s:26921  .debug_str:0000000000015cd0 .LASF1513
C:\Users\CYMR90~1\AppData\Local\Temp\ccxApcqi.s:30756  .debug_str:00000000000251fc .LASF1514
C:\Users\CYMR90~1\AppData\Local\Temp\ccxApcqi.s:29164  .debug_str:000000000001ee96 .LASF1515
C:\Users\CYMR90~1\AppData\Local\Temp\ccxApcqi.s:32318  .debug_str:000000000002b5f6 .LASF1516
C:\Users\CYMR90~1\AppData\Local\Temp\ccxApcqi.s:28996  .debug_str:000000000001e466 .LASF1517
C:\Users\CYMR90~1\AppData\Local\Temp\ccxApcqi.s:30988  .debug_str:0000000000026121 .LASF1518
C:\Users\CYMR90~1\AppData\Local\Temp\ccxApcqi.s:25975  .debug_str:0000000000012174 .LASF1519
C:\Users\CYMR90~1\AppData\Local\Temp\ccxApcqi.s:29386  .debug_str:000000000001fbde .LASF1520
C:\Users\CYMR90~1\AppData\Local\Temp\ccxApcqi.s:28446  .debug_str:000000000001c127 .LASF1521
C:\Users\CYMR90~1\AppData\Local\Temp\ccxApcqi.s:29706  .debug_str:0000000000020f1e .LASF1522
C:\Users\CYMR90~1\AppData\Local\Temp\ccxApcqi.s:27730  .debug_str:0000000000019227 .LASF1523
C:\Users\CYMR90~1\AppData\Local\Temp\ccxApcqi.s:30350  .debug_str:0000000000023676 .LASF1524
C:\Users\CYMR90~1\AppData\Local\Temp\ccxApcqi.s:22753  .debug_str:00000000000050e4 .LASF1525
C:\Users\CYMR90~1\AppData\Local\Temp\ccxApcqi.s:28386  .debug_str:000000000001bd6d .LASF1526
C:\Users\CYMR90~1\AppData\Local\Temp\ccxApcqi.s:24525  .debug_str:000000000000c396 .LASF1527
C:\Users\CYMR90~1\AppData\Local\Temp\ccxApcqi.s:30106  .debug_str:000000000002279a .LASF1528
C:\Users\CYMR90~1\AppData\Local\Temp\ccxApcqi.s:31346  .debug_str:00000000000277d9 .LASF1529
C:\Users\CYMR90~1\AppData\Local\Temp\ccxApcqi.s:30590  .debug_str:00000000000245e3 .LASF1530
C:\Users\CYMR90~1\AppData\Local\Temp\ccxApcqi.s:30656  .debug_str:0000000000024a92 .LASF1531
C:\Users\CYMR90~1\AppData\Local\Temp\ccxApcqi.s:22499  .debug_str:0000000000003fea .LASF1532
C:\Users\CYMR90~1\AppData\Local\Temp\ccxApcqi.s:27680  .debug_str:0000000000018e64 .LASF1533
C:\Users\CYMR90~1\AppData\Local\Temp\ccxApcqi.s:30476  .debug_str:0000000000023da7 .LASF1534
C:\Users\CYMR90~1\AppData\Local\Temp\ccxApcqi.s:24595  .debug_str:000000000000c878 .LASF1535
C:\Users\CYMR90~1\AppData\Local\Temp\ccxApcqi.s:30660  .debug_str:0000000000024b12 .LASF1536
C:\Users\CYMR90~1\AppData\Local\Temp\ccxApcqi.s:30014  .debug_str:0000000000022237 .LASF1537
C:\Users\CYMR90~1\AppData\Local\Temp\ccxApcqi.s:31222  .debug_str:0000000000026fb8 .LASF1538
C:\Users\CYMR90~1\AppData\Local\Temp\ccxApcqi.s:31118  .debug_str:000000000002690e .LASF1539
C:\Users\CYMR90~1\AppData\Local\Temp\ccxApcqi.s:25855  .debug_str:000000000001194d .LASF1540
C:\Users\CYMR90~1\AppData\Local\Temp\ccxApcqi.s:31832  .debug_str:000000000002987c .LASF1541
C:\Users\CYMR90~1\AppData\Local\Temp\ccxApcqi.s:24845  .debug_str:000000000000d907 .LASF1542
C:\Users\CYMR90~1\AppData\Local\Temp\ccxApcqi.s:22269  .debug_str:00000000000030d3 .LASF1543
C:\Users\CYMR90~1\AppData\Local\Temp\ccxApcqi.s:25423  .debug_str:000000000000fd22 .LASF1544
C:\Users\CYMR90~1\AppData\Local\Temp\ccxApcqi.s:23485  .debug_str:000000000000802e .LASF1545
C:\Users\CYMR90~1\AppData\Local\Temp\ccxApcqi.s:23955  .debug_str:0000000000009dc3 .LASF1546
C:\Users\CYMR90~1\AppData\Local\Temp\ccxApcqi.s:24581  .debug_str:000000000000c779 .LASF1547
C:\Users\CYMR90~1\AppData\Local\Temp\ccxApcqi.s:31424  .debug_str:0000000000027d47 .LASF1548
C:\Users\CYMR90~1\AppData\Local\Temp\ccxApcqi.s:30922  .debug_str:0000000000025ce5 .LASF1549
C:\Users\CYMR90~1\AppData\Local\Temp\ccxApcqi.s:28334  .debug_str:000000000001b9c0 .LASF1550
C:\Users\CYMR90~1\AppData\Local\Temp\ccxApcqi.s:25723  .debug_str:0000000000010fb0 .LASF1551
C:\Users\CYMR90~1\AppData\Local\Temp\ccxApcqi.s:28304  .debug_str:000000000001b812 .LASF1552
C:\Users\CYMR90~1\AppData\Local\Temp\ccxApcqi.s:21735  .debug_str:0000000000001032 .LASF1553
C:\Users\CYMR90~1\AppData\Local\Temp\ccxApcqi.s:22053  .debug_str:0000000000002331 .LASF1554
C:\Users\CYMR90~1\AppData\Local\Temp\ccxApcqi.s:29032  .debug_str:000000000001e6e4 .LASF1555
C:\Users\CYMR90~1\AppData\Local\Temp\ccxApcqi.s:27632  .debug_str:0000000000018b6d .LASF1556
C:\Users\CYMR90~1\AppData\Local\Temp\ccxApcqi.s:27656  .debug_str:0000000000018cf4 .LASF1557
C:\Users\CYMR90~1\AppData\Local\Temp\ccxApcqi.s:31918  .debug_str:0000000000029d60 .LASF1558
C:\Users\CYMR90~1\AppData\Local\Temp\ccxApcqi.s:25569  .debug_str:0000000000010634 .LASF1559
C:\Users\CYMR90~1\AppData\Local\Temp\ccxApcqi.s:30360  .debug_str:00000000000236ef .LASF1560
C:\Users\CYMR90~1\AppData\Local\Temp\ccxApcqi.s:30784  .debug_str:00000000000253ce .LASF1561
C:\Users\CYMR90~1\AppData\Local\Temp\ccxApcqi.s:25679  .debug_str:0000000000010d3d .LASF1562
C:\Users\CYMR90~1\AppData\Local\Temp\ccxApcqi.s:25347  .debug_str:000000000000f85d .LASF1563
C:\Users\CYMR90~1\AppData\Local\Temp\ccxApcqi.s:32416  .debug_str:000000000002bc64 .LASF1564
C:\Users\CYMR90~1\AppData\Local\Temp\ccxApcqi.s:23113  .debug_str:000000000000669a .LASF1565
C:\Users\CYMR90~1\AppData\Local\Temp\ccxApcqi.s:28744  .debug_str:000000000001d4e3 .LASF1566
C:\Users\CYMR90~1\AppData\Local\Temp\ccxApcqi.s:28026  .debug_str:000000000001a62f .LASF1567
C:\Users\CYMR90~1\AppData\Local\Temp\ccxApcqi.s:29506  .debug_str:0000000000020309 .LASF1568
C:\Users\CYMR90~1\AppData\Local\Temp\ccxApcqi.s:25853  .debug_str:00000000000118a6 .LASF1569
C:\Users\CYMR90~1\AppData\Local\Temp\ccxApcqi.s:30810  .debug_str:00000000000255a4 .LASF1570
C:\Users\CYMR90~1\AppData\Local\Temp\ccxApcqi.s:26247  .debug_str:0000000000013354 .LASF1571
C:\Users\CYMR90~1\AppData\Local\Temp\ccxApcqi.s:22801  .debug_str:00000000000053da .LASF1572
C:\Users\CYMR90~1\AppData\Local\Temp\ccxApcqi.s:26665  .debug_str:0000000000014d0d .LASF1573
C:\Users\CYMR90~1\AppData\Local\Temp\ccxApcqi.s:31536  .debug_str:00000000000285bc .LASF1574
C:\Users\CYMR90~1\AppData\Local\Temp\ccxApcqi.s:27128  .debug_str:0000000000016c80 .LASF1575
C:\Users\CYMR90~1\AppData\Local\Temp\ccxApcqi.s:25223  .debug_str:000000000000f049 .LASF1576
C:\Users\CYMR90~1\AppData\Local\Temp\ccxApcqi.s:29036  .debug_str:000000000001e726 .LASF1577
C:\Users\CYMR90~1\AppData\Local\Temp\ccxApcqi.s:32028  .debug_str:000000000002a40e .LASF1578
C:\Users\CYMR90~1\AppData\Local\Temp\ccxApcqi.s:22063  .debug_str:00000000000023bc .LASF1579
C:\Users\CYMR90~1\AppData\Local\Temp\ccxApcqi.s:28586  .debug_str:000000000001ca5d .LASF1580
C:\Users\CYMR90~1\AppData\Local\Temp\ccxApcqi.s:24069  .debug_str:000000000000a51d .LASF1581
C:\Users\CYMR90~1\AppData\Local\Temp\ccxApcqi.s:24765  .debug_str:000000000000d455 .LASF1582
C:\Users\CYMR90~1\AppData\Local\Temp\ccxApcqi.s:23475  .debug_str:0000000000007f02 .LASF1583
C:\Users\CYMR90~1\AppData\Local\Temp\ccxApcqi.s:31224  .debug_str:0000000000026fd6 .LASF1584
C:\Users\CYMR90~1\AppData\Local\Temp\ccxApcqi.s:25947  .debug_str:0000000000011f0f .LASF1585
C:\Users\CYMR90~1\AppData\Local\Temp\ccxApcqi.s:32628  .debug_str:000000000002ca68 .LASF1586
C:\Users\CYMR90~1\AppData\Local\Temp\ccxApcqi.s:24739  .debug_str:000000000000d20b .LASF1587
C:\Users\CYMR90~1\AppData\Local\Temp\ccxApcqi.s:23435  .debug_str:0000000000007bdf .LASF1588
C:\Users\CYMR90~1\AppData\Local\Temp\ccxApcqi.s:27103  .debug_str:00000000000168d1 .LASF1589
C:\Users\CYMR90~1\AppData\Local\Temp\ccxApcqi.s:24283  .debug_str:000000000000b31e .LASF1590
C:\Users\CYMR90~1\AppData\Local\Temp\ccxApcqi.s:27029  .debug_str:000000000001635d .LASF1591
C:\Users\CYMR90~1\AppData\Local\Temp\ccxApcqi.s:23675  .debug_str:0000000000008c34 .LASF1592
C:\Users\CYMR90~1\AppData\Local\Temp\ccxApcqi.s:26239  .debug_str:000000000001326f .LASF1593
C:\Users\CYMR90~1\AppData\Local\Temp\ccxApcqi.s:31716  .debug_str:00000000000290b7 .LASF1594
C:\Users\CYMR90~1\AppData\Local\Temp\ccxApcqi.s:31456  .debug_str:0000000000027fa6 .LASF1595
C:\Users\CYMR90~1\AppData\Local\Temp\ccxApcqi.s:21701  .debug_str:0000000000000def .LASF1596
C:\Users\CYMR90~1\AppData\Local\Temp\ccxApcqi.s:28614  .debug_str:000000000001cc23 .LASF1597
C:\Users\CYMR90~1\AppData\Local\Temp\ccxApcqi.s:22611  .debug_str:00000000000047ae .LASF1598
C:\Users\CYMR90~1\AppData\Local\Temp\ccxApcqi.s:30732  .debug_str:0000000000024fdd .LASF1599
C:\Users\CYMR90~1\AppData\Local\Temp\ccxApcqi.s:21845  .debug_str:000000000000169c .LASF1600
C:\Users\CYMR90~1\AppData\Local\Temp\ccxApcqi.s:25311  .debug_str:000000000000f594 .LASF1601
C:\Users\CYMR90~1\AppData\Local\Temp\ccxApcqi.s:29730  .debug_str:0000000000021085 .LASF1602
C:\Users\CYMR90~1\AppData\Local\Temp\ccxApcqi.s:28640  .debug_str:000000000001ce5e .LASF1603
C:\Users\CYMR90~1\AppData\Local\Temp\ccxApcqi.s:28532  .debug_str:000000000001c63e .LASF1604
C:\Users\CYMR90~1\AppData\Local\Temp\ccxApcqi.s:30712  .debug_str:0000000000024e1c .LASF1605
C:\Users\CYMR90~1\AppData\Local\Temp\ccxApcqi.s:30632  .debug_str:000000000002490f .LASF1606
C:\Users\CYMR90~1\AppData\Local\Temp\ccxApcqi.s:30584  .debug_str:000000000002458f .LASF1607
C:\Users\CYMR90~1\AppData\Local\Temp\ccxApcqi.s:27576  .debug_str:000000000001873f .LASF1608
C:\Users\CYMR90~1\AppData\Local\Temp\ccxApcqi.s:22587  .debug_str:000000000000461b .LASF1609
C:\Users\CYMR90~1\AppData\Local\Temp\ccxApcqi.s:29942  .debug_str:0000000000021e01 .LASF1610
C:\Users\CYMR90~1\AppData\Local\Temp\ccxApcqi.s:32536  .debug_str:000000000002c489 .LASF1611
C:\Users\CYMR90~1\AppData\Local\Temp\ccxApcqi.s:28482  .debug_str:000000000001c31f .LASF1612
C:\Users\CYMR90~1\AppData\Local\Temp\ccxApcqi.s:26553  .debug_str:0000000000014612 .LASF1613
C:\Users\CYMR90~1\AppData\Local\Temp\ccxApcqi.s:23941  .debug_str:0000000000009cf8 .LASF1614
C:\Users\CYMR90~1\AppData\Local\Temp\ccxApcqi.s:28170  .debug_str:000000000001b001 .LASF1615
C:\Users\CYMR90~1\AppData\Local\Temp\ccxApcqi.s:29828  .debug_str:00000000000216de .LASF1616
C:\Users\CYMR90~1\AppData\Local\Temp\ccxApcqi.s:26639  .debug_str:0000000000014b14 .LASF1617
C:\Users\CYMR90~1\AppData\Local\Temp\ccxApcqi.s:28544  .debug_str:000000000001c7b2 .LASF1618
C:\Users\CYMR90~1\AppData\Local\Temp\ccxApcqi.s:22635  .debug_str:00000000000049b7 .LASF1619
C:\Users\CYMR90~1\AppData\Local\Temp\ccxApcqi.s:24319  .debug_str:000000000000b607 .LASF1620
C:\Users\CYMR90~1\AppData\Local\Temp\ccxApcqi.s:25143  .debug_str:000000000000ebb9 .LASF1621
C:\Users\CYMR90~1\AppData\Local\Temp\ccxApcqi.s:22211  .debug_str:0000000000002d32 .LASF1622
C:\Users\CYMR90~1\AppData\Local\Temp\ccxApcqi.s:29536  .debug_str:0000000000020516 .LASF1623
C:\Users\CYMR90~1\AppData\Local\Temp\ccxApcqi.s:26241  .debug_str:000000000001330a .LASF1624
C:\Users\CYMR90~1\AppData\Local\Temp\ccxApcqi.s:24413  .debug_str:000000000000bca7 .LASF1625
C:\Users\CYMR90~1\AppData\Local\Temp\ccxApcqi.s:30228  .debug_str:0000000000022eb6 .LASF1626
C:\Users\CYMR90~1\AppData\Local\Temp\ccxApcqi.s:23109  .debug_str:000000000000666c .LASF1627
C:\Users\CYMR90~1\AppData\Local\Temp\ccxApcqi.s:29280  .debug_str:000000000001f55b .LASF1628
C:\Users\CYMR90~1\AppData\Local\Temp\ccxApcqi.s:24179  .debug_str:000000000000ac04 .LASF1629
C:\Users\CYMR90~1\AppData\Local\Temp\ccxApcqi.s:30024  .debug_str:00000000000222a3 .LASF1630
C:\Users\CYMR90~1\AppData\Local\Temp\ccxApcqi.s:23657  .debug_str:0000000000008b4d .LASF1631
C:\Users\CYMR90~1\AppData\Local\Temp\ccxApcqi.s:21801  .debug_str:000000000000142a .LASF1632
C:\Users\CYMR90~1\AppData\Local\Temp\ccxApcqi.s:28280  .debug_str:000000000001b717 .LASF1633
C:\Users\CYMR90~1\AppData\Local\Temp\ccxApcqi.s:27268  .debug_str:00000000000174b1 .LASF1634
C:\Users\CYMR90~1\AppData\Local\Temp\ccxApcqi.s:24395  .debug_str:000000000000bb40 .LASF1635
C:\Users\CYMR90~1\AppData\Local\Temp\ccxApcqi.s:24497  .debug_str:000000000000c1ee .LASF1636
C:\Users\CYMR90~1\AppData\Local\Temp\ccxApcqi.s:28142  .debug_str:000000000001ae4b .LASF1637
C:\Users\CYMR90~1\AppData\Local\Temp\ccxApcqi.s:24565  .debug_str:000000000000c666 .LASF1638
C:\Users\CYMR90~1\AppData\Local\Temp\ccxApcqi.s:24293  .debug_str:000000000000b443 .LASF1639
C:\Users\CYMR90~1\AppData\Local\Temp\ccxApcqi.s:27480  .debug_str:0000000000018188 .LASF1640
C:\Users\CYMR90~1\AppData\Local\Temp\ccxApcqi.s:25519  .debug_str:0000000000010316 .LASF1641
C:\Users\CYMR90~1\AppData\Local\Temp\ccxApcqi.s:30576  .debug_str:0000000000024519 .LASF1642
C:\Users\CYMR90~1\AppData\Local\Temp\ccxApcqi.s:25863  .debug_str:00000000000119ee .LASF1643
C:\Users\CYMR90~1\AppData\Local\Temp\ccxApcqi.s:29422  .debug_str:000000000001fe03 .LASF1644
C:\Users\CYMR90~1\AppData\Local\Temp\ccxApcqi.s:32504  .debug_str:000000000002c2ea .LASF1645
C:\Users\CYMR90~1\AppData\Local\Temp\ccxApcqi.s:22201  .debug_str:0000000000002ca2 .LASF1646
C:\Users\CYMR90~1\AppData\Local\Temp\ccxApcqi.s:27065  .debug_str:000000000001660d .LASF1647
C:\Users\CYMR90~1\AppData\Local\Temp\ccxApcqi.s:27176  .debug_str:0000000000016f6b .LASF1648
C:\Users\CYMR90~1\AppData\Local\Temp\ccxApcqi.s:22003  .debug_str:000000000000205c .LASF1649
C:\Users\CYMR90~1\AppData\Local\Temp\ccxApcqi.s:23501  .debug_str:0000000000008165 .LASF1650
C:\Users\CYMR90~1\AppData\Local\Temp\ccxApcqi.s:30248  .debug_str:0000000000023006 .LASF1651
C:\Users\CYMR90~1\AppData\Local\Temp\ccxApcqi.s:25615  .debug_str:00000000000108a8 .LASF1652
C:\Users\CYMR90~1\AppData\Local\Temp\ccxApcqi.s:23393  .debug_str:0000000000007914 .LASF1653
C:\Users\CYMR90~1\AppData\Local\Temp\ccxApcqi.s:21741  .debug_str:00000000000010a3 .LASF1654
C:\Users\CYMR90~1\AppData\Local\Temp\ccxApcqi.s:27372  .debug_str:0000000000017b29 .LASF1657
C:\Users\CYMR90~1\AppData\Local\Temp\ccxApcqi.s:32080  .debug_str:000000000002a749 .LASF1658
C:\Users\CYMR90~1\AppData\Local\Temp\ccxApcqi.s:25647  .debug_str:0000000000010bb5 .LASF1659
C:\Users\CYMR90~1\AppData\Local\Temp\ccxApcqi.s:27704  .debug_str:00000000000190c3 .LASF1660
C:\Users\CYMR90~1\AppData\Local\Temp\ccxApcqi.s:32314  .debug_str:000000000002b5b7 .LASF1661
C:\Users\CYMR90~1\AppData\Local\Temp\ccxApcqi.s:32348  .debug_str:000000000002b80d .LASF1662
C:\Users\CYMR90~1\AppData\Local\Temp\ccxApcqi.s:29618  .debug_str:0000000000020a51 .LASF1663
C:\Users\CYMR90~1\AppData\Local\Temp\ccxApcqi.s:26603  .debug_str:00000000000148b6 .LASF1664
C:\Users\CYMR90~1\AppData\Local\Temp\ccxApcqi.s:28792  .debug_str:000000000001d82c .LASF1665
C:\Users\CYMR90~1\AppData\Local\Temp\ccxApcqi.s:29708  .debug_str:0000000000020f39 .LASF1666
C:\Users\CYMR90~1\AppData\Local\Temp\ccxApcqi.s:25353  .debug_str:000000000000f899 .LASF1667
C:\Users\CYMR90~1\AppData\Local\Temp\ccxApcqi.s:25051  .debug_str:000000000000e5f7 .LASF1668
C:\Users\CYMR90~1\AppData\Local\Temp\ccxApcqi.s:22431  .debug_str:0000000000003b7f .LASF1669
C:\Users\CYMR90~1\AppData\Local\Temp\ccxApcqi.s:23695  .debug_str:0000000000008dd2 .LASF1670
C:\Users\CYMR90~1\AppData\Local\Temp\ccxApcqi.s:22649  .debug_str:0000000000004a95 .LASF1671
C:\Users\CYMR90~1\AppData\Local\Temp\ccxApcqi.s:21551  .debug_str:00000000000004be .LASF1672
C:\Users\CYMR90~1\AppData\Local\Temp\ccxApcqi.s:26531  .debug_str:0000000000014467 .LASF1673
C:\Users\CYMR90~1\AppData\Local\Temp\ccxApcqi.s:25935  .debug_str:0000000000011e18 .LASF1674
C:\Users\CYMR90~1\AppData\Local\Temp\ccxApcqi.s:25093  .debug_str:000000000000e892 .LASF1675
C:\Users\CYMR90~1\AppData\Local\Temp\ccxApcqi.s:30596  .debug_str:00000000000246eb .LASF1676
C:\Users\CYMR90~1\AppData\Local\Temp\ccxApcqi.s:26065  .debug_str:00000000000126e7 .LASF1677
C:\Users\CYMR90~1\AppData\Local\Temp\ccxApcqi.s:32506  .debug_str:000000000002c2ff .LASF1678
C:\Users\CYMR90~1\AppData\Local\Temp\ccxApcqi.s:22111  .debug_str:00000000000026be .LASF1679
C:\Users\CYMR90~1\AppData\Local\Temp\ccxApcqi.s:25597  .debug_str:00000000000107cf .LASF1680
C:\Users\CYMR90~1\AppData\Local\Temp\ccxApcqi.s:26767  .debug_str:0000000000015335 .LASF1681
C:\Users\CYMR90~1\AppData\Local\Temp\ccxApcqi.s:25443  .debug_str:000000000000fe87 .LASF1682
C:\Users\CYMR90~1\AppData\Local\Temp\ccxApcqi.s:28126  .debug_str:000000000001acce .LASF1683
C:\Users\CYMR90~1\AppData\Local\Temp\ccxApcqi.s:30194  .debug_str:0000000000022d01 .LASF1684
C:\Users\CYMR90~1\AppData\Local\Temp\ccxApcqi.s:31110  .debug_str:00000000000268b3 .LASF1685
C:\Users\CYMR90~1\AppData\Local\Temp\ccxApcqi.s:25595  .debug_str:00000000000107b7 .LASF1686
C:\Users\CYMR90~1\AppData\Local\Temp\ccxApcqi.s:29518  .debug_str:0000000000020407 .LASF1687
C:\Users\CYMR90~1\AppData\Local\Temp\ccxApcqi.s:31822  .debug_str:00000000000297d1 .LASF1688
C:\Users\CYMR90~1\AppData\Local\Temp\ccxApcqi.s:30376  .debug_str:00000000000237f9 .LASF1689
C:\Users\CYMR90~1\AppData\Local\Temp\ccxApcqi.s:28242  .debug_str:000000000001b47d .LASF1690
C:\Users\CYMR90~1\AppData\Local\Temp\ccxApcqi.s:26327  .debug_str:0000000000013857 .LASF1691
C:\Users\CYMR90~1\AppData\Local\Temp\ccxApcqi.s:29924  .debug_str:0000000000021cfd .LASF1692
C:\Users\CYMR90~1\AppData\Local\Temp\ccxApcqi.s:27564  .debug_str:0000000000018686 .LASF1693
C:\Users\CYMR90~1\AppData\Local\Temp\ccxApcqi.s:23495  .debug_str:00000000000080f1 .LASF1694
C:\Users\CYMR90~1\AppData\Local\Temp\ccxApcqi.s:25515  .debug_str:00000000000102ca .LASF1695
C:\Users\CYMR90~1\AppData\Local\Temp\ccxApcqi.s:27342  .debug_str:0000000000017976 .LASF1696
C:\Users\CYMR90~1\AppData\Local\Temp\ccxApcqi.s:26647  .debug_str:0000000000014ba7 .LASF1697
C:\Users\CYMR90~1\AppData\Local\Temp\ccxApcqi.s:29178  .debug_str:000000000001ef4f .LASF1698
C:\Users\CYMR90~1\AppData\Local\Temp\ccxApcqi.s:27740  .debug_str:00000000000192ee .LASF1699
C:\Users\CYMR90~1\AppData\Local\Temp\ccxApcqi.s:29628  .debug_str:0000000000020aec .LASF1700
C:\Users\CYMR90~1\AppData\Local\Temp\ccxApcqi.s:29174  .debug_str:000000000001ef12 .LASF1701
C:\Users\CYMR90~1\AppData\Local\Temp\ccxApcqi.s:30420  .debug_str:0000000000023a65 .LASF1702
C:\Users\CYMR90~1\AppData\Local\Temp\ccxApcqi.s:30382  .debug_str:0000000000023848 .LASF1703
C:\Users\CYMR90~1\AppData\Local\Temp\ccxApcqi.s:29914  .debug_str:0000000000021c67 .LASF1704
C:\Users\CYMR90~1\AppData\Local\Temp\ccxApcqi.s:28366  .debug_str:000000000001bc02 .LASF1705
C:\Users\CYMR90~1\AppData\Local\Temp\ccxApcqi.s:29772  .debug_str:000000000002138b .LASF1706
C:\Users\CYMR90~1\AppData\Local\Temp\ccxApcqi.s:27250  .debug_str:0000000000017376 .LASF1707
C:\Users\CYMR90~1\AppData\Local\Temp\ccxApcqi.s:26243  .debug_str:000000000001331d .LASF1708
C:\Users\CYMR90~1\AppData\Local\Temp\ccxApcqi.s:28926  .debug_str:000000000001e05f .LASF1709
C:\Users\CYMR90~1\AppData\Local\Temp\ccxApcqi.s:27482  .debug_str:000000000001819d .LASF1710
C:\Users\CYMR90~1\AppData\Local\Temp\ccxApcqi.s:24397  .debug_str:000000000000bb55 .LASF1711
C:\Users\CYMR90~1\AppData\Local\Temp\ccxApcqi.s:25883  .debug_str:0000000000011b01 .LASF1712
C:\Users\CYMR90~1\AppData\Local\Temp\ccxApcqi.s:23041  .debug_str:0000000000006261 .LASF1713
C:\Users\CYMR90~1\AppData\Local\Temp\ccxApcqi.s:25359  .debug_str:000000000000f8f6 .LASF1714
C:\Users\CYMR90~1\AppData\Local\Temp\ccxApcqi.s:22323  .debug_str:0000000000003484 .LASF1715
C:\Users\CYMR90~1\AppData\Local\Temp\ccxApcqi.s:25593  .debug_str:000000000001078b .LASF1716
C:\Users\CYMR90~1\AppData\Local\Temp\ccxApcqi.s:28896  .debug_str:000000000001de69 .LASF1717
C:\Users\CYMR90~1\AppData\Local\Temp\ccxApcqi.s:27444  .debug_str:0000000000017f62 .LASF1718
C:\Users\CYMR90~1\AppData\Local\Temp\ccxApcqi.s:25827  .debug_str:000000000001166f .LASF1719
C:\Users\CYMR90~1\AppData\Local\Temp\ccxApcqi.s:27804  .debug_str:00000000000196ed .LASF1720
C:\Users\CYMR90~1\AppData\Local\Temp\ccxApcqi.s:26319  .debug_str:00000000000137d4 .LASF1721
C:\Users\CYMR90~1\AppData\Local\Temp\ccxApcqi.s:22039  .debug_str:0000000000002278 .LASF1722
C:\Users\CYMR90~1\AppData\Local\Temp\ccxApcqi.s:28134  .debug_str:000000000001ad68 .LASF1723
C:\Users\CYMR90~1\AppData\Local\Temp\ccxApcqi.s:22103  .debug_str:0000000000002648 .LASF1724
C:\Users\CYMR90~1\AppData\Local\Temp\ccxApcqi.s:26835  .debug_str:00000000000156ea .LASF1725
C:\Users\CYMR90~1\AppData\Local\Temp\ccxApcqi.s:31622  .debug_str:0000000000028ad1 .LASF1726
C:\Users\CYMR90~1\AppData\Local\Temp\ccxApcqi.s:22935  .debug_str:0000000000005bea .LASF1727
C:\Users\CYMR90~1\AppData\Local\Temp\ccxApcqi.s:31268  .debug_str:000000000002730c .LASF1728
C:\Users\CYMR90~1\AppData\Local\Temp\ccxApcqi.s:28584  .debug_str:000000000001ca26 .LASF1729
C:\Users\CYMR90~1\AppData\Local\Temp\ccxApcqi.s:32420  .debug_str:000000000002bd23 .LASF1730
C:\Users\CYMR90~1\AppData\Local\Temp\ccxApcqi.s:31098  .debug_str:0000000000026801 .LASF1731
C:\Users\CYMR90~1\AppData\Local\Temp\ccxApcqi.s:25765  .debug_str:0000000000011273 .LASF1732
C:\Users\CYMR90~1\AppData\Local\Temp\ccxApcqi.s:23803  .debug_str:00000000000093f1 .LASF1733
C:\Users\CYMR90~1\AppData\Local\Temp\ccxApcqi.s:21803  .debug_str:000000000000143d .LASF1734
C:\Users\CYMR90~1\AppData\Local\Temp\ccxApcqi.s:27208  .debug_str:0000000000017120 .LASF1735
C:\Users\CYMR90~1\AppData\Local\Temp\ccxApcqi.s:29348  .debug_str:000000000001f990 .LASF1736
C:\Users\CYMR90~1\AppData\Local\Temp\ccxApcqi.s:23795  .debug_str:000000000000937b .LASF1737
C:\Users\CYMR90~1\AppData\Local\Temp\ccxApcqi.s:23515  .debug_str:0000000000008241 .LASF1738
C:\Users\CYMR90~1\AppData\Local\Temp\ccxApcqi.s:31106  .debug_str:0000000000026884 .LASF1739
C:\Users\CYMR90~1\AppData\Local\Temp\ccxApcqi.s:25117  .debug_str:000000000000ea2c .LASF1740
C:\Users\CYMR90~1\AppData\Local\Temp\ccxApcqi.s:24133  .debug_str:000000000000a90c .LASF1741
C:\Users\CYMR90~1\AppData\Local\Temp\ccxApcqi.s:29198  .debug_str:000000000001f070 .LASF1742
C:\Users\CYMR90~1\AppData\Local\Temp\ccxApcqi.s:24615  .debug_str:000000000000ca4f .LASF1743
C:\Users\CYMR90~1\AppData\Local\Temp\ccxApcqi.s:31380  .debug_str:0000000000027a52 .LASF1744
C:\Users\CYMR90~1\AppData\Local\Temp\ccxApcqi.s:23519  .debug_str:000000000000828b .LASF1745
C:\Users\CYMR90~1\AppData\Local\Temp\ccxApcqi.s:25415  .debug_str:000000000000fc99 .LASF1746
C:\Users\CYMR90~1\AppData\Local\Temp\ccxApcqi.s:30424  .debug_str:0000000000023aab .LASF1747
C:\Users\CYMR90~1\AppData\Local\Temp\ccxApcqi.s:30032  .debug_str:0000000000022329 .LASF1748
C:\Users\CYMR90~1\AppData\Local\Temp\ccxApcqi.s:25591  .debug_str:0000000000010768 .LASF1749
C:\Users\CYMR90~1\AppData\Local\Temp\ccxApcqi.s:24289  .debug_str:000000000000b3fa .LASF1750
C:\Users\CYMR90~1\AppData\Local\Temp\ccxApcqi.s:27378  .debug_str:0000000000017b7f .LASF1751
C:\Users\CYMR90~1\AppData\Local\Temp\ccxApcqi.s:22683  .debug_str:0000000000004cac .LASF1752
C:\Users\CYMR90~1\AppData\Local\Temp\ccxApcqi.s:28112  .debug_str:000000000001abf6 .LASF1753
C:\Users\CYMR90~1\AppData\Local\Temp\ccxApcqi.s:28010  .debug_str:000000000001a50b .LASF1754
C:\Users\CYMR90~1\AppData\Local\Temp\ccxApcqi.s:24555  .debug_str:000000000000c565 .LASF1755
C:\Users\CYMR90~1\AppData\Local\Temp\ccxApcqi.s:26133  .debug_str:0000000000012b7a .LASF1756
C:\Users\CYMR90~1\AppData\Local\Temp\ccxApcqi.s:28200  .debug_str:000000000001b218 .LASF1757
C:\Users\CYMR90~1\AppData\Local\Temp\ccxApcqi.s:25211  .debug_str:000000000000ef63 .LASF1758
C:\Users\CYMR90~1\AppData\Local\Temp\ccxApcqi.s:23337  .debug_str:0000000000007576 .LASF1759
C:\Users\CYMR90~1\AppData\Local\Temp\ccxApcqi.s:27954  .debug_str:000000000001a045 .LASF1760
C:\Users\CYMR90~1\AppData\Local\Temp\ccxApcqi.s:23623  .debug_str:000000000000893d .LASF1761
C:\Users\CYMR90~1\AppData\Local\Temp\ccxApcqi.s:21867  .debug_str:00000000000018a6 .LASF1762
C:\Users\CYMR90~1\AppData\Local\Temp\ccxApcqi.s:30612  .debug_str:00000000000247ba .LASF1763
C:\Users\CYMR90~1\AppData\Local\Temp\ccxApcqi.s:23365  .debug_str:0000000000007751 .LASF1764
C:\Users\CYMR90~1\AppData\Local\Temp\ccxApcqi.s:23055  .debug_str:000000000000635a .LASF1765
C:\Users\CYMR90~1\AppData\Local\Temp\ccxApcqi.s:21847  .debug_str:0000000000001752 .LASF1766
C:\Users\CYMR90~1\AppData\Local\Temp\ccxApcqi.s:28310  .debug_str:000000000001b86b .LASF1767
C:\Users\CYMR90~1\AppData\Local\Temp\ccxApcqi.s:21907  .debug_str:0000000000001af4 .LASF1768
C:\Users\CYMR90~1\AppData\Local\Temp\ccxApcqi.s:30812  .debug_str:0000000000025632 .LASF1769
C:\Users\CYMR90~1\AppData\Local\Temp\ccxApcqi.s:32490  .debug_str:000000000002c1f9 .LASF1770
C:\Users\CYMR90~1\AppData\Local\Temp\ccxApcqi.s:24449  .debug_str:000000000000bede .LASF1771
C:\Users\CYMR90~1\AppData\Local\Temp\ccxApcqi.s:24041  .debug_str:000000000000a35d .LASF1772
C:\Users\CYMR90~1\AppData\Local\Temp\ccxApcqi.s:21583  .debug_str:000000000000069c .LASF1773
C:\Users\CYMR90~1\AppData\Local\Temp\ccxApcqi.s:21631  .debug_str:0000000000000984 .LASF1774
C:\Users\CYMR90~1\AppData\Local\Temp\ccxApcqi.s:31526  .debug_str:00000000000284fd .LASF1775
C:\Users\CYMR90~1\AppData\Local\Temp\ccxApcqi.s:26545  .debug_str:000000000001457e .LASF1776
C:\Users\CYMR90~1\AppData\Local\Temp\ccxApcqi.s:25293  .debug_str:000000000000f492 .LASF1777
C:\Users\CYMR90~1\AppData\Local\Temp\ccxApcqi.s:27368  .debug_str:0000000000017af8 .LASF1778
C:\Users\CYMR90~1\AppData\Local\Temp\ccxApcqi.s:22777  .debug_str:000000000000525b .LASF1779
C:\Users\CYMR90~1\AppData\Local\Temp\ccxApcqi.s:30850  .debug_str:00000000000258a1 .LASF1780
C:\Users\CYMR90~1\AppData\Local\Temp\ccxApcqi.s:30064  .debug_str:0000000000022534 .LASF1781
C:\Users\CYMR90~1\AppData\Local\Temp\ccxApcqi.s:28594  .debug_str:000000000001cacf .LASF1784
C:\Users\CYMR90~1\AppData\Local\Temp\ccxApcqi.s:27750  .debug_str:0000000000019389 .LASF1785
C:\Users\CYMR90~1\AppData\Local\Temp\ccxApcqi.s:27598  .debug_str:00000000000188aa .LASF1786
C:\Users\CYMR90~1\AppData\Local\Temp\ccxApcqi.s:26589  .debug_str:0000000000014806 .LASF1787
C:\Users\CYMR90~1\AppData\Local\Temp\ccxApcqi.s:31954  .debug_str:0000000000029f7e .LASF1788
C:\Users\CYMR90~1\AppData\Local\Temp\ccxApcqi.s:32264  .debug_str:000000000002b28c .LASF1789
C:\Users\CYMR90~1\AppData\Local\Temp\ccxApcqi.s:22367  .debug_str:0000000000003788 .LASF1790
C:\Users\CYMR90~1\AppData\Local\Temp\ccxApcqi.s:21501  .debug_str:00000000000001e0 .LASF1791
C:\Users\CYMR90~1\AppData\Local\Temp\ccxApcqi.s:31190  .debug_str:0000000000026db0 .LASF1792
C:\Users\CYMR90~1\AppData\Local\Temp\ccxApcqi.s:30278  .debug_str:00000000000231a7 .LASF1793
C:\Users\CYMR90~1\AppData\Local\Temp\ccxApcqi.s:32146  .debug_str:000000000002aaf2 .LASF1794
C:\Users\CYMR90~1\AppData\Local\Temp\ccxApcqi.s:31460  .debug_str:0000000000028077 .LASF1795
C:\Users\CYMR90~1\AppData\Local\Temp\ccxApcqi.s:26255  .debug_str:00000000000133e7 .LASF1796
C:\Users\CYMR90~1\AppData\Local\Temp\ccxApcqi.s:26535  .debug_str:00000000000144a9 .LASF1797
C:\Users\CYMR90~1\AppData\Local\Temp\ccxApcqi.s:25651  .debug_str:0000000000010bd2 .LASF1798
C:\Users\CYMR90~1\AppData\Local\Temp\ccxApcqi.s:24475  .debug_str:000000000000c0aa .LASF1799
C:\Users\CYMR90~1\AppData\Local\Temp\ccxApcqi.s:27284  .debug_str:00000000000175b0 .LASF1800
C:\Users\CYMR90~1\AppData\Local\Temp\ccxApcqi.s:27590  .debug_str:0000000000018839 .LASF1801
C:\Users\CYMR90~1\AppData\Local\Temp\ccxApcqi.s:26669  .debug_str:0000000000014d47 .LASF1802
C:\Users\CYMR90~1\AppData\Local\Temp\ccxApcqi.s:25709  .debug_str:0000000000010ee4 .LASF1803
C:\Users\CYMR90~1\AppData\Local\Temp\ccxApcqi.s:25189  .debug_str:000000000000ee2e .LASF1804
C:\Users\CYMR90~1\AppData\Local\Temp\ccxApcqi.s:29860  .debug_str:00000000000218fc .LASF1805
C:\Users\CYMR90~1\AppData\Local\Temp\ccxApcqi.s:26555  .debug_str:0000000000014636 .LASF1806
C:\Users\CYMR90~1\AppData\Local\Temp\ccxApcqi.s:29464  .debug_str:0000000000020033 .LASF1807
C:\Users\CYMR90~1\AppData\Local\Temp\ccxApcqi.s:26693  .debug_str:0000000000014edd .LASF1808
C:\Users\CYMR90~1\AppData\Local\Temp\ccxApcqi.s:31452  .debug_str:0000000000027f65 .LASF1809
C:\Users\CYMR90~1\AppData\Local\Temp\ccxApcqi.s:28688  .debug_str:000000000001d197 .LASF1810
C:\Users\CYMR90~1\AppData\Local\Temp\ccxApcqi.s:27384  .debug_str:0000000000017bf4 .LASF1811
C:\Users\CYMR90~1\AppData\Local\Temp\ccxApcqi.s:21825  .debug_str:000000000000157b .LASF1812
C:\Users\CYMR90~1\AppData\Local\Temp\ccxApcqi.s:25603  .debug_str:0000000000010815 .LASF1813
C:\Users\CYMR90~1\AppData\Local\Temp\ccxApcqi.s:25867  .debug_str:0000000000011a20 .LASF1814
C:\Users\CYMR90~1\AppData\Local\Temp\ccxApcqi.s:28670  .debug_str:000000000001d0c4 .LASF1815
C:\Users\CYMR90~1\AppData\Local\Temp\ccxApcqi.s:27348  .debug_str:00000000000179e8 .LASF1816
C:\Users\CYMR90~1\AppData\Local\Temp\ccxApcqi.s:28678  .debug_str:000000000001d11d .LASF1817
C:\Users\CYMR90~1\AppData\Local\Temp\ccxApcqi.s:29122  .debug_str:000000000001ebc6 .LASF1818
C:\Users\CYMR90~1\AppData\Local\Temp\ccxApcqi.s:25411  .debug_str:000000000000fc61 .LASF1819
C:\Users\CYMR90~1\AppData\Local\Temp\ccxApcqi.s:29600  .debug_str:000000000002092c .LASF1820
C:\Users\CYMR90~1\AppData\Local\Temp\ccxApcqi.s:23081  .debug_str:00000000000064cc .LASF1821
C:\Users\CYMR90~1\AppData\Local\Temp\ccxApcqi.s:23455  .debug_str:0000000000007dc0 .LASF1822
C:\Users\CYMR90~1\AppData\Local\Temp\ccxApcqi.s:29054  .debug_str:000000000001e844 .LASF1823
C:\Users\CYMR90~1\AppData\Local\Temp\ccxApcqi.s:31732  .debug_str:0000000000029240 .LASF1824
C:\Users\CYMR90~1\AppData\Local\Temp\ccxApcqi.s:24353  .debug_str:000000000000b87b .LASF1825
C:\Users\CYMR90~1\AppData\Local\Temp\ccxApcqi.s:29696  .debug_str:0000000000020e87 .LASF1826
C:\Users\CYMR90~1\AppData\Local\Temp\ccxApcqi.s:25349  .debug_str:000000000000f877 .LASF1827
C:\Users\CYMR90~1\AppData\Local\Temp\ccxApcqi.s:25161  .debug_str:000000000000ecab .LASF1828
C:\Users\CYMR90~1\AppData\Local\Temp\ccxApcqi.s:25231  .debug_str:000000000000f0d8 .LASF1829
C:\Users\CYMR90~1\AppData\Local\Temp\ccxApcqi.s:26013  .debug_str:000000000001239c .LASF1830
C:\Users\CYMR90~1\AppData\Local\Temp\ccxApcqi.s:23823  .debug_str:0000000000009588 .LASF1831
C:\Users\CYMR90~1\AppData\Local\Temp\ccxApcqi.s:31134  .debug_str:0000000000026a1a .LASF1832
C:\Users\CYMR90~1\AppData\Local\Temp\ccxApcqi.s:24611  .debug_str:000000000000ca1d .LASF1833
C:\Users\CYMR90~1\AppData\Local\Temp\ccxApcqi.s:23281  .debug_str:000000000000720a .LASF1834
C:\Users\CYMR90~1\AppData\Local\Temp\ccxApcqi.s:26983  .debug_str:00000000000160d6 .LASF1835
C:\Users\CYMR90~1\AppData\Local\Temp\ccxApcqi.s:31002  .debug_str:00000000000261f0 .LASF1836
C:\Users\CYMR90~1\AppData\Local\Temp\ccxApcqi.s:26953  .debug_str:0000000000015f16 .LASF1837
C:\Users\CYMR90~1\AppData\Local\Temp\ccxApcqi.s:27678  .debug_str:0000000000018e4c .LASF1838
C:\Users\CYMR90~1\AppData\Local\Temp\ccxApcqi.s:25655  .debug_str:0000000000010c0a .LASF1839
C:\Users\CYMR90~1\AppData\Local\Temp\ccxApcqi.s:28626  .debug_str:000000000001cd74 .LASF1840
C:\Users\CYMR90~1\AppData\Local\Temp\ccxApcqi.s:27916  .debug_str:0000000000019e1c .LASF1841
C:\Users\CYMR90~1\AppData\Local\Temp\ccxApcqi.s:30694  .debug_str:0000000000024d2e .LASF1842
C:\Users\CYMR90~1\AppData\Local\Temp\ccxApcqi.s:31088  .debug_str:0000000000026760 .LASF1843
C:\Users\CYMR90~1\AppData\Local\Temp\ccxApcqi.s:32282  .debug_str:000000000002b3dc .LASF1844
C:\Users\CYMR90~1\AppData\Local\Temp\ccxApcqi.s:32140  .debug_str:000000000002aa9f .LASF1845
C:\Users\CYMR90~1\AppData\Local\Temp\ccxApcqi.s:23555  .debug_str:00000000000084f4 .LASF1846
C:\Users\CYMR90~1\AppData\Local\Temp\ccxApcqi.s:28828  .debug_str:000000000001da2f .LASF1847
C:\Users\CYMR90~1\AppData\Local\Temp\ccxApcqi.s:29968  .debug_str:0000000000021fa2 .LASF1848
C:\Users\CYMR90~1\AppData\Local\Temp\ccxApcqi.s:29984  .debug_str:000000000002209d .LASF1849
C:\Users\CYMR90~1\AppData\Local\Temp\ccxApcqi.s:29208  .debug_str:000000000001f10e .LASF1850
C:\Users\CYMR90~1\AppData\Local\Temp\ccxApcqi.s:23615  .debug_str:00000000000088ba .LASF1851
C:\Users\CYMR90~1\AppData\Local\Temp\ccxApcqi.s:31042  .debug_str:000000000002647f .LASF1852
C:\Users\CYMR90~1\AppData\Local\Temp\ccxApcqi.s:24847  .debug_str:000000000000d924 .LASF1853
C:\Users\CYMR90~1\AppData\Local\Temp\ccxApcqi.s:22275  .debug_str:0000000000003167 .LASF1854
C:\Users\CYMR90~1\AppData\Local\Temp\ccxApcqi.s:28708  .debug_str:000000000001d2dc .LASF1855
C:\Users\CYMR90~1\AppData\Local\Temp\ccxApcqi.s:31306  .debug_str:0000000000027534 .LASF1856
C:\Users\CYMR90~1\AppData\Local\Temp\ccxApcqi.s:23701  .debug_str:0000000000008e3d .LASF1857
C:\Users\CYMR90~1\AppData\Local\Temp\ccxApcqi.s:24537  .debug_str:000000000000c46c .LASF1858
C:\Users\CYMR90~1\AppData\Local\Temp\ccxApcqi.s:31400  .debug_str:0000000000027bb5 .LASF1859
C:\Users\CYMR90~1\AppData\Local\Temp\ccxApcqi.s:26699  .debug_str:0000000000014f3e .LASF1860
C:\Users\CYMR90~1\AppData\Local\Temp\ccxApcqi.s:27620  .debug_str:0000000000018a9e .LASF1861
C:\Users\CYMR90~1\AppData\Local\Temp\ccxApcqi.s:25461  .debug_str:000000000000ff7f .LASF1862
C:\Users\CYMR90~1\AppData\Local\Temp\ccxApcqi.s:23233  .debug_str:0000000000006e6d .LASF1863
C:\Users\CYMR90~1\AppData\Local\Temp\ccxApcqi.s:27532  .debug_str:000000000001848f .LASF1864
C:\Users\CYMR90~1\AppData\Local\Temp\ccxApcqi.s:22883  .debug_str:00000000000058ab .LASF1865
C:\Users\CYMR90~1\AppData\Local\Temp\ccxApcqi.s:30164  .debug_str:0000000000022b4a .LASF1866
C:\Users\CYMR90~1\AppData\Local\Temp\ccxApcqi.s:29392  .debug_str:000000000001fc44 .LASF1867
C:\Users\CYMR90~1\AppData\Local\Temp\ccxApcqi.s:24473  .debug_str:000000000000c07a .LASF1868
C:\Users\CYMR90~1\AppData\Local\Temp\ccxApcqi.s:21611  .debug_str:0000000000000856 .LASF1869
C:\Users\CYMR90~1\AppData\Local\Temp\ccxApcqi.s:21977  .debug_str:0000000000001f00 .LASF1870
C:\Users\CYMR90~1\AppData\Local\Temp\ccxApcqi.s:31682  .debug_str:0000000000028ea0 .LASF1871
C:\Users\CYMR90~1\AppData\Local\Temp\ccxApcqi.s:30790  .debug_str:0000000000025450 .LASF1872
C:\Users\CYMR90~1\AppData\Local\Temp\ccxApcqi.s:26825  .debug_str:000000000001564b .LASF1873
C:\Users\CYMR90~1\AppData\Local\Temp\ccxApcqi.s:23401  .debug_str:00000000000079ce .LASF1874
C:\Users\CYMR90~1\AppData\Local\Temp\ccxApcqi.s:24269  .debug_str:000000000000b22c .LASF1875
C:\Users\CYMR90~1\AppData\Local\Temp\ccxApcqi.s:31856  .debug_str:00000000000299e1 .LASF1876
C:\Users\CYMR90~1\AppData\Local\Temp\ccxApcqi.s:28144  .debug_str:000000000001ae60 .LASF1877
C:\Users\CYMR90~1\AppData\Local\Temp\ccxApcqi.s:28888  .debug_str:000000000001ddf5 .LASF1878
C:\Users\CYMR90~1\AppData\Local\Temp\ccxApcqi.s:25297  .debug_str:000000000000f4cb .LASF1879
C:\Users\CYMR90~1\AppData\Local\Temp\ccxApcqi.s:23659  .debug_str:0000000000008b64 .LASF1880
C:\Users\CYMR90~1\AppData\Local\Temp\ccxApcqi.s:29190  .debug_str:000000000001eff7 .LASF1881
C:\Users\CYMR90~1\AppData\Local\Temp\ccxApcqi.s:21721  .debug_str:0000000000000f7e .LASF1882
C:\Users\CYMR90~1\AppData\Local\Temp\ccxApcqi.s:29590  .debug_str:000000000002086a .LASF1883
C:\Users\CYMR90~1\AppData\Local\Temp\ccxApcqi.s:32278  .debug_str:000000000002b394 .LASF1884
C:\Users\CYMR90~1\AppData\Local\Temp\ccxApcqi.s:29298  .debug_str:000000000001f66c .LASF1885
C:\Users\CYMR90~1\AppData\Local\Temp\ccxApcqi.s:31416  .debug_str:0000000000027cb5 .LASF1886
C:\Users\CYMR90~1\AppData\Local\Temp\ccxApcqi.s:23541  .debug_str:00000000000083f3 .LASF1887
C:\Users\CYMR90~1\AppData\Local\Temp\ccxApcqi.s:23691  .debug_str:0000000000008d94 .LASF1888
C:\Users\CYMR90~1\AppData\Local\Temp\ccxApcqi.s:32310  .debug_str:000000000002b575 .LASF1889
C:\Users\CYMR90~1\AppData\Local\Temp\ccxApcqi.s:27766  .debug_str:0000000000019448 .LASF1890
C:\Users\CYMR90~1\AppData\Local\Temp\ccxApcqi.s:23869  .debug_str:000000000000987f .LASF1891
C:\Users\CYMR90~1\AppData\Local\Temp\ccxApcqi.s:23961  .debug_str:0000000000009e47 .LASF1892
C:\Users\CYMR90~1\AppData\Local\Temp\ccxApcqi.s:28514  .debug_str:000000000001c511 .LASF1893
C:\Users\CYMR90~1\AppData\Local\Temp\ccxApcqi.s:23685  .debug_str:0000000000008d28 .LASF1894
C:\Users\CYMR90~1\AppData\Local\Temp\ccxApcqi.s:24915  .debug_str:000000000000dd90 .LASF1895
C:\Users\CYMR90~1\AppData\Local\Temp\ccxApcqi.s:27218  .debug_str:00000000000171b4 .LASF1896
C:\Users\CYMR90~1\AppData\Local\Temp\ccxApcqi.s:21927  .debug_str:0000000000001c1d .LASF1897
C:\Users\CYMR90~1\AppData\Local\Temp\ccxApcqi.s:31158  .debug_str:0000000000026bcb .LASF1898
C:\Users\CYMR90~1\AppData\Local\Temp\ccxApcqi.s:28016  .debug_str:000000000001a57d .LASF1899
C:\Users\CYMR90~1\AppData\Local\Temp\ccxApcqi.s:24741  .debug_str:000000000000d2c3 .LASF1900
C:\Users\CYMR90~1\AppData\Local\Temp\ccxApcqi.s:21535  .debug_str:00000000000003ed .LASF1901
C:\Users\CYMR90~1\AppData\Local\Temp\ccxApcqi.s:22353  .debug_str:0000000000003678 .LASF1902
C:\Users\CYMR90~1\AppData\Local\Temp\ccxApcqi.s:24375  .debug_str:000000000000b995 .LASF1903
C:\Users\CYMR90~1\AppData\Local\Temp\ccxApcqi.s:32552  .debug_str:000000000002c5a7 .LASF1904
C:\Users\CYMR90~1\AppData\Local\Temp\ccxApcqi.s:27083  .debug_str:0000000000016776 .LASF1905
C:\Users\CYMR90~1\AppData\Local\Temp\ccxApcqi.s:23839  .debug_str:0000000000009643 .LASF1906
C:\Users\CYMR90~1\AppData\Local\Temp\ccxApcqi.s:31494  .debug_str:000000000002828d .LASF1907
C:\Users\CYMR90~1\AppData\Local\Temp\ccxApcqi.s:28552  .debug_str:000000000001c834 .LASF1908
C:\Users\CYMR90~1\AppData\Local\Temp\ccxApcqi.s:22871  .debug_str:00000000000057e8 .LASF1909
C:\Users\CYMR90~1\AppData\Local\Temp\ccxApcqi.s:31848  .debug_str:0000000000029964 .LASF1910
C:\Users\CYMR90~1\AppData\Local\Temp\ccxApcqi.s:28188  .debug_str:000000000001b160 .LASF1911
C:\Users\CYMR90~1\AppData\Local\Temp\ccxApcqi.s:27868  .debug_str:0000000000019b78 .LASF1912
C:\Users\CYMR90~1\AppData\Local\Temp\ccxApcqi.s:24287  .debug_str:000000000000b3db .LASF1913
C:\Users\CYMR90~1\AppData\Local\Temp\ccxApcqi.s:24129  .debug_str:000000000000a8b4 .LASF1914
C:\Users\CYMR90~1\AppData\Local\Temp\ccxApcqi.s:29496  .debug_str:0000000000020250 .LASF1915
C:\Users\CYMR90~1\AppData\Local\Temp\ccxApcqi.s:30764  .debug_str:0000000000025276 .LASF1916
C:\Users\CYMR90~1\AppData\Local\Temp\ccxApcqi.s:27382  .debug_str:0000000000017bc8 .LASF1917
C:\Users\CYMR90~1\AppData\Local\Temp\ccxApcqi.s:24035  .debug_str:000000000000a2f8 .LASF1918
C:\Users\CYMR90~1\AppData\Local\Temp\ccxApcqi.s:31904  .debug_str:0000000000029c8a .LASF1919
C:\Users\CYMR90~1\AppData\Local\Temp\ccxApcqi.s:28524  .debug_str:000000000001c5b4 .LASF1920
C:\Users\CYMR90~1\AppData\Local\Temp\ccxApcqi.s:25073  .debug_str:000000000000e752 .LASF1921
C:\Users\CYMR90~1\AppData\Local\Temp\ccxApcqi.s:23255  .debug_str:0000000000006ff5 .LASF1922
C:\Users\CYMR90~1\AppData\Local\Temp\ccxApcqi.s:29564  .debug_str:00000000000206de .LASF1923
C:\Users\CYMR90~1\AppData\Local\Temp\ccxApcqi.s:31636  .debug_str:0000000000028bbd .LASF1924
C:\Users\CYMR90~1\AppData\Local\Temp\ccxApcqi.s:24149  .debug_str:000000000000aa1f .LASF1925
C:\Users\CYMR90~1\AppData\Local\Temp\ccxApcqi.s:29390  .debug_str:000000000001fc16 .LASF1926
C:\Users\CYMR90~1\AppData\Local\Temp\ccxApcqi.s:28418  .debug_str:000000000001bf55 .LASF1927
C:\Users\CYMR90~1\AppData\Local\Temp\ccxApcqi.s:22391  .debug_str:0000000000003905 .LASF1928
C:\Users\CYMR90~1\AppData\Local\Temp\ccxApcqi.s:23305  .debug_str:0000000000007375 .LASF1929
C:\Users\CYMR90~1\AppData\Local\Temp\ccxApcqi.s:29316  .debug_str:000000000001f77b .LASF1930
C:\Users\CYMR90~1\AppData\Local\Temp\ccxApcqi.s:32580  .debug_str:000000000002c79c .LASF1931
C:\Users\CYMR90~1\AppData\Local\Temp\ccxApcqi.s:32270  .debug_str:000000000002b2fa .LASF1932
C:\Users\CYMR90~1\AppData\Local\Temp\ccxApcqi.s:23413  .debug_str:0000000000007a78 .LASF1933
C:\Users\CYMR90~1\AppData\Local\Temp\ccxApcqi.s:24453  .debug_str:000000000000bf39 .LASF1934
C:\Users\CYMR90~1\AppData\Local\Temp\ccxApcqi.s:28496  .debug_str:000000000001c3d6 .LASF1935
C:\Users\CYMR90~1\AppData\Local\Temp\ccxApcqi.s:22913  .debug_str:0000000000005a9c .LASF1936
C:\Users\CYMR90~1\AppData\Local\Temp\ccxApcqi.s:28352  .debug_str:000000000001bb05 .LASF1937
C:\Users\CYMR90~1\AppData\Local\Temp\ccxApcqi.s:27330  .debug_str:00000000000178cb .LASF1938
C:\Users\CYMR90~1\AppData\Local\Temp\ccxApcqi.s:26649  .debug_str:0000000000014bd3 .LASF1939
C:\Users\CYMR90~1\AppData\Local\Temp\ccxApcqi.s:23599  .debug_str:000000000000877f .LASF1940
C:\Users\CYMR90~1\AppData\Local\Temp\ccxApcqi.s:31700  .debug_str:0000000000028fdd .LASF1941
C:\Users\CYMR90~1\AppData\Local\Temp\ccxApcqi.s:28606  .debug_str:000000000001cb8c .LASF1942
C:\Users\CYMR90~1\AppData\Local\Temp\ccxApcqi.s:24507  .debug_str:000000000000c27a .LASF1943
C:\Users\CYMR90~1\AppData\Local\Temp\ccxApcqi.s:25637  .debug_str:0000000000010a84 .LASF1944
C:\Users\CYMR90~1\AppData\Local\Temp\ccxApcqi.s:29426  .debug_str:000000000001fe3f .LASF1945
C:\Users\CYMR90~1\AppData\Local\Temp\ccxApcqi.s:26363  .debug_str:0000000000013a5f .LASF1946
C:\Users\CYMR90~1\AppData\Local\Temp\ccxApcqi.s:23199  .debug_str:0000000000006c4d .LASF1947
C:\Users\CYMR90~1\AppData\Local\Temp\ccxApcqi.s:22133  .debug_str:0000000000002867 .LASF1948
C:\Users\CYMR90~1\AppData\Local\Temp\ccxApcqi.s:28240  .debug_str:000000000001b45e .LASF1949
C:\Users\CYMR90~1\AppData\Local\Temp\ccxApcqi.s:25179  .debug_str:000000000000ed8e .LASF1950
C:\Users\CYMR90~1\AppData\Local\Temp\ccxApcqi.s:22001  .debug_str:000000000000203d .LASF1951
C:\Users\CYMR90~1\AppData\Local\Temp\ccxApcqi.s:30180  .debug_str:0000000000022c1b .LASF1952
C:\Users\CYMR90~1\AppData\Local\Temp\ccxApcqi.s:30898  .debug_str:0000000000025b84 .LASF1953
C:\Users\CYMR90~1\AppData\Local\Temp\ccxApcqi.s:26493  .debug_str:0000000000014255 .LASF1954
C:\Users\CYMR90~1\AppData\Local\Temp\ccxApcqi.s:29710  .debug_str:0000000000020f5c .LASF1955
C:\Users\CYMR90~1\AppData\Local\Temp\ccxApcqi.s:30378  .debug_str:0000000000023811 .LASF1956
C:\Users\CYMR90~1\AppData\Local\Temp\ccxApcqi.s:22055  .debug_str:000000000000235b .LASF1957
C:\Users\CYMR90~1\AppData\Local\Temp\ccxApcqi.s:32110  .debug_str:000000000002a8f4 .LASF1958
C:\Users\CYMR90~1\AppData\Local\Temp\ccxApcqi.s:23419  .debug_str:0000000000007ae9 .LASF1959
C:\Users\CYMR90~1\AppData\Local\Temp\ccxApcqi.s:31684  .debug_str:0000000000028edf .LASF1960
C:\Users\CYMR90~1\AppData\Local\Temp\ccxApcqi.s:28560  .debug_str:000000000001c8c9 .LASF1961
C:\Users\CYMR90~1\AppData\Local\Temp\ccxApcqi.s:21575  .debug_str:0000000000000612 .LASF1962
C:\Users\CYMR90~1\AppData\Local\Temp\ccxApcqi.s:26871  .debug_str:000000000001590e .LASF1963
C:\Users\CYMR90~1\AppData\Local\Temp\ccxApcqi.s:30746  .debug_str:0000000000025158 .LASF1964
C:\Users\CYMR90~1\AppData\Local\Temp\ccxApcqi.s:23259  .debug_str:0000000000007060 .LASF1965
C:\Users\CYMR90~1\AppData\Local\Temp\ccxApcqi.s:28698  .debug_str:000000000001d220 .LASF1966
C:\Users\CYMR90~1\AppData\Local\Temp\ccxApcqi.s:32210  .debug_str:000000000002aebd .LASF1967
C:\Users\CYMR90~1\AppData\Local\Temp\ccxApcqi.s:28538  .debug_str:000000000001c743 .LASF1968
C:\Users\CYMR90~1\AppData\Local\Temp\ccxApcqi.s:30068  .debug_str:0000000000022574 .LASF1969
C:\Users\CYMR90~1\AppData\Local\Temp\ccxApcqi.s:23243  .debug_str:0000000000006f23 .LASF1970
C:\Users\CYMR90~1\AppData\Local\Temp\ccxApcqi.s:30072  .debug_str:00000000000225a5 .LASF1971
C:\Users\CYMR90~1\AppData\Local\Temp\ccxApcqi.s:30782  .debug_str:00000000000253a6 .LASF1972
C:\Users\CYMR90~1\AppData\Local\Temp\ccxApcqi.s:27856  .debug_str:0000000000019ab8 .LASF1973
C:\Users\CYMR90~1\AppData\Local\Temp\ccxApcqi.s:27662  .debug_str:0000000000018d56 .LASF1974
C:\Users\CYMR90~1\AppData\Local\Temp\ccxApcqi.s:32160  .debug_str:000000000002abea .LASF1975
C:\Users\CYMR90~1\AppData\Local\Temp\ccxApcqi.s:23437  .debug_str:0000000000007c95 .LASF1976
C:\Users\CYMR90~1\AppData\Local\Temp\ccxApcqi.s:23789  .debug_str:0000000000009332 .LASF1977
C:\Users\CYMR90~1\AppData\Local\Temp\ccxApcqi.s:31926  .debug_str:0000000000029dcc .LASF1978
C:\Users\CYMR90~1\AppData\Local\Temp\ccxApcqi.s:22737  .debug_str:0000000000004fea .LASF1979
C:\Users\CYMR90~1\AppData\Local\Temp\ccxApcqi.s:30684  .debug_str:0000000000024c86 .LASF1980
C:\Users\CYMR90~1\AppData\Local\Temp\ccxApcqi.s:30542  .debug_str:00000000000242f7 .LASF1981
C:\Users\CYMR90~1\AppData\Local\Temp\ccxApcqi.s:30384  .debug_str:000000000002386c .LASF1982
C:\Users\CYMR90~1\AppData\Local\Temp\ccxApcqi.s:31204  .debug_str:0000000000026e63 .LASF1983
C:\Users\CYMR90~1\AppData\Local\Temp\ccxApcqi.s:32114  .debug_str:000000000002a94a .LASF1984
C:\Users\CYMR90~1\AppData\Local\Temp\ccxApcqi.s:23391  .debug_str:00000000000078f1 .LASF1985
C:\Users\CYMR90~1\AppData\Local\Temp\ccxApcqi.s:28270  .debug_str:000000000001b649 .LASF1986
C:\Users\CYMR90~1\AppData\Local\Temp\ccxApcqi.s:26565  .debug_str:00000000000146bf .LASF1987
C:\Users\CYMR90~1\AppData\Local\Temp\ccxApcqi.s:23381  .debug_str:000000000000784e .LASF1988
C:\Users\CYMR90~1\AppData\Local\Temp\ccxApcqi.s:24605  .debug_str:000000000000c9c3 .LASF1989
C:\Users\CYMR90~1\AppData\Local\Temp\ccxApcqi.s:22483  .debug_str:0000000000003eff .LASF1990
C:\Users\CYMR90~1\AppData\Local\Temp\ccxApcqi.s:24667  .debug_str:000000000000cd45 .LASF1991
C:\Users\CYMR90~1\AppData\Local\Temp\ccxApcqi.s:25561  .debug_str:0000000000010597 .LASF1992
C:\Users\CYMR90~1\AppData\Local\Temp\ccxApcqi.s:22641  .debug_str:0000000000004a17 .LASF1993
C:\Users\CYMR90~1\AppData\Local\Temp\ccxApcqi.s:21717  .debug_str:0000000000000f4e .LASF1994
C:\Users\CYMR90~1\AppData\Local\Temp\ccxApcqi.s:30798  .debug_str:00000000000254e4 .LASF1995
C:\Users\CYMR90~1\AppData\Local\Temp\ccxApcqi.s:22351  .debug_str:0000000000003644 .LASF1996
C:\Users\CYMR90~1\AppData\Local\Temp\ccxApcqi.s:31256  .debug_str:0000000000027274 .LASF1997
C:\Users\CYMR90~1\AppData\Local\Temp\ccxApcqi.s:23571  .debug_str:00000000000085c4 .LASF1998
C:\Users\CYMR90~1\AppData\Local\Temp\ccxApcqi.s:27488  .debug_str:0000000000018207 .LASF1999
C:\Users\CYMR90~1\AppData\Local\Temp\ccxApcqi.s:26971  .debug_str:000000000001602b .LASF2000
C:\Users\CYMR90~1\AppData\Local\Temp\ccxApcqi.s:25797  .debug_str:0000000000011491 .LASF2001
C:\Users\CYMR90~1\AppData\Local\Temp\ccxApcqi.s:30078  .debug_str:000000000002260a .LASF2002
C:\Users\CYMR90~1\AppData\Local\Temp\ccxApcqi.s:31472  .debug_str:0000000000028140 .LASF2003
C:\Users\CYMR90~1\AppData\Local\Temp\ccxApcqi.s:26523  .debug_str:00000000000143d5 .LASF2004
C:\Users\CYMR90~1\AppData\Local\Temp\ccxApcqi.s:29970  .debug_str:0000000000021fbd .LASF2005
C:\Users\CYMR90~1\AppData\Local\Temp\ccxApcqi.s:27178  .debug_str:0000000000016f7f .LASF2006
C:\Users\CYMR90~1\AppData\Local\Temp\ccxApcqi.s:32362  .debug_str:000000000002b903 .LASF2007
C:\Users\CYMR90~1\AppData\Local\Temp\ccxApcqi.s:22779  .debug_str:0000000000005283 .LASF2008
C:\Users\CYMR90~1\AppData\Local\Temp\ccxApcqi.s:26291  .debug_str:000000000001362c .LASF2009
C:\Users\CYMR90~1\AppData\Local\Temp\ccxApcqi.s:28978  .debug_str:000000000001e375 .LASF2010
C:\Users\CYMR90~1\AppData\Local\Temp\ccxApcqi.s:24635  .debug_str:000000000000cb8e .LASF2011
C:\Users\CYMR90~1\AppData\Local\Temp\ccxApcqi.s:21909  .debug_str:0000000000001b1f .LASF2012
C:\Users\CYMR90~1\AppData\Local\Temp\ccxApcqi.s:30264  .debug_str:00000000000230ee .LASF2013
C:\Users\CYMR90~1\AppData\Local\Temp\ccxApcqi.s:30022  .debug_str:000000000002228b .LASF2014
C:\Users\CYMR90~1\AppData\Local\Temp\ccxApcqi.s:27994  .debug_str:000000000001a420 .LASF2015
C:\Users\CYMR90~1\AppData\Local\Temp\ccxApcqi.s:31836  .debug_str:00000000000298b0 .LASF2016
C:\Users\CYMR90~1\AppData\Local\Temp\ccxApcqi.s:30172  .debug_str:0000000000022bc4 .LASF2017
C:\Users\CYMR90~1\AppData\Local\Temp\ccxApcqi.s:32272  .debug_str:000000000002b32a .LASF2018
C:\Users\CYMR90~1\AppData\Local\Temp\ccxApcqi.s:28740  .debug_str:000000000001d4ad .LASF2019
C:\Users\CYMR90~1\AppData\Local\Temp\ccxApcqi.s:23139  .debug_str:000000000000687a .LASF2020
C:\Users\CYMR90~1\AppData\Local\Temp\ccxApcqi.s:30214  .debug_str:0000000000022e12 .LASF2021
C:\Users\CYMR90~1\AppData\Local\Temp\ccxApcqi.s:31194  .debug_str:0000000000026de5 .LASF2022
C:\Users\CYMR90~1\AppData\Local\Temp\ccxApcqi.s:27400  .debug_str:0000000000017d07 .LASF2023
C:\Users\CYMR90~1\AppData\Local\Temp\ccxApcqi.s:31136  .debug_str:0000000000026a2f .LASF2024
C:\Users\CYMR90~1\AppData\Local\Temp\ccxApcqi.s:24351  .debug_str:000000000000b860 .LASF2025
C:\Users\CYMR90~1\AppData\Local\Temp\ccxApcqi.s:32224  .debug_str:000000000002af9b .LASF2026
C:\Users\CYMR90~1\AppData\Local\Temp\ccxApcqi.s:22315  .debug_str:0000000000003402 .LASF2027
C:\Users\CYMR90~1\AppData\Local\Temp\ccxApcqi.s:30276  .debug_str:0000000000023189 .LASF2028
C:\Users\CYMR90~1\AppData\Local\Temp\ccxApcqi.s:29286  .debug_str:000000000001f597 .LASF2029
C:\Users\CYMR90~1\AppData\Local\Temp\ccxApcqi.s:21487  .debug_str:00000000000000ff .LASF2030
C:\Users\CYMR90~1\AppData\Local\Temp\ccxApcqi.s:27386  .debug_str:0000000000017c09 .LASF2031
C:\Users\CYMR90~1\AppData\Local\Temp\ccxApcqi.s:24123  .debug_str:000000000000a86f .LASF2032
C:\Users\CYMR90~1\AppData\Local\Temp\ccxApcqi.s:25315  .debug_str:000000000000f680 .LASF2033
C:\Users\CYMR90~1\AppData\Local\Temp\ccxApcqi.s:24331  .debug_str:000000000000b6d0 .LASF2034
C:\Users\CYMR90~1\AppData\Local\Temp\ccxApcqi.s:25865  .debug_str:0000000000011a03 .LASF2035
C:\Users\CYMR90~1\AppData\Local\Temp\ccxApcqi.s:29746  .debug_str:0000000000021210 .LASF2036
C:\Users\CYMR90~1\AppData\Local\Temp\ccxApcqi.s:30150  .debug_str:0000000000022a7d .LASF2037
C:\Users\CYMR90~1\AppData\Local\Temp\ccxApcqi.s:30726  .debug_str:0000000000024f73 .LASF2038
C:\Users\CYMR90~1\AppData\Local\Temp\ccxApcqi.s:25961  .debug_str:000000000001207d .LASF2039
C:\Users\CYMR90~1\AppData\Local\Temp\ccxApcqi.s:27936  .debug_str:0000000000019f50 .LASF2040
C:\Users\CYMR90~1\AppData\Local\Temp\ccxApcqi.s:24663  .debug_str:000000000000ccf5 .LASF2041
C:\Users\CYMR90~1\AppData\Local\Temp\ccxApcqi.s:22141  .debug_str:00000000000028da .LASF2042
C:\Users\CYMR90~1\AppData\Local\Temp\ccxApcqi.s:21981  .debug_str:0000000000001f57 .LASF2043
C:\Users\CYMR90~1\AppData\Local\Temp\ccxApcqi.s:32632  .debug_str:000000000002cb28 .LASF2044
C:\Users\CYMR90~1\AppData\Local\Temp\ccxApcqi.s:26261  .debug_str:0000000000013440 .LASF2045
C:\Users\CYMR90~1\AppData\Local\Temp\ccxApcqi.s:30038  .debug_str:0000000000022397 .LASF2046
C:\Users\CYMR90~1\AppData\Local\Temp\ccxApcqi.s:31648  .debug_str:0000000000028c94 .LASF2047
C:\Users\CYMR90~1\AppData\Local\Temp\ccxApcqi.s:28400  .debug_str:000000000001be3c .LASF2048
C:\Users\CYMR90~1\AppData\Local\Temp\ccxApcqi.s:28936  .debug_str:000000000001e0e0 .LASF2049
C:\Users\CYMR90~1\AppData\Local\Temp\ccxApcqi.s:22937  .debug_str:0000000000005c2d .LASF2050
C:\Users\CYMR90~1\AppData\Local\Temp\ccxApcqi.s:22301  .debug_str:0000000000003308 .LASF2051
C:\Users\CYMR90~1\AppData\Local\Temp\ccxApcqi.s:24235  .debug_str:000000000000b04e .LASF2052
C:\Users\CYMR90~1\AppData\Local\Temp\ccxApcqi.s:28078  .debug_str:000000000001a9c6 .LASF2053
C:\Users\CYMR90~1\AppData\Local\Temp\ccxApcqi.s:32070  .debug_str:000000000002a6a9 .LASF2054
C:\Users\CYMR90~1\AppData\Local\Temp\ccxApcqi.s:22747  .debug_str:0000000000005092 .LASF2055
C:\Users\CYMR90~1\AppData\Local\Temp\ccxApcqi.s:31092  .debug_str:0000000000026797 .LASF2056
C:\Users\CYMR90~1\AppData\Local\Temp\ccxApcqi.s:29100  .debug_str:000000000001eaab .LASF2057
C:\Users\CYMR90~1\AppData\Local\Temp\ccxApcqi.s:27236  .debug_str:00000000000172be .LASF2058
C:\Users\CYMR90~1\AppData\Local\Temp\ccxApcqi.s:24113  .debug_str:000000000000a7c6 .LASF2059
C:\Users\CYMR90~1\AppData\Local\Temp\ccxApcqi.s:24905  .debug_str:000000000000dcc7 .LASF2060
C:\Users\CYMR90~1\AppData\Local\Temp\ccxApcqi.s:29550  .debug_str:000000000002061b .LASF2061
C:\Users\CYMR90~1\AppData\Local\Temp\ccxApcqi.s:26393  .debug_str:0000000000013c2f .LASF2062
C:\Users\CYMR90~1\AppData\Local\Temp\ccxApcqi.s:22113  .debug_str:00000000000026f7 .LASF2063
C:\Users\CYMR90~1\AppData\Local\Temp\ccxApcqi.s:25681  .debug_str:0000000000010d54 .LASF2064
C:\Users\CYMR90~1\AppData\Local\Temp\ccxApcqi.s:29066  .debug_str:000000000001e8d5 .LASF2065
C:\Users\CYMR90~1\AppData\Local\Temp\ccxApcqi.s:23805  .debug_str:0000000000009412 .LASF2066
C:\Users\CYMR90~1\AppData\Local\Temp\ccxApcqi.s:24263  .debug_str:000000000000b1ce .LASF2067
C:\Users\CYMR90~1\AppData\Local\Temp\ccxApcqi.s:27336  .debug_str:000000000001792c .LASF2068
C:\Users\CYMR90~1\AppData\Local\Temp\ccxApcqi.s:26945  .debug_str:0000000000015e75 .LASF2069
C:\Users\CYMR90~1\AppData\Local\Temp\ccxApcqi.s:24795  .debug_str:000000000000d617 .LASF2070
C:\Users\CYMR90~1\AppData\Local\Temp\ccxApcqi.s:22907  .debug_str:0000000000005a55 .LASF2071
C:\Users\CYMR90~1\AppData\Local\Temp\ccxApcqi.s:26117  .debug_str:0000000000012a89 .LASF2072
C:\Users\CYMR90~1\AppData\Local\Temp\ccxApcqi.s:25139  .debug_str:000000000000eb8c .LASF2073
C:\Users\CYMR90~1\AppData\Local\Temp\ccxApcqi.s:24389  .debug_str:000000000000bab3 .LASF2074
C:\Users\CYMR90~1\AppData\Local\Temp\ccxApcqi.s:32440  .debug_str:000000000002be53 .LASF2075
C:\Users\CYMR90~1\AppData\Local\Temp\ccxApcqi.s:23677  .debug_str:0000000000008cea .LASF2076
C:\Users\CYMR90~1\AppData\Local\Temp\ccxApcqi.s:31724  .debug_str:00000000000291c5 .LASF2077
C:\Users\CYMR90~1\AppData\Local\Temp\ccxApcqi.s:22759  .debug_str:000000000000514c .LASF2078
C:\Users\CYMR90~1\AppData\Local\Temp\ccxApcqi.s:21877  .debug_str:0000000000001928 .LASF2079
C:\Users\CYMR90~1\AppData\Local\Temp\ccxApcqi.s:30304  .debug_str:0000000000023387 .LASF2080
C:\Users\CYMR90~1\AppData\Local\Temp\ccxApcqi.s:31612  .debug_str:0000000000028a41 .LASF2081
C:\Users\CYMR90~1\AppData\Local\Temp\ccxApcqi.s:31702  .debug_str:0000000000029005 .LASF2082
C:\Users\CYMR90~1\AppData\Local\Temp\ccxApcqi.s:25987  .debug_str:00000000000121f9 .LASF2083
C:\Users\CYMR90~1\AppData\Local\Temp\ccxApcqi.s:23459  .debug_str:0000000000007e00 .LASF2084
C:\Users\CYMR90~1\AppData\Local\Temp\ccxApcqi.s:30186  .debug_str:0000000000022c79 .LASF2085
C:\Users\CYMR90~1\AppData\Local\Temp\ccxApcqi.s:21771  .debug_str:0000000000001245 .LASF2086
C:\Users\CYMR90~1\AppData\Local\Temp\ccxApcqi.s:21625  .debug_str:0000000000000932 .LASF2087
C:\Users\CYMR90~1\AppData\Local\Temp\ccxApcqi.s:28192  .debug_str:000000000001b1a6 .LASF2088
C:\Users\CYMR90~1\AppData\Local\Temp\ccxApcqi.s:29256  .debug_str:000000000001f3f6 .LASF2089
C:\Users\CYMR90~1\AppData\Local\Temp\ccxApcqi.s:27164  .debug_str:0000000000016ea3 .LASF2090
C:\Users\CYMR90~1\AppData\Local\Temp\ccxApcqi.s:25921  .debug_str:0000000000011d4d .LASF2091
C:\Users\CYMR90~1\AppData\Local\Temp\ccxApcqi.s:27264  .debug_str:0000000000017472 .LASF2092
C:\Users\CYMR90~1\AppData\Local\Temp\ccxApcqi.s:26425  .debug_str:0000000000013df5 .LASF2093
C:\Users\CYMR90~1\AppData\Local\Temp\ccxApcqi.s:22295  .debug_str:00000000000032b8 .LASF2094
C:\Users\CYMR90~1\AppData\Local\Temp\ccxApcqi.s:22507  .debug_str:00000000000040ff .LASF2095
C:\Users\CYMR90~1\AppData\Local\Temp\ccxApcqi.s:23915  .debug_str:0000000000009b64 .LASF2096
C:\Users\CYMR90~1\AppData\Local\Temp\ccxApcqi.s:22271  .debug_str:0000000000003104 .LASF2097
C:\Users\CYMR90~1\AppData\Local\Temp\ccxApcqi.s:30908  .debug_str:0000000000025c22 .LASF2098
C:\Users\CYMR90~1\AppData\Local\Temp\ccxApcqi.s:25473  .debug_str:0000000000010069 .LASF2099
C:\Users\CYMR90~1\AppData\Local\Temp\ccxApcqi.s:24271  .debug_str:000000000000b255 .LASF2100
C:\Users\CYMR90~1\AppData\Local\Temp\ccxApcqi.s:23079  .debug_str:00000000000064a9 .LASF2101
C:\Users\CYMR90~1\AppData\Local\Temp\ccxApcqi.s:22191  .debug_str:0000000000002be2 .LASF2102
C:\Users\CYMR90~1\AppData\Local\Temp\ccxApcqi.s:23953  .debug_str:0000000000009da0 .LASF2103
C:\Users\CYMR90~1\AppData\Local\Temp\ccxApcqi.s:32392  .debug_str:000000000002baef .LASF2104
C:\Users\CYMR90~1\AppData\Local\Temp\ccxApcqi.s:27262  .debug_str:000000000001744e .LASF2105
C:\Users\CYMR90~1\AppData\Local\Temp\ccxApcqi.s:22289  .debug_str:0000000000003247 .LASF2106
C:\Users\CYMR90~1\AppData\Local\Temp\ccxApcqi.s:31672  .debug_str:0000000000028e27 .LASF2107
C:\Users\CYMR90~1\AppData\Local\Temp\ccxApcqi.s:25955  .debug_str:0000000000012003 .LASF2108
C:\Users\CYMR90~1\AppData\Local\Temp\ccxApcqi.s:22305  .debug_str:0000000000003346 .LASF2109
C:\Users\CYMR90~1\AppData\Local\Temp\ccxApcqi.s:24707  .debug_str:000000000000cfed .LASF2110
C:\Users\CYMR90~1\AppData\Local\Temp\ccxApcqi.s:27212  .debug_str:0000000000017158 .LASF2111
C:\Users\CYMR90~1\AppData\Local\Temp\ccxApcqi.s:29276  .debug_str:000000000001f511 .LASF2112
C:\Users\CYMR90~1\AppData\Local\Temp\ccxApcqi.s:31830  .debug_str:0000000000029856 .LASF2113
C:\Users\CYMR90~1\AppData\Local\Temp\ccxApcqi.s:31238  .debug_str:0000000000027155 .LASF2114
C:\Users\CYMR90~1\AppData\Local\Temp\ccxApcqi.s:26313  .debug_str:0000000000013764 .LASF2115
C:\Users\CYMR90~1\AppData\Local\Temp\ccxApcqi.s:28176  .debug_str:000000000001b085 .LASF2116
C:\Users\CYMR90~1\AppData\Local\Temp\ccxApcqi.s:26505  .debug_str:00000000000142f2 .LASF2117
C:\Users\CYMR90~1\AppData\Local\Temp\ccxApcqi.s:30534  .debug_str:0000000000024288 .LASF2118
C:\Users\CYMR90~1\AppData\Local\Temp\ccxApcqi.s:29218  .debug_str:000000000001f1ad .LASF2119
C:\Users\CYMR90~1\AppData\Local\Temp\ccxApcqi.s:22145  .debug_str:0000000000002911 .LASF2120
C:\Users\CYMR90~1\AppData\Local\Temp\ccxApcqi.s:29648  .debug_str:0000000000020bfb .LASF2121
C:\Users\CYMR90~1\AppData\Local\Temp\ccxApcqi.s:23529  .debug_str:0000000000008329 .LASF2122
C:\Users\CYMR90~1\AppData\Local\Temp\ccxApcqi.s:26361  .debug_str:0000000000013a3b .LASF2123
C:\Users\CYMR90~1\AppData\Local\Temp\ccxApcqi.s:28962  .debug_str:000000000001e277 .LASF2124
C:\Users\CYMR90~1\AppData\Local\Temp\ccxApcqi.s:26213  .debug_str:00000000000130c1 .LASF2125
C:\Users\CYMR90~1\AppData\Local\Temp\ccxApcqi.s:27328  .debug_str:00000000000178a4 .LASF2126
C:\Users\CYMR90~1\AppData\Local\Temp\ccxApcqi.s:31218  .debug_str:0000000000026f6e .LASF2127
C:\Users\CYMR90~1\AppData\Local\Temp\ccxApcqi.s:29760  .debug_str:00000000000212e6 .LASF2128
C:\Users\CYMR90~1\AppData\Local\Temp\ccxApcqi.s:25677  .debug_str:0000000000010d19 .LASF2129
C:\Users\CYMR90~1\AppData\Local\Temp\ccxApcqi.s:29666  .debug_str:0000000000020cea .LASF2130
C:\Users\CYMR90~1\AppData\Local\Temp\ccxApcqi.s:27550  .debug_str:000000000001857e .LASF2131
C:\Users\CYMR90~1\AppData\Local\Temp\ccxApcqi.s:29492  .debug_str:000000000002020b .LASF2132
C:\Users\CYMR90~1\AppData\Local\Temp\ccxApcqi.s:25859  .debug_str:000000000001198d .LASF2133
C:\Users\CYMR90~1\AppData\Local\Temp\ccxApcqi.s:22279  .debug_str:00000000000031a9 .LASF2134
C:\Users\CYMR90~1\AppData\Local\Temp\ccxApcqi.s:22025  .debug_str:0000000000002192 .LASF2135
C:\Users\CYMR90~1\AppData\Local\Temp\ccxApcqi.s:27710  .debug_str:0000000000019100 .LASF2136
C:\Users\CYMR90~1\AppData\Local\Temp\ccxApcqi.s:31934  .debug_str:0000000000029e5b .LASF2137
C:\Users\CYMR90~1\AppData\Local\Temp\ccxApcqi.s:23531  .debug_str:000000000000834e .LASF2138
C:\Users\CYMR90~1\AppData\Local\Temp\ccxApcqi.s:29854  .debug_str:000000000002189e .LASF2139
C:\Users\CYMR90~1\AppData\Local\Temp\ccxApcqi.s:25775  .debug_str:0000000000011316 .LASF2140
C:\Users\CYMR90~1\AppData\Local\Temp\ccxApcqi.s:25257  .debug_str:000000000000f291 .LASF2141
C:\Users\CYMR90~1\AppData\Local\Temp\ccxApcqi.s:29234  .debug_str:000000000001f2a8 .LASF2142
C:\Users\CYMR90~1\AppData\Local\Temp\ccxApcqi.s:29782  .debug_str:0000000000021428 .LASF2143
C:\Users\CYMR90~1\AppData\Local\Temp\ccxApcqi.s:26051  .debug_str:0000000000012613 .LASF2144
C:\Users\CYMR90~1\AppData\Local\Temp\ccxApcqi.s:22307  .debug_str:000000000000336d .LASF2145
C:\Users\CYMR90~1\AppData\Local\Temp\ccxApcqi.s:21493  .debug_str:0000000000000148 .LASF2146
C:\Users\CYMR90~1\AppData\Local\Temp\ccxApcqi.s:25111  .debug_str:000000000000e9c2 .LASF2147
C:\Users\CYMR90~1\AppData\Local\Temp\ccxApcqi.s:27270  .debug_str:00000000000174c8 .LASF2148
C:\Users\CYMR90~1\AppData\Local\Temp\ccxApcqi.s:26731  .debug_str:0000000000015136 .LASF2149
C:\Users\CYMR90~1\AppData\Local\Temp\ccxApcqi.s:31240  .debug_str:000000000002717c .LASF2150
C:\Users\CYMR90~1\AppData\Local\Temp\ccxApcqi.s:26315  .debug_str:000000000001378b .LASF2151
C:\Users\CYMR90~1\AppData\Local\Temp\ccxApcqi.s:24873  .debug_str:000000000000da71 .LASF2152
C:\Users\CYMR90~1\AppData\Local\Temp\ccxApcqi.s:22919  .debug_str:0000000000005b07 .LASF2153
C:\Users\CYMR90~1\AppData\Local\Temp\ccxApcqi.s:27045  .debug_str:00000000000164e8 .LASF2154
C:\Users\CYMR90~1\AppData\Local\Temp\ccxApcqi.s:21829  .debug_str:00000000000015cb .LASF2155
C:\Users\CYMR90~1\AppData\Local\Temp\ccxApcqi.s:22377  .debug_str:000000000000382c .LASF2156
C:\Users\CYMR90~1\AppData\Local\Temp\ccxApcqi.s:31206  .debug_str:0000000000026e86 .LASF2157
C:\Users\CYMR90~1\AppData\Local\Temp\ccxApcqi.s:25711  .debug_str:0000000000010f08 .LASF2158
C:\Users\CYMR90~1\AppData\Local\Temp\ccxApcqi.s:27612  .debug_str:000000000001899f .LASF2159
C:\Users\CYMR90~1\AppData\Local\Temp\ccxApcqi.s:31012  .debug_str:00000000000262a2 .LASF2160
C:\Users\CYMR90~1\AppData\Local\Temp\ccxApcqi.s:23705  .debug_str:0000000000008e7f .LASF2161
C:\Users\CYMR90~1\AppData\Local\Temp\ccxApcqi.s:31916  .debug_str:0000000000029d49 .LASF2162
C:\Users\CYMR90~1\AppData\Local\Temp\ccxApcqi.s:32620  .debug_str:000000000002ca0a .LASF2163
C:\Users\CYMR90~1\AppData\Local\Temp\ccxApcqi.s:22413  .debug_str:0000000000003a8e .LASF2164
C:\Users\CYMR90~1\AppData\Local\Temp\ccxApcqi.s:30286  .debug_str:0000000000023225 .LASF2165
C:\Users\CYMR90~1\AppData\Local\Temp\ccxApcqi.s:27694  .debug_str:0000000000019021 .LASF2166
C:\Users\CYMR90~1\AppData\Local\Temp\ccxApcqi.s:25251  .debug_str:000000000000f23a .LASF2167
C:\Users\CYMR90~1\AppData\Local\Temp\ccxApcqi.s:23563  .debug_str:000000000000854f .LASF2168
C:\Users\CYMR90~1\AppData\Local\Temp\ccxApcqi.s:28794  .debug_str:000000000001d850 .LASF2169
C:\Users\CYMR90~1\AppData\Local\Temp\ccxApcqi.s:26993  .debug_str:0000000000016178 .LASF2170
C:\Users\CYMR90~1\AppData\Local\Temp\ccxApcqi.s:25025  .debug_str:000000000000e42e .LASF2171
C:\Users\CYMR90~1\AppData\Local\Temp\ccxApcqi.s:25167  .debug_str:000000000000eced .LASF2172
C:\Users\CYMR90~1\AppData\Local\Temp\ccxApcqi.s:29240  .debug_str:000000000001f301 .LASF2173
C:\Users\CYMR90~1\AppData\Local\Temp\ccxApcqi.s:26933  .debug_str:0000000000015d98 .LASF2174
C:\Users\CYMR90~1\AppData\Local\Temp\ccxApcqi.s:25915  .debug_str:0000000000011d0b .LASF2175
C:\Users\CYMR90~1\AppData\Local\Temp\ccxApcqi.s:29030  .debug_str:000000000001e6c8 .LASF2176
C:\Users\CYMR90~1\AppData\Local\Temp\ccxApcqi.s:24273  .debug_str:000000000000b264 .LASF2177
C:\Users\CYMR90~1\AppData\Local\Temp\ccxApcqi.s:29930  .debug_str:0000000000021d4c .LASF2178
C:\Users\CYMR90~1\AppData\Local\Temp\ccxApcqi.s:24887  .debug_str:000000000000db6a .LASF2179
C:\Users\CYMR90~1\AppData\Local\Temp\ccxApcqi.s:23409  .debug_str:0000000000007a42 .LASF2180
C:\Users\CYMR90~1\AppData\Local\Temp\ccxApcqi.s:30928  .debug_str:0000000000025d85 .LASF2181
C:\Users\CYMR90~1\AppData\Local\Temp\ccxApcqi.s:25057  .debug_str:000000000000e660 .LASF2182
C:\Users\CYMR90~1\AppData\Local\Temp\ccxApcqi.s:26967  .debug_str:0000000000015ff5 .LASF2183
C:\Users\CYMR90~1\AppData\Local\Temp\ccxApcqi.s:22527  .debug_str:000000000000421f .LASF2184
C:\Users\CYMR90~1\AppData\Local\Temp\ccxApcqi.s:25341  .debug_str:000000000000f80d .LASF2185
C:\Users\CYMR90~1\AppData\Local\Temp\ccxApcqi.s:32182  .debug_str:000000000002ad38 .LASF2186
C:\Users\CYMR90~1\AppData\Local\Temp\ccxApcqi.s:29040  .debug_str:000000000001e768 .LASF2187
C:\Users\CYMR90~1\AppData\Local\Temp\ccxApcqi.s:23899  .debug_str:0000000000009a92 .LASF2188
C:\Users\CYMR90~1\AppData\Local\Temp\ccxApcqi.s:28030  .debug_str:000000000001a6e9 .LASF2189
C:\Users\CYMR90~1\AppData\Local\Temp\ccxApcqi.s:22469  .debug_str:0000000000003dbd .LASF2190
C:\Users\CYMR90~1\AppData\Local\Temp\ccxApcqi.s:23999  .debug_str:000000000000a09e .LASF2191
C:\Users\CYMR90~1\AppData\Local\Temp\ccxApcqi.s:30682  .debug_str:0000000000024c4a .LASF2192
C:\Users\CYMR90~1\AppData\Local\Temp\ccxApcqi.s:22395  .debug_str:0000000000003952 .LASF2193
C:\Users\CYMR90~1\AppData\Local\Temp\ccxApcqi.s:25803  .debug_str:00000000000114e7 .LASF2194
C:\Users\CYMR90~1\AppData\Local\Temp\ccxApcqi.s:30486  .debug_str:0000000000023f07 .LASF2195
C:\Users\CYMR90~1\AppData\Local\Temp\ccxApcqi.s:23357  .debug_str:00000000000076bf .LASF2196
C:\Users\CYMR90~1\AppData\Local\Temp\ccxApcqi.s:26663  .debug_str:0000000000014ccc .LASF2197
C:\Users\CYMR90~1\AppData\Local\Temp\ccxApcqi.s:23631  .debug_str:00000000000089b6 .LASF2198
C:\Users\CYMR90~1\AppData\Local\Temp\ccxApcqi.s:29486  .debug_str:00000000000201c2 .LASF2199
C:\Users\CYMR90~1\AppData\Local\Temp\ccxApcqi.s:24137  .debug_str:000000000000a94e .LASF2200
C:\Users\CYMR90~1\AppData\Local\Temp\ccxApcqi.s:29998  .debug_str:0000000000022160 .LASF2201
C:\Users\CYMR90~1\AppData\Local\Temp\ccxApcqi.s:29320  .debug_str:000000000001f7bc .LASF2202
C:\Users\CYMR90~1\AppData\Local\Temp\ccxApcqi.s:30500  .debug_str:000000000002402c .LASF2203
C:\Users\CYMR90~1\AppData\Local\Temp\ccxApcqi.s:31080  .debug_str:00000000000266e8 .LASF2204
C:\Users\CYMR90~1\AppData\Local\Temp\ccxApcqi.s:30912  .debug_str:0000000000025c55 .LASF2205
C:\Users\CYMR90~1\AppData\Local\Temp\ccxApcqi.s:30550  .debug_str:000000000002435e .LASF2206
C:\Users\CYMR90~1\AppData\Local\Temp\ccxApcqi.s:29614  .debug_str:0000000000020a10 .LASF2207
C:\Users\CYMR90~1\AppData\Local\Temp\ccxApcqi.s:25521  .debug_str:000000000001032b .LASF2208
C:\Users\CYMR90~1\AppData\Local\Temp\ccxApcqi.s:27658  .debug_str:0000000000018d08 .LASF2209
C:\Users\CYMR90~1\AppData\Local\Temp\ccxApcqi.s:29466  .debug_str:0000000000020047 .LASF2210
C:\Users\CYMR90~1\AppData\Local\Temp\ccxApcqi.s:24401  .debug_str:000000000000bba6 .LASF2211
C:\Users\CYMR90~1\AppData\Local\Temp\ccxApcqi.s:23137  .debug_str:0000000000006852 .LASF2212
C:\Users\CYMR90~1\AppData\Local\Temp\ccxApcqi.s:32366  .debug_str:000000000002b931 .LASF2213
C:\Users\CYMR90~1\AppData\Local\Temp\ccxApcqi.s:32442  .debug_str:000000000002be64 .LASF2214
C:\Users\CYMR90~1\AppData\Local\Temp\ccxApcqi.s:26411  .debug_str:0000000000013d0a .LASF2215
C:\Users\CYMR90~1\AppData\Local\Temp\ccxApcqi.s:24097  .debug_str:000000000000a6de .LASF2216
C:\Users\CYMR90~1\AppData\Local\Temp\ccxApcqi.s:28266  .debug_str:000000000001b611 .LASF2217
C:\Users\CYMR90~1\AppData\Local\Temp\ccxApcqi.s:27584  .debug_str:00000000000187e9 .LASF2218
C:\Users\CYMR90~1\AppData\Local\Temp\ccxApcqi.s:32214  .debug_str:000000000002aefa .LASF2219
C:\Users\CYMR90~1\AppData\Local\Temp\ccxApcqi.s:28818  .debug_str:000000000001d9b1 .LASF2220
C:\Users\CYMR90~1\AppData\Local\Temp\ccxApcqi.s:27672  .debug_str:0000000000018dcd .LASF2221
C:\Users\CYMR90~1\AppData\Local\Temp\ccxApcqi.s:26087  .debug_str:000000000001286e .LASF2222
C:\Users\CYMR90~1\AppData\Local\Temp\ccxApcqi.s:28308  .debug_str:000000000001b844 .LASF2223
C:\Users\CYMR90~1\AppData\Local\Temp\ccxApcqi.s:30904  .debug_str:0000000000025be7 .LASF2224
C:\Users\CYMR90~1\AppData\Local\Temp\ccxApcqi.s:21513  .debug_str:000000000000027b .LASF2225
C:\Users\CYMR90~1\AppData\Local\Temp\ccxApcqi.s:22605  .debug_str:000000000000474d .LASF2226
C:\Users\CYMR90~1\AppData\Local\Temp\ccxApcqi.s:27858  .debug_str:0000000000019ac9 .LASF2227
C:\Users\CYMR90~1\AppData\Local\Temp\ccxApcqi.s:27134  .debug_str:0000000000016ce1 .LASF2228
C:\Users\CYMR90~1\AppData\Local\Temp\ccxApcqi.s:28870  .debug_str:000000000001dcde .LASF2229
C:\Users\CYMR90~1\AppData\Local\Temp\ccxApcqi.s:22573  .debug_str:0000000000004529 .LASF2230
C:\Users\CYMR90~1\AppData\Local\Temp\ccxApcqi.s:29094  .debug_str:000000000001ea38 .LASF2231
C:\Users\CYMR90~1\AppData\Local\Temp\ccxApcqi.s:21887  .debug_str:00000000000019c3 .LASF2232
C:\Users\CYMR90~1\AppData\Local\Temp\ccxApcqi.s:27846  .debug_str:0000000000019a05 .LASF2233
C:\Users\CYMR90~1\AppData\Local\Temp\ccxApcqi.s:24569  .debug_str:000000000000c6aa .LASF2234
C:\Users\CYMR90~1\AppData\Local\Temp\ccxApcqi.s:22807  .debug_str:0000000000005447 .LASF2235
C:\Users\CYMR90~1\AppData\Local\Temp\ccxApcqi.s:32398  .debug_str:000000000002bb4c .LASF2236
C:\Users\CYMR90~1\AppData\Local\Temp\ccxApcqi.s:25029  .debug_str:000000000000e469 .LASF2237
C:\Users\CYMR90~1\AppData\Local\Temp\ccxApcqi.s:29736  .debug_str:0000000000021174 .LASF2238
C:\Users\CYMR90~1\AppData\Local\Temp\ccxApcqi.s:28774  .debug_str:000000000001d704 .LASF2239
C:\Users\CYMR90~1\AppData\Local\Temp\ccxApcqi.s:28702  .debug_str:000000000001d25d .LASF2240
C:\Users\CYMR90~1\AppData\Local\Temp\ccxApcqi.s:21949  .debug_str:0000000000001d6c .LASF2241
C:\Users\CYMR90~1\AppData\Local\Temp\ccxApcqi.s:29754  .debug_str:0000000000021292 .LASF2242
C:\Users\CYMR90~1\AppData\Local\Temp\ccxApcqi.s:31282  .debug_str:00000000000273c6 .LASF2243
C:\Users\CYMR90~1\AppData\Local\Temp\ccxApcqi.s:25937  .debug_str:0000000000011e35 .LASF2244
C:\Users\CYMR90~1\AppData\Local\Temp\ccxApcqi.s:27144  .debug_str:0000000000016d7d .LASF2245
C:\Users\CYMR90~1\AppData\Local\Temp\ccxApcqi.s:24087  .debug_str:000000000000a5fb .LASF2246
C:\Users\CYMR90~1\AppData\Local\Temp\ccxApcqi.s:26727  .debug_str:00000000000150ea .LASF2247
C:\Users\CYMR90~1\AppData\Local\Temp\ccxApcqi.s:22309  .debug_str:0000000000003394 .LASF2248
C:\Users\CYMR90~1\AppData\Local\Temp\ccxApcqi.s:29114  .debug_str:000000000001eb67 .LASF2249
C:\Users\CYMR90~1\AppData\Local\Temp\ccxApcqi.s:28244  .debug_str:000000000001b49c .LASF2250
C:\Users\CYMR90~1\AppData\Local\Temp\ccxApcqi.s:27304  .debug_str:00000000000176e7 .LASF2251
C:\Users\CYMR90~1\AppData\Local\Temp\ccxApcqi.s:30506  .debug_str:0000000000024095 .LASF2252
C:\Users\CYMR90~1\AppData\Local\Temp\ccxApcqi.s:26093  .debug_str:00000000000128cb .LASF2253
C:\Users\CYMR90~1\AppData\Local\Temp\ccxApcqi.s:24837  .debug_str:000000000000d87e .LASF2254
C:\Users\CYMR90~1\AppData\Local\Temp\ccxApcqi.s:23617  .debug_str:00000000000088d7 .LASF2255
C:\Users\CYMR90~1\AppData\Local\Temp\ccxApcqi.s:25499  .debug_str:00000000000101ea .LASF2256
C:\Users\CYMR90~1\AppData\Local\Temp\ccxApcqi.s:28516  .debug_str:000000000001c53d .LASF2257
C:\Users\CYMR90~1\AppData\Local\Temp\ccxApcqi.s:25793  .debug_str:0000000000011445 .LASF2258
C:\Users\CYMR90~1\AppData\Local\Temp\ccxApcqi.s:26015  .debug_str:00000000000123b0 .LASF2259
C:\Users\CYMR90~1\AppData\Local\Temp\ccxApcqi.s:25695  .debug_str:0000000000010dff .LASF2260
C:\Users\CYMR90~1\AppData\Local\Temp\ccxApcqi.s:26775  .debug_str:000000000001539e .LASF2261
C:\Users\CYMR90~1\AppData\Local\Temp\ccxApcqi.s:22009  .debug_str:00000000000020ae .LASF2262
C:\Users\CYMR90~1\AppData\Local\Temp\ccxApcqi.s:25079  .debug_str:000000000000e7b8 .LASF2263
C:\Users\CYMR90~1\AppData\Local\Temp\ccxApcqi.s:28890  .debug_str:000000000001de1f .LASF2264
C:\Users\CYMR90~1\AppData\Local\Temp\ccxApcqi.s:27950  .debug_str:000000000001a009 .LASF2265
C:\Users\CYMR90~1\AppData\Local\Temp\ccxApcqi.s:24923  .debug_str:000000000000ddff .LASF2266
C:\Users\CYMR90~1\AppData\Local\Temp\ccxApcqi.s:24285  .debug_str:000000000000b3bb .LASF2267
C:\Users\CYMR90~1\AppData\Local\Temp\ccxApcqi.s:27312  .debug_str:00000000000177a1 .LASF2268
C:\Users\CYMR90~1\AppData\Local\Temp\ccxApcqi.s:32132  .debug_str:000000000002aa2b .LASF2269
C:\Users\CYMR90~1\AppData\Local\Temp\ccxApcqi.s:22627  .debug_str:0000000000004931 .LASF2270
C:\Users\CYMR90~1\AppData\Local\Temp\ccxApcqi.s:28396  .debug_str:000000000001bdfc .LASF2271
C:\Users\CYMR90~1\AppData\Local\Temp\ccxApcqi.s:28796  .debug_str:000000000001d868 .LASF2272
C:\Users\CYMR90~1\AppData\Local\Temp\ccxApcqi.s:26621  .debug_str:0000000000014a01 .LASF2273
C:\Users\CYMR90~1\AppData\Local\Temp\ccxApcqi.s:31488  .debug_str:000000000002823d .LASF2274
C:\Users\CYMR90~1\AppData\Local\Temp\ccxApcqi.s:28150  .debug_str:000000000001aec3 .LASF2275
C:\Users\CYMR90~1\AppData\Local\Temp\ccxApcqi.s:24843  .debug_str:000000000000d8e9 .LASF2276
C:\Users\CYMR90~1\AppData\Local\Temp\ccxApcqi.s:22407  .debug_str:0000000000003a28 .LASF2277
C:\Users\CYMR90~1\AppData\Local\Temp\ccxApcqi.s:21681  .debug_str:0000000000000cdd .LASF2278
C:\Users\CYMR90~1\AppData\Local\Temp\ccxApcqi.s:31344  .debug_str:00000000000277bb .LASF2279
C:\Users\CYMR90~1\AppData\Local\Temp\ccxApcqi.s:29740  .debug_str:00000000000211b2 .LASF2280
C:\Users\CYMR90~1\AppData\Local\Temp\ccxApcqi.s:22811  .debug_str:000000000000547b .LASF2281
C:\Users\CYMR90~1\AppData\Local\Temp\ccxApcqi.s:27884  .debug_str:0000000000019c5d .LASF2282
C:\Users\CYMR90~1\AppData\Local\Temp\ccxApcqi.s:27200  .debug_str:00000000000170a1 .LASF2283
C:\Users\CYMR90~1\AppData\Local\Temp\ccxApcqi.s:28572  .debug_str:000000000001c968 .LASF2284
C:\Users\CYMR90~1\AppData\Local\Temp\ccxApcqi.s:28110  .debug_str:000000000001abd0 .LASF2285
C:\Users\CYMR90~1\AppData\Local\Temp\ccxApcqi.s:31300  .debug_str:00000000000274c4 .LASF2286
C:\Users\CYMR90~1\AppData\Local\Temp\ccxApcqi.s:25701  .debug_str:0000000000010e59 .LASF2287
C:\Users\CYMR90~1\AppData\Local\Temp\ccxApcqi.s:29894  .debug_str:0000000000021b3e .LASF2288
C:\Users\CYMR90~1\AppData\Local\Temp\ccxApcqi.s:31798  .debug_str:0000000000029681 .LASF2289
C:\Users\CYMR90~1\AppData\Local\Temp\ccxApcqi.s:25907  .debug_str:0000000000011c60 .LASF2290
C:\Users\CYMR90~1\AppData\Local\Temp\ccxApcqi.s:32266  .debug_str:000000000002b2b0 .LASF2291
C:\Users\CYMR90~1\AppData\Local\Temp\ccxApcqi.s:28982  .debug_str:000000000001e3c2 .LASF2292
C:\Users\CYMR90~1\AppData\Local\Temp\ccxApcqi.s:22711  .debug_str:0000000000004e5f .LASF2293
C:\Users\CYMR90~1\AppData\Local\Temp\ccxApcqi.s:31662  .debug_str:0000000000028d65 .LASF2294
C:\Users\CYMR90~1\AppData\Local\Temp\ccxApcqi.s:32230  .debug_str:000000000002b032 .LASF2295
C:\Users\CYMR90~1\AppData\Local\Temp\ccxApcqi.s:24903  .debug_str:000000000000dc9c .LASF2296
C:\Users\CYMR90~1\AppData\Local\Temp\ccxApcqi.s:24877  .debug_str:000000000000daa7 .LASF2297
C:\Users\CYMR90~1\AppData\Local\Temp\ccxApcqi.s:24265  .debug_str:000000000000b1df .LASF2298
C:\Users\CYMR90~1\AppData\Local\Temp\ccxApcqi.s:26423  .debug_str:0000000000013dca .LASF2299
C:\Users\CYMR90~1\AppData\Local\Temp\ccxApcqi.s:31502  .debug_str:0000000000028332 .LASF2300
C:\Users\CYMR90~1\AppData\Local\Temp\ccxApcqi.s:25227  .debug_str:000000000000f085 .LASF2301
C:\Users\CYMR90~1\AppData\Local\Temp\ccxApcqi.s:28340  .debug_str:000000000001ba60 .LASF2302
C:\Users\CYMR90~1\AppData\Local\Temp\ccxApcqi.s:30636  .debug_str:0000000000024953 .LASF2303
C:\Users\CYMR90~1\AppData\Local\Temp\ccxApcqi.s:24835  .debug_str:000000000000d857 .LASF2304
C:\Users\CYMR90~1\AppData\Local\Temp\ccxApcqi.s:29786  .debug_str:0000000000021463 .LASF2305
C:\Users\CYMR90~1\AppData\Local\Temp\ccxApcqi.s:21761  .debug_str:00000000000011c6 .LASF2306
C:\Users\CYMR90~1\AppData\Local\Temp\ccxApcqi.s:28054  .debug_str:000000000001a843 .LASF2307
C:\Users\CYMR90~1\AppData\Local\Temp\ccxApcqi.s:28536  .debug_str:000000000001c71a .LASF2308
C:\Users\CYMR90~1\AppData\Local\Temp\ccxApcqi.s:22257  .debug_str:0000000000003038 .LASF2309
C:\Users\CYMR90~1\AppData\Local\Temp\ccxApcqi.s:30926  .debug_str:0000000000025d5c .LASF2310
C:\Users\CYMR90~1\AppData\Local\Temp\ccxApcqi.s:31736  .debug_str:0000000000029278 .LASF2311
C:\Users\CYMR90~1\AppData\Local\Temp\ccxApcqi.s:26461  .debug_str:000000000001404a .LASF2312
C:\Users\CYMR90~1\AppData\Local\Temp\ccxApcqi.s:31454  .debug_str:0000000000027f7a .LASF2313
C:\Users\CYMR90~1\AppData\Local\Temp\ccxApcqi.s:23319  .debug_str:0000000000007449 .LASF2314
C:\Users\CYMR90~1\AppData\Local\Temp\ccxApcqi.s:29568  .debug_str:000000000002072e .LASF2315
C:\Users\CYMR90~1\AppData\Local\Temp\ccxApcqi.s:23377  .debug_str:00000000000077fc .LASF2316
C:\Users\CYMR90~1\AppData\Local\Temp\ccxApcqi.s:28358  .debug_str:000000000001bb7b .LASF2317
C:\Users\CYMR90~1\AppData\Local\Temp\ccxApcqi.s:31498  .debug_str:00000000000282f1 .LASF2318
C:\Users\CYMR90~1\AppData\Local\Temp\ccxApcqi.s:25115  .debug_str:000000000000ea00 .LASF2319
C:\Users\CYMR90~1\AppData\Local\Temp\ccxApcqi.s:22639  .debug_str:00000000000049ed .LASF2320
C:\Users\CYMR90~1\AppData\Local\Temp\ccxApcqi.s:22183  .debug_str:0000000000002b86 .LASF2321
C:\Users\CYMR90~1\AppData\Local\Temp\ccxApcqi.s:32706  .debug_str:000000000002cfc1 .LASF2322
C:\Users\CYMR90~1\AppData\Local\Temp\ccxApcqi.s:22999  .debug_str:0000000000005fdb .LASF2323
C:\Users\CYMR90~1\AppData\Local\Temp\ccxApcqi.s:26583  .debug_str:00000000000147c0 .LASF2324
C:\Users\CYMR90~1\AppData\Local\Temp\ccxApcqi.s:32292  .debug_str:000000000002b44a .LASF2325
C:\Users\CYMR90~1\AppData\Local\Temp\ccxApcqi.s:24063  .debug_str:000000000000a4be .LASF2326
C:\Users\CYMR90~1\AppData\Local\Temp\ccxApcqi.s:27544  .debug_str:0000000000018520 .LASF2327
C:\Users\CYMR90~1\AppData\Local\Temp\ccxApcqi.s:22043  .debug_str:00000000000022b0 .LASF2328
C:\Users\CYMR90~1\AppData\Local\Temp\ccxApcqi.s:26497  .debug_str:0000000000014280 .LASF2329
C:\Users\CYMR90~1\AppData\Local\Temp\ccxApcqi.s:23371  .debug_str:00000000000077af .LASF2330
C:\Users\CYMR90~1\AppData\Local\Temp\ccxApcqi.s:24501  .debug_str:000000000000c21b .LASF2331
C:\Users\CYMR90~1\AppData\Local\Temp\ccxApcqi.s:25543  .debug_str:000000000001047b .LASF2332
C:\Users\CYMR90~1\AppData\Local\Temp\ccxApcqi.s:29694  .debug_str:0000000000020e6a .LASF2333
C:\Users\CYMR90~1\AppData\Local\Temp\ccxApcqi.s:31102  .debug_str:0000000000026856 .LASF2334
C:\Users\CYMR90~1\AppData\Local\Temp\ccxApcqi.s:25557  .debug_str:000000000001054f .LASF2335
C:\Users\CYMR90~1\AppData\Local\Temp\ccxApcqi.s:25949  .debug_str:0000000000011faa .LASF2336
C:\Users\CYMR90~1\AppData\Local\Temp\ccxApcqi.s:25005  .debug_str:000000000000e2fb .LASF2337
C:\Users\CYMR90~1\AppData\Local\Temp\ccxApcqi.s:23013  .debug_str:00000000000060e5 .LASF2338
C:\Users\CYMR90~1\AppData\Local\Temp\ccxApcqi.s:22089  .debug_str:0000000000002526 .LASF2339
C:\Users\CYMR90~1\AppData\Local\Temp\ccxApcqi.s:28760  .debug_str:000000000001d625 .LASF2340
C:\Users\CYMR90~1\AppData\Local\Temp\ccxApcqi.s:30986  .debug_str:0000000000026109 .LASF2341
C:\Users\CYMR90~1\AppData\Local\Temp\ccxApcqi.s:29350  .debug_str:000000000001f9b2 .LASF2342
C:\Users\CYMR90~1\AppData\Local\Temp\ccxApcqi.s:29366  .debug_str:000000000001fa8a .LASF2343
C:\Users\CYMR90~1\AppData\Local\Temp\ccxApcqi.s:30402  .debug_str:0000000000023963 .LASF2344
C:\Users\CYMR90~1\AppData\Local\Temp\ccxApcqi.s:31208  .debug_str:0000000000026e9c .LASF2345
C:\Users\CYMR90~1\AppData\Local\Temp\ccxApcqi.s:28462  .debug_str:000000000001c21c .LASF2346
C:\Users\CYMR90~1\AppData\Local\Temp\ccxApcqi.s:28630  .debug_str:000000000001cdb2 .LASF2347
C:\Users\CYMR90~1\AppData\Local\Temp\ccxApcqi.s:23585  .debug_str:00000000000086a5 .LASF2348
C:\Users\CYMR90~1\AppData\Local\Temp\ccxApcqi.s:26301  .debug_str:00000000000136d6 .LASF2349
C:\Users\CYMR90~1\AppData\Local\Temp\ccxApcqi.s:29838  .debug_str:000000000002176d .LASF2350
C:\Users\CYMR90~1\AppData\Local\Temp\ccxApcqi.s:32096  .debug_str:000000000002a820 .LASF2351
C:\Users\CYMR90~1\AppData\Local\Temp\ccxApcqi.s:30622  .debug_str:0000000000024864 .LASF2352
C:\Users\CYMR90~1\AppData\Local\Temp\ccxApcqi.s:23163  .debug_str:00000000000069e3 .LASF2353
C:\Users\CYMR90~1\AppData\Local\Temp\ccxApcqi.s:25453  .debug_str:000000000000fef9 .LASF2354
C:\Users\CYMR90~1\AppData\Local\Temp\ccxApcqi.s:23107  .debug_str:0000000000006648 .LASF2355
C:\Users\CYMR90~1\AppData\Local\Temp\ccxApcqi.s:32498  .debug_str:000000000002c277 .LASF2356
C:\Users\CYMR90~1\AppData\Local\Temp\ccxApcqi.s:31920  .debug_str:0000000000029d6e .LASF2357
C:\Users\CYMR90~1\AppData\Local\Temp\ccxApcqi.s:24755  .debug_str:000000000000d3a2 .LASF2358
C:\Users\CYMR90~1\AppData\Local\Temp\ccxApcqi.s:23815  .debug_str:0000000000009505 .LASF2359
C:\Users\CYMR90~1\AppData\Local\Temp\ccxApcqi.s:22401  .debug_str:00000000000039db .LASF2360
C:\Users\CYMR90~1\AppData\Local\Temp\ccxApcqi.s:25465  .debug_str:000000000000ffd2 .LASF2361
C:\Users\CYMR90~1\AppData\Local\Temp\ccxApcqi.s:24245  .debug_str:000000000000b0ea .LASF2362
C:\Users\CYMR90~1\AppData\Local\Temp\ccxApcqi.s:23043  .debug_str:0000000000006287 .LASF2363
C:\Users\CYMR90~1\AppData\Local\Temp\ccxApcqi.s:30408  .debug_str:00000000000239b3 .LASF2364
C:\Users\CYMR90~1\AppData\Local\Temp\ccxApcqi.s:29576  .debug_str:00000000000207a9 .LASF2365
C:\Users\CYMR90~1\AppData\Local\Temp\ccxApcqi.s:26009  .debug_str:000000000001234f .LASF2366
C:\Users\CYMR90~1\AppData\Local\Temp\ccxApcqi.s:30658  .debug_str:0000000000024af1 .LASF2367
C:\Users\CYMR90~1\AppData\Local\Temp\ccxApcqi.s:31278  .debug_str:0000000000027399 .LASF2368
C:\Users\CYMR90~1\AppData\Local\Temp\ccxApcqi.s:23801  .debug_str:00000000000093e2 .LASF2369
C:\Users\CYMR90~1\AppData\Local\Temp\ccxApcqi.s:25109  .debug_str:000000000000e99d .LASF2370
C:\Users\CYMR90~1\AppData\Local\Temp\ccxApcqi.s:23173  .debug_str:0000000000006aa0 .LASF2371
C:\Users\CYMR90~1\AppData\Local\Temp\ccxApcqi.s:25517  .debug_str:00000000000102f2 .LASF2372
C:\Users\CYMR90~1\AppData\Local\Temp\ccxApcqi.s:32378  .debug_str:000000000002b9f5 .LASF2373
C:\Users\CYMR90~1\AppData\Local\Temp\ccxApcqi.s:31054  .debug_str:0000000000026559 .LASF2374
C:\Users\CYMR90~1\AppData\Local\Temp\ccxApcqi.s:21619  .debug_str:00000000000008de .LASF2375
C:\Users\CYMR90~1\AppData\Local\Temp\ccxApcqi.s:25911  .debug_str:0000000000011cb5 .LASF2376
C:\Users\CYMR90~1\AppData\Local\Temp\ccxApcqi.s:29060  .debug_str:000000000001e883 .LASF2377
C:\Users\CYMR90~1\AppData\Local\Temp\ccxApcqi.s:32324  .debug_str:000000000002b6a1 .LASF2378
C:\Users\CYMR90~1\AppData\Local\Temp\ccxApcqi.s:24247  .debug_str:000000000000b10f .LASF2379
C:\Users\CYMR90~1\AppData\Local\Temp\ccxApcqi.s:23215  .debug_str:0000000000006d60 .LASF2380
C:\Users\CYMR90~1\AppData\Local\Temp\ccxApcqi.s:30614  .debug_str:00000000000247e1 .LASF2381
C:\Users\CYMR90~1\AppData\Local\Temp\ccxApcqi.s:30366  .debug_str:0000000000023770 .LASF2382
C:\Users\CYMR90~1\AppData\Local\Temp\ccxApcqi.s:25687  .debug_str:0000000000010dbb .LASF2383
C:\Users\CYMR90~1\AppData\Local\Temp\ccxApcqi.s:28838  .debug_str:000000000001daf0 .LASF2384
C:\Users\CYMR90~1\AppData\Local\Temp\ccxApcqi.s:32068  .debug_str:000000000002a690 .LASF2385
C:\Users\CYMR90~1\AppData\Local\Temp\ccxApcqi.s:21921  .debug_str:0000000000001bd7 .LASF2386
C:\Users\CYMR90~1\AppData\Local\Temp\ccxApcqi.s:26591  .debug_str:0000000000014828 .LASF2387
C:\Users\CYMR90~1\AppData\Local\Temp\ccxApcqi.s:31280  .debug_str:00000000000273ab .LASF2388
C:\Users\CYMR90~1\AppData\Local\Temp\ccxApcqi.s:28206  .debug_str:000000000001b26f .LASF2389
C:\Users\CYMR90~1\AppData\Local\Temp\ccxApcqi.s:29358  .debug_str:000000000001fa2a .LASF2390
C:\Users\CYMR90~1\AppData\Local\Temp\ccxApcqi.s:22783  .debug_str:00000000000052bf .LASF2391
C:\Users\CYMR90~1\AppData\Local\Temp\ccxApcqi.s:27470  .debug_str:00000000000180dd .LASF2392
C:\Users\CYMR90~1\AppData\Local\Temp\ccxApcqi.s:32168  .debug_str:000000000002ac5e .LASF2393
C:\Users\CYMR90~1\AppData\Local\Temp\ccxApcqi.s:28316  .debug_str:000000000001b8cc .LASF2394
C:\Users\CYMR90~1\AppData\Local\Temp\ccxApcqi.s:31338  .debug_str:0000000000027756 .LASF2395
C:\Users\CYMR90~1\AppData\Local\Temp\ccxApcqi.s:24767  .debug_str:000000000000d46b .LASF2396
C:\Users\CYMR90~1\AppData\Local\Temp\ccxApcqi.s:29414  .debug_str:000000000001fd74 .LASF2397
C:\Users\CYMR90~1\AppData\Local\Temp\ccxApcqi.s:22831  .debug_str:0000000000005575 .LASF2398
C:\Users\CYMR90~1\AppData\Local\Temp\ccxApcqi.s:27524  .debug_str:0000000000018424 .LASF2399
C:\Users\CYMR90~1\AppData\Local\Temp\ccxApcqi.s:32226  .debug_str:000000000002b001 .LASF2400
C:\Users\CYMR90~1\AppData\Local\Temp\ccxApcqi.s:32100  .debug_str:000000000002a858 .LASF2401
C:\Users\CYMR90~1\AppData\Local\Temp\ccxApcqi.s:24039  .debug_str:000000000000a346 .LASF2402
C:\Users\CYMR90~1\AppData\Local\Temp\ccxApcqi.s:27216  .debug_str:000000000001719d .LASF2403
C:\Users\CYMR90~1\AppData\Local\Temp\ccxApcqi.s:30412  .debug_str:00000000000239e4 .LASF2404
C:\Users\CYMR90~1\AppData\Local\Temp\ccxApcqi.s:22429  .debug_str:0000000000003b68 .LASF2405
C:\Users\CYMR90~1\AppData\Local\Temp\ccxApcqi.s:25565  .debug_str:00000000000105f3 .LASF2406
C:\Users\CYMR90~1\AppData\Local\Temp\ccxApcqi.s:28732  .debug_str:000000000001d448 .LASF2407
C:\Users\CYMR90~1\AppData\Local\Temp\ccxApcqi.s:31946  .debug_str:0000000000029f24 .LASF2408
C:\Users\CYMR90~1\AppData\Local\Temp\ccxApcqi.s:26349  .debug_str:0000000000013972 .LASF2409
C:\Users\CYMR90~1\AppData\Local\Temp\ccxApcqi.s:24745  .debug_str:000000000000d2fb .LASF2410
C:\Users\CYMR90~1\AppData\Local\Temp\ccxApcqi.s:28100  .debug_str:000000000001ab2d .LASF2411
C:\Users\CYMR90~1\AppData\Local\Temp\ccxApcqi.s:21509  .debug_str:000000000000023a .LASF2412
C:\Users\CYMR90~1\AppData\Local\Temp\ccxApcqi.s:21521  .debug_str:0000000000000325 .LASF2413
C:\Users\CYMR90~1\AppData\Local\Temp\ccxApcqi.s:30828  .debug_str:0000000000025751 .LASF2414
C:\Users\CYMR90~1\AppData\Local\Temp\ccxApcqi.s:24281  .debug_str:000000000000b305 .LASF2415
C:\Users\CYMR90~1\AppData\Local\Temp\ccxApcqi.s:28906  .debug_str:000000000001df10 .LASF2416
C:\Users\CYMR90~1\AppData\Local\Temp\ccxApcqi.s:24599  .debug_str:000000000000c98b .LASF2417
C:\Users\CYMR90~1\AppData\Local\Temp\ccxApcqi.s:27009  .debug_str:000000000001624d .LASF2418
C:\Users\CYMR90~1\AppData\Local\Temp\ccxApcqi.s:29116  .debug_str:000000000001eb96 .LASF2419
C:\Users\CYMR90~1\AppData\Local\Temp\ccxApcqi.s:26221  .debug_str:0000000000013134 .LASF2420
C:\Users\CYMR90~1\AppData\Local\Temp\ccxApcqi.s:30880  .debug_str:0000000000025a77 .LASF2421
C:\Users\CYMR90~1\AppData\Local\Temp\ccxApcqi.s:24323  .debug_str:000000000000b664 .LASF2422
C:\Users\CYMR90~1\AppData\Local\Temp\ccxApcqi.s:28954  .debug_str:000000000001e209 .LASF2423
C:\Users\CYMR90~1\AppData\Local\Temp\ccxApcqi.s:22397  .debug_str:0000000000003990 .LASF2424
C:\Users\CYMR90~1\AppData\Local\Temp\ccxApcqi.s:27067  .debug_str:0000000000016622 .LASF2425
C:\Users\CYMR90~1\AppData\Local\Temp\ccxApcqi.s:24163  .debug_str:000000000000ab09 .LASF2426
C:\Users\CYMR90~1\AppData\Local\Temp\ccxApcqi.s:27242  .debug_str:0000000000017305 .LASF2427
C:\Users\CYMR90~1\AppData\Local\Temp\ccxApcqi.s:30452  .debug_str:0000000000023c7c .LASF2428
C:\Users\CYMR90~1\AppData\Local\Temp\ccxApcqi.s:22379  .debug_str:0000000000003842 .LASF2429
C:\Users\CYMR90~1\AppData\Local\Temp\ccxApcqi.s:25599  .debug_str:00000000000107e4 .LASF2430
C:\Users\CYMR90~1\AppData\Local\Temp\ccxApcqi.s:25841  .debug_str:0000000000011805 .LASF2431
C:\Users\CYMR90~1\AppData\Local\Temp\ccxApcqi.s:31986  .debug_str:000000000002a14e .LASF2432
C:\Users\CYMR90~1\AppData\Local\Temp\ccxApcqi.s:22579  .debug_str:000000000000459a .LASF2433
C:\Users\CYMR90~1\AppData\Local\Temp\ccxApcqi.s:31250  .debug_str:0000000000027228 .LASF2434
C:\Users\CYMR90~1\AppData\Local\Temp\ccxApcqi.s:30212  .debug_str:0000000000022dfb .LASF2435
C:\Users\CYMR90~1\AppData\Local\Temp\ccxApcqi.s:31554  .debug_str:00000000000286d3 .LASF2436
C:\Users\CYMR90~1\AppData\Local\Temp\ccxApcqi.s:24979  .debug_str:000000000000e168 .LASF2437
C:\Users\CYMR90~1\AppData\Local\Temp\ccxApcqi.s:29632  .debug_str:0000000000020b1b .LASF2438
C:\Users\CYMR90~1\AppData\Local\Temp\ccxApcqi.s:23063  .debug_str:00000000000063cf .LASF2439
C:\Users\CYMR90~1\AppData\Local\Temp\ccxApcqi.s:27760  .debug_str:0000000000019410 .LASF2440
C:\Users\CYMR90~1\AppData\Local\Temp\ccxApcqi.s:32444  .debug_str:000000000002be8c .LASF2441
C:\Users\CYMR90~1\AppData\Local\Temp\ccxApcqi.s:25849  .debug_str:0000000000011869 .LASF2442
C:\Users\CYMR90~1\AppData\Local\Temp\ccxApcqi.s:30518  .debug_str:000000000002418f .LASF2443
C:\Users\CYMR90~1\AppData\Local\Temp\ccxApcqi.s:28604  .debug_str:000000000001cb73 .LASF2444
C:\Users\CYMR90~1\AppData\Local\Temp\ccxApcqi.s:29688  .debug_str:0000000000020dff .LASF2445
C:\Users\CYMR90~1\AppData\Local\Temp\ccxApcqi.s:23111  .debug_str:0000000000006681 .LASF2446
C:\Users\CYMR90~1\AppData\Local\Temp\ccxApcqi.s:27810  .debug_str:00000000000197b6 .LASF2447
C:\Users\CYMR90~1\AppData\Local\Temp\ccxApcqi.s:32494  .debug_str:000000000002c238 .LASF2448
C:\Users\CYMR90~1\AppData\Local\Temp\ccxApcqi.s:25903  .debug_str:0000000000011c12 .LASF2449
C:\Users\CYMR90~1\AppData\Local\Temp\ccxApcqi.s:25821  .debug_str:0000000000011629 .LASF2450
C:\Users\CYMR90~1\AppData\Local\Temp\ccxApcqi.s:29380  .debug_str:000000000001fb71 .LASF2451
C:\Users\CYMR90~1\AppData\Local\Temp\ccxApcqi.s:30676  .debug_str:0000000000024c00 .LASF2452
C:\Users\CYMR90~1\AppData\Local\Temp\ccxApcqi.s:29028  .debug_str:000000000001e6b1 .LASF2453
C:\Users\CYMR90~1\AppData\Local\Temp\ccxApcqi.s:27654  .debug_str:0000000000018cdd .LASF2454
C:\Users\CYMR90~1\AppData\Local\Temp\ccxApcqi.s:30830  .debug_str:000000000002576a .LASF2455
C:\Users\CYMR90~1\AppData\Local\Temp\ccxApcqi.s:24225  .debug_str:000000000000afd2 .LASF2456
C:\Users\CYMR90~1\AppData\Local\Temp\ccxApcqi.s:25981  .debug_str:00000000000121b6 .LASF2457
C:\Users\CYMR90~1\AppData\Local\Temp\ccxApcqi.s:29124  .debug_str:000000000001ebdb .LASF2458
C:\Users\CYMR90~1\AppData\Local\Temp\ccxApcqi.s:30604  .debug_str:0000000000024757 .LASF2459
C:\Users\CYMR90~1\AppData\Local\Temp\ccxApcqi.s:24229  .debug_str:000000000000b00f .LASF2460
C:\Users\CYMR90~1\AppData\Local\Temp\ccxApcqi.s:30252  .debug_str:0000000000023025 .LASF2461
C:\Users\CYMR90~1\AppData\Local\Temp\ccxApcqi.s:32320  .debug_str:000000000002b611 .LASF2462
C:\Users\CYMR90~1\AppData\Local\Temp\ccxApcqi.s:28616  .debug_str:000000000001ccdd .LASF2463
C:\Users\CYMR90~1\AppData\Local\Temp\ccxApcqi.s:22049  .debug_str:00000000000022fc .LASF2464
C:\Users\CYMR90~1\AppData\Local\Temp\ccxApcqi.s:26707  .debug_str:0000000000014fad .LASF2465
C:\Users\CYMR90~1\AppData\Local\Temp\ccxApcqi.s:31404  .debug_str:0000000000027bfb .LASF2466
C:\Users\CYMR90~1\AppData\Local\Temp\ccxApcqi.s:24827  .debug_str:000000000000d7ee .LASF2467
C:\Users\CYMR90~1\AppData\Local\Temp\ccxApcqi.s:29482  .debug_str:000000000002017a .LASF2468
C:\Users\CYMR90~1\AppData\Local\Temp\ccxApcqi.s:27596  .debug_str:0000000000018891 .LASF2469
C:\Users\CYMR90~1\AppData\Local\Temp\ccxApcqi.s:22457  .debug_str:0000000000003d41 .LASF2470
C:\Users\CYMR90~1\AppData\Local\Temp\ccxApcqi.s:22105  .debug_str:000000000000266a .LASF2471
C:\Users\CYMR90~1\AppData\Local\Temp\ccxApcqi.s:26271  .debug_str:00000000000134e8 .LASF2472
C:\Users\CYMR90~1\AppData\Local\Temp\ccxApcqi.s:31458  .debug_str:000000000002805e .LASF2473
C:\Users\CYMR90~1\AppData\Local\Temp\ccxApcqi.s:24881  .debug_str:000000000000daf8 .LASF2474
C:\Users\CYMR90~1\AppData\Local\Temp\ccxApcqi.s:29538  .debug_str:000000000002052d .LASF2475
C:\Users\CYMR90~1\AppData\Local\Temp\ccxApcqi.s:31680  .debug_str:0000000000028e87 .LASF2476
C:\Users\CYMR90~1\AppData\Local\Temp\ccxApcqi.s:22243  .debug_str:0000000000002f2b .LASF2477
C:\Users\CYMR90~1\AppData\Local\Temp\ccxApcqi.s:26787  .debug_str:0000000000015429 .LASF2478
C:\Users\CYMR90~1\AppData\Local\Temp\ccxApcqi.s:31444  .debug_str:0000000000027ef2 .LASF2479
C:\Users\CYMR90~1\AppData\Local\Temp\ccxApcqi.s:29806  .debug_str:00000000000215c3 .LASF2480
C:\Users\CYMR90~1\AppData\Local\Temp\ccxApcqi.s:28210  .debug_str:000000000001b2b0 .LASF2481
C:\Users\CYMR90~1\AppData\Local\Temp\ccxApcqi.s:28322  .debug_str:000000000001b917 .LASF2482
C:\Users\CYMR90~1\AppData\Local\Temp\ccxApcqi.s:31530  .debug_str:0000000000028566 .LASF2483
C:\Users\CYMR90~1\AppData\Local\Temp\ccxApcqi.s:23463  .debug_str:0000000000007e39 .LASF2484
C:\Users\CYMR90~1\AppData\Local\Temp\ccxApcqi.s:26561  .debug_str:000000000001468f .LASF2485
C:\Users\CYMR90~1\AppData\Local\Temp\ccxApcqi.s:26275  .debug_str:0000000000013515 .LASF2486
C:\Users\CYMR90~1\AppData\Local\Temp\ccxApcqi.s:30940  .debug_str:0000000000025e3d .LASF2487
C:\Users\CYMR90~1\AppData\Local\Temp\ccxApcqi.s:24371  .debug_str:000000000000b963 .LASF2488
C:\Users\CYMR90~1\AppData\Local\Temp\ccxApcqi.s:29006  .debug_str:000000000001e50a .LASF2489
C:\Users\CYMR90~1\AppData\Local\Temp\ccxApcqi.s:22447  .debug_str:0000000000003cae .LASF2490
C:\Users\CYMR90~1\AppData\Local\Temp\ccxApcqi.s:27130  .debug_str:0000000000016c9c .LASF2491
C:\Users\CYMR90~1\AppData\Local\Temp\ccxApcqi.s:31816  .debug_str:000000000002977e .LASF2492
C:\Users\CYMR90~1\AppData\Local\Temp\ccxApcqi.s:25241  .debug_str:000000000000f16a .LASF2493
C:\Users\CYMR90~1\AppData\Local\Temp\ccxApcqi.s:23325  .debug_str:00000000000074aa .LASF2494
C:\Users\CYMR90~1\AppData\Local\Temp\ccxApcqi.s:24423  .debug_str:000000000000bd4d .LASF2495
C:\Users\CYMR90~1\AppData\Local\Temp\ccxApcqi.s:29050  .debug_str:000000000001e80e .LASF2496
C:\Users\CYMR90~1\AppData\Local\Temp\ccxApcqi.s:22491  .debug_str:0000000000003f6c .LASF2497
C:\Users\CYMR90~1\AppData\Local\Temp\ccxApcqi.s:21889  .debug_str:00000000000019e4 .LASF2498
C:\Users\CYMR90~1\AppData\Local\Temp\ccxApcqi.s:31868  .debug_str:0000000000029aa3 .LASF2499
C:\Users\CYMR90~1\AppData\Local\Temp\ccxApcqi.s:25303  .debug_str:000000000000f52b .LASF2500
C:\Users\CYMR90~1\AppData\Local\Temp\ccxApcqi.s:25019  .debug_str:000000000000e3cc .LASF2501
C:\Users\CYMR90~1\AppData\Local\Temp\ccxApcqi.s:28220  .debug_str:000000000001b35e .LASF2502
C:\Users\CYMR90~1\AppData\Local\Temp\ccxApcqi.s:31414  .debug_str:0000000000027ca2 .LASF2503
C:\Users\CYMR90~1\AppData\Local\Temp\ccxApcqi.s:23341  .debug_str:00000000000075c5 .LASF2504
C:\Users\CYMR90~1\AppData\Local\Temp\ccxApcqi.s:26447  .debug_str:0000000000013f3f .LASF2505
C:\Users\CYMR90~1\AppData\Local\Temp\ccxApcqi.s:29630  .debug_str:0000000000020b08 .LASF2506
C:\Users\CYMR90~1\AppData\Local\Temp\ccxApcqi.s:27646  .debug_str:0000000000018c7f .LASF2507
C:\Users\CYMR90~1\AppData\Local\Temp\ccxApcqi.s:24793  .debug_str:000000000000d604 .LASF2508
C:\Users\CYMR90~1\AppData\Local\Temp\ccxApcqi.s:28006  .debug_str:000000000001a4d2 .LASF2509
C:\Users\CYMR90~1\AppData\Local\Temp\ccxApcqi.s:31178  .debug_str:0000000000026d12 .LASF2510
C:\Users\CYMR90~1\AppData\Local\Temp\ccxApcqi.s:31500  .debug_str:000000000002831d .LASF2511
C:\Users\CYMR90~1\AppData\Local\Temp\ccxApcqi.s:24925  .debug_str:000000000000de1f .LASF2512
C:\Users\CYMR90~1\AppData\Local\Temp\ccxApcqi.s:29580  .debug_str:00000000000207d8 .LASF2513
C:\Users\CYMR90~1\AppData\Local\Temp\ccxApcqi.s:22991  .debug_str:0000000000005f45 .LASF2514
C:\Users\CYMR90~1\AppData\Local\Temp\ccxApcqi.s:27700  .debug_str:0000000000019088 .LASF2515
C:\Users\CYMR90~1\AppData\Local\Temp\ccxApcqi.s:28464  .debug_str:000000000001c239 .LASF2516
C:\Users\CYMR90~1\AppData\Local\Temp\ccxApcqi.s:25791  .debug_str:0000000000011430 .LASF2517
C:\Users\CYMR90~1\AppData\Local\Temp\ccxApcqi.s:30462  .debug_str:0000000000023cec .LASF2518
C:\Users\CYMR90~1\AppData\Local\Temp\ccxApcqi.s:28554  .debug_str:000000000001c86f .LASF2519
C:\Users\CYMR90~1\AppData\Local\Temp\ccxApcqi.s:29722  .debug_str:0000000000021002 .LASF2520
C:\Users\CYMR90~1\AppData\Local\Temp\ccxApcqi.s:23143  .debug_str:00000000000068b1 .LASF2521
C:\Users\CYMR90~1\AppData\Local\Temp\ccxApcqi.s:27836  .debug_str:000000000001996d .LASF2522
C:\Users\CYMR90~1\AppData\Local\Temp\ccxApcqi.s:32522  .debug_str:000000000002c3f6 .LASF2523
C:\Users\CYMR90~1\AppData\Local\Temp\ccxApcqi.s:25929  .debug_str:0000000000011dba .LASF2524
C:\Users\CYMR90~1\AppData\Local\Temp\ccxApcqi.s:30586  .debug_str:00000000000245b1 .LASF2525
C:\Users\CYMR90~1\AppData\Local\Temp\ccxApcqi.s:26127  .debug_str:0000000000012b04 .LASF2526
C:\Users\CYMR90~1\AppData\Local\Temp\ccxApcqi.s:22333  .debug_str:000000000000352b .LASF2527
C:\Users\CYMR90~1\AppData\Local\Temp\ccxApcqi.s:27494  .debug_str:000000000001824b .LASF2528
C:\Users\CYMR90~1\AppData\Local\Temp\ccxApcqi.s:23873  .debug_str:00000000000098ea .LASF2529
C:\Users\CYMR90~1\AppData\Local\Temp\ccxApcqi.s:22663  .debug_str:0000000000004b87 .LASF2530
C:\Users\CYMR90~1\AppData\Local\Temp\ccxApcqi.s:30900  .debug_str:0000000000025ba4 .LASF2531
C:\Users\CYMR90~1\AppData\Local\Temp\ccxApcqi.s:26911  .debug_str:0000000000015bf3 .LASF2532
C:\Users\CYMR90~1\AppData\Local\Temp\ccxApcqi.s:26677  .debug_str:0000000000014deb .LASF2533
C:\Users\CYMR90~1\AppData\Local\Temp\ccxApcqi.s:27051  .debug_str:000000000001652b .LASF2534
C:\Users\CYMR90~1\AppData\Local\Temp\ccxApcqi.s:23937  .debug_str:0000000000009cbf .LASF2535
C:\Users\CYMR90~1\AppData\Local\Temp\ccxApcqi.s:30566  .debug_str:0000000000024471 .LASF2536
C:\Users\CYMR90~1\AppData\Local\Temp\ccxApcqi.s:31630  .debug_str:0000000000028b4e .LASF2537
C:\Users\CYMR90~1\AppData\Local\Temp\ccxApcqi.s:21585  .debug_str:00000000000006c3 .LASF2538
C:\Users\CYMR90~1\AppData\Local\Temp\ccxApcqi.s:23361  .debug_str:0000000000007707 .LASF2539
C:\Users\CYMR90~1\AppData\Local\Temp\ccxApcqi.s:22373  .debug_str:00000000000037ef .LASF2540
C:\Users\CYMR90~1\AppData\Local\Temp\ccxApcqi.s:30794  .debug_str:00000000000254a8 .LASF2541
C:\Users\CYMR90~1\AppData\Local\Temp\ccxApcqi.s:25931  .debug_str:0000000000011dcf .LASF2542
C:\Users\CYMR90~1\AppData\Local\Temp\ccxApcqi.s:24709  .debug_str:000000000000d012 .LASF2543
C:\Users\CYMR90~1\AppData\Local\Temp\ccxApcqi.s:29314  .debug_str:000000000001f759 .LASF2544
C:\Users\CYMR90~1\AppData\Local\Temp\ccxApcqi.s:28434  .debug_str:000000000001c08b .LASF2545
C:\Users\CYMR90~1\AppData\Local\Temp\ccxApcqi.s:22421  .debug_str:0000000000003ae9 .LASF2546
C:\Users\CYMR90~1\AppData\Local\Temp\ccxApcqi.s:30948  .debug_str:0000000000025ecd .LASF2547
C:\Users\CYMR90~1\AppData\Local\Temp\ccxApcqi.s:24683  .debug_str:000000000000ce72 .LASF2548
C:\Users\CYMR90~1\AppData\Local\Temp\ccxApcqi.s:23779  .debug_str:000000000000929a .LASF2549
C:\Users\CYMR90~1\AppData\Local\Temp\ccxApcqi.s:22755  .debug_str:00000000000050ff .LASF2550
C:\Users\CYMR90~1\AppData\Local\Temp\ccxApcqi.s:31288  .debug_str:000000000002742b .LASF2551
C:\Users\CYMR90~1\AppData\Local\Temp\ccxApcqi.s:31584  .debug_str:00000000000288c4 .LASF2552
C:\Users\CYMR90~1\AppData\Local\Temp\ccxApcqi.s:25789  .debug_str:000000000001140e .LASF2553
C:\Users\CYMR90~1\AppData\Local\Temp\ccxApcqi.s:29672  .debug_str:0000000000020d37 .LASF2554
C:\Users\CYMR90~1\AppData\Local\Temp\ccxApcqi.s:26833  .debug_str:00000000000156c8 .LASF2555
C:\Users\CYMR90~1\AppData\Local\Temp\ccxApcqi.s:27396  .debug_str:0000000000017c9f .LASF2556
C:\Users\CYMR90~1\AppData\Local\Temp\ccxApcqi.s:26253  .debug_str:00000000000133c5 .LASF2557
C:\Users\CYMR90~1\AppData\Local\Temp\ccxApcqi.s:26733  .debug_str:000000000001515c .LASF2558
C:\Users\CYMR90~1\AppData\Local\Temp\ccxApcqi.s:25457  .debug_str:000000000000ff38 .LASF2559
C:\Users\CYMR90~1\AppData\Local\Temp\ccxApcqi.s:25739  .debug_str:00000000000110cc .LASF2560
C:\Users\CYMR90~1\AppData\Local\Temp\ccxApcqi.s:24831  .debug_str:000000000000d81c .LASF2561
C:\Users\CYMR90~1\AppData\Local\Temp\ccxApcqi.s:23853  .debug_str:000000000000973b .LASF2562
C:\Users\CYMR90~1\AppData\Local\Temp\ccxApcqi.s:32286  .debug_str:000000000002b400 .LASF2563
C:\Users\CYMR90~1\AppData\Local\Temp\ccxApcqi.s:25481  .debug_str:00000000000100eb .LASF2564
C:\Users\CYMR90~1\AppData\Local\Temp\ccxApcqi.s:31624  .debug_str:0000000000028af1 .LASF2565
C:\Users\CYMR90~1\AppData\Local\Temp\ccxApcqi.s:30354  .debug_str:00000000000236a9 .LASF2566
C:\Users\CYMR90~1\AppData\Local\Temp\ccxApcqi.s:27224  .debug_str:000000000001720c .LASF2567
C:\Users\CYMR90~1\AppData\Local\Temp\ccxApcqi.s:26851  .debug_str:00000000000157fe .LASF2568
C:\Users\CYMR90~1\AppData\Local\Temp\ccxApcqi.s:26979  .debug_str:00000000000160b0 .LASF2569
C:\Users\CYMR90~1\AppData\Local\Temp\ccxApcqi.s:31310  .debug_str:000000000002756b .LASF2570
C:\Users\CYMR90~1\AppData\Local\Temp\ccxApcqi.s:24699  .debug_str:000000000000cf76 .LASF2571
C:\Users\CYMR90~1\AppData\Local\Temp\ccxApcqi.s:29096  .debug_str:000000000001ea59 .LASF2572
C:\Users\CYMR90~1\AppData\Local\Temp\ccxApcqi.s:23263  .debug_str:000000000000709a .LASF2573
C:\Users\CYMR90~1\AppData\Local\Temp\ccxApcqi.s:21723  .debug_str:0000000000000fa9 .LASF2574
C:\Users\CYMR90~1\AppData\Local\Temp\ccxApcqi.s:28090  .debug_str:000000000001aaa9 .LASF2575
C:\Users\CYMR90~1\AppData\Local\Temp\ccxApcqi.s:24109  .debug_str:000000000000a79f .LASF2576
C:\Users\CYMR90~1\AppData\Local\Temp\ccxApcqi.s:26959  .debug_str:0000000000015f79 .LASF2577
C:\Users\CYMR90~1\AppData\Local\Temp\ccxApcqi.s:24421  .debug_str:000000000000bd35 .LASF2578
C:\Users\CYMR90~1\AppData\Local\Temp\ccxApcqi.s:24547  .debug_str:000000000000c4e5 .LASF2579
C:\Users\CYMR90~1\AppData\Local\Temp\ccxApcqi.s:28474  .debug_str:000000000001c2b2 .LASF2580
C:\Users\CYMR90~1\AppData\Local\Temp\ccxApcqi.s:22701  .debug_str:0000000000004dc3 .LASF2581
C:\Users\CYMR90~1\AppData\Local\Temp\ccxApcqi.s:28328  .debug_str:000000000001b96e .LASF2582
C:\Users\CYMR90~1\AppData\Local\Temp\ccxApcqi.s:26837  .debug_str:0000000000015731 .LASF2583
C:\Users\CYMR90~1\AppData\Local\Temp\ccxApcqi.s:31768  .debug_str:00000000000294b2 .LASF2584
C:\Users\CYMR90~1\AppData\Local\Temp\ccxApcqi.s:29960  .debug_str:0000000000021f1e .LASF2585
C:\Users\CYMR90~1\AppData\Local\Temp\ccxApcqi.s:22669  .debug_str:0000000000004bec .LASF2586
C:\Users\CYMR90~1\AppData\Local\Temp\ccxApcqi.s:21737  .debug_str:0000000000001065 .LASF2587
C:\Users\CYMR90~1\AppData\Local\Temp\ccxApcqi.s:32048  .debug_str:000000000002a54b .LASF2588
C:\Users\CYMR90~1\AppData\Local\Temp\ccxApcqi.s:21679  .debug_str:0000000000000cbd .LASF2589
C:\Users\CYMR90~1\AppData\Local\Temp\ccxApcqi.s:29238  .debug_str:000000000001f2df .LASF2590
C:\Users\CYMR90~1\AppData\Local\Temp\ccxApcqi.s:23851  .debug_str:000000000000971b .LASF2591
C:\Users\CYMR90~1\AppData\Local\Temp\ccxApcqi.s:26107  .debug_str:00000000000129e2 .LASF2592
C:\Users\CYMR90~1\AppData\Local\Temp\ccxApcqi.s:23907  .debug_str:0000000000009b08 .LASF2593
C:\Users\CYMR90~1\AppData\Local\Temp\ccxApcqi.s:29974  .debug_str:0000000000021ff5 .LASF2594
C:\Users\CYMR90~1\AppData\Local\Temp\ccxApcqi.s:28338  .debug_str:000000000001ba3e .LASF2595
C:\Users\CYMR90~1\AppData\Local\Temp\ccxApcqi.s:27486  .debug_str:00000000000181e3 .LASF2596
C:\Users\CYMR90~1\AppData\Local\Temp\ccxApcqi.s:29048  .debug_str:000000000001e7ec .LASF2597
C:\Users\CYMR90~1\AppData\Local\Temp\ccxApcqi.s:32612  .debug_str:000000000002c988 .LASF2598
C:\Users\CYMR90~1\AppData\Local\Temp\ccxApcqi.s:21917  .debug_str:0000000000001b9d .LASF2599
C:\Users\CYMR90~1\AppData\Local\Temp\ccxApcqi.s:26359  .debug_str:0000000000013a17 .LASF2600
C:\Users\CYMR90~1\AppData\Local\Temp\ccxApcqi.s:29936  .debug_str:0000000000021d94 .LASF2601
C:\Users\CYMR90~1\AppData\Local\Temp\ccxApcqi.s:32396  .debug_str:000000000002bb2e .LASF2602
C:\Users\CYMR90~1\AppData\Local\Temp\ccxApcqi.s:25795  .debug_str:0000000000011474 .LASF2603
C:\Users\CYMR90~1\AppData\Local\Temp\ccxApcqi.s:25131  .debug_str:000000000000eb2a .LASF2604
C:\Users\CYMR90~1\AppData\Local\Temp\ccxApcqi.s:28600  .debug_str:000000000001cb41 .LASF2605
C:\Users\CYMR90~1\AppData\Local\Temp\ccxApcqi.s:27874  .debug_str:0000000000019bbd .LASF2606
C:\Users\CYMR90~1\AppData\Local\Temp\ccxApcqi.s:22717  .debug_str:0000000000004ec4 .LASF2607
C:\Users\CYMR90~1\AppData\Local\Temp\ccxApcqi.s:22633  .debug_str:000000000000499c .LASF2608
C:\Users\CYMR90~1\AppData\Local\Temp\ccxApcqi.s:32644  .debug_str:000000000002cbf6 .LASF2609
C:\Users\CYMR90~1\AppData\Local\Temp\ccxApcqi.s:29216  .debug_str:000000000001f18f .LASF2610
C:\Users\CYMR90~1\AppData\Local\Temp\ccxApcqi.s:23533  .debug_str:0000000000008375 .LASF2611
C:\Users\CYMR90~1\AppData\Local\Temp\ccxApcqi.s:23521  .debug_str:00000000000082d4 .LASF2612
C:\Users\CYMR90~1\AppData\Local\Temp\ccxApcqi.s:30836  .debug_str:00000000000257c4 .LASF2613
C:\Users\CYMR90~1\AppData\Local\Temp\ccxApcqi.s:25753  .debug_str:00000000000111aa .LASF2614
C:\Users\CYMR90~1\AppData\Local\Temp\ccxApcqi.s:26977  .debug_str:000000000001608c .LASF2615
C:\Users\CYMR90~1\AppData\Local\Temp\ccxApcqi.s:28284  .debug_str:000000000001b748 .LASF2616
C:\Users\CYMR90~1\AppData\Local\Temp\ccxApcqi.s:31560  .debug_str:0000000000028762 .LASF2617
C:\Users\CYMR90~1\AppData\Local\Temp\ccxApcqi.s:29812  .debug_str:0000000000021619 .LASF2618
C:\Users\CYMR90~1\AppData\Local\Temp\ccxApcqi.s:28842  .debug_str:000000000001db1b .LASF2619
C:\Users\CYMR90~1\AppData\Local\Temp\ccxApcqi.s:27848  .debug_str:0000000000019a42 .LASF2620
C:\Users\CYMR90~1\AppData\Local\Temp\ccxApcqi.s:26935  .debug_str:0000000000015db6 .LASF2621
C:\Users\CYMR90~1\AppData\Local\Temp\ccxApcqi.s:26017  .debug_str:00000000000123df .LASF2622
C:\Users\CYMR90~1\AppData\Local\Temp\ccxApcqi.s:30198  .debug_str:0000000000022d31 .LASF2623
C:\Users\CYMR90~1\AppData\Local\Temp\ccxApcqi.s:26765  .debug_str:0000000000015310 .LASF2624
C:\Users\CYMR90~1\AppData\Local\Temp\ccxApcqi.s:22553  .debug_str:00000000000043df .LASF2625
C:\Users\CYMR90~1\AppData\Local\Temp\ccxApcqi.s:22267  .debug_str:00000000000030b9 .LASF2626
C:\Users\CYMR90~1\AppData\Local\Temp\ccxApcqi.s:23781  .debug_str:00000000000092bc .LASF2627
C:\Users\CYMR90~1\AppData\Local\Temp\ccxApcqi.s:21675  .debug_str:0000000000000c86 .LASF2628
C:\Users\CYMR90~1\AppData\Local\Temp\ccxApcqi.s:24921  .debug_str:000000000000dde1 .LASF2629
C:\Users\CYMR90~1\AppData\Local\Temp\ccxApcqi.s:23591  .debug_str:0000000000008707 .LASF2630
C:\Users\CYMR90~1\AppData\Local\Temp\ccxApcqi.s:21967  .debug_str:0000000000001e87 .LASF2631
C:\Users\CYMR90~1\AppData\Local\Temp\ccxApcqi.s:24385  .debug_str:000000000000ba43 .LASF2632
C:\Users\CYMR90~1\AppData\Local\Temp\ccxApcqi.s:21777  .debug_str:0000000000001297 .LASF2633
C:\Users\CYMR90~1\AppData\Local\Temp\ccxApcqi.s:27978  .debug_str:000000000001a36f .LASF2634
C:\Users\CYMR90~1\AppData\Local\Temp\ccxApcqi.s:27758  .debug_str:00000000000193ff .LASF2635
C:\Users\CYMR90~1\AppData\Local\Temp\ccxApcqi.s:26281  .debug_str:0000000000013582 .LASF2636
C:\Users\CYMR90~1\AppData\Local\Temp\ccxApcqi.s:31466  .debug_str:00000000000280d8 .LASF2637
C:\Users\CYMR90~1\AppData\Local\Temp\ccxApcqi.s:23977  .debug_str:0000000000009f4a .LASF2638
C:\Users\CYMR90~1\AppData\Local\Temp\ccxApcqi.s:28020  .debug_str:000000000001a5bf .LASF2639
C:\Users\CYMR90~1\AppData\Local\Temp\ccxApcqi.s:28650  .debug_str:000000000001cf7b .LASF2640
C:\Users\CYMR90~1\AppData\Local\Temp\ccxApcqi.s:27158  .debug_str:0000000000016e5a .LASF2641
C:\Users\CYMR90~1\AppData\Local\Temp\ccxApcqi.s:31064  .debug_str:00000000000265f7 .LASF2642
C:\Users\CYMR90~1\AppData\Local\Temp\ccxApcqi.s:26225  .debug_str:0000000000013165 .LASF2643
C:\Users\CYMR90~1\AppData\Local\Temp\ccxApcqi.s:21545  .debug_str:0000000000000472 .LASF2644
C:\Users\CYMR90~1\AppData\Local\Temp\ccxApcqi.s:22033  .debug_str:0000000000002201 .LASF2645
C:\Users\CYMR90~1\AppData\Local\Temp\ccxApcqi.s:26795  .debug_str:0000000000015499 .LASF2646
C:\Users\CYMR90~1\AppData\Local\Temp\ccxApcqi.s:21663  .debug_str:0000000000000be5 .LASF2647
C:\Users\CYMR90~1\AppData\Local\Temp\ccxApcqi.s:28748  .debug_str:000000000001d586 .LASF2648
C:\Users\CYMR90~1\AppData\Local\Temp\ccxApcqi.s:24101  .debug_str:000000000000a72f .LASF2649
C:\Users\CYMR90~1\AppData\Local\Temp\ccxApcqi.s:30634  .debug_str:000000000002492d .LASF2650
C:\Users\CYMR90~1\AppData\Local\Temp\ccxApcqi.s:22815  .debug_str:00000000000054aa .LASF2651
C:\Users\CYMR90~1\AppData\Local\Temp\ccxApcqi.s:22423  .debug_str:0000000000003b0b .LASF2652
C:\Users\CYMR90~1\AppData\Local\Temp\ccxApcqi.s:26491  .debug_str:0000000000014228 .LASF2653
C:\Users\CYMR90~1\AppData\Local\Temp\ccxApcqi.s:24459  .debug_str:000000000000bfa9 .LASF2654
C:\Users\CYMR90~1\AppData\Local\Temp\ccxApcqi.s:29204  .debug_str:000000000001f0d4 .LASF2655
C:\Users\CYMR90~1\AppData\Local\Temp\ccxApcqi.s:25003  .debug_str:000000000000e2d6 .LASF2656
C:\Users\CYMR90~1\AppData\Local\Temp\ccxApcqi.s:29018  .debug_str:000000000001e5eb .LASF2657
C:\Users\CYMR90~1\AppData\Local\Temp\ccxApcqi.s:32596  .debug_str:000000000002c8b2 .LASF2658
C:\Users\CYMR90~1\AppData\Local\Temp\ccxApcqi.s:22933  .debug_str:0000000000005bcc .LASF2659
C:\Users\CYMR90~1\AppData\Local\Temp\ccxApcqi.s:28004  .debug_str:000000000001a4b4 .LASF2660
C:\Users\CYMR90~1\AppData\Local\Temp\ccxApcqi.s:24185  .debug_str:000000000000ac7e .LASF2661
C:\Users\CYMR90~1\AppData\Local\Temp\ccxApcqi.s:30772  .debug_str:00000000000252e9 .LASF2662
C:\Users\CYMR90~1\AppData\Local\Temp\ccxApcqi.s:22219  .debug_str:0000000000002da1 .LASF2663
C:\Users\CYMR90~1\AppData\Local\Temp\ccxApcqi.s:32480  .debug_str:000000000002c10d .LASF2664
C:\Users\CYMR90~1\AppData\Local\Temp\ccxApcqi.s:21813  .debug_str:00000000000014b8 .LASF2665
C:\Users\CYMR90~1\AppData\Local\Temp\ccxApcqi.s:29966  .debug_str:0000000000021f75 .LASF2666
C:\Users\CYMR90~1\AppData\Local\Temp\ccxApcqi.s:29976  .debug_str:0000000000022019 .LASF2667
C:\Users\CYMR90~1\AppData\Local\Temp\ccxApcqi.s:26381  .debug_str:0000000000013b86 .LASF2668
C:\Users\CYMR90~1\AppData\Local\Temp\ccxApcqi.s:26171  .debug_str:0000000000012def .LASF2669
C:\Users\CYMR90~1\AppData\Local\Temp\ccxApcqi.s:29012  .debug_str:000000000001e580 .LASF2670
C:\Users\CYMR90~1\AppData\Local\Temp\ccxApcqi.s:24313  .debug_str:000000000000b5a9 .LASF2671
C:\Users\CYMR90~1\AppData\Local\Temp\ccxApcqi.s:23197  .debug_str:0000000000006c20 .LASF2672
C:\Users\CYMR90~1\AppData\Local\Temp\ccxApcqi.s:29312  .debug_str:000000000001f72b .LASF2673
C:\Users\CYMR90~1\AppData\Local\Temp\ccxApcqi.s:31824  .debug_str:00000000000297e5 .LASF2674
C:\Users\CYMR90~1\AppData\Local\Temp\ccxApcqi.s:27310  .debug_str:0000000000017771 .LASF2675
C:\Users\CYMR90~1\AppData\Local\Temp\ccxApcqi.s:28664  .debug_str:000000000001d053 .LASF2676
C:\Users\CYMR90~1\AppData\Local\Temp\ccxApcqi.s:26549  .debug_str:00000000000145cd .LASF2677
C:\Users\CYMR90~1\AppData\Local\Temp\ccxApcqi.s:24833  .debug_str:000000000000d83f .LASF2678
C:\Users\CYMR90~1\AppData\Local\Temp\ccxApcqi.s:28178  .debug_str:000000000001b0aa .LASF2679
C:\Users\CYMR90~1\AppData\Local\Temp\ccxApcqi.s:32206  .debug_str:000000000002ae8c .LASF2680
C:\Users\CYMR90~1\AppData\Local\Temp\ccxApcqi.s:22729  .debug_str:0000000000004f74 .LASF2681
C:\Users\CYMR90~1\AppData\Local\Temp\ccxApcqi.s:23353  .debug_str:0000000000007681 .LASF2682
C:\Users\CYMR90~1\AppData\Local\Temp\ccxApcqi.s:31640  .debug_str:0000000000028c27 .LASF2683
C:\Users\CYMR90~1\AppData\Local\Temp\ccxApcqi.s:27686  .debug_str:0000000000018f90 .LASF2684
C:\Users\CYMR90~1\AppData\Local\Temp\ccxApcqi.s:30710  .debug_str:0000000000024e02 .LASF2685
C:\Users\CYMR90~1\AppData\Local\Temp\ccxApcqi.s:24691  .debug_str:000000000000cee8 .LASF2686
C:\Users\CYMR90~1\AppData\Local\Temp\ccxApcqi.s:29870  .debug_str:000000000002198e .LASF2687
C:\Users\CYMR90~1\AppData\Local\Temp\ccxApcqi.s:30118  .debug_str:0000000000022844 .LASF2688
C:\Users\CYMR90~1\AppData\Local\Temp\ccxApcqi.s:25783  .debug_str:00000000000113c4 .LASF2689
C:\Users\CYMR90~1\AppData\Local\Temp\ccxApcqi.s:22405  .debug_str:0000000000003a0d .LASF2690
C:\Users\CYMR90~1\AppData\Local\Temp\ccxApcqi.s:27640  .debug_str:0000000000018bf1 .LASF2691
C:\Users\CYMR90~1\AppData\Local\Temp\ccxApcqi.s:21595  .debug_str:000000000000076c .LASF2692
C:\Users\CYMR90~1\AppData\Local\Temp\ccxApcqi.s:29406  .debug_str:000000000001fd12 .LASF2693
C:\Users\CYMR90~1\AppData\Local\Temp\ccxApcqi.s:31550  .debug_str:00000000000286a1 .LASF2694
C:\Users\CYMR90~1\AppData\Local\Temp\ccxApcqi.s:23491  .debug_str:00000000000080b5 .LASF2695
C:\Users\CYMR90~1\AppData\Local\Temp\ccxApcqi.s:24121  .debug_str:000000000000a859 .LASF2696
C:\Users\CYMR90~1\AppData\Local\Temp\ccxApcqi.s:29866  .debug_str:0000000000021952 .LASF2697
C:\Users\CYMR90~1\AppData\Local\Temp\ccxApcqi.s:21725  .debug_str:0000000000000fbb .LASF2698
C:\Users\CYMR90~1\AppData\Local\Temp\ccxApcqi.s:24933  .debug_str:000000000000de90 .LASF2699
C:\Users\CYMR90~1\AppData\Local\Temp\ccxApcqi.s:28146  .debug_str:000000000001ae89 .LASF2700
C:\Users\CYMR90~1\AppData\Local\Temp\ccxApcqi.s:31312  .debug_str:000000000002757e .LASF2701
C:\Users\CYMR90~1\AppData\Local\Temp\ccxApcqi.s:23241  .debug_str:0000000000006f0d .LASF2702
C:\Users\CYMR90~1\AppData\Local\Temp\ccxApcqi.s:26439  .debug_str:0000000000013eb0 .LASF2703
C:\Users\CYMR90~1\AppData\Local\Temp\ccxApcqi.s:22927  .debug_str:0000000000005b72 .LASF2704
C:\Users\CYMR90~1\AppData\Local\Temp\ccxApcqi.s:27634  .debug_str:0000000000018b94 .LASF2705
C:\Users\CYMR90~1\AppData\Local\Temp\ccxApcqi.s:32330  .debug_str:000000000002b6fa .LASF2706
C:\Users\CYMR90~1\AppData\Local\Temp\ccxApcqi.s:25729  .debug_str:0000000000011016 .LASF2707
C:\Users\CYMR90~1\AppData\Local\Temp\ccxApcqi.s:30390  .debug_str:00000000000238c0 .LASF2708
C:\Users\CYMR90~1\AppData\Local\Temp\ccxApcqi.s:23829  .debug_str:00000000000095dc .LASF2709
C:\Users\CYMR90~1\AppData\Local\Temp\ccxApcqi.s:24197  .debug_str:000000000000ae07 .LASF2710
C:\Users\CYMR90~1\AppData\Local\Temp\ccxApcqi.s:24841  .debug_str:000000000000d8cf .LASF2711
C:\Users\CYMR90~1\AppData\Local\Temp\ccxApcqi.s:30112  .debug_str:00000000000227de .LASF2712
C:\Users\CYMR90~1\AppData\Local\Temp\ccxApcqi.s:27362  .debug_str:0000000000017a9d .LASF2713
C:\Users\CYMR90~1\AppData\Local\Temp\ccxApcqi.s:22647  .debug_str:0000000000004a7b .LASF2714
C:\Users\CYMR90~1\AppData\Local\Temp\ccxApcqi.s:24071  .debug_str:000000000000a534 .LASF2715
C:\Users\CYMR90~1\AppData\Local\Temp\ccxApcqi.s:29232  .debug_str:000000000001f28c .LASF2716
C:\Users\CYMR90~1\AppData\Local\Temp\ccxApcqi.s:23211  .debug_str:0000000000006d2b .LASF2717
C:\Users\CYMR90~1\AppData\Local\Temp\ccxApcqi.s:28342  .debug_str:000000000001ba8b .LASF2718
C:\Users\CYMR90~1\AppData\Local\Temp\ccxApcqi.s:28964  .debug_str:000000000001e29b .LASF2719
C:\Users\CYMR90~1\AppData\Local\Temp\ccxApcqi.s:24295  .debug_str:000000000000b456 .LASF2720
C:\Users\CYMR90~1\AppData\Local\Temp\ccxApcqi.s:29478  .debug_str:0000000000020139 .LASF2721
C:\Users\CYMR90~1\AppData\Local\Temp\ccxApcqi.s:23445  .debug_str:0000000000007d04 .LASF2722
C:\Users\CYMR90~1\AppData\Local\Temp\ccxApcqi.s:28566  .debug_str:000000000001c91e .LASF2723
C:\Users\CYMR90~1\AppData\Local\Temp\ccxApcqi.s:22513  .debug_str:000000000000415f .LASF2724
C:\Users\CYMR90~1\AppData\Local\Temp\ccxApcqi.s:30368  .debug_str:0000000000023789 .LASF2725
C:\Users\CYMR90~1\AppData\Local\Temp\ccxApcqi.s:27666  .debug_str:0000000000018d79 .LASF2726
C:\Users\CYMR90~1\AppData\Local\Temp\ccxApcqi.s:21993  .debug_str:0000000000001fe7 .LASF2727
C:\Users\CYMR90~1\AppData\Local\Temp\ccxApcqi.s:22339  .debug_str:0000000000003574 .LASF2728
C:\Users\CYMR90~1\AppData\Local\Temp\ccxApcqi.s:30840  .debug_str:0000000000025807 .LASF2729
C:\Users\CYMR90~1\AppData\Local\Temp\ccxApcqi.s:28204  .debug_str:000000000001b257 .LASF2730
C:\Users\CYMR90~1\AppData\Local\Temp\ccxApcqi.s:27350  .debug_str:00000000000179ff .LASF2731
C:\Users\CYMR90~1\AppData\Local\Temp\ccxApcqi.s:32508  .debug_str:000000000002c318 .LASF2732
C:\Users\CYMR90~1\AppData\Local\Temp\ccxApcqi.s:26437  .debug_str:0000000000013e96 .LASF2733
C:\Users\CYMR90~1\AppData\Local\Temp\ccxApcqi.s:31664  .debug_str:0000000000028d8e .LASF2734
C:\Users\CYMR90~1\AppData\Local\Temp\ccxApcqi.s:25539  .debug_str:0000000000010446 .LASF2735
C:\Users\CYMR90~1\AppData\Local\Temp\ccxApcqi.s:28106  .debug_str:000000000001ab98 .LASF2736
C:\Users\CYMR90~1\AppData\Local\Temp\ccxApcqi.s:22027  .debug_str:00000000000021b6 .LASF2737
C:\Users\CYMR90~1\AppData\Local\Temp\ccxApcqi.s:27148  .debug_str:0000000000016dd5 .LASF2738
C:\Users\CYMR90~1\AppData\Local\Temp\ccxApcqi.s:26471  .debug_str:00000000000140fa .LASF2739
C:\Users\CYMR90~1\AppData\Local\Temp\ccxApcqi.s:26237  .debug_str:0000000000013254 .LASF2740
C:\Users\CYMR90~1\AppData\Local\Temp\ccxApcqi.s:25135  .debug_str:000000000000eb5b .LASF2741
C:\Users\CYMR90~1\AppData\Local\Temp\ccxApcqi.s:32208  .debug_str:000000000002aea4 .LASF2742
C:\Users\CYMR90~1\AppData\Local\Temp\ccxApcqi.s:24139  .debug_str:000000000000a972 .LASF2743
C:\Users\CYMR90~1\AppData\Local\Temp\ccxApcqi.s:27308  .debug_str:0000000000017758 .LASF2744
C:\Users\CYMR90~1\AppData\Local\Temp\ccxApcqi.s:30514  .debug_str:0000000000024128 .LASF2745
C:\Users\CYMR90~1\AppData\Local\Temp\ccxApcqi.s:22445  .debug_str:0000000000003c95 .LASF2746
C:\Users\CYMR90~1\AppData\Local\Temp\ccxApcqi.s:25665  .debug_str:0000000000010c8d .LASF2747
C:\Users\CYMR90~1\AppData\Local\Temp\ccxApcqi.s:28820  .debug_str:000000000001d9d7 .LASF2748
C:\Users\CYMR90~1\AppData\Local\Temp\ccxApcqi.s:31956  .debug_str:0000000000029fa2 .LASF2749
C:\Users\CYMR90~1\AppData\Local\Temp\ccxApcqi.s:23903  .debug_str:0000000000009ad3 .LASF2750
C:\Users\CYMR90~1\AppData\Local\Temp\ccxApcqi.s:27069  .debug_str:000000000001663b .LASF2751
C:\Users\CYMR90~1\AppData\Local\Temp\ccxApcqi.s:29052  .debug_str:000000000001e829 .LASF2752
C:\Users\CYMR90~1\AppData\Local\Temp\ccxApcqi.s:22493  .debug_str:0000000000003f87 .LASF2753
C:\Users\CYMR90~1\AppData\Local\Temp\ccxApcqi.s:27186  .debug_str:0000000000016fd3 .LASF2754
C:\Users\CYMR90~1\AppData\Local\Temp\ccxApcqi.s:31870  .debug_str:0000000000029abe .LASF2755
C:\Users\CYMR90~1\AppData\Local\Temp\ccxApcqi.s:25305  .debug_str:000000000000f546 .LASF2756
C:\Users\CYMR90~1\AppData\Local\Temp\ccxApcqi.s:29954  .debug_str:0000000000021ed4 .LASF2757
C:\Users\CYMR90~1\AppData\Local\Temp\ccxApcqi.s:23367  .debug_str:0000000000007778 .LASF2758
C:\Users\CYMR90~1\AppData\Local\Temp\ccxApcqi.s:26563  .debug_str:00000000000146a8 .LASF2759
C:\Users\CYMR90~1\AppData\Local\Temp\ccxApcqi.s:29658  .debug_str:0000000000020c86 .LASF2760
C:\Users\CYMR90~1\AppData\Local\Temp\ccxApcqi.s:21627  .debug_str:000000000000094e .LASF2761
C:\Users\CYMR90~1\AppData\Local\Temp\ccxApcqi.s:24823  .debug_str:000000000000d7b7 .LASF2762
C:\Users\CYMR90~1\AppData\Local\Temp\ccxApcqi.s:28036  .debug_str:000000000001a73a .LASF2763
C:\Users\CYMR90~1\AppData\Local\Temp\ccxApcqi.s:31200  .debug_str:0000000000026e38 .LASF2764
C:\Users\CYMR90~1\AppData\Local\Temp\ccxApcqi.s:23131  .debug_str:00000000000067fe .LASF2765
C:\Users\CYMR90~1\AppData\Local\Temp\ccxApcqi.s:26337  .debug_str:00000000000138c6 .LASF2766
C:\Users\CYMR90~1\AppData\Local\Temp\ccxApcqi.s:29524  .debug_str:0000000000020481 .LASF2767
C:\Users\CYMR90~1\AppData\Local\Temp\ccxApcqi.s:26865  .debug_str:00000000000158c5 .LASF2768
C:\Users\CYMR90~1\AppData\Local\Temp\ccxApcqi.s:31564  .debug_str:0000000000028794 .LASF2769
C:\Users\CYMR90~1\AppData\Local\Temp\ccxApcqi.s:24987  .debug_str:000000000000e1f2 .LASF2770
C:\Users\CYMR90~1\AppData\Local\Temp\ccxApcqi.s:23071  .debug_str:0000000000006439 .LASF2771
C:\Users\CYMR90~1\AppData\Local\Temp\ccxApcqi.s:27770  .debug_str:00000000000194ab .LASF2772
C:\Users\CYMR90~1\AppData\Local\Temp\ccxApcqi.s:26293  .debug_str:0000000000013642 .LASF2773
C:\Users\CYMR90~1\AppData\Local\Temp\ccxApcqi.s:29468  .debug_str:0000000000020070 .LASF2774
C:\Users\CYMR90~1\AppData\Local\Temp\ccxApcqi.s:32688  .debug_str:000000000002cea8 .LASF2775
C:\Users\CYMR90~1\AppData\Local\Temp\ccxApcqi.s:28438  .debug_str:000000000001c0c1 .LASF2776
C:\Users\CYMR90~1\AppData\Local\Temp\ccxApcqi.s:30496  .debug_str:0000000000023ff5 .LASF2777
C:\Users\CYMR90~1\AppData\Local\Temp\ccxApcqi.s:30914  .debug_str:0000000000025c79 .LASF2778
C:\Users\CYMR90~1\AppData\Local\Temp\ccxApcqi.s:24829  .debug_str:000000000000d807 .LASF2779
C:\Users\CYMR90~1\AppData\Local\Temp\ccxApcqi.s:26063  .debug_str:00000000000126d2 .LASF2780
C:\Users\CYMR90~1\AppData\Local\Temp\ccxApcqi.s:29206  .debug_str:000000000001f0f9 .LASF2781
C:\Users\CYMR90~1\AppData\Local\Temp\ccxApcqi.s:32460  .debug_str:000000000002bfc6 .LASF2782
C:\Users\CYMR90~1\AppData\Local\Temp\ccxApcqi.s:29956  .debug_str:0000000000021eef .LASF2783
C:\Users\CYMR90~1\AppData\Local\Temp\ccxApcqi.s:31930  .debug_str:0000000000029e1e .LASF2784
C:\Users\CYMR90~1\AppData\Local\Temp\ccxApcqi.s:22419  .debug_str:0000000000003ad2 .LASF2785
C:\Users\CYMR90~1\AppData\Local\Temp\ccxApcqi.s:27093  .debug_str:0000000000016813 .LASF2786
C:\Users\CYMR90~1\AppData\Local\Temp\ccxApcqi.s:31790  .debug_str:0000000000029631 .LASF2787
C:\Users\CYMR90~1\AppData\Local\Temp\ccxApcqi.s:25217  .debug_str:000000000000efd6 .LASF2788
C:\Users\CYMR90~1\AppData\Local\Temp\ccxApcqi.s:27059  .debug_str:00000000000165b6 .LASF2789
C:\Users\CYMR90~1\AppData\Local\Temp\ccxApcqi.s:31758  .debug_str:00000000000293d8 .LASF2790
C:\Users\CYMR90~1\AppData\Local\Temp\ccxApcqi.s:25191  .debug_str:000000000000ee51 .LASF2791
C:\Users\CYMR90~1\AppData\Local\Temp\ccxApcqi.s:29842  .debug_str:00000000000217ae .LASF2792
C:\Users\CYMR90~1\AppData\Local\Temp\ccxApcqi.s:26347  .debug_str:000000000001395d .LASF2793
C:\Users\CYMR90~1\AppData\Local\Temp\ccxApcqi.s:21933  .debug_str:0000000000001c7e .LASF2794
C:\Users\CYMR90~1\AppData\Local\Temp\ccxApcqi.s:26601  .debug_str:00000000000148a1 .LASF2795
C:\Users\CYMR90~1\AppData\Local\Temp\ccxApcqi.s:31294  .debug_str:0000000000027472 .LASF2796
C:\Users\CYMR90~1\AppData\Local\Temp\ccxApcqi.s:24727  .debug_str:000000000000d186 .LASF2797
C:\Users\CYMR90~1\AppData\Local\Temp\ccxApcqi.s:29368  .debug_str:000000000001faa3 .LASF2798
C:\Users\CYMR90~1\AppData\Local\Temp\ccxApcqi.s:24357  .debug_str:000000000000b8ae .LASF2799
C:\Users\CYMR90~1\AppData\Local\Temp\ccxApcqi.s:28998  .debug_str:000000000001e47c .LASF2800
C:\Users\CYMR90~1\AppData\Local\Temp\ccxApcqi.s:22435  .debug_str:0000000000003bca .LASF2801
C:\Users\CYMR90~1\AppData\Local\Temp\ccxApcqi.s:27109  .debug_str:00000000000169b8 .LASF2802
C:\Users\CYMR90~1\AppData\Local\Temp\ccxApcqi.s:23749  .debug_str:00000000000090dd .LASF2803
C:\Users\CYMR90~1\AppData\Local\Temp\ccxApcqi.s:30468  .debug_str:0000000000023d4c .LASF2804
C:\Users\CYMR90~1\AppData\Local\Temp\ccxApcqi.s:21943  .debug_str:0000000000001d1c .LASF2805
C:\Users\CYMR90~1\AppData\Local\Temp\ccxApcqi.s:25157  .debug_str:000000000000ec76 .LASF2806
C:\Users\CYMR90~1\AppData\Local\Temp\ccxApcqi.s:31254  .debug_str:000000000002725f .LASF2807
C:\Users\CYMR90~1\AppData\Local\Temp\ccxApcqi.s:31540  .debug_str:000000000002860d .LASF2808
C:\Users\CYMR90~1\AppData\Local\Temp\ccxApcqi.s:23375  .debug_str:00000000000077e7 .LASF2809
C:\Users\CYMR90~1\AppData\Local\Temp\ccxApcqi.s:26571  .debug_str:0000000000014707 .LASF2810
C:\Users\CYMR90~1\AppData\Local\Temp\ccxApcqi.s:23913  .debug_str:0000000000009b4f .LASF2811
C:\Users\CYMR90~1\AppData\Local\Temp\ccxApcqi.s:21713  .debug_str:0000000000000f21 .LASF2812
C:\Users\CYMR90~1\AppData\Local\Temp\ccxApcqi.s:24917  .debug_str:000000000000ddb5 .LASF2813
C:\Users\CYMR90~1\AppData\Local\Temp\ccxApcqi.s:23469  .debug_str:0000000000007eb4 .LASF2814
C:\Users\CYMR90~1\AppData\Local\Temp\ccxApcqi.s:27412  .debug_str:0000000000017daa .LASF2815
C:\Users\CYMR90~1\AppData\Local\Temp\ccxApcqi.s:32116  .debug_str:000000000002a96d .LASF2816
C:\Users\CYMR90~1\AppData\Local\Temp\ccxApcqi.s:25537  .debug_str:000000000001042f .LASF2817
C:\Users\CYMR90~1\AppData\Local\Temp\ccxApcqi.s:30196  .debug_str:0000000000022d1a .LASF2818
C:\Users\CYMR90~1\AppData\Local\Temp\ccxApcqi.s:30806  .debug_str:0000000000025576 .LASF2819
C:\Users\CYMR90~1\AppData\Local\Temp\ccxApcqi.s:28296  .debug_str:000000000001b7c3 .LASF2820
C:\Users\CYMR90~1\AppData\Local\Temp\ccxApcqi.s:25715  .debug_str:0000000000010f38 .LASF2821
C:\Users\CYMR90~1\AppData\Local\Temp\ccxApcqi.s:31980  .debug_str:000000000002a0e2 .LASF2822
C:\Users\CYMR90~1\AppData\Local\Temp\ccxApcqi.s:23159  .debug_str:00000000000069ad .LASF2823
C:\Users\CYMR90~1\AppData\Local\Temp\ccxApcqi.s:23565  .debug_str:0000000000008566 .LASF2824
C:\Users\CYMR90~1\AppData\Local\Temp\ccxApcqi.s:24521  .debug_str:000000000000c34a .LASF2825
C:\Users\CYMR90~1\AppData\Local\Temp\ccxApcqi.s:31996  .debug_str:000000000002a1f1 .LASF2826
C:\Users\CYMR90~1\AppData\Local\Temp\ccxApcqi.s:22349  .debug_str:0000000000003627 .LASF2827
C:\Users\CYMR90~1\AppData\Local\Temp\ccxApcqi.s:27248  .debug_str:0000000000017359 .LASF2828
C:\Users\CYMR90~1\AppData\Local\Temp\ccxApcqi.s:22707  .debug_str:0000000000004e2f .LASF2829
C:\Users\CYMR90~1\AppData\Local\Temp\ccxApcqi.s:26057  .debug_str:000000000001266f .LASF2830
C:\Users\CYMR90~1\AppData\Local\Temp\ccxApcqi.s:22751  .debug_str:00000000000050c9 .LASF2831
C:\Users\CYMR90~1\AppData\Local\Temp\ccxApcqi.s:29534  .debug_str:00000000000204f9 .LASF2832
C:\Users\CYMR90~1\AppData\Local\Temp\ccxApcqi.s:26333  .debug_str:00000000000138a0 .LASF2833
C:\Users\CYMR90~1\AppData\Local\Temp\ccxApcqi.s:25125  .debug_str:000000000000eabf .LASF2834
C:\Users\CYMR90~1\AppData\Local\Temp\ccxApcqi.s:24189  .debug_str:000000000000acd3 .LASF2835
C:\Users\CYMR90~1\AppData\Local\Temp\ccxApcqi.s:21775  .debug_str:0000000000001279 .LASF2836
C:\Users\CYMR90~1\AppData\Local\Temp\ccxApcqi.s:24557  .debug_str:000000000000c58b .LASF2837
C:\Users\CYMR90~1\AppData\Local\Temp\ccxApcqi.s:26341  .debug_str:0000000000013901 .LASF2838
C:\Users\CYMR90~1\AppData\Local\Temp\ccxApcqi.s:29530  .debug_str:00000000000204d1 .LASF2839
C:\Users\CYMR90~1\AppData\Local\Temp\ccxApcqi.s:21503  .debug_str:0000000000000203 .LASF2840
C:\Users\CYMR90~1\AppData\Local\Temp\ccxApcqi.s:24689  .debug_str:000000000000ced5 .LASF2841
C:\Users\CYMR90~1\AppData\Local\Temp\ccxApcqi.s:27880  .debug_str:0000000000019c26 .LASF2842
C:\Users\CYMR90~1\AppData\Local\Temp\ccxApcqi.s:21691  .debug_str:0000000000000d6b .LASF2843
C:\Users\CYMR90~1\AppData\Local\Temp\ccxApcqi.s:31318  .debug_str:00000000000275d6 .LASF2844
C:\Users\CYMR90~1\AppData\Local\Temp\ccxApcqi.s:29686  .debug_str:0000000000020dec .LASF2845
C:\Users\CYMR90~1\AppData\Local\Temp\ccxApcqi.s:28114  .debug_str:000000000001ac1c .LASF2846
C:\Users\CYMR90~1\AppData\Local\Temp\ccxApcqi.s:32516  .debug_str:000000000002c39b .LASF2847
C:\Users\CYMR90~1\AppData\Local\Temp\ccxApcqi.s:21805  .debug_str:0000000000001461 .LASF2848
C:\Users\CYMR90~1\AppData\Local\Temp\ccxApcqi.s:26481  .debug_str:000000000001419b .LASF2849
C:\Users\CYMR90~1\AppData\Local\Temp\ccxApcqi.s:31170  .debug_str:0000000000026c92 .LASF2850
C:\Users\CYMR90~1\AppData\Local\Temp\ccxApcqi.s:32200  .debug_str:000000000002ae2a .LASF2851
C:\Users\CYMR90~1\AppData\Local\Temp\ccxApcqi.s:28440  .debug_str:000000000001c0d6 .LASF2852
C:\Users\CYMR90~1\AppData\Local\Temp\ccxApcqi.s:24735  .debug_str:000000000000d1de .LASF2853
C:\Users\CYMR90~1\AppData\Local\Temp\ccxApcqi.s:29992  .debug_str:000000000002210b .LASF2854
C:\Users\CYMR90~1\AppData\Local\Temp\ccxApcqi.s:21925  .debug_str:0000000000001c0a .LASF2855
C:\Users\CYMR90~1\AppData\Local\Temp\ccxApcqi.s:25141  .debug_str:000000000000eba6 .LASF2856
C:\Users\CYMR90~1\AppData\Local\Temp\ccxApcqi.s:28318  .debug_str:000000000001b8e7 .LASF2857
C:\Users\CYMR90~1\AppData\Local\Temp\ccxApcqi.s:31436  .debug_str:0000000000027e6a .LASF2858
C:\Users\CYMR90~1\AppData\Local\Temp\ccxApcqi.s:25065  .debug_str:000000000000e6e3 .LASF2859
C:\Users\CYMR90~1\AppData\Local\Temp\ccxApcqi.s:26557  .debug_str:0000000000014658 .LASF2860
C:\Users\CYMR90~1\AppData\Local\Temp\ccxApcqi.s:26595  .debug_str:000000000001485c .LASF2861
C:\Users\CYMR90~1\AppData\Local\Temp\ccxApcqi.s:21705  .debug_str:0000000000000ec2 .LASF2862
C:\Users\CYMR90~1\AppData\Local\Temp\ccxApcqi.s:21849  .debug_str:000000000000177a .LASF2863
C:\Users\CYMR90~1\AppData\Local\Temp\ccxApcqi.s:27117  .debug_str:0000000000016a32 .LASF2864
C:\Users\CYMR90~1\AppData\Local\Temp\ccxApcqi.s:29990  .debug_str:00000000000220f6 .LASF2865
C:\Users\CYMR90~1\AppData\Local\Temp\ccxApcqi.s:25237  .debug_str:000000000000f126 .LASF2866
C:\Users\CYMR90~1\AppData\Local\Temp\ccxApcqi.s:29892  .debug_str:0000000000021b29 .LASF2867
C:\Users\CYMR90~1\AppData\Local\Temp\ccxApcqi.s:30058  .debug_str:00000000000224e5 .LASF2868
C:\Users\CYMR90~1\AppData\Local\Temp\ccxApcqi.s:28028  .debug_str:000000000001a6d4 .LASF2869
C:\Users\CYMR90~1\AppData\Local\Temp\ccxApcqi.s:27278  .debug_str:0000000000017535 .LASF2870
C:\Users\CYMR90~1\AppData\Local\Temp\ccxApcqi.s:25007  .debug_str:000000000000e315 .LASF2871
C:\Users\CYMR90~1\AppData\Local\Temp\ccxApcqi.s:26181  .debug_str:0000000000012e97 .LASF2872
C:\Users\CYMR90~1\AppData\Local\Temp\ccxApcqi.s:26145  .debug_str:0000000000012c42 .LASF2873
C:\Users\CYMR90~1\AppData\Local\Temp\ccxApcqi.s:22261  .debug_str:0000000000003073 .LASF2874
C:\Users\CYMR90~1\AppData\Local\Temp\ccxApcqi.s:22147  .debug_str:0000000000002938 .LASF2875
C:\Users\CYMR90~1\AppData\Local\Temp\ccxApcqi.s:29646  .debug_str:0000000000020be0 .LASF2876
C:\Users\CYMR90~1\AppData\Local\Temp\ccxApcqi.s:30638  .debug_str:000000000002497e .LASF2877
C:\Users\CYMR90~1\AppData\Local\Temp\ccxApcqi.s:30322  .debug_str:00000000000234a8 .LASF2878
C:\Users\CYMR90~1\AppData\Local\Temp\ccxApcqi.s:24249  .debug_str:000000000000b128 .LASF2879
C:\Users\CYMR90~1\AppData\Local\Temp\ccxApcqi.s:27414  .debug_str:0000000000017dc1 .LASF2880
C:\Users\CYMR90~1\AppData\Local\Temp\ccxApcqi.s:30616  .debug_str:00000000000247fa .LASF2881
C:\Users\CYMR90~1\AppData\Local\Temp\ccxApcqi.s:22545  .debug_str:000000000000435d .LASF2882
C:\Users\CYMR90~1\AppData\Local\Temp\ccxApcqi.s:24601  .debug_str:000000000000c9a4 .LASF2883
C:\Users\CYMR90~1\AppData\Local\Temp\ccxApcqi.s:28840  .debug_str:000000000001db09 .LASF2884
C:\Users\CYMR90~1\AppData\Local\Temp\ccxApcqi.s:32616  .debug_str:000000000002c9d2 .LASF2885
C:\Users\CYMR90~1\AppData\Local\Temp\ccxApcqi.s:24015  .debug_str:000000000000a1a9 .LASF2886
C:\Users\CYMR90~1\AppData\Local\Temp\ccxApcqi.s:27192  .debug_str:0000000000017030 .LASF2887
C:\Users\CYMR90~1\AppData\Local\Temp\ccxApcqi.s:30386  .debug_str:000000000002388e .LASF2888
C:\Users\CYMR90~1\AppData\Local\Temp\ccxApcqi.s:28570  .debug_str:000000000001c954 .LASF2889
C:\Users\CYMR90~1\AppData\Local\Temp\ccxApcqi.s:21991  .debug_str:0000000000001fd3 .LASF2890
C:\Users\CYMR90~1\AppData\Local\Temp\ccxApcqi.s:26655  .debug_str:0000000000014c4a .LASF2891
C:\Users\CYMR90~1\AppData\Local\Temp\ccxApcqi.s:31354  .debug_str:00000000000278a0 .LASF2892
C:\Users\CYMR90~1\AppData\Local\Temp\ccxApcqi.s:24783  .debug_str:000000000000d58e .LASF2893
C:\Users\CYMR90~1\AppData\Local\Temp\ccxApcqi.s:29432  .debug_str:000000000001fe9d .LASF2894
C:\Users\CYMR90~1\AppData\Local\Temp\ccxApcqi.s:32020  .debug_str:000000000002a3b4 .LASF2895
C:\Users\CYMR90~1\AppData\Local\Temp\ccxApcqi.s:32236  .debug_str:000000000002b09d .LASF2896
C:\Users\CYMR90~1\AppData\Local\Temp\ccxApcqi.s:28064  .debug_str:000000000001a8d3 .LASF2897
C:\Users\CYMR90~1\AppData\Local\Temp\ccxApcqi.s:23275  .debug_str:0000000000007179 .LASF2898
C:\Users\CYMR90~1\AppData\Local\Temp\ccxApcqi.s:23573  .debug_str:00000000000085e7 .LASF2899
C:\Users\CYMR90~1\AppData\Local\Temp\ccxApcqi.s:27474  .debug_str:0000000000018110 .LASF2900
C:\Users\CYMR90~1\AppData\Local\Temp\ccxApcqi.s:32334  .debug_str:000000000002b727 .LASF2901
C:\Users\CYMR90~1\AppData\Local\Temp\ccxApcqi.s:25925  .debug_str:0000000000011d88 .LASF2902
C:\Users\CYMR90~1\AppData\Local\Temp\ccxApcqi.s:26749  .debug_str:0000000000015215 .LASF2903
C:\Users\CYMR90~1\AppData\Local\Temp\ccxApcqi.s:22981  .debug_str:0000000000005e9e .LASF2904
C:\Users\CYMR90~1\AppData\Local\Temp\ccxApcqi.s:29674  .debug_str:0000000000020d59 .LASF2905
C:\Users\CYMR90~1\AppData\Local\Temp\ccxApcqi.s:31052  .debug_str:0000000000026539 .LASF2906
C:\Users\CYMR90~1\AppData\Local\Temp\ccxApcqi.s:32432  .debug_str:000000000002bdd0 .LASF2907
C:\Users\CYMR90~1\AppData\Local\Temp\ccxApcqi.s:22503  .debug_str:00000000000040b9 .LASF2908
C:\Users\CYMR90~1\AppData\Local\Temp\ccxApcqi.s:26189  .debug_str:0000000000012f25 .LASF2909
C:\Users\CYMR90~1\AppData\Local\Temp\ccxApcqi.s:31544  .debug_str:000000000002863b .LASF2910
C:\Users\CYMR90~1\AppData\Local\Temp\ccxApcqi.s:29498  .debug_str:000000000002027e .LASF2911
C:\Users\CYMR90~1\AppData\Local\Temp\ccxApcqi.s:28398  .debug_str:000000000001be19 .LASF2912
C:\Users\CYMR90~1\AppData\Local\Temp\ccxApcqi.s:27976  .debug_str:000000000001a331 .LASF2913
C:\Users\CYMR90~1\AppData\Local\Temp\ccxApcqi.s:27898  .debug_str:0000000000019d03 .LASF2914
C:\Users\CYMR90~1\AppData\Local\Temp\ccxApcqi.s:30096  .debug_str:00000000000226fb .LASF2915
C:\Users\CYMR90~1\AppData\Local\Temp\ccxApcqi.s:28392  .debug_str:000000000001bdc6 .LASF2916
C:\Users\CYMR90~1\AppData\Local\Temp\ccxApcqi.s:27536  .debug_str:00000000000184c7 .LASF2917
C:\Users\CYMR90~1\AppData\Local\Temp\ccxApcqi.s:26577  .debug_str:000000000001475f .LASF2918
C:\Users\CYMR90~1\AppData\Local\Temp\ccxApcqi.s:26123  .debug_str:0000000000012ad6 .LASF2919
C:\Users\CYMR90~1\AppData\Local\Temp\ccxApcqi.s:24865  .debug_str:000000000000da0d .LASF2920
C:\Users\CYMR90~1\AppData\Local\Temp\ccxApcqi.s:24009  .debug_str:000000000000a146 .LASF2921
C:\Users\CYMR90~1\AppData\Local\Temp\ccxApcqi.s:23117  .debug_str:000000000000672c .LASF2922
C:\Users\CYMR90~1\AppData\Local\Temp\ccxApcqi.s:22265  .debug_str:00000000000030a9 .LASF2923
C:\Users\CYMR90~1\AppData\Local\Temp\ccxApcqi.s:32660  .debug_str:000000000002ccd8 .LASF2924
C:\Users\CYMR90~1\AppData\Local\Temp\ccxApcqi.s:31794  .debug_str:0000000000029662 .LASF2925
C:\Users\CYMR90~1\AppData\Local\Temp\ccxApcqi.s:30548  .debug_str:000000000002434c .LASF2926
C:\Users\CYMR90~1\AppData\Local\Temp\ccxApcqi.s:22471  .debug_str:0000000000003e5a .LASF2927
C:\Users\CYMR90~1\AppData\Local\Temp\ccxApcqi.s:25703  .debug_str:0000000000010e80 .LASF2928
C:\Users\CYMR90~1\AppData\Local\Temp\ccxApcqi.s:28858  .debug_str:000000000001dc19 .LASF2929
C:\Users\CYMR90~1\AppData\Local\Temp\ccxApcqi.s:32086  .debug_str:000000000002a783 .LASF2930
C:\Users\CYMR90~1\AppData\Local\Temp\ccxApcqi.s:24027  .debug_str:000000000000a292 .LASF2931
C:\Users\CYMR90~1\AppData\Local\Temp\ccxApcqi.s:23643  .debug_str:0000000000008a8f .LASF2932
C:\Users\CYMR90~1\AppData\Local\Temp\ccxApcqi.s:32006  .debug_str:000000000002a2a9 .LASF2933
C:\Users\CYMR90~1\AppData\Local\Temp\ccxApcqi.s:32468  .debug_str:000000000002c022 .LASF2934
C:\Users\CYMR90~1\AppData\Local\Temp\ccxApcqi.s:26723  .debug_str:00000000000150a6 .LASF2935
C:\Users\CYMR90~1\AppData\Local\Temp\ccxApcqi.s:22797  .debug_str:0000000000005381 .LASF2936
C:\Users\CYMR90~1\AppData\Local\Temp\ccxApcqi.s:26903  .debug_str:0000000000015b76 .LASF2937
C:\Users\CYMR90~1\AppData\Local\Temp\ccxApcqi.s:32434  .debug_str:000000000002bdf0 .LASF2938
C:\Users\CYMR90~1\AppData\Local\Temp\ccxApcqi.s:25559  .debug_str:000000000001056a .LASF2939
C:\Users\CYMR90~1\AppData\Local\Temp\ccxApcqi.s:24047  .debug_str:000000000000a3e3 .LASF2940
C:\Users\CYMR90~1\AppData\Local\Temp\ccxApcqi.s:21617  .debug_str:00000000000008b3 .LASF2941
C:\Users\CYMR90~1\AppData\Local\Temp\ccxApcqi.s:29542  .debug_str:0000000000020576 .LASF2942
C:\Users\CYMR90~1\AppData\Local\Temp\ccxApcqi.s:32538  .debug_str:000000000002c4ae .LASF2943
C:\Users\CYMR90~1\AppData\Local\Temp\ccxApcqi.s:30464  .debug_str:0000000000023d01 .LASF2944
C:\Users\CYMR90~1\AppData\Local\Temp\ccxApcqi.s:29852  .debug_str:0000000000021872 .LASF2945
C:\Users\CYMR90~1\AppData\Local\Temp\ccxApcqi.s:22757  .debug_str:0000000000005121 .LASF2946
C:\Users\CYMR90~1\AppData\Local\Temp\ccxApcqi.s:32666  .debug_str:000000000002cd26 .LASF2947
C:\Users\CYMR90~1\AppData\Local\Temp\ccxApcqi.s:25083  .debug_str:000000000000e7ef .LASF2948
C:\Users\CYMR90~1\AppData\Local\Temp\ccxApcqi.s:28410  .debug_str:000000000001bee7 .LASF2949
C:\Users\CYMR90~1\AppData\Local\Temp\ccxApcqi.s:30102  .debug_str:000000000002276f .LASF2950
C:\Users\CYMR90~1\AppData\Local\Temp\ccxApcqi.s:25683  .debug_str:0000000000010d80 .LASF2951
C:\Users\CYMR90~1\AppData\Local\Temp\ccxApcqi.s:24805  .debug_str:000000000000d6c6 .LASF2952
C:\Users\CYMR90~1\AppData\Local\Temp\ccxApcqi.s:29532  .debug_str:00000000000204e4 .LASF2953
C:\Users\CYMR90~1\AppData\Local\Temp\ccxApcqi.s:31866  .debug_str:0000000000029a8d .LASF2954
C:\Users\CYMR90~1\AppData\Local\Temp\ccxApcqi.s:24461  .debug_str:000000000000bfd7 .LASF2955
C:\Users\CYMR90~1\AppData\Local\Temp\ccxApcqi.s:23261  .debug_str:0000000000007083 .LASF2956
C:\Users\CYMR90~1\AppData\Local\Temp\ccxApcqi.s:29698  .debug_str:0000000000020e9f .LASF2957
C:\Users\CYMR90~1\AppData\Local\Temp\ccxApcqi.s:31890  .debug_str:0000000000029bea .LASF2958
C:\Users\CYMR90~1\AppData\Local\Temp\ccxApcqi.s:22225  .debug_str:0000000000002e0c .LASF2959
C:\Users\CYMR90~1\AppData\Local\Temp\ccxApcqi.s:24519  .debug_str:000000000000c336 .LASF2960
C:\Users\CYMR90~1\AppData\Local\Temp\ccxApcqi.s:25013  .debug_str:000000000000e377 .LASF2961
C:\Users\CYMR90~1\AppData\Local\Temp\ccxApcqi.s:32288  .debug_str:000000000002b423 .LASF2962
C:\Users\CYMR90~1\AppData\Local\Temp\ccxApcqi.s:23229  .debug_str:0000000000006e2e .LASF2963
C:\Users\CYMR90~1\AppData\Local\Temp\ccxApcqi.s:29428  .debug_str:000000000001fe5e .LASF2964
C:\Users\CYMR90~1\AppData\Local\Temp\ccxApcqi.s:25397  .debug_str:000000000000fb5e .LASF2965
C:\Users\CYMR90~1\AppData\Local\Temp\ccxApcqi.s:27234  .debug_str:00000000000172a7 .LASF2966
C:\Users\CYMR90~1\AppData\Local\Temp\ccxApcqi.s:23865  .debug_str:0000000000009846 .LASF2967
C:\Users\CYMR90~1\AppData\Local\Temp\ccxApcqi.s:23969  .debug_str:0000000000009ed4 .LASF2968
C:\Users\CYMR90~1\AppData\Local\Temp\ccxApcqi.s:24967  .debug_str:000000000000e099 .LASF2969
C:\Users\CYMR90~1\AppData\Local\Temp\ccxApcqi.s:24079  .debug_str:000000000000a5af .LASF2970
C:\Users\CYMR90~1\AppData\Local\Temp\ccxApcqi.s:30688  .debug_str:0000000000024ccf .LASF2971
C:\Users\CYMR90~1\AppData\Local\Temp\ccxApcqi.s:25137  .debug_str:000000000000eb76 .LASF2972
C:\Users\CYMR90~1\AppData\Local\Temp\ccxApcqi.s:25699  .debug_str:0000000000010e41 .LASF2973
C:\Users\CYMR90~1\AppData\Local\Temp\ccxApcqi.s:31432  .debug_str:0000000000027e1d .LASF2974
C:\Users\CYMR90~1\AppData\Local\Temp\ccxApcqi.s:23611  .debug_str:0000000000008880 .LASF2975
C:\Users\CYMR90~1\AppData\Local\Temp\ccxApcqi.s:32364  .debug_str:000000000002b918 .LASF2976
C:\Users\CYMR90~1\AppData\Local\Temp\ccxApcqi.s:31524  .debug_str:00000000000284e3 .LASF2977
C:\Users\CYMR90~1\AppData\Local\Temp\ccxApcqi.s:31786  .debug_str:00000000000295ff .LASF2978
C:\Users\CYMR90~1\AppData\Local\Temp\ccxApcqi.s:22477  .debug_str:0000000000003eb6 .LASF2979
C:\Users\CYMR90~1\AppData\Local\Temp\ccxApcqi.s:23877  .debug_str:0000000000009925 .LASF2980
C:\Users\CYMR90~1\AppData\Local\Temp\ccxApcqi.s:28264  .debug_str:000000000001b5f4 .LASF2981
C:\Users\CYMR90~1\AppData\Local\Temp\ccxApcqi.s:30702  .debug_str:0000000000024d8c .LASF2982
C:\Users\CYMR90~1\AppData\Local\Temp\ccxApcqi.s:24811  .debug_str:000000000000d723 .LASF2983
C:\Users\CYMR90~1\AppData\Local\Temp\ccxApcqi.s:27886  .debug_str:0000000000019c70 .LASF2984
C:\Users\CYMR90~1\AppData\Local\Temp\ccxApcqi.s:21747  .debug_str:0000000000001124 .LASF2985
C:\Users\CYMR90~1\AppData\Local\Temp\ccxApcqi.s:25181  .debug_str:000000000000edad .LASF2986
C:\Users\CYMR90~1\AppData\Local\Temp\ccxApcqi.s:28466  .debug_str:000000000001c24e .LASF2987
C:\Users\CYMR90~1\AppData\Local\Temp\ccxApcqi.s:31800  .debug_str:00000000000296a7 .LASF2988
C:\Users\CYMR90~1\AppData\Local\Temp\ccxApcqi.s:21881  .debug_str:0000000000001969 .LASF2989
C:\Users\CYMR90~1\AppData\Local\Temp\ccxApcqi.s:23935  .debug_str:0000000000009ca4 .LASF2990
C:\Users\CYMR90~1\AppData\Local\Temp\ccxApcqi.s:31232  .debug_str:00000000000270fa .LASF2991
C:\Users\CYMR90~1\AppData\Local\Temp\ccxApcqi.s:23499  .debug_str:000000000000814a .LASF2992
C:\Users\CYMR90~1\AppData\Local\Temp\ccxApcqi.s:24973  .debug_str:000000000000e112 .LASF2993
C:\Users\CYMR90~1\AppData\Local\Temp\ccxApcqi.s:30466  .debug_str:0000000000023d2d .LASF2994
C:\Users\CYMR90~1\AppData\Local\Temp\ccxApcqi.s:27812  .debug_str:00000000000197cf .LASF2995
C:\Users\CYMR90~1\AppData\Local\Temp\ccxApcqi.s:29294  .debug_str:000000000001f632 .LASF2996
C:\Users\CYMR90~1\AppData\Local\Temp\ccxApcqi.s:29214  .debug_str:000000000001f17c .LASF2997
C:\Users\CYMR90~1\AppData\Local\Temp\ccxApcqi.s:23473  .debug_str:0000000000007eed .LASF2998
C:\Users\CYMR90~1\AppData\Local\Temp\ccxApcqi.s:30762  .debug_str:000000000002525e .LASF2999
C:\Users\CYMR90~1\AppData\Local\Temp\ccxApcqi.s:30924  .debug_str:0000000000025d47 .LASF3000
C:\Users\CYMR90~1\AppData\Local\Temp\ccxApcqi.s:30696  .debug_str:0000000000024d47 .LASF3001
C:\Users\CYMR90~1\AppData\Local\Temp\ccxApcqi.s:22459  .debug_str:0000000000003d5a .LASF3002
C:\Users\CYMR90~1\AppData\Local\Temp\ccxApcqi.s:29676  .debug_str:0000000000020d79 .LASF3003
C:\Users\CYMR90~1\AppData\Local\Temp\ccxApcqi.s:25669  .debug_str:0000000000010cbb .LASF3004
C:\Users\CYMR90~1\AppData\Local\Temp\ccxApcqi.s:31176  .debug_str:0000000000026cfa .LASF3005
C:\Users\CYMR90~1\AppData\Local\Temp\ccxApcqi.s:30342  .debug_str:000000000002360a .LASF3006
C:\Users\CYMR90~1\AppData\Local\Temp\ccxApcqi.s:27182  .debug_str:0000000000016fae .LASF3007
C:\Users\CYMR90~1\AppData\Local\Temp\ccxApcqi.s:26923  .debug_str:0000000000015ce5 .LASF3008
C:\Users\CYMR90~1\AppData\Local\Temp\ccxApcqi.s:29172  .debug_str:000000000001eefa .LASF3009
C:\Users\CYMR90~1\AppData\Local\Temp\ccxApcqi.s:25629  .debug_str:0000000000010a01 .LASF3010
C:\Users\CYMR90~1\AppData\Local\Temp\ccxApcqi.s:25755  .debug_str:00000000000111ce .LASF3011
C:\Users\CYMR90~1\AppData\Local\Temp\ccxApcqi.s:25153  .debug_str:000000000000ec45 .LASF3012
C:\Users\CYMR90~1\AppData\Local\Temp\ccxApcqi.s:25287  .debug_str:000000000000f443 .LASF3013
C:\Users\CYMR90~1\AppData\Local\Temp\ccxApcqi.s:28904  .debug_str:000000000001def9 .LASF3014
C:\Users\CYMR90~1\AppData\Local\Temp\ccxApcqi.s:31542  .debug_str:0000000000028622 .LASF3015
C:\Users\CYMR90~1\AppData\Local\Temp\ccxApcqi.s:27039  .debug_str:000000000001647a .LASF3016
C:\Users\CYMR90~1\AppData\Local\Temp\ccxApcqi.s:30460  .debug_str:0000000000023cd2 .LASF3017
C:\Users\CYMR90~1\AppData\Local\Temp\ccxApcqi.s:22031  .debug_str:00000000000021e8 .LASF3018
C:\Users\CYMR90~1\AppData\Local\Temp\ccxApcqi.s:23253  .debug_str:0000000000006fdb .LASF3019
C:\Users\CYMR90~1\AppData\Local\Temp\ccxApcqi.s:31594  .debug_str:000000000002894f .LASF3020
C:\Users\CYMR90~1\AppData\Local\Temp\ccxApcqi.s:23987  .debug_str:0000000000009fe4 .LASF3021
C:\Users\CYMR90~1\AppData\Local\Temp\ccxApcqi.s:26435  .debug_str:0000000000013e7f .LASF3022
C:\Users\CYMR90~1\AppData\Local\Temp\ccxApcqi.s:25113  .debug_str:000000000000e9e6 .LASF3023
C:\Users\CYMR90~1\AppData\Local\Temp\ccxApcqi.s:26773  .debug_str:0000000000015384 .LASF3024
C:\Users\CYMR90~1\AppData\Local\Temp\ccxApcqi.s:29616  .debug_str:0000000000020a38 .LASF3025
C:\Users\CYMR90~1\AppData\Local\Temp\ccxApcqi.s:27562  .debug_str:0000000000018637 .LASF3026
C:\Users\CYMR90~1\AppData\Local\Temp\ccxApcqi.s:29476  .debug_str:00000000000200e4 .LASF3027
C:\Users\CYMR90~1\AppData\Local\Temp\ccxApcqi.s:31686  .debug_str:0000000000028eff .LASF3028
C:\Users\CYMR90~1\AppData\Local\Temp\ccxApcqi.s:30120  .debug_str:000000000002285f .LASF3029
C:\Users\CYMR90~1\AppData\Local\Temp\ccxApcqi.s:24531  .debug_str:000000000000c3e1 .LASF3030
C:\Users\CYMR90~1\AppData\Local\Temp\ccxApcqi.s:32488  .debug_str:000000000002c1bf .LASF3031
C:\Users\CYMR90~1\AppData\Local\Temp\ccxApcqi.s:29264  .debug_str:000000000001f467 .LASF3032
C:\Users\CYMR90~1\AppData\Local\Temp\ccxApcqi.s:31214  .debug_str:0000000000026f2a .LASF3033
C:\Users\CYMR90~1\AppData\Local\Temp\ccxApcqi.s:30958  .debug_str:0000000000025f63 .LASF3034
C:\Users\CYMR90~1\AppData\Local\Temp\ccxApcqi.s:24437  .debug_str:000000000000be3b .LASF3035
C:\Users\CYMR90~1\AppData\Local\Temp\ccxApcqi.s:26821  .debug_str:0000000000015614 .LASF3036
C:\Users\CYMR90~1\AppData\Local\Temp\ccxApcqi.s:26725  .debug_str:00000000000150d1 .LASF3037
C:\Users\CYMR90~1\AppData\Local\Temp\ccxApcqi.s:27626  .debug_str:0000000000018b2a .LASF3038
C:\Users\CYMR90~1\AppData\Local\Temp\ccxApcqi.s:29300  .debug_str:000000000001f697 .LASF3039
C:\Users\CYMR90~1\AppData\Local\Temp\ccxApcqi.s:29818  .debug_str:0000000000021661 .LASF3040
C:\Users\CYMR90~1\AppData\Local\Temp\ccxApcqi.s:32622  .debug_str:000000000002ca21 .LASF3041
C:\Users\CYMR90~1\AppData\Local\Temp\ccxApcqi.s:25343  .debug_str:000000000000f82d .LASF3042
C:\Users\CYMR90~1\AppData\Local\Temp\ccxApcqi.s:22237  .debug_str:0000000000002eb3 .LASF3043
C:\Users\CYMR90~1\AppData\Local\Temp\ccxApcqi.s:25197  .debug_str:000000000000eea1 .LASF3044
C:\Users\CYMR90~1\AppData\Local\Temp\ccxApcqi.s:29500  .debug_str:00000000000202a3 .LASF3045
C:\Users\CYMR90~1\AppData\Local\Temp\ccxApcqi.s:26797  .debug_str:00000000000154be .LASF3046
C:\Users\CYMR90~1\AppData\Local\Temp\ccxApcqi.s:25817  .debug_str:00000000000115d1 .LASF3047
C:\Users\CYMR90~1\AppData\Local\Temp\ccxApcqi.s:28406  .debug_str:000000000001beb0 .LASF3048
C:\Users\CYMR90~1\AppData\Local\Temp\ccxApcqi.s:27440  .debug_str:0000000000017f08 .LASF3049
C:\Users\CYMR90~1\AppData\Local\Temp\ccxApcqi.s:29334  .debug_str:000000000001f8b6 .LASF3050
C:\Users\CYMR90~1\AppData\Local\Temp\ccxApcqi.s:25631  .debug_str:0000000000010a19 .LASF3051
C:\Users\CYMR90~1\AppData\Local\Temp\ccxApcqi.s:31476  .debug_str:0000000000028169 .LASF3052
C:\Users\CYMR90~1\AppData\Local\Temp\ccxApcqi.s:23711  .debug_str:0000000000008eb0 .LASF3053
C:\Users\CYMR90~1\AppData\Local\Temp\ccxApcqi.s:22805  .debug_str:000000000000541f .LASF3054
C:\Users\CYMR90~1\AppData\Local\Temp\ccxApcqi.s:21865  .debug_str:000000000000187e .LASF3055
C:\Users\CYMR90~1\AppData\Local\Temp\ccxApcqi.s:32178  .debug_str:000000000002ad05 .LASF3056
C:\Users\CYMR90~1\AppData\Local\Temp\ccxApcqi.s:29764  .debug_str:0000000000021331 .LASF3057
C:\Users\CYMR90~1\AppData\Local\Temp\ccxApcqi.s:28798  .debug_str:000000000001d885 .LASF3058
C:\Users\CYMR90~1\AppData\Local\Temp\ccxApcqi.s:27968  .debug_str:000000000001a11e .LASF3059
C:\Users\CYMR90~1\AppData\Local\Temp\ccxApcqi.s:26963  .debug_str:0000000000015fb8 .LASF3060
C:\Users\CYMR90~1\AppData\Local\Temp\ccxApcqi.s:26039  .debug_str:0000000000012540 .LASF3061
C:\Users\CYMR90~1\AppData\Local\Temp\ccxApcqi.s:25075  .debug_str:000000000000e77e .LASF3062
C:\Users\CYMR90~1\AppData\Local\Temp\ccxApcqi.s:25213  .debug_str:000000000000ef8a .LASF3063
C:\Users\CYMR90~1\AppData\Local\Temp\ccxApcqi.s:31168  .debug_str:0000000000026c65 .LASF3064
C:\Users\CYMR90~1\AppData\Local\Temp\ccxApcqi.s:30954  .debug_str:0000000000025f0d .LASF3065
C:\Users\CYMR90~1\AppData\Local\Temp\ccxApcqi.s:25533  .debug_str:00000000000103ee .LASF3066
C:\Users\CYMR90~1\AppData\Local\Temp\ccxApcqi.s:24393  .debug_str:000000000000bb13 .LASF3067
C:\Users\CYMR90~1\AppData\Local\Temp\ccxApcqi.s:23307  .debug_str:00000000000073a4 .LASF3068
C:\Users\CYMR90~1\AppData\Local\Temp\ccxApcqi.s:28634  .debug_str:000000000001cdfd .LASF3069
C:\Users\CYMR90~1\AppData\Local\Temp\ccxApcqi.s:30240  .debug_str:0000000000022f70 .LASF3070
C:\Users\CYMR90~1\AppData\Local\Temp\ccxApcqi.s:24567  .debug_str:000000000000c679 .LASF3071
C:\Users\CYMR90~1\AppData\Local\Temp\ccxApcqi.s:22875  .debug_str:000000000000583e .LASF3072
C:\Users\CYMR90~1\AppData\Local\Temp\ccxApcqi.s:22659  .debug_str:0000000000004b3a .LASF3073
C:\Users\CYMR90~1\AppData\Local\Temp\ccxApcqi.s:28548  .debug_str:000000000001c7fa .LASF3074
C:\Users\CYMR90~1\AppData\Local\Temp\ccxApcqi.s:27055  .debug_str:0000000000016570 .LASF3075
C:\Users\CYMR90~1\AppData\Local\Temp\ccxApcqi.s:22173  .debug_str:0000000000002ad8 .LASF3076
C:\Users\CYMR90~1\AppData\Local\Temp\ccxApcqi.s:32560  .debug_str:000000000002c646 .LASF3077
C:\Users\CYMR90~1\AppData\Local\Temp\ccxApcqi.s:31514  .debug_str:0000000000028415 .LASF3078
C:\Users\CYMR90~1\AppData\Local\Temp\ccxApcqi.s:22629  .debug_str:000000000000494e .LASF3079
C:\Users\CYMR90~1\AppData\Local\Temp\ccxApcqi.s:28384  .debug_str:000000000001bd3f .LASF3080
C:\Users\CYMR90~1\AppData\Local\Temp\ccxApcqi.s:25635  .debug_str:0000000000010a5e .LASF3081
C:\Users\CYMR90~1\AppData\Local\Temp\ccxApcqi.s:28686  .debug_str:000000000001d17d .LASF3082
C:\Users\CYMR90~1\AppData\Local\Temp\ccxApcqi.s:21559  .debug_str:000000000000053f .LASF3083
C:\Users\CYMR90~1\AppData\Local\Temp\ccxApcqi.s:26211  .debug_str:00000000000130a5 .LASF3084
C:\Users\CYMR90~1\AppData\Local\Temp\ccxApcqi.s:30902  .debug_str:0000000000025bc5 .LASF3085
C:\Users\CYMR90~1\AppData\Local\Temp\ccxApcqi.s:26119  .debug_str:0000000000012aa2 .LASF3086
C:\Users\CYMR90~1\AppData\Local\Temp\ccxApcqi.s:23027  .debug_str:000000000000618f .LASF3087
C:\Users\CYMR90~1\AppData\Local\Temp\ccxApcqi.s:27406  .debug_str:0000000000017d56 .LASF3088
C:\Users\CYMR90~1\AppData\Local\Temp\ccxApcqi.s:25879  .debug_str:0000000000011ac0 .LASF3089
C:\Users\CYMR90~1\AppData\Local\Temp\ccxApcqi.s:24433  .debug_str:000000000000be04 .LASF3090
C:\Users\CYMR90~1\AppData\Local\Temp\ccxApcqi.s:28250  .debug_str:000000000001b505 .LASF3091
C:\Users\CYMR90~1\AppData\Local\Temp\ccxApcqi.s:24781  .debug_str:000000000000d570 .LASF3092
C:\Users\CYMR90~1\AppData\Local\Temp\ccxApcqi.s:23777  .debug_str:000000000000927a .LASF3093
C:\Users\CYMR90~1\AppData\Local\Temp\ccxApcqi.s:30602  .debug_str:0000000000024735 .LASF3094
C:\Users\CYMR90~1\AppData\Local\Temp\ccxApcqi.s:25923  .debug_str:0000000000011d68 .LASF3095
C:\Users\CYMR90~1\AppData\Local\Temp\ccxApcqi.s:30208  .debug_str:0000000000022dd0 .LASF3096
C:\Users\CYMR90~1\AppData\Local\Temp\ccxApcqi.s:24105  .debug_str:000000000000a77b .LASF3097
C:\Users\CYMR90~1\AppData\Local\Temp\ccxApcqi.s:27828  .debug_str:00000000000198f3 .LASF3098
C:\Users\CYMR90~1\AppData\Local\Temp\ccxApcqi.s:31130  .debug_str:00000000000269f1 .LASF3099
C:\Users\CYMR90~1\AppData\Local\Temp\ccxApcqi.s:24809  .debug_str:000000000000d6fe .LASF3100
C:\Users\CYMR90~1\AppData\Local\Temp\ccxApcqi.s:22923  .debug_str:0000000000005b3c .LASF3101
C:\Users\CYMR90~1\AppData\Local\Temp\ccxApcqi.s:24417  .debug_str:000000000000bce4 .LASF3102
C:\Users\CYMR90~1\AppData\Local\Temp\ccxApcqi.s:23213  .debug_str:0000000000006d47 .LASF3103
C:\Users\CYMR90~1\AppData\Local\Temp\ccxApcqi.s:25101  .debug_str:000000000000e943 .LASF3104
C:\Users\CYMR90~1\AppData\Local\Temp\ccxApcqi.s:21703  .debug_str:0000000000000ea5 .LASF3105
C:\Users\CYMR90~1\AppData\Local\Temp\ccxApcqi.s:32312  .debug_str:000000000002b59f .LASF3106
C:\Users\CYMR90~1\AppData\Local\Temp\ccxApcqi.s:31906  .debug_str:0000000000029cb6 .LASF3107
C:\Users\CYMR90~1\AppData\Local\Temp\ccxApcqi.s:29346  .debug_str:000000000001f974 .LASF3108
C:\Users\CYMR90~1\AppData\Local\Temp\ccxApcqi.s:30458  .debug_str:0000000000023cba .LASF3109
C:\Users\CYMR90~1\AppData\Local\Temp\ccxApcqi.s:28920  .debug_str:000000000001e011 .LASF3110
C:\Users\CYMR90~1\AppData\Local\Temp\ccxApcqi.s:29308  .debug_str:000000000001f6f6 .LASF3111
C:\Users\CYMR90~1\AppData\Local\Temp\ccxApcqi.s:31270  .debug_str:0000000000027326 .LASF3112
C:\Users\CYMR90~1\AppData\Local\Temp\ccxApcqi.s:26513  .debug_str:0000000000014351 .LASF3113
C:\Users\CYMR90~1\AppData\Local\Temp\ccxApcqi.s:27061  .debug_str:00000000000165cb .LASF3114
C:\Users\CYMR90~1\AppData\Local\Temp\ccxApcqi.s:21961  .debug_str:0000000000001e2c .LASF3115
C:\Users\CYMR90~1\AppData\Local\Temp\ccxApcqi.s:29292  .debug_str:000000000001f5f8 .LASF3116
C:\Users\CYMR90~1\AppData\Local\Temp\ccxApcqi.s:29242  .debug_str:000000000001f31f .LASF3117
C:\Users\CYMR90~1\AppData\Local\Temp\ccxApcqi.s:28356  .debug_str:000000000001bb59 .LASF3118
C:\Users\CYMR90~1\AppData\Local\Temp\ccxApcqi.s:22131  .debug_str:0000000000002843 .LASF3119
C:\Users\CYMR90~1\AppData\Local\Temp\ccxApcqi.s:30770  .debug_str:00000000000252ca .LASF3120
C:\Users\CYMR90~1\AppData\Local\Temp\ccxApcqi.s:24701  .debug_str:000000000000cf89 .LASF3121
C:\Users\CYMR90~1\AppData\Local\Temp\ccxApcqi.s:22475  .debug_str:0000000000003e90 .LASF3122
C:\Users\CYMR90~1\AppData\Local\Temp\ccxApcqi.s:22221  .debug_str:0000000000002dc1 .LASF3123
C:\Users\CYMR90~1\AppData\Local\Temp\ccxApcqi.s:23607  .debug_str:0000000000008842 .LASF3124
C:\Users\CYMR90~1\AppData\Local\Temp\ccxApcqi.s:28912  .debug_str:000000000001df83 .LASF3125
C:\Users\CYMR90~1\AppData\Local\Temp\ccxApcqi.s:30052  .debug_str:0000000000022483 .LASF3126
C:\Users\CYMR90~1\AppData\Local\Temp\ccxApcqi.s:23979  .debug_str:0000000000009f71 .LASF3127
C:\Users\CYMR90~1\AppData\Local\Temp\ccxApcqi.s:24895  .debug_str:000000000000dbd9 .LASF3128
C:\Users\CYMR90~1\AppData\Local\Temp\ccxApcqi.s:26861  .debug_str:000000000001588d .LASF3129
C:\Users\CYMR90~1\AppData\Local\Temp\ccxApcqi.s:24937  .debug_str:000000000000ded6 .LASF3130
C:\Users\CYMR90~1\AppData\Local\Temp\ccxApcqi.s:28140  .debug_str:000000000001ae1f .LASF3131
C:\Users\CYMR90~1\AppData\Local\Temp\ccxApcqi.s:27786  .debug_str:000000000001959e .LASF3132
C:\Users\CYMR90~1\AppData\Local\Temp\ccxApcqi.s:24425  .debug_str:000000000000bd68 .LASF3133
C:\Users\CYMR90~1\AppData\Local\Temp\ccxApcqi.s:29504  .debug_str:00000000000202e5 .LASF3134
C:\Users\CYMR90~1\AppData\Local\Temp\ccxApcqi.s:27338  .debug_str:0000000000017939 .LASF3135
C:\Users\CYMR90~1\AppData\Local\Temp\ccxApcqi.s:31508  .debug_str:00000000000283a3 .LASF3136
C:\Users\CYMR90~1\AppData\Local\Temp\ccxApcqi.s:29014  .debug_str:000000000001e5af .LASF3137
C:\Users\CYMR90~1\AppData\Local\Temp\ccxApcqi.s:28332  .debug_str:000000000001b99a .LASF3138
C:\Users\CYMR90~1\AppData\Local\Temp\ccxApcqi.s:24863  .debug_str:000000000000d9e9 .LASF3139
C:\Users\CYMR90~1\AppData\Local\Temp\ccxApcqi.s:21987  .debug_str:0000000000001fa2 .LASF3140
C:\Users\CYMR90~1\AppData\Local\Temp\ccxApcqi.s:25127  .debug_str:000000000000eadd .LASF3141
C:\Users\CYMR90~1\AppData\Local\Temp\ccxApcqi.s:25169  .debug_str:000000000000ed06 .LASF3142
C:\Users\CYMR90~1\AppData\Local\Temp\ccxApcqi.s:31040  .debug_str:0000000000026457 .LASF3143
C:\Users\CYMR90~1\AppData\Local\Temp\ccxApcqi.s:31394  .debug_str:0000000000027b5b .LASF3144
C:\Users\CYMR90~1\AppData\Local\Temp\ccxApcqi.s:27430  .debug_str:0000000000017e8c .LASF3145
C:\Users\CYMR90~1\AppData\Local\Temp\ccxApcqi.s:30154  .debug_str:0000000000022ac1 .LASF3146
C:\Users\CYMR90~1\AppData\Local\Temp\ccxApcqi.s:21821  .debug_str:0000000000001526 .LASF3147
C:\Users\CYMR90~1\AppData\Local\Temp\ccxApcqi.s:22125  .debug_str:00000000000027e7 .LASF3148
C:\Users\CYMR90~1\AppData\Local\Temp\ccxApcqi.s:31982  .debug_str:000000000002a0fd .LASF3149
C:\Users\CYMR90~1\AppData\Local\Temp\ccxApcqi.s:23011  .debug_str:00000000000060c2 .LASF3150
C:\Users\CYMR90~1\AppData\Local\Temp\ccxApcqi.s:26215  .debug_str:00000000000130e7 .LASF3151
C:\Users\CYMR90~1\AppData\Local\Temp\ccxApcqi.s:24771  .debug_str:000000000000d4b8 .LASF3152
C:\Users\CYMR90~1\AppData\Local\Temp\ccxApcqi.s:29724  .debug_str:0000000000021017 .LASF3153
C:\Users\CYMR90~1\AppData\Local\Temp\ccxApcqi.s:27796  .debug_str:000000000001967e .LASF3154
C:\Users\CYMR90~1\AppData\Local\Temp\ccxApcqi.s:23957  .debug_str:0000000000009dfc .LASF3155
C:\Users\CYMR90~1\AppData\Local\Temp\ccxApcqi.s:23715  .debug_str:0000000000008eed .LASF3156
C:\Users\CYMR90~1\AppData\Local\Temp\ccxApcqi.s:24297  .debug_str:000000000000b473 .LASF3157
C:\Users\CYMR90~1\AppData\Local\Temp\ccxApcqi.s:22549  .debug_str:0000000000004395 .LASF3158
C:\Users\CYMR90~1\AppData\Local\Temp\ccxApcqi.s:25653  .debug_str:0000000000010bf4 .LASF3159
C:\Users\CYMR90~1\AppData\Local\Temp\ccxApcqi.s:27322  .debug_str:0000000000017854 .LASF3160
C:\Users\CYMR90~1\AppData\Local\Temp\ccxApcqi.s:23581  .debug_str:0000000000008657 .LASF3161
C:\Users\CYMR90~1\AppData\Local\Temp\ccxApcqi.s:24373  .debug_str:000000000000b97e .LASF3162
C:\Users\CYMR90~1\AppData\Local\Temp\ccxApcqi.s:24325  .debug_str:000000000000b67d .LASF3163
C:\Users\CYMR90~1\AppData\Local\Temp\ccxApcqi.s:27226  .debug_str:0000000000017222 .LASF3164
C:\Users\CYMR90~1\AppData\Local\Temp\ccxApcqi.s:31018  .debug_str:00000000000262f6 .LASF3165
C:\Users\CYMR90~1\AppData\Local\Temp\ccxApcqi.s:24053  .debug_str:000000000000a443 .LASF3166
C:\Users\CYMR90~1\AppData\Local\Temp\ccxApcqi.s:22101  .debug_str:0000000000002632 .LASF3167
C:\Users\CYMR90~1\AppData\Local\Temp\ccxApcqi.s:29042  .debug_str:000000000001e781 .LASF3168
C:\Users\CYMR90~1\AppData\Local\Temp\ccxApcqi.s:21787  .debug_str:0000000000001360 .LASF3169
C:\Users\CYMR90~1\AppData\Local\Temp\ccxApcqi.s:27610  .debug_str:000000000001898b .LASF3170
C:\Users\CYMR90~1\AppData\Local\Temp\ccxApcqi.s:21893  .debug_str:0000000000001a25 .LASF3171
C:\Users\CYMR90~1\AppData\Local\Temp\ccxApcqi.s:32572  .debug_str:000000000002c72f .LASF3172
C:\Users\CYMR90~1\AppData\Local\Temp\ccxApcqi.s:26779  .debug_str:00000000000153c2 .LASF3173
C:\Users\CYMR90~1\AppData\Local\Temp\ccxApcqi.s:30554  .debug_str:00000000000243c1 .LASF3174
C:\Users\CYMR90~1\AppData\Local\Temp\ccxApcqi.s:23993  .debug_str:000000000000a045 .LASF3175
C:\Users\CYMR90~1\AppData\Local\Temp\ccxApcqi.s:21919  .debug_str:0000000000001bbf .LASF3176
C:\Users\CYMR90~1\AppData\Local\Temp\ccxApcqi.s:23033  .debug_str:00000000000061fd .LASF3177
C:\Users\CYMR90~1\AppData\Local\Temp\ccxApcqi.s:28214  .debug_str:000000000001b2e6 .LASF3178
C:\Users\CYMR90~1\AppData\Local\Temp\ccxApcqi.s:26331  .debug_str:0000000000013888 .LASF3179
C:\Users\CYMR90~1\AppData\Local\Temp\ccxApcqi.s:23721  .debug_str:0000000000008f50 .LASF3180
C:\Users\CYMR90~1\AppData\Local\Temp\ccxApcqi.s:22785  .debug_str:00000000000052da .LASF3181
C:\Users\CYMR90~1\AppData\Local\Temp\ccxApcqi.s:32076  .debug_str:000000000002a708 .LASF3182
C:\Users\CYMR90~1\AppData\Local\Temp\ccxApcqi.s:24445  .debug_str:000000000000beab .LASF3183
C:\Users\CYMR90~1\AppData\Local\Temp\ccxApcqi.s:22139  .debug_str:00000000000028be .LASF3184
C:\Users\CYMR90~1\AppData\Local\Temp\ccxApcqi.s:30012  .debug_str:000000000002221a .LASF3185
C:\Users\CYMR90~1\AppData\Local\Temp\ccxApcqi.s:26689  .debug_str:0000000000014e9d .LASF3186
C:\Users\CYMR90~1\AppData\Local\Temp\ccxApcqi.s:23303  .debug_str:000000000000735d .LASF3187
C:\Users\CYMR90~1\AppData\Local\Temp\ccxApcqi.s:28194  .debug_str:000000000001b1c0 .LASF3188
C:\Users\CYMR90~1\AppData\Local\Temp\ccxApcqi.s:22921  .debug_str:0000000000005b1d .LASF3189
C:\Users\CYMR90~1\AppData\Local\Temp\ccxApcqi.s:23811  .debug_str:00000000000094cc .LASF3190
C:\Users\CYMR90~1\AppData\Local\Temp\ccxApcqi.s:26055  .debug_str:0000000000012653 .LASF3191
C:\Users\CYMR90~1\AppData\Local\Temp\ccxApcqi.s:30030  .debug_str:000000000002230b .LASF3192
C:\Users\CYMR90~1\AppData\Local\Temp\ccxApcqi.s:31376  .debug_str:0000000000027a0c .LASF3193
C:\Users\CYMR90~1\AppData\Local\Temp\ccxApcqi.s:27422  .debug_str:0000000000017e26 .LASF3194
C:\Users\CYMR90~1\AppData\Local\Temp\ccxApcqi.s:25285  .debug_str:000000000000f423 .LASF3195
C:\Users\CYMR90~1\AppData\Local\Temp\ccxApcqi.s:30028  .debug_str:00000000000222f2 .LASF3196
C:\Users\CYMR90~1\AppData\Local\Temp\ccxApcqi.s:31810  .debug_str:0000000000029711 .LASF3197
C:\Users\CYMR90~1\AppData\Local\Temp\ccxApcqi.s:28058  .debug_str:000000000001a880 .LASF3198
C:\Users\CYMR90~1\AppData\Local\Temp\ccxApcqi.s:23171  .debug_str:0000000000006a83 .LASF3199
C:\Users\CYMR90~1\AppData\Local\Temp\ccxApcqi.s:22791  .debug_str:000000000000531e .LASF3200
C:\Users\CYMR90~1\AppData\Local\Temp\ccxApcqi.s:28958  .debug_str:000000000001e242 .LASF3201
C:\Users\CYMR90~1\AppData\Local\Temp\ccxApcqi.s:24993  .debug_str:000000000000e23e .LASF3202
C:\Users\CYMR90~1\AppData\Local\Temp\ccxApcqi.s:30226  .debug_str:0000000000022e99 .LASF3203
C:\Users\CYMR90~1\AppData\Local\Temp\ccxApcqi.s:27280  .debug_str:000000000001756e .LASF3204
C:\Users\CYMR90~1\AppData\Local\Temp\ccxApcqi.s:30668  .debug_str:0000000000024b67 .LASF3205
C:\Users\CYMR90~1\AppData\Local\Temp\ccxApcqi.s:30066  .debug_str:0000000000022555 .LASF3206
C:\Users\CYMR90~1\AppData\Local\Temp\ccxApcqi.s:27334  .debug_str:0000000000017910 .LASF3207
C:\Users\CYMR90~1\AppData\Local\Temp\ccxApcqi.s:32248  .debug_str:000000000002b177 .LASF3208
C:\Users\CYMR90~1\AppData\Local\Temp\ccxApcqi.s:32542  .debug_str:000000000002c50a .LASF3209
C:\Users\CYMR90~1\AppData\Local\Temp\ccxApcqi.s:30974  .debug_str:000000000002604e .LASF3210
C:\Users\CYMR90~1\AppData\Local\Temp\ccxApcqi.s:22439  .debug_str:0000000000003c1a .LASF3211
C:\Users\CYMR90~1\AppData\Local\Temp\ccxApcqi.s:25215  .debug_str:000000000000efb9 .LASF3212
C:\Users\CYMR90~1\AppData\Local\Temp\ccxApcqi.s:22409  .debug_str:0000000000003a46 .LASF3213
C:\Users\CYMR90~1\AppData\Local\Temp\ccxApcqi.s:25769  .debug_str:00000000000112bd .LASF3214
C:\Users\CYMR90~1\AppData\Local\Temp\ccxApcqi.s:25589  .debug_str:000000000001074c .LASF3215
C:\Users\CYMR90~1\AppData\Local\Temp\ccxApcqi.s:23141  .debug_str:0000000000006895 .LASF3216
C:\Users\CYMR90~1\AppData\Local\Temp\ccxApcqi.s:25973  .debug_str:0000000000012158 .LASF3217
C:\Users\CYMR90~1\AppData\Local\Temp\ccxApcqi.s:25633  .debug_str:0000000000010a41 .LASF3218
C:\Users\CYMR90~1\AppData\Local\Temp\ccxApcqi.s:23385  .debug_str:000000000000789e .LASF3219
C:\Users\CYMR90~1\AppData\Local\Temp\ccxApcqi.s:24059  .debug_str:000000000000a48d .LASF3220
C:\Users\CYMR90~1\AppData\Local\Temp\ccxApcqi.s:26455  .debug_str:0000000000013fe2 .LASF3221
C:\Users\CYMR90~1\AppData\Local\Temp\ccxApcqi.s:28966  .debug_str:000000000001e2b7 .LASF3222
C:\Users\CYMR90~1\AppData\Local\Temp\ccxApcqi.s:22591  .debug_str:0000000000004671 .LASF3223
C:\Users\CYMR90~1\AppData\Local\Temp\ccxApcqi.s:29502  .debug_str:00000000000202cf .LASF3224
C:\Users\CYMR90~1\AppData\Local\Temp\ccxApcqi.s:29864  .debug_str:0000000000021937 .LASF3225
C:\Users\CYMR90~1\AppData\Local\Temp\ccxApcqi.s:23867  .debug_str:0000000000009862 .LASF3226
C:\Users\CYMR90~1\AppData\Local\Temp\ccxApcqi.s:23217  .debug_str:0000000000006d79 .LASF3227
C:\Users\CYMR90~1\AppData\Local\Temp\ccxApcqi.s:23733  .debug_str:0000000000008fd8 .LASF3228
C:\Users\CYMR90~1\AppData\Local\Temp\ccxApcqi.s:22199  .debug_str:0000000000002c82 .LASF3229
C:\Users\CYMR90~1\AppData\Local\Temp\ccxApcqi.s:32400  .debug_str:000000000002bb6b .LASF3230
C:\Users\CYMR90~1\AppData\Local\Temp\ccxApcqi.s:23017  .debug_str:0000000000006115 .LASF3231
C:\Users\CYMR90~1\AppData\Local\Temp\ccxApcqi.s:21591  .debug_str:0000000000000727 .LASF3232
C:\Users\CYMR90~1\AppData\Local\Temp\ccxApcqi.s:22597  .debug_str:00000000000046ee .LASF3233
C:\Users\CYMR90~1\AppData\Local\Temp\ccxApcqi.s:22381  .debug_str:0000000000003859 .LASF3234
C:\Users\CYMR90~1\AppData\Local\Temp\ccxApcqi.s:26047  .debug_str:00000000000125cd .LASF3235
C:\Users\CYMR90~1\AppData\Local\Temp\ccxApcqi.s:29584  .debug_str:0000000000020801 .LASF3236
C:\Users\CYMR90~1\AppData\Local\Temp\ccxApcqi.s:21531  .debug_str:00000000000003ba .LASF3237
C:\Users\CYMR90~1\AppData\Local\Temp\ccxApcqi.s:29180  .debug_str:000000000001ef73 .LASF3238
C:\Users\CYMR90~1\AppData\Local\Temp\ccxApcqi.s:28046  .debug_str:000000000001a7be .LASF3239
C:\Users\CYMR90~1\AppData\Local\Temp\ccxApcqi.s:28956  .debug_str:000000000001e222 .LASF3240
C:\Users\CYMR90~1\AppData\Local\Temp\ccxApcqi.s:28540  .debug_str:000000000001c765 .LASF3241
C:\Users\CYMR90~1\AppData\Local\Temp\ccxApcqi.s:27402  .debug_str:0000000000017d20 .LASF3242
C:\Users\CYMR90~1\AppData\Local\Temp\ccxApcqi.s:25933  .debug_str:0000000000011df1 .LASF3243
C:\Users\CYMR90~1\AppData\Local\Temp\ccxApcqi.s:23949  .debug_str:0000000000009d69 .LASF3244
C:\Users\CYMR90~1\AppData\Local\Temp\ccxApcqi.s:28830  .debug_str:000000000001da4c .LASF3245
C:\Users\CYMR90~1\AppData\Local\Temp\ccxApcqi.s:32492  .debug_str:000000000002c220 .LASF3246
C:\Users\CYMR90~1\AppData\Local\Temp\ccxApcqi.s:27806  .debug_str:0000000000019784 .LASF3247
C:\Users\CYMR90~1\AppData\Local\Temp\ccxApcqi.s:28116  .debug_str:000000000001ac2f .LASF3248
C:\Users\CYMR90~1\AppData\Local\Temp\ccxApcqi.s:30594  .debug_str:00000000000246d3 .LASF3249
C:\Users\CYMR90~1\AppData\Local\Temp\ccxApcqi.s:31978  .debug_str:000000000002a0ca .LASF3250
C:\Users\CYMR90~1\AppData\Local\Temp\ccxApcqi.s:25813  .debug_str:0000000000011595 .LASF3251
C:\Users\CYMR90~1\AppData\Local\Temp\ccxApcqi.s:28782  .debug_str:000000000001d7ad .LASF3252
C:\Users\CYMR90~1\AppData\Local\Temp\ccxApcqi.s:24893  .debug_str:000000000000dbc1 .LASF3253
C:\Users\CYMR90~1\AppData\Local\Temp\ccxApcqi.s:31750  .debug_str:0000000000029366 .LASF3254
C:\Users\CYMR90~1\AppData\Local\Temp\ccxApcqi.s:23315  .debug_str:0000000000007414 .LASF3255
C:\Users\CYMR90~1\AppData\Local\Temp\ccxApcqi.s:32024  .debug_str:000000000002a3d4 .LASF3256
C:\Users\CYMR90~1\AppData\Local\Temp\ccxApcqi.s:30818  .debug_str:0000000000025696 .LASF3257
C:\Users\CYMR90~1\AppData\Local\Temp\ccxApcqi.s:22365  .debug_str:0000000000003764 .LASF3258
C:\Users\CYMR90~1\AppData\Local\Temp\ccxApcqi.s:25527  .debug_str:0000000000010390 .LASF3259
C:\Users\CYMR90~1\AppData\Local\Temp\ccxApcqi.s:31480  .debug_str:00000000000281b7 .LASF3260
C:\Users\CYMR90~1\AppData\Local\Temp\ccxApcqi.s:25997  .debug_str:00000000000122a5 .LASF3261
C:\Users\CYMR90~1\AppData\Local\Temp\ccxApcqi.s:24119  .debug_str:000000000000a83a .LASF3262
C:\Users\CYMR90~1\AppData\Local\Temp\ccxApcqi.s:32304  .debug_str:000000000002b50b .LASF3263
C:\Users\CYMR90~1\AppData\Local\Temp\ccxApcqi.s:24203  .debug_str:000000000000ae53 .LASF3264
C:\Users\CYMR90~1\AppData\Local\Temp\ccxApcqi.s:27860  .debug_str:0000000000019af0 .LASF3265
C:\Users\CYMR90~1\AppData\Local\Temp\ccxApcqi.s:32056  .debug_str:000000000002a5ca .LASF3266
C:\Users\CYMR90~1\AppData\Local\Temp\ccxApcqi.s:27604  .debug_str:0000000000018902 .LASF3267
C:\Users\CYMR90~1\AppData\Local\Temp\ccxApcqi.s:32094  .debug_str:000000000002a801 .LASF3268
C:\Users\CYMR90~1\AppData\Local\Temp\ccxApcqi.s:29690  .debug_str:0000000000020e18 .LASF3269
C:\Users\CYMR90~1\AppData\Local\Temp\ccxApcqi.s:31058  .debug_str:0000000000026596 .LASF3270
C:\Users\CYMR90~1\AppData\Local\Temp\ccxApcqi.s:24749  .debug_str:000000000000d317 .LASF3271
C:\Users\CYMR90~1\AppData\Local\Temp\ccxApcqi.s:30446  .debug_str:0000000000023c0e .LASF3272
C:\Users\CYMR90~1\AppData\Local\Temp\ccxApcqi.s:26579  .debug_str:000000000001476f .LASF3273
C:\Users\CYMR90~1\AppData\Local\Temp\ccxApcqi.s:25419  .debug_str:000000000000fcdb .LASF3274
C:\Users\CYMR90~1\AppData\Local\Temp\ccxApcqi.s:28528  .debug_str:000000000001c5fb .LASF3275
C:\Users\CYMR90~1\AppData\Local\Temp\ccxApcqi.s:31314  .debug_str:0000000000027594 .LASF3276
C:\Users\CYMR90~1\AppData\Local\Temp\ccxApcqi.s:22389  .debug_str:00000000000038e0 .LASF3277
C:\Users\CYMR90~1\AppData\Local\Temp\ccxApcqi.s:28762  .debug_str:000000000001d63c .LASF3278
C:\Users\CYMR90~1\AppData\Local\Temp\ccxApcqi.s:31490  .debug_str:000000000002825b .LASF3279
C:\Users\CYMR90~1\AppData\Local\Temp\ccxApcqi.s:23627  .debug_str:000000000000897b .LASF3280
C:\Users\CYMR90~1\AppData\Local\Temp\ccxApcqi.s:29938  .debug_str:0000000000021db1 .LASF3281
C:\Users\CYMR90~1\AppData\Local\Temp\ccxApcqi.s:26757  .debug_str:0000000000015287 .LASF3282
C:\Users\CYMR90~1\AppData\Local\Temp\ccxApcqi.s:23717  .debug_str:0000000000008f11 .LASF3283
C:\Users\CYMR90~1\AppData\Local\Temp\ccxApcqi.s:28668  .debug_str:000000000001d0a3 .LASF3284
C:\Users\CYMR90~1\AppData\Local\Temp\ccxApcqi.s:26139  .debug_str:0000000000012be5 .LASF3285
C:\Users\CYMR90~1\AppData\Local\Temp\ccxApcqi.s:24181  .debug_str:000000000000ac19 .LASF3286
C:\Users\CYMR90~1\AppData\Local\Temp\ccxApcqi.s:28598  .debug_str:000000000001cb1a .LASF3287
C:\Users\CYMR90~1\AppData\Local\Temp\ccxApcqi.s:30692  .debug_str:0000000000024d04 .LASF3288
C:\Users\CYMR90~1\AppData\Local\Temp\ccxApcqi.s:22677  .debug_str:0000000000004c58 .LASF3289
C:\Users\CYMR90~1\AppData\Local\Temp\ccxApcqi.s:31992  .debug_str:000000000002a1b7 .LASF3290
C:\Users\CYMR90~1\AppData\Local\Temp\ccxApcqi.s:30884  .debug_str:0000000000025aa3 .LASF3291
C:\Users\CYMR90~1\AppData\Local\Temp\ccxApcqi.s:27906  .debug_str:0000000000019d7b .LASF3292
C:\Users\CYMR90~1\AppData\Local\Temp\ccxApcqi.s:27914  .debug_str:0000000000019e01 .LASF3293
C:\Users\CYMR90~1\AppData\Local\Temp\ccxApcqi.s:31172  .debug_str:0000000000026ca7 .LASF3294
C:\Users\CYMR90~1\AppData\Local\Temp\ccxApcqi.s:26029  .debug_str:0000000000012492 .LASF3295
C:\Users\CYMR90~1\AppData\Local\Temp\ccxApcqi.s:31964  .debug_str:000000000002a015 .LASF3296
C:\Users\CYMR90~1\AppData\Local\Temp\ccxApcqi.s:27568  .debug_str:00000000000186b6 .LASF3297
C:\Users\CYMR90~1\AppData\Local\Temp\ccxApcqi.s:31248  .debug_str:00000000000271ef .LASF3298
C:\Users\CYMR90~1\AppData\Local\Temp\ccxApcqi.s:22571  .debug_str:00000000000044f2 .LASF3299
C:\Users\CYMR90~1\AppData\Local\Temp\ccxApcqi.s:25623  .debug_str:0000000000010967 .LASF3300
C:\Users\CYMR90~1\AppData\Local\Temp\ccxApcqi.s:28938  .debug_str:000000000001e103 .LASF3301
C:\Users\CYMR90~1\AppData\Local\Temp\ccxApcqi.s:25957  .debug_str:000000000001202a .LASF3302
C:\Users\CYMR90~1\AppData\Local\Temp\ccxApcqi.s:25373  .debug_str:000000000000f9dd .LASF3303
C:\Users\CYMR90~1\AppData\Local\Temp\ccxApcqi.s:26137  .debug_str:0000000000012bac .LASF3304
C:\Users\CYMR90~1\AppData\Local\Temp\ccxApcqi.s:30162  .debug_str:0000000000022b17 .LASF3305
C:\Users\CYMR90~1\AppData\Local\Temp\ccxApcqi.s:26941  .debug_str:0000000000015e2a .LASF3306
C:\Users\CYMR90~1\AppData\Local\Temp\ccxApcqi.s:28510  .debug_str:000000000001c4b1 .LASF3307
C:\Users\CYMR90~1\AppData\Local\Temp\ccxApcqi.s:31330  .debug_str:00000000000276c2 .LASF3308
C:\Users\CYMR90~1\AppData\Local\Temp\ccxApcqi.s:23417  .debug_str:0000000000007ac4 .LASF3309
C:\Users\CYMR90~1\AppData\Local\Temp\ccxApcqi.s:22733  .debug_str:0000000000004f9f .LASF3310
C:\Users\CYMR90~1\AppData\Local\Temp\ccxApcqi.s:26089  .debug_str:0000000000012894 .LASF3311
C:\Users\CYMR90~1\AppData\Local\Temp\ccxApcqi.s:21745  .debug_str:00000000000010f4 .LASF3312
C:\Users\CYMR90~1\AppData\Local\Temp\ccxApcqi.s:21837  .debug_str:0000000000001613 .LASF3313
C:\Users\CYMR90~1\AppData\Local\Temp\ccxApcqi.s:31440  .debug_str:0000000000027ea2 .LASF3314
C:\Users\CYMR90~1\AppData\Local\Temp\ccxApcqi.s:28180  .debug_str:000000000001b0c2 .LASF3315
C:\Users\CYMR90~1\AppData\Local\Temp\ccxApcqi.s:24669  .debug_str:000000000000cd67 .LASF3316
C:\Users\CYMR90~1\AppData\Local\Temp\ccxApcqi.s:31328  .debug_str:0000000000027689 .LASF3317
C:\Users\CYMR90~1\AppData\Local\Temp\ccxApcqi.s:27514  .debug_str:00000000000183b0 .LASF3318
C:\Users\CYMR90~1\AppData\Local\Temp\ccxApcqi.s:25371  .debug_str:000000000000f9c4 .LASF3319
C:\Users\CYMR90~1\AppData\Local\Temp\ccxApcqi.s:28992  .debug_str:000000000001e446 .LASF3320
C:\Users\CYMR90~1\AppData\Local\Temp\ccxApcqi.s:24481  .debug_str:000000000000c0f9 .LASF3321
C:\Users\CYMR90~1\AppData\Local\Temp\ccxApcqi.s:24057  .debug_str:000000000000a46a .LASF3322
C:\Users\CYMR90~1\AppData\Local\Temp\ccxApcqi.s:27001  .debug_str:00000000000161ec .LASF3323
C:\Users\CYMR90~1\AppData\Local\Temp\ccxApcqi.s:27964  .debug_str:000000000001a0dc .LASF3324
C:\Users\CYMR90~1\AppData\Local\Temp\ccxApcqi.s:29244  .debug_str:000000000001f33e .LASF3325
C:\Users\CYMR90~1\AppData\Local\Temp\ccxApcqi.s:25447  .debug_str:000000000000feb5 .LASF3326
C:\Users\CYMR90~1\AppData\Local\Temp\ccxApcqi.s:32566  .debug_str:000000000002c6bf .LASF3327
C:\Users\CYMR90~1\AppData\Local\Temp\ccxApcqi.s:29948  .debug_str:0000000000021e55 .LASF3328
C:\Users\CYMR90~1\AppData\Local\Temp\ccxApcqi.s:29964  .debug_str:0000000000021f51 .LASF3329
C:\Users\CYMR90~1\AppData\Local\Temp\ccxApcqi.s:24361  .debug_str:000000000000b8da .LASF3330
C:\Users\CYMR90~1\AppData\Local\Temp\ccxApcqi.s:30242  .debug_str:0000000000022f9d .LASF3331
C:\Users\CYMR90~1\AppData\Local\Temp\ccxApcqi.s:26419  .debug_str:0000000000013d88 .LASF3332
C:\Users\CYMR90~1\AppData\Local\Temp\ccxApcqi.s:29136  .debug_str:000000000001ec84 .LASF3333
C:\Users\CYMR90~1\AppData\Local\Temp\ccxApcqi.s:25199  .debug_str:000000000000eec3 .LASF3334
C:\Users\CYMR90~1\AppData\Local\Temp\ccxApcqi.s:31958  .debug_str:0000000000029fbb .LASF3335
C:\Users\CYMR90~1\AppData\Local\Temp\ccxApcqi.s:25523  .debug_str:0000000000010353 .LASF3336
C:\Users\CYMR90~1\AppData\Local\Temp\ccxApcqi.s:31566  .debug_str:00000000000287ad .LASF3337
C:\Users\CYMR90~1\AppData\Local\Temp\ccxApcqi.s:26703  .debug_str:0000000000014f80 .LASF3338
C:\Users\CYMR90~1\AppData\Local\Temp\ccxApcqi.s:23115  .debug_str:0000000000006714 .LASF3339
C:\Users\CYMR90~1\AppData\Local\Temp\ccxApcqi.s:23757  .debug_str:000000000000915e .LASF3340
C:\Users\CYMR90~1\AppData\Local\Temp\ccxApcqi.s:23343  .debug_str:00000000000075d8 .LASF3341
C:\Users\CYMR90~1\AppData\Local\Temp\ccxApcqi.s:32686  .debug_str:000000000002ce90 .LASF3342
C:\Users\CYMR90~1\AppData\Local\Temp\ccxApcqi.s:22523  .debug_str:00000000000041de .LASF3343
C:\Users\CYMR90~1\AppData\Local\Temp\ccxApcqi.s:32222  .debug_str:000000000002af83 .LASF3344
C:\Users\CYMR90~1\AppData\Local\Temp\ccxApcqi.s:24817  .debug_str:000000000000d774 .LASF3345
C:\Users\CYMR90~1\AppData\Local\Temp\ccxApcqi.s:27492  .debug_str:0000000000018235 .LASF3346
C:\Users\CYMR90~1\AppData\Local\Temp\ccxApcqi.s:26939  .debug_str:0000000000015e12 .LASF3347
C:\Users\CYMR90~1\AppData\Local\Temp\ccxApcqi.s:30256  .debug_str:000000000002305e .LASF3348
C:\Users\CYMR90~1\AppData\Local\Temp\ccxApcqi.s:21757  .debug_str:000000000000119a .LASF3349
C:\Users\CYMR90~1\AppData\Local\Temp\ccxApcqi.s:22693  .debug_str:0000000000004d6a .LASF3350
C:\Users\CYMR90~1\AppData\Local\Temp\ccxApcqi.s:30114  .debug_str:00000000000227f8 .LASF3351
C:\Users\CYMR90~1\AppData\Local\Temp\ccxApcqi.s:22939  .debug_str:0000000000005c4c .LASF3352
C:\Users\CYMR90~1\AppData\Local\Temp\ccxApcqi.s:30430  .debug_str:0000000000023b02 .LASF3353
C:\Users\CYMR90~1\AppData\Local\Temp\ccxApcqi.s:30846  .debug_str:000000000002586f .LASF3354
C:\Users\CYMR90~1\AppData\Local\Temp\ccxApcqi.s:29574  .debug_str:0000000000020793 .LASF3355
C:\Users\CYMR90~1\AppData\Local\Temp\ccxApcqi.s:26845  .debug_str:00000000000157ac .LASF3356
C:\Users\CYMR90~1\AppData\Local\Temp\ccxApcqi.s:26597  .debug_str:000000000001486f .LASF3357
C:\Users\CYMR90~1\AppData\Local\Temp\ccxApcqi.s:27314  .debug_str:00000000000177c1 .LASF3358
C:\Users\CYMR90~1\AppData\Local\Temp\ccxApcqi.s:29470  .debug_str:0000000000020085 .LASF3359
C:\Users\CYMR90~1\AppData\Local\Temp\ccxApcqi.s:23311  .debug_str:00000000000073e6 .LASF3360
C:\Users\CYMR90~1\AppData\Local\Temp\ccxApcqi.s:21525  .debug_str:0000000000000361 .LASF3361
C:\Users\CYMR90~1\AppData\Local\Temp\ccxApcqi.s:31590  .debug_str:0000000000028926 .LASF3362
C:\Users\CYMR90~1\AppData\Local\Temp\ccxApcqi.s:21653  .debug_str:0000000000000b61 .LASF3363
C:\Users\CYMR90~1\AppData\Local\Temp\ccxApcqi.s:29944  .debug_str:0000000000021e25 .LASF3364
C:\Users\CYMR90~1\AppData\Local\Temp\ccxApcqi.s:26739  .debug_str:00000000000151a7 .LASF3365
C:\Users\CYMR90~1\AppData\Local\Temp\ccxApcqi.s:26399  .debug_str:0000000000013c66 .LASF3366
C:\Users\CYMR90~1\AppData\Local\Temp\ccxApcqi.s:24693  .debug_str:000000000000cf02 .LASF3367
C:\Users\CYMR90~1\AppData\Local\Temp\ccxApcqi.s:30244  .debug_str:0000000000022fc3 .LASF3368
C:\Users\CYMR90~1\AppData\Local\Temp\ccxApcqi.s:28222  .debug_str:000000000001b371 .LASF3369
C:\Users\CYMR90~1\AppData\Local\Temp\ccxApcqi.s:26999  .debug_str:00000000000161cf .LASF3370
C:\Users\CYMR90~1\AppData\Local\Temp\ccxApcqi.s:30690  .debug_str:0000000000024ce6 .LASF3371
C:\Users\CYMR90~1\AppData\Local\Temp\ccxApcqi.s:25335  .debug_str:000000000000f7c3 .LASF3372
C:\Users\CYMR90~1\AppData\Local\Temp\ccxApcqi.s:30160  .debug_str:0000000000022afb .LASF3373
C:\Users\CYMR90~1\AppData\Local\Temp\ccxApcqi.s:26235  .debug_str:0000000000013236 .LASF3374
C:\Users\CYMR90~1\AppData\Local\Temp\ccxApcqi.s:28712  .debug_str:000000000001d30b .LASF3375
C:\Users\CYMR90~1\AppData\Local\Temp\ccxApcqi.s:31358  .debug_str:00000000000278d8 .LASF3376
C:\Users\CYMR90~1\AppData\Local\Temp\ccxApcqi.s:32606  .debug_str:000000000002c93a .LASF3377
C:\Users\CYMR90~1\AppData\Local\Temp\ccxApcqi.s:21901  .debug_str:0000000000001a8d .LASF3378
C:\Users\CYMR90~1\AppData\Local\Temp\ccxApcqi.s:22455  .debug_str:0000000000003d27 .LASF3379
C:\Users\CYMR90~1\AppData\Local\Temp\ccxApcqi.s:32294  .debug_str:000000000002b463 .LASF3380
C:\Users\CYMR90~1\AppData\Local\Temp\ccxApcqi.s:24209  .debug_str:000000000000aeb4 .LASF3381
C:\Users\CYMR90~1\AppData\Local\Temp\ccxApcqi.s:26391  .debug_str:0000000000013c0d .LASF3382
C:\Users\CYMR90~1\AppData\Local\Temp\ccxApcqi.s:22725  .debug_str:0000000000004f3f .LASF3383
C:\Users\CYMR90~1\AppData\Local\Temp\ccxApcqi.s:24093  .debug_str:000000000000a688 .LASF3384
C:\Users\CYMR90~1\AppData\Local\Temp\ccxApcqi.s:22917  .debug_str:0000000000005add .LASF3385
C:\Users\CYMR90~1\AppData\Local\Temp\ccxApcqi.s:24305  .debug_str:000000000000b503 .LASF3386
C:\Users\CYMR90~1\AppData\Local\Temp\ccxApcqi.s:22851  .debug_str:00000000000056d9 .LASF3387
C:\Users\CYMR90~1\AppData\Local\Temp\ccxApcqi.s:25951  .debug_str:0000000000011fc4 .LASF3388
C:\Users\CYMR90~1\AppData\Local\Temp\ccxApcqi.s:31348  .debug_str:000000000002783b .LASF3389
C:\Users\CYMR90~1\AppData\Local\Temp\ccxApcqi.s:27748  .debug_str:000000000001935c .LASF3390
C:\Users\CYMR90~1\AppData\Local\Temp\ccxApcqi.s:26539  .debug_str:00000000000144f6 .LASF3391
C:\Users\CYMR90~1\AppData\Local\Temp\ccxApcqi.s:32634  .debug_str:000000000002cb62 .LASF3392
C:\Users\CYMR90~1\AppData\Local\Temp\ccxApcqi.s:29212  .debug_str:000000000001f155 .LASF3393
C:\Users\CYMR90~1\AppData\Local\Temp\ccxApcqi.s:25881  .debug_str:0000000000011ada .LASF3394
C:\Users\CYMR90~1\AppData\Local\Temp\ccxApcqi.s:23039  .debug_str:000000000000623a .LASF3395
C:\Users\CYMR90~1\AppData\Local\Temp\ccxApcqi.s:30300  .debug_str:0000000000023319 .LASF3396
C:\Users\CYMR90~1\AppData\Local\Temp\ccxApcqi.s:26895  .debug_str:0000000000015ad6 .LASF3397
C:\Users\CYMR90~1\AppData\Local\Temp\ccxApcqi.s:23543  .debug_str:000000000000841d .LASF3398
C:\Users\CYMR90~1\AppData\Local\Temp\ccxApcqi.s:27436  .debug_str:0000000000017ebf .LASF3399
C:\Users\CYMR90~1\AppData\Local\Temp\ccxApcqi.s:32356  .debug_str:000000000002b88b .LASF3400
C:\Users\CYMR90~1\AppData\Local\Temp\ccxApcqi.s:30920  .debug_str:0000000000025cc1 .LASF3401
C:\Users\CYMR90~1\AppData\Local\Temp\ccxApcqi.s:21857  .debug_str:00000000000017f8 .LASF3402
C:\Users\CYMR90~1\AppData\Local\Temp\ccxApcqi.s:22891  .debug_str:0000000000005906 .LASF3403
C:\Users\CYMR90~1\AppData\Local\Temp\ccxApcqi.s:29000  .debug_str:000000000001e492 .LASF3404
C:\Users\CYMR90~1\AppData\Local\Temp\ccxApcqi.s:29220  .debug_str:000000000001f1d3 .LASF3405
C:\Users\CYMR90~1\AppData\Local\Temp\ccxApcqi.s:30344  .debug_str:0000000000023621 .LASF3406
C:\Users\CYMR90~1\AppData\Local\Temp\ccxApcqi.s:21853  .debug_str:00000000000017b1 .LASF3407
C:\Users\CYMR90~1\AppData\Local\Temp\ccxApcqi.s:27548  .debug_str:000000000001855c .LASF3408
C:\Users\CYMR90~1\AppData\Local\Temp\ccxApcqi.s:32586  .debug_str:000000000002c813 .LASF3409
C:\Users\CYMR90~1\AppData\Local\Temp\ccxApcqi.s:24279  .debug_str:000000000000b2c6 .LASF3410
C:\Users\CYMR90~1\AppData\Local\Temp\ccxApcqi.s:27420  .debug_str:0000000000017e06 .LASF3411
C:\Users\CYMR90~1\AppData\Local\Temp\ccxApcqi.s:21789  .debug_str:0000000000001373 .LASF3412
C:\Users\CYMR90~1\AppData\Local\Temp\ccxApcqi.s:28488  .debug_str:000000000001c36e .LASF3413
C:\Users\CYMR90~1\AppData\Local\Temp\ccxApcqi.s:24489  .debug_str:000000000000c16f .LASF3414
C:\Users\CYMR90~1\AppData\Local\Temp\ccxApcqi.s:24753  .debug_str:000000000000d362 .LASF3415
C:\Users\CYMR90~1\AppData\Local\Temp\ccxApcqi.s:32352  .debug_str:000000000002b840 .LASF3416
C:\Users\CYMR90~1\AppData\Local\Temp\ccxApcqi.s:29418  .debug_str:000000000001fdb6 .LASF3417
C:\Users\CYMR90~1\AppData\Local\Temp\ccxApcqi.s:25229  .debug_str:000000000000f0b0 .LASF3418
C:\Users\CYMR90~1\AppData\Local\Temp\ccxApcqi.s:30844  .debug_str:0000000000025847 .LASF3419
C:\Users\CYMR90~1\AppData\Local\Temp\ccxApcqi.s:29794  .debug_str:00000000000214f4 .LASF3420
C:\Users\CYMR90~1\AppData\Local\Temp\ccxApcqi.s:25489  .debug_str:000000000001015a .LASF3421
C:\Users\CYMR90~1\AppData\Local\Temp\ccxApcqi.s:29416  .debug_str:000000000001fd8f .LASF3422
C:\Users\CYMR90~1\AppData\Local\Temp\ccxApcqi.s:26547  .debug_str:00000000000145a6 .LASF3423
C:\Users\CYMR90~1\AppData\Local\Temp\ccxApcqi.s:32232  .debug_str:000000000002b05b .LASF3424
C:\Users\CYMR90~1\AppData\Local\Temp\ccxApcqi.s:23553  .debug_str:00000000000084b4 .LASF3425
C:\Users\CYMR90~1\AppData\Local\Temp\ccxApcqi.s:29448  .debug_str:000000000001ff50 .LASF3426
C:\Users\CYMR90~1\AppData\Local\Temp\ccxApcqi.s:30980  .debug_str:00000000000260ad .LASF3427
C:\Users\CYMR90~1\AppData\Local\Temp\ccxApcqi.s:32636  .debug_str:000000000002cb89 .LASF3428
C:\Users\CYMR90~1\AppData\Local\Temp\ccxApcqi.s:23929  .debug_str:0000000000009c45 .LASF3429
C:\Users\CYMR90~1\AppData\Local\Temp\ccxApcqi.s:27788  .debug_str:00000000000195c1 .LASF3430
C:\Users\CYMR90~1\AppData\Local\Temp\ccxApcqi.s:25205  .debug_str:000000000000ef09 .LASF3431
C:\Users\CYMR90~1\AppData\Local\Temp\ccxApcqi.s:29134  .debug_str:000000000001ec66 .LASF3432
C:\Users\CYMR90~1\AppData\Local\Temp\ccxApcqi.s:27602  .debug_str:00000000000188e3 .LASF3433
C:\Users\CYMR90~1\AppData\Local\Temp\ccxApcqi.s:32158  .debug_str:000000000002abca .LASF3434
C:\Users\CYMR90~1\AppData\Local\Temp\ccxApcqi.s:28368  .debug_str:000000000001bc2c .LASF3435
C:\Users\CYMR90~1\AppData\Local\Temp\ccxApcqi.s:22443  .debug_str:0000000000003c68 .LASF3436
C:\Users\CYMR90~1\AppData\Local\Temp\ccxApcqi.s:24193  .debug_str:000000000000ad0f .LASF3437
C:\Users\CYMR90~1\AppData\Local\Temp\ccxApcqi.s:25225  .debug_str:000000000000f062 .LASF3438
C:\Users\CYMR90~1\AppData\Local\Temp\ccxApcqi.s:29874  .debug_str:00000000000219cc .LASF3439
C:\Users\CYMR90~1\AppData\Local\Temp\ccxApcqi.s:27105  .debug_str:0000000000016989 .LASF3440
C:\Users\CYMR90~1\AppData\Local\Temp\ccxApcqi.s:28900  .debug_str:000000000001dea5 .LASF3441
C:\Users\CYMR90~1\AppData\Local\Temp\ccxApcqi.s:28132  .debug_str:000000000001ad41 .LASF3442
C:\Users\CYMR90~1\AppData\Local\Temp\ccxApcqi.s:29898  .debug_str:0000000000021b6d .LASF3443
C:\Users\CYMR90~1\AppData\Local\Temp\ccxApcqi.s:24159  .debug_str:000000000000aacb .LASF3444
C:\Users\CYMR90~1\AppData\Local\Temp\ccxApcqi.s:26515  .debug_str:000000000001436b .LASF3445
C:\Users\CYMR90~1\AppData\Local\Temp\ccxApcqi.s:22985  .debug_str:0000000000005ee9 .LASF3446
C:\Users\CYMR90~1\AppData\Local\Temp\ccxApcqi.s:29626  .debug_str:0000000000020acc .LASF3447
C:\Users\CYMR90~1\AppData\Local\Temp\ccxApcqi.s:26125  .debug_str:0000000000012ae6 .LASF3448
C:\Users\CYMR90~1\AppData\Local\Temp\ccxApcqi.s:28198  .debug_str:000000000001b1fa .LASF3449
C:\Users\CYMR90~1\AppData\Local\Temp\ccxApcqi.s:28074  .debug_str:000000000001a994 .LASF3450
C:\Users\CYMR90~1\AppData\Local\Temp\ccxApcqi.s:22745  .debug_str:0000000000005078 .LASF3451
C:\Users\CYMR90~1\AppData\Local\Temp\ccxApcqi.s:29494  .debug_str:0000000000020232 .LASF3452
C:\Users\CYMR90~1\AppData\Local\Temp\ccxApcqi.s:26201  .debug_str:0000000000012ff0 .LASF3453
C:\Users\CYMR90~1\AppData\Local\Temp\ccxApcqi.s:24037  .debug_str:000000000000a324 .LASF3454
C:\Users\CYMR90~1\AppData\Local\Temp\ccxApcqi.s:28530  .debug_str:000000000001c620 .LASF3455
C:\Users\CYMR90~1\AppData\Local\Temp\ccxApcqi.s:23249  .debug_str:0000000000006f7a .LASF3456
C:\Users\CYMR90~1\AppData\Local\Temp\ccxApcqi.s:31166  .debug_str:0000000000026c43 .LASF3457
C:\Users\CYMR90~1\AppData\Local\Temp\ccxApcqi.s:22657  .debug_str:0000000000004b16 .LASF3458
C:\Users\CYMR90~1\AppData\Local\Temp\ccxApcqi.s:22983  .debug_str:0000000000005ed8 .LASF3459
C:\Users\CYMR90~1\AppData\Local\Temp\ccxApcqi.s:21971  .debug_str:0000000000001ebf .LASF3460
C:\Users\CYMR90~1\AppData\Local\Temp\ccxApcqi.s:27496  .debug_str:000000000001826c .LASF3461
C:\Users\CYMR90~1\AppData\Local\Temp\ccxApcqi.s:27214  .debug_str:000000000001717c .LASF3462
C:\Users\CYMR90~1\AppData\Local\Temp\ccxApcqi.s:28248  .debug_str:000000000001b4e3 .LASF3463
C:\Users\CYMR90~1\AppData\Local\Temp\ccxApcqi.s:24907  .debug_str:000000000000dce8 .LASF3464
C:\Users\CYMR90~1\AppData\Local\Temp\ccxApcqi.s:29622  .debug_str:0000000000020a8f .LASF3465
C:\Users\CYMR90~1\AppData\Local\Temp\ccxApcqi.s:30494  .debug_str:0000000000023fd0 .LASF3466
C:\Users\CYMR90~1\AppData\Local\Temp\ccxApcqi.s:31360  .debug_str:00000000000278ef .LASF3467
C:\Users\CYMR90~1\AppData\Local\Temp\ccxApcqi.s:29748  .debug_str:000000000002122d .LASF3468
C:\Users\CYMR90~1\AppData\Local\Temp\ccxApcqi.s:31004  .debug_str:000000000002620b .LASF3469
C:\Users\CYMR90~1\AppData\Local\Temp\ccxApcqi.s:23267  .debug_str:00000000000070e8 .LASF3470
C:\Users\CYMR90~1\AppData\Local\Temp\ccxApcqi.s:28256  .debug_str:000000000001b570 .LASF3471
C:\Users\CYMR90~1\AppData\Local\Temp\ccxApcqi.s:22065  .debug_str:00000000000023d4 .LASF3472
C:\Users\CYMR90~1\AppData\Local\Temp\ccxApcqi.s:30760  .debug_str:000000000002523a .LASF3473
C:\Users\CYMR90~1\AppData\Local\Temp\ccxApcqi.s:24493  .debug_str:000000000000c1b4 .LASF3474
C:\Users\CYMR90~1\AppData\Local\Temp\ccxApcqi.s:26973  .debug_str:0000000000016042 .LASF3475
C:\Users\CYMR90~1\AppData\Local\Temp\ccxApcqi.s:31198  .debug_str:0000000000026e15 .LASF3476
C:\Users\CYMR90~1\AppData\Local\Temp\ccxApcqi.s:24147  .debug_str:000000000000a9fb .LASF3477
C:\Users\CYMR90~1\AppData\Local\Temp\ccxApcqi.s:24983  .debug_str:000000000000e1a8 .LASF3478
C:\Users\CYMR90~1\AppData\Local\Temp\ccxApcqi.s:22661  .debug_str:0000000000004b65 .LASF3479
C:\Users\CYMR90~1\AppData\Local\Temp\ccxApcqi.s:21647  .debug_str:0000000000000ae7 .LASF3480
C:\Users\CYMR90~1\AppData\Local\Temp\ccxApcqi.s:29908  .debug_str:0000000000021c11 .LASF3481
C:\Users\CYMR90~1\AppData\Local\Temp\ccxApcqi.s:24165  .debug_str:000000000000ab20 .LASF3482
C:\Users\CYMR90~1\AppData\Local\Temp\ccxApcqi.s:22357  .debug_str:00000000000036c4 .LASF3483
C:\Users\CYMR90~1\AppData\Local\Temp\ccxApcqi.s:21817  .debug_str:00000000000014ec .LASF3484
C:\Users\CYMR90~1\AppData\Local\Temp\ccxApcqi.s:27516  .debug_str:00000000000183c9 .LASF3485
C:\Users\CYMR90~1\AppData\Local\Temp\ccxApcqi.s:26995  .debug_str:000000000001618f .LASF3486
C:\Users\CYMR90~1\AppData\Local\Temp\ccxApcqi.s:26187  .debug_str:0000000000012f09 .LASF3487
C:\Users\CYMR90~1\AppData\Local\Temp\ccxApcqi.s:27866  .debug_str:0000000000019b59 .LASF3488
C:\Users\CYMR90~1\AppData\Local\Temp\ccxApcqi.s:32120  .debug_str:000000000002a98a .LASF3489
C:\Users\CYMR90~1\AppData\Local\Temp\ccxApcqi.s:27057  .debug_str:000000000001659d .LASF3490
C:\Users\CYMR90~1\AppData\Local\Temp\ccxApcqi.s:26105  .debug_str:00000000000129c9 .LASF3491
C:\Users\CYMR90~1\AppData\Local\Temp\ccxApcqi.s:28156  .debug_str:000000000001af16 .LASF3492
C:\Users\CYMR90~1\AppData\Local\Temp\ccxApcqi.s:31034  .debug_str:00000000000263f8 .LASF3493
C:\Users\CYMR90~1\AppData\Local\Temp\ccxApcqi.s:23481  .debug_str:0000000000007ff9 .LASF3494
C:\Users\CYMR90~1\AppData\Local\Temp\ccxApcqi.s:22187  .debug_str:0000000000002bb2 .LASF3495
C:\Users\CYMR90~1\AppData\Local\Temp\ccxApcqi.s:29834  .debug_str:0000000000021731 .LASF3496
C:\Users\CYMR90~1\AppData\Local\Temp\ccxApcqi.s:29170  .debug_str:000000000001eedf .LASF3497
C:\Users\CYMR90~1\AppData\Local\Temp\ccxApcqi.s:29462  .debug_str:0000000000020019 .LASF3498
C:\Users\CYMR90~1\AppData\Local\Temp\ccxApcqi.s:29994  .debug_str:000000000002211e .LASF3499
C:\Users\CYMR90~1\AppData\Local\Temp\ccxApcqi.s:25621  .debug_str:000000000001094f .LASF3500
C:\Users\CYMR90~1\AppData\Local\Temp\ccxApcqi.s:23195  .debug_str:0000000000006c06 .LASF3501
C:\Users\CYMR90~1\AppData\Local\Temp\ccxApcqi.s:32280  .debug_str:000000000002b3bf .LASF3502
C:\Users\CYMR90~1\AppData\Local\Temp\ccxApcqi.s:32108  .debug_str:000000000002a8d7 .LASF3503
C:\Users\CYMR90~1\AppData\Local\Temp\ccxApcqi.s:28852  .debug_str:000000000001dbaa .LASF3504
C:\Users\CYMR90~1\AppData\Local\Temp\ccxApcqi.s:21629  .debug_str:0000000000000965 .LASF3505
C:\Users\CYMR90~1\AppData\Local\Temp\ccxApcqi.s:22931  .debug_str:0000000000005bad .LASF3506
C:\Users\CYMR90~1\AppData\Local\Temp\ccxApcqi.s:25403  .debug_str:000000000000fbd3 .LASF3507
C:\Users\CYMR90~1\AppData\Local\Temp\ccxApcqi.s:32576  .debug_str:000000000002c75c .LASF3508
C:\Users\CYMR90~1\AppData\Local\Temp\ccxApcqi.s:27682  .debug_str:0000000000018f5d .LASF3509
C:\Users\CYMR90~1\AppData\Local\Temp\ccxApcqi.s:32218  .debug_str:000000000002af40 .LASF3510
C:\Users\CYMR90~1\AppData\Local\Temp\ccxApcqi.s:27724  .debug_str:00000000000191d6 .LASF3511
C:\Users\CYMR90~1\AppData\Local\Temp\ccxApcqi.s:29978  .debug_str:0000000000022048 .LASF3512
C:\Users\CYMR90~1\AppData\Local\Temp\ccxApcqi.s:26449  .debug_str:0000000000013f52 .LASF3513
C:\Users\CYMR90~1\AppData\Local\Temp\ccxApcqi.s:24589  .debug_str:000000000000c823 .LASF3514
C:\Users\CYMR90~1\AppData\Local\Temp\ccxApcqi.s:22247  .debug_str:0000000000002f54 .LASF3515
C:\Users\CYMR90~1\AppData\Local\Temp\ccxApcqi.s:28040  .debug_str:000000000001a76a .LASF3516
C:\Users\CYMR90~1\AppData\Local\Temp\ccxApcqi.s:29248  .debug_str:000000000001f371 .LASF3517
C:\Users\CYMR90~1\AppData\Local\Temp\ccxApcqi.s:31910  .debug_str:0000000000029cf3 .LASF3518
C:\Users\CYMR90~1\AppData\Local\Temp\ccxApcqi.s:31120  .debug_str:0000000000026950 .LASF3519
C:\Users\CYMR90~1\AppData\Local\Temp\ccxApcqi.s:30042  .debug_str:00000000000223db .LASF3520
C:\Users\CYMR90~1\AppData\Local\Temp\ccxApcqi.s:30706  .debug_str:0000000000024dcd .LASF3521
C:\Users\CYMR90~1\AppData\Local\Temp\ccxApcqi.s:28850  .debug_str:000000000001db8e .LASF3522
C:\Users\CYMR90~1\AppData\Local\Temp\ccxApcqi.s:28910  .debug_str:000000000001df68 .LASF3523
C:\Users\CYMR90~1\AppData\Local\Temp\ccxApcqi.s:27952  .debug_str:000000000001a029 .LASF3524
C:\Users\CYMR90~1\AppData\Local\Temp\ccxApcqi.s:21533  .debug_str:00000000000003d7 .LASF3525
C:\Users\CYMR90~1\AppData\Local\Temp\ccxApcqi.s:27302  .debug_str:00000000000176ce .LASF3526
C:\Users\CYMR90~1\AppData\Local\Temp\ccxApcqi.s:30890  .debug_str:0000000000025af9 .LASF3527
C:\Users\CYMR90~1\AppData\Local\Temp\ccxApcqi.s:22775  .debug_str:0000000000005242 .LASF3528
C:\Users\CYMR90~1\AppData\Local\Temp\ccxApcqi.s:21869  .debug_str:00000000000018cd .LASF3529
C:\Users\CYMR90~1\AppData\Local\Temp\ccxApcqi.s:26853  .debug_str:0000000000015813 .LASF3530
C:\Users\CYMR90~1\AppData\Local\Temp\ccxApcqi.s:25307  .debug_str:000000000000f561 .LASF3531
C:\Users\CYMR90~1\AppData\Local\Temp\ccxApcqi.s:23845  .debug_str:00000000000096cf .LASF3532
C:\Users\CYMR90~1\AppData\Local\Temp\ccxApcqi.s:28924  .debug_str:000000000001e043 .LASF3533
C:\Users\CYMR90~1\AppData\Local\Temp\ccxApcqi.s:21963  .debug_str:0000000000001e49 .LASF3534
C:\Users\CYMR90~1\AppData\Local\Temp\ccxApcqi.s:29228  .debug_str:000000000001f267 .LASF3535
C:\Users\CYMR90~1\AppData\Local\Temp\ccxApcqi.s:23821  .debug_str:000000000000956d .LASF3536
C:\Users\CYMR90~1\AppData\Local\Temp\ccxApcqi.s:27426  .debug_str:0000000000017e62 .LASF3537
C:\Users\CYMR90~1\AppData\Local\Temp\ccxApcqi.s:30992  .debug_str:0000000000026153 .LASF3538
C:\Users\CYMR90~1\AppData\Local\Temp\ccxApcqi.s:24945  .debug_str:000000000000df47 .LASF3539
C:\Users\CYMR90~1\AppData\Local\Temp\ccxApcqi.s:28984  .debug_str:000000000001e3eb .LASF3540
C:\Users\CYMR90~1\AppData\Local\Temp\ccxApcqi.s:32474  .debug_str:000000000002c07b .LASF3541
C:\Users\CYMR90~1\AppData\Local\Temp\ccxApcqi.s:25255  .debug_str:000000000000f276 .LASF3542
C:\Users\CYMR90~1\AppData\Local\Temp\ccxApcqi.s:29270  .debug_str:000000000001f4ca .LASF3543
C:\Users\CYMR90~1\AppData\Local\Temp\ccxApcqi.s:22645  .debug_str:0000000000004a5d .LASF3544
C:\Users\CYMR90~1\AppData\Local\Temp\ccxApcqi.s:29166  .debug_str:000000000001eeab .LASF3545
C:\Users\CYMR90~1\AppData\Local\Temp\ccxApcqi.s:24955  .debug_str:000000000000dfe7 .LASF3546
C:\Users\CYMR90~1\AppData\Local\Temp\ccxApcqi.s:32234  .debug_str:000000000002b082 .LASF3547
C:\Users\CYMR90~1\AppData\Local\Temp\ccxApcqi.s:29824  .debug_str:00000000000216b5 .LASF3548
C:\Users\CYMR90~1\AppData\Local\Temp\ccxApcqi.s:27196  .debug_str:000000000001705f .LASF3549
C:\Users\CYMR90~1\AppData\Local\Temp\ccxApcqi.s:28722  .debug_str:000000000001d3b8 .LASF3550
C:\Users\CYMR90~1\AppData\Local\Temp\ccxApcqi.s:27244  .debug_str:000000000001731c .LASF3551
C:\Users\CYMR90~1\AppData\Local\Temp\ccxApcqi.s:30724  .debug_str:0000000000024f55 .LASF3552
C:\Users\CYMR90~1\AppData\Local\Temp\ccxApcqi.s:28874  .debug_str:000000000001dd3a .LASF3553
C:\Users\CYMR90~1\AppData\Local\Temp\ccxApcqi.s:29796  .debug_str:0000000000021533 .LASF3554
C:\Users\CYMR90~1\AppData\Local\Temp\ccxApcqi.s:25511  .debug_str:00000000000102a0 .LASF3555
C:\Users\CYMR90~1\AppData\Local\Temp\ccxApcqi.s:26643  .debug_str:0000000000014b5a .LASF3556
C:\Users\CYMR90~1\AppData\Local\Temp\ccxApcqi.s:32598  .debug_str:000000000002c8dc .LASF3557
C:\Users\CYMR90~1\AppData\Local\Temp\ccxApcqi.s:29732  .debug_str:000000000002113b .LASF3558
C:\Users\CYMR90~1\AppData\Local\Temp\ccxApcqi.s:27478  .debug_str:000000000001816f .LASF3559
C:\Users\CYMR90~1\AppData\Local\Temp\ccxApcqi.s:23849  .debug_str:0000000000009701 .LASF3560
C:\Users\CYMR90~1\AppData\Local\Temp\ccxApcqi.s:30990  .debug_str:0000000000026136 .LASF3561
C:\Users\CYMR90~1\AppData\Local\Temp\ccxApcqi.s:32052  .debug_str:000000000002a58a .LASF3562
C:\Users\CYMR90~1\AppData\Local\Temp\ccxApcqi.s:24383  .debug_str:000000000000ba28 .LASF3563
C:\Users\CYMR90~1\AppData\Local\Temp\ccxApcqi.s:31464  .debug_str:00000000000280bd .LASF3564
C:\Users\CYMR90~1\AppData\Local\Temp\ccxApcqi.s:28376  .debug_str:000000000001bcbb .LASF3565
C:\Users\CYMR90~1\AppData\Local\Temp\ccxApcqi.s:31922  .debug_str:0000000000029d96 .LASF3566
C:\Users\CYMR90~1\AppData\Local\Temp\ccxApcqi.s:22037  .debug_str:000000000000225f .LASF3567
C:\Users\CYMR90~1\AppData\Local\Temp\ccxApcqi.s:31046  .debug_str:00000000000264d3 .LASF3568
C:\Users\CYMR90~1\AppData\Local\Temp\ccxApcqi.s:27818  .debug_str:0000000000019860 .LASF3569
C:\Users\CYMR90~1\AppData\Local\Temp\ccxApcqi.s:27742  .debug_str:000000000001930a .LASF3570
C:\Users\CYMR90~1\AppData\Local\Temp\ccxApcqi.s:28160  .debug_str:000000000001af56 .LASF3571
C:\Users\CYMR90~1\AppData\Local\Temp\ccxApcqi.s:22045  .debug_str:00000000000022c9 .LASF3572
C:\Users\CYMR90~1\AppData\Local\Temp\ccxApcqi.s:31386  .debug_str:0000000000027aef .LASF3573
C:\Users\CYMR90~1\AppData\Local\Temp\ccxApcqi.s:28810  .debug_str:000000000001d956 .LASF3574
C:\Users\CYMR90~1\AppData\Local\Temp\ccxApcqi.s:22655  .debug_str:0000000000004afb .LASF3575
C:\Users\CYMR90~1\AppData\Local\Temp\ccxApcqi.s:30044  .debug_str:00000000000223f7 .LASF3576
C:\Users\CYMR90~1\AppData\Local\Temp\ccxApcqi.s:27408  .debug_str:0000000000017d6e .LASF3577
C:\Users\CYMR90~1\AppData\Local\Temp\ccxApcqi.s:32430  .debug_str:000000000002bdb5 .LASF3578
C:\Users\CYMR90~1\AppData\Local\Temp\ccxApcqi.s:32176  .debug_str:000000000002ace9 .LASF3579
C:\Users\CYMR90~1\AppData\Local\Temp\ccxApcqi.s:21589  .debug_str:000000000000070d .LASF3580
C:\Users\CYMR90~1\AppData\Local\Temp\ccxApcqi.s:25173  .debug_str:000000000000ed39 .LASF3581
C:\Users\CYMR90~1\AppData\Local\Temp\ccxApcqi.s:26551  .debug_str:00000000000145f9 .LASF3582
C:\Users\CYMR90~1\AppData\Local\Temp\ccxApcqi.s:30356  .debug_str:00000000000236be .LASF3583
C:\Users\CYMR90~1\AppData\Local\Temp\ccxApcqi.s:27996  .debug_str:000000000001a438 .LASF3584
C:\Users\CYMR90~1\AppData\Local\Temp\ccxApcqi.s:27140  .debug_str:0000000000016d43 .LASF3585
C:\Users\CYMR90~1\AppData\Local\Temp\ccxApcqi.s:27588  .debug_str:0000000000018820 .LASF3586
C:\Users\CYMR90~1\AppData\Local\Temp\ccxApcqi.s:31994  .debug_str:000000000002a1d5 .LASF3587
C:\Users\CYMR90~1\AppData\Local\Temp\ccxApcqi.s:24729  .debug_str:000000000000d19b .LASF3588
C:\Users\CYMR90~1\AppData\Local\Temp\ccxApcqi.s:27194  .debug_str:0000000000017042 .LASF3589
C:\Users\CYMR90~1\AppData\Local\Temp\ccxApcqi.s:26529  .debug_str:000000000001444f .LASF3590
C:\Users\CYMR90~1\AppData\Local\Temp\ccxApcqi.s:26619  .debug_str:00000000000149e4 .LASF3591
C:\Users\CYMR90~1\AppData\Local\Temp\ccxApcqi.s:28952  .debug_str:000000000001e1f0 .LASF3592
C:\Users\CYMR90~1\AppData\Local\Temp\ccxApcqi.s:31792  .debug_str:0000000000029648 .LASF3593
C:\Users\CYMR90~1\AppData\Local\Temp\ccxApcqi.s:22181  .debug_str:0000000000002b6c .LASF3594
C:\Users\CYMR90~1\AppData\Local\Temp\ccxApcqi.s:29148  .debug_str:000000000001ed53 .LASF3595
C:\Users\CYMR90~1\AppData\Local\Temp\ccxApcqi.s:23971  .debug_str:0000000000009eeb .LASF3596
C:\Users\CYMR90~1\AppData\Local\Temp\ccxApcqi.s:22297  .debug_str:00000000000032d6 .LASF3597
C:\Users\CYMR90~1\AppData\Local\Temp\ccxApcqi.s:24207  .debug_str:000000000000ae9b .LASF3598
C:\Users\CYMR90~1\AppData\Local\Temp\ccxApcqi.s:23161  .debug_str:00000000000069c8 .LASF3599
C:\Users\CYMR90~1\AppData\Local\Temp\ccxApcqi.s:30666  .debug_str:0000000000024b4b .LASF3600
C:\Users\CYMR90~1\AppData\Local\Temp\ccxApcqi.s:28060  .debug_str:000000000001a89f .LASF3601
C:\Users\CYMR90~1\AppData\Local\Temp\ccxApcqi.s:27922  .debug_str:0000000000019e88 .LASF3602
C:\Users\CYMR90~1\AppData\Local\Temp\ccxApcqi.s:23119  .debug_str:000000000000673c .LASF3603
C:\Users\CYMR90~1\AppData\Local\Temp\ccxApcqi.s:25049  .debug_str:000000000000e5dd .LASF3604
C:\Users\CYMR90~1\AppData\Local\Temp\ccxApcqi.s:24891  .debug_str:000000000000dba4 .LASF3605
C:\Users\CYMR90~1\AppData\Local\Temp\ccxApcqi.s:23545  .debug_str:0000000000008444 .LASF3606
C:\Users\CYMR90~1\AppData\Local\Temp\ccxApcqi.s:23735  .debug_str:0000000000008ff7 .LASF3607
C:\Users\CYMR90~1\AppData\Local\Temp\ccxApcqi.s:24307  .debug_str:000000000000b525 .LASF3608
C:\Users\CYMR90~1\AppData\Local\Temp\ccxApcqi.s:22321  .debug_str:000000000000345b .LASF3609
C:\Users\CYMR90~1\AppData\Local\Temp\ccxApcqi.s:23665  .debug_str:0000000000008bb8 .LASF3610
C:\Users\CYMR90~1\AppData\Local\Temp\ccxApcqi.s:21515  .debug_str:00000000000002bc .LASF3611
C:\Users\CYMR90~1\AppData\Local\Temp\ccxApcqi.s:27190  .debug_str:0000000000017014 .LASF3612
C:\Users\CYMR90~1\AppData\Local\Temp\ccxApcqi.s:24457  .debug_str:000000000000bf8e .LASF3613
C:\Users\CYMR90~1\AppData\Local\Temp\ccxApcqi.s:30296  .debug_str:00000000000232df .LASF3614
C:\Users\CYMR90~1\AppData\Local\Temp\ccxApcqi.s:32350  .debug_str:000000000002b826 .LASF3615
C:\Users\CYMR90~1\AppData\Local\Temp\ccxApcqi.s:26003  .debug_str:0000000000012301 .LASF3616
C:\Users\CYMR90~1\AppData\Local\Temp\ccxApcqi.s:25857  .debug_str:0000000000011977 .LASF3617
C:\Users\CYMR90~1\AppData\Local\Temp\ccxApcqi.s:28174  .debug_str:000000000001b068 .LASF3618
C:\Users\CYMR90~1\AppData\Local\Temp\ccxApcqi.s:30308  .debug_str:00000000000233cf .LASF3619
C:\Users\CYMR90~1\AppData\Local\Temp\ccxApcqi.s:31726  .debug_str:00000000000291e5 .LASF3620
C:\Users\CYMR90~1\AppData\Local\Temp\ccxApcqi.s:27834  .debug_str:0000000000019950 .LASF3621
C:\Users\CYMR90~1\AppData\Local\Temp\ccxApcqi.s:29132  .debug_str:000000000001ec47 .LASF3622
C:\Users\CYMR90~1\AppData\Local\Temp\ccxApcqi.s:30230  .debug_str:0000000000022ecb .LASF3623
C:\Users\CYMR90~1\AppData\Local\Temp\ccxApcqi.s:31076  .debug_str:00000000000266ad .LASF3624
C:\Users\CYMR90~1\AppData\Local\Temp\ccxApcqi.s:21689  .debug_str:0000000000000d47 .LASF3625
C:\Users\CYMR90~1\AppData\Local\Temp\ccxApcqi.s:25119  .debug_str:000000000000ea61 .LASF3626
C:\Users\CYMR90~1\AppData\Local\Temp\ccxApcqi.s:32426  .debug_str:000000000002bd84 .LASF3627
C:\Users\CYMR90~1\AppData\Local\Temp\ccxApcqi.s:31212  .debug_str:0000000000026eda .LASF3628
C:\Users\CYMR90~1\AppData\Local\Temp\ccxApcqi.s:22167  .debug_str:0000000000002a68 .LASF3629
C:\Users\CYMR90~1\AppData\Local\Temp\ccxApcqi.s:21841  .debug_str:0000000000001658 .LASF3630
C:\Users\CYMR90~1\AppData\Local\Temp\ccxApcqi.s:23277  .debug_str:00000000000071bc .LASF3631
C:\Users\CYMR90~1\AppData\Local\Temp\ccxApcqi.s:24655  .debug_str:000000000000cc85 .LASF3632
C:\Users\CYMR90~1\AppData\Local\Temp\ccxApcqi.s:23023  .debug_str:0000000000006168 .LASF3633
C:\Users\CYMR90~1\AppData\Local\Temp\ccxApcqi.s:29682  .debug_str:0000000000020dcb .LASF3634
C:\Users\CYMR90~1\AppData\Local\Temp\ccxApcqi.s:29950  .debug_str:0000000000021e79 .LASF3635
C:\Users\CYMR90~1\AppData\Local\Temp\ccxApcqi.s:23827  .debug_str:00000000000095c4 .LASF3636
C:\Users\CYMR90~1\AppData\Local\Temp\ccxApcqi.s:30352  .debug_str:0000000000023690 .LASF3637
C:\Users\CYMR90~1\AppData\Local\Temp\ccxApcqi.s:32546  .debug_str:000000000002c54b .LASF3638
C:\Users\CYMR90~1\AppData\Local\Temp\ccxApcqi.s:25445  .debug_str:000000000000fe9c .LASF3639
C:\Users\CYMR90~1\AppData\Local\Temp\ccxApcqi.s:24943  .debug_str:000000000000df2e .LASF3640
C:\Users\CYMR90~1\AppData\Local\Temp\ccxApcqi.s:29074  .debug_str:000000000001e957 .LASF3641
C:\Users\CYMR90~1\AppData\Local\Temp\ccxApcqi.s:22609  .debug_str:0000000000004796 .LASF3642
C:\Users\CYMR90~1\AppData\Local\Temp\ccxApcqi.s:21913  .debug_str:0000000000001b5b .LASF3643
C:\Users\CYMR90~1\AppData\Local\Temp\ccxApcqi.s:23909  .debug_str:0000000000009b2a .LASF3644
C:\Users\CYMR90~1\AppData\Local\Temp\ccxApcqi.s:30206  .debug_str:0000000000022db8 .LASF3645
C:\Users\CYMR90~1\AppData\Local\Temp\ccxApcqi.s:25889  .debug_str:0000000000011b74 .LASF3646
C:\Users\CYMR90~1\AppData\Local\Temp\ccxApcqi.s:26429  .debug_str:0000000000013e34 .LASF3647
C:\Users\CYMR90~1\AppData\Local\Temp\ccxApcqi.s:23793  .debug_str:0000000000009365 .LASF3648
C:\Users\CYMR90~1\AppData\Local\Temp\ccxApcqi.s:32026  .debug_str:000000000002a3f2 .LASF3649
C:\Users\CYMR90~1\AppData\Local\Temp\ccxApcqi.s:27664  .debug_str:0000000000018d63 .LASF3650
C:\Users\CYMR90~1\AppData\Local\Temp\ccxApcqi.s:31582  .debug_str:00000000000288a8 .LASF3651
C:\Users\CYMR90~1\AppData\Local\Temp\ccxApcqi.s:27346  .debug_str:00000000000179ae .LASF3652
C:\Users\CYMR90~1\AppData\Local\Temp\ccxApcqi.s:31504  .debug_str:000000000002835d .LASF3653
C:\Users\CYMR90~1\AppData\Local\Temp\ccxApcqi.s:24953  .debug_str:000000000000dfc8 .LASF3654
C:\Users\CYMR90~1\AppData\Local\Temp\ccxApcqi.s:23461  .debug_str:0000000000007e19 .LASF3655
C:\Users\CYMR90~1\AppData\Local\Temp\ccxApcqi.s:32482  .debug_str:000000000002c12d .LASF3656
C:\Users\CYMR90~1\AppData\Local\Temp\ccxApcqi.s:26741  .debug_str:00000000000151c0 .LASF3657
C:\Users\CYMR90~1\AppData\Local\Temp\ccxApcqi.s:28454  .debug_str:000000000001c189 .LASF3658
C:\Users\CYMR90~1\AppData\Local\Temp\ccxApcqi.s:27896  .debug_str:0000000000019ce6 .LASF3659
C:\Users\CYMR90~1\AppData\Local\Temp\ccxApcqi.s:30492  .debug_str:0000000000023f93 .LASF3660
C:\Users\CYMR90~1\AppData\Local\Temp\ccxApcqi.s:29734  .debug_str:0000000000021152 .LASF3661
C:\Users\CYMR90~1\AppData\Local\Temp\ccxApcqi.s:24337  .debug_str:000000000000b726 .LASF3662
C:\Users\CYMR90~1\AppData\Local\Temp\ccxApcqi.s:27944  .debug_str:0000000000019fb9 .LASF3663
C:\Users\CYMR90~1\AppData\Local\Temp\ccxApcqi.s:21485  .debug_str:00000000000000dc .LASF3664
C:\Users\CYMR90~1\AppData\Local\Temp\ccxApcqi.s:25851  .debug_str:0000000000011882 .LASF3665
C:\Users\CYMR90~1\AppData\Local\Temp\ccxApcqi.s:29774  .debug_str:00000000000213b9 .LASF3666
C:\Users\CYMR90~1\AppData\Local\Temp\ccxApcqi.s:30040  .debug_str:00000000000223b6 .LASF3667
C:\Users\CYMR90~1\AppData\Local\Temp\ccxApcqi.s:26927  .debug_str:0000000000015d1c .LASF3668
C:\Users\CYMR90~1\AppData\Local\Temp\ccxApcqi.s:31854  .debug_str:00000000000299bc .LASF3669
C:\Users\CYMR90~1\AppData\Local\Temp\ccxApcqi.s:24559  .debug_str:000000000000c5a9 .LASF3670
C:\Users\CYMR90~1\AppData\Local\Temp\ccxApcqi.s:32662  .debug_str:000000000002cce8 .LASF3671
C:\Users\CYMR90~1\AppData\Local\Temp\ccxApcqi.s:30330  .debug_str:0000000000023536 .LASF3672
C:\Users\CYMR90~1\AppData\Local\Temp\ccxApcqi.s:30758  .debug_str:0000000000025216 .LASF3673
C:\Users\CYMR90~1\AppData\Local\Temp\ccxApcqi.s:25891  .debug_str:0000000000011b89 .LASF3674
C:\Users\CYMR90~1\AppData\Local\Temp\ccxApcqi.s:26251  .debug_str:00000000000133a0 .LASF3675
C:\Users\CYMR90~1\AppData\Local\Temp\ccxApcqi.s:21937  .debug_str:0000000000001cab .LASF3676
C:\Users\CYMR90~1\AppData\Local\Temp\ccxApcqi.s:23247  .debug_str:0000000000006f56 .LASF3677
C:\Users\CYMR90~1\AppData\Local\Temp\ccxApcqi.s:32306  .debug_str:000000000002b52a .LASF3678
C:\Users\CYMR90~1\AppData\Local\Temp\ccxApcqi.s:26957  .debug_str:0000000000015f55 .LASF3679
C:\Users\CYMR90~1\AppData\Local\Temp\ccxApcqi.s:27752  .debug_str:00000000000193ab .LASF3680
C:\Users\CYMR90~1\AppData\Local\Temp\ccxApcqi.s:24455  .debug_str:000000000000bf69 .LASF3681
C:\Users\CYMR90~1\AppData\Local\Temp\ccxApcqi.s:26097  .debug_str:0000000000012922 .LASF3682
C:\Users\CYMR90~1\AppData\Local\Temp\ccxApcqi.s:21709  .debug_str:0000000000000eef .LASF3683
C:\Users\CYMR90~1\AppData\Local\Temp\ccxApcqi.s:28024  .debug_str:000000000001a60d .LASF3684
C:\Users\CYMR90~1\AppData\Local\Temp\ccxApcqi.s:22525  .debug_str:00000000000041fd .LASF3685
C:\Users\CYMR90~1\AppData\Local\Temp\ccxApcqi.s:28262  .debug_str:000000000001b5d2 .LASF3686
C:\Users\CYMR90~1\AppData\Local\Temp\ccxApcqi.s:22795  .debug_str:000000000000535f .LASF3687
C:\Users\CYMR90~1\AppData\Local\Temp\ccxApcqi.s:23893  .debug_str:0000000000009a15 .LASF3688
C:\Users\CYMR90~1\AppData\Local\Temp\ccxApcqi.s:23067  .debug_str:0000000000006402 .LASF3689
C:\Users\CYMR90~1\AppData\Local\Temp\ccxApcqi.s:28772  .debug_str:000000000001d6e2 .LASF3690
C:\Users\CYMR90~1\AppData\Local\Temp\ccxApcqi.s:31236  .debug_str:0000000000027133 .LASF3691
C:\Users\CYMR90~1\AppData\Local\Temp\ccxApcqi.s:29972  .debug_str:0000000000021fd2 .LASF3692
C:\Users\CYMR90~1\AppData\Local\Temp\ccxApcqi.s:23101  .debug_str:00000000000065f2 .LASF3693
C:\Users\CYMR90~1\AppData\Local\Temp\ccxApcqi.s:31864  .debug_str:0000000000029a69 .LASF3694
C:\Users\CYMR90~1\AppData\Local\Temp\ccxApcqi.s:29224  .debug_str:000000000001f22d .LASF3695
C:\Users\CYMR90~1\AppData\Local\Temp\ccxApcqi.s:25145  .debug_str:000000000000ebcc .LASF3696
C:\Users\CYMR90~1\AppData\Local\Temp\ccxApcqi.s:24161  .debug_str:000000000000aae5 .LASF3697
C:\Users\CYMR90~1\AppData\Local\Temp\ccxApcqi.s:21573  .debug_str:00000000000005ee .LASF3698
C:\Users\CYMR90~1\AppData\Local\Temp\ccxApcqi.s:25391  .debug_str:000000000000fb0f .LASF3699
C:\Users\CYMR90~1\AppData\Local\Temp\ccxApcqi.s:24343  .debug_str:000000000000b77c .LASF3700
C:\Users\CYMR90~1\AppData\Local\Temp\ccxApcqi.s:25099  .debug_str:000000000000e91f .LASF3701
C:\Users\CYMR90~1\AppData\Local\Temp\ccxApcqi.s:23283  .debug_str:0000000000007225 .LASF3702
C:\Users\CYMR90~1\AppData\Local\Temp\ccxApcqi.s:31302  .debug_str:00000000000274ea .LASF3703
C:\Users\CYMR90~1\AppData\Local\Temp\ccxApcqi.s:28694  .debug_str:000000000001d1df .LASF3704
C:\Users\CYMR90~1\AppData\Local\Temp\ccxApcqi.s:26193  .debug_str:0000000000012f69 .LASF3705
C:\Users\CYMR90~1\AppData\Local\Temp\ccxApcqi.s:28276  .debug_str:000000000001b6cd .LASF3706
C:\Users\CYMR90~1\AppData\Local\Temp\ccxApcqi.s:32268  .debug_str:000000000002b2d6 .LASF3707
C:\Users\CYMR90~1\AppData\Local\Temp\ccxApcqi.s:25531  .debug_str:00000000000103ca .LASF3708
C:\Users\CYMR90~1\AppData\Local\Temp\ccxApcqi.s:31532  .debug_str:000000000002857f .LASF3709
C:\Users\CYMR90~1\AppData\Local\Temp\ccxApcqi.s:24539  .debug_str:000000000000c488 .LASF3710
C:\Users\CYMR90~1\AppData\Local\Temp\ccxApcqi.s:22021  .debug_str:000000000000214c .LASF3711
C:\Users\CYMR90~1\AppData\Local\Temp\ccxApcqi.s:25507  .debug_str:0000000000010262 .LASF3712
C:\Users\CYMR90~1\AppData\Local\Temp\ccxApcqi.s:25427  .debug_str:000000000000fd6c .LASF3713
C:\Users\CYMR90~1\AppData\Local\Temp\ccxApcqi.s:25641  .debug_str:0000000000010abd .LASF3714
C:\Users\CYMR90~1\AppData\Local\Temp\ccxApcqi.s:29952  .debug_str:0000000000021e91 .LASF3715
C:\Users\CYMR90~1\AppData\Local\Temp\ccxApcqi.s:26311  .debug_str:000000000001373d .LASF3716
C:\Users\CYMR90~1\AppData\Local\Temp\ccxApcqi.s:23451  .debug_str:0000000000007d84 .LASF3717
C:\Users\CYMR90~1\AppData\Local\Temp\ccxApcqi.s:30182  .debug_str:0000000000022c3a .LASF3718
C:\Users\CYMR90~1\AppData\Local\Temp\ccxApcqi.s:32308  .debug_str:000000000002b54e .LASF3719
C:\Users\CYMR90~1\AppData\Local\Temp\ccxApcqi.s:31838  .debug_str:00000000000298c6 .LASF3720
C:\Users\CYMR90~1\AppData\Local\Temp\ccxApcqi.s:28364  .debug_str:000000000001bbdc .LASF3721
C:\Users\CYMR90~1\AppData\Local\Temp\ccxApcqi.s:23251  .debug_str:0000000000006f98 .LASF3722
C:\Users\CYMR90~1\AppData\Local\Temp\ccxApcqi.s:22841  .debug_str:0000000000005646 .LASF3723
C:\Users\CYMR90~1\AppData\Local\Temp\ccxApcqi.s:23335  .debug_str:0000000000007554 .LASF3724
C:\Users\CYMR90~1\AppData\Local\Temp\ccxApcqi.s:22313  .debug_str:00000000000033e0 .LASF3725
C:\Users\CYMR90~1\AppData\Local\Temp\ccxApcqi.s:30572  .debug_str:00000000000244d1 .LASF3726
C:\Users\CYMR90~1\AppData\Local\Temp\ccxApcqi.s:25455  .debug_str:000000000000ff16 .LASF3727
C:\Users\CYMR90~1\AppData\Local\Temp\ccxApcqi.s:23639  .debug_str:0000000000008a2e .LASF3728
C:\Users\CYMR90~1\AppData\Local\Temp\ccxApcqi.s:23745  .debug_str:00000000000090aa .LASF3729
C:\Users\CYMR90~1\AppData\Local\Temp\ccxApcqi.s:29844  .debug_str:00000000000217c3 .LASF3730
C:\Users\CYMR90~1\AppData\Local\Temp\ccxApcqi.s:31774  .debug_str:000000000002950a .LASF3731
C:\Users\CYMR90~1\AppData\Local\Temp\ccxApcqi.s:30094  .debug_str:00000000000226d4 .LASF3732
C:\Users\CYMR90~1\AppData\Local\Temp\ccxApcqi.s:31668  .debug_str:0000000000028dcc .LASF3733
C:\Users\CYMR90~1\AppData\Local\Temp\ccxApcqi.s:21603  .debug_str:00000000000007e0 .LASF3734
C:\Users\CYMR90~1\AppData\Local\Temp\ccxApcqi.s:29920  .debug_str:0000000000021cbf .LASF3735
C:\Users\CYMR90~1\AppData\Local\Temp\ccxApcqi.s:27142  .debug_str:0000000000016d5b .LASF3736
C:\Users\CYMR90~1\AppData\Local\Temp\ccxApcqi.s:24169  .debug_str:000000000000ab59 .LASF3737
C:\Users\CYMR90~1\AppData\Local\Temp\ccxApcqi.s:24713  .debug_str:000000000000d081 .LASF3738
C:\Users\CYMR90~1\AppData\Local\Temp\ccxApcqi.s:23235  .debug_str:0000000000006e94 .LASF3739
C:\Users\CYMR90~1\AppData\Local\Temp\ccxApcqi.s:26761  .debug_str:00000000000152c4 .LASF3740
C:\Users\CYMR90~1\AppData\Local\Temp\ccxApcqi.s:24585  .debug_str:000000000000c7f3 .LASF3741
C:\Users\CYMR90~1\AppData\Local\Temp\ccxApcqi.s:30202  .debug_str:0000000000022d79 .LASF3742
C:\Users\CYMR90~1\AppData\Local\Temp\ccxApcqi.s:28172  .debug_str:000000000001b025 .LASF3743
C:\Users\CYMR90~1\AppData\Local\Temp\ccxApcqi.s:30136  .debug_str:00000000000229b5 .LASF3744
C:\Users\CYMR90~1\AppData\Local\Temp\ccxApcqi.s:27288  .debug_str:00000000000175f2 .LASF3745
C:\Users\CYMR90~1\AppData\Local\Temp\ccxApcqi.s:25015  .debug_str:000000000000e38d .LASF3746
C:\Users\CYMR90~1\AppData\Local\Temp\ccxApcqi.s:29196  .debug_str:000000000001f049 .LASF3747
C:\Users\CYMR90~1\AppData\Local\Temp\ccxApcqi.s:24223  .debug_str:000000000000af90 .LASF3748
C:\Users\CYMR90~1\AppData\Local\Temp\ccxApcqi.s:26475  .debug_str:0000000000014150 .LASF3749
C:\Users\CYMR90~1\AppData\Local\Temp\ccxApcqi.s:27424  .debug_str:0000000000017e40 .LASF3750
C:\Users\CYMR90~1\AppData\Local\Temp\ccxApcqi.s:31128  .debug_str:00000000000269cf .LASF3751
C:\Users\CYMR90~1\AppData\Local\Temp\ccxApcqi.s:24017  .debug_str:000000000000a1bb .LASF3752
C:\Users\CYMR90~1\AppData\Local\Temp\ccxApcqi.s:22765  .debug_str:0000000000005196 .LASF3753
C:\Users\CYMR90~1\AppData\Local\Temp\ccxApcqi.s:27722  .debug_str:00000000000191b4 .LASF3754
C:\Users\CYMR90~1\AppData\Local\Temp\ccxApcqi.s:24267  .debug_str:000000000000b20a .LASF3755
C:\Users\CYMR90~1\AppData\Local\Temp\ccxApcqi.s:24985  .debug_str:000000000000e1d0 .LASF3756
C:\Users\CYMR90~1\AppData\Local\Temp\ccxApcqi.s:32406  .debug_str:000000000002bbf5 .LASF3757
C:\Users\CYMR90~1\AppData\Local\Temp\ccxApcqi.s:32254  .debug_str:000000000002b1e2 .LASF3758
C:\Users\CYMR90~1\AppData\Local\Temp\ccxApcqi.s:24849  .debug_str:000000000000d93f .LASF3759
C:\Users\CYMR90~1\AppData\Local\Temp\ccxApcqi.s:22849  .debug_str:00000000000056b5 .LASF3760
C:\Users\CYMR90~1\AppData\Local\Temp\ccxApcqi.s:31892  .debug_str:0000000000029c00 .LASF3761
C:\Users\CYMR90~1\AppData\Local\Temp\ccxApcqi.s:29642  .debug_str:0000000000020b9e .LASF3762
C:\Users\CYMR90~1\AppData\Local\Temp\ccxApcqi.s:29562  .debug_str:00000000000206ba .LASF3763
C:\Users\CYMR90~1\AppData\Local\Temp\ccxApcqi.s:25207  .debug_str:000000000000ef28 .LASF3764
C:\Users\CYMR90~1\AppData\Local\Temp\ccxApcqi.s:22949  .debug_str:0000000000005cc8 .LASF3765
C:\Users\CYMR90~1\AppData\Local\Temp\ccxApcqi.s:26357  .debug_str:00000000000139f3 .LASF3766
C:\Users\CYMR90~1\AppData\Local\Temp\ccxApcqi.s:29836  .debug_str:0000000000021749 .LASF3767
C:\Users\CYMR90~1\AppData\Local\Temp\ccxApcqi.s:30938  .debug_str:0000000000025e19 .LASF3768
C:\Users\CYMR90~1\AppData\Local\Temp\ccxApcqi.s:22679  .debug_str:0000000000004c74 .LASF3769
C:\Users\CYMR90~1\AppData\Local\Temp\ccxApcqi.s:30414  .debug_str:00000000000239fb .LASF3770
C:\Users\CYMR90~1\AppData\Local\Temp\ccxApcqi.s:29566  .debug_str:000000000002070a .LASF3771
C:\Users\CYMR90~1\AppData\Local\Temp\ccxApcqi.s:32050  .debug_str:000000000002a566 .LASF3772
C:\Users\CYMR90~1\AppData\Local\Temp\ccxApcqi.s:25121  .debug_str:000000000000ea79 .LASF3773
C:\Users\CYMR90~1\AppData\Local\Temp\ccxApcqi.s:22861  .debug_str:0000000000005757 .LASF3774
C:\Users\CYMR90~1\AppData\Local\Temp\ccxApcqi.s:24491  .debug_str:000000000000c190 .LASF3775
C:\Users\CYMR90~1\AppData\Local\Temp\ccxApcqi.s:29654  .debug_str:0000000000020c40 .LASF3776
C:\Users\CYMR90~1\AppData\Local\Temp\ccxApcqi.s:27528  .debug_str:0000000000018457 .LASF3777
C:\Users\CYMR90~1\AppData\Local\Temp\ccxApcqi.s:28610  .debug_str:000000000001cbd4 .LASF3778
C:\Users\CYMR90~1\AppData\Local\Temp\ccxApcqi.s:31642  .debug_str:0000000000028c41 .LASF3779
C:\Users\CYMR90~1\AppData\Local\Temp\ccxApcqi.s:29480  .debug_str:0000000000020156 .LASF3780
C:\Users\CYMR90~1\AppData\Local\Temp\ccxApcqi.s:32570  .debug_str:000000000002c709 .LASF3781
C:\Users\CYMR90~1\AppData\Local\Temp\ccxApcqi.s:22355  .debug_str:000000000000369f .LASF3782
C:\Users\CYMR90~1\AppData\Local\Temp\ccxApcqi.s:30740  .debug_str:00000000000250fc .LASF3783
C:\Users\CYMR90~1\AppData\Local\Temp\ccxApcqi.s:21727  .debug_str:0000000000000fd1 .LASF3784
C:\Users\CYMR90~1\AppData\Local\Temp\ccxApcqi.s:28776  .debug_str:000000000001d729 .LASF3785
C:\Users\CYMR90~1\AppData\Local\Temp\ccxApcqi.s:26229  .debug_str:0000000000013194 .LASF3786
C:\Users\CYMR90~1\AppData\Local\Temp\ccxApcqi.s:32656  .debug_str:000000000002cc9a .LASF3787
C:\Users\CYMR90~1\AppData\Local\Temp\ccxApcqi.s:22155  .debug_str:00000000000029b3 .LASF3788
C:\Users\CYMR90~1\AppData\Local\Temp\ccxApcqi.s:31186  .debug_str:0000000000026d6f .LASF3789
C:\Users\CYMR90~1\AppData\Local\Temp\ccxApcqi.s:26083  .debug_str:000000000001281e .LASF3790
C:\Users\CYMR90~1\AppData\Local\Temp\ccxApcqi.s:29472  .debug_str:000000000002009c .LASF3791
C:\Users\CYMR90~1\AppData\Local\Temp\ccxApcqi.s:29608  .debug_str:000000000002099e .LASF3792
C:\Users\CYMR90~1\AppData\Local\Temp\ccxApcqi.s:21687  .debug_str:0000000000000d25 .LASF3793
C:\Users\CYMR90~1\AppData\Local\Temp\ccxApcqi.s:28836  .debug_str:000000000001dac4 .LASF3794
C:\Users\CYMR90~1\AppData\Local\Temp\ccxApcqi.s:21785  .debug_str:0000000000001313 .LASF3795
C:\Users\CYMR90~1\AppData\Local\Temp\ccxApcqi.s:31434  .debug_str:0000000000027e3a .LASF3796
C:\Users\CYMR90~1\AppData\Local\Temp\ccxApcqi.s:30654  .debug_str:0000000000024a62 .LASF3797
C:\Users\CYMR90~1\AppData\Local\Temp\ccxApcqi.s:28972  .debug_str:000000000001e30c .LASF3798
C:\Users\CYMR90~1\AppData\Local\Temp\ccxApcqi.s:27894  .debug_str:0000000000019cb6 .LASF3799
C:\Users\CYMR90~1\AppData\Local\Temp\ccxApcqi.s:26651  .debug_str:0000000000014bfb .LASF3800
C:\Users\CYMR90~1\AppData\Local\Temp\ccxApcqi.s:25477  .debug_str:00000000000100a1 .LASF3801
C:\Users\CYMR90~1\AppData\Local\Temp\ccxApcqi.s:32296  .debug_str:000000000002b47f .LASF3802
C:\Users\CYMR90~1\AppData\Local\Temp\ccxApcqi.s:23221  .debug_str:0000000000006db4 .LASF3803
C:\Users\CYMR90~1\AppData\Local\Temp\ccxApcqi.s:21899  .debug_str:0000000000001a5d .LASF3804
C:\Users\CYMR90~1\AppData\Local\Temp\ccxApcqi.s:31422  .debug_str:0000000000027d16 .LASF3805
C:\Users\CYMR90~1\AppData\Local\Temp\ccxApcqi.s:31660  .debug_str:0000000000028d33 .LASF3806
C:\Users\CYMR90~1\AppData\Local\Temp\ccxApcqi.s:24671  .debug_str:000000000000cda0 .LASF3807
C:\Users\CYMR90~1\AppData\Local\Temp\ccxApcqi.s:32520  .debug_str:000000000002c3c4 .LASF3808
C:\Users\CYMR90~1\AppData\Local\Temp\ccxApcqi.s:24115  .debug_str:000000000000a7e6 .LASF3809
C:\Users\CYMR90~1\AppData\Local\Temp\ccxApcqi.s:30670  .debug_str:0000000000024b85 .LASF3810
C:\Users\CYMR90~1\AppData\Local\Temp\ccxApcqi.s:23975  .debug_str:0000000000009f18 .LASF3811
C:\Users\CYMR90~1\AppData\Local\Temp\ccxApcqi.s:29716  .debug_str:0000000000020fa2 .LASF3812
C:\Users\CYMR90~1\AppData\Local\Temp\ccxApcqi.s:26877  .debug_str:0000000000015982 .LASF3813
C:\Users\CYMR90~1\AppData\Local\Temp\ccxApcqi.s:27912  .debug_str:0000000000019dcf .LASF3814
C:\Users\CYMR90~1\AppData\Local\Temp\ccxApcqi.s:24769  .debug_str:000000000000d486 .LASF3815
C:\Users\CYMR90~1\AppData\Local\Temp\ccxApcqi.s:22901  .debug_str:00000000000059c1 .LASF3816
C:\Users\CYMR90~1\AppData\Local\Temp\ccxApcqi.s:31342  .debug_str:0000000000027789 .LASF3817
C:\Users\CYMR90~1\AppData\Local\Temp\ccxApcqi.s:25249  .debug_str:000000000000f208 .LASF3818
C:\Users\CYMR90~1\AppData\Local\Temp\ccxApcqi.s:24451  .debug_str:000000000000bf07 .LASF3819
C:\Users\CYMR90~1\AppData\Local\Temp\ccxApcqi.s:24277  .debug_str:000000000000b294 .LASF3820
C:\Users\CYMR90~1\AppData\Local\Temp\ccxApcqi.s:21633  .debug_str:00000000000009b0 .LASF3821
C:\Users\CYMR90~1\AppData\Local\Temp\ccxApcqi.s:25887  .debug_str:0000000000011b42 .LASF3822
C:\Users\CYMR90~1\AppData\Local\Temp\ccxApcqi.s:30132  .debug_str:0000000000022971 .LASF3823
C:\Users\CYMR90~1\AppData\Local\Temp\ccxApcqi.s:23049  .debug_str:00000000000062da .LASF3824
C:\Users\CYMR90~1\AppData\Local\Temp\ccxApcqi.s:24379  .debug_str:000000000000b9e2 .LASF3825
C:\Users\CYMR90~1\AppData\Local\Temp\ccxApcqi.s:25467  .debug_str:000000000000fff8 .LASF3826
C:\Users\CYMR90~1\AppData\Local\Temp\ccxApcqi.s:29692  .debug_str:0000000000020e38 .LASF3827
C:\Users\CYMR90~1\AppData\Local\Temp\ccxApcqi.s:22689  .debug_str:0000000000004d1e .LASF3828
C:\Users\CYMR90~1\AppData\Local\Temp\ccxApcqi.s:26859  .debug_str:000000000001585b .LASF3829
C:\Users\CYMR90~1\AppData\Local\Temp\ccxApcqi.s:31146  .debug_str:0000000000026ad8 .LASF3830
C:\Users\CYMR90~1\AppData\Local\Temp\ccxApcqi.s:24157  .debug_str:000000000000aa99 .LASF3831
C:\Users\CYMR90~1\AppData\Local\Temp\ccxApcqi.s:26451  .debug_str:0000000000013f6d .LASF3832
C:\Users\CYMR90~1\AppData\Local\Temp\ccxApcqi.s:28864  .debug_str:000000000001dc6b .LASF3833
C:\Users\CYMR90~1\AppData\Local\Temp\ccxApcqi.s:24651  .debug_str:000000000000cc37 .LASF3834
C:\Users\CYMR90~1\AppData\Local\Temp\ccxApcqi.s:29882  .debug_str:0000000000021a48 .LASF3835
C:\Users\CYMR90~1\AppData\Local\Temp\ccxApcqi.s:22897  .debug_str:0000000000005969 .LASF3836
C:\Users\CYMR90~1\AppData\Local\Temp\ccxApcqi.s:32252  .debug_str:000000000002b1b0 .LASF3837
C:\Users\CYMR90~1\AppData\Local\Temp\ccxApcqi.s:25243  .debug_str:000000000000f185 .LASF3838
C:\Users\CYMR90~1\AppData\Local\Temp\ccxApcqi.s:29382  .debug_str:000000000001fb88 .LASF3839
C:\Users\CYMR90~1\AppData\Local\Temp\ccxApcqi.s:22399  .debug_str:00000000000039a9 .LASF3840
C:\Users\CYMR90~1\AppData\Local\Temp\ccxApcqi.s:25319  .debug_str:000000000000f6c1 .LASF3841
C:\Users\CYMR90~1\AppData\Local\Temp\ccxApcqi.s:30450  .debug_str:0000000000023c4a .LASF3842
C:\Users\CYMR90~1\AppData\Local\Temp\ccxApcqi.s:23861  .debug_str:0000000000009803 .LASF3843
C:\Users\CYMR90~1\AppData\Local\Temp\ccxApcqi.s:28130  .debug_str:000000000001ad0f .LASF3844
C:\Users\CYMR90~1\AppData\Local\Temp\ccxApcqi.s:22495  .debug_str:0000000000003fa2 .LASF3845
C:\Users\CYMR90~1\AppData\Local\Temp\ccxApcqi.s:30490  .debug_str:0000000000023f61 .LASF3846
C:\Users\CYMR90~1\AppData\Local\Temp\ccxApcqi.s:23505  .debug_str:0000000000008192 .LASF3847
C:\Users\CYMR90~1\AppData\Local\Temp\ccxApcqi.s:25089  .debug_str:000000000000e84b .LASF3848
C:\Users\CYMR90~1\AppData\Local\Temp\ccxApcqi.s:31928  .debug_str:0000000000029dec .LASF3849
C:\Users\CYMR90~1\AppData\Local\Temp\ccxApcqi.s:23333  .debug_str:0000000000007522 .LASF3850
C:\Users\CYMR90~1\AppData\Local\Temp\ccxApcqi.s:29254  .debug_str:000000000001f3c4 .LASF3851
C:\Users\CYMR90~1\AppData\Local\Temp\ccxApcqi.s:22115  .debug_str:0000000000002722 .LASF3852
C:\Users\CYMR90~1\AppData\Local\Temp\ccxApcqi.s:27458  .debug_str:000000000001803c .LASF3853
C:\Users\CYMR90~1\AppData\Local\Temp\ccxApcqi.s:30620  .debug_str:0000000000024832 .LASF3854
C:\Users\CYMR90~1\AppData\Local\Temp\ccxApcqi.s:23513  .debug_str:000000000000820f .LASF3855
C:\Users\CYMR90~1\AppData\Local\Temp\ccxApcqi.s:30894  .debug_str:0000000000025b38 .LASF3856
C:\Users\CYMR90~1\AppData\Local\Temp\ccxApcqi.s:26031  .debug_str:00000000000124c6 .LASF3857
C:\Users\CYMR90~1\AppData\Local\Temp\ccxApcqi.s:30188  .debug_str:0000000000022c95 .LASF3858
C:\Users\CYMR90~1\AppData\Local\Temp\ccxApcqi.s:23187  .debug_str:0000000000006b73 .LASF3859
C:\Users\CYMR90~1\AppData\Local\Temp\ccxApcqi.s:26073  .debug_str:000000000001275e .LASF3860
C:\Users\CYMR90~1\AppData\Local\Temp\ccxApcqi.s:29384  .debug_str:000000000001fbba .LASF3861
C:\Users\CYMR90~1\AppData\Local\Temp\ccxApcqi.s:25995  .debug_str:0000000000012281 .LASF3862
C:\Users\CYMR90~1\AppData\Local\Temp\ccxApcqi.s:30930  .debug_str:0000000000025da3 .LASF3863
C:\Users\CYMR90~1\AppData\Local\Temp\ccxApcqi.s:22385  .debug_str:0000000000003891 .LASF3864
C:\Users\CYMR90~1\AppData\Local\Temp\ccxApcqi.s:30868  .debug_str:00000000000259b0 .LASF3865
C:\Users\CYMR90~1\AppData\Local\Temp\ccxApcqi.s:25033  .debug_str:000000000000e4a2 .LASF3866
C:\Users\CYMR90~1\AppData\Local\Temp\ccxApcqi.s:30498  .debug_str:000000000002400a .LASF3867
C:\Users\CYMR90~1\AppData\Local\Temp\ccxApcqi.s:26873  .debug_str:0000000000015931 .LASF3868
C:\Users\CYMR90~1\AppData\Local\Temp\ccxApcqi.s:27300  .debug_str:00000000000176ac .LASF3869
C:\Users\CYMR90~1\AppData\Local\Temp\ccxApcqi.s:24335  .debug_str:000000000000b704 .LASF3870
C:\Users\CYMR90~1\AppData\Local\Temp\ccxApcqi.s:26659  .debug_str:0000000000014c84 .LASF3871
C:\Users\CYMR90~1\AppData\Local\Temp\ccxApcqi.s:29588  .debug_str:0000000000020848 .LASF3872
C:\Users\CYMR90~1\AppData\Local\Temp\ccxApcqi.s:26683  .debug_str:0000000000014e39 .LASF3873
C:\Users\CYMR90~1\AppData\Local\Temp\ccxApcqi.s:30962  .debug_str:0000000000025fa2 .LASF3874
C:\Users\CYMR90~1\AppData\Local\Temp\ccxApcqi.s:27746  .debug_str:0000000000019339 .LASF3875
C:\Users\CYMR90~1\AppData\Local\Temp\ccxApcqi.s:25743  .debug_str:000000000001110a .LASF3876
C:\Users\CYMR90~1\AppData\Local\Temp\ccxApcqi.s:23427  .debug_str:0000000000007b4c .LASF3877
C:\Users\CYMR90~1\AppData\Local\Temp\ccxApcqi.s:21797  .debug_str:00000000000013e0 .LASF3878
C:\Users\CYMR90~1\AppData\Local\Temp\ccxApcqi.s:25387  .debug_str:000000000000fac9 .LASF3879
C:\Users\CYMR90~1\AppData\Local\Temp\ccxApcqi.s:26305  .debug_str:00000000000136fc .LASF3880
C:\Users\CYMR90~1\AppData\Local\Temp\ccxApcqi.s:22819  .debug_str:00000000000054e1 .LASF3881
C:\Users\CYMR90~1\AppData\Local\Temp\ccxApcqi.s:27558  .debug_str:00000000000185fb .LASF3882
C:\Users\CYMR90~1\AppData\Local\Temp\ccxApcqi.s:24929  .debug_str:000000000000de5a .LASF3883
C:\Users\CYMR90~1\AppData\Local\Temp\ccxApcqi.s:23983  .debug_str:0000000000009fb2 .LASF3884
C:\Users\CYMR90~1\AppData\Local\Temp\ccxApcqi.s:25421  .debug_str:000000000000fcfe .LASF3885
C:\Users\CYMR90~1\AppData\Local\Temp\ccxApcqi.s:27266  .debug_str:000000000001748d .LASF3886
C:\Users\CYMR90~1\AppData\Local\Temp\ccxApcqi.s:26719  .debug_str:000000000001505c .LASF3887
C:\Users\CYMR90~1\AppData\Local\Temp\ccxApcqi.s:26111  .debug_str:0000000000012a2d .LASF3888
C:\Users\CYMR90~1\AppData\Local\Temp\ccxApcqi.s:28448  .debug_str:000000000001c13f .LASF3889
C:\Users\CYMR90~1\AppData\Local\Temp\ccxApcqi.s:25037  .debug_str:000000000000e521 .LASF3890
C:\Users\CYMR90~1\AppData\Local\Temp\ccxApcqi.s:21671  .debug_str:0000000000000c49 .LASF3891
C:\Users\CYMR90~1\AppData\Local\Temp\ccxApcqi.s:31666  .debug_str:0000000000028da8 .LASF3892
C:\Users\CYMR90~1\AppData\Local\Temp\ccxApcqi.s:26175  .debug_str:0000000000012e2e .LASF3893
C:\Users\CYMR90~1\AppData\Local\Temp\ccxApcqi.s:28788  .debug_str:000000000001d7e4 .LASF3894
C:\Users\CYMR90~1\AppData\Local\Temp\ccxApcqi.s:22057  .debug_str:0000000000002378 .LASF3895
C:\Users\CYMR90~1\AppData\Local\Temp\ccxApcqi.s:21965  .debug_str:0000000000001e63 .LASF3896
C:\Users\CYMR90~1\AppData\Local\Temp\ccxApcqi.s:30734  .debug_str:0000000000025095 .LASF3897
C:\Users\CYMR90~1\AppData\Local\Temp\ccxApcqi.s:30510  .debug_str:00000000000240ed .LASF3898
C:\Users\CYMR90~1\AppData\Local\Temp\ccxApcqi.s:27136  .debug_str:0000000000016d08 .LASF3899
C:\Users\CYMR90~1\AppData\Local\Temp\ccxApcqi.s:26457  .debug_str:0000000000013ffc .LASF3900
C:\Users\CYMR90~1\AppData\Local\Temp\ccxApcqi.s:31654  .debug_str:0000000000028cee .LASF3901
C:\Users\CYMR90~1\AppData\Local\Temp\ccxApcqi.s:28272  .debug_str:000000000001b66c .LASF3902
C:\Users\CYMR90~1\AppData\Local\Temp\ccxApcqi.s:22193  .debug_str:0000000000002c05 .LASF3903
C:\Users\CYMR90~1\AppData\Local\Temp\ccxApcqi.s:32032  .debug_str:000000000002a457 .LASF3904
C:\Users\CYMR90~1\AppData\Local\Temp\ccxApcqi.s:32340  .debug_str:000000000002b77d .LASF3905
C:\Users\CYMR90~1\AppData\Local\Temp\ccxApcqi.s:24141  .debug_str:000000000000a98b .LASF3906
C:\Users\CYMR90~1\AppData\Local\Temp\ccxApcqi.s:22687  .debug_str:0000000000004cfa .LASF3907
C:\Users\CYMR90~1\AppData\Local\Temp\ccxApcqi.s:27882  .debug_str:0000000000019c39 .LASF3908
C:\Users\CYMR90~1\AppData\Local\Temp\ccxApcqi.s:25871  .debug_str:0000000000011a3e .LASF3909
C:\Users\CYMR90~1\AppData\Local\Temp\ccxApcqi.s:22473  .debug_str:0000000000003e6c .LASF3910
C:\Users\CYMR90~1\AppData\Local\Temp\ccxApcqi.s:30374  .debug_str:00000000000237d5 .LASF3911
C:\Users\CYMR90~1\AppData\Local\Temp\ccxApcqi.s:26975  .debug_str:0000000000016068 .LASF3912
C:\Users\CYMR90~1\AppData\Local\Temp\ccxApcqi.s:25435  .debug_str:000000000000fe11 .LASF3913
C:\Users\CYMR90~1\AppData\Local\Temp\ccxApcqi.s:31512  .debug_str:00000000000283f1 .LASF3914
C:\Users\CYMR90~1\AppData\Local\Temp\ccxApcqi.s:29526  .debug_str:0000000000020498 .LASF3915
C:\Users\CYMR90~1\AppData\Local\Temp\ccxApcqi.s:23471  .debug_str:0000000000007ec9 .LASF3916
C:\Users\CYMR90~1\AppData\Local\Temp\ccxApcqi.s:31356  .debug_str:00000000000278b4 .LASF3917
C:\Users\CYMR90~1\AppData\Local\Temp\ccxApcqi.s:28002  .debug_str:000000000001a490 .LASF3918
C:\Users\CYMR90~1\AppData\Local\Temp\ccxApcqi.s:24621  .debug_str:000000000000caad .LASF3919
C:\Users\CYMR90~1\AppData\Local\Temp\ccxApcqi.s:32500  .debug_str:000000000002c29e .LASF3920
C:\Users\CYMR90~1\AppData\Local\Temp\ccxApcqi.s:22585  .debug_str:00000000000045f7 .LASF3921
C:\Users\CYMR90~1\AppData\Local\Temp\ccxApcqi.s:25747  .debug_str:0000000000011145 .LASF3922
C:\Users\CYMR90~1\AppData\Local\Temp\ccxApcqi.s:28628  .debug_str:000000000001cd8e .LASF3923
C:\Users\CYMR90~1\AppData\Local\Temp\ccxApcqi.s:30232  .debug_str:0000000000022eea .LASF3924
C:\Users\CYMR90~1\AppData\Local\Temp\ccxApcqi.s:31588  .debug_str:0000000000028902 .LASF3925
C:\Users\CYMR90~1\AppData\Local\Temp\ccxApcqi.s:22197  .debug_str:0000000000002c5e .LASF3926
C:\Users\CYMR90~1\AppData\Local\Temp\ccxApcqi.s:27260  .debug_str:000000000001742a .LASF3927
C:\Users\CYMR90~1\AppData\Local\Temp\ccxApcqi.s:26691  .debug_str:0000000000014eb9 .LASF3928
C:\Users\CYMR90~1\AppData\Local\Temp\ccxApcqi.s:23327  .debug_str:00000000000074c5 .LASF3929
C:\Users\CYMR90~1\AppData\Local\Temp\ccxApcqi.s:23447  .debug_str:0000000000007d21 .LASF3930
C:\Users\CYMR90~1\AppData\Local\Temp\ccxApcqi.s:23443  .debug_str:0000000000007ce0 .LASF3931
C:\Users\CYMR90~1\AppData\Local\Temp\ccxApcqi.s:24471  .debug_str:000000000000c056 .LASF3932
C:\Users\CYMR90~1\AppData\Local\Temp\ccxApcqi.s:32368  .debug_str:000000000002b959 .LASF3933
C:\Users\CYMR90~1\AppData\Local\Temp\ccxApcqi.s:22107  .debug_str:0000000000002683 .LASF3934
C:\Users\CYMR90~1\AppData\Local\Temp\ccxApcqi.s:30394  .debug_str:00000000000238f0 .LASF3935
C:\Users\CYMR90~1\AppData\Local\Temp\ccxApcqi.s:32302  .debug_str:000000000002b4e7 .LASF3936
C:\Users\CYMR90~1\AppData\Local\Temp\ccxApcqi.s:28790  .debug_str:000000000001d808 .LASF3937
C:\Users\CYMR90~1\AppData\Local\Temp\ccxApcqi.s:25459  .debug_str:000000000000ff5b .LASF3938
C:\Users\CYMR90~1\AppData\Local\Temp\ccxApcqi.s:21903  .debug_str:0000000000001aa7 .LASF3939
C:\Users\CYMR90~1\AppData\Local\Temp\ccxApcqi.s:29934  .debug_str:0000000000021d70 .LASF3940
C:\Users\CYMR90~1\AppData\Local\Temp\ccxApcqi.s:26559  .debug_str:000000000001466b .LASF3941
C:\Users\CYMR90~1\AppData\Local\Temp\ccxApcqi.s:25253  .debug_str:000000000000f252 .LASF3942
C:\Users\CYMR90~1\AppData\Local\Temp\ccxApcqi.s:27830  .debug_str:0000000000019906 .LASF3943
C:\Users\CYMR90~1\AppData\Local\Temp\ccxApcqi.s:27712  .debug_str:0000000000019124 .LASF3944
C:\Users\CYMR90~1\AppData\Local\Temp\ccxApcqi.s:29088  .debug_str:000000000001e9ee .LASF3945
C:\Users\CYMR90~1\AppData\Local\Temp\ccxApcqi.s:31010  .debug_str:000000000002627e .LASF3946
C:\Users\CYMR90~1\AppData\Local\Temp\ccxApcqi.s:29154  .debug_str:000000000001edc4 .LASF3947
C:\Users\CYMR90~1\AppData\Local\Temp\ccxApcqi.s:23797  .debug_str:00000000000093a6 .LASF3948
C:\Users\CYMR90~1\AppData\Local\Temp\ccxApcqi.s:32152  .debug_str:000000000002ab77 .LASF3949
C:\Users\CYMR90~1\AppData\Local\Temp\ccxApcqi.s:28666  .debug_str:000000000001d07f .LASF3950
C:\Users\CYMR90~1\AppData\Local\Temp\ccxApcqi.s:29872  .debug_str:00000000000219a8 .LASF3951
C:\Users\CYMR90~1\AppData\Local\Temp\ccxApcqi.s:21911  .debug_str:0000000000001b37 .LASF3952
C:\Users\CYMR90~1\AppData\Local\Temp\ccxApcqi.s:29788  .debug_str:000000000002148a .LASF3953
C:\Users\CYMR90~1\AppData\Local\Temp\ccxApcqi.s:26413  .debug_str:0000000000013d33 .LASF3954
C:\Users\CYMR90~1\AppData\Local\Temp\ccxApcqi.s:32046  .debug_str:000000000002a527 .LASF3955
C:\Users\CYMR90~1\AppData\Local\Temp\ccxApcqi.s:29726  .debug_str:000000000002103b .LASF3956
C:\Users\CYMR90~1\AppData\Local\Temp\ccxApcqi.s:26353  .debug_str:00000000000139b8 .LASF3957
C:\Users\CYMR90~1\AppData\Local\Temp\ccxApcqi.s:31026  .debug_str:000000000002638a .LASF3958
C:\Users\CYMR90~1\AppData\Local\Temp\ccxApcqi.s:30856  .debug_str:0000000000025907 .LASF3959
C:\Users\CYMR90~1\AppData\Local\Temp\ccxApcqi.s:27484  .debug_str:00000000000181bf .LASF3960
C:\Users\CYMR90~1\AppData\Local\Temp\ccxApcqi.s:32608  .debug_str:000000000002c954 .LASF3961
C:\Users\CYMR90~1\AppData\Local\Temp\ccxApcqi.s:31998  .debug_str:000000000002a20e .LASF3962
C:\Users\CYMR90~1\AppData\Local\Temp\ccxApcqi.s:29940  .debug_str:0000000000021ddd .LASF3963
C:\Users\CYMR90~1\AppData\Local\Temp\ccxApcqi.s:28806  .debug_str:000000000001d906 .LASF3964
C:\Users\CYMR90~1\AppData\Local\Temp\ccxApcqi.s:23239  .debug_str:0000000000006ee8 .LASF3965
C:\Users\CYMR90~1\AppData\Local\Temp\ccxApcqi.s:23379  .debug_str:0000000000007828 .LASF3966
C:\Users\CYMR90~1\AppData\Local\Temp\ccxApcqi.s:27366  .debug_str:0000000000017ad2 .LASF3967
C:\Users\CYMR90~1\AppData\Local\Temp\ccxApcqi.s:31296  .debug_str:0000000000027487 .LASF3968
C:\Users\CYMR90~1\AppData\Local\Temp\ccxApcqi.s:23959  .debug_str:0000000000009e21 .LASF3969
C:\Users\CYMR90~1\AppData\Local\Temp\ccxApcqi.s:32436  .debug_str:000000000002be1d .LASF3970
C:\Users\CYMR90~1\AppData\Local\Temp\ccxApcqi.s:23487  .debug_str:0000000000008069 .LASF3971
C:\Users\CYMR90~1\AppData\Local\Temp\ccxApcqi.s:25807  .debug_str:000000000001153b .LASF3972
C:\Users\CYMR90~1\AppData\Local\Temp\ccxApcqi.s:28324  .debug_str:000000000001b930 .LASF3973
C:\Users\CYMR90~1\AppData\Local\Temp\ccxApcqi.s:32358  .debug_str:000000000002b8c6 .LASF3974
C:\Users\CYMR90~1\AppData\Local\Temp\ccxApcqi.s:26501  .debug_str:00000000000142b5 .LASF3975
C:\Users\CYMR90~1\AppData\Local\Temp\ccxApcqi.s:28918  .debug_str:000000000001dfeb .LASF3976
C:\Users\CYMR90~1\AppData\Local\Temp\ccxApcqi.s:31228  .debug_str:00000000000270a8 .LASF3977
C:\Users\CYMR90~1\AppData\Local\Temp\ccxApcqi.s:22335  .debug_str:0000000000003538 .LASF3978
C:\Users\CYMR90~1\AppData\Local\Temp\ccxApcqi.s:29620  .debug_str:0000000000020a69 .LASF3979
C:\Users\CYMR90~1\AppData\Local\Temp\ccxApcqi.s:22249  .debug_str:0000000000002f6f .LASF3980
C:\Users\CYMR90~1\AppData\Local\Temp\ccxApcqi.s:29260  .debug_str:000000000001f428 .LASF3981
C:\Users\CYMR90~1\AppData\Local\Temp\ccxApcqi.s:31620  .debug_str:0000000000028aab .LASF3982
C:\Users\CYMR90~1\AppData\Local\Temp\ccxApcqi.s:26129  .debug_str:0000000000012b15 .LASF3983
C:\Users\CYMR90~1\AppData\Local\Temp\ccxApcqi.s:24927  .debug_str:000000000000de34 .LASF3984
C:\Users\CYMR90~1\AppData\Local\Temp\ccxApcqi.s:22005  .debug_str:000000000000206f .LASF3985
C:\Users\CYMR90~1\AppData\Local\Temp\ccxApcqi.s:23511  .debug_str:00000000000081e9 .LASF3986
C:\Users\CYMR90~1\AppData\Local\Temp\ccxApcqi.s:25833  .debug_str:0000000000011788 .LASF3987
C:\Users\CYMR90~1\AppData\Local\Temp\ccxApcqi.s:27738  .debug_str:00000000000192c8 .LASF3988
C:\Users\CYMR90~1\AppData\Local\Temp\ccxApcqi.s:25799  .debug_str:00000000000114a8 .LASF3989
C:\Users\CYMR90~1\AppData\Local\Temp\ccxApcqi.s:21557  .debug_str:0000000000000519 .LASF3990
C:\Users\CYMR90~1\AppData\Local\Temp\ccxApcqi.s:28208  .debug_str:000000000001b28a .LASF3991
C:\Users\CYMR90~1\AppData\Local\Temp\ccxApcqi.s:32216  .debug_str:000000000002af1a .LASF3992
C:\Users\CYMR90~1\AppData\Local\Temp\ccxApcqi.s:24857  .debug_str:000000000000d9a2 .LASF3993
C:\Users\CYMR90~1\AppData\Local\Temp\ccxApcqi.s:23889  .debug_str:00000000000099de .LASF3994
C:\Users\CYMR90~1\AppData\Local\Temp\ccxApcqi.s:27776  .debug_str:00000000000194dd .LASF3995
C:\Users\CYMR90~1\AppData\Local\Temp\ccxApcqi.s:23765  .debug_str:00000000000091d8 .LASF3996
C:\Users\CYMR90~1\AppData\Local\Temp\ccxApcqi.s:27674  .debug_str:0000000000018e0e .LASF3997
C:\Users\CYMR90~1\AppData\Local\Temp\ccxApcqi.s:31576  .debug_str:000000000002884d .LASF3998
C:\Users\CYMR90~1\AppData\Local\Temp\ccxApcqi.s:26625  .debug_str:0000000000014a27 .LASF3999
C:\Users\CYMR90~1\AppData\Local\Temp\ccxApcqi.s:28164  .debug_str:000000000001af95 .LASF4000
C:\Users\CYMR90~1\AppData\Local\Temp\ccxApcqi.s:32150  .debug_str:000000000002ab51 .LASF4001
C:\Users\CYMR90~1\AppData\Local\Temp\ccxApcqi.s:24797  .debug_str:000000000000d634 .LASF4002
C:\Users\CYMR90~1\AppData\Local\Temp\ccxApcqi.s:23945  .debug_str:0000000000009d2a .LASF4003
C:\Users\CYMR90~1\AppData\Local\Temp\ccxApcqi.s:32618  .debug_str:000000000002c9e4 .LASF4004
C:\Users\CYMR90~1\AppData\Local\Temp\ccxApcqi.s:29680  .debug_str:0000000000020da5 .LASF4005
C:\Users\CYMR90~1\AppData\Local\Temp\ccxApcqi.s:31426  .debug_str:0000000000027d9f .LASF4006
C:\Users\CYMR90~1\AppData\Local\Temp\ccxApcqi.s:28756  .debug_str:000000000001d5e2 .LASF4007
C:\Users\CYMR90~1\AppData\Local\Temp\ccxApcqi.s:24175  .debug_str:000000000000abb1 .LASF4008
C:\Users\CYMR90~1\AppData\Local\Temp\ccxApcqi.s:28104  .debug_str:000000000001ab72 .LASF4009
C:\Users\CYMR90~1\AppData\Local\Temp\ccxApcqi.s:32078  .debug_str:000000000002a723 .LASF4010
C:\Users\CYMR90~1\AppData\Local\Temp\ccxApcqi.s:27027  .debug_str:0000000000016337 .LASF4011
C:\Users\CYMR90~1\AppData\Local\Temp\ccxApcqi.s:28624  .debug_str:000000000001cd4e .LASF4012
C:\Users\CYMR90~1\AppData\Local\Temp\ccxApcqi.s:32556  .debug_str:000000000002c5fa .LASF4013
C:\Users\CYMR90~1\AppData\Local\Temp\ccxApcqi.s:27702  .debug_str:000000000001909d .LASF4014
C:\Users\CYMR90~1\AppData\Local\Temp\ccxApcqi.s:22283  .debug_str:00000000000031e3 .LASF4015
C:\Users\CYMR90~1\AppData\Local\Temp\ccxApcqi.s:31450  .debug_str:0000000000027f3f .LASF4016
C:\Users\CYMR90~1\AppData\Local\Temp\ccxApcqi.s:32018  .debug_str:000000000002a38e .LASF4017
C:\Users\CYMR90~1\AppData\Local\Temp\ccxApcqi.s:23073  .debug_str:0000000000006452 .LASF4018
C:\Users\CYMR90~1\AppData\Local\Temp\ccxApcqi.s:32008  .debug_str:000000000002a2b7 .LASF4019
C:\Users\CYMR90~1\AppData\Local\Temp\ccxApcqi.s:24673  .debug_str:000000000000cdd2 .LASF4020
C:\Users\CYMR90~1\AppData\Local\Temp\ccxApcqi.s:28562  .debug_str:000000000001c8e9 .LASF4021
C:\Users\CYMR90~1\AppData\Local\Temp\ccxApcqi.s:32496  .debug_str:000000000002c251 .LASF4022
C:\Users\CYMR90~1\AppData\Local\Temp\ccxApcqi.s:23489  .debug_str:000000000000808f .LASF4023
C:\Users\CYMR90~1\AppData\Local\Temp\ccxApcqi.s:26617  .debug_str:00000000000149be .LASF4024
C:\Users\CYMR90~1\AppData\Local\Temp\ccxApcqi.s:26143  .debug_str:0000000000012c1c .LASF4025
C:\Users\CYMR90~1\AppData\Local\Temp\ccxApcqi.s:24045  .debug_str:000000000000a3bd .LASF4026
C:\Users\CYMR90~1\AppData\Local\Temp\ccxApcqi.s:27962  .debug_str:000000000001a0b6 .LASF4027
C:\Users\CYMR90~1\AppData\Local\Temp\ccxApcqi.s:25469  .debug_str:000000000001002a .LASF4028
C:\Users\CYMR90~1\AppData\Local\Temp\ccxApcqi.s:28336  .debug_str:000000000001ba18 .LASF4029
C:\Users\CYMR90~1\AppData\Local\Temp\ccxApcqi.s:28494  .debug_str:000000000001c3b0 .LASF4030
C:\Users\CYMR90~1\AppData\Local\Temp\ccxApcqi.s:29790  .debug_str:00000000000214ae .LASF4031
C:\Users\CYMR90~1\AppData\Local\Temp\ccxApcqi.s:25071  .debug_str:000000000000e72c .LASF4032
C:\Users\CYMR90~1\AppData\Local\Temp\ccxApcqi.s:28944  .debug_str:000000000001e151 .LASF4033
C:\Users\CYMR90~1\AppData\Local\Temp\ccxApcqi.s:21645  .debug_str:0000000000000ac1 .LASF4034
C:\Users\CYMR90~1\AppData\Local\Temp\ccxApcqi.s:28500  .debug_str:000000000001c40e .LASF4035
C:\Users\CYMR90~1\AppData\Local\Temp\ccxApcqi.s:30062  .debug_str:000000000002250e .LASF4036
C:\Users\CYMR90~1\AppData\Local\Temp\ccxApcqi.s:31876  .debug_str:0000000000029b16 .LASF4037
C:\Users\CYMR90~1\AppData\Local\Temp\ccxApcqi.s:24535  .debug_str:000000000000c446 .LASF4038
C:\Users\CYMR90~1\AppData\Local\Temp\ccxApcqi.s:26635  .debug_str:0000000000014acd .LASF4039
C:\Users\CYMR90~1\AppData\Local\Temp\ccxApcqi.s:32372  .debug_str:000000000002b995 .LASF4040
C:\Users\CYMR90~1\AppData\Local\Temp\ccxApcqi.s:28970  .debug_str:000000000001e2e6 .LASF4041
C:\Users\CYMR90~1\AppData\Local\Temp\ccxApcqi.s:28880  .debug_str:000000000001dd87 .LASF4042
C:\Users\CYMR90~1\AppData\Local\Temp\ccxApcqi.s:21587  .debug_str:00000000000006e7 .LASF4043
C:\Users\CYMR90~1\AppData\Local\Temp\ccxApcqi.s:32544  .debug_str:000000000002c525 .LASF4044
C:\Users\CYMR90~1\AppData\Local\Temp\ccxApcqi.s:22547  .debug_str:000000000000436f .LASF4045
C:\Users\CYMR90~1\AppData\Local\Temp\ccxApcqi.s:31814  .debug_str:0000000000029758 .LASF4046
C:\Users\CYMR90~1\AppData\Local\Temp\ccxApcqi.s:27838  .debug_str:0000000000019982 .LASF4047
C:\Users\CYMR90~1\AppData\Local\Temp\ccxApcqi.s:30144  .debug_str:0000000000022a13 .LASF4048
C:\Users\CYMR90~1\AppData\Local\Temp\ccxApcqi.s:32316  .debug_str:000000000002b5d0 .LASF4049
C:\Users\CYMR90~1\AppData\Local\Temp\ccxApcqi.s:24949  .debug_str:000000000000df76 .LASF4050
C:\Users\CYMR90~1\AppData\Local\Temp\ccxApcqi.s:22843  .debug_str:0000000000005668 .LASF4051
C:\Users\CYMR90~1\AppData\Local\Temp\ccxApcqi.s:21519  .debug_str:00000000000002ff .LASF4052
C:\Users\CYMR90~1\AppData\Local\Temp\ccxApcqi.s:26011  .debug_str:0000000000012376 .LASF4053
C:\Users\CYMR90~1\AppData\Local\Temp\ccxApcqi.s:22427  .debug_str:0000000000003b42 .LASF4054
C:\Users\CYMR90~1\AppData\Local\Temp\ccxApcqi.s:26489  .debug_str:0000000000014202 .LASF4055
C:\Users\CYMR90~1\AppData\Local\Temp\ccxApcqi.s:24409  .debug_str:000000000000bc60 .LASF4056
C:\Users\CYMR90~1\AppData\Local\Temp\ccxApcqi.s:21799  .debug_str:0000000000001404 .LASF4057
C:\Users\CYMR90~1\AppData\Local\Temp\ccxApcqi.s:32240  .debug_str:000000000002b0fb .LASF4058
C:\Users\CYMR90~1\AppData\Local\Temp\ccxApcqi.s:29140  .debug_str:000000000001ecd8 .LASF4059
C:\Users\CYMR90~1\AppData\Local\Temp\ccxApcqi.s:29322  .debug_str:000000000001f7e0 .LASF4060
C:\Users\CYMR90~1\AppData\Local\Temp\ccxApcqi.s:32702  .debug_str:000000000002cf83 .LASF4061
C:\Users\CYMR90~1\AppData\Local\Temp\ccxApcqi.s:21793  .debug_str:00000000000013a8 .LASF4062
C:\Users\CYMR90~1\AppData\Local\Temp\ccxApcqi.s:25939  .debug_str:0000000000011e68 .LASF4063
C:\Users\CYMR90~1\AppData\Local\Temp\ccxApcqi.s:28258  .debug_str:000000000001b594 .LASF4064
C:\Users\CYMR90~1\AppData\Local\Temp\ccxApcqi.s:30916  .debug_str:0000000000025c8e .LASF4065
C:\Users\CYMR90~1\AppData\Local\Temp\ccxApcqi.s:26661  .debug_str:0000000000014ca6 .LASF4066
C:\Users\CYMR90~1\AppData\Local\Temp\ccxApcqi.s:29868  .debug_str:0000000000021968 .LASF4067
C:\Users\CYMR90~1\AppData\Local\Temp\ccxApcqi.s:22241  .debug_str:0000000000002f05 .LASF4068
C:\Users\CYMR90~1\AppData\Local\Temp\ccxApcqi.s:23551  .debug_str:000000000000848e .LASF4069
C:\Users\CYMR90~1\AppData\Local\Temp\ccxApcqi.s:27452  .debug_str:0000000000017fdf .LASF4070
C:\Users\CYMR90~1\AppData\Local\Temp\ccxApcqi.s:31374  .debug_str:00000000000279e6 .LASF4071
C:\Users\CYMR90~1\AppData\Local\Temp\ccxApcqi.s:31366  .debug_str:000000000002795c .LASF4072
C:\Users\CYMR90~1\AppData\Local\Temp\ccxApcqi.s:32558  .debug_str:000000000002c620 .LASF4073
C:\Users\CYMR90~1\AppData\Local\Temp\ccxApcqi.s:31932  .debug_str:0000000000029e35 .LASF4074
C:\Users\CYMR90~1\AppData\Local\Temp\ccxApcqi.s:27660  .debug_str:0000000000018d30 .LASF4075
C:\Users\CYMR90~1\AppData\Local\Temp\ccxApcqi.s:22121  .debug_str:00000000000027a7 .LASF4076
C:\Users\CYMR90~1\AppData\Local\Temp\ccxApcqi.s:30822  .debug_str:00000000000256f4 .LASF4077
C:\Users\CYMR90~1\AppData\Local\Temp\ccxApcqi.s:23493  .debug_str:00000000000080cb .LASF4078
C:\Users\CYMR90~1\AppData\Local\Temp\ccxApcqi.s:27380  .debug_str:0000000000017ba2 .LASF4079
C:\Users\CYMR90~1\AppData\Local\Temp\ccxApcqi.s:32142  .debug_str:000000000002aab6 .LASF4080
C:\Users\CYMR90~1\AppData\Local\Temp\ccxApcqi.s:22449  .debug_str:0000000000003cc9 .LASF4081
C:\Users\CYMR90~1\AppData\Local\Temp\ccxApcqi.s:24791  .debug_str:000000000000d5de .LASF4082
C:\Users\CYMR90~1\AppData\Local\Temp\ccxApcqi.s:31872  .debug_str:0000000000029ad9 .LASF4083
C:\Users\CYMR90~1\AppData\Local\Temp\ccxApcqi.s:30306  .debug_str:00000000000233a9 .LASF4084
C:\Users\CYMR90~1\AppData\Local\Temp\ccxApcqi.s:29356  .debug_str:000000000001fa04 .LASF4085
C:\Users\CYMR90~1\AppData\Local\Temp\ccxApcqi.s:30650  .debug_str:0000000000024a29 .LASF4086
C:\Users\CYMR90~1\AppData\Local\Temp\ccxApcqi.s:32648  .debug_str:000000000002cc3e .LASF4087
C:\Users\CYMR90~1\AppData\Local\Temp\ccxApcqi.s:27320  .debug_str:000000000001782e .LASF4088
C:\Users\CYMR90~1\AppData\Local\Temp\ccxApcqi.s:23645  .debug_str:0000000000008aa0 .LASF4089
C:\Users\CYMR90~1\AppData\Local\Temp\ccxApcqi.s:28048  .debug_str:000000000001a7de .LASF4090
C:\Users\CYMR90~1\AppData\Local\Temp\ccxApcqi.s:28278  .debug_str:000000000001b6f1 .LASF4091
C:\Users\CYMR90~1\AppData\Local\Temp\ccxApcqi.s:31804  .debug_str:00000000000296ce .LASF4092
C:\Users\CYMR90~1\AppData\Local\Temp\ccxApcqi.s:24465  .debug_str:000000000000c003 .LASF4093
C:\Users\CYMR90~1\AppData\Local\Temp\ccxApcqi.s:24871  .debug_str:000000000000da4b .LASF4094
C:\Users\CYMR90~1\AppData\Local\Temp\ccxApcqi.s:25331  .debug_str:000000000000f784 .LASF4095
C:\Users\CYMR90~1\AppData\Local\Temp\ccxApcqi.s:23355  .debug_str:0000000000007699 .LASF4096
C:\Users\CYMR90~1\AppData\Local\Temp\ccxApcqi.s:27254  .debug_str:00000000000173d5 .LASF4097
C:\Users\CYMR90~1\AppData\Local\Temp\ccxApcqi.s:30288  .debug_str:000000000002323d .LASF4098
C:\Users\CYMR90~1\AppData\Local\Temp\ccxApcqi.s:23825  .debug_str:000000000000959e .LASF4099
C:\Users\CYMR90~1\AppData\Local\Temp\ccxApcqi.s:32614  .debug_str:000000000002c9ac .LASF4100
C:\Users\CYMR90~1\AppData\Local\Temp\ccxApcqi.s:31744  .debug_str:0000000000029313 .LASF4101
C:\Users\CYMR90~1\AppData\Local\Temp\ccxApcqi.s:24403  .debug_str:000000000000bbe7 .LASF4102
C:\Users\CYMR90~1\AppData\Local\Temp\ccxApcqi.s:28354  .debug_str:000000000001bb33 .LASF4103
C:\Users\CYMR90~1\AppData\Local\Temp\ccxApcqi.s:30672  .debug_str:0000000000024bb7 .LASF4104
C:\Users\CYMR90~1\AppData\Local\Temp\ccxApcqi.s:26721  .debug_str:0000000000015080 .LASF4105
C:\Users\CYMR90~1\AppData\Local\Temp\ccxApcqi.s:27198  .debug_str:000000000001707b .LASF4106
C:\Users\CYMR90~1\AppData\Local\Temp\ccxApcqi.s:28652  .debug_str:000000000001cf94 .LASF4107
C:\Users\CYMR90~1\AppData\Local\Temp\ccxApcqi.s:21697  .debug_str:0000000000000db3 .LASF4108
C:\Users\CYMR90~1\AppData\Local\Temp\ccxApcqi.s:27690  .debug_str:0000000000018fd7 .LASF4109
C:\Users\CYMR90~1\AppData\Local\Temp\ccxApcqi.s:27204  .debug_str:00000000000170e7 .LASF4110
C:\Users\CYMR90~1\AppData\Local\Temp\ccxApcqi.s:29522  .debug_str:000000000002045b .LASF4111
C:\Users\CYMR90~1\AppData\Local\Temp\ccxApcqi.s:31852  .debug_str:0000000000029996 .LASF4112
C:\Users\CYMR90~1\AppData\Local\Temp\ccxApcqi.s:32162  .debug_str:000000000002ac0b .LASF4113
C:\Users\CYMR90~1\AppData\Local\Temp\ccxApcqi.s:25247  .debug_str:000000000000f1e2 .LASF4114
C:\Users\CYMR90~1\AppData\Local\Temp\ccxApcqi.s:32564  .debug_str:000000000002c699 .LASF4115
C:\Users\CYMR90~1\AppData\Local\Temp\ccxApcqi.s:31048  .debug_str:00000000000264ed .LASF4116
C:\Users\CYMR90~1\AppData\Local\Temp\ccxApcqi.s:25195  .debug_str:000000000000ee7b .LASF4117
C:\Users\CYMR90~1\AppData\Local\Temp\ccxApcqi.s:27622  .debug_str:0000000000018ade .LASF4118
C:\Users\CYMR90~1\AppData\Local\Temp\ccxApcqi.s:31616  .debug_str:0000000000028a71 .LASF4119
C:\Users\CYMR90~1\AppData\Local\Temp\ccxApcqi.s:30526  .debug_str:00000000000241fb .LASF4120
C:\Users\CYMR90~1\AppData\Local\Temp\ccxApcqi.s:28190  .debug_str:000000000001b180 .LASF4121
C:\Users\CYMR90~1\AppData\Local\Temp\ccxApcqi.s:32090  .debug_str:000000000002a7bb .LASF4122
C:\Users\CYMR90~1\AppData\Local\Temp\ccxApcqi.s:24751  .debug_str:000000000000d33c .LASF4123
C:\Users\CYMR90~1\AppData\Local\Temp\ccxApcqi.s:31050  .debug_str:0000000000026513 .LASF4124
C:\Users\CYMR90~1\AppData\Local\Temp\ccxApcqi.s:27097  .debug_str:0000000000016861 .LASF4125
C:\Users\CYMR90~1\AppData\Local\Temp\ccxApcqi.s:23649  .debug_str:0000000000008adc .LASF4126
C:\Users\CYMR90~1\AppData\Local\Temp\ccxApcqi.s:27546  .debug_str:0000000000018536 .LASF4127
C:\Users\CYMR90~1\AppData\Local\Temp\ccxApcqi.s:25605  .debug_str:0000000000010830 .LASF4128
C:\Users\CYMR90~1\AppData\Local\Temp\ccxApcqi.s:24213  .debug_str:000000000000aefa .LASF4129
C:\Users\CYMR90~1\AppData\Local\Temp\ccxApcqi.s:27582  .debug_str:00000000000187c3 .LASF4130
C:\Users\CYMR90~1\AppData\Local\Temp\ccxApcqi.s:27798  .debug_str:00000000000196a3 .LASF4131
C:\Users\CYMR90~1\AppData\Local\Temp\ccxApcqi.s:32246  .debug_str:000000000002b151 .LASF4132
C:\Users\CYMR90~1\AppData\Local\Temp\ccxApcqi.s:23279  .debug_str:00000000000071e4 .LASF4133
C:\Users\CYMR90~1\AppData\Local\Temp\ccxApcqi.s:32510  .debug_str:000000000002c332 .LASF4134
C:\Users\CYMR90~1\AppData\Local\Temp\ccxApcqi.s:29572  .debug_str:000000000002076d .LASF4135
C:\Users\CYMR90~1\AppData\Local\Temp\ccxApcqi.s:30238  .debug_str:0000000000022f4a .LASF4136
C:\Users\CYMR90~1\AppData\Local\Temp\ccxApcqi.s:31486  .debug_str:0000000000028217 .LASF4137
C:\Users\CYMR90~1\AppData\Local\Temp\ccxApcqi.s:24145  .debug_str:000000000000a9d5 .LASF4138
C:\Users\CYMR90~1\AppData\Local\Temp\ccxApcqi.s:22833  .debug_str:0000000000005590 .LASF4139
C:\Users\CYMR90~1\AppData\Local\Temp\ccxApcqi.s:23589  .debug_str:00000000000086e1 .LASF4140
C:\Users\CYMR90~1\AppData\Local\Temp\ccxApcqi.s:24629  .debug_str:000000000000cb27 .LASF4141
C:\Users\CYMR90~1\AppData\Local\Temp\ccxApcqi.s:28512  .debug_str:000000000001c4eb .LASF4142
C:\Users\CYMR90~1\AppData\Local\Temp\ccxApcqi.s:32446  .debug_str:000000000002bea5 .LASF4143
C:\Users\CYMR90~1\AppData\Local\Temp\ccxApcqi.s:25185  .debug_str:000000000000eded .LASF4144
C:\Users\CYMR90~1\AppData\Local\Temp\ccxApcqi.s:29296  .debug_str:000000000001f646 .LASF4145
C:\Users\CYMR90~1\AppData\Local\Temp\ccxApcqi.s:28432  .debug_str:000000000001c065 .LASF4146
C:\Users\CYMR90~1\AppData\Local\Temp\ccxApcqi.s:32274  .debug_str:000000000002b340 .LASF4147
C:\Users\CYMR90~1\AppData\Local\Temp\ccxApcqi.s:28008  .debug_str:000000000001a4e5 .LASF4148
C:\Users\CYMR90~1\AppData\Local\Temp\ccxApcqi.s:30628  .debug_str:00000000000248d3 .LASF4149
C:\Users\CYMR90~1\AppData\Local\Temp\ccxApcqi.s:27980  .debug_str:000000000001a382 .LASF4150
C:\Users\CYMR90~1\AppData\Local\Temp\ccxApcqi.s:28442  .debug_str:000000000001c0eb .LASF4151
C:\Users\CYMR90~1\AppData\Local\Temp\ccxApcqi.s:21593  .debug_str:0000000000000746 .LASF4152
C:\Users\CYMR90~1\AppData\Local\Temp\ccxApcqi.s:24549  .debug_str:000000000000c4fb .LASF4153
C:\Users\CYMR90~1\AppData\Local\Temp\ccxApcqi.s:24723  .debug_str:000000000000d135 .LASF4154
C:\Users\CYMR90~1\AppData\Local\Temp\ccxApcqi.s:22905  .debug_str:0000000000005a2f .LASF4155
C:\Users\CYMR90~1\AppData\Local\Temp\ccxApcqi.s:24019  .debug_str:000000000000a1dd .LASF4156
C:\Users\CYMR90~1\AppData\Local\Temp\ccxApcqi.s:27926  .debug_str:0000000000019eba .LASF4157
C:\Users\CYMR90~1\AppData\Local\Temp\ccxApcqi.s:31826  .debug_str:0000000000029815 .LASF4158
C:\Users\CYMR90~1\AppData\Local\Temp\ccxApcqi.s:24487  .debug_str:000000000000c149 .LASF4159
C:\Users\CYMR90~1\AppData\Local\Temp\ccxApcqi.s:28382  .debug_str:000000000001bd19 .LASF4160
C:\Users\CYMR90~1\AppData\Local\Temp\ccxApcqi.s:28622  .debug_str:000000000001cd28 .LASF4161
C:\Users\CYMR90~1\AppData\Local\Temp\ccxApcqi.s:28068  .debug_str:000000000001a938 .LASF4162
C:\Users\CYMR90~1\AppData\Local\Temp\ccxApcqi.s:28916  .debug_str:000000000001dfc5 .LASF4163
C:\Users\CYMR90~1\AppData\Local\Temp\ccxApcqi.s:32512  .debug_str:000000000002c358 .LASF4164
C:\Users\CYMR90~1\AppData\Local\Temp\ccxApcqi.s:24103  .debug_str:000000000000a755 .LASF4165
C:\Users\CYMR90~1\AppData\Local\Temp\ccxApcqi.s:22577  .debug_str:0000000000004574 .LASF4166
C:\Users\CYMR90~1\AppData\Local\Temp\ccxApcqi.s:26585  .debug_str:00000000000147d6 .LASF4167
C:\Users\CYMR90~1\AppData\Local\Temp\ccxApcqi.s:30502  .debug_str:0000000000024050 .LASF4168
C:\Users\CYMR90~1\AppData\Local\Temp\ccxApcqi.s:23149  .debug_str:0000000000006920 .LASF4169
C:\Users\CYMR90~1\AppData\Local\Temp\ccxApcqi.s:30002  .debug_str:0000000000022197 .LASF4170
C:\Users\CYMR90~1\AppData\Local\Temp\ccxApcqi.s:32354  .debug_str:000000000002b865 .LASF4171
C:\Users\CYMR90~1\AppData\Local\Temp\ccxApcqi.s:23133  .debug_str:0000000000006815 .LASF4172
C:\Users\CYMR90~1\AppData\Local\Temp\ccxApcqi.s:27540  .debug_str:00000000000184ea .LASF4173
C:\Users\CYMR90~1\AppData\Local\Temp\ccxApcqi.s:31546  .debug_str:0000000000028660 .LASF4174
C:\Users\CYMR90~1\AppData\Local\Temp\ccxApcqi.s:30892  .debug_str:0000000000025b12 .LASF4175
C:\Users\CYMR90~1\AppData\Local\Temp\ccxApcqi.s:26525  .debug_str:00000000000143f0 .LASF4176
C:\Users\CYMR90~1\AppData\Local\Temp\ccxApcqi.s:30436  .debug_str:0000000000023b50 .LASF4177
C:\Users\CYMR90~1\AppData\Local\Temp\ccxApcqi.s:31182  .debug_str:0000000000026d35 .LASF4178
C:\Users\CYMR90~1\AppData\Local\Temp\ccxApcqi.s:28720  .debug_str:000000000001d392 .LASF4179
C:\Users\CYMR90~1\AppData\Local\Temp\ccxApcqi.s:29450  .debug_str:000000000001ff6f .LASF4180
C:\Users\CYMR90~1\AppData\Local\Temp\ccxApcqi.s:25587  .debug_str:0000000000010726 .LASF4181
C:\Users\CYMR90~1\AppData\Local\Temp\ccxApcqi.s:29156  .debug_str:000000000001ede8 .LASF4182
C:\Users\CYMR90~1\AppData\Local\Temp\ccxApcqi.s:24879  .debug_str:000000000000dad2 .LASF4183
C:\Users\CYMR90~1\AppData\Local\Temp\ccxApcqi.s:23467  .debug_str:0000000000007e8e .LASF4184
C:\Users\CYMR90~1\AppData\Local\Temp\ccxApcqi.s:30780  .debug_str:0000000000025380 .LASF4185
C:\Users\CYMR90~1\AppData\Local\Temp\ccxApcqi.s:32374  .debug_str:000000000002b9bb .LASF4186
C:\Users\CYMR90~1\AppData\Local\Temp\ccxApcqi.s:23817  .debug_str:0000000000009525 .LASF4187
C:\Users\CYMR90~1\AppData\Local\Temp\ccxApcqi.s:26915  .debug_str:0000000000015c2b .LASF4188
C:\Users\CYMR90~1\AppData\Local\Temp\ccxApcqi.s:30838  .debug_str:00000000000257e1 .LASF4189
C:\Users\CYMR90~1\AppData\Local\Temp\ccxApcqi.s:26005  .debug_str:000000000001231b .LASF4190
C:\Users\CYMR90~1\AppData\Local\Temp\ccxApcqi.s:26049  .debug_str:00000000000125ed .LASF4191
C:\Users\CYMR90~1\AppData\Local\Temp\ccxApcqi.s:24657  .debug_str:000000000000cc9d .LASF4192
C:\Users\CYMR90~1\AppData\Local\Temp\ccxApcqi.s:24075  .debug_str:000000000000a568 .LASF4193
C:\Users\CYMR90~1\AppData\Local\Temp\ccxApcqi.s:27998  .debug_str:000000000001a452 .LASF4194
C:\Users\CYMR90~1\AppData\Local\Temp\ccxApcqi.s:25067  .debug_str:000000000000e6f6 .LASF4195
C:\Users\CYMR90~1\AppData\Local\Temp\ccxApcqi.s:22947  .debug_str:0000000000005ca2 .LASF4196
C:\Users\CYMR90~1\AppData\Local\Temp\ccxApcqi.s:29186  .debug_str:000000000001efbc .LASF4197
C:\Users\CYMR90~1\AppData\Local\Temp\ccxApcqi.s:30776  .debug_str:000000000002532e .LASF4198
C:\Users\CYMR90~1\AppData\Local\Temp\ccxApcqi.s:30564  .debug_str:000000000002444b .LASF4199
C:\Users\CYMR90~1\AppData\Local\Temp\ccxApcqi.s:22505  .debug_str:00000000000040d9 .LASF4200
C:\Users\CYMR90~1\AppData\Local\Temp\ccxApcqi.s:28162  .debug_str:000000000001af6f .LASF4201
C:\Users\CYMR90~1\AppData\Local\Temp\ccxApcqi.s:25671  .debug_str:0000000000010cd0 .LASF4202
C:\Users\CYMR90~1\AppData\Local\Temp\ccxApcqi.s:27918  .debug_str:0000000000019e35 .LASF4203
C:\Users\CYMR90~1\AppData\Local\Temp\ccxApcqi.s:31820  .debug_str:00000000000297ab .LASF4204
C:\Users\CYMR90~1\AppData\Local\Temp\ccxApcqi.s:31164  .debug_str:0000000000026c1d .LASF4205
C:\Users\CYMR90~1\AppData\Local\Temp\ccxApcqi.s:26791  .debug_str:000000000001545b .LASF4206
C:\Users\CYMR90~1\AppData\Local\Temp\ccxApcqi.s:32456  .debug_str:000000000002bf72 .LASF4207
C:\Users\CYMR90~1\AppData\Local\Temp\ccxApcqi.s:23363  .debug_str:000000000000772b .LASF4208
C:\Users\CYMR90~1\AppData\Local\Temp\ccxApcqi.s:30720  .debug_str:0000000000024f19 .LASF4209
C:\Users\CYMR90~1\AppData\Local\Temp\ccxApcqi.s:32694  .debug_str:000000000002cef3 .LASF4210
C:\Users\CYMR90~1\AppData\Local\Temp\ccxApcqi.s:22673  .debug_str:0000000000004c19 .LASF4211
C:\Users\CYMR90~1\AppData\Local\Temp\ccxApcqi.s:27854  .debug_str:0000000000019a92 .LASF4212
C:\Users\CYMR90~1\AppData\Local\Temp\ccxApcqi.s:22899  .debug_str:000000000000599b .LASF4213
C:\Users\CYMR90~1\AppData\Local\Temp\ccxApcqi.s:24415  .debug_str:000000000000bcbe .LASF4214
C:\Users\CYMR90~1\AppData\Local\Temp\ccxApcqi.s:25733  .debug_str:000000000001106b .LASF4215
C:\Users\CYMR90~1\AppData\Local\Temp\ccxApcqi.s:23917  .debug_str:0000000000009b8a .LASF4216
C:\Users\CYMR90~1\AppData\Local\Temp\ccxApcqi.s:30934  .debug_str:0000000000025de0 .LASF4217
C:\Users\CYMR90~1\AppData\Local\Temp\ccxApcqi.s:27292  .debug_str:0000000000017631 .LASF4218
C:\Users\CYMR90~1\AppData\Local\Temp\ccxApcqi.s:23887  .debug_str:00000000000099b8 .LASF4219
C:\Users\CYMR90~1\AppData\Local\Temp\ccxApcqi.s:28502  .debug_str:000000000001c434 .LASF4220
C:\Users\CYMR90~1\AppData\Local\Temp\ccxApcqi.s:27794  .debug_str:0000000000019658 .LASF4221
C:\Users\CYMR90~1\AppData\Local\Temp\ccxApcqi.s:31698  .debug_str:0000000000028fb7 .LASF4222
C:\Users\CYMR90~1\AppData\Local\Temp\ccxApcqi.s:21891  .debug_str:00000000000019ff .LASF4223
C:\Users\CYMR90~1\AppData\Local\Temp\ccxApcqi.s:24227  .debug_str:000000000000afe9 .LASF4224
C:\Users\CYMR90~1\AppData\Local\Temp\ccxApcqi.s:25363  .debug_str:000000000000f93e .LASF4225
C:\Users\CYMR90~1\AppData\Local\Temp\ccxApcqi.s:23231  .debug_str:0000000000006e47 .LASF4226
C:\Users\CYMR90~1\AppData\Local\Temp\ccxApcqi.s:27232  .debug_str:0000000000017281 .LASF4227
C:\Users\CYMR90~1\AppData\Local\Temp\ccxApcqi.s:31156  .debug_str:0000000000026ba5 .LASF4228
C:\Users\CYMR90~1\AppData\Local\Temp\ccxApcqi.s:29664  .debug_str:0000000000020cc4 .LASF4229
C:\Users\CYMR90~1\AppData\Local\Temp\ccxApcqi.s:27726  .debug_str:00000000000191f1 .LASF4230
C:\Users\CYMR90~1\AppData\Local\Temp\ccxApcqi.s:23059  .debug_str:0000000000006398 .LASF4231
C:\Users\CYMR90~1\AppData\Local\Temp\ccxApcqi.s:24291  .debug_str:000000000000b41d .LASF4232
C:\Users\CYMR90~1\AppData\Local\Temp\ccxApcqi.s:27718  .debug_str:000000000001917b .LASF4233
C:\Users\CYMR90~1\AppData\Local\Temp\ccxApcqi.s:25899  .debug_str:0000000000011bd4 .LASF4234
C:\Users\CYMR90~1\AppData\Local\Temp\ccxApcqi.s:22977  .debug_str:0000000000005e67 .LASF4235
C:\Users\CYMR90~1\AppData\Local\Temp\ccxApcqi.s:27170  .debug_str:0000000000016efa .LASF4236
C:\Users\CYMR90~1\AppData\Local\Temp\ccxApcqi.s:31086  .debug_str:000000000002673a .LASF4237
C:\Users\CYMR90~1\AppData\Local\Temp\ccxApcqi.s:23751  .debug_str:00000000000090f3 .LASF4238
C:\Users\CYMR90~1\AppData\Local\Temp\ccxApcqi.s:21855  .debug_str:00000000000017d2 .LASF4239
C:\Users\CYMR90~1\AppData\Local\Temp\ccxApcqi.s:27832  .debug_str:000000000001992a .LASF4240
C:\Users\CYMR90~1\AppData\Local\Temp\ccxApcqi.s:28856  .debug_str:000000000001dbf3 .LASF4241
C:\Users\CYMR90~1\AppData\Local\Temp\ccxApcqi.s:28152  .debug_str:000000000001aed6 .LASF4242
C:\Users\CYMR90~1\AppData\Local\Temp\ccxApcqi.s:32040  .debug_str:000000000002a4d2 .LASF4243
C:\Users\CYMR90~1\AppData\Local\Temp\ccxApcqi.s:24787  .debug_str:000000000000d5af .LASF4244
C:\Users\CYMR90~1\AppData\Local\Temp\ccxApcqi.s:21861  .debug_str:0000000000001838 .LASF4245
C:\Users\CYMR90~1\AppData\Local\Temp\ccxApcqi.s:31024  .debug_str:0000000000026364 .LASF4246
C:\Users\CYMR90~1\AppData\Local\Temp\ccxApcqi.s:25433  .debug_str:000000000000fdeb .LASF4247
C:\Users\CYMR90~1\AppData\Local\Temp\ccxApcqi.s:27900  .debug_str:0000000000019d29 .LASF4248
C:\Users\CYMR90~1\AppData\Local\Temp\ccxApcqi.s:30056  .debug_str:00000000000224bf .LASF4249
C:\Users\CYMR90~1\AppData\Local\Temp\ccxApcqi.s:32402  .debug_str:000000000002bb88 .LASF4250
C:\Users\CYMR90~1\AppData\Local\Temp\ccxApcqi.s:28094  .debug_str:000000000001aad4 .LASF4251
C:\Users\CYMR90~1\AppData\Local\Temp\ccxApcqi.s:31976  .debug_str:000000000002a0a4 .LASF4252
C:\Users\CYMR90~1\AppData\Local\Temp\ccxApcqi.s:28930  .debug_str:000000000001e08a .LASF4253
C:\Users\CYMR90~1\AppData\Local\Temp\ccxApcqi.s:25379  .debug_str:000000000000fa34 .LASF4254
C:\Users\CYMR90~1\AppData\Local\Temp\ccxApcqi.s:25717  .debug_str:0000000000010f4e .LASF4255
C:\Users\CYMR90~1\AppData\Local\Temp\ccxApcqi.s:23619  .debug_str:0000000000008905 .LASF4256
C:\Users\CYMR90~1\AppData\Local\Temp\ccxApcqi.s:23697  .debug_str:0000000000008def .LASF4257
C:\Users\CYMR90~1\AppData\Local\Temp\ccxApcqi.s:28654  .debug_str:000000000001cfba .LASF4258
C:\Users\CYMR90~1\AppData\Local\Temp\ccxApcqi.s:25697  .debug_str:0000000000010e1b .LASF4259
C:\Users\CYMR90~1\AppData\Local\Temp\ccxApcqi.s:28022  .debug_str:000000000001a5e7 .LASF4260
C:\Users\CYMR90~1\AppData\Local\Temp\ccxApcqi.s:26407  .debug_str:0000000000013ccf .LASF4261
C:\Users\CYMR90~1\AppData\Local\Temp\ccxApcqi.s:28974  .debug_str:000000000001e33c .LASF4262
C:\Users\CYMR90~1\AppData\Local\Temp\ccxApcqi.s:29728  .debug_str:000000000002105f .LASF4263
C:\Users\CYMR90~1\AppData\Local\Temp\ccxApcqi.s:25845  .debug_str:000000000001182b .LASF4264
C:\Users\CYMR90~1\AppData\Local\Temp\ccxApcqi.s:24143  .debug_str:000000000000a9af .LASF4265
C:\Users\CYMR90~1\AppData\Local\Temp\ccxApcqi.s:22287  .debug_str:0000000000003221 .LASF4266
C:\Users\CYMR90~1\AppData\Local\Temp\ccxApcqi.s:26205  .debug_str:000000000001302f .LASF4267
C:\Users\CYMR90~1\AppData\Local\Temp\ccxApcqi.s:29762  .debug_str:000000000002130b .LASF4268
C:\Users\CYMR90~1\AppData\Local\Temp\ccxApcqi.s:22743  .debug_str:0000000000005052 .LASF4269
C:\Users\CYMR90~1\AppData\Local\Temp\ccxApcqi.s:26657  .debug_str:0000000000014c5e .LASF4270
C:\Users\CYMR90~1\AppData\Local\Temp\ccxApcqi.s:30574  .debug_str:00000000000244f3 .LASF4271
C:\Users\CYMR90~1\AppData\Local\Temp\ccxApcqi.s:23223  .debug_str:0000000000006de4 .LASF4272
C:\Users\CYMR90~1\AppData\Local\Temp\ccxApcqi.s:22519  .debug_str:00000000000041af .LASF4273
C:\Users\CYMR90~1\AppData\Local\Temp\ccxApcqi.s:31148  .debug_str:0000000000026b0a .LASF4274
C:\Users\CYMR90~1\AppData\Local\Temp\ccxApcqi.s:29374  .debug_str:000000000001fafc .LASF4275
C:\Users\CYMR90~1\AppData\Local\Temp\ccxApcqi.s:26151  .debug_str:0000000000012cb7 .LASF4276
C:\Users\CYMR90~1\AppData\Local\Temp\ccxApcqi.s:30048  .debug_str:000000000002242a .LASF4277
C:\Users\CYMR90~1\AppData\Local\Temp\ccxApcqi.s:25991  .debug_str:0000000000012224 .LASF4278
C:\Users\CYMR90~1\AppData\Local\Temp\ccxApcqi.s:26701  .debug_str:0000000000014f5a .LASF4279
C:\Users\CYMR90~1\AppData\Local\Temp\ccxApcqi.s:32562  .debug_str:000000000002c673 .LASF4280
C:\Users\CYMR90~1\AppData\Local\Temp\ccxApcqi.s:31304  .debug_str:000000000002750e .LASF4281
C:\Users\CYMR90~1\AppData\Local\Temp\ccxApcqi.s:27063  .debug_str:00000000000165e7 .LASF4282
C:\Users\CYMR90~1\AppData\Local\Temp\ccxApcqi.s:25579  .debug_str:00000000000106a9 .LASF4283
C:\Users\CYMR90~1\AppData\Local\Temp\ccxApcqi.s:23743  .debug_str:0000000000009084 .LASF4284
C:\Users\CYMR90~1\AppData\Local\Temp\ccxApcqi.s:32088  .debug_str:000000000002a795 .LASF4285
C:\Users\CYMR90~1\AppData\Local\Temp\ccxApcqi.s:25525  .debug_str:000000000001036a .LASF4286
C:\Users\CYMR90~1\AppData\Local\Temp\ccxApcqi.s:26951  .debug_str:0000000000015ef0 .LASF4287
C:\Users\CYMR90~1\AppData\Local\Temp\ccxApcqi.s:30152  .debug_str:0000000000022a9b .LASF4288
C:\Users\CYMR90~1\AppData\Local\Temp\ccxApcqi.s:25281  .debug_str:000000000000f3e5 .LASF4289
C:\Users\CYMR90~1\AppData\Local\Temp\ccxApcqi.s:23093  .debug_str:0000000000006561 .LASF4290
C:\Users\CYMR90~1\AppData\Local\Temp\ccxApcqi.s:26997  .debug_str:00000000000161a9 .LASF4291
C:\Users\CYMR90~1\AppData\Local\Temp\ccxApcqi.s:31016  .debug_str:00000000000262d0 .LASF4292
C:\Users\CYMR90~1\AppData\Local\Temp\ccxApcqi.s:23687  .debug_str:0000000000008d64 .LASF4293
C:\Users\CYMR90~1\AppData\Local\Temp\ccxApcqi.s:27578  .debug_str:0000000000018763 .LASF4294
C:\Users\CYMR90~1\AppData\Local\Temp\ccxApcqi.s:24685  .debug_str:000000000000ce94 .LASF4295
C:\Users\CYMR90~1\AppData\Local\Temp\ccxApcqi.s:22551  .debug_str:00000000000043b9 .LASF4296
C:\Users\CYMR90~1\AppData\Local\Temp\ccxApcqi.s:26469  .debug_str:00000000000140d4 .LASF4297
C:\Users\CYMR90~1\AppData\Local\Temp\ccxApcqi.s:24641  .debug_str:000000000000cbbd .LASF4298
C:\Users\CYMR90~1\AppData\Local\Temp\ccxApcqi.s:23031  .debug_str:00000000000061d7 .LASF4299
C:\Users\CYMR90~1\AppData\Local\Temp\ccxApcqi.s:22175  .debug_str:0000000000002b05 .LASF4300
C:\Users\CYMR90~1\AppData\Local\Temp\ccxApcqi.s:32568  .debug_str:000000000002c6e3 .LASF4301
C:\Users\CYMR90~1\AppData\Local\Temp\ccxApcqi.s:23633  .debug_str:00000000000089da .LASF4302
C:\Users\CYMR90~1\AppData\Local\Temp\ccxApcqi.s:27508  .debug_str:0000000000018342 .LASF4303
C:\Users\CYMR90~1\AppData\Local\Temp\ccxApcqi.s:21929  .debug_str:0000000000001c43 .LASF4304
C:\Users\CYMR90~1\AppData\Local\Temp\ccxApcqi.s:28508  .debug_str:000000000001c48b .LASF4305
C:\Users\CYMR90~1\AppData\Local\Temp\ccxApcqi.s:26401  .debug_str:0000000000013c82 .LASF4306
C:\Users\CYMR90~1\AppData\Local\Temp\ccxApcqi.s:30324  .debug_str:00000000000234c7 .LASF4307
C:\Users\CYMR90~1\AppData\Local\Temp\ccxApcqi.s:26801  .debug_str:000000000001550d .LASF4308
C:\Users\CYMR90~1\AppData\Local\Temp\ccxApcqi.s:31478  .debug_str:0000000000028191 .LASF4309
C:\Users\CYMR90~1\AppData\Local\Temp\ccxApcqi.s:24803  .debug_str:000000000000d6a0 .LASF4310
C:\Users\CYMR90~1\AppData\Local\Temp\ccxApcqi.s:23539  .debug_str:00000000000083cd .LASF4311
C:\Users\CYMR90~1\AppData\Local\Temp\ccxApcqi.s:29420  .debug_str:000000000001fddd .LASF4312
C:\Users\CYMR90~1\AppData\Local\Temp\ccxApcqi.s:31362  .debug_str:0000000000027914 .LASF4313
C:\Users\CYMR90~1\AppData\Local\Temp\ccxApcqi.s:24023  .debug_str:000000000000a21b .LASF4314
C:\Users\CYMR90~1\AppData\Local\Temp\ccxApcqi.s:32384  .debug_str:000000000002ba42 .LASF4315
C:\Users\CYMR90~1\AppData\Local\Temp\ccxApcqi.s:23329  .debug_str:00000000000074e9 .LASF4316
C:\Users\CYMR90~1\AppData\Local\Temp\ccxApcqi.s:22895  .debug_str:0000000000005943 .LASF4317
C:\Users\CYMR90~1\AppData\Local\Temp\ccxApcqi.s:25971  .debug_str:0000000000012132 .LASF4318
C:\Users\CYMR90~1\AppData\Local\Temp\ccxApcqi.s:26849  .debug_str:00000000000157d8 .LASF4319
C:\Users\CYMR90~1\AppData\Local\Temp\ccxApcqi.s:23479  .debug_str:0000000000007fd3 .LASF4320
C:\Users\CYMR90~1\AppData\Local\Temp\ccxApcqi.s:27033  .debug_str:000000000001641e .LASF4321
C:\Users\CYMR90~1\AppData\Local\Temp\ccxApcqi.s:24011  .debug_str:000000000000a156 .LASF4322
C:\Users\CYMR90~1\AppData\Local\Temp\ccxApcqi.s:22157  .debug_str:00000000000029df .LASF4323
C:\Users\CYMR90~1\AppData\Local\Temp\ccxApcqi.s:29394  .debug_str:000000000001fc75 .LASF4324
C:\Users\CYMR90~1\AppData\Local\Temp\ccxApcqi.s:24211  .debug_str:000000000000aed4 .LASF4325
C:\Users\CYMR90~1\AppData\Local\Temp\ccxApcqi.s:22827  .debug_str:0000000000005544 .LASF4326
C:\Users\CYMR90~1\AppData\Local\Temp\ccxApcqi.s:23431  .debug_str:0000000000007b8a .LASF4327
C:\Users\CYMR90~1\AppData\Local\Temp\ccxApcqi.s:31784  .debug_str:00000000000295d9 .LASF4328
C:\Users\CYMR90~1\AppData\Local\Temp\ccxApcqi.s:23403  .debug_str:00000000000079f7 .LASF4329
C:\Users\CYMR90~1\AppData\Local\Temp\ccxApcqi.s:25183  .debug_str:000000000000edc7 .LASF4330
C:\Users\CYMR90~1\AppData\Local\Temp\ccxApcqi.s:23759  .debug_str:0000000000009179 .LASF4331
C:\Users\CYMR90~1\AppData\Local\Temp\ccxApcqi.s:30398  .debug_str:000000000002392a .LASF4332
C:\Users\CYMR90~1\AppData\Local\Temp\ccxApcqi.s:22603  .debug_str:0000000000004727 .LASF4333
C:\Users\CYMR90~1\AppData\Local\Temp\ccxApcqi.s:23183  .debug_str:0000000000006b20 .LASF4334
C:\Users\CYMR90~1\AppData\Local\Temp\ccxApcqi.s:32256  .debug_str:000000000002b205 .LASF4335
C:\Users\CYMR90~1\AppData\Local\Temp\ccxApcqi.s:22771  .debug_str:0000000000005204 .LASF4336
C:\Users\CYMR90~1\AppData\Local\Temp\ccxApcqi.s:24031  .debug_str:000000000000a2cb .LASF4337
C:\Users\CYMR90~1\AppData\Local\Temp\ccxApcqi.s:23339  .debug_str:000000000000759f .LASF4338
C:\Users\CYMR90~1\AppData\Local\Temp\ccxApcqi.s:28660  .debug_str:000000000001d01f .LASF4339
C:\Users\CYMR90~1\AppData\Local\Temp\ccxApcqi.s:30982  .debug_str:00000000000260ce .LASF4340
C:\Users\CYMR90~1\AppData\Local\Temp\ccxApcqi.s:28014  .debug_str:000000000001a557 .LASF4341
C:\Users\CYMR90~1\AppData\Local\Temp\ccxApcqi.s:24377  .debug_str:000000000000b9bc .LASF4342
C:\Users\CYMR90~1\AppData\Local\Temp\ccxApcqi.s:31730  .debug_str:000000000002921a .LASF4343
C:\Users\CYMR90~1\AppData\Local\Temp\ccxApcqi.s:24151  .debug_str:000000000000aa4d .LASF4344
C:\Users\CYMR90~1\AppData\Local\Temp\ccxApcqi.s:21495  .debug_str:000000000000016d .LASF4345
C:\Users\CYMR90~1\AppData\Local\Temp\ccxApcqi.s:30618  .debug_str:000000000002480c .LASF4346
C:\Users\CYMR90~1\AppData\Local\Temp\ccxApcqi.s:29820  .debug_str:000000000002167e .LASF4347
C:\Users\CYMR90~1\AppData\Local\Temp\ccxApcqi.s:27188  .debug_str:0000000000016fee .LASF4348
C:\Users\CYMR90~1\AppData\Local\Temp\ccxApcqi.s:31100  .debug_str:0000000000026830 .LASF4349
C:\Users\CYMR90~1\AppData\Local\Temp\ccxApcqi.s:27316  .debug_str:00000000000177d7 .LASF4350
C:\Users\CYMR90~1\AppData\Local\Temp\ccxApcqi.s:28096  .debug_str:000000000001aafa .LASF4351
C:\Users\CYMR90~1\AppData\Local\Temp\ccxApcqi.s:31062  .debug_str:00000000000265d1 .LASF4352
C:\Users\CYMR90~1\AppData\Local\Temp\ccxApcqi.s:24327  .debug_str:000000000000b693 .LASF4353
C:\Users\CYMR90~1\AppData\Local\Temp\ccxApcqi.s:28228  .debug_str:000000000001b3c1 .LASF4354
C:\Users\CYMR90~1\AppData\Local\Temp\ccxApcqi.s:30260  .debug_str:00000000000230af .LASF4355
C:\Users\CYMR90~1\AppData\Local\Temp\ccxApcqi.s:23201  .debug_str:0000000000006c6c .LASF4356
C:\Users\CYMR90~1\AppData\Local\Temp\ccxApcqi.s:27111  .debug_str:00000000000169ce .LASF4357
C:\Users\CYMR90~1\AppData\Local\Temp\ccxApcqi.s:31038  .debug_str:0000000000026431 .LASF4358
C:\Users\CYMR90~1\AppData\Local\Temp\ccxApcqi.s:22541  .debug_str:0000000000004311 .LASF4359
C:\Users\CYMR90~1\AppData\Local\Temp\ccxApcqi.s:27624  .debug_str:0000000000018b04 .LASF4360
C:\Users\CYMR90~1\AppData\Local\Temp\ccxApcqi.s:26267  .debug_str:00000000000134b1 .LASF4361
C:\Users\CYMR90~1\AppData\Local\Temp\ccxApcqi.s:28362  .debug_str:000000000001bbb6 .LASF4362
C:\Users\CYMR90~1\AppData\Local\Temp\ccxApcqi.s:28182  .debug_str:000000000001b0f4 .LASF4363
C:\Users\CYMR90~1\AppData\Local\Temp\ccxApcqi.s:26629  .debug_str:0000000000014a61 .LASF4364
C:\Users\CYMR90~1\AppData\Local\Temp\ccxApcqi.s:22543  .debug_str:0000000000004337 .LASF4365
C:\Users\CYMR90~1\AppData\Local\Temp\ccxApcqi.s:29548  .debug_str:00000000000205f5 .LASF4366
C:\Users\CYMR90~1\AppData\Local\Temp\ccxApcqi.s:25809  .debug_str:0000000000011561 .LASF4367
C:\Users\CYMR90~1\AppData\Local\Temp\ccxApcqi.s:29704  .debug_str:0000000000020ef8 .LASF4368
C:\Users\CYMR90~1\AppData\Local\Temp\ccxApcqi.s:22363  .debug_str:000000000000373e .LASF4369
C:\Users\CYMR90~1\AppData\Local\Temp\ccxApcqi.s:26285  .debug_str:00000000000135d6 .LASF4370
C:\Users\CYMR90~1\AppData\Local\Temp\ccxApcqi.s:29610  .debug_str:00000000000209bf .LASF4371
C:\Users\CYMR90~1\AppData\Local\Temp\ccxApcqi.s:28480  .debug_str:000000000001c2f9 .LASF4372
C:\Users\CYMR90~1\AppData\Local\Temp\ccxApcqi.s:27644  .debug_str:0000000000018c59 .LASF4373
C:\Users\CYMR90~1\AppData\Local\Temp\ccxApcqi.s:22239  .debug_str:0000000000002edf .LASF4374
C:\Users\CYMR90~1\AppData\Local\Temp\ccxApcqi.s:22539  .debug_str:00000000000042eb .LASF4375
C:\Users\CYMR90~1\AppData\Local\Temp\ccxApcqi.s:25757  .debug_str:00000000000111e2 .LASF4376
C:\Users\CYMR90~1\AppData\Local\Temp\ccxApcqi.s:29634  .debug_str:0000000000020b34 .LASF4377
C:\Users\CYMR90~1\AppData\Local\Temp\ccxApcqi.s:27606  .debug_str:000000000001891e .LASF4378
C:\Users\CYMR90~1\AppData\Local\Temp\ccxApcqi.s:26317  .debug_str:00000000000137b2 .LASF4379
C:\Users\CYMR90~1\AppData\Local\Temp\ccxApcqi.s:30146  .debug_str:0000000000022a39 .LASF4380
C:\Users\CYMR90~1\AppData\Local\Temp\ccxApcqi.s:32670  .debug_str:000000000002cd5c .LASF4381
C:\Users\CYMR90~1\AppData\Local\Temp\ccxApcqi.s:24127  .debug_str:000000000000a8a3 .LASF4382
C:\Users\CYMR90~1\AppData\Local\Temp\ccxApcqi.s:24785  .debug_str:000000000000d5a2 .LASF4383
C:\Users\CYMR90~1\AppData\Local\Temp\ccxApcqi.s:30280  .debug_str:00000000000231ca .LASF4384
C:\Users\CYMR90~1\AppData\Local\Temp\ccxApcqi.s:28832  .debug_str:000000000001da82 .LASF4385
C:\Users\CYMR90~1\AppData\Local\Temp\ccxApcqi.s:21549  .debug_str:000000000000049b .LASF4386
C:\Users\CYMR90~1\AppData\Local\Temp\ccxApcqi.s:22593  .debug_str:0000000000004687 .LASF4387
C:\Users\CYMR90~1\AppData\Local\Temp\ccxApcqi.s:24963  .debug_str:000000000000e064 .LASF4388
C:\Users\CYMR90~1\AppData\Local\Temp\ccxApcqi.s:23155  .debug_str:000000000000697a .LASF4389
C:\Users\CYMR90~1\AppData\Local\Temp\ccxApcqi.s:26339  .debug_str:00000000000138dd .LASF4390
C:\Users\CYMR90~1\AppData\Local\Temp\ccxApcqi.s:25969  .debug_str:000000000001210b .LASF4391
C:\Users\CYMR90~1\AppData\Local\Temp\ccxApcqi.s:22233  .debug_str:0000000000002e73 .LASF4392
C:\Users\CYMR90~1\AppData\Local\Temp\ccxApcqi.s:22793  .debug_str:000000000000533c .LASF4393
C:\Users\CYMR90~1\AppData\Local\Temp\ccxApcqi.s:22317  .debug_str:0000000000003420 .LASF4394
C:\Users\CYMR90~1\AppData\Local\Temp\ccxApcqi.s:21511  .debug_str:0000000000000253 .LASF4395
C:\Users\CYMR90~1\AppData\Local\Temp\ccxApcqi.s:23753  .debug_str:0000000000009119 .LASF4396
C:\Users\CYMR90~1\AppData\Local\Temp\ccxApcqi.s:27085  .debug_str:00000000000167b2 .LASF4397
C:\Users\CYMR90~1\AppData\Local\Temp\ccxApcqi.s:22223  .debug_str:0000000000002de8 .LASF4398
C:\Users\CYMR90~1\AppData\Local\Temp\ccxApcqi.s:31122  .debug_str:000000000002696c .LASF4399
C:\Users\CYMR90~1\AppData\Local\Temp\ccxApcqi.s:26955  .debug_str:0000000000015f31 .LASF4400
C:\Users\CYMR90~1\AppData\Local\Temp\ccxApcqi.s:27618  .debug_str:0000000000018a77 .LASF4401
C:\Users\CYMR90~1\AppData\Local\Temp\ccxApcqi.s:30292  .debug_str:000000000002329a .LASF4402
C:\Users\CYMR90~1\AppData\Local\Temp\ccxApcqi.s:30074  .debug_str:00000000000225cb .LASF4403
C:\Users\CYMR90~1\AppData\Local\Temp\ccxApcqi.s:26169  .debug_str:0000000000012dcb .LASF4404
C:\Users\CYMR90~1\AppData\Local\Temp\ccxApcqi.s:31778  .debug_str:0000000000029562 .LASF4405
C:\Users\CYMR90~1\AppData\Local\Temp\ccxApcqi.s:32004  .debug_str:000000000002a285 .LASF4406
C:\Users\CYMR90~1\AppData\Local\Temp\ccxApcqi.s:28728  .debug_str:000000000001d40f .LASF4407
C:\Users\CYMR90~1\AppData\Local\Temp\ccxApcqi.s:30888  .debug_str:0000000000025ad5 .LASF4408
C:\Users\CYMR90~1\AppData\Local\Temp\ccxApcqi.s:25705  .debug_str:0000000000010e92 .LASF4409
C:\Users\CYMR90~1\AppData\Local\Temp\ccxApcqi.s:28882  .debug_str:000000000001ddad .LASF4410
C:\Users\CYMR90~1\AppData\Local\Temp\ccxApcqi.s:23921  .debug_str:0000000000009bc7 .LASF4411
C:\Users\CYMR90~1\AppData\Local\Temp\ccxApcqi.s:28148  .debug_str:000000000001ae9f .LASF4412
C:\Users\CYMR90~1\AppData\Local\Temp\ccxApcqi.s:28726  .debug_str:000000000001d3ea .LASF4413
C:\Users\CYMR90~1\AppData\Local\Temp\ccxApcqi.s:24303  .debug_str:000000000000b4de .LASF4414
C:\Users\CYMR90~1\AppData\Local\Temp\ccxApcqi.s:27296  .debug_str:000000000001766f .LASF4415
C:\Users\CYMR90~1\AppData\Local\Temp\ccxApcqi.s:28428  .debug_str:000000000001c004 .LASF4416
C:\Users\CYMR90~1\AppData\Local\Temp\ccxApcqi.s:26101  .debug_str:0000000000012981 .LASF4417
C:\Users\CYMR90~1\AppData\Local\Temp\ccxApcqi.s:29592  .debug_str:0000000000020895 .LASF4418
C:\Users\CYMR90~1\AppData\Local\Temp\ccxApcqi.s:24237  .debug_str:000000000000b06d .LASF4419
C:\Users\CYMR90~1\AppData\Local\Temp\ccxApcqi.s:22993  .debug_str:0000000000005f5a .LASF4420
C:\Users\CYMR90~1\AppData\Local\Temp\ccxApcqi.s:26799  .debug_str:00000000000154e8 .LASF4421
C:\Users\CYMR90~1\AppData\Local\Temp\ccxApcqi.s:26149  .debug_str:0000000000012c92 .LASF4422
C:\Users\CYMR90~1\AppData\Local\Temp\ccxApcqi.s:32382  .debug_str:000000000002ba2b .LASF4423
C:\Users\CYMR90~1\AppData\Local\Temp\ccxApcqi.s:27744  .debug_str:0000000000019322 .LASF4424
C:\Users\CYMR90~1\AppData\Local\Temp\ccxApcqi.s:27294  .debug_str:0000000000017657 .LASF4425
C:\Users\CYMR90~1\AppData\Local\Temp\ccxApcqi.s:28752  .debug_str:000000000001d5c1 .LASF4426
C:\Users\CYMR90~1\AppData\Local\Temp\ccxApcqi.s:30406  .debug_str:000000000002399a .LASF4427
C:\Users\CYMR90~1\AppData\Local\Temp\ccxApcqi.s:22825  .debug_str:000000000000552b .LASF4428
C:\Users\CYMR90~1\AppData\Local\Temp\ccxApcqi.s:21791  .debug_str:0000000000001394 .LASF4429
C:\Users\CYMR90~1\AppData\Local\Temp\ccxApcqi.s:29064  .debug_str:000000000001e8bd .LASF4430
C:\Users\CYMR90~1\AppData\Local\Temp\ccxApcqi.s:29778  .debug_str:00000000000213f4 .LASF4431
C:\Users\CYMR90~1\AppData\Local\Temp\ccxApcqi.s:31950  .debug_str:0000000000029f52 .LASF4432
C:\Users\CYMR90~1\AppData\Local\Temp\ccxApcqi.s:25825  .debug_str:0000000000011659 .LASF4433
C:\Users\CYMR90~1\AppData\Local\Temp\ccxApcqi.s:31608  .debug_str:0000000000028a10 .LASF4434
C:\Users\CYMR90~1\AppData\Local\Temp\ccxApcqi.s:26593  .debug_str:0000000000014843 .LASF4435
C:\Users\CYMR90~1\AppData\Local\Temp\ccxApcqi.s:24199  .debug_str:000000000000ae21 .LASF4436
C:\Users\CYMR90~1\AppData\Local\Temp\ccxApcqi.s:29556  .debug_str:0000000000020665 .LASF4437
C:\Users\CYMR90~1\AppData\Local\Temp\ccxApcqi.s:29400  .debug_str:000000000001fcd0 .LASF4438
C:\Users\CYMR90~1\AppData\Local\Temp\ccxApcqi.s:27210  .debug_str:0000000000017143 .LASF4439
C:\Users\CYMR90~1\AppData\Local\Temp\ccxApcqi.s:30370  .debug_str:00000000000237a6 .LASF4440
C:\Users\CYMR90~1\AppData\Local\Temp\ccxApcqi.s:31192  .debug_str:0000000000026dd3 .LASF4441
C:\Users\CYMR90~1\AppData\Local\Temp\ccxApcqi.s:26627  .debug_str:0000000000014a4d .LASF4442
C:\Users\CYMR90~1\AppData\Local\Temp\ccxApcqi.s:28968  .debug_str:000000000001e2cf .LASF4443
C:\Users\CYMR90~1\AppData\Local\Temp\ccxApcqi.s:24609  .debug_str:000000000000ca06 .LASF4444
C:\Users\CYMR90~1\AppData\Local\Temp\ccxApcqi.s:26409  .debug_str:0000000000013cf5 .LASF4445
C:\Users\CYMR90~1\AppData\Local\Temp\ccxApcqi.s:28800  .debug_str:000000000001d8ae .LASF4446
C:\Users\CYMR90~1\AppData\Local\Temp\ccxApcqi.s:26177  .debug_str:0000000000012e52 .LASF4447
C:\Users\CYMR90~1\AppData\Local\Temp\ccxApcqi.s:29624  .debug_str:0000000000020ab4 .LASF4448
C:\Users\CYMR90~1\AppData\Local\Temp\ccxApcqi.s:25155  .debug_str:000000000000ec61 .LASF4449
C:\Users\CYMR90~1\AppData\Local\Temp\ccxApcqi.s:28750  .debug_str:000000000001d5ac .LASF4450
C:\Users\CYMR90~1\AppData\Local\Temp\ccxApcqi.s:22601  .debug_str:0000000000004713 .LASF4451
C:\Users\CYMR90~1\AppData\Local\Temp\ccxApcqi.s:29808  .debug_str:00000000000215dc .LASF4452
C:\Users\CYMR90~1\AppData\Local\Temp\ccxApcqi.s:28468  .debug_str:000000000001c269 .LASF4453
C:\Users\CYMR90~1\AppData\Local\Temp\ccxApcqi.s:23561  .debug_str:000000000000853b .LASF4454
C:\Users\CYMR90~1\AppData\Local\Temp\ccxApcqi.s:32082  .debug_str:000000000002a75a .LASF4455
C:\Users\CYMR90~1\AppData\Local\Temp\ccxApcqi.s:23415  .debug_str:0000000000007aad .LASF4456
C:\Users\CYMR90~1\AppData\Local\Temp\ccxApcqi.s:21561  .debug_str:0000000000000557 .LASF4457
C:\Users\CYMR90~1\AppData\Local\Temp\ccxApcqi.s:30610  .debug_str:00000000000247a3 .LASF4458
C:\Users\CYMR90~1\AppData\Local\Temp\ccxApcqi.s:27526  .debug_str:000000000001843f .LASF4459
C:\Users\CYMR90~1\AppData\Local\Temp\ccxApcqi.s:27160  .debug_str:0000000000016e72 .LASF4460
C:\Users\CYMR90~1\AppData\Local\Temp\ccxApcqi.s:30216  .debug_str:0000000000022e2d .LASF4461
C:\Users\CYMR90~1\AppData\Local\Temp\ccxApcqi.s:31898  .debug_str:0000000000029c66 .LASF4462
C:\Users\CYMR90~1\AppData\Local\Temp\ccxApcqi.s:24463  .debug_str:000000000000bfef .LASF4463
C:\Users\CYMR90~1\AppData\Local\Temp\ccxApcqi.s:23015  .debug_str:00000000000060ff .LASF4464
C:\Users\CYMR90~1\AppData\Local\Temp\ccxApcqi.s:22651  .debug_str:0000000000004aad .LASF4465
C:\Users\CYMR90~1\AppData\Local\Temp\ccxApcqi.s:30960  .debug_str:0000000000025f8c .LASF4466
C:\Users\CYMR90~1\AppData\Local\Temp\ccxApcqi.s:24855  .debug_str:000000000000d98b .LASF4467
C:\Users\CYMR90~1\AppData\Local\Temp\ccxApcqi.s:26259  .debug_str:0000000000013429 .LASF4468
C:\Users\CYMR90~1\AppData\Local\Temp\ccxApcqi.s:23625  .debug_str:0000000000008966 .LASF4469
C:\Users\CYMR90~1\AppData\Local\Temp\ccxApcqi.s:26807  .debug_str:000000000001555e .LASF4470
C:\Users\CYMR90~1\AppData\Local\Temp\ccxApcqi.s:30748  .debug_str:000000000002517b .LASF4471
C:\Users\CYMR90~1\AppData\Local\Temp\ccxApcqi.s:22085  .debug_str:00000000000024fa .LASF4472
C:\Users\CYMR90~1\AppData\Local\Temp\ccxApcqi.s:25201  .debug_str:000000000000eee8 .LASF4473
C:\Users\CYMR90~1\AppData\Local\Temp\ccxApcqi.s:21699  .debug_str:0000000000000dd9 .LASF4474
C:\Users\CYMR90~1\AppData\Local\Temp\ccxApcqi.s:25659  .debug_str:0000000000010c38 .LASF4475
C:\Users\CYMR90~1\AppData\Local\Temp\ccxApcqi.s:24347  .debug_str:000000000000b7b6 .LASF4476
C:\Users\CYMR90~1\AppData\Local\Temp\ccxApcqi.s:29324  .debug_str:000000000001f806 .LASF4477
C:\Users\CYMR90~1\AppData\Local\Temp\ccxApcqi.s:28298  .debug_str:000000000001b7da .LASF4478
C:\Users\CYMR90~1\AppData\Local\Temp\ccxApcqi.s:26067  .debug_str:0000000000012720 .LASF4479
C:\Users\CYMR90~1\AppData\Local\Temp\ccxApcqi.s:25551  .debug_str:0000000000010511 .LASF4480
C:\Users\CYMR90~1\AppData\Local\Temp\ccxApcqi.s:28700  .debug_str:000000000001d243 .LASF4481
C:\Users\CYMR90~1\AppData\Local\Temp\ccxApcqi.s:24583  .debug_str:000000000000c7db .LASF4482
C:\Users\CYMR90~1\AppData\Local\Temp\ccxApcqi.s:32066  .debug_str:000000000002a675 .LASF4483
C:\Users\CYMR90~1\AppData\Local\Temp\ccxApcqi.s:27982  .debug_str:000000000001a3a8 .LASF4484
C:\Users\CYMR90~1\AppData\Local\Temp\ccxApcqi.s:30184  .debug_str:0000000000022c60 .LASF4485
C:\Users\CYMR90~1\AppData\Local\Temp\ccxApcqi.s:31738  .debug_str:00000000000292a1 .LASF4486
C:\Users\CYMR90~1\AppData\Local\Temp\ccxApcqi.s:27049  .debug_str:000000000001650f .LASF4487
C:\Users\CYMR90~1\AppData\Local\Temp\ccxApcqi.s:27714  .debug_str:0000000000019148 .LASF4488
C:\Users\CYMR90~1\AppData\Local\Temp\ccxApcqi.s:22823  .debug_str:0000000000005512 .LASF4489
C:\Users\CYMR90~1\AppData\Local\Temp\ccxApcqi.s:26485  .debug_str:00000000000141d2 .LASF4490
C:\Users\CYMR90~1\AppData\Local\Temp\ccxApcqi.s:25441  .debug_str:000000000000fe6a .LASF4491
C:\Users\CYMR90~1\AppData\Local\Temp\ccxApcqi.s:28602  .debug_str:000000000001cb5a .LASF4492
C:\Users\CYMR90~1\AppData\Local\Temp\ccxApcqi.s:29900  .debug_str:0000000000021b87 .LASF4493
C:\Users\CYMR90~1\AppData\Local\Temp\ccxApcqi.s:24815  .debug_str:000000000000d75e .LASF4494
C:\Users\CYMR90~1\AppData\Local\Temp\ccxApcqi.s:32228  .debug_str:000000000002b01c .LASF4495
C:\Users\CYMR90~1\AppData\Local\Temp\ccxApcqi.s:24365  .debug_str:000000000000b90f .LASF4496
C:\Users\CYMR90~1\AppData\Local\Temp\ccxApcqi.s:29508  .debug_str:0000000000020395 .LASF4497
C:\Users\CYMR90~1\AppData\Local\Temp\ccxApcqi.s:26913  .debug_str:0000000000015c15 .LASF4498
C:\Users\CYMR90~1\AppData\Local\Temp\ccxApcqi.s:30358  .debug_str:00000000000236d9 .LASF4499
C:\Users\CYMR90~1\AppData\Local\Temp\ccxApcqi.s:32198  .debug_str:000000000002ae13 .LASF4500
C:\Users\CYMR90~1\AppData\Local\Temp\ccxApcqi.s:29700  .debug_str:0000000000020eb5 .LASF4501
C:\Users\CYMR90~1\AppData\Local\Temp\ccxApcqi.s:30046  .debug_str:0000000000022412 .LASF4502
C:\Users\CYMR90~1\AppData\Local\Temp\ccxApcqi.s:27037  .debug_str:0000000000016462 .LASF4503
C:\Users\CYMR90~1\AppData\Local\Temp\ccxApcqi.s:23237  .debug_str:0000000000006ed5 .LASF4504
C:\Users\CYMR90~1\AppData\Local\Temp\ccxApcqi.s:30786  .debug_str:000000000002541b .LASF4505
C:\Users\CYMR90~1\AppData\Local\Temp\ccxApcqi.s:28034  .debug_str:000000000001a723 .LASF4506
C:\Users\CYMR90~1\AppData\Local\Temp\ccxApcqi.s:21695  .debug_str:0000000000000d9b .LASF4507
C:\Users\CYMR90~1\AppData\Local\Temp\ccxApcqi.s:30020  .debug_str:0000000000022276 .LASF4508
C:\Users\CYMR90~1\AppData\Local\Temp\ccxApcqi.s:31722  .debug_str:00000000000291ad .LASF4509
C:\Users\CYMR90~1\AppData\Local\Temp\ccxApcqi.s:22165  .debug_str:0000000000002a50 .LASF4510
C:\Users\CYMR90~1\AppData\Local\Temp\ccxApcqi.s:25133  .debug_str:000000000000eb43 .LASF4511
C:\Users\CYMR90~1\AppData\Local\Temp\ccxApcqi.s:28960  .debug_str:000000000001e25f .LASF4512
C:\Users\CYMR90~1\AppData\Local\Temp\ccxApcqi.s:24617  .debug_str:000000000000ca7f .LASF4513
C:\Users\CYMR90~1\AppData\Local\Temp\ccxApcqi.s:26383  .debug_str:0000000000013bb4 .LASF4514
C:\Users\CYMR90~1\AppData\Local\Temp\ccxApcqi.s:30700  .debug_str:0000000000024d76 .LASF4515
C:\Users\CYMR90~1\AppData\Local\Temp\ccxApcqi.s:31688  .debug_str:0000000000028f30 .LASF4516
C:\Users\CYMR90~1\AppData\Local\Temp\ccxApcqi.s:26389  .debug_str:0000000000013bf8 .LASF4517
C:\Users\CYMR90~1\AppData\Local\Temp\ccxApcqi.s:22945  .debug_str:0000000000005c8c .LASF4518
C:\Users\CYMR90~1\AppData\Local\Temp\ccxApcqi.s:22531  .debug_str:0000000000004257 .LASF4519
C:\Users\CYMR90~1\AppData\Local\Temp\ccxApcqi.s:29816  .debug_str:000000000002164c .LASF4520
C:\Users\CYMR90~1\AppData\Local\Temp\ccxApcqi.s:29340  .debug_str:000000000001f904 .LASF4521
C:\Users\CYMR90~1\AppData\Local\Temp\ccxApcqi.s:22625  .debug_str:0000000000004918 .LASF4522
C:\Users\CYMR90~1\AppData\Local\Temp\ccxApcqi.s:29604  .debug_str:0000000000020965 .LASF4523
C:\Users\CYMR90~1\AppData\Local\Temp\ccxApcqi.s:31014  .debug_str:00000000000262b9 .LASF4524
C:\Users\CYMR90~1\AppData\Local\Temp\ccxApcqi.s:32186  .debug_str:000000000002ad69 .LASF4525
C:\Users\CYMR90~1\AppData\Local\Temp\ccxApcqi.s:30932  .debug_str:0000000000025dc7 .LASF4526
C:\Users\CYMR90~1\AppData\Local\Temp\ccxApcqi.s:21843  .debug_str:0000000000001683 .LASF4527
C:\Users\CYMR90~1\AppData\Local\Temp\ccxApcqi.s:28932  .debug_str:000000000001e0b0 .LASF4528
C:\Users\CYMR90~1\AppData\Local\Temp\ccxApcqi.s:31234  .debug_str:0000000000027118 .LASF4529
C:\Users\CYMR90~1\AppData\Local\Temp\ccxApcqi.s:24049  .debug_str:000000000000a411 .LASF4530
C:\Users\CYMR90~1\AppData\Local\Temp\ccxApcqi.s:32528  .debug_str:000000000002c43e .LASF4531
C:\Users\CYMR90~1\AppData\Local\Temp\ccxApcqi.s:31886  .debug_str:0000000000029bc3 .LASF4532
C:\Users\CYMR90~1\AppData\Local\Temp\ccxApcqi.s:23421  .debug_str:0000000000007b07 .LASF4533
C:\Users\CYMR90~1\AppData\Local\Temp\ccxApcqi.s:22515  .debug_str:000000000000417c .LASF4534
C:\Users\CYMR90~1\AppData\Local\Temp\ccxApcqi.s:31096  .debug_str:00000000000267e8 .LASF4535
C:\Users\CYMR90~1\AppData\Local\Temp\ccxApcqi.s:28484  .debug_str:000000000001c342 .LASF4536
C:\Users\CYMR90~1\AppData\Local\Temp\ccxApcqi.s:31070  .debug_str:000000000002664f .LASF4537
C:\Users\CYMR90~1\AppData\Local\Temp\ccxApcqi.s:26421  .debug_str:0000000000013db1 .LASF4538
C:\Users\CYMR90~1\AppData\Local\Temp\ccxApcqi.s:25333  .debug_str:000000000000f7aa .LASF4539
C:\Users\CYMR90~1\AppData\Local\Temp\ccxApcqi.s:29034  .debug_str:000000000001e70d .LASF4540
C:\Users\CYMR90~1\AppData\Local\Temp\ccxApcqi.s:22879  .debug_str:000000000000587e .LASF4541
C:\Users\CYMR90~1\AppData\Local\Temp\ccxApcqi.s:30236  .debug_str:0000000000022f30 .LASF4542
C:\Users\CYMR90~1\AppData\Local\Temp\ccxApcqi.s:22691  .debug_str:0000000000004d50 .LASF4543
C:\Users\CYMR90~1\AppData\Local\Temp\ccxApcqi.s:22047  .debug_str:00000000000022e2 .LASF4544
C:\Users\CYMR90~1\AppData\Local\Temp\ccxApcqi.s:22251  .debug_str:0000000000002f95 .LASF4545
C:\Users\CYMR90~1\AppData\Local\Temp\ccxApcqi.s:30896  .debug_str:0000000000025b6a .LASF4546
C:\Users\CYMR90~1\AppData\Local\Temp\ccxApcqi.s:26815  .debug_str:00000000000155ca .LASF4547
C:\Users\CYMR90~1\AppData\Local\Temp\ccxApcqi.s:32678  .debug_str:000000000002ce14 .LASF4548
C:\Users\CYMR90~1\AppData\Local\Temp\ccxApcqi.s:23729  .debug_str:0000000000008fa6 .LASF4549
C:\Users\CYMR90~1\AppData\Local\Temp\ccxApcqi.s:31484  .debug_str:00000000000281fd .LASF4550
C:\Users\CYMR90~1\AppData\Local\Temp\ccxApcqi.s:32676  .debug_str:000000000002cddb .LASF4551
C:\Users\CYMR90~1\AppData\Local\Temp\ccxApcqi.s:28866  .debug_str:000000000001dc9d .LASF4552
C:\Users\CYMR90~1\AppData\Local\Temp\ccxApcqi.s:23191  .debug_str:0000000000006bb5 .LASF4553
C:\Users\CYMR90~1\AppData\Local\Temp\ccxApcqi.s:22665  .debug_str:0000000000004ba9 .LASF4554
C:\Users\CYMR90~1\AppData\Local\Temp\ccxApcqi.s:25759  .debug_str:0000000000011208 .LASF4555
C:\Users\CYMR90~1\AppData\Local\Temp\ccxApcqi.s:32326  .debug_str:000000000002b6ba .LASF4556
C:\Users\CYMR90~1\AppData\Local\Temp\ccxApcqi.s:26203  .debug_str:0000000000013010 .LASF4557
C:\Users\CYMR90~1\AppData\Local\Temp\ccxApcqi.s:31952  .debug_str:0000000000029f6b .LASF4558
C:\Users\CYMR90~1\AppData\Local\Temp\ccxApcqi.s:31044  .debug_str:0000000000026499 .LASF4559
C:\Users\CYMR90~1\AppData\Local\Temp\ccxApcqi.s:25407  .debug_str:000000000000fc0d .LASF4560
C:\Users\CYMR90~1\AppData\Local\Temp\ccxApcqi.s:31782  .debug_str:000000000002959e .LASF4561
C:\Users\CYMR90~1\AppData\Local\Temp\ccxApcqi.s:28390  .debug_str:000000000001bd99 .LASF4562
C:\Users\CYMR90~1\AppData\Local\Temp\ccxApcqi.s:27862  .debug_str:0000000000019b0f .LASF4563
C:\Users\CYMR90~1\AppData\Local\Temp\ccxApcqi.s:23477  .debug_str:0000000000007fba .LASF4564
C:\Users\CYMR90~1\AppData\Local\Temp\ccxApcqi.s:28568  .debug_str:000000000001c93b .LASF4565
C:\Users\CYMR90~1\AppData\Local\Temp\ccxApcqi.s:28166  .debug_str:000000000001afbb .LASF4566
C:\Users\CYMR90~1\AppData\Local\Temp\ccxApcqi.s:30084  .debug_str:0000000000022646 .LASF4567
C:\Users\CYMR90~1\AppData\Local\Temp\ccxApcqi.s:31000  .debug_str:00000000000261d7 .LASF4568
C:\Users\CYMR90~1\AppData\Local\Temp\ccxApcqi.s:21957  .debug_str:0000000000001de9 .LASF4569
C:\Users\CYMR90~1\AppData\Local\Temp\ccxApcqi.s:26987  .debug_str:00000000000160fb .LASF4570
C:\Users\CYMR90~1\AppData\Local\Temp\ccxApcqi.s:22263  .debug_str:0000000000003090 .LASF4571
C:\Users\CYMR90~1\AppData\Local\Temp\ccxApcqi.s:21945  .debug_str:0000000000001d31 .LASF4572
C:\Users\CYMR90~1\AppData\Local\Temp\ccxApcqi.s:29044  .debug_str:000000000001e79b .LASF4573
C:\Users\CYMR90~1\AppData\Local\Temp\ccxApcqi.s:21751  .debug_str:000000000000115a .LASF4574
C:\Users\CYMR90~1\AppData\Local\Temp\ccxApcqi.s:30728  .debug_str:0000000000024f91 .LASF4575
C:\Users\CYMR90~1\AppData\Local\Temp\ccxApcqi.s:23583  .debug_str:000000000000866d .LASF4576
C:\Users\CYMR90~1\AppData\Local\Temp\ccxApcqi.s:28672  .debug_str:000000000001d0da .LASF4577
C:\Users\CYMR90~1\AppData\Local\Temp\ccxApcqi.s:28690  .debug_str:000000000001d1ac .LASF4578
C:\Users\CYMR90~1\AppData\Local\Temp\ccxApcqi.s:29644  .debug_str:0000000000020bc2 .LASF4579
C:\Users\CYMR90~1\AppData\Local\Temp\ccxApcqi.s:28108  .debug_str:000000000001abb3 .LASF4580
C:\Users\CYMR90~1\AppData\Local\Temp\ccxApcqi.s:22915  .debug_str:0000000000005ac2 .LASF4581
C:\Users\CYMR90~1\AppData\Local\Temp\ccxApcqi.s:31446  .debug_str:0000000000027f0b .LASF4582
C:\Users\CYMR90~1\AppData\Local\Temp\ccxApcqi.s:30364  .debug_str:0000000000023755 .LASF4583
C:\Users\CYMR90~1\AppData\Local\Temp\ccxApcqi.s:26709  .debug_str:0000000000014fc6 .LASF4584
C:\Users\CYMR90~1\AppData\Local\Temp\ccxApcqi.s:28802  .debug_str:000000000001d8c3 .LASF4585
C:\Users\CYMR90~1\AppData\Local\Temp\ccxApcqi.s:22229  .debug_str:0000000000002e37 .LASF4586
C:\Users\CYMR90~1\AppData\Local\Temp\ccxApcqi.s:21499  .debug_str:00000000000001c1 .LASF4587
C:\Users\CYMR90~1\AppData\Local\Temp\ccxApcqi.s:27814  .debug_str:00000000000197ea .LASF4588
C:\Users\CYMR90~1\AppData\Local\Temp\ccxApcqi.s:25607  .debug_str:0000000000010856 .LASF4589
C:\Users\CYMR90~1\AppData\Local\Temp\ccxApcqi.s:22529  .debug_str:000000000000423f .LASF4590
C:\Users\CYMR90~1\AppData\Local\Temp\ccxApcqi.s:24527  .debug_str:000000000000c3b1 .LASF4591
C:\Users\CYMR90~1\AppData\Local\Temp\ccxApcqi.s:31056  .debug_str:000000000002657e .LASF4592
C:\Users\CYMR90~1\AppData\Local\Temp\ccxApcqi.s:21523  .debug_str:000000000000033e .LASF4593
C:\Users\CYMR90~1\AppData\Local\Temp\ccxApcqi.s:21569  .debug_str:00000000000005a5 .LASF4594
C:\Users\CYMR90~1\AppData\Local\Temp\ccxApcqi.s:31704  .debug_str:000000000002901e .LASF4595
C:\Users\CYMR90~1\AppData\Local\Temp\ccxApcqi.s:22561  .debug_str:000000000000446a .LASF4596
C:\Users\CYMR90~1\AppData\Local\Temp\ccxApcqi.s:24191  .debug_str:000000000000acf1 .LASF4597
C:\Users\CYMR90~1\AppData\Local\Temp\ccxApcqi.s:21541  .debug_str:000000000000043a .LASF4598
C:\Users\CYMR90~1\AppData\Local\Temp\ccxApcqi.s:29022  .debug_str:000000000001e64b .LASF4599
C:\Users\CYMR90~1\AppData\Local\Temp\ccxApcqi.s:27172  .debug_str:0000000000016f20 .LASF4600
C:\Users\CYMR90~1\AppData\Local\Temp\ccxApcqi.s:22097  .debug_str:00000000000025d6 .LASF4601
C:\Users\CYMR90~1\AppData\Local\Temp\ccxApcqi.s:31162  .debug_str:0000000000026c07 .LASF4602
C:\Users\CYMR90~1\AppData\Local\Temp\ccxApcqi.s:32484  .debug_str:000000000002c168 .LASF4603
C:\Users\CYMR90~1\AppData\Local\Temp\ccxApcqi.s:29474  .debug_str:00000000000200bc .LASF4604
C:\Users\CYMR90~1\AppData\Local\Temp\ccxApcqi.s:24523  .debug_str:000000000000c367 .LASF4605
C:\Users\CYMR90~1\AppData\Local\Temp\ccxApcqi.s:30092  .debug_str:00000000000226b5 .LASF4606
C:\Users\CYMR90~1\AppData\Local\Temp\ccxApcqi.s:24427  .debug_str:000000000000bd93 .LASF4607
C:\Users\CYMR90~1\AppData\Local\Temp\ccxApcqi.s:30082  .debug_str:0000000000022628 .LASF4608
C:\Users\CYMR90~1\AppData\Local\Temp\ccxApcqi.s:31598  .debug_str:0000000000028979 .LASF4609
C:\Users\CYMR90~1\AppData\Local\Temp\ccxApcqi.s:22959  .debug_str:0000000000005d68 .LASF4610
C:\Users\CYMR90~1\AppData\Local\Temp\ccxApcqi.s:25721  .debug_str:0000000000010f8f .LASF4611
C:\Users\CYMR90~1\AppData\Local\Temp\ccxApcqi.s:24899  .debug_str:000000000000dc35 .LASF4612
C:\Users\CYMR90~1\AppData\Local\Temp\ccxApcqi.s:22615  .debug_str:000000000000487e .LASF4613
C:\Users\CYMR90~1\AppData\Local\Temp\ccxApcqi.s:23871  .debug_str:00000000000098a9 .LASF4614
C:\Users\CYMR90~1\AppData\Local\Temp\ccxApcqi.s:26379  .debug_str:0000000000013b54 .LASF4615
C:\Users\CYMR90~1\AppData\Local\Temp\ccxApcqi.s:22437  .debug_str:0000000000003be0 .LASF4616
C:\Users\CYMR90~1\AppData\Local\Temp\ccxApcqi.s:23185  .debug_str:0000000000006b46 .LASF4617
C:\Users\CYMR90~1\AppData\Local\Temp\ccxApcqi.s:21475  .debug_str:000000000000002e .LASF4618
C:\Users\CYMR90~1\AppData\Local\Temp\ccxApcqi.s:25707  .debug_str:0000000000010eb6 .LASF4619
C:\Users\CYMR90~1\AppData\Local\Temp\ccxApcqi.s:28066  .debug_str:000000000001a8fa .LASF4620
C:\Users\CYMR90~1\AppData\Local\Temp\ccxApcqi.s:27113  .debug_str:00000000000169f4 .LASF4621
C:\Users\CYMR90~1\AppData\Local\Temp\ccxApcqi.s:30970  .debug_str:0000000000025ff3 .LASF4622
C:\Users\CYMR90~1\AppData\Local\Temp\ccxApcqi.s:30592  .debug_str:00000000000246a3 .LASF4623
C:\Users\CYMR90~1\AppData\Local\Temp\ccxApcqi.s:24999  .debug_str:000000000000e28e .LASF4624
C:\Users\CYMR90~1\AppData\Local\Temp\ccxApcqi.s:29144  .debug_str:000000000001ed15 .LASF4625
C:\Users\CYMR90~1\AppData\Local\Temp\ccxApcqi.s:26641  .debug_str:0000000000014b35 .LASF4626
C:\Users\CYMR90~1\AppData\Local\Temp\ccxApcqi.s:31772  .debug_str:00000000000294e3 .LASF4627
C:\Users\CYMR90~1\AppData\Local\Temp\ccxApcqi.s:27670  .debug_str:0000000000018da6 .LASF4628
C:\Users\CYMR90~1\AppData\Local\Temp\ccxApcqi.s:26231  .debug_str:00000000000131c4 .LASF4629
C:\Users\CYMR90~1\AppData\Local\Temp\ccxApcqi.s:22091  .debug_str:0000000000002540 .LASF4630
C:\Users\CYMR90~1\AppData\Local\Temp\ccxApcqi.s:29126  .debug_str:000000000001ebf2 .LASF4631
C:\Users\CYMR90~1\AppData\Local\Temp\ccxApcqi.s:24043  .debug_str:000000000000a384 .LASF4632
C:\Users\CYMR90~1\AppData\Local\Temp\ccxApcqi.s:21597  .debug_str:0000000000000787 .LASF4633
C:\Users\CYMR90~1\AppData\Local\Temp\ccxApcqi.s:28082  .debug_str:000000000001aa24 .LASF4634
C:\Users\CYMR90~1\AppData\Local\Temp\ccxApcqi.s:31368  .debug_str:0000000000027982 .LASF4635
C:\Users\CYMR90~1\AppData\Local\Temp\ccxApcqi.s:26783  .debug_str:00000000000153ea .LASF4636
C:\Users\CYMR90~1\AppData\Local\Temp\ccxApcqi.s:27734  .debug_str:0000000000019255 .LASF4637
C:\Users\CYMR90~1\AppData\Local\Temp\ccxApcqi.s:24419  .debug_str:000000000000bd0b .LASF4638
C:\Users\CYMR90~1\AppData\Local\Temp\ccxApcqi.s:27792  .debug_str:000000000001961f .LASF4639
C:\Users\CYMR90~1\AppData\Local\Temp\ccxApcqi.s:29702  .debug_str:0000000000020ecd .LASF4640
C:\Users\CYMR90~1\AppData\Local\Temp\ccxApcqi.s:27816  .debug_str:0000000000019825 .LASF4641
C:\Users\CYMR90~1\AppData\Local\Temp\ccxApcqi.s:22511  .debug_str:0000000000004133 .LASF4642
C:\Users\CYMR90~1\AppData\Local\Temp\ccxApcqi.s:24091  .debug_str:000000000000a64f .LASF4643
C:\Users\CYMR90~1\AppData\Local\Temp\ccxApcqi.s:24773  .debug_str:000000000000d4dc .LASF4644
C:\Users\CYMR90~1\AppData\Local\Temp\ccxApcqi.s:29544  .debug_str:00000000000205a2 .LASF4645
C:\Users\CYMR90~1\AppData\Local\Temp\ccxApcqi.s:29138  .debug_str:000000000001ecac .LASF4646
C:\Users\CYMR90~1\AppData\Local\Temp\ccxApcqi.s:24897  .debug_str:000000000000dbf9 .LASF4647
C:\Users\CYMR90~1\AppData\Local\Temp\ccxApcqi.s:28184  .debug_str:000000000001b11a .LASF4648
C:\Users\CYMR90~1\AppData\Local\Temp\ccxApcqi.s:32000  .debug_str:000000000002a232 .LASF4649
C:\Users\CYMR90~1\AppData\Local\Temp\ccxApcqi.s:25627  .debug_str:00000000000109c6 .LASF4650
C:\Users\CYMR90~1\AppData\Local\Temp\ccxApcqi.s:26345  .debug_str:000000000001392a .LASF4651
C:\Users\CYMR90~1\AppData\Local\Temp\ccxApcqi.s:29986  .debug_str:00000000000220b8 .LASF4652
C:\Users\CYMR90~1\AppData\Local\Temp\ccxApcqi.s:32106  .debug_str:000000000002a8ae .LASF4653
C:\Users\CYMR90~1\AppData\Local\Temp\ccxApcqi.s:25409  .debug_str:000000000000fc39 .LASF4654
C:\Users\CYMR90~1\AppData\Local\Temp\ccxApcqi.s:30050  .debug_str:0000000000022450 .LASF4655
C:\Users\CYMR90~1\AppData\Local\Temp\ccxApcqi.s:32344  .debug_str:000000000002b7b2 .LASF4656
C:\Users\CYMR90~1\AppData\Local\Temp\ccxApcqi.s:30546  .debug_str:0000000000024327 .LASF4657
C:\Users\CYMR90~1\AppData\Local\Temp\ccxApcqi.s:27053  .debug_str:000000000001654c .LASF4658
C:\Users\CYMR90~1\AppData\Local\Temp\ccxApcqi.s:28534  .debug_str:000000000001c6f6 .LASF4659
C:\Users\CYMR90~1\AppData\Local\Temp\ccxApcqi.s:27842  .debug_str:00000000000199c5 .LASF4660
C:\Users\CYMR90~1\AppData\Local\Temp\ccxApcqi.s:25547  .debug_str:00000000000104b7 .LASF4661
C:\Users\CYMR90~1\AppData\Local\Temp\ccxApcqi.s:25979  .debug_str:000000000001219d .LASF4662
C:\Users\CYMR90~1\AppData\Local\Temp\ccxApcqi.s:22319  .debug_str:0000000000003442 .LASF4663
C:\Users\CYMR90~1\AppData\Local\Temp\ccxApcqi.s:23177  .debug_str:0000000000006ada .LASF4664
C:\Users\CYMR90~1\AppData\Local\Temp\ccxApcqi.s:26035  .debug_str:000000000001250f .LASF4665
C:\Users\CYMR90~1\AppData\Local\Temp\ccxApcqi.s:32148  .debug_str:000000000002ab14 .LASF4666
C:\Users\CYMR90~1\AppData\Local\Temp\ccxApcqi.s:25017  .debug_str:000000000000e3b3 .LASF4667
C:\Users\CYMR90~1\AppData\Local\Temp\ccxApcqi.s:27946  .debug_str:0000000000019fdb .LASF4668
C:\Users\CYMR90~1\AppData\Local\Temp\ccxApcqi.s:21683  .debug_str:0000000000000cfb .LASF4669
C:\Users\CYMR90~1\AppData\Local\Temp\ccxApcqi.s:31372  .debug_str:00000000000279cf .LASF4670
C:\Users\CYMR90~1\AppData\Local\Temp\ccxApcqi.s:32590  .debug_str:000000000002c851 .LASF4671
C:\Users\CYMR90~1\AppData\Local\Temp\ccxApcqi.s:24801  .debug_str:000000000000d681 .LASF4672
C:\Users\CYMR90~1\AppData\Local\Temp\ccxApcqi.s:27460  .debug_str:000000000001806e .LASF4673
C:\Users\CYMR90~1\AppData\Local\Temp\ccxApcqi.s:21831  .debug_str:00000000000015e1 .LASF4674
C:\Users\CYMR90~1\AppData\Local\Temp\ccxApcqi.s:30422  .debug_str:0000000000023a8d .LASF4675
C:\Users\CYMR90~1\AppData\Local\Temp\ccxApcqi.s:26925  .debug_str:0000000000015cfe .LASF4676
C:\Users\CYMR90~1\AppData\Local\Temp\ccxApcqi.s:32072  .debug_str:000000000002a6cd .LASF4677
C:\Users\CYMR90~1\AppData\Local\Temp\ccxApcqi.s:31030  .debug_str:00000000000263c0 .LASF4678
C:\Users\CYMR90~1\AppData\Local\Temp\ccxApcqi.s:32074  .debug_str:000000000002a6eb .LASF4679
C:\Users\CYMR90~1\AppData\Local\Temp\ccxApcqi.s:28472  .debug_str:000000000001c297 .LASF4680
C:\Users\CYMR90~1\AppData\Local\Temp\ccxApcqi.s:21779  .debug_str:00000000000012c1 .LASF4681
C:\Users\CYMR90~1\AppData\Local\Temp\ccxApcqi.s:30804  .debug_str:000000000002553f .LASF4682
C:\Users\CYMR90~1\AppData\Local\Temp\ccxApcqi.s:28372  .debug_str:000000000001bc75 .LASF4683
C:\Users\CYMR90~1\AppData\Local\Temp\ccxApcqi.s:22953  .debug_str:0000000000005d00 .LASF4684
C:\Users\CYMR90~1\AppData\Local\Temp\ccxApcqi.s:25023  .debug_str:000000000000e401 .LASF4685
C:\Users\CYMR90~1\AppData\Local\Temp\ccxApcqi.s:29484  .debug_str:0000000000020193 .LASF4686
C:\Users\CYMR90~1\AppData\Local\Temp\ccxApcqi.s:26165  .debug_str:0000000000012d8a .LASF4687
C:\Users\CYMR90~1\AppData\Local\Temp\ccxApcqi.s:31174  .debug_str:0000000000026cd9 .LASF4688
C:\Users\CYMR90~1\AppData\Local\Temp\ccxApcqi.s:26695  .debug_str:0000000000014ef1 .LASF4689
C:\Users\CYMR90~1\AppData\Local\Temp\ccxApcqi.s:26453  .debug_str:0000000000013f9f .LASF4690
C:\Users\CYMR90~1\AppData\Local\Temp\ccxApcqi.s:24513  .debug_str:000000000000c2c8 .LASF4691
C:\Users\CYMR90~1\AppData\Local\Temp\ccxApcqi.s:29352  .debug_str:000000000001f9ca .LASF4692
C:\Users\CYMR90~1\AppData\Local\Temp\ccxApcqi.s:25123  .debug_str:000000000000ea9d .LASF4693
C:\Users\CYMR90~1\AppData\Local\Temp\ccxApcqi.s:22863  .debug_str:000000000000577b .LASF4694
C:\Users\CYMR90~1\AppData\Local\Temp\ccxApcqi.s:31908  .debug_str:0000000000029cd1 .LASF4695
C:\Users\CYMR90~1\AppData\Local\Temp\ccxApcqi.s:29656  .debug_str:0000000000020c64 .LASF4696
C:\Users\CYMR90~1\AppData\Local\Temp\ccxApcqi.s:32422  .debug_str:000000000002bd4f .LASF4697
C:\Users\CYMR90~1\AppData\Local\Temp\ccxApcqi.s:25325  .debug_str:000000000000f735 .LASF4698
C:\Users\CYMR90~1\AppData\Local\Temp\ccxApcqi.s:23763  .debug_str:00000000000091b6 .LASF4699
C:\Users\CYMR90~1\AppData\Local\Temp\ccxApcqi.s:32104  .debug_str:000000000002a88c .LASF4700
C:\Users\CYMR90~1\AppData\Local\Temp\ccxApcqi.s:29750  .debug_str:0000000000021252 .LASF4701
C:\Users\CYMR90~1\AppData\Local\Temp\ccxApcqi.s:31570  .debug_str:00000000000287eb .LASF4702
C:\Users\CYMR90~1\AppData\Local\Temp\ccxApcqi.s:23167  .debug_str:0000000000006a3c .LASF4703
C:\Users\CYMR90~1\AppData\Local\Temp\ccxApcqi.s:29902  .debug_str:0000000000021ba0 .LASF4704
C:\Users\CYMR90~1\AppData\Local\Temp\ccxApcqi.s:31734  .debug_str:0000000000029257 .LASF4705
C:\Users\CYMR90~1\AppData\Local\Temp\ccxApcqi.s:31470  .debug_str:000000000002811d .LASF4706
C:\Users\CYMR90~1\AppData\Local\Temp\ccxApcqi.s:30768  .debug_str:00000000000252ab .LASF4707
C:\Users\CYMR90~1\AppData\Local\Temp\ccxApcqi.s:26755  .debug_str:0000000000015268 .LASF4708
C:\Users\CYMR90~1\AppData\Local\Temp\ccxApcqi.s:23931  .debug_str:0000000000009c67 .LASF4709
C:\Users\CYMR90~1\AppData\Local\Temp\ccxApcqi.s:25327  .debug_str:000000000000f757 .LASF4710
C:\Users\CYMR90~1\AppData\Local\Temp\ccxApcqi.s:22051  .debug_str:0000000000002315 .LASF4711
C:\Users\CYMR90~1\AppData\Local\Temp\ccxApcqi.s:24077  .debug_str:000000000000a58e .LASF4712
C:\Users\CYMR90~1\AppData\Local\Temp\ccxApcqi.s:28990  .debug_str:000000000001e425 .LASF4713
C:\Users\CYMR90~1\AppData\Local\Temp\ccxApcqi.s:27238  .debug_str:00000000000172db .LASF4714
C:\Users\CYMR90~1\AppData\Local\Temp\ccxApcqi.s:24725  .debug_str:000000000000d15b .LASF4715
C:\Users\CYMR90~1\AppData\Local\Temp\ccxApcqi.s:32472  .debug_str:000000000002c054 .LASF4716
C:\Users\CYMR90~1\AppData\Local\Temp\ccxApcqi.s:27071  .debug_str:0000000000016654 .LASF4717
C:\Users\CYMR90~1\AppData\Local\Temp\ccxApcqi.s:32136  .debug_str:000000000002aa56 .LASF4718
C:\Users\CYMR90~1\AppData\Local\Temp\ccxApcqi.s:22255  .debug_str:0000000000003012 .LASF4719
C:\Users\CYMR90~1\AppData\Local\Temp\ccxApcqi.s:30522  .debug_str:00000000000241bc .LASF4720
C:\Users\CYMR90~1\AppData\Local\Temp\ccxApcqi.s:27081  .debug_str:000000000001675a .LASF4721
C:\Users\CYMR90~1\AppData\Local\Temp\ccxApcqi.s:23653  .debug_str:0000000000008b16 .LASF4722
C:\Users\CYMR90~1\AppData\Local\Temp\ccxApcqi.s:31252  .debug_str:000000000002723f .LASF4723
C:\Users\CYMR90~1\AppData\Local\Temp\ccxApcqi.s:30190  .debug_str:0000000000022cc7 .LASF4724
C:\Users\CYMR90~1\AppData\Local\Temp\ccxApcqi.s:22023  .debug_str:0000000000002170 .LASF4725
C:\Users\CYMR90~1\AppData\Local\Temp\ccxApcqi.s:23127  .debug_str:00000000000067c8 .LASF4726
C:\Users\CYMR90~1\AppData\Local\Temp\ccxApcqi.s:31390  .debug_str:0000000000027b1f .LASF4727
C:\Users\CYMR90~1\AppData\Local\Temp\ccxApcqi.s:28922  .debug_str:000000000001e029 .LASF4728
C:\Users\CYMR90~1\AppData\Local\Temp\ccxApcqi.s:23483  .debug_str:0000000000008011 .LASF4729
C:\Users\CYMR90~1\AppData\Local\Temp\ccxApcqi.s:31308  .debug_str:000000000002754e .LASF4730
C:\Users\CYMR90~1\AppData\Local\Temp\ccxApcqi.s:25187  .debug_str:000000000000ee13 .LASF4731
C:\Users\CYMR90~1\AppData\Local\Temp\ccxApcqi.s:28608  .debug_str:000000000001cbb4 .LASF4732
C:\Users\CYMR90~1\AppData\Local\Temp\ccxApcqi.s:28742  .debug_str:000000000001d4c3 .LASF4733
C:\Users\CYMR90~1\AppData\Local\Temp\ccxApcqi.s:22007  .debug_str:0000000000002095 .LASF4734
C:\Users\CYMR90~1\AppData\Local\Temp\ccxApcqi.s:25355  .debug_str:000000000000f8c6 .LASF4735
C:\Users\CYMR90~1\AppData\Local\Temp\ccxApcqi.s:31884  .debug_str:0000000000029ba4 .LASF4736
C:\Users\CYMR90~1\AppData\Local\Temp\ccxApcqi.s:25165  .debug_str:000000000000ecd2 .LASF4737
C:\Users\CYMR90~1\AppData\Local\Temp\ccxApcqi.s:28526  .debug_str:000000000001c5e0 .LASF4738
C:\Users\CYMR90~1\AppData\Local\Temp\ccxApcqi.s:24253  .debug_str:000000000000b163 .LASF4739
C:\Users\CYMR90~1\AppData\Local\Temp\ccxApcqi.s:27388  .debug_str:0000000000017c26 .LASF4740
C:\Users\CYMR90~1\AppData\Local\Temp\ccxApcqi.s:25577  .debug_str:0000000000010687 .LASF4741
C:\Users\CYMR90~1\AppData\Local\Temp\ccxApcqi.s:22095  .debug_str:00000000000025b4 .LASF4742
C:\Users\CYMR90~1\AppData\Local\Temp\ccxApcqi.s:30174  .debug_str:0000000000022bda .LASF4743
C:\Users\CYMR90~1\AppData\Local\Temp\ccxApcqi.s:21819  .debug_str:0000000000001504 .LASF4744
C:\Users\CYMR90~1\AppData\Local\Temp\ccxApcqi.s:21651  .debug_str:0000000000000b3c .LASF4745
C:\Users\CYMR90~1\AppData\Local\Temp\ccxApcqi.s:22715  .debug_str:0000000000004ea2 .LASF4746
C:\Users\CYMR90~1\AppData\Local\Temp\ccxApcqi.s:23345  .debug_str:00000000000075ef .LASF4747
C:\Users\CYMR90~1\AppData\Local\Temp\ccxApcqi.s:30984  .debug_str:00000000000260f4 .LASF4748
C:\Users\CYMR90~1\AppData\Local\Temp\ccxApcqi.s:22011  .debug_str:00000000000020ca .LASF4749
C:\Users\CYMR90~1\AppData\Local\Temp\ccxApcqi.s:29718  .debug_str:0000000000020fd4 .LASF4750
C:\Users\CYMR90~1\AppData\Local\Temp\ccxApcqi.s:24329  .debug_str:000000000000b6b9 .LASF4751
C:\Users\CYMR90~1\AppData\Local\Temp\ccxApcqi.s:27154  .debug_str:0000000000016e35 .LASF4752
C:\Users\CYMR90~1\AppData\Local\Temp\ccxApcqi.s:23693  .debug_str:0000000000008dbf .LASF4753
C:\Users\CYMR90~1\AppData\Local\Temp\ccxApcqi.s:29338  .debug_str:000000000001f8ee .LASF4754
C:\Users\CYMR90~1\AppData\Local\Temp\ccxApcqi.s:29962  .debug_str:0000000000021f39 .LASF4755
C:\Users\CYMR90~1\AppData\Local\Temp\ccxApcqi.s:27530  .debug_str:000000000001847b .LASF4756
C:\Users\CYMR90~1\AppData\Local\Temp\ccxApcqi.s:30054  .debug_str:00000000000224a9 .LASF4757
C:\Users\CYMR90~1\AppData\Local\Temp\ccxApcqi.s:27003  .debug_str:0000000000016210 .LASF4758
C:\Users\CYMR90~1\AppData\Local\Temp\ccxApcqi.s:26909  .debug_str:0000000000015bdc .LASF4759
C:\Users\CYMR90~1\AppData\Local\Temp\ccxApcqi.s:26503  .debug_str:00000000000142db .LASF4760
C:\Users\CYMR90~1\AppData\Local\Temp\ccxApcqi.s:29058  .debug_str:000000000001e86d .LASF4761
C:\Users\CYMR90~1\AppData\Local\Temp\ccxApcqi.s:25745  .debug_str:000000000001112e .LASF4762
C:\Users\CYMR90~1\AppData\Local\Temp\ccxApcqi.s:28784  .debug_str:000000000001d7c5 .LASF4763
C:\Users\CYMR90~1\AppData\Local\Temp\ccxApcqi.s:32650  .debug_str:000000000002cc64 .LASF4764
C:\Users\CYMR90~1\AppData\Local\Temp\ccxApcqi.s:25009  .debug_str:000000000000e331 .LASF4765
C:\Users\CYMR90~1\AppData\Local\Temp\ccxApcqi.s:27490  .debug_str:000000000001821f .LASF4766
C:\Users\CYMR90~1\AppData\Local\Temp\ccxApcqi.s:21871  .debug_str:00000000000018e8 .LASF4767
C:\Users\CYMR90~1\AppData\Local\Temp\ccxApcqi.s:22497  .debug_str:0000000000003fd4 .LASF4768
C:\Users\CYMR90~1\AppData\Local\Temp\ccxApcqi.s:22501  .debug_str:00000000000040a4 .LASF4769
C:\Users\CYMR90~1\AppData\Local\Temp\ccxApcqi.s:25657  .debug_str:0000000000010c24 .LASF4770
C:\Users\CYMR90~1\AppData\Local\Temp\ccxApcqi.s:30444  .debug_str:0000000000023bf7 .LASF4771
C:\Users\CYMR90~1\AppData\Local\Temp\ccxApcqi.s:26263  .debug_str:000000000001345f .LASF4772
C:\Users\CYMR90~1\AppData\Local\Temp\ccxApcqi.s:24073  .debug_str:000000000000a550 .LASF4773
C:\Users\CYMR90~1\AppData\Local\Temp\ccxApcqi.s:29596  .debug_str:00000000000208f4 .LASF4774
C:\Users\CYMR90~1\AppData\Local\Temp\ccxApcqi.s:23425  .debug_str:0000000000007b37 .LASF4775
C:\Users\CYMR90~1\AppData\Local\Temp\ccxApcqi.s:30862  .debug_str:0000000000025956 .LASF4776
C:\Users\CYMR90~1\AppData\Local\Temp\ccxApcqi.s:30504  .debug_str:0000000000024076 .LASF4777
C:\Users\CYMR90~1\AppData\Local\Temp\ccxApcqi.s:25487  .debug_str:0000000000010141 .LASF4778
C:\Users\CYMR90~1\AppData\Local\Temp\ccxApcqi.s:26789  .debug_str:0000000000015442 .LASF4779
C:\Users\CYMR90~1\AppData\Local\Temp\ccxApcqi.s:32276  .debug_str:000000000002b366 .LASF4780
C:\Users\CYMR90~1\AppData\Local\Temp\ccxApcqi.s:30552  .debug_str:000000000002439f .LASF4781
C:\Users\CYMR90~1\AppData\Local\Temp\ccxApcqi.s:27780  .debug_str:000000000001951a .LASF4782
C:\Users\CYMR90~1\AppData\Local\Temp\ccxApcqi.s:28808  .debug_str:000000000001d92a .LASF4783
C:\Users\CYMR90~1\AppData\Local\Temp\ccxApcqi.s:26991  .debug_str:0000000000016147 .LASF4784
C:\Users\CYMR90~1\AppData\Local\Temp\ccxApcqi.s:23703  .debug_str:0000000000008e59 .LASF4785
C:\Users\CYMR90~1\AppData\Local\Temp\ccxApcqi.s:25625  .debug_str:00000000000109a0 .LASF4786
C:\Users\CYMR90~1\AppData\Local\Temp\ccxApcqi.s:27580  .debug_str:0000000000018789 .LASF4787
C:\Users\CYMR90~1\AppData\Local\Temp\ccxApcqi.s:27246  .debug_str:0000000000017337 .LASF4788
C:\Users\CYMR90~1\AppData\Local\Temp\ccxApcqi.s:27017  .debug_str:00000000000162bb .LASF4789
C:\Users\CYMR90~1\AppData\Local\Temp\ccxApcqi.s:22451  .debug_str:0000000000003cef .LASF4790
C:\Users\CYMR90~1\AppData\Local\Temp\ccxApcqi.s:31272  .debug_str:0000000000027341 .LASF4791
C:\Users\CYMR90~1\AppData\Local\Temp\ccxApcqi.s:24981  .debug_str:000000000000e181 .LASF4792
C:\Users\CYMR90~1\AppData\Local\Temp\ccxApcqi.s:22489  .debug_str:0000000000003f51 .LASF4793
C:\Users\CYMR90~1\AppData\Local\Temp\ccxApcqi.s:26631  .debug_str:0000000000014a87 .LASF4794
C:\Users\CYMR90~1\AppData\Local\Temp\ccxApcqi.s:24977  .debug_str:000000000000e142 .LASF4795
C:\Users\CYMR90~1\AppData\Local\Temp\ccxApcqi.s:22035  .debug_str:000000000000223a .LASF4796
C:\Users\CYMR90~1\AppData\Local\Temp\ccxApcqi.s:32112  .debug_str:000000000002a912 .LASF4797
C:\Users\CYMR90~1\AppData\Local\Temp\ccxApcqi.s:23601  .debug_str:00000000000087a7 .LASF4798
C:\Users\CYMR90~1\AppData\Local\Temp\ccxApcqi.s:22215  .debug_str:0000000000002d74 .LASF4799
C:\Users\CYMR90~1\AppData\Local\Temp\ccxApcqi.s:26163  .debug_str:0000000000012d74 .LASF4800
C:\Users\CYMR90~1\AppData\Local\Temp\ccxApcqi.s:31842  .debug_str:00000000000298f7 .LASF4801
C:\Users\CYMR90~1\AppData\Local\Temp\ccxApcqi.s:27910  .debug_str:0000000000019db8 .LASF4802
C:\Users\CYMR90~1\AppData\Local\Temp\ccxApcqi.s:27948  .debug_str:0000000000019ff2 .LASF4803
C:\Users\CYMR90~1\AppData\Local\Temp\ccxApcqi.s:30808  .debug_str:000000000002558d .LASF4804
C:\Users\CYMR90~1\AppData\Local\Temp\ccxApcqi.s:26729  .debug_str:000000000001511e .LASF4805
C:\Users\CYMR90~1\AppData\Local\Temp\ccxApcqi.s:32624  .debug_str:000000000002ca3e .LASF4806
C:\Users\CYMR90~1\AppData\Local\Temp\ccxApcqi.s:31520  .debug_str:00000000000284aa .LASF4807
C:\Users\CYMR90~1\AppData\Local\Temp\ccxApcqi.s:22965  .debug_str:0000000000005db1 .LASF4808
C:\Users\CYMR90~1\AppData\Local\Temp\ccxApcqi.s:29090  .debug_str:000000000001ea12 .LASF4809
C:\Users\CYMR90~1\AppData\Local\Temp\ccxApcqi.s:25549  .debug_str:00000000000104f5 .LASF4810
C:\Users\CYMR90~1\AppData\Local\Temp\ccxApcqi.s:32514  .debug_str:000000000002c37e .LASF4811
C:\Users\CYMR90~1\AppData\Local\Temp\ccxApcqi.s:30680  .debug_str:0000000000024c2c .LASF4812
C:\Users\CYMR90~1\AppData\Local\Temp\ccxApcqi.s:30588  .debug_str:00000000000245c6 .LASF4813
C:\Users\CYMR90~1\AppData\Local\Temp\ccxApcqi.s:23219  .debug_str:0000000000006d92 .LASF4814
C:\Users\CYMR90~1\AppData\Local\Temp\ccxApcqi.s:27041  .debug_str:0000000000016491 .LASF4815
C:\Users\CYMR90~1\AppData\Local\Temp\ccxApcqi.s:31336  .debug_str:0000000000027730 .LASF4816
C:\Users\CYMR90~1\AppData\Local\Temp\ccxApcqi.s:28590  .debug_str:000000000001ca78 .LASF4817
C:\Users\CYMR90~1\AppData\Local\Temp\ccxApcqi.s:31138  .debug_str:0000000000026a53 .LASF4818
C:\Users\CYMR90~1\AppData\Local\Temp\ccxApcqi.s:27352  .debug_str:0000000000017a19 .LASF4819
C:\Users\CYMR90~1\AppData\Local\Temp\ccxApcqi.s:22203  .debug_str:0000000000002cb7 .LASF4820
C:\Users\CYMR90~1\AppData\Local\Temp\ccxApcqi.s:23503  .debug_str:0000000000008178 .LASF4821
C:\Users\CYMR90~1\AppData\Local\Temp\ccxApcqi.s:28574  .debug_str:000000000001c98e .LASF4822
C:\Users\CYMR90~1\AppData\Local\Temp\ccxApcqi.s:24117  .debug_str:000000000000a818 .LASF4823
C:\Users\CYMR90~1\AppData\Local\Temp\ccxApcqi.s:23095  .debug_str:0000000000006587 .LASF4824
C:\Users\CYMR90~1\AppData\Local\Temp\ccxApcqi.s:27035  .debug_str:0000000000016444 .LASF4825
C:\Users\CYMR90~1\AppData\Local\Temp\ccxApcqi.s:28196  .debug_str:000000000001b1de .LASF4826
C:\Users\CYMR90~1\AppData\Local\Temp\ccxApcqi.s:22481  .debug_str:0000000000003eeb .LASF4827
C:\Users\CYMR90~1\AppData\Local\Temp\ccxApcqi.s:30882  .debug_str:0000000000025a90 .LASF4828
C:\Users\CYMR90~1\AppData\Local\Temp\ccxApcqi.s:25061  .debug_str:000000000000e693 .LASF4829
C:\Users\CYMR90~1\AppData\Local\Temp\ccxApcqi.s:29798  .debug_str:0000000000021552 .LASF4830
C:\Users\CYMR90~1\AppData\Local\Temp\ccxApcqi.s:26537  .debug_str:00000000000144cb .LASF4831
C:\Users\CYMR90~1\AppData\Local\Temp\ccxApcqi.s:24215  .debug_str:000000000000af20 .LASF4832
C:\Users\CYMR90~1\AppData\Local\Temp\ccxApcqi.s:29612  .debug_str:00000000000209e5 .LASF4833
C:\Users\CYMR90~1\AppData\Local\Temp\ccxApcqi.s:30996  .debug_str:0000000000026187 .LASF4834
C:\Users\CYMR90~1\AppData\Local\Temp\ccxApcqi.s:29302  .debug_str:000000000001f6b4 .LASF4835
C:\Users\CYMR90~1\AppData\Local\Temp\ccxApcqi.s:29904  .debug_str:0000000000021bc4 .LASF4836
C:\Users\CYMR90~1\AppData\Local\Temp\ccxApcqi.s:28168  .debug_str:000000000001afd4 .LASF4837
C:\Users\CYMR90~1\AppData\Local\Temp\ccxApcqi.s:29454  .debug_str:000000000001ffa6 .LASF4838
C:\Users\CYMR90~1\AppData\Local\Temp\ccxApcqi.s:30944  .debug_str:0000000000025e70 .LASF4839
C:\Users\CYMR90~1\AppData\Local\Temp\ccxApcqi.s:30426  .debug_str:0000000000023acd .LASF4840
C:\Users\CYMR90~1\AppData\Local\Temp\ccxApcqi.s:23673  .debug_str:0000000000008c12 .LASF4841
C:\Users\CYMR90~1\AppData\Local\Temp\ccxApcqi.s:32682  .debug_str:000000000002ce41 .LASF4842
C:\Users\CYMR90~1\AppData\Local\Temp\ccxApcqi.s:23091  .debug_str:000000000000653e .LASF4843
C:\Users\CYMR90~1\AppData\Local\Temp\ccxApcqi.s:22735  .debug_str:0000000000004fc6 .LASF4844
C:\Users\CYMR90~1\AppData\Local\Temp\ccxApcqi.s:30148  .debug_str:0000000000022a5b .LASF4845
C:\Users\CYMR90~1\AppData\Local\Temp\ccxApcqi.s:30100  .debug_str:000000000002274d .LASF4846
C:\Users\CYMR90~1\AppData\Local\Temp\ccxApcqi.s:29398  .debug_str:000000000001fcad .LASF4847
C:\Users\CYMR90~1\AppData\Local\Temp\ccxApcqi.s:21635  .debug_str:00000000000009e2 .LASF4848
C:\Users\CYMR90~1\AppData\Local\Temp\ccxApcqi.s:26321  .debug_str:00000000000137ee .LASF4849
C:\Users\CYMR90~1\AppData\Local\Temp\ccxApcqi.s:27438  .debug_str:0000000000017ee6 .LASF4850
C:\Users\CYMR90~1\AppData\Local\Temp\ccxApcqi.s:25045  .debug_str:000000000000e5a6 .LASF4851
C:\Users\CYMR90~1\AppData\Local\Temp\ccxApcqi.s:28636  .debug_str:000000000001ce2a .LASF4852
C:\Users\CYMR90~1\AppData\Local\Temp\ccxApcqi.s:26667  .debug_str:0000000000014d24 .LASF4853
C:\Users\CYMR90~1\AppData\Local\Temp\ccxApcqi.s:22019  .debug_str:0000000000002129 .LASF4854
C:\Users\CYMR90~1\AppData\Local\Temp\ccxApcqi.s:23457  .debug_str:0000000000007ddc .LASF4855
C:\Users\CYMR90~1\AppData\Local\Temp\ccxApcqi.s:24485  .debug_str:000000000000c124 .LASF4856
C:\Users\CYMR90~1\AppData\Local\Temp\ccxApcqi.s:26811  .debug_str:0000000000015593 .LASF4857
C:\Users\CYMR90~1\AppData\Local\Temp\ccxApcqi.s:28320  .debug_str:000000000001b8fa .LASF4858
C:\Users\CYMR90~1\AppData\Local\Temp\ccxApcqi.s:22569  .debug_str:00000000000044d6 .LASF4859
C:\Users\CYMR90~1\AppData\Local\Temp\ccxApcqi.s:23577  .debug_str:0000000000008625 .LASF4860
C:\Users\CYMR90~1\AppData\Local\Temp\ccxApcqi.s:22621  .debug_str:00000000000048df .LASF4861
C:\Users\CYMR90~1\AppData\Local\Temp\ccxApcqi.s:28902  .debug_str:000000000001ded7 .LASF4862
C:\Users\CYMR90~1\AppData\Local\Temp\ccxApcqi.s:30524  .debug_str:00000000000241d8 .LASF4863
C:\Users\CYMR90~1\AppData\Local\Temp\ccxApcqi.s:32016  .debug_str:000000000002a36a .LASF4864
C:\Users\CYMR90~1\AppData\Local\Temp\ccxApcqi.s:28556  .debug_str:000000000001c884 .LASF4865
C:\Users\CYMR90~1\AppData\Local\Temp\ccxApcqi.s:29928  .debug_str:0000000000021d28 .LASF4866
C:\Users\CYMR90~1\AppData\Local\Temp\ccxApcqi.s:31462  .debug_str:0000000000028099 .LASF4867
C:\Users\CYMR90~1\AppData\Local\Temp\ccxApcqi.s:30314  .debug_str:0000000000023412 .LASF4868
C:\Users\CYMR90~1\AppData\Local\Temp\ccxApcqi.s:26687  .debug_str:0000000000014e74 .LASF4869
C:\Users\CYMR90~1\AppData\Local\Temp\ccxApcqi.s:32220  .debug_str:000000000002af5a .LASF4870
C:\Users\CYMR90~1\AppData\Local\Temp\ccxApcqi.s:24251  .debug_str:000000000000b13a .LASF4871
C:\Users\CYMR90~1\AppData\Local\Temp\ccxApcqi.s:31720  .debug_str:0000000000029184 .LASF4872
C:\Users\CYMR90~1\AppData\Local\Temp\ccxApcqi.s:26763  .debug_str:00000000000152e7 .LASF4873
C:\Users\CYMR90~1\AppData\Local\Temp\ccxApcqi.s:23605  .debug_str:0000000000008816 .LASF4874
C:\Users\CYMR90~1\AppData\Local\Temp\ccxApcqi.s:32122  .debug_str:000000000002a9a2 .LASF4875
C:\Users\CYMR90~1\AppData\Local\Temp\ccxApcqi.s:21607  .debug_str:000000000000081e .LASF4876
C:\Users\CYMR90~1\AppData\Local\Temp\ccxApcqi.s:21555  .debug_str:00000000000004ef .LASF4877
C:\Users\CYMR90~1\AppData\Local\Temp\ccxApcqi.s:29104  .debug_str:000000000001eae7 .LASF4878
C:\Users\CYMR90~1\AppData\Local\Temp\ccxApcqi.s:23997  .debug_str:000000000000a074 .LASF4879
C:\Users\CYMR90~1\AppData\Local\Temp\ccxApcqi.s:22839  .debug_str:000000000000561c .LASF4880
C:\Users\CYMR90~1\AppData\Local\Temp\ccxApcqi.s:25323  .debug_str:000000000000f70b .LASF4881
C:\Users\CYMR90~1\AppData\Local\Temp\ccxApcqi.s:27574  .debug_str:0000000000018717 .LASF4882
C:\Users\CYMR90~1\AppData\Local\Temp\ccxApcqi.s:22117  .debug_str:0000000000002754 .LASF4883
C:\Users\CYMR90~1\AppData\Local\Temp\ccxApcqi.s:27820  .debug_str:0000000000019878 .LASF4884
C:\Users\CYMR90~1\AppData\Local\Temp\ccxApcqi.s:29160  .debug_str:000000000001ee2b .LASF4885
C:\Users\CYMR90~1\AppData\Local\Temp\ccxApcqi.s:21643  .debug_str:0000000000000aa8 .LASF4886
C:\Users\CYMR90~1\AppData\Local\Temp\ccxApcqi.s:23075  .debug_str:0000000000006478 .LASF4887
C:\Users\CYMR90~1\AppData\Local\Temp\ccxApcqi.s:26075  .debug_str:00000000000127a3 .LASF4888
C:\Users\CYMR90~1\AppData\Local\Temp\ccxApcqi.s:29082  .debug_str:000000000001e9b7 .LASF4889
C:\Users\CYMR90~1\AppData\Local\Temp\ccxApcqi.s:27822  .debug_str:00000000000198a4 .LASF4890
C:\Users\CYMR90~1\AppData\Local\Temp\ccxApcqi.s:32172  .debug_str:000000000002ac9e .LASF4891
C:\Users\CYMR90~1\AppData\Local\Temp\ccxApcqi.s:24405  .debug_str:000000000000bc0d .LASF4892
C:\Users\CYMR90~1\AppData\Local\Temp\ccxApcqi.s:27410  .debug_str:0000000000017d87 .LASF4893
C:\Users\CYMR90~1\AppData\Local\Temp\ccxApcqi.s:26427  .debug_str:0000000000013e11 .LASF4894
C:\Users\CYMR90~1\AppData\Local\Temp\ccxApcqi.s:27394  .debug_str:0000000000017c7c .LASF4895
C:\Users\CYMR90~1\AppData\Local\Temp\ccxApcqi.s:29598  .debug_str:000000000002090a .LASF4896
C:\Users\CYMR90~1\AppData\Local\Temp\ccxApcqi.s:29602  .debug_str:0000000000020943 .LASF4897
C:\Users\CYMR90~1\AppData\Local\Temp\ccxApcqi.s:26541  .debug_str:0000000000014531 .LASF4898
C:\Users\CYMR90~1\AppData\Local\Temp\ccxApcqi.s:25495  .debug_str:00000000000101b6 .LASF4899
C:\Users\CYMR90~1\AppData\Local\Temp\ccxApcqi.s:31912  .debug_str:0000000000029d0e .LASF4900
C:\Users\CYMR90~1\AppData\Local\Temp\ccxApcqi.s:23613  .debug_str:0000000000008898 .LASF4901
C:\Users\CYMR90~1\AppData\Local\Temp\ccxApcqi.s:25361  .debug_str:000000000000f91c .LASF4902
C:\Users\CYMR90~1\AppData\Local\Temp\ccxApcqi.s:22179  .debug_str:0000000000002b4a .LASF4903
C:\Users\CYMR90~1\AppData\Local\Temp\ccxApcqi.s:25389  .debug_str:000000000000faed .LASF4904
C:\Users\CYMR90~1\AppData\Local\Temp\ccxApcqi.s:27202  .debug_str:00000000000170c5 .LASF4905
C:\Users\CYMR90~1\AppData\Local\Temp\ccxApcqi.s:24839  .debug_str:000000000000d8ac .LASF4906
C:\Users\CYMR90~1\AppData\Local\Temp\ccxApcqi.s:27282  .debug_str:000000000001758d .LASF4907
C:\Users\CYMR90~1\AppData\Local\Temp\ccxApcqi.s:23883  .debug_str:000000000000997d .LASF4908
C:\Users\CYMR90~1\AppData\Local\Temp\ccxApcqi.s:26681  .debug_str:0000000000014e16 .LASF4909
C:\Users\CYMR90~1\AppData\Local\Temp\ccxApcqi.s:23635  .debug_str:0000000000008a00 .LASF4910
C:\Users\CYMR90~1\AppData\Local\Temp\ccxApcqi.s:32258  .debug_str:000000000002b22b .LASF4911
C:\Users\CYMR90~1\AppData\Local\Temp\ccxApcqi.s:32170  .debug_str:000000000002ac79 .LASF4912
C:\Users\CYMR90~1\AppData\Local\Temp\ccxApcqi.s:30480  .debug_str:0000000000023ea8 .LASF4913
C:\Users\CYMR90~1\AppData\Local\Temp\ccxApcqi.s:32156  .debug_str:000000000002abae .LASF4914
C:\Users\CYMR90~1\AppData\Local\Temp\ccxApcqi.s:27472  .debug_str:00000000000180f8 .LASF4915
C:\Users\CYMR90~1\AppData\Local\Temp\ccxApcqi.s:31650  .debug_str:0000000000028cb3 .LASF4916
C:\Users\CYMR90~1\AppData\Local\Temp\ccxApcqi.s:31334  .debug_str:000000000002770e .LASF4917
C:\Users\CYMR90~1\AppData\Local\Temp\ccxApcqi.s:23859  .debug_str:00000000000097e1 .LASF4918
C:\Users\CYMR90~1\AppData\Local\Temp\ccxApcqi.s:31084  .debug_str:0000000000026718 .LASF4919
C:\Users\CYMR90~1\AppData\Local\Temp\ccxApcqi.s:27454  .debug_str:0000000000018005 .LASF4920
C:\Users\CYMR90~1\AppData\Local\Temp\ccxApcqi.s:27360  .debug_str:0000000000017a7a .LASF4921
C:\Users\CYMR90~1\AppData\Local\Temp\ccxApcqi.s:31210  .debug_str:0000000000026eb7 .LASF4922
C:\Users\CYMR90~1\AppData\Local\Temp\ccxApcqi.s:25245  .debug_str:000000000000f1b7 .LASF4923
C:\Users\CYMR90~1\AppData\Local\Temp\ccxApcqi.s:28612  .debug_str:000000000001cbf8 .LASF4924
C:\Users\CYMR90~1\AppData\Local\Temp\ccxApcqi.s:27648  .debug_str:0000000000018c92 .LASF4925
C:\Users\CYMR90~1\AppData\Local\Temp\ccxApcqi.s:24563  .debug_str:000000000000c637 .LASF4926
C:\Users\CYMR90~1\AppData\Local\Temp\ccxApcqi.s:30736  .debug_str:00000000000250b9 .LASF4927
C:\Users\CYMR90~1\AppData\Local\Temp\ccxApcqi.s:23989  .debug_str:0000000000009ffe .LASF4928
C:\Users\CYMR90~1\AppData\Local\Temp\ccxApcqi.s:30560  .debug_str:0000000000024404 .LASF4929
C:\Users\CYMR90~1\AppData\Local\Temp\ccxApcqi.s:28378  .debug_str:000000000001bcd6 .LASF4930
C:\Users\CYMR90~1\AppData\Local\Temp\ccxApcqi.s:24703  .debug_str:000000000000cfae .LASF4931
C:\Users\CYMR90~1\AppData\Local\Temp\ccxApcqi.s:25567  .debug_str:000000000001060a .LASF4932
C:\Users\CYMR90~1\AppData\Local\Temp\ccxApcqi.s:21959  .debug_str:0000000000001e02 .LASF4933
C:\Users\CYMR90~1\AppData\Local\Temp\ccxApcqi.s:27150  .debug_str:0000000000016df0 .LASF4934
C:\Users\CYMR90~1\AppData\Local\Temp\ccxApcqi.s:28458  .debug_str:000000000001c1cd .LASF4935
C:\Users\CYMR90~1\AppData\Local\Temp\ccxApcqi.s:26581  .debug_str:0000000000014794 .LASF4936
C:\Users\CYMR90~1\AppData\Local\Temp\ccxApcqi.s:22559  .debug_str:000000000000443e .LASF4937
C:\Users\CYMR90~1\AppData\Local\Temp\ccxApcqi.s:28102  .debug_str:000000000001ab46 .LASF4938
C:\Users\CYMR90~1\AppData\Local\Temp\ccxApcqi.s:30832  .debug_str:0000000000025781 .LASF4939
C:\Users\CYMR90~1\AppData\Local\Temp\ccxApcqi.s:25299  .debug_str:000000000000f4f4 .LASF4940
C:\Users\CYMR90~1\AppData\Local\Temp\ccxApcqi.s:24399  .debug_str:000000000000bb79 .LASF4941
C:\Users\CYMR90~1\AppData\Local\Temp\ccxApcqi.s:21477  .debug_str:000000000000006a .LASF4942
C:\Users\CYMR90~1\AppData\Local\Temp\ccxApcqi.s:31638  .debug_str:0000000000028bfd .LASF4943
C:\Users\CYMR90~1\AppData\Local\Temp\ccxApcqi.s:30274  .debug_str:0000000000023173 .LASF4944
C:\Users\CYMR90~1\AppData\Local\Temp\ccxApcqi.s:23301  .debug_str:0000000000007345 .LASF4945
C:\Users\CYMR90~1\AppData\Local\Temp\ccxApcqi.s:26817  .debug_str:00000000000155e4 .LASF4946
C:\Users\CYMR90~1\AppData\Local\Temp\ccxApcqi.s:24359  .debug_str:000000000000b8c4 .LASF4947
C:\Users\CYMR90~1\AppData\Local\Temp\ccxApcqi.s:26671  .debug_str:0000000000014d6b .LASF4948
C:\Users\CYMR90~1\AppData\Local\Temp\ccxApcqi.s:24317  .debug_str:000000000000b5ee .LASF4949
C:\Users\CYMR90~1\AppData\Local\Temp\ccxApcqi.s:26863  .debug_str:00000000000158ae .LASF4950
C:\Users\CYMR90~1\AppData\Local\Temp\ccxApcqi.s:25763  .debug_str:0000000000011258 .LASF4951
C:\Users\CYMR90~1\AppData\Local\Temp\ccxApcqi.s:31006  .debug_str:0000000000026230 .LASF4952
C:\Users\CYMR90~1\AppData\Local\Temp\ccxApcqi.s:26001  .debug_str:00000000000122ea .LASF4953
C:\Users\CYMR90~1\AppData\Local\Temp\ccxApcqi.s:26737  .debug_str:0000000000015190 .LASF4954
C:\Users\CYMR90~1\AppData\Local\Temp\ccxApcqi.s:25673  .debug_str:0000000000010cf6 .LASF4955
C:\Users\CYMR90~1\AppData\Local\Temp\ccxApcqi.s:31522  .debug_str:00000000000284cc .LASF4956
C:\Users\CYMR90~1\AppData\Local\Temp\ccxApcqi.s:23347  .debug_str:0000000000007611 .LASF4957
C:\Users\CYMR90~1\AppData\Local\Temp\ccxApcqi.s:32414  .debug_str:000000000002bc4c .LASF4958
C:\Users\CYMR90~1\AppData\Local\Temp\ccxApcqi.s:32428  .debug_str:000000000002bd9d .LASF4959
C:\Users\CYMR90~1\AppData\Local\Temp\ccxApcqi.s:26233  .debug_str:000000000001321d .LASF4960
C:\Users\CYMR90~1\AppData\Local\Temp\ccxApcqi.s:21669  .debug_str:0000000000000c31 .LASF4961
C:\Users\CYMR90~1\AppData\Local\Temp\ccxApcqi.s:24355  .debug_str:000000000000b895 .LASF4962
C:\Users\CYMR90~1\AppData\Local\Temp\ccxApcqi.s:29086  .debug_str:000000000001e9d6 .LASF4963
C:\Users\CYMR90~1\AppData\Local\Temp\ccxApcqi.s:23083  .debug_str:00000000000064e3 .LASF4964
C:\Users\CYMR90~1\AppData\Local\Temp\ccxApcqi.s:23535  .debug_str:0000000000008393 .LASF4965
C:\Users\CYMR90~1\AppData\Local\Temp\ccxApcqi.s:26185  .debug_str:0000000000012eeb .LASF4966
C:\Users\CYMR90~1\AppData\Local\Temp\ccxApcqi.s:25609  .debug_str:000000000001086f .LASF4967
C:\Users\CYMR90~1\AppData\Local\Temp\ccxApcqi.s:29916  .debug_str:0000000000021c91 .LASF4968
C:\Users\CYMR90~1\AppData\Local\Temp\ccxApcqi.s:26199  .debug_str:0000000000012fd5 .LASF4969
C:\Users\CYMR90~1\AppData\Local\Temp\ccxApcqi.s:22761  .debug_str:000000000000516e .LASF4970
C:\Users\CYMR90~1\AppData\Local\Temp\ccxApcqi.s:29752  .debug_str:0000000000021276 .LASF4971
C:\Users\CYMR90~1\AppData\Local\Temp\ccxApcqi.s:26917  .debug_str:0000000000015c51 .LASF4972
C:\Users\CYMR90~1\AppData\Local\Temp\ccxApcqi.s:22995  .debug_str:0000000000005f7f .LASF4973
C:\Users\CYMR90~1\AppData\Local\Temp\ccxApcqi.s:27908  .debug_str:0000000000019d9c .LASF4974
C:\Users\CYMR90~1\AppData\Local\Temp\ccxApcqi.s:26747  .debug_str:00000000000151f9 .LASF4975
C:\Users\CYMR90~1\AppData\Local\Temp\ccxApcqi.s:29402  .debug_str:000000000001fce4 .LASF4976
C:\Users\CYMR90~1\AppData\Local\Temp\ccxApcqi.s:31552  .debug_str:00000000000286b7 .LASF4977
C:\Users\CYMR90~1\AppData\Local\Temp\ccxApcqi.s:26405  .debug_str:0000000000013cb2 .LASF4978
C:\Users\CYMR90~1\AppData\Local\Temp\ccxApcqi.s:27556  .debug_str:00000000000185dd .LASF4979
C:\Users\CYMR90~1\AppData\Local\Temp\ccxApcqi.s:22069  .debug_str:000000000000244c .LASF4980
C:\Users\CYMR90~1\AppData\Local\Temp\ccxApcqi.s:29016  .debug_str:000000000001e5cd .LASF4981
C:\Users\CYMR90~1\AppData\Local\Temp\ccxApcqi.s:28476  .debug_str:000000000001c2cb .LASF4982
C:\Users\CYMR90~1\AppData\Local\Temp\ccxApcqi.s:30788  .debug_str:0000000000025432 .LASF4983
C:\Users\CYMR90~1\AppData\Local\Temp\ccxApcqi.s:23135  .debug_str:000000000000683b .LASF4984
C:\Users\CYMR90~1\AppData\Local\Temp\ccxApcqi.s:21923  .debug_str:0000000000001bf2 .LASF4985
C:\Users\CYMR90~1\AppData\Local\Temp\ccxApcqi.s:23723  .debug_str:0000000000008f67 .LASF4986
C:\Users\CYMR90~1\AppData\Local\Temp\ccxApcqi.s:23885  .debug_str:00000000000099a0 .LASF4987
C:\Users\CYMR90~1\AppData\Local\Temp\ccxApcqi.s:21935  .debug_str:0000000000001c93 .LASF4988
C:\Users\CYMR90~1\AppData\Local\Temp\ccxApcqi.s:32452  .debug_str:000000000002bf1c .LASF4989
C:\Users\CYMR90~1\AppData\Local\Temp\ccxApcqi.s:24529  .debug_str:000000000000c3c9 .LASF4990
C:\Users\CYMR90~1\AppData\Local\Temp\ccxApcqi.s:27021  .debug_str:00000000000162fe .LASF4991
C:\Users\CYMR90~1\AppData\Local\Temp\ccxApcqi.s:26121  .debug_str:0000000000012abe .LASF4992
C:\Users\CYMR90~1\AppData\Local\Temp\ccxApcqi.s:24201  .debug_str:000000000000ae3a .LASF4993
C:\Users\CYMR90~1\AppData\Local\Temp\ccxApcqi.s:26685  .debug_str:0000000000014e5b .LASF4994
C:\Users\CYMR90~1\AppData\Local\Temp\ccxApcqi.s:23271  .debug_str:000000000000711f .LASF4995
C:\Users\CYMR90~1\AppData\Local\Temp\ccxApcqi.s:27450  .debug_str:0000000000017fc8 .LASF4996
C:\Users\CYMR90~1\AppData\Local\Temp\ccxApcqi.s:25345  .debug_str:000000000000f845 .LASF4997
C:\Users\CYMR90~1\AppData\Local\Temp\ccxApcqi.s:26847  .debug_str:00000000000157c0 .LASF4998
C:\Users\CYMR90~1\AppData\Local\Temp\ccxApcqi.s:23411  .debug_str:0000000000007a60 .LASF4999
C:\Users\CYMR90~1\AppData\Local\Temp\ccxApcqi.s:28122  .debug_str:000000000001ac89 .LASF5000
C:\Users\CYMR90~1\AppData\Local\Temp\ccxApcqi.s:32698  .debug_str:000000000002cf3f .LASF5001
C:\Users\CYMR90~1\AppData\Local\Temp\ccxApcqi.s:31132  .debug_str:0000000000026a02 .LASF5002
C:\Users\CYMR90~1\AppData\Local\Temp\ccxApcqi.s:25983  .debug_str:00000000000121cd .LASF5003
C:\Users\CYMR90~1\AppData\Local\Temp\ccxApcqi.s:23323  .debug_str:000000000000748d .LASF5004
C:\Users\CYMR90~1\AppData\Local\Temp\ccxApcqi.s:22719  .debug_str:0000000000004ee0 .LASF5005
C:\Users\CYMR90~1\AppData\Local\Temp\ccxApcqi.s:23933  .debug_str:0000000000009c86 .LASF5006
C:\Users\CYMR90~1\AppData\Local\Temp\ccxApcqi.s:23881  .debug_str:000000000000995c .LASF5007
C:\Users\CYMR90~1\AppData\Local\Temp\ccxApcqi.s:24761  .debug_str:000000000000d3f1 .LASF5008
C:\Users\CYMR90~1\AppData\Local\Temp\ccxApcqi.s:22017  .debug_str:000000000000210c .LASF5009
C:\Users\CYMR90~1\AppData\Local\Temp\ccxApcqi.s:29884  .debug_str:0000000000021a7a .LASF5010
C:\Users\CYMR90~1\AppData\Local\Temp\ccxApcqi.s:29520  .debug_str:000000000002043c .LASF5011
C:\Users\CYMR90~1\AppData\Local\Temp\ccxApcqi.s:31220  .debug_str:0000000000026f95 .LASF5012
C:\Users\CYMR90~1\AppData\Local\Temp\ccxApcqi.s:21879  .debug_str:000000000000194a .LASF5013
C:\Users\CYMR90~1\AppData\Local\Temp\ccxApcqi.s:25369  .debug_str:000000000000f9a3 .LASF5014
C:\Users\CYMR90~1\AppData\Local\Temp\ccxApcqi.s:23769  .debug_str:000000000000920e .LASF5015
C:\Users\CYMR90~1\AppData\Local\Temp\ccxApcqi.s:30674  .debug_str:0000000000024bdd .LASF5016
C:\Users\CYMR90~1\AppData\Local\Temp\ccxApcqi.s:32138  .debug_str:000000000002aa7c .LASF5017
C:\Users\CYMR90~1\AppData\Local\Temp\ccxApcqi.s:27174  .debug_str:0000000000016f4e .LASF5018
C:\Users\CYMR90~1\AppData\Local\Temp\ccxApcqi.s:27286  .debug_str:00000000000175d4 .LASF5019
C:\Users\CYMR90~1\AppData\Local\Temp\ccxApcqi.s:28834  .debug_str:000000000001daa6 .LASF5020
C:\Users\CYMR90~1\AppData\Local\Temp\ccxApcqi.s:24007  .debug_str:000000000000a125 .LASF5021
C:\Users\CYMR90~1\AppData\Local\Temp\ccxApcqi.s:29268  .debug_str:000000000001f4ac .LASF5022
C:\Users\CYMR90~1\AppData\Local\Temp\ccxApcqi.s:30442  .debug_str:0000000000023bda .LASF5023
C:\Users\CYMR90~1\AppData\Local\Temp\ccxApcqi.s:26113  .debug_str:0000000000012a51 .LASF5024
C:\Users\CYMR90~1\AppData\Local\Temp\ccxApcqi.s:22359  .debug_str:00000000000036e5 .LASF5025
C:\Users\CYMR90~1\AppData\Local\Temp\ccxApcqi.s:22537  .debug_str:00000000000042c8 .LASF5026
C:\Users\CYMR90~1\AppData\Local\Temp\ccxApcqi.s:31370  .debug_str:00000000000279b0 .LASF5027
C:\Users\CYMR90~1\AppData\Local\Temp\ccxApcqi.s:25779  .debug_str:000000000001134b .LASF5028
C:\Users\CYMR90~1\AppData\Local\Temp\ccxApcqi.s:24367  .debug_str:000000000000b92b .LASF5029
C:\Users\CYMR90~1\AppData\Local\Temp\ccxApcqi.s:30432  .debug_str:0000000000023b1c .LASF5030
C:\Users\CYMR90~1\AppData\Local\Temp\ccxApcqi.s:30538  .debug_str:00000000000242c7 .LASF5031
C:\Users\CYMR90~1\AppData\Local\Temp\ccxApcqi.s:26819  .debug_str:00000000000155fa .LASF5032
C:\Users\CYMR90~1\AppData\Local\Temp\ccxApcqi.s:22383  .debug_str:0000000000003878 .LASF5033
C:\Users\CYMR90~1\AppData\Local\Temp\ccxApcqi.s:27152  .debug_str:0000000000016e1a .LASF5034
C:\Users\CYMR90~1\AppData\Local\Temp\ccxApcqi.s:22327  .debug_str:00000000000034d3 .LASF5035
C:\Users\CYMR90~1\AppData\Local\Temp\ccxApcqi.s:21997  .debug_str:000000000000200e .LASF5036
C:\Users\CYMR90~1\AppData\Local\Temp\ccxApcqi.s:23047  .debug_str:00000000000062c1 .LASF5037
C:\Users\CYMR90~1\AppData\Local\Temp\ccxApcqi.s:32638  .debug_str:000000000002cbab .LASF5038
C:\Users\CYMR90~1\AppData\Local\Temp\ccxApcqi.s:31264  .debug_str:00000000000272de .LASF5039
C:\Users\CYMR90~1\AppData\Local\Temp\ccxApcqi.s:21581  .debug_str:0000000000000682 .LASF5040
C:\Users\CYMR90~1\AppData\Local\Temp\ccxApcqi.s:28038  .debug_str:000000000001a751 .LASF5041
C:\Users\CYMR90~1\AppData\Local\Temp\ccxApcqi.s:32394  .debug_str:000000000002bb12 .LASF5042
C:\Users\CYMR90~1\AppData\Local\Temp\ccxApcqi.s:24187  .debug_str:000000000000acb8 .LASF5043
C:\Users\CYMR90~1\AppData\Local\Temp\ccxApcqi.s:23129  .debug_str:00000000000067e3 .LASF5044
C:\Users\CYMR90~1\AppData\Local\Temp\ccxApcqi.s:31320  .debug_str:00000000000275e9 .LASF5045
C:\Users\CYMR90~1\AppData\Local\Temp\ccxApcqi.s:28062  .debug_str:000000000001a8b8 .LASF5046
C:\Users\CYMR90~1\AppData\Local\Temp\ccxApcqi.s:29176  .debug_str:000000000001ef34 .LASF5047
C:\Users\CYMR90~1\AppData\Local\Temp\ccxApcqi.s:28312  .debug_str:000000000001b895 .LASF5048
C:\Users\CYMR90~1\AppData\Local\Temp\ccxApcqi.s:22837  .debug_str:0000000000005603 .LASF5049
C:\Users\CYMR90~1\AppData\Local\Temp\ccxApcqi.s:30204  .debug_str:0000000000022d9c .LASF5050
C:\Users\CYMR90~1\AppData\Local\Temp\ccxApcqi.s:30222  .debug_str:0000000000022e6b .LASF5051
C:\Users\CYMR90~1\AppData\Local\Temp\ccxApcqi.s:30708  .debug_str:0000000000024de8 .LASF5052
C:\Users\CYMR90~1\AppData\Local\Temp\ccxApcqi.s:31626  .debug_str:0000000000028b0c .LASF5053
C:\Users\CYMR90~1\AppData\Local\Temp\ccxApcqi.s:30266  .debug_str:0000000000023106 .LASF5054
C:\Users\CYMR90~1\AppData\Local\Temp\ccxApcqi.s:31746  .debug_str:0000000000029339 .LASF5055
C:\Users\CYMR90~1\AppData\Local\Temp\ccxApcqi.s:26191  .debug_str:0000000000012f49 .LASF5056
C:\Users\CYMR90~1\AppData\Local\Temp\ccxApcqi.s:26023  .debug_str:000000000001243f .LASF5057
C:\Users\CYMR90~1\AppData\Local\Temp\ccxApcqi.s:29792  .debug_str:00000000000214d4 .LASF5058
C:\Users\CYMR90~1\AppData\Local\Temp\ccxApcqi.s:32668  .debug_str:000000000002cd3c .LASF5059
C:\Users\CYMR90~1\AppData\Local\Temp\ccxApcqi.s:26195  .debug_str:0000000000012f8d .LASF5060
C:\Users\CYMR90~1\AppData\Local\Temp\ccxApcqi.s:27364  .debug_str:0000000000017ab7 .LASF5061
C:\Users\CYMR90~1\AppData\Local\Temp\ccxApcqi.s:22713  .debug_str:0000000000004e88 .LASF5062
C:\Users\CYMR90~1\AppData\Local\Temp\ccxApcqi.s:29776  .debug_str:00000000000213dd .LASF5063
C:\Users\CYMR90~1\AppData\Local\Temp\ccxApcqi.s:27089  .debug_str:00000000000167e5 .LASF5064
C:\Users\CYMR90~1\AppData\Local\Temp\ccxApcqi.s:22235  .debug_str:0000000000002e9a .LASF5065
C:\Users\CYMR90~1\AppData\Local\Temp\ccxApcqi.s:29080  .debug_str:000000000001e99f .LASF5066
C:\Users\CYMR90~1\AppData\Local\Temp\ccxApcqi.s:30018  .debug_str:000000000002225e .LASF5067
C:\Users\CYMR90~1\AppData\Local\Temp\ccxApcqi.s:31418  .debug_str:0000000000027cf4 .LASF5068
C:\Users\CYMR90~1\AppData\Local\Temp\ccxApcqi.s:30472  .debug_str:0000000000023d78 .LASF5069
C:\Users\CYMR90~1\AppData\Local\Temp\ccxApcqi.s:28716  .debug_str:000000000001d336 .LASF5070
C:\Users\CYMR90~1\AppData\Local\Temp\ccxApcqi.s:28696  .debug_str:000000000001d203 .LASF5071
C:\Users\CYMR90~1\AppData\Local\Temp\ccxApcqi.s:29800  .debug_str:000000000002157d .LASF5072
C:\Users\CYMR90~1\AppData\Local\Temp\ccxApcqi.s:26069  .debug_str:0000000000012735 .LASF5073
C:\Users\CYMR90~1\AppData\Local\Temp\ccxApcqi.s:27466  .debug_str:00000000000180b4 .LASF5074
C:\Users\CYMR90~1\AppData\Local\Temp\ccxApcqi.s:23297  .debug_str:00000000000072fa .LASF5075
C:\Users\CYMR90~1\AppData\Local\Temp\ccxApcqi.s:28044  .debug_str:000000000001a79b .LASF5076
C:\Users\CYMR90~1\AppData\Local\Temp\ccxApcqi.s:31862  .debug_str:0000000000029a46 .LASF5077
C:\Users\CYMR90~1\AppData\Local\Temp\ccxApcqi.s:24543  .debug_str:000000000000c4ba .LASF5078
C:\Users\CYMR90~1\AppData\Local\Temp\ccxApcqi.s:24171  .debug_str:000000000000ab7b .LASF5079
C:\Users\CYMR90~1\AppData\Local\Temp\ccxApcqi.s:25175  .debug_str:000000000000ed53 .LASF5080
C:\Users\CYMR90~1\AppData\Local\Temp\ccxApcqi.s:23169  .debug_str:0000000000006a60 .LASF5081
C:\Users\CYMR90~1\AppData\Local\Temp\ccxApcqi.s:29444  .debug_str:000000000001ff1b .LASF5082
C:\Users\CYMR90~1\AppData\Local\Temp\ccxApcqi.s:22073  .debug_str:0000000000002482 .LASF5083
C:\Users\CYMR90~1\AppData\Local\Temp\ccxApcqi.s:30254  .debug_str:000000000002303e .LASF5084
C:\Users\CYMR90~1\AppData\Local\Temp\ccxApcqi.s:27075  .debug_str:00000000000166bb .LASF5085
C:\Users\CYMR90~1\AppData\Local\Temp\ccxApcqi.s:32092  .debug_str:000000000002a7e1 .LASF5086
C:\Users\CYMR90~1\AppData\Local\Temp\ccxApcqi.s:25367  .debug_str:000000000000f983 .LASF5087
C:\Users\CYMR90~1\AppData\Local\Temp\ccxApcqi.s:31412  .debug_str:0000000000027c82 .LASF5088
C:\Users\CYMR90~1\AppData\Local\Temp\ccxApcqi.s:23369  .debug_str:000000000000778f .LASF5089
C:\Users\CYMR90~1\AppData\Local\Temp\ccxApcqi.s:24779  .debug_str:000000000000d54f .LASF5090
C:\Users\CYMR90~1\AppData\Local\Temp\ccxApcqi.s:32578  .debug_str:000000000002c77b .LASF5091
C:\Users\CYMR90~1\AppData\Local\Temp\ccxApcqi.s:24411  .debug_str:000000000000bc86 .LASF5092
C:\Users\CYMR90~1\AppData\Local\Temp\ccxApcqi.s:23981  .debug_str:0000000000009f91 .LASF5093
C:\Users\CYMR90~1\AppData\Local\Temp\ccxApcqi.s:31324  .debug_str:0000000000027641 .LASF5094
C:\Users\CYMR90~1\AppData\Local\Temp\ccxApcqi.s:25815  .debug_str:00000000000115ad .LASF5095
C:\Users\CYMR90~1\AppData\Local\Temp\ccxApcqi.s:22631  .debug_str:0000000000004978 .LASF5096
C:\Users\CYMR90~1\AppData\Local\Temp\ccxApcqi.s:23925  .debug_str:0000000000009c00 .LASF5097
C:\Users\CYMR90~1\AppData\Local\Temp\ccxApcqi.s:27692  .debug_str:0000000000018ffd .LASF5098
C:\Users\CYMR90~1\AppData\Local\Temp\ccxApcqi.s:28658  .debug_str:000000000001cffb .LASF5099
C:\Users\CYMR90~1\AppData\Local\Temp\ccxApcqi.s:28876  .debug_str:000000000001dd59 .LASF5100
C:\Users\CYMR90~1\AppData\Local\Temp\ccxApcqi.s:24625  .debug_str:000000000000caec .LASF5101
C:\Users\CYMR90~1\AppData\Local\Temp\ccxApcqi.s:26875  .debug_str:0000000000015953 .LASF5102
C:\Users\CYMR90~1\AppData\Local\Temp\ccxApcqi.s:25011  .debug_str:000000000000e346 .LASF5103
C:\Users\CYMR90~1\AppData\Local\Temp\ccxApcqi.s:27864  .debug_str:0000000000019b28 .LASF5104
C:\Users\CYMR90~1\AppData\Local\Temp\ccxApcqi.s:27608  .debug_str:000000000001895a .LASF5105
C:\Users\CYMR90~1\AppData\Local\Temp\ccxApcqi.s:30326  .debug_str:00000000000234ed .LASF5106
C:\Users\CYMR90~1\AppData\Local\Temp\ccxApcqi.s:22589  .debug_str:0000000000004640 .LASF5107
C:\Users\CYMR90~1\AppData\Local\Temp\ccxApcqi.s:21649  .debug_str:0000000000000b0b .LASF5108
C:\Users\CYMR90~1\AppData\Local\Temp\ccxApcqi.s:25905  .debug_str:0000000000011c2b .LASF5109
C:\Users\CYMR90~1\AppData\Local\Temp\ccxApcqi.s:26645  .debug_str:0000000000014b71 .LASF5110
C:\Users\CYMR90~1\AppData\Local\Temp\ccxApcqi.s:32454  .debug_str:000000000002bf34 .LASF5111
C:\Users\CYMR90~1\AppData\Local\Temp\ccxApcqi.s:24989  .debug_str:000000000000e20b .LASF5112
C:\Users\CYMR90~1\AppData\Local\Temp\ccxApcqi.s:24065  .debug_str:000000000000a4d4 .LASF5113
C:\Users\CYMR90~1\AppData\Local\Temp\ccxApcqi.s:27698  .debug_str:000000000001905f .LASF5114
C:\Users\CYMR90~1\AppData\Local\Temp\ccxApcqi.s:24951  .debug_str:000000000000df9c .LASF5115
C:\Users\CYMR90~1\AppData\Local\Temp\ccxApcqi.s:32502  .debug_str:000000000002c2c2 .LASF5116
C:\Users\CYMR90~1\AppData\Local\Temp\ccxApcqi.s:21883  .debug_str:0000000000001988 .LASF5117
C:\Users\CYMR90~1\AppData\Local\Temp\ccxApcqi.s:31402  .debug_str:0000000000027bd1 .LASF5118
C:\Users\CYMR90~1\AppData\Local\Temp\ccxApcqi.s:28778  .debug_str:000000000001d769 .LASF5119
C:\Users\CYMR90~1\AppData\Local\Temp\ccxApcqi.s:27132  .debug_str:0000000000016cb7 .LASF5120
C:\Users\CYMR90~1\AppData\Local\Temp\ccxApcqi.s:24029  .debug_str:000000000000a2a4 .LASF5121
C:\Users\CYMR90~1\AppData\Local\Temp\ccxApcqi.s:29840  .debug_str:0000000000021786 .LASF5122
C:\Users\CYMR90~1\AppData\Local\Temp\ccxApcqi.s:26197  .debug_str:0000000000012fad .LASF5123
C:\Users\CYMR90~1\AppData\Local\Temp\ccxApcqi.s:27594  .debug_str:0000000000018868 .LASF5124
C:\Users\CYMR90~1\AppData\Local\Temp\ccxApcqi.s:26297  .debug_str:0000000000013679 .LASF5125
C:\Users\CYMR90~1\AppData\Local\Temp\ccxApcqi.s:30508  .debug_str:00000000000240c3 .LASF5126
C:\Users\CYMR90~1\AppData\Local\Temp\ccxApcqi.s:31020  .debug_str:000000000002630d .LASF5127
C:\Users\CYMR90~1\AppData\Local\Temp\ccxApcqi.s:22135  .debug_str:0000000000002886 .LASF5128
C:\Users\CYMR90~1\AppData\Local\Temp\ccxApcqi.s:25875  .debug_str:0000000000011a89 .LASF5129
C:\Users\CYMR90~1\AppData\Local\Temp\ccxApcqi.s:31074  .debug_str:0000000000026682 .LASF5130
C:\Users\CYMR90~1\AppData\Local\Temp\ccxApcqi.s:22277  .debug_str:000000000000317f .LASF5131
C:\Users\CYMR90~1\AppData\Local\Temp\ccxApcqi.s:29332  .debug_str:000000000001f877 .LASF5132
C:\Users\CYMR90~1\AppData\Local\Temp\ccxApcqi.s:26283  .debug_str:00000000000135a9 .LASF5133
C:\Users\CYMR90~1\AppData\Local\Temp\ccxApcqi.s:31740  .debug_str:00000000000292bd .LASF5134
C:\Users\CYMR90~1\AppData\Local\Temp\ccxApcqi.s:24013  .debug_str:000000000000a17c .LASF5135
C:\Users\CYMR90~1\AppData\Local\Temp\ccxApcqi.s:27688  .debug_str:0000000000018faa .LASF5136
C:\Users\CYMR90~1\AppData\Local\Temp\ccxApcqi.s:31990  .debug_str:000000000002a18a .LASF5137
C:\Users\CYMR90~1\AppData\Local\Temp\ccxApcqi.s:24959  .debug_str:000000000000e01d .LASF5138
C:\Users\CYMR90~1\AppData\Local\Temp\ccxApcqi.s:31984  .debug_str:000000000002a121 .LASF5139
C:\Users\CYMR90~1\AppData\Local\Temp\ccxApcqi.s:22213  .debug_str:0000000000002d47 .LASF5140
C:\Users\CYMR90~1\AppData\Local\Temp\ccxApcqi.s:28124  .debug_str:000000000001aca1 .LASF5141
C:\Users\CYMR90~1\AppData\Local\Temp\ccxApcqi.s:25275  .debug_str:000000000000f382 .LASF5142
C:\Users\CYMR90~1\AppData\Local\Temp\ccxApcqi.s:26463  .debug_str:0000000000014076 .LASF5143
C:\Users\CYMR90~1\AppData\Local\Temp\ccxApcqi.s:31632  .debug_str:0000000000028b72 .LASF5144
C:\Users\CYMR90~1\AppData\Local\Temp\ccxApcqi.s:23741  .debug_str:0000000000009055 .LASF5145
C:\Users\CYMR90~1\AppData\Local\Temp\ccxApcqi.s:28632  .debug_str:000000000001cdce .LASF5146
C:\Users\CYMR90~1\AppData\Local\Temp\ccxApcqi.s:32034  .debug_str:000000000002a47b .LASF5147
C:\Users\CYMR90~1\AppData\Local\Temp\ccxApcqi.s:22583  .debug_str:00000000000045c8 .LASF5148
C:\Users\CYMR90~1\AppData\Local\Temp\ccxApcqi.s:30792  .debug_str:0000000000025479 .LASF5149
C:\Users\CYMR90~1\AppData\Local\Temp\ccxApcqi.s:29290  .debug_str:000000000001f5c9 .LASF5150
C:\Users\CYMR90~1\AppData\Local\Temp\ccxApcqi.s:28456  .debug_str:000000000001c1a5 .LASF5151
C:\Users\CYMR90~1\AppData\Local\Temp\ccxApcqi.s:29424  .debug_str:000000000001fe16 .LASF5152
C:\Users\CYMR90~1\AppData\Local\Temp\ccxApcqi.s:32646  .debug_str:000000000002cc15 .LASF5153
C:\Users\CYMR90~1\AppData\Local\Temp\ccxApcqi.s:22331  .debug_str:0000000000003502 .LASF5154
C:\Users\CYMR90~1\AppData\Local\Temp\ccxApcqi.s:29038  .debug_str:000000000001e73f .LASF5155
C:\Users\CYMR90~1\AppData\Local\Temp\ccxApcqi.s:29810  .debug_str:00000000000215f0 .LASF5156
C:\Users\CYMR90~1\AppData\Local\Temp\ccxApcqi.s:21905  .debug_str:0000000000001acb .LASF5157
C:\Users\CYMR90~1\AppData\Local\Temp\ccxApcqi.s:26109  .debug_str:0000000000012a04 .LASF5158
C:\Users\CYMR90~1\AppData\Local\Temp\ccxApcqi.s:27398  .debug_str:0000000000017cc1 .LASF5159
C:\Users\CYMR90~1\AppData\Local\Temp\ccxApcqi.s:25617  .debug_str:000000000001091d .LASF5160
C:\Users\CYMR90~1\AppData\Local\Temp\ccxApcqi.s:27502  .debug_str:00000000000182bd .LASF5161
C:\Users\CYMR90~1\AppData\Local\Temp\ccxApcqi.s:28084  .debug_str:000000000001aa63 .LASF5162
C:\Users\CYMR90~1\AppData\Local\Temp\ccxApcqi.s:29430  .debug_str:000000000001fe77 .LASF5163
C:\Users\CYMR90~1\AppData\Local\Temp\ccxApcqi.s:32684  .debug_str:000000000002ce63 .LASF5164
C:\Users\CYMR90~1\AppData\Local\Temp\ccxApcqi.s:26573  .debug_str:000000000001471c .LASF5165
C:\Users\CYMR90~1\AppData\Local\Temp\ccxApcqi.s:27940  .debug_str:0000000000019f80 .LASF5166
C:\Users\CYMR90~1\AppData\Local\Temp\ccxApcqi.s:22799  .debug_str:00000000000053ac .LASF5167
C:\Users\CYMR90~1\AppData\Local\Temp\ccxApcqi.s:30532  .debug_str:0000000000024240 .LASF5168
C:\Users\CYMR90~1\AppData\Local\Temp\ccxApcqi.s:31406  .debug_str:0000000000027c14 .LASF5169
C:\Users\CYMR90~1\AppData\Local\Temp\ccxApcqi.s:23389  .debug_str:00000000000078d2 .LASF5170
C:\Users\CYMR90~1\AppData\Local\Temp\ccxApcqi.s:32462  .debug_str:000000000002bfdb .LASF5171
C:\Users\CYMR90~1\AppData\Local\Temp\ccxApcqi.s:25129  .debug_str:000000000000eafd .LASF5172
C:\Users\CYMR90~1\AppData\Local\Temp\ccxApcqi.s:27318  .debug_str:00000000000177fd .LASF5173
C:\Users\CYMR90~1\AppData\Local\Temp\ccxApcqi.s:23497  .debug_str:0000000000008119 .LASF5174
C:\Users\CYMR90~1\AppData\Local\Temp\ccxApcqi.s:23097  .debug_str:00000000000065a9 .LASF5175
C:\Users\CYMR90~1\AppData\Local\Temp\ccxApcqi.s:22705  .debug_str:0000000000004dfd .LASF5176
C:\Users\CYMR90~1\AppData\Local\Temp\ccxApcqi.s:31230  .debug_str:00000000000270ce .LASF5177
C:\Users\CYMR90~1\AppData\Local\Temp\ccxApcqi.s:27442  .debug_str:0000000000017f30 .LASF5178
C:\Users\CYMR90~1\AppData\Local\Temp\ccxApcqi.s:23567  .debug_str:0000000000008582 .LASF5179
C:\Users\CYMR90~1\AppData\Local\Temp\ccxApcqi.s:24571  .debug_str:000000000000c6c9 .LASF5180
C:\Users\CYMR90~1\AppData\Local\Temp\ccxApcqi.s:29020  .debug_str:000000000001e615 .LASF5181
C:\Users\CYMR90~1\AppData\Local\Temp\ccxApcqi.s:23739  .debug_str:0000000000009024 .LASF5182
C:\Users\CYMR90~1\AppData\Local\Temp\ccxApcqi.s:32196  .debug_str:000000000002ade9 .LASF5183
C:\Users\CYMR90~1\AppData\Local\Temp\ccxApcqi.s:29010  .debug_str:000000000001e539 .LASF5184
C:\Users\CYMR90~1\AppData\Local\Temp\ccxApcqi.s:23587  .debug_str:00000000000086c0 .LASF5185
C:\Users\CYMR90~1\AppData\Local\Temp\ccxApcqi.s:31316  .debug_str:00000000000275b7 .LASF5186
C:\Users\CYMR90~1\AppData\Local\Temp\ccxApcqi.s:32690  .debug_str:000000000002cebd .LASF5187
C:\Users\CYMR90~1\AppData\Local\Temp\ccxApcqi.s:29342  .debug_str:000000000001f91d .LASF5188
C:\Users\CYMR90~1\AppData\Local\Temp\ccxApcqi.s:31600  .debug_str:0000000000028997 .LASF5189
C:\Users\CYMR90~1\AppData\Local\Temp\ccxApcqi.s:22685  .debug_str:0000000000004cd2 .LASF5190
C:\Users\CYMR90~1\AppData\Local\Temp\ccxApcqi.s:23021  .debug_str:0000000000006149 .LASF5191
C:\Users\CYMR90~1\AppData\Local\Temp\ccxApcqi.s:27960  .debug_str:000000000001a097 .LASF5192
C:\Users\CYMR90~1\AppData\Local\Temp\ccxApcqi.s:26653  .debug_str:0000000000014c2b .LASF5193
C:\Users\CYMR90~1\AppData\Local\Temp\ccxApcqi.s:25417  .debug_str:000000000000fcbc .LASF5194
C:\Users\CYMR90~1\AppData\Local\Temp\ccxApcqi.s:32054  .debug_str:000000000002a5a5 .LASF5195
C:\Users\CYMR90~1\AppData\Local\Temp\ccxApcqi.s:28394  .debug_str:000000000001bdd6 .LASF5196
C:\Users\CYMR90~1\AppData\Local\Temp\ccxApcqi.s:29876  .debug_str:00000000000219f8 .LASF5197
C:\Users\CYMR90~1\AppData\Local\Temp\ccxApcqi.s:28158  .debug_str:000000000001af2f .LASF5198
C:\Users\CYMR90~1\AppData\Local\Temp\ccxApcqi.s:23787  .debug_str:0000000000009307 .LASF5199
C:\Users\CYMR90~1\AppData\Local\Temp\ccxApcqi.s:21527  .debug_str:0000000000000379 .LASF5200
C:\Users\CYMR90~1\AppData\Local\Temp\ccxApcqi.s:25835  .debug_str:00000000000117ae .LASF5201
C:\Users\CYMR90~1\AppData\Local\Temp\ccxApcqi.s:22119  .debug_str:000000000000277c .LASF5202
C:\Users\CYMR90~1\AppData\Local\Temp\ccxApcqi.s:29068  .debug_str:000000000001e8f8 .LASF5203
C:\Users\CYMR90~1\AppData\Local\Temp\ccxApcqi.s:26675  .debug_str:0000000000014dc0 .LASF5204
C:\Users\CYMR90~1\AppData\Local\Temp\ccxApcqi.s:21473  .debug_str:0000000000000000 .LASF5205
C:\Users\CYMR90~1\AppData\Local\Temp\ccxApcqi.s:21915  .debug_str:0000000000001b70 .LASF5206
C:\Users\CYMR90~1\AppData\Local\Temp\ccxApcqi.s:31742  .debug_str:00000000000292ea .LASF5207
C:\Users\CYMR90~1\AppData\Local\Temp\ccxApcqi.s:30608  .debug_str:000000000002477a .LASF5208
C:\Users\CYMR90~1\AppData\Local\Temp\ccxApcqi.s:31378  .debug_str:0000000000027a27 .LASF5209
C:\Users\CYMR90~1\AppData\Local\Temp\ccxApcqi.s:22803  .debug_str:00000000000053f6 .LASF5210
C:\Users\CYMR90~1\AppData\Local\Temp\ccxApcqi.s:27101  .debug_str:00000000000168ab .LASF5211
C:\Users\CYMR90~1\AppData\Local\Temp\ccxApcqi.s:23001  .debug_str:0000000000005ff1 .LASF5212
C:\Users\CYMR90~1\AppData\Local\Temp\ccxApcqi.s:28050  .debug_str:000000000001a804 .LASF5213
C:\Users\CYMR90~1\AppData\Local\Temp\ccxApcqi.s:32672  .debug_str:000000000002cd7e .LASF5214
C:\Users\CYMR90~1\AppData\Local\Temp\ccxApcqi.s:27230  .debug_str:0000000000017256 .LASF5215
C:\Users\CYMR90~1\AppData\Local\Temp\ccxApcqi.s:22989  .debug_str:0000000000005f19 .LASF5216
C:\Users\CYMR90~1\AppData\Local\Temp\ccxApcqi.s:25233  .debug_str:000000000000f0ec .LASF5217
C:\Users\CYMR90~1\AppData\Local\Temp\ccxApcqi.s:25943  .debug_str:0000000000011ecd .LASF5218
C:\Users\CYMR90~1\AppData\Local\Temp\ccxApcqi.s:29980  .debug_str:0000000000022062 .LASF5219
C:\Users\CYMR90~1\AppData\Local\Temp\ccxApcqi.s:29888  .debug_str:0000000000021aa7 .LASF5220
C:\Users\CYMR90~1\AppData\Local\Temp\ccxApcqi.s:30778  .debug_str:0000000000025354 .LASF5221
C:\Users\CYMR90~1\AppData\Local\Temp\ccxApcqi.s:31556  .debug_str:00000000000286ec .LASF5222
C:\Users\CYMR90~1\AppData\Local\Temp\ccxApcqi.s:31022  .debug_str:0000000000026337 .LASF5223
C:\Users\CYMR90~1\AppData\Local\Temp\ccxApcqi.s:25749  .debug_str:0000000000011169 .LASF5224
C:\Users\CYMR90~1\AppData\Local\Temp\ccxApcqi.s:24665  .debug_str:000000000000cd15 .LASF5225
C:\Users\CYMR90~1\AppData\Local\Temp\ccxApcqi.s:29540  .debug_str:0000000000020546 .LASF5226
C:\Users\CYMR90~1\AppData\Local\Temp\ccxApcqi.s:25313  .debug_str:000000000000f64e .LASF5227
C:\Users\CYMR90~1\AppData\Local\Temp\ccxApcqi.s:24631  .debug_str:000000000000cb4d .LASF5228
C:\Users\CYMR90~1\AppData\Local\Temp\ccxApcqi.s:30998  .debug_str:00000000000261b1 .LASF5229
C:\Users\CYMR90~1\AppData\Local\Temp\ccxApcqi.s:32058  .debug_str:000000000002a602 .LASF5230
C:\Users\CYMR90~1\AppData\Local\Temp\ccxApcqi.s:24443  .debug_str:000000000000be85 .LASF5231
C:\Users\CYMR90~1\AppData\Local\Temp\ccxApcqi.s:22371  .debug_str:00000000000037c9 .LASF5232
C:\Users\CYMR90~1\AppData\Local\Temp\ccxApcqi.s:23287  .debug_str:000000000000725f .LASF5233
C:\Users\CYMR90~1\AppData\Local\Temp\ccxApcqi.s:25317  .debug_str:000000000000f69d .LASF5234
C:\Users\CYMR90~1\AppData\Local\Temp\ccxApcqi.s:22867  .debug_str:00000000000057af .LASF5235
C:\Users\CYMR90~1\AppData\Local\Temp\ccxApcqi.s:31438  .debug_str:0000000000027e7d .LASF5236
C:\Users\CYMR90~1\AppData\Local\Temp\ccxApcqi.s:25999  .debug_str:00000000000122c8 .LASF5237
C:\Users\CYMR90~1\AppData\Local\Temp\ccxApcqi.s:22207  .debug_str:0000000000002ceb .LASF5238
C:\Users\CYMR90~1\AppData\Local\Temp\ccxApcqi.s:30854  .debug_str:00000000000258e2 .LASF5239
C:\Users\CYMR90~1\AppData\Local\Temp\ccxApcqi.s:31242  .debug_str:00000000000271a3 .LASF5240
C:\Users\CYMR90~1\AppData\Local\Temp\ccxApcqi.s:25767  .debug_str:0000000000011298 .LASF5241
C:\Users\CYMR90~1\AppData\Local\Temp\ccxApcqi.s:26937  .debug_str:0000000000015ddb .LASF5242
C:\Users\CYMR90~1\AppData\Local\Temp\ccxApcqi.s:30258  .debug_str:0000000000023077 .LASF5243
C:\Users\CYMR90~1\AppData\Local\Temp\ccxApcqi.s:29002  .debug_str:000000000001e4b9 .LASF5244
C:\Users\CYMR90~1\AppData\Local\Temp\ccxApcqi.s:29906  .debug_str:0000000000021bec .LASF5245
C:\Users\CYMR90~1\AppData\Local\Temp\ccxApcqi.s:32696  .debug_str:000000000002cf19 .LASF5246
C:\Users\CYMR90~1\AppData\Local\Temp\ccxApcqi.s:30086  .debug_str:000000000002265f .LASF5247
C:\Users\CYMR90~1\AppData\Local\Temp\ccxApcqi.s:30686  .debug_str:0000000000024ca9 .LASF5248
C:\Users\CYMR90~1\AppData\Local\Temp\ccxApcqi.s:23373  .debug_str:00000000000077c5 .LASF5249
C:\Users\CYMR90~1\AppData\Local\Temp\ccxApcqi.s:22739  .debug_str:000000000000500d .LASF5250
C:\Users\CYMR90~1\AppData\Local\Temp\ccxApcqi.s:30116  .debug_str:0000000000022811 .LASF5251
C:\Users\CYMR90~1\AppData\Local\Temp\ccxApcqi.s:26059  .debug_str:000000000001268a .LASF5252
C:\Users\CYMR90~1\AppData\Local\Temp\ccxApcqi.s:30582  .debug_str:0000000000024567 .LASF5253
C:\Users\CYMR90~1\AppData\Local\Temp\ccxApcqi.s:31878  .debug_str:0000000000029b3c .LASF5254
C:\Users\CYMR90~1\AppData\Local\Temp\ccxApcqi.s:30170  .debug_str:0000000000022b9c .LASF5255
C:\Users\CYMR90~1\AppData\Local\Temp\ccxApcqi.s:30820  .debug_str:00000000000256cb .LASF5256
C:\Users\CYMR90~1\AppData\Local\Temp\ccxApcqi.s:30870  .debug_str:00000000000259f0 .LASF5257
C:\Users\CYMR90~1\AppData\Local\Temp\ccxApcqi.s:29650  .debug_str:0000000000020c22 .LASF5258
C:\Users\CYMR90~1\AppData\Local\Temp\ccxApcqi.s:25413  .debug_str:000000000000fc76 .LASF5259
C:\Users\CYMR90~1\AppData\Local\Temp\ccxApcqi.s:25585  .debug_str:0000000000010702 .LASF5260
C:\Users\CYMR90~1\AppData\Local\Temp\ccxApcqi.s:30704  .debug_str:0000000000024da9 .LASF5261
C:\Users\CYMR90~1\AppData\Local\Temp\ccxApcqi.s:24125  .debug_str:000000000000a88c .LASF5262
C:\Users\CYMR90~1\AppData\Local\Temp\ccxApcqi.s:25619  .debug_str:000000000001093c .LASF5263
C:\Users\CYMR90~1\AppData\Local\Temp\ccxApcqi.s:32144  .debug_str:000000000002aadc .LASF5264
C:\Users\CYMR90~1\AppData\Local\Temp\ccxApcqi.s:23661  .debug_str:0000000000008b8e .LASF5265
C:\Users\CYMR90~1\AppData\Local\Temp\ccxApcqi.s:24231  .debug_str:000000000000b026 .LASF5266
C:\Users\CYMR90~1\AppData\Local\Temp\ccxApcqi.s:30878  .debug_str:0000000000025a61 .LASF5267
C:\Users\CYMR90~1\AppData\Local\Temp\ccxApcqi.s:21743  .debug_str:00000000000010de .LASF5268
C:\Users\CYMR90~1\AppData\Local\Temp\ccxApcqi.s:27013  .debug_str:0000000000016283 .LASF5269
C:\Users\CYMR90~1\AppData\Local\Temp\ccxApcqi.s:26575  .debug_str:000000000001474c .LASF5270
C:\Users\CYMR90~1\AppData\Local\Temp\ccxApcqi.s:31364  .debug_str:000000000002793a .LASF5271
C:\Users\CYMR90~1\AppData\Local\Temp\ccxApcqi.s:25077  .debug_str:000000000000e7a7 .LASF5272
C:\Users\CYMR90~1\AppData\Local\Temp\ccxApcqi.s:31392  .debug_str:0000000000027b3a .LASF5273
C:\Users\CYMR90~1\AppData\Local\Temp\ccxApcqi.s:29024  .debug_str:000000000001e669 .LASF5274
C:\Users\CYMR90~1\AppData\Local\Temp\ccxApcqi.s:25819  .debug_str:00000000000115f8 .LASF5275
C:\Users\CYMR90~1\AppData\Local\Temp\ccxApcqi.s:29330  .debug_str:000000000001f846 .LASF5276
C:\Users\CYMR90~1\AppData\Local\Temp\ccxApcqi.s:22721  .debug_str:0000000000004efe .LASF5277
C:\Users\CYMR90~1\AppData\Local\Temp\ccxApcqi.s:26351  .debug_str:0000000000013989 .LASF5278
C:\Users\CYMR90~1\AppData\Local\Temp\ccxApcqi.s:29372  .debug_str:000000000001facd .LASF5279
C:\Users\CYMR90~1\AppData\Local\Temp\ccxApcqi.s:24935  .debug_str:000000000000dea6 .LASF5280
C:\Users\CYMR90~1\AppData\Local\Temp\ccxApcqi.s:28592  .debug_str:000000000001ca9e .LASF5281
C:\Users\CYMR90~1\AppData\Local\Temp\ccxApcqi.s:25055  .debug_str:000000000000e62f .LASF5282
C:\Users\CYMR90~1\AppData\Local\Temp\ccxApcqi.s:31776  .debug_str:0000000000029530 .LASF5283
C:\Users\CYMR90~1\AppData\Local\Temp\ccxApcqi.s:32540  .debug_str:000000000002c4d8 .LASF5284
C:\Users\CYMR90~1\AppData\Local\Temp\ccxApcqi.s:25087  .debug_str:000000000000e81b .LASF5285
C:\Users\CYMR90~1\AppData\Local\Temp\ccxApcqi.s:21823  .debug_str:000000000000154a .LASF5286
C:\Users\CYMR90~1\AppData\Local\Temp\ccxApcqi.s:28202  .debug_str:000000000001b241 .LASF5287
C:\Users\CYMR90~1\AppData\Local\Temp\ccxApcqi.s:31196  .debug_str:0000000000026dfe .LASF5288
C:\Users\CYMR90~1\AppData\Local\Temp\ccxApcqi.s:28092  .debug_str:000000000001aabe .LASF5289
C:\Users\CYMR90~1\AppData\Local\Temp\ccxApcqi.s:29076  .debug_str:000000000001e970 .LASF5290
C:\Users\CYMR90~1\AppData\Local\Temp\ccxApcqi.s:21673  .debug_str:0000000000000c6d .LASF5291
C:\Users\CYMR90~1\AppData\Local\Temp\ccxApcqi.s:29670  .debug_str:0000000000020d1e .LASF5292
C:\Users\CYMR90~1\AppData\Local\Temp\ccxApcqi.s:24575  .debug_str:000000000000c73d .LASF5293
C:\Users\CYMR90~1\AppData\Local\Temp\ccxApcqi.s:26881  .debug_str:00000000000159cb .LASF5294
C:\Users\CYMR90~1\AppData\Local\Temp\ccxApcqi.s:25339  .debug_str:000000000000f7f4 .LASF5295
C:\Users\CYMR90~1\AppData\Local\Temp\ccxApcqi.s:27498  .debug_str:000000000001828d .LASF5296
C:\Users\CYMR90~1\AppData\Local\Temp\ccxApcqi.s:32044  .debug_str:000000000002a50f .LASF5297
C:\Users\CYMR90~1\AppData\Local\Temp\ccxApcqi.s:26279  .debug_str:000000000001356c .LASF5298
C:\Users\CYMR90~1\AppData\Local\Temp\ccxApcqi.s:29258  .debug_str:000000000001f412 .LASF5299
C:\Users\CYMR90~1\AppData\Local\Temp\ccxApcqi.s:23351  .debug_str:000000000000766a .LASF5300
C:\Users\CYMR90~1\AppData\Local\Temp\ccxApcqi.s:30738  .debug_str:00000000000250e4 .LASF5301
C:\Users\CYMR90~1\AppData\Local\Temp\ccxApcqi.s:23227  .debug_str:0000000000006e14 .LASF5302
C:\Users\CYMR90~1\AppData\Local\Temp\ccxApcqi.s:31274  .debug_str:0000000000027366 .LASF5303
C:\Users\CYMR90~1\AppData\Local\Temp\ccxApcqi.s:31754  .debug_str:00000000000293a5 .LASF5304
C:\Users\CYMR90~1\AppData\Local\Temp\ccxApcqi.s:30004  .debug_str:00000000000221bd .LASF5305
C:\Users\CYMR90~1\AppData\Local\Temp\ccxApcqi.s:26793  .debug_str:0000000000015481 .LASF5306
C:\Users\CYMR90~1\AppData\Local\Temp\ccxApcqi.s:23667  .debug_str:0000000000008bd5 .LASF5307
C:\Users\CYMR90~1\AppData\Local\Temp\ccxApcqi.s:22285  .debug_str:0000000000003209 .LASF5308
C:\Users\CYMR90~1\AppData\Local\Temp\ccxApcqi.s:32450  .debug_str:000000000002bf04 .LASF5309
C:\Users\CYMR90~1\AppData\Local\Temp\ccxApcqi.s:23847  .debug_str:00000000000096ea .LASF5310
C:\Users\CYMR90~1\AppData\Local\Temp\ccxApcqi.s:23671  .debug_str:0000000000008bfc .LASF5311
C:\Users\CYMR90~1\AppData\Local\Temp\ccxApcqi.s:31948  .debug_str:0000000000029f3b .LASF5312
C:\Users\CYMR90~1\AppData\Local\Temp\ccxApcqi.s:25177  .debug_str:000000000000ed76 .LASF5313
C:\Users\CYMR90~1\AppData\Local\Temp\ccxApcqi.s:31644  .debug_str:0000000000028c65 .LASF5314
C:\Users\CYMR90~1\AppData\Local\Temp\ccxApcqi.s:23785  .debug_str:00000000000092ef .LASF5315
C:\Users\CYMR90~1\AppData\Local\Temp\ccxApcqi.s:32346  .debug_str:000000000002b7f5 .LASF5316
C:\Users\CYMR90~1\AppData\Local\Temp\ccxApcqi.s:30942  .debug_str:0000000000025e58 .LASF5317
C:\Users\CYMR90~1\AppData\Local\Temp\ccxApcqi.s:25321  .debug_str:000000000000f6f3 .LASF5318
C:\Users\CYMR90~1\AppData\Local\Temp\ccxApcqi.s:22567  .debug_str:00000000000044be .LASF5319
C:\Users\CYMR90~1\AppData\Local\Temp\ccxApcqi.s:28052  .debug_str:000000000001a82b .LASF5320
C:\Users\CYMR90~1\AppData\Local\Temp\ccxApcqi.s:30698  .debug_str:0000000000024d5e .LASF5321
C:\Users\CYMR90~1\AppData\Local\Temp\ccxApcqi.s:25259  .debug_str:000000000000f2b5 .LASF5322
C:\Users\CYMR90~1\AppData\Local\Temp\ccxApcqi.s:21579  .debug_str:000000000000066a .LASF5323
C:\Users\CYMR90~1\AppData\Local\Temp\ccxApcqi.s:21529  .debug_str:00000000000003a3 .LASF5324
C:\Users\CYMR90~1\AppData\Local\Temp\ccxApcqi.s:21875  .debug_str:0000000000001911 .LASF5325
C:\Users\CYMR90~1\AppData\Local\Temp\ccxApcqi.s:30340  .debug_str:00000000000235f3 .LASF5326
C:\Users\CYMR90~1\AppData\Local\Temp\ccxApcqi.s:30994  .debug_str:0000000000026170 .LASF5327
C:\Users\CYMR90~1\AppData\Local\Temp\ccxApcqi.s:26159  .debug_str:0000000000012d26 .LASF5328
C:\Users\CYMR90~1\AppData\Local\Temp\ccxApcqi.s:30512  .debug_str:0000000000024111 .LASF5329
C:\Users\CYMR90~1\AppData\Local\Temp\ccxApcqi.s:22163  .debug_str:0000000000002a39 .LASF5330
C:\Users\CYMR90~1\AppData\Local\Temp\ccxApcqi.s:26889  .debug_str:0000000000015a99 .LASF5331
C:\Users\CYMR90~1\AppData\Local\Temp\ccxApcqi.s:29456  .debug_str:000000000001ffd3 .LASF5332
C:\Users\CYMR90~1\AppData\Local\Temp\ccxApcqi.s:31914  .debug_str:0000000000029d30 .LASF5333
C:\Users\CYMR90~1\AppData\Local\Temp\ccxApcqi.s:23575  .debug_str:000000000000860e .LASF5334
C:\Users\CYMR90~1\AppData\Local\Temp\ccxApcqi.s:30142  .debug_str:00000000000229fb .LASF5335
C:\Users\CYMR90~1\AppData\Local\Temp\ccxApcqi.s:29436  .debug_str:000000000001fec3 .LASF5336
C:\Users\CYMR90~1\AppData\Local\Temp\ccxApcqi.s:22623  .debug_str:0000000000004901 .LASF5337
C:\Users\CYMR90~1\AppData\Local\Temp\ccxApcqi.s:23045  .debug_str:00000000000062aa .LASF5338
C:\Users\CYMR90~1\AppData\Local\Temp\ccxApcqi.s:30098  .debug_str:000000000002272e .LASF5339
C:\Users\CYMR90~1\AppData\Local\Temp\ccxApcqi.s:31828  .debug_str:000000000002983b .LASF5340
C:\Users\CYMR90~1\AppData\Local\Temp\ccxApcqi.s:27676  .debug_str:0000000000018e34 .LASF5341
C:\Users\CYMR90~1\AppData\Local\Temp\ccxApcqi.s:24477  .debug_str:000000000000c0cb .LASF5342
C:\Users\CYMR90~1\AppData\Local\Temp\ccxApcqi.s:29158  .debug_str:000000000001ee0e .LASF5343
C:\Users\CYMR90~1\AppData\Local\Temp\ccxApcqi.s:26033  .debug_str:00000000000124f8 .LASF5344
C:\Users\CYMR90~1\AppData\Local\Temp\ccxApcqi.s:29546  .debug_str:00000000000205dc .LASF5345
C:\Users\CYMR90~1\AppData\Local\Temp\ccxApcqi.s:26355  .debug_str:00000000000139dc .LASF5346
C:\Users\CYMR90~1\AppData\Local\Temp\ccxApcqi.s:31780  .debug_str:0000000000029586 .LASF5347
C:\Users\CYMR90~1\AppData\Local\Temp\ccxApcqi.s:25503  .debug_str:0000000000010231 .LASF5348
C:\Users\CYMR90~1\AppData\Local\Temp\ccxApcqi.s:24731  .debug_str:000000000000d1b8 .LASF5349
C:\Users\CYMR90~1\AppData\Local\Temp\ccxApcqi.s:29168  .debug_str:000000000001eec7 .LASF5350
C:\Users\CYMR90~1\AppData\Local\Temp\ccxApcqi.s:32370  .debug_str:000000000002b97d .LASF5351
C:\Users\CYMR90~1\AppData\Local\Temp\ccxApcqi.s:30122  .debug_str:00000000000228fd .LASF5352
C:\Users\CYMR90~1\AppData\Local\Temp\ccxApcqi.s:30270  .debug_str:0000000000023145 .LASF5353
C:\Users\CYMR90~1\AppData\Local\Temp\ccxApcqi.s:24275  .debug_str:000000000000b27d .LASF5354
C:\Users\CYMR90~1\AppData\Local\Temp\ccxApcqi.s:30392  .debug_str:00000000000238d8 .LASF5355
C:\Users\CYMR90~1\AppData\Local\Temp\ccxApcqi.s:30008  .debug_str:00000000000221ee .LASF5356
C:\Users\CYMR90~1\AppData\Local\Temp\ccxApcqi.s:27928  .debug_str:0000000000019ee0 .LASF5357
C:\Users\CYMR90~1\AppData\Local\Temp\ccxApcqi.s:27456  .debug_str:0000000000018027 .LASF5358
C:\Users\CYMR90~1\AppData\Local\Temp\ccxApcqi.s:29878  .debug_str:0000000000021a1e .LASF5359
C:\Users\CYMR90~1\AppData\Local\Temp\ccxApcqi.s:31104  .debug_str:000000000002686d .LASF5360
C:\Users\CYMR90~1\AppData\Local\Temp\ccxApcqi.s:23423  .debug_str:0000000000007b20 .LASF5361
C:\Users\CYMR90~1\AppData\Local\Temp\ccxApcqi.s:22877  .debug_str:0000000000005867 .LASF5362
C:\Users\CYMR90~1\AppData\Local\Temp\ccxApcqi.s:23179  .debug_str:0000000000006af3 .LASF5363
C:\Users\CYMR90~1\AppData\Local\Temp\ccxApcqi.s:24619  .debug_str:000000000000ca96 .LASF5364
C:\Users\CYMR90~1\AppData\Local\Temp\ccxApcqi.s:25965  .debug_str:00000000000120d1 .LASF5365
C:\Users\CYMR90~1\AppData\Local\Temp\ccxApcqi.s:24369  .debug_str:000000000000b94c .LASF5366
C:\Users\CYMR90~1\AppData\Local\Temp\ccxApcqi.s:31384  .debug_str:0000000000027ad8 .LASF5367
C:\Users\CYMR90~1\AppData\Local\Temp\ccxApcqi.s:30978  .debug_str:0000000000026096 .LASF5368
C:\Users\CYMR90~1\AppData\Local\Temp\ccxApcqi.s:26705  .debug_str:0000000000014f96 .LASF5369
C:\Users\CYMR90~1\AppData\Local\Temp\ccxApcqi.s:29326  .debug_str:000000000001f81e .LASF5370
C:\Users\CYMR90~1\AppData\Local\Temp\ccxApcqi.s:28374  .debug_str:000000000001bca4 .LASF5371
C:\Users\CYMR90~1\AppData\Local\Temp\ccxApcqi.s:32518  .debug_str:000000000002c3ae .LASF5372
C:\Users\CYMR90~1\AppData\Local\Temp\ccxApcqi.s:28822  .debug_str:000000000001d9f0 .LASF5373
C:\Users\CYMR90~1\AppData\Local\Temp\ccxApcqi.s:28618  .debug_str:000000000001ccf6 .LASF5374
C:\Users\CYMR90~1\AppData\Local\Temp\ccxApcqi.s:29720  .debug_str:0000000000020feb .LASF5375
C:\Users\CYMR90~1\AppData\Local\Temp\ccxApcqi.s:24695  .debug_str:000000000000cf22 .LASF5376
C:\Users\CYMR90~1\AppData\Local\Temp\ccxApcqi.s:28770  .debug_str:000000000001d6cc .LASF5377
C:\Users\CYMR90~1\AppData\Local\Temp\ccxApcqi.s:27340  .debug_str:000000000001795f .LASF5378
C:\Users\CYMR90~1\AppData\Local\Temp\ccxApcqi.s:26517  .debug_str:0000000000014389 .LASF5379
C:\Users\CYMR90~1\AppData\Local\Temp\ccxApcqi.s:22231  .debug_str:0000000000002e5c .LASF5380
C:\Users\CYMR90~1\AppData\Local\Temp\ccxApcqi.s:26713  .debug_str:0000000000015014 .LASF5381
C:\Users\CYMR90~1\AppData\Local\Temp\ccxApcqi.s:24757  .debug_str:000000000000d3ca .LASF5382
C:\Users\CYMR90~1\AppData\Local\Temp\ccxApcqi.s:26385  .debug_str:0000000000013bcb .LASF5383
C:\Users\CYMR90~1\AppData\Local\Temp\ccxApcqi.s:22161  .debug_str:0000000000002a1d .LASF5384
C:\Users\CYMR90~1\AppData\Local\Temp\ccxApcqi.s:23963  .debug_str:0000000000009e71 .LASF5385
C:\Users\CYMR90~1\AppData\Local\Temp\ccxApcqi.s:30718  .debug_str:0000000000024f04 .LASF5386
C:\Users\CYMR90~1\AppData\Local\Temp\ccxApcqi.s:28682  .debug_str:000000000001d14e .LASF5387
C:\Users\CYMR90~1\AppData\Local\Temp\ccxApcqi.s:32600  .debug_str:000000000002c8f3 .LASF5388
C:\Users\CYMR90~1\AppData\Local\Temp\ccxApcqi.s:26893  .debug_str:0000000000015abf .LASF5389
C:\Users\CYMR90~1\AppData\Local\Temp\ccxApcqi.s:23995  .debug_str:000000000000a05c .LASF5390
C:\Users\CYMR90~1\AppData\Local\Temp\ccxApcqi.s:22563  .debug_str:0000000000004498 .LASF5391
C:\Users\CYMR90~1\AppData\Local\Temp\ccxApcqi.s:29446  .debug_str:000000000001ff39 .LASF5392
C:\Users\CYMR90~1\AppData\Local\Temp\ccxApcqi.s:30814  .debug_str:000000000002565a .LASF5393
C:\Users\CYMR90~1\AppData\Local\Temp\ccxApcqi.s:24593  .debug_str:000000000000c85e .LASF5394
C:\Users\CYMR90~1\AppData\Local\Temp\ccxApcqi.s:24025  .debug_str:000000000000a241 .LASF5395
C:\Users\CYMR90~1\AppData\Local\Temp\ccxApcqi.s:28138  .debug_str:000000000001adc4 .LASF5396
C:\Users\CYMR90~1\AppData\Local\Temp\ccxApcqi.s:25399  .debug_str:000000000000fb78 .LASF5397
C:\Users\CYMR90~1\AppData\Local\Temp\ccxApcqi.s:27616  .debug_str:00000000000189d7 .LASF5398
C:\Users\CYMR90~1\AppData\Local\Temp\ccxApcqi.s:24561  .debug_str:000000000000c5ea .LASF5399
C:\Users\CYMR90~1\AppData\Local\Temp\ccxApcqi.s:24697  .debug_str:000000000000cf3a .LASF5400
C:\Users\CYMR90~1\AppData\Local\Temp\ccxApcqi.s:25771  .debug_str:00000000000112dc .LASF5401
C:\Users\CYMR90~1\AppData\Local\Temp\ccxApcqi.s:28816  .debug_str:000000000001d98f .LASF5402
C:\Users\CYMR90~1\AppData\Local\Temp\ccxApcqi.s:23755  .debug_str:000000000000913c .LASF5403
C:\Users\CYMR90~1\AppData\Local\Temp\ccxApcqi.s:23819  .debug_str:000000000000954b .LASF5404
C:\Users\CYMR90~1\AppData\Local\Temp\ccxApcqi.s:28706  .debug_str:000000000001d2bb .LASF5405
C:\Users\CYMR90~1\AppData\Local\Temp\ccxApcqi.s:27276  .debug_str:0000000000017513 .LASF5406
C:\Users\CYMR90~1\AppData\Local\Temp\ccxApcqi.s:30026  .debug_str:00000000000222bc .LASF5407
C:\Users\CYMR90~1\AppData\Local\Temp\ccxApcqi.s:21481  .debug_str:00000000000000a6 .LASF5408
C:\Users\CYMR90~1\AppData\Local\Temp\ccxApcqi.s:29410  .debug_str:000000000001fd47 .LASF5409
C:\Users\CYMR90~1\AppData\Local\Temp\ccxApcqi.s:32674  .debug_str:000000000002cda5 .LASF5410
C:\Users\CYMR90~1\AppData\Local\Temp\ccxApcqi.s:28846  .debug_str:000000000001db55 .LASF5411
C:\Users\CYMR90~1\AppData\Local\Temp\ccxApcqi.s:22929  .debug_str:0000000000005b8a .LASF5412
C:\Users\CYMR90~1\AppData\Local\Temp\ccxApcqi.s:22099  .debug_str:00000000000025f9 .LASF5413
C:\Users\CYMR90~1\AppData\Local\Temp\ccxApcqi.s:29640  .debug_str:0000000000020b85 .LASF5414
C:\Users\CYMR90~1\AppData\Local\Temp\ccxApcqi.s:27930  .debug_str:0000000000019ef7 .LASF5415
C:\Users\CYMR90~1\AppData\Local\Temp\ccxApcqi.s:21571  .debug_str:00000000000005d6 .LASF5416
C:\Users\CYMR90~1\AppData\Local\Temp\ccxApcqi.s:25993  .debug_str:000000000001224a .LASF5417
C:\Users\CYMR90~1\AppData\Local\Temp\ccxApcqi.s:26415  .debug_str:0000000000013d57 .LASF5418
C:\Users\CYMR90~1\AppData\Local\Temp\ccxApcqi.s:25963  .debug_str:00000000000120b8 .LASF5419
C:\Users\CYMR90~1\AppData\Local\Temp\ccxApcqi.s:23051  .debug_str:000000000000630c .LASF5420
C:\Users\CYMR90~1\AppData\Local\Temp\ccxApcqi.s:29146  .debug_str:000000000001ed3a .LASF5421
C:\Users\CYMR90~1\AppData\Local\Temp\ccxApcqi.s:27290  .debug_str:0000000000017618 .LASF5422
C:\Users\CYMR90~1\AppData\Local\Temp\ccxApcqi.s:21827  .debug_str:0000000000001590 .LASF5423
C:\Users\CYMR90~1\AppData\Local\Temp\ccxApcqi.s:29364  .debug_str:000000000001fa6c .LASF5424
C:\Users\CYMR90~1\AppData\Local\Temp\ccxApcqi.s:22177  .debug_str:0000000000002b2b .LASF5425
C:\Users\CYMR90~1\AppData\Local\Temp\ccxApcqi.s:30290  .debug_str:0000000000023263 .LASF5426
C:\Users\CYMR90~1\AppData\Local\Temp\ccxApcqi.s:21783  .debug_str:00000000000012f6 .LASF5427
C:\Users\CYMR90~1\AppData\Local\Temp\ccxApcqi.s:31140  .debug_str:0000000000026a78 .LASF5428
C:\Users\CYMR90~1\AppData\Local\Temp\ccxApcqi.s:26947  .debug_str:0000000000015e91 .LASF5429
C:\Users\CYMR90~1\AppData\Local\Temp\ccxApcqi.s:22393  .debug_str:0000000000003934 .LASF5430
C:\Users\CYMR90~1\AppData\Local\Temp\ccxApcqi.s:24239  .debug_str:000000000000b092 .LASF5431
C:\Users\CYMR90~1\AppData\Local\Temp\ccxApcqi.s:30438  .debug_str:0000000000023b76 .LASF5432
C:\Users\CYMR90~1\AppData\Local\Temp\ccxApcqi.s:22955  .debug_str:0000000000005d35 .LASF5433
C:\Users\CYMR90~1\AppData\Local\Temp\ccxApcqi.s:31284  .debug_str:00000000000273f7 .LASF5434
C:\Users\CYMR90~1\AppData\Local\Temp\ccxApcqi.s:23517  .debug_str:0000000000008255 .LASF5435
C:\Users\CYMR90~1\AppData\Local\Temp\ccxApcqi.s:32244  .debug_str:000000000002b137 .LASF5436
C:\Users\CYMR90~1\AppData\Local\Temp\ccxApcqi.s:29440  .debug_str:000000000001feee .LASF5437
C:\Users\CYMR90~1\AppData\Local\Temp\ccxApcqi.s:27768  .debug_str:0000000000019473 .LASF5438
C:\Users\CYMR90~1\AppData\Local\Temp\ccxApcqi.s:21707  .debug_str:0000000000000ed5 .LASF5439
C:\Users\CYMR90~1\AppData\Local\Temp\ccxApcqi.s:29272  .debug_str:000000000001f4e7 .LASF5440
C:\Users\CYMR90~1\AppData\Local\Temp\ccxApcqi.s:22903  .debug_str:00000000000059f3 .LASF5441
C:\Users\CYMR90~1\AppData\Local\Temp\ccxApcqi.s:32212  .debug_str:000000000002aedf .LASF5442
C:\Users\CYMR90~1\AppData\Local\Temp\ccxApcqi.s:27011  .debug_str:0000000000016266 .LASF5443
C:\Users\CYMR90~1\AppData\Local\Temp\ccxApcqi.s:26813  .debug_str:00000000000155af .LASF5444
C:\Users\CYMR90~1\AppData\Local\Temp\ccxApcqi.s:27840  .debug_str:00000000000199a8 .LASF5445
C:\Users\CYMR90~1\AppData\Local\Temp\ccxApcqi.s:24299  .debug_str:000000000000b498 .LASF5446
C:\Users\CYMR90~1\AppData\Local\Temp\ccxApcqi.s:30600  .debug_str:0000000000024719 .LASF5447
C:\Users\CYMR90~1\AppData\Local\Temp\ccxApcqi.s:32190  .debug_str:000000000002ad9f .LASF5448
C:\Users\CYMR90~1\AppData\Local\Temp\ccxApcqi.s:22441  .debug_str:0000000000003c31 .LASF5449
C:\Users\CYMR90~1\AppData\Local\Temp\ccxApcqi.s:29070  .debug_str:000000000001e924 .LASF5450
C:\Users\CYMR90~1\AppData\Local\Temp\ccxApcqi.s:28344  .debug_str:000000000001baa7 .LASF5451
C:\Users\CYMR90~1\AppData\Local\Temp\ccxApcqi.s:26183  .debug_str:0000000000012eb4 .LASF5452
C:\Users\CYMR90~1\AppData\Local\Temp\ccxApcqi.s:31940  .debug_str:0000000000029ece .LASF5453
C:\Users\CYMR90~1\AppData\Local\Temp\ccxApcqi.s:29850  .debug_str:000000000002184b .LASF5454
C:\Users\CYMR90~1\AppData\Local\Temp\ccxApcqi.s:23841  .debug_str:000000000000967f .LASF5455
C:\Users\CYMR90~1\AppData\Local\Temp\ccxApcqi.s:32582  .debug_str:000000000002c7cc .LASF5456
C:\Users\CYMR90~1\AppData\Local\Temp\ccxApcqi.s:31652  .debug_str:0000000000028cc6 .LASF5457
C:\Users\CYMR90~1\AppData\Local\Temp\ccxApcqi.s:22273  .debug_str:000000000000312f .LASF5458
C:\Users\CYMR90~1\AppData\Local\Temp\ccxApcqi.s:29802  .debug_str:0000000000021595 .LASF5459
C:\Users\CYMR90~1\AppData\Local\Temp\ccxApcqi.s:32550  .debug_str:000000000002c587 .LASF5460
C:\Users\CYMR90~1\AppData\Local\Temp\ccxApcqi.s:29046  .debug_str:000000000001e7b4 .LASF5461
C:\Users\CYMR90~1\AppData\Local\Temp\ccxApcqi.s:31896  .debug_str:0000000000029c47 .LASF5462
C:\Users\CYMR90~1\AppData\Local\Temp\ccxApcqi.s:26887  .debug_str:0000000000015a79 .LASF5463
C:\Users\CYMR90~1\AppData\Local\Temp\ccxApcqi.s:28980  .debug_str:000000000001e38a .LASF5464
C:\Users\CYMR90~1\AppData\Local\Temp\ccxApcqi.s:25291  .debug_str:000000000000f477 .LASF5465
C:\Users\CYMR90~1\AppData\Local\Temp\ccxApcqi.s:25279  .debug_str:000000000000f3ca .LASF5466
C:\Users\CYMR90~1\AppData\Local\Temp\ccxApcqi.s:29344  .debug_str:000000000001f93c .LASF5467
C:\Users\CYMR90~1\AppData\Local\Temp\ccxApcqi.s:31032  .debug_str:00000000000263dd .LASF5468
C:\Users\CYMR90~1\AppData\Local\Temp\ccxApcqi.s:21859  .debug_str:000000000000181e .LASF5469
C:\Users\CYMR90~1\AppData\Local\Temp\ccxApcqi.s:27784  .debug_str:0000000000019562 .LASF5470
C:\Users\CYMR90~1\AppData\Local\Temp\ccxApcqi.s:21661  .debug_str:0000000000000bca .LASF5471
C:\Users\CYMR90~1\AppData\Local\Temp\ccxApcqi.s:27326  .debug_str:0000000000017887 .LASF5472
C:\Users\CYMR90~1\AppData\Local\Temp\ccxApcqi.s:21975  .debug_str:0000000000001ee5 .LASF5473
C:\Users\CYMR90~1\AppData\Local\Temp\ccxApcqi.s:26883  .debug_str:00000000000159e3 .LASF5474
C:\Users\CYMR90~1\AppData\Local\Temp\ccxApcqi.s:25031  .debug_str:000000000000e488 .LASF5475
C:\Users\CYMR90~1\AppData\Local\Temp\ccxApcqi.s:25773  .debug_str:00000000000112fe .LASF5476
C:\Users\CYMR90~1\AppData\Local\Temp\ccxApcqi.s:24173  .debug_str:000000000000ab9e .LASF5477
C:\Users\CYMR90~1\AppData\Local\Temp\ccxApcqi.s:22485  .debug_str:0000000000003f22 .LASF5478
C:\Users\CYMR90~1\AppData\Local\Temp\ccxApcqi.s:32300  .debug_str:000000000002b4c0 .LASF5479
C:\Users\CYMR90~1\AppData\Local\Temp\ccxApcqi.s:24003  .debug_str:000000000000a0e8 .LASF5480
C:\Users\CYMR90~1\AppData\Local\Temp\ccxApcqi.s:29586  .debug_str:0000000000020820 .LASF5481
C:\Users\CYMR90~1\AppData\Local\Temp\ccxApcqi.s:30284  .debug_str:000000000002320d .LASF5482
C:\Users\CYMR90~1\AppData\Local\Temp\ccxApcqi.s:32336  .debug_str:000000000002b750 .LASF5483
C:\Users\CYMR90~1\AppData\Local\Temp\ccxApcqi.s:21765  .debug_str:0000000000001202 .LASF5484
C:\Users\CYMR90~1\AppData\Local\Temp\ccxApcqi.s:27168  .debug_str:0000000000016ee2 .LASF5485
C:\Users\CYMR90~1\AppData\Local\Temp\ccxApcqi.s:29918  .debug_str:0000000000021ca9 .LASF5486
C:\Users\CYMR90~1\AppData\Local\Temp\ccxApcqi.s:28848  .debug_str:000000000001db77 .LASF5487
C:\Users\CYMR90~1\AppData\Local\Temp\ccxApcqi.s:25463  .debug_str:000000000000ff99 .LASF5488
C:\Users\CYMR90~1\AppData\Local\Temp\ccxApcqi.s:30246  .debug_str:0000000000022fdc .LASF5489
C:\Users\CYMR90~1\AppData\Local\Temp\ccxApcqi.s:28120  .debug_str:000000000001ac5f .LASF5490
C:\Users\CYMR90~1\AppData\Local\Temp\ccxApcqi.s:24909  .debug_str:000000000000dd09 .LASF5491
C:\Users\CYMR90~1\AppData\Local\Temp\ccxApcqi.s:26459  .debug_str:0000000000014020 .LASF5492
C:\Users\CYMR90~1\AppData\Local\Temp\ccxApcqi.s:31516  .debug_str:0000000000028442 .LASF5493
C:\Users\CYMR90~1\AppData\Local\Temp\ccxApcqi.s:32448  .debug_str:000000000002becb .LASF5494
C:\Users\CYMR90~1\AppData\Local\Temp\ccxApcqi.s:25053  .debug_str:000000000000e622 .LASF5495
C:\Users\CYMR90~1\AppData\Local\Temp\ccxApcqi.s:24067  .debug_str:000000000000a4fc .LASF5496
C:\Users\CYMR90~1\AppData\Local\Temp\ccxApcqi.s:26809  .debug_str:0000000000015573 .LASF5497
C:\Users\CYMR90~1\AppData\Local\Temp\ccxApcqi.s:21811  .debug_str:0000000000001497 .LASF5498
C:\Users\CYMR90~1\AppData\Local\Temp\ccxApcqi.s:22555  .debug_str:00000000000043fb .LASF5499
C:\Users\CYMR90~1\AppData\Local\Temp\ccxApcqi.s:28032  .debug_str:000000000001a702 .LASF5500
C:\Users\CYMR90~1\AppData\Local\Temp\ccxApcqi.s:28070  .debug_str:000000000001a95e .LASF5501
C:\Users\CYMR90~1\AppData\Local\Temp\ccxApcqi.s:31580  .debug_str:0000000000028887 .LASF5502
C:\Users\CYMR90~1\AppData\Local\Temp\ccxApcqi.s:27790  .debug_str:00000000000195fe .LASF5503
C:\Users\CYMR90~1\AppData\Local\Temp\ccxApcqi.s:26431  .debug_str:0000000000013e49 .LASF5504
C:\Users\CYMR90~1\AppData\Local\Temp\ccxApcqi.s:29458  .debug_str:000000000001ffeb .LASF5505
C:\Users\CYMR90~1\AppData\Local\Temp\ccxApcqi.s:28226  .debug_str:000000000001b3a0 .LASF5506
C:\Users\CYMR90~1\AppData\Local\Temp\ccxApcqi.s:27166  .debug_str:0000000000016ebf .LASF5507
C:\Users\CYMR90~1\AppData\Local\Temp\ccxApcqi.s:24311  .debug_str:000000000000b587 .LASF5508
C:\Users\CYMR90~1\AppData\Local\Temp\ccxApcqi.s:25731  .debug_str:000000000001102e .LASF5509
C:\Users\CYMR90~1\AppData\Local\Temp\ccxApcqi.s:30640  .debug_str:000000000002499b .LASF5510
C:\Users\CYMR90~1\AppData\Local\Temp\ccxApcqi.s:24439  .debug_str:000000000000be63 .LASF5511
C:\Users\CYMR90~1\AppData\Local\Temp\ccxApcqi.s:28118  .debug_str:000000000001ac47 .LASF5512
C:\Users\CYMR90~1\AppData\Local\Temp\ccxApcqi.s:26219  .debug_str:0000000000013121 .LASF5513
C:\Users\CYMR90~1\AppData\Local\Temp\ccxApcqi.s:22727  .debug_str:0000000000004f5e .LASF5514
C:\Users\CYMR90~1\AppData\Local\Temp\ccxApcqi.s:32194  .debug_str:000000000002add1 .LASF5515
C:\Users\CYMR90~1\AppData\Local\Temp\ccxApcqi.s:29306  .debug_str:000000000001f6e1 .LASF5516
C:\Users\CYMR90~1\AppData\Local\Temp\ccxApcqi.s:31202  .debug_str:0000000000026e4f .LASF5517
C:\Users\CYMR90~1\AppData\Local\Temp\ccxApcqi.s:29636  .debug_str:0000000000020b5a .LASF5518
C:\Users\CYMR90~1\AppData\Local\Temp\ccxApcqi.s:32692  .debug_str:000000000002cedc .LASF5519
C:\Users\CYMR90~1\AppData\Local\Temp\ccxApcqi.s:29662  .debug_str:0000000000020caf .LASF5520
C:\Users\CYMR90~1\AppData\Local\Temp\ccxApcqi.s:21969  .debug_str:0000000000001ea9 .LASF5521
C:\Users\CYMR90~1\AppData\Local\Temp\ccxApcqi.s:28988  .debug_str:000000000001e410 .LASF5522
C:\Users\CYMR90~1\AppData\Local\Temp\ccxApcqi.s:22217  .debug_str:0000000000002d8a .LASF5523
C:\Users\CYMR90~1\AppData\Local\Temp\ccxApcqi.s:26329  .debug_str:0000000000013872 .LASF5524
C:\Users\CYMR90~1\AppData\Local\Temp\ccxApcqi.s:32476  .debug_str:000000000002c098 .LASF5525
C:\Users\CYMR90~1\AppData\Local\Temp\ccxApcqi.s:31108  .debug_str:000000000002689f .LASF5526
C:\Users\CYMR90~1\AppData\Local\Temp\ccxApcqi.s:22951  .debug_str:0000000000005cec .LASF5527
C:\Users\CYMR90~1\AppData\Local\Temp\ccxApcqi.s:32166  .debug_str:000000000002ac49 .LASF5528
C:\Users\CYMR90~1\AppData\Local\Temp\ccxApcqi.s:28730  .debug_str:000000000001d433 .LASF5529
C:\Users\CYMR90~1\AppData\Local\Temp\ccxApcqi.s:26371  .debug_str:0000000000013add .LASF5530
C:\Users\CYMR90~1\AppData\Local\Temp\ccxApcqi.s:25365  .debug_str:000000000000f964 .LASF5531
C:\Users\CYMR90~1\AppData\Local\Temp\ccxApcqi.s:24505  .debug_str:000000000000c248 .LASF5532
C:\Users\CYMR90~1\AppData\Local\Temp\ccxApcqi.s:28282  .debug_str:000000000001b72c .LASF5533
C:\Users\CYMR90~1\AppData\Local\Temp\ccxApcqi.s:31506  .debug_str:000000000002837d .LASF5534
C:\Users\CYMR90~1\AppData\Local\Temp\ccxApcqi.s:27180  .debug_str:0000000000016f94 .LASF5535
C:\Users\CYMR90~1\AppData\Local\Temp\ccxApcqi.s:28274  .debug_str:000000000001b690 .LASF5536
C:\Users\CYMR90~1\AppData\Local\Temp\ccxApcqi.s:22557  .debug_str:000000000000441c .LASF5537
C:\Users\CYMR90~1\AppData\Local\Temp\ccxApcqi.s:27374  .debug_str:0000000000017b41 .LASF5538
C:\Users\CYMR90~1\AppData\Local\Temp\ccxApcqi.s:29856  .debug_str:00000000000218c5 .LASF5539
C:\Users\CYMR90~1\AppData\Local\Temp\ccxApcqi.s:29062  .debug_str:000000000001e89c .LASF5540
C:\Users\CYMR90~1\AppData\Local\Temp\ccxApcqi.s:28738  .debug_str:000000000001d482 .LASF5541
C:\Users\CYMR90~1\AppData\Local\Temp\ccxApcqi.s:24807  .debug_str:000000000000d6df .LASF5542
C:\Users\CYMR90~1\AppData\Local\Temp\ccxApcqi.s:30440  .debug_str:0000000000023bad .LASF5543
C:\Users\CYMR90~1\AppData\Local\Temp\ccxApcqi.s:25239  .debug_str:000000000000f13b .LASF5544
C:\Users\CYMR90~1\AppData\Local\Temp\ccxApcqi.s:22433  .debug_str:0000000000003ba7 .LASF5545
C:\Users\CYMR90~1\AppData\Local\Temp\ccxApcqi.s:27636  .debug_str:0000000000018bac .LASF5546
C:\Users\CYMR90~1\AppData\Local\Temp\ccxApcqi.s:21947  .debug_str:0000000000001d4a .LASF5547
C:\Users\CYMR90~1\AppData\Local\Temp\ccxApcqi.s:32700  .debug_str:000000000002cf57 .LASF5548
C:\Users\CYMR90~1\AppData\Local\Temp\ccxApcqi.s:26637  .debug_str:0000000000014af3 .LASF5549
C:\Users\CYMR90~1\AppData\Local\Temp\ccxApcqi.s:26543  .debug_str:0000000000014553 .LASF5550
C:\Users\CYMR90~1\AppData\Local\Temp\ccxApcqi.s:24435  .debug_str:000000000000be20 .LASF5551
C:\Users\CYMR90~1\AppData\Local\Temp\ccxApcqi.s:24889  .debug_str:000000000000db88 .LASF5552
C:\Users\CYMR90~1\AppData\Local\Temp\ccxApcqi.s:30338  .debug_str:00000000000235cd .LASF5553
C:\Users\CYMR90~1\AppData\Local\Temp\ccxApcqi.s:27222  .debug_str:00000000000171e7 .LASF5554
C:\Users\CYMR90~1\AppData\Local\Temp\ccxApcqi.s:26325  .debug_str:0000000000013828 .LASF5555
                           .group:0000000000000000 wm4.0.10abbef32179bc1260444192115bdf5e
                           .group:0000000000000000 wm4.stddef.h.39.144cf5ddcd53cbfdac30259dc1a6c87f
                           .group:0000000000000000 wm4._newlib_version.h.4.bfdf54b0af045d4a71376ae00f63a22c
                           .group:0000000000000000 wm4.newlib.h.18.08a2ecba46890ca2aa56bbe21686e6c3
                           .group:0000000000000000 wm4.ieeefp.h.202.4f2759f5758fd82153cfbf98692f2ced
                           .group:0000000000000000 wm4.features.h.22.fad1cec3bc7ff06488171438dbdcfd02
                           .group:0000000000000000 wm4.config.h.83.13bbc8852bfac55b724c9822481355b5
                           .group:0000000000000000 wm4._ansi.h.31.de524f58584151836e90d8620a16f8e8
                           .group:0000000000000000 wm4.stdio.h.31.7c0e28c411445f3f9c5b11accf882760
                           .group:0000000000000000 wm4._default_types.h.6.959254cf5f09734ea7516c89e8bb21bd
                           .group:0000000000000000 wm4.stddef.h.155.ba788add86a0e365f264484f110c3c29
                           .group:0000000000000000 wm4.cdefs.h.49.39045112216f6a021dbdffe3bf5accce
                           .group:0000000000000000 wm4.stdarg.h.34.3a23a216c0c293b3d2ea2e89281481e6
                           .group:0000000000000000 wm4._types.h.20.dd0d04dca3800a0d2a6129b87f3adbb2
                           .group:0000000000000000 wm4.stddef.h.155.3588ebfdd1e8c7ede80509bb9c3b8009
                           .group:0000000000000000 wm4._types.h.127.34941de1b2539d59d5cac00e0dd27a45
                           .group:0000000000000000 wm4.reent.h.17.e292bf8b0bec6c96e131a54347145a30
                           .group:0000000000000000 wm4.lock.h.2.c0958401bd0ce484d507ee19aacab817
                           .group:0000000000000000 wm4.reent.h.77.dcd6129ff07fe81bd5636db29abe53b2
                           .group:0000000000000000 wm4.types.h.40.8b6acba56cefbb11746718204edc8f5e
                           .group:0000000000000000 wm4._stdint.h.10.c24fa3af3bc1706662bb5593a907e841
                           .group:0000000000000000 wm4._endian.h.18.1bf9649e8e5bbc91042012680270b9ed
                           .group:0000000000000000 wm4.endian.h.9.49f3a4695c1b61e8a0808de3c4a106cb
                           .group:0000000000000000 wm4._timeval.h.32.bec3221fa7a9bb0bdde696c9c57e47d2
                           .group:0000000000000000 wm4.timespec.h.41.d855182eb0e690443ab8651bcedca6e1
                           .group:0000000000000000 wm4.select.h.19.40cd3f2bfc456b193b790c2754690ebf
                           .group:0000000000000000 wm4.types.h.51.5571ec98f267d17d3c670b7a3ba33afa
                           .group:0000000000000000 wm4.sched.h.22.c60982713a5c428609783c78f9c78d95
                           .group:0000000000000000 wm4._pthreadtypes.h.36.fcee9961c35163dde6267ef772ad1972
                           .group:0000000000000000 wm4.stdio.h.2.4aa87247282eca6c8f36f9de33d8df1a
                           .group:0000000000000000 wm4.stdio.h.81.932d0c162786b883f622b8d05c120c78
                           .group:0000000000000000 wm4.gd32vw55x.h.47.379378190858578060a317909b2c8d8a
                           .group:0000000000000000 wm4._intsup.h.10.48bafbb683905c4daa4565a85aeeb264
                           .group:0000000000000000 wm4.stdint.h.23.d53047a68f4a85177f80b422d52785ed
                           .group:0000000000000000 wm4.nmsis_version.h.19.ffa173da8efb17b1050904994d6f500e
                           .group:0000000000000000 wm4.riscv_bits.h.19.ee94eb3d39937793d4cd0a62363e5d00
                           .group:0000000000000000 wm4.riscv_encoding.h.35.f5d37fad7abbab8278b4bb6f1e32fa65
                           .group:0000000000000000 wm4.nmsis_gcc.h.61.5d70d7598ffc79c3c991d847a574cf23
                           .group:0000000000000000 wm4.core_feature_base.h.20.e99d3e75c26a8f3341d35bf20d0e1d20
                           .group:0000000000000000 wm4.core_feature_fpu.h.19.695f2200274659b530cb97cda749ff4f
                           .group:0000000000000000 wm4.core_feature_dsp.h.19.e8f8d7aa42f197807aefedb6584486cd
                           .group:0000000000000000 wm4.core_compatiable.h.19.5b8282d61b1f6889a82895616b730084
                           .group:0000000000000000 wm4.core_feature_eclic.h.19.e0c091d0cbda79e8b3b031b979ebd5a1
                           .group:0000000000000000 wm4.core_feature_timer.h.19.21a5151282de34c37dfa6d84e262aa54
                           .group:0000000000000000 wm4.system_gd32vw55x.h.32.f1fcb1212d387c35ac955b0e96ada468
                           .group:0000000000000000 wm4.gd32vw55x.h.231.3529c650aff38c9372f7e03177fd2c8a
                           .group:0000000000000000 wm4.gd32vw55x_adc.h.42.ae73acec1704ef509ccecb41a875b50e
                           .group:0000000000000000 wm4.gd32vw55x_cau.h.36.c98428fe1eae7edb4721da5c8078c974
                           .group:0000000000000000 wm4.gd32vw55x_crc.h.37.c58f296814c2300a4b067c08bd88d54e
                           .group:0000000000000000 wm4.gd32vw55x_dbg.h.36.311650c8545549d482ceca8befc5a232
                           .group:0000000000000000 wm4.gd32vw55x_dma.h.36.f4adc751172b2a7b1533dda72e948737
                           .group:0000000000000000 wm4.gd32vw55x_eclic.h.36.0411499f2b2493c67246e32ccae096c1
                           .group:0000000000000000 wm4.gd32vw55x_efuse.h.36.091404cecbab70359dfd93faec5fdb62
                           .group:0000000000000000 wm4.gd32vw55x_exti.h.36.de7508334dd12f1a6a673521a1a835f5
                           .group:0000000000000000 wm4.gd32vw55x_fmc.h.36.a4b0b94c47ffe23a2fa09260c5ed4850
                           .group:0000000000000000 wm4.gd32vw55x_fwdgt.h.36.4846b6900fd24b5bfce4986c9a8ce677
                           .group:0000000000000000 wm4.gd32vw55x_gpio.h.36.adfee1371bb58d3d9043c47bdb25a90f
                           .group:0000000000000000 wm4.gd32vw55x_i2c.h.36.3848990933925e084eb427083790c53f
                           .group:0000000000000000 wm4.gd32vw55x_pkcau.h.36.bb2235f4cf4967063a51bfa9aca5ef27
                           .group:0000000000000000 wm4.gd32vw55x_pmu.h.36.4c76091f1415551526d489ccf2c42052
                           .group:0000000000000000 wm4.gd32vw55x_qspi.h.36.2d2c181cfe19b935a9641008fc786613
                           .group:0000000000000000 wm4.gd32vw55x_rcu.h.36.780a8a45c00d563711cceb445027ef47
                           .group:0000000000000000 wm4.gd32vw55x_rtc.h.36.3172855e8715659e080e0eab46fdf175
                           .group:0000000000000000 wm4.gd32vw55x_spi.h.36.9fa1be2b09fb73e4b5886e97f0e96d58
                           .group:0000000000000000 wm4.gd32vw55x_syscfg.h.36.010551f05591f5e34051d2e15df0352b
                           .group:0000000000000000 wm4.gd32vw55x_timer.h.38.2cbee78ea60d47145be361b2d2c55070
                           .group:0000000000000000 wm4.gd32vw55x_trng.h.36.c9e7807af1b1ab68d3bbb54f4ed5cd73
                           .group:0000000000000000 wm4.gd32vw55x_usart.h.36.f5c497cca17945a34f154b0e17017d02
                           .group:0000000000000000 wm4.gd32vw55x_wwdgt.h.36.f7a443b7302efc0e5c335888582ee197
                           .group:0000000000000000 wm4.gd32vw55x_hau.h.41.c15834d7deff02978f8681be035d2e9b

UNDEFINED SYMBOLS
hau_digest_read
hau_deinit
hau_init
hau_last_word_validbits_num_config
hau_data_write
hau_digest_calculation_enable
hau_flag_get
