   1              		.file	"gd32vw55x_rcu.c"
   2              		.option nopic
   3              		.attribute arch, "rv32i2p0_m2p0_a2p0_c2p0"
   4              		.attribute unaligned_access, 0
   5              		.attribute stack_align, 16
   6              		.text
   7              	.Ltext0:
   8              		.cfi_sections	.debug_frame
   9              		.section	.text.rcu_deinit,"ax",@progbits
  10              		.align	1
  11              		.globl	rcu_deinit
  13              	rcu_deinit:
  14              	.LFB347:
  15              		.file 1 "../Firmware/GD32VW55x_standard_peripheral/Source/gd32vw55x_rcu.c"
   1:../Firmware/GD32VW55x_standard_peripheral/Source/gd32vw55x_rcu.c **** /*!
   2:../Firmware/GD32VW55x_standard_peripheral/Source/gd32vw55x_rcu.c ****     \file    gd32vw55x_rcu.c
   3:../Firmware/GD32VW55x_standard_peripheral/Source/gd32vw55x_rcu.c ****     \brief   RCU driver
   4:../Firmware/GD32VW55x_standard_peripheral/Source/gd32vw55x_rcu.c **** 
   5:../Firmware/GD32VW55x_standard_peripheral/Source/gd32vw55x_rcu.c ****     \version 2025-01-16, V1.4.0, firmware for GD32VW55x
   6:../Firmware/GD32VW55x_standard_peripheral/Source/gd32vw55x_rcu.c **** */
   7:../Firmware/GD32VW55x_standard_peripheral/Source/gd32vw55x_rcu.c **** 
   8:../Firmware/GD32VW55x_standard_peripheral/Source/gd32vw55x_rcu.c **** /*
   9:../Firmware/GD32VW55x_standard_peripheral/Source/gd32vw55x_rcu.c ****     Copyright (c) 2025, GigaDevice Semiconductor Inc.
  10:../Firmware/GD32VW55x_standard_peripheral/Source/gd32vw55x_rcu.c **** 
  11:../Firmware/GD32VW55x_standard_peripheral/Source/gd32vw55x_rcu.c ****     Redistribution and use in source and binary forms, with or without modification,
  12:../Firmware/GD32VW55x_standard_peripheral/Source/gd32vw55x_rcu.c **** are permitted provided that the following conditions are met:
  13:../Firmware/GD32VW55x_standard_peripheral/Source/gd32vw55x_rcu.c **** 
  14:../Firmware/GD32VW55x_standard_peripheral/Source/gd32vw55x_rcu.c ****     1. Redistributions of source code must retain the above copyright notice, this
  15:../Firmware/GD32VW55x_standard_peripheral/Source/gd32vw55x_rcu.c ****        list of conditions and the following disclaimer.
  16:../Firmware/GD32VW55x_standard_peripheral/Source/gd32vw55x_rcu.c ****     2. Redistributions in binary form must reproduce the above copyright notice,
  17:../Firmware/GD32VW55x_standard_peripheral/Source/gd32vw55x_rcu.c ****        this list of conditions and the following disclaimer in the documentation
  18:../Firmware/GD32VW55x_standard_peripheral/Source/gd32vw55x_rcu.c ****        and/or other materials provided with the distribution.
  19:../Firmware/GD32VW55x_standard_peripheral/Source/gd32vw55x_rcu.c ****     3. Neither the name of the copyright holder nor the names of its contributors
  20:../Firmware/GD32VW55x_standard_peripheral/Source/gd32vw55x_rcu.c ****        may be used to endorse or promote products derived from this software without
  21:../Firmware/GD32VW55x_standard_peripheral/Source/gd32vw55x_rcu.c ****        specific prior written permission.
  22:../Firmware/GD32VW55x_standard_peripheral/Source/gd32vw55x_rcu.c **** 
  23:../Firmware/GD32VW55x_standard_peripheral/Source/gd32vw55x_rcu.c ****     THIS SOFTWARE IS PROVIDED BY THE COPYRIGHT HOLDERS AND CONTRIBUTORS "AS IS"
  24:../Firmware/GD32VW55x_standard_peripheral/Source/gd32vw55x_rcu.c **** AND ANY EXPRESS OR IMPLIED WARRANTIES, INCLUDING, BUT NOT LIMITED TO, THE IMPLIED
  25:../Firmware/GD32VW55x_standard_peripheral/Source/gd32vw55x_rcu.c **** WARRANTIES OF MERCHANTABILITY AND FITNESS FOR A PARTICULAR PURPOSE ARE DISCLAIMED.
  26:../Firmware/GD32VW55x_standard_peripheral/Source/gd32vw55x_rcu.c **** IN NO EVENT SHALL THE COPYRIGHT HOLDER OR CONTRIBUTORS BE LIABLE FOR ANY DIRECT,
  27:../Firmware/GD32VW55x_standard_peripheral/Source/gd32vw55x_rcu.c **** INDIRECT, INCIDENTAL, SPECIAL, EXEMPLARY, OR CONSEQUENTIAL DAMAGES (INCLUDING, BUT
  28:../Firmware/GD32VW55x_standard_peripheral/Source/gd32vw55x_rcu.c **** NOT LIMITED TO, PROCUREMENT OF SUBSTITUTE GOODS OR SERVICES; LOSS OF USE, DATA, OR
  29:../Firmware/GD32VW55x_standard_peripheral/Source/gd32vw55x_rcu.c **** PROFITS; OR BUSINESS INTERRUPTION) HOWEVER CAUSED AND ON ANY THEORY OF LIABILITY,
  30:../Firmware/GD32VW55x_standard_peripheral/Source/gd32vw55x_rcu.c **** WHETHER IN CONTRACT, STRICT LIABILITY, OR TORT (INCLUDING NEGLIGENCE OR OTHERWISE)
  31:../Firmware/GD32VW55x_standard_peripheral/Source/gd32vw55x_rcu.c **** ARISING IN ANY WAY OUT OF THE USE OF THIS SOFTWARE, EVEN IF ADVISED OF THE POSSIBILITY
  32:../Firmware/GD32VW55x_standard_peripheral/Source/gd32vw55x_rcu.c **** OF SUCH DAMAGE.
  33:../Firmware/GD32VW55x_standard_peripheral/Source/gd32vw55x_rcu.c **** */
  34:../Firmware/GD32VW55x_standard_peripheral/Source/gd32vw55x_rcu.c **** 
  35:../Firmware/GD32VW55x_standard_peripheral/Source/gd32vw55x_rcu.c **** #include "gd32vw55x_rcu.h"
  36:../Firmware/GD32VW55x_standard_peripheral/Source/gd32vw55x_rcu.c **** 
  37:../Firmware/GD32VW55x_standard_peripheral/Source/gd32vw55x_rcu.c **** /* define clock source */
  38:../Firmware/GD32VW55x_standard_peripheral/Source/gd32vw55x_rcu.c **** #define SEL_IRC16M                  0x00U                            /* IRC16M is selected as CK_SY
  39:../Firmware/GD32VW55x_standard_peripheral/Source/gd32vw55x_rcu.c **** #define SEL_HXTAL                   0x01U                            /* HXTAL is selected as CK_SYS
  40:../Firmware/GD32VW55x_standard_peripheral/Source/gd32vw55x_rcu.c **** #define SEL_PLLDIG                  0x02U                            /* PLLDIG is selected as CK_SY
  41:../Firmware/GD32VW55x_standard_peripheral/Source/gd32vw55x_rcu.c **** 
  42:../Firmware/GD32VW55x_standard_peripheral/Source/gd32vw55x_rcu.c **** /* define startup timeout count */
  43:../Firmware/GD32VW55x_standard_peripheral/Source/gd32vw55x_rcu.c **** #define OSC_STARTUP_TIMEOUT         ((uint32_t)0x000FFFFFU)
  44:../Firmware/GD32VW55x_standard_peripheral/Source/gd32vw55x_rcu.c **** #define LXTAL_STARTUP_TIMEOUT       ((uint32_t)0x0FFFFFFFU)
  45:../Firmware/GD32VW55x_standard_peripheral/Source/gd32vw55x_rcu.c **** 
  46:../Firmware/GD32VW55x_standard_peripheral/Source/gd32vw55x_rcu.c **** /* RCU IRC16M adjust value mask and offset */
  47:../Firmware/GD32VW55x_standard_peripheral/Source/gd32vw55x_rcu.c **** #define RCU_IRC16M_ADJUST_MASK      ((uint32_t)0x0000001FU)
  48:../Firmware/GD32VW55x_standard_peripheral/Source/gd32vw55x_rcu.c **** #define RCU_IRC16M_ADJUST_OFFSET    ((uint32_t)0x00000003U)
  49:../Firmware/GD32VW55x_standard_peripheral/Source/gd32vw55x_rcu.c **** 
  50:../Firmware/GD32VW55x_standard_peripheral/Source/gd32vw55x_rcu.c **** /*!
  51:../Firmware/GD32VW55x_standard_peripheral/Source/gd32vw55x_rcu.c ****     \brief      deinitialize the RCU
  52:../Firmware/GD32VW55x_standard_peripheral/Source/gd32vw55x_rcu.c ****     \param[in]  none
  53:../Firmware/GD32VW55x_standard_peripheral/Source/gd32vw55x_rcu.c ****     \param[out] none
  54:../Firmware/GD32VW55x_standard_peripheral/Source/gd32vw55x_rcu.c ****     \retval     none
  55:../Firmware/GD32VW55x_standard_peripheral/Source/gd32vw55x_rcu.c **** */
  56:../Firmware/GD32VW55x_standard_peripheral/Source/gd32vw55x_rcu.c **** void rcu_deinit(void)
  57:../Firmware/GD32VW55x_standard_peripheral/Source/gd32vw55x_rcu.c **** {
  16              		.loc 1 57 1
  17              		.cfi_startproc
  18 0000 4111     		addi	sp,sp,-16
  19              		.cfi_def_cfa_offset 16
  20 0002 06C6     		sw	ra,12(sp)
  21 0004 22C4     		sw	s0,8(sp)
  22              		.cfi_offset 1, -4
  23              		.cfi_offset 8, -8
  24 0006 0008     		addi	s0,sp,16
  25              		.cfi_def_cfa 8, 0
  58:../Firmware/GD32VW55x_standard_peripheral/Source/gd32vw55x_rcu.c ****     /* enable IRC16M */
  59:../Firmware/GD32VW55x_standard_peripheral/Source/gd32vw55x_rcu.c ****     RCU_CTL |= RCU_CTL_IRC16MEN;
  26              		.loc 1 59 13
  27 0008 B7470240 		li	a5,1073889280
  28 000c 93870780 		addi	a5,a5,-2048
  29 0010 9843     		lw	a4,0(a5)
  30 0012 B7470240 		li	a5,1073889280
  31 0016 93870780 		addi	a5,a5,-2048
  32 001a 13671700 		ori	a4,a4,1
  33 001e 98C3     		sw	a4,0(a5)
  60:../Firmware/GD32VW55x_standard_peripheral/Source/gd32vw55x_rcu.c ****     rcu_osci_stab_wait(RCU_IRC16M);
  34              		.loc 1 60 5
  35 0020 0145     		li	a0,0
  36 0022 97000000 		call	rcu_osci_stab_wait
  36      E7800000 
  61:../Firmware/GD32VW55x_standard_peripheral/Source/gd32vw55x_rcu.c ****     RCU_CFG0 &= ~RCU_CFG0_SCS;
  37              		.loc 1 61 14
  38 002a B7470240 		li	a5,1073889280
  39 002e 93878780 		addi	a5,a5,-2040
  40 0032 9843     		lw	a4,0(a5)
  41 0034 B7470240 		li	a5,1073889280
  42 0038 93878780 		addi	a5,a5,-2040
  43 003c 719B     		andi	a4,a4,-4
  44 003e 98C3     		sw	a4,0(a5)
  62:../Firmware/GD32VW55x_standard_peripheral/Source/gd32vw55x_rcu.c ****     /* reset CFG0 register */
  63:../Firmware/GD32VW55x_standard_peripheral/Source/gd32vw55x_rcu.c ****     RCU_CFG0 &= ~(RCU_CFG0_SCS | RCU_CFG0_AHBPSC | RCU_CFG0_APB1PSC | RCU_CFG0_APB2PSC |
  45              		.loc 1 63 14
  46 0040 B7470240 		li	a5,1073889280
  47 0044 93878780 		addi	a5,a5,-2040
  48 0048 9443     		lw	a3,0(a5)
  49 004a B7470240 		li	a5,1073889280
  50 004e 93878780 		addi	a5,a5,-2040
  51 0052 370700F8 		li	a4,-134217728
  52 0056 1307C730 		addi	a4,a4,780
  53 005a 758F     		and	a4,a3,a4
  54 005c 98C3     		sw	a4,0(a5)
  64:../Firmware/GD32VW55x_standard_peripheral/Source/gd32vw55x_rcu.c ****                   RCU_CFG0_RTCDIV | RCU_CFG0_CKOUT0SEL  | RCU_CFG0_CKOUT0DIV);
  65:../Firmware/GD32VW55x_standard_peripheral/Source/gd32vw55x_rcu.c ****     /* reset CTL register */
  66:../Firmware/GD32VW55x_standard_peripheral/Source/gd32vw55x_rcu.c ****     RCU_CTL &= ~(RCU_CTL_HXTALREADY | RCU_CTL_HXTALEN | RCU_CTL_PLLDIGEN |
  55              		.loc 1 66 13
  56 005e B7470240 		li	a5,1073889280
  57 0062 93870780 		addi	a5,a5,-2048
  58 0066 9443     		lw	a3,0(a5)
  59 0068 B7470240 		li	a5,1073889280
  60 006c 93870780 		addi	a5,a5,-2048
  61 0070 37078F6F 		li	a4,1871642624
  62 0074 7D17     		addi	a4,a4,-1
  63 0076 758F     		and	a4,a3,a4
  64 0078 98C3     		sw	a4,0(a5)
  67:../Firmware/GD32VW55x_standard_peripheral/Source/gd32vw55x_rcu.c ****                  RCU_CTL_HXTALPU | RCU_CTL_PLLDIGPU | RCU_CTL_RFCKMEN);
  68:../Firmware/GD32VW55x_standard_peripheral/Source/gd32vw55x_rcu.c ****     /* reset CFG1 register */
  69:../Firmware/GD32VW55x_standard_peripheral/Source/gd32vw55x_rcu.c ****     RCU_CFG1 = 0x00000000U;
  65              		.loc 1 69 5
  66 007a B7470240 		li	a5,1073889280
  67 007e 9387C788 		addi	a5,a5,-1908
  68              		.loc 1 69 14
  69 0082 23A00700 		sw	zero,0(a5)
  70:../Firmware/GD32VW55x_standard_peripheral/Source/gd32vw55x_rcu.c ****     /* reset ADDCTL register */
  71:../Firmware/GD32VW55x_standard_peripheral/Source/gd32vw55x_rcu.c ****     RCU_ADDCTL = 0x00000000U;
  70              		.loc 1 71 5
  71 0086 B7470240 		li	a5,1073889280
  72 008a 93870789 		addi	a5,a5,-1904
  73              		.loc 1 71 16
  74 008e 23A00700 		sw	zero,0(a5)
  72:../Firmware/GD32VW55x_standard_peripheral/Source/gd32vw55x_rcu.c ****     /* reset PLL register */
  73:../Firmware/GD32VW55x_standard_peripheral/Source/gd32vw55x_rcu.c ****     RCU_PLL = 0x00000000U;
  75              		.loc 1 73 5
  76 0092 B7470240 		li	a5,1073889280
  77 0096 93874780 		addi	a5,a5,-2044
  78              		.loc 1 73 13
  79 009a 23A00700 		sw	zero,0(a5)
  74:../Firmware/GD32VW55x_standard_peripheral/Source/gd32vw55x_rcu.c ****     /* reset PLLDIGCFG0 register */
  75:../Firmware/GD32VW55x_standard_peripheral/Source/gd32vw55x_rcu.c ****     RCU_PLLDIGCFG0 = 0x00000000U;
  80              		.loc 1 75 5
  81 009e B7470240 		li	a5,1073889280
  82 00a2 93874788 		addi	a5,a5,-1916
  83              		.loc 1 75 20
  84 00a6 23A00700 		sw	zero,0(a5)
  76:../Firmware/GD32VW55x_standard_peripheral/Source/gd32vw55x_rcu.c ****     /* reset PLLDIGCFG1 register */
  77:../Firmware/GD32VW55x_standard_peripheral/Source/gd32vw55x_rcu.c ****     RCU_PLLDIGCFG1 = 0x00000000U;
  85              		.loc 1 77 5
  86 00aa B7470240 		li	a5,1073889280
  87 00ae 93874789 		addi	a5,a5,-1900
  88              		.loc 1 77 20
  89 00b2 23A00700 		sw	zero,0(a5)
  78:../Firmware/GD32VW55x_standard_peripheral/Source/gd32vw55x_rcu.c ****     /* reset INT register */
  79:../Firmware/GD32VW55x_standard_peripheral/Source/gd32vw55x_rcu.c ****     RCU_INT = 0x00000000U;
  90              		.loc 1 79 5
  91 00b6 B7470240 		li	a5,1073889280
  92 00ba 9387C780 		addi	a5,a5,-2036
  93              		.loc 1 79 13
  94 00be 23A00700 		sw	zero,0(a5)
  80:../Firmware/GD32VW55x_standard_peripheral/Source/gd32vw55x_rcu.c **** }
  95              		.loc 1 80 1
  96 00c2 0100     		nop
  97 00c4 B240     		lw	ra,12(sp)
  98              		.cfi_restore 1
  99 00c6 2244     		lw	s0,8(sp)
 100              		.cfi_restore 8
 101              		.cfi_def_cfa 2, 16
 102 00c8 4101     		addi	sp,sp,16
 103              		.cfi_def_cfa_offset 0
 104 00ca 8280     		jr	ra
 105              		.cfi_endproc
 106              	.LFE347:
 108              		.section	.text.rcu_irc16m_dfs_to_rf_enable,"ax",@progbits
 109              		.align	1
 110              		.globl	rcu_irc16m_dfs_to_rf_enable
 112              	rcu_irc16m_dfs_to_rf_enable:
 113              	.LFB348:
  81:../Firmware/GD32VW55x_standard_peripheral/Source/gd32vw55x_rcu.c **** 
  82:../Firmware/GD32VW55x_standard_peripheral/Source/gd32vw55x_rcu.c **** /*!
  83:../Firmware/GD32VW55x_standard_peripheral/Source/gd32vw55x_rcu.c ****     \brief      enable differential signal of IRC16M to RF module
  84:../Firmware/GD32VW55x_standard_peripheral/Source/gd32vw55x_rcu.c ****     \param[in]  none
  85:../Firmware/GD32VW55x_standard_peripheral/Source/gd32vw55x_rcu.c ****     \param[out] none
  86:../Firmware/GD32VW55x_standard_peripheral/Source/gd32vw55x_rcu.c ****     \retval     none
  87:../Firmware/GD32VW55x_standard_peripheral/Source/gd32vw55x_rcu.c **** */
  88:../Firmware/GD32VW55x_standard_peripheral/Source/gd32vw55x_rcu.c **** void rcu_irc16m_dfs_to_rf_enable(void)
  89:../Firmware/GD32VW55x_standard_peripheral/Source/gd32vw55x_rcu.c **** {
 114              		.loc 1 89 1
 115              		.cfi_startproc
 116 0000 4111     		addi	sp,sp,-16
 117              		.cfi_def_cfa_offset 16
 118 0002 22C6     		sw	s0,12(sp)
 119              		.cfi_offset 8, -4
 120 0004 0008     		addi	s0,sp,16
 121              		.cfi_def_cfa 8, 0
  90:../Firmware/GD32VW55x_standard_peripheral/Source/gd32vw55x_rcu.c ****     RCU_CTL |= RCU_CTL_IRC16MRFON;
 122              		.loc 1 90 13
 123 0006 B7470240 		li	a5,1073889280
 124 000a 93870780 		addi	a5,a5,-2048
 125 000e 9843     		lw	a4,0(a5)
 126 0010 B7470240 		li	a5,1073889280
 127 0014 93870780 		addi	a5,a5,-2048
 128 0018 13674700 		ori	a4,a4,4
 129 001c 98C3     		sw	a4,0(a5)
  91:../Firmware/GD32VW55x_standard_peripheral/Source/gd32vw55x_rcu.c **** }
 130              		.loc 1 91 1
 131 001e 0100     		nop
 132 0020 3244     		lw	s0,12(sp)
 133              		.cfi_restore 8
 134              		.cfi_def_cfa 2, 16
 135 0022 4101     		addi	sp,sp,16
 136              		.cfi_def_cfa_offset 0
 137 0024 8280     		jr	ra
 138              		.cfi_endproc
 139              	.LFE348:
 141              		.section	.text.rcu_irc16m_dfs_to_rf_disable,"ax",@progbits
 142              		.align	1
 143              		.globl	rcu_irc16m_dfs_to_rf_disable
 145              	rcu_irc16m_dfs_to_rf_disable:
 146              	.LFB349:
  92:../Firmware/GD32VW55x_standard_peripheral/Source/gd32vw55x_rcu.c **** 
  93:../Firmware/GD32VW55x_standard_peripheral/Source/gd32vw55x_rcu.c **** /*!
  94:../Firmware/GD32VW55x_standard_peripheral/Source/gd32vw55x_rcu.c ****     \brief      disable differential signal of IRC16M to RF module
  95:../Firmware/GD32VW55x_standard_peripheral/Source/gd32vw55x_rcu.c ****     \param[in]  none
  96:../Firmware/GD32VW55x_standard_peripheral/Source/gd32vw55x_rcu.c ****     \param[out] none
  97:../Firmware/GD32VW55x_standard_peripheral/Source/gd32vw55x_rcu.c ****     \retval     none
  98:../Firmware/GD32VW55x_standard_peripheral/Source/gd32vw55x_rcu.c **** */
  99:../Firmware/GD32VW55x_standard_peripheral/Source/gd32vw55x_rcu.c **** void rcu_irc16m_dfs_to_rf_disable(void)
 100:../Firmware/GD32VW55x_standard_peripheral/Source/gd32vw55x_rcu.c **** {
 147              		.loc 1 100 1
 148              		.cfi_startproc
 149 0000 4111     		addi	sp,sp,-16
 150              		.cfi_def_cfa_offset 16
 151 0002 22C6     		sw	s0,12(sp)
 152              		.cfi_offset 8, -4
 153 0004 0008     		addi	s0,sp,16
 154              		.cfi_def_cfa 8, 0
 101:../Firmware/GD32VW55x_standard_peripheral/Source/gd32vw55x_rcu.c ****     RCU_CTL &= ~RCU_CTL_IRC16MRFON;
 155              		.loc 1 101 13
 156 0006 B7470240 		li	a5,1073889280
 157 000a 93870780 		addi	a5,a5,-2048
 158 000e 9843     		lw	a4,0(a5)
 159 0010 B7470240 		li	a5,1073889280
 160 0014 93870780 		addi	a5,a5,-2048
 161 0018 6D9B     		andi	a4,a4,-5
 162 001a 98C3     		sw	a4,0(a5)
 102:../Firmware/GD32VW55x_standard_peripheral/Source/gd32vw55x_rcu.c **** }
 163              		.loc 1 102 1
 164 001c 0100     		nop
 165 001e 3244     		lw	s0,12(sp)
 166              		.cfi_restore 8
 167              		.cfi_def_cfa 2, 16
 168 0020 4101     		addi	sp,sp,16
 169              		.cfi_def_cfa_offset 0
 170 0022 8280     		jr	ra
 171              		.cfi_endproc
 172              	.LFE349:
 174              		.section	.text.rcu_periph_clock_enable,"ax",@progbits
 175              		.align	1
 176              		.globl	rcu_periph_clock_enable
 178              	rcu_periph_clock_enable:
 179              	.LFB350:
 103:../Firmware/GD32VW55x_standard_peripheral/Source/gd32vw55x_rcu.c **** 
 104:../Firmware/GD32VW55x_standard_peripheral/Source/gd32vw55x_rcu.c **** /*!
 105:../Firmware/GD32VW55x_standard_peripheral/Source/gd32vw55x_rcu.c ****     \brief      enable the peripherals clock
 106:../Firmware/GD32VW55x_standard_peripheral/Source/gd32vw55x_rcu.c ****     \param[in]  periph: RCU peripherals, refer to rcu_periph_enum
 107:../Firmware/GD32VW55x_standard_peripheral/Source/gd32vw55x_rcu.c ****                 only one parameter can be selected which is shown as below:
 108:../Firmware/GD32VW55x_standard_peripheral/Source/gd32vw55x_rcu.c ****       \arg        RCU_GPIOx (x=A,B,C): GPIO ports clock
 109:../Firmware/GD32VW55x_standard_peripheral/Source/gd32vw55x_rcu.c ****       \arg        RCU_CRC: CRC clock
 110:../Firmware/GD32VW55x_standard_peripheral/Source/gd32vw55x_rcu.c ****       \arg        RCU_WIFI: WIFI clock
 111:../Firmware/GD32VW55x_standard_peripheral/Source/gd32vw55x_rcu.c ****       \arg        RCU_WIFIRUN: WIFIRUN clock
 112:../Firmware/GD32VW55x_standard_peripheral/Source/gd32vw55x_rcu.c ****       \arg        RCU_SRAMx: (x=0,1,2,3):SRAM clock
 113:../Firmware/GD32VW55x_standard_peripheral/Source/gd32vw55x_rcu.c ****       \arg        RCU_DMA: DMA clock
 114:../Firmware/GD32VW55x_standard_peripheral/Source/gd32vw55x_rcu.c ****       \arg        RCU_BLE: Blue tooth clock
 115:../Firmware/GD32VW55x_standard_peripheral/Source/gd32vw55x_rcu.c ****       \arg        RCU_PKCAU: PKCAU clock
 116:../Firmware/GD32VW55x_standard_peripheral/Source/gd32vw55x_rcu.c ****       \arg        RCU_CAU: CAU clock
 117:../Firmware/GD32VW55x_standard_peripheral/Source/gd32vw55x_rcu.c ****       \arg        RCU_HAU: HAU clock
 118:../Firmware/GD32VW55x_standard_peripheral/Source/gd32vw55x_rcu.c ****       \arg        RCU_TRNG: TRNG clock
 119:../Firmware/GD32VW55x_standard_peripheral/Source/gd32vw55x_rcu.c ****       \arg        RCU_QSPI: QSPI clock
 120:../Firmware/GD32VW55x_standard_peripheral/Source/gd32vw55x_rcu.c ****       \arg        RCU_TIMERx (x=0,1,2,5,15,16): TIMER clock
 121:../Firmware/GD32VW55x_standard_peripheral/Source/gd32vw55x_rcu.c ****       \arg        RCU_WWDGT: WWDGT clock
 122:../Firmware/GD32VW55x_standard_peripheral/Source/gd32vw55x_rcu.c ****       \arg        RCU_SPI: SPI clock
 123:../Firmware/GD32VW55x_standard_peripheral/Source/gd32vw55x_rcu.c ****       \arg        RFI: RFI clock
 124:../Firmware/GD32VW55x_standard_peripheral/Source/gd32vw55x_rcu.c ****       \arg        RCU_USART0: USART clock
 125:../Firmware/GD32VW55x_standard_peripheral/Source/gd32vw55x_rcu.c ****       \arg        RCU_UARTx (x=1,2): UART clock
 126:../Firmware/GD32VW55x_standard_peripheral/Source/gd32vw55x_rcu.c ****       \arg        RCU_I2Cx (x=0,1): I2C clock
 127:../Firmware/GD32VW55x_standard_peripheral/Source/gd32vw55x_rcu.c ****       \arg        RCU_PMU: PMU clock
 128:../Firmware/GD32VW55x_standard_peripheral/Source/gd32vw55x_rcu.c ****       \arg        RCU_RTC: RTC clock
 129:../Firmware/GD32VW55x_standard_peripheral/Source/gd32vw55x_rcu.c ****       \arg        RCU_ADC : ADC clock
 130:../Firmware/GD32VW55x_standard_peripheral/Source/gd32vw55x_rcu.c ****       \arg        RCU_SYSCFG: SYSCFG clock
 131:../Firmware/GD32VW55x_standard_peripheral/Source/gd32vw55x_rcu.c ****       \arg        RCU_RF: RF clock
 132:../Firmware/GD32VW55x_standard_peripheral/Source/gd32vw55x_rcu.c ****     \param[out] none
 133:../Firmware/GD32VW55x_standard_peripheral/Source/gd32vw55x_rcu.c ****     \retval     none
 134:../Firmware/GD32VW55x_standard_peripheral/Source/gd32vw55x_rcu.c **** */
 135:../Firmware/GD32VW55x_standard_peripheral/Source/gd32vw55x_rcu.c **** void rcu_periph_clock_enable(rcu_periph_enum periph)
 136:../Firmware/GD32VW55x_standard_peripheral/Source/gd32vw55x_rcu.c **** {
 180              		.loc 1 136 1
 181              		.cfi_startproc
 182 0000 0111     		addi	sp,sp,-32
 183              		.cfi_def_cfa_offset 32
 184 0002 22CE     		sw	s0,28(sp)
 185              		.cfi_offset 8, -4
 186 0004 0010     		addi	s0,sp,32
 187              		.cfi_def_cfa 8, 0
 188 0006 2326A4FE 		sw	a0,-20(s0)
 137:../Firmware/GD32VW55x_standard_peripheral/Source/gd32vw55x_rcu.c ****     RCU_REG_VAL(periph) |= BIT(RCU_BIT_POS(periph));
 189              		.loc 1 137 25
 190 000a 8327C4FE 		lw	a5,-20(s0)
 191 000e 13D76700 		srli	a4,a5,6
 192 0012 B7470240 		li	a5,1073889280
 193 0016 93870780 		addi	a5,a5,-2048
 194 001a BA97     		add	a5,a4,a5
 195 001c 9843     		lw	a4,0(a5)
 196              		.loc 1 137 28
 197 001e 8327C4FE 		lw	a5,-20(s0)
 198 0022 FD8B     		andi	a5,a5,31
 199 0024 8546     		li	a3,1
 200 0026 B397F600 		sll	a5,a3,a5
 201              		.loc 1 137 25
 202 002a 8326C4FE 		lw	a3,-20(s0)
 203 002e 13D66600 		srli	a2,a3,6
 204 0032 B7460240 		li	a3,1073889280
 205 0036 93860680 		addi	a3,a3,-2048
 206 003a B296     		add	a3,a2,a3
 207 003c D98F     		or	a5,a4,a5
 208 003e 9CC2     		sw	a5,0(a3)
 138:../Firmware/GD32VW55x_standard_peripheral/Source/gd32vw55x_rcu.c **** }
 209              		.loc 1 138 1
 210 0040 0100     		nop
 211 0042 7244     		lw	s0,28(sp)
 212              		.cfi_restore 8
 213              		.cfi_def_cfa 2, 32
 214 0044 0561     		addi	sp,sp,32
 215              		.cfi_def_cfa_offset 0
 216 0046 8280     		jr	ra
 217              		.cfi_endproc
 218              	.LFE350:
 220              		.section	.text.rcu_periph_clock_disable,"ax",@progbits
 221              		.align	1
 222              		.globl	rcu_periph_clock_disable
 224              	rcu_periph_clock_disable:
 225              	.LFB351:
 139:../Firmware/GD32VW55x_standard_peripheral/Source/gd32vw55x_rcu.c **** 
 140:../Firmware/GD32VW55x_standard_peripheral/Source/gd32vw55x_rcu.c **** /*!
 141:../Firmware/GD32VW55x_standard_peripheral/Source/gd32vw55x_rcu.c ****     \brief      disable the peripherals clock
 142:../Firmware/GD32VW55x_standard_peripheral/Source/gd32vw55x_rcu.c ****     \param[in]  periph: RCU peripherals, refer to rcu_periph_enum
 143:../Firmware/GD32VW55x_standard_peripheral/Source/gd32vw55x_rcu.c ****                 only one parameter can be selected which is shown as below:
 144:../Firmware/GD32VW55x_standard_peripheral/Source/gd32vw55x_rcu.c ****       \arg        RCU_GPIOx (x=A,B,C): GPIO ports clock
 145:../Firmware/GD32VW55x_standard_peripheral/Source/gd32vw55x_rcu.c ****       \arg        RCU_CRC: CRC clock
 146:../Firmware/GD32VW55x_standard_peripheral/Source/gd32vw55x_rcu.c ****       \arg        RCU_WIFI: WIFI clock
 147:../Firmware/GD32VW55x_standard_peripheral/Source/gd32vw55x_rcu.c ****       \arg        RCU_WIFIRUN: WIFIRUN clock
 148:../Firmware/GD32VW55x_standard_peripheral/Source/gd32vw55x_rcu.c ****       \arg        RCU_SRAMx: (x=0,1,2):SRAM clock
 149:../Firmware/GD32VW55x_standard_peripheral/Source/gd32vw55x_rcu.c ****       \arg        RCU_DMA: DMA clock
 150:../Firmware/GD32VW55x_standard_peripheral/Source/gd32vw55x_rcu.c ****       \arg        RCU_BLE: Blue tooth clock
 151:../Firmware/GD32VW55x_standard_peripheral/Source/gd32vw55x_rcu.c ****       \arg        RCU_PKCAU: PKCAU clock
 152:../Firmware/GD32VW55x_standard_peripheral/Source/gd32vw55x_rcu.c ****       \arg        RCU_CAU: CAU clock
 153:../Firmware/GD32VW55x_standard_peripheral/Source/gd32vw55x_rcu.c ****       \arg        RCU_HAU: HAU clock
 154:../Firmware/GD32VW55x_standard_peripheral/Source/gd32vw55x_rcu.c ****       \arg        RCU_TRNG: TRNG clock
 155:../Firmware/GD32VW55x_standard_peripheral/Source/gd32vw55x_rcu.c ****       \arg        RCU_QSPI: QSPI clock
 156:../Firmware/GD32VW55x_standard_peripheral/Source/gd32vw55x_rcu.c ****       \arg        RCU_TIMERx (x=0,1,2,5,15,16): TIMER clock
 157:../Firmware/GD32VW55x_standard_peripheral/Source/gd32vw55x_rcu.c ****       \arg        RCU_WWDGT: WWDGT clock
 158:../Firmware/GD32VW55x_standard_peripheral/Source/gd32vw55x_rcu.c ****       \arg        RCU_SPI: SPI clock
 159:../Firmware/GD32VW55x_standard_peripheral/Source/gd32vw55x_rcu.c ****       \arg        RFI: RFI clock
 160:../Firmware/GD32VW55x_standard_peripheral/Source/gd32vw55x_rcu.c ****       \arg        RCU_USART0 : USART clock
 161:../Firmware/GD32VW55x_standard_peripheral/Source/gd32vw55x_rcu.c ****       \arg        RCU_UARTx (x=1,2): UART clock
 162:../Firmware/GD32VW55x_standard_peripheral/Source/gd32vw55x_rcu.c ****       \arg        RCU_I2Cx (x=0,1): I2C clock
 163:../Firmware/GD32VW55x_standard_peripheral/Source/gd32vw55x_rcu.c ****       \arg        RCU_PMU: PMU clock
 164:../Firmware/GD32VW55x_standard_peripheral/Source/gd32vw55x_rcu.c ****       \arg        RCU_RTC: RTC clock
 165:../Firmware/GD32VW55x_standard_peripheral/Source/gd32vw55x_rcu.c ****       \arg        RCU_ADC: ADC clock
 166:../Firmware/GD32VW55x_standard_peripheral/Source/gd32vw55x_rcu.c ****       \arg        RCU_SYSCFG: SYSCFG clock
 167:../Firmware/GD32VW55x_standard_peripheral/Source/gd32vw55x_rcu.c ****       \arg        RCU_RF: RF clock
 168:../Firmware/GD32VW55x_standard_peripheral/Source/gd32vw55x_rcu.c ****     \param[out] none
 169:../Firmware/GD32VW55x_standard_peripheral/Source/gd32vw55x_rcu.c ****     \retval     none
 170:../Firmware/GD32VW55x_standard_peripheral/Source/gd32vw55x_rcu.c **** */
 171:../Firmware/GD32VW55x_standard_peripheral/Source/gd32vw55x_rcu.c **** void rcu_periph_clock_disable(rcu_periph_enum periph)
 172:../Firmware/GD32VW55x_standard_peripheral/Source/gd32vw55x_rcu.c **** {
 226              		.loc 1 172 1
 227              		.cfi_startproc
 228 0000 0111     		addi	sp,sp,-32
 229              		.cfi_def_cfa_offset 32
 230 0002 22CE     		sw	s0,28(sp)
 231              		.cfi_offset 8, -4
 232 0004 0010     		addi	s0,sp,32
 233              		.cfi_def_cfa 8, 0
 234 0006 2326A4FE 		sw	a0,-20(s0)
 173:../Firmware/GD32VW55x_standard_peripheral/Source/gd32vw55x_rcu.c ****     RCU_REG_VAL(periph) &= ~BIT(RCU_BIT_POS(periph));
 235              		.loc 1 173 25
 236 000a 8327C4FE 		lw	a5,-20(s0)
 237 000e 13D76700 		srli	a4,a5,6
 238 0012 B7470240 		li	a5,1073889280
 239 0016 93870780 		addi	a5,a5,-2048
 240 001a BA97     		add	a5,a4,a5
 241 001c 9843     		lw	a4,0(a5)
 242              		.loc 1 173 29
 243 001e 8327C4FE 		lw	a5,-20(s0)
 244 0022 FD8B     		andi	a5,a5,31
 245 0024 8546     		li	a3,1
 246 0026 B397F600 		sll	a5,a3,a5
 247              		.loc 1 173 28
 248 002a 93C7F7FF 		not	a5,a5
 249              		.loc 1 173 25
 250 002e 8326C4FE 		lw	a3,-20(s0)
 251 0032 13D66600 		srli	a2,a3,6
 252 0036 B7460240 		li	a3,1073889280
 253 003a 93860680 		addi	a3,a3,-2048
 254 003e B296     		add	a3,a2,a3
 255 0040 F98F     		and	a5,a4,a5
 256 0042 9CC2     		sw	a5,0(a3)
 174:../Firmware/GD32VW55x_standard_peripheral/Source/gd32vw55x_rcu.c **** }
 257              		.loc 1 174 1
 258 0044 0100     		nop
 259 0046 7244     		lw	s0,28(sp)
 260              		.cfi_restore 8
 261              		.cfi_def_cfa 2, 32
 262 0048 0561     		addi	sp,sp,32
 263              		.cfi_def_cfa_offset 0
 264 004a 8280     		jr	ra
 265              		.cfi_endproc
 266              	.LFE351:
 268              		.section	.text.rcu_fmc_clock_sleep_enable,"ax",@progbits
 269              		.align	1
 270              		.globl	rcu_fmc_clock_sleep_enable
 272              	rcu_fmc_clock_sleep_enable:
 273              	.LFB352:
 175:../Firmware/GD32VW55x_standard_peripheral/Source/gd32vw55x_rcu.c **** 
 176:../Firmware/GD32VW55x_standard_peripheral/Source/gd32vw55x_rcu.c **** /*!
 177:../Firmware/GD32VW55x_standard_peripheral/Source/gd32vw55x_rcu.c ****     \brief      enabled FMC clock when sleep mode
 178:../Firmware/GD32VW55x_standard_peripheral/Source/gd32vw55x_rcu.c ****     \param[in]  none
 179:../Firmware/GD32VW55x_standard_peripheral/Source/gd32vw55x_rcu.c ****     \param[out] none
 180:../Firmware/GD32VW55x_standard_peripheral/Source/gd32vw55x_rcu.c ****     \retval     none
 181:../Firmware/GD32VW55x_standard_peripheral/Source/gd32vw55x_rcu.c **** */
 182:../Firmware/GD32VW55x_standard_peripheral/Source/gd32vw55x_rcu.c **** void rcu_fmc_clock_sleep_enable(void)
 183:../Firmware/GD32VW55x_standard_peripheral/Source/gd32vw55x_rcu.c **** {
 274              		.loc 1 183 1
 275              		.cfi_startproc
 276 0000 4111     		addi	sp,sp,-16
 277              		.cfi_def_cfa_offset 16
 278 0002 22C6     		sw	s0,12(sp)
 279              		.cfi_offset 8, -4
 280 0004 0008     		addi	s0,sp,16
 281              		.cfi_def_cfa 8, 0
 184:../Firmware/GD32VW55x_standard_peripheral/Source/gd32vw55x_rcu.c ****     RCU_AHB1SPEN |= RCU_AHB1SPEN_FMCSPEN;
 282              		.loc 1 184 18
 283 0006 B7470240 		li	a5,1073889280
 284 000a 93870785 		addi	a5,a5,-1968
 285 000e 9443     		lw	a3,0(a5)
 286 0010 B7470240 		li	a5,1073889280
 287 0014 93870785 		addi	a5,a5,-1968
 288 0018 2167     		li	a4,32768
 289 001a 558F     		or	a4,a3,a4
 290 001c 98C3     		sw	a4,0(a5)
 185:../Firmware/GD32VW55x_standard_peripheral/Source/gd32vw55x_rcu.c **** }
 291              		.loc 1 185 1
 292 001e 0100     		nop
 293 0020 3244     		lw	s0,12(sp)
 294              		.cfi_restore 8
 295              		.cfi_def_cfa 2, 16
 296 0022 4101     		addi	sp,sp,16
 297              		.cfi_def_cfa_offset 0
 298 0024 8280     		jr	ra
 299              		.cfi_endproc
 300              	.LFE352:
 302              		.section	.text.rcu_fmc_clock_sleep_disable,"ax",@progbits
 303              		.align	1
 304              		.globl	rcu_fmc_clock_sleep_disable
 306              	rcu_fmc_clock_sleep_disable:
 307              	.LFB353:
 186:../Firmware/GD32VW55x_standard_peripheral/Source/gd32vw55x_rcu.c **** 
 187:../Firmware/GD32VW55x_standard_peripheral/Source/gd32vw55x_rcu.c **** /*!
 188:../Firmware/GD32VW55x_standard_peripheral/Source/gd32vw55x_rcu.c ****     \brief      disabled FMC clock when sleep mode
 189:../Firmware/GD32VW55x_standard_peripheral/Source/gd32vw55x_rcu.c ****     \param[in]  none
 190:../Firmware/GD32VW55x_standard_peripheral/Source/gd32vw55x_rcu.c ****     \param[out] none
 191:../Firmware/GD32VW55x_standard_peripheral/Source/gd32vw55x_rcu.c ****     \retval     none
 192:../Firmware/GD32VW55x_standard_peripheral/Source/gd32vw55x_rcu.c **** */
 193:../Firmware/GD32VW55x_standard_peripheral/Source/gd32vw55x_rcu.c **** void rcu_fmc_clock_sleep_disable(void)
 194:../Firmware/GD32VW55x_standard_peripheral/Source/gd32vw55x_rcu.c **** {
 308              		.loc 1 194 1
 309              		.cfi_startproc
 310 0000 4111     		addi	sp,sp,-16
 311              		.cfi_def_cfa_offset 16
 312 0002 22C6     		sw	s0,12(sp)
 313              		.cfi_offset 8, -4
 314 0004 0008     		addi	s0,sp,16
 315              		.cfi_def_cfa 8, 0
 195:../Firmware/GD32VW55x_standard_peripheral/Source/gd32vw55x_rcu.c ****     RCU_AHB1SPEN &= ~RCU_AHB1SPEN_FMCSPEN;
 316              		.loc 1 195 18
 317 0006 B7470240 		li	a5,1073889280
 318 000a 93870785 		addi	a5,a5,-1968
 319 000e 9443     		lw	a3,0(a5)
 320 0010 B7470240 		li	a5,1073889280
 321 0014 93870785 		addi	a5,a5,-1968
 322 0018 6177     		li	a4,-32768
 323 001a 7D17     		addi	a4,a4,-1
 324 001c 758F     		and	a4,a3,a4
 325 001e 98C3     		sw	a4,0(a5)
 196:../Firmware/GD32VW55x_standard_peripheral/Source/gd32vw55x_rcu.c **** }
 326              		.loc 1 196 1
 327 0020 0100     		nop
 328 0022 3244     		lw	s0,12(sp)
 329              		.cfi_restore 8
 330              		.cfi_def_cfa 2, 16
 331 0024 4101     		addi	sp,sp,16
 332              		.cfi_def_cfa_offset 0
 333 0026 8280     		jr	ra
 334              		.cfi_endproc
 335              	.LFE353:
 337              		.section	.text.rcu_periph_reset_enable,"ax",@progbits
 338              		.align	1
 339              		.globl	rcu_periph_reset_enable
 341              	rcu_periph_reset_enable:
 342              	.LFB354:
 197:../Firmware/GD32VW55x_standard_peripheral/Source/gd32vw55x_rcu.c **** 
 198:../Firmware/GD32VW55x_standard_peripheral/Source/gd32vw55x_rcu.c **** /*!
 199:../Firmware/GD32VW55x_standard_peripheral/Source/gd32vw55x_rcu.c ****     \brief      reset the peripherals
 200:../Firmware/GD32VW55x_standard_peripheral/Source/gd32vw55x_rcu.c ****     \param[in]  periph_reset: RCU peripherals reset, refer to rcu_periph_reset_enum
 201:../Firmware/GD32VW55x_standard_peripheral/Source/gd32vw55x_rcu.c ****                 only one parameter can be selected which is shown as below:
 202:../Firmware/GD32VW55x_standard_peripheral/Source/gd32vw55x_rcu.c ****       \arg        RCU_GPIOxRST (x=A,B,C): reset GPIO ports
 203:../Firmware/GD32VW55x_standard_peripheral/Source/gd32vw55x_rcu.c ****       \arg        RCU_CRCRST: reset CRC
 204:../Firmware/GD32VW55x_standard_peripheral/Source/gd32vw55x_rcu.c ****       \arg        RCU_WIFIRST: reset WIFI
 205:../Firmware/GD32VW55x_standard_peripheral/Source/gd32vw55x_rcu.c ****       \arg        RCU_DMARST: reset DMA
 206:../Firmware/GD32VW55x_standard_peripheral/Source/gd32vw55x_rcu.c ****       \arg        RCU_BLERST:reset Blue tooth
 207:../Firmware/GD32VW55x_standard_peripheral/Source/gd32vw55x_rcu.c ****       \arg        RCU_PKCAURST: reset PKCAU
 208:../Firmware/GD32VW55x_standard_peripheral/Source/gd32vw55x_rcu.c ****       \arg        RCU_CAURST: reset CAU
 209:../Firmware/GD32VW55x_standard_peripheral/Source/gd32vw55x_rcu.c ****       \arg        RCU_HAURST: reset HAU
 210:../Firmware/GD32VW55x_standard_peripheral/Source/gd32vw55x_rcu.c ****       \arg        RCU_TRNGRST: reset TRNG
 211:../Firmware/GD32VW55x_standard_peripheral/Source/gd32vw55x_rcu.c ****       \arg        RCU_QSPIRST: reset QSPI
 212:../Firmware/GD32VW55x_standard_peripheral/Source/gd32vw55x_rcu.c ****       \arg        RCU_TIMERxRST (x=0,1,2,5,15,16): reset TIMER
 213:../Firmware/GD32VW55x_standard_peripheral/Source/gd32vw55x_rcu.c ****       \arg        RCU_WWDGTRST: reset WWDGT
 214:../Firmware/GD32VW55x_standard_peripheral/Source/gd32vw55x_rcu.c ****       \arg        RCU_SPIRST: reset SPI
 215:../Firmware/GD32VW55x_standard_peripheral/Source/gd32vw55x_rcu.c ****       \arg        RCU_RFIRST: reset RFI
 216:../Firmware/GD32VW55x_standard_peripheral/Source/gd32vw55x_rcu.c ****       \arg        RCU_USART0RST : reset USART
 217:../Firmware/GD32VW55x_standard_peripheral/Source/gd32vw55x_rcu.c ****       \arg        RCU_UARTxRST (x=1,2): reset UART
 218:../Firmware/GD32VW55x_standard_peripheral/Source/gd32vw55x_rcu.c ****       \arg        RCU_I2CxRST (x=0,1): reset I2C
 219:../Firmware/GD32VW55x_standard_peripheral/Source/gd32vw55x_rcu.c ****       \arg        RCU_PMURST: reset PMU
 220:../Firmware/GD32VW55x_standard_peripheral/Source/gd32vw55x_rcu.c ****       \arg        RCU_ADCRST : reset ADC
 221:../Firmware/GD32VW55x_standard_peripheral/Source/gd32vw55x_rcu.c ****       \arg        RCU_SYSCFGRST: reset SYSCFG
 222:../Firmware/GD32VW55x_standard_peripheral/Source/gd32vw55x_rcu.c ****       \arg        RCU_RFRST: reset RF
 223:../Firmware/GD32VW55x_standard_peripheral/Source/gd32vw55x_rcu.c ****     \param[out] none
 224:../Firmware/GD32VW55x_standard_peripheral/Source/gd32vw55x_rcu.c ****     \retval     none
 225:../Firmware/GD32VW55x_standard_peripheral/Source/gd32vw55x_rcu.c **** */
 226:../Firmware/GD32VW55x_standard_peripheral/Source/gd32vw55x_rcu.c **** void rcu_periph_reset_enable(rcu_periph_reset_enum periph_reset)
 227:../Firmware/GD32VW55x_standard_peripheral/Source/gd32vw55x_rcu.c **** {
 343              		.loc 1 227 1
 344              		.cfi_startproc
 345 0000 0111     		addi	sp,sp,-32
 346              		.cfi_def_cfa_offset 32
 347 0002 22CE     		sw	s0,28(sp)
 348              		.cfi_offset 8, -4
 349 0004 0010     		addi	s0,sp,32
 350              		.cfi_def_cfa 8, 0
 351 0006 2326A4FE 		sw	a0,-20(s0)
 228:../Firmware/GD32VW55x_standard_peripheral/Source/gd32vw55x_rcu.c ****     RCU_REG_VAL(periph_reset) |= BIT(RCU_BIT_POS(periph_reset));
 352              		.loc 1 228 31
 353 000a 8327C4FE 		lw	a5,-20(s0)
 354 000e 13D76700 		srli	a4,a5,6
 355 0012 B7470240 		li	a5,1073889280
 356 0016 93870780 		addi	a5,a5,-2048
 357 001a BA97     		add	a5,a4,a5
 358 001c 9843     		lw	a4,0(a5)
 359              		.loc 1 228 34
 360 001e 8327C4FE 		lw	a5,-20(s0)
 361 0022 FD8B     		andi	a5,a5,31
 362 0024 8546     		li	a3,1
 363 0026 B397F600 		sll	a5,a3,a5
 364              		.loc 1 228 31
 365 002a 8326C4FE 		lw	a3,-20(s0)
 366 002e 13D66600 		srli	a2,a3,6
 367 0032 B7460240 		li	a3,1073889280
 368 0036 93860680 		addi	a3,a3,-2048
 369 003a B296     		add	a3,a2,a3
 370 003c D98F     		or	a5,a4,a5
 371 003e 9CC2     		sw	a5,0(a3)
 229:../Firmware/GD32VW55x_standard_peripheral/Source/gd32vw55x_rcu.c **** }
 372              		.loc 1 229 1
 373 0040 0100     		nop
 374 0042 7244     		lw	s0,28(sp)
 375              		.cfi_restore 8
 376              		.cfi_def_cfa 2, 32
 377 0044 0561     		addi	sp,sp,32
 378              		.cfi_def_cfa_offset 0
 379 0046 8280     		jr	ra
 380              		.cfi_endproc
 381              	.LFE354:
 383              		.section	.text.rcu_periph_reset_disable,"ax",@progbits
 384              		.align	1
 385              		.globl	rcu_periph_reset_disable
 387              	rcu_periph_reset_disable:
 388              	.LFB355:
 230:../Firmware/GD32VW55x_standard_peripheral/Source/gd32vw55x_rcu.c **** 
 231:../Firmware/GD32VW55x_standard_peripheral/Source/gd32vw55x_rcu.c **** /*!
 232:../Firmware/GD32VW55x_standard_peripheral/Source/gd32vw55x_rcu.c ****     \brief      disable reset the peripheral
 233:../Firmware/GD32VW55x_standard_peripheral/Source/gd32vw55x_rcu.c ****     \param[in]  periph_reset: RCU peripherals reset, refer to rcu_periph_reset_enum
 234:../Firmware/GD32VW55x_standard_peripheral/Source/gd32vw55x_rcu.c ****                 only one parameter can be selected which is shown as below:
 235:../Firmware/GD32VW55x_standard_peripheral/Source/gd32vw55x_rcu.c ****       \arg        RCU_GPIOxRST (x=A,B,C): reset GPIO ports
 236:../Firmware/GD32VW55x_standard_peripheral/Source/gd32vw55x_rcu.c ****       \arg        RCU_CRCRST: reset CRC
 237:../Firmware/GD32VW55x_standard_peripheral/Source/gd32vw55x_rcu.c ****       \arg        RCU_WIFIRST: reset WIFI
 238:../Firmware/GD32VW55x_standard_peripheral/Source/gd32vw55x_rcu.c ****       \arg        RCU_DMARST: reset DMA
 239:../Firmware/GD32VW55x_standard_peripheral/Source/gd32vw55x_rcu.c ****       \arg        RCU_BLERST:reset Blue tooth
 240:../Firmware/GD32VW55x_standard_peripheral/Source/gd32vw55x_rcu.c ****       \arg        RCU_PKCAURST: reset PKCAU
 241:../Firmware/GD32VW55x_standard_peripheral/Source/gd32vw55x_rcu.c ****       \arg        RCU_CAURST: reset CAU
 242:../Firmware/GD32VW55x_standard_peripheral/Source/gd32vw55x_rcu.c ****       \arg        RCU_HAURST: reset HAU
 243:../Firmware/GD32VW55x_standard_peripheral/Source/gd32vw55x_rcu.c ****       \arg        RCU_TRNGRST: reset TRNG
 244:../Firmware/GD32VW55x_standard_peripheral/Source/gd32vw55x_rcu.c ****       \arg        RCU_QSPIRST: reset QSPI
 245:../Firmware/GD32VW55x_standard_peripheral/Source/gd32vw55x_rcu.c ****       \arg        RCU_TIMERxRST (x=0,1,2,5,15,16): reset TIMER
 246:../Firmware/GD32VW55x_standard_peripheral/Source/gd32vw55x_rcu.c ****       \arg        RCU_WWDGTRST: reset WWDGT
 247:../Firmware/GD32VW55x_standard_peripheral/Source/gd32vw55x_rcu.c ****       \arg        RCU_SPIRST: reset SPI
 248:../Firmware/GD32VW55x_standard_peripheral/Source/gd32vw55x_rcu.c ****       \arg        RCU_RFIRST: reset RFI
 249:../Firmware/GD32VW55x_standard_peripheral/Source/gd32vw55x_rcu.c ****       \arg        RCU_USART0RST: reset USART
 250:../Firmware/GD32VW55x_standard_peripheral/Source/gd32vw55x_rcu.c ****       \arg        RCU_UARTxRST (x=1,2): reset UART
 251:../Firmware/GD32VW55x_standard_peripheral/Source/gd32vw55x_rcu.c ****       \arg        RCU_I2CxRST (x=0,1): reset I2C
 252:../Firmware/GD32VW55x_standard_peripheral/Source/gd32vw55x_rcu.c ****       \arg        RCU_PMURST: reset PMU
 253:../Firmware/GD32VW55x_standard_peripheral/Source/gd32vw55x_rcu.c ****       \arg        RCU_ADCRST : reset ADC
 254:../Firmware/GD32VW55x_standard_peripheral/Source/gd32vw55x_rcu.c ****       \arg        RCU_SYSCFGRST: reset SYSCFG
 255:../Firmware/GD32VW55x_standard_peripheral/Source/gd32vw55x_rcu.c ****       \arg        RCU_RFRST: reset RF
 256:../Firmware/GD32VW55x_standard_peripheral/Source/gd32vw55x_rcu.c ****     \param[out] none
 257:../Firmware/GD32VW55x_standard_peripheral/Source/gd32vw55x_rcu.c ****     \retval     none
 258:../Firmware/GD32VW55x_standard_peripheral/Source/gd32vw55x_rcu.c **** */
 259:../Firmware/GD32VW55x_standard_peripheral/Source/gd32vw55x_rcu.c **** void rcu_periph_reset_disable(rcu_periph_reset_enum periph_reset)
 260:../Firmware/GD32VW55x_standard_peripheral/Source/gd32vw55x_rcu.c **** {
 389              		.loc 1 260 1
 390              		.cfi_startproc
 391 0000 0111     		addi	sp,sp,-32
 392              		.cfi_def_cfa_offset 32
 393 0002 22CE     		sw	s0,28(sp)
 394              		.cfi_offset 8, -4
 395 0004 0010     		addi	s0,sp,32
 396              		.cfi_def_cfa 8, 0
 397 0006 2326A4FE 		sw	a0,-20(s0)
 261:../Firmware/GD32VW55x_standard_peripheral/Source/gd32vw55x_rcu.c ****     RCU_REG_VAL(periph_reset) &= ~BIT(RCU_BIT_POS(periph_reset));
 398              		.loc 1 261 31
 399 000a 8327C4FE 		lw	a5,-20(s0)
 400 000e 13D76700 		srli	a4,a5,6
 401 0012 B7470240 		li	a5,1073889280
 402 0016 93870780 		addi	a5,a5,-2048
 403 001a BA97     		add	a5,a4,a5
 404 001c 9843     		lw	a4,0(a5)
 405              		.loc 1 261 35
 406 001e 8327C4FE 		lw	a5,-20(s0)
 407 0022 FD8B     		andi	a5,a5,31
 408 0024 8546     		li	a3,1
 409 0026 B397F600 		sll	a5,a3,a5
 410              		.loc 1 261 34
 411 002a 93C7F7FF 		not	a5,a5
 412              		.loc 1 261 31
 413 002e 8326C4FE 		lw	a3,-20(s0)
 414 0032 13D66600 		srli	a2,a3,6
 415 0036 B7460240 		li	a3,1073889280
 416 003a 93860680 		addi	a3,a3,-2048
 417 003e B296     		add	a3,a2,a3
 418 0040 F98F     		and	a5,a4,a5
 419 0042 9CC2     		sw	a5,0(a3)
 262:../Firmware/GD32VW55x_standard_peripheral/Source/gd32vw55x_rcu.c **** }
 420              		.loc 1 262 1
 421 0044 0100     		nop
 422 0046 7244     		lw	s0,28(sp)
 423              		.cfi_restore 8
 424              		.cfi_def_cfa 2, 32
 425 0048 0561     		addi	sp,sp,32
 426              		.cfi_def_cfa_offset 0
 427 004a 8280     		jr	ra
 428              		.cfi_endproc
 429              	.LFE355:
 431              		.section	.text.rcu_bkp_reset_enable,"ax",@progbits
 432              		.align	1
 433              		.globl	rcu_bkp_reset_enable
 435              	rcu_bkp_reset_enable:
 436              	.LFB356:
 263:../Firmware/GD32VW55x_standard_peripheral/Source/gd32vw55x_rcu.c **** 
 264:../Firmware/GD32VW55x_standard_peripheral/Source/gd32vw55x_rcu.c **** /*!
 265:../Firmware/GD32VW55x_standard_peripheral/Source/gd32vw55x_rcu.c ****     \brief      reset the BKP
 266:../Firmware/GD32VW55x_standard_peripheral/Source/gd32vw55x_rcu.c ****     \param[in]  none
 267:../Firmware/GD32VW55x_standard_peripheral/Source/gd32vw55x_rcu.c ****     \param[out] none
 268:../Firmware/GD32VW55x_standard_peripheral/Source/gd32vw55x_rcu.c ****     \retval     none
 269:../Firmware/GD32VW55x_standard_peripheral/Source/gd32vw55x_rcu.c **** */
 270:../Firmware/GD32VW55x_standard_peripheral/Source/gd32vw55x_rcu.c **** void rcu_bkp_reset_enable(void)
 271:../Firmware/GD32VW55x_standard_peripheral/Source/gd32vw55x_rcu.c **** {
 437              		.loc 1 271 1
 438              		.cfi_startproc
 439 0000 4111     		addi	sp,sp,-16
 440              		.cfi_def_cfa_offset 16
 441 0002 22C6     		sw	s0,12(sp)
 442              		.cfi_offset 8, -4
 443 0004 0008     		addi	s0,sp,16
 444              		.cfi_def_cfa 8, 0
 272:../Firmware/GD32VW55x_standard_peripheral/Source/gd32vw55x_rcu.c ****     RCU_BDCTL |= RCU_BDCTL_BKPRST;
 445              		.loc 1 272 15
 446 0006 B7470240 		li	a5,1073889280
 447 000a 93870787 		addi	a5,a5,-1936
 448 000e 9443     		lw	a3,0(a5)
 449 0010 B7470240 		li	a5,1073889280
 450 0014 93870787 		addi	a5,a5,-1936
 451 0018 4167     		li	a4,65536
 452 001a 558F     		or	a4,a3,a4
 453 001c 98C3     		sw	a4,0(a5)
 273:../Firmware/GD32VW55x_standard_peripheral/Source/gd32vw55x_rcu.c **** }
 454              		.loc 1 273 1
 455 001e 0100     		nop
 456 0020 3244     		lw	s0,12(sp)
 457              		.cfi_restore 8
 458              		.cfi_def_cfa 2, 16
 459 0022 4101     		addi	sp,sp,16
 460              		.cfi_def_cfa_offset 0
 461 0024 8280     		jr	ra
 462              		.cfi_endproc
 463              	.LFE356:
 465              		.section	.text.rcu_bkp_reset_disable,"ax",@progbits
 466              		.align	1
 467              		.globl	rcu_bkp_reset_disable
 469              	rcu_bkp_reset_disable:
 470              	.LFB357:
 274:../Firmware/GD32VW55x_standard_peripheral/Source/gd32vw55x_rcu.c **** 
 275:../Firmware/GD32VW55x_standard_peripheral/Source/gd32vw55x_rcu.c **** /*!
 276:../Firmware/GD32VW55x_standard_peripheral/Source/gd32vw55x_rcu.c ****     \brief      disable the BKP reset
 277:../Firmware/GD32VW55x_standard_peripheral/Source/gd32vw55x_rcu.c ****     \param[in]  none
 278:../Firmware/GD32VW55x_standard_peripheral/Source/gd32vw55x_rcu.c ****     \param[out] none
 279:../Firmware/GD32VW55x_standard_peripheral/Source/gd32vw55x_rcu.c ****     \retval     none
 280:../Firmware/GD32VW55x_standard_peripheral/Source/gd32vw55x_rcu.c **** */
 281:../Firmware/GD32VW55x_standard_peripheral/Source/gd32vw55x_rcu.c **** void rcu_bkp_reset_disable(void)
 282:../Firmware/GD32VW55x_standard_peripheral/Source/gd32vw55x_rcu.c **** {
 471              		.loc 1 282 1
 472              		.cfi_startproc
 473 0000 4111     		addi	sp,sp,-16
 474              		.cfi_def_cfa_offset 16
 475 0002 22C6     		sw	s0,12(sp)
 476              		.cfi_offset 8, -4
 477 0004 0008     		addi	s0,sp,16
 478              		.cfi_def_cfa 8, 0
 283:../Firmware/GD32VW55x_standard_peripheral/Source/gd32vw55x_rcu.c ****     RCU_BDCTL &= ~RCU_BDCTL_BKPRST;
 479              		.loc 1 283 15
 480 0006 B7470240 		li	a5,1073889280
 481 000a 93870787 		addi	a5,a5,-1936
 482 000e 9443     		lw	a3,0(a5)
 483 0010 B7470240 		li	a5,1073889280
 484 0014 93870787 		addi	a5,a5,-1936
 485 0018 4177     		li	a4,-65536
 486 001a 7D17     		addi	a4,a4,-1
 487 001c 758F     		and	a4,a3,a4
 488 001e 98C3     		sw	a4,0(a5)
 284:../Firmware/GD32VW55x_standard_peripheral/Source/gd32vw55x_rcu.c **** }
 489              		.loc 1 284 1
 490 0020 0100     		nop
 491 0022 3244     		lw	s0,12(sp)
 492              		.cfi_restore 8
 493              		.cfi_def_cfa 2, 16
 494 0024 4101     		addi	sp,sp,16
 495              		.cfi_def_cfa_offset 0
 496 0026 8280     		jr	ra
 497              		.cfi_endproc
 498              	.LFE357:
 500              		.section	.text.rcu_rfpll_cal_enable,"ax",@progbits
 501              		.align	1
 502              		.globl	rcu_rfpll_cal_enable
 504              	rcu_rfpll_cal_enable:
 505              	.LFB358:
 285:../Firmware/GD32VW55x_standard_peripheral/Source/gd32vw55x_rcu.c **** 
 286:../Firmware/GD32VW55x_standard_peripheral/Source/gd32vw55x_rcu.c **** /*!
 287:../Firmware/GD32VW55x_standard_peripheral/Source/gd32vw55x_rcu.c ****     \brief      enable the RF PLL calculation
 288:../Firmware/GD32VW55x_standard_peripheral/Source/gd32vw55x_rcu.c ****     \param[in]  none
 289:../Firmware/GD32VW55x_standard_peripheral/Source/gd32vw55x_rcu.c ****     \param[out] none
 290:../Firmware/GD32VW55x_standard_peripheral/Source/gd32vw55x_rcu.c ****     \retval     none
 291:../Firmware/GD32VW55x_standard_peripheral/Source/gd32vw55x_rcu.c **** */
 292:../Firmware/GD32VW55x_standard_peripheral/Source/gd32vw55x_rcu.c **** void rcu_rfpll_cal_enable(void)
 293:../Firmware/GD32VW55x_standard_peripheral/Source/gd32vw55x_rcu.c **** {
 506              		.loc 1 293 1
 507              		.cfi_startproc
 508 0000 4111     		addi	sp,sp,-16
 509              		.cfi_def_cfa_offset 16
 510 0002 22C6     		sw	s0,12(sp)
 511              		.cfi_offset 8, -4
 512 0004 0008     		addi	s0,sp,16
 513              		.cfi_def_cfa 8, 0
 294:../Firmware/GD32VW55x_standard_peripheral/Source/gd32vw55x_rcu.c ****     RCU_CFG1 |= RCU_CFG1_RFPLLCALEN;
 514              		.loc 1 294 14
 515 0006 B7470240 		li	a5,1073889280
 516 000a 9387C788 		addi	a5,a5,-1908
 517 000e 9443     		lw	a3,0(a5)
 518 0010 B7470240 		li	a5,1073889280
 519 0014 9387C788 		addi	a5,a5,-1908
 520 0018 1167     		li	a4,16384
 521 001a 558F     		or	a4,a3,a4
 522 001c 98C3     		sw	a4,0(a5)
 295:../Firmware/GD32VW55x_standard_peripheral/Source/gd32vw55x_rcu.c **** }
 523              		.loc 1 295 1
 524 001e 0100     		nop
 525 0020 3244     		lw	s0,12(sp)
 526              		.cfi_restore 8
 527              		.cfi_def_cfa 2, 16
 528 0022 4101     		addi	sp,sp,16
 529              		.cfi_def_cfa_offset 0
 530 0024 8280     		jr	ra
 531              		.cfi_endproc
 532              	.LFE358:
 534              		.section	.text.rcu_rfpll_cal_disable,"ax",@progbits
 535              		.align	1
 536              		.globl	rcu_rfpll_cal_disable
 538              	rcu_rfpll_cal_disable:
 539              	.LFB359:
 296:../Firmware/GD32VW55x_standard_peripheral/Source/gd32vw55x_rcu.c **** 
 297:../Firmware/GD32VW55x_standard_peripheral/Source/gd32vw55x_rcu.c **** /*!
 298:../Firmware/GD32VW55x_standard_peripheral/Source/gd32vw55x_rcu.c ****     \brief      disable the RF PLL calculation
 299:../Firmware/GD32VW55x_standard_peripheral/Source/gd32vw55x_rcu.c ****     \param[in]  none
 300:../Firmware/GD32VW55x_standard_peripheral/Source/gd32vw55x_rcu.c ****     \param[out] none
 301:../Firmware/GD32VW55x_standard_peripheral/Source/gd32vw55x_rcu.c ****     \retval     none
 302:../Firmware/GD32VW55x_standard_peripheral/Source/gd32vw55x_rcu.c **** */
 303:../Firmware/GD32VW55x_standard_peripheral/Source/gd32vw55x_rcu.c **** void rcu_rfpll_cal_disable(void)
 304:../Firmware/GD32VW55x_standard_peripheral/Source/gd32vw55x_rcu.c **** {
 540              		.loc 1 304 1
 541              		.cfi_startproc
 542 0000 4111     		addi	sp,sp,-16
 543              		.cfi_def_cfa_offset 16
 544 0002 22C6     		sw	s0,12(sp)
 545              		.cfi_offset 8, -4
 546 0004 0008     		addi	s0,sp,16
 547              		.cfi_def_cfa 8, 0
 305:../Firmware/GD32VW55x_standard_peripheral/Source/gd32vw55x_rcu.c ****     RCU_CFG1 &= ~RCU_CFG1_RFPLLCALEN;
 548              		.loc 1 305 14
 549 0006 B7470240 		li	a5,1073889280
 550 000a 9387C788 		addi	a5,a5,-1908
 551 000e 9443     		lw	a3,0(a5)
 552 0010 B7470240 		li	a5,1073889280
 553 0014 9387C788 		addi	a5,a5,-1908
 554 0018 7177     		li	a4,-16384
 555 001a 7D17     		addi	a4,a4,-1
 556 001c 758F     		and	a4,a3,a4
 557 001e 98C3     		sw	a4,0(a5)
 306:../Firmware/GD32VW55x_standard_peripheral/Source/gd32vw55x_rcu.c **** }
 558              		.loc 1 306 1
 559 0020 0100     		nop
 560 0022 3244     		lw	s0,12(sp)
 561              		.cfi_restore 8
 562              		.cfi_def_cfa 2, 16
 563 0024 4101     		addi	sp,sp,16
 564              		.cfi_def_cfa_offset 0
 565 0026 8280     		jr	ra
 566              		.cfi_endproc
 567              	.LFE359:
 569              		.section	.text.rcu_control_unit_powerup,"ax",@progbits
 570              		.align	1
 571              		.globl	rcu_control_unit_powerup
 573              	rcu_control_unit_powerup:
 574              	.LFB360:
 307:../Firmware/GD32VW55x_standard_peripheral/Source/gd32vw55x_rcu.c **** 
 308:../Firmware/GD32VW55x_standard_peripheral/Source/gd32vw55x_rcu.c **** /*!
 309:../Firmware/GD32VW55x_standard_peripheral/Source/gd32vw55x_rcu.c ****     \brief      power up rcu control unit
 310:../Firmware/GD32VW55x_standard_peripheral/Source/gd32vw55x_rcu.c ****     \param[in]  rcu_unit: rcu power up control unit select
 311:../Firmware/GD32VW55x_standard_peripheral/Source/gd32vw55x_rcu.c ****                 only one parameter can be selected which is shown as below:
 312:../Firmware/GD32VW55x_standard_peripheral/Source/gd32vw55x_rcu.c ****       \arg        RCU_UNIT_HXTAL: HXTAL
 313:../Firmware/GD32VW55x_standard_peripheral/Source/gd32vw55x_rcu.c ****       \arg        RCU_UNIT_PLLDIG: PLLDIG
 314:../Firmware/GD32VW55x_standard_peripheral/Source/gd32vw55x_rcu.c ****       \arg        RCU_UNIT_RFPLL: RFPLL
 315:../Firmware/GD32VW55x_standard_peripheral/Source/gd32vw55x_rcu.c ****       \arg        RCU_UNIT_LDOANA: LDOANA
 316:../Firmware/GD32VW55x_standard_peripheral/Source/gd32vw55x_rcu.c ****       \arg        RCU_UNIT_LDOCLK: LDOCLK
 317:../Firmware/GD32VW55x_standard_peripheral/Source/gd32vw55x_rcu.c ****       \arg        RCU_UNIT_BANDGAP: BANDGAP
 318:../Firmware/GD32VW55x_standard_peripheral/Source/gd32vw55x_rcu.c ****     \param[out] none
 319:../Firmware/GD32VW55x_standard_peripheral/Source/gd32vw55x_rcu.c ****     \retval     none
 320:../Firmware/GD32VW55x_standard_peripheral/Source/gd32vw55x_rcu.c **** */
 321:../Firmware/GD32VW55x_standard_peripheral/Source/gd32vw55x_rcu.c **** void rcu_control_unit_powerup(rcu_unit_enum rcu_unit)
 322:../Firmware/GD32VW55x_standard_peripheral/Source/gd32vw55x_rcu.c **** {
 575              		.loc 1 322 1
 576              		.cfi_startproc
 577 0000 0111     		addi	sp,sp,-32
 578              		.cfi_def_cfa_offset 32
 579 0002 22CE     		sw	s0,28(sp)
 580              		.cfi_offset 8, -4
 581 0004 0010     		addi	s0,sp,32
 582              		.cfi_def_cfa 8, 0
 583 0006 2326A4FE 		sw	a0,-20(s0)
 323:../Firmware/GD32VW55x_standard_peripheral/Source/gd32vw55x_rcu.c ****     RCU_REG_VAL(rcu_unit) |= BIT(RCU_BIT_POS(rcu_unit));
 584              		.loc 1 323 27
 585 000a 8327C4FE 		lw	a5,-20(s0)
 586 000e 13D76700 		srli	a4,a5,6
 587 0012 B7470240 		li	a5,1073889280
 588 0016 93870780 		addi	a5,a5,-2048
 589 001a BA97     		add	a5,a4,a5
 590 001c 9843     		lw	a4,0(a5)
 591              		.loc 1 323 30
 592 001e 8327C4FE 		lw	a5,-20(s0)
 593 0022 FD8B     		andi	a5,a5,31
 594 0024 8546     		li	a3,1
 595 0026 B397F600 		sll	a5,a3,a5
 596              		.loc 1 323 27
 597 002a 8326C4FE 		lw	a3,-20(s0)
 598 002e 13D66600 		srli	a2,a3,6
 599 0032 B7460240 		li	a3,1073889280
 600 0036 93860680 		addi	a3,a3,-2048
 601 003a B296     		add	a3,a2,a3
 602 003c D98F     		or	a5,a4,a5
 603 003e 9CC2     		sw	a5,0(a3)
 324:../Firmware/GD32VW55x_standard_peripheral/Source/gd32vw55x_rcu.c **** }
 604              		.loc 1 324 1
 605 0040 0100     		nop
 606 0042 7244     		lw	s0,28(sp)
 607              		.cfi_restore 8
 608              		.cfi_def_cfa 2, 32
 609 0044 0561     		addi	sp,sp,32
 610              		.cfi_def_cfa_offset 0
 611 0046 8280     		jr	ra
 612              		.cfi_endproc
 613              	.LFE360:
 615              		.section	.text.rcu_control_unit_powerdown,"ax",@progbits
 616              		.align	1
 617              		.globl	rcu_control_unit_powerdown
 619              	rcu_control_unit_powerdown:
 620              	.LFB361:
 325:../Firmware/GD32VW55x_standard_peripheral/Source/gd32vw55x_rcu.c **** 
 326:../Firmware/GD32VW55x_standard_peripheral/Source/gd32vw55x_rcu.c **** /*!
 327:../Firmware/GD32VW55x_standard_peripheral/Source/gd32vw55x_rcu.c ****     \brief      power down rcu control unit
 328:../Firmware/GD32VW55x_standard_peripheral/Source/gd32vw55x_rcu.c ****     \param[in]  rcu_unit: rcu power down control unit select
 329:../Firmware/GD32VW55x_standard_peripheral/Source/gd32vw55x_rcu.c ****                 only one parameter can be selected which is shown as below:
 330:../Firmware/GD32VW55x_standard_peripheral/Source/gd32vw55x_rcu.c ****       \arg        RCU_UNIT_HXTAL: HXTAL
 331:../Firmware/GD32VW55x_standard_peripheral/Source/gd32vw55x_rcu.c ****       \arg        RCU_UNIT_PLLDIG: PLLDIG
 332:../Firmware/GD32VW55x_standard_peripheral/Source/gd32vw55x_rcu.c ****       \arg        RCU_UNIT_RFPLL: RFPLL
 333:../Firmware/GD32VW55x_standard_peripheral/Source/gd32vw55x_rcu.c ****       \arg        RCU_UNIT_LDOANA: LDOANA
 334:../Firmware/GD32VW55x_standard_peripheral/Source/gd32vw55x_rcu.c ****       \arg        RCU_UNIT_LDOCLK: LDOCLK
 335:../Firmware/GD32VW55x_standard_peripheral/Source/gd32vw55x_rcu.c ****       \arg        RCU_UNIT_BANDGAP: BANDGAP
 336:../Firmware/GD32VW55x_standard_peripheral/Source/gd32vw55x_rcu.c ****     \param[out] none
 337:../Firmware/GD32VW55x_standard_peripheral/Source/gd32vw55x_rcu.c ****     \retval     none
 338:../Firmware/GD32VW55x_standard_peripheral/Source/gd32vw55x_rcu.c **** */
 339:../Firmware/GD32VW55x_standard_peripheral/Source/gd32vw55x_rcu.c **** void rcu_control_unit_powerdown(rcu_unit_enum rcu_unit)
 340:../Firmware/GD32VW55x_standard_peripheral/Source/gd32vw55x_rcu.c **** {
 621              		.loc 1 340 1
 622              		.cfi_startproc
 623 0000 0111     		addi	sp,sp,-32
 624              		.cfi_def_cfa_offset 32
 625 0002 22CE     		sw	s0,28(sp)
 626              		.cfi_offset 8, -4
 627 0004 0010     		addi	s0,sp,32
 628              		.cfi_def_cfa 8, 0
 629 0006 2326A4FE 		sw	a0,-20(s0)
 341:../Firmware/GD32VW55x_standard_peripheral/Source/gd32vw55x_rcu.c ****     RCU_REG_VAL(rcu_unit) &= ~BIT(RCU_BIT_POS(rcu_unit));
 630              		.loc 1 341 27
 631 000a 8327C4FE 		lw	a5,-20(s0)
 632 000e 13D76700 		srli	a4,a5,6
 633 0012 B7470240 		li	a5,1073889280
 634 0016 93870780 		addi	a5,a5,-2048
 635 001a BA97     		add	a5,a4,a5
 636 001c 9843     		lw	a4,0(a5)
 637              		.loc 1 341 31
 638 001e 8327C4FE 		lw	a5,-20(s0)
 639 0022 FD8B     		andi	a5,a5,31
 640 0024 8546     		li	a3,1
 641 0026 B397F600 		sll	a5,a3,a5
 642              		.loc 1 341 30
 643 002a 93C7F7FF 		not	a5,a5
 644              		.loc 1 341 27
 645 002e 8326C4FE 		lw	a3,-20(s0)
 646 0032 13D66600 		srli	a2,a3,6
 647 0036 B7460240 		li	a3,1073889280
 648 003a 93860680 		addi	a3,a3,-2048
 649 003e B296     		add	a3,a2,a3
 650 0040 F98F     		and	a5,a4,a5
 651 0042 9CC2     		sw	a5,0(a3)
 342:../Firmware/GD32VW55x_standard_peripheral/Source/gd32vw55x_rcu.c **** }
 652              		.loc 1 342 1
 653 0044 0100     		nop
 654 0046 7244     		lw	s0,28(sp)
 655              		.cfi_restore 8
 656              		.cfi_def_cfa 2, 32
 657 0048 0561     		addi	sp,sp,32
 658              		.cfi_def_cfa_offset 0
 659 004a 8280     		jr	ra
 660              		.cfi_endproc
 661              	.LFE361:
 663              		.section	.text.rcu_system_clock_source_config,"ax",@progbits
 664              		.align	1
 665              		.globl	rcu_system_clock_source_config
 667              	rcu_system_clock_source_config:
 668              	.LFB362:
 343:../Firmware/GD32VW55x_standard_peripheral/Source/gd32vw55x_rcu.c **** 
 344:../Firmware/GD32VW55x_standard_peripheral/Source/gd32vw55x_rcu.c **** /*!
 345:../Firmware/GD32VW55x_standard_peripheral/Source/gd32vw55x_rcu.c ****     \brief      configure the system clock source
 346:../Firmware/GD32VW55x_standard_peripheral/Source/gd32vw55x_rcu.c ****     \param[in]  ck_sys: system clock source select
 347:../Firmware/GD32VW55x_standard_peripheral/Source/gd32vw55x_rcu.c ****                 only one parameter can be selected which is shown as below:
 348:../Firmware/GD32VW55x_standard_peripheral/Source/gd32vw55x_rcu.c ****       \arg        RCU_CKSYSSRC_IRC16M: select CK_IRC16M as the CK_SYS source
 349:../Firmware/GD32VW55x_standard_peripheral/Source/gd32vw55x_rcu.c ****       \arg        RCU_CKSYSSRC_HXTAL: select CK_HXTAL as the CK_SYS source
 350:../Firmware/GD32VW55x_standard_peripheral/Source/gd32vw55x_rcu.c ****       \arg        RCU_CKSYSSRC_PLLDIG: select CK_PLLDIG as the CK_SYS source
 351:../Firmware/GD32VW55x_standard_peripheral/Source/gd32vw55x_rcu.c ****     \param[out] none
 352:../Firmware/GD32VW55x_standard_peripheral/Source/gd32vw55x_rcu.c ****     \retval     none
 353:../Firmware/GD32VW55x_standard_peripheral/Source/gd32vw55x_rcu.c **** */
 354:../Firmware/GD32VW55x_standard_peripheral/Source/gd32vw55x_rcu.c **** void rcu_system_clock_source_config(uint32_t ck_sys)
 355:../Firmware/GD32VW55x_standard_peripheral/Source/gd32vw55x_rcu.c **** {
 669              		.loc 1 355 1
 670              		.cfi_startproc
 671 0000 7971     		addi	sp,sp,-48
 672              		.cfi_def_cfa_offset 48
 673 0002 22D6     		sw	s0,44(sp)
 674              		.cfi_offset 8, -4
 675 0004 0018     		addi	s0,sp,48
 676              		.cfi_def_cfa 8, 0
 677 0006 232EA4FC 		sw	a0,-36(s0)
 356:../Firmware/GD32VW55x_standard_peripheral/Source/gd32vw55x_rcu.c ****     uint32_t reg;
 357:../Firmware/GD32VW55x_standard_peripheral/Source/gd32vw55x_rcu.c **** 
 358:../Firmware/GD32VW55x_standard_peripheral/Source/gd32vw55x_rcu.c ****     reg = RCU_CFG0;
 678              		.loc 1 358 11
 679 000a B7470240 		li	a5,1073889280
 680 000e 93878780 		addi	a5,a5,-2040
 681              		.loc 1 358 9
 682 0012 9C43     		lw	a5,0(a5)
 683 0014 2326F4FE 		sw	a5,-20(s0)
 359:../Firmware/GD32VW55x_standard_peripheral/Source/gd32vw55x_rcu.c ****     /* reset the SCS bits and set according to ck_sys */
 360:../Firmware/GD32VW55x_standard_peripheral/Source/gd32vw55x_rcu.c ****     reg &= ~RCU_CFG0_SCS;
 684              		.loc 1 360 9
 685 0018 8327C4FE 		lw	a5,-20(s0)
 686 001c F19B     		andi	a5,a5,-4
 687 001e 2326F4FE 		sw	a5,-20(s0)
 361:../Firmware/GD32VW55x_standard_peripheral/Source/gd32vw55x_rcu.c ****     RCU_CFG0 = (reg | ck_sys);
 688              		.loc 1 361 5
 689 0022 B7470240 		li	a5,1073889280
 690 0026 93878780 		addi	a5,a5,-2040
 691              		.loc 1 361 21
 692 002a 8326C4FE 		lw	a3,-20(s0)
 693 002e 0327C4FD 		lw	a4,-36(s0)
 694 0032 558F     		or	a4,a3,a4
 695              		.loc 1 361 14
 696 0034 98C3     		sw	a4,0(a5)
 362:../Firmware/GD32VW55x_standard_peripheral/Source/gd32vw55x_rcu.c **** }
 697              		.loc 1 362 1
 698 0036 0100     		nop
 699 0038 3254     		lw	s0,44(sp)
 700              		.cfi_restore 8
 701              		.cfi_def_cfa 2, 48
 702 003a 4561     		addi	sp,sp,48
 703              		.cfi_def_cfa_offset 0
 704 003c 8280     		jr	ra
 705              		.cfi_endproc
 706              	.LFE362:
 708              		.section	.text.rcu_system_clock_source_get,"ax",@progbits
 709              		.align	1
 710              		.globl	rcu_system_clock_source_get
 712              	rcu_system_clock_source_get:
 713              	.LFB363:
 363:../Firmware/GD32VW55x_standard_peripheral/Source/gd32vw55x_rcu.c **** 
 364:../Firmware/GD32VW55x_standard_peripheral/Source/gd32vw55x_rcu.c **** /*!
 365:../Firmware/GD32VW55x_standard_peripheral/Source/gd32vw55x_rcu.c ****     \brief      get the system clock source
 366:../Firmware/GD32VW55x_standard_peripheral/Source/gd32vw55x_rcu.c ****     \param[in]  none
 367:../Firmware/GD32VW55x_standard_peripheral/Source/gd32vw55x_rcu.c ****     \param[out] none
 368:../Firmware/GD32VW55x_standard_peripheral/Source/gd32vw55x_rcu.c ****     \retval     which clock is selected as CK_SYS source
 369:../Firmware/GD32VW55x_standard_peripheral/Source/gd32vw55x_rcu.c ****       \arg        RCU_SCSS_IRC16M: CK_IRC16M is selected as the CK_SYS source
 370:../Firmware/GD32VW55x_standard_peripheral/Source/gd32vw55x_rcu.c ****       \arg        RCU_SCSS_HXTAL: CK_HXTAL is selected as the CK_SYS source
 371:../Firmware/GD32VW55x_standard_peripheral/Source/gd32vw55x_rcu.c ****       \arg        RCU_CKSYSSRC_PLLDIG: CK_PLLDIG is selected as the CK_SYS source
 372:../Firmware/GD32VW55x_standard_peripheral/Source/gd32vw55x_rcu.c **** */
 373:../Firmware/GD32VW55x_standard_peripheral/Source/gd32vw55x_rcu.c **** uint32_t rcu_system_clock_source_get(void)
 374:../Firmware/GD32VW55x_standard_peripheral/Source/gd32vw55x_rcu.c **** {
 714              		.loc 1 374 1
 715              		.cfi_startproc
 716 0000 4111     		addi	sp,sp,-16
 717              		.cfi_def_cfa_offset 16
 718 0002 22C6     		sw	s0,12(sp)
 719              		.cfi_offset 8, -4
 720 0004 0008     		addi	s0,sp,16
 721              		.cfi_def_cfa 8, 0
 375:../Firmware/GD32VW55x_standard_peripheral/Source/gd32vw55x_rcu.c ****     return (RCU_CFG0 & RCU_CFG0_SCSS);
 722              		.loc 1 375 22
 723 0006 B7470240 		li	a5,1073889280
 724 000a 93878780 		addi	a5,a5,-2040
 725 000e 9C43     		lw	a5,0(a5)
 726 0010 B18B     		andi	a5,a5,12
 376:../Firmware/GD32VW55x_standard_peripheral/Source/gd32vw55x_rcu.c **** }
 727              		.loc 1 376 1
 728 0012 3E85     		mv	a0,a5
 729 0014 3244     		lw	s0,12(sp)
 730              		.cfi_restore 8
 731              		.cfi_def_cfa 2, 16
 732 0016 4101     		addi	sp,sp,16
 733              		.cfi_def_cfa_offset 0
 734 0018 8280     		jr	ra
 735              		.cfi_endproc
 736              	.LFE363:
 738              		.section	.text.rcu_ahb_clock_config,"ax",@progbits
 739              		.align	1
 740              		.globl	rcu_ahb_clock_config
 742              	rcu_ahb_clock_config:
 743              	.LFB364:
 377:../Firmware/GD32VW55x_standard_peripheral/Source/gd32vw55x_rcu.c **** 
 378:../Firmware/GD32VW55x_standard_peripheral/Source/gd32vw55x_rcu.c **** /*!
 379:../Firmware/GD32VW55x_standard_peripheral/Source/gd32vw55x_rcu.c ****     \brief      configure the AHB clock prescaler selection
 380:../Firmware/GD32VW55x_standard_peripheral/Source/gd32vw55x_rcu.c ****     \param[in]  ck_ahb: AHB clock prescaler selection
 381:../Firmware/GD32VW55x_standard_peripheral/Source/gd32vw55x_rcu.c ****                 only one parameter can be selected which is shown as below:
 382:../Firmware/GD32VW55x_standard_peripheral/Source/gd32vw55x_rcu.c ****       \arg        RCU_AHB_CKSYS_DIVx, x=1, 2, 4, 8, 16, 64, 128, 256, 512
 383:../Firmware/GD32VW55x_standard_peripheral/Source/gd32vw55x_rcu.c ****     \param[out] none
 384:../Firmware/GD32VW55x_standard_peripheral/Source/gd32vw55x_rcu.c ****     \retval     none
 385:../Firmware/GD32VW55x_standard_peripheral/Source/gd32vw55x_rcu.c **** */
 386:../Firmware/GD32VW55x_standard_peripheral/Source/gd32vw55x_rcu.c **** void rcu_ahb_clock_config(uint32_t ck_ahb)
 387:../Firmware/GD32VW55x_standard_peripheral/Source/gd32vw55x_rcu.c **** {
 744              		.loc 1 387 1
 745              		.cfi_startproc
 746 0000 7971     		addi	sp,sp,-48
 747              		.cfi_def_cfa_offset 48
 748 0002 22D6     		sw	s0,44(sp)
 749              		.cfi_offset 8, -4
 750 0004 0018     		addi	s0,sp,48
 751              		.cfi_def_cfa 8, 0
 752 0006 232EA4FC 		sw	a0,-36(s0)
 388:../Firmware/GD32VW55x_standard_peripheral/Source/gd32vw55x_rcu.c ****     uint32_t reg;
 389:../Firmware/GD32VW55x_standard_peripheral/Source/gd32vw55x_rcu.c **** 
 390:../Firmware/GD32VW55x_standard_peripheral/Source/gd32vw55x_rcu.c ****     reg = RCU_CFG0;
 753              		.loc 1 390 11
 754 000a B7470240 		li	a5,1073889280
 755 000e 93878780 		addi	a5,a5,-2040
 756              		.loc 1 390 9
 757 0012 9C43     		lw	a5,0(a5)
 758 0014 2326F4FE 		sw	a5,-20(s0)
 391:../Firmware/GD32VW55x_standard_peripheral/Source/gd32vw55x_rcu.c ****     /* reset the AHBPSC bits and set according to ck_ahb */
 392:../Firmware/GD32VW55x_standard_peripheral/Source/gd32vw55x_rcu.c ****     reg &= ~RCU_CFG0_AHBPSC;
 759              		.loc 1 392 9
 760 0018 8327C4FE 		lw	a5,-20(s0)
 761 001c 93F7F7F0 		andi	a5,a5,-241
 762 0020 2326F4FE 		sw	a5,-20(s0)
 393:../Firmware/GD32VW55x_standard_peripheral/Source/gd32vw55x_rcu.c ****     RCU_CFG0 = (reg | ck_ahb);
 763              		.loc 1 393 5
 764 0024 B7470240 		li	a5,1073889280
 765 0028 93878780 		addi	a5,a5,-2040
 766              		.loc 1 393 21
 767 002c 8326C4FE 		lw	a3,-20(s0)
 768 0030 0327C4FD 		lw	a4,-36(s0)
 769 0034 558F     		or	a4,a3,a4
 770              		.loc 1 393 14
 771 0036 98C3     		sw	a4,0(a5)
 394:../Firmware/GD32VW55x_standard_peripheral/Source/gd32vw55x_rcu.c **** }
 772              		.loc 1 394 1
 773 0038 0100     		nop
 774 003a 3254     		lw	s0,44(sp)
 775              		.cfi_restore 8
 776              		.cfi_def_cfa 2, 48
 777 003c 4561     		addi	sp,sp,48
 778              		.cfi_def_cfa_offset 0
 779 003e 8280     		jr	ra
 780              		.cfi_endproc
 781              	.LFE364:
 783              		.section	.text.rcu_apb1_clock_config,"ax",@progbits
 784              		.align	1
 785              		.globl	rcu_apb1_clock_config
 787              	rcu_apb1_clock_config:
 788              	.LFB365:
 395:../Firmware/GD32VW55x_standard_peripheral/Source/gd32vw55x_rcu.c **** 
 396:../Firmware/GD32VW55x_standard_peripheral/Source/gd32vw55x_rcu.c **** /*!
 397:../Firmware/GD32VW55x_standard_peripheral/Source/gd32vw55x_rcu.c ****     \brief      configure the APB1 clock prescaler selection
 398:../Firmware/GD32VW55x_standard_peripheral/Source/gd32vw55x_rcu.c ****     \param[in]  ck_apb1: APB1 clock prescaler selection
 399:../Firmware/GD32VW55x_standard_peripheral/Source/gd32vw55x_rcu.c ****                 only one parameter can be selected which is shown as below:
 400:../Firmware/GD32VW55x_standard_peripheral/Source/gd32vw55x_rcu.c ****       \arg        RCU_APB1_CKAHB_DIV1: select CK_AHB as CK_APB1
 401:../Firmware/GD32VW55x_standard_peripheral/Source/gd32vw55x_rcu.c ****       \arg        RCU_APB1_CKAHB_DIV2: select CK_AHB/2 as CK_APB1
 402:../Firmware/GD32VW55x_standard_peripheral/Source/gd32vw55x_rcu.c ****       \arg        RCU_APB1_CKAHB_DIV4: select CK_AHB/4 as CK_APB1
 403:../Firmware/GD32VW55x_standard_peripheral/Source/gd32vw55x_rcu.c ****       \arg        RCU_APB1_CKAHB_DIV8: select CK_AHB/8 as CK_APB1
 404:../Firmware/GD32VW55x_standard_peripheral/Source/gd32vw55x_rcu.c ****       \arg        RCU_APB1_CKAHB_DIV16: select CK_AHB/16 as CK_APB1
 405:../Firmware/GD32VW55x_standard_peripheral/Source/gd32vw55x_rcu.c ****     \param[out] none
 406:../Firmware/GD32VW55x_standard_peripheral/Source/gd32vw55x_rcu.c ****     \retval     none
 407:../Firmware/GD32VW55x_standard_peripheral/Source/gd32vw55x_rcu.c **** */
 408:../Firmware/GD32VW55x_standard_peripheral/Source/gd32vw55x_rcu.c **** void rcu_apb1_clock_config(uint32_t ck_apb1)
 409:../Firmware/GD32VW55x_standard_peripheral/Source/gd32vw55x_rcu.c **** {
 789              		.loc 1 409 1
 790              		.cfi_startproc
 791 0000 7971     		addi	sp,sp,-48
 792              		.cfi_def_cfa_offset 48
 793 0002 22D6     		sw	s0,44(sp)
 794              		.cfi_offset 8, -4
 795 0004 0018     		addi	s0,sp,48
 796              		.cfi_def_cfa 8, 0
 797 0006 232EA4FC 		sw	a0,-36(s0)
 410:../Firmware/GD32VW55x_standard_peripheral/Source/gd32vw55x_rcu.c ****     uint32_t reg;
 411:../Firmware/GD32VW55x_standard_peripheral/Source/gd32vw55x_rcu.c **** 
 412:../Firmware/GD32VW55x_standard_peripheral/Source/gd32vw55x_rcu.c ****     reg = RCU_CFG0;
 798              		.loc 1 412 11
 799 000a B7470240 		li	a5,1073889280
 800 000e 93878780 		addi	a5,a5,-2040
 801              		.loc 1 412 9
 802 0012 9C43     		lw	a5,0(a5)
 803 0014 2326F4FE 		sw	a5,-20(s0)
 413:../Firmware/GD32VW55x_standard_peripheral/Source/gd32vw55x_rcu.c ****     /* reset the APB1PSC and set according to ck_apb1 */
 414:../Firmware/GD32VW55x_standard_peripheral/Source/gd32vw55x_rcu.c ****     reg &= ~RCU_CFG0_APB1PSC;
 804              		.loc 1 414 9
 805 0018 0327C4FE 		lw	a4,-20(s0)
 806 001c F977     		li	a5,-8192
 807 001e 9387F73F 		addi	a5,a5,1023
 808 0022 F98F     		and	a5,a4,a5
 809 0024 2326F4FE 		sw	a5,-20(s0)
 415:../Firmware/GD32VW55x_standard_peripheral/Source/gd32vw55x_rcu.c ****     RCU_CFG0 = (reg | ck_apb1);
 810              		.loc 1 415 5
 811 0028 B7470240 		li	a5,1073889280
 812 002c 93878780 		addi	a5,a5,-2040
 813              		.loc 1 415 21
 814 0030 8326C4FE 		lw	a3,-20(s0)
 815 0034 0327C4FD 		lw	a4,-36(s0)
 816 0038 558F     		or	a4,a3,a4
 817              		.loc 1 415 14
 818 003a 98C3     		sw	a4,0(a5)
 416:../Firmware/GD32VW55x_standard_peripheral/Source/gd32vw55x_rcu.c **** }
 819              		.loc 1 416 1
 820 003c 0100     		nop
 821 003e 3254     		lw	s0,44(sp)
 822              		.cfi_restore 8
 823              		.cfi_def_cfa 2, 48
 824 0040 4561     		addi	sp,sp,48
 825              		.cfi_def_cfa_offset 0
 826 0042 8280     		jr	ra
 827              		.cfi_endproc
 828              	.LFE365:
 830              		.section	.text.rcu_apb2_clock_config,"ax",@progbits
 831              		.align	1
 832              		.globl	rcu_apb2_clock_config
 834              	rcu_apb2_clock_config:
 835              	.LFB366:
 417:../Firmware/GD32VW55x_standard_peripheral/Source/gd32vw55x_rcu.c **** 
 418:../Firmware/GD32VW55x_standard_peripheral/Source/gd32vw55x_rcu.c **** /*!
 419:../Firmware/GD32VW55x_standard_peripheral/Source/gd32vw55x_rcu.c ****     \brief      configure the APB2 clock prescaler selection
 420:../Firmware/GD32VW55x_standard_peripheral/Source/gd32vw55x_rcu.c ****     \param[in]  ck_apb2: APB2 clock prescaler selection
 421:../Firmware/GD32VW55x_standard_peripheral/Source/gd32vw55x_rcu.c ****                 only one parameter can be selected which is shown as below:
 422:../Firmware/GD32VW55x_standard_peripheral/Source/gd32vw55x_rcu.c ****       \arg        RCU_APB2_CKAHB_DIV1: select CK_AHB as CK_APB2
 423:../Firmware/GD32VW55x_standard_peripheral/Source/gd32vw55x_rcu.c ****       \arg        RCU_APB2_CKAHB_DIV2: select CK_AHB/2 as CK_APB2
 424:../Firmware/GD32VW55x_standard_peripheral/Source/gd32vw55x_rcu.c ****       \arg        RCU_APB2_CKAHB_DIV4: select CK_AHB/4 as CK_APB2
 425:../Firmware/GD32VW55x_standard_peripheral/Source/gd32vw55x_rcu.c ****       \arg        RCU_APB2_CKAHB_DIV8: select CK_AHB/8 as CK_APB2
 426:../Firmware/GD32VW55x_standard_peripheral/Source/gd32vw55x_rcu.c ****       \arg        RCU_APB2_CKAHB_DIV16: select CK_AHB/16 as CK_APB2
 427:../Firmware/GD32VW55x_standard_peripheral/Source/gd32vw55x_rcu.c ****     \param[out] none
 428:../Firmware/GD32VW55x_standard_peripheral/Source/gd32vw55x_rcu.c ****     \retval     none
 429:../Firmware/GD32VW55x_standard_peripheral/Source/gd32vw55x_rcu.c **** */
 430:../Firmware/GD32VW55x_standard_peripheral/Source/gd32vw55x_rcu.c **** void rcu_apb2_clock_config(uint32_t ck_apb2)
 431:../Firmware/GD32VW55x_standard_peripheral/Source/gd32vw55x_rcu.c **** {
 836              		.loc 1 431 1
 837              		.cfi_startproc
 838 0000 7971     		addi	sp,sp,-48
 839              		.cfi_def_cfa_offset 48
 840 0002 22D6     		sw	s0,44(sp)
 841              		.cfi_offset 8, -4
 842 0004 0018     		addi	s0,sp,48
 843              		.cfi_def_cfa 8, 0
 844 0006 232EA4FC 		sw	a0,-36(s0)
 432:../Firmware/GD32VW55x_standard_peripheral/Source/gd32vw55x_rcu.c ****     uint32_t reg;
 433:../Firmware/GD32VW55x_standard_peripheral/Source/gd32vw55x_rcu.c **** 
 434:../Firmware/GD32VW55x_standard_peripheral/Source/gd32vw55x_rcu.c ****     reg = RCU_CFG0;
 845              		.loc 1 434 11
 846 000a B7470240 		li	a5,1073889280
 847 000e 93878780 		addi	a5,a5,-2040
 848              		.loc 1 434 9
 849 0012 9C43     		lw	a5,0(a5)
 850 0014 2326F4FE 		sw	a5,-20(s0)
 435:../Firmware/GD32VW55x_standard_peripheral/Source/gd32vw55x_rcu.c ****     /* reset the APB2PSC and set according to ck_apb2 */
 436:../Firmware/GD32VW55x_standard_peripheral/Source/gd32vw55x_rcu.c ****     reg &= ~RCU_CFG0_APB2PSC;
 851              		.loc 1 436 9
 852 0018 0327C4FE 		lw	a4,-20(s0)
 853 001c C977     		li	a5,-57344
 854 001e FD17     		addi	a5,a5,-1
 855 0020 F98F     		and	a5,a4,a5
 856 0022 2326F4FE 		sw	a5,-20(s0)
 437:../Firmware/GD32VW55x_standard_peripheral/Source/gd32vw55x_rcu.c ****     RCU_CFG0 = (reg | ck_apb2);
 857              		.loc 1 437 5
 858 0026 B7470240 		li	a5,1073889280
 859 002a 93878780 		addi	a5,a5,-2040
 860              		.loc 1 437 21
 861 002e 8326C4FE 		lw	a3,-20(s0)
 862 0032 0327C4FD 		lw	a4,-36(s0)
 863 0036 558F     		or	a4,a3,a4
 864              		.loc 1 437 14
 865 0038 98C3     		sw	a4,0(a5)
 438:../Firmware/GD32VW55x_standard_peripheral/Source/gd32vw55x_rcu.c **** }
 866              		.loc 1 438 1
 867 003a 0100     		nop
 868 003c 3254     		lw	s0,44(sp)
 869              		.cfi_restore 8
 870              		.cfi_def_cfa 2, 48
 871 003e 4561     		addi	sp,sp,48
 872              		.cfi_def_cfa_offset 0
 873 0040 8280     		jr	ra
 874              		.cfi_endproc
 875              	.LFE366:
 877              		.section	.text.rcu_ckout0_config,"ax",@progbits
 878              		.align	1
 879              		.globl	rcu_ckout0_config
 881              	rcu_ckout0_config:
 882              	.LFB367:
 439:../Firmware/GD32VW55x_standard_peripheral/Source/gd32vw55x_rcu.c **** 
 440:../Firmware/GD32VW55x_standard_peripheral/Source/gd32vw55x_rcu.c **** /*!
 441:../Firmware/GD32VW55x_standard_peripheral/Source/gd32vw55x_rcu.c ****     \brief      configure the CK_OUT0 clock source and divider
 442:../Firmware/GD32VW55x_standard_peripheral/Source/gd32vw55x_rcu.c ****     \param[in]  ckout0_src: CK_OUT0 clock source selection
 443:../Firmware/GD32VW55x_standard_peripheral/Source/gd32vw55x_rcu.c ****                 only one parameter can be selected which is shown as below:
 444:../Firmware/GD32VW55x_standard_peripheral/Source/gd32vw55x_rcu.c ****       \arg        RCU_CKOUT0SRC_IRC16M: IRC16M selected
 445:../Firmware/GD32VW55x_standard_peripheral/Source/gd32vw55x_rcu.c ****       \arg        RCU_CKOUT0SRC_LXTAL: LXTAL selected
 446:../Firmware/GD32VW55x_standard_peripheral/Source/gd32vw55x_rcu.c ****       \arg        RCU_CKOUT0SRC_HXTAL: HXTAL selected
 447:../Firmware/GD32VW55x_standard_peripheral/Source/gd32vw55x_rcu.c ****       \arg        RCU_CKOUT0SRC_PLLDIG: CK_PLLDIG selected
 448:../Firmware/GD32VW55x_standard_peripheral/Source/gd32vw55x_rcu.c ****       \arg        RCU_CKOUT0SRC_IRC32K: IRC32K selected
 449:../Firmware/GD32VW55x_standard_peripheral/Source/gd32vw55x_rcu.c ****       \arg        RCU_CKOUT0SRC_CKSYS: system clock selected
 450:../Firmware/GD32VW55x_standard_peripheral/Source/gd32vw55x_rcu.c ****     \param[in]  ckout0_div: CK_OUT0 divider
 451:../Firmware/GD32VW55x_standard_peripheral/Source/gd32vw55x_rcu.c ****       \arg        RCU_CKOUT0_DIVx(x=1,2,3,4,5): CK_OUT0 is divided by x
 452:../Firmware/GD32VW55x_standard_peripheral/Source/gd32vw55x_rcu.c ****     \param[out] none
 453:../Firmware/GD32VW55x_standard_peripheral/Source/gd32vw55x_rcu.c ****     \retval     none
 454:../Firmware/GD32VW55x_standard_peripheral/Source/gd32vw55x_rcu.c **** */
 455:../Firmware/GD32VW55x_standard_peripheral/Source/gd32vw55x_rcu.c **** void rcu_ckout0_config(uint32_t ckout0_src, uint32_t ckout0_div)
 456:../Firmware/GD32VW55x_standard_peripheral/Source/gd32vw55x_rcu.c **** {
 883              		.loc 1 456 1
 884              		.cfi_startproc
 885 0000 7971     		addi	sp,sp,-48
 886              		.cfi_def_cfa_offset 48
 887 0002 22D6     		sw	s0,44(sp)
 888              		.cfi_offset 8, -4
 889 0004 0018     		addi	s0,sp,48
 890              		.cfi_def_cfa 8, 0
 891 0006 232EA4FC 		sw	a0,-36(s0)
 892 000a 232CB4FC 		sw	a1,-40(s0)
 457:../Firmware/GD32VW55x_standard_peripheral/Source/gd32vw55x_rcu.c ****     uint32_t reg;
 458:../Firmware/GD32VW55x_standard_peripheral/Source/gd32vw55x_rcu.c **** 
 459:../Firmware/GD32VW55x_standard_peripheral/Source/gd32vw55x_rcu.c ****     reg = RCU_CFG0;
 893              		.loc 1 459 11
 894 000e B7470240 		li	a5,1073889280
 895 0012 93878780 		addi	a5,a5,-2040
 896              		.loc 1 459 9
 897 0016 9C43     		lw	a5,0(a5)
 898 0018 2326F4FE 		sw	a5,-20(s0)
 460:../Firmware/GD32VW55x_standard_peripheral/Source/gd32vw55x_rcu.c ****     /* reset the CKOUT0SRC, CKOUT0DIV and set according to ckout0_src and ckout0_div */
 461:../Firmware/GD32VW55x_standard_peripheral/Source/gd32vw55x_rcu.c ****     reg &= ~(RCU_CFG0_CKOUT0SEL | RCU_CFG0_CKOUT0DIV );
 899              		.loc 1 461 9
 900 001c 0327C4FE 		lw	a4,-20(s0)
 901 0020 B70720F8 		li	a5,-132120576
 902 0024 FD17     		addi	a5,a5,-1
 903 0026 F98F     		and	a5,a4,a5
 904 0028 2326F4FE 		sw	a5,-20(s0)
 462:../Firmware/GD32VW55x_standard_peripheral/Source/gd32vw55x_rcu.c ****     RCU_CFG0 = (reg | ckout0_src | ckout0_div);
 905              		.loc 1 462 21
 906 002c 0327C4FE 		lw	a4,-20(s0)
 907 0030 8327C4FD 		lw	a5,-36(s0)
 908 0034 B366F700 		or	a3,a4,a5
 909              		.loc 1 462 5
 910 0038 B7470240 		li	a5,1073889280
 911 003c 93878780 		addi	a5,a5,-2040
 912              		.loc 1 462 34
 913 0040 032784FD 		lw	a4,-40(s0)
 914 0044 558F     		or	a4,a3,a4
 915              		.loc 1 462 14
 916 0046 98C3     		sw	a4,0(a5)
 463:../Firmware/GD32VW55x_standard_peripheral/Source/gd32vw55x_rcu.c **** }
 917              		.loc 1 463 1
 918 0048 0100     		nop
 919 004a 3254     		lw	s0,44(sp)
 920              		.cfi_restore 8
 921              		.cfi_def_cfa 2, 48
 922 004c 4561     		addi	sp,sp,48
 923              		.cfi_def_cfa_offset 0
 924 004e 8280     		jr	ra
 925              		.cfi_endproc
 926              	.LFE367:
 928              		.section	.text.rcu_ckout1_config,"ax",@progbits
 929              		.align	1
 930              		.globl	rcu_ckout1_config
 932              	rcu_ckout1_config:
 933              	.LFB368:
 464:../Firmware/GD32VW55x_standard_peripheral/Source/gd32vw55x_rcu.c **** 
 465:../Firmware/GD32VW55x_standard_peripheral/Source/gd32vw55x_rcu.c **** /*!
 466:../Firmware/GD32VW55x_standard_peripheral/Source/gd32vw55x_rcu.c ****     \brief      configure the CK_OUT1 clock source and divider
 467:../Firmware/GD32VW55x_standard_peripheral/Source/gd32vw55x_rcu.c ****     \param[in]  ckout1_src: CK_OUT1 clock source selection
 468:../Firmware/GD32VW55x_standard_peripheral/Source/gd32vw55x_rcu.c ****                 only one parameter can be selected which is shown as below:
 469:../Firmware/GD32VW55x_standard_peripheral/Source/gd32vw55x_rcu.c ****       \arg        RCU_CKOUT1SRC_CKSYS: system clock selected
 470:../Firmware/GD32VW55x_standard_peripheral/Source/gd32vw55x_rcu.c ****       \arg        RCU_CKOUT1SRC_IRC16M: IRC16M selected
 471:../Firmware/GD32VW55x_standard_peripheral/Source/gd32vw55x_rcu.c ****       \arg        RCU_CKOUT1SRC_HXTAL: HXTAL selected
 472:../Firmware/GD32VW55x_standard_peripheral/Source/gd32vw55x_rcu.c ****       \arg        RCU_CKOUT1SRC_PLLDIG: PLLDIG selected
 473:../Firmware/GD32VW55x_standard_peripheral/Source/gd32vw55x_rcu.c ****     \param[in]  ckout1_div: CK_OUT1 divider
 474:../Firmware/GD32VW55x_standard_peripheral/Source/gd32vw55x_rcu.c ****       \arg        RCU_CKOUT1_DIVx(x=1,2,3,4,5): CK_OUT1 is divided by x
 475:../Firmware/GD32VW55x_standard_peripheral/Source/gd32vw55x_rcu.c ****     \param[out] none
 476:../Firmware/GD32VW55x_standard_peripheral/Source/gd32vw55x_rcu.c ****     \retval     none
 477:../Firmware/GD32VW55x_standard_peripheral/Source/gd32vw55x_rcu.c **** */
 478:../Firmware/GD32VW55x_standard_peripheral/Source/gd32vw55x_rcu.c **** void rcu_ckout1_config(uint32_t ckout1_src, uint32_t ckout1_div)
 479:../Firmware/GD32VW55x_standard_peripheral/Source/gd32vw55x_rcu.c **** {
 934              		.loc 1 479 1
 935              		.cfi_startproc
 936 0000 7971     		addi	sp,sp,-48
 937              		.cfi_def_cfa_offset 48
 938 0002 22D6     		sw	s0,44(sp)
 939              		.cfi_offset 8, -4
 940 0004 0018     		addi	s0,sp,48
 941              		.cfi_def_cfa 8, 0
 942 0006 232EA4FC 		sw	a0,-36(s0)
 943 000a 232CB4FC 		sw	a1,-40(s0)
 480:../Firmware/GD32VW55x_standard_peripheral/Source/gd32vw55x_rcu.c ****     uint32_t reg;
 481:../Firmware/GD32VW55x_standard_peripheral/Source/gd32vw55x_rcu.c **** 
 482:../Firmware/GD32VW55x_standard_peripheral/Source/gd32vw55x_rcu.c ****     reg = RCU_CFG0;
 944              		.loc 1 482 11
 945 000e B7470240 		li	a5,1073889280
 946 0012 93878780 		addi	a5,a5,-2040
 947              		.loc 1 482 9
 948 0016 9C43     		lw	a5,0(a5)
 949 0018 2326F4FE 		sw	a5,-20(s0)
 483:../Firmware/GD32VW55x_standard_peripheral/Source/gd32vw55x_rcu.c ****     /* reset the CKOUT1SRC, CKOUT1DIV and set according to ckout1_src and ckout1_div */
 484:../Firmware/GD32VW55x_standard_peripheral/Source/gd32vw55x_rcu.c ****     reg &= ~(RCU_CFG0_CKOUT1SEL | RCU_CFG0_CKOUT1DIV);
 950              		.loc 1 484 9
 951 001c 0327C4FE 		lw	a4,-20(s0)
 952 0020 B7070008 		li	a5,134217728
 953 0024 FD17     		addi	a5,a5,-1
 954 0026 F98F     		and	a5,a4,a5
 955 0028 2326F4FE 		sw	a5,-20(s0)
 485:../Firmware/GD32VW55x_standard_peripheral/Source/gd32vw55x_rcu.c ****     RCU_CFG0 = (reg | ckout1_src | ckout1_div);
 956              		.loc 1 485 21
 957 002c 0327C4FE 		lw	a4,-20(s0)
 958 0030 8327C4FD 		lw	a5,-36(s0)
 959 0034 B366F700 		or	a3,a4,a5
 960              		.loc 1 485 5
 961 0038 B7470240 		li	a5,1073889280
 962 003c 93878780 		addi	a5,a5,-2040
 963              		.loc 1 485 34
 964 0040 032784FD 		lw	a4,-40(s0)
 965 0044 558F     		or	a4,a3,a4
 966              		.loc 1 485 14
 967 0046 98C3     		sw	a4,0(a5)
 486:../Firmware/GD32VW55x_standard_peripheral/Source/gd32vw55x_rcu.c **** }
 968              		.loc 1 486 1
 969 0048 0100     		nop
 970 004a 3254     		lw	s0,44(sp)
 971              		.cfi_restore 8
 972              		.cfi_def_cfa 2, 48
 973 004c 4561     		addi	sp,sp,48
 974              		.cfi_def_cfa_offset 0
 975 004e 8280     		jr	ra
 976              		.cfi_endproc
 977              	.LFE368:
 979              		.section	.text.rcu_plldig_config,"ax",@progbits
 980              		.align	1
 981              		.globl	rcu_plldig_config
 983              	rcu_plldig_config:
 984              	.LFB369:
 487:../Firmware/GD32VW55x_standard_peripheral/Source/gd32vw55x_rcu.c **** 
 488:../Firmware/GD32VW55x_standard_peripheral/Source/gd32vw55x_rcu.c **** /*!
 489:../Firmware/GD32VW55x_standard_peripheral/Source/gd32vw55x_rcu.c ****     \brief      configure the PLLDIG output clock frequency
 490:../Firmware/GD32VW55x_standard_peripheral/Source/gd32vw55x_rcu.c ****     \param[in]  plldig_clk: the PLLDIG VCO clock this parameter sselection
 491:../Firmware/GD32VW55x_standard_peripheral/Source/gd32vw55x_rcu.c ****                 only one parameter can be selected which is shown as below:
 492:../Firmware/GD32VW55x_standard_peripheral/Source/gd32vw55x_rcu.c ****       \arg        RCU_PLLDIG_192M: selected 192Mhz as PLLDIG output frequency
 493:../Firmware/GD32VW55x_standard_peripheral/Source/gd32vw55x_rcu.c ****       \arg        RCU_PLLDIG_240M: selected 240Mhz as PLLDIG output frequency
 494:../Firmware/GD32VW55x_standard_peripheral/Source/gd32vw55x_rcu.c ****       \arg        RCU_PLLDIG_320M: selected 320Mhz as PLLDIG output frequency
 495:../Firmware/GD32VW55x_standard_peripheral/Source/gd32vw55x_rcu.c ****       \arg        RCU_PLLDIG_480M: selected 480Mhz as PLLDIG output frequency
 496:../Firmware/GD32VW55x_standard_peripheral/Source/gd32vw55x_rcu.c ****     \param[out] none
 497:../Firmware/GD32VW55x_standard_peripheral/Source/gd32vw55x_rcu.c ****     \retval     none
 498:../Firmware/GD32VW55x_standard_peripheral/Source/gd32vw55x_rcu.c **** */
 499:../Firmware/GD32VW55x_standard_peripheral/Source/gd32vw55x_rcu.c **** void rcu_plldig_config(uint32_t plldig_clk)
 500:../Firmware/GD32VW55x_standard_peripheral/Source/gd32vw55x_rcu.c **** {
 985              		.loc 1 500 1
 986              		.cfi_startproc
 987 0000 0111     		addi	sp,sp,-32
 988              		.cfi_def_cfa_offset 32
 989 0002 22CE     		sw	s0,28(sp)
 990              		.cfi_offset 8, -4
 991 0004 0010     		addi	s0,sp,32
 992              		.cfi_def_cfa 8, 0
 993 0006 2326A4FE 		sw	a0,-20(s0)
 501:../Firmware/GD32VW55x_standard_peripheral/Source/gd32vw55x_rcu.c ****        RCU_PLLDIGCFG0 &= ~(RCU_PLLDIGCFG0_PLLDIGOSEL);
 994              		.loc 1 501 23
 995 000a B7470240 		li	a5,1073889280
 996 000e 93874788 		addi	a5,a5,-1916
 997 0012 9443     		lw	a3,0(a5)
 998 0014 B7470240 		li	a5,1073889280
 999 0018 93874788 		addi	a5,a5,-1916
 1000 001c 370700FD 		li	a4,-50331648
 1001 0020 7D17     		addi	a4,a4,-1
 1002 0022 758F     		and	a4,a3,a4
 1003 0024 98C3     		sw	a4,0(a5)
 502:../Firmware/GD32VW55x_standard_peripheral/Source/gd32vw55x_rcu.c ****        RCU_PLLDIGCFG0 |= plldig_clk;
 1004              		.loc 1 502 23
 1005 0026 B7470240 		li	a5,1073889280
 1006 002a 93874788 		addi	a5,a5,-1916
 1007 002e 9443     		lw	a3,0(a5)
 1008 0030 B7470240 		li	a5,1073889280
 1009 0034 93874788 		addi	a5,a5,-1916
 1010 0038 0327C4FE 		lw	a4,-20(s0)
 1011 003c 558F     		or	a4,a3,a4
 1012 003e 98C3     		sw	a4,0(a5)
 503:../Firmware/GD32VW55x_standard_peripheral/Source/gd32vw55x_rcu.c **** }
 1013              		.loc 1 503 1
 1014 0040 0100     		nop
 1015 0042 7244     		lw	s0,28(sp)
 1016              		.cfi_restore 8
 1017              		.cfi_def_cfa 2, 32
 1018 0044 0561     		addi	sp,sp,32
 1019              		.cfi_def_cfa_offset 0
 1020 0046 8280     		jr	ra
 1021              		.cfi_endproc
 1022              	.LFE369:
 1024              		.section	.text.rcu_plldigdiv_sys_config,"ax",@progbits
 1025              		.align	1
 1026              		.globl	rcu_plldigdiv_sys_config
 1028              	rcu_plldigdiv_sys_config:
 1029              	.LFB370:
 504:../Firmware/GD32VW55x_standard_peripheral/Source/gd32vw55x_rcu.c **** 
 505:../Firmware/GD32VW55x_standard_peripheral/Source/gd32vw55x_rcu.c **** /*!
 506:../Firmware/GD32VW55x_standard_peripheral/Source/gd32vw55x_rcu.c ****     \brief      configure PLLDIG clock divider factor for system clock
 507:../Firmware/GD32VW55x_standard_peripheral/Source/gd32vw55x_rcu.c ****     \param[in]  plldigdiv_sys: PLLDIG clock divider factor for system clock
 508:../Firmware/GD32VW55x_standard_peripheral/Source/gd32vw55x_rcu.c ****                 only one parameter can be selected which is shown as below:
 509:../Firmware/GD32VW55x_standard_peripheral/Source/gd32vw55x_rcu.c ****       \arg        RCU_PLLDIG_SYS_DIVx(x=1,2,3,...,64): PLLDIG clock divided by x for system clock
 510:../Firmware/GD32VW55x_standard_peripheral/Source/gd32vw55x_rcu.c ****     \param[out] none
 511:../Firmware/GD32VW55x_standard_peripheral/Source/gd32vw55x_rcu.c ****     \retval     none
 512:../Firmware/GD32VW55x_standard_peripheral/Source/gd32vw55x_rcu.c **** */
 513:../Firmware/GD32VW55x_standard_peripheral/Source/gd32vw55x_rcu.c **** void rcu_plldigdiv_sys_config(uint32_t plldigdiv_sys)
 514:../Firmware/GD32VW55x_standard_peripheral/Source/gd32vw55x_rcu.c **** {
 1030              		.loc 1 514 1
 1031              		.cfi_startproc
 1032 0000 7971     		addi	sp,sp,-48
 1033              		.cfi_def_cfa_offset 48
 1034 0002 22D6     		sw	s0,44(sp)
 1035              		.cfi_offset 8, -4
 1036 0004 0018     		addi	s0,sp,48
 1037              		.cfi_def_cfa 8, 0
 1038 0006 232EA4FC 		sw	a0,-36(s0)
 515:../Firmware/GD32VW55x_standard_peripheral/Source/gd32vw55x_rcu.c ****     uint32_t reg;
 516:../Firmware/GD32VW55x_standard_peripheral/Source/gd32vw55x_rcu.c **** 
 517:../Firmware/GD32VW55x_standard_peripheral/Source/gd32vw55x_rcu.c ****     reg = RCU_PLLDIGCFG0;
 1039              		.loc 1 517 11
 1040 000a B7470240 		li	a5,1073889280
 1041 000e 93874788 		addi	a5,a5,-1916
 1042              		.loc 1 517 9
 1043 0012 9C43     		lw	a5,0(a5)
 1044 0014 2326F4FE 		sw	a5,-20(s0)
 518:../Firmware/GD32VW55x_standard_peripheral/Source/gd32vw55x_rcu.c ****     /* reset the PLLDIGDIV_SYS bits and set according to plldigdiv_sys */
 519:../Firmware/GD32VW55x_standard_peripheral/Source/gd32vw55x_rcu.c ****     reg &= ~RCU_PLLDIGCFG0_PLLDIGDIV_SYS;
 1045              		.loc 1 519 9
 1046 0018 0327C4FE 		lw	a4,-20(s0)
 1047 001c B7070004 		li	a5,67108864
 1048 0020 FD17     		addi	a5,a5,-1
 1049 0022 F98F     		and	a5,a4,a5
 1050 0024 2326F4FE 		sw	a5,-20(s0)
 520:../Firmware/GD32VW55x_standard_peripheral/Source/gd32vw55x_rcu.c ****     RCU_PLLDIGCFG0 = (reg | plldigdiv_sys);
 1051              		.loc 1 520 5
 1052 0028 B7470240 		li	a5,1073889280
 1053 002c 93874788 		addi	a5,a5,-1916
 1054              		.loc 1 520 27
 1055 0030 8326C4FE 		lw	a3,-20(s0)
 1056 0034 0327C4FD 		lw	a4,-36(s0)
 1057 0038 558F     		or	a4,a3,a4
 1058              		.loc 1 520 20
 1059 003a 98C3     		sw	a4,0(a5)
 521:../Firmware/GD32VW55x_standard_peripheral/Source/gd32vw55x_rcu.c **** }
 1060              		.loc 1 521 1
 1061 003c 0100     		nop
 1062 003e 3254     		lw	s0,44(sp)
 1063              		.cfi_restore 8
 1064              		.cfi_def_cfa 2, 48
 1065 0040 4561     		addi	sp,sp,48
 1066              		.cfi_def_cfa_offset 0
 1067 0042 8280     		jr	ra
 1068              		.cfi_endproc
 1069              	.LFE370:
 1071              		.section	.text.rcu_rtc_clock_config,"ax",@progbits
 1072              		.align	1
 1073              		.globl	rcu_rtc_clock_config
 1075              	rcu_rtc_clock_config:
 1076              	.LFB371:
 522:../Firmware/GD32VW55x_standard_peripheral/Source/gd32vw55x_rcu.c **** 
 523:../Firmware/GD32VW55x_standard_peripheral/Source/gd32vw55x_rcu.c **** /*!
 524:../Firmware/GD32VW55x_standard_peripheral/Source/gd32vw55x_rcu.c ****     \brief      configure the RTC clock source selection
 525:../Firmware/GD32VW55x_standard_peripheral/Source/gd32vw55x_rcu.c ****     \param[in]  rtc_clock_source: RTC clock source selection
 526:../Firmware/GD32VW55x_standard_peripheral/Source/gd32vw55x_rcu.c ****                 only one parameter can be selected which is shown as below:
 527:../Firmware/GD32VW55x_standard_peripheral/Source/gd32vw55x_rcu.c ****       \arg        RCU_RTCSRC_NONE: no clock selected
 528:../Firmware/GD32VW55x_standard_peripheral/Source/gd32vw55x_rcu.c ****       \arg        RCU_RTCSRC_LXTAL: CK_LXTAL selected as RTC source clock
 529:../Firmware/GD32VW55x_standard_peripheral/Source/gd32vw55x_rcu.c ****       \arg        RCU_RTCSRC_IRC32K: CK_IRC32K selected as RTC source clock
 530:../Firmware/GD32VW55x_standard_peripheral/Source/gd32vw55x_rcu.c ****       \arg        RCU_RTCSRC_HXTAL_DIV_RTCDIV: CK_HXTAL/RTCDIV selected as RTC source clock
 531:../Firmware/GD32VW55x_standard_peripheral/Source/gd32vw55x_rcu.c ****     \param[out] none
 532:../Firmware/GD32VW55x_standard_peripheral/Source/gd32vw55x_rcu.c ****     \retval     none
 533:../Firmware/GD32VW55x_standard_peripheral/Source/gd32vw55x_rcu.c **** */
 534:../Firmware/GD32VW55x_standard_peripheral/Source/gd32vw55x_rcu.c **** void rcu_rtc_clock_config(uint32_t rtc_clock_source)
 535:../Firmware/GD32VW55x_standard_peripheral/Source/gd32vw55x_rcu.c **** {
 1077              		.loc 1 535 1
 1078              		.cfi_startproc
 1079 0000 7971     		addi	sp,sp,-48
 1080              		.cfi_def_cfa_offset 48
 1081 0002 22D6     		sw	s0,44(sp)
 1082              		.cfi_offset 8, -4
 1083 0004 0018     		addi	s0,sp,48
 1084              		.cfi_def_cfa 8, 0
 1085 0006 232EA4FC 		sw	a0,-36(s0)
 536:../Firmware/GD32VW55x_standard_peripheral/Source/gd32vw55x_rcu.c ****     uint32_t reg;
 537:../Firmware/GD32VW55x_standard_peripheral/Source/gd32vw55x_rcu.c **** 
 538:../Firmware/GD32VW55x_standard_peripheral/Source/gd32vw55x_rcu.c ****     reg = RCU_BDCTL;
 1086              		.loc 1 538 11
 1087 000a B7470240 		li	a5,1073889280
 1088 000e 93870787 		addi	a5,a5,-1936
 1089              		.loc 1 538 9
 1090 0012 9C43     		lw	a5,0(a5)
 1091 0014 2326F4FE 		sw	a5,-20(s0)
 539:../Firmware/GD32VW55x_standard_peripheral/Source/gd32vw55x_rcu.c ****     /* reset the RTCSRC bits and set according to rtc_clock_source */
 540:../Firmware/GD32VW55x_standard_peripheral/Source/gd32vw55x_rcu.c ****     reg &= ~RCU_BDCTL_RTCSRC;
 1092              		.loc 1 540 9
 1093 0018 8327C4FE 		lw	a5,-20(s0)
 1094 001c 93F7F7CF 		andi	a5,a5,-769
 1095 0020 2326F4FE 		sw	a5,-20(s0)
 541:../Firmware/GD32VW55x_standard_peripheral/Source/gd32vw55x_rcu.c ****     RCU_BDCTL = (reg | rtc_clock_source);
 1096              		.loc 1 541 5
 1097 0024 B7470240 		li	a5,1073889280
 1098 0028 93870787 		addi	a5,a5,-1936
 1099              		.loc 1 541 22
 1100 002c 8326C4FE 		lw	a3,-20(s0)
 1101 0030 0327C4FD 		lw	a4,-36(s0)
 1102 0034 558F     		or	a4,a3,a4
 1103              		.loc 1 541 15
 1104 0036 98C3     		sw	a4,0(a5)
 542:../Firmware/GD32VW55x_standard_peripheral/Source/gd32vw55x_rcu.c **** }
 1105              		.loc 1 542 1
 1106 0038 0100     		nop
 1107 003a 3254     		lw	s0,44(sp)
 1108              		.cfi_restore 8
 1109              		.cfi_def_cfa 2, 48
 1110 003c 4561     		addi	sp,sp,48
 1111              		.cfi_def_cfa_offset 0
 1112 003e 8280     		jr	ra
 1113              		.cfi_endproc
 1114              	.LFE371:
 1116              		.section	.text.rcu_rtc_div_config,"ax",@progbits
 1117              		.align	1
 1118              		.globl	rcu_rtc_div_config
 1120              	rcu_rtc_div_config:
 1121              	.LFB372:
 543:../Firmware/GD32VW55x_standard_peripheral/Source/gd32vw55x_rcu.c **** 
 544:../Firmware/GD32VW55x_standard_peripheral/Source/gd32vw55x_rcu.c **** /*!
 545:../Firmware/GD32VW55x_standard_peripheral/Source/gd32vw55x_rcu.c ****     \brief      configure the frequency division of RTC clock when HXTAL was selected as its clock 
 546:../Firmware/GD32VW55x_standard_peripheral/Source/gd32vw55x_rcu.c ****     \param[in]  rtc_div: RTC clock frequency division
 547:../Firmware/GD32VW55x_standard_peripheral/Source/gd32vw55x_rcu.c ****                 only one parameter can be selected which is shown as below:
 548:../Firmware/GD32VW55x_standard_peripheral/Source/gd32vw55x_rcu.c ****       \arg        RCU_RTC_HXTAL_DIVx: RTCDIV clock select CK_HXTAL/x, x = 1 2....31
 549:../Firmware/GD32VW55x_standard_peripheral/Source/gd32vw55x_rcu.c ****     \param[out] none
 550:../Firmware/GD32VW55x_standard_peripheral/Source/gd32vw55x_rcu.c ****     \retval     none
 551:../Firmware/GD32VW55x_standard_peripheral/Source/gd32vw55x_rcu.c **** */
 552:../Firmware/GD32VW55x_standard_peripheral/Source/gd32vw55x_rcu.c **** void rcu_rtc_div_config(uint32_t rtc_div)
 553:../Firmware/GD32VW55x_standard_peripheral/Source/gd32vw55x_rcu.c **** {
 1122              		.loc 1 553 1
 1123              		.cfi_startproc
 1124 0000 7971     		addi	sp,sp,-48
 1125              		.cfi_def_cfa_offset 48
 1126 0002 22D6     		sw	s0,44(sp)
 1127              		.cfi_offset 8, -4
 1128 0004 0018     		addi	s0,sp,48
 1129              		.cfi_def_cfa 8, 0
 1130 0006 232EA4FC 		sw	a0,-36(s0)
 554:../Firmware/GD32VW55x_standard_peripheral/Source/gd32vw55x_rcu.c ****     uint32_t reg;
 555:../Firmware/GD32VW55x_standard_peripheral/Source/gd32vw55x_rcu.c ****     reg = RCU_CFG0;
 1131              		.loc 1 555 11
 1132 000a B7470240 		li	a5,1073889280
 1133 000e 93878780 		addi	a5,a5,-2040
 1134              		.loc 1 555 9
 1135 0012 9C43     		lw	a5,0(a5)
 1136 0014 2326F4FE 		sw	a5,-20(s0)
 556:../Firmware/GD32VW55x_standard_peripheral/Source/gd32vw55x_rcu.c ****     /* reset the RTCDIV bits and set according to rtc_div value */
 557:../Firmware/GD32VW55x_standard_peripheral/Source/gd32vw55x_rcu.c ****     reg &= ~RCU_CFG0_RTCDIV;
 1137              		.loc 1 557 9
 1138 0018 0327C4FE 		lw	a4,-20(s0)
 1139 001c B707E1FF 		li	a5,-2031616
 1140 0020 FD17     		addi	a5,a5,-1
 1141 0022 F98F     		and	a5,a4,a5
 1142 0024 2326F4FE 		sw	a5,-20(s0)
 558:../Firmware/GD32VW55x_standard_peripheral/Source/gd32vw55x_rcu.c ****     RCU_CFG0 = (reg | rtc_div);
 1143              		.loc 1 558 5
 1144 0028 B7470240 		li	a5,1073889280
 1145 002c 93878780 		addi	a5,a5,-2040
 1146              		.loc 1 558 21
 1147 0030 8326C4FE 		lw	a3,-20(s0)
 1148 0034 0327C4FD 		lw	a4,-36(s0)
 1149 0038 558F     		or	a4,a3,a4
 1150              		.loc 1 558 14
 1151 003a 98C3     		sw	a4,0(a5)
 559:../Firmware/GD32VW55x_standard_peripheral/Source/gd32vw55x_rcu.c **** }
 1152              		.loc 1 559 1
 1153 003c 0100     		nop
 1154 003e 3254     		lw	s0,44(sp)
 1155              		.cfi_restore 8
 1156              		.cfi_def_cfa 2, 48
 1157 0040 4561     		addi	sp,sp,48
 1158              		.cfi_def_cfa_offset 0
 1159 0042 8280     		jr	ra
 1160              		.cfi_endproc
 1161              	.LFE372:
 1163              		.section	.text.rcu_trng_div_config,"ax",@progbits
 1164              		.align	1
 1165              		.globl	rcu_trng_div_config
 1167              	rcu_trng_div_config:
 1168              	.LFB373:
 560:../Firmware/GD32VW55x_standard_peripheral/Source/gd32vw55x_rcu.c **** 
 561:../Firmware/GD32VW55x_standard_peripheral/Source/gd32vw55x_rcu.c **** /*!
 562:../Firmware/GD32VW55x_standard_peripheral/Source/gd32vw55x_rcu.c ****     \brief      configure the frequency division of the TRNG source clock
 563:../Firmware/GD32VW55x_standard_peripheral/Source/gd32vw55x_rcu.c ****     \param[in]  trng_div: TRNG clock frequency division
 564:../Firmware/GD32VW55x_standard_peripheral/Source/gd32vw55x_rcu.c ****                 only one parameter can be selected which is shown as below:
 565:../Firmware/GD32VW55x_standard_peripheral/Source/gd32vw55x_rcu.c ****       \arg        RCU_TRNG_DIVx: TRNG clock select x, x = 1....32
 566:../Firmware/GD32VW55x_standard_peripheral/Source/gd32vw55x_rcu.c ****     \param[out] none
 567:../Firmware/GD32VW55x_standard_peripheral/Source/gd32vw55x_rcu.c ****     \retval     none
 568:../Firmware/GD32VW55x_standard_peripheral/Source/gd32vw55x_rcu.c **** */
 569:../Firmware/GD32VW55x_standard_peripheral/Source/gd32vw55x_rcu.c **** void rcu_trng_div_config(uint32_t trng_div)
 570:../Firmware/GD32VW55x_standard_peripheral/Source/gd32vw55x_rcu.c **** {
 1169              		.loc 1 570 1
 1170              		.cfi_startproc
 1171 0000 7971     		addi	sp,sp,-48
 1172              		.cfi_def_cfa_offset 48
 1173 0002 22D6     		sw	s0,44(sp)
 1174              		.cfi_offset 8, -4
 1175 0004 0018     		addi	s0,sp,48
 1176              		.cfi_def_cfa 8, 0
 1177 0006 232EA4FC 		sw	a0,-36(s0)
 571:../Firmware/GD32VW55x_standard_peripheral/Source/gd32vw55x_rcu.c ****     uint32_t reg;
 572:../Firmware/GD32VW55x_standard_peripheral/Source/gd32vw55x_rcu.c ****     reg = RCU_ADDCTL;
 1178              		.loc 1 572 11
 1179 000a B7470240 		li	a5,1073889280
 1180 000e 93870789 		addi	a5,a5,-1904
 1181              		.loc 1 572 9
 1182 0012 9C43     		lw	a5,0(a5)
 1183 0014 2326F4FE 		sw	a5,-20(s0)
 573:../Firmware/GD32VW55x_standard_peripheral/Source/gd32vw55x_rcu.c ****     /* reset the TRNGCKDIV bits and set according to trng_div value */
 574:../Firmware/GD32VW55x_standard_peripheral/Source/gd32vw55x_rcu.c ****     reg &= ~RCU_ADDCTL_TRNGCKDIV;
 1184              		.loc 1 574 9
 1185 0018 8327C4FE 		lw	a5,-20(s0)
 1186 001c 93F717FC 		andi	a5,a5,-63
 1187 0020 2326F4FE 		sw	a5,-20(s0)
 575:../Firmware/GD32VW55x_standard_peripheral/Source/gd32vw55x_rcu.c ****     RCU_ADDCTL = (reg | trng_div);
 1188              		.loc 1 575 5
 1189 0024 B7470240 		li	a5,1073889280
 1190 0028 93870789 		addi	a5,a5,-1904
 1191              		.loc 1 575 23
 1192 002c 8326C4FE 		lw	a3,-20(s0)
 1193 0030 0327C4FD 		lw	a4,-36(s0)
 1194 0034 558F     		or	a4,a3,a4
 1195              		.loc 1 575 16
 1196 0036 98C3     		sw	a4,0(a5)
 576:../Firmware/GD32VW55x_standard_peripheral/Source/gd32vw55x_rcu.c **** }
 1197              		.loc 1 576 1
 1198 0038 0100     		nop
 1199 003a 3254     		lw	s0,44(sp)
 1200              		.cfi_restore 8
 1201              		.cfi_def_cfa 2, 48
 1202 003c 4561     		addi	sp,sp,48
 1203              		.cfi_def_cfa_offset 0
 1204 003e 8280     		jr	ra
 1205              		.cfi_endproc
 1206              	.LFE373:
 1208              		.section	.text.rcu_i2c0_clock_config,"ax",@progbits
 1209              		.align	1
 1210              		.globl	rcu_i2c0_clock_config
 1212              	rcu_i2c0_clock_config:
 1213              	.LFB374:
 577:../Firmware/GD32VW55x_standard_peripheral/Source/gd32vw55x_rcu.c **** 
 578:../Firmware/GD32VW55x_standard_peripheral/Source/gd32vw55x_rcu.c **** /*!
 579:../Firmware/GD32VW55x_standard_peripheral/Source/gd32vw55x_rcu.c ****     \brief      configure the I2C0 clock source selection
 580:../Firmware/GD32VW55x_standard_peripheral/Source/gd32vw55x_rcu.c ****     \param[in]  i2c0_clock_source: I2C0 clock source selection
 581:../Firmware/GD32VW55x_standard_peripheral/Source/gd32vw55x_rcu.c ****                 only one parameter can be selected which is shown as below:
 582:../Firmware/GD32VW55x_standard_peripheral/Source/gd32vw55x_rcu.c ****       \arg        RCU_I2C0SRC_CKAPB1: CK_APB1 selected as I2C0 source clock
 583:../Firmware/GD32VW55x_standard_peripheral/Source/gd32vw55x_rcu.c ****       \arg        RCU_I2C0SRC_CKSYS: CK_SYS selected as I2C0 source clock
 584:../Firmware/GD32VW55x_standard_peripheral/Source/gd32vw55x_rcu.c ****       \arg        RCU_I2C0SRC_IRC16M: CK_IRC16M selected as I2C0 source clock
 585:../Firmware/GD32VW55x_standard_peripheral/Source/gd32vw55x_rcu.c ****     \param[out] none
 586:../Firmware/GD32VW55x_standard_peripheral/Source/gd32vw55x_rcu.c ****     \retval     none
 587:../Firmware/GD32VW55x_standard_peripheral/Source/gd32vw55x_rcu.c **** */
 588:../Firmware/GD32VW55x_standard_peripheral/Source/gd32vw55x_rcu.c **** void rcu_i2c0_clock_config(uint32_t i2c0_clock_source)
 589:../Firmware/GD32VW55x_standard_peripheral/Source/gd32vw55x_rcu.c **** {
 1214              		.loc 1 589 1
 1215              		.cfi_startproc
 1216 0000 7971     		addi	sp,sp,-48
 1217              		.cfi_def_cfa_offset 48
 1218 0002 22D6     		sw	s0,44(sp)
 1219              		.cfi_offset 8, -4
 1220 0004 0018     		addi	s0,sp,48
 1221              		.cfi_def_cfa 8, 0
 1222 0006 232EA4FC 		sw	a0,-36(s0)
 590:../Firmware/GD32VW55x_standard_peripheral/Source/gd32vw55x_rcu.c ****     uint32_t reg;
 591:../Firmware/GD32VW55x_standard_peripheral/Source/gd32vw55x_rcu.c **** 
 592:../Firmware/GD32VW55x_standard_peripheral/Source/gd32vw55x_rcu.c ****     reg = RCU_CFG1;
 1223              		.loc 1 592 11
 1224 000a B7470240 		li	a5,1073889280
 1225 000e 9387C788 		addi	a5,a5,-1908
 1226              		.loc 1 592 9
 1227 0012 9C43     		lw	a5,0(a5)
 1228 0014 2326F4FE 		sw	a5,-20(s0)
 593:../Firmware/GD32VW55x_standard_peripheral/Source/gd32vw55x_rcu.c ****     /* reset the I2C0SEL bit and set according to i2c0_clock_source */
 594:../Firmware/GD32VW55x_standard_peripheral/Source/gd32vw55x_rcu.c ****     reg &= ~RCU_CFG1_I2C0SEL;
 1229              		.loc 1 594 9
 1230 0018 0327C4FE 		lw	a4,-20(s0)
 1231 001c B70700F4 		li	a5,-201326592
 1232 0020 FD17     		addi	a5,a5,-1
 1233 0022 F98F     		and	a5,a4,a5
 1234 0024 2326F4FE 		sw	a5,-20(s0)
 595:../Firmware/GD32VW55x_standard_peripheral/Source/gd32vw55x_rcu.c ****     RCU_CFG1 = (reg | i2c0_clock_source);
 1235              		.loc 1 595 5
 1236 0028 B7470240 		li	a5,1073889280
 1237 002c 9387C788 		addi	a5,a5,-1908
 1238              		.loc 1 595 21
 1239 0030 8326C4FE 		lw	a3,-20(s0)
 1240 0034 0327C4FD 		lw	a4,-36(s0)
 1241 0038 558F     		or	a4,a3,a4
 1242              		.loc 1 595 14
 1243 003a 98C3     		sw	a4,0(a5)
 596:../Firmware/GD32VW55x_standard_peripheral/Source/gd32vw55x_rcu.c **** }
 1244              		.loc 1 596 1
 1245 003c 0100     		nop
 1246 003e 3254     		lw	s0,44(sp)
 1247              		.cfi_restore 8
 1248              		.cfi_def_cfa 2, 48
 1249 0040 4561     		addi	sp,sp,48
 1250              		.cfi_def_cfa_offset 0
 1251 0042 8280     		jr	ra
 1252              		.cfi_endproc
 1253              	.LFE374:
 1255              		.section	.text.rcu_usart0_clock_config,"ax",@progbits
 1256              		.align	1
 1257              		.globl	rcu_usart0_clock_config
 1259              	rcu_usart0_clock_config:
 1260              	.LFB375:
 597:../Firmware/GD32VW55x_standard_peripheral/Source/gd32vw55x_rcu.c **** 
 598:../Firmware/GD32VW55x_standard_peripheral/Source/gd32vw55x_rcu.c **** /*!
 599:../Firmware/GD32VW55x_standard_peripheral/Source/gd32vw55x_rcu.c ****     \brief      configure the USART0 clock source selection
 600:../Firmware/GD32VW55x_standard_peripheral/Source/gd32vw55x_rcu.c ****     \param[in]  usart0_clock_source: USART0 clock source selection
 601:../Firmware/GD32VW55x_standard_peripheral/Source/gd32vw55x_rcu.c ****                 only one parameter can be selected which is shown as below:
 602:../Firmware/GD32VW55x_standard_peripheral/Source/gd32vw55x_rcu.c ****       \arg        RCU_USART0SRC_CKAPB1: CK_APB1 selected as USART0 source clock
 603:../Firmware/GD32VW55x_standard_peripheral/Source/gd32vw55x_rcu.c ****       \arg        RCU_USART0SRC_CKSYS: CK_SYS selected as USART0 source clock
 604:../Firmware/GD32VW55x_standard_peripheral/Source/gd32vw55x_rcu.c ****       \arg        RCU_USART0SRC_LXTAL: CK_LXTAL selected as USART0 source clock
 605:../Firmware/GD32VW55x_standard_peripheral/Source/gd32vw55x_rcu.c ****       \arg        RCU_USART0SRC_IRC16M: CK_IRC16M selected as USART0 source clock
 606:../Firmware/GD32VW55x_standard_peripheral/Source/gd32vw55x_rcu.c ****     \param[out] none
 607:../Firmware/GD32VW55x_standard_peripheral/Source/gd32vw55x_rcu.c ****     \retval     none
 608:../Firmware/GD32VW55x_standard_peripheral/Source/gd32vw55x_rcu.c **** */
 609:../Firmware/GD32VW55x_standard_peripheral/Source/gd32vw55x_rcu.c **** void rcu_usart0_clock_config(uint32_t usart0_clock_source)
 610:../Firmware/GD32VW55x_standard_peripheral/Source/gd32vw55x_rcu.c **** {
 1261              		.loc 1 610 1
 1262              		.cfi_startproc
 1263 0000 7971     		addi	sp,sp,-48
 1264              		.cfi_def_cfa_offset 48
 1265 0002 22D6     		sw	s0,44(sp)
 1266              		.cfi_offset 8, -4
 1267 0004 0018     		addi	s0,sp,48
 1268              		.cfi_def_cfa 8, 0
 1269 0006 232EA4FC 		sw	a0,-36(s0)
 611:../Firmware/GD32VW55x_standard_peripheral/Source/gd32vw55x_rcu.c ****     uint32_t reg;
 612:../Firmware/GD32VW55x_standard_peripheral/Source/gd32vw55x_rcu.c **** 
 613:../Firmware/GD32VW55x_standard_peripheral/Source/gd32vw55x_rcu.c ****     reg = RCU_CFG1;
 1270              		.loc 1 613 11
 1271 000a B7470240 		li	a5,1073889280
 1272 000e 9387C788 		addi	a5,a5,-1908
 1273              		.loc 1 613 9
 1274 0012 9C43     		lw	a5,0(a5)
 1275 0014 2326F4FE 		sw	a5,-20(s0)
 614:../Firmware/GD32VW55x_standard_peripheral/Source/gd32vw55x_rcu.c ****     /* reset the USART0SEL bit and set according to usart0_clock_source */
 615:../Firmware/GD32VW55x_standard_peripheral/Source/gd32vw55x_rcu.c ****     reg &= ~RCU_CFG1_USART0SEL;
 1276              		.loc 1 615 9
 1277 0018 0327C4FE 		lw	a4,-20(s0)
 1278 001c B7070040 		li	a5,1073741824
 1279 0020 FD17     		addi	a5,a5,-1
 1280 0022 F98F     		and	a5,a4,a5
 1281 0024 2326F4FE 		sw	a5,-20(s0)
 616:../Firmware/GD32VW55x_standard_peripheral/Source/gd32vw55x_rcu.c ****     RCU_CFG1 = (reg | usart0_clock_source);
 1282              		.loc 1 616 5
 1283 0028 B7470240 		li	a5,1073889280
 1284 002c 9387C788 		addi	a5,a5,-1908
 1285              		.loc 1 616 21
 1286 0030 8326C4FE 		lw	a3,-20(s0)
 1287 0034 0327C4FD 		lw	a4,-36(s0)
 1288 0038 558F     		or	a4,a3,a4
 1289              		.loc 1 616 14
 1290 003a 98C3     		sw	a4,0(a5)
 617:../Firmware/GD32VW55x_standard_peripheral/Source/gd32vw55x_rcu.c **** }
 1291              		.loc 1 617 1
 1292 003c 0100     		nop
 1293 003e 3254     		lw	s0,44(sp)
 1294              		.cfi_restore 8
 1295              		.cfi_def_cfa 2, 48
 1296 0040 4561     		addi	sp,sp,48
 1297              		.cfi_def_cfa_offset 0
 1298 0042 8280     		jr	ra
 1299              		.cfi_endproc
 1300              	.LFE375:
 1302              		.section	.text.rcu_irc16m_div_config,"ax",@progbits
 1303              		.align	1
 1304              		.globl	rcu_irc16m_div_config
 1306              	rcu_irc16m_div_config:
 1307              	.LFB376:
 618:../Firmware/GD32VW55x_standard_peripheral/Source/gd32vw55x_rcu.c **** 
 619:../Firmware/GD32VW55x_standard_peripheral/Source/gd32vw55x_rcu.c **** /* configure IRC16M clock divider factor for system clock */
 620:../Firmware/GD32VW55x_standard_peripheral/Source/gd32vw55x_rcu.c **** /*!
 621:../Firmware/GD32VW55x_standard_peripheral/Source/gd32vw55x_rcu.c ****     \brief      configure IRC16M clock divider factor for system clock
 622:../Firmware/GD32VW55x_standard_peripheral/Source/gd32vw55x_rcu.c ****     \param[in]  irc16m_div: IRC16M clock divider factor for system clock
 623:../Firmware/GD32VW55x_standard_peripheral/Source/gd32vw55x_rcu.c ****                 only one parameter can be selected which is shown as below:
 624:../Firmware/GD32VW55x_standard_peripheral/Source/gd32vw55x_rcu.c ****       \arg        RCU_IRC16M_DIVx(x=1,2,3,...,512): IRC16M clock divided by x for system clock
 625:../Firmware/GD32VW55x_standard_peripheral/Source/gd32vw55x_rcu.c ****     \param[out] none
 626:../Firmware/GD32VW55x_standard_peripheral/Source/gd32vw55x_rcu.c ****     \retval     none
 627:../Firmware/GD32VW55x_standard_peripheral/Source/gd32vw55x_rcu.c **** */
 628:../Firmware/GD32VW55x_standard_peripheral/Source/gd32vw55x_rcu.c **** void rcu_irc16m_div_config(uint32_t irc16m_div)
 629:../Firmware/GD32VW55x_standard_peripheral/Source/gd32vw55x_rcu.c **** {
 1308              		.loc 1 629 1
 1309              		.cfi_startproc
 1310 0000 7971     		addi	sp,sp,-48
 1311              		.cfi_def_cfa_offset 48
 1312 0002 22D6     		sw	s0,44(sp)
 1313              		.cfi_offset 8, -4
 1314 0004 0018     		addi	s0,sp,48
 1315              		.cfi_def_cfa 8, 0
 1316 0006 232EA4FC 		sw	a0,-36(s0)
 630:../Firmware/GD32VW55x_standard_peripheral/Source/gd32vw55x_rcu.c ****     uint32_t reg;
 631:../Firmware/GD32VW55x_standard_peripheral/Source/gd32vw55x_rcu.c ****     reg = RCU_CFG1;
 1317              		.loc 1 631 11
 1318 000a B7470240 		li	a5,1073889280
 1319 000e 9387C788 		addi	a5,a5,-1908
 1320              		.loc 1 631 9
 1321 0012 9C43     		lw	a5,0(a5)
 1322 0014 2326F4FE 		sw	a5,-20(s0)
 632:../Firmware/GD32VW55x_standard_peripheral/Source/gd32vw55x_rcu.c ****     /* reset the IRC16MDIV bits and set according to irc16m_div */
 633:../Firmware/GD32VW55x_standard_peripheral/Source/gd32vw55x_rcu.c ****     reg &= ~RCU_CFG1_IRC16MDIV;
 1323              		.loc 1 633 9
 1324 0018 8327C4FE 		lw	a5,-20(s0)
 1325 001c 93F707E0 		andi	a5,a5,-512
 1326 0020 2326F4FE 		sw	a5,-20(s0)
 634:../Firmware/GD32VW55x_standard_peripheral/Source/gd32vw55x_rcu.c ****     RCU_CFG1 = (reg | irc16m_div);
 1327              		.loc 1 634 5
 1328 0024 B7470240 		li	a5,1073889280
 1329 0028 9387C788 		addi	a5,a5,-1908
 1330              		.loc 1 634 21
 1331 002c 8326C4FE 		lw	a3,-20(s0)
 1332 0030 0327C4FD 		lw	a4,-36(s0)
 1333 0034 558F     		or	a4,a3,a4
 1334              		.loc 1 634 14
 1335 0036 98C3     		sw	a4,0(a5)
 635:../Firmware/GD32VW55x_standard_peripheral/Source/gd32vw55x_rcu.c **** }
 1336              		.loc 1 635 1
 1337 0038 0100     		nop
 1338 003a 3254     		lw	s0,44(sp)
 1339              		.cfi_restore 8
 1340              		.cfi_def_cfa 2, 48
 1341 003c 4561     		addi	sp,sp,48
 1342              		.cfi_def_cfa_offset 0
 1343 003e 8280     		jr	ra
 1344              		.cfi_endproc
 1345              	.LFE376:
 1347              		.section	.text.rcu_timer_clock_prescaler_config,"ax",@progbits
 1348              		.align	1
 1349              		.globl	rcu_timer_clock_prescaler_config
 1351              	rcu_timer_clock_prescaler_config:
 1352              	.LFB377:
 636:../Firmware/GD32VW55x_standard_peripheral/Source/gd32vw55x_rcu.c **** 
 637:../Firmware/GD32VW55x_standard_peripheral/Source/gd32vw55x_rcu.c **** /*!
 638:../Firmware/GD32VW55x_standard_peripheral/Source/gd32vw55x_rcu.c ****     \brief      configure the TIMER clock prescaler selection
 639:../Firmware/GD32VW55x_standard_peripheral/Source/gd32vw55x_rcu.c ****     \param[in]  timer_clock_prescaler: TIMER clock selection
 640:../Firmware/GD32VW55x_standard_peripheral/Source/gd32vw55x_rcu.c ****                 only one parameter can be selected which is shown as below:
 641:../Firmware/GD32VW55x_standard_peripheral/Source/gd32vw55x_rcu.c ****       \arg        RCU_TIMER_PSC_MUL2: if APB1PSC/APB2PSC in RCU_CFG0 register is 0b0xx(CK_APBx = CK
 642:../Firmware/GD32VW55x_standard_peripheral/Source/gd32vw55x_rcu.c ****                                       or 0b100(CK_APBx = CK_AHB/2), the TIMER clock is equal to CK_
 643:../Firmware/GD32VW55x_standard_peripheral/Source/gd32vw55x_rcu.c ****                                       or else, the TIMER clock is twice the corresponding APB clock
 644:../Firmware/GD32VW55x_standard_peripheral/Source/gd32vw55x_rcu.c ****                                       TIMER in APB2 domain: CK_TIMERx = 2 x CK_APB2)
 645:../Firmware/GD32VW55x_standard_peripheral/Source/gd32vw55x_rcu.c ****       \arg        RCU_TIMER_PSC_MUL4: if APB1PSC/APB2PSC in RCU_CFG0 register is 0b0xx(CK_APBx = CK
 646:../Firmware/GD32VW55x_standard_peripheral/Source/gd32vw55x_rcu.c ****                                       0b100(CK_APBx = CK_AHB/2), or 0b101(CK_APBx = CK_AHB/4), the 
 647:../Firmware/GD32VW55x_standard_peripheral/Source/gd32vw55x_rcu.c ****                                       or else, the TIMER clock is four timers the corresponding APB
 648:../Firmware/GD32VW55x_standard_peripheral/Source/gd32vw55x_rcu.c ****                                       TIMER in APB2 domain: CK_TIMERx = 4 x CK_APB2)
 649:../Firmware/GD32VW55x_standard_peripheral/Source/gd32vw55x_rcu.c ****     \param[out] none
 650:../Firmware/GD32VW55x_standard_peripheral/Source/gd32vw55x_rcu.c ****     \retval     none
 651:../Firmware/GD32VW55x_standard_peripheral/Source/gd32vw55x_rcu.c **** */
 652:../Firmware/GD32VW55x_standard_peripheral/Source/gd32vw55x_rcu.c **** void rcu_timer_clock_prescaler_config(uint32_t timer_clock_prescaler)
 653:../Firmware/GD32VW55x_standard_peripheral/Source/gd32vw55x_rcu.c **** {
 1353              		.loc 1 653 1
 1354              		.cfi_startproc
 1355 0000 0111     		addi	sp,sp,-32
 1356              		.cfi_def_cfa_offset 32
 1357 0002 22CE     		sw	s0,28(sp)
 1358              		.cfi_offset 8, -4
 1359 0004 0010     		addi	s0,sp,32
 1360              		.cfi_def_cfa 8, 0
 1361 0006 2326A4FE 		sw	a0,-20(s0)
 654:../Firmware/GD32VW55x_standard_peripheral/Source/gd32vw55x_rcu.c ****     /* configure the TIMERSEL bit and select the TIMER clock prescaler */
 655:../Firmware/GD32VW55x_standard_peripheral/Source/gd32vw55x_rcu.c ****     if(timer_clock_prescaler == RCU_TIMER_PSC_MUL2){
 1362              		.loc 1 655 7
 1363 000a 0327C4FE 		lw	a4,-20(s0)
 1364 000e B70700FF 		li	a5,-16777216
 1365 0012 FD17     		addi	a5,a5,-1
 1366 0014 6310F702 		bne	a4,a5,.L33
 656:../Firmware/GD32VW55x_standard_peripheral/Source/gd32vw55x_rcu.c ****         RCU_CFG1 &= timer_clock_prescaler;
 1367              		.loc 1 656 18
 1368 0018 B7470240 		li	a5,1073889280
 1369 001c 9387C788 		addi	a5,a5,-1908
 1370 0020 9443     		lw	a3,0(a5)
 1371 0022 B7470240 		li	a5,1073889280
 1372 0026 9387C788 		addi	a5,a5,-1908
 1373 002a 0327C4FE 		lw	a4,-20(s0)
 1374 002e 758F     		and	a4,a3,a4
 1375 0030 98C3     		sw	a4,0(a5)
 657:../Firmware/GD32VW55x_standard_peripheral/Source/gd32vw55x_rcu.c ****     }else{
 658:../Firmware/GD32VW55x_standard_peripheral/Source/gd32vw55x_rcu.c ****         RCU_CFG1 |= timer_clock_prescaler;
 659:../Firmware/GD32VW55x_standard_peripheral/Source/gd32vw55x_rcu.c ****     }
 660:../Firmware/GD32VW55x_standard_peripheral/Source/gd32vw55x_rcu.c **** }
 1376              		.loc 1 660 1
 1377 0032 31A8     		j	.L35
 1378              	.L33:
 658:../Firmware/GD32VW55x_standard_peripheral/Source/gd32vw55x_rcu.c ****     }
 1379              		.loc 1 658 18
 1380 0034 B7470240 		li	a5,1073889280
 1381 0038 9387C788 		addi	a5,a5,-1908
 1382 003c 9443     		lw	a3,0(a5)
 1383 003e B7470240 		li	a5,1073889280
 1384 0042 9387C788 		addi	a5,a5,-1908
 1385 0046 0327C4FE 		lw	a4,-20(s0)
 1386 004a 558F     		or	a4,a3,a4
 1387 004c 98C3     		sw	a4,0(a5)
 1388              	.L35:
 1389              		.loc 1 660 1
 1390 004e 0100     		nop
 1391 0050 7244     		lw	s0,28(sp)
 1392              		.cfi_restore 8
 1393              		.cfi_def_cfa 2, 32
 1394 0052 0561     		addi	sp,sp,32
 1395              		.cfi_def_cfa_offset 0
 1396 0054 8280     		jr	ra
 1397              		.cfi_endproc
 1398              	.LFE377:
 1400              		.section	.text.rcu_flag_get,"ax",@progbits
 1401              		.align	1
 1402              		.globl	rcu_flag_get
 1404              	rcu_flag_get:
 1405              	.LFB378:
 661:../Firmware/GD32VW55x_standard_peripheral/Source/gd32vw55x_rcu.c **** 
 662:../Firmware/GD32VW55x_standard_peripheral/Source/gd32vw55x_rcu.c **** /*!
 663:../Firmware/GD32VW55x_standard_peripheral/Source/gd32vw55x_rcu.c ****     \brief      get the clock stabilization and periphral reset flags
 664:../Firmware/GD32VW55x_standard_peripheral/Source/gd32vw55x_rcu.c ****     \param[in]  flag: the clock stabilization and periphral reset flags, refer to rcu_flag_enum
 665:../Firmware/GD32VW55x_standard_peripheral/Source/gd32vw55x_rcu.c ****                 only one parameter can be selected which is shown as below:
 666:../Firmware/GD32VW55x_standard_peripheral/Source/gd32vw55x_rcu.c ****       \arg        RCU_FLAG_IRC16MSTB: IRC16M stabilization flag
 667:../Firmware/GD32VW55x_standard_peripheral/Source/gd32vw55x_rcu.c ****       \arg        RCU_FLAG_HXTALSTB: HXTAL stabilization flag
 668:../Firmware/GD32VW55x_standard_peripheral/Source/gd32vw55x_rcu.c ****       \arg        RCU_FLAG_PLLDIGSTB: PLLDIG stabilization flag
 669:../Firmware/GD32VW55x_standard_peripheral/Source/gd32vw55x_rcu.c ****       \arg        RCU_FLAG_LXTALSTB: LXTAL stabilization flag
 670:../Firmware/GD32VW55x_standard_peripheral/Source/gd32vw55x_rcu.c ****       \arg        RCU_FLAG_IRC32KSTB: IRC32K stabilization flag
 671:../Firmware/GD32VW55x_standard_peripheral/Source/gd32vw55x_rcu.c ****       \arg        RCU_FLAG_EPRST: external PIN reset flag
 672:../Firmware/GD32VW55x_standard_peripheral/Source/gd32vw55x_rcu.c ****       \arg        RCU_FLAG_PORRST: power reset flag
 673:../Firmware/GD32VW55x_standard_peripheral/Source/gd32vw55x_rcu.c ****       \arg        RCU_FLAG_SWRST: software reset flag
 674:../Firmware/GD32VW55x_standard_peripheral/Source/gd32vw55x_rcu.c ****       \arg        RCU_FLAG_FWDGTRST: free watchdog timer reset flag
 675:../Firmware/GD32VW55x_standard_peripheral/Source/gd32vw55x_rcu.c ****       \arg        RCU_FLAG_WWDGTRST: window watchdog timer reset flag
 676:../Firmware/GD32VW55x_standard_peripheral/Source/gd32vw55x_rcu.c ****       \arg        RCU_FLAG_LPRST: low-power reset flag
 677:../Firmware/GD32VW55x_standard_peripheral/Source/gd32vw55x_rcu.c ****     \param[out] none
 678:../Firmware/GD32VW55x_standard_peripheral/Source/gd32vw55x_rcu.c ****     \retval     none
 679:../Firmware/GD32VW55x_standard_peripheral/Source/gd32vw55x_rcu.c **** */
 680:../Firmware/GD32VW55x_standard_peripheral/Source/gd32vw55x_rcu.c **** FlagStatus rcu_flag_get(rcu_flag_enum flag)
 681:../Firmware/GD32VW55x_standard_peripheral/Source/gd32vw55x_rcu.c **** {
 1406              		.loc 1 681 1
 1407              		.cfi_startproc
 1408 0000 0111     		addi	sp,sp,-32
 1409              		.cfi_def_cfa_offset 32
 1410 0002 22CE     		sw	s0,28(sp)
 1411              		.cfi_offset 8, -4
 1412 0004 0010     		addi	s0,sp,32
 1413              		.cfi_def_cfa 8, 0
 1414 0006 2326A4FE 		sw	a0,-20(s0)
 682:../Firmware/GD32VW55x_standard_peripheral/Source/gd32vw55x_rcu.c ****     /* get the rcu flag */
 683:../Firmware/GD32VW55x_standard_peripheral/Source/gd32vw55x_rcu.c ****     if(RESET != (RCU_REG_VAL(flag) & BIT(RCU_BIT_POS(flag)))){
 1415              		.loc 1 683 18
 1416 000a 8327C4FE 		lw	a5,-20(s0)
 1417 000e 13D76700 		srli	a4,a5,6
 1418 0012 B7470240 		li	a5,1073889280
 1419 0016 93870780 		addi	a5,a5,-2048
 1420 001a BA97     		add	a5,a4,a5
 1421 001c 9843     		lw	a4,0(a5)
 1422              		.loc 1 683 38
 1423 001e 8327C4FE 		lw	a5,-20(s0)
 1424 0022 FD8B     		andi	a5,a5,31
 1425              		.loc 1 683 14
 1426 0024 B357F700 		srl	a5,a4,a5
 1427 0028 858B     		andi	a5,a5,1
 1428              		.loc 1 683 7
 1429 002a 99C3     		beq	a5,zero,.L37
 684:../Firmware/GD32VW55x_standard_peripheral/Source/gd32vw55x_rcu.c ****         return SET;
 1430              		.loc 1 684 16
 1431 002c 8547     		li	a5,1
 1432 002e 11A0     		j	.L38
 1433              	.L37:
 685:../Firmware/GD32VW55x_standard_peripheral/Source/gd32vw55x_rcu.c ****     }else{
 686:../Firmware/GD32VW55x_standard_peripheral/Source/gd32vw55x_rcu.c ****         return RESET;
 1434              		.loc 1 686 16
 1435 0030 8147     		li	a5,0
 1436              	.L38:
 687:../Firmware/GD32VW55x_standard_peripheral/Source/gd32vw55x_rcu.c ****     }
 688:../Firmware/GD32VW55x_standard_peripheral/Source/gd32vw55x_rcu.c **** }
 1437              		.loc 1 688 1
 1438 0032 3E85     		mv	a0,a5
 1439 0034 7244     		lw	s0,28(sp)
 1440              		.cfi_restore 8
 1441              		.cfi_def_cfa 2, 32
 1442 0036 0561     		addi	sp,sp,32
 1443              		.cfi_def_cfa_offset 0
 1444 0038 8280     		jr	ra
 1445              		.cfi_endproc
 1446              	.LFE378:
 1448              		.section	.text.rcu_all_reset_flag_clear,"ax",@progbits
 1449              		.align	1
 1450              		.globl	rcu_all_reset_flag_clear
 1452              	rcu_all_reset_flag_clear:
 1453              	.LFB379:
 689:../Firmware/GD32VW55x_standard_peripheral/Source/gd32vw55x_rcu.c **** 
 690:../Firmware/GD32VW55x_standard_peripheral/Source/gd32vw55x_rcu.c **** /*!
 691:../Firmware/GD32VW55x_standard_peripheral/Source/gd32vw55x_rcu.c ****     \brief      clear all the reset flag
 692:../Firmware/GD32VW55x_standard_peripheral/Source/gd32vw55x_rcu.c ****     \param[in]  none
 693:../Firmware/GD32VW55x_standard_peripheral/Source/gd32vw55x_rcu.c ****     \param[out] none
 694:../Firmware/GD32VW55x_standard_peripheral/Source/gd32vw55x_rcu.c ****     \retval     none
 695:../Firmware/GD32VW55x_standard_peripheral/Source/gd32vw55x_rcu.c **** */
 696:../Firmware/GD32VW55x_standard_peripheral/Source/gd32vw55x_rcu.c **** void rcu_all_reset_flag_clear(void)
 697:../Firmware/GD32VW55x_standard_peripheral/Source/gd32vw55x_rcu.c **** {
 1454              		.loc 1 697 1
 1455              		.cfi_startproc
 1456 0000 4111     		addi	sp,sp,-16
 1457              		.cfi_def_cfa_offset 16
 1458 0002 22C6     		sw	s0,12(sp)
 1459              		.cfi_offset 8, -4
 1460 0004 0008     		addi	s0,sp,16
 1461              		.cfi_def_cfa 8, 0
 698:../Firmware/GD32VW55x_standard_peripheral/Source/gd32vw55x_rcu.c ****     RCU_RSTSCK |= RCU_RSTSCK_RSTFC;
 1462              		.loc 1 698 16
 1463 0006 B7470240 		li	a5,1073889280
 1464 000a 93874787 		addi	a5,a5,-1932
 1465 000e 9443     		lw	a3,0(a5)
 1466 0010 B7470240 		li	a5,1073889280
 1467 0014 93874787 		addi	a5,a5,-1932
 1468 0018 37070001 		li	a4,16777216
 1469 001c 558F     		or	a4,a3,a4
 1470 001e 98C3     		sw	a4,0(a5)
 699:../Firmware/GD32VW55x_standard_peripheral/Source/gd32vw55x_rcu.c **** }
 1471              		.loc 1 699 1
 1472 0020 0100     		nop
 1473 0022 3244     		lw	s0,12(sp)
 1474              		.cfi_restore 8
 1475              		.cfi_def_cfa 2, 16
 1476 0024 4101     		addi	sp,sp,16
 1477              		.cfi_def_cfa_offset 0
 1478 0026 8280     		jr	ra
 1479              		.cfi_endproc
 1480              	.LFE379:
 1482              		.section	.text.rcu_interrupt_flag_get,"ax",@progbits
 1483              		.align	1
 1484              		.globl	rcu_interrupt_flag_get
 1486              	rcu_interrupt_flag_get:
 1487              	.LFB380:
 700:../Firmware/GD32VW55x_standard_peripheral/Source/gd32vw55x_rcu.c **** 
 701:../Firmware/GD32VW55x_standard_peripheral/Source/gd32vw55x_rcu.c **** /*!
 702:../Firmware/GD32VW55x_standard_peripheral/Source/gd32vw55x_rcu.c ****     \brief      get the clock stabilization interrupt and ckm flags
 703:../Firmware/GD32VW55x_standard_peripheral/Source/gd32vw55x_rcu.c ****     \param[in]  int_flag: interrupt and ckm flags, refer to rcu_int_flag_enum
 704:../Firmware/GD32VW55x_standard_peripheral/Source/gd32vw55x_rcu.c ****                 only one parameter can be selected which is shown as below:
 705:../Firmware/GD32VW55x_standard_peripheral/Source/gd32vw55x_rcu.c ****       \arg        RCU_INT_FLAG_IRC32KSTB: IRC32K stabilization interrupt flag
 706:../Firmware/GD32VW55x_standard_peripheral/Source/gd32vw55x_rcu.c ****       \arg        RCU_INT_FLAG_LXTALSTB: LXTAL stabilization interrupt flag
 707:../Firmware/GD32VW55x_standard_peripheral/Source/gd32vw55x_rcu.c ****       \arg        RCU_INT_FLAG_IRC16MSTB: IRC16M stabilization interrupt flag
 708:../Firmware/GD32VW55x_standard_peripheral/Source/gd32vw55x_rcu.c ****       \arg        RCU_INT_FLAG_HXTALSTB: HXTAL stabilization interrupt flag
 709:../Firmware/GD32VW55x_standard_peripheral/Source/gd32vw55x_rcu.c ****       \arg        RCU_INT_FLAG_PLLDIGSTB: PLLDIG stabilization interrupt flag
 710:../Firmware/GD32VW55x_standard_peripheral/Source/gd32vw55x_rcu.c ****       \arg        RCU_INT_FLAG_CKM: HXTAL clock stuck interrupt flag
 711:../Firmware/GD32VW55x_standard_peripheral/Source/gd32vw55x_rcu.c ****     \param[out] none
 712:../Firmware/GD32VW55x_standard_peripheral/Source/gd32vw55x_rcu.c ****     \retval     FlagStatus: SET or RESET
 713:../Firmware/GD32VW55x_standard_peripheral/Source/gd32vw55x_rcu.c **** */
 714:../Firmware/GD32VW55x_standard_peripheral/Source/gd32vw55x_rcu.c **** FlagStatus rcu_interrupt_flag_get(rcu_int_flag_enum int_flag)
 715:../Firmware/GD32VW55x_standard_peripheral/Source/gd32vw55x_rcu.c **** {
 1488              		.loc 1 715 1
 1489              		.cfi_startproc
 1490 0000 0111     		addi	sp,sp,-32
 1491              		.cfi_def_cfa_offset 32
 1492 0002 22CE     		sw	s0,28(sp)
 1493              		.cfi_offset 8, -4
 1494 0004 0010     		addi	s0,sp,32
 1495              		.cfi_def_cfa 8, 0
 1496 0006 2326A4FE 		sw	a0,-20(s0)
 716:../Firmware/GD32VW55x_standard_peripheral/Source/gd32vw55x_rcu.c ****     /* get the rcu interrupt flag */
 717:../Firmware/GD32VW55x_standard_peripheral/Source/gd32vw55x_rcu.c ****     if(RESET != (RCU_REG_VAL(int_flag) & BIT(RCU_BIT_POS(int_flag)))){
 1497              		.loc 1 717 18
 1498 000a 8327C4FE 		lw	a5,-20(s0)
 1499 000e 13D76700 		srli	a4,a5,6
 1500 0012 B7470240 		li	a5,1073889280
 1501 0016 93870780 		addi	a5,a5,-2048
 1502 001a BA97     		add	a5,a4,a5
 1503 001c 9843     		lw	a4,0(a5)
 1504              		.loc 1 717 42
 1505 001e 8327C4FE 		lw	a5,-20(s0)
 1506 0022 FD8B     		andi	a5,a5,31
 1507              		.loc 1 717 14
 1508 0024 B357F700 		srl	a5,a4,a5
 1509 0028 858B     		andi	a5,a5,1
 1510              		.loc 1 717 7
 1511 002a 99C3     		beq	a5,zero,.L41
 718:../Firmware/GD32VW55x_standard_peripheral/Source/gd32vw55x_rcu.c ****         return SET;
 1512              		.loc 1 718 16
 1513 002c 8547     		li	a5,1
 1514 002e 11A0     		j	.L42
 1515              	.L41:
 719:../Firmware/GD32VW55x_standard_peripheral/Source/gd32vw55x_rcu.c ****     }else{
 720:../Firmware/GD32VW55x_standard_peripheral/Source/gd32vw55x_rcu.c ****         return RESET;
 1516              		.loc 1 720 16
 1517 0030 8147     		li	a5,0
 1518              	.L42:
 721:../Firmware/GD32VW55x_standard_peripheral/Source/gd32vw55x_rcu.c ****     }
 722:../Firmware/GD32VW55x_standard_peripheral/Source/gd32vw55x_rcu.c **** }
 1519              		.loc 1 722 1
 1520 0032 3E85     		mv	a0,a5
 1521 0034 7244     		lw	s0,28(sp)
 1522              		.cfi_restore 8
 1523              		.cfi_def_cfa 2, 32
 1524 0036 0561     		addi	sp,sp,32
 1525              		.cfi_def_cfa_offset 0
 1526 0038 8280     		jr	ra
 1527              		.cfi_endproc
 1528              	.LFE380:
 1530              		.section	.text.rcu_interrupt_flag_clear,"ax",@progbits
 1531              		.align	1
 1532              		.globl	rcu_interrupt_flag_clear
 1534              	rcu_interrupt_flag_clear:
 1535              	.LFB381:
 723:../Firmware/GD32VW55x_standard_peripheral/Source/gd32vw55x_rcu.c **** 
 724:../Firmware/GD32VW55x_standard_peripheral/Source/gd32vw55x_rcu.c **** /*!
 725:../Firmware/GD32VW55x_standard_peripheral/Source/gd32vw55x_rcu.c ****     \brief      clear the interrupt flags
 726:../Firmware/GD32VW55x_standard_peripheral/Source/gd32vw55x_rcu.c ****     \param[in]  int_flag: clock stabilization and stuck interrupt flags clear, refer to rcu_int_fla
 727:../Firmware/GD32VW55x_standard_peripheral/Source/gd32vw55x_rcu.c ****                 only one parameter can be selected which is shown as below:
 728:../Firmware/GD32VW55x_standard_peripheral/Source/gd32vw55x_rcu.c ****       \arg        RCU_INT_FLAG_IRC32KSTB_CLR: IRC32K stabilization interrupt flag clear
 729:../Firmware/GD32VW55x_standard_peripheral/Source/gd32vw55x_rcu.c ****       \arg        RCU_INT_FLAG_LXTALSTB_CLR: LXTAL stabilization interrupt flag clear
 730:../Firmware/GD32VW55x_standard_peripheral/Source/gd32vw55x_rcu.c ****       \arg        RCU_INT_FLAG_IRC16MSTB_CLR: IRC16M stabilization interrupt flag clear
 731:../Firmware/GD32VW55x_standard_peripheral/Source/gd32vw55x_rcu.c ****       \arg        RCU_INT_FLAG_HXTALSTB_CLR: HXTAL stabilization interrupt flag clear
 732:../Firmware/GD32VW55x_standard_peripheral/Source/gd32vw55x_rcu.c ****       \arg        RCU_INT_FLAG_PLLDIGSTB_CLR: PLLDIG stabilization interrupt flag clear
 733:../Firmware/GD32VW55x_standard_peripheral/Source/gd32vw55x_rcu.c ****       \arg        RCU_INT_FLAG_CKM_CLR: clock stuck interrupt flag clear
 734:../Firmware/GD32VW55x_standard_peripheral/Source/gd32vw55x_rcu.c ****     \param[out] none
 735:../Firmware/GD32VW55x_standard_peripheral/Source/gd32vw55x_rcu.c ****     \retval     none
 736:../Firmware/GD32VW55x_standard_peripheral/Source/gd32vw55x_rcu.c **** */
 737:../Firmware/GD32VW55x_standard_peripheral/Source/gd32vw55x_rcu.c **** void rcu_interrupt_flag_clear(rcu_int_flag_clear_enum int_flag)
 738:../Firmware/GD32VW55x_standard_peripheral/Source/gd32vw55x_rcu.c **** {
 1536              		.loc 1 738 1
 1537              		.cfi_startproc
 1538 0000 0111     		addi	sp,sp,-32
 1539              		.cfi_def_cfa_offset 32
 1540 0002 22CE     		sw	s0,28(sp)
 1541              		.cfi_offset 8, -4
 1542 0004 0010     		addi	s0,sp,32
 1543              		.cfi_def_cfa 8, 0
 1544 0006 2326A4FE 		sw	a0,-20(s0)
 739:../Firmware/GD32VW55x_standard_peripheral/Source/gd32vw55x_rcu.c ****     RCU_REG_VAL(int_flag) |= BIT(RCU_BIT_POS(int_flag));
 1545              		.loc 1 739 27
 1546 000a 8327C4FE 		lw	a5,-20(s0)
 1547 000e 13D76700 		srli	a4,a5,6
 1548 0012 B7470240 		li	a5,1073889280
 1549 0016 93870780 		addi	a5,a5,-2048
 1550 001a BA97     		add	a5,a4,a5
 1551 001c 9843     		lw	a4,0(a5)
 1552              		.loc 1 739 30
 1553 001e 8327C4FE 		lw	a5,-20(s0)
 1554 0022 FD8B     		andi	a5,a5,31
 1555 0024 8546     		li	a3,1
 1556 0026 B397F600 		sll	a5,a3,a5
 1557              		.loc 1 739 27
 1558 002a 8326C4FE 		lw	a3,-20(s0)
 1559 002e 13D66600 		srli	a2,a3,6
 1560 0032 B7460240 		li	a3,1073889280
 1561 0036 93860680 		addi	a3,a3,-2048
 1562 003a B296     		add	a3,a2,a3
 1563 003c D98F     		or	a5,a4,a5
 1564 003e 9CC2     		sw	a5,0(a3)
 740:../Firmware/GD32VW55x_standard_peripheral/Source/gd32vw55x_rcu.c **** }
 1565              		.loc 1 740 1
 1566 0040 0100     		nop
 1567 0042 7244     		lw	s0,28(sp)
 1568              		.cfi_restore 8
 1569              		.cfi_def_cfa 2, 32
 1570 0044 0561     		addi	sp,sp,32
 1571              		.cfi_def_cfa_offset 0
 1572 0046 8280     		jr	ra
 1573              		.cfi_endproc
 1574              	.LFE381:
 1576              		.section	.text.rcu_interrupt_enable,"ax",@progbits
 1577              		.align	1
 1578              		.globl	rcu_interrupt_enable
 1580              	rcu_interrupt_enable:
 1581              	.LFB382:
 741:../Firmware/GD32VW55x_standard_peripheral/Source/gd32vw55x_rcu.c **** 
 742:../Firmware/GD32VW55x_standard_peripheral/Source/gd32vw55x_rcu.c **** /*!
 743:../Firmware/GD32VW55x_standard_peripheral/Source/gd32vw55x_rcu.c ****     \brief      enable the stabilization interrupt
 744:../Firmware/GD32VW55x_standard_peripheral/Source/gd32vw55x_rcu.c ****     \param[in]  interrupt: clock stabilization interrupt, refer to rcu_int_enum
 745:../Firmware/GD32VW55x_standard_peripheral/Source/gd32vw55x_rcu.c ****                 Only one parameter can be selected which is shown as below:
 746:../Firmware/GD32VW55x_standard_peripheral/Source/gd32vw55x_rcu.c ****       \arg        RCU_INT_IRC32KSTB: IRC32K stabilization interrupt enable
 747:../Firmware/GD32VW55x_standard_peripheral/Source/gd32vw55x_rcu.c ****       \arg        RCU_INT_LXTALSTB: LXTAL stabilization interrupt enable
 748:../Firmware/GD32VW55x_standard_peripheral/Source/gd32vw55x_rcu.c ****       \arg        RCU_INT_IRC16MSTB: IRC16M stabilization interrupt enable
 749:../Firmware/GD32VW55x_standard_peripheral/Source/gd32vw55x_rcu.c ****       \arg        RCU_INT_HXTALSTB: HXTAL stabilization interrupt enable
 750:../Firmware/GD32VW55x_standard_peripheral/Source/gd32vw55x_rcu.c ****       \arg        RCU_INT_PLLDIGSTB: PLLDIG stabilization interrupt enable
 751:../Firmware/GD32VW55x_standard_peripheral/Source/gd32vw55x_rcu.c ****     \param[out] none
 752:../Firmware/GD32VW55x_standard_peripheral/Source/gd32vw55x_rcu.c ****     \retval     none
 753:../Firmware/GD32VW55x_standard_peripheral/Source/gd32vw55x_rcu.c **** */
 754:../Firmware/GD32VW55x_standard_peripheral/Source/gd32vw55x_rcu.c **** void rcu_interrupt_enable(rcu_int_enum interrupt)
 755:../Firmware/GD32VW55x_standard_peripheral/Source/gd32vw55x_rcu.c **** {
 1582              		.loc 1 755 1
 1583              		.cfi_startproc
 1584 0000 0111     		addi	sp,sp,-32
 1585              		.cfi_def_cfa_offset 32
 1586 0002 22CE     		sw	s0,28(sp)
 1587              		.cfi_offset 8, -4
 1588 0004 0010     		addi	s0,sp,32
 1589              		.cfi_def_cfa 8, 0
 1590 0006 2326A4FE 		sw	a0,-20(s0)
 756:../Firmware/GD32VW55x_standard_peripheral/Source/gd32vw55x_rcu.c ****     RCU_REG_VAL(interrupt) |= BIT(RCU_BIT_POS(interrupt));
 1591              		.loc 1 756 28
 1592 000a 8327C4FE 		lw	a5,-20(s0)
 1593 000e 13D76700 		srli	a4,a5,6
 1594 0012 B7470240 		li	a5,1073889280
 1595 0016 93870780 		addi	a5,a5,-2048
 1596 001a BA97     		add	a5,a4,a5
 1597 001c 9843     		lw	a4,0(a5)
 1598              		.loc 1 756 31
 1599 001e 8327C4FE 		lw	a5,-20(s0)
 1600 0022 FD8B     		andi	a5,a5,31
 1601 0024 8546     		li	a3,1
 1602 0026 B397F600 		sll	a5,a3,a5
 1603              		.loc 1 756 28
 1604 002a 8326C4FE 		lw	a3,-20(s0)
 1605 002e 13D66600 		srli	a2,a3,6
 1606 0032 B7460240 		li	a3,1073889280
 1607 0036 93860680 		addi	a3,a3,-2048
 1608 003a B296     		add	a3,a2,a3
 1609 003c D98F     		or	a5,a4,a5
 1610 003e 9CC2     		sw	a5,0(a3)
 757:../Firmware/GD32VW55x_standard_peripheral/Source/gd32vw55x_rcu.c **** }
 1611              		.loc 1 757 1
 1612 0040 0100     		nop
 1613 0042 7244     		lw	s0,28(sp)
 1614              		.cfi_restore 8
 1615              		.cfi_def_cfa 2, 32
 1616 0044 0561     		addi	sp,sp,32
 1617              		.cfi_def_cfa_offset 0
 1618 0046 8280     		jr	ra
 1619              		.cfi_endproc
 1620              	.LFE382:
 1622              		.section	.text.rcu_interrupt_disable,"ax",@progbits
 1623              		.align	1
 1624              		.globl	rcu_interrupt_disable
 1626              	rcu_interrupt_disable:
 1627              	.LFB383:
 758:../Firmware/GD32VW55x_standard_peripheral/Source/gd32vw55x_rcu.c **** 
 759:../Firmware/GD32VW55x_standard_peripheral/Source/gd32vw55x_rcu.c **** /*!
 760:../Firmware/GD32VW55x_standard_peripheral/Source/gd32vw55x_rcu.c ****     \brief      disable the stabilization interrupt
 761:../Firmware/GD32VW55x_standard_peripheral/Source/gd32vw55x_rcu.c ****     \param[in]  interrupt: clock stabilization interrupt, refer to rcu_int_enum
 762:../Firmware/GD32VW55x_standard_peripheral/Source/gd32vw55x_rcu.c ****                 only one parameter can be selected which is shown as below:
 763:../Firmware/GD32VW55x_standard_peripheral/Source/gd32vw55x_rcu.c ****       \arg        RCU_INT_IRC32KSTB: IRC32K stabilization interrupt disable
 764:../Firmware/GD32VW55x_standard_peripheral/Source/gd32vw55x_rcu.c ****       \arg        RCU_INT_LXTALSTB: LXTAL stabilization interrupt disable
 765:../Firmware/GD32VW55x_standard_peripheral/Source/gd32vw55x_rcu.c ****       \arg        RCU_INT_IRC16MSTB: IRC16M stabilization interrupt disable
 766:../Firmware/GD32VW55x_standard_peripheral/Source/gd32vw55x_rcu.c ****       \arg        RCU_INT_HXTALSTB: HXTAL stabilization interrupt disable
 767:../Firmware/GD32VW55x_standard_peripheral/Source/gd32vw55x_rcu.c ****       \arg        RCU_INT_PLLDIGSTB: PLLDIG stabilization interrupt disable
 768:../Firmware/GD32VW55x_standard_peripheral/Source/gd32vw55x_rcu.c ****     \param[out] none
 769:../Firmware/GD32VW55x_standard_peripheral/Source/gd32vw55x_rcu.c ****     \retval     none
 770:../Firmware/GD32VW55x_standard_peripheral/Source/gd32vw55x_rcu.c **** */
 771:../Firmware/GD32VW55x_standard_peripheral/Source/gd32vw55x_rcu.c **** void rcu_interrupt_disable(rcu_int_enum interrupt)
 772:../Firmware/GD32VW55x_standard_peripheral/Source/gd32vw55x_rcu.c **** {
 1628              		.loc 1 772 1
 1629              		.cfi_startproc
 1630 0000 0111     		addi	sp,sp,-32
 1631              		.cfi_def_cfa_offset 32
 1632 0002 22CE     		sw	s0,28(sp)
 1633              		.cfi_offset 8, -4
 1634 0004 0010     		addi	s0,sp,32
 1635              		.cfi_def_cfa 8, 0
 1636 0006 2326A4FE 		sw	a0,-20(s0)
 773:../Firmware/GD32VW55x_standard_peripheral/Source/gd32vw55x_rcu.c ****     RCU_REG_VAL(interrupt) &= ~BIT(RCU_BIT_POS(interrupt));
 1637              		.loc 1 773 28
 1638 000a 8327C4FE 		lw	a5,-20(s0)
 1639 000e 13D76700 		srli	a4,a5,6
 1640 0012 B7470240 		li	a5,1073889280
 1641 0016 93870780 		addi	a5,a5,-2048
 1642 001a BA97     		add	a5,a4,a5
 1643 001c 9843     		lw	a4,0(a5)
 1644              		.loc 1 773 32
 1645 001e 8327C4FE 		lw	a5,-20(s0)
 1646 0022 FD8B     		andi	a5,a5,31
 1647 0024 8546     		li	a3,1
 1648 0026 B397F600 		sll	a5,a3,a5
 1649              		.loc 1 773 31
 1650 002a 93C7F7FF 		not	a5,a5
 1651              		.loc 1 773 28
 1652 002e 8326C4FE 		lw	a3,-20(s0)
 1653 0032 13D66600 		srli	a2,a3,6
 1654 0036 B7460240 		li	a3,1073889280
 1655 003a 93860680 		addi	a3,a3,-2048
 1656 003e B296     		add	a3,a2,a3
 1657 0040 F98F     		and	a5,a4,a5
 1658 0042 9CC2     		sw	a5,0(a3)
 774:../Firmware/GD32VW55x_standard_peripheral/Source/gd32vw55x_rcu.c **** }
 1659              		.loc 1 774 1
 1660 0044 0100     		nop
 1661 0046 7244     		lw	s0,28(sp)
 1662              		.cfi_restore 8
 1663              		.cfi_def_cfa 2, 32
 1664 0048 0561     		addi	sp,sp,32
 1665              		.cfi_def_cfa_offset 0
 1666 004a 8280     		jr	ra
 1667              		.cfi_endproc
 1668              	.LFE383:
 1670              		.section	.text.rcu_lxtal_drive_capability_config,"ax",@progbits
 1671              		.align	1
 1672              		.globl	rcu_lxtal_drive_capability_config
 1674              	rcu_lxtal_drive_capability_config:
 1675              	.LFB384:
 775:../Firmware/GD32VW55x_standard_peripheral/Source/gd32vw55x_rcu.c **** 
 776:../Firmware/GD32VW55x_standard_peripheral/Source/gd32vw55x_rcu.c **** /*!
 777:../Firmware/GD32VW55x_standard_peripheral/Source/gd32vw55x_rcu.c ****     \brief      configure the LXTAL drive capability
 778:../Firmware/GD32VW55x_standard_peripheral/Source/gd32vw55x_rcu.c ****     \param[in]  lxtal_dricap: drive capability of LXTAL
 779:../Firmware/GD32VW55x_standard_peripheral/Source/gd32vw55x_rcu.c ****                 only one parameter can be selected which is shown as below:
 780:../Firmware/GD32VW55x_standard_peripheral/Source/gd32vw55x_rcu.c ****       \arg        RCU_LXTALDRI_LOWER_DRIVE: lower driving capability
 781:../Firmware/GD32VW55x_standard_peripheral/Source/gd32vw55x_rcu.c ****       \arg        RCU_LXTALDRI_HIGH_DRIVE: high driving capability
 782:../Firmware/GD32VW55x_standard_peripheral/Source/gd32vw55x_rcu.c ****       \arg        RCU_LXTALDRI_HIGHER_DRIVE: higher driving capability
 783:../Firmware/GD32VW55x_standard_peripheral/Source/gd32vw55x_rcu.c ****       \arg        RCU_LXTALDRI_HIGHEST_DRIVE: highest driving capability
 784:../Firmware/GD32VW55x_standard_peripheral/Source/gd32vw55x_rcu.c ****     \param[out] none
 785:../Firmware/GD32VW55x_standard_peripheral/Source/gd32vw55x_rcu.c ****     \retval     none
 786:../Firmware/GD32VW55x_standard_peripheral/Source/gd32vw55x_rcu.c **** */
 787:../Firmware/GD32VW55x_standard_peripheral/Source/gd32vw55x_rcu.c **** void rcu_lxtal_drive_capability_config(uint32_t lxtal_dricap)
 788:../Firmware/GD32VW55x_standard_peripheral/Source/gd32vw55x_rcu.c **** {
 1676              		.loc 1 788 1
 1677              		.cfi_startproc
 1678 0000 7971     		addi	sp,sp,-48
 1679              		.cfi_def_cfa_offset 48
 1680 0002 22D6     		sw	s0,44(sp)
 1681              		.cfi_offset 8, -4
 1682 0004 0018     		addi	s0,sp,48
 1683              		.cfi_def_cfa 8, 0
 1684 0006 232EA4FC 		sw	a0,-36(s0)
 789:../Firmware/GD32VW55x_standard_peripheral/Source/gd32vw55x_rcu.c ****     uint32_t reg;
 790:../Firmware/GD32VW55x_standard_peripheral/Source/gd32vw55x_rcu.c **** 
 791:../Firmware/GD32VW55x_standard_peripheral/Source/gd32vw55x_rcu.c ****     reg = RCU_BDCTL;
 1685              		.loc 1 791 11
 1686 000a B7470240 		li	a5,1073889280
 1687 000e 93870787 		addi	a5,a5,-1936
 1688              		.loc 1 791 9
 1689 0012 9C43     		lw	a5,0(a5)
 1690 0014 2326F4FE 		sw	a5,-20(s0)
 792:../Firmware/GD32VW55x_standard_peripheral/Source/gd32vw55x_rcu.c **** 
 793:../Firmware/GD32VW55x_standard_peripheral/Source/gd32vw55x_rcu.c ****     /* reset the LXTALDRI bits and set according to lxtal_dricap */
 794:../Firmware/GD32VW55x_standard_peripheral/Source/gd32vw55x_rcu.c ****     reg &= ~RCU_BDCTL_LXTALDRI;
 1691              		.loc 1 794 9
 1692 0018 8327C4FE 		lw	a5,-20(s0)
 1693 001c 9D9B     		andi	a5,a5,-25
 1694 001e 2326F4FE 		sw	a5,-20(s0)
 795:../Firmware/GD32VW55x_standard_peripheral/Source/gd32vw55x_rcu.c ****     RCU_BDCTL = (reg | lxtal_dricap);
 1695              		.loc 1 795 5
 1696 0022 B7470240 		li	a5,1073889280
 1697 0026 93870787 		addi	a5,a5,-1936
 1698              		.loc 1 795 22
 1699 002a 8326C4FE 		lw	a3,-20(s0)
 1700 002e 0327C4FD 		lw	a4,-36(s0)
 1701 0032 558F     		or	a4,a3,a4
 1702              		.loc 1 795 15
 1703 0034 98C3     		sw	a4,0(a5)
 796:../Firmware/GD32VW55x_standard_peripheral/Source/gd32vw55x_rcu.c **** }
 1704              		.loc 1 796 1
 1705 0036 0100     		nop
 1706 0038 3254     		lw	s0,44(sp)
 1707              		.cfi_restore 8
 1708              		.cfi_def_cfa 2, 48
 1709 003a 4561     		addi	sp,sp,48
 1710              		.cfi_def_cfa_offset 0
 1711 003c 8280     		jr	ra
 1712              		.cfi_endproc
 1713              	.LFE384:
 1715              		.section	.text.rcu_osci_stab_wait,"ax",@progbits
 1716              		.align	1
 1717              		.globl	rcu_osci_stab_wait
 1719              	rcu_osci_stab_wait:
 1720              	.LFB385:
 797:../Firmware/GD32VW55x_standard_peripheral/Source/gd32vw55x_rcu.c **** 
 798:../Firmware/GD32VW55x_standard_peripheral/Source/gd32vw55x_rcu.c **** /*!
 799:../Firmware/GD32VW55x_standard_peripheral/Source/gd32vw55x_rcu.c ****     \brief      wait for oscillator stabilization flags is SET or oscillator startup is timeout
 800:../Firmware/GD32VW55x_standard_peripheral/Source/gd32vw55x_rcu.c ****     \param[in]  osci: oscillator types, refer to rcu_osci_type_enum
 801:../Firmware/GD32VW55x_standard_peripheral/Source/gd32vw55x_rcu.c ****                 only one parameter can be selected which is shown as below:
 802:../Firmware/GD32VW55x_standard_peripheral/Source/gd32vw55x_rcu.c ****       \arg        RCU_HXTAL: HXTAL
 803:../Firmware/GD32VW55x_standard_peripheral/Source/gd32vw55x_rcu.c ****       \arg        RCU_LXTAL: LXTAL
 804:../Firmware/GD32VW55x_standard_peripheral/Source/gd32vw55x_rcu.c ****       \arg        RCU_IRC16M: IRC16M
 805:../Firmware/GD32VW55x_standard_peripheral/Source/gd32vw55x_rcu.c ****       \arg        RCU_IRC32K: IRC32K
 806:../Firmware/GD32VW55x_standard_peripheral/Source/gd32vw55x_rcu.c ****       \arg        RCU_PLLDIG_CK: PLLDIG
 807:../Firmware/GD32VW55x_standard_peripheral/Source/gd32vw55x_rcu.c ****     \param[out] none
 808:../Firmware/GD32VW55x_standard_peripheral/Source/gd32vw55x_rcu.c ****     \retval     ErrStatus: SUCCESS or ERROR
 809:../Firmware/GD32VW55x_standard_peripheral/Source/gd32vw55x_rcu.c **** */
 810:../Firmware/GD32VW55x_standard_peripheral/Source/gd32vw55x_rcu.c **** ErrStatus rcu_osci_stab_wait(rcu_osci_type_enum osci)
 811:../Firmware/GD32VW55x_standard_peripheral/Source/gd32vw55x_rcu.c **** {
 1721              		.loc 1 811 1
 1722              		.cfi_startproc
 1723 0000 7971     		addi	sp,sp,-48
 1724              		.cfi_def_cfa_offset 48
 1725 0002 06D6     		sw	ra,44(sp)
 1726 0004 22D4     		sw	s0,40(sp)
 1727              		.cfi_offset 1, -4
 1728              		.cfi_offset 8, -8
 1729 0006 0018     		addi	s0,sp,48
 1730              		.cfi_def_cfa 8, 0
 1731 0008 232EA4FC 		sw	a0,-36(s0)
 812:../Firmware/GD32VW55x_standard_peripheral/Source/gd32vw55x_rcu.c ****     uint32_t stb_cnt = 0U;
 1732              		.loc 1 812 14
 1733 000c 232604FE 		sw	zero,-20(s0)
 813:../Firmware/GD32VW55x_standard_peripheral/Source/gd32vw55x_rcu.c ****     ErrStatus reval = ERROR;
 1734              		.loc 1 813 15
 1735 0010 232404FE 		sw	zero,-24(s0)
 814:../Firmware/GD32VW55x_standard_peripheral/Source/gd32vw55x_rcu.c ****     FlagStatus osci_stat = RESET;
 1736              		.loc 1 814 16
 1737 0014 232204FE 		sw	zero,-28(s0)
 815:../Firmware/GD32VW55x_standard_peripheral/Source/gd32vw55x_rcu.c **** 
 816:../Firmware/GD32VW55x_standard_peripheral/Source/gd32vw55x_rcu.c ****     switch(osci){
 1738              		.loc 1 816 5
 1739 0018 0327C4FD 		lw	a4,-36(s0)
 1740 001c 8967     		li	a5,8192
 1741 001e 938707D0 		addi	a5,a5,-768
 1742 0022 630EF712 		beq	a4,a5,.L66
 1743 0026 0327C4FD 		lw	a4,-36(s0)
 1744 002a 8967     		li	a5,8192
 1745 002c 938707D0 		addi	a5,a5,-768
 1746 0030 63EFE718 		bgtu	a4,a5,.L75
 1747 0034 0327C4FD 		lw	a4,-36(s0)
 1748 0038 8967     		li	a5,8192
 1749 003a 938707C0 		addi	a5,a5,-1024
 1750 003e 630BF708 		beq	a4,a5,.L58
 1751 0042 0327C4FD 		lw	a4,-36(s0)
 1752 0046 8967     		li	a5,8192
 1753 0048 938707C0 		addi	a5,a5,-1024
 1754 004c 63E1E718 		bgtu	a4,a5,.L75
 1755 0050 0327C4FD 		lw	a4,-36(s0)
 1756 0054 D547     		li	a5,21
 1757 0056 6307F714 		beq	a4,a5,.L70
 1758 005a 0327C4FD 		lw	a4,-36(s0)
 1759 005e D547     		li	a5,21
 1760 0060 63E7E716 		bgtu	a4,a5,.L75
 1761 0064 8327C4FD 		lw	a5,-36(s0)
 1762 0068 CDCB     		beq	a5,zero,.L62
 1763 006a 0327C4FD 		lw	a4,-36(s0)
 1764 006e C147     		li	a5,16
 1765 0070 631FF714 		bne	a4,a5,.L75
 817:../Firmware/GD32VW55x_standard_peripheral/Source/gd32vw55x_rcu.c ****     /* wait HXTAL stable */
 818:../Firmware/GD32VW55x_standard_peripheral/Source/gd32vw55x_rcu.c ****     case RCU_HXTAL:
 819:../Firmware/GD32VW55x_standard_peripheral/Source/gd32vw55x_rcu.c ****         while((RESET == osci_stat) && (HXTAL_STARTUP_TIMEOUT != stb_cnt)){
 1766              		.loc 1 819 14
 1767 0074 29A8     		j	.L53
 1768              	.L55:
 820:../Firmware/GD32VW55x_standard_peripheral/Source/gd32vw55x_rcu.c ****             osci_stat = rcu_flag_get(RCU_FLAG_HXTALSTB);
 1769              		.loc 1 820 25
 1770 0076 4545     		li	a0,17
 1771 0078 97000000 		call	rcu_flag_get
 1771      E7800000 
 1772 0080 2322A4FE 		sw	a0,-28(s0)
 821:../Firmware/GD32VW55x_standard_peripheral/Source/gd32vw55x_rcu.c ****             stb_cnt++;
 1773              		.loc 1 821 20
 1774 0084 8327C4FE 		lw	a5,-20(s0)
 1775 0088 8507     		addi	a5,a5,1
 1776 008a 2326F4FE 		sw	a5,-20(s0)
 1777              	.L53:
 819:../Firmware/GD32VW55x_standard_peripheral/Source/gd32vw55x_rcu.c ****             osci_stat = rcu_flag_get(RCU_FLAG_HXTALSTB);
 1778              		.loc 1 819 14
 1779 008e 832744FE 		lw	a5,-28(s0)
 1780 0092 99E7     		bne	a5,zero,.L54
 819:../Firmware/GD32VW55x_standard_peripheral/Source/gd32vw55x_rcu.c ****             osci_stat = rcu_flag_get(RCU_FLAG_HXTALSTB);
 1781              		.loc 1 819 36 discriminator 1
 1782 0094 0327C4FE 		lw	a4,-20(s0)
 1783 0098 C167     		li	a5,65536
 1784 009a FD17     		addi	a5,a5,-1
 1785 009c E31DF7FC 		bne	a4,a5,.L55
 1786              	.L54:
 822:../Firmware/GD32VW55x_standard_peripheral/Source/gd32vw55x_rcu.c ****         }
 823:../Firmware/GD32VW55x_standard_peripheral/Source/gd32vw55x_rcu.c **** 
 824:../Firmware/GD32VW55x_standard_peripheral/Source/gd32vw55x_rcu.c ****         /* check whether flag is set */
 825:../Firmware/GD32VW55x_standard_peripheral/Source/gd32vw55x_rcu.c ****         if(RESET != rcu_flag_get(RCU_FLAG_HXTALSTB)){
 1787              		.loc 1 825 21
 1788 00a0 4545     		li	a0,17
 1789 00a2 97000000 		call	rcu_flag_get
 1789      E7800000 
 1790 00aa AA87     		mv	a5,a0
 1791              		.loc 1 825 11
 1792 00ac 63830712 		beq	a5,zero,.L76
 826:../Firmware/GD32VW55x_standard_peripheral/Source/gd32vw55x_rcu.c ****             reval = SUCCESS;
 1793              		.loc 1 826 19
 1794 00b0 8547     		li	a5,1
 1795 00b2 2324F4FE 		sw	a5,-24(s0)
 827:../Firmware/GD32VW55x_standard_peripheral/Source/gd32vw55x_rcu.c ****         }
 828:../Firmware/GD32VW55x_standard_peripheral/Source/gd32vw55x_rcu.c ****         break;
 1796              		.loc 1 828 9
 1797 00b6 31AA     		j	.L76
 1798              	.L60:
 829:../Firmware/GD32VW55x_standard_peripheral/Source/gd32vw55x_rcu.c ****     /* wait LXTAL stable */
 830:../Firmware/GD32VW55x_standard_peripheral/Source/gd32vw55x_rcu.c ****     case RCU_LXTAL:
 831:../Firmware/GD32VW55x_standard_peripheral/Source/gd32vw55x_rcu.c ****         while((RESET == osci_stat) && (LXTAL_STARTUP_TIMEOUT != stb_cnt)){
 832:../Firmware/GD32VW55x_standard_peripheral/Source/gd32vw55x_rcu.c ****             osci_stat = rcu_flag_get(RCU_FLAG_LXTALSTB);
 1799              		.loc 1 832 25
 1800 00b8 8967     		li	a5,8192
 1801 00ba 138517C0 		addi	a0,a5,-1023
 1802 00be 97000000 		call	rcu_flag_get
 1802      E7800000 
 1803 00c6 2322A4FE 		sw	a0,-28(s0)
 833:../Firmware/GD32VW55x_standard_peripheral/Source/gd32vw55x_rcu.c ****             stb_cnt++;
 1804              		.loc 1 833 20
 1805 00ca 8327C4FE 		lw	a5,-20(s0)
 1806 00ce 8507     		addi	a5,a5,1
 1807 00d0 2326F4FE 		sw	a5,-20(s0)
 1808              	.L58:
 831:../Firmware/GD32VW55x_standard_peripheral/Source/gd32vw55x_rcu.c ****             osci_stat = rcu_flag_get(RCU_FLAG_LXTALSTB);
 1809              		.loc 1 831 14
 1810 00d4 832744FE 		lw	a5,-28(s0)
 1811 00d8 81EB     		bne	a5,zero,.L59
 831:../Firmware/GD32VW55x_standard_peripheral/Source/gd32vw55x_rcu.c ****             osci_stat = rcu_flag_get(RCU_FLAG_LXTALSTB);
 1812              		.loc 1 831 36 discriminator 1
 1813 00da 0327C4FE 		lw	a4,-20(s0)
 1814 00de B7070010 		li	a5,268435456
 1815 00e2 FD17     		addi	a5,a5,-1
 1816 00e4 E31AF7FC 		bne	a4,a5,.L60
 1817              	.L59:
 834:../Firmware/GD32VW55x_standard_peripheral/Source/gd32vw55x_rcu.c ****         }
 835:../Firmware/GD32VW55x_standard_peripheral/Source/gd32vw55x_rcu.c **** 
 836:../Firmware/GD32VW55x_standard_peripheral/Source/gd32vw55x_rcu.c ****         /* check whether flag is set */
 837:../Firmware/GD32VW55x_standard_peripheral/Source/gd32vw55x_rcu.c ****         if(RESET != rcu_flag_get(RCU_FLAG_LXTALSTB)){
 1818              		.loc 1 837 21
 1819 00e8 8967     		li	a5,8192
 1820 00ea 138517C0 		addi	a0,a5,-1023
 1821 00ee 97000000 		call	rcu_flag_get
 1821      E7800000 
 1822 00f6 AA87     		mv	a5,a0
 1823              		.loc 1 837 11
 1824 00f8 F9CF     		beq	a5,zero,.L77
 838:../Firmware/GD32VW55x_standard_peripheral/Source/gd32vw55x_rcu.c ****             reval = SUCCESS;
 1825              		.loc 1 838 19
 1826 00fa 8547     		li	a5,1
 1827 00fc 2324F4FE 		sw	a5,-24(s0)
 839:../Firmware/GD32VW55x_standard_peripheral/Source/gd32vw55x_rcu.c ****         }
 840:../Firmware/GD32VW55x_standard_peripheral/Source/gd32vw55x_rcu.c ****         break;
 1828              		.loc 1 840 9
 1829 0100 D9A8     		j	.L77
 1830              	.L64:
 841:../Firmware/GD32VW55x_standard_peripheral/Source/gd32vw55x_rcu.c ****     /* wait IRC16M stable */
 842:../Firmware/GD32VW55x_standard_peripheral/Source/gd32vw55x_rcu.c ****     case RCU_IRC16M:
 843:../Firmware/GD32VW55x_standard_peripheral/Source/gd32vw55x_rcu.c ****         while((RESET == osci_stat) && (IRC16M_STARTUP_TIMEOUT != stb_cnt)){
 844:../Firmware/GD32VW55x_standard_peripheral/Source/gd32vw55x_rcu.c ****             osci_stat = rcu_flag_get(RCU_FLAG_IRC16MSTB);
 1831              		.loc 1 844 25
 1832 0102 0545     		li	a0,1
 1833 0104 97000000 		call	rcu_flag_get
 1833      E7800000 
 1834 010c 2322A4FE 		sw	a0,-28(s0)
 845:../Firmware/GD32VW55x_standard_peripheral/Source/gd32vw55x_rcu.c ****             stb_cnt++;
 1835              		.loc 1 845 20
 1836 0110 8327C4FE 		lw	a5,-20(s0)
 1837 0114 8507     		addi	a5,a5,1
 1838 0116 2326F4FE 		sw	a5,-20(s0)
 1839              	.L62:
 843:../Firmware/GD32VW55x_standard_peripheral/Source/gd32vw55x_rcu.c ****             osci_stat = rcu_flag_get(RCU_FLAG_IRC16MSTB);
 1840              		.loc 1 843 14
 1841 011a 832744FE 		lw	a5,-28(s0)
 1842 011e 99E7     		bne	a5,zero,.L63
 843:../Firmware/GD32VW55x_standard_peripheral/Source/gd32vw55x_rcu.c ****             osci_stat = rcu_flag_get(RCU_FLAG_IRC16MSTB);
 1843              		.loc 1 843 36 discriminator 1
 1844 0120 0327C4FE 		lw	a4,-20(s0)
 1845 0124 93070050 		li	a5,1280
 1846 0128 E31DF7FC 		bne	a4,a5,.L64
 1847              	.L63:
 846:../Firmware/GD32VW55x_standard_peripheral/Source/gd32vw55x_rcu.c ****         }
 847:../Firmware/GD32VW55x_standard_peripheral/Source/gd32vw55x_rcu.c **** 
 848:../Firmware/GD32VW55x_standard_peripheral/Source/gd32vw55x_rcu.c ****         /* check whether flag is set */
 849:../Firmware/GD32VW55x_standard_peripheral/Source/gd32vw55x_rcu.c ****         if(RESET != rcu_flag_get(RCU_FLAG_IRC16MSTB)){
 1848              		.loc 1 849 21
 1849 012c 0545     		li	a0,1
 1850 012e 97000000 		call	rcu_flag_get
 1850      E7800000 
 1851 0136 AA87     		mv	a5,a0
 1852              		.loc 1 849 11
 1853 0138 CDC3     		beq	a5,zero,.L78
 850:../Firmware/GD32VW55x_standard_peripheral/Source/gd32vw55x_rcu.c ****             reval = SUCCESS;
 1854              		.loc 1 850 19
 1855 013a 8547     		li	a5,1
 1856 013c 2324F4FE 		sw	a5,-24(s0)
 851:../Firmware/GD32VW55x_standard_peripheral/Source/gd32vw55x_rcu.c ****         }
 852:../Firmware/GD32VW55x_standard_peripheral/Source/gd32vw55x_rcu.c ****         break;
 1857              		.loc 1 852 9
 1858 0140 69A8     		j	.L78
 1859              	.L68:
 853:../Firmware/GD32VW55x_standard_peripheral/Source/gd32vw55x_rcu.c ****     /* wait IRC32K stable */
 854:../Firmware/GD32VW55x_standard_peripheral/Source/gd32vw55x_rcu.c ****     case RCU_IRC32K:
 855:../Firmware/GD32VW55x_standard_peripheral/Source/gd32vw55x_rcu.c ****         while((RESET == osci_stat) && (OSC_STARTUP_TIMEOUT != stb_cnt)){
 856:../Firmware/GD32VW55x_standard_peripheral/Source/gd32vw55x_rcu.c ****             osci_stat = rcu_flag_get(RCU_FLAG_IRC32KSTB);
 1860              		.loc 1 856 25
 1861 0142 8967     		li	a5,8192
 1862 0144 138517D0 		addi	a0,a5,-767
 1863 0148 97000000 		call	rcu_flag_get
 1863      E7800000 
 1864 0150 2322A4FE 		sw	a0,-28(s0)
 857:../Firmware/GD32VW55x_standard_peripheral/Source/gd32vw55x_rcu.c ****             stb_cnt++;
 1865              		.loc 1 857 20
 1866 0154 8327C4FE 		lw	a5,-20(s0)
 1867 0158 8507     		addi	a5,a5,1
 1868 015a 2326F4FE 		sw	a5,-20(s0)
 1869              	.L66:
 855:../Firmware/GD32VW55x_standard_peripheral/Source/gd32vw55x_rcu.c ****             osci_stat = rcu_flag_get(RCU_FLAG_IRC32KSTB);
 1870              		.loc 1 855 14
 1871 015e 832744FE 		lw	a5,-28(s0)
 1872 0162 81EB     		bne	a5,zero,.L67
 855:../Firmware/GD32VW55x_standard_peripheral/Source/gd32vw55x_rcu.c ****             osci_stat = rcu_flag_get(RCU_FLAG_IRC32KSTB);
 1873              		.loc 1 855 36 discriminator 1
 1874 0164 0327C4FE 		lw	a4,-20(s0)
 1875 0168 B7071000 		li	a5,1048576
 1876 016c FD17     		addi	a5,a5,-1
 1877 016e E31AF7FC 		bne	a4,a5,.L68
 1878              	.L67:
 858:../Firmware/GD32VW55x_standard_peripheral/Source/gd32vw55x_rcu.c ****         }
 859:../Firmware/GD32VW55x_standard_peripheral/Source/gd32vw55x_rcu.c **** 
 860:../Firmware/GD32VW55x_standard_peripheral/Source/gd32vw55x_rcu.c ****         /* check whether flag is set */
 861:../Firmware/GD32VW55x_standard_peripheral/Source/gd32vw55x_rcu.c ****         if(RESET != rcu_flag_get(RCU_FLAG_IRC32KSTB)){
 1879              		.loc 1 861 21
 1880 0172 8967     		li	a5,8192
 1881 0174 138517D0 		addi	a0,a5,-767
 1882 0178 97000000 		call	rcu_flag_get
 1882      E7800000 
 1883 0180 AA87     		mv	a5,a0
 1884              		.loc 1 861 11
 1885 0182 B1CF     		beq	a5,zero,.L79
 862:../Firmware/GD32VW55x_standard_peripheral/Source/gd32vw55x_rcu.c ****             reval = SUCCESS;
 1886              		.loc 1 862 19
 1887 0184 8547     		li	a5,1
 1888 0186 2324F4FE 		sw	a5,-24(s0)
 863:../Firmware/GD32VW55x_standard_peripheral/Source/gd32vw55x_rcu.c ****         }
 864:../Firmware/GD32VW55x_standard_peripheral/Source/gd32vw55x_rcu.c ****         break;
 1889              		.loc 1 864 9
 1890 018a 91A8     		j	.L79
 1891              	.L72:
 865:../Firmware/GD32VW55x_standard_peripheral/Source/gd32vw55x_rcu.c ****     /* wait PLLDIG stable */
 866:../Firmware/GD32VW55x_standard_peripheral/Source/gd32vw55x_rcu.c ****     case RCU_PLLDIG_CK:
 867:../Firmware/GD32VW55x_standard_peripheral/Source/gd32vw55x_rcu.c ****         while((RESET == osci_stat) && (OSC_STARTUP_TIMEOUT != stb_cnt)){
 868:../Firmware/GD32VW55x_standard_peripheral/Source/gd32vw55x_rcu.c ****             osci_stat = rcu_flag_get(RCU_FLAG_PLLDIGSTB);
 1892              		.loc 1 868 25
 1893 018c 5D45     		li	a0,23
 1894 018e 97000000 		call	rcu_flag_get
 1894      E7800000 
 1895 0196 2322A4FE 		sw	a0,-28(s0)
 869:../Firmware/GD32VW55x_standard_peripheral/Source/gd32vw55x_rcu.c ****             stb_cnt++;
 1896              		.loc 1 869 20
 1897 019a 8327C4FE 		lw	a5,-20(s0)
 1898 019e 8507     		addi	a5,a5,1
 1899 01a0 2326F4FE 		sw	a5,-20(s0)
 1900              	.L70:
 867:../Firmware/GD32VW55x_standard_peripheral/Source/gd32vw55x_rcu.c ****             osci_stat = rcu_flag_get(RCU_FLAG_PLLDIGSTB);
 1901              		.loc 1 867 14
 1902 01a4 832744FE 		lw	a5,-28(s0)
 1903 01a8 81EB     		bne	a5,zero,.L71
 867:../Firmware/GD32VW55x_standard_peripheral/Source/gd32vw55x_rcu.c ****             osci_stat = rcu_flag_get(RCU_FLAG_PLLDIGSTB);
 1904              		.loc 1 867 36 discriminator 1
 1905 01aa 0327C4FE 		lw	a4,-20(s0)
 1906 01ae B7071000 		li	a5,1048576
 1907 01b2 FD17     		addi	a5,a5,-1
 1908 01b4 E31CF7FC 		bne	a4,a5,.L72
 1909              	.L71:
 870:../Firmware/GD32VW55x_standard_peripheral/Source/gd32vw55x_rcu.c ****         }
 871:../Firmware/GD32VW55x_standard_peripheral/Source/gd32vw55x_rcu.c **** 
 872:../Firmware/GD32VW55x_standard_peripheral/Source/gd32vw55x_rcu.c ****         /* check whether flag is set */
 873:../Firmware/GD32VW55x_standard_peripheral/Source/gd32vw55x_rcu.c ****         if(RESET != rcu_flag_get(RCU_FLAG_PLLDIGSTB)){
 1910              		.loc 1 873 21
 1911 01b8 5D45     		li	a0,23
 1912 01ba 97000000 		call	rcu_flag_get
 1912      E7800000 
 1913 01c2 AA87     		mv	a5,a0
 1914              		.loc 1 873 11
 1915 01c4 99CF     		beq	a5,zero,.L80
 874:../Firmware/GD32VW55x_standard_peripheral/Source/gd32vw55x_rcu.c ****             reval = SUCCESS;
 1916              		.loc 1 874 19
 1917 01c6 8547     		li	a5,1
 1918 01c8 2324F4FE 		sw	a5,-24(s0)
 875:../Firmware/GD32VW55x_standard_peripheral/Source/gd32vw55x_rcu.c ****         }
 876:../Firmware/GD32VW55x_standard_peripheral/Source/gd32vw55x_rcu.c ****         break;
 1919              		.loc 1 876 9
 1920 01cc 19A8     		j	.L80
 1921              	.L75:
 877:../Firmware/GD32VW55x_standard_peripheral/Source/gd32vw55x_rcu.c ****     default:
 878:../Firmware/GD32VW55x_standard_peripheral/Source/gd32vw55x_rcu.c ****         break;
 1922              		.loc 1 878 9
 1923 01ce 0100     		nop
 1924 01d0 11A8     		j	.L57
 1925              	.L76:
 828:../Firmware/GD32VW55x_standard_peripheral/Source/gd32vw55x_rcu.c ****     /* wait LXTAL stable */
 1926              		.loc 1 828 9
 1927 01d2 0100     		nop
 1928 01d4 01A8     		j	.L57
 1929              	.L77:
 840:../Firmware/GD32VW55x_standard_peripheral/Source/gd32vw55x_rcu.c ****     /* wait IRC16M stable */
 1930              		.loc 1 840 9
 1931 01d6 0100     		nop
 1932 01d8 31A0     		j	.L57
 1933              	.L78:
 852:../Firmware/GD32VW55x_standard_peripheral/Source/gd32vw55x_rcu.c ****     /* wait IRC32K stable */
 1934              		.loc 1 852 9
 1935 01da 0100     		nop
 1936 01dc 21A0     		j	.L57
 1937              	.L79:
 864:../Firmware/GD32VW55x_standard_peripheral/Source/gd32vw55x_rcu.c ****     /* wait PLLDIG stable */
 1938              		.loc 1 864 9
 1939 01de 0100     		nop
 1940 01e0 11A0     		j	.L57
 1941              	.L80:
 876:../Firmware/GD32VW55x_standard_peripheral/Source/gd32vw55x_rcu.c ****     default:
 1942              		.loc 1 876 9
 1943 01e2 0100     		nop
 1944              	.L57:
 879:../Firmware/GD32VW55x_standard_peripheral/Source/gd32vw55x_rcu.c ****     }
 880:../Firmware/GD32VW55x_standard_peripheral/Source/gd32vw55x_rcu.c **** 
 881:../Firmware/GD32VW55x_standard_peripheral/Source/gd32vw55x_rcu.c ****     /* return value */
 882:../Firmware/GD32VW55x_standard_peripheral/Source/gd32vw55x_rcu.c ****     return reval;
 1945              		.loc 1 882 12
 1946 01e4 832784FE 		lw	a5,-24(s0)
 883:../Firmware/GD32VW55x_standard_peripheral/Source/gd32vw55x_rcu.c **** }
 1947              		.loc 1 883 1
 1948 01e8 3E85     		mv	a0,a5
 1949 01ea B250     		lw	ra,44(sp)
 1950              		.cfi_restore 1
 1951 01ec 2254     		lw	s0,40(sp)
 1952              		.cfi_restore 8
 1953              		.cfi_def_cfa 2, 48
 1954 01ee 4561     		addi	sp,sp,48
 1955              		.cfi_def_cfa_offset 0
 1956 01f0 8280     		jr	ra
 1957              		.cfi_endproc
 1958              	.LFE385:
 1960              		.section	.text.rcu_osci_on,"ax",@progbits
 1961              		.align	1
 1962              		.globl	rcu_osci_on
 1964              	rcu_osci_on:
 1965              	.LFB386:
 884:../Firmware/GD32VW55x_standard_peripheral/Source/gd32vw55x_rcu.c **** 
 885:../Firmware/GD32VW55x_standard_peripheral/Source/gd32vw55x_rcu.c **** /*!
 886:../Firmware/GD32VW55x_standard_peripheral/Source/gd32vw55x_rcu.c ****     \brief      turn on the oscillator
 887:../Firmware/GD32VW55x_standard_peripheral/Source/gd32vw55x_rcu.c ****     \param[in]  osci: oscillator types, refer to rcu_osci_type_enum
 888:../Firmware/GD32VW55x_standard_peripheral/Source/gd32vw55x_rcu.c ****                 only one parameter can be selected which is shown as below:
 889:../Firmware/GD32VW55x_standard_peripheral/Source/gd32vw55x_rcu.c ****       \arg        RCU_HXTAL: HXTAL
 890:../Firmware/GD32VW55x_standard_peripheral/Source/gd32vw55x_rcu.c ****       \arg        RCU_LXTAL: LXTAL
 891:../Firmware/GD32VW55x_standard_peripheral/Source/gd32vw55x_rcu.c ****       \arg        RCU_IRC16M: IRC16M
 892:../Firmware/GD32VW55x_standard_peripheral/Source/gd32vw55x_rcu.c ****       \arg        RCU_IRC32K: IRC32K
 893:../Firmware/GD32VW55x_standard_peripheral/Source/gd32vw55x_rcu.c ****       \arg        RCU_PLLDIG_CK: PLLDIG
 894:../Firmware/GD32VW55x_standard_peripheral/Source/gd32vw55x_rcu.c ****     \param[out] none
 895:../Firmware/GD32VW55x_standard_peripheral/Source/gd32vw55x_rcu.c ****     \retval     none
 896:../Firmware/GD32VW55x_standard_peripheral/Source/gd32vw55x_rcu.c **** */
 897:../Firmware/GD32VW55x_standard_peripheral/Source/gd32vw55x_rcu.c **** void rcu_osci_on(rcu_osci_type_enum osci)
 898:../Firmware/GD32VW55x_standard_peripheral/Source/gd32vw55x_rcu.c **** {
 1966              		.loc 1 898 1
 1967              		.cfi_startproc
 1968 0000 0111     		addi	sp,sp,-32
 1969              		.cfi_def_cfa_offset 32
 1970 0002 22CE     		sw	s0,28(sp)
 1971              		.cfi_offset 8, -4
 1972 0004 0010     		addi	s0,sp,32
 1973              		.cfi_def_cfa 8, 0
 1974 0006 2326A4FE 		sw	a0,-20(s0)
 899:../Firmware/GD32VW55x_standard_peripheral/Source/gd32vw55x_rcu.c ****     RCU_REG_VAL(osci) |= BIT(RCU_BIT_POS(osci));
 1975              		.loc 1 899 23
 1976 000a 8327C4FE 		lw	a5,-20(s0)
 1977 000e 13D76700 		srli	a4,a5,6
 1978 0012 B7470240 		li	a5,1073889280
 1979 0016 93870780 		addi	a5,a5,-2048
 1980 001a BA97     		add	a5,a4,a5
 1981 001c 9843     		lw	a4,0(a5)
 1982              		.loc 1 899 26
 1983 001e 8327C4FE 		lw	a5,-20(s0)
 1984 0022 FD8B     		andi	a5,a5,31
 1985 0024 8546     		li	a3,1
 1986 0026 B397F600 		sll	a5,a3,a5
 1987              		.loc 1 899 23
 1988 002a 8326C4FE 		lw	a3,-20(s0)
 1989 002e 13D66600 		srli	a2,a3,6
 1990 0032 B7460240 		li	a3,1073889280
 1991 0036 93860680 		addi	a3,a3,-2048
 1992 003a B296     		add	a3,a2,a3
 1993 003c D98F     		or	a5,a4,a5
 1994 003e 9CC2     		sw	a5,0(a3)
 900:../Firmware/GD32VW55x_standard_peripheral/Source/gd32vw55x_rcu.c **** }
 1995              		.loc 1 900 1
 1996 0040 0100     		nop
 1997 0042 7244     		lw	s0,28(sp)
 1998              		.cfi_restore 8
 1999              		.cfi_def_cfa 2, 32
 2000 0044 0561     		addi	sp,sp,32
 2001              		.cfi_def_cfa_offset 0
 2002 0046 8280     		jr	ra
 2003              		.cfi_endproc
 2004              	.LFE386:
 2006              		.section	.text.rcu_osci_off,"ax",@progbits
 2007              		.align	1
 2008              		.globl	rcu_osci_off
 2010              	rcu_osci_off:
 2011              	.LFB387:
 901:../Firmware/GD32VW55x_standard_peripheral/Source/gd32vw55x_rcu.c **** 
 902:../Firmware/GD32VW55x_standard_peripheral/Source/gd32vw55x_rcu.c **** /*!
 903:../Firmware/GD32VW55x_standard_peripheral/Source/gd32vw55x_rcu.c ****     \brief      turn off the oscillator
 904:../Firmware/GD32VW55x_standard_peripheral/Source/gd32vw55x_rcu.c ****     \param[in]  osci: oscillator types, refer to rcu_osci_type_enum
 905:../Firmware/GD32VW55x_standard_peripheral/Source/gd32vw55x_rcu.c ****                 only one parameter can be selected which is shown as below:
 906:../Firmware/GD32VW55x_standard_peripheral/Source/gd32vw55x_rcu.c ****       \arg        RCU_HXTAL: HXTAL
 907:../Firmware/GD32VW55x_standard_peripheral/Source/gd32vw55x_rcu.c ****       \arg        RCU_LXTAL: LXTAL
 908:../Firmware/GD32VW55x_standard_peripheral/Source/gd32vw55x_rcu.c ****       \arg        RCU_IRC16M: IRC16M
 909:../Firmware/GD32VW55x_standard_peripheral/Source/gd32vw55x_rcu.c ****       \arg        RCU_IRC32K: IRC32K
 910:../Firmware/GD32VW55x_standard_peripheral/Source/gd32vw55x_rcu.c ****       \arg        RCU_PLLDIG_CK: PLLDIG
 911:../Firmware/GD32VW55x_standard_peripheral/Source/gd32vw55x_rcu.c ****     \param[out] none
 912:../Firmware/GD32VW55x_standard_peripheral/Source/gd32vw55x_rcu.c ****     \retval     none
 913:../Firmware/GD32VW55x_standard_peripheral/Source/gd32vw55x_rcu.c **** */
 914:../Firmware/GD32VW55x_standard_peripheral/Source/gd32vw55x_rcu.c **** void rcu_osci_off(rcu_osci_type_enum osci)
 915:../Firmware/GD32VW55x_standard_peripheral/Source/gd32vw55x_rcu.c **** {
 2012              		.loc 1 915 1
 2013              		.cfi_startproc
 2014 0000 0111     		addi	sp,sp,-32
 2015              		.cfi_def_cfa_offset 32
 2016 0002 22CE     		sw	s0,28(sp)
 2017              		.cfi_offset 8, -4
 2018 0004 0010     		addi	s0,sp,32
 2019              		.cfi_def_cfa 8, 0
 2020 0006 2326A4FE 		sw	a0,-20(s0)
 916:../Firmware/GD32VW55x_standard_peripheral/Source/gd32vw55x_rcu.c ****     RCU_REG_VAL(osci) &= ~BIT(RCU_BIT_POS(osci));
 2021              		.loc 1 916 23
 2022 000a 8327C4FE 		lw	a5,-20(s0)
 2023 000e 13D76700 		srli	a4,a5,6
 2024 0012 B7470240 		li	a5,1073889280
 2025 0016 93870780 		addi	a5,a5,-2048
 2026 001a BA97     		add	a5,a4,a5
 2027 001c 9843     		lw	a4,0(a5)
 2028              		.loc 1 916 27
 2029 001e 8327C4FE 		lw	a5,-20(s0)
 2030 0022 FD8B     		andi	a5,a5,31
 2031 0024 8546     		li	a3,1
 2032 0026 B397F600 		sll	a5,a3,a5
 2033              		.loc 1 916 26
 2034 002a 93C7F7FF 		not	a5,a5
 2035              		.loc 1 916 23
 2036 002e 8326C4FE 		lw	a3,-20(s0)
 2037 0032 13D66600 		srli	a2,a3,6
 2038 0036 B7460240 		li	a3,1073889280
 2039 003a 93860680 		addi	a3,a3,-2048
 2040 003e B296     		add	a3,a2,a3
 2041 0040 F98F     		and	a5,a4,a5
 2042 0042 9CC2     		sw	a5,0(a3)
 917:../Firmware/GD32VW55x_standard_peripheral/Source/gd32vw55x_rcu.c **** }
 2043              		.loc 1 917 1
 2044 0044 0100     		nop
 2045 0046 7244     		lw	s0,28(sp)
 2046              		.cfi_restore 8
 2047              		.cfi_def_cfa 2, 32
 2048 0048 0561     		addi	sp,sp,32
 2049              		.cfi_def_cfa_offset 0
 2050 004a 8280     		jr	ra
 2051              		.cfi_endproc
 2052              	.LFE387:
 2054              		.section	.text.rcu_osci_bypass_mode_enable,"ax",@progbits
 2055              		.align	1
 2056              		.globl	rcu_osci_bypass_mode_enable
 2058              	rcu_osci_bypass_mode_enable:
 2059              	.LFB388:
 918:../Firmware/GD32VW55x_standard_peripheral/Source/gd32vw55x_rcu.c **** 
 919:../Firmware/GD32VW55x_standard_peripheral/Source/gd32vw55x_rcu.c **** /*!
 920:../Firmware/GD32VW55x_standard_peripheral/Source/gd32vw55x_rcu.c ****     \brief      enable the oscillator bypass mode, HXTALEN or LXTALEN must be reset before it
 921:../Firmware/GD32VW55x_standard_peripheral/Source/gd32vw55x_rcu.c ****     \param[in]  osci: oscillator types, refer to rcu_osci_type_enum
 922:../Firmware/GD32VW55x_standard_peripheral/Source/gd32vw55x_rcu.c ****                 only one parameter can be selected which is shown as below:
 923:../Firmware/GD32VW55x_standard_peripheral/Source/gd32vw55x_rcu.c ****       \arg        RCU_HXTAL: high speed crystal oscillator(HXTAL)
 924:../Firmware/GD32VW55x_standard_peripheral/Source/gd32vw55x_rcu.c ****       \arg        RCU_LXTAL: low speed crystal oscillator(LXTAL)
 925:../Firmware/GD32VW55x_standard_peripheral/Source/gd32vw55x_rcu.c ****     \param[out] none
 926:../Firmware/GD32VW55x_standard_peripheral/Source/gd32vw55x_rcu.c ****     \retval     none
 927:../Firmware/GD32VW55x_standard_peripheral/Source/gd32vw55x_rcu.c **** */
 928:../Firmware/GD32VW55x_standard_peripheral/Source/gd32vw55x_rcu.c **** void rcu_osci_bypass_mode_enable(rcu_osci_type_enum osci)
 929:../Firmware/GD32VW55x_standard_peripheral/Source/gd32vw55x_rcu.c **** {
 2060              		.loc 1 929 1
 2061              		.cfi_startproc
 2062 0000 7971     		addi	sp,sp,-48
 2063              		.cfi_def_cfa_offset 48
 2064 0002 22D6     		sw	s0,44(sp)
 2065              		.cfi_offset 8, -4
 2066 0004 0018     		addi	s0,sp,48
 2067              		.cfi_def_cfa 8, 0
 2068 0006 232EA4FC 		sw	a0,-36(s0)
 930:../Firmware/GD32VW55x_standard_peripheral/Source/gd32vw55x_rcu.c ****     uint32_t reg;
 931:../Firmware/GD32VW55x_standard_peripheral/Source/gd32vw55x_rcu.c **** 
 932:../Firmware/GD32VW55x_standard_peripheral/Source/gd32vw55x_rcu.c ****     switch(osci){
 2069              		.loc 1 932 5
 2070 000a 0327C4FD 		lw	a4,-36(s0)
 2071 000e C147     		li	a5,16
 2072 0010 630AF700 		beq	a4,a5,.L84
 2073 0014 0327C4FD 		lw	a4,-36(s0)
 2074 0018 8967     		li	a5,8192
 2075 001a 938707C0 		addi	a5,a5,-1024
 2076 001e 6302F704 		beq	a4,a5,.L85
 933:../Firmware/GD32VW55x_standard_peripheral/Source/gd32vw55x_rcu.c ****     /* enable HXTAL to bypass mode */
 934:../Firmware/GD32VW55x_standard_peripheral/Source/gd32vw55x_rcu.c ****     case RCU_HXTAL:
 935:../Firmware/GD32VW55x_standard_peripheral/Source/gd32vw55x_rcu.c ****         reg = RCU_CTL;
 936:../Firmware/GD32VW55x_standard_peripheral/Source/gd32vw55x_rcu.c ****         RCU_CTL &= ~RCU_CTL_HXTALEN;
 937:../Firmware/GD32VW55x_standard_peripheral/Source/gd32vw55x_rcu.c ****         RCU_CTL = (reg | RCU_CTL_HXTALBPS);
 938:../Firmware/GD32VW55x_standard_peripheral/Source/gd32vw55x_rcu.c ****         break;
 939:../Firmware/GD32VW55x_standard_peripheral/Source/gd32vw55x_rcu.c ****     /* enable LXTAL to bypass mode */
 940:../Firmware/GD32VW55x_standard_peripheral/Source/gd32vw55x_rcu.c ****     case RCU_LXTAL:
 941:../Firmware/GD32VW55x_standard_peripheral/Source/gd32vw55x_rcu.c ****         reg = RCU_BDCTL;
 942:../Firmware/GD32VW55x_standard_peripheral/Source/gd32vw55x_rcu.c ****         RCU_BDCTL &= ~RCU_BDCTL_LXTALEN;
 943:../Firmware/GD32VW55x_standard_peripheral/Source/gd32vw55x_rcu.c ****         RCU_BDCTL = (reg | RCU_BDCTL_LXTALBPS);
 944:../Firmware/GD32VW55x_standard_peripheral/Source/gd32vw55x_rcu.c ****         break;
 945:../Firmware/GD32VW55x_standard_peripheral/Source/gd32vw55x_rcu.c ****     default:
 946:../Firmware/GD32VW55x_standard_peripheral/Source/gd32vw55x_rcu.c ****         break;
 2077              		.loc 1 946 9
 2078 0022 A5A8     		j	.L87
 2079              	.L84:
 935:../Firmware/GD32VW55x_standard_peripheral/Source/gd32vw55x_rcu.c ****         RCU_CTL &= ~RCU_CTL_HXTALEN;
 2080              		.loc 1 935 15
 2081 0024 B7470240 		li	a5,1073889280
 2082 0028 93870780 		addi	a5,a5,-2048
 935:../Firmware/GD32VW55x_standard_peripheral/Source/gd32vw55x_rcu.c ****         RCU_CTL &= ~RCU_CTL_HXTALEN;
 2083              		.loc 1 935 13
 2084 002c 9C43     		lw	a5,0(a5)
 2085 002e 2326F4FE 		sw	a5,-20(s0)
 936:../Firmware/GD32VW55x_standard_peripheral/Source/gd32vw55x_rcu.c ****         RCU_CTL = (reg | RCU_CTL_HXTALBPS);
 2086              		.loc 1 936 17
 2087 0032 B7470240 		li	a5,1073889280
 2088 0036 93870780 		addi	a5,a5,-2048
 2089 003a 9443     		lw	a3,0(a5)
 2090 003c B7470240 		li	a5,1073889280
 2091 0040 93870780 		addi	a5,a5,-2048
 2092 0044 4177     		li	a4,-65536
 2093 0046 7D17     		addi	a4,a4,-1
 2094 0048 758F     		and	a4,a3,a4
 2095 004a 98C3     		sw	a4,0(a5)
 937:../Firmware/GD32VW55x_standard_peripheral/Source/gd32vw55x_rcu.c ****         break;
 2096              		.loc 1 937 9
 2097 004c B7470240 		li	a5,1073889280
 2098 0050 93870780 		addi	a5,a5,-2048
 937:../Firmware/GD32VW55x_standard_peripheral/Source/gd32vw55x_rcu.c ****         break;
 2099              		.loc 1 937 24
 2100 0054 8326C4FE 		lw	a3,-20(s0)
 2101 0058 37070400 		li	a4,262144
 2102 005c 558F     		or	a4,a3,a4
 937:../Firmware/GD32VW55x_standard_peripheral/Source/gd32vw55x_rcu.c ****         break;
 2103              		.loc 1 937 17
 2104 005e 98C3     		sw	a4,0(a5)
 938:../Firmware/GD32VW55x_standard_peripheral/Source/gd32vw55x_rcu.c ****     /* enable LXTAL to bypass mode */
 2105              		.loc 1 938 9
 2106 0060 2DA8     		j	.L87
 2107              	.L85:
 941:../Firmware/GD32VW55x_standard_peripheral/Source/gd32vw55x_rcu.c ****         RCU_BDCTL &= ~RCU_BDCTL_LXTALEN;
 2108              		.loc 1 941 15
 2109 0062 B7470240 		li	a5,1073889280
 2110 0066 93870787 		addi	a5,a5,-1936
 941:../Firmware/GD32VW55x_standard_peripheral/Source/gd32vw55x_rcu.c ****         RCU_BDCTL &= ~RCU_BDCTL_LXTALEN;
 2111              		.loc 1 941 13
 2112 006a 9C43     		lw	a5,0(a5)
 2113 006c 2326F4FE 		sw	a5,-20(s0)
 942:../Firmware/GD32VW55x_standard_peripheral/Source/gd32vw55x_rcu.c ****         RCU_BDCTL = (reg | RCU_BDCTL_LXTALBPS);
 2114              		.loc 1 942 19
 2115 0070 B7470240 		li	a5,1073889280
 2116 0074 93870787 		addi	a5,a5,-1936
 2117 0078 9843     		lw	a4,0(a5)
 2118 007a B7470240 		li	a5,1073889280
 2119 007e 93870787 		addi	a5,a5,-1936
 2120 0082 799B     		andi	a4,a4,-2
 2121 0084 98C3     		sw	a4,0(a5)
 943:../Firmware/GD32VW55x_standard_peripheral/Source/gd32vw55x_rcu.c ****         break;
 2122              		.loc 1 943 9
 2123 0086 B7470240 		li	a5,1073889280
 2124 008a 93870787 		addi	a5,a5,-1936
 943:../Firmware/GD32VW55x_standard_peripheral/Source/gd32vw55x_rcu.c ****         break;
 2125              		.loc 1 943 26
 2126 008e 0327C4FE 		lw	a4,-20(s0)
 2127 0092 13674700 		ori	a4,a4,4
 943:../Firmware/GD32VW55x_standard_peripheral/Source/gd32vw55x_rcu.c ****         break;
 2128              		.loc 1 943 19
 2129 0096 98C3     		sw	a4,0(a5)
 944:../Firmware/GD32VW55x_standard_peripheral/Source/gd32vw55x_rcu.c ****     default:
 2130              		.loc 1 944 9
 2131 0098 0100     		nop
 2132              	.L87:
 947:../Firmware/GD32VW55x_standard_peripheral/Source/gd32vw55x_rcu.c ****     }
 948:../Firmware/GD32VW55x_standard_peripheral/Source/gd32vw55x_rcu.c **** }
 2133              		.loc 1 948 1
 2134 009a 0100     		nop
 2135 009c 3254     		lw	s0,44(sp)
 2136              		.cfi_restore 8
 2137              		.cfi_def_cfa 2, 48
 2138 009e 4561     		addi	sp,sp,48
 2139              		.cfi_def_cfa_offset 0
 2140 00a0 8280     		jr	ra
 2141              		.cfi_endproc
 2142              	.LFE388:
 2144              		.section	.text.rcu_osci_bypass_mode_disable,"ax",@progbits
 2145              		.align	1
 2146              		.globl	rcu_osci_bypass_mode_disable
 2148              	rcu_osci_bypass_mode_disable:
 2149              	.LFB389:
 949:../Firmware/GD32VW55x_standard_peripheral/Source/gd32vw55x_rcu.c **** 
 950:../Firmware/GD32VW55x_standard_peripheral/Source/gd32vw55x_rcu.c **** /*!
 951:../Firmware/GD32VW55x_standard_peripheral/Source/gd32vw55x_rcu.c ****     \brief      disable the oscillator bypass mode, HXTALEN or LXTALEN must be reset before it
 952:../Firmware/GD32VW55x_standard_peripheral/Source/gd32vw55x_rcu.c ****     \param[in]  osci: oscillator types, refer to rcu_osci_type_enum
 953:../Firmware/GD32VW55x_standard_peripheral/Source/gd32vw55x_rcu.c ****                 only one parameter can be selected which is shown as below:
 954:../Firmware/GD32VW55x_standard_peripheral/Source/gd32vw55x_rcu.c ****       \arg        RCU_HXTAL: high speed crystal oscillator(HXTAL)
 955:../Firmware/GD32VW55x_standard_peripheral/Source/gd32vw55x_rcu.c ****       \arg        RCU_LXTAL: low speed crystal oscillator(LXTAL)
 956:../Firmware/GD32VW55x_standard_peripheral/Source/gd32vw55x_rcu.c ****     \param[out] none
 957:../Firmware/GD32VW55x_standard_peripheral/Source/gd32vw55x_rcu.c ****     \retval     none
 958:../Firmware/GD32VW55x_standard_peripheral/Source/gd32vw55x_rcu.c **** */
 959:../Firmware/GD32VW55x_standard_peripheral/Source/gd32vw55x_rcu.c **** void rcu_osci_bypass_mode_disable(rcu_osci_type_enum osci)
 960:../Firmware/GD32VW55x_standard_peripheral/Source/gd32vw55x_rcu.c **** {
 2150              		.loc 1 960 1
 2151              		.cfi_startproc
 2152 0000 7971     		addi	sp,sp,-48
 2153              		.cfi_def_cfa_offset 48
 2154 0002 22D6     		sw	s0,44(sp)
 2155              		.cfi_offset 8, -4
 2156 0004 0018     		addi	s0,sp,48
 2157              		.cfi_def_cfa 8, 0
 2158 0006 232EA4FC 		sw	a0,-36(s0)
 961:../Firmware/GD32VW55x_standard_peripheral/Source/gd32vw55x_rcu.c ****     uint32_t reg;
 962:../Firmware/GD32VW55x_standard_peripheral/Source/gd32vw55x_rcu.c **** 
 963:../Firmware/GD32VW55x_standard_peripheral/Source/gd32vw55x_rcu.c ****     switch(osci){
 2159              		.loc 1 963 5
 2160 000a 0327C4FD 		lw	a4,-36(s0)
 2161 000e C147     		li	a5,16
 2162 0010 630AF700 		beq	a4,a5,.L89
 2163 0014 0327C4FD 		lw	a4,-36(s0)
 2164 0018 8967     		li	a5,8192
 2165 001a 938707C0 		addi	a5,a5,-1024
 2166 001e 6303F704 		beq	a4,a5,.L90
 964:../Firmware/GD32VW55x_standard_peripheral/Source/gd32vw55x_rcu.c ****     /* disable HXTAL to bypass mode */
 965:../Firmware/GD32VW55x_standard_peripheral/Source/gd32vw55x_rcu.c ****     case RCU_HXTAL:
 966:../Firmware/GD32VW55x_standard_peripheral/Source/gd32vw55x_rcu.c ****         reg = RCU_CTL;
 967:../Firmware/GD32VW55x_standard_peripheral/Source/gd32vw55x_rcu.c ****         RCU_CTL &= ~RCU_CTL_HXTALEN;
 968:../Firmware/GD32VW55x_standard_peripheral/Source/gd32vw55x_rcu.c ****         RCU_CTL = (reg & ~RCU_CTL_HXTALBPS);
 969:../Firmware/GD32VW55x_standard_peripheral/Source/gd32vw55x_rcu.c ****         break;
 970:../Firmware/GD32VW55x_standard_peripheral/Source/gd32vw55x_rcu.c ****     /* disable LXTAL to bypass mode */
 971:../Firmware/GD32VW55x_standard_peripheral/Source/gd32vw55x_rcu.c ****     case RCU_LXTAL:
 972:../Firmware/GD32VW55x_standard_peripheral/Source/gd32vw55x_rcu.c ****         reg = RCU_BDCTL;
 973:../Firmware/GD32VW55x_standard_peripheral/Source/gd32vw55x_rcu.c ****         RCU_BDCTL &= ~RCU_BDCTL_LXTALEN;
 974:../Firmware/GD32VW55x_standard_peripheral/Source/gd32vw55x_rcu.c ****         RCU_BDCTL = (reg & ~RCU_BDCTL_LXTALBPS);
 975:../Firmware/GD32VW55x_standard_peripheral/Source/gd32vw55x_rcu.c ****         break;
 976:../Firmware/GD32VW55x_standard_peripheral/Source/gd32vw55x_rcu.c ****     default:
 977:../Firmware/GD32VW55x_standard_peripheral/Source/gd32vw55x_rcu.c ****         break;
 2167              		.loc 1 977 9
 2168 0022 A5A8     		j	.L92
 2169              	.L89:
 966:../Firmware/GD32VW55x_standard_peripheral/Source/gd32vw55x_rcu.c ****         RCU_CTL &= ~RCU_CTL_HXTALEN;
 2170              		.loc 1 966 15
 2171 0024 B7470240 		li	a5,1073889280
 2172 0028 93870780 		addi	a5,a5,-2048
 966:../Firmware/GD32VW55x_standard_peripheral/Source/gd32vw55x_rcu.c ****         RCU_CTL &= ~RCU_CTL_HXTALEN;
 2173              		.loc 1 966 13
 2174 002c 9C43     		lw	a5,0(a5)
 2175 002e 2326F4FE 		sw	a5,-20(s0)
 967:../Firmware/GD32VW55x_standard_peripheral/Source/gd32vw55x_rcu.c ****         RCU_CTL = (reg & ~RCU_CTL_HXTALBPS);
 2176              		.loc 1 967 17
 2177 0032 B7470240 		li	a5,1073889280
 2178 0036 93870780 		addi	a5,a5,-2048
 2179 003a 9443     		lw	a3,0(a5)
 2180 003c B7470240 		li	a5,1073889280
 2181 0040 93870780 		addi	a5,a5,-2048
 2182 0044 4177     		li	a4,-65536
 2183 0046 7D17     		addi	a4,a4,-1
 2184 0048 758F     		and	a4,a3,a4
 2185 004a 98C3     		sw	a4,0(a5)
 968:../Firmware/GD32VW55x_standard_peripheral/Source/gd32vw55x_rcu.c ****         break;
 2186              		.loc 1 968 9
 2187 004c B7470240 		li	a5,1073889280
 2188 0050 93870780 		addi	a5,a5,-2048
 968:../Firmware/GD32VW55x_standard_peripheral/Source/gd32vw55x_rcu.c ****         break;
 2189              		.loc 1 968 24
 2190 0054 8326C4FE 		lw	a3,-20(s0)
 2191 0058 3707FCFF 		li	a4,-262144
 2192 005c 7D17     		addi	a4,a4,-1
 2193 005e 758F     		and	a4,a3,a4
 968:../Firmware/GD32VW55x_standard_peripheral/Source/gd32vw55x_rcu.c ****         break;
 2194              		.loc 1 968 17
 2195 0060 98C3     		sw	a4,0(a5)
 969:../Firmware/GD32VW55x_standard_peripheral/Source/gd32vw55x_rcu.c ****     /* disable LXTAL to bypass mode */
 2196              		.loc 1 969 9
 2197 0062 25A8     		j	.L92
 2198              	.L90:
 972:../Firmware/GD32VW55x_standard_peripheral/Source/gd32vw55x_rcu.c ****         RCU_BDCTL &= ~RCU_BDCTL_LXTALEN;
 2199              		.loc 1 972 15
 2200 0064 B7470240 		li	a5,1073889280
 2201 0068 93870787 		addi	a5,a5,-1936
 972:../Firmware/GD32VW55x_standard_peripheral/Source/gd32vw55x_rcu.c ****         RCU_BDCTL &= ~RCU_BDCTL_LXTALEN;
 2202              		.loc 1 972 13
 2203 006c 9C43     		lw	a5,0(a5)
 2204 006e 2326F4FE 		sw	a5,-20(s0)
 973:../Firmware/GD32VW55x_standard_peripheral/Source/gd32vw55x_rcu.c ****         RCU_BDCTL = (reg & ~RCU_BDCTL_LXTALBPS);
 2205              		.loc 1 973 19
 2206 0072 B7470240 		li	a5,1073889280
 2207 0076 93870787 		addi	a5,a5,-1936
 2208 007a 9843     		lw	a4,0(a5)
 2209 007c B7470240 		li	a5,1073889280
 2210 0080 93870787 		addi	a5,a5,-1936
 2211 0084 799B     		andi	a4,a4,-2
 2212 0086 98C3     		sw	a4,0(a5)
 974:../Firmware/GD32VW55x_standard_peripheral/Source/gd32vw55x_rcu.c ****         break;
 2213              		.loc 1 974 9
 2214 0088 B7470240 		li	a5,1073889280
 2215 008c 93870787 		addi	a5,a5,-1936
 974:../Firmware/GD32VW55x_standard_peripheral/Source/gd32vw55x_rcu.c ****         break;
 2216              		.loc 1 974 26
 2217 0090 0327C4FE 		lw	a4,-20(s0)
 2218 0094 6D9B     		andi	a4,a4,-5
 974:../Firmware/GD32VW55x_standard_peripheral/Source/gd32vw55x_rcu.c ****         break;
 2219              		.loc 1 974 19
 2220 0096 98C3     		sw	a4,0(a5)
 975:../Firmware/GD32VW55x_standard_peripheral/Source/gd32vw55x_rcu.c ****     default:
 2221              		.loc 1 975 9
 2222 0098 0100     		nop
 2223              	.L92:
 978:../Firmware/GD32VW55x_standard_peripheral/Source/gd32vw55x_rcu.c ****     }
 979:../Firmware/GD32VW55x_standard_peripheral/Source/gd32vw55x_rcu.c **** }
 2224              		.loc 1 979 1
 2225 009a 0100     		nop
 2226 009c 3254     		lw	s0,44(sp)
 2227              		.cfi_restore 8
 2228              		.cfi_def_cfa 2, 48
 2229 009e 4561     		addi	sp,sp,48
 2230              		.cfi_def_cfa_offset 0
 2231 00a0 8280     		jr	ra
 2232              		.cfi_endproc
 2233              	.LFE389:
 2235              		.section	.text.rcu_rf_hxtal_clock_monitor_enable,"ax",@progbits
 2236              		.align	1
 2237              		.globl	rcu_rf_hxtal_clock_monitor_enable
 2239              	rcu_rf_hxtal_clock_monitor_enable:
 2240              	.LFB390:
 980:../Firmware/GD32VW55x_standard_peripheral/Source/gd32vw55x_rcu.c **** 
 981:../Firmware/GD32VW55x_standard_peripheral/Source/gd32vw55x_rcu.c **** /*!
 982:../Firmware/GD32VW55x_standard_peripheral/Source/gd32vw55x_rcu.c ****     \brief      enable the RF HXTAL clock monitor
 983:../Firmware/GD32VW55x_standard_peripheral/Source/gd32vw55x_rcu.c ****     \param[in]  none
 984:../Firmware/GD32VW55x_standard_peripheral/Source/gd32vw55x_rcu.c ****     \param[out] none
 985:../Firmware/GD32VW55x_standard_peripheral/Source/gd32vw55x_rcu.c ****     \retval     none
 986:../Firmware/GD32VW55x_standard_peripheral/Source/gd32vw55x_rcu.c **** */
 987:../Firmware/GD32VW55x_standard_peripheral/Source/gd32vw55x_rcu.c **** void rcu_rf_hxtal_clock_monitor_enable(void)
 988:../Firmware/GD32VW55x_standard_peripheral/Source/gd32vw55x_rcu.c **** {
 2241              		.loc 1 988 1
 2242              		.cfi_startproc
 2243 0000 4111     		addi	sp,sp,-16
 2244              		.cfi_def_cfa_offset 16
 2245 0002 22C6     		sw	s0,12(sp)
 2246              		.cfi_offset 8, -4
 2247 0004 0008     		addi	s0,sp,16
 2248              		.cfi_def_cfa 8, 0
 989:../Firmware/GD32VW55x_standard_peripheral/Source/gd32vw55x_rcu.c ****     RCU_CTL |= RCU_CTL_RFCKMEN;
 2249              		.loc 1 989 13
 2250 0006 B7470240 		li	a5,1073889280
 2251 000a 93870780 		addi	a5,a5,-2048
 2252 000e 9443     		lw	a3,0(a5)
 2253 0010 B7470240 		li	a5,1073889280
 2254 0014 93870780 		addi	a5,a5,-2048
 2255 0018 37074000 		li	a4,4194304
 2256 001c 558F     		or	a4,a3,a4
 2257 001e 98C3     		sw	a4,0(a5)
 990:../Firmware/GD32VW55x_standard_peripheral/Source/gd32vw55x_rcu.c **** }
 2258              		.loc 1 990 1
 2259 0020 0100     		nop
 2260 0022 3244     		lw	s0,12(sp)
 2261              		.cfi_restore 8
 2262              		.cfi_def_cfa 2, 16
 2263 0024 4101     		addi	sp,sp,16
 2264              		.cfi_def_cfa_offset 0
 2265 0026 8280     		jr	ra
 2266              		.cfi_endproc
 2267              	.LFE390:
 2269              		.section	.text.rcu_rf_hxtal_clock_monitor_disable,"ax",@progbits
 2270              		.align	1
 2271              		.globl	rcu_rf_hxtal_clock_monitor_disable
 2273              	rcu_rf_hxtal_clock_monitor_disable:
 2274              	.LFB391:
 991:../Firmware/GD32VW55x_standard_peripheral/Source/gd32vw55x_rcu.c **** 
 992:../Firmware/GD32VW55x_standard_peripheral/Source/gd32vw55x_rcu.c **** /*!
 993:../Firmware/GD32VW55x_standard_peripheral/Source/gd32vw55x_rcu.c ****     \brief      disable the RF HXTAL clock monitor
 994:../Firmware/GD32VW55x_standard_peripheral/Source/gd32vw55x_rcu.c ****     \param[in]  none
 995:../Firmware/GD32VW55x_standard_peripheral/Source/gd32vw55x_rcu.c ****     \param[out] none
 996:../Firmware/GD32VW55x_standard_peripheral/Source/gd32vw55x_rcu.c ****     \retval     none
 997:../Firmware/GD32VW55x_standard_peripheral/Source/gd32vw55x_rcu.c **** */
 998:../Firmware/GD32VW55x_standard_peripheral/Source/gd32vw55x_rcu.c **** void rcu_rf_hxtal_clock_monitor_disable(void)
 999:../Firmware/GD32VW55x_standard_peripheral/Source/gd32vw55x_rcu.c **** {
 2275              		.loc 1 999 1
 2276              		.cfi_startproc
 2277 0000 4111     		addi	sp,sp,-16
 2278              		.cfi_def_cfa_offset 16
 2279 0002 22C6     		sw	s0,12(sp)
 2280              		.cfi_offset 8, -4
 2281 0004 0008     		addi	s0,sp,16
 2282              		.cfi_def_cfa 8, 0
1000:../Firmware/GD32VW55x_standard_peripheral/Source/gd32vw55x_rcu.c ****     RCU_CTL &= ~RCU_CTL_RFCKMEN;
 2283              		.loc 1 1000 13
 2284 0006 B7470240 		li	a5,1073889280
 2285 000a 93870780 		addi	a5,a5,-2048
 2286 000e 9443     		lw	a3,0(a5)
 2287 0010 B7470240 		li	a5,1073889280
 2288 0014 93870780 		addi	a5,a5,-2048
 2289 0018 3707C0FF 		li	a4,-4194304
 2290 001c 7D17     		addi	a4,a4,-1
 2291 001e 758F     		and	a4,a3,a4
 2292 0020 98C3     		sw	a4,0(a5)
1001:../Firmware/GD32VW55x_standard_peripheral/Source/gd32vw55x_rcu.c **** }
 2293              		.loc 1 1001 1
 2294 0022 0100     		nop
 2295 0024 3244     		lw	s0,12(sp)
 2296              		.cfi_restore 8
 2297              		.cfi_def_cfa 2, 16
 2298 0026 4101     		addi	sp,sp,16
 2299              		.cfi_def_cfa_offset 0
 2300 0028 8280     		jr	ra
 2301              		.cfi_endproc
 2302              	.LFE391:
 2304              		.section	.text.rcu_irc16m_adjust_value_set,"ax",@progbits
 2305              		.align	1
 2306              		.globl	rcu_irc16m_adjust_value_set
 2308              	rcu_irc16m_adjust_value_set:
 2309              	.LFB392:
1002:../Firmware/GD32VW55x_standard_peripheral/Source/gd32vw55x_rcu.c **** 
1003:../Firmware/GD32VW55x_standard_peripheral/Source/gd32vw55x_rcu.c **** /*!
1004:../Firmware/GD32VW55x_standard_peripheral/Source/gd32vw55x_rcu.c ****     \brief      set the IRC16M adjust value
1005:../Firmware/GD32VW55x_standard_peripheral/Source/gd32vw55x_rcu.c ****     \param[in]  irc16m_adjval: IRC16M adjust value, must be between 0 and 0x1F
1006:../Firmware/GD32VW55x_standard_peripheral/Source/gd32vw55x_rcu.c ****       \arg        0x00 - 0x1F
1007:../Firmware/GD32VW55x_standard_peripheral/Source/gd32vw55x_rcu.c ****     \param[out] none
1008:../Firmware/GD32VW55x_standard_peripheral/Source/gd32vw55x_rcu.c ****     \retval     none
1009:../Firmware/GD32VW55x_standard_peripheral/Source/gd32vw55x_rcu.c **** */
1010:../Firmware/GD32VW55x_standard_peripheral/Source/gd32vw55x_rcu.c **** void rcu_irc16m_adjust_value_set(uint32_t irc16m_adjval)
1011:../Firmware/GD32VW55x_standard_peripheral/Source/gd32vw55x_rcu.c **** {
 2310              		.loc 1 1011 1
 2311              		.cfi_startproc
 2312 0000 7971     		addi	sp,sp,-48
 2313              		.cfi_def_cfa_offset 48
 2314 0002 22D6     		sw	s0,44(sp)
 2315              		.cfi_offset 8, -4
 2316 0004 0018     		addi	s0,sp,48
 2317              		.cfi_def_cfa 8, 0
 2318 0006 232EA4FC 		sw	a0,-36(s0)
1012:../Firmware/GD32VW55x_standard_peripheral/Source/gd32vw55x_rcu.c ****     uint32_t reg;
1013:../Firmware/GD32VW55x_standard_peripheral/Source/gd32vw55x_rcu.c **** 
1014:../Firmware/GD32VW55x_standard_peripheral/Source/gd32vw55x_rcu.c ****     reg = RCU_CTL;
 2319              		.loc 1 1014 11
 2320 000a B7470240 		li	a5,1073889280
 2321 000e 93870780 		addi	a5,a5,-2048
 2322              		.loc 1 1014 9
 2323 0012 9C43     		lw	a5,0(a5)
 2324 0014 2326F4FE 		sw	a5,-20(s0)
1015:../Firmware/GD32VW55x_standard_peripheral/Source/gd32vw55x_rcu.c ****     /* reset the IRC16MADJ bits and set according to irc16m_adjval */
1016:../Firmware/GD32VW55x_standard_peripheral/Source/gd32vw55x_rcu.c ****     reg &= ~RCU_CTL_IRC16MADJ;
 2325              		.loc 1 1016 9
 2326 0018 8327C4FE 		lw	a5,-20(s0)
 2327 001c 93F777F0 		andi	a5,a5,-249
 2328 0020 2326F4FE 		sw	a5,-20(s0)
1017:../Firmware/GD32VW55x_standard_peripheral/Source/gd32vw55x_rcu.c ****     RCU_CTL = (reg | ((irc16m_adjval & RCU_IRC16M_ADJUST_MASK) << RCU_IRC16M_ADJUST_OFFSET));
 2329              		.loc 1 1017 64
 2330 0024 8327C4FD 		lw	a5,-36(s0)
 2331 0028 8E07     		slli	a5,a5,3
 2332 002a 93F6F70F 		andi	a3,a5,255
 2333              		.loc 1 1017 5
 2334 002e B7470240 		li	a5,1073889280
 2335 0032 93870780 		addi	a5,a5,-2048
 2336              		.loc 1 1017 20
 2337 0036 0327C4FE 		lw	a4,-20(s0)
 2338 003a 558F     		or	a4,a3,a4
 2339              		.loc 1 1017 13
 2340 003c 98C3     		sw	a4,0(a5)
1018:../Firmware/GD32VW55x_standard_peripheral/Source/gd32vw55x_rcu.c **** }
 2341              		.loc 1 1018 1
 2342 003e 0100     		nop
 2343 0040 3254     		lw	s0,44(sp)
 2344              		.cfi_restore 8
 2345              		.cfi_def_cfa 2, 48
 2346 0042 4561     		addi	sp,sp,48
 2347              		.cfi_def_cfa_offset 0
 2348 0044 8280     		jr	ra
 2349              		.cfi_endproc
 2350              	.LFE392:
 2352              		.section	.text.rcu_voltage_key_unlock,"ax",@progbits
 2353              		.align	1
 2354              		.globl	rcu_voltage_key_unlock
 2356              	rcu_voltage_key_unlock:
 2357              	.LFB393:
1019:../Firmware/GD32VW55x_standard_peripheral/Source/gd32vw55x_rcu.c **** 
1020:../Firmware/GD32VW55x_standard_peripheral/Source/gd32vw55x_rcu.c **** /*!
1021:../Firmware/GD32VW55x_standard_peripheral/Source/gd32vw55x_rcu.c ****     \brief      unlock the voltage key
1022:../Firmware/GD32VW55x_standard_peripheral/Source/gd32vw55x_rcu.c ****     \param[in]  none
1023:../Firmware/GD32VW55x_standard_peripheral/Source/gd32vw55x_rcu.c ****     \param[out] none
1024:../Firmware/GD32VW55x_standard_peripheral/Source/gd32vw55x_rcu.c ****     \retval     none
1025:../Firmware/GD32VW55x_standard_peripheral/Source/gd32vw55x_rcu.c **** */
1026:../Firmware/GD32VW55x_standard_peripheral/Source/gd32vw55x_rcu.c **** void rcu_voltage_key_unlock(void)
1027:../Firmware/GD32VW55x_standard_peripheral/Source/gd32vw55x_rcu.c **** {
 2358              		.loc 1 1027 1
 2359              		.cfi_startproc
 2360 0000 4111     		addi	sp,sp,-16
 2361              		.cfi_def_cfa_offset 16
 2362 0002 22C6     		sw	s0,12(sp)
 2363              		.cfi_offset 8, -4
 2364 0004 0008     		addi	s0,sp,16
 2365              		.cfi_def_cfa 8, 0
1028:../Firmware/GD32VW55x_standard_peripheral/Source/gd32vw55x_rcu.c ****     RCU_VKEY = RCU_VKEY_UNLOCK;
 2366              		.loc 1 1028 5
 2367 0006 B7470240 		li	a5,1073889280
 2368 000a 93870790 		addi	a5,a5,-1792
 2369              		.loc 1 1028 14
 2370 000e 37472B1A 		li	a4,439042048
 2371 0012 1307D7C4 		addi	a4,a4,-947
 2372 0016 98C3     		sw	a4,0(a5)
1029:../Firmware/GD32VW55x_standard_peripheral/Source/gd32vw55x_rcu.c **** }
 2373              		.loc 1 1029 1
 2374 0018 0100     		nop
 2375 001a 3244     		lw	s0,12(sp)
 2376              		.cfi_restore 8
 2377              		.cfi_def_cfa 2, 16
 2378 001c 4101     		addi	sp,sp,16
 2379              		.cfi_def_cfa_offset 0
 2380 001e 8280     		jr	ra
 2381              		.cfi_endproc
 2382              	.LFE393:
 2384              		.section	.text.rcu_deepsleep_voltage_set,"ax",@progbits
 2385              		.align	1
 2386              		.globl	rcu_deepsleep_voltage_set
 2388              	rcu_deepsleep_voltage_set:
 2389              	.LFB394:
1030:../Firmware/GD32VW55x_standard_peripheral/Source/gd32vw55x_rcu.c **** 
1031:../Firmware/GD32VW55x_standard_peripheral/Source/gd32vw55x_rcu.c **** /*!
1032:../Firmware/GD32VW55x_standard_peripheral/Source/gd32vw55x_rcu.c ****     \brief      deep-sleep mode voltage select
1033:../Firmware/GD32VW55x_standard_peripheral/Source/gd32vw55x_rcu.c ****     \param[in]  dsvol: deep sleep mode voltage
1034:../Firmware/GD32VW55x_standard_peripheral/Source/gd32vw55x_rcu.c ****                 only one parameter can be selected which is shown as below:
1035:../Firmware/GD32VW55x_standard_peripheral/Source/gd32vw55x_rcu.c ****       \arg        RCU_DEEPSLEEP_V_1_1: the core voltage is 1.1V
1036:../Firmware/GD32VW55x_standard_peripheral/Source/gd32vw55x_rcu.c ****       \arg        RCU_DEEPSLEEP_V_1_0: the core voltage is 1.0V
1037:../Firmware/GD32VW55x_standard_peripheral/Source/gd32vw55x_rcu.c ****       \arg        RCU_DEEPSLEEP_V_0_9: the core voltage is 0.9V
1038:../Firmware/GD32VW55x_standard_peripheral/Source/gd32vw55x_rcu.c ****     \param[out] none
1039:../Firmware/GD32VW55x_standard_peripheral/Source/gd32vw55x_rcu.c ****     \retval     none
1040:../Firmware/GD32VW55x_standard_peripheral/Source/gd32vw55x_rcu.c **** */
1041:../Firmware/GD32VW55x_standard_peripheral/Source/gd32vw55x_rcu.c **** void rcu_deepsleep_voltage_set(uint32_t dsvol)
1042:../Firmware/GD32VW55x_standard_peripheral/Source/gd32vw55x_rcu.c **** {
 2390              		.loc 1 1042 1
 2391              		.cfi_startproc
 2392 0000 0111     		addi	sp,sp,-32
 2393              		.cfi_def_cfa_offset 32
 2394 0002 22CE     		sw	s0,28(sp)
 2395              		.cfi_offset 8, -4
 2396 0004 0010     		addi	s0,sp,32
 2397              		.cfi_def_cfa 8, 0
 2398 0006 2326A4FE 		sw	a0,-20(s0)
1043:../Firmware/GD32VW55x_standard_peripheral/Source/gd32vw55x_rcu.c ****     dsvol &= RCU_DSV_DSLPVS;
 2399              		.loc 1 1043 11
 2400 000a 8327C4FE 		lw	a5,-20(s0)
 2401 000e 8D8B     		andi	a5,a5,3
 2402 0010 2326F4FE 		sw	a5,-20(s0)
1044:../Firmware/GD32VW55x_standard_peripheral/Source/gd32vw55x_rcu.c ****     RCU_DSV = dsvol;
 2403              		.loc 1 1044 5
 2404 0014 B7470240 		li	a5,1073889280
 2405 0018 93874793 		addi	a5,a5,-1740
 2406              		.loc 1 1044 13
 2407 001c 0327C4FE 		lw	a4,-20(s0)
 2408 0020 98C3     		sw	a4,0(a5)
1045:../Firmware/GD32VW55x_standard_peripheral/Source/gd32vw55x_rcu.c **** }
 2409              		.loc 1 1045 1
 2410 0022 0100     		nop
 2411 0024 7244     		lw	s0,28(sp)
 2412              		.cfi_restore 8
 2413              		.cfi_def_cfa 2, 32
 2414 0026 0561     		addi	sp,sp,32
 2415              		.cfi_def_cfa_offset 0
 2416 0028 8280     		jr	ra
 2417              		.cfi_endproc
 2418              	.LFE394:
 2420              		.section	.rodata
 2421              		.align	2
 2422              	.LC1:
 2423 0000 00       		.string	""
 2424 0001 00       		.string	""
 2425 0002 00       		.string	""
 2426 0003 00       		.string	""
 2427 0004 00       		.string	""
 2428 0005 00       		.string	""
 2429 0006 00       		.string	""
 2430 0007 00       		.string	""
 2431 0008 01020304 		.ascii	"\001\002\003\004\006\007\b\t"
 2431      06070809 
 2432              		.align	2
 2433              	.LC0:
 2434 0010 00B0710B 		.word	192000000
 2435 0014 001C4E0E 		.word	240000000
 2436 0018 00D01213 		.word	320000000
 2437 001c 00389C1C 		.word	480000000
 2438              		.section	.text.rcu_clock_freq_get,"ax",@progbits
 2439              		.align	1
 2440              		.globl	rcu_clock_freq_get
 2442              	rcu_clock_freq_get:
 2443              	.LFB395:
1046:../Firmware/GD32VW55x_standard_peripheral/Source/gd32vw55x_rcu.c **** 
1047:../Firmware/GD32VW55x_standard_peripheral/Source/gd32vw55x_rcu.c **** /*!
1048:../Firmware/GD32VW55x_standard_peripheral/Source/gd32vw55x_rcu.c ****     \brief      get the system clock, bus and peripheral clock frequency
1049:../Firmware/GD32VW55x_standard_peripheral/Source/gd32vw55x_rcu.c ****     \param[in]  clock: the clock frequency which to get
1050:../Firmware/GD32VW55x_standard_peripheral/Source/gd32vw55x_rcu.c ****                 only one parameter can be selected which is shown as below:
1051:../Firmware/GD32VW55x_standard_peripheral/Source/gd32vw55x_rcu.c ****       \arg        CK_SYS: system clock frequency
1052:../Firmware/GD32VW55x_standard_peripheral/Source/gd32vw55x_rcu.c ****       \arg        CK_AHB: AHB clock frequency
1053:../Firmware/GD32VW55x_standard_peripheral/Source/gd32vw55x_rcu.c ****       \arg        CK_APB1: APB1 clock frequency
1054:../Firmware/GD32VW55x_standard_peripheral/Source/gd32vw55x_rcu.c ****       \arg        CK_APB2: APB2 clock frequency
1055:../Firmware/GD32VW55x_standard_peripheral/Source/gd32vw55x_rcu.c ****       \arg        CK_USART0: USART0 clock frequency
1056:../Firmware/GD32VW55x_standard_peripheral/Source/gd32vw55x_rcu.c ****       \arg        CK_I2C0: I2C0 clock frequency
1057:../Firmware/GD32VW55x_standard_peripheral/Source/gd32vw55x_rcu.c ****     \param[out] none
1058:../Firmware/GD32VW55x_standard_peripheral/Source/gd32vw55x_rcu.c ****     \retval     clock frequency of system, AHB, APB1, APB2
1059:../Firmware/GD32VW55x_standard_peripheral/Source/gd32vw55x_rcu.c **** */
1060:../Firmware/GD32VW55x_standard_peripheral/Source/gd32vw55x_rcu.c **** uint32_t rcu_clock_freq_get(rcu_clock_freq_enum clock)
1061:../Firmware/GD32VW55x_standard_peripheral/Source/gd32vw55x_rcu.c **** {
 2444              		.loc 1 1061 1
 2445              		.cfi_startproc
 2446 0000 1971     		addi	sp,sp,-128
 2447              		.cfi_def_cfa_offset 128
 2448 0002 A2DE     		sw	s0,124(sp)
 2449              		.cfi_offset 8, -4
 2450 0004 0001     		addi	s0,sp,128
 2451              		.cfi_def_cfa 8, 0
 2452 0006 2326A4F8 		sw	a0,-116(s0)
1062:../Firmware/GD32VW55x_standard_peripheral/Source/gd32vw55x_rcu.c ****     uint32_t sws, ck_freq = 0U;
 2453              		.loc 1 1062 19
 2454 000a 232604FE 		sw	zero,-20(s0)
1063:../Firmware/GD32VW55x_standard_peripheral/Source/gd32vw55x_rcu.c ****     uint32_t cksys_freq, ahb_freq, apb1_freq, apb2_freq;
1064:../Firmware/GD32VW55x_standard_peripheral/Source/gd32vw55x_rcu.c ****     uint32_t usart0_freq = 0U,i2c0_freq = 0U;
 2455              		.loc 1 1064 14
 2456 000e 232204FE 		sw	zero,-28(s0)
 2457              		.loc 1 1064 31
 2458 0012 232004FE 		sw	zero,-32(s0)
1065:../Firmware/GD32VW55x_standard_peripheral/Source/gd32vw55x_rcu.c ****     uint32_t plldigpsc, idx, clk_exp;
1066:../Firmware/GD32VW55x_standard_peripheral/Source/gd32vw55x_rcu.c **** 
1067:../Firmware/GD32VW55x_standard_peripheral/Source/gd32vw55x_rcu.c ****     /* exponent of AHB, APB1 and APB2 clock divider */
1068:../Firmware/GD32VW55x_standard_peripheral/Source/gd32vw55x_rcu.c ****     const uint8_t ahb_exp[16] = {0, 0, 0, 0, 0, 0, 0, 0, 1, 2, 3, 4, 6, 7, 8, 9};
 2459              		.loc 1 1068 19
 2460 0016 97070000 		lla	a5,.LC1
 2460      93870700 
 2461 001e 9043     		lw	a2,0(a5)
 2462 0020 D443     		lw	a3,4(a5)
 2463 0022 9847     		lw	a4,8(a5)
 2464 0024 DC47     		lw	a5,12(a5)
 2465 0026 232AC4FA 		sw	a2,-76(s0)
 2466 002a 232CD4FA 		sw	a3,-72(s0)
 2467 002e 232EE4FA 		sw	a4,-68(s0)
 2468 0032 2320F4FC 		sw	a5,-64(s0)
1069:../Firmware/GD32VW55x_standard_peripheral/Source/gd32vw55x_rcu.c ****     const uint8_t apb1_exp[8] = {0, 0, 0, 0, 1, 2, 3, 4};
 2469              		.loc 1 1069 19
 2470 0036 232604FA 		sw	zero,-84(s0)
 2471 003a B7070304 		li	a5,67305472
 2472 003e 93871720 		addi	a5,a5,513
 2473 0042 2328F4FA 		sw	a5,-80(s0)
1070:../Firmware/GD32VW55x_standard_peripheral/Source/gd32vw55x_rcu.c ****     const uint8_t apb2_exp[8] = {0, 0, 0, 0, 1, 2, 3, 4};
 2474              		.loc 1 1070 19
 2475 0046 232204FA 		sw	zero,-92(s0)
 2476 004a B7070304 		li	a5,67305472
 2477 004e 93871720 		addi	a5,a5,513
 2478 0052 2324F4FA 		sw	a5,-88(s0)
1071:../Firmware/GD32VW55x_standard_peripheral/Source/gd32vw55x_rcu.c **** 
1072:../Firmware/GD32VW55x_standard_peripheral/Source/gd32vw55x_rcu.c ****     const uint32_t plldig_oclk[4] = {192000000,240000000,320000000,480000000};
 2479              		.loc 1 1072 20
 2480 0056 97070000 		lla	a5,.LC0
 2480      93870700 
 2481 005e 9043     		lw	a2,0(a5)
 2482 0060 D443     		lw	a3,4(a5)
 2483 0062 9847     		lw	a4,8(a5)
 2484 0064 DC47     		lw	a5,12(a5)
 2485 0066 232AC4F8 		sw	a2,-108(s0)
 2486 006a 232CD4F8 		sw	a3,-104(s0)
 2487 006e 232EE4F8 		sw	a4,-100(s0)
 2488 0072 2320F4FA 		sw	a5,-96(s0)
1073:../Firmware/GD32VW55x_standard_peripheral/Source/gd32vw55x_rcu.c **** 
1074:../Firmware/GD32VW55x_standard_peripheral/Source/gd32vw55x_rcu.c ****     sws = GET_BITS(RCU_CFG0, 2, 3);
 2489              		.loc 1 1074 11
 2490 0076 B7470240 		li	a5,1073889280
 2491 007a 93878780 		addi	a5,a5,-2040
 2492 007e 9C43     		lw	a5,0(a5)
 2493 0080 8983     		srli	a5,a5,2
 2494              		.loc 1 1074 9
 2495 0082 8D8B     		andi	a5,a5,3
 2496 0084 232EF4FC 		sw	a5,-36(s0)
1075:../Firmware/GD32VW55x_standard_peripheral/Source/gd32vw55x_rcu.c ****     switch(sws){
 2497              		.loc 1 1075 5
 2498 0088 0327C4FD 		lw	a4,-36(s0)
 2499 008c 8947     		li	a5,2
 2500 008e 630EF702 		beq	a4,a5,.L99
 2501 0092 0327C4FD 		lw	a4,-36(s0)
 2502 0096 8947     		li	a5,2
 2503 0098 63ECE706 		bgtu	a4,a5,.L100
 2504 009c 8327C4FD 		lw	a5,-36(s0)
 2505 00a0 99C7     		beq	a5,zero,.L101
 2506 00a2 0327C4FD 		lw	a4,-36(s0)
 2507 00a6 8547     		li	a5,1
 2508 00a8 630AF700 		beq	a4,a5,.L102
 2509 00ac 95A0     		j	.L100
 2510              	.L101:
1076:../Firmware/GD32VW55x_standard_peripheral/Source/gd32vw55x_rcu.c ****     /* IRC16M is selected as CK_SYS */
1077:../Firmware/GD32VW55x_standard_peripheral/Source/gd32vw55x_rcu.c ****     case SEL_IRC16M:
1078:../Firmware/GD32VW55x_standard_peripheral/Source/gd32vw55x_rcu.c ****         cksys_freq = IRC16M_VALUE;
 2511              		.loc 1 1078 20
 2512 00ae B727F400 		li	a5,15998976
 2513 00b2 93870740 		addi	a5,a5,1024
 2514 00b6 2324F4FE 		sw	a5,-24(s0)
1079:../Firmware/GD32VW55x_standard_peripheral/Source/gd32vw55x_rcu.c ****         break;
 2515              		.loc 1 1079 9
 2516 00ba 95A0     		j	.L103
 2517              	.L102:
1080:../Firmware/GD32VW55x_standard_peripheral/Source/gd32vw55x_rcu.c ****     /* HXTAL is selected as CK_SYS */
1081:../Firmware/GD32VW55x_standard_peripheral/Source/gd32vw55x_rcu.c ****     case SEL_HXTAL:
1082:../Firmware/GD32VW55x_standard_peripheral/Source/gd32vw55x_rcu.c ****         cksys_freq = HXTAL_VALUE;
 2518              		.loc 1 1082 20
 2519 00bc B7676202 		li	a5,40001536
 2520 00c0 938707A0 		addi	a5,a5,-1536
 2521 00c4 2324F4FE 		sw	a5,-24(s0)
1083:../Firmware/GD32VW55x_standard_peripheral/Source/gd32vw55x_rcu.c ****         break;
 2522              		.loc 1 1083 9
 2523 00c8 99A8     		j	.L103
 2524              	.L99:
1084:../Firmware/GD32VW55x_standard_peripheral/Source/gd32vw55x_rcu.c ****     /* PLLP is selected as CK_SYS */
1085:../Firmware/GD32VW55x_standard_peripheral/Source/gd32vw55x_rcu.c ****     case SEL_PLLDIG:
1086:../Firmware/GD32VW55x_standard_peripheral/Source/gd32vw55x_rcu.c ****         idx = GET_BITS(RCU_PLLDIGCFG0,24,25);
 2525              		.loc 1 1086 15
 2526 00ca B7470240 		li	a5,1073889280
 2527 00ce 93874788 		addi	a5,a5,-1916
 2528 00d2 9C43     		lw	a5,0(a5)
 2529 00d4 E183     		srli	a5,a5,24
 2530              		.loc 1 1086 13
 2531 00d6 8D8B     		andi	a5,a5,3
 2532 00d8 232CF4FC 		sw	a5,-40(s0)
1087:../Firmware/GD32VW55x_standard_peripheral/Source/gd32vw55x_rcu.c ****         plldigpsc = GET_BITS(RCU_PLLDIGCFG0,26U,31U)+1;
 2533              		.loc 1 1087 21
 2534 00dc B7470240 		li	a5,1073889280
 2535 00e0 93874788 		addi	a5,a5,-1916
 2536 00e4 9C43     		lw	a5,0(a5)
 2537 00e6 E983     		srli	a5,a5,26
 2538 00e8 93F7F703 		andi	a5,a5,63
 2539              		.loc 1 1087 19
 2540 00ec 8507     		addi	a5,a5,1
 2541 00ee 232AF4FC 		sw	a5,-44(s0)
1088:../Firmware/GD32VW55x_standard_peripheral/Source/gd32vw55x_rcu.c ****         cksys_freq = plldig_oclk[idx]/plldigpsc;
 2542              		.loc 1 1088 33
 2543 00f2 832784FD 		lw	a5,-40(s0)
 2544 00f6 8A07     		slli	a5,a5,2
 2545 00f8 130704FF 		addi	a4,s0,-16
 2546 00fc BA97     		add	a5,a4,a5
 2547 00fe 03A747FA 		lw	a4,-92(a5)
 2548              		.loc 1 1088 20
 2549 0102 832744FD 		lw	a5,-44(s0)
 2550 0106 B357F702 		divu	a5,a4,a5
 2551 010a 2324F4FE 		sw	a5,-24(s0)
1089:../Firmware/GD32VW55x_standard_peripheral/Source/gd32vw55x_rcu.c ****         break;
 2552              		.loc 1 1089 9
 2553 010e 01A8     		j	.L103
 2554              	.L100:
1090:../Firmware/GD32VW55x_standard_peripheral/Source/gd32vw55x_rcu.c ****     /* IRC16M is selected as CK_SYS */
1091:../Firmware/GD32VW55x_standard_peripheral/Source/gd32vw55x_rcu.c ****     default:
1092:../Firmware/GD32VW55x_standard_peripheral/Source/gd32vw55x_rcu.c ****         cksys_freq = IRC16M_VALUE;
 2555              		.loc 1 1092 20
 2556 0110 B727F400 		li	a5,15998976
 2557 0114 93870740 		addi	a5,a5,1024
 2558 0118 2324F4FE 		sw	a5,-24(s0)
1093:../Firmware/GD32VW55x_standard_peripheral/Source/gd32vw55x_rcu.c ****         break;
 2559              		.loc 1 1093 9
 2560 011c 0100     		nop
 2561              	.L103:
1094:../Firmware/GD32VW55x_standard_peripheral/Source/gd32vw55x_rcu.c ****     }
1095:../Firmware/GD32VW55x_standard_peripheral/Source/gd32vw55x_rcu.c ****     /* calculate AHB clock frequency */
1096:../Firmware/GD32VW55x_standard_peripheral/Source/gd32vw55x_rcu.c ****     idx = GET_BITS(RCU_CFG0, 4, 7);
 2562              		.loc 1 1096 11
 2563 011e B7470240 		li	a5,1073889280
 2564 0122 93878780 		addi	a5,a5,-2040
 2565 0126 9C43     		lw	a5,0(a5)
 2566 0128 9183     		srli	a5,a5,4
 2567              		.loc 1 1096 9
 2568 012a BD8B     		andi	a5,a5,15
 2569 012c 232CF4FC 		sw	a5,-40(s0)
1097:../Firmware/GD32VW55x_standard_peripheral/Source/gd32vw55x_rcu.c ****     clk_exp = ahb_exp[idx];
 2570              		.loc 1 1097 22
 2571 0130 832784FD 		lw	a5,-40(s0)
 2572 0134 130704FF 		addi	a4,s0,-16
 2573 0138 BA97     		add	a5,a4,a5
 2574 013a 83C747FC 		lbu	a5,-60(a5)
 2575              		.loc 1 1097 13
 2576 013e 2328F4FC 		sw	a5,-48(s0)
1098:../Firmware/GD32VW55x_standard_peripheral/Source/gd32vw55x_rcu.c ****     ahb_freq = cksys_freq >> clk_exp;
 2577              		.loc 1 1098 14
 2578 0142 832704FD 		lw	a5,-48(s0)
 2579 0146 032784FE 		lw	a4,-24(s0)
 2580 014a B357F700 		srl	a5,a4,a5
 2581 014e 2326F4FC 		sw	a5,-52(s0)
1099:../Firmware/GD32VW55x_standard_peripheral/Source/gd32vw55x_rcu.c **** 
1100:../Firmware/GD32VW55x_standard_peripheral/Source/gd32vw55x_rcu.c ****     /* calculate APB1 clock frequency */
1101:../Firmware/GD32VW55x_standard_peripheral/Source/gd32vw55x_rcu.c ****     idx = GET_BITS(RCU_CFG0, 10, 12);
 2582              		.loc 1 1101 11
 2583 0152 B7470240 		li	a5,1073889280
 2584 0156 93878780 		addi	a5,a5,-2040
 2585 015a 9C43     		lw	a5,0(a5)
 2586 015c A983     		srli	a5,a5,10
 2587              		.loc 1 1101 9
 2588 015e 9D8B     		andi	a5,a5,7
 2589 0160 232CF4FC 		sw	a5,-40(s0)
1102:../Firmware/GD32VW55x_standard_peripheral/Source/gd32vw55x_rcu.c ****     clk_exp = apb1_exp[idx];
 2590              		.loc 1 1102 23
 2591 0164 832784FD 		lw	a5,-40(s0)
 2592 0168 130704FF 		addi	a4,s0,-16
 2593 016c BA97     		add	a5,a4,a5
 2594 016e 83C7C7FB 		lbu	a5,-68(a5)
 2595              		.loc 1 1102 13
 2596 0172 2328F4FC 		sw	a5,-48(s0)
1103:../Firmware/GD32VW55x_standard_peripheral/Source/gd32vw55x_rcu.c ****     apb1_freq = ahb_freq >> clk_exp;
 2597              		.loc 1 1103 15
 2598 0176 832704FD 		lw	a5,-48(s0)
 2599 017a 0327C4FC 		lw	a4,-52(s0)
 2600 017e B357F700 		srl	a5,a4,a5
 2601 0182 2324F4FC 		sw	a5,-56(s0)
1104:../Firmware/GD32VW55x_standard_peripheral/Source/gd32vw55x_rcu.c **** 
1105:../Firmware/GD32VW55x_standard_peripheral/Source/gd32vw55x_rcu.c ****     /* calculate APB2 clock frequency */
1106:../Firmware/GD32VW55x_standard_peripheral/Source/gd32vw55x_rcu.c ****     idx = GET_BITS(RCU_CFG0, 13, 15);
 2602              		.loc 1 1106 11
 2603 0186 B7470240 		li	a5,1073889280
 2604 018a 93878780 		addi	a5,a5,-2040
 2605 018e 9C43     		lw	a5,0(a5)
 2606 0190 B583     		srli	a5,a5,13
 2607              		.loc 1 1106 9
 2608 0192 9D8B     		andi	a5,a5,7
 2609 0194 232CF4FC 		sw	a5,-40(s0)
1107:../Firmware/GD32VW55x_standard_peripheral/Source/gd32vw55x_rcu.c ****     clk_exp = apb2_exp[idx];
 2610              		.loc 1 1107 23
 2611 0198 832784FD 		lw	a5,-40(s0)
 2612 019c 130704FF 		addi	a4,s0,-16
 2613 01a0 BA97     		add	a5,a4,a5
 2614 01a2 83C747FB 		lbu	a5,-76(a5)
 2615              		.loc 1 1107 13
 2616 01a6 2328F4FC 		sw	a5,-48(s0)
1108:../Firmware/GD32VW55x_standard_peripheral/Source/gd32vw55x_rcu.c ****     apb2_freq = ahb_freq >> clk_exp;
 2617              		.loc 1 1108 15
 2618 01aa 832704FD 		lw	a5,-48(s0)
 2619 01ae 0327C4FC 		lw	a4,-52(s0)
 2620 01b2 B357F700 		srl	a5,a4,a5
 2621 01b6 2322F4FC 		sw	a5,-60(s0)
 2622 01ba 0327C4F8 		lw	a4,-116(s0)
 2623 01be 9547     		li	a5,5
 2624 01c0 63E2E714 		bgtu	a4,a5,.L121
 2625 01c4 8327C4F8 		lw	a5,-116(s0)
 2626 01c8 13972700 		slli	a4,a5,2
 2627 01cc 97070000 		lla	a5,.L106
 2627      93870700 
 2628 01d4 BA97     		add	a5,a4,a5
 2629 01d6 9843     		lw	a4,0(a5)
 2630 01d8 97070000 		lla	a5,.L106
 2630      93870700 
 2631 01e0 BA97     		add	a5,a4,a5
 2632 01e2 8287     		jr	a5
 2633              		.section	.rodata.rcu_clock_freq_get,"a",@progbits
 2634              		.align	2
 2635              		.align	2
 2636              	.L106:
 2637 0000 00000000 		.word	.L111-.L106
 2638 0004 00000000 		.word	.L110-.L106
 2639 0008 00000000 		.word	.L109-.L106
 2640 000c 00000000 		.word	.L108-.L106
 2641 0010 00000000 		.word	.L107-.L106
 2642 0014 00000000 		.word	.L105-.L106
 2643              		.section	.text.rcu_clock_freq_get
 2644              	.L111:
1109:../Firmware/GD32VW55x_standard_peripheral/Source/gd32vw55x_rcu.c **** 
1110:../Firmware/GD32VW55x_standard_peripheral/Source/gd32vw55x_rcu.c ****     /* return the clocks frequency */
1111:../Firmware/GD32VW55x_standard_peripheral/Source/gd32vw55x_rcu.c ****     switch(clock){
1112:../Firmware/GD32VW55x_standard_peripheral/Source/gd32vw55x_rcu.c ****     case CK_SYS:
1113:../Firmware/GD32VW55x_standard_peripheral/Source/gd32vw55x_rcu.c ****         ck_freq = cksys_freq;
 2645              		.loc 1 1113 17
 2646 01e4 832784FE 		lw	a5,-24(s0)
 2647 01e8 2326F4FE 		sw	a5,-20(s0)
1114:../Firmware/GD32VW55x_standard_peripheral/Source/gd32vw55x_rcu.c ****         break;
 2648              		.loc 1 1114 9
 2649 01ec 29AA     		j	.L112
 2650              	.L110:
1115:../Firmware/GD32VW55x_standard_peripheral/Source/gd32vw55x_rcu.c ****     case CK_AHB:
1116:../Firmware/GD32VW55x_standard_peripheral/Source/gd32vw55x_rcu.c ****         ck_freq = ahb_freq;
 2651              		.loc 1 1116 17
 2652 01ee 8327C4FC 		lw	a5,-52(s0)
 2653 01f2 2326F4FE 		sw	a5,-20(s0)
1117:../Firmware/GD32VW55x_standard_peripheral/Source/gd32vw55x_rcu.c ****         break;
 2654              		.loc 1 1117 9
 2655 01f6 01AA     		j	.L112
 2656              	.L109:
1118:../Firmware/GD32VW55x_standard_peripheral/Source/gd32vw55x_rcu.c ****     case CK_APB1:
1119:../Firmware/GD32VW55x_standard_peripheral/Source/gd32vw55x_rcu.c ****         ck_freq = apb1_freq;
 2657              		.loc 1 1119 17
 2658 01f8 832784FC 		lw	a5,-56(s0)
 2659 01fc 2326F4FE 		sw	a5,-20(s0)
1120:../Firmware/GD32VW55x_standard_peripheral/Source/gd32vw55x_rcu.c ****         break;
 2660              		.loc 1 1120 9
 2661 0200 19A2     		j	.L112
 2662              	.L108:
1121:../Firmware/GD32VW55x_standard_peripheral/Source/gd32vw55x_rcu.c ****     case CK_APB2:
1122:../Firmware/GD32VW55x_standard_peripheral/Source/gd32vw55x_rcu.c ****         ck_freq = apb2_freq;
 2663              		.loc 1 1122 17
 2664 0202 832744FC 		lw	a5,-60(s0)
 2665 0206 2326F4FE 		sw	a5,-20(s0)
1123:../Firmware/GD32VW55x_standard_peripheral/Source/gd32vw55x_rcu.c ****         break;
 2666              		.loc 1 1123 9
 2667 020a F5A8     		j	.L112
 2668              	.L107:
1124:../Firmware/GD32VW55x_standard_peripheral/Source/gd32vw55x_rcu.c ****     case CK_USART0:
1125:../Firmware/GD32VW55x_standard_peripheral/Source/gd32vw55x_rcu.c ****         /* calculate USART0 clock frequency */
1126:../Firmware/GD32VW55x_standard_peripheral/Source/gd32vw55x_rcu.c ****         if(RCU_USART0SRC_CKAPB1 == (RCU_CFG1 & RCU_CFG1_USART0SEL)){
 2669              		.loc 1 1126 37
 2670 020c B7470240 		li	a5,1073889280
 2671 0210 9387C788 		addi	a5,a5,-1908
 2672 0214 9843     		lw	a4,0(a5)
 2673              		.loc 1 1126 46
 2674 0216 B70700C0 		li	a5,-1073741824
 2675 021a F98F     		and	a5,a4,a5
 2676              		.loc 1 1126 11
 2677 021c 91E7     		bne	a5,zero,.L113
1127:../Firmware/GD32VW55x_standard_peripheral/Source/gd32vw55x_rcu.c ****             usart0_freq = apb1_freq;
 2678              		.loc 1 1127 25
 2679 021e 832784FC 		lw	a5,-56(s0)
 2680 0222 2322F4FE 		sw	a5,-28(s0)
 2681 0226 A5A0     		j	.L114
 2682              	.L113:
1128:../Firmware/GD32VW55x_standard_peripheral/Source/gd32vw55x_rcu.c ****         }else if(RCU_USART0SRC_CKSYS == (RCU_CFG1 & RCU_CFG1_USART0SEL)){
 2683              		.loc 1 1128 42
 2684 0228 B7470240 		li	a5,1073889280
 2685 022c 9387C788 		addi	a5,a5,-1908
 2686 0230 9843     		lw	a4,0(a5)
 2687              		.loc 1 1128 51
 2688 0232 B70700C0 		li	a5,-1073741824
 2689 0236 7D8F     		and	a4,a4,a5
 2690              		.loc 1 1128 17
 2691 0238 B7070040 		li	a5,1073741824
 2692 023c 6317F700 		bne	a4,a5,.L115
1129:../Firmware/GD32VW55x_standard_peripheral/Source/gd32vw55x_rcu.c ****             usart0_freq = cksys_freq;
 2693              		.loc 1 1129 25
 2694 0240 832784FE 		lw	a5,-24(s0)
 2695 0244 2322F4FE 		sw	a5,-28(s0)
 2696 0248 99A0     		j	.L114
 2697              	.L115:
1130:../Firmware/GD32VW55x_standard_peripheral/Source/gd32vw55x_rcu.c ****         }else if(RCU_USART0SRC_LXTAL == (RCU_CFG1 & RCU_CFG1_USART0SEL)){
 2698              		.loc 1 1130 42
 2699 024a B7470240 		li	a5,1073889280
 2700 024e 9387C788 		addi	a5,a5,-1908
 2701 0252 9843     		lw	a4,0(a5)
 2702              		.loc 1 1130 51
 2703 0254 B70700C0 		li	a5,-1073741824
 2704 0258 7D8F     		and	a4,a4,a5
 2705              		.loc 1 1130 17
 2706 025a B7070080 		li	a5,-2147483648
 2707 025e 6316F700 		bne	a4,a5,.L116
1131:../Firmware/GD32VW55x_standard_peripheral/Source/gd32vw55x_rcu.c ****             usart0_freq = LXTAL_VALUE;
 2708              		.loc 1 1131 25
 2709 0262 A167     		li	a5,32768
 2710 0264 2322F4FE 		sw	a5,-28(s0)
 2711 0268 1DA0     		j	.L114
 2712              	.L116:
1132:../Firmware/GD32VW55x_standard_peripheral/Source/gd32vw55x_rcu.c ****         }else if(RCU_USART0SRC_IRC16M == (RCU_CFG1 & RCU_CFG1_USART0SEL)){
 2713              		.loc 1 1132 43
 2714 026a B7470240 		li	a5,1073889280
 2715 026e 9387C788 		addi	a5,a5,-1908
 2716 0272 9843     		lw	a4,0(a5)
 2717              		.loc 1 1132 52
 2718 0274 B70700C0 		li	a5,-1073741824
 2719 0278 7D8F     		and	a4,a4,a5
 2720              		.loc 1 1132 17
 2721 027a B70700C0 		li	a5,-1073741824
 2722 027e 6318F700 		bne	a4,a5,.L114
1133:../Firmware/GD32VW55x_standard_peripheral/Source/gd32vw55x_rcu.c ****             usart0_freq = IRC16M_VALUE;
 2723              		.loc 1 1133 25
 2724 0282 B727F400 		li	a5,15998976
 2725 0286 93870740 		addi	a5,a5,1024
 2726 028a 2322F4FE 		sw	a5,-28(s0)
 2727              	.L114:
1134:../Firmware/GD32VW55x_standard_peripheral/Source/gd32vw55x_rcu.c ****         }else{
1135:../Firmware/GD32VW55x_standard_peripheral/Source/gd32vw55x_rcu.c ****         }
1136:../Firmware/GD32VW55x_standard_peripheral/Source/gd32vw55x_rcu.c ****         ck_freq = usart0_freq;
 2728              		.loc 1 1136 17
 2729 028e 832744FE 		lw	a5,-28(s0)
 2730 0292 2326F4FE 		sw	a5,-20(s0)
1137:../Firmware/GD32VW55x_standard_peripheral/Source/gd32vw55x_rcu.c ****         break;
 2731              		.loc 1 1137 9
 2732 0296 85A8     		j	.L112
 2733              	.L105:
1138:../Firmware/GD32VW55x_standard_peripheral/Source/gd32vw55x_rcu.c ****     case CK_I2C0:
1139:../Firmware/GD32VW55x_standard_peripheral/Source/gd32vw55x_rcu.c ****         /* calculate I2C0 clock frequency */
1140:../Firmware/GD32VW55x_standard_peripheral/Source/gd32vw55x_rcu.c ****         if(RCU_I2C0SRC_CKAPB1 == (RCU_CFG1 & RCU_CFG1_I2C0SEL)){
 2734              		.loc 1 1140 35
 2735 0298 B7470240 		li	a5,1073889280
 2736 029c 9387C788 		addi	a5,a5,-1908
 2737 02a0 9843     		lw	a4,0(a5)
 2738              		.loc 1 1140 44
 2739 02a2 B707000C 		li	a5,201326592
 2740 02a6 F98F     		and	a5,a4,a5
 2741              		.loc 1 1140 11
 2742 02a8 91E7     		bne	a5,zero,.L117
1141:../Firmware/GD32VW55x_standard_peripheral/Source/gd32vw55x_rcu.c ****             i2c0_freq = apb1_freq;
 2743              		.loc 1 1141 23
 2744 02aa 832784FC 		lw	a5,-56(s0)
 2745 02ae 2320F4FE 		sw	a5,-32(s0)
 2746 02b2 A1A0     		j	.L118
 2747              	.L117:
1142:../Firmware/GD32VW55x_standard_peripheral/Source/gd32vw55x_rcu.c ****         }else if(RCU_I2C0SRC_CKSYS == (RCU_CFG1 & RCU_CFG1_I2C0SEL)){
 2748              		.loc 1 1142 40
 2749 02b4 B7470240 		li	a5,1073889280
 2750 02b8 9387C788 		addi	a5,a5,-1908
 2751 02bc 9843     		lw	a4,0(a5)
 2752              		.loc 1 1142 49
 2753 02be B707000C 		li	a5,201326592
 2754 02c2 7D8F     		and	a4,a4,a5
 2755              		.loc 1 1142 17
 2756 02c4 B7070004 		li	a5,67108864
 2757 02c8 6317F700 		bne	a4,a5,.L119
1143:../Firmware/GD32VW55x_standard_peripheral/Source/gd32vw55x_rcu.c ****             i2c0_freq = cksys_freq;
 2758              		.loc 1 1143 23
 2759 02cc 832784FE 		lw	a5,-24(s0)
 2760 02d0 2320F4FE 		sw	a5,-32(s0)
 2761 02d4 1DA0     		j	.L118
 2762              	.L119:
1144:../Firmware/GD32VW55x_standard_peripheral/Source/gd32vw55x_rcu.c ****         }else if(RCU_I2C0SRC_IRC16M == (RCU_CFG1 & RCU_CFG1_I2C0SEL)){
 2763              		.loc 1 1144 41
 2764 02d6 B7470240 		li	a5,1073889280
 2765 02da 9387C788 		addi	a5,a5,-1908
 2766 02de 9843     		lw	a4,0(a5)
 2767              		.loc 1 1144 50
 2768 02e0 B707000C 		li	a5,201326592
 2769 02e4 7D8F     		and	a4,a4,a5
 2770              		.loc 1 1144 17
 2771 02e6 B7070008 		li	a5,134217728
 2772 02ea 6318F700 		bne	a4,a5,.L118
1145:../Firmware/GD32VW55x_standard_peripheral/Source/gd32vw55x_rcu.c ****             i2c0_freq = IRC16M_VALUE;
 2773              		.loc 1 1145 23
 2774 02ee B727F400 		li	a5,15998976
 2775 02f2 93870740 		addi	a5,a5,1024
 2776 02f6 2320F4FE 		sw	a5,-32(s0)
 2777              	.L118:
1146:../Firmware/GD32VW55x_standard_peripheral/Source/gd32vw55x_rcu.c ****         }else{
1147:../Firmware/GD32VW55x_standard_peripheral/Source/gd32vw55x_rcu.c ****         }
1148:../Firmware/GD32VW55x_standard_peripheral/Source/gd32vw55x_rcu.c ****         ck_freq = i2c0_freq;
 2778              		.loc 1 1148 17
 2779 02fa 832704FE 		lw	a5,-32(s0)
 2780 02fe 2326F4FE 		sw	a5,-20(s0)
1149:../Firmware/GD32VW55x_standard_peripheral/Source/gd32vw55x_rcu.c ****         break;
 2781              		.loc 1 1149 9
 2782 0302 11A0     		j	.L112
 2783              	.L121:
1150:../Firmware/GD32VW55x_standard_peripheral/Source/gd32vw55x_rcu.c ****     default:
1151:../Firmware/GD32VW55x_standard_peripheral/Source/gd32vw55x_rcu.c ****         break;
 2784              		.loc 1 1151 9
 2785 0304 0100     		nop
 2786              	.L112:
1152:../Firmware/GD32VW55x_standard_peripheral/Source/gd32vw55x_rcu.c ****     }
1153:../Firmware/GD32VW55x_standard_peripheral/Source/gd32vw55x_rcu.c ****     return ck_freq;
 2787              		.loc 1 1153 12
 2788 0306 8327C4FE 		lw	a5,-20(s0)
1154:../Firmware/GD32VW55x_standard_peripheral/Source/gd32vw55x_rcu.c **** }
 2789              		.loc 1 1154 1
 2790 030a 3E85     		mv	a0,a5
 2791 030c 7654     		lw	s0,124(sp)
 2792              		.cfi_restore 8
 2793              		.cfi_def_cfa 2, 128
 2794 030e 0961     		addi	sp,sp,128
 2795              		.cfi_def_cfa_offset 0
 2796 0310 8280     		jr	ra
 2797              		.cfi_endproc
 2798              	.LFE395:
 2800              		.text
 2801              	.Letext0:
 2802              		.file 2 "e:\\gd32\\gd32embeddedbuilder_v1.5.2.30854\\tools\\nuclei_riscv_newlibc_prebuilt_win32_20
 2803              		.file 3 "e:\\gd32\\gd32embeddedbuilder_v1.5.2.30854\\tools\\nuclei_riscv_newlibc_prebuilt_win32_20
 2804              		.file 4 "../Firmware/GD32VW55x_standard_peripheral/gd32vw55x.h"
 2805              		.file 5 "../Firmware/GD32VW55x_standard_peripheral/Include/gd32vw55x_rcu.h"
DEFINED SYMBOLS
                            *ABS*:0000000000000000 gd32vw55x_rcu.c
C:\Users\CYMR90~1\AppData\Local\Temp\ccSmV8cy.s:13     .text.rcu_deinit:0000000000000000 rcu_deinit
C:\Users\CYMR90~1\AppData\Local\Temp\ccSmV8cy.s:17     .text.rcu_deinit:0000000000000000 .L0 
C:\Users\CYMR90~1\AppData\Local\Temp\ccSmV8cy.s:18     .text.rcu_deinit:0000000000000000 .L0 
C:\Users\CYMR90~1\AppData\Local\Temp\ccSmV8cy.s:19     .text.rcu_deinit:0000000000000002 .L0 
C:\Users\CYMR90~1\AppData\Local\Temp\ccSmV8cy.s:22     .text.rcu_deinit:0000000000000006 .L0 
C:\Users\CYMR90~1\AppData\Local\Temp\ccSmV8cy.s:23     .text.rcu_deinit:0000000000000006 .L0 
C:\Users\CYMR90~1\AppData\Local\Temp\ccSmV8cy.s:25     .text.rcu_deinit:0000000000000008 .L0 
C:\Users\CYMR90~1\AppData\Local\Temp\ccSmV8cy.s:27     .text.rcu_deinit:0000000000000008 .L0 
C:\Users\CYMR90~1\AppData\Local\Temp\ccSmV8cy.s:35     .text.rcu_deinit:0000000000000020 .L0 
C:\Users\CYMR90~1\AppData\Local\Temp\ccSmV8cy.s:1719   .text.rcu_osci_stab_wait:0000000000000000 rcu_osci_stab_wait
C:\Users\CYMR90~1\AppData\Local\Temp\ccSmV8cy.s:38     .text.rcu_deinit:000000000000002a .L0 
C:\Users\CYMR90~1\AppData\Local\Temp\ccSmV8cy.s:46     .text.rcu_deinit:0000000000000040 .L0 
C:\Users\CYMR90~1\AppData\Local\Temp\ccSmV8cy.s:56     .text.rcu_deinit:000000000000005e .L0 
C:\Users\CYMR90~1\AppData\Local\Temp\ccSmV8cy.s:66     .text.rcu_deinit:000000000000007a .L0 
C:\Users\CYMR90~1\AppData\Local\Temp\ccSmV8cy.s:69     .text.rcu_deinit:0000000000000082 .L0 
C:\Users\CYMR90~1\AppData\Local\Temp\ccSmV8cy.s:71     .text.rcu_deinit:0000000000000086 .L0 
C:\Users\CYMR90~1\AppData\Local\Temp\ccSmV8cy.s:74     .text.rcu_deinit:000000000000008e .L0 
C:\Users\CYMR90~1\AppData\Local\Temp\ccSmV8cy.s:76     .text.rcu_deinit:0000000000000092 .L0 
C:\Users\CYMR90~1\AppData\Local\Temp\ccSmV8cy.s:79     .text.rcu_deinit:000000000000009a .L0 
C:\Users\CYMR90~1\AppData\Local\Temp\ccSmV8cy.s:81     .text.rcu_deinit:000000000000009e .L0 
C:\Users\CYMR90~1\AppData\Local\Temp\ccSmV8cy.s:84     .text.rcu_deinit:00000000000000a6 .L0 
C:\Users\CYMR90~1\AppData\Local\Temp\ccSmV8cy.s:86     .text.rcu_deinit:00000000000000aa .L0 
C:\Users\CYMR90~1\AppData\Local\Temp\ccSmV8cy.s:89     .text.rcu_deinit:00000000000000b2 .L0 
C:\Users\CYMR90~1\AppData\Local\Temp\ccSmV8cy.s:91     .text.rcu_deinit:00000000000000b6 .L0 
C:\Users\CYMR90~1\AppData\Local\Temp\ccSmV8cy.s:94     .text.rcu_deinit:00000000000000be .L0 
C:\Users\CYMR90~1\AppData\Local\Temp\ccSmV8cy.s:96     .text.rcu_deinit:00000000000000c2 .L0 
C:\Users\CYMR90~1\AppData\Local\Temp\ccSmV8cy.s:98     .text.rcu_deinit:00000000000000c6 .L0 
C:\Users\CYMR90~1\AppData\Local\Temp\ccSmV8cy.s:100    .text.rcu_deinit:00000000000000c8 .L0 
C:\Users\CYMR90~1\AppData\Local\Temp\ccSmV8cy.s:101    .text.rcu_deinit:00000000000000c8 .L0 
C:\Users\CYMR90~1\AppData\Local\Temp\ccSmV8cy.s:103    .text.rcu_deinit:00000000000000ca .L0 
C:\Users\CYMR90~1\AppData\Local\Temp\ccSmV8cy.s:105    .text.rcu_deinit:00000000000000cc .L0 
C:\Users\CYMR90~1\AppData\Local\Temp\ccSmV8cy.s:112    .text.rcu_irc16m_dfs_to_rf_enable:0000000000000000 rcu_irc16m_dfs_to_rf_enable
C:\Users\CYMR90~1\AppData\Local\Temp\ccSmV8cy.s:115    .text.rcu_irc16m_dfs_to_rf_enable:0000000000000000 .L0 
C:\Users\CYMR90~1\AppData\Local\Temp\ccSmV8cy.s:116    .text.rcu_irc16m_dfs_to_rf_enable:0000000000000000 .L0 
C:\Users\CYMR90~1\AppData\Local\Temp\ccSmV8cy.s:117    .text.rcu_irc16m_dfs_to_rf_enable:0000000000000002 .L0 
C:\Users\CYMR90~1\AppData\Local\Temp\ccSmV8cy.s:119    .text.rcu_irc16m_dfs_to_rf_enable:0000000000000004 .L0 
C:\Users\CYMR90~1\AppData\Local\Temp\ccSmV8cy.s:121    .text.rcu_irc16m_dfs_to_rf_enable:0000000000000006 .L0 
C:\Users\CYMR90~1\AppData\Local\Temp\ccSmV8cy.s:123    .text.rcu_irc16m_dfs_to_rf_enable:0000000000000006 .L0 
C:\Users\CYMR90~1\AppData\Local\Temp\ccSmV8cy.s:131    .text.rcu_irc16m_dfs_to_rf_enable:000000000000001e .L0 
C:\Users\CYMR90~1\AppData\Local\Temp\ccSmV8cy.s:133    .text.rcu_irc16m_dfs_to_rf_enable:0000000000000022 .L0 
C:\Users\CYMR90~1\AppData\Local\Temp\ccSmV8cy.s:134    .text.rcu_irc16m_dfs_to_rf_enable:0000000000000022 .L0 
C:\Users\CYMR90~1\AppData\Local\Temp\ccSmV8cy.s:136    .text.rcu_irc16m_dfs_to_rf_enable:0000000000000024 .L0 
C:\Users\CYMR90~1\AppData\Local\Temp\ccSmV8cy.s:138    .text.rcu_irc16m_dfs_to_rf_enable:0000000000000026 .L0 
C:\Users\CYMR90~1\AppData\Local\Temp\ccSmV8cy.s:145    .text.rcu_irc16m_dfs_to_rf_disable:0000000000000000 rcu_irc16m_dfs_to_rf_disable
C:\Users\CYMR90~1\AppData\Local\Temp\ccSmV8cy.s:148    .text.rcu_irc16m_dfs_to_rf_disable:0000000000000000 .L0 
C:\Users\CYMR90~1\AppData\Local\Temp\ccSmV8cy.s:149    .text.rcu_irc16m_dfs_to_rf_disable:0000000000000000 .L0 
C:\Users\CYMR90~1\AppData\Local\Temp\ccSmV8cy.s:150    .text.rcu_irc16m_dfs_to_rf_disable:0000000000000002 .L0 
C:\Users\CYMR90~1\AppData\Local\Temp\ccSmV8cy.s:152    .text.rcu_irc16m_dfs_to_rf_disable:0000000000000004 .L0 
C:\Users\CYMR90~1\AppData\Local\Temp\ccSmV8cy.s:154    .text.rcu_irc16m_dfs_to_rf_disable:0000000000000006 .L0 
C:\Users\CYMR90~1\AppData\Local\Temp\ccSmV8cy.s:156    .text.rcu_irc16m_dfs_to_rf_disable:0000000000000006 .L0 
C:\Users\CYMR90~1\AppData\Local\Temp\ccSmV8cy.s:164    .text.rcu_irc16m_dfs_to_rf_disable:000000000000001c .L0 
C:\Users\CYMR90~1\AppData\Local\Temp\ccSmV8cy.s:166    .text.rcu_irc16m_dfs_to_rf_disable:0000000000000020 .L0 
C:\Users\CYMR90~1\AppData\Local\Temp\ccSmV8cy.s:167    .text.rcu_irc16m_dfs_to_rf_disable:0000000000000020 .L0 
C:\Users\CYMR90~1\AppData\Local\Temp\ccSmV8cy.s:169    .text.rcu_irc16m_dfs_to_rf_disable:0000000000000022 .L0 
C:\Users\CYMR90~1\AppData\Local\Temp\ccSmV8cy.s:171    .text.rcu_irc16m_dfs_to_rf_disable:0000000000000024 .L0 
C:\Users\CYMR90~1\AppData\Local\Temp\ccSmV8cy.s:178    .text.rcu_periph_clock_enable:0000000000000000 rcu_periph_clock_enable
C:\Users\CYMR90~1\AppData\Local\Temp\ccSmV8cy.s:181    .text.rcu_periph_clock_enable:0000000000000000 .L0 
C:\Users\CYMR90~1\AppData\Local\Temp\ccSmV8cy.s:182    .text.rcu_periph_clock_enable:0000000000000000 .L0 
C:\Users\CYMR90~1\AppData\Local\Temp\ccSmV8cy.s:183    .text.rcu_periph_clock_enable:0000000000000002 .L0 
C:\Users\CYMR90~1\AppData\Local\Temp\ccSmV8cy.s:185    .text.rcu_periph_clock_enable:0000000000000004 .L0 
C:\Users\CYMR90~1\AppData\Local\Temp\ccSmV8cy.s:187    .text.rcu_periph_clock_enable:0000000000000006 .L0 
C:\Users\CYMR90~1\AppData\Local\Temp\ccSmV8cy.s:190    .text.rcu_periph_clock_enable:000000000000000a .L0 
C:\Users\CYMR90~1\AppData\Local\Temp\ccSmV8cy.s:197    .text.rcu_periph_clock_enable:000000000000001e .L0 
C:\Users\CYMR90~1\AppData\Local\Temp\ccSmV8cy.s:202    .text.rcu_periph_clock_enable:000000000000002a .L0 
C:\Users\CYMR90~1\AppData\Local\Temp\ccSmV8cy.s:210    .text.rcu_periph_clock_enable:0000000000000040 .L0 
C:\Users\CYMR90~1\AppData\Local\Temp\ccSmV8cy.s:212    .text.rcu_periph_clock_enable:0000000000000044 .L0 
C:\Users\CYMR90~1\AppData\Local\Temp\ccSmV8cy.s:213    .text.rcu_periph_clock_enable:0000000000000044 .L0 
C:\Users\CYMR90~1\AppData\Local\Temp\ccSmV8cy.s:215    .text.rcu_periph_clock_enable:0000000000000046 .L0 
C:\Users\CYMR90~1\AppData\Local\Temp\ccSmV8cy.s:217    .text.rcu_periph_clock_enable:0000000000000048 .L0 
C:\Users\CYMR90~1\AppData\Local\Temp\ccSmV8cy.s:224    .text.rcu_periph_clock_disable:0000000000000000 rcu_periph_clock_disable
C:\Users\CYMR90~1\AppData\Local\Temp\ccSmV8cy.s:227    .text.rcu_periph_clock_disable:0000000000000000 .L0 
C:\Users\CYMR90~1\AppData\Local\Temp\ccSmV8cy.s:228    .text.rcu_periph_clock_disable:0000000000000000 .L0 
C:\Users\CYMR90~1\AppData\Local\Temp\ccSmV8cy.s:229    .text.rcu_periph_clock_disable:0000000000000002 .L0 
C:\Users\CYMR90~1\AppData\Local\Temp\ccSmV8cy.s:231    .text.rcu_periph_clock_disable:0000000000000004 .L0 
C:\Users\CYMR90~1\AppData\Local\Temp\ccSmV8cy.s:233    .text.rcu_periph_clock_disable:0000000000000006 .L0 
C:\Users\CYMR90~1\AppData\Local\Temp\ccSmV8cy.s:236    .text.rcu_periph_clock_disable:000000000000000a .L0 
C:\Users\CYMR90~1\AppData\Local\Temp\ccSmV8cy.s:243    .text.rcu_periph_clock_disable:000000000000001e .L0 
C:\Users\CYMR90~1\AppData\Local\Temp\ccSmV8cy.s:248    .text.rcu_periph_clock_disable:000000000000002a .L0 
C:\Users\CYMR90~1\AppData\Local\Temp\ccSmV8cy.s:250    .text.rcu_periph_clock_disable:000000000000002e .L0 
C:\Users\CYMR90~1\AppData\Local\Temp\ccSmV8cy.s:258    .text.rcu_periph_clock_disable:0000000000000044 .L0 
C:\Users\CYMR90~1\AppData\Local\Temp\ccSmV8cy.s:260    .text.rcu_periph_clock_disable:0000000000000048 .L0 
C:\Users\CYMR90~1\AppData\Local\Temp\ccSmV8cy.s:261    .text.rcu_periph_clock_disable:0000000000000048 .L0 
C:\Users\CYMR90~1\AppData\Local\Temp\ccSmV8cy.s:263    .text.rcu_periph_clock_disable:000000000000004a .L0 
C:\Users\CYMR90~1\AppData\Local\Temp\ccSmV8cy.s:265    .text.rcu_periph_clock_disable:000000000000004c .L0 
C:\Users\CYMR90~1\AppData\Local\Temp\ccSmV8cy.s:272    .text.rcu_fmc_clock_sleep_enable:0000000000000000 rcu_fmc_clock_sleep_enable
C:\Users\CYMR90~1\AppData\Local\Temp\ccSmV8cy.s:275    .text.rcu_fmc_clock_sleep_enable:0000000000000000 .L0 
C:\Users\CYMR90~1\AppData\Local\Temp\ccSmV8cy.s:276    .text.rcu_fmc_clock_sleep_enable:0000000000000000 .L0 
C:\Users\CYMR90~1\AppData\Local\Temp\ccSmV8cy.s:277    .text.rcu_fmc_clock_sleep_enable:0000000000000002 .L0 
C:\Users\CYMR90~1\AppData\Local\Temp\ccSmV8cy.s:279    .text.rcu_fmc_clock_sleep_enable:0000000000000004 .L0 
C:\Users\CYMR90~1\AppData\Local\Temp\ccSmV8cy.s:281    .text.rcu_fmc_clock_sleep_enable:0000000000000006 .L0 
C:\Users\CYMR90~1\AppData\Local\Temp\ccSmV8cy.s:283    .text.rcu_fmc_clock_sleep_enable:0000000000000006 .L0 
C:\Users\CYMR90~1\AppData\Local\Temp\ccSmV8cy.s:292    .text.rcu_fmc_clock_sleep_enable:000000000000001e .L0 
C:\Users\CYMR90~1\AppData\Local\Temp\ccSmV8cy.s:294    .text.rcu_fmc_clock_sleep_enable:0000000000000022 .L0 
C:\Users\CYMR90~1\AppData\Local\Temp\ccSmV8cy.s:295    .text.rcu_fmc_clock_sleep_enable:0000000000000022 .L0 
C:\Users\CYMR90~1\AppData\Local\Temp\ccSmV8cy.s:297    .text.rcu_fmc_clock_sleep_enable:0000000000000024 .L0 
C:\Users\CYMR90~1\AppData\Local\Temp\ccSmV8cy.s:299    .text.rcu_fmc_clock_sleep_enable:0000000000000026 .L0 
C:\Users\CYMR90~1\AppData\Local\Temp\ccSmV8cy.s:306    .text.rcu_fmc_clock_sleep_disable:0000000000000000 rcu_fmc_clock_sleep_disable
C:\Users\CYMR90~1\AppData\Local\Temp\ccSmV8cy.s:309    .text.rcu_fmc_clock_sleep_disable:0000000000000000 .L0 
C:\Users\CYMR90~1\AppData\Local\Temp\ccSmV8cy.s:310    .text.rcu_fmc_clock_sleep_disable:0000000000000000 .L0 
C:\Users\CYMR90~1\AppData\Local\Temp\ccSmV8cy.s:311    .text.rcu_fmc_clock_sleep_disable:0000000000000002 .L0 
C:\Users\CYMR90~1\AppData\Local\Temp\ccSmV8cy.s:313    .text.rcu_fmc_clock_sleep_disable:0000000000000004 .L0 
C:\Users\CYMR90~1\AppData\Local\Temp\ccSmV8cy.s:315    .text.rcu_fmc_clock_sleep_disable:0000000000000006 .L0 
C:\Users\CYMR90~1\AppData\Local\Temp\ccSmV8cy.s:317    .text.rcu_fmc_clock_sleep_disable:0000000000000006 .L0 
C:\Users\CYMR90~1\AppData\Local\Temp\ccSmV8cy.s:327    .text.rcu_fmc_clock_sleep_disable:0000000000000020 .L0 
C:\Users\CYMR90~1\AppData\Local\Temp\ccSmV8cy.s:329    .text.rcu_fmc_clock_sleep_disable:0000000000000024 .L0 
C:\Users\CYMR90~1\AppData\Local\Temp\ccSmV8cy.s:330    .text.rcu_fmc_clock_sleep_disable:0000000000000024 .L0 
C:\Users\CYMR90~1\AppData\Local\Temp\ccSmV8cy.s:332    .text.rcu_fmc_clock_sleep_disable:0000000000000026 .L0 
C:\Users\CYMR90~1\AppData\Local\Temp\ccSmV8cy.s:334    .text.rcu_fmc_clock_sleep_disable:0000000000000028 .L0 
C:\Users\CYMR90~1\AppData\Local\Temp\ccSmV8cy.s:341    .text.rcu_periph_reset_enable:0000000000000000 rcu_periph_reset_enable
C:\Users\CYMR90~1\AppData\Local\Temp\ccSmV8cy.s:344    .text.rcu_periph_reset_enable:0000000000000000 .L0 
C:\Users\CYMR90~1\AppData\Local\Temp\ccSmV8cy.s:345    .text.rcu_periph_reset_enable:0000000000000000 .L0 
C:\Users\CYMR90~1\AppData\Local\Temp\ccSmV8cy.s:346    .text.rcu_periph_reset_enable:0000000000000002 .L0 
C:\Users\CYMR90~1\AppData\Local\Temp\ccSmV8cy.s:348    .text.rcu_periph_reset_enable:0000000000000004 .L0 
C:\Users\CYMR90~1\AppData\Local\Temp\ccSmV8cy.s:350    .text.rcu_periph_reset_enable:0000000000000006 .L0 
C:\Users\CYMR90~1\AppData\Local\Temp\ccSmV8cy.s:353    .text.rcu_periph_reset_enable:000000000000000a .L0 
C:\Users\CYMR90~1\AppData\Local\Temp\ccSmV8cy.s:360    .text.rcu_periph_reset_enable:000000000000001e .L0 
C:\Users\CYMR90~1\AppData\Local\Temp\ccSmV8cy.s:365    .text.rcu_periph_reset_enable:000000000000002a .L0 
C:\Users\CYMR90~1\AppData\Local\Temp\ccSmV8cy.s:373    .text.rcu_periph_reset_enable:0000000000000040 .L0 
C:\Users\CYMR90~1\AppData\Local\Temp\ccSmV8cy.s:375    .text.rcu_periph_reset_enable:0000000000000044 .L0 
C:\Users\CYMR90~1\AppData\Local\Temp\ccSmV8cy.s:376    .text.rcu_periph_reset_enable:0000000000000044 .L0 
C:\Users\CYMR90~1\AppData\Local\Temp\ccSmV8cy.s:378    .text.rcu_periph_reset_enable:0000000000000046 .L0 
C:\Users\CYMR90~1\AppData\Local\Temp\ccSmV8cy.s:380    .text.rcu_periph_reset_enable:0000000000000048 .L0 
C:\Users\CYMR90~1\AppData\Local\Temp\ccSmV8cy.s:387    .text.rcu_periph_reset_disable:0000000000000000 rcu_periph_reset_disable
C:\Users\CYMR90~1\AppData\Local\Temp\ccSmV8cy.s:390    .text.rcu_periph_reset_disable:0000000000000000 .L0 
C:\Users\CYMR90~1\AppData\Local\Temp\ccSmV8cy.s:391    .text.rcu_periph_reset_disable:0000000000000000 .L0 
C:\Users\CYMR90~1\AppData\Local\Temp\ccSmV8cy.s:392    .text.rcu_periph_reset_disable:0000000000000002 .L0 
C:\Users\CYMR90~1\AppData\Local\Temp\ccSmV8cy.s:394    .text.rcu_periph_reset_disable:0000000000000004 .L0 
C:\Users\CYMR90~1\AppData\Local\Temp\ccSmV8cy.s:396    .text.rcu_periph_reset_disable:0000000000000006 .L0 
C:\Users\CYMR90~1\AppData\Local\Temp\ccSmV8cy.s:399    .text.rcu_periph_reset_disable:000000000000000a .L0 
C:\Users\CYMR90~1\AppData\Local\Temp\ccSmV8cy.s:406    .text.rcu_periph_reset_disable:000000000000001e .L0 
C:\Users\CYMR90~1\AppData\Local\Temp\ccSmV8cy.s:411    .text.rcu_periph_reset_disable:000000000000002a .L0 
C:\Users\CYMR90~1\AppData\Local\Temp\ccSmV8cy.s:413    .text.rcu_periph_reset_disable:000000000000002e .L0 
C:\Users\CYMR90~1\AppData\Local\Temp\ccSmV8cy.s:421    .text.rcu_periph_reset_disable:0000000000000044 .L0 
C:\Users\CYMR90~1\AppData\Local\Temp\ccSmV8cy.s:423    .text.rcu_periph_reset_disable:0000000000000048 .L0 
C:\Users\CYMR90~1\AppData\Local\Temp\ccSmV8cy.s:424    .text.rcu_periph_reset_disable:0000000000000048 .L0 
C:\Users\CYMR90~1\AppData\Local\Temp\ccSmV8cy.s:426    .text.rcu_periph_reset_disable:000000000000004a .L0 
C:\Users\CYMR90~1\AppData\Local\Temp\ccSmV8cy.s:428    .text.rcu_periph_reset_disable:000000000000004c .L0 
C:\Users\CYMR90~1\AppData\Local\Temp\ccSmV8cy.s:435    .text.rcu_bkp_reset_enable:0000000000000000 rcu_bkp_reset_enable
C:\Users\CYMR90~1\AppData\Local\Temp\ccSmV8cy.s:438    .text.rcu_bkp_reset_enable:0000000000000000 .L0 
C:\Users\CYMR90~1\AppData\Local\Temp\ccSmV8cy.s:439    .text.rcu_bkp_reset_enable:0000000000000000 .L0 
C:\Users\CYMR90~1\AppData\Local\Temp\ccSmV8cy.s:440    .text.rcu_bkp_reset_enable:0000000000000002 .L0 
C:\Users\CYMR90~1\AppData\Local\Temp\ccSmV8cy.s:442    .text.rcu_bkp_reset_enable:0000000000000004 .L0 
C:\Users\CYMR90~1\AppData\Local\Temp\ccSmV8cy.s:444    .text.rcu_bkp_reset_enable:0000000000000006 .L0 
C:\Users\CYMR90~1\AppData\Local\Temp\ccSmV8cy.s:446    .text.rcu_bkp_reset_enable:0000000000000006 .L0 
C:\Users\CYMR90~1\AppData\Local\Temp\ccSmV8cy.s:455    .text.rcu_bkp_reset_enable:000000000000001e .L0 
C:\Users\CYMR90~1\AppData\Local\Temp\ccSmV8cy.s:457    .text.rcu_bkp_reset_enable:0000000000000022 .L0 
C:\Users\CYMR90~1\AppData\Local\Temp\ccSmV8cy.s:458    .text.rcu_bkp_reset_enable:0000000000000022 .L0 
C:\Users\CYMR90~1\AppData\Local\Temp\ccSmV8cy.s:460    .text.rcu_bkp_reset_enable:0000000000000024 .L0 
C:\Users\CYMR90~1\AppData\Local\Temp\ccSmV8cy.s:462    .text.rcu_bkp_reset_enable:0000000000000026 .L0 
C:\Users\CYMR90~1\AppData\Local\Temp\ccSmV8cy.s:469    .text.rcu_bkp_reset_disable:0000000000000000 rcu_bkp_reset_disable
C:\Users\CYMR90~1\AppData\Local\Temp\ccSmV8cy.s:472    .text.rcu_bkp_reset_disable:0000000000000000 .L0 
C:\Users\CYMR90~1\AppData\Local\Temp\ccSmV8cy.s:473    .text.rcu_bkp_reset_disable:0000000000000000 .L0 
C:\Users\CYMR90~1\AppData\Local\Temp\ccSmV8cy.s:474    .text.rcu_bkp_reset_disable:0000000000000002 .L0 
C:\Users\CYMR90~1\AppData\Local\Temp\ccSmV8cy.s:476    .text.rcu_bkp_reset_disable:0000000000000004 .L0 
C:\Users\CYMR90~1\AppData\Local\Temp\ccSmV8cy.s:478    .text.rcu_bkp_reset_disable:0000000000000006 .L0 
C:\Users\CYMR90~1\AppData\Local\Temp\ccSmV8cy.s:480    .text.rcu_bkp_reset_disable:0000000000000006 .L0 
C:\Users\CYMR90~1\AppData\Local\Temp\ccSmV8cy.s:490    .text.rcu_bkp_reset_disable:0000000000000020 .L0 
C:\Users\CYMR90~1\AppData\Local\Temp\ccSmV8cy.s:492    .text.rcu_bkp_reset_disable:0000000000000024 .L0 
C:\Users\CYMR90~1\AppData\Local\Temp\ccSmV8cy.s:493    .text.rcu_bkp_reset_disable:0000000000000024 .L0 
C:\Users\CYMR90~1\AppData\Local\Temp\ccSmV8cy.s:495    .text.rcu_bkp_reset_disable:0000000000000026 .L0 
C:\Users\CYMR90~1\AppData\Local\Temp\ccSmV8cy.s:497    .text.rcu_bkp_reset_disable:0000000000000028 .L0 
C:\Users\CYMR90~1\AppData\Local\Temp\ccSmV8cy.s:504    .text.rcu_rfpll_cal_enable:0000000000000000 rcu_rfpll_cal_enable
C:\Users\CYMR90~1\AppData\Local\Temp\ccSmV8cy.s:507    .text.rcu_rfpll_cal_enable:0000000000000000 .L0 
C:\Users\CYMR90~1\AppData\Local\Temp\ccSmV8cy.s:508    .text.rcu_rfpll_cal_enable:0000000000000000 .L0 
C:\Users\CYMR90~1\AppData\Local\Temp\ccSmV8cy.s:509    .text.rcu_rfpll_cal_enable:0000000000000002 .L0 
C:\Users\CYMR90~1\AppData\Local\Temp\ccSmV8cy.s:511    .text.rcu_rfpll_cal_enable:0000000000000004 .L0 
C:\Users\CYMR90~1\AppData\Local\Temp\ccSmV8cy.s:513    .text.rcu_rfpll_cal_enable:0000000000000006 .L0 
C:\Users\CYMR90~1\AppData\Local\Temp\ccSmV8cy.s:515    .text.rcu_rfpll_cal_enable:0000000000000006 .L0 
C:\Users\CYMR90~1\AppData\Local\Temp\ccSmV8cy.s:524    .text.rcu_rfpll_cal_enable:000000000000001e .L0 
C:\Users\CYMR90~1\AppData\Local\Temp\ccSmV8cy.s:526    .text.rcu_rfpll_cal_enable:0000000000000022 .L0 
C:\Users\CYMR90~1\AppData\Local\Temp\ccSmV8cy.s:527    .text.rcu_rfpll_cal_enable:0000000000000022 .L0 
C:\Users\CYMR90~1\AppData\Local\Temp\ccSmV8cy.s:529    .text.rcu_rfpll_cal_enable:0000000000000024 .L0 
C:\Users\CYMR90~1\AppData\Local\Temp\ccSmV8cy.s:531    .text.rcu_rfpll_cal_enable:0000000000000026 .L0 
C:\Users\CYMR90~1\AppData\Local\Temp\ccSmV8cy.s:538    .text.rcu_rfpll_cal_disable:0000000000000000 rcu_rfpll_cal_disable
C:\Users\CYMR90~1\AppData\Local\Temp\ccSmV8cy.s:541    .text.rcu_rfpll_cal_disable:0000000000000000 .L0 
C:\Users\CYMR90~1\AppData\Local\Temp\ccSmV8cy.s:542    .text.rcu_rfpll_cal_disable:0000000000000000 .L0 
C:\Users\CYMR90~1\AppData\Local\Temp\ccSmV8cy.s:543    .text.rcu_rfpll_cal_disable:0000000000000002 .L0 
C:\Users\CYMR90~1\AppData\Local\Temp\ccSmV8cy.s:545    .text.rcu_rfpll_cal_disable:0000000000000004 .L0 
C:\Users\CYMR90~1\AppData\Local\Temp\ccSmV8cy.s:547    .text.rcu_rfpll_cal_disable:0000000000000006 .L0 
C:\Users\CYMR90~1\AppData\Local\Temp\ccSmV8cy.s:549    .text.rcu_rfpll_cal_disable:0000000000000006 .L0 
C:\Users\CYMR90~1\AppData\Local\Temp\ccSmV8cy.s:559    .text.rcu_rfpll_cal_disable:0000000000000020 .L0 
C:\Users\CYMR90~1\AppData\Local\Temp\ccSmV8cy.s:561    .text.rcu_rfpll_cal_disable:0000000000000024 .L0 
C:\Users\CYMR90~1\AppData\Local\Temp\ccSmV8cy.s:562    .text.rcu_rfpll_cal_disable:0000000000000024 .L0 
C:\Users\CYMR90~1\AppData\Local\Temp\ccSmV8cy.s:564    .text.rcu_rfpll_cal_disable:0000000000000026 .L0 
C:\Users\CYMR90~1\AppData\Local\Temp\ccSmV8cy.s:566    .text.rcu_rfpll_cal_disable:0000000000000028 .L0 
C:\Users\CYMR90~1\AppData\Local\Temp\ccSmV8cy.s:573    .text.rcu_control_unit_powerup:0000000000000000 rcu_control_unit_powerup
C:\Users\CYMR90~1\AppData\Local\Temp\ccSmV8cy.s:576    .text.rcu_control_unit_powerup:0000000000000000 .L0 
C:\Users\CYMR90~1\AppData\Local\Temp\ccSmV8cy.s:577    .text.rcu_control_unit_powerup:0000000000000000 .L0 
C:\Users\CYMR90~1\AppData\Local\Temp\ccSmV8cy.s:578    .text.rcu_control_unit_powerup:0000000000000002 .L0 
C:\Users\CYMR90~1\AppData\Local\Temp\ccSmV8cy.s:580    .text.rcu_control_unit_powerup:0000000000000004 .L0 
C:\Users\CYMR90~1\AppData\Local\Temp\ccSmV8cy.s:582    .text.rcu_control_unit_powerup:0000000000000006 .L0 
C:\Users\CYMR90~1\AppData\Local\Temp\ccSmV8cy.s:585    .text.rcu_control_unit_powerup:000000000000000a .L0 
C:\Users\CYMR90~1\AppData\Local\Temp\ccSmV8cy.s:592    .text.rcu_control_unit_powerup:000000000000001e .L0 
C:\Users\CYMR90~1\AppData\Local\Temp\ccSmV8cy.s:597    .text.rcu_control_unit_powerup:000000000000002a .L0 
C:\Users\CYMR90~1\AppData\Local\Temp\ccSmV8cy.s:605    .text.rcu_control_unit_powerup:0000000000000040 .L0 
C:\Users\CYMR90~1\AppData\Local\Temp\ccSmV8cy.s:607    .text.rcu_control_unit_powerup:0000000000000044 .L0 
C:\Users\CYMR90~1\AppData\Local\Temp\ccSmV8cy.s:608    .text.rcu_control_unit_powerup:0000000000000044 .L0 
C:\Users\CYMR90~1\AppData\Local\Temp\ccSmV8cy.s:610    .text.rcu_control_unit_powerup:0000000000000046 .L0 
C:\Users\CYMR90~1\AppData\Local\Temp\ccSmV8cy.s:612    .text.rcu_control_unit_powerup:0000000000000048 .L0 
C:\Users\CYMR90~1\AppData\Local\Temp\ccSmV8cy.s:619    .text.rcu_control_unit_powerdown:0000000000000000 rcu_control_unit_powerdown
C:\Users\CYMR90~1\AppData\Local\Temp\ccSmV8cy.s:622    .text.rcu_control_unit_powerdown:0000000000000000 .L0 
C:\Users\CYMR90~1\AppData\Local\Temp\ccSmV8cy.s:623    .text.rcu_control_unit_powerdown:0000000000000000 .L0 
C:\Users\CYMR90~1\AppData\Local\Temp\ccSmV8cy.s:624    .text.rcu_control_unit_powerdown:0000000000000002 .L0 
C:\Users\CYMR90~1\AppData\Local\Temp\ccSmV8cy.s:626    .text.rcu_control_unit_powerdown:0000000000000004 .L0 
C:\Users\CYMR90~1\AppData\Local\Temp\ccSmV8cy.s:628    .text.rcu_control_unit_powerdown:0000000000000006 .L0 
C:\Users\CYMR90~1\AppData\Local\Temp\ccSmV8cy.s:631    .text.rcu_control_unit_powerdown:000000000000000a .L0 
C:\Users\CYMR90~1\AppData\Local\Temp\ccSmV8cy.s:638    .text.rcu_control_unit_powerdown:000000000000001e .L0 
C:\Users\CYMR90~1\AppData\Local\Temp\ccSmV8cy.s:643    .text.rcu_control_unit_powerdown:000000000000002a .L0 
C:\Users\CYMR90~1\AppData\Local\Temp\ccSmV8cy.s:645    .text.rcu_control_unit_powerdown:000000000000002e .L0 
C:\Users\CYMR90~1\AppData\Local\Temp\ccSmV8cy.s:653    .text.rcu_control_unit_powerdown:0000000000000044 .L0 
C:\Users\CYMR90~1\AppData\Local\Temp\ccSmV8cy.s:655    .text.rcu_control_unit_powerdown:0000000000000048 .L0 
C:\Users\CYMR90~1\AppData\Local\Temp\ccSmV8cy.s:656    .text.rcu_control_unit_powerdown:0000000000000048 .L0 
C:\Users\CYMR90~1\AppData\Local\Temp\ccSmV8cy.s:658    .text.rcu_control_unit_powerdown:000000000000004a .L0 
C:\Users\CYMR90~1\AppData\Local\Temp\ccSmV8cy.s:660    .text.rcu_control_unit_powerdown:000000000000004c .L0 
C:\Users\CYMR90~1\AppData\Local\Temp\ccSmV8cy.s:667    .text.rcu_system_clock_source_config:0000000000000000 rcu_system_clock_source_config
C:\Users\CYMR90~1\AppData\Local\Temp\ccSmV8cy.s:670    .text.rcu_system_clock_source_config:0000000000000000 .L0 
C:\Users\CYMR90~1\AppData\Local\Temp\ccSmV8cy.s:671    .text.rcu_system_clock_source_config:0000000000000000 .L0 
C:\Users\CYMR90~1\AppData\Local\Temp\ccSmV8cy.s:672    .text.rcu_system_clock_source_config:0000000000000002 .L0 
C:\Users\CYMR90~1\AppData\Local\Temp\ccSmV8cy.s:674    .text.rcu_system_clock_source_config:0000000000000004 .L0 
C:\Users\CYMR90~1\AppData\Local\Temp\ccSmV8cy.s:676    .text.rcu_system_clock_source_config:0000000000000006 .L0 
C:\Users\CYMR90~1\AppData\Local\Temp\ccSmV8cy.s:679    .text.rcu_system_clock_source_config:000000000000000a .L0 
C:\Users\CYMR90~1\AppData\Local\Temp\ccSmV8cy.s:682    .text.rcu_system_clock_source_config:0000000000000012 .L0 
C:\Users\CYMR90~1\AppData\Local\Temp\ccSmV8cy.s:685    .text.rcu_system_clock_source_config:0000000000000018 .L0 
C:\Users\CYMR90~1\AppData\Local\Temp\ccSmV8cy.s:689    .text.rcu_system_clock_source_config:0000000000000022 .L0 
C:\Users\CYMR90~1\AppData\Local\Temp\ccSmV8cy.s:692    .text.rcu_system_clock_source_config:000000000000002a .L0 
C:\Users\CYMR90~1\AppData\Local\Temp\ccSmV8cy.s:696    .text.rcu_system_clock_source_config:0000000000000034 .L0 
C:\Users\CYMR90~1\AppData\Local\Temp\ccSmV8cy.s:698    .text.rcu_system_clock_source_config:0000000000000036 .L0 
C:\Users\CYMR90~1\AppData\Local\Temp\ccSmV8cy.s:700    .text.rcu_system_clock_source_config:000000000000003a .L0 
C:\Users\CYMR90~1\AppData\Local\Temp\ccSmV8cy.s:701    .text.rcu_system_clock_source_config:000000000000003a .L0 
C:\Users\CYMR90~1\AppData\Local\Temp\ccSmV8cy.s:703    .text.rcu_system_clock_source_config:000000000000003c .L0 
C:\Users\CYMR90~1\AppData\Local\Temp\ccSmV8cy.s:705    .text.rcu_system_clock_source_config:000000000000003e .L0 
C:\Users\CYMR90~1\AppData\Local\Temp\ccSmV8cy.s:712    .text.rcu_system_clock_source_get:0000000000000000 rcu_system_clock_source_get
C:\Users\CYMR90~1\AppData\Local\Temp\ccSmV8cy.s:715    .text.rcu_system_clock_source_get:0000000000000000 .L0 
C:\Users\CYMR90~1\AppData\Local\Temp\ccSmV8cy.s:716    .text.rcu_system_clock_source_get:0000000000000000 .L0 
C:\Users\CYMR90~1\AppData\Local\Temp\ccSmV8cy.s:717    .text.rcu_system_clock_source_get:0000000000000002 .L0 
C:\Users\CYMR90~1\AppData\Local\Temp\ccSmV8cy.s:719    .text.rcu_system_clock_source_get:0000000000000004 .L0 
C:\Users\CYMR90~1\AppData\Local\Temp\ccSmV8cy.s:721    .text.rcu_system_clock_source_get:0000000000000006 .L0 
C:\Users\CYMR90~1\AppData\Local\Temp\ccSmV8cy.s:723    .text.rcu_system_clock_source_get:0000000000000006 .L0 
C:\Users\CYMR90~1\AppData\Local\Temp\ccSmV8cy.s:728    .text.rcu_system_clock_source_get:0000000000000012 .L0 
C:\Users\CYMR90~1\AppData\Local\Temp\ccSmV8cy.s:730    .text.rcu_system_clock_source_get:0000000000000016 .L0 
C:\Users\CYMR90~1\AppData\Local\Temp\ccSmV8cy.s:731    .text.rcu_system_clock_source_get:0000000000000016 .L0 
C:\Users\CYMR90~1\AppData\Local\Temp\ccSmV8cy.s:733    .text.rcu_system_clock_source_get:0000000000000018 .L0 
C:\Users\CYMR90~1\AppData\Local\Temp\ccSmV8cy.s:735    .text.rcu_system_clock_source_get:000000000000001a .L0 
C:\Users\CYMR90~1\AppData\Local\Temp\ccSmV8cy.s:742    .text.rcu_ahb_clock_config:0000000000000000 rcu_ahb_clock_config
C:\Users\CYMR90~1\AppData\Local\Temp\ccSmV8cy.s:745    .text.rcu_ahb_clock_config:0000000000000000 .L0 
C:\Users\CYMR90~1\AppData\Local\Temp\ccSmV8cy.s:746    .text.rcu_ahb_clock_config:0000000000000000 .L0 
C:\Users\CYMR90~1\AppData\Local\Temp\ccSmV8cy.s:747    .text.rcu_ahb_clock_config:0000000000000002 .L0 
C:\Users\CYMR90~1\AppData\Local\Temp\ccSmV8cy.s:749    .text.rcu_ahb_clock_config:0000000000000004 .L0 
C:\Users\CYMR90~1\AppData\Local\Temp\ccSmV8cy.s:751    .text.rcu_ahb_clock_config:0000000000000006 .L0 
C:\Users\CYMR90~1\AppData\Local\Temp\ccSmV8cy.s:754    .text.rcu_ahb_clock_config:000000000000000a .L0 
C:\Users\CYMR90~1\AppData\Local\Temp\ccSmV8cy.s:757    .text.rcu_ahb_clock_config:0000000000000012 .L0 
C:\Users\CYMR90~1\AppData\Local\Temp\ccSmV8cy.s:760    .text.rcu_ahb_clock_config:0000000000000018 .L0 
C:\Users\CYMR90~1\AppData\Local\Temp\ccSmV8cy.s:764    .text.rcu_ahb_clock_config:0000000000000024 .L0 
C:\Users\CYMR90~1\AppData\Local\Temp\ccSmV8cy.s:767    .text.rcu_ahb_clock_config:000000000000002c .L0 
C:\Users\CYMR90~1\AppData\Local\Temp\ccSmV8cy.s:771    .text.rcu_ahb_clock_config:0000000000000036 .L0 
C:\Users\CYMR90~1\AppData\Local\Temp\ccSmV8cy.s:773    .text.rcu_ahb_clock_config:0000000000000038 .L0 
C:\Users\CYMR90~1\AppData\Local\Temp\ccSmV8cy.s:775    .text.rcu_ahb_clock_config:000000000000003c .L0 
C:\Users\CYMR90~1\AppData\Local\Temp\ccSmV8cy.s:776    .text.rcu_ahb_clock_config:000000000000003c .L0 
C:\Users\CYMR90~1\AppData\Local\Temp\ccSmV8cy.s:778    .text.rcu_ahb_clock_config:000000000000003e .L0 
C:\Users\CYMR90~1\AppData\Local\Temp\ccSmV8cy.s:780    .text.rcu_ahb_clock_config:0000000000000040 .L0 
C:\Users\CYMR90~1\AppData\Local\Temp\ccSmV8cy.s:787    .text.rcu_apb1_clock_config:0000000000000000 rcu_apb1_clock_config
C:\Users\CYMR90~1\AppData\Local\Temp\ccSmV8cy.s:790    .text.rcu_apb1_clock_config:0000000000000000 .L0 
C:\Users\CYMR90~1\AppData\Local\Temp\ccSmV8cy.s:791    .text.rcu_apb1_clock_config:0000000000000000 .L0 
C:\Users\CYMR90~1\AppData\Local\Temp\ccSmV8cy.s:792    .text.rcu_apb1_clock_config:0000000000000002 .L0 
C:\Users\CYMR90~1\AppData\Local\Temp\ccSmV8cy.s:794    .text.rcu_apb1_clock_config:0000000000000004 .L0 
C:\Users\CYMR90~1\AppData\Local\Temp\ccSmV8cy.s:796    .text.rcu_apb1_clock_config:0000000000000006 .L0 
C:\Users\CYMR90~1\AppData\Local\Temp\ccSmV8cy.s:799    .text.rcu_apb1_clock_config:000000000000000a .L0 
C:\Users\CYMR90~1\AppData\Local\Temp\ccSmV8cy.s:802    .text.rcu_apb1_clock_config:0000000000000012 .L0 
C:\Users\CYMR90~1\AppData\Local\Temp\ccSmV8cy.s:805    .text.rcu_apb1_clock_config:0000000000000018 .L0 
C:\Users\CYMR90~1\AppData\Local\Temp\ccSmV8cy.s:811    .text.rcu_apb1_clock_config:0000000000000028 .L0 
C:\Users\CYMR90~1\AppData\Local\Temp\ccSmV8cy.s:814    .text.rcu_apb1_clock_config:0000000000000030 .L0 
C:\Users\CYMR90~1\AppData\Local\Temp\ccSmV8cy.s:818    .text.rcu_apb1_clock_config:000000000000003a .L0 
C:\Users\CYMR90~1\AppData\Local\Temp\ccSmV8cy.s:820    .text.rcu_apb1_clock_config:000000000000003c .L0 
C:\Users\CYMR90~1\AppData\Local\Temp\ccSmV8cy.s:822    .text.rcu_apb1_clock_config:0000000000000040 .L0 
C:\Users\CYMR90~1\AppData\Local\Temp\ccSmV8cy.s:823    .text.rcu_apb1_clock_config:0000000000000040 .L0 
C:\Users\CYMR90~1\AppData\Local\Temp\ccSmV8cy.s:825    .text.rcu_apb1_clock_config:0000000000000042 .L0 
C:\Users\CYMR90~1\AppData\Local\Temp\ccSmV8cy.s:827    .text.rcu_apb1_clock_config:0000000000000044 .L0 
C:\Users\CYMR90~1\AppData\Local\Temp\ccSmV8cy.s:834    .text.rcu_apb2_clock_config:0000000000000000 rcu_apb2_clock_config
C:\Users\CYMR90~1\AppData\Local\Temp\ccSmV8cy.s:837    .text.rcu_apb2_clock_config:0000000000000000 .L0 
C:\Users\CYMR90~1\AppData\Local\Temp\ccSmV8cy.s:838    .text.rcu_apb2_clock_config:0000000000000000 .L0 
C:\Users\CYMR90~1\AppData\Local\Temp\ccSmV8cy.s:839    .text.rcu_apb2_clock_config:0000000000000002 .L0 
C:\Users\CYMR90~1\AppData\Local\Temp\ccSmV8cy.s:841    .text.rcu_apb2_clock_config:0000000000000004 .L0 
C:\Users\CYMR90~1\AppData\Local\Temp\ccSmV8cy.s:843    .text.rcu_apb2_clock_config:0000000000000006 .L0 
C:\Users\CYMR90~1\AppData\Local\Temp\ccSmV8cy.s:846    .text.rcu_apb2_clock_config:000000000000000a .L0 
C:\Users\CYMR90~1\AppData\Local\Temp\ccSmV8cy.s:849    .text.rcu_apb2_clock_config:0000000000000012 .L0 
C:\Users\CYMR90~1\AppData\Local\Temp\ccSmV8cy.s:852    .text.rcu_apb2_clock_config:0000000000000018 .L0 
C:\Users\CYMR90~1\AppData\Local\Temp\ccSmV8cy.s:858    .text.rcu_apb2_clock_config:0000000000000026 .L0 
C:\Users\CYMR90~1\AppData\Local\Temp\ccSmV8cy.s:861    .text.rcu_apb2_clock_config:000000000000002e .L0 
C:\Users\CYMR90~1\AppData\Local\Temp\ccSmV8cy.s:865    .text.rcu_apb2_clock_config:0000000000000038 .L0 
C:\Users\CYMR90~1\AppData\Local\Temp\ccSmV8cy.s:867    .text.rcu_apb2_clock_config:000000000000003a .L0 
C:\Users\CYMR90~1\AppData\Local\Temp\ccSmV8cy.s:869    .text.rcu_apb2_clock_config:000000000000003e .L0 
C:\Users\CYMR90~1\AppData\Local\Temp\ccSmV8cy.s:870    .text.rcu_apb2_clock_config:000000000000003e .L0 
C:\Users\CYMR90~1\AppData\Local\Temp\ccSmV8cy.s:872    .text.rcu_apb2_clock_config:0000000000000040 .L0 
C:\Users\CYMR90~1\AppData\Local\Temp\ccSmV8cy.s:874    .text.rcu_apb2_clock_config:0000000000000042 .L0 
C:\Users\CYMR90~1\AppData\Local\Temp\ccSmV8cy.s:881    .text.rcu_ckout0_config:0000000000000000 rcu_ckout0_config
C:\Users\CYMR90~1\AppData\Local\Temp\ccSmV8cy.s:884    .text.rcu_ckout0_config:0000000000000000 .L0 
C:\Users\CYMR90~1\AppData\Local\Temp\ccSmV8cy.s:885    .text.rcu_ckout0_config:0000000000000000 .L0 
C:\Users\CYMR90~1\AppData\Local\Temp\ccSmV8cy.s:886    .text.rcu_ckout0_config:0000000000000002 .L0 
C:\Users\CYMR90~1\AppData\Local\Temp\ccSmV8cy.s:888    .text.rcu_ckout0_config:0000000000000004 .L0 
C:\Users\CYMR90~1\AppData\Local\Temp\ccSmV8cy.s:890    .text.rcu_ckout0_config:0000000000000006 .L0 
C:\Users\CYMR90~1\AppData\Local\Temp\ccSmV8cy.s:894    .text.rcu_ckout0_config:000000000000000e .L0 
C:\Users\CYMR90~1\AppData\Local\Temp\ccSmV8cy.s:897    .text.rcu_ckout0_config:0000000000000016 .L0 
C:\Users\CYMR90~1\AppData\Local\Temp\ccSmV8cy.s:900    .text.rcu_ckout0_config:000000000000001c .L0 
C:\Users\CYMR90~1\AppData\Local\Temp\ccSmV8cy.s:906    .text.rcu_ckout0_config:000000000000002c .L0 
C:\Users\CYMR90~1\AppData\Local\Temp\ccSmV8cy.s:910    .text.rcu_ckout0_config:0000000000000038 .L0 
C:\Users\CYMR90~1\AppData\Local\Temp\ccSmV8cy.s:913    .text.rcu_ckout0_config:0000000000000040 .L0 
C:\Users\CYMR90~1\AppData\Local\Temp\ccSmV8cy.s:916    .text.rcu_ckout0_config:0000000000000046 .L0 
C:\Users\CYMR90~1\AppData\Local\Temp\ccSmV8cy.s:918    .text.rcu_ckout0_config:0000000000000048 .L0 
C:\Users\CYMR90~1\AppData\Local\Temp\ccSmV8cy.s:920    .text.rcu_ckout0_config:000000000000004c .L0 
C:\Users\CYMR90~1\AppData\Local\Temp\ccSmV8cy.s:921    .text.rcu_ckout0_config:000000000000004c .L0 
C:\Users\CYMR90~1\AppData\Local\Temp\ccSmV8cy.s:923    .text.rcu_ckout0_config:000000000000004e .L0 
C:\Users\CYMR90~1\AppData\Local\Temp\ccSmV8cy.s:925    .text.rcu_ckout0_config:0000000000000050 .L0 
C:\Users\CYMR90~1\AppData\Local\Temp\ccSmV8cy.s:932    .text.rcu_ckout1_config:0000000000000000 rcu_ckout1_config
C:\Users\CYMR90~1\AppData\Local\Temp\ccSmV8cy.s:935    .text.rcu_ckout1_config:0000000000000000 .L0 
C:\Users\CYMR90~1\AppData\Local\Temp\ccSmV8cy.s:936    .text.rcu_ckout1_config:0000000000000000 .L0 
C:\Users\CYMR90~1\AppData\Local\Temp\ccSmV8cy.s:937    .text.rcu_ckout1_config:0000000000000002 .L0 
C:\Users\CYMR90~1\AppData\Local\Temp\ccSmV8cy.s:939    .text.rcu_ckout1_config:0000000000000004 .L0 
C:\Users\CYMR90~1\AppData\Local\Temp\ccSmV8cy.s:941    .text.rcu_ckout1_config:0000000000000006 .L0 
C:\Users\CYMR90~1\AppData\Local\Temp\ccSmV8cy.s:945    .text.rcu_ckout1_config:000000000000000e .L0 
C:\Users\CYMR90~1\AppData\Local\Temp\ccSmV8cy.s:948    .text.rcu_ckout1_config:0000000000000016 .L0 
C:\Users\CYMR90~1\AppData\Local\Temp\ccSmV8cy.s:951    .text.rcu_ckout1_config:000000000000001c .L0 
C:\Users\CYMR90~1\AppData\Local\Temp\ccSmV8cy.s:957    .text.rcu_ckout1_config:000000000000002c .L0 
C:\Users\CYMR90~1\AppData\Local\Temp\ccSmV8cy.s:961    .text.rcu_ckout1_config:0000000000000038 .L0 
C:\Users\CYMR90~1\AppData\Local\Temp\ccSmV8cy.s:964    .text.rcu_ckout1_config:0000000000000040 .L0 
C:\Users\CYMR90~1\AppData\Local\Temp\ccSmV8cy.s:967    .text.rcu_ckout1_config:0000000000000046 .L0 
C:\Users\CYMR90~1\AppData\Local\Temp\ccSmV8cy.s:969    .text.rcu_ckout1_config:0000000000000048 .L0 
C:\Users\CYMR90~1\AppData\Local\Temp\ccSmV8cy.s:971    .text.rcu_ckout1_config:000000000000004c .L0 
C:\Users\CYMR90~1\AppData\Local\Temp\ccSmV8cy.s:972    .text.rcu_ckout1_config:000000000000004c .L0 
C:\Users\CYMR90~1\AppData\Local\Temp\ccSmV8cy.s:974    .text.rcu_ckout1_config:000000000000004e .L0 
C:\Users\CYMR90~1\AppData\Local\Temp\ccSmV8cy.s:976    .text.rcu_ckout1_config:0000000000000050 .L0 
C:\Users\CYMR90~1\AppData\Local\Temp\ccSmV8cy.s:983    .text.rcu_plldig_config:0000000000000000 rcu_plldig_config
C:\Users\CYMR90~1\AppData\Local\Temp\ccSmV8cy.s:986    .text.rcu_plldig_config:0000000000000000 .L0 
C:\Users\CYMR90~1\AppData\Local\Temp\ccSmV8cy.s:987    .text.rcu_plldig_config:0000000000000000 .L0 
C:\Users\CYMR90~1\AppData\Local\Temp\ccSmV8cy.s:988    .text.rcu_plldig_config:0000000000000002 .L0 
C:\Users\CYMR90~1\AppData\Local\Temp\ccSmV8cy.s:990    .text.rcu_plldig_config:0000000000000004 .L0 
C:\Users\CYMR90~1\AppData\Local\Temp\ccSmV8cy.s:992    .text.rcu_plldig_config:0000000000000006 .L0 
C:\Users\CYMR90~1\AppData\Local\Temp\ccSmV8cy.s:995    .text.rcu_plldig_config:000000000000000a .L0 
C:\Users\CYMR90~1\AppData\Local\Temp\ccSmV8cy.s:1005   .text.rcu_plldig_config:0000000000000026 .L0 
C:\Users\CYMR90~1\AppData\Local\Temp\ccSmV8cy.s:1014   .text.rcu_plldig_config:0000000000000040 .L0 
C:\Users\CYMR90~1\AppData\Local\Temp\ccSmV8cy.s:1016   .text.rcu_plldig_config:0000000000000044 .L0 
C:\Users\CYMR90~1\AppData\Local\Temp\ccSmV8cy.s:1017   .text.rcu_plldig_config:0000000000000044 .L0 
C:\Users\CYMR90~1\AppData\Local\Temp\ccSmV8cy.s:1019   .text.rcu_plldig_config:0000000000000046 .L0 
C:\Users\CYMR90~1\AppData\Local\Temp\ccSmV8cy.s:1021   .text.rcu_plldig_config:0000000000000048 .L0 
C:\Users\CYMR90~1\AppData\Local\Temp\ccSmV8cy.s:1028   .text.rcu_plldigdiv_sys_config:0000000000000000 rcu_plldigdiv_sys_config
C:\Users\CYMR90~1\AppData\Local\Temp\ccSmV8cy.s:1031   .text.rcu_plldigdiv_sys_config:0000000000000000 .L0 
C:\Users\CYMR90~1\AppData\Local\Temp\ccSmV8cy.s:1032   .text.rcu_plldigdiv_sys_config:0000000000000000 .L0 
C:\Users\CYMR90~1\AppData\Local\Temp\ccSmV8cy.s:1033   .text.rcu_plldigdiv_sys_config:0000000000000002 .L0 
C:\Users\CYMR90~1\AppData\Local\Temp\ccSmV8cy.s:1035   .text.rcu_plldigdiv_sys_config:0000000000000004 .L0 
C:\Users\CYMR90~1\AppData\Local\Temp\ccSmV8cy.s:1037   .text.rcu_plldigdiv_sys_config:0000000000000006 .L0 
C:\Users\CYMR90~1\AppData\Local\Temp\ccSmV8cy.s:1040   .text.rcu_plldigdiv_sys_config:000000000000000a .L0 
C:\Users\CYMR90~1\AppData\Local\Temp\ccSmV8cy.s:1043   .text.rcu_plldigdiv_sys_config:0000000000000012 .L0 
C:\Users\CYMR90~1\AppData\Local\Temp\ccSmV8cy.s:1046   .text.rcu_plldigdiv_sys_config:0000000000000018 .L0 
C:\Users\CYMR90~1\AppData\Local\Temp\ccSmV8cy.s:1052   .text.rcu_plldigdiv_sys_config:0000000000000028 .L0 
C:\Users\CYMR90~1\AppData\Local\Temp\ccSmV8cy.s:1055   .text.rcu_plldigdiv_sys_config:0000000000000030 .L0 
C:\Users\CYMR90~1\AppData\Local\Temp\ccSmV8cy.s:1059   .text.rcu_plldigdiv_sys_config:000000000000003a .L0 
C:\Users\CYMR90~1\AppData\Local\Temp\ccSmV8cy.s:1061   .text.rcu_plldigdiv_sys_config:000000000000003c .L0 
C:\Users\CYMR90~1\AppData\Local\Temp\ccSmV8cy.s:1063   .text.rcu_plldigdiv_sys_config:0000000000000040 .L0 
C:\Users\CYMR90~1\AppData\Local\Temp\ccSmV8cy.s:1064   .text.rcu_plldigdiv_sys_config:0000000000000040 .L0 
C:\Users\CYMR90~1\AppData\Local\Temp\ccSmV8cy.s:1066   .text.rcu_plldigdiv_sys_config:0000000000000042 .L0 
C:\Users\CYMR90~1\AppData\Local\Temp\ccSmV8cy.s:1068   .text.rcu_plldigdiv_sys_config:0000000000000044 .L0 
C:\Users\CYMR90~1\AppData\Local\Temp\ccSmV8cy.s:1075   .text.rcu_rtc_clock_config:0000000000000000 rcu_rtc_clock_config
C:\Users\CYMR90~1\AppData\Local\Temp\ccSmV8cy.s:1078   .text.rcu_rtc_clock_config:0000000000000000 .L0 
C:\Users\CYMR90~1\AppData\Local\Temp\ccSmV8cy.s:1079   .text.rcu_rtc_clock_config:0000000000000000 .L0 
C:\Users\CYMR90~1\AppData\Local\Temp\ccSmV8cy.s:1080   .text.rcu_rtc_clock_config:0000000000000002 .L0 
C:\Users\CYMR90~1\AppData\Local\Temp\ccSmV8cy.s:1082   .text.rcu_rtc_clock_config:0000000000000004 .L0 
C:\Users\CYMR90~1\AppData\Local\Temp\ccSmV8cy.s:1084   .text.rcu_rtc_clock_config:0000000000000006 .L0 
C:\Users\CYMR90~1\AppData\Local\Temp\ccSmV8cy.s:1087   .text.rcu_rtc_clock_config:000000000000000a .L0 
C:\Users\CYMR90~1\AppData\Local\Temp\ccSmV8cy.s:1090   .text.rcu_rtc_clock_config:0000000000000012 .L0 
C:\Users\CYMR90~1\AppData\Local\Temp\ccSmV8cy.s:1093   .text.rcu_rtc_clock_config:0000000000000018 .L0 
C:\Users\CYMR90~1\AppData\Local\Temp\ccSmV8cy.s:1097   .text.rcu_rtc_clock_config:0000000000000024 .L0 
C:\Users\CYMR90~1\AppData\Local\Temp\ccSmV8cy.s:1100   .text.rcu_rtc_clock_config:000000000000002c .L0 
C:\Users\CYMR90~1\AppData\Local\Temp\ccSmV8cy.s:1104   .text.rcu_rtc_clock_config:0000000000000036 .L0 
C:\Users\CYMR90~1\AppData\Local\Temp\ccSmV8cy.s:1106   .text.rcu_rtc_clock_config:0000000000000038 .L0 
C:\Users\CYMR90~1\AppData\Local\Temp\ccSmV8cy.s:1108   .text.rcu_rtc_clock_config:000000000000003c .L0 
C:\Users\CYMR90~1\AppData\Local\Temp\ccSmV8cy.s:1109   .text.rcu_rtc_clock_config:000000000000003c .L0 
C:\Users\CYMR90~1\AppData\Local\Temp\ccSmV8cy.s:1111   .text.rcu_rtc_clock_config:000000000000003e .L0 
C:\Users\CYMR90~1\AppData\Local\Temp\ccSmV8cy.s:1113   .text.rcu_rtc_clock_config:0000000000000040 .L0 
C:\Users\CYMR90~1\AppData\Local\Temp\ccSmV8cy.s:1120   .text.rcu_rtc_div_config:0000000000000000 rcu_rtc_div_config
C:\Users\CYMR90~1\AppData\Local\Temp\ccSmV8cy.s:1123   .text.rcu_rtc_div_config:0000000000000000 .L0 
C:\Users\CYMR90~1\AppData\Local\Temp\ccSmV8cy.s:1124   .text.rcu_rtc_div_config:0000000000000000 .L0 
C:\Users\CYMR90~1\AppData\Local\Temp\ccSmV8cy.s:1125   .text.rcu_rtc_div_config:0000000000000002 .L0 
C:\Users\CYMR90~1\AppData\Local\Temp\ccSmV8cy.s:1127   .text.rcu_rtc_div_config:0000000000000004 .L0 
C:\Users\CYMR90~1\AppData\Local\Temp\ccSmV8cy.s:1129   .text.rcu_rtc_div_config:0000000000000006 .L0 
C:\Users\CYMR90~1\AppData\Local\Temp\ccSmV8cy.s:1132   .text.rcu_rtc_div_config:000000000000000a .L0 
C:\Users\CYMR90~1\AppData\Local\Temp\ccSmV8cy.s:1135   .text.rcu_rtc_div_config:0000000000000012 .L0 
C:\Users\CYMR90~1\AppData\Local\Temp\ccSmV8cy.s:1138   .text.rcu_rtc_div_config:0000000000000018 .L0 
C:\Users\CYMR90~1\AppData\Local\Temp\ccSmV8cy.s:1144   .text.rcu_rtc_div_config:0000000000000028 .L0 
C:\Users\CYMR90~1\AppData\Local\Temp\ccSmV8cy.s:1147   .text.rcu_rtc_div_config:0000000000000030 .L0 
C:\Users\CYMR90~1\AppData\Local\Temp\ccSmV8cy.s:1151   .text.rcu_rtc_div_config:000000000000003a .L0 
C:\Users\CYMR90~1\AppData\Local\Temp\ccSmV8cy.s:1153   .text.rcu_rtc_div_config:000000000000003c .L0 
C:\Users\CYMR90~1\AppData\Local\Temp\ccSmV8cy.s:1155   .text.rcu_rtc_div_config:0000000000000040 .L0 
C:\Users\CYMR90~1\AppData\Local\Temp\ccSmV8cy.s:1156   .text.rcu_rtc_div_config:0000000000000040 .L0 
C:\Users\CYMR90~1\AppData\Local\Temp\ccSmV8cy.s:1158   .text.rcu_rtc_div_config:0000000000000042 .L0 
C:\Users\CYMR90~1\AppData\Local\Temp\ccSmV8cy.s:1160   .text.rcu_rtc_div_config:0000000000000044 .L0 
C:\Users\CYMR90~1\AppData\Local\Temp\ccSmV8cy.s:1167   .text.rcu_trng_div_config:0000000000000000 rcu_trng_div_config
C:\Users\CYMR90~1\AppData\Local\Temp\ccSmV8cy.s:1170   .text.rcu_trng_div_config:0000000000000000 .L0 
C:\Users\CYMR90~1\AppData\Local\Temp\ccSmV8cy.s:1171   .text.rcu_trng_div_config:0000000000000000 .L0 
C:\Users\CYMR90~1\AppData\Local\Temp\ccSmV8cy.s:1172   .text.rcu_trng_div_config:0000000000000002 .L0 
C:\Users\CYMR90~1\AppData\Local\Temp\ccSmV8cy.s:1174   .text.rcu_trng_div_config:0000000000000004 .L0 
C:\Users\CYMR90~1\AppData\Local\Temp\ccSmV8cy.s:1176   .text.rcu_trng_div_config:0000000000000006 .L0 
C:\Users\CYMR90~1\AppData\Local\Temp\ccSmV8cy.s:1179   .text.rcu_trng_div_config:000000000000000a .L0 
C:\Users\CYMR90~1\AppData\Local\Temp\ccSmV8cy.s:1182   .text.rcu_trng_div_config:0000000000000012 .L0 
C:\Users\CYMR90~1\AppData\Local\Temp\ccSmV8cy.s:1185   .text.rcu_trng_div_config:0000000000000018 .L0 
C:\Users\CYMR90~1\AppData\Local\Temp\ccSmV8cy.s:1189   .text.rcu_trng_div_config:0000000000000024 .L0 
C:\Users\CYMR90~1\AppData\Local\Temp\ccSmV8cy.s:1192   .text.rcu_trng_div_config:000000000000002c .L0 
C:\Users\CYMR90~1\AppData\Local\Temp\ccSmV8cy.s:1196   .text.rcu_trng_div_config:0000000000000036 .L0 
C:\Users\CYMR90~1\AppData\Local\Temp\ccSmV8cy.s:1198   .text.rcu_trng_div_config:0000000000000038 .L0 
C:\Users\CYMR90~1\AppData\Local\Temp\ccSmV8cy.s:1200   .text.rcu_trng_div_config:000000000000003c .L0 
C:\Users\CYMR90~1\AppData\Local\Temp\ccSmV8cy.s:1201   .text.rcu_trng_div_config:000000000000003c .L0 
C:\Users\CYMR90~1\AppData\Local\Temp\ccSmV8cy.s:1203   .text.rcu_trng_div_config:000000000000003e .L0 
C:\Users\CYMR90~1\AppData\Local\Temp\ccSmV8cy.s:1205   .text.rcu_trng_div_config:0000000000000040 .L0 
C:\Users\CYMR90~1\AppData\Local\Temp\ccSmV8cy.s:1212   .text.rcu_i2c0_clock_config:0000000000000000 rcu_i2c0_clock_config
C:\Users\CYMR90~1\AppData\Local\Temp\ccSmV8cy.s:1215   .text.rcu_i2c0_clock_config:0000000000000000 .L0 
C:\Users\CYMR90~1\AppData\Local\Temp\ccSmV8cy.s:1216   .text.rcu_i2c0_clock_config:0000000000000000 .L0 
C:\Users\CYMR90~1\AppData\Local\Temp\ccSmV8cy.s:1217   .text.rcu_i2c0_clock_config:0000000000000002 .L0 
C:\Users\CYMR90~1\AppData\Local\Temp\ccSmV8cy.s:1219   .text.rcu_i2c0_clock_config:0000000000000004 .L0 
C:\Users\CYMR90~1\AppData\Local\Temp\ccSmV8cy.s:1221   .text.rcu_i2c0_clock_config:0000000000000006 .L0 
C:\Users\CYMR90~1\AppData\Local\Temp\ccSmV8cy.s:1224   .text.rcu_i2c0_clock_config:000000000000000a .L0 
C:\Users\CYMR90~1\AppData\Local\Temp\ccSmV8cy.s:1227   .text.rcu_i2c0_clock_config:0000000000000012 .L0 
C:\Users\CYMR90~1\AppData\Local\Temp\ccSmV8cy.s:1230   .text.rcu_i2c0_clock_config:0000000000000018 .L0 
C:\Users\CYMR90~1\AppData\Local\Temp\ccSmV8cy.s:1236   .text.rcu_i2c0_clock_config:0000000000000028 .L0 
C:\Users\CYMR90~1\AppData\Local\Temp\ccSmV8cy.s:1239   .text.rcu_i2c0_clock_config:0000000000000030 .L0 
C:\Users\CYMR90~1\AppData\Local\Temp\ccSmV8cy.s:1243   .text.rcu_i2c0_clock_config:000000000000003a .L0 
C:\Users\CYMR90~1\AppData\Local\Temp\ccSmV8cy.s:1245   .text.rcu_i2c0_clock_config:000000000000003c .L0 
C:\Users\CYMR90~1\AppData\Local\Temp\ccSmV8cy.s:1247   .text.rcu_i2c0_clock_config:0000000000000040 .L0 
C:\Users\CYMR90~1\AppData\Local\Temp\ccSmV8cy.s:1248   .text.rcu_i2c0_clock_config:0000000000000040 .L0 
C:\Users\CYMR90~1\AppData\Local\Temp\ccSmV8cy.s:1250   .text.rcu_i2c0_clock_config:0000000000000042 .L0 
C:\Users\CYMR90~1\AppData\Local\Temp\ccSmV8cy.s:1252   .text.rcu_i2c0_clock_config:0000000000000044 .L0 
C:\Users\CYMR90~1\AppData\Local\Temp\ccSmV8cy.s:1259   .text.rcu_usart0_clock_config:0000000000000000 rcu_usart0_clock_config
C:\Users\CYMR90~1\AppData\Local\Temp\ccSmV8cy.s:1262   .text.rcu_usart0_clock_config:0000000000000000 .L0 
C:\Users\CYMR90~1\AppData\Local\Temp\ccSmV8cy.s:1263   .text.rcu_usart0_clock_config:0000000000000000 .L0 
C:\Users\CYMR90~1\AppData\Local\Temp\ccSmV8cy.s:1264   .text.rcu_usart0_clock_config:0000000000000002 .L0 
C:\Users\CYMR90~1\AppData\Local\Temp\ccSmV8cy.s:1266   .text.rcu_usart0_clock_config:0000000000000004 .L0 
C:\Users\CYMR90~1\AppData\Local\Temp\ccSmV8cy.s:1268   .text.rcu_usart0_clock_config:0000000000000006 .L0 
C:\Users\CYMR90~1\AppData\Local\Temp\ccSmV8cy.s:1271   .text.rcu_usart0_clock_config:000000000000000a .L0 
C:\Users\CYMR90~1\AppData\Local\Temp\ccSmV8cy.s:1274   .text.rcu_usart0_clock_config:0000000000000012 .L0 
C:\Users\CYMR90~1\AppData\Local\Temp\ccSmV8cy.s:1277   .text.rcu_usart0_clock_config:0000000000000018 .L0 
C:\Users\CYMR90~1\AppData\Local\Temp\ccSmV8cy.s:1283   .text.rcu_usart0_clock_config:0000000000000028 .L0 
C:\Users\CYMR90~1\AppData\Local\Temp\ccSmV8cy.s:1286   .text.rcu_usart0_clock_config:0000000000000030 .L0 
C:\Users\CYMR90~1\AppData\Local\Temp\ccSmV8cy.s:1290   .text.rcu_usart0_clock_config:000000000000003a .L0 
C:\Users\CYMR90~1\AppData\Local\Temp\ccSmV8cy.s:1292   .text.rcu_usart0_clock_config:000000000000003c .L0 
C:\Users\CYMR90~1\AppData\Local\Temp\ccSmV8cy.s:1294   .text.rcu_usart0_clock_config:0000000000000040 .L0 
C:\Users\CYMR90~1\AppData\Local\Temp\ccSmV8cy.s:1295   .text.rcu_usart0_clock_config:0000000000000040 .L0 
C:\Users\CYMR90~1\AppData\Local\Temp\ccSmV8cy.s:1297   .text.rcu_usart0_clock_config:0000000000000042 .L0 
C:\Users\CYMR90~1\AppData\Local\Temp\ccSmV8cy.s:1299   .text.rcu_usart0_clock_config:0000000000000044 .L0 
C:\Users\CYMR90~1\AppData\Local\Temp\ccSmV8cy.s:1306   .text.rcu_irc16m_div_config:0000000000000000 rcu_irc16m_div_config
C:\Users\CYMR90~1\AppData\Local\Temp\ccSmV8cy.s:1309   .text.rcu_irc16m_div_config:0000000000000000 .L0 
C:\Users\CYMR90~1\AppData\Local\Temp\ccSmV8cy.s:1310   .text.rcu_irc16m_div_config:0000000000000000 .L0 
C:\Users\CYMR90~1\AppData\Local\Temp\ccSmV8cy.s:1311   .text.rcu_irc16m_div_config:0000000000000002 .L0 
C:\Users\CYMR90~1\AppData\Local\Temp\ccSmV8cy.s:1313   .text.rcu_irc16m_div_config:0000000000000004 .L0 
C:\Users\CYMR90~1\AppData\Local\Temp\ccSmV8cy.s:1315   .text.rcu_irc16m_div_config:0000000000000006 .L0 
C:\Users\CYMR90~1\AppData\Local\Temp\ccSmV8cy.s:1318   .text.rcu_irc16m_div_config:000000000000000a .L0 
C:\Users\CYMR90~1\AppData\Local\Temp\ccSmV8cy.s:1321   .text.rcu_irc16m_div_config:0000000000000012 .L0 
C:\Users\CYMR90~1\AppData\Local\Temp\ccSmV8cy.s:1324   .text.rcu_irc16m_div_config:0000000000000018 .L0 
C:\Users\CYMR90~1\AppData\Local\Temp\ccSmV8cy.s:1328   .text.rcu_irc16m_div_config:0000000000000024 .L0 
C:\Users\CYMR90~1\AppData\Local\Temp\ccSmV8cy.s:1331   .text.rcu_irc16m_div_config:000000000000002c .L0 
C:\Users\CYMR90~1\AppData\Local\Temp\ccSmV8cy.s:1335   .text.rcu_irc16m_div_config:0000000000000036 .L0 
C:\Users\CYMR90~1\AppData\Local\Temp\ccSmV8cy.s:1337   .text.rcu_irc16m_div_config:0000000000000038 .L0 
C:\Users\CYMR90~1\AppData\Local\Temp\ccSmV8cy.s:1339   .text.rcu_irc16m_div_config:000000000000003c .L0 
C:\Users\CYMR90~1\AppData\Local\Temp\ccSmV8cy.s:1340   .text.rcu_irc16m_div_config:000000000000003c .L0 
C:\Users\CYMR90~1\AppData\Local\Temp\ccSmV8cy.s:1342   .text.rcu_irc16m_div_config:000000000000003e .L0 
C:\Users\CYMR90~1\AppData\Local\Temp\ccSmV8cy.s:1344   .text.rcu_irc16m_div_config:0000000000000040 .L0 
C:\Users\CYMR90~1\AppData\Local\Temp\ccSmV8cy.s:1351   .text.rcu_timer_clock_prescaler_config:0000000000000000 rcu_timer_clock_prescaler_config
C:\Users\CYMR90~1\AppData\Local\Temp\ccSmV8cy.s:1354   .text.rcu_timer_clock_prescaler_config:0000000000000000 .L0 
C:\Users\CYMR90~1\AppData\Local\Temp\ccSmV8cy.s:1355   .text.rcu_timer_clock_prescaler_config:0000000000000000 .L0 
C:\Users\CYMR90~1\AppData\Local\Temp\ccSmV8cy.s:1356   .text.rcu_timer_clock_prescaler_config:0000000000000002 .L0 
C:\Users\CYMR90~1\AppData\Local\Temp\ccSmV8cy.s:1358   .text.rcu_timer_clock_prescaler_config:0000000000000004 .L0 
C:\Users\CYMR90~1\AppData\Local\Temp\ccSmV8cy.s:1360   .text.rcu_timer_clock_prescaler_config:0000000000000006 .L0 
C:\Users\CYMR90~1\AppData\Local\Temp\ccSmV8cy.s:1363   .text.rcu_timer_clock_prescaler_config:000000000000000a .L0 
C:\Users\CYMR90~1\AppData\Local\Temp\ccSmV8cy.s:1368   .text.rcu_timer_clock_prescaler_config:0000000000000018 .L0 
C:\Users\CYMR90~1\AppData\Local\Temp\ccSmV8cy.s:1377   .text.rcu_timer_clock_prescaler_config:0000000000000032 .L0 
C:\Users\CYMR90~1\AppData\Local\Temp\ccSmV8cy.s:1380   .text.rcu_timer_clock_prescaler_config:0000000000000034 .L0 
C:\Users\CYMR90~1\AppData\Local\Temp\ccSmV8cy.s:1390   .text.rcu_timer_clock_prescaler_config:000000000000004e .L0 
C:\Users\CYMR90~1\AppData\Local\Temp\ccSmV8cy.s:1392   .text.rcu_timer_clock_prescaler_config:0000000000000052 .L0 
C:\Users\CYMR90~1\AppData\Local\Temp\ccSmV8cy.s:1393   .text.rcu_timer_clock_prescaler_config:0000000000000052 .L0 
C:\Users\CYMR90~1\AppData\Local\Temp\ccSmV8cy.s:1395   .text.rcu_timer_clock_prescaler_config:0000000000000054 .L0 
C:\Users\CYMR90~1\AppData\Local\Temp\ccSmV8cy.s:1397   .text.rcu_timer_clock_prescaler_config:0000000000000056 .L0 
C:\Users\CYMR90~1\AppData\Local\Temp\ccSmV8cy.s:1404   .text.rcu_flag_get:0000000000000000 rcu_flag_get
C:\Users\CYMR90~1\AppData\Local\Temp\ccSmV8cy.s:1407   .text.rcu_flag_get:0000000000000000 .L0 
C:\Users\CYMR90~1\AppData\Local\Temp\ccSmV8cy.s:1408   .text.rcu_flag_get:0000000000000000 .L0 
C:\Users\CYMR90~1\AppData\Local\Temp\ccSmV8cy.s:1409   .text.rcu_flag_get:0000000000000002 .L0 
C:\Users\CYMR90~1\AppData\Local\Temp\ccSmV8cy.s:1411   .text.rcu_flag_get:0000000000000004 .L0 
C:\Users\CYMR90~1\AppData\Local\Temp\ccSmV8cy.s:1413   .text.rcu_flag_get:0000000000000006 .L0 
C:\Users\CYMR90~1\AppData\Local\Temp\ccSmV8cy.s:1416   .text.rcu_flag_get:000000000000000a .L0 
C:\Users\CYMR90~1\AppData\Local\Temp\ccSmV8cy.s:1423   .text.rcu_flag_get:000000000000001e .L0 
C:\Users\CYMR90~1\AppData\Local\Temp\ccSmV8cy.s:1426   .text.rcu_flag_get:0000000000000024 .L0 
C:\Users\CYMR90~1\AppData\Local\Temp\ccSmV8cy.s:1429   .text.rcu_flag_get:000000000000002a .L0 
C:\Users\CYMR90~1\AppData\Local\Temp\ccSmV8cy.s:1431   .text.rcu_flag_get:000000000000002c .L0 
C:\Users\CYMR90~1\AppData\Local\Temp\ccSmV8cy.s:1435   .text.rcu_flag_get:0000000000000030 .L0 
C:\Users\CYMR90~1\AppData\Local\Temp\ccSmV8cy.s:1438   .text.rcu_flag_get:0000000000000032 .L0 
C:\Users\CYMR90~1\AppData\Local\Temp\ccSmV8cy.s:1440   .text.rcu_flag_get:0000000000000036 .L0 
C:\Users\CYMR90~1\AppData\Local\Temp\ccSmV8cy.s:1441   .text.rcu_flag_get:0000000000000036 .L0 
C:\Users\CYMR90~1\AppData\Local\Temp\ccSmV8cy.s:1443   .text.rcu_flag_get:0000000000000038 .L0 
C:\Users\CYMR90~1\AppData\Local\Temp\ccSmV8cy.s:1445   .text.rcu_flag_get:000000000000003a .L0 
C:\Users\CYMR90~1\AppData\Local\Temp\ccSmV8cy.s:1452   .text.rcu_all_reset_flag_clear:0000000000000000 rcu_all_reset_flag_clear
C:\Users\CYMR90~1\AppData\Local\Temp\ccSmV8cy.s:1455   .text.rcu_all_reset_flag_clear:0000000000000000 .L0 
C:\Users\CYMR90~1\AppData\Local\Temp\ccSmV8cy.s:1456   .text.rcu_all_reset_flag_clear:0000000000000000 .L0 
C:\Users\CYMR90~1\AppData\Local\Temp\ccSmV8cy.s:1457   .text.rcu_all_reset_flag_clear:0000000000000002 .L0 
C:\Users\CYMR90~1\AppData\Local\Temp\ccSmV8cy.s:1459   .text.rcu_all_reset_flag_clear:0000000000000004 .L0 
C:\Users\CYMR90~1\AppData\Local\Temp\ccSmV8cy.s:1461   .text.rcu_all_reset_flag_clear:0000000000000006 .L0 
C:\Users\CYMR90~1\AppData\Local\Temp\ccSmV8cy.s:1463   .text.rcu_all_reset_flag_clear:0000000000000006 .L0 
C:\Users\CYMR90~1\AppData\Local\Temp\ccSmV8cy.s:1472   .text.rcu_all_reset_flag_clear:0000000000000020 .L0 
C:\Users\CYMR90~1\AppData\Local\Temp\ccSmV8cy.s:1474   .text.rcu_all_reset_flag_clear:0000000000000024 .L0 
C:\Users\CYMR90~1\AppData\Local\Temp\ccSmV8cy.s:1475   .text.rcu_all_reset_flag_clear:0000000000000024 .L0 
C:\Users\CYMR90~1\AppData\Local\Temp\ccSmV8cy.s:1477   .text.rcu_all_reset_flag_clear:0000000000000026 .L0 
C:\Users\CYMR90~1\AppData\Local\Temp\ccSmV8cy.s:1479   .text.rcu_all_reset_flag_clear:0000000000000028 .L0 
C:\Users\CYMR90~1\AppData\Local\Temp\ccSmV8cy.s:1486   .text.rcu_interrupt_flag_get:0000000000000000 rcu_interrupt_flag_get
C:\Users\CYMR90~1\AppData\Local\Temp\ccSmV8cy.s:1489   .text.rcu_interrupt_flag_get:0000000000000000 .L0 
C:\Users\CYMR90~1\AppData\Local\Temp\ccSmV8cy.s:1490   .text.rcu_interrupt_flag_get:0000000000000000 .L0 
C:\Users\CYMR90~1\AppData\Local\Temp\ccSmV8cy.s:1491   .text.rcu_interrupt_flag_get:0000000000000002 .L0 
C:\Users\CYMR90~1\AppData\Local\Temp\ccSmV8cy.s:1493   .text.rcu_interrupt_flag_get:0000000000000004 .L0 
C:\Users\CYMR90~1\AppData\Local\Temp\ccSmV8cy.s:1495   .text.rcu_interrupt_flag_get:0000000000000006 .L0 
C:\Users\CYMR90~1\AppData\Local\Temp\ccSmV8cy.s:1498   .text.rcu_interrupt_flag_get:000000000000000a .L0 
C:\Users\CYMR90~1\AppData\Local\Temp\ccSmV8cy.s:1505   .text.rcu_interrupt_flag_get:000000000000001e .L0 
C:\Users\CYMR90~1\AppData\Local\Temp\ccSmV8cy.s:1508   .text.rcu_interrupt_flag_get:0000000000000024 .L0 
C:\Users\CYMR90~1\AppData\Local\Temp\ccSmV8cy.s:1511   .text.rcu_interrupt_flag_get:000000000000002a .L0 
C:\Users\CYMR90~1\AppData\Local\Temp\ccSmV8cy.s:1513   .text.rcu_interrupt_flag_get:000000000000002c .L0 
C:\Users\CYMR90~1\AppData\Local\Temp\ccSmV8cy.s:1517   .text.rcu_interrupt_flag_get:0000000000000030 .L0 
C:\Users\CYMR90~1\AppData\Local\Temp\ccSmV8cy.s:1520   .text.rcu_interrupt_flag_get:0000000000000032 .L0 
C:\Users\CYMR90~1\AppData\Local\Temp\ccSmV8cy.s:1522   .text.rcu_interrupt_flag_get:0000000000000036 .L0 
C:\Users\CYMR90~1\AppData\Local\Temp\ccSmV8cy.s:1523   .text.rcu_interrupt_flag_get:0000000000000036 .L0 
C:\Users\CYMR90~1\AppData\Local\Temp\ccSmV8cy.s:1525   .text.rcu_interrupt_flag_get:0000000000000038 .L0 
C:\Users\CYMR90~1\AppData\Local\Temp\ccSmV8cy.s:1527   .text.rcu_interrupt_flag_get:000000000000003a .L0 
C:\Users\CYMR90~1\AppData\Local\Temp\ccSmV8cy.s:1534   .text.rcu_interrupt_flag_clear:0000000000000000 rcu_interrupt_flag_clear
C:\Users\CYMR90~1\AppData\Local\Temp\ccSmV8cy.s:1537   .text.rcu_interrupt_flag_clear:0000000000000000 .L0 
C:\Users\CYMR90~1\AppData\Local\Temp\ccSmV8cy.s:1538   .text.rcu_interrupt_flag_clear:0000000000000000 .L0 
C:\Users\CYMR90~1\AppData\Local\Temp\ccSmV8cy.s:1539   .text.rcu_interrupt_flag_clear:0000000000000002 .L0 
C:\Users\CYMR90~1\AppData\Local\Temp\ccSmV8cy.s:1541   .text.rcu_interrupt_flag_clear:0000000000000004 .L0 
C:\Users\CYMR90~1\AppData\Local\Temp\ccSmV8cy.s:1543   .text.rcu_interrupt_flag_clear:0000000000000006 .L0 
C:\Users\CYMR90~1\AppData\Local\Temp\ccSmV8cy.s:1546   .text.rcu_interrupt_flag_clear:000000000000000a .L0 
C:\Users\CYMR90~1\AppData\Local\Temp\ccSmV8cy.s:1553   .text.rcu_interrupt_flag_clear:000000000000001e .L0 
C:\Users\CYMR90~1\AppData\Local\Temp\ccSmV8cy.s:1558   .text.rcu_interrupt_flag_clear:000000000000002a .L0 
C:\Users\CYMR90~1\AppData\Local\Temp\ccSmV8cy.s:1566   .text.rcu_interrupt_flag_clear:0000000000000040 .L0 
C:\Users\CYMR90~1\AppData\Local\Temp\ccSmV8cy.s:1568   .text.rcu_interrupt_flag_clear:0000000000000044 .L0 
C:\Users\CYMR90~1\AppData\Local\Temp\ccSmV8cy.s:1569   .text.rcu_interrupt_flag_clear:0000000000000044 .L0 
C:\Users\CYMR90~1\AppData\Local\Temp\ccSmV8cy.s:1571   .text.rcu_interrupt_flag_clear:0000000000000046 .L0 
C:\Users\CYMR90~1\AppData\Local\Temp\ccSmV8cy.s:1573   .text.rcu_interrupt_flag_clear:0000000000000048 .L0 
C:\Users\CYMR90~1\AppData\Local\Temp\ccSmV8cy.s:1580   .text.rcu_interrupt_enable:0000000000000000 rcu_interrupt_enable
C:\Users\CYMR90~1\AppData\Local\Temp\ccSmV8cy.s:1583   .text.rcu_interrupt_enable:0000000000000000 .L0 
C:\Users\CYMR90~1\AppData\Local\Temp\ccSmV8cy.s:1584   .text.rcu_interrupt_enable:0000000000000000 .L0 
C:\Users\CYMR90~1\AppData\Local\Temp\ccSmV8cy.s:1585   .text.rcu_interrupt_enable:0000000000000002 .L0 
C:\Users\CYMR90~1\AppData\Local\Temp\ccSmV8cy.s:1587   .text.rcu_interrupt_enable:0000000000000004 .L0 
C:\Users\CYMR90~1\AppData\Local\Temp\ccSmV8cy.s:1589   .text.rcu_interrupt_enable:0000000000000006 .L0 
C:\Users\CYMR90~1\AppData\Local\Temp\ccSmV8cy.s:1592   .text.rcu_interrupt_enable:000000000000000a .L0 
C:\Users\CYMR90~1\AppData\Local\Temp\ccSmV8cy.s:1599   .text.rcu_interrupt_enable:000000000000001e .L0 
C:\Users\CYMR90~1\AppData\Local\Temp\ccSmV8cy.s:1604   .text.rcu_interrupt_enable:000000000000002a .L0 
C:\Users\CYMR90~1\AppData\Local\Temp\ccSmV8cy.s:1612   .text.rcu_interrupt_enable:0000000000000040 .L0 
C:\Users\CYMR90~1\AppData\Local\Temp\ccSmV8cy.s:1614   .text.rcu_interrupt_enable:0000000000000044 .L0 
C:\Users\CYMR90~1\AppData\Local\Temp\ccSmV8cy.s:1615   .text.rcu_interrupt_enable:0000000000000044 .L0 
C:\Users\CYMR90~1\AppData\Local\Temp\ccSmV8cy.s:1617   .text.rcu_interrupt_enable:0000000000000046 .L0 
C:\Users\CYMR90~1\AppData\Local\Temp\ccSmV8cy.s:1619   .text.rcu_interrupt_enable:0000000000000048 .L0 
C:\Users\CYMR90~1\AppData\Local\Temp\ccSmV8cy.s:1626   .text.rcu_interrupt_disable:0000000000000000 rcu_interrupt_disable
C:\Users\CYMR90~1\AppData\Local\Temp\ccSmV8cy.s:1629   .text.rcu_interrupt_disable:0000000000000000 .L0 
C:\Users\CYMR90~1\AppData\Local\Temp\ccSmV8cy.s:1630   .text.rcu_interrupt_disable:0000000000000000 .L0 
C:\Users\CYMR90~1\AppData\Local\Temp\ccSmV8cy.s:1631   .text.rcu_interrupt_disable:0000000000000002 .L0 
C:\Users\CYMR90~1\AppData\Local\Temp\ccSmV8cy.s:1633   .text.rcu_interrupt_disable:0000000000000004 .L0 
C:\Users\CYMR90~1\AppData\Local\Temp\ccSmV8cy.s:1635   .text.rcu_interrupt_disable:0000000000000006 .L0 
C:\Users\CYMR90~1\AppData\Local\Temp\ccSmV8cy.s:1638   .text.rcu_interrupt_disable:000000000000000a .L0 
C:\Users\CYMR90~1\AppData\Local\Temp\ccSmV8cy.s:1645   .text.rcu_interrupt_disable:000000000000001e .L0 
C:\Users\CYMR90~1\AppData\Local\Temp\ccSmV8cy.s:1650   .text.rcu_interrupt_disable:000000000000002a .L0 
C:\Users\CYMR90~1\AppData\Local\Temp\ccSmV8cy.s:1652   .text.rcu_interrupt_disable:000000000000002e .L0 
C:\Users\CYMR90~1\AppData\Local\Temp\ccSmV8cy.s:1660   .text.rcu_interrupt_disable:0000000000000044 .L0 
C:\Users\CYMR90~1\AppData\Local\Temp\ccSmV8cy.s:1662   .text.rcu_interrupt_disable:0000000000000048 .L0 
C:\Users\CYMR90~1\AppData\Local\Temp\ccSmV8cy.s:1663   .text.rcu_interrupt_disable:0000000000000048 .L0 
C:\Users\CYMR90~1\AppData\Local\Temp\ccSmV8cy.s:1665   .text.rcu_interrupt_disable:000000000000004a .L0 
C:\Users\CYMR90~1\AppData\Local\Temp\ccSmV8cy.s:1667   .text.rcu_interrupt_disable:000000000000004c .L0 
C:\Users\CYMR90~1\AppData\Local\Temp\ccSmV8cy.s:1674   .text.rcu_lxtal_drive_capability_config:0000000000000000 rcu_lxtal_drive_capability_config
C:\Users\CYMR90~1\AppData\Local\Temp\ccSmV8cy.s:1677   .text.rcu_lxtal_drive_capability_config:0000000000000000 .L0 
C:\Users\CYMR90~1\AppData\Local\Temp\ccSmV8cy.s:1678   .text.rcu_lxtal_drive_capability_config:0000000000000000 .L0 
C:\Users\CYMR90~1\AppData\Local\Temp\ccSmV8cy.s:1679   .text.rcu_lxtal_drive_capability_config:0000000000000002 .L0 
C:\Users\CYMR90~1\AppData\Local\Temp\ccSmV8cy.s:1681   .text.rcu_lxtal_drive_capability_config:0000000000000004 .L0 
C:\Users\CYMR90~1\AppData\Local\Temp\ccSmV8cy.s:1683   .text.rcu_lxtal_drive_capability_config:0000000000000006 .L0 
C:\Users\CYMR90~1\AppData\Local\Temp\ccSmV8cy.s:1686   .text.rcu_lxtal_drive_capability_config:000000000000000a .L0 
C:\Users\CYMR90~1\AppData\Local\Temp\ccSmV8cy.s:1689   .text.rcu_lxtal_drive_capability_config:0000000000000012 .L0 
C:\Users\CYMR90~1\AppData\Local\Temp\ccSmV8cy.s:1692   .text.rcu_lxtal_drive_capability_config:0000000000000018 .L0 
C:\Users\CYMR90~1\AppData\Local\Temp\ccSmV8cy.s:1696   .text.rcu_lxtal_drive_capability_config:0000000000000022 .L0 
C:\Users\CYMR90~1\AppData\Local\Temp\ccSmV8cy.s:1699   .text.rcu_lxtal_drive_capability_config:000000000000002a .L0 
C:\Users\CYMR90~1\AppData\Local\Temp\ccSmV8cy.s:1703   .text.rcu_lxtal_drive_capability_config:0000000000000034 .L0 
C:\Users\CYMR90~1\AppData\Local\Temp\ccSmV8cy.s:1705   .text.rcu_lxtal_drive_capability_config:0000000000000036 .L0 
C:\Users\CYMR90~1\AppData\Local\Temp\ccSmV8cy.s:1707   .text.rcu_lxtal_drive_capability_config:000000000000003a .L0 
C:\Users\CYMR90~1\AppData\Local\Temp\ccSmV8cy.s:1708   .text.rcu_lxtal_drive_capability_config:000000000000003a .L0 
C:\Users\CYMR90~1\AppData\Local\Temp\ccSmV8cy.s:1710   .text.rcu_lxtal_drive_capability_config:000000000000003c .L0 
C:\Users\CYMR90~1\AppData\Local\Temp\ccSmV8cy.s:1712   .text.rcu_lxtal_drive_capability_config:000000000000003e .L0 
C:\Users\CYMR90~1\AppData\Local\Temp\ccSmV8cy.s:1722   .text.rcu_osci_stab_wait:0000000000000000 .L0 
C:\Users\CYMR90~1\AppData\Local\Temp\ccSmV8cy.s:1723   .text.rcu_osci_stab_wait:0000000000000000 .L0 
C:\Users\CYMR90~1\AppData\Local\Temp\ccSmV8cy.s:1724   .text.rcu_osci_stab_wait:0000000000000002 .L0 
C:\Users\CYMR90~1\AppData\Local\Temp\ccSmV8cy.s:1727   .text.rcu_osci_stab_wait:0000000000000006 .L0 
C:\Users\CYMR90~1\AppData\Local\Temp\ccSmV8cy.s:1728   .text.rcu_osci_stab_wait:0000000000000006 .L0 
C:\Users\CYMR90~1\AppData\Local\Temp\ccSmV8cy.s:1730   .text.rcu_osci_stab_wait:0000000000000008 .L0 
C:\Users\CYMR90~1\AppData\Local\Temp\ccSmV8cy.s:1733   .text.rcu_osci_stab_wait:000000000000000c .L0 
C:\Users\CYMR90~1\AppData\Local\Temp\ccSmV8cy.s:1735   .text.rcu_osci_stab_wait:0000000000000010 .L0 
C:\Users\CYMR90~1\AppData\Local\Temp\ccSmV8cy.s:1737   .text.rcu_osci_stab_wait:0000000000000014 .L0 
C:\Users\CYMR90~1\AppData\Local\Temp\ccSmV8cy.s:1739   .text.rcu_osci_stab_wait:0000000000000018 .L0 
C:\Users\CYMR90~1\AppData\Local\Temp\ccSmV8cy.s:1767   .text.rcu_osci_stab_wait:0000000000000074 .L0 
C:\Users\CYMR90~1\AppData\Local\Temp\ccSmV8cy.s:1770   .text.rcu_osci_stab_wait:0000000000000076 .L0 
C:\Users\CYMR90~1\AppData\Local\Temp\ccSmV8cy.s:1774   .text.rcu_osci_stab_wait:0000000000000084 .L0 
C:\Users\CYMR90~1\AppData\Local\Temp\ccSmV8cy.s:1779   .text.rcu_osci_stab_wait:000000000000008e .L0 
C:\Users\CYMR90~1\AppData\Local\Temp\ccSmV8cy.s:1782   .text.rcu_osci_stab_wait:0000000000000094 .L0 
C:\Users\CYMR90~1\AppData\Local\Temp\ccSmV8cy.s:1788   .text.rcu_osci_stab_wait:00000000000000a0 .L0 
C:\Users\CYMR90~1\AppData\Local\Temp\ccSmV8cy.s:1792   .text.rcu_osci_stab_wait:00000000000000ac .L0 
C:\Users\CYMR90~1\AppData\Local\Temp\ccSmV8cy.s:1794   .text.rcu_osci_stab_wait:00000000000000b0 .L0 
C:\Users\CYMR90~1\AppData\Local\Temp\ccSmV8cy.s:1797   .text.rcu_osci_stab_wait:00000000000000b6 .L0 
C:\Users\CYMR90~1\AppData\Local\Temp\ccSmV8cy.s:1800   .text.rcu_osci_stab_wait:00000000000000b8 .L0 
C:\Users\CYMR90~1\AppData\Local\Temp\ccSmV8cy.s:1805   .text.rcu_osci_stab_wait:00000000000000ca .L0 
C:\Users\CYMR90~1\AppData\Local\Temp\ccSmV8cy.s:1810   .text.rcu_osci_stab_wait:00000000000000d4 .L0 
C:\Users\CYMR90~1\AppData\Local\Temp\ccSmV8cy.s:1813   .text.rcu_osci_stab_wait:00000000000000da .L0 
C:\Users\CYMR90~1\AppData\Local\Temp\ccSmV8cy.s:1819   .text.rcu_osci_stab_wait:00000000000000e8 .L0 
C:\Users\CYMR90~1\AppData\Local\Temp\ccSmV8cy.s:1824   .text.rcu_osci_stab_wait:00000000000000f8 .L0 
C:\Users\CYMR90~1\AppData\Local\Temp\ccSmV8cy.s:1826   .text.rcu_osci_stab_wait:00000000000000fa .L0 
C:\Users\CYMR90~1\AppData\Local\Temp\ccSmV8cy.s:1829   .text.rcu_osci_stab_wait:0000000000000100 .L0 
C:\Users\CYMR90~1\AppData\Local\Temp\ccSmV8cy.s:1832   .text.rcu_osci_stab_wait:0000000000000102 .L0 
C:\Users\CYMR90~1\AppData\Local\Temp\ccSmV8cy.s:1836   .text.rcu_osci_stab_wait:0000000000000110 .L0 
C:\Users\CYMR90~1\AppData\Local\Temp\ccSmV8cy.s:1841   .text.rcu_osci_stab_wait:000000000000011a .L0 
C:\Users\CYMR90~1\AppData\Local\Temp\ccSmV8cy.s:1844   .text.rcu_osci_stab_wait:0000000000000120 .L0 
C:\Users\CYMR90~1\AppData\Local\Temp\ccSmV8cy.s:1849   .text.rcu_osci_stab_wait:000000000000012c .L0 
C:\Users\CYMR90~1\AppData\Local\Temp\ccSmV8cy.s:1853   .text.rcu_osci_stab_wait:0000000000000138 .L0 
C:\Users\CYMR90~1\AppData\Local\Temp\ccSmV8cy.s:1855   .text.rcu_osci_stab_wait:000000000000013a .L0 
C:\Users\CYMR90~1\AppData\Local\Temp\ccSmV8cy.s:1858   .text.rcu_osci_stab_wait:0000000000000140 .L0 
C:\Users\CYMR90~1\AppData\Local\Temp\ccSmV8cy.s:1861   .text.rcu_osci_stab_wait:0000000000000142 .L0 
C:\Users\CYMR90~1\AppData\Local\Temp\ccSmV8cy.s:1866   .text.rcu_osci_stab_wait:0000000000000154 .L0 
C:\Users\CYMR90~1\AppData\Local\Temp\ccSmV8cy.s:1871   .text.rcu_osci_stab_wait:000000000000015e .L0 
C:\Users\CYMR90~1\AppData\Local\Temp\ccSmV8cy.s:1874   .text.rcu_osci_stab_wait:0000000000000164 .L0 
C:\Users\CYMR90~1\AppData\Local\Temp\ccSmV8cy.s:1880   .text.rcu_osci_stab_wait:0000000000000172 .L0 
C:\Users\CYMR90~1\AppData\Local\Temp\ccSmV8cy.s:1885   .text.rcu_osci_stab_wait:0000000000000182 .L0 
C:\Users\CYMR90~1\AppData\Local\Temp\ccSmV8cy.s:1887   .text.rcu_osci_stab_wait:0000000000000184 .L0 
C:\Users\CYMR90~1\AppData\Local\Temp\ccSmV8cy.s:1890   .text.rcu_osci_stab_wait:000000000000018a .L0 
C:\Users\CYMR90~1\AppData\Local\Temp\ccSmV8cy.s:1893   .text.rcu_osci_stab_wait:000000000000018c .L0 
C:\Users\CYMR90~1\AppData\Local\Temp\ccSmV8cy.s:1897   .text.rcu_osci_stab_wait:000000000000019a .L0 
C:\Users\CYMR90~1\AppData\Local\Temp\ccSmV8cy.s:1902   .text.rcu_osci_stab_wait:00000000000001a4 .L0 
C:\Users\CYMR90~1\AppData\Local\Temp\ccSmV8cy.s:1905   .text.rcu_osci_stab_wait:00000000000001aa .L0 
C:\Users\CYMR90~1\AppData\Local\Temp\ccSmV8cy.s:1911   .text.rcu_osci_stab_wait:00000000000001b8 .L0 
C:\Users\CYMR90~1\AppData\Local\Temp\ccSmV8cy.s:1915   .text.rcu_osci_stab_wait:00000000000001c4 .L0 
C:\Users\CYMR90~1\AppData\Local\Temp\ccSmV8cy.s:1917   .text.rcu_osci_stab_wait:00000000000001c6 .L0 
C:\Users\CYMR90~1\AppData\Local\Temp\ccSmV8cy.s:1920   .text.rcu_osci_stab_wait:00000000000001cc .L0 
C:\Users\CYMR90~1\AppData\Local\Temp\ccSmV8cy.s:1923   .text.rcu_osci_stab_wait:00000000000001ce .L0 
C:\Users\CYMR90~1\AppData\Local\Temp\ccSmV8cy.s:1927   .text.rcu_osci_stab_wait:00000000000001d2 .L0 
C:\Users\CYMR90~1\AppData\Local\Temp\ccSmV8cy.s:1931   .text.rcu_osci_stab_wait:00000000000001d6 .L0 
C:\Users\CYMR90~1\AppData\Local\Temp\ccSmV8cy.s:1935   .text.rcu_osci_stab_wait:00000000000001da .L0 
C:\Users\CYMR90~1\AppData\Local\Temp\ccSmV8cy.s:1939   .text.rcu_osci_stab_wait:00000000000001de .L0 
C:\Users\CYMR90~1\AppData\Local\Temp\ccSmV8cy.s:1943   .text.rcu_osci_stab_wait:00000000000001e2 .L0 
C:\Users\CYMR90~1\AppData\Local\Temp\ccSmV8cy.s:1946   .text.rcu_osci_stab_wait:00000000000001e4 .L0 
C:\Users\CYMR90~1\AppData\Local\Temp\ccSmV8cy.s:1948   .text.rcu_osci_stab_wait:00000000000001e8 .L0 
C:\Users\CYMR90~1\AppData\Local\Temp\ccSmV8cy.s:1950   .text.rcu_osci_stab_wait:00000000000001ec .L0 
C:\Users\CYMR90~1\AppData\Local\Temp\ccSmV8cy.s:1952   .text.rcu_osci_stab_wait:00000000000001ee .L0 
C:\Users\CYMR90~1\AppData\Local\Temp\ccSmV8cy.s:1953   .text.rcu_osci_stab_wait:00000000000001ee .L0 
C:\Users\CYMR90~1\AppData\Local\Temp\ccSmV8cy.s:1955   .text.rcu_osci_stab_wait:00000000000001f0 .L0 
C:\Users\CYMR90~1\AppData\Local\Temp\ccSmV8cy.s:1957   .text.rcu_osci_stab_wait:00000000000001f2 .L0 
C:\Users\CYMR90~1\AppData\Local\Temp\ccSmV8cy.s:1964   .text.rcu_osci_on:0000000000000000 rcu_osci_on
C:\Users\CYMR90~1\AppData\Local\Temp\ccSmV8cy.s:1967   .text.rcu_osci_on:0000000000000000 .L0 
C:\Users\CYMR90~1\AppData\Local\Temp\ccSmV8cy.s:1968   .text.rcu_osci_on:0000000000000000 .L0 
C:\Users\CYMR90~1\AppData\Local\Temp\ccSmV8cy.s:1969   .text.rcu_osci_on:0000000000000002 .L0 
C:\Users\CYMR90~1\AppData\Local\Temp\ccSmV8cy.s:1971   .text.rcu_osci_on:0000000000000004 .L0 
C:\Users\CYMR90~1\AppData\Local\Temp\ccSmV8cy.s:1973   .text.rcu_osci_on:0000000000000006 .L0 
C:\Users\CYMR90~1\AppData\Local\Temp\ccSmV8cy.s:1976   .text.rcu_osci_on:000000000000000a .L0 
C:\Users\CYMR90~1\AppData\Local\Temp\ccSmV8cy.s:1983   .text.rcu_osci_on:000000000000001e .L0 
C:\Users\CYMR90~1\AppData\Local\Temp\ccSmV8cy.s:1988   .text.rcu_osci_on:000000000000002a .L0 
C:\Users\CYMR90~1\AppData\Local\Temp\ccSmV8cy.s:1996   .text.rcu_osci_on:0000000000000040 .L0 
C:\Users\CYMR90~1\AppData\Local\Temp\ccSmV8cy.s:1998   .text.rcu_osci_on:0000000000000044 .L0 
C:\Users\CYMR90~1\AppData\Local\Temp\ccSmV8cy.s:1999   .text.rcu_osci_on:0000000000000044 .L0 
C:\Users\CYMR90~1\AppData\Local\Temp\ccSmV8cy.s:2001   .text.rcu_osci_on:0000000000000046 .L0 
C:\Users\CYMR90~1\AppData\Local\Temp\ccSmV8cy.s:2003   .text.rcu_osci_on:0000000000000048 .L0 
C:\Users\CYMR90~1\AppData\Local\Temp\ccSmV8cy.s:2010   .text.rcu_osci_off:0000000000000000 rcu_osci_off
C:\Users\CYMR90~1\AppData\Local\Temp\ccSmV8cy.s:2013   .text.rcu_osci_off:0000000000000000 .L0 
C:\Users\CYMR90~1\AppData\Local\Temp\ccSmV8cy.s:2014   .text.rcu_osci_off:0000000000000000 .L0 
C:\Users\CYMR90~1\AppData\Local\Temp\ccSmV8cy.s:2015   .text.rcu_osci_off:0000000000000002 .L0 
C:\Users\CYMR90~1\AppData\Local\Temp\ccSmV8cy.s:2017   .text.rcu_osci_off:0000000000000004 .L0 
C:\Users\CYMR90~1\AppData\Local\Temp\ccSmV8cy.s:2019   .text.rcu_osci_off:0000000000000006 .L0 
C:\Users\CYMR90~1\AppData\Local\Temp\ccSmV8cy.s:2022   .text.rcu_osci_off:000000000000000a .L0 
C:\Users\CYMR90~1\AppData\Local\Temp\ccSmV8cy.s:2029   .text.rcu_osci_off:000000000000001e .L0 
C:\Users\CYMR90~1\AppData\Local\Temp\ccSmV8cy.s:2034   .text.rcu_osci_off:000000000000002a .L0 
C:\Users\CYMR90~1\AppData\Local\Temp\ccSmV8cy.s:2036   .text.rcu_osci_off:000000000000002e .L0 
C:\Users\CYMR90~1\AppData\Local\Temp\ccSmV8cy.s:2044   .text.rcu_osci_off:0000000000000044 .L0 
C:\Users\CYMR90~1\AppData\Local\Temp\ccSmV8cy.s:2046   .text.rcu_osci_off:0000000000000048 .L0 
C:\Users\CYMR90~1\AppData\Local\Temp\ccSmV8cy.s:2047   .text.rcu_osci_off:0000000000000048 .L0 
C:\Users\CYMR90~1\AppData\Local\Temp\ccSmV8cy.s:2049   .text.rcu_osci_off:000000000000004a .L0 
C:\Users\CYMR90~1\AppData\Local\Temp\ccSmV8cy.s:2051   .text.rcu_osci_off:000000000000004c .L0 
C:\Users\CYMR90~1\AppData\Local\Temp\ccSmV8cy.s:2058   .text.rcu_osci_bypass_mode_enable:0000000000000000 rcu_osci_bypass_mode_enable
C:\Users\CYMR90~1\AppData\Local\Temp\ccSmV8cy.s:2061   .text.rcu_osci_bypass_mode_enable:0000000000000000 .L0 
C:\Users\CYMR90~1\AppData\Local\Temp\ccSmV8cy.s:2062   .text.rcu_osci_bypass_mode_enable:0000000000000000 .L0 
C:\Users\CYMR90~1\AppData\Local\Temp\ccSmV8cy.s:2063   .text.rcu_osci_bypass_mode_enable:0000000000000002 .L0 
C:\Users\CYMR90~1\AppData\Local\Temp\ccSmV8cy.s:2065   .text.rcu_osci_bypass_mode_enable:0000000000000004 .L0 
C:\Users\CYMR90~1\AppData\Local\Temp\ccSmV8cy.s:2067   .text.rcu_osci_bypass_mode_enable:0000000000000006 .L0 
C:\Users\CYMR90~1\AppData\Local\Temp\ccSmV8cy.s:2070   .text.rcu_osci_bypass_mode_enable:000000000000000a .L0 
C:\Users\CYMR90~1\AppData\Local\Temp\ccSmV8cy.s:2078   .text.rcu_osci_bypass_mode_enable:0000000000000022 .L0 
C:\Users\CYMR90~1\AppData\Local\Temp\ccSmV8cy.s:2081   .text.rcu_osci_bypass_mode_enable:0000000000000024 .L0 
C:\Users\CYMR90~1\AppData\Local\Temp\ccSmV8cy.s:2084   .text.rcu_osci_bypass_mode_enable:000000000000002c .L0 
C:\Users\CYMR90~1\AppData\Local\Temp\ccSmV8cy.s:2087   .text.rcu_osci_bypass_mode_enable:0000000000000032 .L0 
C:\Users\CYMR90~1\AppData\Local\Temp\ccSmV8cy.s:2097   .text.rcu_osci_bypass_mode_enable:000000000000004c .L0 
C:\Users\CYMR90~1\AppData\Local\Temp\ccSmV8cy.s:2100   .text.rcu_osci_bypass_mode_enable:0000000000000054 .L0 
C:\Users\CYMR90~1\AppData\Local\Temp\ccSmV8cy.s:2104   .text.rcu_osci_bypass_mode_enable:000000000000005e .L0 
C:\Users\CYMR90~1\AppData\Local\Temp\ccSmV8cy.s:2106   .text.rcu_osci_bypass_mode_enable:0000000000000060 .L0 
C:\Users\CYMR90~1\AppData\Local\Temp\ccSmV8cy.s:2109   .text.rcu_osci_bypass_mode_enable:0000000000000062 .L0 
C:\Users\CYMR90~1\AppData\Local\Temp\ccSmV8cy.s:2112   .text.rcu_osci_bypass_mode_enable:000000000000006a .L0 
C:\Users\CYMR90~1\AppData\Local\Temp\ccSmV8cy.s:2115   .text.rcu_osci_bypass_mode_enable:0000000000000070 .L0 
C:\Users\CYMR90~1\AppData\Local\Temp\ccSmV8cy.s:2123   .text.rcu_osci_bypass_mode_enable:0000000000000086 .L0 
C:\Users\CYMR90~1\AppData\Local\Temp\ccSmV8cy.s:2126   .text.rcu_osci_bypass_mode_enable:000000000000008e .L0 
C:\Users\CYMR90~1\AppData\Local\Temp\ccSmV8cy.s:2129   .text.rcu_osci_bypass_mode_enable:0000000000000096 .L0 
C:\Users\CYMR90~1\AppData\Local\Temp\ccSmV8cy.s:2131   .text.rcu_osci_bypass_mode_enable:0000000000000098 .L0 
C:\Users\CYMR90~1\AppData\Local\Temp\ccSmV8cy.s:2134   .text.rcu_osci_bypass_mode_enable:000000000000009a .L0 
C:\Users\CYMR90~1\AppData\Local\Temp\ccSmV8cy.s:2136   .text.rcu_osci_bypass_mode_enable:000000000000009e .L0 
C:\Users\CYMR90~1\AppData\Local\Temp\ccSmV8cy.s:2137   .text.rcu_osci_bypass_mode_enable:000000000000009e .L0 
C:\Users\CYMR90~1\AppData\Local\Temp\ccSmV8cy.s:2139   .text.rcu_osci_bypass_mode_enable:00000000000000a0 .L0 
C:\Users\CYMR90~1\AppData\Local\Temp\ccSmV8cy.s:2141   .text.rcu_osci_bypass_mode_enable:00000000000000a2 .L0 
C:\Users\CYMR90~1\AppData\Local\Temp\ccSmV8cy.s:2148   .text.rcu_osci_bypass_mode_disable:0000000000000000 rcu_osci_bypass_mode_disable
C:\Users\CYMR90~1\AppData\Local\Temp\ccSmV8cy.s:2151   .text.rcu_osci_bypass_mode_disable:0000000000000000 .L0 
C:\Users\CYMR90~1\AppData\Local\Temp\ccSmV8cy.s:2152   .text.rcu_osci_bypass_mode_disable:0000000000000000 .L0 
C:\Users\CYMR90~1\AppData\Local\Temp\ccSmV8cy.s:2153   .text.rcu_osci_bypass_mode_disable:0000000000000002 .L0 
C:\Users\CYMR90~1\AppData\Local\Temp\ccSmV8cy.s:2155   .text.rcu_osci_bypass_mode_disable:0000000000000004 .L0 
C:\Users\CYMR90~1\AppData\Local\Temp\ccSmV8cy.s:2157   .text.rcu_osci_bypass_mode_disable:0000000000000006 .L0 
C:\Users\CYMR90~1\AppData\Local\Temp\ccSmV8cy.s:2160   .text.rcu_osci_bypass_mode_disable:000000000000000a .L0 
C:\Users\CYMR90~1\AppData\Local\Temp\ccSmV8cy.s:2168   .text.rcu_osci_bypass_mode_disable:0000000000000022 .L0 
C:\Users\CYMR90~1\AppData\Local\Temp\ccSmV8cy.s:2171   .text.rcu_osci_bypass_mode_disable:0000000000000024 .L0 
C:\Users\CYMR90~1\AppData\Local\Temp\ccSmV8cy.s:2174   .text.rcu_osci_bypass_mode_disable:000000000000002c .L0 
C:\Users\CYMR90~1\AppData\Local\Temp\ccSmV8cy.s:2177   .text.rcu_osci_bypass_mode_disable:0000000000000032 .L0 
C:\Users\CYMR90~1\AppData\Local\Temp\ccSmV8cy.s:2187   .text.rcu_osci_bypass_mode_disable:000000000000004c .L0 
C:\Users\CYMR90~1\AppData\Local\Temp\ccSmV8cy.s:2190   .text.rcu_osci_bypass_mode_disable:0000000000000054 .L0 
C:\Users\CYMR90~1\AppData\Local\Temp\ccSmV8cy.s:2195   .text.rcu_osci_bypass_mode_disable:0000000000000060 .L0 
C:\Users\CYMR90~1\AppData\Local\Temp\ccSmV8cy.s:2197   .text.rcu_osci_bypass_mode_disable:0000000000000062 .L0 
C:\Users\CYMR90~1\AppData\Local\Temp\ccSmV8cy.s:2200   .text.rcu_osci_bypass_mode_disable:0000000000000064 .L0 
C:\Users\CYMR90~1\AppData\Local\Temp\ccSmV8cy.s:2203   .text.rcu_osci_bypass_mode_disable:000000000000006c .L0 
C:\Users\CYMR90~1\AppData\Local\Temp\ccSmV8cy.s:2206   .text.rcu_osci_bypass_mode_disable:0000000000000072 .L0 
C:\Users\CYMR90~1\AppData\Local\Temp\ccSmV8cy.s:2214   .text.rcu_osci_bypass_mode_disable:0000000000000088 .L0 
C:\Users\CYMR90~1\AppData\Local\Temp\ccSmV8cy.s:2217   .text.rcu_osci_bypass_mode_disable:0000000000000090 .L0 
C:\Users\CYMR90~1\AppData\Local\Temp\ccSmV8cy.s:2220   .text.rcu_osci_bypass_mode_disable:0000000000000096 .L0 
C:\Users\CYMR90~1\AppData\Local\Temp\ccSmV8cy.s:2222   .text.rcu_osci_bypass_mode_disable:0000000000000098 .L0 
C:\Users\CYMR90~1\AppData\Local\Temp\ccSmV8cy.s:2225   .text.rcu_osci_bypass_mode_disable:000000000000009a .L0 
C:\Users\CYMR90~1\AppData\Local\Temp\ccSmV8cy.s:2227   .text.rcu_osci_bypass_mode_disable:000000000000009e .L0 
C:\Users\CYMR90~1\AppData\Local\Temp\ccSmV8cy.s:2228   .text.rcu_osci_bypass_mode_disable:000000000000009e .L0 
C:\Users\CYMR90~1\AppData\Local\Temp\ccSmV8cy.s:2230   .text.rcu_osci_bypass_mode_disable:00000000000000a0 .L0 
C:\Users\CYMR90~1\AppData\Local\Temp\ccSmV8cy.s:2232   .text.rcu_osci_bypass_mode_disable:00000000000000a2 .L0 
C:\Users\CYMR90~1\AppData\Local\Temp\ccSmV8cy.s:2239   .text.rcu_rf_hxtal_clock_monitor_enable:0000000000000000 rcu_rf_hxtal_clock_monitor_enable
C:\Users\CYMR90~1\AppData\Local\Temp\ccSmV8cy.s:2242   .text.rcu_rf_hxtal_clock_monitor_enable:0000000000000000 .L0 
C:\Users\CYMR90~1\AppData\Local\Temp\ccSmV8cy.s:2243   .text.rcu_rf_hxtal_clock_monitor_enable:0000000000000000 .L0 
C:\Users\CYMR90~1\AppData\Local\Temp\ccSmV8cy.s:2244   .text.rcu_rf_hxtal_clock_monitor_enable:0000000000000002 .L0 
C:\Users\CYMR90~1\AppData\Local\Temp\ccSmV8cy.s:2246   .text.rcu_rf_hxtal_clock_monitor_enable:0000000000000004 .L0 
C:\Users\CYMR90~1\AppData\Local\Temp\ccSmV8cy.s:2248   .text.rcu_rf_hxtal_clock_monitor_enable:0000000000000006 .L0 
C:\Users\CYMR90~1\AppData\Local\Temp\ccSmV8cy.s:2250   .text.rcu_rf_hxtal_clock_monitor_enable:0000000000000006 .L0 
C:\Users\CYMR90~1\AppData\Local\Temp\ccSmV8cy.s:2259   .text.rcu_rf_hxtal_clock_monitor_enable:0000000000000020 .L0 
C:\Users\CYMR90~1\AppData\Local\Temp\ccSmV8cy.s:2261   .text.rcu_rf_hxtal_clock_monitor_enable:0000000000000024 .L0 
C:\Users\CYMR90~1\AppData\Local\Temp\ccSmV8cy.s:2262   .text.rcu_rf_hxtal_clock_monitor_enable:0000000000000024 .L0 
C:\Users\CYMR90~1\AppData\Local\Temp\ccSmV8cy.s:2264   .text.rcu_rf_hxtal_clock_monitor_enable:0000000000000026 .L0 
C:\Users\CYMR90~1\AppData\Local\Temp\ccSmV8cy.s:2266   .text.rcu_rf_hxtal_clock_monitor_enable:0000000000000028 .L0 
C:\Users\CYMR90~1\AppData\Local\Temp\ccSmV8cy.s:2273   .text.rcu_rf_hxtal_clock_monitor_disable:0000000000000000 rcu_rf_hxtal_clock_monitor_disable
C:\Users\CYMR90~1\AppData\Local\Temp\ccSmV8cy.s:2276   .text.rcu_rf_hxtal_clock_monitor_disable:0000000000000000 .L0 
C:\Users\CYMR90~1\AppData\Local\Temp\ccSmV8cy.s:2277   .text.rcu_rf_hxtal_clock_monitor_disable:0000000000000000 .L0 
C:\Users\CYMR90~1\AppData\Local\Temp\ccSmV8cy.s:2278   .text.rcu_rf_hxtal_clock_monitor_disable:0000000000000002 .L0 
C:\Users\CYMR90~1\AppData\Local\Temp\ccSmV8cy.s:2280   .text.rcu_rf_hxtal_clock_monitor_disable:0000000000000004 .L0 
C:\Users\CYMR90~1\AppData\Local\Temp\ccSmV8cy.s:2282   .text.rcu_rf_hxtal_clock_monitor_disable:0000000000000006 .L0 
C:\Users\CYMR90~1\AppData\Local\Temp\ccSmV8cy.s:2284   .text.rcu_rf_hxtal_clock_monitor_disable:0000000000000006 .L0 
C:\Users\CYMR90~1\AppData\Local\Temp\ccSmV8cy.s:2294   .text.rcu_rf_hxtal_clock_monitor_disable:0000000000000022 .L0 
C:\Users\CYMR90~1\AppData\Local\Temp\ccSmV8cy.s:2296   .text.rcu_rf_hxtal_clock_monitor_disable:0000000000000026 .L0 
C:\Users\CYMR90~1\AppData\Local\Temp\ccSmV8cy.s:2297   .text.rcu_rf_hxtal_clock_monitor_disable:0000000000000026 .L0 
C:\Users\CYMR90~1\AppData\Local\Temp\ccSmV8cy.s:2299   .text.rcu_rf_hxtal_clock_monitor_disable:0000000000000028 .L0 
C:\Users\CYMR90~1\AppData\Local\Temp\ccSmV8cy.s:2301   .text.rcu_rf_hxtal_clock_monitor_disable:000000000000002a .L0 
C:\Users\CYMR90~1\AppData\Local\Temp\ccSmV8cy.s:2308   .text.rcu_irc16m_adjust_value_set:0000000000000000 rcu_irc16m_adjust_value_set
C:\Users\CYMR90~1\AppData\Local\Temp\ccSmV8cy.s:2311   .text.rcu_irc16m_adjust_value_set:0000000000000000 .L0 
C:\Users\CYMR90~1\AppData\Local\Temp\ccSmV8cy.s:2312   .text.rcu_irc16m_adjust_value_set:0000000000000000 .L0 
C:\Users\CYMR90~1\AppData\Local\Temp\ccSmV8cy.s:2313   .text.rcu_irc16m_adjust_value_set:0000000000000002 .L0 
C:\Users\CYMR90~1\AppData\Local\Temp\ccSmV8cy.s:2315   .text.rcu_irc16m_adjust_value_set:0000000000000004 .L0 
C:\Users\CYMR90~1\AppData\Local\Temp\ccSmV8cy.s:2317   .text.rcu_irc16m_adjust_value_set:0000000000000006 .L0 
C:\Users\CYMR90~1\AppData\Local\Temp\ccSmV8cy.s:2320   .text.rcu_irc16m_adjust_value_set:000000000000000a .L0 
C:\Users\CYMR90~1\AppData\Local\Temp\ccSmV8cy.s:2323   .text.rcu_irc16m_adjust_value_set:0000000000000012 .L0 
C:\Users\CYMR90~1\AppData\Local\Temp\ccSmV8cy.s:2326   .text.rcu_irc16m_adjust_value_set:0000000000000018 .L0 
C:\Users\CYMR90~1\AppData\Local\Temp\ccSmV8cy.s:2330   .text.rcu_irc16m_adjust_value_set:0000000000000024 .L0 
C:\Users\CYMR90~1\AppData\Local\Temp\ccSmV8cy.s:2334   .text.rcu_irc16m_adjust_value_set:000000000000002e .L0 
C:\Users\CYMR90~1\AppData\Local\Temp\ccSmV8cy.s:2337   .text.rcu_irc16m_adjust_value_set:0000000000000036 .L0 
C:\Users\CYMR90~1\AppData\Local\Temp\ccSmV8cy.s:2340   .text.rcu_irc16m_adjust_value_set:000000000000003c .L0 
C:\Users\CYMR90~1\AppData\Local\Temp\ccSmV8cy.s:2342   .text.rcu_irc16m_adjust_value_set:000000000000003e .L0 
C:\Users\CYMR90~1\AppData\Local\Temp\ccSmV8cy.s:2344   .text.rcu_irc16m_adjust_value_set:0000000000000042 .L0 
C:\Users\CYMR90~1\AppData\Local\Temp\ccSmV8cy.s:2345   .text.rcu_irc16m_adjust_value_set:0000000000000042 .L0 
C:\Users\CYMR90~1\AppData\Local\Temp\ccSmV8cy.s:2347   .text.rcu_irc16m_adjust_value_set:0000000000000044 .L0 
C:\Users\CYMR90~1\AppData\Local\Temp\ccSmV8cy.s:2349   .text.rcu_irc16m_adjust_value_set:0000000000000046 .L0 
C:\Users\CYMR90~1\AppData\Local\Temp\ccSmV8cy.s:2356   .text.rcu_voltage_key_unlock:0000000000000000 rcu_voltage_key_unlock
C:\Users\CYMR90~1\AppData\Local\Temp\ccSmV8cy.s:2359   .text.rcu_voltage_key_unlock:0000000000000000 .L0 
C:\Users\CYMR90~1\AppData\Local\Temp\ccSmV8cy.s:2360   .text.rcu_voltage_key_unlock:0000000000000000 .L0 
C:\Users\CYMR90~1\AppData\Local\Temp\ccSmV8cy.s:2361   .text.rcu_voltage_key_unlock:0000000000000002 .L0 
C:\Users\CYMR90~1\AppData\Local\Temp\ccSmV8cy.s:2363   .text.rcu_voltage_key_unlock:0000000000000004 .L0 
C:\Users\CYMR90~1\AppData\Local\Temp\ccSmV8cy.s:2365   .text.rcu_voltage_key_unlock:0000000000000006 .L0 
C:\Users\CYMR90~1\AppData\Local\Temp\ccSmV8cy.s:2367   .text.rcu_voltage_key_unlock:0000000000000006 .L0 
C:\Users\CYMR90~1\AppData\Local\Temp\ccSmV8cy.s:2370   .text.rcu_voltage_key_unlock:000000000000000e .L0 
C:\Users\CYMR90~1\AppData\Local\Temp\ccSmV8cy.s:2374   .text.rcu_voltage_key_unlock:0000000000000018 .L0 
C:\Users\CYMR90~1\AppData\Local\Temp\ccSmV8cy.s:2376   .text.rcu_voltage_key_unlock:000000000000001c .L0 
C:\Users\CYMR90~1\AppData\Local\Temp\ccSmV8cy.s:2377   .text.rcu_voltage_key_unlock:000000000000001c .L0 
C:\Users\CYMR90~1\AppData\Local\Temp\ccSmV8cy.s:2379   .text.rcu_voltage_key_unlock:000000000000001e .L0 
C:\Users\CYMR90~1\AppData\Local\Temp\ccSmV8cy.s:2381   .text.rcu_voltage_key_unlock:0000000000000020 .L0 
C:\Users\CYMR90~1\AppData\Local\Temp\ccSmV8cy.s:2388   .text.rcu_deepsleep_voltage_set:0000000000000000 rcu_deepsleep_voltage_set
C:\Users\CYMR90~1\AppData\Local\Temp\ccSmV8cy.s:2391   .text.rcu_deepsleep_voltage_set:0000000000000000 .L0 
C:\Users\CYMR90~1\AppData\Local\Temp\ccSmV8cy.s:2392   .text.rcu_deepsleep_voltage_set:0000000000000000 .L0 
C:\Users\CYMR90~1\AppData\Local\Temp\ccSmV8cy.s:2393   .text.rcu_deepsleep_voltage_set:0000000000000002 .L0 
C:\Users\CYMR90~1\AppData\Local\Temp\ccSmV8cy.s:2395   .text.rcu_deepsleep_voltage_set:0000000000000004 .L0 
C:\Users\CYMR90~1\AppData\Local\Temp\ccSmV8cy.s:2397   .text.rcu_deepsleep_voltage_set:0000000000000006 .L0 
C:\Users\CYMR90~1\AppData\Local\Temp\ccSmV8cy.s:2400   .text.rcu_deepsleep_voltage_set:000000000000000a .L0 
C:\Users\CYMR90~1\AppData\Local\Temp\ccSmV8cy.s:2404   .text.rcu_deepsleep_voltage_set:0000000000000014 .L0 
C:\Users\CYMR90~1\AppData\Local\Temp\ccSmV8cy.s:2407   .text.rcu_deepsleep_voltage_set:000000000000001c .L0 
C:\Users\CYMR90~1\AppData\Local\Temp\ccSmV8cy.s:2410   .text.rcu_deepsleep_voltage_set:0000000000000022 .L0 
C:\Users\CYMR90~1\AppData\Local\Temp\ccSmV8cy.s:2412   .text.rcu_deepsleep_voltage_set:0000000000000026 .L0 
C:\Users\CYMR90~1\AppData\Local\Temp\ccSmV8cy.s:2413   .text.rcu_deepsleep_voltage_set:0000000000000026 .L0 
C:\Users\CYMR90~1\AppData\Local\Temp\ccSmV8cy.s:2415   .text.rcu_deepsleep_voltage_set:0000000000000028 .L0 
C:\Users\CYMR90~1\AppData\Local\Temp\ccSmV8cy.s:2417   .text.rcu_deepsleep_voltage_set:000000000000002a .L0 
C:\Users\CYMR90~1\AppData\Local\Temp\ccSmV8cy.s:2442   .text.rcu_clock_freq_get:0000000000000000 rcu_clock_freq_get
C:\Users\CYMR90~1\AppData\Local\Temp\ccSmV8cy.s:2445   .text.rcu_clock_freq_get:0000000000000000 .L0 
C:\Users\CYMR90~1\AppData\Local\Temp\ccSmV8cy.s:2446   .text.rcu_clock_freq_get:0000000000000000 .L0 
C:\Users\CYMR90~1\AppData\Local\Temp\ccSmV8cy.s:2447   .text.rcu_clock_freq_get:0000000000000002 .L0 
C:\Users\CYMR90~1\AppData\Local\Temp\ccSmV8cy.s:2449   .text.rcu_clock_freq_get:0000000000000004 .L0 
C:\Users\CYMR90~1\AppData\Local\Temp\ccSmV8cy.s:2451   .text.rcu_clock_freq_get:0000000000000006 .L0 
C:\Users\CYMR90~1\AppData\Local\Temp\ccSmV8cy.s:2454   .text.rcu_clock_freq_get:000000000000000a .L0 
C:\Users\CYMR90~1\AppData\Local\Temp\ccSmV8cy.s:2456   .text.rcu_clock_freq_get:000000000000000e .L0 
C:\Users\CYMR90~1\AppData\Local\Temp\ccSmV8cy.s:2458   .text.rcu_clock_freq_get:0000000000000012 .L0 
C:\Users\CYMR90~1\AppData\Local\Temp\ccSmV8cy.s:2460   .text.rcu_clock_freq_get:0000000000000016 .L0 
C:\Users\CYMR90~1\AppData\Local\Temp\ccSmV8cy.s:2470   .text.rcu_clock_freq_get:0000000000000036 .L0 
C:\Users\CYMR90~1\AppData\Local\Temp\ccSmV8cy.s:2475   .text.rcu_clock_freq_get:0000000000000046 .L0 
C:\Users\CYMR90~1\AppData\Local\Temp\ccSmV8cy.s:2480   .text.rcu_clock_freq_get:0000000000000056 .L0 
C:\Users\CYMR90~1\AppData\Local\Temp\ccSmV8cy.s:2490   .text.rcu_clock_freq_get:0000000000000076 .L0 
C:\Users\CYMR90~1\AppData\Local\Temp\ccSmV8cy.s:2495   .text.rcu_clock_freq_get:0000000000000082 .L0 
C:\Users\CYMR90~1\AppData\Local\Temp\ccSmV8cy.s:2498   .text.rcu_clock_freq_get:0000000000000088 .L0 
C:\Users\CYMR90~1\AppData\Local\Temp\ccSmV8cy.s:2512   .text.rcu_clock_freq_get:00000000000000ae .L0 
C:\Users\CYMR90~1\AppData\Local\Temp\ccSmV8cy.s:2516   .text.rcu_clock_freq_get:00000000000000ba .L0 
C:\Users\CYMR90~1\AppData\Local\Temp\ccSmV8cy.s:2519   .text.rcu_clock_freq_get:00000000000000bc .L0 
C:\Users\CYMR90~1\AppData\Local\Temp\ccSmV8cy.s:2523   .text.rcu_clock_freq_get:00000000000000c8 .L0 
C:\Users\CYMR90~1\AppData\Local\Temp\ccSmV8cy.s:2526   .text.rcu_clock_freq_get:00000000000000ca .L0 
C:\Users\CYMR90~1\AppData\Local\Temp\ccSmV8cy.s:2531   .text.rcu_clock_freq_get:00000000000000d6 .L0 
C:\Users\CYMR90~1\AppData\Local\Temp\ccSmV8cy.s:2534   .text.rcu_clock_freq_get:00000000000000dc .L0 
C:\Users\CYMR90~1\AppData\Local\Temp\ccSmV8cy.s:2540   .text.rcu_clock_freq_get:00000000000000ec .L0 
C:\Users\CYMR90~1\AppData\Local\Temp\ccSmV8cy.s:2543   .text.rcu_clock_freq_get:00000000000000f2 .L0 
C:\Users\CYMR90~1\AppData\Local\Temp\ccSmV8cy.s:2549   .text.rcu_clock_freq_get:0000000000000102 .L0 
C:\Users\CYMR90~1\AppData\Local\Temp\ccSmV8cy.s:2553   .text.rcu_clock_freq_get:000000000000010e .L0 
C:\Users\CYMR90~1\AppData\Local\Temp\ccSmV8cy.s:2556   .text.rcu_clock_freq_get:0000000000000110 .L0 
C:\Users\CYMR90~1\AppData\Local\Temp\ccSmV8cy.s:2560   .text.rcu_clock_freq_get:000000000000011c .L0 
C:\Users\CYMR90~1\AppData\Local\Temp\ccSmV8cy.s:2563   .text.rcu_clock_freq_get:000000000000011e .L0 
C:\Users\CYMR90~1\AppData\Local\Temp\ccSmV8cy.s:2568   .text.rcu_clock_freq_get:000000000000012a .L0 
C:\Users\CYMR90~1\AppData\Local\Temp\ccSmV8cy.s:2571   .text.rcu_clock_freq_get:0000000000000130 .L0 
C:\Users\CYMR90~1\AppData\Local\Temp\ccSmV8cy.s:2576   .text.rcu_clock_freq_get:000000000000013e .L0 
C:\Users\CYMR90~1\AppData\Local\Temp\ccSmV8cy.s:2578   .text.rcu_clock_freq_get:0000000000000142 .L0 
C:\Users\CYMR90~1\AppData\Local\Temp\ccSmV8cy.s:2583   .text.rcu_clock_freq_get:0000000000000152 .L0 
C:\Users\CYMR90~1\AppData\Local\Temp\ccSmV8cy.s:2588   .text.rcu_clock_freq_get:000000000000015e .L0 
C:\Users\CYMR90~1\AppData\Local\Temp\ccSmV8cy.s:2591   .text.rcu_clock_freq_get:0000000000000164 .L0 
C:\Users\CYMR90~1\AppData\Local\Temp\ccSmV8cy.s:2596   .text.rcu_clock_freq_get:0000000000000172 .L0 
C:\Users\CYMR90~1\AppData\Local\Temp\ccSmV8cy.s:2598   .text.rcu_clock_freq_get:0000000000000176 .L0 
C:\Users\CYMR90~1\AppData\Local\Temp\ccSmV8cy.s:2603   .text.rcu_clock_freq_get:0000000000000186 .L0 
C:\Users\CYMR90~1\AppData\Local\Temp\ccSmV8cy.s:2608   .text.rcu_clock_freq_get:0000000000000192 .L0 
C:\Users\CYMR90~1\AppData\Local\Temp\ccSmV8cy.s:2611   .text.rcu_clock_freq_get:0000000000000198 .L0 
C:\Users\CYMR90~1\AppData\Local\Temp\ccSmV8cy.s:2616   .text.rcu_clock_freq_get:00000000000001a6 .L0 
C:\Users\CYMR90~1\AppData\Local\Temp\ccSmV8cy.s:2618   .text.rcu_clock_freq_get:00000000000001aa .L0 
C:\Users\CYMR90~1\AppData\Local\Temp\ccSmV8cy.s:2646   .text.rcu_clock_freq_get:00000000000001e4 .L0 
C:\Users\CYMR90~1\AppData\Local\Temp\ccSmV8cy.s:2649   .text.rcu_clock_freq_get:00000000000001ec .L0 
C:\Users\CYMR90~1\AppData\Local\Temp\ccSmV8cy.s:2652   .text.rcu_clock_freq_get:00000000000001ee .L0 
C:\Users\CYMR90~1\AppData\Local\Temp\ccSmV8cy.s:2655   .text.rcu_clock_freq_get:00000000000001f6 .L0 
C:\Users\CYMR90~1\AppData\Local\Temp\ccSmV8cy.s:2658   .text.rcu_clock_freq_get:00000000000001f8 .L0 
C:\Users\CYMR90~1\AppData\Local\Temp\ccSmV8cy.s:2661   .text.rcu_clock_freq_get:0000000000000200 .L0 
C:\Users\CYMR90~1\AppData\Local\Temp\ccSmV8cy.s:2664   .text.rcu_clock_freq_get:0000000000000202 .L0 
C:\Users\CYMR90~1\AppData\Local\Temp\ccSmV8cy.s:2667   .text.rcu_clock_freq_get:000000000000020a .L0 
C:\Users\CYMR90~1\AppData\Local\Temp\ccSmV8cy.s:2670   .text.rcu_clock_freq_get:000000000000020c .L0 
C:\Users\CYMR90~1\AppData\Local\Temp\ccSmV8cy.s:2674   .text.rcu_clock_freq_get:0000000000000216 .L0 
C:\Users\CYMR90~1\AppData\Local\Temp\ccSmV8cy.s:2677   .text.rcu_clock_freq_get:000000000000021c .L0 
C:\Users\CYMR90~1\AppData\Local\Temp\ccSmV8cy.s:2679   .text.rcu_clock_freq_get:000000000000021e .L0 
C:\Users\CYMR90~1\AppData\Local\Temp\ccSmV8cy.s:2684   .text.rcu_clock_freq_get:0000000000000228 .L0 
C:\Users\CYMR90~1\AppData\Local\Temp\ccSmV8cy.s:2688   .text.rcu_clock_freq_get:0000000000000232 .L0 
C:\Users\CYMR90~1\AppData\Local\Temp\ccSmV8cy.s:2691   .text.rcu_clock_freq_get:0000000000000238 .L0 
C:\Users\CYMR90~1\AppData\Local\Temp\ccSmV8cy.s:2694   .text.rcu_clock_freq_get:0000000000000240 .L0 
C:\Users\CYMR90~1\AppData\Local\Temp\ccSmV8cy.s:2699   .text.rcu_clock_freq_get:000000000000024a .L0 
C:\Users\CYMR90~1\AppData\Local\Temp\ccSmV8cy.s:2703   .text.rcu_clock_freq_get:0000000000000254 .L0 
C:\Users\CYMR90~1\AppData\Local\Temp\ccSmV8cy.s:2706   .text.rcu_clock_freq_get:000000000000025a .L0 
C:\Users\CYMR90~1\AppData\Local\Temp\ccSmV8cy.s:2709   .text.rcu_clock_freq_get:0000000000000262 .L0 
C:\Users\CYMR90~1\AppData\Local\Temp\ccSmV8cy.s:2714   .text.rcu_clock_freq_get:000000000000026a .L0 
C:\Users\CYMR90~1\AppData\Local\Temp\ccSmV8cy.s:2718   .text.rcu_clock_freq_get:0000000000000274 .L0 
C:\Users\CYMR90~1\AppData\Local\Temp\ccSmV8cy.s:2721   .text.rcu_clock_freq_get:000000000000027a .L0 
C:\Users\CYMR90~1\AppData\Local\Temp\ccSmV8cy.s:2724   .text.rcu_clock_freq_get:0000000000000282 .L0 
C:\Users\CYMR90~1\AppData\Local\Temp\ccSmV8cy.s:2729   .text.rcu_clock_freq_get:000000000000028e .L0 
C:\Users\CYMR90~1\AppData\Local\Temp\ccSmV8cy.s:2732   .text.rcu_clock_freq_get:0000000000000296 .L0 
C:\Users\CYMR90~1\AppData\Local\Temp\ccSmV8cy.s:2735   .text.rcu_clock_freq_get:0000000000000298 .L0 
C:\Users\CYMR90~1\AppData\Local\Temp\ccSmV8cy.s:2739   .text.rcu_clock_freq_get:00000000000002a2 .L0 
C:\Users\CYMR90~1\AppData\Local\Temp\ccSmV8cy.s:2742   .text.rcu_clock_freq_get:00000000000002a8 .L0 
C:\Users\CYMR90~1\AppData\Local\Temp\ccSmV8cy.s:2744   .text.rcu_clock_freq_get:00000000000002aa .L0 
C:\Users\CYMR90~1\AppData\Local\Temp\ccSmV8cy.s:2749   .text.rcu_clock_freq_get:00000000000002b4 .L0 
C:\Users\CYMR90~1\AppData\Local\Temp\ccSmV8cy.s:2753   .text.rcu_clock_freq_get:00000000000002be .L0 
C:\Users\CYMR90~1\AppData\Local\Temp\ccSmV8cy.s:2756   .text.rcu_clock_freq_get:00000000000002c4 .L0 
C:\Users\CYMR90~1\AppData\Local\Temp\ccSmV8cy.s:2759   .text.rcu_clock_freq_get:00000000000002cc .L0 
C:\Users\CYMR90~1\AppData\Local\Temp\ccSmV8cy.s:2764   .text.rcu_clock_freq_get:00000000000002d6 .L0 
C:\Users\CYMR90~1\AppData\Local\Temp\ccSmV8cy.s:2768   .text.rcu_clock_freq_get:00000000000002e0 .L0 
C:\Users\CYMR90~1\AppData\Local\Temp\ccSmV8cy.s:2771   .text.rcu_clock_freq_get:00000000000002e6 .L0 
C:\Users\CYMR90~1\AppData\Local\Temp\ccSmV8cy.s:2774   .text.rcu_clock_freq_get:00000000000002ee .L0 
C:\Users\CYMR90~1\AppData\Local\Temp\ccSmV8cy.s:2779   .text.rcu_clock_freq_get:00000000000002fa .L0 
C:\Users\CYMR90~1\AppData\Local\Temp\ccSmV8cy.s:2782   .text.rcu_clock_freq_get:0000000000000302 .L0 
C:\Users\CYMR90~1\AppData\Local\Temp\ccSmV8cy.s:2785   .text.rcu_clock_freq_get:0000000000000304 .L0 
C:\Users\CYMR90~1\AppData\Local\Temp\ccSmV8cy.s:2788   .text.rcu_clock_freq_get:0000000000000306 .L0 
C:\Users\CYMR90~1\AppData\Local\Temp\ccSmV8cy.s:2790   .text.rcu_clock_freq_get:000000000000030a .L0 
C:\Users\CYMR90~1\AppData\Local\Temp\ccSmV8cy.s:2792   .text.rcu_clock_freq_get:000000000000030e .L0 
C:\Users\CYMR90~1\AppData\Local\Temp\ccSmV8cy.s:2793   .text.rcu_clock_freq_get:000000000000030e .L0 
C:\Users\CYMR90~1\AppData\Local\Temp\ccSmV8cy.s:2795   .text.rcu_clock_freq_get:0000000000000310 .L0 
C:\Users\CYMR90~1\AppData\Local\Temp\ccSmV8cy.s:2797   .text.rcu_clock_freq_get:0000000000000312 .L0 
C:\Users\CYMR90~1\AppData\Local\Temp\ccSmV8cy.s:108    .text.rcu_deinit:00000000000000cc .L0 
C:\Users\CYMR90~1\AppData\Local\Temp\ccSmV8cy.s:141    .text.rcu_irc16m_dfs_to_rf_enable:0000000000000026 .L0 
C:\Users\CYMR90~1\AppData\Local\Temp\ccSmV8cy.s:174    .text.rcu_irc16m_dfs_to_rf_disable:0000000000000024 .L0 
C:\Users\CYMR90~1\AppData\Local\Temp\ccSmV8cy.s:220    .text.rcu_periph_clock_enable:0000000000000048 .L0 
C:\Users\CYMR90~1\AppData\Local\Temp\ccSmV8cy.s:268    .text.rcu_periph_clock_disable:000000000000004c .L0 
C:\Users\CYMR90~1\AppData\Local\Temp\ccSmV8cy.s:302    .text.rcu_fmc_clock_sleep_enable:0000000000000026 .L0 
C:\Users\CYMR90~1\AppData\Local\Temp\ccSmV8cy.s:337    .text.rcu_fmc_clock_sleep_disable:0000000000000028 .L0 
C:\Users\CYMR90~1\AppData\Local\Temp\ccSmV8cy.s:383    .text.rcu_periph_reset_enable:0000000000000048 .L0 
C:\Users\CYMR90~1\AppData\Local\Temp\ccSmV8cy.s:431    .text.rcu_periph_reset_disable:000000000000004c .L0 
C:\Users\CYMR90~1\AppData\Local\Temp\ccSmV8cy.s:465    .text.rcu_bkp_reset_enable:0000000000000026 .L0 
C:\Users\CYMR90~1\AppData\Local\Temp\ccSmV8cy.s:500    .text.rcu_bkp_reset_disable:0000000000000028 .L0 
C:\Users\CYMR90~1\AppData\Local\Temp\ccSmV8cy.s:534    .text.rcu_rfpll_cal_enable:0000000000000026 .L0 
C:\Users\CYMR90~1\AppData\Local\Temp\ccSmV8cy.s:569    .text.rcu_rfpll_cal_disable:0000000000000028 .L0 
C:\Users\CYMR90~1\AppData\Local\Temp\ccSmV8cy.s:615    .text.rcu_control_unit_powerup:0000000000000048 .L0 
C:\Users\CYMR90~1\AppData\Local\Temp\ccSmV8cy.s:663    .text.rcu_control_unit_powerdown:000000000000004c .L0 
C:\Users\CYMR90~1\AppData\Local\Temp\ccSmV8cy.s:708    .text.rcu_system_clock_source_config:000000000000003e .L0 
C:\Users\CYMR90~1\AppData\Local\Temp\ccSmV8cy.s:738    .text.rcu_system_clock_source_get:000000000000001a .L0 
C:\Users\CYMR90~1\AppData\Local\Temp\ccSmV8cy.s:783    .text.rcu_ahb_clock_config:0000000000000040 .L0 
C:\Users\CYMR90~1\AppData\Local\Temp\ccSmV8cy.s:830    .text.rcu_apb1_clock_config:0000000000000044 .L0 
C:\Users\CYMR90~1\AppData\Local\Temp\ccSmV8cy.s:877    .text.rcu_apb2_clock_config:0000000000000042 .L0 
C:\Users\CYMR90~1\AppData\Local\Temp\ccSmV8cy.s:928    .text.rcu_ckout0_config:0000000000000050 .L0 
C:\Users\CYMR90~1\AppData\Local\Temp\ccSmV8cy.s:979    .text.rcu_ckout1_config:0000000000000050 .L0 
C:\Users\CYMR90~1\AppData\Local\Temp\ccSmV8cy.s:1024   .text.rcu_plldig_config:0000000000000048 .L0 
C:\Users\CYMR90~1\AppData\Local\Temp\ccSmV8cy.s:1071   .text.rcu_plldigdiv_sys_config:0000000000000044 .L0 
C:\Users\CYMR90~1\AppData\Local\Temp\ccSmV8cy.s:1116   .text.rcu_rtc_clock_config:0000000000000040 .L0 
C:\Users\CYMR90~1\AppData\Local\Temp\ccSmV8cy.s:1163   .text.rcu_rtc_div_config:0000000000000044 .L0 
C:\Users\CYMR90~1\AppData\Local\Temp\ccSmV8cy.s:1208   .text.rcu_trng_div_config:0000000000000040 .L0 
C:\Users\CYMR90~1\AppData\Local\Temp\ccSmV8cy.s:1255   .text.rcu_i2c0_clock_config:0000000000000044 .L0 
C:\Users\CYMR90~1\AppData\Local\Temp\ccSmV8cy.s:1302   .text.rcu_usart0_clock_config:0000000000000044 .L0 
C:\Users\CYMR90~1\AppData\Local\Temp\ccSmV8cy.s:1347   .text.rcu_irc16m_div_config:0000000000000040 .L0 
C:\Users\CYMR90~1\AppData\Local\Temp\ccSmV8cy.s:1400   .text.rcu_timer_clock_prescaler_config:0000000000000056 .L0 
C:\Users\CYMR90~1\AppData\Local\Temp\ccSmV8cy.s:1448   .text.rcu_flag_get:000000000000003a .L0 
C:\Users\CYMR90~1\AppData\Local\Temp\ccSmV8cy.s:1482   .text.rcu_all_reset_flag_clear:0000000000000028 .L0 
C:\Users\CYMR90~1\AppData\Local\Temp\ccSmV8cy.s:1530   .text.rcu_interrupt_flag_get:000000000000003a .L0 
C:\Users\CYMR90~1\AppData\Local\Temp\ccSmV8cy.s:1576   .text.rcu_interrupt_flag_clear:0000000000000048 .L0 
C:\Users\CYMR90~1\AppData\Local\Temp\ccSmV8cy.s:1622   .text.rcu_interrupt_enable:0000000000000048 .L0 
C:\Users\CYMR90~1\AppData\Local\Temp\ccSmV8cy.s:1670   .text.rcu_interrupt_disable:000000000000004c .L0 
C:\Users\CYMR90~1\AppData\Local\Temp\ccSmV8cy.s:1715   .text.rcu_lxtal_drive_capability_config:000000000000003e .L0 
C:\Users\CYMR90~1\AppData\Local\Temp\ccSmV8cy.s:1960   .text.rcu_osci_stab_wait:00000000000001f2 .L0 
C:\Users\CYMR90~1\AppData\Local\Temp\ccSmV8cy.s:2006   .text.rcu_osci_on:0000000000000048 .L0 
C:\Users\CYMR90~1\AppData\Local\Temp\ccSmV8cy.s:2054   .text.rcu_osci_off:000000000000004c .L0 
C:\Users\CYMR90~1\AppData\Local\Temp\ccSmV8cy.s:2144   .text.rcu_osci_bypass_mode_enable:00000000000000a2 .L0 
C:\Users\CYMR90~1\AppData\Local\Temp\ccSmV8cy.s:2235   .text.rcu_osci_bypass_mode_disable:00000000000000a2 .L0 
C:\Users\CYMR90~1\AppData\Local\Temp\ccSmV8cy.s:2269   .text.rcu_rf_hxtal_clock_monitor_enable:0000000000000028 .L0 
C:\Users\CYMR90~1\AppData\Local\Temp\ccSmV8cy.s:2304   .text.rcu_rf_hxtal_clock_monitor_disable:000000000000002a .L0 
C:\Users\CYMR90~1\AppData\Local\Temp\ccSmV8cy.s:2352   .text.rcu_irc16m_adjust_value_set:0000000000000046 .L0 
C:\Users\CYMR90~1\AppData\Local\Temp\ccSmV8cy.s:2384   .text.rcu_voltage_key_unlock:0000000000000020 .L0 
C:\Users\CYMR90~1\AppData\Local\Temp\ccSmV8cy.s:2420   .text.rcu_deepsleep_voltage_set:000000000000002a .L0 
C:\Users\CYMR90~1\AppData\Local\Temp\ccSmV8cy.s:2800   .text.rcu_clock_freq_get:0000000000000312 .L0 
                     .debug_frame:0000000000000000 .L0 
C:\Users\CYMR90~1\AppData\Local\Temp\ccSmV8cy.s:1378   .text.rcu_timer_clock_prescaler_config:0000000000000034 .L33
C:\Users\CYMR90~1\AppData\Local\Temp\ccSmV8cy.s:1388   .text.rcu_timer_clock_prescaler_config:000000000000004e .L35
C:\Users\CYMR90~1\AppData\Local\Temp\ccSmV8cy.s:1433   .text.rcu_flag_get:0000000000000030 .L37
C:\Users\CYMR90~1\AppData\Local\Temp\ccSmV8cy.s:1436   .text.rcu_flag_get:0000000000000032 .L38
C:\Users\CYMR90~1\AppData\Local\Temp\ccSmV8cy.s:1515   .text.rcu_interrupt_flag_get:0000000000000030 .L41
C:\Users\CYMR90~1\AppData\Local\Temp\ccSmV8cy.s:1518   .text.rcu_interrupt_flag_get:0000000000000032 .L42
C:\Users\CYMR90~1\AppData\Local\Temp\ccSmV8cy.s:1869   .text.rcu_osci_stab_wait:000000000000015e .L66
C:\Users\CYMR90~1\AppData\Local\Temp\ccSmV8cy.s:1921   .text.rcu_osci_stab_wait:00000000000001ce .L75
C:\Users\CYMR90~1\AppData\Local\Temp\ccSmV8cy.s:1808   .text.rcu_osci_stab_wait:00000000000000d4 .L58
C:\Users\CYMR90~1\AppData\Local\Temp\ccSmV8cy.s:1900   .text.rcu_osci_stab_wait:00000000000001a4 .L70
C:\Users\CYMR90~1\AppData\Local\Temp\ccSmV8cy.s:1839   .text.rcu_osci_stab_wait:000000000000011a .L62
C:\Users\CYMR90~1\AppData\Local\Temp\ccSmV8cy.s:1777   .text.rcu_osci_stab_wait:000000000000008e .L53
C:\Users\CYMR90~1\AppData\Local\Temp\ccSmV8cy.s:1786   .text.rcu_osci_stab_wait:00000000000000a0 .L54
C:\Users\CYMR90~1\AppData\Local\Temp\ccSmV8cy.s:1768   .text.rcu_osci_stab_wait:0000000000000076 .L55
C:\Users\CYMR90~1\AppData\Local\Temp\ccSmV8cy.s:1925   .text.rcu_osci_stab_wait:00000000000001d2 .L76
C:\Users\CYMR90~1\AppData\Local\Temp\ccSmV8cy.s:1817   .text.rcu_osci_stab_wait:00000000000000e8 .L59
C:\Users\CYMR90~1\AppData\Local\Temp\ccSmV8cy.s:1798   .text.rcu_osci_stab_wait:00000000000000b8 .L60
C:\Users\CYMR90~1\AppData\Local\Temp\ccSmV8cy.s:1929   .text.rcu_osci_stab_wait:00000000000001d6 .L77
C:\Users\CYMR90~1\AppData\Local\Temp\ccSmV8cy.s:1847   .text.rcu_osci_stab_wait:000000000000012c .L63
C:\Users\CYMR90~1\AppData\Local\Temp\ccSmV8cy.s:1830   .text.rcu_osci_stab_wait:0000000000000102 .L64
C:\Users\CYMR90~1\AppData\Local\Temp\ccSmV8cy.s:1933   .text.rcu_osci_stab_wait:00000000000001da .L78
C:\Users\CYMR90~1\AppData\Local\Temp\ccSmV8cy.s:1878   .text.rcu_osci_stab_wait:0000000000000172 .L67
C:\Users\CYMR90~1\AppData\Local\Temp\ccSmV8cy.s:1859   .text.rcu_osci_stab_wait:0000000000000142 .L68
C:\Users\CYMR90~1\AppData\Local\Temp\ccSmV8cy.s:1937   .text.rcu_osci_stab_wait:00000000000001de .L79
C:\Users\CYMR90~1\AppData\Local\Temp\ccSmV8cy.s:1909   .text.rcu_osci_stab_wait:00000000000001b8 .L71
C:\Users\CYMR90~1\AppData\Local\Temp\ccSmV8cy.s:1891   .text.rcu_osci_stab_wait:000000000000018c .L72
C:\Users\CYMR90~1\AppData\Local\Temp\ccSmV8cy.s:1941   .text.rcu_osci_stab_wait:00000000000001e2 .L80
C:\Users\CYMR90~1\AppData\Local\Temp\ccSmV8cy.s:1944   .text.rcu_osci_stab_wait:00000000000001e4 .L57
C:\Users\CYMR90~1\AppData\Local\Temp\ccSmV8cy.s:2079   .text.rcu_osci_bypass_mode_enable:0000000000000024 .L84
C:\Users\CYMR90~1\AppData\Local\Temp\ccSmV8cy.s:2107   .text.rcu_osci_bypass_mode_enable:0000000000000062 .L85
C:\Users\CYMR90~1\AppData\Local\Temp\ccSmV8cy.s:2132   .text.rcu_osci_bypass_mode_enable:000000000000009a .L87
C:\Users\CYMR90~1\AppData\Local\Temp\ccSmV8cy.s:2169   .text.rcu_osci_bypass_mode_disable:0000000000000024 .L89
C:\Users\CYMR90~1\AppData\Local\Temp\ccSmV8cy.s:2198   .text.rcu_osci_bypass_mode_disable:0000000000000064 .L90
C:\Users\CYMR90~1\AppData\Local\Temp\ccSmV8cy.s:2223   .text.rcu_osci_bypass_mode_disable:000000000000009a .L92
C:\Users\CYMR90~1\AppData\Local\Temp\ccSmV8cy.s:2422   .rodata:0000000000000000 .LC1
C:\Users\CYMR90~1\AppData\Local\Temp\ccSmV8cy.s:2460   .text.rcu_clock_freq_get:0000000000000016 .L0 
C:\Users\CYMR90~1\AppData\Local\Temp\ccSmV8cy.s:2433   .rodata:0000000000000010 .LC0
C:\Users\CYMR90~1\AppData\Local\Temp\ccSmV8cy.s:2480   .text.rcu_clock_freq_get:0000000000000056 .L0 
C:\Users\CYMR90~1\AppData\Local\Temp\ccSmV8cy.s:2636   .rodata.rcu_clock_freq_get:0000000000000000 .L106
C:\Users\CYMR90~1\AppData\Local\Temp\ccSmV8cy.s:2627   .text.rcu_clock_freq_get:00000000000001cc .L0 
C:\Users\CYMR90~1\AppData\Local\Temp\ccSmV8cy.s:2630   .text.rcu_clock_freq_get:00000000000001d8 .L0 
C:\Users\CYMR90~1\AppData\Local\Temp\ccSmV8cy.s:2524   .text.rcu_clock_freq_get:00000000000000ca .L99
C:\Users\CYMR90~1\AppData\Local\Temp\ccSmV8cy.s:2554   .text.rcu_clock_freq_get:0000000000000110 .L100
C:\Users\CYMR90~1\AppData\Local\Temp\ccSmV8cy.s:2510   .text.rcu_clock_freq_get:00000000000000ae .L101
C:\Users\CYMR90~1\AppData\Local\Temp\ccSmV8cy.s:2517   .text.rcu_clock_freq_get:00000000000000bc .L102
C:\Users\CYMR90~1\AppData\Local\Temp\ccSmV8cy.s:2561   .text.rcu_clock_freq_get:000000000000011e .L103
C:\Users\CYMR90~1\AppData\Local\Temp\ccSmV8cy.s:2783   .text.rcu_clock_freq_get:0000000000000304 .L121
C:\Users\CYMR90~1\AppData\Local\Temp\ccSmV8cy.s:2786   .text.rcu_clock_freq_get:0000000000000306 .L112
C:\Users\CYMR90~1\AppData\Local\Temp\ccSmV8cy.s:2682   .text.rcu_clock_freq_get:0000000000000228 .L113
C:\Users\CYMR90~1\AppData\Local\Temp\ccSmV8cy.s:2727   .text.rcu_clock_freq_get:000000000000028e .L114
C:\Users\CYMR90~1\AppData\Local\Temp\ccSmV8cy.s:2697   .text.rcu_clock_freq_get:000000000000024a .L115
C:\Users\CYMR90~1\AppData\Local\Temp\ccSmV8cy.s:2712   .text.rcu_clock_freq_get:000000000000026a .L116
C:\Users\CYMR90~1\AppData\Local\Temp\ccSmV8cy.s:2747   .text.rcu_clock_freq_get:00000000000002b4 .L117
C:\Users\CYMR90~1\AppData\Local\Temp\ccSmV8cy.s:2777   .text.rcu_clock_freq_get:00000000000002fa .L118
C:\Users\CYMR90~1\AppData\Local\Temp\ccSmV8cy.s:2762   .text.rcu_clock_freq_get:00000000000002d6 .L119
C:\Users\CYMR90~1\AppData\Local\Temp\ccSmV8cy.s:2644   .text.rcu_clock_freq_get:00000000000001e4 .L111
C:\Users\CYMR90~1\AppData\Local\Temp\ccSmV8cy.s:2650   .text.rcu_clock_freq_get:00000000000001ee .L110
C:\Users\CYMR90~1\AppData\Local\Temp\ccSmV8cy.s:2656   .text.rcu_clock_freq_get:00000000000001f8 .L109
C:\Users\CYMR90~1\AppData\Local\Temp\ccSmV8cy.s:2662   .text.rcu_clock_freq_get:0000000000000202 .L108
C:\Users\CYMR90~1\AppData\Local\Temp\ccSmV8cy.s:2668   .text.rcu_clock_freq_get:000000000000020c .L107
C:\Users\CYMR90~1\AppData\Local\Temp\ccSmV8cy.s:2733   .text.rcu_clock_freq_get:0000000000000298 .L105
C:\Users\CYMR90~1\AppData\Local\Temp\ccSmV8cy.s:4612   .debug_abbrev:0000000000000000 .Ldebug_abbrev0
C:\Users\CYMR90~1\AppData\Local\Temp\ccSmV8cy.s:25763  .debug_str:000000000000b297 .LASF5796
C:\Users\CYMR90~1\AppData\Local\Temp\ccSmV8cy.s:29974  .debug_str:000000000001bdfe .LASF5797
C:\Users\CYMR90~1\AppData\Local\Temp\ccSmV8cy.s:28781  .debug_str:00000000000170fb .LASF5798
C:\Users\CYMR90~1\AppData\Local\Temp\ccSmV8cy.s:5168   .debug_ranges:0000000000000000 .Ldebug_ranges0
C:\Users\CYMR90~1\AppData\Local\Temp\ccSmV8cy.s:22927  .debug_line:0000000000000000 .Ldebug_line0
C:\Users\CYMR90~1\AppData\Local\Temp\ccSmV8cy.s:5270   .debug_macro:0000000000000000 .Ldebug_macro0
C:\Users\CYMR90~1\AppData\Local\Temp\ccSmV8cy.s:26963  .debug_str:000000000000fe31 .LASF5563
C:\Users\CYMR90~1\AppData\Local\Temp\ccSmV8cy.s:22943  .debug_str:00000000000000f5 .LASF5564
C:\Users\CYMR90~1\AppData\Local\Temp\ccSmV8cy.s:23897  .debug_str:0000000000003c5f .LASF5565
C:\Users\CYMR90~1\AppData\Local\Temp\ccSmV8cy.s:29238  .debug_str:0000000000018e8f .LASF5566
C:\Users\CYMR90~1\AppData\Local\Temp\ccSmV8cy.s:25229  .debug_str:0000000000009144 .LASF5569
C:\Users\CYMR90~1\AppData\Local\Temp\ccSmV8cy.s:28689  .debug_str:0000000000016afe .LASF5567
C:\Users\CYMR90~1\AppData\Local\Temp\ccSmV8cy.s:30616  .debug_str:000000000001e7c2 .LASF5568
C:\Users\CYMR90~1\AppData\Local\Temp\ccSmV8cy.s:26613  .debug_str:000000000000e891 .LASF5570
C:\Users\CYMR90~1\AppData\Local\Temp\ccSmV8cy.s:32246  .debug_str:0000000000024a29 .LASF5571
C:\Users\CYMR90~1\AppData\Local\Temp\ccSmV8cy.s:31030  .debug_str:0000000000020048 .LASF5572
C:\Users\CYMR90~1\AppData\Local\Temp\ccSmV8cy.s:29454  .debug_str:0000000000019c98 .LASF5573
C:\Users\CYMR90~1\AppData\Local\Temp\ccSmV8cy.s:23083  .debug_str:00000000000008d3 .LASF5574
C:\Users\CYMR90~1\AppData\Local\Temp\ccSmV8cy.s:32610  .debug_str:000000000002633b .LASF5575
C:\Users\CYMR90~1\AppData\Local\Temp\ccSmV8cy.s:31052  .debug_str:000000000002019d .LASF855
C:\Users\CYMR90~1\AppData\Local\Temp\ccSmV8cy.s:28453  .debug_str:0000000000015c5c .LASF5576
C:\Users\CYMR90~1\AppData\Local\Temp\ccSmV8cy.s:32536  .debug_str:0000000000025dec .LASF5577
C:\Users\CYMR90~1\AppData\Local\Temp\ccSmV8cy.s:32726  .debug_str:0000000000026abc .LASF5578
C:\Users\CYMR90~1\AppData\Local\Temp\ccSmV8cy.s:30492  .debug_str:000000000001dfb2 .LASF5579
C:\Users\CYMR90~1\AppData\Local\Temp\ccSmV8cy.s:25609  .debug_str:000000000000a84e .LASF5580
C:\Users\CYMR90~1\AppData\Local\Temp\ccSmV8cy.s:30826  .debug_str:000000000001f3f4 .LASF5581
C:\Users\CYMR90~1\AppData\Local\Temp\ccSmV8cy.s:26669  .debug_str:000000000000ec63 .LASF5582
C:\Users\CYMR90~1\AppData\Local\Temp\ccSmV8cy.s:34460  .debug_str:000000000002d727 .LASF5583
C:\Users\CYMR90~1\AppData\Local\Temp\ccSmV8cy.s:25773  .debug_str:000000000000b3cf .LASF5584
C:\Users\CYMR90~1\AppData\Local\Temp\ccSmV8cy.s:33484  .debug_str:0000000000029ac6 .LASF5585
C:\Users\CYMR90~1\AppData\Local\Temp\ccSmV8cy.s:30816  .debug_str:000000000001f38d .LASF5586
C:\Users\CYMR90~1\AppData\Local\Temp\ccSmV8cy.s:31658  .debug_str:00000000000226e6 .LASF5587
C:\Users\CYMR90~1\AppData\Local\Temp\ccSmV8cy.s:34468  .debug_str:000000000002d7c4 .LASF5588
C:\Users\CYMR90~1\AppData\Local\Temp\ccSmV8cy.s:32904  .debug_str:0000000000027545 .LASF5589
C:\Users\CYMR90~1\AppData\Local\Temp\ccSmV8cy.s:33976  .debug_str:000000000002b7b9 .LASF5590
C:\Users\CYMR90~1\AppData\Local\Temp\ccSmV8cy.s:28605  .debug_str:00000000000165ca .LASF5591
C:\Users\CYMR90~1\AppData\Local\Temp\ccSmV8cy.s:23735  .debug_str:000000000000318a .LASF5592
C:\Users\CYMR90~1\AppData\Local\Temp\ccSmV8cy.s:30244  .debug_str:000000000001ce3d .LASF5593
C:\Users\CYMR90~1\AppData\Local\Temp\ccSmV8cy.s:32800  .debug_str:0000000000026f28 .LASF5594
C:\Users\CYMR90~1\AppData\Local\Temp\ccSmV8cy.s:24821  .debug_str:0000000000007676 .LASF5595
C:\Users\CYMR90~1\AppData\Local\Temp\ccSmV8cy.s:26129  .debug_str:000000000000ca8d .LASF5596
C:\Users\CYMR90~1\AppData\Local\Temp\ccSmV8cy.s:34454  .debug_str:000000000002d651 .LASF5597
C:\Users\CYMR90~1\AppData\Local\Temp\ccSmV8cy.s:24611  .debug_str:0000000000006889 .LASF5598
C:\Users\CYMR90~1\AppData\Local\Temp\ccSmV8cy.s:33418  .debug_str:0000000000029677 .LASF5599
C:\Users\CYMR90~1\AppData\Local\Temp\ccSmV8cy.s:33346  .debug_str:000000000002927a .LASF5600
C:\Users\CYMR90~1\AppData\Local\Temp\ccSmV8cy.s:31356  .debug_str:000000000002146b .LASF5601
C:\Users\CYMR90~1\AppData\Local\Temp\ccSmV8cy.s:24105  .debug_str:0000000000004965 .LASF5602
C:\Users\CYMR90~1\AppData\Local\Temp\ccSmV8cy.s:29682  .debug_str:000000000001abc5 .LASF5603
C:\Users\CYMR90~1\AppData\Local\Temp\ccSmV8cy.s:26423  .debug_str:000000000000dd64 .LASF5604
C:\Users\CYMR90~1\AppData\Local\Temp\ccSmV8cy.s:34288  .debug_str:000000000002cba9 .LASF5605
C:\Users\CYMR90~1\AppData\Local\Temp\ccSmV8cy.s:29390  .debug_str:00000000000198ec .LASF5606
C:\Users\CYMR90~1\AppData\Local\Temp\ccSmV8cy.s:24847  .debug_str:0000000000007804 .LASF5607
C:\Users\CYMR90~1\AppData\Local\Temp\ccSmV8cy.s:34262  .debug_str:000000000002ca15 .LASF5608
C:\Users\CYMR90~1\AppData\Local\Temp\ccSmV8cy.s:31644  .debug_str:0000000000022609 .LASF5609
C:\Users\CYMR90~1\AppData\Local\Temp\ccSmV8cy.s:23985  .debug_str:00000000000041ed .LASF5610
C:\Users\CYMR90~1\AppData\Local\Temp\ccSmV8cy.s:32242  .debug_str:00000000000249ff .LASF5611
C:\Users\CYMR90~1\AppData\Local\Temp\ccSmV8cy.s:27439  .debug_str:0000000000011bd3 .LASF5612
C:\Users\CYMR90~1\AppData\Local\Temp\ccSmV8cy.s:29874  .debug_str:000000000001b83f .LASF5613
C:\Users\CYMR90~1\AppData\Local\Temp\ccSmV8cy.s:23619  .debug_str:0000000000002a5e .LASF5614
C:\Users\CYMR90~1\AppData\Local\Temp\ccSmV8cy.s:26111  .debug_str:000000000000c991 .LASF5615
C:\Users\CYMR90~1\AppData\Local\Temp\ccSmV8cy.s:24393  .debug_str:0000000000005b6f .LASF5616
C:\Users\CYMR90~1\AppData\Local\Temp\ccSmV8cy.s:26119  .debug_str:000000000000c9ed .LASF5617
C:\Users\CYMR90~1\AppData\Local\Temp\ccSmV8cy.s:29656  .debug_str:000000000001a8cf .LASF5618
C:\Users\CYMR90~1\AppData\Local\Temp\ccSmV8cy.s:33870  .debug_str:000000000002b1d7 .LASF5619
C:\Users\CYMR90~1\AppData\Local\Temp\ccSmV8cy.s:23041  .debug_str:00000000000006b1 .LASF5620
C:\Users\CYMR90~1\AppData\Local\Temp\ccSmV8cy.s:22973  .debug_str:00000000000002c3 .LASF5621
C:\Users\CYMR90~1\AppData\Local\Temp\ccSmV8cy.s:22975  .debug_str:00000000000002cd .LASF5622
C:\Users\CYMR90~1\AppData\Local\Temp\ccSmV8cy.s:22977  .debug_str:00000000000002d7 .LASF5623
C:\Users\CYMR90~1\AppData\Local\Temp\ccSmV8cy.s:25081  .debug_str:0000000000008840 .LASF5624
C:\Users\CYMR90~1\AppData\Local\Temp\ccSmV8cy.s:23881  .debug_str:0000000000003b42 .LASF5625
C:\Users\CYMR90~1\AppData\Local\Temp\ccSmV8cy.s:34328  .debug_str:000000000002ce92 .LASF5626
C:\Users\CYMR90~1\AppData\Local\Temp\ccSmV8cy.s:28904  .debug_str:0000000000017a8e .LASF5627
C:\Users\CYMR90~1\AppData\Local\Temp\ccSmV8cy.s:28047  .debug_str:0000000000014361 .LASF5628
C:\Users\CYMR90~1\AppData\Local\Temp\ccSmV8cy.s:29336  .debug_str:0000000000019517 .LASF5629
C:\Users\CYMR90~1\AppData\Local\Temp\ccSmV8cy.s:32032  .debug_str:0000000000023cdb .LASF5630
C:\Users\CYMR90~1\AppData\Local\Temp\ccSmV8cy.s:25161  .debug_str:0000000000008cc8 .LASF5631
C:\Users\CYMR90~1\AppData\Local\Temp\ccSmV8cy.s:31354  .debug_str:0000000000021460 .LASF5632
C:\Users\CYMR90~1\AppData\Local\Temp\ccSmV8cy.s:25065  .debug_str:000000000000874f .LASF5633
C:\Users\CYMR90~1\AppData\Local\Temp\ccSmV8cy.s:31362  .debug_str:00000000000214ba .LASF5634
C:\Users\CYMR90~1\AppData\Local\Temp\ccSmV8cy.s:32344  .debug_str:000000000002505a .LASF5635
C:\Users\CYMR90~1\AppData\Local\Temp\ccSmV8cy.s:31056  .debug_str:00000000000201b7 .LASF5636
C:\Users\CYMR90~1\AppData\Local\Temp\ccSmV8cy.s:28357  .debug_str:00000000000156cb .LASF5637
C:\Users\CYMR90~1\AppData\Local\Temp\ccSmV8cy.s:23921  .debug_str:0000000000003da0 .LASF5638
C:\Users\CYMR90~1\AppData\Local\Temp\ccSmV8cy.s:25827  .debug_str:000000000000b728 .LASF5639
C:\Users\CYMR90~1\AppData\Local\Temp\ccSmV8cy.s:25829  .debug_str:000000000000b731 .LASF5640
C:\Users\CYMR90~1\AppData\Local\Temp\ccSmV8cy.s:30626  .debug_str:000000000001e83a .LASF5641
C:\Users\CYMR90~1\AppData\Local\Temp\ccSmV8cy.s:32370  .debug_str:0000000000025232 .LASF5642
C:\Users\CYMR90~1\AppData\Local\Temp\ccSmV8cy.s:25059  .debug_str:00000000000086e0 .LASF5643
C:\Users\CYMR90~1\AppData\Local\Temp\ccSmV8cy.s:28359  .debug_str:00000000000156d5 .LASF5644
C:\Users\CYMR90~1\AppData\Local\Temp\ccSmV8cy.s:27229  .debug_str:0000000000010e91 .LASF5645
C:\Users\CYMR90~1\AppData\Local\Temp\ccSmV8cy.s:26809  .debug_str:000000000000f49e .LASF5646
C:\Users\CYMR90~1\AppData\Local\Temp\ccSmV8cy.s:34490  .debug_str:000000000002d908 .LASF5647
C:\Users\CYMR90~1\AppData\Local\Temp\ccSmV8cy.s:24867  .debug_str:0000000000007947 .LASF5648
C:\Users\CYMR90~1\AppData\Local\Temp\ccSmV8cy.s:24869  .debug_str:0000000000007953 .LASF5649
C:\Users\CYMR90~1\AppData\Local\Temp\ccSmV8cy.s:34494  .debug_str:000000000002d948 .LASF5650
C:\Users\CYMR90~1\AppData\Local\Temp\ccSmV8cy.s:26075  .debug_str:000000000000c77c .LASF5651
C:\Users\CYMR90~1\AppData\Local\Temp\ccSmV8cy.s:26987  .debug_str:000000000000ff83 .LASF5652
C:\Users\CYMR90~1\AppData\Local\Temp\ccSmV8cy.s:33028  .debug_str:0000000000027d7c .LASF5653
C:\Users\CYMR90~1\AppData\Local\Temp\ccSmV8cy.s:26707  .debug_str:000000000000ee96 .LASF5654
C:\Users\CYMR90~1\AppData\Local\Temp\ccSmV8cy.s:28085  .debug_str:0000000000014587 .LASF5655
C:\Users\CYMR90~1\AppData\Local\Temp\ccSmV8cy.s:33634  .debug_str:000000000002a417 .LASF5656
C:\Users\CYMR90~1\AppData\Local\Temp\ccSmV8cy.s:23651  .debug_str:0000000000002c9a .LASF5657
C:\Users\CYMR90~1\AppData\Local\Temp\ccSmV8cy.s:32154  .debug_str:0000000000024459 .LASF5658
C:\Users\CYMR90~1\AppData\Local\Temp\ccSmV8cy.s:25871  .debug_str:000000000000ba12 .LASF5659
C:\Users\CYMR90~1\AppData\Local\Temp\ccSmV8cy.s:29154  .debug_str:000000000001896b .LASF5660
C:\Users\CYMR90~1\AppData\Local\Temp\ccSmV8cy.s:25335  .debug_str:0000000000009739 .LASF5661
C:\Users\CYMR90~1\AppData\Local\Temp\ccSmV8cy.s:24549  .debug_str:00000000000064ae .LASF5662
C:\Users\CYMR90~1\AppData\Local\Temp\ccSmV8cy.s:25927  .debug_str:000000000000bdbd .LASF5663
C:\Users\CYMR90~1\AppData\Local\Temp\ccSmV8cy.s:31924  .debug_str:00000000000236bd .LASF5664
C:\Users\CYMR90~1\AppData\Local\Temp\ccSmV8cy.s:24227  .debug_str:0000000000005169 .LASF5665
C:\Users\CYMR90~1\AppData\Local\Temp\ccSmV8cy.s:33856  .debug_str:000000000002b102 .LASF5666
C:\Users\CYMR90~1\AppData\Local\Temp\ccSmV8cy.s:23081  .debug_str:00000000000008bd .LASF5667
C:\Users\CYMR90~1\AppData\Local\Temp\ccSmV8cy.s:33570  .debug_str:000000000002a082 .LASF5668
C:\Users\CYMR90~1\AppData\Local\Temp\ccSmV8cy.s:29880  .debug_str:000000000001b893 .LASF5669
C:\Users\CYMR90~1\AppData\Local\Temp\ccSmV8cy.s:28789  .debug_str:0000000000017234 .LASF5670
C:\Users\CYMR90~1\AppData\Local\Temp\ccSmV8cy.s:26257  .debug_str:000000000000d2c8 .LASF5671
C:\Users\CYMR90~1\AppData\Local\Temp\ccSmV8cy.s:28019  .debug_str:00000000000141e2 .LASF5672
C:\Users\CYMR90~1\AppData\Local\Temp\ccSmV8cy.s:33166  .debug_str:00000000000285bd .LASF5673
C:\Users\CYMR90~1\AppData\Local\Temp\ccSmV8cy.s:34318  .debug_str:000000000002cdfe .LASF5674
C:\Users\CYMR90~1\AppData\Local\Temp\ccSmV8cy.s:28559  .debug_str:0000000000016280 .LASF5675
C:\Users\CYMR90~1\AppData\Local\Temp\ccSmV8cy.s:31274  .debug_str:0000000000020f74 .LASF5676
C:\Users\CYMR90~1\AppData\Local\Temp\ccSmV8cy.s:32794  .debug_str:0000000000026ecf .LASF5677
C:\Users\CYMR90~1\AppData\Local\Temp\ccSmV8cy.s:28976  .debug_str:0000000000017ec5 .LASF5678
C:\Users\CYMR90~1\AppData\Local\Temp\ccSmV8cy.s:26011  .debug_str:000000000000c386 .LASF5679
C:\Users\CYMR90~1\AppData\Local\Temp\ccSmV8cy.s:33994  .debug_str:000000000002b8be .LASF5680
C:\Users\CYMR90~1\AppData\Local\Temp\ccSmV8cy.s:26597  .debug_str:000000000000e79c .LASF5681
C:\Users\CYMR90~1\AppData\Local\Temp\ccSmV8cy.s:29516  .debug_str:000000000001a102 .LASF5682
C:\Users\CYMR90~1\AppData\Local\Temp\ccSmV8cy.s:27397  .debug_str:00000000000118fe .LASF5683
C:\Users\CYMR90~1\AppData\Local\Temp\ccSmV8cy.s:32676  .debug_str:0000000000026769 .LASF5684
C:\Users\CYMR90~1\AppData\Local\Temp\ccSmV8cy.s:26287  .debug_str:000000000000d4aa .LASF5685
C:\Users\CYMR90~1\AppData\Local\Temp\ccSmV8cy.s:33900  .debug_str:000000000002b359 .LASF5686
C:\Users\CYMR90~1\AppData\Local\Temp\ccSmV8cy.s:27097  .debug_str:000000000001066d .LASF5687
C:\Users\CYMR90~1\AppData\Local\Temp\ccSmV8cy.s:28009  .debug_str:0000000000014142 .LASF5688
C:\Users\CYMR90~1\AppData\Local\Temp\ccSmV8cy.s:23133  .debug_str:0000000000000c59 .LASF5689
C:\Users\CYMR90~1\AppData\Local\Temp\ccSmV8cy.s:23047  .debug_str:00000000000006f8 .LASF5690
C:\Users\CYMR90~1\AppData\Local\Temp\ccSmV8cy.s:33952  .debug_str:000000000002b66e .LASF5691
C:\Users\CYMR90~1\AppData\Local\Temp\ccSmV8cy.s:29498  .debug_str:0000000000019fc9 .LASF5692
C:\Users\CYMR90~1\AppData\Local\Temp\ccSmV8cy.s:26451  .debug_str:000000000000defb .LASF5693
C:\Users\CYMR90~1\AppData\Local\Temp\ccSmV8cy.s:27181  .debug_str:0000000000010bc8 .LASF5694
C:\Users\CYMR90~1\AppData\Local\Temp\ccSmV8cy.s:30590  .debug_str:000000000001e607 .LASF5695
C:\Users\CYMR90~1\AppData\Local\Temp\ccSmV8cy.s:23999  .debug_str:00000000000042b2 .LASF5696
C:\Users\CYMR90~1\AppData\Local\Temp\ccSmV8cy.s:25449  .debug_str:0000000000009e61 .LASF5697
C:\Users\CYMR90~1\AppData\Local\Temp\ccSmV8cy.s:25385  .debug_str:0000000000009a45 .LASF5698
C:\Users\CYMR90~1\AppData\Local\Temp\ccSmV8cy.s:27565  .debug_str:000000000001249a .LASF5699
C:\Users\CYMR90~1\AppData\Local\Temp\ccSmV8cy.s:27569  .debug_str:00000000000124df .LASF5700
C:\Users\CYMR90~1\AppData\Local\Temp\ccSmV8cy.s:26519  .debug_str:000000000000e2c3 .LASF5701
C:\Users\CYMR90~1\AppData\Local\Temp\ccSmV8cy.s:30366  .debug_str:000000000001d801 .LASF5702
C:\Users\CYMR90~1\AppData\Local\Temp\ccSmV8cy.s:26489  .debug_str:000000000000e0d1 .LASF5703
C:\Users\CYMR90~1\AppData\Local\Temp\ccSmV8cy.s:26471  .debug_str:000000000000dfff .LASF5730
C:\Users\CYMR90~1\AppData\Local\Temp\ccSmV8cy.s:2443   .text.rcu_clock_freq_get:0000000000000000 .LFB395
C:\Users\CYMR90~1\AppData\Local\Temp\ccSmV8cy.s:2798   .text.rcu_clock_freq_get:0000000000000312 .LFE395
C:\Users\CYMR90~1\AppData\Local\Temp\ccSmV8cy.s:23449  .debug_str:0000000000002020 .LASF5717
C:\Users\CYMR90~1\AppData\Local\Temp\ccSmV8cy.s:24029  .debug_str:0000000000004453 .LASF5704
C:\Users\CYMR90~1\AppData\Local\Temp\ccSmV8cy.s:32090  .debug_str:0000000000024090 .LASF5705
C:\Users\CYMR90~1\AppData\Local\Temp\ccSmV8cy.s:28383  .debug_str:000000000001583f .LASF5706
C:\Users\CYMR90~1\AppData\Local\Temp\ccSmV8cy.s:26351  .debug_str:000000000000d91d .LASF5707
C:\Users\CYMR90~1\AppData\Local\Temp\ccSmV8cy.s:29894  .debug_str:000000000001b934 .LASF5708
C:\Users\CYMR90~1\AppData\Local\Temp\ccSmV8cy.s:32192  .debug_str:0000000000024670 .LASF5709
C:\Users\CYMR90~1\AppData\Local\Temp\ccSmV8cy.s:24205  .debug_str:0000000000005029 .LASF5710
C:\Users\CYMR90~1\AppData\Local\Temp\ccSmV8cy.s:30416  .debug_str:000000000001dad8 .LASF5711
C:\Users\CYMR90~1\AppData\Local\Temp\ccSmV8cy.s:25971  .debug_str:000000000000c086 .LASF5712
C:\Users\CYMR90~1\AppData\Local\Temp\ccSmV8cy.s:32138  .debug_str:0000000000024376 .LASF5713
C:\Users\CYMR90~1\AppData\Local\Temp\ccSmV8cy.s:31048  .debug_str:000000000002016c .LASF5714
C:\Users\CYMR90~1\AppData\Local\Temp\ccSmV8cy.s:32844  .debug_str:00000000000271cc .LASF5715
C:\Users\CYMR90~1\AppData\Local\Temp\ccSmV8cy.s:26331  .debug_str:000000000000d77b .LASF5716
C:\Users\CYMR90~1\AppData\Local\Temp\ccSmV8cy.s:25587  .debug_str:000000000000a718 .LASF5719
C:\Users\CYMR90~1\AppData\Local\Temp\ccSmV8cy.s:2389   .text.rcu_deepsleep_voltage_set:0000000000000000 .LFB394
C:\Users\CYMR90~1\AppData\Local\Temp\ccSmV8cy.s:2418   .text.rcu_deepsleep_voltage_set:000000000000002a .LFE394
C:\Users\CYMR90~1\AppData\Local\Temp\ccSmV8cy.s:29958  .debug_str:000000000001bd0b .LASF5718
C:\Users\CYMR90~1\AppData\Local\Temp\ccSmV8cy.s:29312  .debug_str:0000000000019397 .LASF5722
C:\Users\CYMR90~1\AppData\Local\Temp\ccSmV8cy.s:2357   .text.rcu_voltage_key_unlock:0000000000000000 .LFB393
C:\Users\CYMR90~1\AppData\Local\Temp\ccSmV8cy.s:2382   .text.rcu_voltage_key_unlock:0000000000000020 .LFE393
C:\Users\CYMR90~1\AppData\Local\Temp\ccSmV8cy.s:29558  .debug_str:000000000001a372 .LASF5720
C:\Users\CYMR90~1\AppData\Local\Temp\ccSmV8cy.s:2309   .text.rcu_irc16m_adjust_value_set:0000000000000000 .LFB392
C:\Users\CYMR90~1\AppData\Local\Temp\ccSmV8cy.s:2350   .text.rcu_irc16m_adjust_value_set:0000000000000046 .LFE392
C:\Users\CYMR90~1\AppData\Local\Temp\ccSmV8cy.s:31864  .debug_str:0000000000023305 .LASF5721
C:\Users\CYMR90~1\AppData\Local\Temp\ccSmV8cy.s:33704  .debug_str:000000000002a7f4 .LASF5723
C:\Users\CYMR90~1\AppData\Local\Temp\ccSmV8cy.s:2274   .text.rcu_rf_hxtal_clock_monitor_disable:0000000000000000 .LFB391
C:\Users\CYMR90~1\AppData\Local\Temp\ccSmV8cy.s:2302   .text.rcu_rf_hxtal_clock_monitor_disable:000000000000002a .LFE391
C:\Users\CYMR90~1\AppData\Local\Temp\ccSmV8cy.s:31120  .debug_str:0000000000020577 .LASF5724
C:\Users\CYMR90~1\AppData\Local\Temp\ccSmV8cy.s:2240   .text.rcu_rf_hxtal_clock_monitor_enable:0000000000000000 .LFB390
C:\Users\CYMR90~1\AppData\Local\Temp\ccSmV8cy.s:2267   .text.rcu_rf_hxtal_clock_monitor_enable:0000000000000028 .LFE390
C:\Users\CYMR90~1\AppData\Local\Temp\ccSmV8cy.s:32850  .debug_str:0000000000027214 .LASF5725
C:\Users\CYMR90~1\AppData\Local\Temp\ccSmV8cy.s:2149   .text.rcu_osci_bypass_mode_disable:0000000000000000 .LFB389
C:\Users\CYMR90~1\AppData\Local\Temp\ccSmV8cy.s:2233   .text.rcu_osci_bypass_mode_disable:00000000000000a2 .LFE389
C:\Users\CYMR90~1\AppData\Local\Temp\ccSmV8cy.s:29342  .debug_str:0000000000019544 .LASF5726
C:\Users\CYMR90~1\AppData\Local\Temp\ccSmV8cy.s:25865  .debug_str:000000000000b9b4 .LASF5727
C:\Users\CYMR90~1\AppData\Local\Temp\ccSmV8cy.s:2059   .text.rcu_osci_bypass_mode_enable:0000000000000000 .LFB388
C:\Users\CYMR90~1\AppData\Local\Temp\ccSmV8cy.s:2142   .text.rcu_osci_bypass_mode_enable:00000000000000a2 .LFE388
C:\Users\CYMR90~1\AppData\Local\Temp\ccSmV8cy.s:30870  .debug_str:000000000001f693 .LASF5728
C:\Users\CYMR90~1\AppData\Local\Temp\ccSmV8cy.s:2011   .text.rcu_osci_off:0000000000000000 .LFB387
C:\Users\CYMR90~1\AppData\Local\Temp\ccSmV8cy.s:2052   .text.rcu_osci_off:000000000000004c .LFE387
C:\Users\CYMR90~1\AppData\Local\Temp\ccSmV8cy.s:34228  .debug_str:000000000002c7c0 .LASF5729
C:\Users\CYMR90~1\AppData\Local\Temp\ccSmV8cy.s:1965   .text.rcu_osci_on:0000000000000000 .LFB386
C:\Users\CYMR90~1\AppData\Local\Temp\ccSmV8cy.s:2004   .text.rcu_osci_on:0000000000000048 .LFE386
C:\Users\CYMR90~1\AppData\Local\Temp\ccSmV8cy.s:27357  .debug_str:000000000001166d .LASF5731
C:\Users\CYMR90~1\AppData\Local\Temp\ccSmV8cy.s:1720   .text.rcu_osci_stab_wait:0000000000000000 .LFB385
C:\Users\CYMR90~1\AppData\Local\Temp\ccSmV8cy.s:1958   .text.rcu_osci_stab_wait:00000000000001f2 .LFE385
C:\Users\CYMR90~1\AppData\Local\Temp\ccSmV8cy.s:32558  .debug_str:0000000000025f77 .LASF5732
C:\Users\CYMR90~1\AppData\Local\Temp\ccSmV8cy.s:24483  .debug_str:00000000000060e8 .LASF5733
C:\Users\CYMR90~1\AppData\Local\Temp\ccSmV8cy.s:30126  .debug_str:000000000001c754 .LASF5734
C:\Users\CYMR90~1\AppData\Local\Temp\ccSmV8cy.s:32106  .debug_str:0000000000024187 .LASF5735
C:\Users\CYMR90~1\AppData\Local\Temp\ccSmV8cy.s:1675   .text.rcu_lxtal_drive_capability_config:0000000000000000 .LFB384
C:\Users\CYMR90~1\AppData\Local\Temp\ccSmV8cy.s:1713   .text.rcu_lxtal_drive_capability_config:000000000000003e .LFE384
C:\Users\CYMR90~1\AppData\Local\Temp\ccSmV8cy.s:24509  .debug_str:000000000000628d .LASF5736
C:\Users\CYMR90~1\AppData\Local\Temp\ccSmV8cy.s:29290  .debug_str:000000000001917f .LASF5737
C:\Users\CYMR90~1\AppData\Local\Temp\ccSmV8cy.s:1627   .text.rcu_interrupt_disable:0000000000000000 .LFB383
C:\Users\CYMR90~1\AppData\Local\Temp\ccSmV8cy.s:1668   .text.rcu_interrupt_disable:000000000000004c .LFE383
C:\Users\CYMR90~1\AppData\Local\Temp\ccSmV8cy.s:29816  .debug_str:000000000001b419 .LASF5738
C:\Users\CYMR90~1\AppData\Local\Temp\ccSmV8cy.s:25467  .debug_str:0000000000009f5a .LASF5739
C:\Users\CYMR90~1\AppData\Local\Temp\ccSmV8cy.s:1581   .text.rcu_interrupt_enable:0000000000000000 .LFB382
C:\Users\CYMR90~1\AppData\Local\Temp\ccSmV8cy.s:1620   .text.rcu_interrupt_enable:0000000000000048 .LFE382
C:\Users\CYMR90~1\AppData\Local\Temp\ccSmV8cy.s:31506  .debug_str:0000000000021d79 .LASF5740
C:\Users\CYMR90~1\AppData\Local\Temp\ccSmV8cy.s:1535   .text.rcu_interrupt_flag_clear:0000000000000000 .LFB381
C:\Users\CYMR90~1\AppData\Local\Temp\ccSmV8cy.s:1574   .text.rcu_interrupt_flag_clear:0000000000000048 .LFE381
C:\Users\CYMR90~1\AppData\Local\Temp\ccSmV8cy.s:28169  .debug_str:0000000000014a80 .LASF5741
C:\Users\CYMR90~1\AppData\Local\Temp\ccSmV8cy.s:32920  .debug_str:00000000000275e7 .LASF5742
C:\Users\CYMR90~1\AppData\Local\Temp\ccSmV8cy.s:1487   .text.rcu_interrupt_flag_get:0000000000000000 .LFB380
C:\Users\CYMR90~1\AppData\Local\Temp\ccSmV8cy.s:1528   .text.rcu_interrupt_flag_get:000000000000003a .LFE380
C:\Users\CYMR90~1\AppData\Local\Temp\ccSmV8cy.s:27727  .debug_str:0000000000012ed0 .LASF5743
C:\Users\CYMR90~1\AppData\Local\Temp\ccSmV8cy.s:1453   .text.rcu_all_reset_flag_clear:0000000000000000 .LFB379
C:\Users\CYMR90~1\AppData\Local\Temp\ccSmV8cy.s:1480   .text.rcu_all_reset_flag_clear:0000000000000028 .LFE379
C:\Users\CYMR90~1\AppData\Local\Temp\ccSmV8cy.s:28589  .debug_str:00000000000164b7 .LASF5744
C:\Users\CYMR90~1\AppData\Local\Temp\ccSmV8cy.s:1405   .text.rcu_flag_get:0000000000000000 .LFB378
C:\Users\CYMR90~1\AppData\Local\Temp\ccSmV8cy.s:1446   .text.rcu_flag_get:000000000000003a .LFE378
C:\Users\CYMR90~1\AppData\Local\Temp\ccSmV8cy.s:25601  .debug_str:000000000000a7e6 .LASF5745
C:\Users\CYMR90~1\AppData\Local\Temp\ccSmV8cy.s:25907  .debug_str:000000000000bc95 .LASF5746
C:\Users\CYMR90~1\AppData\Local\Temp\ccSmV8cy.s:1352   .text.rcu_timer_clock_prescaler_config:0000000000000000 .LFB377
C:\Users\CYMR90~1\AppData\Local\Temp\ccSmV8cy.s:1398   .text.rcu_timer_clock_prescaler_config:0000000000000056 .LFE377
C:\Users\CYMR90~1\AppData\Local\Temp\ccSmV8cy.s:27951  .debug_str:0000000000013db1 .LASF5747
C:\Users\CYMR90~1\AppData\Local\Temp\ccSmV8cy.s:24647  .debug_str:0000000000006ade .LASF5748
C:\Users\CYMR90~1\AppData\Local\Temp\ccSmV8cy.s:1307   .text.rcu_irc16m_div_config:0000000000000000 .LFB376
C:\Users\CYMR90~1\AppData\Local\Temp\ccSmV8cy.s:1345   .text.rcu_irc16m_div_config:0000000000000040 .LFE376
C:\Users\CYMR90~1\AppData\Local\Temp\ccSmV8cy.s:29548  .debug_str:000000000001a2ea .LASF5749
C:\Users\CYMR90~1\AppData\Local\Temp\ccSmV8cy.s:25617  .debug_str:000000000000a89f .LASF5750
C:\Users\CYMR90~1\AppData\Local\Temp\ccSmV8cy.s:1260   .text.rcu_usart0_clock_config:0000000000000000 .LFB375
C:\Users\CYMR90~1\AppData\Local\Temp\ccSmV8cy.s:1300   .text.rcu_usart0_clock_config:0000000000000044 .LFE375
C:\Users\CYMR90~1\AppData\Local\Temp\ccSmV8cy.s:31678  .debug_str:0000000000022812 .LASF5751
C:\Users\CYMR90~1\AppData\Local\Temp\ccSmV8cy.s:33814  .debug_str:000000000002ae4f .LASF5752
C:\Users\CYMR90~1\AppData\Local\Temp\ccSmV8cy.s:1213   .text.rcu_i2c0_clock_config:0000000000000000 .LFB374
C:\Users\CYMR90~1\AppData\Local\Temp\ccSmV8cy.s:1253   .text.rcu_i2c0_clock_config:0000000000000044 .LFE374
C:\Users\CYMR90~1\AppData\Local\Temp\ccSmV8cy.s:23627  .debug_str:0000000000002ada .LASF5753
C:\Users\CYMR90~1\AppData\Local\Temp\ccSmV8cy.s:26013  .debug_str:000000000000c397 .LASF5754
C:\Users\CYMR90~1\AppData\Local\Temp\ccSmV8cy.s:1168   .text.rcu_trng_div_config:0000000000000000 .LFB373
C:\Users\CYMR90~1\AppData\Local\Temp\ccSmV8cy.s:1206   .text.rcu_trng_div_config:0000000000000040 .LFE373
C:\Users\CYMR90~1\AppData\Local\Temp\ccSmV8cy.s:24527  .debug_str:0000000000006383 .LASF5755
C:\Users\CYMR90~1\AppData\Local\Temp\ccSmV8cy.s:33520  .debug_str:0000000000029d52 .LASF5756
C:\Users\CYMR90~1\AppData\Local\Temp\ccSmV8cy.s:1121   .text.rcu_rtc_div_config:0000000000000000 .LFB372
C:\Users\CYMR90~1\AppData\Local\Temp\ccSmV8cy.s:1161   .text.rcu_rtc_div_config:0000000000000044 .LFE372
C:\Users\CYMR90~1\AppData\Local\Temp\ccSmV8cy.s:29648  .debug_str:000000000001a85f .LASF5757
C:\Users\CYMR90~1\AppData\Local\Temp\ccSmV8cy.s:28820  .debug_str:00000000000175a4 .LASF5758
C:\Users\CYMR90~1\AppData\Local\Temp\ccSmV8cy.s:1076   .text.rcu_rtc_clock_config:0000000000000000 .LFB371
C:\Users\CYMR90~1\AppData\Local\Temp\ccSmV8cy.s:1114   .text.rcu_rtc_clock_config:0000000000000040 .LFE371
C:\Users\CYMR90~1\AppData\Local\Temp\ccSmV8cy.s:29338  .debug_str:000000000001951f .LASF5759
C:\Users\CYMR90~1\AppData\Local\Temp\ccSmV8cy.s:26007  .debug_str:000000000000c347 .LASF5760
C:\Users\CYMR90~1\AppData\Local\Temp\ccSmV8cy.s:1029   .text.rcu_plldigdiv_sys_config:0000000000000000 .LFB370
C:\Users\CYMR90~1\AppData\Local\Temp\ccSmV8cy.s:1069   .text.rcu_plldigdiv_sys_config:0000000000000044 .LFE370
C:\Users\CYMR90~1\AppData\Local\Temp\ccSmV8cy.s:33788  .debug_str:000000000002ac9d .LASF5761
C:\Users\CYMR90~1\AppData\Local\Temp\ccSmV8cy.s:24945  .debug_str:0000000000007e53 .LASF5762
C:\Users\CYMR90~1\AppData\Local\Temp\ccSmV8cy.s:984    .text.rcu_plldig_config:0000000000000000 .LFB369
C:\Users\CYMR90~1\AppData\Local\Temp\ccSmV8cy.s:1022   .text.rcu_plldig_config:0000000000000048 .LFE369
C:\Users\CYMR90~1\AppData\Local\Temp\ccSmV8cy.s:31352  .debug_str:0000000000021455 .LASF5763
C:\Users\CYMR90~1\AppData\Local\Temp\ccSmV8cy.s:28846  .debug_str:000000000001770a .LASF5764
C:\Users\CYMR90~1\AppData\Local\Temp\ccSmV8cy.s:933    .text.rcu_ckout1_config:0000000000000000 .LFB368
C:\Users\CYMR90~1\AppData\Local\Temp\ccSmV8cy.s:977    .text.rcu_ckout1_config:0000000000000050 .LFE368
C:\Users\CYMR90~1\AppData\Local\Temp\ccSmV8cy.s:23063  .debug_str:00000000000007ec .LASF5765
C:\Users\CYMR90~1\AppData\Local\Temp\ccSmV8cy.s:29882  .debug_str:000000000001b8a4 .LASF5766
C:\Users\CYMR90~1\AppData\Local\Temp\ccSmV8cy.s:25637  .debug_str:000000000000a9b9 .LASF5767
C:\Users\CYMR90~1\AppData\Local\Temp\ccSmV8cy.s:882    .text.rcu_ckout0_config:0000000000000000 .LFB367
C:\Users\CYMR90~1\AppData\Local\Temp\ccSmV8cy.s:926    .text.rcu_ckout0_config:0000000000000050 .LFE367
C:\Users\CYMR90~1\AppData\Local\Temp\ccSmV8cy.s:31460  .debug_str:0000000000021a14 .LASF5768
C:\Users\CYMR90~1\AppData\Local\Temp\ccSmV8cy.s:28065  .debug_str:0000000000014459 .LASF5769
C:\Users\CYMR90~1\AppData\Local\Temp\ccSmV8cy.s:29466  .debug_str:0000000000019d29 .LASF5770
C:\Users\CYMR90~1\AppData\Local\Temp\ccSmV8cy.s:835    .text.rcu_apb2_clock_config:0000000000000000 .LFB366
C:\Users\CYMR90~1\AppData\Local\Temp\ccSmV8cy.s:875    .text.rcu_apb2_clock_config:0000000000000042 .LFE366
C:\Users\CYMR90~1\AppData\Local\Temp\ccSmV8cy.s:27331  .debug_str:00000000000114d9 .LASF5771
C:\Users\CYMR90~1\AppData\Local\Temp\ccSmV8cy.s:28870  .debug_str:0000000000017842 .LASF5772
C:\Users\CYMR90~1\AppData\Local\Temp\ccSmV8cy.s:788    .text.rcu_apb1_clock_config:0000000000000000 .LFB365
C:\Users\CYMR90~1\AppData\Local\Temp\ccSmV8cy.s:828    .text.rcu_apb1_clock_config:0000000000000044 .LFE365
C:\Users\CYMR90~1\AppData\Local\Temp\ccSmV8cy.s:25373  .debug_str:00000000000099b7 .LASF5773
C:\Users\CYMR90~1\AppData\Local\Temp\ccSmV8cy.s:32410  .debug_str:00000000000254bd .LASF5774
C:\Users\CYMR90~1\AppData\Local\Temp\ccSmV8cy.s:743    .text.rcu_ahb_clock_config:0000000000000000 .LFB364
C:\Users\CYMR90~1\AppData\Local\Temp\ccSmV8cy.s:781    .text.rcu_ahb_clock_config:0000000000000040 .LFE364
C:\Users\CYMR90~1\AppData\Local\Temp\ccSmV8cy.s:33710  .debug_str:000000000002a85e .LASF5775
C:\Users\CYMR90~1\AppData\Local\Temp\ccSmV8cy.s:23397  .debug_str:0000000000001cf8 .LASF5799
C:\Users\CYMR90~1\AppData\Local\Temp\ccSmV8cy.s:713    .text.rcu_system_clock_source_get:0000000000000000 .LFB363
C:\Users\CYMR90~1\AppData\Local\Temp\ccSmV8cy.s:736    .text.rcu_system_clock_source_get:000000000000001a .LFE363
C:\Users\CYMR90~1\AppData\Local\Temp\ccSmV8cy.s:25175  .debug_str:0000000000008da4 .LASF5776
C:\Users\CYMR90~1\AppData\Local\Temp\ccSmV8cy.s:668    .text.rcu_system_clock_source_config:0000000000000000 .LFB362
C:\Users\CYMR90~1\AppData\Local\Temp\ccSmV8cy.s:706    .text.rcu_system_clock_source_config:000000000000003e .LFE362
C:\Users\CYMR90~1\AppData\Local\Temp\ccSmV8cy.s:33782  .debug_str:000000000002ac52 .LASF5777
C:\Users\CYMR90~1\AppData\Local\Temp\ccSmV8cy.s:23653  .debug_str:0000000000002ca9 .LASF5778
C:\Users\CYMR90~1\AppData\Local\Temp\ccSmV8cy.s:620    .text.rcu_control_unit_powerdown:0000000000000000 .LFB361
C:\Users\CYMR90~1\AppData\Local\Temp\ccSmV8cy.s:661    .text.rcu_control_unit_powerdown:000000000000004c .LFE361
C:\Users\CYMR90~1\AppData\Local\Temp\ccSmV8cy.s:24253  .debug_str:00000000000052d3 .LASF5779
C:\Users\CYMR90~1\AppData\Local\Temp\ccSmV8cy.s:31648  .debug_str:000000000002266b .LASF5780
C:\Users\CYMR90~1\AppData\Local\Temp\ccSmV8cy.s:574    .text.rcu_control_unit_powerup:0000000000000000 .LFB360
C:\Users\CYMR90~1\AppData\Local\Temp\ccSmV8cy.s:613    .text.rcu_control_unit_powerup:0000000000000048 .LFE360
C:\Users\CYMR90~1\AppData\Local\Temp\ccSmV8cy.s:33684  .debug_str:000000000002a6fd .LASF5781
C:\Users\CYMR90~1\AppData\Local\Temp\ccSmV8cy.s:539    .text.rcu_rfpll_cal_disable:0000000000000000 .LFB359
C:\Users\CYMR90~1\AppData\Local\Temp\ccSmV8cy.s:567    .text.rcu_rfpll_cal_disable:0000000000000028 .LFE359
C:\Users\CYMR90~1\AppData\Local\Temp\ccSmV8cy.s:29168  .debug_str:0000000000018a53 .LASF5782
C:\Users\CYMR90~1\AppData\Local\Temp\ccSmV8cy.s:505    .text.rcu_rfpll_cal_enable:0000000000000000 .LFB358
C:\Users\CYMR90~1\AppData\Local\Temp\ccSmV8cy.s:532    .text.rcu_rfpll_cal_enable:0000000000000026 .LFE358
C:\Users\CYMR90~1\AppData\Local\Temp\ccSmV8cy.s:29644  .debug_str:000000000001a83d .LASF5783
C:\Users\CYMR90~1\AppData\Local\Temp\ccSmV8cy.s:470    .text.rcu_bkp_reset_disable:0000000000000000 .LFB357
C:\Users\CYMR90~1\AppData\Local\Temp\ccSmV8cy.s:498    .text.rcu_bkp_reset_disable:0000000000000028 .LFE357
C:\Users\CYMR90~1\AppData\Local\Temp\ccSmV8cy.s:27271  .debug_str:0000000000011137 .LASF5784
C:\Users\CYMR90~1\AppData\Local\Temp\ccSmV8cy.s:436    .text.rcu_bkp_reset_enable:0000000000000000 .LFB356
C:\Users\CYMR90~1\AppData\Local\Temp\ccSmV8cy.s:463    .text.rcu_bkp_reset_enable:0000000000000026 .LFE356
C:\Users\CYMR90~1\AppData\Local\Temp\ccSmV8cy.s:29824  .debug_str:000000000001b475 .LASF5785
C:\Users\CYMR90~1\AppData\Local\Temp\ccSmV8cy.s:388    .text.rcu_periph_reset_disable:0000000000000000 .LFB355
C:\Users\CYMR90~1\AppData\Local\Temp\ccSmV8cy.s:429    .text.rcu_periph_reset_disable:000000000000004c .LFE355
C:\Users\CYMR90~1\AppData\Local\Temp\ccSmV8cy.s:24363  .debug_str:000000000000599e .LASF5786
C:\Users\CYMR90~1\AppData\Local\Temp\ccSmV8cy.s:31204  .debug_str:0000000000020ace .LASF5787
C:\Users\CYMR90~1\AppData\Local\Temp\ccSmV8cy.s:342    .text.rcu_periph_reset_enable:0000000000000000 .LFB354
C:\Users\CYMR90~1\AppData\Local\Temp\ccSmV8cy.s:381    .text.rcu_periph_reset_enable:0000000000000048 .LFE354
C:\Users\CYMR90~1\AppData\Local\Temp\ccSmV8cy.s:30376  .debug_str:000000000001d86b .LASF5788
C:\Users\CYMR90~1\AppData\Local\Temp\ccSmV8cy.s:307    .text.rcu_fmc_clock_sleep_disable:0000000000000000 .LFB353
C:\Users\CYMR90~1\AppData\Local\Temp\ccSmV8cy.s:335    .text.rcu_fmc_clock_sleep_disable:0000000000000028 .LFE353
C:\Users\CYMR90~1\AppData\Local\Temp\ccSmV8cy.s:25685  .debug_str:000000000000ad8a .LASF5789
C:\Users\CYMR90~1\AppData\Local\Temp\ccSmV8cy.s:273    .text.rcu_fmc_clock_sleep_enable:0000000000000000 .LFB352
C:\Users\CYMR90~1\AppData\Local\Temp\ccSmV8cy.s:300    .text.rcu_fmc_clock_sleep_enable:0000000000000026 .LFE352
C:\Users\CYMR90~1\AppData\Local\Temp\ccSmV8cy.s:27347  .debug_str:00000000000115e8 .LASF5790
C:\Users\CYMR90~1\AppData\Local\Temp\ccSmV8cy.s:225    .text.rcu_periph_clock_disable:0000000000000000 .LFB351
C:\Users\CYMR90~1\AppData\Local\Temp\ccSmV8cy.s:266    .text.rcu_periph_clock_disable:000000000000004c .LFE351
C:\Users\CYMR90~1\AppData\Local\Temp\ccSmV8cy.s:33904  .debug_str:000000000002b38c .LASF5791
C:\Users\CYMR90~1\AppData\Local\Temp\ccSmV8cy.s:26503  .debug_str:000000000000e1cd .LASF5792
C:\Users\CYMR90~1\AppData\Local\Temp\ccSmV8cy.s:179    .text.rcu_periph_clock_enable:0000000000000000 .LFB350
C:\Users\CYMR90~1\AppData\Local\Temp\ccSmV8cy.s:218    .text.rcu_periph_clock_enable:0000000000000048 .LFE350
C:\Users\CYMR90~1\AppData\Local\Temp\ccSmV8cy.s:25611  .debug_str:000000000000a859 .LASF5793
C:\Users\CYMR90~1\AppData\Local\Temp\ccSmV8cy.s:146    .text.rcu_irc16m_dfs_to_rf_disable:0000000000000000 .LFB349
C:\Users\CYMR90~1\AppData\Local\Temp\ccSmV8cy.s:172    .text.rcu_irc16m_dfs_to_rf_disable:0000000000000024 .LFE349
C:\Users\CYMR90~1\AppData\Local\Temp\ccSmV8cy.s:33858  .debug_str:000000000002b119 .LASF5794
C:\Users\CYMR90~1\AppData\Local\Temp\ccSmV8cy.s:113    .text.rcu_irc16m_dfs_to_rf_enable:0000000000000000 .LFB348
C:\Users\CYMR90~1\AppData\Local\Temp\ccSmV8cy.s:139    .text.rcu_irc16m_dfs_to_rf_enable:0000000000000026 .LFE348
C:\Users\CYMR90~1\AppData\Local\Temp\ccSmV8cy.s:32916  .debug_str:00000000000275c7 .LASF5795
C:\Users\CYMR90~1\AppData\Local\Temp\ccSmV8cy.s:14     .text.rcu_deinit:0000000000000000 .LFB347
C:\Users\CYMR90~1\AppData\Local\Temp\ccSmV8cy.s:106    .text.rcu_deinit:00000000000000cc .LFE347
C:\Users\CYMR90~1\AppData\Local\Temp\ccSmV8cy.s:2807   .debug_info:0000000000000000 .Ldebug_info0
C:\Users\CYMR90~1\AppData\Local\Temp\ccSmV8cy.s:5912   .debug_macro:0000000000000000 .Ldebug_macro2
C:\Users\CYMR90~1\AppData\Local\Temp\ccSmV8cy.s:29410  .debug_str:0000000000019a00 .LASF314
C:\Users\CYMR90~1\AppData\Local\Temp\ccSmV8cy.s:28864  .debug_str:0000000000017803 .LASF315
C:\Users\CYMR90~1\AppData\Local\Temp\ccSmV8cy.s:6859   .debug_macro:0000000000000000 .Ldebug_macro3
C:\Users\CYMR90~1\AppData\Local\Temp\ccSmV8cy.s:25179  .debug_str:0000000000008de6 .LASF369
C:\Users\CYMR90~1\AppData\Local\Temp\ccSmV8cy.s:24719  .debug_str:0000000000006f99 .LASF370
C:\Users\CYMR90~1\AppData\Local\Temp\ccSmV8cy.s:29114  .debug_str:0000000000018720 .LASF371
C:\Users\CYMR90~1\AppData\Local\Temp\ccSmV8cy.s:7023   .debug_macro:0000000000000000 .Ldebug_macro4
C:\Users\CYMR90~1\AppData\Local\Temp\ccSmV8cy.s:7043   .debug_macro:0000000000000000 .Ldebug_macro5
C:\Users\CYMR90~1\AppData\Local\Temp\ccSmV8cy.s:27741  .debug_str:0000000000012fe7 .LASF390
C:\Users\CYMR90~1\AppData\Local\Temp\ccSmV8cy.s:7087   .debug_macro:0000000000000000 .Ldebug_macro6
C:\Users\CYMR90~1\AppData\Local\Temp\ccSmV8cy.s:7101   .debug_macro:0000000000000000 .Ldebug_macro7
C:\Users\CYMR90~1\AppData\Local\Temp\ccSmV8cy.s:7169   .debug_macro:0000000000000000 .Ldebug_macro8
C:\Users\CYMR90~1\AppData\Local\Temp\ccSmV8cy.s:7195   .debug_macro:0000000000000000 .Ldebug_macro9
C:\Users\CYMR90~1\AppData\Local\Temp\ccSmV8cy.s:7224   .debug_macro:0000000000000000 .Ldebug_macro10
C:\Users\CYMR90~1\AppData\Local\Temp\ccSmV8cy.s:29250  .debug_str:0000000000018f43 .LASF433
C:\Users\CYMR90~1\AppData\Local\Temp\ccSmV8cy.s:7238   .debug_macro:0000000000000000 .Ldebug_macro11
C:\Users\CYMR90~1\AppData\Local\Temp\ccSmV8cy.s:7282   .debug_macro:0000000000000000 .Ldebug_macro12
C:\Users\CYMR90~1\AppData\Local\Temp\ccSmV8cy.s:7308   .debug_macro:0000000000000000 .Ldebug_macro13
C:\Users\CYMR90~1\AppData\Local\Temp\ccSmV8cy.s:32894  .debug_str:00000000000274c3 .LASF569
C:\Users\CYMR90~1\AppData\Local\Temp\ccSmV8cy.s:7679   .debug_macro:0000000000000000 .Ldebug_macro14
C:\Users\CYMR90~1\AppData\Local\Temp\ccSmV8cy.s:27251  .debug_str:0000000000010fbc .LASF572
C:\Users\CYMR90~1\AppData\Local\Temp\ccSmV8cy.s:32210  .debug_str:0000000000024782 .LASF573
C:\Users\CYMR90~1\AppData\Local\Temp\ccSmV8cy.s:7690   .debug_macro:0000000000000000 .Ldebug_macro15
C:\Users\CYMR90~1\AppData\Local\Temp\ccSmV8cy.s:7704   .debug_macro:0000000000000000 .Ldebug_macro16
C:\Users\CYMR90~1\AppData\Local\Temp\ccSmV8cy.s:24905  .debug_str:0000000000007bba .LASF578
C:\Users\CYMR90~1\AppData\Local\Temp\ccSmV8cy.s:7736   .debug_macro:0000000000000000 .Ldebug_macro17
C:\Users\CYMR90~1\AppData\Local\Temp\ccSmV8cy.s:7762   .debug_macro:0000000000000000 .Ldebug_macro18
C:\Users\CYMR90~1\AppData\Local\Temp\ccSmV8cy.s:7773   .debug_macro:0000000000000000 .Ldebug_macro19
C:\Users\CYMR90~1\AppData\Local\Temp\ccSmV8cy.s:7817   .debug_macro:0000000000000000 .Ldebug_macro20
C:\Users\CYMR90~1\AppData\Local\Temp\ccSmV8cy.s:7987   .debug_macro:0000000000000000 .Ldebug_macro21
C:\Users\CYMR90~1\AppData\Local\Temp\ccSmV8cy.s:7998   .debug_macro:0000000000000000 .Ldebug_macro22
C:\Users\CYMR90~1\AppData\Local\Temp\ccSmV8cy.s:27985  .debug_str:0000000000013fa1 .LASF675
C:\Users\CYMR90~1\AppData\Local\Temp\ccSmV8cy.s:8054   .debug_macro:0000000000000000 .Ldebug_macro23
C:\Users\CYMR90~1\AppData\Local\Temp\ccSmV8cy.s:8071   .debug_macro:0000000000000000 .Ldebug_macro24
C:\Users\CYMR90~1\AppData\Local\Temp\ccSmV8cy.s:31022  .debug_str:000000000001ffd8 .LASF693
C:\Users\CYMR90~1\AppData\Local\Temp\ccSmV8cy.s:29122  .debug_str:000000000001877d .LASF694
C:\Users\CYMR90~1\AppData\Local\Temp\ccSmV8cy.s:8115   .debug_macro:0000000000000000 .Ldebug_macro25
C:\Users\CYMR90~1\AppData\Local\Temp\ccSmV8cy.s:24175  .debug_str:0000000000004e55 .LASF700
C:\Users\CYMR90~1\AppData\Local\Temp\ccSmV8cy.s:25319  .debug_str:0000000000009658 .LASF701
C:\Users\CYMR90~1\AppData\Local\Temp\ccSmV8cy.s:8135   .debug_macro:0000000000000000 .Ldebug_macro26
C:\Users\CYMR90~1\AppData\Local\Temp\ccSmV8cy.s:8146   .debug_macro:0000000000000000 .Ldebug_macro27
C:\Users\CYMR90~1\AppData\Local\Temp\ccSmV8cy.s:8190   .debug_macro:0000000000000000 .Ldebug_macro28
C:\Users\CYMR90~1\AppData\Local\Temp\ccSmV8cy.s:31640  .debug_str:00000000000225e4 .LASF749
C:\Users\CYMR90~1\AppData\Local\Temp\ccSmV8cy.s:8291   .debug_macro:0000000000000000 .Ldebug_macro29
C:\Users\CYMR90~1\AppData\Local\Temp\ccSmV8cy.s:8308   .debug_macro:0000000000000000 .Ldebug_macro30
C:\Users\CYMR90~1\AppData\Local\Temp\ccSmV8cy.s:23005  .debug_str:00000000000004bd .LASF763
C:\Users\CYMR90~1\AppData\Local\Temp\ccSmV8cy.s:24353  .debug_str:00000000000058fd .LASF764
C:\Users\CYMR90~1\AppData\Local\Temp\ccSmV8cy.s:8340   .debug_macro:0000000000000000 .Ldebug_macro31
C:\Users\CYMR90~1\AppData\Local\Temp\ccSmV8cy.s:8354   .debug_macro:0000000000000000 .Ldebug_macro32
C:\Users\CYMR90~1\AppData\Local\Temp\ccSmV8cy.s:8524   .debug_macro:0000000000000000 .Ldebug_macro33
C:\Users\CYMR90~1\AppData\Local\Temp\ccSmV8cy.s:26891  .debug_str:000000000000f98e .LASF850
C:\Users\CYMR90~1\AppData\Local\Temp\ccSmV8cy.s:29986  .debug_str:000000000001bee0 .LASF851
C:\Users\CYMR90~1\AppData\Local\Temp\ccSmV8cy.s:8610   .debug_macro:0000000000000000 .Ldebug_macro34
C:\Users\CYMR90~1\AppData\Local\Temp\ccSmV8cy.s:8735   .debug_macro:0000000000000000 .Ldebug_macro35
C:\Users\CYMR90~1\AppData\Local\Temp\ccSmV8cy.s:23303  .debug_str:0000000000001646 .LASF951
C:\Users\CYMR90~1\AppData\Local\Temp\ccSmV8cy.s:8947   .debug_macro:0000000000000000 .Ldebug_macro36
C:\Users\CYMR90~1\AppData\Local\Temp\ccSmV8cy.s:23211  .debug_str:0000000000001116 .LASF957
C:\Users\CYMR90~1\AppData\Local\Temp\ccSmV8cy.s:24595  .debug_str:00000000000067a0 .LASF958
C:\Users\CYMR90~1\AppData\Local\Temp\ccSmV8cy.s:30864  .debug_str:000000000001f62c .LASF959
C:\Users\CYMR90~1\AppData\Local\Temp\ccSmV8cy.s:8967   .debug_macro:0000000000000000 .Ldebug_macro37
C:\Users\CYMR90~1\AppData\Local\Temp\ccSmV8cy.s:9059   .debug_macro:0000000000000000 .Ldebug_macro38
C:\Users\CYMR90~1\AppData\Local\Temp\ccSmV8cy.s:10705  .debug_macro:0000000000000000 .Ldebug_macro39
C:\Users\CYMR90~1\AppData\Local\Temp\ccSmV8cy.s:10797  .debug_macro:0000000000000000 .Ldebug_macro40
C:\Users\CYMR90~1\AppData\Local\Temp\ccSmV8cy.s:10853  .debug_macro:0000000000000000 .Ldebug_macro41
C:\Users\CYMR90~1\AppData\Local\Temp\ccSmV8cy.s:10867  .debug_macro:0000000000000000 .Ldebug_macro42
C:\Users\CYMR90~1\AppData\Local\Temp\ccSmV8cy.s:28651  .debug_str:00000000000168df .LASF1655
C:\Users\CYMR90~1\AppData\Local\Temp\ccSmV8cy.s:25453  .debug_str:0000000000009e8e .LASF1656
C:\Users\CYMR90~1\AppData\Local\Temp\ccSmV8cy.s:11091  .debug_macro:0000000000000000 .Ldebug_macro43
C:\Users\CYMR90~1\AppData\Local\Temp\ccSmV8cy.s:11138  .debug_macro:0000000000000000 .Ldebug_macro44
C:\Users\CYMR90~1\AppData\Local\Temp\ccSmV8cy.s:11293  .debug_macro:0000000000000000 .Ldebug_macro45
C:\Users\CYMR90~1\AppData\Local\Temp\ccSmV8cy.s:11349  .debug_macro:0000000000000000 .Ldebug_macro46
C:\Users\CYMR90~1\AppData\Local\Temp\ccSmV8cy.s:11360  .debug_macro:0000000000000000 .Ldebug_macro47
C:\Users\CYMR90~1\AppData\Local\Temp\ccSmV8cy.s:33686  .debug_str:000000000002a713 .LASF1782
C:\Users\CYMR90~1\AppData\Local\Temp\ccSmV8cy.s:28407  .debug_str:00000000000159ce .LASF1783
C:\Users\CYMR90~1\AppData\Local\Temp\ccSmV8cy.s:11491  .debug_macro:0000000000000000 .Ldebug_macro48
C:\Users\CYMR90~1\AppData\Local\Temp\ccSmV8cy.s:12063  .debug_macro:0000000000000000 .Ldebug_macro49
C:\Users\CYMR90~1\AppData\Local\Temp\ccSmV8cy.s:12350  .debug_macro:0000000000000000 .Ldebug_macro50
C:\Users\CYMR90~1\AppData\Local\Temp\ccSmV8cy.s:12379  .debug_macro:0000000000000000 .Ldebug_macro51
C:\Users\CYMR90~1\AppData\Local\Temp\ccSmV8cy.s:12456  .debug_macro:0000000000000000 .Ldebug_macro52
C:\Users\CYMR90~1\AppData\Local\Temp\ccSmV8cy.s:12989  .debug_macro:0000000000000000 .Ldebug_macro53
C:\Users\CYMR90~1\AppData\Local\Temp\ccSmV8cy.s:13012  .debug_macro:0000000000000000 .Ldebug_macro54
C:\Users\CYMR90~1\AppData\Local\Temp\ccSmV8cy.s:13278  .debug_macro:0000000000000000 .Ldebug_macro55
C:\Users\CYMR90~1\AppData\Local\Temp\ccSmV8cy.s:13757  .debug_macro:0000000000000000 .Ldebug_macro56
C:\Users\CYMR90~1\AppData\Local\Temp\ccSmV8cy.s:14086  .debug_macro:0000000000000000 .Ldebug_macro57
C:\Users\CYMR90~1\AppData\Local\Temp\ccSmV8cy.s:14175  .debug_macro:0000000000000000 .Ldebug_macro58
C:\Users\CYMR90~1\AppData\Local\Temp\ccSmV8cy.s:14990  .debug_macro:0000000000000000 .Ldebug_macro59
C:\Users\CYMR90~1\AppData\Local\Temp\ccSmV8cy.s:15181  .debug_macro:0000000000000000 .Ldebug_macro60
C:\Users\CYMR90~1\AppData\Local\Temp\ccSmV8cy.s:15684  .debug_macro:0000000000000000 .Ldebug_macro61
C:\Users\CYMR90~1\AppData\Local\Temp\ccSmV8cy.s:15830  .debug_macro:0000000000000000 .Ldebug_macro62
C:\Users\CYMR90~1\AppData\Local\Temp\ccSmV8cy.s:16360  .debug_macro:0000000000000000 .Ldebug_macro63
C:\Users\CYMR90~1\AppData\Local\Temp\ccSmV8cy.s:16782  .debug_macro:0000000000000000 .Ldebug_macro64
C:\Users\CYMR90~1\AppData\Local\Temp\ccSmV8cy.s:17858  .debug_macro:0000000000000000 .Ldebug_macro65
C:\Users\CYMR90~1\AppData\Local\Temp\ccSmV8cy.s:18127  .debug_macro:0000000000000000 .Ldebug_macro66
C:\Users\CYMR90~1\AppData\Local\Temp\ccSmV8cy.s:18399  .debug_macro:0000000000000000 .Ldebug_macro67
C:\Users\CYMR90~1\AppData\Local\Temp\ccSmV8cy.s:19427  .debug_macro:0000000000000000 .Ldebug_macro68
C:\Users\CYMR90~1\AppData\Local\Temp\ccSmV8cy.s:19471  .debug_macro:0000000000000000 .Ldebug_macro69
C:\Users\CYMR90~1\AppData\Local\Temp\ccSmV8cy.s:20097  .debug_macro:0000000000000000 .Ldebug_macro70
C:\Users\CYMR90~1\AppData\Local\Temp\ccSmV8cy.s:20156  .debug_macro:0000000000000000 .Ldebug_macro71
C:\Users\CYMR90~1\AppData\Local\Temp\ccSmV8cy.s:23079  .debug_str:00000000000008ac .LASF5556
C:\Users\CYMR90~1\AppData\Local\Temp\ccSmV8cy.s:33352  .debug_str:00000000000292b6 .LASF5557
C:\Users\CYMR90~1\AppData\Local\Temp\ccSmV8cy.s:29946  .debug_str:000000000001bc4c .LASF5558
C:\Users\CYMR90~1\AppData\Local\Temp\ccSmV8cy.s:26961  .debug_str:000000000000fe05 .LASF5559
C:\Users\CYMR90~1\AppData\Local\Temp\ccSmV8cy.s:34172  .debug_str:000000000002c457 .LASF5560
C:\Users\CYMR90~1\AppData\Local\Temp\ccSmV8cy.s:31376  .debug_str:000000000002157f .LASF5561
C:\Users\CYMR90~1\AppData\Local\Temp\ccSmV8cy.s:25689  .debug_str:000000000000adc2 .LASF5562
C:\Users\CYMR90~1\AppData\Local\Temp\ccSmV8cy.s:24335  .debug_str:00000000000057c2 .LASF0
C:\Users\CYMR90~1\AppData\Local\Temp\ccSmV8cy.s:28848  .debug_str:000000000001771c .LASF1
C:\Users\CYMR90~1\AppData\Local\Temp\ccSmV8cy.s:27059  .debug_str:0000000000010409 .LASF2
C:\Users\CYMR90~1\AppData\Local\Temp\ccSmV8cy.s:27127  .debug_str:000000000001088a .LASF3
C:\Users\CYMR90~1\AppData\Local\Temp\ccSmV8cy.s:28457  .debug_str:0000000000015c7a .LASF4
C:\Users\CYMR90~1\AppData\Local\Temp\ccSmV8cy.s:34096  .debug_str:000000000002bf63 .LASF5
C:\Users\CYMR90~1\AppData\Local\Temp\ccSmV8cy.s:24569  .debug_str:0000000000006603 .LASF6
C:\Users\CYMR90~1\AppData\Local\Temp\ccSmV8cy.s:33410  .debug_str:0000000000029619 .LASF7
C:\Users\CYMR90~1\AppData\Local\Temp\ccSmV8cy.s:32328  .debug_str:0000000000024f64 .LASF8
C:\Users\CYMR90~1\AppData\Local\Temp\ccSmV8cy.s:30212  .debug_str:000000000001cc2f .LASF9
C:\Users\CYMR90~1\AppData\Local\Temp\ccSmV8cy.s:29542  .debug_str:000000000001a2a0 .LASF10
C:\Users\CYMR90~1\AppData\Local\Temp\ccSmV8cy.s:29396  .debug_str:0000000000019924 .LASF11
C:\Users\CYMR90~1\AppData\Local\Temp\ccSmV8cy.s:33934  .debug_str:000000000002b54d .LASF12
C:\Users\CYMR90~1\AppData\Local\Temp\ccSmV8cy.s:32286  .debug_str:0000000000024cc9 .LASF13
C:\Users\CYMR90~1\AppData\Local\Temp\ccSmV8cy.s:25613  .debug_str:000000000000a876 .LASF14
C:\Users\CYMR90~1\AppData\Local\Temp\ccSmV8cy.s:30814  .debug_str:000000000001f376 .LASF15
C:\Users\CYMR90~1\AppData\Local\Temp\ccSmV8cy.s:31576  .debug_str:00000000000221ed .LASF16
C:\Users\CYMR90~1\AppData\Local\Temp\ccSmV8cy.s:25663  .debug_str:000000000000ab7d .LASF17
C:\Users\CYMR90~1\AppData\Local\Temp\ccSmV8cy.s:32626  .debug_str:000000000002643a .LASF18
C:\Users\CYMR90~1\AppData\Local\Temp\ccSmV8cy.s:27337  .debug_str:0000000000011530 .LASF19
C:\Users\CYMR90~1\AppData\Local\Temp\ccSmV8cy.s:23625  .debug_str:0000000000002ac7 .LASF20
C:\Users\CYMR90~1\AppData\Local\Temp\ccSmV8cy.s:29202  .debug_str:0000000000018c6f .LASF21
C:\Users\CYMR90~1\AppData\Local\Temp\ccSmV8cy.s:29200  .debug_str:0000000000018c55 .LASF22
C:\Users\CYMR90~1\AppData\Local\Temp\ccSmV8cy.s:31888  .debug_str:00000000000234c0 .LASF23
C:\Users\CYMR90~1\AppData\Local\Temp\ccSmV8cy.s:30162  .debug_str:000000000001c966 .LASF24
C:\Users\CYMR90~1\AppData\Local\Temp\ccSmV8cy.s:23871  .debug_str:0000000000003ac1 .LASF25
C:\Users\CYMR90~1\AppData\Local\Temp\ccSmV8cy.s:28583  .debug_str:0000000000016467 .LASF26
C:\Users\CYMR90~1\AppData\Local\Temp\ccSmV8cy.s:31892  .debug_str:00000000000234ec .LASF27
C:\Users\CYMR90~1\AppData\Local\Temp\ccSmV8cy.s:31584  .debug_str:0000000000022245 .LASF28
C:\Users\CYMR90~1\AppData\Local\Temp\ccSmV8cy.s:24283  .debug_str:000000000000549f .LASF29
C:\Users\CYMR90~1\AppData\Local\Temp\ccSmV8cy.s:30592  .debug_str:000000000001e615 .LASF30
C:\Users\CYMR90~1\AppData\Local\Temp\ccSmV8cy.s:23245  .debug_str:0000000000001305 .LASF31
C:\Users\CYMR90~1\AppData\Local\Temp\ccSmV8cy.s:31058  .debug_str:00000000000201bf .LASF32
C:\Users\CYMR90~1\AppData\Local\Temp\ccSmV8cy.s:25493  .debug_str:000000000000a0ea .LASF33
C:\Users\CYMR90~1\AppData\Local\Temp\ccSmV8cy.s:25339  .debug_str:000000000000976b .LASF34
C:\Users\CYMR90~1\AppData\Local\Temp\ccSmV8cy.s:26701  .debug_str:000000000000ee4f .LASF35
C:\Users\CYMR90~1\AppData\Local\Temp\ccSmV8cy.s:29654  .debug_str:000000000001a8b1 .LASF36
C:\Users\CYMR90~1\AppData\Local\Temp\ccSmV8cy.s:24817  .debug_str:0000000000007628 .LASF37
C:\Users\CYMR90~1\AppData\Local\Temp\ccSmV8cy.s:27057  .debug_str:00000000000103e6 .LASF38
C:\Users\CYMR90~1\AppData\Local\Temp\ccSmV8cy.s:23831  .debug_str:00000000000037f3 .LASF39
C:\Users\CYMR90~1\AppData\Local\Temp\ccSmV8cy.s:23615  .debug_str:0000000000002a1f .LASF40
C:\Users\CYMR90~1\AppData\Local\Temp\ccSmV8cy.s:27239  .debug_str:0000000000010f0a .LASF41
C:\Users\CYMR90~1\AppData\Local\Temp\ccSmV8cy.s:27675  .debug_str:0000000000012b8a .LASF42
C:\Users\CYMR90~1\AppData\Local\Temp\ccSmV8cy.s:27935  .debug_str:0000000000013cc7 .LASF43
C:\Users\CYMR90~1\AppData\Local\Temp\ccSmV8cy.s:23671  .debug_str:0000000000002da2 .LASF44
C:\Users\CYMR90~1\AppData\Local\Temp\ccSmV8cy.s:27539  .debug_str:0000000000012320 .LASF45
C:\Users\CYMR90~1\AppData\Local\Temp\ccSmV8cy.s:24111  .debug_str:00000000000049b3 .LASF46
C:\Users\CYMR90~1\AppData\Local\Temp\ccSmV8cy.s:30598  .debug_str:000000000001e67a .LASF47
C:\Users\CYMR90~1\AppData\Local\Temp\ccSmV8cy.s:32330  .debug_str:0000000000024f79 .LASF48
C:\Users\CYMR90~1\AppData\Local\Temp\ccSmV8cy.s:26437  .debug_str:000000000000de06 .LASF49
C:\Users\CYMR90~1\AppData\Local\Temp\ccSmV8cy.s:23457  .debug_str:0000000000002080 .LASF50
C:\Users\CYMR90~1\AppData\Local\Temp\ccSmV8cy.s:22945  .debug_str:0000000000000103 .LASF51
C:\Users\CYMR90~1\AppData\Local\Temp\ccSmV8cy.s:33698  .debug_str:000000000002a7a8 .LASF52
C:\Users\CYMR90~1\AppData\Local\Temp\ccSmV8cy.s:31960  .debug_str:00000000000238c1 .LASF53
C:\Users\CYMR90~1\AppData\Local\Temp\ccSmV8cy.s:28017  .debug_str:00000000000141b9 .LASF54
C:\Users\CYMR90~1\AppData\Local\Temp\ccSmV8cy.s:27023  .debug_str:0000000000010196 .LASF55
C:\Users\CYMR90~1\AppData\Local\Temp\ccSmV8cy.s:24917  .debug_str:0000000000007c74 .LASF56
C:\Users\CYMR90~1\AppData\Local\Temp\ccSmV8cy.s:28435  .debug_str:0000000000015b47 .LASF57
C:\Users\CYMR90~1\AppData\Local\Temp\ccSmV8cy.s:23197  .debug_str:0000000000001063 .LASF58
C:\Users\CYMR90~1\AppData\Local\Temp\ccSmV8cy.s:32630  .debug_str:000000000002647a .LASF59
C:\Users\CYMR90~1\AppData\Local\Temp\ccSmV8cy.s:27945  .debug_str:0000000000013d32 .LASF60
C:\Users\CYMR90~1\AppData\Local\Temp\ccSmV8cy.s:29932  .debug_str:000000000001bb9f .LASF61
C:\Users\CYMR90~1\AppData\Local\Temp\ccSmV8cy.s:23689  .debug_str:0000000000002ec6 .LASF62
C:\Users\CYMR90~1\AppData\Local\Temp\ccSmV8cy.s:26429  .debug_str:000000000000dd9c .LASF63
C:\Users\CYMR90~1\AppData\Local\Temp\ccSmV8cy.s:26155  .debug_str:000000000000cc33 .LASF64
C:\Users\CYMR90~1\AppData\Local\Temp\ccSmV8cy.s:29630  .debug_str:000000000001a774 .LASF65
C:\Users\CYMR90~1\AppData\Local\Temp\ccSmV8cy.s:28251  .debug_str:0000000000014fd0 .LASF66
C:\Users\CYMR90~1\AppData\Local\Temp\ccSmV8cy.s:33474  .debug_str:0000000000029a06 .LASF67
C:\Users\CYMR90~1\AppData\Local\Temp\ccSmV8cy.s:33936  .debug_str:000000000002b560 .LASF68
C:\Users\CYMR90~1\AppData\Local\Temp\ccSmV8cy.s:27489  .debug_str:0000000000011fa0 .LASF69
C:\Users\CYMR90~1\AppData\Local\Temp\ccSmV8cy.s:23545  .debug_str:0000000000002591 .LASF70
C:\Users\CYMR90~1\AppData\Local\Temp\ccSmV8cy.s:24123  .debug_str:0000000000004b25 .LASF71
C:\Users\CYMR90~1\AppData\Local\Temp\ccSmV8cy.s:27527  .debug_str:000000000001225d .LASF72
C:\Users\CYMR90~1\AppData\Local\Temp\ccSmV8cy.s:27135  .debug_str:00000000000108fc .LASF73
C:\Users\CYMR90~1\AppData\Local\Temp\ccSmV8cy.s:27759  .debug_str:0000000000013124 .LASF74
C:\Users\CYMR90~1\AppData\Local\Temp\ccSmV8cy.s:27599  .debug_str:00000000000126a8 .LASF75
C:\Users\CYMR90~1\AppData\Local\Temp\ccSmV8cy.s:27695  .debug_str:0000000000012cf5 .LASF76
C:\Users\CYMR90~1\AppData\Local\Temp\ccSmV8cy.s:32244  .debug_str:0000000000024a0e .LASF77
C:\Users\CYMR90~1\AppData\Local\Temp\ccSmV8cy.s:30134  .debug_str:000000000001c7c2 .LASF78
C:\Users\CYMR90~1\AppData\Local\Temp\ccSmV8cy.s:30562  .debug_str:000000000001e3ca .LASF79
C:\Users\CYMR90~1\AppData\Local\Temp\ccSmV8cy.s:33456  .debug_str:00000000000298b3 .LASF80
C:\Users\CYMR90~1\AppData\Local\Temp\ccSmV8cy.s:25445  .debug_str:0000000000009e2e .LASF81
C:\Users\CYMR90~1\AppData\Local\Temp\ccSmV8cy.s:25649  .debug_str:000000000000aa51 .LASF82
C:\Users\CYMR90~1\AppData\Local\Temp\ccSmV8cy.s:33584  .debug_str:000000000002a15f .LASF83
C:\Users\CYMR90~1\AppData\Local\Temp\ccSmV8cy.s:25383  .debug_str:0000000000009a32 .LASF84
C:\Users\CYMR90~1\AppData\Local\Temp\ccSmV8cy.s:24637  .debug_str:0000000000006a37 .LASF85
C:\Users\CYMR90~1\AppData\Local\Temp\ccSmV8cy.s:29832  .debug_str:000000000001b533 .LASF86
C:\Users\CYMR90~1\AppData\Local\Temp\ccSmV8cy.s:33616  .debug_str:000000000002a300 .LASF87
C:\Users\CYMR90~1\AppData\Local\Temp\ccSmV8cy.s:30996  .debug_str:000000000001fe36 .LASF88
C:\Users\CYMR90~1\AppData\Local\Temp\ccSmV8cy.s:29750  .debug_str:000000000001b043 .LASF89
C:\Users\CYMR90~1\AppData\Local\Temp\ccSmV8cy.s:31026  .debug_str:000000000002000b .LASF90
C:\Users\CYMR90~1\AppData\Local\Temp\ccSmV8cy.s:33836  .debug_str:000000000002afd1 .LASF91
C:\Users\CYMR90~1\AppData\Local\Temp\ccSmV8cy.s:32640  .debug_str:0000000000026528 .LASF92
C:\Users\CYMR90~1\AppData\Local\Temp\ccSmV8cy.s:25525  .debug_str:000000000000a30c .LASF93
C:\Users\CYMR90~1\AppData\Local\Temp\ccSmV8cy.s:30440  .debug_str:000000000001dc31 .LASF94
C:\Users\CYMR90~1\AppData\Local\Temp\ccSmV8cy.s:27975  .debug_str:0000000000013f11 .LASF95
C:\Users\CYMR90~1\AppData\Local\Temp\ccSmV8cy.s:27957  .debug_str:0000000000013df7 .LASF96
C:\Users\CYMR90~1\AppData\Local\Temp\ccSmV8cy.s:34146  .debug_str:000000000002c28a .LASF97
C:\Users\CYMR90~1\AppData\Local\Temp\ccSmV8cy.s:27615  .debug_str:00000000000127d9 .LASF98
C:\Users\CYMR90~1\AppData\Local\Temp\ccSmV8cy.s:31602  .debug_str:000000000002236c .LASF99
C:\Users\CYMR90~1\AppData\Local\Temp\ccSmV8cy.s:25859  .debug_str:000000000000b8e4 .LASF100
C:\Users\CYMR90~1\AppData\Local\Temp\ccSmV8cy.s:27073  .debug_str:00000000000104cd .LASF101
C:\Users\CYMR90~1\AppData\Local\Temp\ccSmV8cy.s:28497  .debug_str:0000000000015eb1 .LASF102
C:\Users\CYMR90~1\AppData\Local\Temp\ccSmV8cy.s:27365  .debug_str:00000000000116e5 .LASF103
C:\Users\CYMR90~1\AppData\Local\Temp\ccSmV8cy.s:26345  .debug_str:000000000000d827 .LASF104
C:\Users\CYMR90~1\AppData\Local\Temp\ccSmV8cy.s:27549  .debug_str:00000000000123b7 .LASF105
C:\Users\CYMR90~1\AppData\Local\Temp\ccSmV8cy.s:24613  .debug_str:0000000000006897 .LASF106
C:\Users\CYMR90~1\AppData\Local\Temp\ccSmV8cy.s:27359  .debug_str:0000000000011680 .LASF107
C:\Users\CYMR90~1\AppData\Local\Temp\ccSmV8cy.s:26341  .debug_str:000000000000d7fe .LASF108
C:\Users\CYMR90~1\AppData\Local\Temp\ccSmV8cy.s:27813  .debug_str:0000000000013479 .LASF109
C:\Users\CYMR90~1\AppData\Local\Temp\ccSmV8cy.s:26725  .debug_str:000000000000efae .LASF110
C:\Users\CYMR90~1\AppData\Local\Temp\ccSmV8cy.s:29258  .debug_str:0000000000018f9b .LASF111
C:\Users\CYMR90~1\AppData\Local\Temp\ccSmV8cy.s:25791  .debug_str:000000000000b4f7 .LASF112
C:\Users\CYMR90~1\AppData\Local\Temp\ccSmV8cy.s:25521  .debug_str:000000000000a2af .LASF113
C:\Users\CYMR90~1\AppData\Local\Temp\ccSmV8cy.s:28529  .debug_str:00000000000160d4 .LASF114
C:\Users\CYMR90~1\AppData\Local\Temp\ccSmV8cy.s:33514  .debug_str:0000000000029cf8 .LASF115
C:\Users\CYMR90~1\AppData\Local\Temp\ccSmV8cy.s:32134  .debug_str:0000000000024339 .LASF116
C:\Users\CYMR90~1\AppData\Local\Temp\ccSmV8cy.s:25271  .debug_str:000000000000939b .LASF117
C:\Users\CYMR90~1\AppData\Local\Temp\ccSmV8cy.s:29998  .debug_str:000000000001bf80 .LASF118
C:\Users\CYMR90~1\AppData\Local\Temp\ccSmV8cy.s:34256  .debug_str:000000000002c9cc .LASF119
C:\Users\CYMR90~1\AppData\Local\Temp\ccSmV8cy.s:26641  .debug_str:000000000000ea2e .LASF120
C:\Users\CYMR90~1\AppData\Local\Temp\ccSmV8cy.s:32228  .debug_str:0000000000024863 .LASF121
C:\Users\CYMR90~1\AppData\Local\Temp\ccSmV8cy.s:26109  .debug_str:000000000000c966 .LASF122
C:\Users\CYMR90~1\AppData\Local\Temp\ccSmV8cy.s:26227  .debug_str:000000000000d141 .LASF123
C:\Users\CYMR90~1\AppData\Local\Temp\ccSmV8cy.s:23799  .debug_str:00000000000035f9 .LASF124
C:\Users\CYMR90~1\AppData\Local\Temp\ccSmV8cy.s:24085  .debug_str:00000000000047f1 .LASF125
C:\Users\CYMR90~1\AppData\Local\Temp\ccSmV8cy.s:33198  .debug_str:00000000000287ec .LASF126
C:\Users\CYMR90~1\AppData\Local\Temp\ccSmV8cy.s:27555  .debug_str:00000000000123f5 .LASF127
C:\Users\CYMR90~1\AppData\Local\Temp\ccSmV8cy.s:30410  .debug_str:000000000001da7d .LASF128
C:\Users\CYMR90~1\AppData\Local\Temp\ccSmV8cy.s:25347  .debug_str:00000000000097e3 .LASF129
C:\Users\CYMR90~1\AppData\Local\Temp\ccSmV8cy.s:32752  .debug_str:0000000000026c1d .LASF130
C:\Users\CYMR90~1\AppData\Local\Temp\ccSmV8cy.s:33068  .debug_str:0000000000027fdb .LASF131
C:\Users\CYMR90~1\AppData\Local\Temp\ccSmV8cy.s:32874  .debug_str:0000000000027368 .LASF132
C:\Users\CYMR90~1\AppData\Local\Temp\ccSmV8cy.s:26619  .debug_str:000000000000e8cc .LASF133
C:\Users\CYMR90~1\AppData\Local\Temp\ccSmV8cy.s:32152  .debug_str:0000000000024439 .LASF134
C:\Users\CYMR90~1\AppData\Local\Temp\ccSmV8cy.s:24077  .debug_str:0000000000004773 .LASF135
C:\Users\CYMR90~1\AppData\Local\Temp\ccSmV8cy.s:24967  .debug_str:0000000000007fa7 .LASF136
C:\Users\CYMR90~1\AppData\Local\Temp\ccSmV8cy.s:33928  .debug_str:000000000002b4f6 .LASF137
C:\Users\CYMR90~1\AppData\Local\Temp\ccSmV8cy.s:31994  .debug_str:0000000000023a80 .LASF138
C:\Users\CYMR90~1\AppData\Local\Temp\ccSmV8cy.s:33406  .debug_str:00000000000295e5 .LASF139
C:\Users\CYMR90~1\AppData\Local\Temp\ccSmV8cy.s:32510  .debug_str:0000000000025c1b .LASF140
C:\Users\CYMR90~1\AppData\Local\Temp\ccSmV8cy.s:30090  .debug_str:000000000001c548 .LASF141
C:\Users\CYMR90~1\AppData\Local\Temp\ccSmV8cy.s:25485  .debug_str:000000000000a068 .LASF142
C:\Users\CYMR90~1\AppData\Local\Temp\ccSmV8cy.s:34002  .debug_str:000000000002b91e .LASF143
C:\Users\CYMR90~1\AppData\Local\Temp\ccSmV8cy.s:29224  .debug_str:0000000000018db8 .LASF144
C:\Users\CYMR90~1\AppData\Local\Temp\ccSmV8cy.s:28265  .debug_str:00000000000150cc .LASF145
C:\Users\CYMR90~1\AppData\Local\Temp\ccSmV8cy.s:26187  .debug_str:000000000000cef7 .LASF146
C:\Users\CYMR90~1\AppData\Local\Temp\ccSmV8cy.s:24121  .debug_str:0000000000004b0e .LASF147
C:\Users\CYMR90~1\AppData\Local\Temp\ccSmV8cy.s:26769  .debug_str:000000000000f260 .LASF148
C:\Users\CYMR90~1\AppData\Local\Temp\ccSmV8cy.s:29204  .debug_str:0000000000018c83 .LASF149
C:\Users\CYMR90~1\AppData\Local\Temp\ccSmV8cy.s:23035  .debug_str:0000000000000678 .LASF150
C:\Users\CYMR90~1\AppData\Local\Temp\ccSmV8cy.s:31586  .debug_str:000000000002225f .LASF151
C:\Users\CYMR90~1\AppData\Local\Temp\ccSmV8cy.s:27801  .debug_str:00000000000133a9 .LASF152
C:\Users\CYMR90~1\AppData\Local\Temp\ccSmV8cy.s:32516  .debug_str:0000000000025c6e .LASF153
C:\Users\CYMR90~1\AppData\Local\Temp\ccSmV8cy.s:30306  .debug_str:000000000001d2b2 .LASF154
C:\Users\CYMR90~1\AppData\Local\Temp\ccSmV8cy.s:27195  .debug_str:0000000000010c83 .LASF155
C:\Users\CYMR90~1\AppData\Local\Temp\ccSmV8cy.s:30320  .debug_str:000000000001d3bf .LASF156
C:\Users\CYMR90~1\AppData\Local\Temp\ccSmV8cy.s:30446  .debug_str:000000000001dc99 .LASF157
C:\Users\CYMR90~1\AppData\Local\Temp\ccSmV8cy.s:26041  .debug_str:000000000000c565 .LASF158
C:\Users\CYMR90~1\AppData\Local\Temp\ccSmV8cy.s:25069  .debug_str:0000000000008768 .LASF159
C:\Users\CYMR90~1\AppData\Local\Temp\ccSmV8cy.s:29940  .debug_str:000000000001bc0a .LASF160
C:\Users\CYMR90~1\AppData\Local\Temp\ccSmV8cy.s:31412  .debug_str:00000000000217a0 .LASF161
C:\Users\CYMR90~1\AppData\Local\Temp\ccSmV8cy.s:29532  .debug_str:000000000001a1e8 .LASF162
C:\Users\CYMR90~1\AppData\Local\Temp\ccSmV8cy.s:32142  .debug_str:000000000002439b .LASF163
C:\Users\CYMR90~1\AppData\Local\Temp\ccSmV8cy.s:33820  .debug_str:000000000002aedd .LASF164
C:\Users\CYMR90~1\AppData\Local\Temp\ccSmV8cy.s:24809  .debug_str:00000000000075c7 .LASF165
C:\Users\CYMR90~1\AppData\Local\Temp\ccSmV8cy.s:33502  .debug_str:0000000000029bc9 .LASF166
C:\Users\CYMR90~1\AppData\Local\Temp\ccSmV8cy.s:33324  .debug_str:00000000000290f2 .LASF167
C:\Users\CYMR90~1\AppData\Local\Temp\ccSmV8cy.s:32066  .debug_str:0000000000023ee3 .LASF168
C:\Users\CYMR90~1\AppData\Local\Temp\ccSmV8cy.s:28990  .debug_str:0000000000017fbc .LASF169
C:\Users\CYMR90~1\AppData\Local\Temp\ccSmV8cy.s:32936  .debug_str:00000000000276f3 .LASF170
C:\Users\CYMR90~1\AppData\Local\Temp\ccSmV8cy.s:28613  .debug_str:0000000000016628 .LASF171
C:\Users\CYMR90~1\AppData\Local\Temp\ccSmV8cy.s:30218  .debug_str:000000000001cc92 .LASF172
C:\Users\CYMR90~1\AppData\Local\Temp\ccSmV8cy.s:25477  .debug_str:0000000000009ff4 .LASF173
C:\Users\CYMR90~1\AppData\Local\Temp\ccSmV8cy.s:31952  .debug_str:0000000000023854 .LASF174
C:\Users\CYMR90~1\AppData\Local\Temp\ccSmV8cy.s:24463  .debug_str:0000000000005f84 .LASF175
C:\Users\CYMR90~1\AppData\Local\Temp\ccSmV8cy.s:25311  .debug_str:00000000000095ef .LASF176
C:\Users\CYMR90~1\AppData\Local\Temp\ccSmV8cy.s:23949  .debug_str:0000000000003f76 .LASF177
C:\Users\CYMR90~1\AppData\Local\Temp\ccSmV8cy.s:29406  .debug_str:00000000000199be .LASF178
C:\Users\CYMR90~1\AppData\Local\Temp\ccSmV8cy.s:26281  .debug_str:000000000000d455 .LASF179
C:\Users\CYMR90~1\AppData\Local\Temp\ccSmV8cy.s:23451  .debug_str:0000000000002026 .LASF180
C:\Users\CYMR90~1\AppData\Local\Temp\ccSmV8cy.s:34142  .debug_str:000000000002c25f .LASF181
C:\Users\CYMR90~1\AppData\Local\Temp\ccSmV8cy.s:23231  .debug_str:000000000000125a .LASF182
C:\Users\CYMR90~1\AppData\Local\Temp\ccSmV8cy.s:27915  .debug_str:0000000000013b4c .LASF183
C:\Users\CYMR90~1\AppData\Local\Temp\ccSmV8cy.s:28331  .debug_str:0000000000015508 .LASF184
C:\Users\CYMR90~1\AppData\Local\Temp\ccSmV8cy.s:33336  .debug_str:00000000000291c7 .LASF185
C:\Users\CYMR90~1\AppData\Local\Temp\ccSmV8cy.s:28902  .debug_str:0000000000017a52 .LASF186
C:\Users\CYMR90~1\AppData\Local\Temp\ccSmV8cy.s:24793  .debug_str:0000000000007470 .LASF187
C:\Users\CYMR90~1\AppData\Local\Temp\ccSmV8cy.s:30974  .debug_str:000000000001fd1f .LASF188
C:\Users\CYMR90~1\AppData\Local\Temp\ccSmV8cy.s:26661  .debug_str:000000000000ebee .LASF189
C:\Users\CYMR90~1\AppData\Local\Temp\ccSmV8cy.s:28023  .debug_str:0000000000014212 .LASF190
C:\Users\CYMR90~1\AppData\Local\Temp\ccSmV8cy.s:29218  .debug_str:0000000000018d69 .LASF191
C:\Users\CYMR90~1\AppData\Local\Temp\ccSmV8cy.s:28775  .debug_str:00000000000170bd .LASF192
C:\Users\CYMR90~1\AppData\Local\Temp\ccSmV8cy.s:31700  .debug_str:0000000000022942 .LASF193
C:\Users\CYMR90~1\AppData\Local\Temp\ccSmV8cy.s:24417  .debug_str:0000000000005cd1 .LASF194
C:\Users\CYMR90~1\AppData\Local\Temp\ccSmV8cy.s:23765  .debug_str:00000000000033b4 .LASF195
C:\Users\CYMR90~1\AppData\Local\Temp\ccSmV8cy.s:26485  .debug_str:000000000000e0a2 .LASF196
C:\Users\CYMR90~1\AppData\Local\Temp\ccSmV8cy.s:27431  .debug_str:0000000000011b41 .LASF197
C:\Users\CYMR90~1\AppData\Local\Temp\ccSmV8cy.s:24267  .debug_str:0000000000005394 .LASF198
C:\Users\CYMR90~1\AppData\Local\Temp\ccSmV8cy.s:33230  .debug_str:0000000000028a39 .LASF199
C:\Users\CYMR90~1\AppData\Local\Temp\ccSmV8cy.s:31348  .debug_str:00000000000213f9 .LASF200
C:\Users\CYMR90~1\AppData\Local\Temp\ccSmV8cy.s:30454  .debug_str:000000000001dcf7 .LASF201
C:\Users\CYMR90~1\AppData\Local\Temp\ccSmV8cy.s:30696  .debug_str:000000000001ec4a .LASF202
C:\Users\CYMR90~1\AppData\Local\Temp\ccSmV8cy.s:33674  .debug_str:000000000002a65c .LASF203
C:\Users\CYMR90~1\AppData\Local\Temp\ccSmV8cy.s:23781  .debug_str:00000000000034d4 .LASF204
C:\Users\CYMR90~1\AppData\Local\Temp\ccSmV8cy.s:26895  .debug_str:000000000000f9ba .LASF205
C:\Users\CYMR90~1\AppData\Local\Temp\ccSmV8cy.s:33416  .debug_str:0000000000029661 .LASF206
C:\Users\CYMR90~1\AppData\Local\Temp\ccSmV8cy.s:28141  .debug_str:0000000000014906 .LASF207
C:\Users\CYMR90~1\AppData\Local\Temp\ccSmV8cy.s:31014  .debug_str:000000000001ff5d .LASF208
C:\Users\CYMR90~1\AppData\Local\Temp\ccSmV8cy.s:26103  .debug_str:000000000000c921 .LASF209
C:\Users\CYMR90~1\AppData\Local\Temp\ccSmV8cy.s:34352  .debug_str:000000000002cfca .LASF210
C:\Users\CYMR90~1\AppData\Local\Temp\ccSmV8cy.s:28113  .debug_str:0000000000014757 .LASF211
C:\Users\CYMR90~1\AppData\Local\Temp\ccSmV8cy.s:30856  .debug_str:000000000001f5a0 .LASF212
C:\Users\CYMR90~1\AppData\Local\Temp\ccSmV8cy.s:29426  .debug_str:0000000000019ae8 .LASF213
C:\Users\CYMR90~1\AppData\Local\Temp\ccSmV8cy.s:24505  .debug_str:0000000000006237 .LASF214
C:\Users\CYMR90~1\AppData\Local\Temp\ccSmV8cy.s:28121  .debug_str:00000000000147c7 .LASF215
C:\Users\CYMR90~1\AppData\Local\Temp\ccSmV8cy.s:28499  .debug_str:0000000000015ecd .LASF216
C:\Users\CYMR90~1\AppData\Local\Temp\ccSmV8cy.s:31124  .debug_str:00000000000205bf .LASF217
C:\Users\CYMR90~1\AppData\Local\Temp\ccSmV8cy.s:26971  .debug_str:000000000000fe7e .LASF218
C:\Users\CYMR90~1\AppData\Local\Temp\ccSmV8cy.s:32518  .debug_str:0000000000025caa .LASF219
C:\Users\CYMR90~1\AppData\Local\Temp\ccSmV8cy.s:32322  .debug_str:0000000000024f0b .LASF220
C:\Users\CYMR90~1\AppData\Local\Temp\ccSmV8cy.s:31850  .debug_str:000000000002321a .LASF221
C:\Users\CYMR90~1\AppData\Local\Temp\ccSmV8cy.s:28419  .debug_str:0000000000015a78 .LASF222
C:\Users\CYMR90~1\AppData\Local\Temp\ccSmV8cy.s:24473  .debug_str:0000000000006006 .LASF223
C:\Users\CYMR90~1\AppData\Local\Temp\ccSmV8cy.s:25169  .debug_str:0000000000008d33 .LASF224
C:\Users\CYMR90~1\AppData\Local\Temp\ccSmV8cy.s:34012  .debug_str:000000000002b9a2 .LASF225
C:\Users\CYMR90~1\AppData\Local\Temp\ccSmV8cy.s:26561  .debug_str:000000000000e587 .LASF226
C:\Users\CYMR90~1\AppData\Local\Temp\ccSmV8cy.s:30302  .debug_str:000000000001d284 .LASF227
C:\Users\CYMR90~1\AppData\Local\Temp\ccSmV8cy.s:30140  .debug_str:000000000001c800 .LASF228
C:\Users\CYMR90~1\AppData\Local\Temp\ccSmV8cy.s:26499  .debug_str:000000000000e174 .LASF229
C:\Users\CYMR90~1\AppData\Local\Temp\ccSmV8cy.s:30896  .debug_str:000000000001f81e .LASF230
C:\Users\CYMR90~1\AppData\Local\Temp\ccSmV8cy.s:25223  .debug_str:00000000000090b3 .LASF231
C:\Users\CYMR90~1\AppData\Local\Temp\ccSmV8cy.s:26653  .debug_str:000000000000eafd .LASF232
C:\Users\CYMR90~1\AppData\Local\Temp\ccSmV8cy.s:25125  .debug_str:0000000000008a96 .LASF233
C:\Users\CYMR90~1\AppData\Local\Temp\ccSmV8cy.s:27185  .debug_str:0000000000010bde .LASF234
C:\Users\CYMR90~1\AppData\Local\Temp\ccSmV8cy.s:26893  .debug_str:000000000000f9a0 .LASF235
C:\Users\CYMR90~1\AppData\Local\Temp\ccSmV8cy.s:32074  .debug_str:0000000000023f8f .LASF236
C:\Users\CYMR90~1\AppData\Local\Temp\ccSmV8cy.s:26911  .debug_str:000000000000faa3 .LASF237
C:\Users\CYMR90~1\AppData\Local\Temp\ccSmV8cy.s:32748  .debug_str:0000000000026be1 .LASF238
C:\Users\CYMR90~1\AppData\Local\Temp\ccSmV8cy.s:32054  .debug_str:0000000000023e1a .LASF239
C:\Users\CYMR90~1\AppData\Local\Temp\ccSmV8cy.s:32282  .debug_str:0000000000024c97 .LASF240
C:\Users\CYMR90~1\AppData\Local\Temp\ccSmV8cy.s:24931  .debug_str:0000000000007da0 .LASF241
C:\Users\CYMR90~1\AppData\Local\Temp\ccSmV8cy.s:26583  .debug_str:000000000000e6bb .LASF242
C:\Users\CYMR90~1\AppData\Local\Temp\ccSmV8cy.s:27597  .debug_str:0000000000012669 .LASF243
C:\Users\CYMR90~1\AppData\Local\Temp\ccSmV8cy.s:32084  .debug_str:0000000000024007 .LASF244
C:\Users\CYMR90~1\AppData\Local\Temp\ccSmV8cy.s:27785  .debug_str:0000000000013289 .LASF245
C:\Users\CYMR90~1\AppData\Local\Temp\ccSmV8cy.s:30908  .debug_str:000000000001f903 .LASF246
C:\Users\CYMR90~1\AppData\Local\Temp\ccSmV8cy.s:29186  .debug_str:0000000000018b49 .LASF247
C:\Users\CYMR90~1\AppData\Local\Temp\ccSmV8cy.s:28701  .debug_str:0000000000016ba5 .LASF248
C:\Users\CYMR90~1\AppData\Local\Temp\ccSmV8cy.s:30238  .debug_str:000000000001cde9 .LASF249
C:\Users\CYMR90~1\AppData\Local\Temp\ccSmV8cy.s:29592  .debug_str:000000000001a54b .LASF250
C:\Users\CYMR90~1\AppData\Local\Temp\ccSmV8cy.s:30164  .debug_str:000000000001c975 .LASF251
C:\Users\CYMR90~1\AppData\Local\Temp\ccSmV8cy.s:31900  .debug_str:0000000000023572 .LASF252
C:\Users\CYMR90~1\AppData\Local\Temp\ccSmV8cy.s:26465  .debug_str:000000000000dfa7 .LASF253
C:\Users\CYMR90~1\AppData\Local\Temp\ccSmV8cy.s:32600  .debug_str:00000000000262a8 .LASF254
C:\Users\CYMR90~1\AppData\Local\Temp\ccSmV8cy.s:26327  .debug_str:000000000000d70b .LASF255
C:\Users\CYMR90~1\AppData\Local\Temp\ccSmV8cy.s:29494  .debug_str:0000000000019f96 .LASF256
C:\Users\CYMR90~1\AppData\Local\Temp\ccSmV8cy.s:26579  .debug_str:000000000000e689 .LASF257
C:\Users\CYMR90~1\AppData\Local\Temp\ccSmV8cy.s:23171  .debug_str:0000000000000e55 .LASF258
C:\Users\CYMR90~1\AppData\Local\Temp\ccSmV8cy.s:23099  .debug_str:00000000000009ba .LASF259
C:\Users\CYMR90~1\AppData\Local\Temp\ccSmV8cy.s:23119  .debug_str:0000000000000b15 .LASF260
C:\Users\CYMR90~1\AppData\Local\Temp\ccSmV8cy.s:31894  .debug_str:0000000000023506 .LASF261
C:\Users\CYMR90~1\AppData\Local\Temp\ccSmV8cy.s:33208  .debug_str:0000000000028873 .LASF262
C:\Users\CYMR90~1\AppData\Local\Temp\ccSmV8cy.s:28095  .debug_str:000000000001462a .LASF263
C:\Users\CYMR90~1\AppData\Local\Temp\ccSmV8cy.s:30110  .debug_str:000000000001c673 .LASF264
C:\Users\CYMR90~1\AppData\Local\Temp\ccSmV8cy.s:27027  .debug_str:00000000000101dd .LASF265
C:\Users\CYMR90~1\AppData\Local\Temp\ccSmV8cy.s:26501  .debug_str:000000000000e1b5 .LASF266
C:\Users\CYMR90~1\AppData\Local\Temp\ccSmV8cy.s:25803  .debug_str:000000000000b5d4 .LASF267
C:\Users\CYMR90~1\AppData\Local\Temp\ccSmV8cy.s:30222  .debug_str:000000000001cccb .LASF268
C:\Users\CYMR90~1\AppData\Local\Temp\ccSmV8cy.s:26135  .debug_str:000000000000cafa .LASF269
C:\Users\CYMR90~1\AppData\Local\Temp\ccSmV8cy.s:27095  .debug_str:0000000000010654 .LASF270
C:\Users\CYMR90~1\AppData\Local\Temp\ccSmV8cy.s:28381  .debug_str:0000000000015824 .LASF271
C:\Users\CYMR90~1\AppData\Local\Temp\ccSmV8cy.s:32854  .debug_str:000000000002724a .LASF272
C:\Users\CYMR90~1\AppData\Local\Temp\ccSmV8cy.s:24683  .debug_str:0000000000006d17 .LASF273
C:\Users\CYMR90~1\AppData\Local\Temp\ccSmV8cy.s:23563  .debug_str:0000000000002690 .LASF274
C:\Users\CYMR90~1\AppData\Local\Temp\ccSmV8cy.s:24777  .debug_str:0000000000007366 .LASF275
C:\Users\CYMR90~1\AppData\Local\Temp\ccSmV8cy.s:26193  .debug_str:000000000000cf40 .LASF276
C:\Users\CYMR90~1\AppData\Local\Temp\ccSmV8cy.s:26025  .debug_str:000000000000c451 .LASF277
C:\Users\CYMR90~1\AppData\Local\Temp\ccSmV8cy.s:23257  .debug_str:0000000000001391 .LASF278
C:\Users\CYMR90~1\AppData\Local\Temp\ccSmV8cy.s:24599  .debug_str:00000000000067ca .LASF279
C:\Users\CYMR90~1\AppData\Local\Temp\ccSmV8cy.s:33526  .debug_str:0000000000029da7 .LASF280
C:\Users\CYMR90~1\AppData\Local\Temp\ccSmV8cy.s:25499  .debug_str:000000000000a134 .LASF281
C:\Users\CYMR90~1\AppData\Local\Temp\ccSmV8cy.s:24565  .debug_str:00000000000065c6 .LASF282
C:\Users\CYMR90~1\AppData\Local\Temp\ccSmV8cy.s:24467  .debug_str:0000000000005fb4 .LASF283
C:\Users\CYMR90~1\AppData\Local\Temp\ccSmV8cy.s:24225  .debug_str:0000000000005159 .LASF284
C:\Users\CYMR90~1\AppData\Local\Temp\ccSmV8cy.s:32388  .debug_str:0000000000025334 .LASF285
C:\Users\CYMR90~1\AppData\Local\Temp\ccSmV8cy.s:33242  .debug_str:0000000000028b1e .LASF286
C:\Users\CYMR90~1\AppData\Local\Temp\ccSmV8cy.s:33510  .debug_str:0000000000029c26 .LASF287
C:\Users\CYMR90~1\AppData\Local\Temp\ccSmV8cy.s:33428  .debug_str:00000000000296f9 .LASF288
C:\Users\CYMR90~1\AppData\Local\Temp\ccSmV8cy.s:34282  .debug_str:000000000002cb5b .LASF289
C:\Users\CYMR90~1\AppData\Local\Temp\ccSmV8cy.s:29132  .debug_str:0000000000018822 .LASF290
C:\Users\CYMR90~1\AppData\Local\Temp\ccSmV8cy.s:28145  .debug_str:000000000001492c .LASF291
C:\Users\CYMR90~1\AppData\Local\Temp\ccSmV8cy.s:32426  .debug_str:00000000000255d7 .LASF292
C:\Users\CYMR90~1\AppData\Local\Temp\ccSmV8cy.s:23865  .debug_str:0000000000003a59 .LASF293
C:\Users\CYMR90~1\AppData\Local\Temp\ccSmV8cy.s:31358  .debug_str:0000000000021478 .LASF294
C:\Users\CYMR90~1\AppData\Local\Temp\ccSmV8cy.s:24145  .debug_str:0000000000004c5d .LASF295
C:\Users\CYMR90~1\AppData\Local\Temp\ccSmV8cy.s:33868  .debug_str:000000000002b1b6 .LASF296
C:\Users\CYMR90~1\AppData\Local\Temp\ccSmV8cy.s:34060  .debug_str:000000000002bcf6 .LASF297
C:\Users\CYMR90~1\AppData\Local\Temp\ccSmV8cy.s:29008  .debug_str:0000000000018104 .LASF298
C:\Users\CYMR90~1\AppData\Local\Temp\ccSmV8cy.s:23103  .debug_str:0000000000000a1f .LASF299
C:\Users\CYMR90~1\AppData\Local\Temp\ccSmV8cy.s:26991  .debug_str:000000000000ffa2 .LASF300
C:\Users\CYMR90~1\AppData\Local\Temp\ccSmV8cy.s:29774  .debug_str:000000000001b1a0 .LASF301
C:\Users\CYMR90~1\AppData\Local\Temp\ccSmV8cy.s:28259  .debug_str:000000000001503e .LASF302
C:\Users\CYMR90~1\AppData\Local\Temp\ccSmV8cy.s:27735  .debug_str:0000000000012f83 .LASF303
C:\Users\CYMR90~1\AppData\Local\Temp\ccSmV8cy.s:23483  .debug_str:00000000000021c8 .LASF304
C:\Users\CYMR90~1\AppData\Local\Temp\ccSmV8cy.s:26143  .debug_str:000000000000cb92 .LASF305
C:\Users\CYMR90~1\AppData\Local\Temp\ccSmV8cy.s:31570  .debug_str:000000000002219c .LASF306
C:\Users\CYMR90~1\AppData\Local\Temp\ccSmV8cy.s:27013  .debug_str:00000000000100fe .LASF307
C:\Users\CYMR90~1\AppData\Local\Temp\ccSmV8cy.s:25945  .debug_str:000000000000bf23 .LASF308
C:\Users\CYMR90~1\AppData\Local\Temp\ccSmV8cy.s:32024  .debug_str:0000000000023c58 .LASF309
C:\Users\CYMR90~1\AppData\Local\Temp\ccSmV8cy.s:26563  .debug_str:000000000000e5a0 .LASF310
C:\Users\CYMR90~1\AppData\Local\Temp\ccSmV8cy.s:32744  .debug_str:0000000000026bb6 .LASF311
C:\Users\CYMR90~1\AppData\Local\Temp\ccSmV8cy.s:32238  .debug_str:00000000000249d7 .LASF312
C:\Users\CYMR90~1\AppData\Local\Temp\ccSmV8cy.s:26265  .debug_str:000000000000d32f .LASF313
C:\Users\CYMR90~1\AppData\Local\Temp\ccSmV8cy.s:29278  .debug_str:00000000000190da .LASF316
C:\Users\CYMR90~1\AppData\Local\Temp\ccSmV8cy.s:29646  .debug_str:000000000001a853 .LASF317
C:\Users\CYMR90~1\AppData\Local\Temp\ccSmV8cy.s:30004  .debug_str:000000000001bfbe .LASF318
C:\Users\CYMR90~1\AppData\Local\Temp\ccSmV8cy.s:27003  .debug_str:000000000001007c .LASF319
C:\Users\CYMR90~1\AppData\Local\Temp\ccSmV8cy.s:25885  .debug_str:000000000000bafe .LASF320
C:\Users\CYMR90~1\AppData\Local\Temp\ccSmV8cy.s:33472  .debug_str:00000000000299fa .LASF321
C:\Users\CYMR90~1\AppData\Local\Temp\ccSmV8cy.s:26463  .debug_str:000000000000df9a .LASF322
C:\Users\CYMR90~1\AppData\Local\Temp\ccSmV8cy.s:32696  .debug_str:0000000000026888 .LASF323
C:\Users\CYMR90~1\AppData\Local\Temp\ccSmV8cy.s:22963  .debug_str:0000000000000230 .LASF324
C:\Users\CYMR90~1\AppData\Local\Temp\ccSmV8cy.s:33890  .debug_str:000000000002b2da .LASF325
C:\Users\CYMR90~1\AppData\Local\Temp\ccSmV8cy.s:23919  .debug_str:0000000000003d90 .LASF326
C:\Users\CYMR90~1\AppData\Local\Temp\ccSmV8cy.s:28083  .debug_str:0000000000014572 .LASF327
C:\Users\CYMR90~1\AppData\Local\Temp\ccSmV8cy.s:27737  .debug_str:0000000000012f98 .LASF328
C:\Users\CYMR90~1\AppData\Local\Temp\ccSmV8cy.s:30686  .debug_str:000000000001eb8d .LASF329
C:\Users\CYMR90~1\AppData\Local\Temp\ccSmV8cy.s:30678  .debug_str:000000000001eb3c .LASF330
C:\Users\CYMR90~1\AppData\Local\Temp\ccSmV8cy.s:32896  .debug_str:00000000000274d5 .LASF331
C:\Users\CYMR90~1\AppData\Local\Temp\ccSmV8cy.s:33454  .debug_str:00000000000298a4 .LASF332
C:\Users\CYMR90~1\AppData\Local\Temp\ccSmV8cy.s:33638  .debug_str:000000000002a458 .LASF333
C:\Users\CYMR90~1\AppData\Local\Temp\ccSmV8cy.s:29620  .debug_str:000000000001a6df .LASF334
C:\Users\CYMR90~1\AppData\Local\Temp\ccSmV8cy.s:29056  .debug_str:00000000000183c3 .LASF335
C:\Users\CYMR90~1\AppData\Local\Temp\ccSmV8cy.s:33492  .debug_str:0000000000029b3a .LASF336
C:\Users\CYMR90~1\AppData\Local\Temp\ccSmV8cy.s:27657  .debug_str:0000000000012a77 .LASF337
C:\Users\CYMR90~1\AppData\Local\Temp\ccSmV8cy.s:31420  .debug_str:0000000000021806 .LASF338
C:\Users\CYMR90~1\AppData\Local\Temp\ccSmV8cy.s:25619  .debug_str:000000000000a8b7 .LASF339
C:\Users\CYMR90~1\AppData\Local\Temp\ccSmV8cy.s:27869  .debug_str:000000000001381d .LASF340
C:\Users\CYMR90~1\AppData\Local\Temp\ccSmV8cy.s:23153  .debug_str:0000000000000d65 .LASF341
C:\Users\CYMR90~1\AppData\Local\Temp\ccSmV8cy.s:25953  .debug_str:000000000000bf83 .LASF342
C:\Users\CYMR90~1\AppData\Local\Temp\ccSmV8cy.s:23237  .debug_str:00000000000012a5 .LASF343
C:\Users\CYMR90~1\AppData\Local\Temp\ccSmV8cy.s:33606  .debug_str:000000000002a26f .LASF344
C:\Users\CYMR90~1\AppData\Local\Temp\ccSmV8cy.s:34202  .debug_str:000000000002c613 .LASF345
C:\Users\CYMR90~1\AppData\Local\Temp\ccSmV8cy.s:26883  .debug_str:000000000000f918 .LASF346
C:\Users\CYMR90~1\AppData\Local\Temp\ccSmV8cy.s:23091  .debug_str:0000000000000950 .LASF347
C:\Users\CYMR90~1\AppData\Local\Temp\ccSmV8cy.s:31216  .debug_str:0000000000020b72 .LASF348
C:\Users\CYMR90~1\AppData\Local\Temp\ccSmV8cy.s:33220  .debug_str:000000000002895b .LASF349
C:\Users\CYMR90~1\AppData\Local\Temp\ccSmV8cy.s:30680  .debug_str:000000000001eb48 .LASF350
C:\Users\CYMR90~1\AppData\Local\Temp\ccSmV8cy.s:23013  .debug_str:0000000000000551 .LASF351
C:\Users\CYMR90~1\AppData\Local\Temp\ccSmV8cy.s:30978  .debug_str:000000000001fd4c .LASF352
C:\Users\CYMR90~1\AppData\Local\Temp\ccSmV8cy.s:32688  .debug_str:000000000002681e .LASF353
C:\Users\CYMR90~1\AppData\Local\Temp\ccSmV8cy.s:30290  .debug_str:000000000001d1e5 .LASF354
C:\Users\CYMR90~1\AppData\Local\Temp\ccSmV8cy.s:30468  .debug_str:000000000001dded .LASF355
C:\Users\CYMR90~1\AppData\Local\Temp\ccSmV8cy.s:32562  .debug_str:0000000000025fa8 .LASF356
C:\Users\CYMR90~1\AppData\Local\Temp\ccSmV8cy.s:29576  .debug_str:000000000001a483 .LASF357
C:\Users\CYMR90~1\AppData\Local\Temp\ccSmV8cy.s:33128  .debug_str:000000000002832f .LASF358
C:\Users\CYMR90~1\AppData\Local\Temp\ccSmV8cy.s:27725  .debug_str:0000000000012ebf .LASF359
C:\Users\CYMR90~1\AppData\Local\Temp\ccSmV8cy.s:25721  .debug_str:000000000000afe6 .LASF360
C:\Users\CYMR90~1\AppData\Local\Temp\ccSmV8cy.s:30858  .debug_str:000000000001f5b8 .LASF361
C:\Users\CYMR90~1\AppData\Local\Temp\ccSmV8cy.s:27461  .debug_str:0000000000011d3f .LASF362
C:\Users\CYMR90~1\AppData\Local\Temp\ccSmV8cy.s:33398  .debug_str:0000000000029580 .LASF363
C:\Users\CYMR90~1\AppData\Local\Temp\ccSmV8cy.s:25253  .debug_str:00000000000092af .LASF364
C:\Users\CYMR90~1\AppData\Local\Temp\ccSmV8cy.s:33290  .debug_str:0000000000028e66 .LASF365
C:\Users\CYMR90~1\AppData\Local\Temp\ccSmV8cy.s:24641  .debug_str:0000000000006a9c .LASF366
C:\Users\CYMR90~1\AppData\Local\Temp\ccSmV8cy.s:27859  .debug_str:0000000000013759 .LASF367
C:\Users\CYMR90~1\AppData\Local\Temp\ccSmV8cy.s:24939  .debug_str:0000000000007e10 .LASF368
C:\Users\CYMR90~1\AppData\Local\Temp\ccSmV8cy.s:29102  .debug_str:0000000000018678 .LASF372
C:\Users\CYMR90~1\AppData\Local\Temp\ccSmV8cy.s:32938  .debug_str:0000000000027738 .LASF373
C:\Users\CYMR90~1\AppData\Local\Temp\ccSmV8cy.s:25701  .debug_str:000000000000aeb5 .LASF374
C:\Users\CYMR90~1\AppData\Local\Temp\ccSmV8cy.s:28888  .debug_str:0000000000017966 .LASF375
C:\Users\CYMR90~1\AppData\Local\Temp\ccSmV8cy.s:29086  .debug_str:000000000001858a .LASF376
C:\Users\CYMR90~1\AppData\Local\Temp\ccSmV8cy.s:31666  .debug_str:0000000000022766 .LASF377
C:\Users\CYMR90~1\AppData\Local\Temp\ccSmV8cy.s:30304  .debug_str:000000000001d29d .LASF378
C:\Users\CYMR90~1\AppData\Local\Temp\ccSmV8cy.s:34052  .debug_str:000000000002bc70 .LASF379
C:\Users\CYMR90~1\AppData\Local\Temp\ccSmV8cy.s:23579  .debug_str:00000000000027a7 .LASF380
C:\Users\CYMR90~1\AppData\Local\Temp\ccSmV8cy.s:33926  .debug_str:000000000002b4e0 .LASF381
C:\Users\CYMR90~1\AppData\Local\Temp\ccSmV8cy.s:30016  .debug_str:000000000001c066 .LASF382
C:\Users\CYMR90~1\AppData\Local\Temp\ccSmV8cy.s:24695  .debug_str:0000000000006df4 .LASF383
C:\Users\CYMR90~1\AppData\Local\Temp\ccSmV8cy.s:26105  .debug_str:000000000000c93c .LASF384
C:\Users\CYMR90~1\AppData\Local\Temp\ccSmV8cy.s:29514  .debug_str:000000000001a0df .LASF385
C:\Users\CYMR90~1\AppData\Local\Temp\ccSmV8cy.s:27131  .debug_str:00000000000108cc .LASF386
C:\Users\CYMR90~1\AppData\Local\Temp\ccSmV8cy.s:23515  .debug_str:00000000000023c4 .LASF387
C:\Users\CYMR90~1\AppData\Local\Temp\ccSmV8cy.s:26727  .debug_str:000000000000efce .LASF388
C:\Users\CYMR90~1\AppData\Local\Temp\ccSmV8cy.s:25221  .debug_str:000000000000909f .LASF389
C:\Users\CYMR90~1\AppData\Local\Temp\ccSmV8cy.s:24009  .debug_str:000000000000433e .LASF391
C:\Users\CYMR90~1\AppData\Local\Temp\ccSmV8cy.s:27139  .debug_str:0000000000010939 .LASF392
C:\Users\CYMR90~1\AppData\Local\Temp\ccSmV8cy.s:31312  .debug_str:00000000000211ab .LASF393
C:\Users\CYMR90~1\AppData\Local\Temp\ccSmV8cy.s:33082  .debug_str:000000000002808e .LASF394
C:\Users\CYMR90~1\AppData\Local\Temp\ccSmV8cy.s:23539  .debug_str:0000000000002507 .LASF395
C:\Users\CYMR90~1\AppData\Local\Temp\ccSmV8cy.s:25745  .debug_str:000000000000b138 .LASF396
C:\Users\CYMR90~1\AppData\Local\Temp\ccSmV8cy.s:29626  .debug_str:000000000001a73f .LASF397
C:\Users\CYMR90~1\AppData\Local\Temp\ccSmV8cy.s:33866  .debug_str:000000000002b1a4 .LASF398
C:\Users\CYMR90~1\AppData\Local\Temp\ccSmV8cy.s:28447  .debug_str:0000000000015c18 .LASF399
C:\Users\CYMR90~1\AppData\Local\Temp\ccSmV8cy.s:30936  .debug_str:000000000001fabd .LASF400
C:\Users\CYMR90~1\AppData\Local\Temp\ccSmV8cy.s:25211  .debug_str:0000000000008f9a .LASF401
C:\Users\CYMR90~1\AppData\Local\Temp\ccSmV8cy.s:28944  .debug_str:0000000000017cba .LASF402
C:\Users\CYMR90~1\AppData\Local\Temp\ccSmV8cy.s:24531  .debug_str:00000000000063a4 .LASF403
C:\Users\CYMR90~1\AppData\Local\Temp\ccSmV8cy.s:25677  .debug_str:000000000000ad04 .LASF404
C:\Users\CYMR90~1\AppData\Local\Temp\ccSmV8cy.s:26783  .debug_str:000000000000f31a .LASF405
C:\Users\CYMR90~1\AppData\Local\Temp\ccSmV8cy.s:30204  .debug_str:000000000001cbc3 .LASF406
C:\Users\CYMR90~1\AppData\Local\Temp\ccSmV8cy.s:28355  .debug_str:00000000000156bb .LASF407
C:\Users\CYMR90~1\AppData\Local\Temp\ccSmV8cy.s:29358  .debug_str:000000000001960a .LASF408
C:\Users\CYMR90~1\AppData\Local\Temp\ccSmV8cy.s:31616  .debug_str:0000000000022476 .LASF409
C:\Users\CYMR90~1\AppData\Local\Temp\ccSmV8cy.s:24487  .debug_str:0000000000006114 .LASF410
C:\Users\CYMR90~1\AppData\Local\Temp\ccSmV8cy.s:28555  .debug_str:000000000001623b .LASF411
C:\Users\CYMR90~1\AppData\Local\Temp\ccSmV8cy.s:31740  .debug_str:0000000000022ba3 .LASF412
C:\Users\CYMR90~1\AppData\Local\Temp\ccSmV8cy.s:24673  .debug_str:0000000000006c7c .LASF413
C:\Users\CYMR90~1\AppData\Local\Temp\ccSmV8cy.s:33486  .debug_str:0000000000029ad3 .LASF414
C:\Users\CYMR90~1\AppData\Local\Temp\ccSmV8cy.s:26885  .debug_str:000000000000f926 .LASF415
C:\Users\CYMR90~1\AppData\Local\Temp\ccSmV8cy.s:32806  .debug_str:0000000000026f7e .LASF416
C:\Users\CYMR90~1\AppData\Local\Temp\ccSmV8cy.s:34350  .debug_str:000000000002cfbf .LASF417
C:\Users\CYMR90~1\AppData\Local\Temp\ccSmV8cy.s:25143  .debug_str:0000000000008bb3 .LASF418
C:\Users\CYMR90~1\AppData\Local\Temp\ccSmV8cy.s:33702  .debug_str:000000000002a7ea .LASF419
C:\Users\CYMR90~1\AppData\Local\Temp\ccSmV8cy.s:24741  .debug_str:000000000000711b .LASF420
C:\Users\CYMR90~1\AppData\Local\Temp\ccSmV8cy.s:33912  .debug_str:000000000002b3e2 .LASF421
C:\Users\CYMR90~1\AppData\Local\Temp\ccSmV8cy.s:26035  .debug_str:000000000000c515 .LASF422
C:\Users\CYMR90~1\AppData\Local\Temp\ccSmV8cy.s:26239  .debug_str:000000000000d1e2 .LASF423
C:\Users\CYMR90~1\AppData\Local\Temp\ccSmV8cy.s:30834  .debug_str:000000000001f46d .LASF424
C:\Users\CYMR90~1\AppData\Local\Temp\ccSmV8cy.s:29394  .debug_str:000000000001990b .LASF425
C:\Users\CYMR90~1\AppData\Local\Temp\ccSmV8cy.s:22983  .debug_str:0000000000000339 .LASF426
C:\Users\CYMR90~1\AppData\Local\Temp\ccSmV8cy.s:33404  .debug_str:00000000000295c2 .LASF427
C:\Users\CYMR90~1\AppData\Local\Temp\ccSmV8cy.s:28643  .debug_str:000000000001685b .LASF428
C:\Users\CYMR90~1\AppData\Local\Temp\ccSmV8cy.s:30608  .debug_str:000000000001e73c .LASF429
C:\Users\CYMR90~1\AppData\Local\Temp\ccSmV8cy.s:27071  .debug_str:00000000000104c4 .LASF430
C:\Users\CYMR90~1\AppData\Local\Temp\ccSmV8cy.s:28842  .debug_str:00000000000176e3 .LASF431
C:\Users\CYMR90~1\AppData\Local\Temp\ccSmV8cy.s:31686  .debug_str:0000000000022868 .LASF432
C:\Users\CYMR90~1\AppData\Local\Temp\ccSmV8cy.s:26221  .debug_str:000000000000d0dc .LASF434
C:\Users\CYMR90~1\AppData\Local\Temp\ccSmV8cy.s:24199  .debug_str:0000000000004fda .LASF435
C:\Users\CYMR90~1\AppData\Local\Temp\ccSmV8cy.s:29030  .debug_str:000000000001823e .LASF436
C:\Users\CYMR90~1\AppData\Local\Temp\ccSmV8cy.s:24763  .debug_str:0000000000007284 .LASF437
C:\Users\CYMR90~1\AppData\Local\Temp\ccSmV8cy.s:33420  .debug_str:0000000000029684 .LASF438
C:\Users\CYMR90~1\AppData\Local\Temp\ccSmV8cy.s:22937  .debug_str:0000000000000099 .LASF439
C:\Users\CYMR90~1\AppData\Local\Temp\ccSmV8cy.s:30874  .debug_str:000000000001f6cc .LASF440
C:\Users\CYMR90~1\AppData\Local\Temp\ccSmV8cy.s:26475  .debug_str:000000000000e038 .LASF441
C:\Users\CYMR90~1\AppData\Local\Temp\ccSmV8cy.s:31928  .debug_str:00000000000236f4 .LASF442
C:\Users\CYMR90~1\AppData\Local\Temp\ccSmV8cy.s:30810  .debug_str:000000000001f32f .LASF443
C:\Users\CYMR90~1\AppData\Local\Temp\ccSmV8cy.s:27219  .debug_str:0000000000010ded .LASF444
C:\Users\CYMR90~1\AppData\Local\Temp\ccSmV8cy.s:34344  .debug_str:000000000002cf73 .LASF445
C:\Users\CYMR90~1\AppData\Local\Temp\ccSmV8cy.s:34280  .debug_str:000000000002cb55 .LASF446
C:\Users\CYMR90~1\AppData\Local\Temp\ccSmV8cy.s:33896  .debug_str:000000000002b322 .LASF447
C:\Users\CYMR90~1\AppData\Local\Temp\ccSmV8cy.s:31902  .debug_str:0000000000023584 .LASF448
C:\Users\CYMR90~1\AppData\Local\Temp\ccSmV8cy.s:24021  .debug_str:00000000000043e9 .LASF449
C:\Users\CYMR90~1\AppData\Local\Temp\ccSmV8cy.s:24785  .debug_str:00000000000073f4 .LASF450
C:\Users\CYMR90~1\AppData\Local\Temp\ccSmV8cy.s:25417  .debug_str:0000000000009c63 .LASF451
C:\Users\CYMR90~1\AppData\Local\Temp\ccSmV8cy.s:28267  .debug_str:00000000000150e0 .LASF452
C:\Users\CYMR90~1\AppData\Local\Temp\ccSmV8cy.s:23461  .debug_str:00000000000020b3 .LASF453
C:\Users\CYMR90~1\AppData\Local\Temp\ccSmV8cy.s:34286  .debug_str:000000000002cb95 .LASF454
C:\Users\CYMR90~1\AppData\Local\Temp\ccSmV8cy.s:26649  .debug_str:000000000000eabb .LASF455
C:\Users\CYMR90~1\AppData\Local\Temp\ccSmV8cy.s:31512  .debug_str:0000000000021dd7 .LASF456
C:\Users\CYMR90~1\AppData\Local\Temp\ccSmV8cy.s:26321  .debug_str:000000000000d6c7 .LASF457
C:\Users\CYMR90~1\AppData\Local\Temp\ccSmV8cy.s:24543  .debug_str:0000000000006454 .LASF458
C:\Users\CYMR90~1\AppData\Local\Temp\ccSmV8cy.s:27287  .debug_str:00000000000112b4 .LASF459
C:\Users\CYMR90~1\AppData\Local\Temp\ccSmV8cy.s:31266  .debug_str:0000000000020ef8 .LASF460
C:\Users\CYMR90~1\AppData\Local\Temp\ccSmV8cy.s:32414  .debug_str:00000000000254f8 .LASF461
C:\Users\CYMR90~1\AppData\Local\Temp\ccSmV8cy.s:28803  .debug_str:00000000000172e3 .LASF462
C:\Users\CYMR90~1\AppData\Local\Temp\ccSmV8cy.s:29676  .debug_str:000000000001ab77 .LASF463
C:\Users\CYMR90~1\AppData\Local\Temp\ccSmV8cy.s:28369  .debug_str:000000000001576c .LASF464
C:\Users\CYMR90~1\AppData\Local\Temp\ccSmV8cy.s:27669  .debug_str:0000000000012b2f .LASF465
C:\Users\CYMR90~1\AppData\Local\Temp\ccSmV8cy.s:24693  .debug_str:0000000000006dde .LASF466
C:\Users\CYMR90~1\AppData\Local\Temp\ccSmV8cy.s:25273  .debug_str:00000000000093aa .LASF467
C:\Users\CYMR90~1\AppData\Local\Temp\ccSmV8cy.s:27429  .debug_str:0000000000011b2a .LASF468
C:\Users\CYMR90~1\AppData\Local\Temp\ccSmV8cy.s:23815  .debug_str:000000000000370c .LASF469
C:\Users\CYMR90~1\AppData\Local\Temp\ccSmV8cy.s:27175  .debug_str:0000000000010b4e .LASF470
C:\Users\CYMR90~1\AppData\Local\Temp\ccSmV8cy.s:27047  .debug_str:0000000000010324 .LASF471
C:\Users\CYMR90~1\AppData\Local\Temp\ccSmV8cy.s:26623  .debug_str:000000000000e918 .LASF472
C:\Users\CYMR90~1\AppData\Local\Temp\ccSmV8cy.s:23173  .debug_str:0000000000000e93 .LASF473
C:\Users\CYMR90~1\AppData\Local\Temp\ccSmV8cy.s:24811  .debug_str:00000000000075de .LASF474
C:\Users\CYMR90~1\AppData\Local\Temp\ccSmV8cy.s:23121  .debug_str:0000000000000b53 .LASF475
C:\Users\CYMR90~1\AppData\Local\Temp\ccSmV8cy.s:23987  .debug_str:00000000000041fb .LASF476
C:\Users\CYMR90~1\AppData\Local\Temp\ccSmV8cy.s:23347  .debug_str:00000000000019af .LASF477
C:\Users\CYMR90~1\AppData\Local\Temp\ccSmV8cy.s:28585  .debug_str:0000000000016484 .LASF478
C:\Users\CYMR90~1\AppData\Local\Temp\ccSmV8cy.s:25905  .debug_str:000000000000bc7e .LASF479
C:\Users\CYMR90~1\AppData\Local\Temp\ccSmV8cy.s:33908  .debug_str:000000000002b3b2 .LASF480
C:\Users\CYMR90~1\AppData\Local\Temp\ccSmV8cy.s:29182  .debug_str:0000000000018b15 .LASF481
C:\Users\CYMR90~1\AppData\Local\Temp\ccSmV8cy.s:25815  .debug_str:000000000000b685 .LASF482
C:\Users\CYMR90~1\AppData\Local\Temp\ccSmV8cy.s:24587  .debug_str:0000000000006721 .LASF483
C:\Users\CYMR90~1\AppData\Local\Temp\ccSmV8cy.s:23087  .debug_str:0000000000000909 .LASF484
C:\Users\CYMR90~1\AppData\Local\Temp\ccSmV8cy.s:29130  .debug_str:00000000000187ff .LASF485
C:\Users\CYMR90~1\AppData\Local\Temp\ccSmV8cy.s:24209  .debug_str:0000000000005050 .LASF486
C:\Users\CYMR90~1\AppData\Local\Temp\ccSmV8cy.s:28021  .debug_str:00000000000141fc .LASF487
C:\Users\CYMR90~1\AppData\Local\Temp\ccSmV8cy.s:27205  .debug_str:0000000000010d30 .LASF488
C:\Users\CYMR90~1\AppData\Local\Temp\ccSmV8cy.s:27789  .debug_str:00000000000132eb .LASF489
C:\Users\CYMR90~1\AppData\Local\Temp\ccSmV8cy.s:26195  .debug_str:000000000000cf81 .LASF490
C:\Users\CYMR90~1\AppData\Local\Temp\ccSmV8cy.s:25141  .debug_str:0000000000008ba5 .LASF491
C:\Users\CYMR90~1\AppData\Local\Temp\ccSmV8cy.s:26843  .debug_str:000000000000f6b1 .LASF492
C:\Users\CYMR90~1\AppData\Local\Temp\ccSmV8cy.s:25147  .debug_str:0000000000008bf1 .LASF493
C:\Users\CYMR90~1\AppData\Local\Temp\ccSmV8cy.s:27051  .debug_str:0000000000010374 .LASF494
C:\Users\CYMR90~1\AppData\Local\Temp\ccSmV8cy.s:29384  .debug_str:0000000000019888 .LASF495
C:\Users\CYMR90~1\AppData\Local\Temp\ccSmV8cy.s:34366  .debug_str:000000000002d0a7 .LASF496
C:\Users\CYMR90~1\AppData\Local\Temp\ccSmV8cy.s:34304  .debug_str:000000000002ccfa .LASF497
C:\Users\CYMR90~1\AppData\Local\Temp\ccSmV8cy.s:26889  .debug_str:000000000000f96d .LASF498
C:\Users\CYMR90~1\AppData\Local\Temp\ccSmV8cy.s:33508  .debug_str:0000000000029c01 .LASF499
C:\Users\CYMR90~1\AppData\Local\Temp\ccSmV8cy.s:33610  .debug_str:000000000002a292 .LASF500
C:\Users\CYMR90~1\AppData\Local\Temp\ccSmV8cy.s:28229  .debug_str:0000000000014e82 .LASF501
C:\Users\CYMR90~1\AppData\Local\Temp\ccSmV8cy.s:33564  .debug_str:000000000002a01e .LASF502
C:\Users\CYMR90~1\AppData\Local\Temp\ccSmV8cy.s:28173  .debug_str:0000000000014ac2 .LASF503
C:\Users\CYMR90~1\AppData\Local\Temp\ccSmV8cy.s:23675  .debug_str:0000000000002de7 .LASF504
C:\Users\CYMR90~1\AppData\Local\Temp\ccSmV8cy.s:32182  .debug_str:00000000000245ba .LASF505
C:\Users\CYMR90~1\AppData\Local\Temp\ccSmV8cy.s:33078  .debug_str:0000000000028053 .LASF506
C:\Users\CYMR90~1\AppData\Local\Temp\ccSmV8cy.s:32646  .debug_str:0000000000026592 .LASF507
C:\Users\CYMR90~1\AppData\Local\Temp\ccSmV8cy.s:29300  .debug_str:000000000001922d .LASF508
C:\Users\CYMR90~1\AppData\Local\Temp\ccSmV8cy.s:31600  .debug_str:000000000002232e .LASF509
C:\Users\CYMR90~1\AppData\Local\Temp\ccSmV8cy.s:33310  .debug_str:0000000000028fce .LASF510
C:\Users\CYMR90~1\AppData\Local\Temp\ccSmV8cy.s:29078  .debug_str:0000000000018501 .LASF511
C:\Users\CYMR90~1\AppData\Local\Temp\ccSmV8cy.s:32926  .debug_str:0000000000027643 .LASF512
C:\Users\CYMR90~1\AppData\Local\Temp\ccSmV8cy.s:33050  .debug_str:0000000000027ed8 .LASF513
C:\Users\CYMR90~1\AppData\Local\Temp\ccSmV8cy.s:33490  .debug_str:0000000000029aff .LASF514
C:\Users\CYMR90~1\AppData\Local\Temp\ccSmV8cy.s:27949  .debug_str:0000000000013d7e .LASF515
C:\Users\CYMR90~1\AppData\Local\Temp\ccSmV8cy.s:33370  .debug_str:00000000000293d2 .LASF516
C:\Users\CYMR90~1\AppData\Local\Temp\ccSmV8cy.s:29452  .debug_str:0000000000019c84 .LASF517
C:\Users\CYMR90~1\AppData\Local\Temp\ccSmV8cy.s:33318  .debug_str:0000000000029082 .LASF518
C:\Users\CYMR90~1\AppData\Local\Temp\ccSmV8cy.s:30120  .debug_str:000000000001c6fd .LASF519
C:\Users\CYMR90~1\AppData\Local\Temp\ccSmV8cy.s:34274  .debug_str:000000000002caee .LASF520
C:\Users\CYMR90~1\AppData\Local\Temp\ccSmV8cy.s:30406  .debug_str:000000000001da34 .LASF521
C:\Users\CYMR90~1\AppData\Local\Temp\ccSmV8cy.s:32544  .debug_str:0000000000025e45 .LASF522
C:\Users\CYMR90~1\AppData\Local\Temp\ccSmV8cy.s:27837  .debug_str:00000000000135e6 .LASF523
C:\Users\CYMR90~1\AppData\Local\Temp\ccSmV8cy.s:32096  .debug_str:00000000000240d7 .LASF524
C:\Users\CYMR90~1\AppData\Local\Temp\ccSmV8cy.s:25355  .debug_str:000000000000984f .LASF525
C:\Users\CYMR90~1\AppData\Local\Temp\ccSmV8cy.s:34296  .debug_str:000000000002cc0e .LASF526
C:\Users\CYMR90~1\AppData\Local\Temp\ccSmV8cy.s:26655  .debug_str:000000000000eb40 .LASF527
C:\Users\CYMR90~1\AppData\Local\Temp\ccSmV8cy.s:27693  .debug_str:0000000000012cb7 .LASF528
C:\Users\CYMR90~1\AppData\Local\Temp\ccSmV8cy.s:28563  .debug_str:00000000000162cd .LASF529
C:\Users\CYMR90~1\AppData\Local\Temp\ccSmV8cy.s:28597  .debug_str:0000000000016522 .LASF530
C:\Users\CYMR90~1\AppData\Local\Temp\ccSmV8cy.s:27623  .debug_str:000000000001285e .LASF531
C:\Users\CYMR90~1\AppData\Local\Temp\ccSmV8cy.s:23737  .debug_str:0000000000003195 .LASF532
C:\Users\CYMR90~1\AppData\Local\Temp\ccSmV8cy.s:26329  .debug_str:000000000000d723 .LASF533
C:\Users\CYMR90~1\AppData\Local\Temp\ccSmV8cy.s:34136  .debug_str:000000000002c1a2 .LASF534
C:\Users\CYMR90~1\AppData\Local\Temp\ccSmV8cy.s:26841  .debug_str:000000000000f665 .LASF535
C:\Users\CYMR90~1\AppData\Local\Temp\ccSmV8cy.s:32270  .debug_str:0000000000024bbb .LASF536
C:\Users\CYMR90~1\AppData\Local\Temp\ccSmV8cy.s:33770  .debug_str:000000000002abbe .LASF537
C:\Users\CYMR90~1\AppData\Local\Temp\ccSmV8cy.s:27447  .debug_str:0000000000011c3c .LASF538
C:\Users\CYMR90~1\AppData\Local\Temp\ccSmV8cy.s:32460  .debug_str:00000000000257ed .LASF539
C:\Users\CYMR90~1\AppData\Local\Temp\ccSmV8cy.s:30184  .debug_str:000000000001cab1 .LASF540
C:\Users\CYMR90~1\AppData\Local\Temp\ccSmV8cy.s:31810  .debug_str:0000000000022fa8 .LASF541
C:\Users\CYMR90~1\AppData\Local\Temp\ccSmV8cy.s:30500  .debug_str:000000000001e007 .LASF542
C:\Users\CYMR90~1\AppData\Local\Temp\ccSmV8cy.s:24101  .debug_str:0000000000004903 .LASF543
C:\Users\CYMR90~1\AppData\Local\Temp\ccSmV8cy.s:26591  .debug_str:000000000000e723 .LASF544
C:\Users\CYMR90~1\AppData\Local\Temp\ccSmV8cy.s:33550  .debug_str:0000000000029f3a .LASF545
C:\Users\CYMR90~1\AppData\Local\Temp\ccSmV8cy.s:27959  .debug_str:0000000000013e09 .LASF546
C:\Users\CYMR90~1\AppData\Local\Temp\ccSmV8cy.s:31792  .debug_str:0000000000022e72 .LASF547
C:\Users\CYMR90~1\AppData\Local\Temp\ccSmV8cy.s:34048  .debug_str:000000000002bc2f .LASF548
C:\Users\CYMR90~1\AppData\Local\Temp\ccSmV8cy.s:23787  .debug_str:0000000000003524 .LASF549
C:\Users\CYMR90~1\AppData\Local\Temp\ccSmV8cy.s:24971  .debug_str:0000000000007ff2 .LASF550
C:\Users\CYMR90~1\AppData\Local\Temp\ccSmV8cy.s:32812  .debug_str:0000000000026fc4 .LASF551
C:\Users\CYMR90~1\AppData\Local\Temp\ccSmV8cy.s:24511  .debug_str:000000000000629a .LASF552
C:\Users\CYMR90~1\AppData\Local\Temp\ccSmV8cy.s:33790  .debug_str:000000000002acab .LASF553
C:\Users\CYMR90~1\AppData\Local\Temp\ccSmV8cy.s:25983  .debug_str:000000000000c140 .LASF554
C:\Users\CYMR90~1\AppData\Local\Temp\ccSmV8cy.s:26175  .debug_str:000000000000cdf0 .LASF555
C:\Users\CYMR90~1\AppData\Local\Temp\ccSmV8cy.s:24639  .debug_str:0000000000006a49 .LASF556
C:\Users\CYMR90~1\AppData\Local\Temp\ccSmV8cy.s:24341  .debug_str:000000000000580e .LASF557
C:\Users\CYMR90~1\AppData\Local\Temp\ccSmV8cy.s:27567  .debug_str:00000000000124a2 .LASF558
C:\Users\CYMR90~1\AppData\Local\Temp\ccSmV8cy.s:29328  .debug_str:000000000001946f .LASF559
C:\Users\CYMR90~1\AppData\Local\Temp\ccSmV8cy.s:33360  .debug_str:000000000002932a .LASF560
C:\Users\CYMR90~1\AppData\Local\Temp\ccSmV8cy.s:25979  .debug_str:000000000000c0dc .LASF561
C:\Users\CYMR90~1\AppData\Local\Temp\ccSmV8cy.s:26999  .debug_str:000000000001000b .LASF562
C:\Users\CYMR90~1\AppData\Local\Temp\ccSmV8cy.s:26371  .debug_str:000000000000da3b .LASF563
C:\Users\CYMR90~1\AppData\Local\Temp\ccSmV8cy.s:25659  .debug_str:000000000000ab00 .LASF564
C:\Users\CYMR90~1\AppData\Local\Temp\ccSmV8cy.s:31540  .debug_str:0000000000021f6f .LASF565
C:\Users\CYMR90~1\AppData\Local\Temp\ccSmV8cy.s:30746  .debug_str:000000000001ef4b .LASF566
C:\Users\CYMR90~1\AppData\Local\Temp\ccSmV8cy.s:27993  .debug_str:0000000000014010 .LASF567
C:\Users\CYMR90~1\AppData\Local\Temp\ccSmV8cy.s:24513  .debug_str:00000000000062ae .LASF568
C:\Users\CYMR90~1\AppData\Local\Temp\ccSmV8cy.s:23149  .debug_str:0000000000000d3e .LASF570
C:\Users\CYMR90~1\AppData\Local\Temp\ccSmV8cy.s:28960  .debug_str:0000000000017dad .LASF571
C:\Users\CYMR90~1\AppData\Local\Temp\ccSmV8cy.s:30116  .debug_str:000000000001c6d7 .LASF574
C:\Users\CYMR90~1\AppData\Local\Temp\ccSmV8cy.s:24067  .debug_str:00000000000046d8 .LASF575
C:\Users\CYMR90~1\AppData\Local\Temp\ccSmV8cy.s:28179  .debug_str:0000000000014b4c .LASF576
C:\Users\CYMR90~1\AppData\Local\Temp\ccSmV8cy.s:25067  .debug_str:000000000000875a .LASF577
C:\Users\CYMR90~1\AppData\Local\Temp\ccSmV8cy.s:31442  .debug_str:0000000000021926 .LASF579
C:\Users\CYMR90~1\AppData\Local\Temp\ccSmV8cy.s:30622  .debug_str:000000000001e816 .LASF580
C:\Users\CYMR90~1\AppData\Local\Temp\ccSmV8cy.s:32180  .debug_str:00000000000245b1 .LASF581
C:\Users\CYMR90~1\AppData\Local\Temp\ccSmV8cy.s:24469  .debug_str:0000000000005fcb .LASF582
C:\Users\CYMR90~1\AppData\Local\Temp\ccSmV8cy.s:27157  .debug_str:0000000000010a3e .LASF583
C:\Users\CYMR90~1\AppData\Local\Temp\ccSmV8cy.s:23623  .debug_str:0000000000002aad .LASF584
C:\Users\CYMR90~1\AppData\Local\Temp\ccSmV8cy.s:33644  .debug_str:000000000002a496 .LASF585
C:\Users\CYMR90~1\AppData\Local\Temp\ccSmV8cy.s:31842  .debug_str:00000000000231c1 .LASF586
C:\Users\CYMR90~1\AppData\Local\Temp\ccSmV8cy.s:30000  .debug_str:000000000001bf9c .LASF587
C:\Users\CYMR90~1\AppData\Local\Temp\ccSmV8cy.s:25657  .debug_str:000000000000aaf0 .LASF588
C:\Users\CYMR90~1\AppData\Local\Temp\ccSmV8cy.s:29234  .debug_str:0000000000018e4c .LASF589
C:\Users\CYMR90~1\AppData\Local\Temp\ccSmV8cy.s:29622  .debug_str:000000000001a6e8 .LASF590
C:\Users\CYMR90~1\AppData\Local\Temp\ccSmV8cy.s:34378  .debug_str:000000000002d198 .LASF591
C:\Users\CYMR90~1\AppData\Local\Temp\ccSmV8cy.s:32956  .debug_str:000000000002786f .LASF592
C:\Users\CYMR90~1\AppData\Local\Temp\ccSmV8cy.s:32170  .debug_str:0000000000024525 .LASF593
C:\Users\CYMR90~1\AppData\Local\Temp\ccSmV8cy.s:27123  .debug_str:0000000000010854 .LASF594
C:\Users\CYMR90~1\AppData\Local\Temp\ccSmV8cy.s:30838  .debug_str:000000000001f498 .LASF595
C:\Users\CYMR90~1\AppData\Local\Temp\ccSmV8cy.s:27751  .debug_str:0000000000013076 .LASF596
C:\Users\CYMR90~1\AppData\Local\Temp\ccSmV8cy.s:24813  .debug_str:00000000000075fd .LASF597
C:\Users\CYMR90~1\AppData\Local\Temp\ccSmV8cy.s:33180  .debug_str:00000000000286ca .LASF598
C:\Users\CYMR90~1\AppData\Local\Temp\ccSmV8cy.s:27907  .debug_str:0000000000013ae0 .LASF599
C:\Users\CYMR90~1\AppData\Local\Temp\ccSmV8cy.s:30956  .debug_str:000000000001fbe5 .LASF600
C:\Users\CYMR90~1\AppData\Local\Temp\ccSmV8cy.s:30192  .debug_str:000000000001cb1d .LASF601
C:\Users\CYMR90~1\AppData\Local\Temp\ccSmV8cy.s:32654  .debug_str:0000000000026625 .LASF602
C:\Users\CYMR90~1\AppData\Local\Temp\ccSmV8cy.s:33378  .debug_str:0000000000029465 .LASF603
C:\Users\CYMR90~1\AppData\Local\Temp\ccSmV8cy.s:33266  .debug_str:0000000000028d06 .LASF604
C:\Users\CYMR90~1\AppData\Local\Temp\ccSmV8cy.s:27857  .debug_str:0000000000013741 .LASF605
C:\Users\CYMR90~1\AppData\Local\Temp\ccSmV8cy.s:31982  .debug_str:00000000000239f7 .LASF606
C:\Users\CYMR90~1\AppData\Local\Temp\ccSmV8cy.s:25427  .debug_str:0000000000009d1d .LASF607
C:\Users\CYMR90~1\AppData\Local\Temp\ccSmV8cy.s:24921  .debug_str:0000000000007cbd .LASF608
C:\Users\CYMR90~1\AppData\Local\Temp\ccSmV8cy.s:25723  .debug_str:000000000000aff4 .LASF609
C:\Users\CYMR90~1\AppData\Local\Temp\ccSmV8cy.s:30038  .debug_str:000000000001c19b .LASF610
C:\Users\CYMR90~1\AppData\Local\Temp\ccSmV8cy.s:24433  .debug_str:0000000000005dc3 .LASF611
C:\Users\CYMR90~1\AppData\Local\Temp\ccSmV8cy.s:31764  .debug_str:0000000000022cf8 .LASF612
C:\Users\CYMR90~1\AppData\Local\Temp\ccSmV8cy.s:28427  .debug_str:0000000000015ac9 .LASF613
C:\Users\CYMR90~1\AppData\Local\Temp\ccSmV8cy.s:24991  .debug_str:00000000000081de .LASF614
C:\Users\CYMR90~1\AppData\Local\Temp\ccSmV8cy.s:23039  .debug_str:00000000000006a5 .LASF615
C:\Users\CYMR90~1\AppData\Local\Temp\ccSmV8cy.s:28671  .debug_str:00000000000169de .LASF616
C:\Users\CYMR90~1\AppData\Local\Temp\ccSmV8cy.s:29658  .debug_str:000000000001a8d7 .LASF617
C:\Users\CYMR90~1\AppData\Local\Temp\ccSmV8cy.s:28805  .debug_str:00000000000172f2 .LASF618
C:\Users\CYMR90~1\AppData\Local\Temp\ccSmV8cy.s:31848  .debug_str:0000000000023200 .LASF619
C:\Users\CYMR90~1\AppData\Local\Temp\ccSmV8cy.s:25999  .debug_str:000000000000c2d3 .LASF620
C:\Users\CYMR90~1\AppData\Local\Temp\ccSmV8cy.s:24717  .debug_str:0000000000006f83 .LASF621
C:\Users\CYMR90~1\AppData\Local\Temp\ccSmV8cy.s:32046  .debug_str:0000000000023d98 .LASF622
C:\Users\CYMR90~1\AppData\Local\Temp\ccSmV8cy.s:31140  .debug_str:00000000000206f3 .LASF623
C:\Users\CYMR90~1\AppData\Local\Temp\ccSmV8cy.s:33136  .debug_str:00000000000283a4 .LASF624
C:\Users\CYMR90~1\AppData\Local\Temp\ccSmV8cy.s:33748  .debug_str:000000000002aa8b .LASF625
C:\Users\CYMR90~1\AppData\Local\Temp\ccSmV8cy.s:28091  .debug_str:00000000000145c9 .LASF626
C:\Users\CYMR90~1\AppData\Local\Temp\ccSmV8cy.s:34014  .debug_str:000000000002b9b9 .LASF627
C:\Users\CYMR90~1\AppData\Local\Temp\ccSmV8cy.s:28519  .debug_str:0000000000016031 .LASF628
C:\Users\CYMR90~1\AppData\Local\Temp\ccSmV8cy.s:31790  .debug_str:0000000000022e3a .LASF629
C:\Users\CYMR90~1\AppData\Local\Temp\ccSmV8cy.s:27109  .debug_str:000000000001075c .LASF630
C:\Users\CYMR90~1\AppData\Local\Temp\ccSmV8cy.s:30260  .debug_str:000000000001cfd8 .LASF631
C:\Users\CYMR90~1\AppData\Local\Temp\ccSmV8cy.s:31754  .debug_str:0000000000022c67 .LASF632
C:\Users\CYMR90~1\AppData\Local\Temp\ccSmV8cy.s:28884  .debug_str:0000000000017921 .LASF633
C:\Users\CYMR90~1\AppData\Local\Temp\ccSmV8cy.s:23549  .debug_str:00000000000025b8 .LASF634
C:\Users\CYMR90~1\AppData\Local\Temp\ccSmV8cy.s:29564  .debug_str:000000000001a3bd .LASF635
C:\Users\CYMR90~1\AppData\Local\Temp\ccSmV8cy.s:28729  .debug_str:0000000000016db6 .LASF636
C:\Users\CYMR90~1\AppData\Local\Temp\ccSmV8cy.s:30370  .debug_str:000000000001d81a .LASF637
C:\Users\CYMR90~1\AppData\Local\Temp\ccSmV8cy.s:23857  .debug_str:00000000000039b2 .LASF638
C:\Users\CYMR90~1\AppData\Local\Temp\ccSmV8cy.s:27515  .debug_str:00000000000121af .LASF639
C:\Users\CYMR90~1\AppData\Local\Temp\ccSmV8cy.s:25003  .debug_str:0000000000008286 .LASF640
C:\Users\CYMR90~1\AppData\Local\Temp\ccSmV8cy.s:27733  .debug_str:0000000000012f47 .LASF641
C:\Users\CYMR90~1\AppData\Local\Temp\ccSmV8cy.s:25895  .debug_str:000000000000bb9e .LASF642
C:\Users\CYMR90~1\AppData\Local\Temp\ccSmV8cy.s:33116  .debug_str:0000000000028248 .LASF643
C:\Users\CYMR90~1\AppData\Local\Temp\ccSmV8cy.s:26279  .debug_str:000000000000d413 .LASF644
C:\Users\CYMR90~1\AppData\Local\Temp\ccSmV8cy.s:24037  .debug_str:00000000000044bb .LASF645
C:\Users\CYMR90~1\AppData\Local\Temp\ccSmV8cy.s:24875  .debug_str:0000000000007998 .LASF646
C:\Users\CYMR90~1\AppData\Local\Temp\ccSmV8cy.s:23777  .debug_str:0000000000003477 .LASF647
C:\Users\CYMR90~1\AppData\Local\Temp\ccSmV8cy.s:24157  .debug_str:0000000000004d08 .LASF648
C:\Users\CYMR90~1\AppData\Local\Temp\ccSmV8cy.s:29432  .debug_str:0000000000019b56 .LASF649
C:\Users\CYMR90~1\AppData\Local\Temp\ccSmV8cy.s:27427  .debug_str:0000000000011ad2 .LASF650
C:\Users\CYMR90~1\AppData\Local\Temp\ccSmV8cy.s:33760  .debug_str:000000000002ab35 .LASF651
C:\Users\CYMR90~1\AppData\Local\Temp\ccSmV8cy.s:27009  .debug_str:00000000000100c2 .LASF652
C:\Users\CYMR90~1\AppData\Local\Temp\ccSmV8cy.s:23017  .debug_str:0000000000000571 .LASF653
C:\Users\CYMR90~1\AppData\Local\Temp\ccSmV8cy.s:33998  .debug_str:000000000002b8e5 .LASF654
C:\Users\CYMR90~1\AppData\Local\Temp\ccSmV8cy.s:25243  .debug_str:0000000000009227 .LASF655
C:\Users\CYMR90~1\AppData\Local\Temp\ccSmV8cy.s:33196  .debug_str:00000000000287d4 .LASF656
C:\Users\CYMR90~1\AppData\Local\Temp\ccSmV8cy.s:23077  .debug_str:000000000000089e .LASF657
C:\Users\CYMR90~1\AppData\Local\Temp\ccSmV8cy.s:33816  .debug_str:000000000002ae65 .LASF658
C:\Users\CYMR90~1\AppData\Local\Temp\ccSmV8cy.s:27827  .debug_str:000000000001355c .LASF659
C:\Users\CYMR90~1\AppData\Local\Temp\ccSmV8cy.s:30300  .debug_str:000000000001d271 .LASF660
C:\Users\CYMR90~1\AppData\Local\Temp\ccSmV8cy.s:26693  .debug_str:000000000000ede6 .LASF661
C:\Users\CYMR90~1\AppData\Local\Temp\ccSmV8cy.s:30984  .debug_str:000000000001fd97 .LASF662
C:\Users\CYMR90~1\AppData\Local\Temp\ccSmV8cy.s:32970  .debug_str:000000000002793d .LASF663
C:\Users\CYMR90~1\AppData\Local\Temp\ccSmV8cy.s:28133  .debug_str:0000000000014884 .LASF664
C:\Users\CYMR90~1\AppData\Local\Temp\ccSmV8cy.s:27391  .debug_str:00000000000118b3 .LASF665
C:\Users\CYMR90~1\AppData\Local\Temp\ccSmV8cy.s:29340  .debug_str:0000000000019530 .LASF666
C:\Users\CYMR90~1\AppData\Local\Temp\ccSmV8cy.s:24447  .debug_str:0000000000005e84 .LASF667
C:\Users\CYMR90~1\AppData\Local\Temp\ccSmV8cy.s:34514  .debug_str:000000000002da55 .LASF668
C:\Users\CYMR90~1\AppData\Local\Temp\ccSmV8cy.s:24839  .debug_str:0000000000007785 .LASF669
C:\Users\CYMR90~1\AppData\Local\Temp\ccSmV8cy.s:31636  .debug_str:000000000002259e .LASF670
C:\Users\CYMR90~1\AppData\Local\Temp\ccSmV8cy.s:27809  .debug_str:0000000000013449 .LASF671
C:\Users\CYMR90~1\AppData\Local\Temp\ccSmV8cy.s:31036  .debug_str:000000000002008a .LASF672
C:\Users\CYMR90~1\AppData\Local\Temp\ccSmV8cy.s:31766  .debug_str:0000000000022d11 .LASF673
C:\Users\CYMR90~1\AppData\Local\Temp\ccSmV8cy.s:23415  .debug_str:0000000000001df5 .LASF674
C:\Users\CYMR90~1\AppData\Local\Temp\ccSmV8cy.s:28503  .debug_str:0000000000015f2c .LASF676
C:\Users\CYMR90~1\AppData\Local\Temp\ccSmV8cy.s:32196  .debug_str:000000000002469f .LASF677
C:\Users\CYMR90~1\AppData\Local\Temp\ccSmV8cy.s:29578  .debug_str:000000000001a48f .LASF678
C:\Users\CYMR90~1\AppData\Local\Temp\ccSmV8cy.s:32292  .debug_str:0000000000024d48 .LASF679
C:\Users\CYMR90~1\AppData\Local\Temp\ccSmV8cy.s:30742  .debug_str:000000000001ef1f .LASF680
C:\Users\CYMR90~1\AppData\Local\Temp\ccSmV8cy.s:33658  .debug_str:000000000002a578 .LASF681
C:\Users\CYMR90~1\AppData\Local\Temp\ccSmV8cy.s:27513  .debug_str:0000000000012192 .LASF682
C:\Users\CYMR90~1\AppData\Local\Temp\ccSmV8cy.s:23957  .debug_str:0000000000003fe7 .LASF683
C:\Users\CYMR90~1\AppData\Local\Temp\ccSmV8cy.s:34098  .debug_str:000000000002bf6f .LASF684
C:\Users\CYMR90~1\AppData\Local\Temp\ccSmV8cy.s:30042  .debug_str:000000000001c1c8 .LASF685
C:\Users\CYMR90~1\AppData\Local\Temp\ccSmV8cy.s:31498  .debug_str:0000000000021cf7 .LASF686
C:\Users\CYMR90~1\AppData\Local\Temp\ccSmV8cy.s:28785  .debug_str:0000000000017158 .LASF687
C:\Users\CYMR90~1\AppData\Local\Temp\ccSmV8cy.s:27319  .debug_str:000000000001144e .LASF688
C:\Users\CYMR90~1\AppData\Local\Temp\ccSmV8cy.s:23837  .debug_str:0000000000003861 .LASF689
C:\Users\CYMR90~1\AppData\Local\Temp\ccSmV8cy.s:24725  .debug_str:0000000000007022 .LASF690
C:\Users\CYMR90~1\AppData\Local\Temp\ccSmV8cy.s:27677  .debug_str:0000000000012ba3 .LASF691
C:\Users\CYMR90~1\AppData\Local\Temp\ccSmV8cy.s:28543  .debug_str:0000000000016187 .LASF692
C:\Users\CYMR90~1\AppData\Local\Temp\ccSmV8cy.s:24415  .debug_str:0000000000005cbf .LASF695
C:\Users\CYMR90~1\AppData\Local\Temp\ccSmV8cy.s:28958  .debug_str:0000000000017d96 .LASF696
C:\Users\CYMR90~1\AppData\Local\Temp\ccSmV8cy.s:26311  .debug_str:000000000000d60d .LASF697
C:\Users\CYMR90~1\AppData\Local\Temp\ccSmV8cy.s:30014  .debug_str:000000000001c054 .LASF698
C:\Users\CYMR90~1\AppData\Local\Temp\ccSmV8cy.s:32232  .debug_str:0000000000024896 .LASF699
C:\Users\CYMR90~1\AppData\Local\Temp\ccSmV8cy.s:28263  .debug_str:000000000001505d .LASF702
C:\Users\CYMR90~1\AppData\Local\Temp\ccSmV8cy.s:25407  .debug_str:0000000000009b7b .LASF703
C:\Users\CYMR90~1\AppData\Local\Temp\ccSmV8cy.s:30928  .debug_str:000000000001fa45 .LASF704
C:\Users\CYMR90~1\AppData\Local\Temp\ccSmV8cy.s:24233  .debug_str:00000000000051ad .LASF705
C:\Users\CYMR90~1\AppData\Local\Temp\ccSmV8cy.s:28611  .debug_str:000000000001661a .LASF706
C:\Users\CYMR90~1\AppData\Local\Temp\ccSmV8cy.s:26887  .debug_str:000000000000f947 .LASF707
C:\Users\CYMR90~1\AppData\Local\Temp\ccSmV8cy.s:33394  .debug_str:0000000000029554 .LASF708
C:\Users\CYMR90~1\AppData\Local\Temp\ccSmV8cy.s:32620  .debug_str:00000000000263cf .LASF709
C:\Users\CYMR90~1\AppData\Local\Temp\ccSmV8cy.s:26533  .debug_str:000000000000e3cb .LASF710
C:\Users\CYMR90~1\AppData\Local\Temp\ccSmV8cy.s:27049  .debug_str:0000000000010341 .LASF711
C:\Users\CYMR90~1\AppData\Local\Temp\ccSmV8cy.s:28761  .debug_str:0000000000016fa3 .LASF712
C:\Users\CYMR90~1\AppData\Local\Temp\ccSmV8cy.s:25653  .debug_str:000000000000aa96 .LASF713
C:\Users\CYMR90~1\AppData\Local\Temp\ccSmV8cy.s:34218  .debug_str:000000000002c701 .LASF714
C:\Users\CYMR90~1\AppData\Local\Temp\ccSmV8cy.s:24987  .debug_str:0000000000008179 .LASF715
C:\Users\CYMR90~1\AppData\Local\Temp\ccSmV8cy.s:25937  .debug_str:000000000000be48 .LASF716
C:\Users\CYMR90~1\AppData\Local\Temp\ccSmV8cy.s:31158  .debug_str:000000000002082b .LASF717
C:\Users\CYMR90~1\AppData\Local\Temp\ccSmV8cy.s:32570  .debug_str:000000000002603d .LASF718
C:\Users\CYMR90~1\AppData\Local\Temp\ccSmV8cy.s:32338  .debug_str:0000000000024ffd .LASF719
C:\Users\CYMR90~1\AppData\Local\Temp\ccSmV8cy.s:29272  .debug_str:0000000000019088 .LASF720
C:\Users\CYMR90~1\AppData\Local\Temp\ccSmV8cy.s:26791  .debug_str:000000000000f38a .LASF721
C:\Users\CYMR90~1\AppData\Local\Temp\ccSmV8cy.s:31270  .debug_str:0000000000020f2c .LASF722
C:\Users\CYMR90~1\AppData\Local\Temp\ccSmV8cy.s:30206  .debug_str:000000000001cbd3 .LASF723
C:\Users\CYMR90~1\AppData\Local\Temp\ccSmV8cy.s:30794  .debug_str:000000000001f23e .LASF724
C:\Users\CYMR90~1\AppData\Local\Temp\ccSmV8cy.s:31746  .debug_str:0000000000022bfa .LASF725
C:\Users\CYMR90~1\AppData\Local\Temp\ccSmV8cy.s:27921  .debug_str:0000000000013bcc .LASF726
C:\Users\CYMR90~1\AppData\Local\Temp\ccSmV8cy.s:25647  .debug_str:000000000000aa3c .LASF727
C:\Users\CYMR90~1\AppData\Local\Temp\ccSmV8cy.s:32714  .debug_str:00000000000269eb .LASF728
C:\Users\CYMR90~1\AppData\Local\Temp\ccSmV8cy.s:31042  .debug_str:0000000000020108 .LASF729
C:\Users\CYMR90~1\AppData\Local\Temp\ccSmV8cy.s:33258  .debug_str:0000000000028ca2 .LASF730
C:\Users\CYMR90~1\AppData\Local\Temp\ccSmV8cy.s:27895  .debug_str:0000000000013a18 .LASF731
C:\Users\CYMR90~1\AppData\Local\Temp\ccSmV8cy.s:32656  .debug_str:0000000000026660 .LASF732
C:\Users\CYMR90~1\AppData\Local\Temp\ccSmV8cy.s:34430  .debug_str:000000000002d51c .LASF733
C:\Users\CYMR90~1\AppData\Local\Temp\ccSmV8cy.s:27373  .debug_str:0000000000011760 .LASF734
C:\Users\CYMR90~1\AppData\Local\Temp\ccSmV8cy.s:27297  .debug_str:0000000000011326 .LASF735
C:\Users\CYMR90~1\AppData\Local\Temp\ccSmV8cy.s:34354  .debug_str:000000000002cfe0 .LASF736
C:\Users\CYMR90~1\AppData\Local\Temp\ccSmV8cy.s:26247  .debug_str:000000000000d244 .LASF737
C:\Users\CYMR90~1\AppData\Local\Temp\ccSmV8cy.s:30368  .debug_str:000000000001d809 .LASF738
C:\Users\CYMR90~1\AppData\Local\Temp\ccSmV8cy.s:34104  .debug_str:000000000002bfbf .LASF739
C:\Users\CYMR90~1\AppData\Local\Temp\ccSmV8cy.s:23383  .debug_str:0000000000001bff .LASF740
C:\Users\CYMR90~1\AppData\Local\Temp\ccSmV8cy.s:26181  .debug_str:000000000000ce60 .LASF741
C:\Users\CYMR90~1\AppData\Local\Temp\ccSmV8cy.s:23359  .debug_str:0000000000001a98 .LASF742
C:\Users\CYMR90~1\AppData\Local\Temp\ccSmV8cy.s:27327  .debug_str:00000000000114aa .LASF743
C:\Users\CYMR90~1\AppData\Local\Temp\ccSmV8cy.s:23819  .debug_str:0000000000003749 .LASF744
C:\Users\CYMR90~1\AppData\Local\Temp\ccSmV8cy.s:25251  .debug_str:000000000000929a .LASF745
C:\Users\CYMR90~1\AppData\Local\Temp\ccSmV8cy.s:31758  .debug_str:0000000000022cb6 .LASF746
C:\Users\CYMR90~1\AppData\Local\Temp\ccSmV8cy.s:23251  .debug_str:000000000000134a .LASF747
C:\Users\CYMR90~1\AppData\Local\Temp\ccSmV8cy.s:23241  .debug_str:00000000000012c8 .LASF748
C:\Users\CYMR90~1\AppData\Local\Temp\ccSmV8cy.s:24395  .debug_str:0000000000005b79 .LASF750
C:\Users\CYMR90~1\AppData\Local\Temp\ccSmV8cy.s:27253  .debug_str:0000000000010fce .LASF751
C:\Users\CYMR90~1\AppData\Local\Temp\ccSmV8cy.s:33546  .debug_str:0000000000029ef8 .LASF752
C:\Users\CYMR90~1\AppData\Local\Temp\ccSmV8cy.s:27183  .debug_str:0000000000010bd3 .LASF753
C:\Users\CYMR90~1\AppData\Local\Temp\ccSmV8cy.s:24273  .debug_str:0000000000005406 .LASF754
C:\Users\CYMR90~1\AppData\Local\Temp\ccSmV8cy.s:25917  .debug_str:000000000000bd2e .LASF755
C:\Users\CYMR90~1\AppData\Local\Temp\ccSmV8cy.s:29540  .debug_str:000000000001a288 .LASF756
C:\Users\CYMR90~1\AppData\Local\Temp\ccSmV8cy.s:25393  .debug_str:0000000000009aad .LASF757
C:\Users\CYMR90~1\AppData\Local\Temp\ccSmV8cy.s:32602  .debug_str:00000000000262c5 .LASF758
C:\Users\CYMR90~1\AppData\Local\Temp\ccSmV8cy.s:34474  .debug_str:000000000002d819 .LASF759
C:\Users\CYMR90~1\AppData\Local\Temp\ccSmV8cy.s:29914  .debug_str:000000000001ba61 .LASF760
C:\Users\CYMR90~1\AppData\Local\Temp\ccSmV8cy.s:34200  .debug_str:000000000002c5db .LASF761
C:\Users\CYMR90~1\AppData\Local\Temp\ccSmV8cy.s:25837  .debug_str:000000000000b778 .LASF762
C:\Users\CYMR90~1\AppData\Local\Temp\ccSmV8cy.s:29924  .debug_str:000000000001bb1b .LASF765
C:\Users\CYMR90~1\AppData\Local\Temp\ccSmV8cy.s:28579  .debug_str:00000000000163e5 .LASF766
C:\Users\CYMR90~1\AppData\Local\Temp\ccSmV8cy.s:31646  .debug_str:0000000000022614 .LASF767
C:\Users\CYMR90~1\AppData\Local\Temp\ccSmV8cy.s:28569  .debug_str:0000000000016366 .LASF768
C:\Users\CYMR90~1\AppData\Local\Temp\ccSmV8cy.s:23609  .debug_str:00000000000029d6 .LASF769
C:\Users\CYMR90~1\AppData\Local\Temp\ccSmV8cy.s:30058  .debug_str:000000000001c303 .LASF770
C:\Users\CYMR90~1\AppData\Local\Temp\ccSmV8cy.s:28667  .debug_str:00000000000169b8 .LASF771
C:\Users\CYMR90~1\AppData\Local\Temp\ccSmV8cy.s:32300  .debug_str:0000000000024db6 .LASF772
C:\Users\CYMR90~1\AppData\Local\Temp\ccSmV8cy.s:31940  .debug_str:0000000000023791 .LASF773
C:\Users\CYMR90~1\AppData\Local\Temp\ccSmV8cy.s:30390  .debug_str:000000000001d93c .LASF774
C:\Users\CYMR90~1\AppData\Local\Temp\ccSmV8cy.s:32658  .debug_str:0000000000026676 .LASF775
C:\Users\CYMR90~1\AppData\Local\Temp\ccSmV8cy.s:25543  .debug_str:000000000000a456 .LASF776
C:\Users\CYMR90~1\AppData\Local\Temp\ccSmV8cy.s:25559  .debug_str:000000000000a55a .LASF777
C:\Users\CYMR90~1\AppData\Local\Temp\ccSmV8cy.s:30732  .debug_str:000000000001ee7e .LASF778
C:\Users\CYMR90~1\AppData\Local\Temp\ccSmV8cy.s:27125  .debug_str:000000000001087c .LASF779
C:\Users\CYMR90~1\AppData\Local\Temp\ccSmV8cy.s:30992  .debug_str:000000000001fe0c .LASF780
C:\Users\CYMR90~1\AppData\Local\Temp\ccSmV8cy.s:31642  .debug_str:00000000000225fb .LASF781
C:\Users\CYMR90~1\AppData\Local\Temp\ccSmV8cy.s:27633  .debug_str:000000000001290f .LASF782
C:\Users\CYMR90~1\AppData\Local\Temp\ccSmV8cy.s:28791  .debug_str:0000000000017246 .LASF783
C:\Users\CYMR90~1\AppData\Local\Temp\ccSmV8cy.s:27531  .debug_str:00000000000122ad .LASF784
C:\Users\CYMR90~1\AppData\Local\Temp\ccSmV8cy.s:27943  .debug_str:0000000000013d29 .LASF785
C:\Users\CYMR90~1\AppData\Local\Temp\ccSmV8cy.s:27747  .debug_str:0000000000013040 .LASF786
C:\Users\CYMR90~1\AppData\Local\Temp\ccSmV8cy.s:28277  .debug_str:000000000001517c .LASF787
C:\Users\CYMR90~1\AppData\Local\Temp\ccSmV8cy.s:30666  .debug_str:000000000001ea83 .LASF788
C:\Users\CYMR90~1\AppData\Local\Temp\ccSmV8cy.s:26965  .debug_str:000000000000fe3e .LASF789
C:\Users\CYMR90~1\AppData\Local\Temp\ccSmV8cy.s:24327  .debug_str:0000000000005750 .LASF790
C:\Users\CYMR90~1\AppData\Local\Temp\ccSmV8cy.s:33016  .debug_str:0000000000027cca .LASF791
C:\Users\CYMR90~1\AppData\Local\Temp\ccSmV8cy.s:25113  .debug_str:00000000000089ea .LASF792
C:\Users\CYMR90~1\AppData\Local\Temp\ccSmV8cy.s:34436  .debug_str:000000000002d56a .LASF793
C:\Users\CYMR90~1\AppData\Local\Temp\ccSmV8cy.s:24893  .debug_str:0000000000007b0e .LASF794
C:\Users\CYMR90~1\AppData\Local\Temp\ccSmV8cy.s:33272  .debug_str:0000000000028d55 .LASF795
C:\Users\CYMR90~1\AppData\Local\Temp\ccSmV8cy.s:31244  .debug_str:0000000000020d38 .LASF796
C:\Users\CYMR90~1\AppData\Local\Temp\ccSmV8cy.s:33990  .debug_str:000000000002b898 .LASF797
C:\Users\CYMR90~1\AppData\Local\Temp\ccSmV8cy.s:24707  .debug_str:0000000000006ee0 .LASF798
C:\Users\CYMR90~1\AppData\Local\Temp\ccSmV8cy.s:33332  .debug_str:0000000000029197 .LASF799
C:\Users\CYMR90~1\AppData\Local\Temp\ccSmV8cy.s:24289  .debug_str:00000000000054fd .LASF800
C:\Users\CYMR90~1\AppData\Local\Temp\ccSmV8cy.s:29678  .debug_str:000000000001ab84 .LASF801
C:\Users\CYMR90~1\AppData\Local\Temp\ccSmV8cy.s:29710  .debug_str:000000000001ad6b .LASF802
C:\Users\CYMR90~1\AppData\Local\Temp\ccSmV8cy.s:25463  .debug_str:0000000000009f1c .LASF803
C:\Users\CYMR90~1\AppData\Local\Temp\ccSmV8cy.s:28027  .debug_str:0000000000014242 .LASF804
C:\Users\CYMR90~1\AppData\Local\Temp\ccSmV8cy.s:24721  .debug_str:0000000000006fa7 .LASF805
C:\Users\CYMR90~1\AppData\Local\Temp\ccSmV8cy.s:27481  .debug_str:0000000000011efd .LASF806
C:\Users\CYMR90~1\AppData\Local\Temp\ccSmV8cy.s:30688  .debug_str:000000000001eb99 .LASF807
C:\Users\CYMR90~1\AppData\Local\Temp\ccSmV8cy.s:30264  .debug_str:000000000001d01d .LASF808
C:\Users\CYMR90~1\AppData\Local\Temp\ccSmV8cy.s:32722  .debug_str:0000000000026a6a .LASF809
C:\Users\CYMR90~1\AppData\Local\Temp\ccSmV8cy.s:34204  .debug_str:000000000002c61d .LASF810
C:\Users\CYMR90~1\AppData\Local\Temp\ccSmV8cy.s:25139  .debug_str:0000000000008b6c .LASF811
C:\Users\CYMR90~1\AppData\Local\Temp\ccSmV8cy.s:24017  .debug_str:00000000000043b6 .LASF812
C:\Users\CYMR90~1\AppData\Local\Temp\ccSmV8cy.s:34240  .debug_str:000000000002c8f5 .LASF813
C:\Users\CYMR90~1\AppData\Local\Temp\ccSmV8cy.s:24391  .debug_str:0000000000005b58 .LASF814
C:\Users\CYMR90~1\AppData\Local\Temp\ccSmV8cy.s:24615  .debug_str:00000000000068ae .LASF815
C:\Users\CYMR90~1\AppData\Local\Temp\ccSmV8cy.s:30028  .debug_str:000000000001c112 .LASF816
C:\Users\CYMR90~1\AppData\Local\Temp\ccSmV8cy.s:25315  .debug_str:0000000000009620 .LASF817
C:\Users\CYMR90~1\AppData\Local\Temp\ccSmV8cy.s:30172  .debug_str:000000000001c9fb .LASF818
C:\Users\CYMR90~1\AppData\Local\Temp\ccSmV8cy.s:32638  .debug_str:0000000000026501 .LASF819
C:\Users\CYMR90~1\AppData\Local\Temp\ccSmV8cy.s:23123  .debug_str:0000000000000b8c .LASF820
C:\Users\CYMR90~1\AppData\Local\Temp\ccSmV8cy.s:33818  .debug_str:000000000002ae75 .LASF821
C:\Users\CYMR90~1\AppData\Local\Temp\ccSmV8cy.s:32296  .debug_str:0000000000024d86 .LASF822
C:\Users\CYMR90~1\AppData\Local\Temp\ccSmV8cy.s:25281  .debug_str:0000000000009412 .LASF823
C:\Users\CYMR90~1\AppData\Local\Temp\ccSmV8cy.s:28715  .debug_str:0000000000016ced .LASF824
C:\Users\CYMR90~1\AppData\Local\Temp\ccSmV8cy.s:30372  .debug_str:000000000001d844 .LASF825
C:\Users\CYMR90~1\AppData\Local\Temp\ccSmV8cy.s:28501  .debug_str:0000000000015f0b .LASF826
C:\Users\CYMR90~1\AppData\Local\Temp\ccSmV8cy.s:23905  .debug_str:0000000000003cc2 .LASF827
C:\Users\CYMR90~1\AppData\Local\Temp\ccSmV8cy.s:26773  .debug_str:000000000000f293 .LASF828
C:\Users\CYMR90~1\AppData\Local\Temp\ccSmV8cy.s:25471  .debug_str:0000000000009f7d .LASF829
C:\Users\CYMR90~1\AppData\Local\Temp\ccSmV8cy.s:32588  .debug_str:00000000000261c6 .LASF830
C:\Users\CYMR90~1\AppData\Local\Temp\ccSmV8cy.s:25923  .debug_str:000000000000bd89 .LASF831
C:\Users\CYMR90~1\AppData\Local\Temp\ccSmV8cy.s:26717  .debug_str:000000000000ef35 .LASF832
C:\Users\CYMR90~1\AppData\Local\Temp\ccSmV8cy.s:24477  .debug_str:0000000000006037 .LASF833
C:\Users\CYMR90~1\AppData\Local\Temp\ccSmV8cy.s:27375  .debug_str:0000000000011771 .LASF834
C:\Users\CYMR90~1\AppData\Local\Temp\ccSmV8cy.s:29190  .debug_str:0000000000018bb5 .LASF835
C:\Users\CYMR90~1\AppData\Local\Temp\ccSmV8cy.s:27281  .debug_str:00000000000111cf .LASF836
C:\Users\CYMR90~1\AppData\Local\Temp\ccSmV8cy.s:31150  .debug_str:00000000000207bb .LASF837
C:\Users\CYMR90~1\AppData\Local\Temp\ccSmV8cy.s:25183  .debug_str:0000000000008e1f .LASF838
C:\Users\CYMR90~1\AppData\Local\Temp\ccSmV8cy.s:24315  .debug_str:00000000000056b1 .LASF839
C:\Users\CYMR90~1\AppData\Local\Temp\ccSmV8cy.s:27171  .debug_str:0000000000010b17 .LASF840
C:\Users\CYMR90~1\AppData\Local\Temp\ccSmV8cy.s:26063  .debug_str:000000000000c6c4 .LASF841
C:\Users\CYMR90~1\AppData\Local\Temp\ccSmV8cy.s:30282  .debug_str:000000000001d159 .LASF842
C:\Users\CYMR90~1\AppData\Local\Temp\ccSmV8cy.s:23193  .debug_str:000000000000103e .LASF843
C:\Users\CYMR90~1\AppData\Local\Temp\ccSmV8cy.s:23547  .debug_str:00000000000025a8 .LASF844
C:\Users\CYMR90~1\AppData\Local\Temp\ccSmV8cy.s:32162  .debug_str:00000000000244bd .LASF845
C:\Users\CYMR90~1\AppData\Local\Temp\ccSmV8cy.s:22933  .debug_str:0000000000000068 .LASF846
C:\Users\CYMR90~1\AppData\Local\Temp\ccSmV8cy.s:24977  .debug_str:00000000000080fa .LASF847
C:\Users\CYMR90~1\AppData\Local\Temp\ccSmV8cy.s:30998  .debug_str:000000000001fe5a .LASF848
C:\Users\CYMR90~1\AppData\Local\Temp\ccSmV8cy.s:24941  .debug_str:0000000000007e22 .LASF849
C:\Users\CYMR90~1\AppData\Local\Temp\ccSmV8cy.s:26367  .debug_str:000000000000da0d .LASF852
C:\Users\CYMR90~1\AppData\Local\Temp\ccSmV8cy.s:33388  .debug_str:00000000000294fc .LASF853
C:\Users\CYMR90~1\AppData\Local\Temp\ccSmV8cy.s:28337  .debug_str:0000000000015596 .LASF854
C:\Users\CYMR90~1\AppData\Local\Temp\ccSmV8cy.s:31652  .debug_str:00000000000226ad .LASF856
C:\Users\CYMR90~1\AppData\Local\Temp\ccSmV8cy.s:30520  .debug_str:000000000001e16e .LASF857
C:\Users\CYMR90~1\AppData\Local\Temp\ccSmV8cy.s:33206  .debug_str:0000000000028869 .LASF858
C:\Users\CYMR90~1\AppData\Local\Temp\ccSmV8cy.s:26355  .debug_str:000000000000d93e .LASF859
C:\Users\CYMR90~1\AppData\Local\Temp\ccSmV8cy.s:27325  .debug_str:00000000000114a0 .LASF860
C:\Users\CYMR90~1\AppData\Local\Temp\ccSmV8cy.s:31580  .debug_str:0000000000022216 .LASF861
C:\Users\CYMR90~1\AppData\Local\Temp\ccSmV8cy.s:30724  .debug_str:000000000001ee2e .LASF862
C:\Users\CYMR90~1\AppData\Local\Temp\ccSmV8cy.s:23297  .debug_str:0000000000001605 .LASF863
C:\Users\CYMR90~1\AppData\Local\Temp\ccSmV8cy.s:23963  .debug_str:0000000000004032 .LASF864
C:\Users\CYMR90~1\AppData\Local\Temp\ccSmV8cy.s:24361  .debug_str:0000000000005991 .LASF865
C:\Users\CYMR90~1\AppData\Local\Temp\ccSmV8cy.s:25595  .debug_str:000000000000a791 .LASF866
C:\Users\CYMR90~1\AppData\Local\Temp\ccSmV8cy.s:25045  .debug_str:00000000000085fb .LASF867
C:\Users\CYMR90~1\AppData\Local\Temp\ccSmV8cy.s:30450  .debug_str:000000000001dcc9 .LASF868
C:\Users\CYMR90~1\AppData\Local\Temp\ccSmV8cy.s:31086  .debug_str:00000000000203c2 .LASF869
C:\Users\CYMR90~1\AppData\Local\Temp\ccSmV8cy.s:32174  .debug_str:0000000000024568 .LASF870
C:\Users\CYMR90~1\AppData\Local\Temp\ccSmV8cy.s:25219  .debug_str:0000000000009093 .LASF871
C:\Users\CYMR90~1\AppData\Local\Temp\ccSmV8cy.s:25673  .debug_str:000000000000ace1 .LASF872
C:\Users\CYMR90~1\AppData\Local\Temp\ccSmV8cy.s:30272  .debug_str:000000000001d0b5 .LASF873
C:\Users\CYMR90~1\AppData\Local\Temp\ccSmV8cy.s:32898  .debug_str:00000000000274de .LASF874
C:\Users\CYMR90~1\AppData\Local\Temp\ccSmV8cy.s:27551  .debug_str:00000000000123c5 .LASF875
C:\Users\CYMR90~1\AppData\Local\Temp\ccSmV8cy.s:28241  .debug_str:0000000000014f62 .LASF876
C:\Users\CYMR90~1\AppData\Local\Temp\ccSmV8cy.s:25469  .debug_str:0000000000009f6f .LASF877
C:\Users\CYMR90~1\AppData\Local\Temp\ccSmV8cy.s:29962  .debug_str:000000000001bd4c .LASF878
C:\Users\CYMR90~1\AppData\Local\Temp\ccSmV8cy.s:33666  .debug_str:000000000002a5fb .LASF879
C:\Users\CYMR90~1\AppData\Local\Temp\ccSmV8cy.s:28906  .debug_str:0000000000017a98 .LASF880
C:\Users\CYMR90~1\AppData\Local\Temp\ccSmV8cy.s:24291  .debug_str:0000000000005516 .LASF881
C:\Users\CYMR90~1\AppData\Local\Temp\ccSmV8cy.s:27769  .debug_str:00000000000131c5 .LASF882
C:\Users\CYMR90~1\AppData\Local\Temp\ccSmV8cy.s:30968  .debug_str:000000000001fccd .LASF883
C:\Users\CYMR90~1\AppData\Local\Temp\ccSmV8cy.s:31164  .debug_str:0000000000020892 .LASF884
C:\Users\CYMR90~1\AppData\Local\Temp\ccSmV8cy.s:34502  .debug_str:000000000002d98b .LASF885
C:\Users\CYMR90~1\AppData\Local\Temp\ccSmV8cy.s:29970  .debug_str:000000000001bdc6 .LASF886
C:\Users\CYMR90~1\AppData\Local\Temp\ccSmV8cy.s:25331  .debug_str:0000000000009708 .LASF887
C:\Users\CYMR90~1\AppData\Local\Temp\ccSmV8cy.s:32126  .debug_str:00000000000242cf .LASF888
C:\Users\CYMR90~1\AppData\Local\Temp\ccSmV8cy.s:27705  .debug_str:0000000000012d92 .LASF889
C:\Users\CYMR90~1\AppData\Local\Temp\ccSmV8cy.s:32058  .debug_str:0000000000023e51 .LASF890
C:\Users\CYMR90~1\AppData\Local\Temp\ccSmV8cy.s:24117  .debug_str:0000000000004ac1 .LASF891
C:\Users\CYMR90~1\AppData\Local\Temp\ccSmV8cy.s:26665  .debug_str:000000000000ec21 .LASF892
C:\Users\CYMR90~1\AppData\Local\Temp\ccSmV8cy.s:32838  .debug_str:000000000002717d .LASF893
C:\Users\CYMR90~1\AppData\Local\Temp\ccSmV8cy.s:32212  .debug_str:0000000000024791 .LASF894
C:\Users\CYMR90~1\AppData\Local\Temp\ccSmV8cy.s:23265  .debug_str:000000000000140c .LASF895
C:\Users\CYMR90~1\AppData\Local\Temp\ccSmV8cy.s:28093  .debug_str:0000000000014601 .LASF896
C:\Users\CYMR90~1\AppData\Local\Temp\ccSmV8cy.s:24203  .debug_str:0000000000005005 .LASF897
C:\Users\CYMR90~1\AppData\Local\Temp\ccSmV8cy.s:25457  .debug_str:0000000000009ec3 .LASF898
C:\Users\CYMR90~1\AppData\Local\Temp\ccSmV8cy.s:33148  .debug_str:0000000000028496 .LASF899
C:\Users\CYMR90~1\AppData\Local\Temp\ccSmV8cy.s:25789  .debug_str:000000000000b4dd .LASF900
C:\Users\CYMR90~1\AppData\Local\Temp\ccSmV8cy.s:30020  .debug_str:000000000001c08a .LASF901
C:\Users\CYMR90~1\AppData\Local\Temp\ccSmV8cy.s:33682  .debug_str:000000000002a6d2 .LASF902
C:\Users\CYMR90~1\AppData\Local\Temp\ccSmV8cy.s:32406  .debug_str:000000000002545d .LASF903
C:\Users\CYMR90~1\AppData\Local\Temp\ccSmV8cy.s:33294  .debug_str:0000000000028eb3 .LASF904
C:\Users\CYMR90~1\AppData\Local\Temp\ccSmV8cy.s:27755  .debug_str:00000000000130e0 .LASF905
C:\Users\CYMR90~1\AppData\Local\Temp\ccSmV8cy.s:25101  .debug_str:0000000000008950 .LASF906
C:\Users\CYMR90~1\AppData\Local\Temp\ccSmV8cy.s:33864  .debug_str:000000000002b188 .LASF907
C:\Users\CYMR90~1\AppData\Local\Temp\ccSmV8cy.s:30154  .debug_str:000000000001c8ed .LASF908
C:\Users\CYMR90~1\AppData\Local\Temp\ccSmV8cy.s:33120  .debug_str:00000000000282a8 .LASF909
C:\Users\CYMR90~1\AppData\Local\Temp\ccSmV8cy.s:27299  .debug_str:0000000000011337 .LASF910
C:\Users\CYMR90~1\AppData\Local\Temp\ccSmV8cy.s:23645  .debug_str:0000000000002c28 .LASF911
C:\Users\CYMR90~1\AppData\Local\Temp\ccSmV8cy.s:23235  .debug_str:000000000000128b .LASF912
C:\Users\CYMR90~1\AppData\Local\Temp\ccSmV8cy.s:31500  .debug_str:0000000000021d1b .LASF913
C:\Users\CYMR90~1\AppData\Local\Temp\ccSmV8cy.s:32386  .debug_str:0000000000025309 .LASF914
C:\Users\CYMR90~1\AppData\Local\Temp\ccSmV8cy.s:26191  .debug_str:000000000000cf1a .LASF915
C:\Users\CYMR90~1\AppData\Local\Temp\ccSmV8cy.s:26523  .debug_str:000000000000e30c .LASF916
C:\Users\CYMR90~1\AppData\Local\Temp\ccSmV8cy.s:27101  .debug_str:000000000001068e .LASF917
C:\Users\CYMR90~1\AppData\Local\Temp\ccSmV8cy.s:33940  .debug_str:000000000002b589 .LASF918
C:\Users\CYMR90~1\AppData\Local\Temp\ccSmV8cy.s:23221  .debug_str:00000000000011ac .LASF919
C:\Users\CYMR90~1\AppData\Local\Temp\ccSmV8cy.s:25775  .debug_str:000000000000b3dc .LASF920
C:\Users\CYMR90~1\AppData\Local\Temp\ccSmV8cy.s:32340  .debug_str:0000000000025012 .LASF921
C:\Users\CYMR90~1\AppData\Local\Temp\ccSmV8cy.s:29702  .debug_str:000000000001ace1 .LASF922
C:\Users\CYMR90~1\AppData\Local\Temp\ccSmV8cy.s:32878  .debug_str:00000000000273af .LASF923
C:\Users\CYMR90~1\AppData\Local\Temp\ccSmV8cy.s:28830  .debug_str:0000000000017633 .LASF924
C:\Users\CYMR90~1\AppData\Local\Temp\ccSmV8cy.s:23599  .debug_str:000000000000291d .LASF925
C:\Users\CYMR90~1\AppData\Local\Temp\ccSmV8cy.s:29916  .debug_str:000000000001ba9b .LASF926
C:\Users\CYMR90~1\AppData\Local\Temp\ccSmV8cy.s:23337  .debug_str:00000000000018f3 .LASF927
C:\Users\CYMR90~1\AppData\Local\Temp\ccSmV8cy.s:28269  .debug_str:00000000000150fc .LASF928
C:\Users\CYMR90~1\AppData\Local\Temp\ccSmV8cy.s:31032  .debug_str:0000000000020051 .LASF929
C:\Users\CYMR90~1\AppData\Local\Temp\ccSmV8cy.s:24605  .debug_str:0000000000006820 .LASF930
C:\Users\CYMR90~1\AppData\Local\Temp\ccSmV8cy.s:34428  .debug_str:000000000002d4fe .LASF931
C:\Users\CYMR90~1\AppData\Local\Temp\ccSmV8cy.s:34284  .debug_str:000000000002cb7d .LASF932
C:\Users\CYMR90~1\AppData\Local\Temp\ccSmV8cy.s:33660  .debug_str:000000000002a588 .LASF933
C:\Users\CYMR90~1\AppData\Local\Temp\ccSmV8cy.s:28631  .debug_str:00000000000167a2 .LASF934
C:\Users\CYMR90~1\AppData\Local\Temp\ccSmV8cy.s:29468  .debug_str:0000000000019d3f .LASF935
C:\Users\CYMR90~1\AppData\Local\Temp\ccSmV8cy.s:28507  .debug_str:0000000000015f66 .LASF936
C:\Users\CYMR90~1\AppData\Local\Temp\ccSmV8cy.s:32482  .debug_str:00000000000259d5 .LASF937
C:\Users\CYMR90~1\AppData\Local\Temp\ccSmV8cy.s:23143  .debug_str:0000000000000cd9 .LASF938
C:\Users\CYMR90~1\AppData\Local\Temp\ccSmV8cy.s:31308  .debug_str:000000000002117c .LASF939
C:\Users\CYMR90~1\AppData\Local\Temp\ccSmV8cy.s:32572  .debug_str:0000000000026049 .LASF940
C:\Users\CYMR90~1\AppData\Local\Temp\ccSmV8cy.s:25925  .debug_str:000000000000bda7 .LASF941
C:\Users\CYMR90~1\AppData\Local\Temp\ccSmV8cy.s:29690  .debug_str:000000000001ac28 .LASF942
C:\Users\CYMR90~1\AppData\Local\Temp\ccSmV8cy.s:26705  .debug_str:000000000000ee7e .LASF943
C:\Users\CYMR90~1\AppData\Local\Temp\ccSmV8cy.s:32702  .debug_str:000000000002691b .LASF944
C:\Users\CYMR90~1\AppData\Local\Temp\ccSmV8cy.s:30108  .debug_str:000000000001c65b .LASF945
C:\Users\CYMR90~1\AppData\Local\Temp\ccSmV8cy.s:26905  .debug_str:000000000000fa47 .LASF946
C:\Users\CYMR90~1\AppData\Local\Temp\ccSmV8cy.s:28982  .debug_str:0000000000017f26 .LASF947
C:\Users\CYMR90~1\AppData\Local\Temp\ccSmV8cy.s:33236  .debug_str:0000000000028aad .LASF948
C:\Users\CYMR90~1\AppData\Local\Temp\ccSmV8cy.s:27277  .debug_str:0000000000011191 .LASF949
C:\Users\CYMR90~1\AppData\Local\Temp\ccSmV8cy.s:26255  .debug_str:000000000000d2ac .LASF950
C:\Users\CYMR90~1\AppData\Local\Temp\ccSmV8cy.s:24789  .debug_str:0000000000007444 .LASF952
C:\Users\CYMR90~1\AppData\Local\Temp\ccSmV8cy.s:28429  .debug_str:0000000000015ae0 .LASF953
C:\Users\CYMR90~1\AppData\Local\Temp\ccSmV8cy.s:26293  .debug_str:000000000000d4f3 .LASF954
C:\Users\CYMR90~1\AppData\Local\Temp\ccSmV8cy.s:34418  .debug_str:000000000002d45d .LASF955
C:\Users\CYMR90~1\AppData\Local\Temp\ccSmV8cy.s:33560  .debug_str:0000000000029fa1 .LASF956
C:\Users\CYMR90~1\AppData\Local\Temp\ccSmV8cy.s:33648  .debug_str:000000000002a4ce .LASF960
C:\Users\CYMR90~1\AppData\Local\Temp\ccSmV8cy.s:25357  .debug_str:00000000000098db .LASF961
C:\Users\CYMR90~1\AppData\Local\Temp\ccSmV8cy.s:32908  .debug_str:0000000000027574 .LASF962
C:\Users\CYMR90~1\AppData\Local\Temp\ccSmV8cy.s:27523  .debug_str:0000000000012231 .LASF963
C:\Users\CYMR90~1\AppData\Local\Temp\ccSmV8cy.s:24815  .debug_str:0000000000007621 .LASF964
C:\Users\CYMR90~1\AppData\Local\Temp\ccSmV8cy.s:31682  .debug_str:0000000000022842 .LASF965
C:\Users\CYMR90~1\AppData\Local\Temp\ccSmV8cy.s:29908  .debug_str:000000000001b9f7 .LASF966
C:\Users\CYMR90~1\AppData\Local\Temp\ccSmV8cy.s:32846  .debug_str:00000000000271d5 .LASF967
C:\Users\CYMR90~1\AppData\Local\Temp\ccSmV8cy.s:33982  .debug_str:000000000002b804 .LASF968
C:\Users\CYMR90~1\AppData\Local\Temp\ccSmV8cy.s:24535  .debug_str:00000000000063d3 .LASF969
C:\Users\CYMR90~1\AppData\Local\Temp\ccSmV8cy.s:28131  .debug_str:0000000000014862 .LASF970
C:\Users\CYMR90~1\AppData\Local\Temp\ccSmV8cy.s:34074  .debug_str:000000000002bdd7 .LASF971
C:\Users\CYMR90~1\AppData\Local\Temp\ccSmV8cy.s:26715  .debug_str:000000000000ef0f .LASF972
C:\Users\CYMR90~1\AppData\Local\Temp\ccSmV8cy.s:26683  .debug_str:000000000000ed4f .LASF973
C:\Users\CYMR90~1\AppData\Local\Temp\ccSmV8cy.s:26317  .debug_str:000000000000d658 .LASF974
C:\Users\CYMR90~1\AppData\Local\Temp\ccSmV8cy.s:24481  .debug_str:0000000000006083 .LASF975
C:\Users\CYMR90~1\AppData\Local\Temp\ccSmV8cy.s:34456  .debug_str:000000000002d65f .LASF976
C:\Users\CYMR90~1\AppData\Local\Temp\ccSmV8cy.s:26249  .debug_str:000000000000d255 .LASF977
C:\Users\CYMR90~1\AppData\Local\Temp\ccSmV8cy.s:34488  .debug_str:000000000002d8f6 .LASF978
C:\Users\CYMR90~1\AppData\Local\Temp\ccSmV8cy.s:32684  .debug_str:00000000000267e2 .LASF979
C:\Users\CYMR90~1\AppData\Local\Temp\ccSmV8cy.s:32742  .debug_str:0000000000026ba0 .LASF980
C:\Users\CYMR90~1\AppData\Local\Temp\ccSmV8cy.s:26771  .debug_str:000000000000f279 .LASF981
C:\Users\CYMR90~1\AppData\Local\Temp\ccSmV8cy.s:24241  .debug_str:0000000000005233 .LASF982
C:\Users\CYMR90~1\AppData\Local\Temp\ccSmV8cy.s:27547  .debug_str:00000000000123a8 .LASF983
C:\Users\CYMR90~1\AppData\Local\Temp\ccSmV8cy.s:30348  .debug_str:000000000001d64e .LASF984
C:\Users\CYMR90~1\AppData\Local\Temp\ccSmV8cy.s:30362  .debug_str:000000000001d73a .LASF985
C:\Users\CYMR90~1\AppData\Local\Temp\ccSmV8cy.s:31974  .debug_str:00000000000239a5 .LASF986
C:\Users\CYMR90~1\AppData\Local\Temp\ccSmV8cy.s:28575  .debug_str:00000000000163c1 .LASF987
C:\Users\CYMR90~1\AppData\Local\Temp\ccSmV8cy.s:23667  .debug_str:0000000000002d69 .LASF988
C:\Users\CYMR90~1\AppData\Local\Temp\ccSmV8cy.s:31886  .debug_str:00000000000234a9 .LASF989
C:\Users\CYMR90~1\AppData\Local\Temp\ccSmV8cy.s:29286  .debug_str:0000000000019149 .LASF990
C:\Users\CYMR90~1\AppData\Local\Temp\ccSmV8cy.s:26245  .debug_str:000000000000d22d .LASF991
C:\Users\CYMR90~1\AppData\Local\Temp\ccSmV8cy.s:32848  .debug_str:00000000000271fd .LASF992
C:\Users\CYMR90~1\AppData\Local\Temp\ccSmV8cy.s:24835  .debug_str:000000000000774c .LASF993
C:\Users\CYMR90~1\AppData\Local\Temp\ccSmV8cy.s:32666  .debug_str:00000000000266c6 .LASF994
C:\Users\CYMR90~1\AppData\Local\Temp\ccSmV8cy.s:29374  .debug_str:00000000000197f1 .LASF995
C:\Users\CYMR90~1\AppData\Local\Temp\ccSmV8cy.s:33466  .debug_str:00000000000299a5 .LASF996
C:\Users\CYMR90~1\AppData\Local\Temp\ccSmV8cy.s:30564  .debug_str:000000000001e3dc .LASF997
C:\Users\CYMR90~1\AppData\Local\Temp\ccSmV8cy.s:30632  .debug_str:000000000001e875 .LASF998
C:\Users\CYMR90~1\AppData\Local\Temp\ccSmV8cy.s:23557  .debug_str:0000000000002630 .LASF999
C:\Users\CYMR90~1\AppData\Local\Temp\ccSmV8cy.s:23911  .debug_str:0000000000003d1a .LASF1000
C:\Users\CYMR90~1\AppData\Local\Temp\ccSmV8cy.s:32312  .debug_str:0000000000024e74 .LASF1001
C:\Users\CYMR90~1\AppData\Local\Temp\ccSmV8cy.s:27111  .debug_str:0000000000010792 .LASF1002
C:\Users\CYMR90~1\AppData\Local\Temp\ccSmV8cy.s:24195  .debug_str:0000000000004fac .LASF1003
C:\Users\CYMR90~1\AppData\Local\Temp\ccSmV8cy.s:30156  .debug_str:000000000001c918 .LASF1004
C:\Users\CYMR90~1\AppData\Local\Temp\ccSmV8cy.s:27497  .debug_str:0000000000012009 .LASF1005
C:\Users\CYMR90~1\AppData\Local\Temp\ccSmV8cy.s:26205  .debug_str:000000000000cff5 .LASF1006
C:\Users\CYMR90~1\AppData\Local\Temp\ccSmV8cy.s:34170  .debug_str:000000000002c439 .LASF1007
C:\Users\CYMR90~1\AppData\Local\Temp\ccSmV8cy.s:31676  .debug_str:00000000000227f6 .LASF1008
C:\Users\CYMR90~1\AppData\Local\Temp\ccSmV8cy.s:29064  .debug_str:0000000000018418 .LASF1009
C:\Users\CYMR90~1\AppData\Local\Temp\ccSmV8cy.s:29214  .debug_str:0000000000018d03 .LASF1010
C:\Users\CYMR90~1\AppData\Local\Temp\ccSmV8cy.s:26539  .debug_str:000000000000e424 .LASF1011
C:\Users\CYMR90~1\AppData\Local\Temp\ccSmV8cy.s:30418  .debug_str:000000000001dae2 .LASF1012
C:\Users\CYMR90~1\AppData\Local\Temp\ccSmV8cy.s:31890  .debug_str:00000000000234d4 .LASF1013
C:\Users\CYMR90~1\AppData\Local\Temp\ccSmV8cy.s:29486  .debug_str:0000000000019ec3 .LASF1014
C:\Users\CYMR90~1\AppData\Local\Temp\ccSmV8cy.s:23909  .debug_str:0000000000003d04 .LASF1015
C:\Users\CYMR90~1\AppData\Local\Temp\ccSmV8cy.s:24399  .debug_str:0000000000005baf .LASF1016
C:\Users\CYMR90~1\AppData\Local\Temp\ccSmV8cy.s:24351  .debug_str:00000000000058e6 .LASF1017
C:\Users\CYMR90~1\AppData\Local\Temp\ccSmV8cy.s:33006  .debug_str:0000000000027b8a .LASF1018
C:\Users\CYMR90~1\AppData\Local\Temp\ccSmV8cy.s:26779  .debug_str:000000000000f2e6 .LASF1019
C:\Users\CYMR90~1\AppData\Local\Temp\ccSmV8cy.s:23553  .debug_str:00000000000025fd .LASF1020
C:\Users\CYMR90~1\AppData\Local\Temp\ccSmV8cy.s:29100  .debug_str:000000000001865b .LASF1021
C:\Users\CYMR90~1\AppData\Local\Temp\ccSmV8cy.s:26061  .debug_str:000000000000c6ac .LASF1022
C:\Users\CYMR90~1\AppData\Local\Temp\ccSmV8cy.s:32928  .debug_str:000000000002766e .LASF1023
C:\Users\CYMR90~1\AppData\Local\Temp\ccSmV8cy.s:25265  .debug_str:0000000000009355 .LASF1024
C:\Users\CYMR90~1\AppData\Local\Temp\ccSmV8cy.s:27821  .debug_str:00000000000134f6 .LASF1025
C:\Users\CYMR90~1\AppData\Local\Temp\ccSmV8cy.s:27303  .debug_str:0000000000011378 .LASF1026
C:\Users\CYMR90~1\AppData\Local\Temp\ccSmV8cy.s:28261  .debug_str:0000000000015048 .LASF1027
C:\Users\CYMR90~1\AppData\Local\Temp\ccSmV8cy.s:30498  .debug_str:000000000001dff2 .LASF1028
C:\Users\CYMR90~1\AppData\Local\Temp\ccSmV8cy.s:30888  .debug_str:000000000001f7ac .LASF1029
C:\Users\CYMR90~1\AppData\Local\Temp\ccSmV8cy.s:32188  .debug_str:0000000000024641 .LASF1030
C:\Users\CYMR90~1\AppData\Local\Temp\ccSmV8cy.s:31264  .debug_str:0000000000020ee6 .LASF1031
C:\Users\CYMR90~1\AppData\Local\Temp\ccSmV8cy.s:33562  .debug_str:000000000002a009 .LASF1032
C:\Users\CYMR90~1\AppData\Local\Temp\ccSmV8cy.s:25415  .debug_str:0000000000009c52 .LASF1033
C:\Users\CYMR90~1\AppData\Local\Temp\ccSmV8cy.s:24249  .debug_str:00000000000052a7 .LASF1034
C:\Users\CYMR90~1\AppData\Local\Temp\ccSmV8cy.s:29418  .debug_str:0000000000019a72 .LASF1035
C:\Users\CYMR90~1\AppData\Local\Temp\ccSmV8cy.s:32014  .debug_str:0000000000023baf .LASF1036
C:\Users\CYMR90~1\AppData\Local\Temp\ccSmV8cy.s:31988  .debug_str:0000000000023a3c .LASF1037
C:\Users\CYMR90~1\AppData\Local\Temp\ccSmV8cy.s:26943  .debug_str:000000000000fd1e .LASF1038
C:\Users\CYMR90~1\AppData\Local\Temp\ccSmV8cy.s:30604  .debug_str:000000000001e6ec .LASF1039
C:\Users\CYMR90~1\AppData\Local\Temp\ccSmV8cy.s:28445  .debug_str:0000000000015c06 .LASF1040
C:\Users\CYMR90~1\AppData\Local\Temp\ccSmV8cy.s:26857  .debug_str:000000000000f78c .LASF1041
C:\Users\CYMR90~1\AppData\Local\Temp\ccSmV8cy.s:32732  .debug_str:0000000000026b07 .LASF1042
C:\Users\CYMR90~1\AppData\Local\Temp\ccSmV8cy.s:27313  .debug_str:00000000000113f6 .LASF1043
C:\Users\CYMR90~1\AppData\Local\Temp\ccSmV8cy.s:22953  .debug_str:000000000000019a .LASF1044
C:\Users\CYMR90~1\AppData\Local\Temp\ccSmV8cy.s:25275  .debug_str:00000000000093c2 .LASF1045
C:\Users\CYMR90~1\AppData\Local\Temp\ccSmV8cy.s:29614  .debug_str:000000000001a688 .LASF1046
C:\Users\CYMR90~1\AppData\Local\Temp\ccSmV8cy.s:28697  .debug_str:0000000000016b5f .LASF1047
C:\Users\CYMR90~1\AppData\Local\Temp\ccSmV8cy.s:32036  .debug_str:0000000000023cfb .LASF1048
C:\Users\CYMR90~1\AppData\Local\Temp\ccSmV8cy.s:30854  .debug_str:000000000001f588 .LASF1049
C:\Users\CYMR90~1\AppData\Local\Temp\ccSmV8cy.s:23743  .debug_str:0000000000003247 .LASF1050
C:\Users\CYMR90~1\AppData\Local\Temp\ccSmV8cy.s:23895  .debug_str:0000000000003c4d .LASF1051
C:\Users\CYMR90~1\AppData\Local\Temp\ccSmV8cy.s:31070  .debug_str:00000000000202a5 .LASF1052
C:\Users\CYMR90~1\AppData\Local\Temp\ccSmV8cy.s:25787  .debug_str:000000000000b4cb .LASF1053
C:\Users\CYMR90~1\AppData\Local\Temp\ccSmV8cy.s:31932  .debug_str:0000000000023730 .LASF1054
C:\Users\CYMR90~1\AppData\Local\Temp\ccSmV8cy.s:27795  .debug_str:0000000000013354 .LASF1055
C:\Users\CYMR90~1\AppData\Local\Temp\ccSmV8cy.s:26711  .debug_str:000000000000eebd .LASF1056
C:\Users\CYMR90~1\AppData\Local\Temp\ccSmV8cy.s:33188  .debug_str:0000000000028756 .LASF1057
C:\Users\CYMR90~1\AppData\Local\Temp\ccSmV8cy.s:33774  .debug_str:000000000002abe3 .LASF1058
C:\Users\CYMR90~1\AppData\Local\Temp\ccSmV8cy.s:32478  .debug_str:0000000000025992 .LASF1059
C:\Users\CYMR90~1\AppData\Local\Temp\ccSmV8cy.s:25607  .debug_str:000000000000a831 .LASF1060
C:\Users\CYMR90~1\AppData\Local\Temp\ccSmV8cy.s:25079  .debug_str:0000000000008822 .LASF1061
C:\Users\CYMR90~1\AppData\Local\Temp\ccSmV8cy.s:23105  .debug_str:0000000000000a34 .LASF1062
C:\Users\CYMR90~1\AppData\Local\Temp\ccSmV8cy.s:28167  .debug_str:0000000000014a63 .LASF1063
C:\Users\CYMR90~1\AppData\Local\Temp\ccSmV8cy.s:23959  .debug_str:0000000000003ffe .LASF1064
C:\Users\CYMR90~1\AppData\Local\Temp\ccSmV8cy.s:23037  .debug_str:000000000000068e .LASF1065
C:\Users\CYMR90~1\AppData\Local\Temp\ccSmV8cy.s:34496  .debug_str:000000000002d94f .LASF1066
C:\Users\CYMR90~1\AppData\Local\Temp\ccSmV8cy.s:32316  .debug_str:0000000000024eac .LASF1067
C:\Users\CYMR90~1\AppData\Local\Temp\ccSmV8cy.s:28765  .debug_str:0000000000017003 .LASF1068
C:\Users\CYMR90~1\AppData\Local\Temp\ccSmV8cy.s:30380  .debug_str:000000000001d8a3 .LASF1069
C:\Users\CYMR90~1\AppData\Local\Temp\ccSmV8cy.s:23157  .debug_str:0000000000000d93 .LASF1070
C:\Users\CYMR90~1\AppData\Local\Temp\ccSmV8cy.s:25549  .debug_str:000000000000a4aa .LASF1071
C:\Users\CYMR90~1\AppData\Local\Temp\ccSmV8cy.s:31836  .debug_str:0000000000023163 .LASF1072
C:\Users\CYMR90~1\AppData\Local\Temp\ccSmV8cy.s:30344  .debug_str:000000000001d60c .LASF1073
C:\Users\CYMR90~1\AppData\Local\Temp\ccSmV8cy.s:33432  .debug_str:000000000002973f .LASF1074
C:\Users\CYMR90~1\AppData\Local\Temp\ccSmV8cy.s:28914  .debug_str:0000000000017af9 .LASF1075
C:\Users\CYMR90~1\AppData\Local\Temp\ccSmV8cy.s:23593  .debug_str:00000000000028cd .LASF1076
C:\Users\CYMR90~1\AppData\Local\Temp\ccSmV8cy.s:34226  .debug_str:000000000002c7a6 .LASF1077
C:\Users\CYMR90~1\AppData\Local\Temp\ccSmV8cy.s:24573  .debug_str:000000000000663b .LASF1078
C:\Users\CYMR90~1\AppData\Local\Temp\ccSmV8cy.s:31306  .debug_str:000000000002116a .LASF1079
C:\Users\CYMR90~1\AppData\Local\Temp\ccSmV8cy.s:31398  .debug_str:00000000000216cb .LASF1080
C:\Users\CYMR90~1\AppData\Local\Temp\ccSmV8cy.s:30132  .debug_str:000000000001c7b0 .LASF1081
C:\Users\CYMR90~1\AppData\Local\Temp\ccSmV8cy.s:33038  .debug_str:0000000000027e16 .LASF1082
C:\Users\CYMR90~1\AppData\Local\Temp\ccSmV8cy.s:28373  .debug_str:00000000000157b9 .LASF1083
C:\Users\CYMR90~1\AppData\Local\Temp\ccSmV8cy.s:31522  .debug_str:0000000000021e7b .LASF1084
C:\Users\CYMR90~1\AppData\Local\Temp\ccSmV8cy.s:24269  .debug_str:00000000000053ce .LASF1085
C:\Users\CYMR90~1\AppData\Local\Temp\ccSmV8cy.s:23373  .debug_str:0000000000001b6e .LASF1086
C:\Users\CYMR90~1\AppData\Local\Temp\ccSmV8cy.s:26587  .debug_str:000000000000e6f8 .LASF1087
C:\Users\CYMR90~1\AppData\Local\Temp\ccSmV8cy.s:32740  .debug_str:0000000000026b91 .LASF1088
C:\Users\CYMR90~1\AppData\Local\Temp\ccSmV8cy.s:31832  .debug_str:0000000000023131 .LASF1089
C:\Users\CYMR90~1\AppData\Local\Temp\ccSmV8cy.s:23213  .debug_str:000000000000112a .LASF1090
C:\Users\CYMR90~1\AppData\Local\Temp\ccSmV8cy.s:34414  .debug_str:000000000002d405 .LASF1091
C:\Users\CYMR90~1\AppData\Local\Temp\ccSmV8cy.s:33146  .debug_str:000000000002847e .LASF1092
C:\Users\CYMR90~1\AppData\Local\Temp\ccSmV8cy.s:26923  .debug_str:000000000000fb3b .LASF1093
C:\Users\CYMR90~1\AppData\Local\Temp\ccSmV8cy.s:32782  .debug_str:0000000000026ddf .LASF1094
C:\Users\CYMR90~1\AppData\Local\Temp\ccSmV8cy.s:28461  .debug_str:0000000000015cb1 .LASF1095
C:\Users\CYMR90~1\AppData\Local\Temp\ccSmV8cy.s:29938  .debug_str:000000000001bbea .LASF1096
C:\Users\CYMR90~1\AppData\Local\Temp\ccSmV8cy.s:30502  .debug_str:000000000001e044 .LASF1097
C:\Users\CYMR90~1\AppData\Local\Temp\ccSmV8cy.s:24561  .debug_str:0000000000006588 .LASF1098
C:\Users\CYMR90~1\AppData\Local\Temp\ccSmV8cy.s:27817  .debug_str:00000000000134a9 .LASF1099
C:\Users\CYMR90~1\AppData\Local\Temp\ccSmV8cy.s:27105  .debug_str:0000000000010710 .LASF1100
C:\Users\CYMR90~1\AppData\Local\Temp\ccSmV8cy.s:32112  .debug_str:00000000000241df .LASF1101
C:\Users\CYMR90~1\AppData\Local\Temp\ccSmV8cy.s:26263  .debug_str:000000000000d314 .LASF1102
C:\Users\CYMR90~1\AppData\Local\Temp\ccSmV8cy.s:31772  .debug_str:0000000000022d52 .LASF1103
C:\Users\CYMR90~1\AppData\Local\Temp\ccSmV8cy.s:33382  .debug_str:00000000000294aa .LASF1104
C:\Users\CYMR90~1\AppData\Local\Temp\ccSmV8cy.s:31198  .debug_str:0000000000020a7e .LASF1105
C:\Users\CYMR90~1\AppData\Local\Temp\ccSmV8cy.s:27995  .debug_str:000000000001403f .LASF1106
C:\Users\CYMR90~1\AppData\Local\Temp\ccSmV8cy.s:24375  .debug_str:0000000000005a3b .LASF1107
C:\Users\CYMR90~1\AppData\Local\Temp\ccSmV8cy.s:29850  .debug_str:000000000001b61f .LASF1108
C:\Users\CYMR90~1\AppData\Local\Temp\ccSmV8cy.s:31438  .debug_str:00000000000218f9 .LASF1109
C:\Users\CYMR90~1\AppData\Local\Temp\ccSmV8cy.s:25579  .debug_str:000000000000a6a0 .LASF1110
C:\Users\CYMR90~1\AppData\Local\Temp\ccSmV8cy.s:23429  .debug_str:0000000000001ee4 .LASF1111
C:\Users\CYMR90~1\AppData\Local\Temp\ccSmV8cy.s:24667  .debug_str:0000000000006c25 .LASF1112
C:\Users\CYMR90~1\AppData\Local\Temp\ccSmV8cy.s:25813  .debug_str:000000000000b664 .LASF1113
C:\Users\CYMR90~1\AppData\Local\Temp\ccSmV8cy.s:24319  .debug_str:00000000000056d9 .LASF1114
C:\Users\CYMR90~1\AppData\Local\Temp\ccSmV8cy.s:25361  .debug_str:0000000000009902 .LASF1115
C:\Users\CYMR90~1\AppData\Local\Temp\ccSmV8cy.s:33228  .debug_str:0000000000028a20 .LASF1116
C:\Users\CYMR90~1\AppData\Local\Temp\ccSmV8cy.s:33726  .debug_str:000000000002a921 .LASF1117
C:\Users\CYMR90~1\AppData\Local\Temp\ccSmV8cy.s:24479  .debug_str:0000000000006061 .LASF1118
C:\Users\CYMR90~1\AppData\Local\Temp\ccSmV8cy.s:29080  .debug_str:000000000001852d .LASF1119
C:\Users\CYMR90~1\AppData\Local\Temp\ccSmV8cy.s:25043  .debug_str:00000000000085de .LASF1120
C:\Users\CYMR90~1\AppData\Local\Temp\ccSmV8cy.s:25257  .debug_str:00000000000092dc .LASF1121
C:\Users\CYMR90~1\AppData\Local\Temp\ccSmV8cy.s:27925  .debug_str:0000000000013bfb .LASF1122
C:\Users\CYMR90~1\AppData\Local\Temp\ccSmV8cy.s:27575  .debug_str:0000000000012514 .LASF1123
C:\Users\CYMR90~1\AppData\Local\Temp\ccSmV8cy.s:26565  .debug_str:000000000000e5b8 .LASF1124
C:\Users\CYMR90~1\AppData\Local\Temp\ccSmV8cy.s:28379  .debug_str:000000000001580e .LASF1125
C:\Users\CYMR90~1\AppData\Local\Temp\ccSmV8cy.s:28481  .debug_str:0000000000015de6 .LASF1126
C:\Users\CYMR90~1\AppData\Local\Temp\ccSmV8cy.s:31918  .debug_str:0000000000023659 .LASF1127
C:\Users\CYMR90~1\AppData\Local\Temp\ccSmV8cy.s:33036  .debug_str:0000000000027e01 .LASF1128
C:\Users\CYMR90~1\AppData\Local\Temp\ccSmV8cy.s:24365  .debug_str:00000000000059ab .LASF1129
C:\Users\CYMR90~1\AppData\Local\Temp\ccSmV8cy.s:28479  .debug_str:0000000000015dd1 .LASF1130
C:\Users\CYMR90~1\AppData\Local\Temp\ccSmV8cy.s:33558  .debug_str:0000000000029f8c .LASF1131
C:\Users\CYMR90~1\AppData\Local\Temp\ccSmV8cy.s:33974  .debug_str:000000000002b7a1 .LASF1132
C:\Users\CYMR90~1\AppData\Local\Temp\ccSmV8cy.s:29184  .debug_str:0000000000018b30 .LASF1133
C:\Users\CYMR90~1\AppData\Local\Temp\ccSmV8cy.s:32082  .debug_str:0000000000023ff1 .LASF1134
C:\Users\CYMR90~1\AppData\Local\Temp\ccSmV8cy.s:24929  .debug_str:0000000000007d8a .LASF1135
C:\Users\CYMR90~1\AppData\Local\Temp\ccSmV8cy.s:24139  .debug_str:0000000000004c0b .LASF1136
C:\Users\CYMR90~1\AppData\Local\Temp\ccSmV8cy.s:23965  .debug_str:000000000000403d .LASF1137
C:\Users\CYMR90~1\AppData\Local\Temp\ccSmV8cy.s:33568  .debug_str:000000000002a068 .LASF1138
C:\Users\CYMR90~1\AppData\Local\Temp\ccSmV8cy.s:23071  .debug_str:0000000000000849 .LASF1139
C:\Users\CYMR90~1\AppData\Local\Temp\ccSmV8cy.s:33554  .debug_str:0000000000029f5f .LASF1140
C:\Users\CYMR90~1\AppData\Local\Temp\ccSmV8cy.s:23009  .debug_str:000000000000050d .LASF1141
C:\Users\CYMR90~1\AppData\Local\Temp\ccSmV8cy.s:27607  .debug_str:000000000001273b .LASF1142
C:\Users\CYMR90~1\AppData\Local\Temp\ccSmV8cy.s:26593  .debug_str:000000000000e76b .LASF1143
C:\Users\CYMR90~1\AppData\Local\Temp\ccSmV8cy.s:33090  .debug_str:00000000000280d5 .LASF1144
C:\Users\CYMR90~1\AppData\Local\Temp\ccSmV8cy.s:31242  .debug_str:0000000000020d1e .LASF1145
C:\Users\CYMR90~1\AppData\Local\Temp\ccSmV8cy.s:26093  .debug_str:000000000000c88b .LASF1146
C:\Users\CYMR90~1\AppData\Local\Temp\ccSmV8cy.s:34410  .debug_str:000000000002d3c3 .LASF1147
C:\Users\CYMR90~1\AppData\Local\Temp\ccSmV8cy.s:28938  .debug_str:0000000000017c51 .LASF1148
C:\Users\CYMR90~1\AppData\Local\Temp\ccSmV8cy.s:29194  .debug_str:0000000000018c03 .LASF1149
C:\Users\CYMR90~1\AppData\Local\Temp\ccSmV8cy.s:29960  .debug_str:000000000001bd11 .LASF1150
C:\Users\CYMR90~1\AppData\Local\Temp\ccSmV8cy.s:23431  .debug_str:0000000000001f02 .LASF1151
C:\Users\CYMR90~1\AppData\Local\Temp\ccSmV8cy.s:30404  .debug_str:000000000001da1d .LASF1152
C:\Users\CYMR90~1\AppData\Local\Temp\ccSmV8cy.s:25389  .debug_str:0000000000009a56 .LASF1153
C:\Users\CYMR90~1\AppData\Local\Temp\ccSmV8cy.s:31536  .debug_str:0000000000021f2d .LASF1154
C:\Users\CYMR90~1\AppData\Local\Temp\ccSmV8cy.s:30762  .debug_str:000000000001f063 .LASF1155
C:\Users\CYMR90~1\AppData\Local\Temp\ccSmV8cy.s:28289  .debug_str:000000000001521f .LASF1156
C:\Users\CYMR90~1\AppData\Local\Temp\ccSmV8cy.s:30600  .debug_str:000000000001e69c .LASF1157
C:\Users\CYMR90~1\AppData\Local\Temp\ccSmV8cy.s:25835  .debug_str:000000000000b766 .LASF1158
C:\Users\CYMR90~1\AppData\Local\Temp\ccSmV8cy.s:33746  .debug_str:000000000002aa79 .LASF1159
C:\Users\CYMR90~1\AppData\Local\Temp\ccSmV8cy.s:23321  .debug_str:0000000000001783 .LASF1160
C:\Users\CYMR90~1\AppData\Local\Temp\ccSmV8cy.s:33828  .debug_str:000000000002af5e .LASF1161
C:\Users\CYMR90~1\AppData\Local\Temp\ccSmV8cy.s:33506  .debug_str:0000000000029bf9 .LASF1162
C:\Users\CYMR90~1\AppData\Local\Temp\ccSmV8cy.s:30488  .debug_str:000000000001df86 .LASF1163
C:\Users\CYMR90~1\AppData\Local\Temp\ccSmV8cy.s:29580  .debug_str:000000000001a4a0 .LASF1164
C:\Users\CYMR90~1\AppData\Local\Temp\ccSmV8cy.s:26401  .debug_str:000000000000dc2e .LASF1165
C:\Users\CYMR90~1\AppData\Local\Temp\ccSmV8cy.s:31168  .debug_str:00000000000208ce .LASF1166
C:\Users\CYMR90~1\AppData\Local\Temp\ccSmV8cy.s:27309  .debug_str:00000000000113c8 .LASF1167
C:\Users\CYMR90~1\AppData\Local\Temp\ccSmV8cy.s:25387  .debug_str:0000000000009a4c .LASF1168
C:\Users\CYMR90~1\AppData\Local\Temp\ccSmV8cy.s:28421  .debug_str:0000000000015a89 .LASF1169
C:\Users\CYMR90~1\AppData\Local\Temp\ccSmV8cy.s:29794  .debug_str:000000000001b2e0 .LASF1170
C:\Users\CYMR90~1\AppData\Local\Temp\ccSmV8cy.s:29488  .debug_str:0000000000019eda .LASF1171
C:\Users\CYMR90~1\AppData\Local\Temp\ccSmV8cy.s:33768  .debug_str:000000000002abb1 .LASF1172
C:\Users\CYMR90~1\AppData\Local\Temp\ccSmV8cy.s:28709  .debug_str:0000000000016c0a .LASF1173
C:\Users\CYMR90~1\AppData\Local\Temp\ccSmV8cy.s:23141  .debug_str:0000000000000ccb .LASF1174
C:\Users\CYMR90~1\AppData\Local\Temp\ccSmV8cy.s:23533  .debug_str:00000000000024bd .LASF1175
C:\Users\CYMR90~1\AppData\Local\Temp\ccSmV8cy.s:27899  .debug_str:0000000000013a6b .LASF1176
C:\Users\CYMR90~1\AppData\Local\Temp\ccSmV8cy.s:26201  .debug_str:000000000000cfc5 .LASF1177
C:\Users\CYMR90~1\AppData\Local\Temp\ccSmV8cy.s:30550  .debug_str:000000000001e32b .LASF1178
C:\Users\CYMR90~1\AppData\Local\Temp\ccSmV8cy.s:26825  .debug_str:000000000000f576 .LASF1179
C:\Users\CYMR90~1\AppData\Local\Temp\ccSmV8cy.s:26387  .debug_str:000000000000db7f .LASF1180
C:\Users\CYMR90~1\AppData\Local\Temp\ccSmV8cy.s:32274  .debug_str:0000000000024c22 .LASF1181
C:\Users\CYMR90~1\AppData\Local\Temp\ccSmV8cy.s:25193  .debug_str:0000000000008eb0 .LASF1182
C:\Users\CYMR90~1\AppData\Local\Temp\ccSmV8cy.s:23709  .debug_str:0000000000002ffd .LASF1183
C:\Users\CYMR90~1\AppData\Local\Temp\ccSmV8cy.s:30876  .debug_str:000000000001f6e1 .LASF1184
C:\Users\CYMR90~1\AppData\Local\Temp\ccSmV8cy.s:31334  .debug_str:0000000000021313 .LASF1185
C:\Users\CYMR90~1\AppData\Local\Temp\ccSmV8cy.s:32520  .debug_str:0000000000025cc3 .LASF1186
C:\Users\CYMR90~1\AppData\Local\Temp\ccSmV8cy.s:26315  .debug_str:000000000000d644 .LASF1187
C:\Users\CYMR90~1\AppData\Local\Temp\ccSmV8cy.s:30636  .debug_str:000000000001e8ae .LASF1188
C:\Users\CYMR90~1\AppData\Local\Temp\ccSmV8cy.s:31884  .debug_str:0000000000023495 .LASF1189
C:\Users\CYMR90~1\AppData\Local\Temp\ccSmV8cy.s:24933  .debug_str:0000000000007dbb .LASF1190
C:\Users\CYMR90~1\AppData\Local\Temp\ccSmV8cy.s:31866  .debug_str:0000000000023313 .LASF1191
C:\Users\CYMR90~1\AppData\Local\Temp\ccSmV8cy.s:26179  .debug_str:000000000000ce4e .LASF1192
C:\Users\CYMR90~1\AppData\Local\Temp\ccSmV8cy.s:31524  .debug_str:0000000000021e8d .LASF1193
C:\Users\CYMR90~1\AppData\Local\Temp\ccSmV8cy.s:26433  .debug_str:000000000000dde4 .LASF1194
C:\Users\CYMR90~1\AppData\Local\Temp\ccSmV8cy.s:30060  .debug_str:000000000001c310 .LASF1195
C:\Users\CYMR90~1\AppData\Local\Temp\ccSmV8cy.s:28045  .debug_str:0000000000014356 .LASF1196
C:\Users\CYMR90~1\AppData\Local\Temp\ccSmV8cy.s:31560  .debug_str:00000000000220fa .LASF1197
C:\Users\CYMR90~1\AppData\Local\Temp\ccSmV8cy.s:33766  .debug_str:000000000002aba2 .LASF1198
C:\Users\CYMR90~1\AppData\Local\Temp\ccSmV8cy.s:28733  .debug_str:0000000000016e00 .LASF1199
C:\Users\CYMR90~1\AppData\Local\Temp\ccSmV8cy.s:33772  .debug_str:000000000002abd8 .LASF1200
C:\Users\CYMR90~1\AppData\Local\Temp\ccSmV8cy.s:25645  .debug_str:000000000000aa30 .LASF1201
C:\Users\CYMR90~1\AppData\Local\Temp\ccSmV8cy.s:25291  .debug_str:00000000000094cf .LASF1202
C:\Users\CYMR90~1\AppData\Local\Temp\ccSmV8cy.s:28926  .debug_str:0000000000017bb8 .LASF1203
C:\Users\CYMR90~1\AppData\Local\Temp\ccSmV8cy.s:32864  .debug_str:00000000000272e7 .LASF1204
C:\Users\CYMR90~1\AppData\Local\Temp\ccSmV8cy.s:27953  .debug_str:0000000000013dc7 .LASF1205
C:\Users\CYMR90~1\AppData\Local\Temp\ccSmV8cy.s:26989  .debug_str:000000000000ff96 .LASF1206
C:\Users\CYMR90~1\AppData\Local\Temp\ccSmV8cy.s:33742  .debug_str:000000000002aa47 .LASF1207
C:\Users\CYMR90~1\AppData\Local\Temp\ccSmV8cy.s:32368  .debug_str:0000000000025226 .LASF1208
C:\Users\CYMR90~1\AppData\Local\Temp\ccSmV8cy.s:26915  .debug_str:000000000000fade .LASF1209
C:\Users\CYMR90~1\AppData\Local\Temp\ccSmV8cy.s:24263  .debug_str:0000000000005366 .LASF1210
C:\Users\CYMR90~1\AppData\Local\Temp\ccSmV8cy.s:24367  .debug_str:00000000000059c1 .LASF1211
C:\Users\CYMR90~1\AppData\Local\Temp\ccSmV8cy.s:25085  .debug_str:0000000000008870 .LASF1212
C:\Users\CYMR90~1\AppData\Local\Temp\ccSmV8cy.s:24661  .debug_str:0000000000006ba5 .LASF1213
C:\Users\CYMR90~1\AppData\Local\Temp\ccSmV8cy.s:23543  .debug_str:0000000000002579 .LASF1214
C:\Users\CYMR90~1\AppData\Local\Temp\ccSmV8cy.s:25431  .debug_str:0000000000009d5f .LASF1215
C:\Users\CYMR90~1\AppData\Local\Temp\ccSmV8cy.s:23481  .debug_str:00000000000021b2 .LASF1216
C:\Users\CYMR90~1\AppData\Local\Temp\ccSmV8cy.s:31984  .debug_str:0000000000023a0f .LASF1217
C:\Users\CYMR90~1\AppData\Local\Temp\ccSmV8cy.s:31998  .debug_str:0000000000023ab4 .LASF1218
C:\Users\CYMR90~1\AppData\Local\Temp\ccSmV8cy.s:32424  .debug_str:00000000000255c7 .LASF1219
C:\Users\CYMR90~1\AppData\Local\Temp\ccSmV8cy.s:29942  .debug_str:000000000001bc1e .LASF1220
C:\Users\CYMR90~1\AppData\Local\Temp\ccSmV8cy.s:26477  .debug_str:000000000000e04d .LASF1221
C:\Users\CYMR90~1\AppData\Local\Temp\ccSmV8cy.s:28223  .debug_str:0000000000014e30 .LASF1222
C:\Users\CYMR90~1\AppData\Local\Temp\ccSmV8cy.s:23727  .debug_str:0000000000003113 .LASF1223
C:\Users\CYMR90~1\AppData\Local\Temp\ccSmV8cy.s:29674  .debug_str:000000000001ab68 .LASF1224
C:\Users\CYMR90~1\AppData\Local\Temp\ccSmV8cy.s:33054  .debug_str:0000000000027f1a .LASF1225
C:\Users\CYMR90~1\AppData\Local\Temp\ccSmV8cy.s:25933  .debug_str:000000000000be15 .LASF1226
C:\Users\CYMR90~1\AppData\Local\Temp\ccSmV8cy.s:24805  .debug_str:0000000000007577 .LASF1227
C:\Users\CYMR90~1\AppData\Local\Temp\ccSmV8cy.s:23827  .debug_str:00000000000037c5 .LASF1228
C:\Users\CYMR90~1\AppData\Local\Temp\ccSmV8cy.s:34476  .debug_str:000000000002d833 .LASF1229
C:\Users\CYMR90~1\AppData\Local\Temp\ccSmV8cy.s:33488  .debug_str:0000000000029ae9 .LASF1230
C:\Users\CYMR90~1\AppData\Local\Temp\ccSmV8cy.s:32488  .debug_str:0000000000025a2a .LASF1231
C:\Users\CYMR90~1\AppData\Local\Temp\ccSmV8cy.s:29844  .debug_str:000000000001b5d0 .LASF1232
C:\Users\CYMR90~1\AppData\Local\Temp\ccSmV8cy.s:31396  .debug_str:00000000000216b4 .LASF1233
C:\Users\CYMR90~1\AppData\Local\Temp\ccSmV8cy.s:30426  .debug_str:000000000001db45 .LASF1234
C:\Users\CYMR90~1\AppData\Local\Temp\ccSmV8cy.s:29446  .debug_str:0000000000019c43 .LASF1235
C:\Users\CYMR90~1\AppData\Local\Temp\ccSmV8cy.s:28115  .debug_str:000000000001476f .LASF1236
C:\Users\CYMR90~1\AppData\Local\Temp\ccSmV8cy.s:27487  .debug_str:0000000000011f89 .LASF1237
C:\Users\CYMR90~1\AppData\Local\Temp\ccSmV8cy.s:28822  .debug_str:00000000000175b9 .LASF1238
C:\Users\CYMR90~1\AppData\Local\Temp\ccSmV8cy.s:25507  .debug_str:000000000000a1a8 .LASF1239
C:\Users\CYMR90~1\AppData\Local\Temp\ccSmV8cy.s:24475  .debug_str:0000000000006020 .LASF1240
C:\Users\CYMR90~1\AppData\Local\Temp\ccSmV8cy.s:23503  .debug_str:000000000000230e .LASF1241
C:\Users\CYMR90~1\AppData\Local\Temp\ccSmV8cy.s:34174  .debug_str:000000000002c485 .LASF1242
C:\Users\CYMR90~1\AppData\Local\Temp\ccSmV8cy.s:23023  .debug_str:00000000000005c1 .LASF1243
C:\Users\CYMR90~1\AppData\Local\Temp\ccSmV8cy.s:33632  .debug_str:000000000002a400 .LASF1244
C:\Users\CYMR90~1\AppData\Local\Temp\ccSmV8cy.s:32648  .debug_str:00000000000265bc .LASF1245
C:\Users\CYMR90~1\AppData\Local\Temp\ccSmV8cy.s:31668  .debug_str:000000000002277d .LASF1246
C:\Users\CYMR90~1\AppData\Local\Temp\ccSmV8cy.s:30672  .debug_str:000000000001eacb .LASF1247
C:\Users\CYMR90~1\AppData\Local\Temp\ccSmV8cy.s:29736  .debug_str:000000000001af64 .LASF1248
C:\Users\CYMR90~1\AppData\Local\Temp\ccSmV8cy.s:28777  .debug_str:00000000000170cd .LASF1249
C:\Users\CYMR90~1\AppData\Local\Temp\ccSmV8cy.s:28942  .debug_str:0000000000017ca3 .LASF1250
C:\Users\CYMR90~1\AppData\Local\Temp\ccSmV8cy.s:26831  .debug_str:000000000000f5bb .LASF1251
C:\Users\CYMR90~1\AppData\Local\Temp\ccSmV8cy.s:29040  .debug_str:00000000000182d5 .LASF1252
C:\Users\CYMR90~1\AppData\Local\Temp\ccSmV8cy.s:26325  .debug_str:000000000000d6f4 .LASF1253
C:\Users\CYMR90~1\AppData\Local\Temp\ccSmV8cy.s:25305  .debug_str:0000000000009590 .LASF1254
C:\Users\CYMR90~1\AppData\Local\Temp\ccSmV8cy.s:23281  .debug_str:000000000000152e .LASF1255
C:\Users\CYMR90~1\AppData\Local\Temp\ccSmV8cy.s:26237  .debug_str:000000000000d1d4 .LASF1256
C:\Users\CYMR90~1\AppData\Local\Temp\ccSmV8cy.s:24429  .debug_str:0000000000005d9b .LASF1257
C:\Users\CYMR90~1\AppData\Local\Temp\ccSmV8cy.s:29314  .debug_str:00000000000193ae .LASF1258
C:\Users\CYMR90~1\AppData\Local\Temp\ccSmV8cy.s:29316  .debug_str:00000000000193c1 .LASF1259
C:\Users\CYMR90~1\AppData\Local\Temp\ccSmV8cy.s:31870  .debug_str:0000000000023343 .LASF1260
C:\Users\CYMR90~1\AppData\Local\Temp\ccSmV8cy.s:29936  .debug_str:000000000001bbd7 .LASF1261
C:\Users\CYMR90~1\AppData\Local\Temp\ccSmV8cy.s:27283  .debug_str:0000000000011295 .LASF1262
C:\Users\CYMR90~1\AppData\Local\Temp\ccSmV8cy.s:24323  .debug_str:000000000000571c .LASF1263
C:\Users\CYMR90~1\AppData\Local\Temp\ccSmV8cy.s:26569  .debug_str:000000000000e5ea .LASF1264
C:\Users\CYMR90~1\AppData\Local\Temp\ccSmV8cy.s:28799  .debug_str:00000000000172bf .LASF1265
C:\Users\CYMR90~1\AppData\Local\Temp\ccSmV8cy.s:26617  .debug_str:000000000000e8ba .LASF1266
C:\Users\CYMR90~1\AppData\Local\Temp\ccSmV8cy.s:31896  .debug_str:0000000000023547 .LASF1267
C:\Users\CYMR90~1\AppData\Local\Temp\ccSmV8cy.s:32076  .debug_str:0000000000023fa7 .LASF1268
C:\Users\CYMR90~1\AppData\Local\Temp\ccSmV8cy.s:27421  .debug_str:0000000000011a8a .LASF1269
C:\Users\CYMR90~1\AppData\Local\Temp\ccSmV8cy.s:24039  .debug_str:00000000000044f9 .LASF1270
C:\Users\CYMR90~1\AppData\Local\Temp\ccSmV8cy.s:29042  .debug_str:00000000000182ec .LASF1271
C:\Users\CYMR90~1\AppData\Local\Temp\ccSmV8cy.s:33592  .debug_str:000000000002a1b7 .LASF1272
C:\Users\CYMR90~1\AppData\Local\Temp\ccSmV8cy.s:30552  .debug_str:000000000001e338 .LASF1273
C:\Users\CYMR90~1\AppData\Local\Temp\ccSmV8cy.s:23095  .debug_str:000000000000098e .LASF1274
C:\Users\CYMR90~1\AppData\Local\Temp\ccSmV8cy.s:29324  .debug_str:0000000000019444 .LASF1275
C:\Users\CYMR90~1\AppData\Local\Temp\ccSmV8cy.s:23203  .debug_str:00000000000010b5 .LASF1276
C:\Users\CYMR90~1\AppData\Local\Temp\ccSmV8cy.s:25531  .debug_str:000000000000a367 .LASF1277
C:\Users\CYMR90~1\AppData\Local\Temp\ccSmV8cy.s:24495  .debug_str:00000000000061a3 .LASF1278
C:\Users\CYMR90~1\AppData\Local\Temp\ccSmV8cy.s:23531  .debug_str:00000000000024ab .LASF1279
C:\Users\CYMR90~1\AppData\Local\Temp\ccSmV8cy.s:34194  .debug_str:000000000002c599 .LASF1280
C:\Users\CYMR90~1\AppData\Local\Temp\ccSmV8cy.s:24387  .debug_str:0000000000005b19 .LASF1281
C:\Users\CYMR90~1\AppData\Local\Temp\ccSmV8cy.s:23421  .debug_str:0000000000001e60 .LASF1282
C:\Users\CYMR90~1\AppData\Local\Temp\ccSmV8cy.s:30716  .debug_str:000000000001edd0 .LASF1283
C:\Users\CYMR90~1\AppData\Local\Temp\ccSmV8cy.s:33086  .debug_str:00000000000280b3 .LASF1284
C:\Users\CYMR90~1\AppData\Local\Temp\ccSmV8cy.s:32100  .debug_str:0000000000024137 .LASF1285
C:\Users\CYMR90~1\AppData\Local\Temp\ccSmV8cy.s:31110  .debug_str:0000000000020503 .LASF1286
C:\Users\CYMR90~1\AppData\Local\Temp\ccSmV8cy.s:30124  .debug_str:000000000001c741 .LASF1287
C:\Users\CYMR90~1\AppData\Local\Temp\ccSmV8cy.s:29148  .debug_str:000000000001891c .LASF1288
C:\Users\CYMR90~1\AppData\Local\Temp\ccSmV8cy.s:28155  .debug_str:00000000000149d5 .LASF1289
C:\Users\CYMR90~1\AppData\Local\Temp\ccSmV8cy.s:27209  .debug_str:0000000000010d61 .LASF1290
C:\Users\CYMR90~1\AppData\Local\Temp\ccSmV8cy.s:31620  .debug_str:00000000000224b3 .LASF1291
C:\Users\CYMR90~1\AppData\Local\Temp\ccSmV8cy.s:30624  .debug_str:000000000001e826 .LASF1292
C:\Users\CYMR90~1\AppData\Local\Temp\ccSmV8cy.s:29672  .debug_str:000000000001ab54 .LASF1293
C:\Users\CYMR90~1\AppData\Local\Temp\ccSmV8cy.s:28663  .debug_str:000000000001698c .LASF1294
C:\Users\CYMR90~1\AppData\Local\Temp\ccSmV8cy.s:27713  .debug_str:0000000000012e16 .LASF1295
C:\Users\CYMR90~1\AppData\Local\Temp\ccSmV8cy.s:26723  .debug_str:000000000000ef9a .LASF1296
C:\Users\CYMR90~1\AppData\Local\Temp\ccSmV8cy.s:26073  .debug_str:000000000000c76a .LASF1297
C:\Users\CYMR90~1\AppData\Local\Temp\ccSmV8cy.s:31078  .debug_str:0000000000020319 .LASF1298
C:\Users\CYMR90~1\AppData\Local\Temp\ccSmV8cy.s:30098  .debug_str:000000000001c5cd .LASF1299
C:\Users\CYMR90~1\AppData\Local\Temp\ccSmV8cy.s:29060  .debug_str:00000000000183e5 .LASF1300
C:\Users\CYMR90~1\AppData\Local\Temp\ccSmV8cy.s:30070  .debug_str:000000000001c3dd .LASF1301
C:\Users\CYMR90~1\AppData\Local\Temp\ccSmV8cy.s:30104  .debug_str:000000000001c60b .LASF1302
C:\Users\CYMR90~1\AppData\Local\Temp\ccSmV8cy.s:28707  .debug_str:0000000000016bf7 .LASF1303
C:\Users\CYMR90~1\AppData\Local\Temp\ccSmV8cy.s:29590  .debug_str:000000000001a53a .LASF1304
C:\Users\CYMR90~1\AppData\Local\Temp\ccSmV8cy.s:29560  .debug_str:000000000001a38e .LASF1305
C:\Users\CYMR90~1\AppData\Local\Temp\ccSmV8cy.s:25197  .debug_str:0000000000008ee4 .LASF1306
C:\Users\CYMR90~1\AppData\Local\Temp\ccSmV8cy.s:24171  .debug_str:0000000000004e23 .LASF1307
C:\Users\CYMR90~1\AppData\Local\Temp\ccSmV8cy.s:23215  .debug_str:000000000000113c .LASF1308
C:\Users\CYMR90~1\AppData\Local\Temp\ccSmV8cy.s:33846  .debug_str:000000000002b079 .LASF1309
C:\Users\CYMR90~1\AppData\Local\Temp\ccSmV8cy.s:32858  .debug_str:0000000000027288 .LASF1310
C:\Users\CYMR90~1\AppData\Local\Temp\ccSmV8cy.s:31872  .debug_str:0000000000023354 .LASF1311
C:\Users\CYMR90~1\AppData\Local\Temp\ccSmV8cy.s:28025  .debug_str:000000000001422b .LASF1312
C:\Users\CYMR90~1\AppData\Local\Temp\ccSmV8cy.s:26581  .debug_str:000000000000e6a3 .LASF1313
C:\Users\CYMR90~1\AppData\Local\Temp\ccSmV8cy.s:27873  .debug_str:000000000001384c .LASF1314
C:\Users\CYMR90~1\AppData\Local\Temp\ccSmV8cy.s:34072  .debug_str:000000000002bdbf .LASF1315
C:\Users\CYMR90~1\AppData\Local\Temp\ccSmV8cy.s:33074  .debug_str:0000000000028020 .LASF1316
C:\Users\CYMR90~1\AppData\Local\Temp\ccSmV8cy.s:32092  .debug_str:000000000002409b .LASF1317
C:\Users\CYMR90~1\AppData\Local\Temp\ccSmV8cy.s:31102  .debug_str:0000000000020496 .LASF1318
C:\Users\CYMR90~1\AppData\Local\Temp\ccSmV8cy.s:30136  .debug_str:000000000001c7db .LASF1319
C:\Users\CYMR90~1\AppData\Local\Temp\ccSmV8cy.s:29158  .debug_str:00000000000189c4 .LASF1320
C:\Users\CYMR90~1\AppData\Local\Temp\ccSmV8cy.s:28165  .debug_str:0000000000014a4b .LASF1321
C:\Users\CYMR90~1\AppData\Local\Temp\ccSmV8cy.s:27217  .debug_str:0000000000010dd5 .LASF1322
C:\Users\CYMR90~1\AppData\Local\Temp\ccSmV8cy.s:27687  .debug_str:0000000000012c60 .LASF1323
C:\Users\CYMR90~1\AppData\Local\Temp\ccSmV8cy.s:26077  .debug_str:000000000000c78c .LASF1324
C:\Users\CYMR90~1\AppData\Local\Temp\ccSmV8cy.s:25697  .debug_str:000000000000ae68 .LASF1325
C:\Users\CYMR90~1\AppData\Local\Temp\ccSmV8cy.s:24669  .debug_str:0000000000006c41 .LASF1326
C:\Users\CYMR90~1\AppData\Local\Temp\ccSmV8cy.s:23685  .debug_str:0000000000002e89 .LASF1327
C:\Users\CYMR90~1\AppData\Local\Temp\ccSmV8cy.s:34346  .debug_str:000000000002cf8e .LASF1328
C:\Users\CYMR90~1\AppData\Local\Temp\ccSmV8cy.s:33412  .debug_str:000000000002962f .LASF1329
C:\Users\CYMR90~1\AppData\Local\Temp\ccSmV8cy.s:32404  .debug_str:0000000000025445 .LASF1330
C:\Users\CYMR90~1\AppData\Local\Temp\ccSmV8cy.s:31436  .debug_str:00000000000218e1 .LASF1331
C:\Users\CYMR90~1\AppData\Local\Temp\ccSmV8cy.s:30462  .debug_str:000000000001dd99 .LASF1332
C:\Users\CYMR90~1\AppData\Local\Temp\ccSmV8cy.s:30898  .debug_str:000000000001f85a .LASF1333
C:\Users\CYMR90~1\AppData\Local\Temp\ccSmV8cy.s:29952  .debug_str:000000000001bcab .LASF1334
C:\Users\CYMR90~1\AppData\Local\Temp\ccSmV8cy.s:28625  .debug_str:0000000000016738 .LASF1335
C:\Users\CYMR90~1\AppData\Local\Temp\ccSmV8cy.s:26233  .debug_str:000000000000d1a9 .LASF1336
C:\Users\CYMR90~1\AppData\Local\Temp\ccSmV8cy.s:31118  .debug_str:0000000000020562 .LASF1337
C:\Users\CYMR90~1\AppData\Local\Temp\ccSmV8cy.s:27573  .debug_str:00000000000124ff .LASF1338
C:\Users\CYMR90~1\AppData\Local\Temp\ccSmV8cy.s:23325  .debug_str:00000000000017bb .LASF1339
C:\Users\CYMR90~1\AppData\Local\Temp\ccSmV8cy.s:25481  .debug_str:000000000000a02f .LASF1340
C:\Users\CYMR90~1\AppData\Local\Temp\ccSmV8cy.s:24445  .debug_str:0000000000005e6f .LASF1341
C:\Users\CYMR90~1\AppData\Local\Temp\ccSmV8cy.s:23471  .debug_str:0000000000002129 .LASF1342
C:\Users\CYMR90~1\AppData\Local\Temp\ccSmV8cy.s:34152  .debug_str:000000000002c2e0 .LASF1343
C:\Users\CYMR90~1\AppData\Local\Temp\ccSmV8cy.s:33938  .debug_str:000000000002b573 .LASF1344
C:\Users\CYMR90~1\AppData\Local\Temp\ccSmV8cy.s:32946  .debug_str:00000000000277bb .LASF1345
C:\Users\CYMR90~1\AppData\Local\Temp\ccSmV8cy.s:25189  .debug_str:0000000000008e74 .LASF1346
C:\Users\CYMR90~1\AppData\Local\Temp\ccSmV8cy.s:33364  .debug_str:000000000002938d .LASF1347
C:\Users\CYMR90~1\AppData\Local\Temp\ccSmV8cy.s:30002  .debug_str:000000000001bfa8 .LASF1348
C:\Users\CYMR90~1\AppData\Local\Temp\ccSmV8cy.s:30542  .debug_str:000000000001e2ab .LASF1349
C:\Users\CYMR90~1\AppData\Local\Temp\ccSmV8cy.s:28037  .debug_str:00000000000142e8 .LASF1350
C:\Users\CYMR90~1\AppData\Local\Temp\ccSmV8cy.s:31268  .debug_str:0000000000020f16 .LASF1351
C:\Users\CYMR90~1\AppData\Local\Temp\ccSmV8cy.s:26089  .debug_str:000000000000c860 .LASF1352
C:\Users\CYMR90~1\AppData\Local\Temp\ccSmV8cy.s:24979  .debug_str:000000000000810c .LASF1353
C:\Users\CYMR90~1\AppData\Local\Temp\ccSmV8cy.s:25563  .debug_str:000000000000a58f .LASF1354
C:\Users\CYMR90~1\AppData\Local\Temp\ccSmV8cy.s:24525  .debug_str:000000000000636d .LASF1355
C:\Users\CYMR90~1\AppData\Local\Temp\ccSmV8cy.s:23555  .debug_str:000000000000261a .LASF1356
C:\Users\CYMR90~1\AppData\Local\Temp\ccSmV8cy.s:34224  .debug_str:000000000002c790 .LASF1357
C:\Users\CYMR90~1\AppData\Local\Temp\ccSmV8cy.s:28127  .debug_str:0000000000014837 .LASF1358
C:\Users\CYMR90~1\AppData\Local\Temp\ccSmV8cy.s:24663  .debug_str:0000000000006be9 .LASF1359
C:\Users\CYMR90~1\AppData\Local\Temp\ccSmV8cy.s:31314  .debug_str:00000000000211d3 .LASF1360
C:\Users\CYMR90~1\AppData\Local\Temp\ccSmV8cy.s:30242  .debug_str:000000000001ce27 .LASF1361
C:\Users\CYMR90~1\AppData\Local\Temp\ccSmV8cy.s:29256  .debug_str:0000000000018f85 .LASF1362
C:\Users\CYMR90~1\AppData\Local\Temp\ccSmV8cy.s:33376  .debug_str:000000000002944f .LASF1363
C:\Users\CYMR90~1\AppData\Local\Temp\ccSmV8cy.s:28545  .debug_str:00000000000161a1 .LASF1364
C:\Users\CYMR90~1\AppData\Local\Temp\ccSmV8cy.s:25103  .debug_str:000000000000896a .LASF1365
C:\Users\CYMR90~1\AppData\Local\Temp\ccSmV8cy.s:32976  .debug_str:0000000000027996 .LASF1366
C:\Users\CYMR90~1\AppData\Local\Temp\ccSmV8cy.s:26215  .debug_str:000000000000d08f .LASF1367
C:\Users\CYMR90~1\AppData\Local\Temp\ccSmV8cy.s:31210  .debug_str:0000000000020b1c .LASF1368
C:\Users\CYMR90~1\AppData\Local\Temp\ccSmV8cy.s:29422  .debug_str:0000000000019a9e .LASF1369
C:\Users\CYMR90~1\AppData\Local\Temp\ccSmV8cy.s:34112  .debug_str:000000000002c035 .LASF1370
C:\Users\CYMR90~1\AppData\Local\Temp\ccSmV8cy.s:30470  .debug_str:000000000001de00 .LASF1371
C:\Users\CYMR90~1\AppData\Local\Temp\ccSmV8cy.s:23597  .debug_str:000000000000290a .LASF1372
C:\Users\CYMR90~1\AppData\Local\Temp\ccSmV8cy.s:26277  .debug_str:000000000000d3fc .LASF1373
C:\Users\CYMR90~1\AppData\Local\Temp\ccSmV8cy.s:29464  .debug_str:0000000000019d12 .LASF1374
C:\Users\CYMR90~1\AppData\Local\Temp\ccSmV8cy.s:34242  .debug_str:000000000002c908 .LASF1375
C:\Users\CYMR90~1\AppData\Local\Temp\ccSmV8cy.s:24197  .debug_str:0000000000004fc3 .LASF1376
C:\Users\CYMR90~1\AppData\Local\Temp\ccSmV8cy.s:27475  .debug_str:0000000000011e28 .LASF1377
C:\Users\CYMR90~1\AppData\Local\Temp\ccSmV8cy.s:30630  .debug_str:000000000001e85e .LASF1378
C:\Users\CYMR90~1\AppData\Local\Temp\ccSmV8cy.s:33842  .debug_str:000000000002b03c .LASF1379
C:\Users\CYMR90~1\AppData\Local\Temp\ccSmV8cy.s:33804  .debug_str:000000000002adb9 .LASF1380
C:\Users\CYMR90~1\AppData\Local\Temp\ccSmV8cy.s:25317  .debug_str:0000000000009640 .LASF1381
C:\Users\CYMR90~1\AppData\Local\Temp\ccSmV8cy.s:28517  .debug_str:0000000000016019 .LASF1382
C:\Users\CYMR90~1\AppData\Local\Temp\ccSmV8cy.s:31714  .debug_str:0000000000022a1d .LASF1383
C:\Users\CYMR90~1\AppData\Local\Temp\ccSmV8cy.s:23299  .debug_str:000000000000160e .LASF1384
C:\Users\CYMR90~1\AppData\Local\Temp\ccSmV8cy.s:26551  .debug_str:000000000000e4eb .LASF1385
C:\Users\CYMR90~1\AppData\Local\Temp\ccSmV8cy.s:29770  .debug_str:000000000001b16f .LASF1386
C:\Users\CYMR90~1\AppData\Local\Temp\ccSmV8cy.s:32934  .debug_str:00000000000276db .LASF1387
C:\Users\CYMR90~1\AppData\Local\Temp\ccSmV8cy.s:34000  .debug_str:000000000002b906 .LASF1388
C:\Users\CYMR90~1\AppData\Local\Temp\ccSmV8cy.s:27671  .debug_str:0000000000012b52 .LASF1389
C:\Users\CYMR90~1\AppData\Local\Temp\ccSmV8cy.s:26995  .debug_str:000000000000ffdc .LASF1390
C:\Users\CYMR90~1\AppData\Local\Temp\ccSmV8cy.s:30080  .debug_str:000000000001c493 .LASF1391
C:\Users\CYMR90~1\AppData\Local\Temp\ccSmV8cy.s:33280  .debug_str:0000000000028ddc .LASF1392
C:\Users\CYMR90~1\AppData\Local\Temp\ccSmV8cy.s:24845  .debug_str:00000000000077ec .LASF1393
C:\Users\CYMR90~1\AppData\Local\Temp\ccSmV8cy.s:28067  .debug_str:0000000000014464 .LASF1394
C:\Users\CYMR90~1\AppData\Local\Temp\ccSmV8cy.s:31284  .debug_str:0000000000021010 .LASF1395
C:\Users\CYMR90~1\AppData\Local\Temp\ccSmV8cy.s:34534  .debug_str:000000000002db77 .LASF1396
C:\Users\CYMR90~1\AppData\Local\Temp\ccSmV8cy.s:26153  .debug_str:000000000000cc1b .LASF1397
C:\Users\CYMR90~1\AppData\Local\Temp\ccSmV8cy.s:29344  .debug_str:0000000000019549 .LASF1398
C:\Users\CYMR90~1\AppData\Local\Temp\ccSmV8cy.s:27367  .debug_str:000000000001170a .LASF1399
C:\Users\CYMR90~1\AppData\Local\Temp\ccSmV8cy.s:28687  .debug_str:0000000000016ae6 .LASF1400
C:\Users\CYMR90~1\AppData\Local\Temp\ccSmV8cy.s:23249  .debug_str:0000000000001332 .LASF1401
C:\Users\CYMR90~1\AppData\Local\Temp\ccSmV8cy.s:31192  .debug_str:0000000000020a41 .LASF1402
C:\Users\CYMR90~1\AppData\Local\Temp\ccSmV8cy.s:25973  .debug_str:000000000000c08e .LASF1403
C:\Users\CYMR90~1\AppData\Local\Temp\ccSmV8cy.s:30946  .debug_str:000000000001fb5d .LASF1404
C:\Users\CYMR90~1\AppData\Local\Temp\ccSmV8cy.s:23979  .debug_str:000000000000419e .LASF1405
C:\Users\CYMR90~1\AppData\Local\Temp\ccSmV8cy.s:33762  .debug_str:000000000002ab52 .LASF1406
C:\Users\CYMR90~1\AppData\Local\Temp\ccSmV8cy.s:31914  .debug_str:000000000002361b .LASF1407
C:\Users\CYMR90~1\AppData\Local\Temp\ccSmV8cy.s:32080  .debug_str:0000000000023fd9 .LASF1408
C:\Users\CYMR90~1\AppData\Local\Temp\ccSmV8cy.s:23637  .debug_str:0000000000002b7b .LASF1409
C:\Users\CYMR90~1\AppData\Local\Temp\ccSmV8cy.s:26901  .debug_str:000000000000fa15 .LASF1410
C:\Users\CYMR90~1\AppData\Local\Temp\ccSmV8cy.s:33504  .debug_str:0000000000029be0 .LASF1411
C:\Users\CYMR90~1\AppData\Local\Temp\ccSmV8cy.s:25091  .debug_str:00000000000088c5 .LASF1412
C:\Users\CYMR90~1\AppData\Local\Temp\ccSmV8cy.s:29586  .debug_str:000000000001a4fb .LASF1413
C:\Users\CYMR90~1\AppData\Local\Temp\ccSmV8cy.s:31494  .debug_str:0000000000021cc0 .LASF1414
C:\Users\CYMR90~1\AppData\Local\Temp\ccSmV8cy.s:23097  .debug_str:00000000000009a1 .LASF1415
C:\Users\CYMR90~1\AppData\Local\Temp\ccSmV8cy.s:26243  .debug_str:000000000000d214 .LASF1416
C:\Users\CYMR90~1\AppData\Local\Temp\ccSmV8cy.s:29444  .debug_str:0000000000019c2a .LASF1417
C:\Users\CYMR90~1\AppData\Local\Temp\ccSmV8cy.s:32614  .debug_str:0000000000026378 .LASF1418
C:\Users\CYMR90~1\AppData\Local\Temp\ccSmV8cy.s:24179  .debug_str:0000000000004e8d .LASF1419
C:\Users\CYMR90~1\AppData\Local\Temp\ccSmV8cy.s:27353  .debug_str:000000000001163e .LASF1420
C:\Users\CYMR90~1\AppData\Local\Temp\ccSmV8cy.s:26679  .debug_str:000000000000ed0e .LASF1421
C:\Users\CYMR90~1\AppData\Local\Temp\ccSmV8cy.s:27483  .debug_str:0000000000011f58 .LASF1422
C:\Users\CYMR90~1\AppData\Local\Temp\ccSmV8cy.s:33052  .debug_str:0000000000027f01 .LASF1423
C:\Users\CYMR90~1\AppData\Local\Temp\ccSmV8cy.s:23713  .debug_str:0000000000003036 .LASF1424
C:\Users\CYMR90~1\AppData\Local\Temp\ccSmV8cy.s:27877  .debug_str:000000000001387a .LASF1425
C:\Users\CYMR90~1\AppData\Local\Temp\ccSmV8cy.s:30938  .debug_str:000000000001facd .LASF1426
C:\Users\CYMR90~1\AppData\Local\Temp\ccSmV8cy.s:34232  .debug_str:000000000002c872 .LASF1427
C:\Users\CYMR90~1\AppData\Local\Temp\ccSmV8cy.s:25833  .debug_str:000000000000b74d .LASF1428
C:\Users\CYMR90~1\AppData\Local\Temp\ccSmV8cy.s:29016  .debug_str:0000000000018190 .LASF1429
C:\Users\CYMR90~1\AppData\Local\Temp\ccSmV8cy.s:32204  .debug_str:0000000000024720 .LASF1430
C:\Users\CYMR90~1\AppData\Local\Temp\ccSmV8cy.s:30948  .debug_str:000000000001fb75 .LASF1431
C:\Users\CYMR90~1\AppData\Local\Temp\ccSmV8cy.s:23051  .debug_str:000000000000072c .LASF1432
C:\Users\CYMR90~1\AppData\Local\Temp\ccSmV8cy.s:32166  .debug_str:00000000000244f9 .LASF1433
C:\Users\CYMR90~1\AppData\Local\Temp\ccSmV8cy.s:31196  .debug_str:0000000000020a6b .LASF1434
C:\Users\CYMR90~1\AppData\Local\Temp\ccSmV8cy.s:30200  .debug_str:000000000001cb8f .LASF1435
C:\Users\CYMR90~1\AppData\Local\Temp\ccSmV8cy.s:29220  .debug_str:0000000000018d7f .LASF1436
C:\Users\CYMR90~1\AppData\Local\Temp\ccSmV8cy.s:28647  .debug_str:00000000000168ad .LASF1437
C:\Users\CYMR90~1\AppData\Local\Temp\ccSmV8cy.s:33084  .debug_str:000000000002809f .LASF1438
C:\Users\CYMR90~1\AppData\Local\Temp\ccSmV8cy.s:32098  .debug_str:0000000000024123 .LASF1439
C:\Users\CYMR90~1\AppData\Local\Temp\ccSmV8cy.s:31108  .debug_str:00000000000204ef .LASF1440
C:\Users\CYMR90~1\AppData\Local\Temp\ccSmV8cy.s:30122  .debug_str:000000000001c72d .LASF1441
C:\Users\CYMR90~1\AppData\Local\Temp\ccSmV8cy.s:29146  .debug_str:0000000000018908 .LASF1442
C:\Users\CYMR90~1\AppData\Local\Temp\ccSmV8cy.s:28153  .debug_str:00000000000149c1 .LASF1443
C:\Users\CYMR90~1\AppData\Local\Temp\ccSmV8cy.s:27207  .debug_str:0000000000010d4d .LASF1444
C:\Users\CYMR90~1\AppData\Local\Temp\ccSmV8cy.s:34190  .debug_str:000000000002c56c .LASF1445
C:\Users\CYMR90~1\AppData\Local\Temp\ccSmV8cy.s:25205  .debug_str:0000000000008f52 .LASF1446
C:\Users\CYMR90~1\AppData\Local\Temp\ccSmV8cy.s:26815  .debug_str:000000000000f4de .LASF1447
C:\Users\CYMR90~1\AppData\Local\Temp\ccSmV8cy.s:32442  .debug_str:00000000000256d6 .LASF1448
C:\Users\CYMR90~1\AppData\Local\Temp\ccSmV8cy.s:31472  .debug_str:0000000000021ad5 .LASF1449
C:\Users\CYMR90~1\AppData\Local\Temp\ccSmV8cy.s:30484  .debug_str:000000000001df4b .LASF1450
C:\Users\CYMR90~1\AppData\Local\Temp\ccSmV8cy.s:29512  .debug_str:000000000001a0ca .LASF1451
C:\Users\CYMR90~1\AppData\Local\Temp\ccSmV8cy.s:28515  .debug_str:0000000000016004 .LASF1452
C:\Users\CYMR90~1\AppData\Local\Temp\ccSmV8cy.s:25831  .debug_str:000000000000b73a .LASF1453
C:\Users\CYMR90~1\AppData\Local\Temp\ccSmV8cy.s:28217  .debug_str:0000000000014de2 .LASF1454
C:\Users\CYMR90~1\AppData\Local\Temp\ccSmV8cy.s:25625  .debug_str:000000000000a907 .LASF1455
C:\Users\CYMR90~1\AppData\Local\Temp\ccSmV8cy.s:30852  .debug_str:000000000001f575 .LASF1456
C:\Users\CYMR90~1\AppData\Local\Temp\ccSmV8cy.s:32496  .debug_str:0000000000025ab2 .LASF1457
C:\Users\CYMR90~1\AppData\Local\Temp\ccSmV8cy.s:24143  .debug_str:0000000000004c4d .LASF1458
C:\Users\CYMR90~1\AppData\Local\Temp\ccSmV8cy.s:30932  .debug_str:000000000001fa7f .LASF1459
C:\Users\CYMR90~1\AppData\Local\Temp\ccSmV8cy.s:27691  .debug_str:0000000000012ca1 .LASF1460
C:\Users\CYMR90~1\AppData\Local\Temp\ccSmV8cy.s:25735  .debug_str:000000000000b0a4 .LASF1461
C:\Users\CYMR90~1\AppData\Local\Temp\ccSmV8cy.s:26953  .debug_str:000000000000fda1 .LASF1462
C:\Users\CYMR90~1\AppData\Local\Temp\ccSmV8cy.s:27479  .debug_str:0000000000011eed .LASF1463
C:\Users\CYMR90~1\AppData\Local\Temp\ccSmV8cy.s:28577  .debug_str:00000000000163cd .LASF1464
C:\Users\CYMR90~1\AppData\Local\Temp\ccSmV8cy.s:33962  .debug_str:000000000002b6fa .LASF1465
C:\Users\CYMR90~1\AppData\Local\Temp\ccSmV8cy.s:29784  .debug_str:000000000001b257 .LASF1466
C:\Users\CYMR90~1\AppData\Local\Temp\ccSmV8cy.s:28157  .debug_str:00000000000149e8 .LASF1467
C:\Users\CYMR90~1\AppData\Local\Temp\ccSmV8cy.s:32966  .debug_str:0000000000027914 .LASF1468
C:\Users\CYMR90~1\AppData\Local\Temp\ccSmV8cy.s:27143  .debug_str:000000000001096d .LASF1469
C:\Users\CYMR90~1\AppData\Local\Temp\ccSmV8cy.s:24127  .debug_str:0000000000004b55 .LASF1470
C:\Users\CYMR90~1\AppData\Local\Temp\ccSmV8cy.s:27451  .debug_str:0000000000011c94 .LASF1471
C:\Users\CYMR90~1\AppData\Local\Temp\ccSmV8cy.s:27403  .debug_str:0000000000011968 .LASF1472
C:\Users\CYMR90~1\AppData\Local\Temp\ccSmV8cy.s:32392  .debug_str:000000000002537f .LASF1473
C:\Users\CYMR90~1\AppData\Local\Temp\ccSmV8cy.s:33058  .debug_str:0000000000027f52 .LASF1474
C:\Users\CYMR90~1\AppData\Local\Temp\ccSmV8cy.s:23151  .debug_str:0000000000000d4f .LASF1475
C:\Users\CYMR90~1\AppData\Local\Temp\ccSmV8cy.s:25093  .debug_str:00000000000088de .LASF1476
C:\Users\CYMR90~1\AppData\Local\Temp\ccSmV8cy.s:23663  .debug_str:0000000000002d38 .LASF1477
C:\Users\CYMR90~1\AppData\Local\Temp\ccSmV8cy.s:33248  .debug_str:0000000000028b6c .LASF1478
C:\Users\CYMR90~1\AppData\Local\Temp\ccSmV8cy.s:32240  .debug_str:00000000000249e8 .LASF1479
C:\Users\CYMR90~1\AppData\Local\Temp\ccSmV8cy.s:23791  .debug_str:0000000000003569 .LASF1480
C:\Users\CYMR90~1\AppData\Local\Temp\ccSmV8cy.s:26097  .debug_str:000000000000c8bc .LASF1481
C:\Users\CYMR90~1\AppData\Local\Temp\ccSmV8cy.s:32360  .debug_str:00000000000251bd .LASF1482
C:\Users\CYMR90~1\AppData\Local\Temp\ccSmV8cy.s:25409  .debug_str:0000000000009bea .LASF1483
C:\Users\CYMR90~1\AppData\Local\Temp\ccSmV8cy.s:24185  .debug_str:0000000000004ee6 .LASF1484
C:\Users\CYMR90~1\AppData\Local\Temp\ccSmV8cy.s:26689  .debug_str:000000000000edb0 .LASF1485
C:\Users\CYMR90~1\AppData\Local\Temp\ccSmV8cy.s:28125  .debug_str:0000000000014824 .LASF1486
C:\Users\CYMR90~1\AppData\Local\Temp\ccSmV8cy.s:29766  .debug_str:000000000001b140 .LASF1487
C:\Users\CYMR90~1\AppData\Local\Temp\ccSmV8cy.s:22961  .debug_str:000000000000021d .LASF1488
C:\Users\CYMR90~1\AppData\Local\Temp\ccSmV8cy.s:28531  .debug_str:00000000000160e9 .LASF1489
C:\Users\CYMR90~1\AppData\Local\Temp\ccSmV8cy.s:26483  .debug_str:000000000000e08b .LASF1490
C:\Users\CYMR90~1\AppData\Local\Temp\ccSmV8cy.s:33470  .debug_str:00000000000299e3 .LASF1491
C:\Users\CYMR90~1\AppData\Local\Temp\ccSmV8cy.s:23629  .debug_str:0000000000002aec .LASF1492
C:\Users\CYMR90~1\AppData\Local\Temp\ccSmV8cy.s:31426  .debug_str:0000000000021862 .LASF1493
C:\Users\CYMR90~1\AppData\Local\Temp\ccSmV8cy.s:33692  .debug_str:000000000002a75f .LASF1494
C:\Users\CYMR90~1\AppData\Local\Temp\ccSmV8cy.s:24829  .debug_str:00000000000076f6 .LASF1495
C:\Users\CYMR90~1\AppData\Local\Temp\ccSmV8cy.s:32728  .debug_str:0000000000026ac5 .LASF1496
C:\Users\CYMR90~1\AppData\Local\Temp\ccSmV8cy.s:33444  .debug_str:0000000000029812 .LASF1497
C:\Users\CYMR90~1\AppData\Local\Temp\ccSmV8cy.s:24617  .debug_str:00000000000068c9 .LASF1498
C:\Users\CYMR90~1\AppData\Local\Temp\ccSmV8cy.s:25503  .debug_str:000000000000a16f .LASF1499
C:\Users\CYMR90~1\AppData\Local\Temp\ccSmV8cy.s:34398  .debug_str:000000000002d2f1 .LASF1500
C:\Users\CYMR90~1\AppData\Local\Temp\ccSmV8cy.s:33604  .debug_str:000000000002a25b .LASF1501
C:\Users\CYMR90~1\AppData\Local\Temp\ccSmV8cy.s:31324  .debug_str:000000000002129d .LASF1502
C:\Users\CYMR90~1\AppData\Local\Temp\ccSmV8cy.s:24597  .debug_str:00000000000067b1 .LASF1503
C:\Users\CYMR90~1\AppData\Local\Temp\ccSmV8cy.s:33694  .debug_str:000000000002a76d .LASF1504
C:\Users\CYMR90~1\AppData\Local\Temp\ccSmV8cy.s:30684  .debug_str:000000000001eb79 .LASF1505
C:\Users\CYMR90~1\AppData\Local\Temp\ccSmV8cy.s:29978  .debug_str:000000000001be5e .LASF1506
C:\Users\CYMR90~1\AppData\Local\Temp\ccSmV8cy.s:25899  .debug_str:000000000000bc08 .LASF1507
C:\Users\CYMR90~1\AppData\Local\Temp\ccSmV8cy.s:31526  .debug_str:0000000000021e98 .LASF1508
C:\Users\CYMR90~1\AppData\Local\Temp\ccSmV8cy.s:27639  .debug_str:000000000001294d .LASF1509
C:\Users\CYMR90~1\AppData\Local\Temp\ccSmV8cy.s:33348  .debug_str:0000000000029285 .LASF1510
C:\Users\CYMR90~1\AppData\Local\Temp\ccSmV8cy.s:32114  .debug_str:00000000000241ff .LASF1511
C:\Users\CYMR90~1\AppData\Local\Temp\ccSmV8cy.s:23841  .debug_str:000000000000389f .LASF1512
C:\Users\CYMR90~1\AppData\Local\Temp\ccSmV8cy.s:28601  .debug_str:000000000001659c .LASF1513
C:\Users\CYMR90~1\AppData\Local\Temp\ccSmV8cy.s:32522  .debug_str:0000000000025cd7 .LASF1514
C:\Users\CYMR90~1\AppData\Local\Temp\ccSmV8cy.s:30910  .debug_str:000000000001f944 .LASF1515
C:\Users\CYMR90~1\AppData\Local\Temp\ccSmV8cy.s:34132  .debug_str:000000000002c16e .LASF1516
C:\Users\CYMR90~1\AppData\Local\Temp\ccSmV8cy.s:30734  .debug_str:000000000001ee8c .LASF1517
C:\Users\CYMR90~1\AppData\Local\Temp\ccSmV8cy.s:32762  .debug_str:0000000000026cb9 .LASF1518
C:\Users\CYMR90~1\AppData\Local\Temp\ccSmV8cy.s:27631  .debug_str:00000000000128f4 .LASF1519
C:\Users\CYMR90~1\AppData\Local\Temp\ccSmV8cy.s:31138  .debug_str:00000000000206d8 .LASF1520
C:\Users\CYMR90~1\AppData\Local\Temp\ccSmV8cy.s:30158  .debug_str:000000000001c92e .LASF1521
C:\Users\CYMR90~1\AppData\Local\Temp\ccSmV8cy.s:23783  .debug_str:00000000000034ed .LASF1522
C:\Users\CYMR90~1\AppData\Local\Temp\ccSmV8cy.s:29420  .debug_str:0000000000019a82 .LASF1523
C:\Users\CYMR90~1\AppData\Local\Temp\ccSmV8cy.s:32116  .debug_str:0000000000024215 .LASF1524
C:\Users\CYMR90~1\AppData\Local\Temp\ccSmV8cy.s:24255  .debug_str:00000000000052dc .LASF1525
C:\Users\CYMR90~1\AppData\Local\Temp\ccSmV8cy.s:30096  .debug_str:000000000001c5b2 .LASF1526
C:\Users\CYMR90~1\AppData\Local\Temp\ccSmV8cy.s:26127  .debug_str:000000000000ca72 .LASF1527
C:\Users\CYMR90~1\AppData\Local\Temp\ccSmV8cy.s:31868  .debug_str:0000000000023327 .LASF1528
C:\Users\CYMR90~1\AppData\Local\Temp\ccSmV8cy.s:33142  .debug_str:00000000000283ee .LASF1529
C:\Users\CYMR90~1\AppData\Local\Temp\ccSmV8cy.s:32352  .debug_str:00000000000250b8 .LASF1530
C:\Users\CYMR90~1\AppData\Local\Temp\ccSmV8cy.s:32418  .debug_str:000000000002553b .LASF1531
C:\Users\CYMR90~1\AppData\Local\Temp\ccSmV8cy.s:29858  .debug_str:000000000001b692 .LASF1532
C:\Users\CYMR90~1\AppData\Local\Temp\ccSmV8cy.s:29370  .debug_str:00000000000196dd .LASF1533
C:\Users\CYMR90~1\AppData\Local\Temp\ccSmV8cy.s:32234  .debug_str:00000000000248a8 .LASF1534
C:\Users\CYMR90~1\AppData\Local\Temp\ccSmV8cy.s:25665  .debug_str:000000000000ab8f .LASF1535
C:\Users\CYMR90~1\AppData\Local\Temp\ccSmV8cy.s:32422  .debug_str:00000000000255bb .LASF1536
C:\Users\CYMR90~1\AppData\Local\Temp\ccSmV8cy.s:31770  .debug_str:0000000000022d42 .LASF1537
C:\Users\CYMR90~1\AppData\Local\Temp\ccSmV8cy.s:33642  .debug_str:000000000002a478 .LASF1538
C:\Users\CYMR90~1\AppData\Local\Temp\ccSmV8cy.s:32900  .debug_str:00000000000274e7 .LASF1539
C:\Users\CYMR90~1\AppData\Local\Temp\ccSmV8cy.s:27507  .debug_str:000000000001212b .LASF1540
C:\Users\CYMR90~1\AppData\Local\Temp\ccSmV8cy.s:33630  .debug_str:000000000002a3e3 .LASF1541
C:\Users\CYMR90~1\AppData\Local\Temp\ccSmV8cy.s:26457  .debug_str:000000000000df3e .LASF1542
C:\Users\CYMR90~1\AppData\Local\Temp\ccSmV8cy.s:23753  .debug_str:00000000000032b9 .LASF1543
C:\Users\CYMR90~1\AppData\Local\Temp\ccSmV8cy.s:27045  .debug_str:00000000000102f7 .LASF1544
C:\Users\CYMR90~1\AppData\Local\Temp\ccSmV8cy.s:25021  .debug_str:0000000000008448 .LASF1545
C:\Users\CYMR90~1\AppData\Local\Temp\ccSmV8cy.s:25511  .debug_str:000000000000a1e2 .LASF1546
C:\Users\CYMR90~1\AppData\Local\Temp\ccSmV8cy.s:26183  .debug_str:000000000000ce73 .LASF1547
C:\Users\CYMR90~1\AppData\Local\Temp\ccSmV8cy.s:33224  .debug_str:0000000000028996 .LASF1548
C:\Users\CYMR90~1\AppData\Local\Temp\ccSmV8cy.s:32700  .debug_str:00000000000268b9 .LASF1549
C:\Users\CYMR90~1\AppData\Local\Temp\ccSmV8cy.s:30046  .debug_str:000000000001c205 .LASF1550
C:\Users\CYMR90~1\AppData\Local\Temp\ccSmV8cy.s:27363  .debug_str:00000000000116bc .LASF1551
C:\Users\CYMR90~1\AppData\Local\Temp\ccSmV8cy.s:30018  .debug_str:000000000001c074 .LASF1552
C:\Users\CYMR90~1\AppData\Local\Temp\ccSmV8cy.s:23217  .debug_str:0000000000001153 .LASF1553
C:\Users\CYMR90~1\AppData\Local\Temp\ccSmV8cy.s:23525  .debug_str:0000000000002440 .LASF1554
C:\Users\CYMR90~1\AppData\Local\Temp\ccSmV8cy.s:30770  .debug_str:000000000001f0d3 .LASF1555
C:\Users\CYMR90~1\AppData\Local\Temp\ccSmV8cy.s:29318  .debug_str:00000000000193d0 .LASF1556
C:\Users\CYMR90~1\AppData\Local\Temp\ccSmV8cy.s:29346  .debug_str:0000000000019561 .LASF1557
C:\Users\CYMR90~1\AppData\Local\Temp\ccSmV8cy.s:33720  .debug_str:000000000002a8d2 .LASF1558
C:\Users\CYMR90~1\AppData\Local\Temp\ccSmV8cy.s:27201  .debug_str:0000000000010cfe .LASF1559
C:\Users\CYMR90~1\AppData\Local\Temp\ccSmV8cy.s:32124  .debug_str:0000000000024282 .LASF1560
C:\Users\CYMR90~1\AppData\Local\Temp\ccSmV8cy.s:32554  .debug_str:0000000000025f13 .LASF1561
C:\Users\CYMR90~1\AppData\Local\Temp\ccSmV8cy.s:28599  .debug_str:0000000000016585 .LASF1562
C:\Users\CYMR90~1\AppData\Local\Temp\ccSmV8cy.s:24439  .debug_str:0000000000005e1f .LASF1563
C:\Users\CYMR90~1\AppData\Local\Temp\ccSmV8cy.s:34230  .debug_str:000000000002c7cc .LASF1564
C:\Users\CYMR90~1\AppData\Local\Temp\ccSmV8cy.s:24625  .debug_str:0000000000006932 .LASF1565
C:\Users\CYMR90~1\AppData\Local\Temp\ccSmV8cy.s:30482  .debug_str:000000000001debd .LASF1566
C:\Users\CYMR90~1\AppData\Local\Temp\ccSmV8cy.s:29720  .debug_str:000000000001ae0a .LASF1567
C:\Users\CYMR90~1\AppData\Local\Temp\ccSmV8cy.s:31260  .debug_str:0000000000020e41 .LASF1568
C:\Users\CYMR90~1\AppData\Local\Temp\ccSmV8cy.s:27505  .debug_str:0000000000012084 .LASF1569
C:\Users\CYMR90~1\AppData\Local\Temp\ccSmV8cy.s:32582  .debug_str:00000000000260f3 .LASF1570
C:\Users\CYMR90~1\AppData\Local\Temp\ccSmV8cy.s:27897  .debug_str:0000000000013a2b .LASF1571
C:\Users\CYMR90~1\AppData\Local\Temp\ccSmV8cy.s:24307  .debug_str:0000000000005625 .LASF1572
C:\Users\CYMR90~1\AppData\Local\Temp\ccSmV8cy.s:28323  .debug_str:0000000000015494 .LASF1573
C:\Users\CYMR90~1\AppData\Local\Temp\ccSmV8cy.s:33334  .debug_str:00000000000291b0 .LASF1574
C:\Users\CYMR90~1\AppData\Local\Temp\ccSmV8cy.s:28812  .debug_str:000000000001751c .LASF1575
C:\Users\CYMR90~1\AppData\Local\Temp\ccSmV8cy.s:26845  .debug_str:000000000000f6c1 .LASF1576
C:\Users\CYMR90~1\AppData\Local\Temp\ccSmV8cy.s:30774  .debug_str:000000000001f115 .LASF1577
C:\Users\CYMR90~1\AppData\Local\Temp\ccSmV8cy.s:33834  .debug_str:000000000002afa0 .LASF1578
C:\Users\CYMR90~1\AppData\Local\Temp\ccSmV8cy.s:23535  .debug_str:00000000000024cb .LASF1579
C:\Users\CYMR90~1\AppData\Local\Temp\ccSmV8cy.s:30312  .debug_str:000000000001d347 .LASF1580
C:\Users\CYMR90~1\AppData\Local\Temp\ccSmV8cy.s:27637  .debug_str:0000000000012936 .LASF1581
C:\Users\CYMR90~1\AppData\Local\Temp\ccSmV8cy.s:26373  .debug_str:000000000000da81 .LASF1582
C:\Users\CYMR90~1\AppData\Local\Temp\ccSmV8cy.s:25011  .debug_str:000000000000831e .LASF1583
C:\Users\CYMR90~1\AppData\Local\Temp\ccSmV8cy.s:33014  .debug_str:0000000000027c0a .LASF1584
C:\Users\CYMR90~1\AppData\Local\Temp\ccSmV8cy.s:30582  .debug_str:000000000001e504 .LASF1585
C:\Users\CYMR90~1\AppData\Local\Temp\ccSmV8cy.s:34458  .debug_str:000000000002d671 .LASF1586
C:\Users\CYMR90~1\AppData\Local\Temp\ccSmV8cy.s:26347  .debug_str:000000000000d83f .LASF1587
C:\Users\CYMR90~1\AppData\Local\Temp\ccSmV8cy.s:24973  .debug_str:0000000000008021 .LASF1588
C:\Users\CYMR90~1\AppData\Local\Temp\ccSmV8cy.s:28787  .debug_str:000000000001717c .LASF1589
C:\Users\CYMR90~1\AppData\Local\Temp\ccSmV8cy.s:25861  .debug_str:000000000000b8f7 .LASF1590
C:\Users\CYMR90~1\AppData\Local\Temp\ccSmV8cy.s:28713  .debug_str:0000000000016c39 .LASF1591
C:\Users\CYMR90~1\AppData\Local\Temp\ccSmV8cy.s:25215  .debug_str:0000000000008fd0 .LASF1592
C:\Users\CYMR90~1\AppData\Local\Temp\ccSmV8cy.s:27889  .debug_str:0000000000013946 .LASF1593
C:\Users\CYMR90~1\AppData\Local\Temp\ccSmV8cy.s:33512  .debug_str:0000000000029c44 .LASF1594
C:\Users\CYMR90~1\AppData\Local\Temp\ccSmV8cy.s:33256  .debug_str:0000000000028bea .LASF1595
C:\Users\CYMR90~1\AppData\Local\Temp\ccSmV8cy.s:23183  .debug_str:0000000000000f1c .LASF1596
C:\Users\CYMR90~1\AppData\Local\Temp\ccSmV8cy.s:30340  .debug_str:000000000001d539 .LASF1597
C:\Users\CYMR90~1\AppData\Local\Temp\ccSmV8cy.s:24115  .debug_str:0000000000004a0d .LASF1598
C:\Users\CYMR90~1\AppData\Local\Temp\ccSmV8cy.s:32498  .debug_str:0000000000025ac1 .LASF1599
C:\Users\CYMR90~1\AppData\Local\Temp\ccSmV8cy.s:23331  .debug_str:0000000000001802 .LASF1600
C:\Users\CYMR90~1\AppData\Local\Temp\ccSmV8cy.s:26925  .debug_str:000000000000fb53 .LASF1601
C:\Users\CYMR90~1\AppData\Local\Temp\ccSmV8cy.s:31486  .debug_str:0000000000021bac .LASF1602
C:\Users\CYMR90~1\AppData\Local\Temp\ccSmV8cy.s:30364  .debug_str:000000000001d749 .LASF1603
C:\Users\CYMR90~1\AppData\Local\Temp\ccSmV8cy.s:30254  .debug_str:000000000001ced3 .LASF1604
C:\Users\CYMR90~1\AppData\Local\Temp\ccSmV8cy.s:32476  .debug_str:00000000000258e6 .LASF1605
C:\Users\CYMR90~1\AppData\Local\Temp\ccSmV8cy.s:32396  .debug_str:00000000000253b9 .LASF1606
C:\Users\CYMR90~1\AppData\Local\Temp\ccSmV8cy.s:32346  .debug_str:0000000000025064 .LASF1607
C:\Users\CYMR90~1\AppData\Local\Temp\ccSmV8cy.s:29262  .debug_str:0000000000018fd7 .LASF1608
C:\Users\CYMR90~1\AppData\Local\Temp\ccSmV8cy.s:24091  .debug_str:000000000000485b .LASF1609
C:\Users\CYMR90~1\AppData\Local\Temp\ccSmV8cy.s:31696  .debug_str:0000000000022906 .LASF1610
C:\Users\CYMR90~1\AppData\Local\Temp\ccSmV8cy.s:34356  .debug_str:000000000002cff1 .LASF1611
C:\Users\CYMR90~1\AppData\Local\Temp\ccSmV8cy.s:30196  .debug_str:000000000001cb53 .LASF1612
C:\Users\CYMR90~1\AppData\Local\Temp\ccSmV8cy.s:28205  .debug_str:0000000000014d42 .LASF1613
C:\Users\CYMR90~1\AppData\Local\Temp\ccSmV8cy.s:25497  .debug_str:000000000000a111 .LASF1614
C:\Users\CYMR90~1\AppData\Local\Temp\ccSmV8cy.s:29866  .debug_str:000000000001b7b8 .LASF1615
C:\Users\CYMR90~1\AppData\Local\Temp\ccSmV8cy.s:31582  .debug_str:0000000000022222 .LASF1616
C:\Users\CYMR90~1\AppData\Local\Temp\ccSmV8cy.s:28295  .debug_str:0000000000015275 .LASF1617
C:\Users\CYMR90~1\AppData\Local\Temp\ccSmV8cy.s:30266  .debug_str:000000000001d04c .LASF1618
C:\Users\CYMR90~1\AppData\Local\Temp\ccSmV8cy.s:24137  .debug_str:0000000000004bed .LASF1619
C:\Users\CYMR90~1\AppData\Local\Temp\ccSmV8cy.s:25903  .debug_str:000000000000bc38 .LASF1620
C:\Users\CYMR90~1\AppData\Local\Temp\ccSmV8cy.s:26765  .debug_str:000000000000f229 .LASF1621
C:\Users\CYMR90~1\AppData\Local\Temp\ccSmV8cy.s:23691  .debug_str:0000000000002ee8 .LASF1622
C:\Users\CYMR90~1\AppData\Local\Temp\ccSmV8cy.s:31292  .debug_str:000000000002106f .LASF1623
C:\Users\CYMR90~1\AppData\Local\Temp\ccSmV8cy.s:27891  .debug_str:00000000000139e1 .LASF1624
C:\Users\CYMR90~1\AppData\Local\Temp\ccSmV8cy.s:26005  .debug_str:000000000000c330 .LASF1625
C:\Users\CYMR90~1\AppData\Local\Temp\ccSmV8cy.s:31992  .debug_str:0000000000023a6b .LASF1626
C:\Users\CYMR90~1\AppData\Local\Temp\ccSmV8cy.s:24621  .debug_str:0000000000006904 .LASF1627
C:\Users\CYMR90~1\AppData\Local\Temp\ccSmV8cy.s:31028  .debug_str:0000000000020031 .LASF1628
C:\Users\CYMR90~1\AppData\Local\Temp\ccSmV8cy.s:25747  .debug_str:000000000000b165 .LASF1629
C:\Users\CYMR90~1\AppData\Local\Temp\ccSmV8cy.s:31780  .debug_str:0000000000022dae .LASF1630
C:\Users\CYMR90~1\AppData\Local\Temp\ccSmV8cy.s:25199  .debug_str:0000000000008efb .LASF1631
C:\Users\CYMR90~1\AppData\Local\Temp\ccSmV8cy.s:23287  .debug_str:000000000000157e .LASF1632
C:\Users\CYMR90~1\AppData\Local\Temp\ccSmV8cy.s:29992  .debug_str:000000000001bf35 .LASF1633
C:\Users\CYMR90~1\AppData\Local\Temp\ccSmV8cy.s:28954  .debug_str:0000000000017d5b .LASF1634
C:\Users\CYMR90~1\AppData\Local\Temp\ccSmV8cy.s:25989  .debug_str:000000000000c1e0 .LASF1635
C:\Users\CYMR90~1\AppData\Local\Temp\ccSmV8cy.s:26091  .debug_str:000000000000c876 .LASF1636
C:\Users\CYMR90~1\AppData\Local\Temp\ccSmV8cy.s:27323  .debug_str:000000000001148b .LASF1637
C:\Users\CYMR90~1\AppData\Local\Temp\ccSmV8cy.s:26167  .debug_str:000000000000cd60 .LASF1638
C:\Users\CYMR90~1\AppData\Local\Temp\ccSmV8cy.s:25875  .debug_str:000000000000ba46 .LASF1639
C:\Users\CYMR90~1\AppData\Local\Temp\ccSmV8cy.s:29164  .debug_str:0000000000018a1c .LASF1640
C:\Users\CYMR90~1\AppData\Local\Temp\ccSmV8cy.s:27149  .debug_str:00000000000109c9 .LASF1641
C:\Users\CYMR90~1\AppData\Local\Temp\ccSmV8cy.s:32336  .debug_str:0000000000024fe8 .LASF1642
C:\Users\CYMR90~1\AppData\Local\Temp\ccSmV8cy.s:27517  .debug_str:00000000000121e9 .LASF1643
C:\Users\CYMR90~1\AppData\Local\Temp\ccSmV8cy.s:31178  .debug_str:0000000000020961 .LASF1644
C:\Users\CYMR90~1\AppData\Local\Temp\ccSmV8cy.s:34324  .debug_str:000000000002ce64 .LASF1645
C:\Users\CYMR90~1\AppData\Local\Temp\ccSmV8cy.s:23681  .debug_str:0000000000002e60 .LASF1646
C:\Users\CYMR90~1\AppData\Local\Temp\ccSmV8cy.s:28751  .debug_str:0000000000016f0f .LASF1647
C:\Users\CYMR90~1\AppData\Local\Temp\ccSmV8cy.s:28858  .debug_str:00000000000177c2 .LASF1648
C:\Users\CYMR90~1\AppData\Local\Temp\ccSmV8cy.s:23475  .debug_str:000000000000215d .LASF1649
C:\Users\CYMR90~1\AppData\Local\Temp\ccSmV8cy.s:25037  .debug_str:000000000000857f .LASF1650
C:\Users\CYMR90~1\AppData\Local\Temp\ccSmV8cy.s:32012  .debug_str:0000000000023b99 .LASF1651
C:\Users\CYMR90~1\AppData\Local\Temp\ccSmV8cy.s:27255  .debug_str:0000000000010fdc .LASF1652
C:\Users\CYMR90~1\AppData\Local\Temp\ccSmV8cy.s:24927  .debug_str:0000000000007d15 .LASF1653
C:\Users\CYMR90~1\AppData\Local\Temp\ccSmV8cy.s:23223  .debug_str:00000000000011d0 .LASF1654
C:\Users\CYMR90~1\AppData\Local\Temp\ccSmV8cy.s:29058  .debug_str:00000000000183cd .LASF1657
C:\Users\CYMR90~1\AppData\Local\Temp\ccSmV8cy.s:33886  .debug_str:000000000002b2b4 .LASF1658
C:\Users\CYMR90~1\AppData\Local\Temp\ccSmV8cy.s:27285  .debug_str:00000000000112a3 .LASF1659
C:\Users\CYMR90~1\AppData\Local\Temp\ccSmV8cy.s:29392  .debug_str:00000000000198fa .LASF1660
C:\Users\CYMR90~1\AppData\Local\Temp\ccSmV8cy.s:34128  .debug_str:000000000002c131 .LASF1661
C:\Users\CYMR90~1\AppData\Local\Temp\ccSmV8cy.s:34160  .debug_str:000000000002c374 .LASF1662
C:\Users\CYMR90~1\AppData\Local\Temp\ccSmV8cy.s:31374  .debug_str:0000000000021567 .LASF1663
C:\Users\CYMR90~1\AppData\Local\Temp\ccSmV8cy.s:28257  .debug_str:000000000001501a .LASF1664
C:\Users\CYMR90~1\AppData\Local\Temp\ccSmV8cy.s:30526  .debug_str:000000000001e1b1 .LASF1665
C:\Users\CYMR90~1\AppData\Local\Temp\ccSmV8cy.s:31466  .debug_str:0000000000021a74 .LASF1666
C:\Users\CYMR90~1\AppData\Local\Temp\ccSmV8cy.s:32578  .debug_str:00000000000260af .LASF1667
C:\Users\CYMR90~1\AppData\Local\Temp\ccSmV8cy.s:26673  .debug_str:000000000000ec98 .LASF1668
C:\Users\CYMR90~1\AppData\Local\Temp\ccSmV8cy.s:23925  .debug_str:0000000000003dc2 .LASF1669
C:\Users\CYMR90~1\AppData\Local\Temp\ccSmV8cy.s:25237  .debug_str:00000000000091b2 .LASF1670
C:\Users\CYMR90~1\AppData\Local\Temp\ccSmV8cy.s:24153  .debug_str:0000000000004cda .LASF1671
C:\Users\CYMR90~1\AppData\Local\Temp\ccSmV8cy.s:23021  .debug_str:00000000000005a7 .LASF1672
C:\Users\CYMR90~1\AppData\Local\Temp\ccSmV8cy.s:28177  .debug_str:0000000000014b13 .LASF1673
C:\Users\CYMR90~1\AppData\Local\Temp\ccSmV8cy.s:27591  .debug_str:0000000000012609 .LASF1674
C:\Users\CYMR90~1\AppData\Local\Temp\ccSmV8cy.s:26713  .debug_str:000000000000eed2 .LASF1675
C:\Users\CYMR90~1\AppData\Local\Temp\ccSmV8cy.s:32358  .debug_str:00000000000251a3 .LASF1676
C:\Users\CYMR90~1\AppData\Local\Temp\ccSmV8cy.s:27717  .debug_str:0000000000012e3f .LASF1677
C:\Users\CYMR90~1\AppData\Local\Temp\ccSmV8cy.s:34326  .debug_str:000000000002ce79 .LASF1678
C:\Users\CYMR90~1\AppData\Local\Temp\ccSmV8cy.s:23581  .debug_str:00000000000027be .LASF1679
C:\Users\CYMR90~1\AppData\Local\Temp\ccSmV8cy.s:31724  .debug_str:0000000000022aab .LASF1680
C:\Users\CYMR90~1\AppData\Local\Temp\ccSmV8cy.s:28443  .debug_str:0000000000015bd7 .LASF1681
C:\Users\CYMR90~1\AppData\Local\Temp\ccSmV8cy.s:27065  .debug_str:0000000000010468 .LASF1682
C:\Users\CYMR90~1\AppData\Local\Temp\ccSmV8cy.s:31464  .debug_str:0000000000021a45 .LASF1683
C:\Users\CYMR90~1\AppData\Local\Temp\ccSmV8cy.s:31954  .debug_str:000000000002386c .LASF1684
C:\Users\CYMR90~1\AppData\Local\Temp\ccSmV8cy.s:32892  .debug_str:000000000002748c .LASF1685
C:\Users\CYMR90~1\AppData\Local\Temp\ccSmV8cy.s:27233  .debug_str:0000000000010ec5 .LASF1686
C:\Users\CYMR90~1\AppData\Local\Temp\ccSmV8cy.s:31272  .debug_str:0000000000020f3f .LASF1687
C:\Users\CYMR90~1\AppData\Local\Temp\ccSmV8cy.s:33620  .debug_str:000000000002a338 .LASF1688
C:\Users\CYMR90~1\AppData\Local\Temp\ccSmV8cy.s:25737  .debug_str:000000000000b0bb .LASF1689
C:\Users\CYMR90~1\AppData\Local\Temp\ccSmV8cy.s:29948  .debug_str:000000000001bc5d .LASF1690
C:\Users\CYMR90~1\AppData\Local\Temp\ccSmV8cy.s:27979  .debug_str:0000000000013f58 .LASF1691
C:\Users\CYMR90~1\AppData\Local\Temp\ccSmV8cy.s:31680  .debug_str:0000000000022826 .LASF1692
C:\Users\CYMR90~1\AppData\Local\Temp\ccSmV8cy.s:29248  .debug_str:0000000000018f22 .LASF1693
C:\Users\CYMR90~1\AppData\Local\Temp\ccSmV8cy.s:25031  .debug_str:000000000000850b .LASF1694
C:\Users\CYMR90~1\AppData\Local\Temp\ccSmV8cy.s:27145  .debug_str:000000000001097d .LASF1695
C:\Users\CYMR90~1\AppData\Local\Temp\ccSmV8cy.s:26659  .debug_str:000000000000ebca .LASF1696
C:\Users\CYMR90~1\AppData\Local\Temp\ccSmV8cy.s:28303  .debug_str:000000000001530f .LASF1697
C:\Users\CYMR90~1\AppData\Local\Temp\ccSmV8cy.s:30924  .debug_str:000000000001fa04 .LASF1698
C:\Users\CYMR90~1\AppData\Local\Temp\ccSmV8cy.s:29430  .debug_str:0000000000019b3a .LASF1699
C:\Users\CYMR90~1\AppData\Local\Temp\ccSmV8cy.s:31386  .debug_str:0000000000021632 .LASF1700
C:\Users\CYMR90~1\AppData\Local\Temp\ccSmV8cy.s:30920  .debug_str:000000000001f9c7 .LASF1701
C:\Users\CYMR90~1\AppData\Local\Temp\ccSmV8cy.s:32184  .debug_str:00000000000245f7 .LASF1702
C:\Users\CYMR90~1\AppData\Local\Temp\ccSmV8cy.s:32144  .debug_str:00000000000243b5 .LASF1703
C:\Users\CYMR90~1\AppData\Local\Temp\ccSmV8cy.s:31670  .debug_str:0000000000022794 .LASF1704
C:\Users\CYMR90~1\AppData\Local\Temp\ccSmV8cy.s:30076  .debug_str:000000000001c438 .LASF1705
C:\Users\CYMR90~1\AppData\Local\Temp\ccSmV8cy.s:31528  .debug_str:0000000000021eac .LASF1706
C:\Users\CYMR90~1\AppData\Local\Temp\ccSmV8cy.s:28936  .debug_str:0000000000017c2d .LASF1707
C:\Users\CYMR90~1\AppData\Local\Temp\ccSmV8cy.s:27893  .debug_str:00000000000139f4 .LASF1708
C:\Users\CYMR90~1\AppData\Local\Temp\ccSmV8cy.s:30664  .debug_str:000000000001ea61 .LASF1709
C:\Users\CYMR90~1\AppData\Local\Temp\ccSmV8cy.s:29166  .debug_str:0000000000018a31 .LASF1710
C:\Users\CYMR90~1\AppData\Local\Temp\ccSmV8cy.s:33092  .debug_str:00000000000280ec .LASF1711
C:\Users\CYMR90~1\AppData\Local\Temp\ccSmV8cy.s:27537  .debug_str:00000000000122fc .LASF1712
C:\Users\CYMR90~1\AppData\Local\Temp\ccSmV8cy.s:24547  .debug_str:0000000000006488 .LASF1713
C:\Users\CYMR90~1\AppData\Local\Temp\ccSmV8cy.s:26973  .debug_str:000000000000fe95 .LASF1714
C:\Users\CYMR90~1\AppData\Local\Temp\ccSmV8cy.s:23813  .debug_str:00000000000036e0 .LASF1715
C:\Users\CYMR90~1\AppData\Local\Temp\ccSmV8cy.s:27231  .debug_str:0000000000010e99 .LASF1716
C:\Users\CYMR90~1\AppData\Local\Temp\ccSmV8cy.s:30634  .debug_str:000000000001e88c .LASF1717
C:\Users\CYMR90~1\AppData\Local\Temp\ccSmV8cy.s:29128  .debug_str:00000000000187dd .LASF1718
C:\Users\CYMR90~1\AppData\Local\Temp\ccSmV8cy.s:27477  .debug_str:0000000000011e3f .LASF1719
C:\Users\CYMR90~1\AppData\Local\Temp\ccSmV8cy.s:29490  .debug_str:0000000000019ee7 .LASF1720
C:\Users\CYMR90~1\AppData\Local\Temp\ccSmV8cy.s:27971  .debug_str:0000000000013ed5 .LASF1721
C:\Users\CYMR90~1\AppData\Local\Temp\ccSmV8cy.s:23513  .debug_str:00000000000023a2 .LASF1722
C:\Users\CYMR90~1\AppData\Local\Temp\ccSmV8cy.s:29830  .debug_str:000000000001b4ec .LASF1723
C:\Users\CYMR90~1\AppData\Local\Temp\ccSmV8cy.s:23571  .debug_str:000000000000272f .LASF1724
C:\Users\CYMR90~1\AppData\Local\Temp\ccSmV8cy.s:28511  .debug_str:0000000000015fa7 .LASF1725
C:\Users\CYMR90~1\AppData\Local\Temp\ccSmV8cy.s:33424  .debug_str:00000000000296be .LASF1726
C:\Users\CYMR90~1\AppData\Local\Temp\ccSmV8cy.s:31816  .debug_str:0000000000022ff7 .LASF1727
C:\Users\CYMR90~1\AppData\Local\Temp\ccSmV8cy.s:33060  .debug_str:0000000000027f66 .LASF1728
C:\Users\CYMR90~1\AppData\Local\Temp\ccSmV8cy.s:30310  .debug_str:000000000001d310 .LASF1729
C:\Users\CYMR90~1\AppData\Local\Temp\ccSmV8cy.s:34234  .debug_str:000000000002c88b .LASF1730
C:\Users\CYMR90~1\AppData\Local\Temp\ccSmV8cy.s:32882  .debug_str:00000000000273f1 .LASF1731
C:\Users\CYMR90~1\AppData\Local\Temp\ccSmV8cy.s:27407  .debug_str:0000000000011997 .LASF1732
C:\Users\CYMR90~1\AppData\Local\Temp\ccSmV8cy.s:25351  .debug_str:000000000000980a .LASF1733
C:\Users\CYMR90~1\AppData\Local\Temp\ccSmV8cy.s:23291  .debug_str:00000000000015b5 .LASF1734
C:\Users\CYMR90~1\AppData\Local\Temp\ccSmV8cy.s:28890  .debug_str:0000000000017979 .LASF1735
C:\Users\CYMR90~1\AppData\Local\Temp\ccSmV8cy.s:31096  .debug_str:000000000002043a .LASF1736
C:\Users\CYMR90~1\AppData\Local\Temp\ccSmV8cy.s:25343  .debug_str:0000000000009794 .LASF1737
C:\Users\CYMR90~1\AppData\Local\Temp\ccSmV8cy.s:25053  .debug_str:000000000000866e .LASF1738
C:\Users\CYMR90~1\AppData\Local\Temp\ccSmV8cy.s:32888  .debug_str:000000000002745d .LASF1739
C:\Users\CYMR90~1\AppData\Local\Temp\ccSmV8cy.s:26739  .debug_str:000000000000f092 .LASF1740
C:\Users\CYMR90~1\AppData\Local\Temp\ccSmV8cy.s:25699  .debug_str:000000000000ae80 .LASF1741
C:\Users\CYMR90~1\AppData\Local\Temp\ccSmV8cy.s:30944  .debug_str:000000000001fb2a .LASF1742
C:\Users\CYMR90~1\AppData\Local\Temp\ccSmV8cy.s:30588  .debug_str:000000000001e5d7 .LASF1743
C:\Users\CYMR90~1\AppData\Local\Temp\ccSmV8cy.s:33178  .debug_str:0000000000028672 .LASF1744
C:\Users\CYMR90~1\AppData\Local\Temp\ccSmV8cy.s:25061  .debug_str:00000000000086eb .LASF1745
C:\Users\CYMR90~1\AppData\Local\Temp\ccSmV8cy.s:27035  .debug_str:000000000001024b .LASF1746
C:\Users\CYMR90~1\AppData\Local\Temp\ccSmV8cy.s:32186  .debug_str:000000000002461f .LASF1747
C:\Users\CYMR90~1\AppData\Local\Temp\ccSmV8cy.s:31788  .debug_str:0000000000022e17 .LASF1748
C:\Users\CYMR90~1\AppData\Local\Temp\ccSmV8cy.s:27227  .debug_str:0000000000010e6e .LASF1749
C:\Users\CYMR90~1\AppData\Local\Temp\ccSmV8cy.s:25869  .debug_str:000000000000b9ef .LASF1750
C:\Users\CYMR90~1\AppData\Local\Temp\ccSmV8cy.s:29066  .debug_str:0000000000018434 .LASF1751
C:\Users\CYMR90~1\AppData\Local\Temp\ccSmV8cy.s:24187  .debug_str:0000000000004efa .LASF1752
C:\Users\CYMR90~1\AppData\Local\Temp\ccSmV8cy.s:29810  .debug_str:000000000001b3c8 .LASF1753
C:\Users\CYMR90~1\AppData\Local\Temp\ccSmV8cy.s:29700  .debug_str:000000000001acbb .LASF1754
C:\Users\CYMR90~1\AppData\Local\Temp\ccSmV8cy.s:26157  .debug_str:000000000000cc5f .LASF1755
C:\Users\CYMR90~1\AppData\Local\Temp\ccSmV8cy.s:27787  .debug_str:00000000000132c8 .LASF1756
C:\Users\CYMR90~1\AppData\Local\Temp\ccSmV8cy.s:29898  .debug_str:000000000001b95c .LASF1757
C:\Users\CYMR90~1\AppData\Local\Temp\ccSmV8cy.s:26833  .debug_str:000000000000f5d2 .LASF1758
C:\Users\CYMR90~1\AppData\Local\Temp\ccSmV8cy.s:24861  .debug_str:00000000000078e5 .LASF1759
C:\Users\CYMR90~1\AppData\Local\Temp\ccSmV8cy.s:29642  .debug_str:000000000001a814 .LASF1760
C:\Users\CYMR90~1\AppData\Local\Temp\ccSmV8cy.s:25163  .debug_str:0000000000008cd1 .LASF1761
C:\Users\CYMR90~1\AppData\Local\Temp\ccSmV8cy.s:23351  .debug_str:00000000000019f7 .LASF1762
C:\Users\CYMR90~1\AppData\Local\Temp\ccSmV8cy.s:32374  .debug_str:0000000000025251 .LASF1763
C:\Users\CYMR90~1\AppData\Local\Temp\ccSmV8cy.s:24899  .debug_str:0000000000007b5c .LASF1764
C:\Users\CYMR90~1\AppData\Local\Temp\ccSmV8cy.s:24563  .debug_str:000000000000659f .LASF1765
C:\Users\CYMR90~1\AppData\Local\Temp\ccSmV8cy.s:23333  .debug_str:00000000000018b8 .LASF1766
C:\Users\CYMR90~1\AppData\Local\Temp\ccSmV8cy.s:30024  .debug_str:000000000001c0cd .LASF1767
C:\Users\CYMR90~1\AppData\Local\Temp\ccSmV8cy.s:23395  .debug_str:0000000000001ccd .LASF1768
C:\Users\CYMR90~1\AppData\Local\Temp\ccSmV8cy.s:32584  .debug_str:0000000000026181 .LASF1769
C:\Users\CYMR90~1\AppData\Local\Temp\ccSmV8cy.s:34308  .debug_str:000000000002cd59 .LASF1770
C:\Users\CYMR90~1\AppData\Local\Temp\ccSmV8cy.s:26043  .debug_str:000000000000c57c .LASF1771
C:\Users\CYMR90~1\AppData\Local\Temp\ccSmV8cy.s:24571  .debug_str:0000000000006614 .LASF1772
C:\Users\CYMR90~1\AppData\Local\Temp\ccSmV8cy.s:34370  .debug_str:000000000002d0ea .LASF1773
C:\Users\CYMR90~1\AppData\Local\Temp\ccSmV8cy.s:23113  .debug_str:0000000000000aa3 .LASF1774
C:\Users\CYMR90~1\AppData\Local\Temp\ccSmV8cy.s:33322  .debug_str:00000000000290cb .LASF1775
C:\Users\CYMR90~1\AppData\Local\Temp\ccSmV8cy.s:28197  .debug_str:0000000000014ca4 .LASF1776
C:\Users\CYMR90~1\AppData\Local\Temp\ccSmV8cy.s:26909  .debug_str:000000000000fa7c .LASF1777
C:\Users\CYMR90~1\AppData\Local\Temp\ccSmV8cy.s:29054  .debug_str:000000000001839c .LASF1778
C:\Users\CYMR90~1\AppData\Local\Temp\ccSmV8cy.s:24279  .debug_str:0000000000005462 .LASF1779
C:\Users\CYMR90~1\AppData\Local\Temp\ccSmV8cy.s:32628  .debug_str:0000000000026451 .LASF1780
C:\Users\CYMR90~1\AppData\Local\Temp\ccSmV8cy.s:31822  .debug_str:0000000000023086 .LASF1781
C:\Users\CYMR90~1\AppData\Local\Temp\ccSmV8cy.s:30318  .debug_str:000000000001d3b2 .LASF1784
C:\Users\CYMR90~1\AppData\Local\Temp\ccSmV8cy.s:29440  .debug_str:0000000000019bf0 .LASF1785
C:\Users\CYMR90~1\AppData\Local\Temp\ccSmV8cy.s:29284  .debug_str:0000000000019127 .LASF1786
C:\Users\CYMR90~1\AppData\Local\Temp\ccSmV8cy.s:28243  .debug_str:0000000000014f6c .LASF1787
C:\Users\CYMR90~1\AppData\Local\Temp\ccSmV8cy.s:33754  .debug_str:000000000002aad3 .LASF1788
C:\Users\CYMR90~1\AppData\Local\Temp\ccSmV8cy.s:29838  .debug_str:000000000001b577 .LASF1789
C:\Users\CYMR90~1\AppData\Local\Temp\ccSmV8cy.s:23863  .debug_str:0000000000003a36 .LASF1790
C:\Users\CYMR90~1\AppData\Local\Temp\ccSmV8cy.s:22957  .debug_str:00000000000001e7 .LASF1791
C:\Users\CYMR90~1\AppData\Local\Temp\ccSmV8cy.s:32978  .debug_str:00000000000279aa .LASF1792
C:\Users\CYMR90~1\AppData\Local\Temp\ccSmV8cy.s:32042  .debug_str:0000000000023d51 .LASF1793
C:\Users\CYMR90~1\AppData\Local\Temp\ccSmV8cy.s:33956  .debug_str:000000000002b68e .LASF1794
C:\Users\CYMR90~1\AppData\Local\Temp\ccSmV8cy.s:33260  .debug_str:0000000000028cb5 .LASF1795
C:\Users\CYMR90~1\AppData\Local\Temp\ccSmV8cy.s:27905  .debug_str:0000000000013abe .LASF1796
C:\Users\CYMR90~1\AppData\Local\Temp\ccSmV8cy.s:28181  .debug_str:0000000000014b55 .LASF1797
C:\Users\CYMR90~1\AppData\Local\Temp\ccSmV8cy.s:27289  .debug_str:00000000000112c0 .LASF1798
C:\Users\CYMR90~1\AppData\Local\Temp\ccSmV8cy.s:26069  .debug_str:000000000000c725 .LASF1799
C:\Users\CYMR90~1\AppData\Local\Temp\ccSmV8cy.s:28968  .debug_str:0000000000017e37 .LASF1800
C:\Users\CYMR90~1\AppData\Local\Temp\ccSmV8cy.s:29276  .debug_str:00000000000190b6 .LASF1801
C:\Users\CYMR90~1\AppData\Local\Temp\ccSmV8cy.s:28327  .debug_str:00000000000154ce .LASF1802
C:\Users\CYMR90~1\AppData\Local\Temp\ccSmV8cy.s:27345  .debug_str:00000000000115c4 .LASF1803
C:\Users\CYMR90~1\AppData\Local\Temp\ccSmV8cy.s:26811  .debug_str:000000000000f4a6 .LASF1804
C:\Users\CYMR90~1\AppData\Local\Temp\ccSmV8cy.s:31618  .debug_str:000000000002248c .LASF1805
C:\Users\CYMR90~1\AppData\Local\Temp\ccSmV8cy.s:28207  .debug_str:0000000000014d66 .LASF1806
C:\Users\CYMR90~1\AppData\Local\Temp\ccSmV8cy.s:31220  .debug_str:0000000000020b99 .LASF1807
C:\Users\CYMR90~1\AppData\Local\Temp\ccSmV8cy.s:28351  .debug_str:000000000001566a .LASF1808
C:\Users\CYMR90~1\AppData\Local\Temp\ccSmV8cy.s:33252  .debug_str:0000000000028ba9 .LASF1809
C:\Users\CYMR90~1\AppData\Local\Temp\ccSmV8cy.s:30422  .debug_str:000000000001db14 .LASF1810
C:\Users\CYMR90~1\AppData\Local\Temp\ccSmV8cy.s:29072  .debug_str:00000000000184a9 .LASF1811
C:\Users\CYMR90~1\AppData\Local\Temp\ccSmV8cy.s:23313  .debug_str:0000000000001701 .LASF1812
C:\Users\CYMR90~1\AppData\Local\Temp\ccSmV8cy.s:26047  .debug_str:000000000000c5d7 .LASF1813
C:\Users\CYMR90~1\AppData\Local\Temp\ccSmV8cy.s:27521  .debug_str:000000000001221b .LASF1814
C:\Users\CYMR90~1\AppData\Local\Temp\ccSmV8cy.s:30402  .debug_str:000000000001da07 .LASF1815
C:\Users\CYMR90~1\AppData\Local\Temp\ccSmV8cy.s:29034  .debug_str:0000000000018281 .LASF1816
C:\Users\CYMR90~1\AppData\Local\Temp\ccSmV8cy.s:30408  .debug_str:000000000001da6a .LASF1817
C:\Users\CYMR90~1\AppData\Local\Temp\ccSmV8cy.s:30868  .debug_str:000000000001f67e .LASF1818
C:\Users\CYMR90~1\AppData\Local\Temp\ccSmV8cy.s:27033  .debug_str:0000000000010236 .LASF1819
C:\Users\CYMR90~1\AppData\Local\Temp\ccSmV8cy.s:25675  .debug_str:000000000000aced .LASF1820
C:\Users\CYMR90~1\AppData\Local\Temp\ccSmV8cy.s:24591  .debug_str:000000000000675c .LASF1821
C:\Users\CYMR90~1\AppData\Local\Temp\ccSmV8cy.s:24993  .debug_str:00000000000081f4 .LASF1822
C:\Users\CYMR90~1\AppData\Local\Temp\ccSmV8cy.s:30792  .debug_str:000000000001f227 .LASF1823
C:\Users\CYMR90~1\AppData\Local\Temp\ccSmV8cy.s:33532  .debug_str:0000000000029e0c .LASF1824
C:\Users\CYMR90~1\AppData\Local\Temp\ccSmV8cy.s:25941  .debug_str:000000000000bef0 .LASF1825
C:\Users\CYMR90~1\AppData\Local\Temp\ccSmV8cy.s:31454  .debug_str:00000000000219ca .LASF1826
C:\Users\CYMR90~1\AppData\Local\Temp\ccSmV8cy.s:33894  .debug_str:000000000002b30c .LASF1827
C:\Users\CYMR90~1\AppData\Local\Temp\ccSmV8cy.s:26781  .debug_str:000000000000f306 .LASF1828
C:\Users\CYMR90~1\AppData\Local\Temp\ccSmV8cy.s:26853  .debug_str:000000000000f750 .LASF1829
C:\Users\CYMR90~1\AppData\Local\Temp\ccSmV8cy.s:33264  .debug_str:0000000000028cf2 .LASF1830
C:\Users\CYMR90~1\AppData\Local\Temp\ccSmV8cy.s:25371  .debug_str:00000000000099a1 .LASF1831
C:\Users\CYMR90~1\AppData\Local\Temp\ccSmV8cy.s:32918  .debug_str:00000000000275d2 .LASF1832
C:\Users\CYMR90~1\AppData\Local\Temp\ccSmV8cy.s:26209  .debug_str:000000000000d02c .LASF1833
C:\Users\CYMR90~1\AppData\Local\Temp\ccSmV8cy.s:32530  .debug_str:0000000000025d7f .LASF1834
C:\Users\CYMR90~1\AppData\Local\Temp\ccSmV8cy.s:28665  .debug_str:00000000000169a0 .LASF1835
C:\Users\CYMR90~1\AppData\Local\Temp\ccSmV8cy.s:32776  .debug_str:0000000000026d88 .LASF1836
C:\Users\CYMR90~1\AppData\Local\Temp\ccSmV8cy.s:28635  .debug_str:00000000000167ef .LASF1837
C:\Users\CYMR90~1\AppData\Local\Temp\ccSmV8cy.s:29368  .debug_str:00000000000196c5 .LASF1838
C:\Users\CYMR90~1\AppData\Local\Temp\ccSmV8cy.s:27293  .debug_str:00000000000112f8 .LASF1839
C:\Users\CYMR90~1\AppData\Local\Temp\ccSmV8cy.s:30350  .debug_str:000000000001d65f .LASF1840
C:\Users\CYMR90~1\AppData\Local\Temp\ccSmV8cy.s:29606  .debug_str:000000000001a610 .LASF1841
C:\Users\CYMR90~1\AppData\Local\Temp\ccSmV8cy.s:32458  .debug_str:00000000000257d4 .LASF1842
C:\Users\CYMR90~1\AppData\Local\Temp\ccSmV8cy.s:32872  .debug_str:0000000000027350 .LASF1843
C:\Users\CYMR90~1\AppData\Local\Temp\ccSmV8cy.s:34094  .debug_str:000000000002bf4b .LASF1844
C:\Users\CYMR90~1\AppData\Local\Temp\ccSmV8cy.s:33948  .debug_str:000000000002b614 .LASF1845
C:\Users\CYMR90~1\AppData\Local\Temp\ccSmV8cy.s:25099  .debug_str:0000000000008939 .LASF1846
C:\Users\CYMR90~1\AppData\Local\Temp\ccSmV8cy.s:30566  .debug_str:000000000001e3f3 .LASF1847
C:\Users\CYMR90~1\AppData\Local\Temp\ccSmV8cy.s:23227  .debug_str:0000000000001221 .LASF1848
C:\Users\CYMR90~1\AppData\Local\Temp\ccSmV8cy.s:31742  .debug_str:0000000000022bb4 .LASF1849
C:\Users\CYMR90~1\AppData\Local\Temp\ccSmV8cy.s:30954  .debug_str:000000000001fbc8 .LASF1850
C:\Users\CYMR90~1\AppData\Local\Temp\ccSmV8cy.s:25155  .debug_str:0000000000008c57 .LASF1851
C:\Users\CYMR90~1\AppData\Local\Temp\ccSmV8cy.s:32820  .debug_str:0000000000027058 .LASF1852
C:\Users\CYMR90~1\AppData\Local\Temp\ccSmV8cy.s:26459  .debug_str:000000000000df5b .LASF1853
C:\Users\CYMR90~1\AppData\Local\Temp\ccSmV8cy.s:23759  .debug_str:000000000000334d .LASF1854
C:\Users\CYMR90~1\AppData\Local\Temp\ccSmV8cy.s:30444  .debug_str:000000000001dc7f .LASF1855
C:\Users\CYMR90~1\AppData\Local\Temp\ccSmV8cy.s:33098  .debug_str:000000000002814c .LASF1856
C:\Users\CYMR90~1\AppData\Local\Temp\ccSmV8cy.s:25247  .debug_str:0000000000009267 .LASF1857
C:\Users\CYMR90~1\AppData\Local\Temp\ccSmV8cy.s:26139  .debug_str:000000000000cb53 .LASF1858
C:\Users\CYMR90~1\AppData\Local\Temp\ccSmV8cy.s:33200  .debug_str:000000000002880a .LASF1859
C:\Users\CYMR90~1\AppData\Local\Temp\ccSmV8cy.s:28361  .debug_str:00000000000156df .LASF1860
C:\Users\CYMR90~1\AppData\Local\Temp\ccSmV8cy.s:29306  .debug_str:0000000000019315 .LASF1861
C:\Users\CYMR90~1\AppData\Local\Temp\ccSmV8cy.s:27083  .debug_str:0000000000010569 .LASF1862
C:\Users\CYMR90~1\AppData\Local\Temp\ccSmV8cy.s:24749  .debug_str:000000000000717e .LASF1863
C:\Users\CYMR90~1\AppData\Local\Temp\ccSmV8cy.s:29212  .debug_str:0000000000018ce2 .LASF1864
C:\Users\CYMR90~1\AppData\Local\Temp\ccSmV8cy.s:24389  .debug_str:0000000000005b2c .LASF1865
C:\Users\CYMR90~1\AppData\Local\Temp\ccSmV8cy.s:31926  .debug_str:00000000000236d4 .LASF1866
C:\Users\CYMR90~1\AppData\Local\Temp\ccSmV8cy.s:31146  .debug_str:0000000000020764 .LASF1867
C:\Users\CYMR90~1\AppData\Local\Temp\ccSmV8cy.s:26067  .debug_str:000000000000c6f5 .LASF1868
C:\Users\CYMR90~1\AppData\Local\Temp\ccSmV8cy.s:23093  .debug_str:000000000000095d .LASF1869
C:\Users\CYMR90~1\AppData\Local\Temp\ccSmV8cy.s:25077  .debug_str:00000000000087ea .LASF1870
C:\Users\CYMR90~1\AppData\Local\Temp\ccSmV8cy.s:33478  .debug_str:0000000000029a36 .LASF1871
C:\Users\CYMR90~1\AppData\Local\Temp\ccSmV8cy.s:32560  .debug_str:0000000000025f7f .LASF1872
C:\Users\CYMR90~1\AppData\Local\Temp\ccSmV8cy.s:28828  .debug_str:000000000001760a .LASF1873
C:\Users\CYMR90~1\AppData\Local\Temp\ccSmV8cy.s:24935  .debug_str:0000000000007dcf .LASF1874
C:\Users\CYMR90~1\AppData\Local\Temp\ccSmV8cy.s:25845  .debug_str:000000000000b7f2 .LASF1875
C:\Users\CYMR90~1\AppData\Local\Temp\ccSmV8cy.s:33656  .debug_str:000000000002a54f .LASF1876
C:\Users\CYMR90~1\AppData\Local\Temp\ccSmV8cy.s:23779  .debug_str:00000000000034ab .LASF1877
C:\Users\CYMR90~1\AppData\Local\Temp\ccSmV8cy.s:25881  .debug_str:000000000000ba9b .LASF1878
C:\Users\CYMR90~1\AppData\Local\Temp\ccSmV8cy.s:26913  .debug_str:000000000000fab5 .LASF1879
C:\Users\CYMR90~1\AppData\Local\Temp\ccSmV8cy.s:25201  .debug_str:0000000000008f12 .LASF1880
C:\Users\CYMR90~1\AppData\Local\Temp\ccSmV8cy.s:30934  .debug_str:000000000001fa94 .LASF1881
C:\Users\CYMR90~1\AppData\Local\Temp\ccSmV8cy.s:23205  .debug_str:00000000000010c3 .LASF1882
C:\Users\CYMR90~1\AppData\Local\Temp\ccSmV8cy.s:31344  .debug_str:00000000000213a9 .LASF1883
C:\Users\CYMR90~1\AppData\Local\Temp\ccSmV8cy.s:34090  .debug_str:000000000002bf03 .LASF1884
C:\Users\CYMR90~1\AppData\Local\Temp\ccSmV8cy.s:31046  .debug_str:0000000000020141 .LASF1885
C:\Users\CYMR90~1\AppData\Local\Temp\ccSmV8cy.s:33216  .debug_str:0000000000028904 .LASF1886
C:\Users\CYMR90~1\AppData\Local\Temp\ccSmV8cy.s:25429  .debug_str:0000000000009d35 .LASF1887
C:\Users\CYMR90~1\AppData\Local\Temp\ccSmV8cy.s:25231  .debug_str:000000000000914e .LASF1888
C:\Users\CYMR90~1\AppData\Local\Temp\ccSmV8cy.s:34124  .debug_str:000000000002c0ef .LASF1889
C:\Users\CYMR90~1\AppData\Local\Temp\ccSmV8cy.s:29456  .debug_str:0000000000019ca3 .LASF1890
C:\Users\CYMR90~1\AppData\Local\Temp\ccSmV8cy.s:25421  .debug_str:0000000000009c8f .LASF1891
C:\Users\CYMR90~1\AppData\Local\Temp\ccSmV8cy.s:25517  .debug_str:000000000000a266 .LASF1892
C:\Users\CYMR90~1\AppData\Local\Temp\ccSmV8cy.s:24701  .debug_str:0000000000006e56 .LASF1893
C:\Users\CYMR90~1\AppData\Local\Temp\ccSmV8cy.s:25225  .debug_str:00000000000090f2 .LASF1894
C:\Users\CYMR90~1\AppData\Local\Temp\ccSmV8cy.s:28767  .debug_str:000000000001701d .LASF1895
C:\Users\CYMR90~1\AppData\Local\Temp\ccSmV8cy.s:29526  .debug_str:000000000001a180 .LASF1896
C:\Users\CYMR90~1\AppData\Local\Temp\ccSmV8cy.s:23411  .debug_str:0000000000001da9 .LASF1897
C:\Users\CYMR90~1\AppData\Local\Temp\ccSmV8cy.s:32944  .debug_str:0000000000027795 .LASF1898
C:\Users\CYMR90~1\AppData\Local\Temp\ccSmV8cy.s:29706  .debug_str:000000000001ad2d .LASF1899
C:\Users\CYMR90~1\AppData\Local\Temp\ccSmV8cy.s:26349  .debug_str:000000000000d8f7 .LASF1900
C:\Users\CYMR90~1\AppData\Local\Temp\ccSmV8cy.s:23003  .debug_str:0000000000000496 .LASF1901
C:\Users\CYMR90~1\AppData\Local\Temp\ccSmV8cy.s:23847  .debug_str:000000000000390e .LASF1902
C:\Users\CYMR90~1\AppData\Local\Temp\ccSmV8cy.s:25965  .debug_str:000000000000c01f .LASF1903
C:\Users\CYMR90~1\AppData\Local\Temp\ccSmV8cy.s:34372  .debug_str:000000000002d111 .LASF1904
C:\Users\CYMR90~1\AppData\Local\Temp\ccSmV8cy.s:28771  .debug_str:000000000001705e .LASF1905
C:\Users\CYMR90~1\AppData\Local\Temp\ccSmV8cy.s:25391  .debug_str:0000000000009a71 .LASF1906
C:\Users\CYMR90~1\AppData\Local\Temp\ccSmV8cy.s:33292  .debug_str:0000000000028e77 .LASF1907
C:\Users\CYMR90~1\AppData\Local\Temp\ccSmV8cy.s:30274  .debug_str:000000000001d0c2 .LASF1908
C:\Users\CYMR90~1\AppData\Local\Temp\ccSmV8cy.s:24377  .debug_str:0000000000005a5a .LASF1909
C:\Users\CYMR90~1\AppData\Local\Temp\ccSmV8cy.s:33646  .debug_str:000000000002a4ae .LASF1910
C:\Users\CYMR90~1\AppData\Local\Temp\ccSmV8cy.s:29884  .debug_str:000000000001b8af .LASF1911
C:\Users\CYMR90~1\AppData\Local\Temp\ccSmV8cy.s:23159  .debug_str:0000000000000dae .LASF1912
C:\Users\CYMR90~1\AppData\Local\Temp\ccSmV8cy.s:25867  .debug_str:000000000000b9d0 .LASF1913
C:\Users\CYMR90~1\AppData\Local\Temp\ccSmV8cy.s:25695  .debug_str:000000000000ae28 .LASF1914
C:\Users\CYMR90~1\AppData\Local\Temp\ccSmV8cy.s:31250  .debug_str:0000000000020d88 .LASF1915
C:\Users\CYMR90~1\AppData\Local\Temp\ccSmV8cy.s:32534  .debug_str:0000000000025dc0 .LASF1916
C:\Users\CYMR90~1\AppData\Local\Temp\ccSmV8cy.s:29070  .debug_str:000000000001847d .LASF1917
C:\Users\CYMR90~1\AppData\Local\Temp\ccSmV8cy.s:25597  .debug_str:000000000000a798 .LASF1918
C:\Users\CYMR90~1\AppData\Local\Temp\ccSmV8cy.s:33706  .debug_str:000000000002a817 .LASF1919
C:\Users\CYMR90~1\AppData\Local\Temp\ccSmV8cy.s:30246  .debug_str:000000000001ce48 .LASF1920
C:\Users\CYMR90~1\AppData\Local\Temp\ccSmV8cy.s:25913  .debug_str:000000000000bce5 .LASF1921
C:\Users\CYMR90~1\AppData\Local\Temp\ccSmV8cy.s:24775  .debug_str:000000000000733a .LASF1922
C:\Users\CYMR90~1\AppData\Local\Temp\ccSmV8cy.s:31318  .debug_str:0000000000021221 .LASF1923
C:\Users\CYMR90~1\AppData\Local\Temp\ccSmV8cy.s:33434  .debug_str:000000000002975b .LASF1924
C:\Users\CYMR90~1\AppData\Local\Temp\ccSmV8cy.s:25717  .debug_str:000000000000af96 .LASF1925
C:\Users\CYMR90~1\AppData\Local\Temp\ccSmV8cy.s:31142  .debug_str:0000000000020710 .LASF1926
C:\Users\CYMR90~1\AppData\Local\Temp\ccSmV8cy.s:30128  .debug_str:000000000001c75e .LASF1927
C:\Users\CYMR90~1\AppData\Local\Temp\ccSmV8cy.s:23885  .debug_str:0000000000003b6f .LASF1928
C:\Users\CYMR90~1\AppData\Local\Temp\ccSmV8cy.s:24825  .debug_str:000000000000769a .LASF1929
C:\Users\CYMR90~1\AppData\Local\Temp\ccSmV8cy.s:31068  .debug_str:0000000000020276 .LASF1930
C:\Users\CYMR90~1\AppData\Local\Temp\ccSmV8cy.s:34406  .debug_str:000000000002d36c .LASF1931
C:\Users\CYMR90~1\AppData\Local\Temp\ccSmV8cy.s:34082  .debug_str:000000000002be69 .LASF1932
C:\Users\CYMR90~1\AppData\Local\Temp\ccSmV8cy.s:24949  .debug_str:0000000000007e7d .LASF1933
C:\Users\CYMR90~1\AppData\Local\Temp\ccSmV8cy.s:27063  .debug_str:0000000000010438 .LASF1934
C:\Users\CYMR90~1\AppData\Local\Temp\ccSmV8cy.s:30210  .debug_str:000000000001cc0a .LASF1935
C:\Users\CYMR90~1\AppData\Local\Temp\ccSmV8cy.s:24419  .debug_str:0000000000005ceb .LASF1936
C:\Users\CYMR90~1\AppData\Local\Temp\ccSmV8cy.s:30062  .debug_str:000000000001c31b .LASF1937
C:\Users\CYMR90~1\AppData\Local\Temp\ccSmV8cy.s:29014  .debug_str:0000000000018164 .LASF1938
C:\Users\CYMR90~1\AppData\Local\Temp\ccSmV8cy.s:28305  .debug_str:000000000001533b .LASF1939
C:\Users\CYMR90~1\AppData\Local\Temp\ccSmV8cy.s:25145  .debug_str:0000000000008bc9 .LASF1940
C:\Users\CYMR90~1\AppData\Local\Temp\ccSmV8cy.s:33496  .debug_str:0000000000029b6a .LASF1941
C:\Users\CYMR90~1\AppData\Local\Temp\ccSmV8cy.s:30332  .debug_str:000000000001d4a2 .LASF1942
C:\Users\CYMR90~1\AppData\Local\Temp\ccSmV8cy.s:26101  .debug_str:000000000000c902 .LASF1943
C:\Users\CYMR90~1\AppData\Local\Temp\ccSmV8cy.s:27275  .debug_str:0000000000011172 .LASF1944
C:\Users\CYMR90~1\AppData\Local\Temp\ccSmV8cy.s:31182  .debug_str:000000000002099d .LASF1945
C:\Users\CYMR90~1\AppData\Local\Temp\ccSmV8cy.s:28015  .debug_str:000000000001419a .LASF1946
C:\Users\CYMR90~1\AppData\Local\Temp\ccSmV8cy.s:24713  .debug_str:0000000000006f3e .LASF1947
C:\Users\CYMR90~1\AppData\Local\Temp\ccSmV8cy.s:23603  .debug_str:0000000000002967 .LASF1948
C:\Users\CYMR90~1\AppData\Local\Temp\ccSmV8cy.s:29944  .debug_str:000000000001bc2d .LASF1949
C:\Users\CYMR90~1\AppData\Local\Temp\ccSmV8cy.s:26799  .debug_str:000000000000f3f1 .LASF1950
C:\Users\CYMR90~1\AppData\Local\Temp\ccSmV8cy.s:23473  .debug_str:000000000000213e .LASF1951
C:\Users\CYMR90~1\AppData\Local\Temp\ccSmV8cy.s:31942  .debug_str:000000000002379f .LASF1952
C:\Users\CYMR90~1\AppData\Local\Temp\ccSmV8cy.s:24801  .debug_str:0000000000007533 .LASF1953
C:\Users\CYMR90~1\AppData\Local\Temp\ccSmV8cy.s:28139  .debug_str:00000000000148eb .LASF1954
C:\Users\CYMR90~1\AppData\Local\Temp\ccSmV8cy.s:31468  .debug_str:0000000000021a97 .LASF1955
C:\Users\CYMR90~1\AppData\Local\Temp\ccSmV8cy.s:32140  .debug_str:000000000002437e .LASF1956
C:\Users\CYMR90~1\AppData\Local\Temp\ccSmV8cy.s:23527  .debug_str:000000000000246a .LASF1957
C:\Users\CYMR90~1\AppData\Local\Temp\ccSmV8cy.s:33920  .debug_str:000000000002b467 .LASF1958
C:\Users\CYMR90~1\AppData\Local\Temp\ccSmV8cy.s:24955  .debug_str:0000000000007eee .LASF1959
C:\Users\CYMR90~1\AppData\Local\Temp\ccSmV8cy.s:33480  .debug_str:0000000000029a75 .LASF1960
C:\Users\CYMR90~1\AppData\Local\Temp\ccSmV8cy.s:30284  .debug_str:000000000001d17a .LASF1961
C:\Users\CYMR90~1\AppData\Local\Temp\ccSmV8cy.s:25751  .debug_str:000000000000b19c .LASF1962
C:\Users\CYMR90~1\AppData\Local\Temp\ccSmV8cy.s:28547  .debug_str:00000000000161b7 .LASF1963
C:\Users\CYMR90~1\AppData\Local\Temp\ccSmV8cy.s:32512  .debug_str:0000000000025c33 .LASF1964
C:\Users\CYMR90~1\AppData\Local\Temp\ccSmV8cy.s:24779  .debug_str:00000000000073a5 .LASF1965
C:\Users\CYMR90~1\AppData\Local\Temp\ccSmV8cy.s:30432  .debug_str:000000000001db9d .LASF1966
C:\Users\CYMR90~1\AppData\Local\Temp\ccSmV8cy.s:34020  .debug_str:000000000002ba20 .LASF1967
C:\Users\CYMR90~1\AppData\Local\Temp\ccSmV8cy.s:31520  .debug_str:0000000000021e59 .LASF1968
C:\Users\CYMR90~1\AppData\Local\Temp\ccSmV8cy.s:31830  .debug_str:000000000002310e .LASF1969
C:\Users\CYMR90~1\AppData\Local\Temp\ccSmV8cy.s:24759  .debug_str:000000000000723b .LASF1970
C:\Users\CYMR90~1\AppData\Local\Temp\ccSmV8cy.s:23455  .debug_str:000000000000205a .LASF1971
C:\Users\CYMR90~1\AppData\Local\Temp\ccSmV8cy.s:32552  .debug_str:0000000000025eeb .LASF1972
C:\Users\CYMR90~1\AppData\Local\Temp\ccSmV8cy.s:29546  .debug_str:000000000001a2d9 .LASF1973
C:\Users\CYMR90~1\AppData\Local\Temp\ccSmV8cy.s:29352  .debug_str:00000000000195cf .LASF1974
C:\Users\CYMR90~1\AppData\Local\Temp\ccSmV8cy.s:26113  .debug_str:000000000000c99b .LASF1975
C:\Users\CYMR90~1\AppData\Local\Temp\ccSmV8cy.s:24975  .debug_str:00000000000080d7 .LASF1976
C:\Users\CYMR90~1\AppData\Local\Temp\ccSmV8cy.s:25337  .debug_str:000000000000974b .LASF1977
C:\Users\CYMR90~1\AppData\Local\Temp\ccSmV8cy.s:33728  .debug_str:000000000002a93e .LASF1978
C:\Users\CYMR90~1\AppData\Local\Temp\ccSmV8cy.s:24237  .debug_str:00000000000051e7 .LASF1979
C:\Users\CYMR90~1\AppData\Local\Temp\ccSmV8cy.s:32446  .debug_str:0000000000025709 .LASF1980
C:\Users\CYMR90~1\AppData\Local\Temp\ccSmV8cy.s:32298  .debug_str:0000000000024d93 .LASF1981
C:\Users\CYMR90~1\AppData\Local\Temp\ccSmV8cy.s:32148  .debug_str:0000000000024405 .LASF1982
C:\Users\CYMR90~1\AppData\Local\Temp\ccSmV8cy.s:32994  .debug_str:0000000000027a88 .LASF1983
C:\Users\CYMR90~1\AppData\Local\Temp\ccSmV8cy.s:33924  .debug_str:000000000002b4bd .LASF1984
C:\Users\CYMR90~1\AppData\Local\Temp\ccSmV8cy.s:24925  .debug_str:0000000000007cf2 .LASF1985
C:\Users\CYMR90~1\AppData\Local\Temp\ccSmV8cy.s:29980  .debug_str:000000000001be77 .LASF1986
C:\Users\CYMR90~1\AppData\Local\Temp\ccSmV8cy.s:28219  .debug_str:0000000000014df2 .LASF1987
C:\Users\CYMR90~1\AppData\Local\Temp\ccSmV8cy.s:29244  .debug_str:0000000000018ee9 .LASF1988
C:\Users\CYMR90~1\AppData\Local\Temp\ccSmV8cy.s:26203  .debug_str:000000000000cfd2 .LASF1989
C:\Users\CYMR90~1\AppData\Local\Temp\ccSmV8cy.s:23983  .debug_str:00000000000041ca .LASF1990
C:\Users\CYMR90~1\AppData\Local\Temp\ccSmV8cy.s:26269  .debug_str:000000000000d366 .LASF1991
C:\Users\CYMR90~1\AppData\Local\Temp\ccSmV8cy.s:27193  .debug_str:0000000000010c61 .LASF1992
C:\Users\CYMR90~1\AppData\Local\Temp\ccSmV8cy.s:29984  .debug_str:000000000001bebe .LASF1993
C:\Users\CYMR90~1\AppData\Local\Temp\ccSmV8cy.s:23201  .debug_str:0000000000001093 .LASF1994
C:\Users\CYMR90~1\AppData\Local\Temp\ccSmV8cy.s:32568  .debug_str:0000000000026006 .LASF1995
C:\Users\CYMR90~1\AppData\Local\Temp\ccSmV8cy.s:23845  .debug_str:00000000000038da .LASF1996
C:\Users\CYMR90~1\AppData\Local\Temp\ccSmV8cy.s:33046  .debug_str:0000000000027e96 .LASF1997
C:\Users\CYMR90~1\AppData\Local\Temp\ccSmV8cy.s:25117  .debug_str:0000000000008a1a .LASF1998
C:\Users\CYMR90~1\AppData\Local\Temp\ccSmV8cy.s:29172  .debug_str:0000000000018a8c .LASF1999
C:\Users\CYMR90~1\AppData\Local\Temp\ccSmV8cy.s:28653  .debug_str:00000000000168f7 .LASF2000
C:\Users\CYMR90~1\AppData\Local\Temp\ccSmV8cy.s:27443  .debug_str:0000000000011bff .LASF2001
C:\Users\CYMR90~1\AppData\Local\Temp\ccSmV8cy.s:31840  .debug_str:00000000000231ab .LASF2002
C:\Users\CYMR90~1\AppData\Local\Temp\ccSmV8cy.s:33270  .debug_str:0000000000028d37 .LASF2003
C:\Users\CYMR90~1\AppData\Local\Temp\ccSmV8cy.s:26967  .debug_str:000000000000fe4a .LASF2004
C:\Users\CYMR90~1\AppData\Local\Temp\ccSmV8cy.s:31726  .debug_str:0000000000022ac0 .LASF2005
C:\Users\CYMR90~1\AppData\Local\Temp\ccSmV8cy.s:28860  .debug_str:00000000000177d6 .LASF2006
C:\Users\CYMR90~1\AppData\Local\Temp\ccSmV8cy.s:34176  .debug_str:000000000002c49c .LASF2007
C:\Users\CYMR90~1\AppData\Local\Temp\ccSmV8cy.s:24281  .debug_str:000000000000548a .LASF2008
C:\Users\CYMR90~1\AppData\Local\Temp\ccSmV8cy.s:27937  .debug_str:0000000000013cdf .LASF2009
C:\Users\CYMR90~1\AppData\Local\Temp\ccSmV8cy.s:30718  .debug_str:000000000001ede3 .LASF2010
C:\Users\CYMR90~1\AppData\Local\Temp\ccSmV8cy.s:26235  .debug_str:000000000000d1bf .LASF2011
C:\Users\CYMR90~1\AppData\Local\Temp\ccSmV8cy.s:28413  .debug_str:0000000000015a0b .LASF2012
C:\Users\CYMR90~1\AppData\Local\Temp\ccSmV8cy.s:32026  .debug_str:0000000000023c71 .LASF2013
C:\Users\CYMR90~1\AppData\Local\Temp\ccSmV8cy.s:31778  .debug_str:0000000000022d96 .LASF2014
C:\Users\CYMR90~1\AppData\Local\Temp\ccSmV8cy.s:29684  .debug_str:000000000001abd1 .LASF2015
C:\Users\CYMR90~1\AppData\Local\Temp\ccSmV8cy.s:29378  .debug_str:0000000000019836 .LASF2016
C:\Users\CYMR90~1\AppData\Local\Temp\ccSmV8cy.s:31934  .debug_str:0000000000023748 .LASF2017
C:\Users\CYMR90~1\AppData\Local\Temp\ccSmV8cy.s:34084  .debug_str:000000000002be99 .LASF2018
C:\Users\CYMR90~1\AppData\Local\Temp\ccSmV8cy.s:30476  .debug_str:000000000001de61 .LASF2019
C:\Users\CYMR90~1\AppData\Local\Temp\ccSmV8cy.s:24655  .debug_str:0000000000006b59 .LASF2020
C:\Users\CYMR90~1\AppData\Local\Temp\ccSmV8cy.s:31978  .debug_str:00000000000239c7 .LASF2021
C:\Users\CYMR90~1\AppData\Local\Temp\ccSmV8cy.s:32984  .debug_str:0000000000027a0a .LASF2022
C:\Users\CYMR90~1\AppData\Local\Temp\ccSmV8cy.s:27315  .debug_str:000000000001141e .LASF2023
C:\Users\CYMR90~1\AppData\Local\Temp\ccSmV8cy.s:30130  .debug_str:000000000001c78c .LASF2024
C:\Users\CYMR90~1\AppData\Local\Temp\ccSmV8cy.s:25939  .debug_str:000000000000bed5 .LASF2025
C:\Users\CYMR90~1\AppData\Local\Temp\ccSmV8cy.s:34032  .debug_str:000000000002bac4 .LASF2026
C:\Users\CYMR90~1\AppData\Local\Temp\ccSmV8cy.s:23803  .debug_str:0000000000003638 .LASF2027
C:\Users\CYMR90~1\AppData\Local\Temp\ccSmV8cy.s:32040  .debug_str:0000000000023d33 .LASF2028
C:\Users\CYMR90~1\AppData\Local\Temp\ccSmV8cy.s:31034  .debug_str:000000000002006d .LASF2029
C:\Users\CYMR90~1\AppData\Local\Temp\ccSmV8cy.s:27593  .debug_str:0000000000012626 .LASF2030
C:\Users\CYMR90~1\AppData\Local\Temp\ccSmV8cy.s:29074  .debug_str:00000000000184be .LASF2031
C:\Users\CYMR90~1\AppData\Local\Temp\ccSmV8cy.s:25687  .debug_str:000000000000ada5 .LASF2032
C:\Users\CYMR90~1\AppData\Local\Temp\ccSmV8cy.s:26929  .debug_str:000000000000fc3f .LASF2033
C:\Users\CYMR90~1\AppData\Local\Temp\ccSmV8cy.s:25915  .debug_str:000000000000bd11 .LASF2034
C:\Users\CYMR90~1\AppData\Local\Temp\ccSmV8cy.s:27519  .debug_str:00000000000121fe .LASF2035
C:\Users\CYMR90~1\AppData\Local\Temp\ccSmV8cy.s:31502  .debug_str:0000000000021d37 .LASF2036
C:\Users\CYMR90~1\AppData\Local\Temp\ccSmV8cy.s:31908  .debug_str:00000000000235ca .LASF2037
C:\Users\CYMR90~1\AppData\Local\Temp\ccSmV8cy.s:32492  .debug_str:0000000000025a57 .LASF2038
C:\Users\CYMR90~1\AppData\Local\Temp\ccSmV8cy.s:27617  .debug_str:00000000000127f3 .LASF2039
C:\Users\CYMR90~1\AppData\Local\Temp\ccSmV8cy.s:29624  .debug_str:000000000001a71f .LASF2040
C:\Users\CYMR90~1\AppData\Local\Temp\ccSmV8cy.s:26267  .debug_str:000000000000d346 .LASF2041
C:\Users\CYMR90~1\AppData\Local\Temp\ccSmV8cy.s:23613  .debug_str:0000000000002a00 .LASF2042
C:\Users\CYMR90~1\AppData\Local\Temp\ccSmV8cy.s:24379  .debug_str:0000000000005a98 .LASF2043
C:\Users\CYMR90~1\AppData\Local\Temp\ccSmV8cy.s:34462  .debug_str:000000000002d731 .LASF2044
C:\Users\CYMR90~1\AppData\Local\Temp\ccSmV8cy.s:27911  .debug_str:0000000000013b17 .LASF2045
C:\Users\CYMR90~1\AppData\Local\Temp\ccSmV8cy.s:31794  .debug_str:0000000000022e85 .LASF2046
C:\Users\CYMR90~1\AppData\Local\Temp\ccSmV8cy.s:33446  .debug_str:0000000000029826 .LASF2047
C:\Users\CYMR90~1\AppData\Local\Temp\ccSmV8cy.s:30106  .debug_str:000000000001c619 .LASF2048
C:\Users\CYMR90~1\AppData\Local\Temp\ccSmV8cy.s:30674  .debug_str:000000000001eae2 .LASF2049
C:\Users\CYMR90~1\AppData\Local\Temp\ccSmV8cy.s:24441  .debug_str:0000000000005e39 .LASF2050
C:\Users\CYMR90~1\AppData\Local\Temp\ccSmV8cy.s:23789  .debug_str:000000000000353e .LASF2051
C:\Users\CYMR90~1\AppData\Local\Temp\ccSmV8cy.s:25807  .debug_str:000000000000b602 .LASF2052
C:\Users\CYMR90~1\AppData\Local\Temp\ccSmV8cy.s:32528  .debug_str:0000000000025d38 .LASF2053
C:\Users\CYMR90~1\AppData\Local\Temp\ccSmV8cy.s:33876  .debug_str:000000000002b214 .LASF2054
C:\Users\CYMR90~1\AppData\Local\Temp\ccSmV8cy.s:24247  .debug_str:0000000000005281 .LASF2055
C:\Users\CYMR90~1\AppData\Local\Temp\ccSmV8cy.s:32876  .debug_str:0000000000027387 .LASF2056
C:\Users\CYMR90~1\AppData\Local\Temp\ccSmV8cy.s:30846  .debug_str:000000000001f50a .LASF2057
C:\Users\CYMR90~1\AppData\Local\Temp\ccSmV8cy.s:28922  .debug_str:0000000000017b7d .LASF2058
C:\Users\CYMR90~1\AppData\Local\Temp\ccSmV8cy.s:26839  .debug_str:000000000000f645 .LASF2059
C:\Users\CYMR90~1\AppData\Local\Temp\ccSmV8cy.s:26527  .debug_str:000000000000e35f .LASF2060
C:\Users\CYMR90~1\AppData\Local\Temp\ccSmV8cy.s:31304  .debug_str:000000000002114a .LASF2061
C:\Users\CYMR90~1\AppData\Local\Temp\ccSmV8cy.s:28043  .debug_str:0000000000014335 .LASF2062
C:\Users\CYMR90~1\AppData\Local\Temp\ccSmV8cy.s:23583  .debug_str:00000000000027f7 .LASF2063
C:\Users\CYMR90~1\AppData\Local\Temp\ccSmV8cy.s:29828  .debug_str:000000000001b4c0 .LASF2064
C:\Users\CYMR90~1\AppData\Local\Temp\ccSmV8cy.s:28685  .debug_str:0000000000016ac3 .LASF2065
C:\Users\CYMR90~1\AppData\Local\Temp\ccSmV8cy.s:25353  .debug_str:000000000000982b .LASF2066
C:\Users\CYMR90~1\AppData\Local\Temp\ccSmV8cy.s:25839  .debug_str:000000000000b794 .LASF2067
C:\Users\CYMR90~1\AppData\Local\Temp\ccSmV8cy.s:29020  .debug_str:00000000000181c5 .LASF2068
C:\Users\CYMR90~1\AppData\Local\Temp\ccSmV8cy.s:28627  .debug_str:000000000001674e .LASF2069
C:\Users\CYMR90~1\AppData\Local\Temp\ccSmV8cy.s:26407  .debug_str:000000000000dc61 .LASF2070
C:\Users\CYMR90~1\AppData\Local\Temp\ccSmV8cy.s:24413  .debug_str:0000000000005ca4 .LASF2071
C:\Users\CYMR90~1\AppData\Local\Temp\ccSmV8cy.s:27771  .debug_str:00000000000131de .LASF2072
C:\Users\CYMR90~1\AppData\Local\Temp\ccSmV8cy.s:26761  .debug_str:000000000000f1f6 .LASF2073
C:\Users\CYMR90~1\AppData\Local\Temp\ccSmV8cy.s:25981  .debug_str:000000000000c12d .LASF2074
C:\Users\CYMR90~1\AppData\Local\Temp\ccSmV8cy.s:34258  .debug_str:000000000002c9dc .LASF2075
C:\Users\CYMR90~1\AppData\Local\Temp\ccSmV8cy.s:25217  .debug_str:0000000000009086 .LASF2076
C:\Users\CYMR90~1\AppData\Local\Temp\ccSmV8cy.s:33522  .debug_str:0000000000029d65 .LASF2077
C:\Users\CYMR90~1\AppData\Local\Temp\ccSmV8cy.s:24261  .debug_str:0000000000005344 .LASF2078
C:\Users\CYMR90~1\AppData\Local\Temp\ccSmV8cy.s:23363  .debug_str:0000000000001ac1 .LASF2079
C:\Users\CYMR90~1\AppData\Local\Temp\ccSmV8cy.s:32068  .debug_str:0000000000023f2a .LASF2080
C:\Users\CYMR90~1\AppData\Local\Temp\ccSmV8cy.s:33414  .debug_str:0000000000029647 .LASF2081
C:\Users\CYMR90~1\AppData\Local\Temp\ccSmV8cy.s:33498  .debug_str:0000000000029b92 .LASF2082
C:\Users\CYMR90~1\AppData\Local\Temp\ccSmV8cy.s:27641  .debug_str:0000000000012961 .LASF2083
C:\Users\CYMR90~1\AppData\Local\Temp\ccSmV8cy.s:24997  .debug_str:0000000000008234 .LASF2084
C:\Users\CYMR90~1\AppData\Local\Temp\ccSmV8cy.s:31946  .debug_str:00000000000237e4 .LASF2085
C:\Users\CYMR90~1\AppData\Local\Temp\ccSmV8cy.s:23255  .debug_str:0000000000001375 .LASF2086
C:\Users\CYMR90~1\AppData\Local\Temp\ccSmV8cy.s:23107  .debug_str:0000000000000a51 .LASF2087
C:\Users\CYMR90~1\AppData\Local\Temp\ccSmV8cy.s:29888  .debug_str:000000000001b8e7 .LASF2088
C:\Users\CYMR90~1\AppData\Local\Temp\ccSmV8cy.s:31004  .debug_str:000000000001fec5 .LASF2089
C:\Users\CYMR90~1\AppData\Local\Temp\ccSmV8cy.s:28850  .debug_str:0000000000017735 .LASF2090
C:\Users\CYMR90~1\AppData\Local\Temp\ccSmV8cy.s:27577  .debug_str:0000000000012529 .LASF2091
C:\Users\CYMR90~1\AppData\Local\Temp\ccSmV8cy.s:28948  .debug_str:0000000000017cf6 .LASF2092
C:\Users\CYMR90~1\AppData\Local\Temp\ccSmV8cy.s:28075  .debug_str:00000000000144fd .LASF2093
C:\Users\CYMR90~1\AppData\Local\Temp\ccSmV8cy.s:34252  .debug_str:000000000002c988 .LASF2094
C:\Users\CYMR90~1\AppData\Local\Temp\ccSmV8cy.s:24007  .debug_str:0000000000004320 .LASF2095
C:\Users\CYMR90~1\AppData\Local\Temp\ccSmV8cy.s:25473  .debug_str:0000000000009fa8 .LASF2096
C:\Users\CYMR90~1\AppData\Local\Temp\ccSmV8cy.s:23755  .debug_str:00000000000032ea .LASF2097
C:\Users\CYMR90~1\AppData\Local\Temp\ccSmV8cy.s:32686  .debug_str:00000000000267f6 .LASF2098
C:\Users\CYMR90~1\AppData\Local\Temp\ccSmV8cy.s:27099  .debug_str:000000000001067d .LASF2099
C:\Users\CYMR90~1\AppData\Local\Temp\ccSmV8cy.s:25847  .debug_str:000000000000b81b .LASF2100
C:\Users\CYMR90~1\AppData\Local\Temp\ccSmV8cy.s:24589  .debug_str:0000000000006739 .LASF2101
C:\Users\CYMR90~1\AppData\Local\Temp\ccSmV8cy.s:23669  .debug_str:0000000000002d7f .LASF2102
C:\Users\CYMR90~1\AppData\Local\Temp\ccSmV8cy.s:25509  .debug_str:000000000000a1bf .LASF2103
C:\Users\CYMR90~1\AppData\Local\Temp\ccSmV8cy.s:34206  .debug_str:000000000002c64f .LASF2104
C:\Users\CYMR90~1\AppData\Local\Temp\ccSmV8cy.s:28946  .debug_str:0000000000017cd2 .LASF2105
C:\Users\CYMR90~1\AppData\Local\Temp\ccSmV8cy.s:23775  .debug_str:0000000000003453 .LASF2106
C:\Users\CYMR90~1\AppData\Local\Temp\ccSmV8cy.s:33468  .debug_str:00000000000299bd .LASF2107
C:\Users\CYMR90~1\AppData\Local\Temp\ccSmV8cy.s:32276  .debug_str:0000000000024c36 .LASF2108
C:\Users\CYMR90~1\AppData\Local\Temp\ccSmV8cy.s:23793  .debug_str:000000000000357c .LASF2109
C:\Users\CYMR90~1\AppData\Local\Temp\ccSmV8cy.s:26313  .debug_str:000000000000d61f .LASF2110
C:\Users\CYMR90~1\AppData\Local\Temp\ccSmV8cy.s:28894  .debug_str:00000000000179b1 .LASF2111
C:\Users\CYMR90~1\AppData\Local\Temp\ccSmV8cy.s:31024  .debug_str:000000000001ffe7 .LASF2112
C:\Users\CYMR90~1\AppData\Local\Temp\ccSmV8cy.s:33628  .debug_str:000000000002a3bd .LASF2113
C:\Users\CYMR90~1\AppData\Local\Temp\ccSmV8cy.s:33030  .debug_str:0000000000027d8e .LASF2114
C:\Users\CYMR90~1\AppData\Local\Temp\ccSmV8cy.s:27963  .debug_str:0000000000013e3b .LASF2115
C:\Users\CYMR90~1\AppData\Local\Temp\ccSmV8cy.s:29820  .debug_str:000000000001b43b .LASF2116
C:\Users\CYMR90~1\AppData\Local\Temp\ccSmV8cy.s:28151  .debug_str:000000000001499d .LASF2117
C:\Users\CYMR90~1\AppData\Local\Temp\ccSmV8cy.s:32290  .debug_str:0000000000024d24 .LASF2118
C:\Users\CYMR90~1\AppData\Local\Temp\ccSmV8cy.s:30964  .debug_str:000000000001fc67 .LASF2119
C:\Users\CYMR90~1\AppData\Local\Temp\ccSmV8cy.s:23617  .debug_str:0000000000002a37 .LASF2120
C:\Users\CYMR90~1\AppData\Local\Temp\ccSmV8cy.s:31408  .debug_str:0000000000021753 .LASF2121
C:\Users\CYMR90~1\AppData\Local\Temp\ccSmV8cy.s:25071  .debug_str:0000000000008780 .LASF2122
C:\Users\CYMR90~1\AppData\Local\Temp\ccSmV8cy.s:28013  .debug_str:0000000000014176 .LASF2123
C:\Users\CYMR90~1\AppData\Local\Temp\ccSmV8cy.s:30704  .debug_str:000000000001ecd8 .LASF2124
C:\Users\CYMR90~1\AppData\Local\Temp\ccSmV8cy.s:27865  .debug_str:00000000000137d3 .LASF2125
C:\Users\CYMR90~1\AppData\Local\Temp\ccSmV8cy.s:29012  .debug_str:000000000001813d .LASF2126
C:\Users\CYMR90~1\AppData\Local\Temp\ccSmV8cy.s:33008  .debug_str:0000000000027ba2 .LASF2127
C:\Users\CYMR90~1\AppData\Local\Temp\ccSmV8cy.s:31514  .debug_str:0000000000021de5 .LASF2128
C:\Users\CYMR90~1\AppData\Local\Temp\ccSmV8cy.s:27311  .debug_str:00000000000113d2 .LASF2129
C:\Users\CYMR90~1\AppData\Local\Temp\ccSmV8cy.s:31424  .debug_str:000000000002183e .LASF2130
C:\Users\CYMR90~1\AppData\Local\Temp\ccSmV8cy.s:29232  .debug_str:0000000000018e26 .LASF2131
C:\Users\CYMR90~1\AppData\Local\Temp\ccSmV8cy.s:31246  .debug_str:0000000000020d43 .LASF2132
C:\Users\CYMR90~1\AppData\Local\Temp\ccSmV8cy.s:27511  .debug_str:000000000001216b .LASF2133
C:\Users\CYMR90~1\AppData\Local\Temp\ccSmV8cy.s:23763  .debug_str:000000000000338f .LASF2134
C:\Users\CYMR90~1\AppData\Local\Temp\ccSmV8cy.s:23499  .debug_str:00000000000022cf .LASF2135
C:\Users\CYMR90~1\AppData\Local\Temp\ccSmV8cy.s:29398  .debug_str:0000000000019937 .LASF2136
C:\Users\CYMR90~1\AppData\Local\Temp\ccSmV8cy.s:33738  .debug_str:000000000002a9e8 .LASF2137
C:\Users\CYMR90~1\AppData\Local\Temp\ccSmV8cy.s:25073  .debug_str:00000000000087a5 .LASF2138
C:\Users\CYMR90~1\AppData\Local\Temp\ccSmV8cy.s:31612  .debug_str:000000000002242e .LASF2139
C:\Users\CYMR90~1\AppData\Local\Temp\ccSmV8cy.s:27419  .debug_str:0000000000011a65 .LASF2140
C:\Users\CYMR90~1\AppData\Local\Temp\ccSmV8cy.s:26877  .debug_str:000000000000f8c0 .LASF2141
C:\Users\CYMR90~1\AppData\Local\Temp\ccSmV8cy.s:30982  .debug_str:000000000001fd73 .LASF2142
C:\Users\CYMR90~1\AppData\Local\Temp\ccSmV8cy.s:31538  .debug_str:0000000000021f49 .LASF2143
C:\Users\CYMR90~1\AppData\Local\Temp\ccSmV8cy.s:27703  .debug_str:0000000000012d6b .LASF2144
C:\Users\CYMR90~1\AppData\Local\Temp\ccSmV8cy.s:23795  .debug_str:00000000000035a3 .LASF2145
C:\Users\CYMR90~1\AppData\Local\Temp\ccSmV8cy.s:22947  .debug_str:0000000000000121 .LASF2146
C:\Users\CYMR90~1\AppData\Local\Temp\ccSmV8cy.s:26733  .debug_str:000000000000f028 .LASF2147
C:\Users\CYMR90~1\AppData\Local\Temp\ccSmV8cy.s:28956  .debug_str:0000000000017d72 .LASF2148
C:\Users\CYMR90~1\AppData\Local\Temp\ccSmV8cy.s:28399  .debug_str:0000000000015946 .LASF2149
C:\Users\CYMR90~1\AppData\Local\Temp\ccSmV8cy.s:33032  .debug_str:0000000000027db5 .LASF2150
C:\Users\CYMR90~1\AppData\Local\Temp\ccSmV8cy.s:27965  .debug_str:0000000000013e62 .LASF2151
C:\Users\CYMR90~1\AppData\Local\Temp\ccSmV8cy.s:26491  .debug_str:000000000000e0e5 .LASF2152
C:\Users\CYMR90~1\AppData\Local\Temp\ccSmV8cy.s:33582  .debug_str:000000000002a149 .LASF2153
C:\Users\CYMR90~1\AppData\Local\Temp\ccSmV8cy.s:28731  .debug_str:0000000000016dea .LASF2154
C:\Users\CYMR90~1\AppData\Local\Temp\ccSmV8cy.s:23317  .debug_str:0000000000001751 .LASF2155
C:\Users\CYMR90~1\AppData\Local\Temp\ccSmV8cy.s:23873  .debug_str:0000000000003ada .LASF2156
C:\Users\CYMR90~1\AppData\Local\Temp\ccSmV8cy.s:32996  .debug_str:0000000000027aab .LASF2157
C:\Users\CYMR90~1\AppData\Local\Temp\ccSmV8cy.s:27349  .debug_str:0000000000011601 .LASF2158
C:\Users\CYMR90~1\AppData\Local\Temp\ccSmV8cy.s:29298  .debug_str:0000000000019216 .LASF2159
C:\Users\CYMR90~1\AppData\Local\Temp\ccSmV8cy.s:32788  .debug_str:0000000000026e60 .LASF2160
C:\Users\CYMR90~1\AppData\Local\Temp\ccSmV8cy.s:25249  .debug_str:0000000000009283 .LASF2161
C:\Users\CYMR90~1\AppData\Local\Temp\ccSmV8cy.s:33718  .debug_str:000000000002a8bb .LASF2162
C:\Users\CYMR90~1\AppData\Local\Temp\ccSmV8cy.s:34446  .debug_str:000000000002d5e3 .LASF2163
C:\Users\CYMR90~1\AppData\Local\Temp\ccSmV8cy.s:23907  .debug_str:0000000000003cec .LASF2164
C:\Users\CYMR90~1\AppData\Local\Temp\ccSmV8cy.s:32048  .debug_str:0000000000023db7 .LASF2165
C:\Users\CYMR90~1\AppData\Local\Temp\ccSmV8cy.s:29382  .debug_str:0000000000019870 .LASF2166
C:\Users\CYMR90~1\AppData\Local\Temp\ccSmV8cy.s:26871  .debug_str:000000000000f869 .LASF2167
C:\Users\CYMR90~1\AppData\Local\Temp\ccSmV8cy.s:25107  .debug_str:0000000000008994 .LASF2168
C:\Users\CYMR90~1\AppData\Local\Temp\ccSmV8cy.s:30528  .debug_str:000000000001e1d5 .LASF2169
C:\Users\CYMR90~1\AppData\Local\Temp\ccSmV8cy.s:28673  .debug_str:0000000000016a11 .LASF2170
C:\Users\CYMR90~1\AppData\Local\Temp\ccSmV8cy.s:26647  .debug_str:000000000000eaa3 .LASF2171
C:\Users\CYMR90~1\AppData\Local\Temp\ccSmV8cy.s:26787  .debug_str:000000000000f347 .LASF2172
C:\Users\CYMR90~1\AppData\Local\Temp\ccSmV8cy.s:30986  .debug_str:000000000001fdaa .LASF2173
C:\Users\CYMR90~1\AppData\Local\Temp\ccSmV8cy.s:28615  .debug_str:0000000000016671 .LASF2174
C:\Users\CYMR90~1\AppData\Local\Temp\ccSmV8cy.s:27571  .debug_str:00000000000124e7 .LASF2175
C:\Users\CYMR90~1\AppData\Local\Temp\ccSmV8cy.s:30768  .debug_str:000000000001f0b7 .LASF2176
C:\Users\CYMR90~1\AppData\Local\Temp\ccSmV8cy.s:25849  .debug_str:000000000000b82a .LASF2177
C:\Users\CYMR90~1\AppData\Local\Temp\ccSmV8cy.s:31684  .debug_str:0000000000022851 .LASF2178
C:\Users\CYMR90~1\AppData\Local\Temp\ccSmV8cy.s:26505  .debug_str:000000000000e1e5 .LASF2179
C:\Users\CYMR90~1\AppData\Local\Temp\ccSmV8cy.s:24943  .debug_str:0000000000007e35 .LASF2180
C:\Users\CYMR90~1\AppData\Local\Temp\ccSmV8cy.s:27807  .debug_str:000000000001342b .LASF2181
C:\Users\CYMR90~1\AppData\Local\Temp\ccSmV8cy.s:26677  .debug_str:000000000000ecf4 .LASF2182
C:\Users\CYMR90~1\AppData\Local\Temp\ccSmV8cy.s:28649  .debug_str:00000000000168c1 .LASF2183
C:\Users\CYMR90~1\AppData\Local\Temp\ccSmV8cy.s:24027  .debug_str:0000000000004433 .LASF2184
C:\Users\CYMR90~1\AppData\Local\Temp\ccSmV8cy.s:26955  .debug_str:000000000000fdb5 .LASF2185
C:\Users\CYMR90~1\AppData\Local\Temp\ccSmV8cy.s:33992  .debug_str:000000000002b8a3 .LASF2186
C:\Users\CYMR90~1\AppData\Local\Temp\ccSmV8cy.s:30780  .debug_str:000000000001f172 .LASF2187
C:\Users\CYMR90~1\AppData\Local\Temp\ccSmV8cy.s:25455  .debug_str:0000000000009ea8 .LASF2188
C:\Users\CYMR90~1\AppData\Local\Temp\ccSmV8cy.s:29724  .debug_str:000000000001aec4 .LASF2189
C:\Users\CYMR90~1\AppData\Local\Temp\ccSmV8cy.s:23967  .debug_str:0000000000004054 .LASF2190
C:\Users\CYMR90~1\AppData\Local\Temp\ccSmV8cy.s:25557  .debug_str:000000000000a51e .LASF2191
C:\Users\CYMR90~1\AppData\Local\Temp\ccSmV8cy.s:30866  .debug_str:000000000001f642 .LASF2192
C:\Users\CYMR90~1\AppData\Local\Temp\ccSmV8cy.s:23887  .debug_str:0000000000003b9e .LASF2193
C:\Users\CYMR90~1\AppData\Local\Temp\ccSmV8cy.s:27449  .debug_str:0000000000011c55 .LASF2194
C:\Users\CYMR90~1\AppData\Local\Temp\ccSmV8cy.s:23643  .debug_str:0000000000002be9 .LASF2195
C:\Users\CYMR90~1\AppData\Local\Temp\ccSmV8cy.s:24887  .debug_str:0000000000007a7b .LASF2196
C:\Users\CYMR90~1\AppData\Local\Temp\ccSmV8cy.s:28321  .debug_str:0000000000015453 .LASF2197
C:\Users\CYMR90~1\AppData\Local\Temp\ccSmV8cy.s:25171  .debug_str:0000000000008d4f .LASF2198
C:\Users\CYMR90~1\AppData\Local\Temp\ccSmV8cy.s:31240  .debug_str:0000000000020cfa .LASF2199
C:\Users\CYMR90~1\AppData\Local\Temp\ccSmV8cy.s:25703  .debug_str:000000000000aec2 .LASF2200
C:\Users\CYMR90~1\AppData\Local\Temp\ccSmV8cy.s:31756  .debug_str:0000000000022c92 .LASF2201
C:\Users\CYMR90~1\AppData\Local\Temp\ccSmV8cy.s:31072  .debug_str:00000000000202b7 .LASF2202
C:\Users\CYMR90~1\AppData\Local\Temp\ccSmV8cy.s:32258  .debug_str:0000000000024b02 .LASF2203
C:\Users\CYMR90~1\AppData\Local\Temp\ccSmV8cy.s:32860  .debug_str:000000000002729f .LASF2204
C:\Users\CYMR90~1\AppData\Local\Temp\ccSmV8cy.s:32690  .debug_str:0000000000026829 .LASF2205
C:\Users\CYMR90~1\AppData\Local\Temp\ccSmV8cy.s:32306  .debug_str:0000000000024dfa .LASF2206
C:\Users\CYMR90~1\AppData\Local\Temp\ccSmV8cy.s:31370  .debug_str:0000000000021526 .LASF2207
C:\Users\CYMR90~1\AppData\Local\Temp\ccSmV8cy.s:27151  .debug_str:00000000000109de .LASF2208
C:\Users\CYMR90~1\AppData\Local\Temp\ccSmV8cy.s:29348  .debug_str:0000000000019575 .LASF2209
C:\Users\CYMR90~1\AppData\Local\Temp\ccSmV8cy.s:31222  .debug_str:0000000000020bad .LASF2210
C:\Users\CYMR90~1\AppData\Local\Temp\ccSmV8cy.s:25993  .debug_str:000000000000c22f .LASF2211
C:\Users\CYMR90~1\AppData\Local\Temp\ccSmV8cy.s:24653  .debug_str:0000000000006b31 .LASF2212
C:\Users\CYMR90~1\AppData\Local\Temp\ccSmV8cy.s:27333  .debug_str:00000000000114e1 .LASF2213
C:\Users\CYMR90~1\AppData\Local\Temp\ccSmV8cy.s:34260  .debug_str:000000000002c9ed .LASF2214
C:\Users\CYMR90~1\AppData\Local\Temp\ccSmV8cy.s:28061  .debug_str:000000000001440c .LASF2215
C:\Users\CYMR90~1\AppData\Local\Temp\ccSmV8cy.s:25661  .debug_str:000000000000ab3e .LASF2216
C:\Users\CYMR90~1\AppData\Local\Temp\ccSmV8cy.s:29976  .debug_str:000000000001be3f .LASF2217
C:\Users\CYMR90~1\AppData\Local\Temp\ccSmV8cy.s:29270  .debug_str:0000000000019066 .LASF2218
C:\Users\CYMR90~1\AppData\Local\Temp\ccSmV8cy.s:34024  .debug_str:000000000002ba5d .LASF2219
C:\Users\CYMR90~1\AppData\Local\Temp\ccSmV8cy.s:30556  .debug_str:000000000001e375 .LASF2220
C:\Users\CYMR90~1\AppData\Local\Temp\ccSmV8cy.s:29362  .debug_str:0000000000019646 .LASF2221
C:\Users\CYMR90~1\AppData\Local\Temp\ccSmV8cy.s:27743  .debug_str:0000000000012ff9 .LASF2222
C:\Users\CYMR90~1\AppData\Local\Temp\ccSmV8cy.s:30022  .debug_str:000000000001c0a6 .LASF2223
C:\Users\CYMR90~1\AppData\Local\Temp\ccSmV8cy.s:32682  .debug_str:00000000000267bb .LASF2224
C:\Users\CYMR90~1\AppData\Local\Temp\ccSmV8cy.s:22979  .debug_str:00000000000002e1 .LASF2225
C:\Users\CYMR90~1\AppData\Local\Temp\ccSmV8cy.s:24109  .debug_str:000000000000498d .LASF2226
C:\Users\CYMR90~1\AppData\Local\Temp\ccSmV8cy.s:29680  .debug_str:000000000001ab9e .LASF2227
C:\Users\CYMR90~1\AppData\Local\Temp\ccSmV8cy.s:28818  .debug_str:000000000001757d .LASF2228
C:\Users\CYMR90~1\AppData\Local\Temp\ccSmV8cy.s:30606  .debug_str:000000000001e702 .LASF2229
C:\Users\CYMR90~1\AppData\Local\Temp\ccSmV8cy.s:24075  .debug_str:0000000000004752 .LASF2230
C:\Users\CYMR90~1\AppData\Local\Temp\ccSmV8cy.s:30836  .debug_str:000000000001f477 .LASF2231
C:\Users\CYMR90~1\AppData\Local\Temp\ccSmV8cy.s:23375  .debug_str:0000000000001b80 .LASF2232
C:\Users\CYMR90~1\AppData\Local\Temp\ccSmV8cy.s:29534  .debug_str:000000000001a200 .LASF2233
C:\Users\CYMR90~1\AppData\Local\Temp\ccSmV8cy.s:26171  .debug_str:000000000000cda4 .LASF2234
C:\Users\CYMR90~1\AppData\Local\Temp\ccSmV8cy.s:24313  .debug_str:0000000000005692 .LASF2235
C:\Users\CYMR90~1\AppData\Local\Temp\ccSmV8cy.s:34212  .debug_str:000000000002c6ac .LASF2236
C:\Users\CYMR90~1\AppData\Local\Temp\ccSmV8cy.s:26651  .debug_str:000000000000eade .LASF2237
C:\Users\CYMR90~1\AppData\Local\Temp\ccSmV8cy.s:31492  .debug_str:0000000000021c9b .LASF2238
C:\Users\CYMR90~1\AppData\Local\Temp\ccSmV8cy.s:30508  .debug_str:000000000001e097 .LASF2239
C:\Users\CYMR90~1\AppData\Local\Temp\ccSmV8cy.s:30438  .debug_str:000000000001dc00 .LASF2240
C:\Users\CYMR90~1\AppData\Local\Temp\ccSmV8cy.s:23427  .debug_str:0000000000001eb2 .LASF2241
C:\Users\CYMR90~1\AppData\Local\Temp\ccSmV8cy.s:31508  .debug_str:0000000000021d92 .LASF2242
C:\Users\CYMR90~1\AppData\Local\Temp\ccSmV8cy.s:30010  .debug_str:000000000001bffd .LASF2243
C:\Users\CYMR90~1\AppData\Local\Temp\ccSmV8cy.s:26385  .debug_str:000000000000db4c .LASF2244
C:\Users\CYMR90~1\AppData\Local\Temp\ccSmV8cy.s:25523  .debug_str:000000000000a2d8 .LASF2245
C:\Users\CYMR90~1\AppData\Local\Temp\ccSmV8cy.s:25651  .debug_str:000000000000aa63 .LASF2246
C:\Users\CYMR90~1\AppData\Local\Temp\ccSmV8cy.s:28395  .debug_str:00000000000158f1 .LASF2247
C:\Users\CYMR90~1\AppData\Local\Temp\ccSmV8cy.s:23797  .debug_str:00000000000035ca .LASF2248
C:\Users\CYMR90~1\AppData\Local\Temp\ccSmV8cy.s:30860  .debug_str:000000000001f5cb .LASF2249
C:\Users\CYMR90~1\AppData\Local\Temp\ccSmV8cy.s:29950  .debug_str:000000000001bc7c .LASF2250
C:\Users\CYMR90~1\AppData\Local\Temp\ccSmV8cy.s:28988  .debug_str:0000000000017f8d .LASF2251
C:\Users\CYMR90~1\AppData\Local\Temp\ccSmV8cy.s:32264  .debug_str:0000000000024b5a .LASF2252
C:\Users\CYMR90~1\AppData\Local\Temp\ccSmV8cy.s:27749  .debug_str:0000000000013049 .LASF2253
C:\Users\CYMR90~1\AppData\Local\Temp\ccSmV8cy.s:26449  .debug_str:000000000000decd .LASF2254
C:\Users\CYMR90~1\AppData\Local\Temp\ccSmV8cy.s:25157  .debug_str:0000000000008c74 .LASF2255
C:\Users\CYMR90~1\AppData\Local\Temp\ccSmV8cy.s:27129  .debug_str:000000000001089c .LASF2256
C:\Users\CYMR90~1\AppData\Local\Temp\ccSmV8cy.s:26535  .debug_str:000000000000e3df .LASF2257
C:\Users\CYMR90~1\AppData\Local\Temp\ccSmV8cy.s:31748  .debug_str:0000000000022c0d .LASF2258
C:\Users\CYMR90~1\AppData\Local\Temp\ccSmV8cy.s:27665  .debug_str:0000000000012adb .LASF2259
C:\Users\CYMR90~1\AppData\Local\Temp\ccSmV8cy.s:27329  .debug_str:00000000000114bd .LASF2260
C:\Users\CYMR90~1\AppData\Local\Temp\ccSmV8cy.s:28451  .debug_str:0000000000015c40 .LASF2261
C:\Users\CYMR90~1\AppData\Local\Temp\ccSmV8cy.s:23479  .debug_str:0000000000002196 .LASF2262
C:\Users\CYMR90~1\AppData\Local\Temp\ccSmV8cy.s:26699  .debug_str:000000000000ee33 .LASF2263
C:\Users\CYMR90~1\AppData\Local\Temp\ccSmV8cy.s:30628  .debug_str:000000000001e842 .LASF2264
C:\Users\CYMR90~1\AppData\Local\Temp\ccSmV8cy.s:29638  .debug_str:000000000001a7d8 .LASF2265
C:\Users\CYMR90~1\AppData\Local\Temp\ccSmV8cy.s:26543  .debug_str:000000000000e459 .LASF2266
C:\Users\CYMR90~1\AppData\Local\Temp\ccSmV8cy.s:25863  .debug_str:000000000000b994 .LASF2267
C:\Users\CYMR90~1\AppData\Local\Temp\ccSmV8cy.s:28996  .debug_str:0000000000018047 .LASF2268
C:\Users\CYMR90~1\AppData\Local\Temp\ccSmV8cy.s:33942  .debug_str:000000000002b5ab .LASF2269
C:\Users\CYMR90~1\AppData\Local\Temp\ccSmV8cy.s:24129  .debug_str:0000000000004b67 .LASF2270
C:\Users\CYMR90~1\AppData\Local\Temp\ccSmV8cy.s:30102  .debug_str:000000000001c5ee .LASF2271
C:\Users\CYMR90~1\AppData\Local\Temp\ccSmV8cy.s:30530  .debug_str:000000000001e1ed .LASF2272
C:\Users\CYMR90~1\AppData\Local\Temp\ccSmV8cy.s:28275  .debug_str:000000000001515f .LASF2273
C:\Users\CYMR90~1\AppData\Local\Temp\ccSmV8cy.s:33286  .debug_str:0000000000028e27 .LASF2274
C:\Users\CYMR90~1\AppData\Local\Temp\ccSmV8cy.s:29846  .debug_str:000000000001b5e6 .LASF2275
C:\Users\CYMR90~1\AppData\Local\Temp\ccSmV8cy.s:26455  .debug_str:000000000000df20 .LASF2276
C:\Users\CYMR90~1\AppData\Local\Temp\ccSmV8cy.s:23901  .debug_str:0000000000003c86 .LASF2277
C:\Users\CYMR90~1\AppData\Local\Temp\ccSmV8cy.s:23161  .debug_str:0000000000000dcd .LASF2278
C:\Users\CYMR90~1\AppData\Local\Temp\ccSmV8cy.s:33140  .debug_str:00000000000283d0 .LASF2279
C:\Users\CYMR90~1\AppData\Local\Temp\ccSmV8cy.s:31496  .debug_str:0000000000021cd9 .LASF2280
C:\Users\CYMR90~1\AppData\Local\Temp\ccSmV8cy.s:24317  .debug_str:00000000000056c6 .LASF2281
C:\Users\CYMR90~1\AppData\Local\Temp\ccSmV8cy.s:29570  .debug_str:000000000001a430 .LASF2282
C:\Users\CYMR90~1\AppData\Local\Temp\ccSmV8cy.s:28880  .debug_str:00000000000178db .LASF2283
C:\Users\CYMR90~1\AppData\Local\Temp\ccSmV8cy.s:30298  .debug_str:000000000001d24b .LASF2284
C:\Users\CYMR90~1\AppData\Local\Temp\ccSmV8cy.s:29808  .debug_str:000000000001b3a2 .LASF2285
C:\Users\CYMR90~1\AppData\Local\Temp\ccSmV8cy.s:33056  .debug_str:0000000000027f2c .LASF2286
C:\Users\CYMR90~1\AppData\Local\Temp\ccSmV8cy.s:27335  .debug_str:0000000000011509 .LASF2287
C:\Users\CYMR90~1\AppData\Local\Temp\ccSmV8cy.s:31650  .debug_str:0000000000022684 .LASF2288
C:\Users\CYMR90~1\AppData\Local\Temp\ccSmV8cy.s:33596  .debug_str:000000000002a1dd .LASF2289
C:\Users\CYMR90~1\AppData\Local\Temp\ccSmV8cy.s:27561  .debug_str:000000000001245b .LASF2290
C:\Users\CYMR90~1\AppData\Local\Temp\ccSmV8cy.s:34078  .debug_str:000000000002be14 .LASF2291
C:\Users\CYMR90~1\AppData\Local\Temp\ccSmV8cy.s:30720  .debug_str:000000000001edf8 .LASF2292
C:\Users\CYMR90~1\AppData\Local\Temp\ccSmV8cy.s:24211  .debug_str:0000000000005063 .LASF2293
C:\Users\CYMR90~1\AppData\Local\Temp\ccSmV8cy.s:27611  .debug_str:0000000000012777 .LASF2294
C:\Users\CYMR90~1\AppData\Local\Temp\ccSmV8cy.s:34038  .debug_str:000000000002bb5b .LASF2295
C:\Users\CYMR90~1\AppData\Local\Temp\ccSmV8cy.s:26525  .debug_str:000000000000e334 .LASF2296
C:\Users\CYMR90~1\AppData\Local\Temp\ccSmV8cy.s:26493  .debug_str:000000000000e10a .LASF2297
C:\Users\CYMR90~1\AppData\Local\Temp\ccSmV8cy.s:25841  .debug_str:000000000000b7a5 .LASF2298
C:\Users\CYMR90~1\AppData\Local\Temp\ccSmV8cy.s:28073  .debug_str:00000000000144d2 .LASF2299
C:\Users\CYMR90~1\AppData\Local\Temp\ccSmV8cy.s:33300  .debug_str:0000000000028f1c .LASF2300
C:\Users\CYMR90~1\AppData\Local\Temp\ccSmV8cy.s:26849  .debug_str:000000000000f6fd .LASF2301
C:\Users\CYMR90~1\AppData\Local\Temp\ccSmV8cy.s:30052  .debug_str:000000000001c29d .LASF2302
C:\Users\CYMR90~1\AppData\Local\Temp\ccSmV8cy.s:32400  .debug_str:00000000000253fd .LASF2303
C:\Users\CYMR90~1\AppData\Local\Temp\ccSmV8cy.s:26447  .debug_str:000000000000dea6 .LASF2304
C:\Users\CYMR90~1\AppData\Local\Temp\ccSmV8cy.s:31542  .debug_str:0000000000021f84 .LASF2305
C:\Users\CYMR90~1\AppData\Local\Temp\ccSmV8cy.s:23243  .debug_str:00000000000012de .LASF2306
C:\Users\CYMR90~1\AppData\Local\Temp\ccSmV8cy.s:29748  .debug_str:000000000001b01c .LASF2307
C:\Users\CYMR90~1\AppData\Local\Temp\ccSmV8cy.s:30258  .debug_str:000000000001cfaf .LASF2308
C:\Users\CYMR90~1\AppData\Local\Temp\ccSmV8cy.s:23741  .debug_str:000000000000321e .LASF2309
C:\Users\CYMR90~1\AppData\Local\Temp\ccSmV8cy.s:32704  .debug_str:0000000000026935 .LASF2310
C:\Users\CYMR90~1\AppData\Local\Temp\ccSmV8cy.s:33536  .debug_str:0000000000029e44 .LASF2311
C:\Users\CYMR90~1\AppData\Local\Temp\ccSmV8cy.s:28109  .debug_str:00000000000146fc .LASF2312
C:\Users\CYMR90~1\AppData\Local\Temp\ccSmV8cy.s:33254  .debug_str:0000000000028bbe .LASF2313
C:\Users\CYMR90~1\AppData\Local\Temp\ccSmV8cy.s:24843  .debug_str:00000000000077c0 .LASF2314
C:\Users\CYMR90~1\AppData\Local\Temp\ccSmV8cy.s:31322  .debug_str:0000000000021271 .LASF2315
C:\Users\CYMR90~1\AppData\Local\Temp\ccSmV8cy.s:24911  .debug_str:0000000000007c04 .LASF2316
C:\Users\CYMR90~1\AppData\Local\Temp\ccSmV8cy.s:30068  .debug_str:000000000001c3b1 .LASF2317
C:\Users\CYMR90~1\AppData\Local\Temp\ccSmV8cy.s:33296  .debug_str:0000000000028edb .LASF2318
C:\Users\CYMR90~1\AppData\Local\Temp\ccSmV8cy.s:26737  .debug_str:000000000000f066 .LASF2319
C:\Users\CYMR90~1\AppData\Local\Temp\ccSmV8cy.s:24141  .debug_str:0000000000004c23 .LASF2320
C:\Users\CYMR90~1\AppData\Local\Temp\ccSmV8cy.s:23661  .debug_str:0000000000002d22 .LASF2321
C:\Users\CYMR90~1\AppData\Local\Temp\ccSmV8cy.s:34536  .debug_str:000000000002db8f .LASF2322
C:\Users\CYMR90~1\AppData\Local\Temp\ccSmV8cy.s:24507  .debug_str:0000000000006277 .LASF2323
C:\Users\CYMR90~1\AppData\Local\Temp\ccSmV8cy.s:28235  .debug_str:0000000000014f00 .LASF2324
C:\Users\CYMR90~1\AppData\Local\Temp\ccSmV8cy.s:34106  .debug_str:000000000002bfd0 .LASF2325
C:\Users\CYMR90~1\AppData\Local\Temp\ccSmV8cy.s:25627  .debug_str:000000000000a91c .LASF2326
C:\Users\CYMR90~1\AppData\Local\Temp\ccSmV8cy.s:29226  .debug_str:0000000000018dc8 .LASF2327
C:\Users\CYMR90~1\AppData\Local\Temp\ccSmV8cy.s:23517  .debug_str:00000000000023da .LASF2328
C:\Users\CYMR90~1\AppData\Local\Temp\ccSmV8cy.s:28143  .debug_str:0000000000014916 .LASF2329
C:\Users\CYMR90~1\AppData\Local\Temp\ccSmV8cy.s:27235  .debug_str:0000000000010edd .LASF2330
C:\Users\CYMR90~1\AppData\Local\Temp\ccSmV8cy.s:26095  .debug_str:000000000000c8a3 .LASF2331
C:\Users\CYMR90~1\AppData\Local\Temp\ccSmV8cy.s:27173  .debug_str:0000000000010b32 .LASF2332
C:\Users\CYMR90~1\AppData\Local\Temp\ccSmV8cy.s:31452  .debug_str:00000000000219ad .LASF2333
C:\Users\CYMR90~1\AppData\Local\Temp\ccSmV8cy.s:32886  .debug_str:0000000000027446 .LASF2334
C:\Users\CYMR90~1\AppData\Local\Temp\ccSmV8cy.s:27187  .debug_str:0000000000010bf7 .LASF2335
C:\Users\CYMR90~1\AppData\Local\Temp\ccSmV8cy.s:27603  .debug_str:00000000000126f8 .LASF2336
C:\Users\CYMR90~1\AppData\Local\Temp\ccSmV8cy.s:26627  .debug_str:000000000000e959 .LASF2337
C:\Users\CYMR90~1\AppData\Local\Temp\ccSmV8cy.s:24519  .debug_str:000000000000631f .LASF2338
C:\Users\CYMR90~1\AppData\Local\Temp\ccSmV8cy.s:23559  .debug_str:0000000000002646 .LASF2339
C:\Users\CYMR90~1\AppData\Local\Temp\ccSmV8cy.s:30494  .debug_str:000000000001dfb8 .LASF2340
C:\Users\CYMR90~1\AppData\Local\Temp\ccSmV8cy.s:32760  .debug_str:0000000000026ca1 .LASF2341
C:\Users\CYMR90~1\AppData\Local\Temp\ccSmV8cy.s:31098  .debug_str:000000000002045c .LASF2342
C:\Users\CYMR90~1\AppData\Local\Temp\ccSmV8cy.s:31114  .debug_str:0000000000020534 .LASF2343
C:\Users\CYMR90~1\AppData\Local\Temp\ccSmV8cy.s:32168  .debug_str:000000000002450c .LASF2344
C:\Users\CYMR90~1\AppData\Local\Temp\ccSmV8cy.s:32998  .debug_str:0000000000027ac1 .LASF2345
C:\Users\CYMR90~1\AppData\Local\Temp\ccSmV8cy.s:30174  .debug_str:000000000001ca1f .LASF2346
C:\Users\CYMR90~1\AppData\Local\Temp\ccSmV8cy.s:30354  .debug_str:000000000001d69d .LASF2347
C:\Users\CYMR90~1\AppData\Local\Temp\ccSmV8cy.s:25131  .debug_str:0000000000008afb .LASF2348
C:\Users\CYMR90~1\AppData\Local\Temp\ccSmV8cy.s:28005  .debug_str:0000000000014111 .LASF2349
C:\Users\CYMR90~1\AppData\Local\Temp\ccSmV8cy.s:31592  .debug_str:00000000000222b1 .LASF2350
C:\Users\CYMR90~1\AppData\Local\Temp\ccSmV8cy.s:33906  .debug_str:000000000002b393 .LASF2351
C:\Users\CYMR90~1\AppData\Local\Temp\ccSmV8cy.s:32384  .debug_str:00000000000252ea .LASF2352
C:\Users\CYMR90~1\AppData\Local\Temp\ccSmV8cy.s:24681  .debug_str:0000000000006cfd .LASF2353
C:\Users\CYMR90~1\AppData\Local\Temp\ccSmV8cy.s:27075  .debug_str:00000000000104e3 .LASF2354
C:\Users\CYMR90~1\AppData\Local\Temp\ccSmV8cy.s:24619  .debug_str:00000000000068e0 .LASF2355
C:\Users\CYMR90~1\AppData\Local\Temp\ccSmV8cy.s:34316  .debug_str:000000000002cdd7 .LASF2356
C:\Users\CYMR90~1\AppData\Local\Temp\ccSmV8cy.s:33722  .debug_str:000000000002a8e0 .LASF2357
C:\Users\CYMR90~1\AppData\Local\Temp\ccSmV8cy.s:26363  .debug_str:000000000000d9ce .LASF2358
C:\Users\CYMR90~1\AppData\Local\Temp\ccSmV8cy.s:25363  .debug_str:000000000000991e .LASF2359
C:\Users\CYMR90~1\AppData\Local\Temp\ccSmV8cy.s:23893  .debug_str:0000000000003c27 .LASF2360
C:\Users\CYMR90~1\AppData\Local\Temp\ccSmV8cy.s:27087  .debug_str:00000000000105bc .LASF2361
C:\Users\CYMR90~1\AppData\Local\Temp\ccSmV8cy.s:25817  .debug_str:000000000000b69e .LASF2362
C:\Users\CYMR90~1\AppData\Local\Temp\ccSmV8cy.s:24551  .debug_str:00000000000064bd .LASF2363
C:\Users\CYMR90~1\AppData\Local\Temp\ccSmV8cy.s:32172  .debug_str:0000000000024543 .LASF2364
C:\Users\CYMR90~1\AppData\Local\Temp\ccSmV8cy.s:31330  .debug_str:00000000000212dd .LASF2365
C:\Users\CYMR90~1\AppData\Local\Temp\ccSmV8cy.s:27659  .debug_str:0000000000012a85 .LASF2366
C:\Users\CYMR90~1\AppData\Local\Temp\ccSmV8cy.s:32420  .debug_str:000000000002559a .LASF2367
C:\Users\CYMR90~1\AppData\Local\Temp\ccSmV8cy.s:33070  .debug_str:0000000000027ff3 .LASF2368
C:\Users\CYMR90~1\AppData\Local\Temp\ccSmV8cy.s:25349  .debug_str:00000000000097fb .LASF2369
C:\Users\CYMR90~1\AppData\Local\Temp\ccSmV8cy.s:26729  .debug_str:000000000000efdd .LASF2370
C:\Users\CYMR90~1\AppData\Local\Temp\ccSmV8cy.s:24691  .debug_str:0000000000006dba .LASF2371
C:\Users\CYMR90~1\AppData\Local\Temp\ccSmV8cy.s:27147  .debug_str:00000000000109a5 .LASF2372
C:\Users\CYMR90~1\AppData\Local\Temp\ccSmV8cy.s:23289  .debug_str:0000000000001591 .LASF2373
C:\Users\CYMR90~1\AppData\Local\Temp\ccSmV8cy.s:32832  .debug_str:0000000000027122 .LASF2374
C:\Users\CYMR90~1\AppData\Local\Temp\ccSmV8cy.s:23101  .debug_str:00000000000009fd .LASF2375
C:\Users\CYMR90~1\AppData\Local\Temp\ccSmV8cy.s:27563  .debug_str:0000000000012481 .LASF2376
C:\Users\CYMR90~1\AppData\Local\Temp\ccSmV8cy.s:30798  .debug_str:000000000001f276 .LASF2377
C:\Users\CYMR90~1\AppData\Local\Temp\ccSmV8cy.s:34138  .debug_str:000000000002c219 .LASF2378
C:\Users\CYMR90~1\AppData\Local\Temp\ccSmV8cy.s:25819  .debug_str:000000000000b6c3 .LASF2379
C:\Users\CYMR90~1\AppData\Local\Temp\ccSmV8cy.s:24731  .debug_str:0000000000007071 .LASF2380
C:\Users\CYMR90~1\AppData\Local\Temp\ccSmV8cy.s:32376  .debug_str:0000000000025278 .LASF2381
C:\Users\CYMR90~1\AppData\Local\Temp\ccSmV8cy.s:32130  .debug_str:0000000000024303 .LASF2382
C:\Users\CYMR90~1\AppData\Local\Temp\ccSmV8cy.s:27321  .debug_str:0000000000011472 .LASF2383
C:\Users\CYMR90~1\AppData\Local\Temp\ccSmV8cy.s:30576  .debug_str:000000000001e4b4 .LASF2384
C:\Users\CYMR90~1\AppData\Local\Temp\ccSmV8cy.s:33874  .debug_str:000000000002b1fb .LASF2385
C:\Users\CYMR90~1\AppData\Local\Temp\ccSmV8cy.s:23407  .debug_str:0000000000001d7b .LASF2386
C:\Users\CYMR90~1\AppData\Local\Temp\ccSmV8cy.s:28245  .debug_str:0000000000014f8e .LASF2387
C:\Users\CYMR90~1\AppData\Local\Temp\ccSmV8cy.s:33072  .debug_str:0000000000028005 .LASF2388
C:\Users\CYMR90~1\AppData\Local\Temp\ccSmV8cy.s:29902  .debug_str:000000000001b99d .LASF2389
C:\Users\CYMR90~1\AppData\Local\Temp\ccSmV8cy.s:31106  .debug_str:00000000000204d4 .LASF2390
C:\Users\CYMR90~1\AppData\Local\Temp\ccSmV8cy.s:24285  .debug_str:00000000000054c6 .LASF2391
C:\Users\CYMR90~1\AppData\Local\Temp\ccSmV8cy.s:29152  .debug_str:0000000000018950 .LASF2392
C:\Users\CYMR90~1\AppData\Local\Temp\ccSmV8cy.s:33978  .debug_str:000000000002b7c4 .LASF2393
C:\Users\CYMR90~1\AppData\Local\Temp\ccSmV8cy.s:30030  .debug_str:000000000001c12e .LASF2394
C:\Users\CYMR90~1\AppData\Local\Temp\ccSmV8cy.s:33134  .debug_str:0000000000028389 .LASF2395
C:\Users\CYMR90~1\AppData\Local\Temp\ccSmV8cy.s:26377  .debug_str:000000000000dab1 .LASF2396
C:\Users\CYMR90~1\AppData\Local\Temp\ccSmV8cy.s:31170  .debug_str:00000000000208d9 .LASF2397
C:\Users\CYMR90~1\AppData\Local\Temp\ccSmV8cy.s:24337  .debug_str:00000000000057cd .LASF2398
C:\Users\CYMR90~1\AppData\Local\Temp\ccSmV8cy.s:29206  .debug_str:0000000000018c97 .LASF2399
C:\Users\CYMR90~1\AppData\Local\Temp\ccSmV8cy.s:34034  .debug_str:000000000002bb2a .LASF2400
C:\Users\CYMR90~1\AppData\Local\Temp\ccSmV8cy.s:33910  .debug_str:000000000002b3cb .LASF2401
C:\Users\CYMR90~1\AppData\Local\Temp\ccSmV8cy.s:25603  .debug_str:000000000000a7eb .LASF2402
C:\Users\CYMR90~1\AppData\Local\Temp\ccSmV8cy.s:28898  .debug_str:00000000000179f8 .LASF2403
C:\Users\CYMR90~1\AppData\Local\Temp\ccSmV8cy.s:32176  .debug_str:0000000000024574 .LASF2404
C:\Users\CYMR90~1\AppData\Local\Temp\ccSmV8cy.s:23923  .debug_str:0000000000003dab .LASF2405
C:\Users\CYMR90~1\AppData\Local\Temp\ccSmV8cy.s:27197  .debug_str:0000000000010cbd .LASF2406
C:\Users\CYMR90~1\AppData\Local\Temp\ccSmV8cy.s:30466  .debug_str:000000000001ddd6 .LASF2407
C:\Users\CYMR90~1\AppData\Local\Temp\ccSmV8cy.s:33750  .debug_str:000000000002aaa9 .LASF2408
C:\Users\CYMR90~1\AppData\Local\Temp\ccSmV8cy.s:27999  .debug_str:0000000000014088 .LASF2409
C:\Users\CYMR90~1\AppData\Local\Temp\ccSmV8cy.s:26353  .debug_str:000000000000d927 .LASF2410
C:\Users\CYMR90~1\AppData\Local\Temp\ccSmV8cy.s:29796  .debug_str:000000000001b2ed .LASF2411
C:\Users\CYMR90~1\AppData\Local\Temp\ccSmV8cy.s:22967  .debug_str:0000000000000267 .LASF2412
C:\Users\CYMR90~1\AppData\Local\Temp\ccSmV8cy.s:22989  .debug_str:00000000000003ad .LASF2413
C:\Users\CYMR90~1\AppData\Local\Temp\ccSmV8cy.s:32604  .debug_str:00000000000262df .LASF2414
C:\Users\CYMR90~1\AppData\Local\Temp\ccSmV8cy.s:25857  .debug_str:000000000000b8cb .LASF2415
C:\Users\CYMR90~1\AppData\Local\Temp\ccSmV8cy.s:30644  .debug_str:000000000001e92d .LASF2416
C:\Users\CYMR90~1\AppData\Local\Temp\ccSmV8cy.s:26197  .debug_str:000000000000cf9a .LASF2417
C:\Users\CYMR90~1\AppData\Local\Temp\ccSmV8cy.s:28691  .debug_str:0000000000016b0c .LASF2418
C:\Users\CYMR90~1\AppData\Local\Temp\ccSmV8cy.s:26763  .debug_str:000000000000f210 .LASF2419
C:\Users\CYMR90~1\AppData\Local\Temp\ccSmV8cy.s:27871  .debug_str:0000000000013833 .LASF2420
C:\Users\CYMR90~1\AppData\Local\Temp\ccSmV8cy.s:32662  .debug_str:000000000002669a .LASF2421
C:\Users\CYMR90~1\AppData\Local\Temp\ccSmV8cy.s:25909  .debug_str:000000000000bcb6 .LASF2422
C:\Users\CYMR90~1\AppData\Local\Temp\ccSmV8cy.s:30694  .debug_str:000000000001ec31 .LASF2423
C:\Users\CYMR90~1\AppData\Local\Temp\ccSmV8cy.s:23889  .debug_str:0000000000003bdc .LASF2424
C:\Users\CYMR90~1\AppData\Local\Temp\ccSmV8cy.s:28753  .debug_str:0000000000016f24 .LASF2425
C:\Users\CYMR90~1\AppData\Local\Temp\ccSmV8cy.s:25731  .debug_str:000000000000b06b .LASF2426
C:\Users\CYMR90~1\AppData\Local\Temp\ccSmV8cy.s:28928  .debug_str:0000000000017bc4 .LASF2427
C:\Users\CYMR90~1\AppData\Local\Temp\ccSmV8cy.s:32208  .debug_str:000000000002476b .LASF2428
C:\Users\CYMR90~1\AppData\Local\Temp\ccSmV8cy.s:23875  .debug_str:0000000000003af0 .LASF2429
C:\Users\CYMR90~1\AppData\Local\Temp\ccSmV8cy.s:27237  .debug_str:0000000000010ef3 .LASF2430
C:\Users\CYMR90~1\AppData\Local\Temp\ccSmV8cy.s:27491  .debug_str:0000000000011fb4 .LASF2431
C:\Users\CYMR90~1\AppData\Local\Temp\ccSmV8cy.s:33786  .debug_str:000000000002ac86 .LASF2432
C:\Users\CYMR90~1\AppData\Local\Temp\ccSmV8cy.s:24083  .debug_str:00000000000047da .LASF2433
C:\Users\CYMR90~1\AppData\Local\Temp\ccSmV8cy.s:34076  .debug_str:000000000002bdfd .LASF2434
C:\Users\CYMR90~1\AppData\Local\Temp\ccSmV8cy.s:31976  .debug_str:00000000000239b0 .LASF2435
C:\Users\CYMR90~1\AppData\Local\Temp\ccSmV8cy.s:33356  .debug_str:00000000000292e2 .LASF2436
C:\Users\CYMR90~1\AppData\Local\Temp\ccSmV8cy.s:26601  .debug_str:000000000000e7d3 .LASF2437
C:\Users\CYMR90~1\AppData\Local\Temp\ccSmV8cy.s:31390  .debug_str:0000000000021661 .LASF2438
C:\Users\CYMR90~1\AppData\Local\Temp\ccSmV8cy.s:27213  .debug_str:0000000000010d96 .LASF2439
C:\Users\CYMR90~1\AppData\Local\Temp\ccSmV8cy.s:29450  .debug_str:0000000000019c6b .LASF2440
C:\Users\CYMR90~1\AppData\Local\Temp\ccSmV8cy.s:29834  .debug_str:000000000001b548 .LASF2441
C:\Users\CYMR90~1\AppData\Local\Temp\ccSmV8cy.s:27499  .debug_str:0000000000012021 .LASF2442
C:\Users\CYMR90~1\AppData\Local\Temp\ccSmV8cy.s:32272  .debug_str:0000000000024c09 .LASF2443
C:\Users\CYMR90~1\AppData\Local\Temp\ccSmV8cy.s:30330  .debug_str:000000000001d489 .LASF2444
C:\Users\CYMR90~1\AppData\Local\Temp\ccSmV8cy.s:31446  .debug_str:0000000000021942 .LASF2445
C:\Users\CYMR90~1\AppData\Local\Temp\ccSmV8cy.s:24623  .debug_str:0000000000006919 .LASF2446
C:\Users\CYMR90~1\AppData\Local\Temp\ccSmV8cy.s:29496  .debug_str:0000000000019fb0 .LASF2447
C:\Users\CYMR90~1\AppData\Local\Temp\ccSmV8cy.s:34312  .debug_str:000000000002cd98 .LASF2448
C:\Users\CYMR90~1\AppData\Local\Temp\ccSmV8cy.s:27557  .debug_str:000000000001240d .LASF2449
C:\Users\CYMR90~1\AppData\Local\Temp\ccSmV8cy.s:32326  .debug_str:0000000000024f4b .LASF2450
C:\Users\CYMR90~1\AppData\Local\Temp\ccSmV8cy.s:31132  .debug_str:0000000000020674 .LASF2451
C:\Users\CYMR90~1\AppData\Local\Temp\ccSmV8cy.s:32440  .debug_str:00000000000256bf .LASF2452
C:\Users\CYMR90~1\AppData\Local\Temp\ccSmV8cy.s:30766  .debug_str:000000000001f0a0 .LASF2453
C:\Users\CYMR90~1\AppData\Local\Temp\ccSmV8cy.s:29120  .debug_str:0000000000018766 .LASF2454
C:\Users\CYMR90~1\AppData\Local\Temp\ccSmV8cy.s:32606  .debug_str:00000000000262f8 .LASF2455
C:\Users\CYMR90~1\AppData\Local\Temp\ccSmV8cy.s:25795  .debug_str:000000000000b552 .LASF2456
C:\Users\CYMR90~1\AppData\Local\Temp\ccSmV8cy.s:24079  .debug_str:000000000000479d .LASF2457
C:\Users\CYMR90~1\AppData\Local\Temp\ccSmV8cy.s:34066  .debug_str:000000000002bd55 .LASF2458
C:\Users\CYMR90~1\AppData\Local\Temp\ccSmV8cy.s:32366  .debug_str:000000000002520f .LASF2459
C:\Users\CYMR90~1\AppData\Local\Temp\ccSmV8cy.s:25799  .debug_str:000000000000b5a7 .LASF2460
C:\Users\CYMR90~1\AppData\Local\Temp\ccSmV8cy.s:32284  .debug_str:0000000000024cb0 .LASF2461
C:\Users\CYMR90~1\AppData\Local\Temp\ccSmV8cy.s:34134  .debug_str:000000000002c189 .LASF2462
C:\Users\CYMR90~1\AppData\Local\Temp\ccSmV8cy.s:30342  .debug_str:000000000001d5f3 .LASF2463
C:\Users\CYMR90~1\AppData\Local\Temp\ccSmV8cy.s:23521  .debug_str:000000000000240b .LASF2464
C:\Users\CYMR90~1\AppData\Local\Temp\ccSmV8cy.s:34192  .debug_str:000000000002c580 .LASF2465
C:\Users\CYMR90~1\AppData\Local\Temp\ccSmV8cy.s:33204  .debug_str:0000000000028850 .LASF2466
C:\Users\CYMR90~1\AppData\Local\Temp\ccSmV8cy.s:26439  .debug_str:000000000000de26 .LASF2467
C:\Users\CYMR90~1\AppData\Local\Temp\ccSmV8cy.s:31236  .debug_str:0000000000020cb2 .LASF2468
C:\Users\CYMR90~1\AppData\Local\Temp\ccSmV8cy.s:29282  .debug_str:000000000001910e .LASF2469
C:\Users\CYMR90~1\AppData\Local\Temp\ccSmV8cy.s:23953  .debug_str:0000000000003faa .LASF2470
C:\Users\CYMR90~1\AppData\Local\Temp\ccSmV8cy.s:23573  .debug_str:0000000000002751 .LASF2471
C:\Users\CYMR90~1\AppData\Local\Temp\ccSmV8cy.s:28425  .debug_str:0000000000015ab0 .LASF2472
C:\Users\CYMR90~1\AppData\Local\Temp\ccSmV8cy.s:24019  .debug_str:00000000000043d0 .LASF2473
C:\Users\CYMR90~1\AppData\Local\Temp\ccSmV8cy.s:26497  .debug_str:000000000000e15b .LASF2474
C:\Users\CYMR90~1\AppData\Local\Temp\ccSmV8cy.s:31294  .debug_str:0000000000021086 .LASF2475
C:\Users\CYMR90~1\AppData\Local\Temp\ccSmV8cy.s:33476  .debug_str:0000000000029a1d .LASF2476
C:\Users\CYMR90~1\AppData\Local\Temp\ccSmV8cy.s:24515  .debug_str:00000000000062e3 .LASF2477
C:\Users\CYMR90~1\AppData\Local\Temp\ccSmV8cy.s:28463  .debug_str:0000000000015ccb .LASF2478
C:\Users\CYMR90~1\AppData\Local\Temp\ccSmV8cy.s:33244  .debug_str:0000000000028b3c .LASF2479
C:\Users\CYMR90~1\AppData\Local\Temp\ccSmV8cy.s:31562  .debug_str:0000000000022109 .LASF2480
C:\Users\CYMR90~1\AppData\Local\Temp\ccSmV8cy.s:29906  .debug_str:000000000001b9de .LASF2481
C:\Users\CYMR90~1\AppData\Local\Temp\ccSmV8cy.s:30034  .debug_str:000000000001c15c .LASF2482
C:\Users\CYMR90~1\AppData\Local\Temp\ccSmV8cy.s:33326  .debug_str:0000000000029134 .LASF2483
C:\Users\CYMR90~1\AppData\Local\Temp\ccSmV8cy.s:25001  .debug_str:000000000000826d .LASF2484
C:\Users\CYMR90~1\AppData\Local\Temp\ccSmV8cy.s:28213  .debug_str:0000000000014db2 .LASF2485
C:\Users\CYMR90~1\AppData\Local\Temp\ccSmV8cy.s:27923  .debug_str:0000000000013be0 .LASF2486
C:\Users\CYMR90~1\AppData\Local\Temp\ccSmV8cy.s:32718  .debug_str:0000000000026a22 .LASF2487
C:\Users\CYMR90~1\AppData\Local\Temp\ccSmV8cy.s:25961  .debug_str:000000000000bfed .LASF2488
C:\Users\CYMR90~1\AppData\Local\Temp\ccSmV8cy.s:30744  .debug_str:000000000001ef30 .LASF2489
C:\Users\CYMR90~1\AppData\Local\Temp\ccSmV8cy.s:23943  .debug_str:0000000000003f17 .LASF2490
C:\Users\CYMR90~1\AppData\Local\Temp\ccSmV8cy.s:28814  .debug_str:0000000000017538 .LASF2491
C:\Users\CYMR90~1\AppData\Local\Temp\ccSmV8cy.s:33614  .debug_str:000000000002a2e5 .LASF2492
C:\Users\CYMR90~1\AppData\Local\Temp\ccSmV8cy.s:26861  .debug_str:000000000000f7b3 .LASF2493
C:\Users\CYMR90~1\AppData\Local\Temp\ccSmV8cy.s:24849  .debug_str:0000000000007811 .LASF2494
C:\Users\CYMR90~1\AppData\Local\Temp\ccSmV8cy.s:26019  .debug_str:000000000000c3ed .LASF2495
C:\Users\CYMR90~1\AppData\Local\Temp\ccSmV8cy.s:30788  .debug_str:000000000001f1f1 .LASF2496
C:\Users\CYMR90~1\AppData\Local\Temp\ccSmV8cy.s:23991  .debug_str:0000000000004234 .LASF2497
C:\Users\CYMR90~1\AppData\Local\Temp\ccSmV8cy.s:23377  .debug_str:0000000000001ba1 .LASF2498
C:\Users\CYMR90~1\AppData\Local\Temp\ccSmV8cy.s:33668  .debug_str:000000000002a609 .LASF2499
C:\Users\CYMR90~1\AppData\Local\Temp\ccSmV8cy.s:26917  .debug_str:000000000000faea .LASF2500
C:\Users\CYMR90~1\AppData\Local\Temp\ccSmV8cy.s:26639  .debug_str:000000000000ea1b .LASF2501
C:\Users\CYMR90~1\AppData\Local\Temp\ccSmV8cy.s:29918  .debug_str:000000000001bac4 .LASF2502
C:\Users\CYMR90~1\AppData\Local\Temp\ccSmV8cy.s:33214  .debug_str:00000000000288f1 .LASF2503
C:\Users\CYMR90~1\AppData\Local\Temp\ccSmV8cy.s:24865  .debug_str:0000000000007934 .LASF2504
C:\Users\CYMR90~1\AppData\Local\Temp\ccSmV8cy.s:28097  .debug_str:0000000000014642 .LASF2505
C:\Users\CYMR90~1\AppData\Local\Temp\ccSmV8cy.s:31388  .debug_str:000000000002164e .LASF2506
C:\Users\CYMR90~1\AppData\Local\Temp\ccSmV8cy.s:33600  .debug_str:000000000002a222 .LASF2507
C:\Users\CYMR90~1\AppData\Local\Temp\ccSmV8cy.s:26405  .debug_str:000000000000dc4e .LASF2508
C:\Users\CYMR90~1\AppData\Local\Temp\ccSmV8cy.s:29696  .debug_str:000000000001ac82 .LASF2509
C:\Users\CYMR90~1\AppData\Local\Temp\ccSmV8cy.s:32964  .debug_str:0000000000027901 .LASF2510
C:\Users\CYMR90~1\AppData\Local\Temp\ccSmV8cy.s:33298  .debug_str:0000000000028f07 .LASF2511
C:\Users\CYMR90~1\AppData\Local\Temp\ccSmV8cy.s:26545  .debug_str:000000000000e479 .LASF2512
C:\Users\CYMR90~1\AppData\Local\Temp\ccSmV8cy.s:31332  .debug_str:00000000000212fe .LASF2513
C:\Users\CYMR90~1\AppData\Local\Temp\ccSmV8cy.s:24499  .debug_str:00000000000061e1 .LASF2514
C:\Users\CYMR90~1\AppData\Local\Temp\ccSmV8cy.s:29388  .debug_str:00000000000198d7 .LASF2515
C:\Users\CYMR90~1\AppData\Local\Temp\ccSmV8cy.s:30178  .debug_str:000000000001ca5b .LASF2516
C:\Users\CYMR90~1\AppData\Local\Temp\ccSmV8cy.s:27437  .debug_str:0000000000011bbe .LASF2517
C:\Users\CYMR90~1\AppData\Local\Temp\ccSmV8cy.s:32218  .debug_str:00000000000247db .LASF2518
C:\Users\CYMR90~1\AppData\Local\Temp\ccSmV8cy.s:30276  .debug_str:000000000001d0fd .LASF2519
C:\Users\CYMR90~1\AppData\Local\Temp\ccSmV8cy.s:31478  .debug_str:0000000000021b25 .LASF2520
C:\Users\CYMR90~1\AppData\Local\Temp\ccSmV8cy.s:24659  .debug_str:0000000000006b90 .LASF2521
C:\Users\CYMR90~1\AppData\Local\Temp\ccSmV8cy.s:29524  .debug_str:000000000001a16b .LASF2522
C:\Users\CYMR90~1\AppData\Local\Temp\ccSmV8cy.s:34342  .debug_str:000000000002cf5e .LASF2523
C:\Users\CYMR90~1\AppData\Local\Temp\ccSmV8cy.s:27583  .debug_str:0000000000012585 .LASF2524
C:\Users\CYMR90~1\AppData\Local\Temp\ccSmV8cy.s:32348  .debug_str:0000000000025086 .LASF2525
C:\Users\CYMR90~1\AppData\Local\Temp\ccSmV8cy.s:27781  .debug_str:0000000000013259 .LASF2526
C:\Users\CYMR90~1\AppData\Local\Temp\ccSmV8cy.s:23823  .debug_str:0000000000003787 .LASF2527
C:\Users\CYMR90~1\AppData\Local\Temp\ccSmV8cy.s:29178  .debug_str:0000000000018ad0 .LASF2528
C:\Users\CYMR90~1\AppData\Local\Temp\ccSmV8cy.s:25425  .debug_str:0000000000009cfa .LASF2529
C:\Users\CYMR90~1\AppData\Local\Temp\ccSmV8cy.s:24167  .debug_str:0000000000004dd5 .LASF2530
C:\Users\CYMR90~1\AppData\Local\Temp\ccSmV8cy.s:32678  .debug_str:0000000000026778 .LASF2531
C:\Users\CYMR90~1\AppData\Local\Temp\ccSmV8cy.s:28591  .debug_str:00000000000164c4 .LASF2532
C:\Users\CYMR90~1\AppData\Local\Temp\ccSmV8cy.s:28335  .debug_str:0000000000015572 .LASF2533
C:\Users\CYMR90~1\AppData\Local\Temp\ccSmV8cy.s:28737  .debug_str:0000000000016e2d .LASF2534
C:\Users\CYMR90~1\AppData\Local\Temp\ccSmV8cy.s:25491  .debug_str:000000000000a0c6 .LASF2535
C:\Users\CYMR90~1\AppData\Local\Temp\ccSmV8cy.s:24703  .debug_str:0000000000006e82 .LASF2536
C:\Users\CYMR90~1\AppData\Local\Temp\ccSmV8cy.s:33430  .debug_str:000000000002971b .LASF2537
C:\Users\CYMR90~1\AppData\Local\Temp\ccSmV8cy.s:23059  .debug_str:00000000000007a4 .LASF2538
C:\Users\CYMR90~1\AppData\Local\Temp\ccSmV8cy.s:24895  .debug_str:0000000000007b19 .LASF2539
C:\Users\CYMR90~1\AppData\Local\Temp\ccSmV8cy.s:23869  .debug_str:0000000000003a9d .LASF2540
C:\Users\CYMR90~1\AppData\Local\Temp\ccSmV8cy.s:32564  .debug_str:0000000000025fba .LASF2541
C:\Users\CYMR90~1\AppData\Local\Temp\ccSmV8cy.s:27585  .debug_str:000000000001259a .LASF2542
C:\Users\CYMR90~1\AppData\Local\Temp\ccSmV8cy.s:26323  .debug_str:000000000000d6d2 .LASF2543
C:\Users\CYMR90~1\AppData\Local\Temp\ccSmV8cy.s:31062  .debug_str:0000000000020208 .LASF2544
C:\Users\CYMR90~1\AppData\Local\Temp\ccSmV8cy.s:30144  .debug_str:000000000001c862 .LASF2545
C:\Users\CYMR90~1\AppData\Local\Temp\ccSmV8cy.s:23915  .debug_str:0000000000003d47 .LASF2546
C:\Users\CYMR90~1\AppData\Local\Temp\ccSmV8cy.s:32724  .debug_str:0000000000026a9a .LASF2547
C:\Users\CYMR90~1\AppData\Local\Temp\ccSmV8cy.s:26289  .debug_str:000000000000d4ba .LASF2548
C:\Users\CYMR90~1\AppData\Local\Temp\ccSmV8cy.s:25327  .debug_str:00000000000096cc .LASF2549
C:\Users\CYMR90~1\AppData\Local\Temp\ccSmV8cy.s:24257  .debug_str:00000000000052f7 .LASF2550
C:\Users\CYMR90~1\AppData\Local\Temp\ccSmV8cy.s:33080  .debug_str:000000000002806c .LASF2551
C:\Users\CYMR90~1\AppData\Local\Temp\ccSmV8cy.s:33386  .debug_str:00000000000294da .LASF2552
C:\Users\CYMR90~1\AppData\Local\Temp\ccSmV8cy.s:27433  .debug_str:0000000000011b59 .LASF2553
C:\Users\CYMR90~1\AppData\Local\Temp\ccSmV8cy.s:31430  .debug_str:000000000002188b .LASF2554
C:\Users\CYMR90~1\AppData\Local\Temp\ccSmV8cy.s:28509  .debug_str:0000000000015f85 .LASF2555
C:\Users\CYMR90~1\AppData\Local\Temp\ccSmV8cy.s:29082  .debug_str:000000000001854a .LASF2556
C:\Users\CYMR90~1\AppData\Local\Temp\ccSmV8cy.s:27903  .debug_str:0000000000013a9c .LASF2557
C:\Users\CYMR90~1\AppData\Local\Temp\ccSmV8cy.s:28401  .debug_str:000000000001596c .LASF2558
C:\Users\CYMR90~1\AppData\Local\Temp\ccSmV8cy.s:27079  .debug_str:0000000000010522 .LASF2559
C:\Users\CYMR90~1\AppData\Local\Temp\ccSmV8cy.s:27377  .debug_str:000000000001179b .LASF2560
C:\Users\CYMR90~1\AppData\Local\Temp\ccSmV8cy.s:26443  .debug_str:000000000000de6b .LASF2561
C:\Users\CYMR90~1\AppData\Local\Temp\ccSmV8cy.s:25405  .debug_str:0000000000009b58 .LASF2562
C:\Users\CYMR90~1\AppData\Local\Temp\ccSmV8cy.s:34100  .debug_str:000000000002bf86 .LASF2563
C:\Users\CYMR90~1\AppData\Local\Temp\ccSmV8cy.s:28253  .debug_str:0000000000014fee .LASF2564
C:\Users\CYMR90~1\AppData\Local\Temp\ccSmV8cy.s:33426  .debug_str:00000000000296de .LASF2565
C:\Users\CYMR90~1\AppData\Local\Temp\ccSmV8cy.s:32120  .debug_str:0000000000024248 .LASF2566
C:\Users\CYMR90~1\AppData\Local\Temp\ccSmV8cy.s:28910  .debug_str:0000000000017acb .LASF2567
C:\Users\CYMR90~1\AppData\Local\Temp\ccSmV8cy.s:28523  .debug_str:000000000001607d .LASF2568
C:\Users\CYMR90~1\AppData\Local\Temp\ccSmV8cy.s:28661  .debug_str:000000000001697a .LASF2569
C:\Users\CYMR90~1\AppData\Local\Temp\ccSmV8cy.s:24541  .debug_str:0000000000006441 .LASF2570
C:\Users\CYMR90~1\AppData\Local\Temp\ccSmV8cy.s:26307  .debug_str:000000000000d5d5 .LASF2571
C:\Users\CYMR90~1\AppData\Local\Temp\ccSmV8cy.s:30840  .debug_str:000000000001f4b8 .LASF2572
C:\Users\CYMR90~1\AppData\Local\Temp\ccSmV8cy.s:24783  .debug_str:00000000000073df .LASF2573
C:\Users\CYMR90~1\AppData\Local\Temp\ccSmV8cy.s:23207  .debug_str:00000000000010ee .LASF2574
C:\Users\CYMR90~1\AppData\Local\Temp\ccSmV8cy.s:29786  .debug_str:000000000001b26a .LASF2575
C:\Users\CYMR90~1\AppData\Local\Temp\ccSmV8cy.s:26107  .debug_str:000000000000c950 .LASF2576
C:\Users\CYMR90~1\AppData\Local\Temp\ccSmV8cy.s:28641  .debug_str:0000000000016845 .LASF2577
C:\Users\CYMR90~1\AppData\Local\Temp\ccSmV8cy.s:26017  .debug_str:000000000000c3d5 .LASF2578
C:\Users\CYMR90~1\AppData\Local\Temp\ccSmV8cy.s:26149  .debug_str:000000000000cbdf .LASF2579
C:\Users\CYMR90~1\AppData\Local\Temp\ccSmV8cy.s:30188  .debug_str:000000000001cae6 .LASF2580
C:\Users\CYMR90~1\AppData\Local\Temp\ccSmV8cy.s:24201  .debug_str:0000000000004fef .LASF2581
C:\Users\CYMR90~1\AppData\Local\Temp\ccSmV8cy.s:30040  .debug_str:000000000001c1b3 .LASF2582
C:\Users\CYMR90~1\AppData\Local\Temp\ccSmV8cy.s:28513  .debug_str:0000000000015fee .LASF2583
C:\Users\CYMR90~1\AppData\Local\Temp\ccSmV8cy.s:33566  .debug_str:000000000002a051 .LASF2584
C:\Users\CYMR90~1\AppData\Local\Temp\ccSmV8cy.s:31716  .debug_str:0000000000022a35 .LASF2585
C:\Users\CYMR90~1\AppData\Local\Temp\ccSmV8cy.s:24173  .debug_str:0000000000004e3a .LASF2586
C:\Users\CYMR90~1\AppData\Local\Temp\ccSmV8cy.s:31456  .debug_str:00000000000219e2 .LASF2587
C:\Users\CYMR90~1\AppData\Local\Temp\ccSmV8cy.s:33852  .debug_str:000000000002b0c3 .LASF2588
C:\Users\CYMR90~1\AppData\Local\Temp\ccSmV8cy.s:29254  .debug_str:0000000000018f65 .LASF2589
C:\Users\CYMR90~1\AppData\Local\Temp\ccSmV8cy.s:24915  .debug_str:0000000000007c52 .LASF2590
C:\Users\CYMR90~1\AppData\Local\Temp\ccSmV8cy.s:25403  .debug_str:0000000000009b38 .LASF2591
C:\Users\CYMR90~1\AppData\Local\Temp\ccSmV8cy.s:27763  .debug_str:0000000000013160 .LASF2592
C:\Users\CYMR90~1\AppData\Local\Temp\ccSmV8cy.s:25465  .debug_str:0000000000009f38 .LASF2593
C:\Users\CYMR90~1\AppData\Local\Temp\ccSmV8cy.s:23955  .debug_str:0000000000003fc3 .LASF2594
C:\Users\CYMR90~1\AppData\Local\Temp\ccSmV8cy.s:30050  .debug_str:000000000001c27b .LASF2595
C:\Users\CYMR90~1\AppData\Local\Temp\ccSmV8cy.s:29170  .debug_str:0000000000018a68 .LASF2596
C:\Users\CYMR90~1\AppData\Local\Temp\ccSmV8cy.s:25527  .debug_str:000000000000a32a .LASF2597
C:\Users\CYMR90~1\AppData\Local\Temp\ccSmV8cy.s:34438  .debug_str:000000000002d57a .LASF2598
C:\Users\CYMR90~1\AppData\Local\Temp\ccSmV8cy.s:23403  .debug_str:0000000000001d41 .LASF2599
C:\Users\CYMR90~1\AppData\Local\Temp\ccSmV8cy.s:28011  .debug_str:0000000000014152 .LASF2600
C:\Users\CYMR90~1\AppData\Local\Temp\ccSmV8cy.s:31690  .debug_str:0000000000022899 .LASF2601
C:\Users\CYMR90~1\AppData\Local\Temp\ccSmV8cy.s:34210  .debug_str:000000000002c68e .LASF2602
C:\Users\CYMR90~1\AppData\Local\Temp\ccSmV8cy.s:27441  .debug_str:0000000000011be2 .LASF2603
C:\Users\CYMR90~1\AppData\Local\Temp\ccSmV8cy.s:26753  .debug_str:000000000000f194 .LASF2604
C:\Users\CYMR90~1\AppData\Local\Temp\ccSmV8cy.s:30324  .debug_str:000000000001d424 .LASF2605
C:\Users\CYMR90~1\AppData\Local\Temp\ccSmV8cy.s:29562  .debug_str:000000000001a3a1 .LASF2606
C:\Users\CYMR90~1\AppData\Local\Temp\ccSmV8cy.s:24217  .debug_str:00000000000050ca .LASF2607
C:\Users\CYMR90~1\AppData\Local\Temp\ccSmV8cy.s:24135  .debug_str:0000000000004bd2 .LASF2608
C:\Users\CYMR90~1\AppData\Local\Temp\ccSmV8cy.s:34478  .debug_str:000000000002d849 .LASF2609
C:\Users\CYMR90~1\AppData\Local\Temp\ccSmV8cy.s:30962  .debug_str:000000000001fc49 .LASF2610
C:\Users\CYMR90~1\AppData\Local\Temp\ccSmV8cy.s:25075  .debug_str:00000000000087cc .LASF2611
C:\Users\CYMR90~1\AppData\Local\Temp\ccSmV8cy.s:25063  .debug_str:0000000000008734 .LASF2612
C:\Users\CYMR90~1\AppData\Local\Temp\ccSmV8cy.s:27649  .debug_str:00000000000129f7 .LASF2613
C:\Users\CYMR90~1\AppData\Local\Temp\ccSmV8cy.s:27393  .debug_str:00000000000118c6 .LASF2614
C:\Users\CYMR90~1\AppData\Local\Temp\ccSmV8cy.s:28659  .debug_str:0000000000016956 .LASF2615
C:\Users\CYMR90~1\AppData\Local\Temp\ccSmV8cy.s:29996  .debug_str:000000000001bf66 .LASF2616
C:\Users\CYMR90~1\AppData\Local\Temp\ccSmV8cy.s:33362  .debug_str:0000000000029371 .LASF2617
C:\Users\CYMR90~1\AppData\Local\Temp\ccSmV8cy.s:31568  .debug_str:0000000000022177 .LASF2618
C:\Users\CYMR90~1\AppData\Local\Temp\ccSmV8cy.s:30580  .debug_str:000000000001e4df .LASF2619
C:\Users\CYMR90~1\AppData\Local\Temp\ccSmV8cy.s:29536  .debug_str:000000000001a23d .LASF2620
C:\Users\CYMR90~1\AppData\Local\Temp\ccSmV8cy.s:28617  .debug_str:000000000001668f .LASF2621
C:\Users\CYMR90~1\AppData\Local\Temp\ccSmV8cy.s:27667  .debug_str:0000000000012b0a .LASF2622
C:\Users\CYMR90~1\AppData\Local\Temp\ccSmV8cy.s:31958  .debug_str:000000000002389c .LASF2623
C:\Users\CYMR90~1\AppData\Local\Temp\ccSmV8cy.s:28441  .debug_str:0000000000015bb2 .LASF2624
C:\Users\CYMR90~1\AppData\Local\Temp\ccSmV8cy.s:24059  .debug_str:0000000000004640 .LASF2625
C:\Users\CYMR90~1\AppData\Local\Temp\ccSmV8cy.s:23751  .debug_str:000000000000329f .LASF2626
C:\Users\CYMR90~1\AppData\Local\Temp\ccSmV8cy.s:25329  .debug_str:00000000000096ee .LASF2627
C:\Users\CYMR90~1\AppData\Local\Temp\ccSmV8cy.s:23155  .debug_str:0000000000000d77 .LASF2628
C:\Users\CYMR90~1\AppData\Local\Temp\ccSmV8cy.s:26541  .debug_str:000000000000e43b .LASF2629
C:\Users\CYMR90~1\AppData\Local\Temp\ccSmV8cy.s:25137  .debug_str:0000000000008b51 .LASF2630
C:\Users\CYMR90~1\AppData\Local\Temp\ccSmV8cy.s:23445  .debug_str:0000000000001fe8 .LASF2631
C:\Users\CYMR90~1\AppData\Local\Temp\ccSmV8cy.s:25977  .debug_str:000000000000c0bd .LASF2632
C:\Users\CYMR90~1\AppData\Local\Temp\ccSmV8cy.s:23261  .debug_str:00000000000013c7 .LASF2633
C:\Users\CYMR90~1\AppData\Local\Temp\ccSmV8cy.s:29666  .debug_str:000000000001aaff .LASF2634
C:\Users\CYMR90~1\AppData\Local\Temp\ccSmV8cy.s:29448  .debug_str:0000000000019c5a .LASF2635
C:\Users\CYMR90~1\AppData\Local\Temp\ccSmV8cy.s:27929  .debug_str:0000000000013c4d .LASF2636
C:\Users\CYMR90~1\AppData\Local\Temp\ccSmV8cy.s:32548  .debug_str:0000000000025e9e .LASF2637
C:\Users\CYMR90~1\AppData\Local\Temp\ccSmV8cy.s:25535  .debug_str:000000000000a3b1 .LASF2638
C:\Users\CYMR90~1\AppData\Local\Temp\ccSmV8cy.s:29712  .debug_str:000000000001ad87 .LASF2639
C:\Users\CYMR90~1\AppData\Local\Temp\ccSmV8cy.s:30374  .debug_str:000000000001d852 .LASF2640
C:\Users\CYMR90~1\AppData\Local\Temp\ccSmV8cy.s:28844  .debug_str:00000000000176f2 .LASF2641
C:\Users\CYMR90~1\AppData\Local\Temp\ccSmV8cy.s:32842  .debug_str:00000000000271b3 .LASF2642
C:\Users\CYMR90~1\AppData\Local\Temp\ccSmV8cy.s:27875  .debug_str:0000000000013864 .LASF2643
C:\Users\CYMR90~1\AppData\Local\Temp\ccSmV8cy.s:23015  .debug_str:000000000000055b .LASF2644
C:\Users\CYMR90~1\AppData\Local\Temp\ccSmV8cy.s:33740  .debug_str:000000000002aa0e .LASF2645
C:\Users\CYMR90~1\AppData\Local\Temp\ccSmV8cy.s:28471  .debug_str:0000000000015d37 .LASF2646
C:\Users\CYMR90~1\AppData\Local\Temp\ccSmV8cy.s:23145  .debug_str:0000000000000cf3 .LASF2647
C:\Users\CYMR90~1\AppData\Local\Temp\ccSmV8cy.s:30486  .debug_str:000000000001df60 .LASF2648
C:\Users\CYMR90~1\AppData\Local\Temp\ccSmV8cy.s:31066  .debug_str:0000000000020250 .LASF2649
C:\Users\CYMR90~1\AppData\Local\Temp\ccSmV8cy.s:32398  .debug_str:00000000000253d7 .LASF2650
C:\Users\CYMR90~1\AppData\Local\Temp\ccSmV8cy.s:24321  .debug_str:00000000000056f5 .LASF2651
C:\Users\CYMR90~1\AppData\Local\Temp\ccSmV8cy.s:23917  .debug_str:0000000000003d69 .LASF2652
C:\Users\CYMR90~1\AppData\Local\Temp\ccSmV8cy.s:28137  .debug_str:00000000000148be .LASF2653
C:\Users\CYMR90~1\AppData\Local\Temp\ccSmV8cy.s:26053  .debug_str:000000000000c62c .LASF2654
C:\Users\CYMR90~1\AppData\Local\Temp\ccSmV8cy.s:30950  .debug_str:000000000001fb8e .LASF2655
C:\Users\CYMR90~1\AppData\Local\Temp\ccSmV8cy.s:26625  .debug_str:000000000000e934 .LASF2656
C:\Users\CYMR90~1\AppData\Local\Temp\ccSmV8cy.s:31862  .debug_str:00000000000232db .LASF2657
C:\Users\CYMR90~1\AppData\Local\Temp\ccSmV8cy.s:34422  .debug_str:000000000002d49c .LASF2658
C:\Users\CYMR90~1\AppData\Local\Temp\ccSmV8cy.s:24437  .debug_str:0000000000005e01 .LASF2659
C:\Users\CYMR90~1\AppData\Local\Temp\ccSmV8cy.s:29694  .debug_str:000000000001ac64 .LASF2660
C:\Users\CYMR90~1\AppData\Local\Temp\ccSmV8cy.s:25753  .debug_str:000000000000b1db .LASF2661
C:\Users\CYMR90~1\AppData\Local\Temp\ccSmV8cy.s:32542  .debug_str:0000000000025e33 .LASF2662
C:\Users\CYMR90~1\AppData\Local\Temp\ccSmV8cy.s:23699  .debug_str:0000000000002f57 .LASF2663
C:\Users\CYMR90~1\AppData\Local\Temp\ccSmV8cy.s:34298  .debug_str:000000000002cc6d .LASF2664
C:\Users\CYMR90~1\AppData\Local\Temp\ccSmV8cy.s:23301  .debug_str:0000000000001626 .LASF2665
C:\Users\CYMR90~1\AppData\Local\Temp\ccSmV8cy.s:23057  .debug_str:0000000000000777 .LASF2666
C:\Users\CYMR90~1\AppData\Local\Temp\ccSmV8cy.s:31734  .debug_str:0000000000022b37 .LASF2667
C:\Users\CYMR90~1\AppData\Local\Temp\ccSmV8cy.s:28031  .debug_str:000000000001428c .LASF2668
C:\Users\CYMR90~1\AppData\Local\Temp\ccSmV8cy.s:27825  .debug_str:000000000001352f .LASF2669
C:\Users\CYMR90~1\AppData\Local\Temp\ccSmV8cy.s:30750  .debug_str:000000000001ef77 .LASF2670
C:\Users\CYMR90~1\AppData\Local\Temp\ccSmV8cy.s:25897  .debug_str:000000000000bbda .LASF2671
C:\Users\CYMR90~1\AppData\Local\Temp\ccSmV8cy.s:24711  .debug_str:0000000000006f11 .LASF2672
C:\Users\CYMR90~1\AppData\Local\Temp\ccSmV8cy.s:31060  .debug_str:00000000000201da .LASF2673
C:\Users\CYMR90~1\AppData\Local\Temp\ccSmV8cy.s:33622  .debug_str:000000000002a34c .LASF2674
C:\Users\CYMR90~1\AppData\Local\Temp\ccSmV8cy.s:28994  .debug_str:0000000000018017 .LASF2675
C:\Users\CYMR90~1\AppData\Local\Temp\ccSmV8cy.s:30392  .debug_str:000000000001d94a .LASF2676
C:\Users\CYMR90~1\AppData\Local\Temp\ccSmV8cy.s:28201  .debug_str:0000000000014cf3 .LASF2677
C:\Users\CYMR90~1\AppData\Local\Temp\ccSmV8cy.s:26445  .debug_str:000000000000de8e .LASF2678
C:\Users\CYMR90~1\AppData\Local\Temp\ccSmV8cy.s:29876  .debug_str:000000000001b849 .LASF2679
C:\Users\CYMR90~1\AppData\Local\Temp\ccSmV8cy.s:34016  .debug_str:000000000002b9ef .LASF2680
C:\Users\CYMR90~1\AppData\Local\Temp\ccSmV8cy.s:24231  .debug_str:0000000000005195 .LASF2681
C:\Users\CYMR90~1\AppData\Local\Temp\ccSmV8cy.s:24879  .debug_str:00000000000079f1 .LASF2682
C:\Users\CYMR90~1\AppData\Local\Temp\ccSmV8cy.s:33438  .debug_str:00000000000297c5 .LASF2683
C:\Users\CYMR90~1\AppData\Local\Temp\ccSmV8cy.s:27241  .debug_str:0000000000010f24 .LASF2684
C:\Users\CYMR90~1\AppData\Local\Temp\ccSmV8cy.s:32474  .debug_str:00000000000258cc .LASF2685
C:\Users\CYMR90~1\AppData\Local\Temp\ccSmV8cy.s:26297  .debug_str:000000000000d521 .LASF2686
C:\Users\CYMR90~1\AppData\Local\Temp\ccSmV8cy.s:31628  .debug_str:000000000002251e .LASF2687
C:\Users\CYMR90~1\AppData\Local\Temp\ccSmV8cy.s:24855  .debug_str:0000000000007876 .LASF2688
C:\Users\CYMR90~1\AppData\Local\Temp\ccSmV8cy.s:30268  .debug_str:000000000001d06d .LASF2689
C:\Users\CYMR90~1\AppData\Local\Temp\ccSmV8cy.s:23899  .debug_str:0000000000003c6b .LASF2690
C:\Users\CYMR90~1\AppData\Local\Temp\ccSmV8cy.s:29326  .debug_str:0000000000019454 .LASF2691
C:\Users\CYMR90~1\AppData\Local\Temp\ccSmV8cy.s:23073  .debug_str:0000000000000863 .LASF2692
C:\Users\CYMR90~1\AppData\Local\Temp\ccSmV8cy.s:31162  .debug_str:0000000000020877 .LASF2693
C:\Users\CYMR90~1\AppData\Local\Temp\ccSmV8cy.s:33350  .debug_str:00000000000292a0 .LASF2694
C:\Users\CYMR90~1\AppData\Local\Temp\ccSmV8cy.s:25027  .debug_str:00000000000084cf .LASF2695
C:\Users\CYMR90~1\AppData\Local\Temp\ccSmV8cy.s:23025  .debug_str:00000000000005d8 .LASF2696
C:\Users\CYMR90~1\AppData\Local\Temp\ccSmV8cy.s:31624  .debug_str:00000000000224e2 .LASF2697
C:\Users\CYMR90~1\AppData\Local\Temp\ccSmV8cy.s:23209  .debug_str:0000000000001100 .LASF2698
C:\Users\CYMR90~1\AppData\Local\Temp\ccSmV8cy.s:26553  .debug_str:000000000000e503 .LASF2699
C:\Users\CYMR90~1\AppData\Local\Temp\ccSmV8cy.s:29840  .debug_str:000000000001b59b .LASF2700
C:\Users\CYMR90~1\AppData\Local\Temp\ccSmV8cy.s:33108  .debug_str:00000000000281dd .LASF2701
C:\Users\CYMR90~1\AppData\Local\Temp\ccSmV8cy.s:24757  .debug_str:0000000000007225 .LASF2702
C:\Users\CYMR90~1\AppData\Local\Temp\ccSmV8cy.s:28089  .debug_str:00000000000145b3 .LASF2703
C:\Users\CYMR90~1\AppData\Local\Temp\ccSmV8cy.s:24431  .debug_str:0000000000005dab .LASF2704
C:\Users\CYMR90~1\AppData\Local\Temp\ccSmV8cy.s:29320  .debug_str:00000000000193f7 .LASF2705
C:\Users\CYMR90~1\AppData\Local\Temp\ccSmV8cy.s:34144  .debug_str:000000000002c272 .LASF2706
C:\Users\CYMR90~1\AppData\Local\Temp\ccSmV8cy.s:27369  .debug_str:0000000000011722 .LASF2707
C:\Users\CYMR90~1\AppData\Local\Temp\ccSmV8cy.s:32156  .debug_str:0000000000024469 .LASF2708
C:\Users\CYMR90~1\AppData\Local\Temp\ccSmV8cy.s:25381  .debug_str:0000000000009a1a .LASF2709
C:\Users\CYMR90~1\AppData\Local\Temp\ccSmV8cy.s:25765  .debug_str:000000000000b364 .LASF2710
C:\Users\CYMR90~1\AppData\Local\Temp\ccSmV8cy.s:26453  .debug_str:000000000000df06 .LASF2711
C:\Users\CYMR90~1\AppData\Local\Temp\ccSmV8cy.s:31874  .debug_str:000000000002336b .LASF2712
C:\Users\CYMR90~1\AppData\Local\Temp\ccSmV8cy.s:29048  .debug_str:0000000000018341 .LASF2713
C:\Users\CYMR90~1\AppData\Local\Temp\ccSmV8cy.s:26343  .debug_str:000000000000d80d .LASF2714
C:\Users\CYMR90~1\AppData\Local\Temp\ccSmV8cy.s:25633  .debug_str:000000000000a980 .LASF2715
C:\Users\CYMR90~1\AppData\Local\Temp\ccSmV8cy.s:30980  .debug_str:000000000001fd57 .LASF2716
C:\Users\CYMR90~1\AppData\Local\Temp\ccSmV8cy.s:24727  .debug_str:000000000000703c .LASF2717
C:\Users\CYMR90~1\AppData\Local\Temp\ccSmV8cy.s:30054  .debug_str:000000000001c2c8 .LASF2718
C:\Users\CYMR90~1\AppData\Local\Temp\ccSmV8cy.s:26147  .debug_str:000000000000cbc3 .LASF2719
C:\Users\CYMR90~1\AppData\Local\Temp\ccSmV8cy.s:25877  .debug_str:000000000000ba59 .LASF2720
C:\Users\CYMR90~1\AppData\Local\Temp\ccSmV8cy.s:31232  .debug_str:0000000000020c74 .LASF2721
C:\Users\CYMR90~1\AppData\Local\Temp\ccSmV8cy.s:24983  .debug_str:0000000000008146 .LASF2722
C:\Users\CYMR90~1\AppData\Local\Temp\ccSmV8cy.s:30292  .debug_str:000000000001d1f4 .LASF2723
C:\Users\CYMR90~1\AppData\Local\Temp\ccSmV8cy.s:24013  .debug_str:0000000000004380 .LASF2724
C:\Users\CYMR90~1\AppData\Local\Temp\ccSmV8cy.s:32132  .debug_str:000000000002431c .LASF2725
C:\Users\CYMR90~1\AppData\Local\Temp\ccSmV8cy.s:29356  .debug_str:00000000000195f2 .LASF2726
C:\Users\CYMR90~1\AppData\Local\Temp\ccSmV8cy.s:23467  .debug_str:00000000000020fc .LASF2727
C:\Users\CYMR90~1\AppData\Local\Temp\ccSmV8cy.s:23829  .debug_str:00000000000037db .LASF2728
C:\Users\CYMR90~1\AppData\Local\Temp\ccSmV8cy.s:32618  .debug_str:00000000000263b7 .LASF2729
C:\Users\CYMR90~1\AppData\Local\Temp\ccSmV8cy.s:29900  .debug_str:000000000001b985 .LASF2730
C:\Users\CYMR90~1\AppData\Local\Temp\ccSmV8cy.s:29036  .debug_str:0000000000018298 .LASF2731
C:\Users\CYMR90~1\AppData\Local\Temp\ccSmV8cy.s:30754  .debug_str:000000000001efc4 .LASF2732
C:\Users\CYMR90~1\AppData\Local\Temp\ccSmV8cy.s:28087  .debug_str:0000000000014599 .LASF2733
C:\Users\CYMR90~1\AppData\Local\Temp\ccSmV8cy.s:33460  .debug_str:00000000000298f7 .LASF2734
C:\Users\CYMR90~1\AppData\Local\Temp\ccSmV8cy.s:27169  .debug_str:0000000000010afd .LASF2735
C:\Users\CYMR90~1\AppData\Local\Temp\ccSmV8cy.s:29802  .debug_str:000000000001b34e .LASF2736
C:\Users\CYMR90~1\AppData\Local\Temp\ccSmV8cy.s:23501  .debug_str:00000000000022f3 .LASF2737
C:\Users\CYMR90~1\AppData\Local\Temp\ccSmV8cy.s:28836  .debug_str:000000000001768b .LASF2738
C:\Users\CYMR90~1\AppData\Local\Temp\ccSmV8cy.s:28119  .debug_str:00000000000147ac .LASF2739
C:\Users\CYMR90~1\AppData\Local\Temp\ccSmV8cy.s:27887  .debug_str:000000000001392b .LASF2740
C:\Users\CYMR90~1\AppData\Local\Temp\ccSmV8cy.s:26757  .debug_str:000000000000f1c5 .LASF2741
C:\Users\CYMR90~1\AppData\Local\Temp\ccSmV8cy.s:34018  .debug_str:000000000002ba07 .LASF2742
C:\Users\CYMR90~1\AppData\Local\Temp\ccSmV8cy.s:25707  .debug_str:000000000000aefd .LASF2743
C:\Users\CYMR90~1\AppData\Local\Temp\ccSmV8cy.s:28992  .debug_str:0000000000017ffe .LASF2744
C:\Users\CYMR90~1\AppData\Local\Temp\ccSmV8cy.s:32268  .debug_str:0000000000024ba2 .LASF2745
C:\Users\CYMR90~1\AppData\Local\Temp\ccSmV8cy.s:23941  .debug_str:0000000000003efe .LASF2746
C:\Users\CYMR90~1\AppData\Local\Temp\ccSmV8cy.s:27301  .debug_str:000000000001135f .LASF2747
C:\Users\CYMR90~1\AppData\Local\Temp\ccSmV8cy.s:30558  .debug_str:000000000001e39b .LASF2748
C:\Users\CYMR90~1\AppData\Local\Temp\ccSmV8cy.s:33756  .debug_str:000000000002aaf7 .LASF2749
C:\Users\CYMR90~1\AppData\Local\Temp\ccSmV8cy.s:25459  .debug_str:0000000000009ee9 .LASF2750
C:\Users\CYMR90~1\AppData\Local\Temp\ccSmV8cy.s:28757  .debug_str:0000000000016f63 .LASF2751
C:\Users\CYMR90~1\AppData\Local\Temp\ccSmV8cy.s:30790  .debug_str:000000000001f20c .LASF2752
C:\Users\CYMR90~1\AppData\Local\Temp\ccSmV8cy.s:23993  .debug_str:000000000000424f .LASF2753
C:\Users\CYMR90~1\AppData\Local\Temp\ccSmV8cy.s:28866  .debug_str:0000000000017810 .LASF2754
C:\Users\CYMR90~1\AppData\Local\Temp\ccSmV8cy.s:33670  .debug_str:000000000002a624 .LASF2755
C:\Users\CYMR90~1\AppData\Local\Temp\ccSmV8cy.s:26919  .debug_str:000000000000fb05 .LASF2756
C:\Users\CYMR90~1\AppData\Local\Temp\ccSmV8cy.s:31710  .debug_str:00000000000229eb .LASF2757
C:\Users\CYMR90~1\AppData\Local\Temp\ccSmV8cy.s:24901  .debug_str:0000000000007b83 .LASF2758
C:\Users\CYMR90~1\AppData\Local\Temp\ccSmV8cy.s:28215  .debug_str:0000000000014dcb .LASF2759
C:\Users\CYMR90~1\AppData\Local\Temp\ccSmV8cy.s:31418  .debug_str:00000000000217ef .LASF2760
C:\Users\CYMR90~1\AppData\Local\Temp\ccSmV8cy.s:23109  .debug_str:0000000000000a6d .LASF2761
C:\Users\CYMR90~1\AppData\Local\Temp\ccSmV8cy.s:26435  .debug_str:000000000000ddef .LASF2762
C:\Users\CYMR90~1\AppData\Local\Temp\ccSmV8cy.s:29730  .debug_str:000000000001af15 .LASF2763
C:\Users\CYMR90~1\AppData\Local\Temp\ccSmV8cy.s:32990  .debug_str:0000000000027a5d .LASF2764
C:\Users\CYMR90~1\AppData\Local\Temp\ccSmV8cy.s:33102  .debug_str:000000000002817b .LASF2765
C:\Users\CYMR90~1\AppData\Local\Temp\ccSmV8cy.s:27989  .debug_str:0000000000013fd5 .LASF2766
C:\Users\CYMR90~1\AppData\Local\Temp\ccSmV8cy.s:31278  .debug_str:0000000000020faf .LASF2767
C:\Users\CYMR90~1\AppData\Local\Temp\ccSmV8cy.s:28541  .debug_str:000000000001616e .LASF2768
C:\Users\CYMR90~1\AppData\Local\Temp\ccSmV8cy.s:33366  .debug_str:00000000000293a3 .LASF2769
C:\Users\CYMR90~1\AppData\Local\Temp\ccSmV8cy.s:26609  .debug_str:000000000000e860 .LASF2770
C:\Users\CYMR90~1\AppData\Local\Temp\ccSmV8cy.s:24579  .debug_str:0000000000006697 .LASF2771
C:\Users\CYMR90~1\AppData\Local\Temp\ccSmV8cy.s:29458  .debug_str:0000000000019cce .LASF2772
C:\Users\CYMR90~1\AppData\Local\Temp\ccSmV8cy.s:27939  .debug_str:0000000000013cf5 .LASF2773
C:\Users\CYMR90~1\AppData\Local\Temp\ccSmV8cy.s:31224  .debug_str:0000000000020bd6 .LASF2774
C:\Users\CYMR90~1\AppData\Local\Temp\ccSmV8cy.s:34520  .debug_str:000000000002daa2 .LASF2775
C:\Users\CYMR90~1\AppData\Local\Temp\ccSmV8cy.s:30146  .debug_str:000000000001c884 .LASF2776
C:\Users\CYMR90~1\AppData\Local\Temp\ccSmV8cy.s:32254  .debug_str:0000000000024acb .LASF2777
C:\Users\CYMR90~1\AppData\Local\Temp\ccSmV8cy.s:32692  .debug_str:000000000002684d .LASF2778
C:\Users\CYMR90~1\AppData\Local\Temp\ccSmV8cy.s:28934  .debug_str:0000000000017c18 .LASF2779
C:\Users\CYMR90~1\AppData\Local\Temp\ccSmV8cy.s:27715  .debug_str:0000000000012e2a .LASF2780
C:\Users\CYMR90~1\AppData\Local\Temp\ccSmV8cy.s:30952  .debug_str:000000000001fbb3 .LASF2781
C:\Users\CYMR90~1\AppData\Local\Temp\ccSmV8cy.s:34278  .debug_str:000000000002cb40 .LASF2782
C:\Users\CYMR90~1\AppData\Local\Temp\ccSmV8cy.s:31712  .debug_str:0000000000022a06 .LASF2783
C:\Users\CYMR90~1\AppData\Local\Temp\ccSmV8cy.s:33734  .debug_str:000000000002a9b6 .LASF2784
C:\Users\CYMR90~1\AppData\Local\Temp\ccSmV8cy.s:23913  .debug_str:0000000000003d30 .LASF2785
C:\Users\CYMR90~1\AppData\Local\Temp\ccSmV8cy.s:28779  .debug_str:00000000000170e4 .LASF2786
C:\Users\CYMR90~1\AppData\Local\Temp\ccSmV8cy.s:33586  .debug_str:000000000002a176 .LASF2787
C:\Users\CYMR90~1\AppData\Local\Temp\ccSmV8cy.s:24057  .debug_str:0000000000004629 .LASF2788
C:\Users\CYMR90~1\AppData\Local\Temp\ccSmV8cy.s:28745  .debug_str:0000000000016eb8 .LASF2789
C:\Users\CYMR90~1\AppData\Local\Temp\ccSmV8cy.s:33556  .debug_str:0000000000029f77 .LASF2790
C:\Users\CYMR90~1\AppData\Local\Temp\ccSmV8cy.s:26813  .debug_str:000000000000f4c9 .LASF2791
C:\Users\CYMR90~1\AppData\Local\Temp\ccSmV8cy.s:31596  .debug_str:00000000000222f2 .LASF2792
C:\Users\CYMR90~1\AppData\Local\Temp\ccSmV8cy.s:30232  .debug_str:000000000001cd93 .LASF2793
C:\Users\CYMR90~1\AppData\Local\Temp\ccSmV8cy.s:23417  .debug_str:0000000000001e0a .LASF2794
C:\Users\CYMR90~1\AppData\Local\Temp\ccSmV8cy.s:28255  .debug_str:0000000000015005 .LASF2795
C:\Users\CYMR90~1\AppData\Local\Temp\ccSmV8cy.s:28051  .debug_str:0000000000014379 .LASF2796
C:\Users\CYMR90~1\AppData\Local\Temp\ccSmV8cy.s:26337  .debug_str:000000000000d7cc .LASF2797
C:\Users\CYMR90~1\AppData\Local\Temp\ccSmV8cy.s:31116  .debug_str:000000000002054d .LASF2798
C:\Users\CYMR90~1\AppData\Local\Temp\ccSmV8cy.s:25947  .debug_str:000000000000bf33 .LASF2799
C:\Users\CYMR90~1\AppData\Local\Temp\ccSmV8cy.s:30736  .debug_str:000000000001eea2 .LASF2800
C:\Users\CYMR90~1\AppData\Local\Temp\ccSmV8cy.s:23931  .debug_str:0000000000003e33 .LASF2801
C:\Users\CYMR90~1\AppData\Local\Temp\ccSmV8cy.s:28793  .debug_str:0000000000017254 .LASF2802
C:\Users\CYMR90~1\AppData\Local\Temp\ccSmV8cy.s:25293  .debug_str:00000000000094dc .LASF2803
C:\Users\CYMR90~1\AppData\Local\Temp\ccSmV8cy.s:32226  .debug_str:000000000002484d .LASF2804
C:\Users\CYMR90~1\AppData\Local\Temp\ccSmV8cy.s:23423  .debug_str:0000000000001e73 .LASF2805
C:\Users\CYMR90~1\AppData\Local\Temp\ccSmV8cy.s:26777  .debug_str:000000000000f2d1 .LASF2806
C:\Users\CYMR90~1\AppData\Local\Temp\ccSmV8cy.s:33044  .debug_str:0000000000027e81 .LASF2807
C:\Users\CYMR90~1\AppData\Local\Temp\ccSmV8cy.s:33338  .debug_str:0000000000029201 .LASF2808
C:\Users\CYMR90~1\AppData\Local\Temp\ccSmV8cy.s:24909  .debug_str:0000000000007bef .LASF2809
C:\Users\CYMR90~1\AppData\Local\Temp\ccSmV8cy.s:28225  .debug_str:0000000000014e3d .LASF2810
C:\Users\CYMR90~1\AppData\Local\Temp\ccSmV8cy.s:31510  .debug_str:0000000000021dc2 .LASF2811
C:\Users\CYMR90~1\AppData\Local\Temp\ccSmV8cy.s:23195  .debug_str:000000000000104e .LASF2812
C:\Users\CYMR90~1\AppData\Local\Temp\ccSmV8cy.s:26537  .debug_str:000000000000e40f .LASF2813
C:\Users\CYMR90~1\AppData\Local\Temp\ccSmV8cy.s:29822  .debug_str:000000000001b460 .LASF2814
C:\Users\CYMR90~1\AppData\Local\Temp\ccSmV8cy.s:29096  .debug_str:0000000000018632 .LASF2815
C:\Users\CYMR90~1\AppData\Local\Temp\ccSmV8cy.s:28834  .debug_str:0000000000017674 .LASF2816
C:\Users\CYMR90~1\AppData\Local\Temp\ccSmV8cy.s:27167  .debug_str:0000000000010ae6 .LASF2817
C:\Users\CYMR90~1\AppData\Local\Temp\ccSmV8cy.s:31956  .debug_str:0000000000023885 .LASF2818
C:\Users\CYMR90~1\AppData\Local\Temp\ccSmV8cy.s:32576  .debug_str:0000000000026098 .LASF2819
C:\Users\CYMR90~1\AppData\Local\Temp\ccSmV8cy.s:30006  .debug_str:000000000001bfce .LASF2820
C:\Users\CYMR90~1\AppData\Local\Temp\ccSmV8cy.s:27355  .debug_str:0000000000011657 .LASF2821
C:\Users\CYMR90~1\AppData\Local\Temp\ccSmV8cy.s:33780  .debug_str:000000000002ac37 .LASF2822
C:\Users\CYMR90~1\AppData\Local\Temp\ccSmV8cy.s:24675  .debug_str:0000000000006c8c .LASF2823
C:\Users\CYMR90~1\AppData\Local\Temp\ccSmV8cy.s:25109  .debug_str:00000000000089ab .LASF2824
C:\Users\CYMR90~1\AppData\Local\Temp\ccSmV8cy.s:26117  .debug_str:000000000000c9d0 .LASF2825
C:\Users\CYMR90~1\AppData\Local\Temp\ccSmV8cy.s:23507  .debug_str:000000000000233e .LASF2826
C:\Users\CYMR90~1\AppData\Local\Temp\ccSmV8cy.s:23843  .debug_str:00000000000038bd .LASF2827
C:\Users\CYMR90~1\AppData\Local\Temp\ccSmV8cy.s:24923  .debug_str:0000000000007cd5 .LASF2828
C:\Users\CYMR90~1\AppData\Local\Temp\ccSmV8cy.s:24207  .debug_str:0000000000005033 .LASF2829
C:\Users\CYMR90~1\AppData\Local\Temp\ccSmV8cy.s:27709  .debug_str:0000000000012dc7 .LASF2830
C:\Users\CYMR90~1\AppData\Local\Temp\ccSmV8cy.s:24251  .debug_str:00000000000052b8 .LASF2831
C:\Users\CYMR90~1\AppData\Local\Temp\ccSmV8cy.s:31290  .debug_str:0000000000021052 .LASF2832
C:\Users\CYMR90~1\AppData\Local\Temp\ccSmV8cy.s:32320  .debug_str:0000000000024eed .LASF2833
C:\Users\CYMR90~1\AppData\Local\Temp\ccSmV8cy.s:26747  .debug_str:000000000000f129 .LASF2834
C:\Users\CYMR90~1\AppData\Local\Temp\ccSmV8cy.s:25757  .debug_str:000000000000b230 .LASF2835
C:\Users\CYMR90~1\AppData\Local\Temp\ccSmV8cy.s:23259  .debug_str:00000000000013a9 .LASF2836
C:\Users\CYMR90~1\AppData\Local\Temp\ccSmV8cy.s:26159  .debug_str:000000000000cc85 .LASF2837
C:\Users\CYMR90~1\AppData\Local\Temp\ccSmV8cy.s:29716  .debug_str:000000000001add5 .LASF2838
C:\Users\CYMR90~1\AppData\Local\Temp\ccSmV8cy.s:31286  .debug_str:0000000000021028 .LASF2839
C:\Users\CYMR90~1\AppData\Local\Temp\ccSmV8cy.s:22959  .debug_str:000000000000020a .LASF2840
C:\Users\CYMR90~1\AppData\Local\Temp\ccSmV8cy.s:26295  .debug_str:000000000000d50e .LASF2841
C:\Users\CYMR90~1\AppData\Local\Temp\ccSmV8cy.s:29566  .debug_str:000000000001a3f7 .LASF2842
C:\Users\CYMR90~1\AppData\Local\Temp\ccSmV8cy.s:29252  .debug_str:0000000000018f52 .LASF2843
C:\Users\CYMR90~1\AppData\Local\Temp\ccSmV8cy.s:33114  .debug_str:0000000000028235 .LASF2844
C:\Users\CYMR90~1\AppData\Local\Temp\ccSmV8cy.s:31444  .debug_str:000000000002192f .LASF2845
C:\Users\CYMR90~1\AppData\Local\Temp\ccSmV8cy.s:29812  .debug_str:000000000001b3ee .LASF2846
C:\Users\CYMR90~1\AppData\Local\Temp\ccSmV8cy.s:34336  .debug_str:000000000002cf03 .LASF2847
C:\Users\CYMR90~1\AppData\Local\Temp\ccSmV8cy.s:23295  .debug_str:00000000000015f0 .LASF2848
C:\Users\CYMR90~1\AppData\Local\Temp\ccSmV8cy.s:28129  .debug_str:000000000001484d .LASF2849
C:\Users\CYMR90~1\AppData\Local\Temp\ccSmV8cy.s:26273  .debug_str:000000000000d3c1 .LASF2850
C:\Users\CYMR90~1\AppData\Local\Temp\ccSmV8cy.s:34010  .debug_str:000000000002b98d .LASF2851
C:\Users\CYMR90~1\AppData\Local\Temp\ccSmV8cy.s:30150  .debug_str:000000000001c8b2 .LASF2852
C:\Users\CYMR90~1\AppData\Local\Temp\ccSmV8cy.s:28411  .debug_str:00000000000159f6 .LASF2853
C:\Users\CYMR90~1\AppData\Local\Temp\ccSmV8cy.s:31750  .debug_str:0000000000022c3c .LASF2854
C:\Users\CYMR90~1\AppData\Local\Temp\ccSmV8cy.s:23409  .debug_str:0000000000001d96 .LASF2855
C:\Users\CYMR90~1\AppData\Local\Temp\ccSmV8cy.s:25047  .debug_str:0000000000008603 .LASF2856
C:\Users\CYMR90~1\AppData\Local\Temp\ccSmV8cy.s:30032  .debug_str:000000000001c149 .LASF2857
C:\Users\CYMR90~1\AppData\Local\Temp\ccSmV8cy.s:33268  .debug_str:0000000000028d24 .LASF2858
C:\Users\CYMR90~1\AppData\Local\Temp\ccSmV8cy.s:26685  .debug_str:000000000000ed77 .LASF2859
C:\Users\CYMR90~1\AppData\Local\Temp\ccSmV8cy.s:28209  .debug_str:0000000000014d88 .LASF2860
C:\Users\CYMR90~1\AppData\Local\Temp\ccSmV8cy.s:28247  .debug_str:0000000000014fa9 .LASF2861
C:\Users\CYMR90~1\AppData\Local\Temp\ccSmV8cy.s:23187  .debug_str:0000000000000fef .LASF2862
C:\Users\CYMR90~1\AppData\Local\Temp\ccSmV8cy.s:23335  .debug_str:00000000000018e0 .LASF2863
C:\Users\CYMR90~1\AppData\Local\Temp\ccSmV8cy.s:28801  .debug_str:00000000000172ce .LASF2864
C:\Users\CYMR90~1\AppData\Local\Temp\ccSmV8cy.s:29892  .debug_str:000000000001b91f .LASF2865
C:\Users\CYMR90~1\AppData\Local\Temp\ccSmV8cy.s:26859  .debug_str:000000000000f79e .LASF2866
C:\Users\CYMR90~1\AppData\Local\Temp\ccSmV8cy.s:28059  .debug_str:00000000000143f7 .LASF2867
C:\Users\CYMR90~1\AppData\Local\Temp\ccSmV8cy.s:31814  .debug_str:0000000000022fe2 .LASF2868
C:\Users\CYMR90~1\AppData\Local\Temp\ccSmV8cy.s:29722  .debug_str:000000000001aeaf .LASF2869
C:\Users\CYMR90~1\AppData\Local\Temp\ccSmV8cy.s:28964  .debug_str:0000000000017ddf .LASF2870
C:\Users\CYMR90~1\AppData\Local\Temp\ccSmV8cy.s:26629  .debug_str:000000000000e973 .LASF2871
C:\Users\CYMR90~1\AppData\Local\Temp\ccSmV8cy.s:27839  .debug_str:0000000000013613 .LASF2872
C:\Users\CYMR90~1\AppData\Local\Temp\ccSmV8cy.s:27799  .debug_str:0000000000013390 .LASF2873
C:\Users\CYMR90~1\AppData\Local\Temp\ccSmV8cy.s:23745  .debug_str:0000000000003259 .LASF2874
C:\Users\CYMR90~1\AppData\Local\Temp\ccSmV8cy.s:23621  .debug_str:0000000000002a74 .LASF2875
C:\Users\CYMR90~1\AppData\Local\Temp\ccSmV8cy.s:31406  .debug_str:0000000000021738 .LASF2876
C:\Users\CYMR90~1\AppData\Local\Temp\ccSmV8cy.s:32402  .debug_str:0000000000025428 .LASF2877
C:\Users\CYMR90~1\AppData\Local\Temp\ccSmV8cy.s:32086  .debug_str:000000000002404b .LASF2878
C:\Users\CYMR90~1\AppData\Local\Temp\ccSmV8cy.s:25821  .debug_str:000000000000b6dc .LASF2879
C:\Users\CYMR90~1\AppData\Local\Temp\ccSmV8cy.s:29098  .debug_str:0000000000018649 .LASF2880
C:\Users\CYMR90~1\AppData\Local\Temp\ccSmV8cy.s:32378  .debug_str:0000000000025291 .LASF2881
C:\Users\CYMR90~1\AppData\Local\Temp\ccSmV8cy.s:24049  .debug_str:000000000000459b .LASF2882
C:\Users\CYMR90~1\AppData\Local\Temp\ccSmV8cy.s:26199  .debug_str:000000000000cfb3 .LASF2883
C:\Users\CYMR90~1\AppData\Local\Temp\ccSmV8cy.s:30578  .debug_str:000000000001e4cd .LASF2884
C:\Users\CYMR90~1\AppData\Local\Temp\ccSmV8cy.s:34442  .debug_str:000000000002d5c4 .LASF2885
C:\Users\CYMR90~1\AppData\Local\Temp\ccSmV8cy.s:25573  .debug_str:000000000000a621 .LASF2886
C:\Users\CYMR90~1\AppData\Local\Temp\ccSmV8cy.s:28872  .debug_str:0000000000017858 .LASF2887
C:\Users\CYMR90~1\AppData\Local\Temp\ccSmV8cy.s:32150  .debug_str:0000000000024427 .LASF2888
C:\Users\CYMR90~1\AppData\Local\Temp\ccSmV8cy.s:30296  .debug_str:000000000001d237 .LASF2889
C:\Users\CYMR90~1\AppData\Local\Temp\ccSmV8cy.s:23465  .debug_str:00000000000020e8 .LASF2890
C:\Users\CYMR90~1\AppData\Local\Temp\ccSmV8cy.s:28313  .debug_str:00000000000153d6 .LASF2891
C:\Users\CYMR90~1\AppData\Local\Temp\ccSmV8cy.s:33150  .debug_str:00000000000284b5 .LASF2892
C:\Users\CYMR90~1\AppData\Local\Temp\ccSmV8cy.s:26393  .debug_str:000000000000dbca .LASF2893
C:\Users\CYMR90~1\AppData\Local\Temp\ccSmV8cy.s:31190  .debug_str:0000000000020a2d .LASF2894
C:\Users\CYMR90~1\AppData\Local\Temp\ccSmV8cy.s:33826  .debug_str:000000000002af46 .LASF2895
C:\Users\CYMR90~1\AppData\Local\Temp\ccSmV8cy.s:34046  .debug_str:000000000002bbec .LASF2896
C:\Users\CYMR90~1\AppData\Local\Temp\ccSmV8cy.s:29760  .debug_str:000000000001b0d2 .LASF2897
C:\Users\CYMR90~1\AppData\Local\Temp\ccSmV8cy.s:24795  .debug_str:00000000000074b1 .LASF2898
C:\Users\CYMR90~1\AppData\Local\Temp\ccSmV8cy.s:25119  .debug_str:0000000000008a3d .LASF2899
C:\Users\CYMR90~1\AppData\Local\Temp\ccSmV8cy.s:29156  .debug_str:000000000001897d .LASF2900
C:\Users\CYMR90~1\AppData\Local\Temp\ccSmV8cy.s:34148  .debug_str:000000000002c29f .LASF2901
C:\Users\CYMR90~1\AppData\Local\Temp\ccSmV8cy.s:27581  .debug_str:0000000000012564 .LASF2902
C:\Users\CYMR90~1\AppData\Local\Temp\ccSmV8cy.s:34426  .debug_str:000000000002d4dd .LASF2903
C:\Users\CYMR90~1\AppData\Local\Temp\ccSmV8cy.s:24489  .debug_str:0000000000006125 .LASF2904
C:\Users\CYMR90~1\AppData\Local\Temp\ccSmV8cy.s:31432  .debug_str:00000000000218ad .LASF2905
C:\Users\CYMR90~1\AppData\Local\Temp\ccSmV8cy.s:32830  .debug_str:0000000000027102 .LASF2906
C:\Users\CYMR90~1\AppData\Local\Temp\ccSmV8cy.s:34250  .debug_str:000000000002c968 .LASF2907
C:\Users\CYMR90~1\AppData\Local\Temp\ccSmV8cy.s:24003  .debug_str:00000000000042da .LASF2908
C:\Users\CYMR90~1\AppData\Local\Temp\ccSmV8cy.s:27845  .debug_str:0000000000013682 .LASF2909
C:\Users\CYMR90~1\AppData\Local\Temp\ccSmV8cy.s:33342  .debug_str:000000000002922f .LASF2910
C:\Users\CYMR90~1\AppData\Local\Temp\ccSmV8cy.s:31252  .debug_str:0000000000020db6 .LASF2911
C:\Users\CYMR90~1\AppData\Local\Temp\ccSmV8cy.s:28896  .debug_str:00000000000179d5 .LASF2912
C:\Users\CYMR90~1\AppData\Local\Temp\ccSmV8cy.s:29664  .debug_str:000000000001aac1 .LASF2913
C:\Users\CYMR90~1\AppData\Local\Temp\ccSmV8cy.s:33968  .debug_str:000000000002b742 .LASF2914
C:\Users\CYMR90~1\AppData\Local\Temp\ccSmV8cy.s:31856  .debug_str:0000000000023267 .LASF2915
C:\Users\CYMR90~1\AppData\Local\Temp\ccSmV8cy.s:30100  .debug_str:000000000001c5de .LASF2916
C:\Users\CYMR90~1\AppData\Local\Temp\ccSmV8cy.s:28049  .debug_str:0000000000014369 .LASF2917
C:\Users\CYMR90~1\AppData\Local\Temp\ccSmV8cy.s:30654  .debug_str:000000000001e9d9 .LASF2918
C:\Users\CYMR90~1\AppData\Local\Temp\ccSmV8cy.s:27777  .debug_str:000000000001322b .LASF2919
C:\Users\CYMR90~1\AppData\Local\Temp\ccSmV8cy.s:26481  .debug_str:000000000000e07b .LASF2920
C:\Users\CYMR90~1\AppData\Local\Temp\ccSmV8cy.s:25567  .debug_str:000000000000a5c6 .LASF2921
C:\Users\CYMR90~1\AppData\Local\Temp\ccSmV8cy.s:24631  .debug_str:00000000000069e6 .LASF2922
C:\Users\CYMR90~1\AppData\Local\Temp\ccSmV8cy.s:23749  .debug_str:000000000000328f .LASF2923
C:\Users\CYMR90~1\AppData\Local\Temp\ccSmV8cy.s:34498  .debug_str:000000000002d963 .LASF2924
C:\Users\CYMR90~1\AppData\Local\Temp\ccSmV8cy.s:33590  .debug_str:000000000002a1a7 .LASF2925
C:\Users\CYMR90~1\AppData\Local\Temp\ccSmV8cy.s:32304  .debug_str:0000000000024de8 .LASF2926
C:\Users\CYMR90~1\AppData\Local\Temp\ccSmV8cy.s:23969  .debug_str:00000000000040f1 .LASF2927
C:\Users\CYMR90~1\AppData\Local\Temp\ccSmV8cy.s:32220  .debug_str:00000000000247f0 .LASF2928
C:\Users\CYMR90~1\AppData\Local\Temp\ccSmV8cy.s:30596  .debug_str:000000000001e668 .LASF2929
C:\Users\CYMR90~1\AppData\Local\Temp\ccSmV8cy.s:25495  .debug_str:000000000000a0ff .LASF2930
C:\Users\CYMR90~1\AppData\Local\Temp\ccSmV8cy.s:25589  .debug_str:000000000000a732 .LASF2931
C:\Users\CYMR90~1\AppData\Local\Temp\ccSmV8cy.s:31938  .debug_str:0000000000023780 .LASF2932
C:\Users\CYMR90~1\AppData\Local\Temp\ccSmV8cy.s:34444  .debug_str:000000000002d5d6 .LASF2933
C:\Users\CYMR90~1\AppData\Local\Temp\ccSmV8cy.s:32382  .debug_str:00000000000252c9 .LASF2934
C:\Users\CYMR90~1\AppData\Local\Temp\ccSmV8cy.s:28485  .debug_str:0000000000015e11 .LASF2935
C:\Users\CYMR90~1\AppData\Local\Temp\ccSmV8cy.s:31234  .debug_str:0000000000020c91 .LASF2936
C:\Users\CYMR90~1\AppData\Local\Temp\ccSmV8cy.s:29688  .debug_str:000000000001ac07 .LASF2937
C:\Users\CYMR90~1\AppData\Local\Temp\ccSmV8cy.s:29726  .debug_str:000000000001aedd .LASF2938
C:\Users\CYMR90~1\AppData\Local\Temp\ccSmV8cy.s:29764  .debug_str:000000000001b11f .LASF2939
C:\Users\CYMR90~1\AppData\Local\Temp\ccSmV8cy.s:28711  .debug_str:0000000000016c18 .LASF2940
C:\Users\CYMR90~1\AppData\Local\Temp\ccSmV8cy.s:27697  .debug_str:0000000000012d05 .LASF2941
C:\Users\CYMR90~1\AppData\Local\Temp\ccSmV8cy.s:28081  .debug_str:0000000000014551 .LASF2942
C:\Users\CYMR90~1\AppData\Local\Temp\ccSmV8cy.s:32746  .debug_str:0000000000026bc0 .LASF2943
C:\Users\CYMR90~1\AppData\Local\Temp\ccSmV8cy.s:29928  .debug_str:000000000001bb50 .LASF2944
C:\Users\CYMR90~1\AppData\Local\Temp\ccSmV8cy.s:24471  .debug_str:0000000000005fe3 .LASF2945
C:\Users\CYMR90~1\AppData\Local\Temp\ccSmV8cy.s:26479  .debug_str:000000000000e059 .LASF2946
C:\Users\CYMR90~1\AppData\Local\Temp\ccSmV8cy.s:31556  .debug_str:000000000002209e .LASF2947
C:\Users\CYMR90~1\AppData\Local\Temp\ccSmV8cy.s:33122  .debug_str:00000000000282ce .LASF2948
C:\Users\CYMR90~1\AppData\Local\Temp\ccSmV8cy.s:26033  .debug_str:000000000000c501 .LASF2949
C:\Users\CYMR90~1\AppData\Local\Temp\ccSmV8cy.s:26611  .debug_str:000000000000e879 .LASF2950
C:\Users\CYMR90~1\AppData\Local\Temp\ccSmV8cy.s:30702  .debug_str:000000000001ecc5 .LASF2951
C:\Users\CYMR90~1\AppData\Local\Temp\ccSmV8cy.s:24229  .debug_str:000000000000517f .LASF2952
C:\Users\CYMR90~1\AppData\Local\Temp\ccSmV8cy.s:34004  .debug_str:000000000002b934 .LASF2953
C:\Users\CYMR90~1\AppData\Local\Temp\ccSmV8cy.s:31054  .debug_str:00000000000201a2 .LASF2954
C:\Users\CYMR90~1\AppData\Local\Temp\ccSmV8cy.s:32992  .debug_str:0000000000027a74 .LASF2955
C:\Users\CYMR90~1\AppData\Local\Temp\ccSmV8cy.s:31394  .debug_str:00000000000216a0 .LASF2956
C:\Users\CYMR90~1\AppData\Local\Temp\ccSmV8cy.s:34524  .debug_str:000000000002dad6 .LASF2957
C:\Users\CYMR90~1\AppData\Local\Temp\ccSmV8cy.s:23721  .debug_str:00000000000030c4 .LASF2958
C:\Users\CYMR90~1\AppData\Local\Temp\ccSmV8cy.s:23447  .debug_str:000000000000200a .LASF2959
C:\Users\CYMR90~1\AppData\Local\Temp\ccSmV8cy.s:30726  .debug_str:000000000001ee36 .LASF2960
C:\Users\CYMR90~1\AppData\Local\Temp\ccSmV8cy.s:23697  .debug_str:0000000000002f40 .LASF2961
C:\Users\CYMR90~1\AppData\Local\Temp\ccSmV8cy.s:27981  .debug_str:0000000000013f73 .LASF2962
C:\Users\CYMR90~1\AppData\Local\Temp\ccSmV8cy.s:34294  .debug_str:000000000002cbf8 .LASF2963
C:\Users\CYMR90~1\AppData\Local\Temp\ccSmV8cy.s:32890  .debug_str:0000000000027478 .LASF2964
C:\Users\CYMR90~1\AppData\Local\Temp\ccSmV8cy.s:24457  .debug_str:0000000000005f1e .LASF2965
C:\Users\CYMR90~1\AppData\Local\Temp\ccSmV8cy.s:33100  .debug_str:0000000000028166 .LASF2966
C:\Users\CYMR90~1\AppData\Local\Temp\ccSmV8cy.s:30278  .debug_str:000000000001d112 .LASF2967
C:\Users\CYMR90~1\AppData\Local\Temp\ccSmV8cy.s:31302  .debug_str:0000000000021124 .LASF2968
C:\Users\CYMR90~1\AppData\Local\Temp\ccSmV8cy.s:26979  .debug_str:000000000000fef6 .LASF2969
C:\Users\CYMR90~1\AppData\Local\Temp\ccSmV8cy.s:26099  .debug_str:000000000000c8d0 .LASF2970
C:\Users\CYMR90~1\AppData\Local\Temp\ccSmV8cy.s:29994  .debug_str:000000000001bf4a .LASF2971
C:\Users\CYMR90~1\AppData\Local\Temp\ccSmV8cy.s:33304  .debug_str:0000000000028f67 .LASF2972
C:\Users\CYMR90~1\AppData\Local\Temp\ccSmV8cy.s:31702  .debug_str:000000000002295a .LASF2973
C:\Users\CYMR90~1\AppData\Local\Temp\ccSmV8cy.s:32644  .debug_str:0000000000026555 .LASF2974
C:\Users\CYMR90~1\AppData\Local\Temp\ccSmV8cy.s:24061  .debug_str:000000000000465c .LASF2975
C:\Users\CYMR90~1\AppData\Local\Temp\ccSmV8cy.s:29062  .debug_str:00000000000183f6 .LASF2976
C:\Users\CYMR90~1\AppData\Local\Temp\ccSmV8cy.s:31614  .debug_str:0000000000022455 .LASF2977
C:\Users\CYMR90~1\AppData\Local\Temp\ccSmV8cy.s:24963  .debug_str:0000000000007f62 .LASF2978
C:\Users\CYMR90~1\AppData\Local\Temp\ccSmV8cy.s:30474  .debug_str:000000000001de36 .LASF2979
C:\Users\CYMR90~1\AppData\Local\Temp\ccSmV8cy.s:26417  .debug_str:000000000000dd02 .LASF2980
C:\Users\CYMR90~1\AppData\Local\Temp\ccSmV8cy.s:34070  .debug_str:000000000002bd92 .LASF2981
C:\Users\CYMR90~1\AppData\Local\Temp\ccSmV8cy.s:29090  .debug_str:00000000000185ba .LASF2982
C:\Users\CYMR90~1\AppData\Local\Temp\ccSmV8cy.s:23927  .debug_str:0000000000003dea .LASF2983
C:\Users\CYMR90~1\AppData\Local\Temp\ccSmV8cy.s:29322  .debug_str:000000000001940f .LASF2984
C:\Users\CYMR90~1\AppData\Local\Temp\ccSmV8cy.s:22951  .debug_str:0000000000000178 .LASF2985
C:\Users\CYMR90~1\AppData\Local\Temp\ccSmV8cy.s:26803  .debug_str:000000000000f42a .LASF2986
C:\Users\CYMR90~1\AppData\Local\Temp\ccSmV8cy.s:28293  .debug_str:0000000000015254 .LASF2987
C:\Users\CYMR90~1\AppData\Local\Temp\ccSmV8cy.s:28191  .debug_str:0000000000014c3c .LASF2988
C:\Users\CYMR90~1\AppData\Local\Temp\ccSmV8cy.s:26829  .debug_str:000000000000f5a0 .LASF2989
C:\Users\CYMR90~1\AppData\Local\Temp\ccSmV8cy.s:26509  .debug_str:000000000000e216 .LASF2990
C:\Users\CYMR90~1\AppData\Local\Temp\ccSmV8cy.s:32102  .debug_str:000000000002414a .LASF2991
C:\Users\CYMR90~1\AppData\Local\Temp\ccSmV8cy.s:28908  .debug_str:0000000000017aa6 .LASF2992
C:\Users\CYMR90~1\AppData\Local\Temp\ccSmV8cy.s:27977  .debug_str:0000000000013f29 .LASF2993
C:\Users\CYMR90~1\AppData\Local\Temp\ccSmV8cy.s:25185  .debug_str:0000000000008e3d .LASF2994
C:\Users\CYMR90~1\AppData\Local\Temp\ccSmV8cy.s:33808  .debug_str:000000000002adf5 .LASF2995
C:\Users\CYMR90~1\AppData\Local\Temp\ccSmV8cy.s:28291  .debug_str:0000000000015236 .LASF2996
C:\Users\CYMR90~1\AppData\Local\Temp\ccSmV8cy.s:28391  .debug_str:00000000000158ad .LASF2997
C:\Users\CYMR90~1\AppData\Local\Temp\ccSmV8cy.s:24299  .debug_str:0000000000005588 .LASF2998
C:\Users\CYMR90~1\AppData\Local\Temp\ccSmV8cy.s:28581  .debug_str:000000000001643a .LASF2999
C:\Users\CYMR90~1\AppData\Local\Temp\ccSmV8cy.s:31838  .debug_str:000000000002317e .LASF3000
C:\Users\CYMR90~1\AppData\Local\Temp\ccSmV8cy.s:27191  .debug_str:0000000000010c34 .LASF3001
C:\Users\CYMR90~1\AppData\Local\Temp\ccSmV8cy.s:28557  .debug_str:0000000000016252 .LASF3002
C:\Users\CYMR90~1\AppData\Local\Temp\ccSmV8cy.s:28437  .debug_str:0000000000015b5e .LASF3003
C:\Users\CYMR90~1\AppData\Local\Temp\ccSmV8cy.s:31296  .debug_str:000000000002109f .LASF3004
C:\Users\CYMR90~1\AppData\Local\Temp\ccSmV8cy.s:34358  .debug_str:000000000002d016 .LASF3005
C:\Users\CYMR90~1\AppData\Local\Temp\ccSmV8cy.s:32222  .debug_str:0000000000024802 .LASF3006
C:\Users\CYMR90~1\AppData\Local\Temp\ccSmV8cy.s:31606  .debug_str:00000000000223b6 .LASF3007
C:\Users\CYMR90~1\AppData\Local\Temp\ccSmV8cy.s:24259  .debug_str:0000000000005319 .LASF3008
C:\Users\CYMR90~1\AppData\Local\Temp\ccSmV8cy.s:34504  .debug_str:000000000002d9a5 .LASF3009
C:\Users\CYMR90~1\AppData\Local\Temp\ccSmV8cy.s:26703  .debug_str:000000000000ee6a .LASF3010
C:\Users\CYMR90~1\AppData\Local\Temp\ccSmV8cy.s:30118  .debug_str:000000000001c6e6 .LASF3011
C:\Users\CYMR90~1\AppData\Local\Temp\ccSmV8cy.s:23293  .debug_str:00000000000015d9 .LASF3012
C:\Users\CYMR90~1\AppData\Local\Temp\ccSmV8cy.s:27317  .debug_str:0000000000011437 .LASF3013
C:\Users\CYMR90~1\AppData\Local\Temp\ccSmV8cy.s:26415  .debug_str:000000000000dce9 .LASF3014
C:\Users\CYMR90~1\AppData\Local\Temp\ccSmV8cy.s:23469  .debug_str:0000000000002114 .LASF3015
C:\Users\CYMR90~1\AppData\Local\Temp\ccSmV8cy.s:30844  .debug_str:000000000001f4f4 .LASF3016
C:\Users\CYMR90~1\AppData\Local\Temp\ccSmV8cy.s:26055  .debug_str:000000000000c65a .LASF3017
C:\Users\CYMR90~1\AppData\Local\Temp\ccSmV8cy.s:24781  .debug_str:00000000000073c8 .LASF3018
C:\Users\CYMR90~1\AppData\Local\Temp\ccSmV8cy.s:29246  .debug_str:0000000000018f0c .LASF3019
C:\Users\CYMR90~1\AppData\Local\Temp\ccSmV8cy.s:27029  .debug_str:00000000000101f8 .LASF3020
C:\Users\CYMR90~1\AppData\Local\Temp\ccSmV8cy.s:23707  .debug_str:0000000000002fe6 .LASF3021
C:\Users\CYMR90~1\AppData\Local\Temp\ccSmV8cy.s:26115  .debug_str:000000000000c9bc .LASF3022
C:\Users\CYMR90~1\AppData\Local\Temp\ccSmV8cy.s:26635  .debug_str:000000000000e9d5 .LASF3023
C:\Users\CYMR90~1\AppData\Local\Temp\ccSmV8cy.s:34102  .debug_str:000000000002bfa9 .LASF3024
C:\Users\CYMR90~1\AppData\Local\Temp\ccSmV8cy.s:24745  .debug_str:000000000000713f .LASF3025
C:\Users\CYMR90~1\AppData\Local\Temp\ccSmV8cy.s:31186  .debug_str:00000000000209ee .LASF3026
C:\Users\CYMR90~1\AppData\Local\Temp\ccSmV8cy.s:27017  .debug_str:0000000000010125 .LASF3027
C:\Users\CYMR90~1\AppData\Local\Temp\ccSmV8cy.s:28920  .debug_str:0000000000017b66 .LASF3028
C:\Users\CYMR90~1\AppData\Local\Temp\ccSmV8cy.s:24213  .debug_str:000000000000508c .LASF3029
C:\Users\CYMR90~1\AppData\Local\Temp\ccSmV8cy.s:34026  .debug_str:000000000002ba7d .LASF3030
C:\Users\CYMR90~1\AppData\Local\Temp\ccSmV8cy.s:26589  .debug_str:000000000000e70a .LASF3031
C:\Users\CYMR90~1\AppData\Local\Temp\ccSmV8cy.s:25643  .debug_str:000000000000aa17 .LASF3032
C:\Users\CYMR90~1\AppData\Local\Temp\ccSmV8cy.s:32450  .debug_str:0000000000025752 .LASF3033
C:\Users\CYMR90~1\AppData\Local\Temp\ccSmV8cy.s:26759  .debug_str:000000000000f1e0 .LASF3034
C:\Users\CYMR90~1\AppData\Local\Temp\ccSmV8cy.s:26559  .debug_str:000000000000e56f .LASF3035
C:\Users\CYMR90~1\AppData\Local\Temp\ccSmV8cy.s:33232  .debug_str:0000000000028a78 .LASF3036
C:\Users\CYMR90~1\AppData\Local\Temp\ccSmV8cy.s:25153  .debug_str:0000000000008c3f .LASF3037
C:\Users\CYMR90~1\AppData\Local\Temp\ccSmV8cy.s:34178  .debug_str:000000000002c4b1 .LASF3038
C:\Users\CYMR90~1\AppData\Local\Temp\ccSmV8cy.s:33320  .debug_str:00000000000290b1 .LASF3039
C:\Users\CYMR90~1\AppData\Local\Temp\ccSmV8cy.s:22969  .debug_str:0000000000000280 .LASF3040
C:\Users\CYMR90~1\AppData\Local\Temp\ccSmV8cy.s:23977  .debug_str:0000000000004181 .LASF3041
C:\Users\CYMR90~1\AppData\Local\Temp\ccSmV8cy.s:30176  .debug_str:000000000001ca3c .LASF3042
C:\Users\CYMR90~1\AppData\Local\Temp\ccSmV8cy.s:23961  .debug_str:0000000000004015 .LASF3043
C:\Users\CYMR90~1\AppData\Local\Temp\ccSmV8cy.s:32466  .debug_str:0000000000025849 .LASF3044
C:\Users\CYMR90~1\AppData\Local\Temp\ccSmV8cy.s:26421  .debug_str:000000000000dd46 .LASF3045
C:\Users\CYMR90~1\AppData\Local\Temp\ccSmV8cy.s:29574  .debug_str:000000000001a465 .LASF3046
C:\Users\CYMR90~1\AppData\Local\Temp\ccSmV8cy.s:23229  .debug_str:000000000000123c .LASF3047
C:\Users\CYMR90~1\AppData\Local\Temp\ccSmV8cy.s:26801  .debug_str:000000000000f410 .LASF3048
C:\Users\CYMR90~1\AppData\Local\Temp\ccSmV8cy.s:30180  .debug_str:000000000001ca70 .LASF3049
C:\Users\CYMR90~1\AppData\Local\Temp\ccSmV8cy.s:33598  .debug_str:000000000002a203 .LASF3050
C:\Users\CYMR90~1\AppData\Local\Temp\ccSmV8cy.s:23369  .debug_str:0000000000001b26 .LASF3051
C:\Users\CYMR90~1\AppData\Local\Temp\ccSmV8cy.s:25489  .debug_str:000000000000a0ab .LASF3052
C:\Users\CYMR90~1\AppData\Local\Temp\ccSmV8cy.s:33022  .debug_str:0000000000027d1f .LASF3053
C:\Users\CYMR90~1\AppData\Local\Temp\ccSmV8cy.s:25035  .debug_str:0000000000008564 .LASF3054
C:\Users\CYMR90~1\AppData\Local\Temp\ccSmV8cy.s:26595  .debug_str:000000000000e783 .LASF3055
C:\Users\CYMR90~1\AppData\Local\Temp\ccSmV8cy.s:32224  .debug_str:000000000002482e .LASF3056
C:\Users\CYMR90~1\AppData\Local\Temp\ccSmV8cy.s:28385  .debug_str:0000000000015848 .LASF3057
C:\Users\CYMR90~1\AppData\Local\Temp\ccSmV8cy.s:25439  .debug_str:0000000000009dce .LASF3058
C:\Users\CYMR90~1\AppData\Local\Temp\ccSmV8cy.s:30960  .debug_str:000000000001fc36 .LASF3059
C:\Users\CYMR90~1\AppData\Local\Temp\ccSmV8cy.s:25009  .debug_str:0000000000008309 .LASF3060
C:\Users\CYMR90~1\AppData\Local\Temp\ccSmV8cy.s:33218  .debug_str:0000000000028943 .LASF3061
C:\Users\CYMR90~1\AppData\Local\Temp\ccSmV8cy.s:32870  .debug_str:000000000002733b .LASF3062
C:\Users\CYMR90~1\AppData\Local\Temp\ccSmV8cy.s:27425  .debug_str:0000000000011abb .LASF3063
C:\Users\CYMR90~1\AppData\Local\Temp\ccSmV8cy.s:32354  .debug_str:0000000000025178 .LASF3064
C:\Users\CYMR90~1\AppData\Local\Temp\ccSmV8cy.s:31434  .debug_str:00000000000218cd .LASF3065
C:\Users\CYMR90~1\AppData\Local\Temp\ccSmV8cy.s:27305  .debug_str:000000000001138d .LASF3066
C:\Users\CYMR90~1\AppData\Local\Temp\ccSmV8cy.s:32962  .debug_str:00000000000278e9 .LASF3067
C:\Users\CYMR90~1\AppData\Local\Temp\ccSmV8cy.s:32108  .debug_str:00000000000241a9 .LASF3068
C:\Users\CYMR90~1\AppData\Local\Temp\ccSmV8cy.s:28862  .debug_str:00000000000177eb .LASF3069
C:\Users\CYMR90~1\AppData\Local\Temp\ccSmV8cy.s:28603  .debug_str:00000000000165b1 .LASF3070
C:\Users\CYMR90~1\AppData\Local\Temp\ccSmV8cy.s:30918  .debug_str:000000000001f9af .LASF3071
C:\Users\CYMR90~1\AppData\Local\Temp\ccSmV8cy.s:27267  .debug_str:00000000000110f7 .LASF3072
C:\Users\CYMR90~1\AppData\Local\Temp\ccSmV8cy.s:27395  .debug_str:00000000000118ea .LASF3073
C:\Users\CYMR90~1\AppData\Local\Temp\ccSmV8cy.s:26775  .debug_str:000000000000f2b5 .LASF3074
C:\Users\CYMR90~1\AppData\Local\Temp\ccSmV8cy.s:26903  .debug_str:000000000000fa2d .LASF3075
C:\Users\CYMR90~1\AppData\Local\Temp\ccSmV8cy.s:30642  .debug_str:000000000001e916 .LASF3076
C:\Users\CYMR90~1\AppData\Local\Temp\ccSmV8cy.s:33340  .debug_str:0000000000029216 .LASF3077
C:\Users\CYMR90~1\AppData\Local\Temp\ccSmV8cy.s:28725  .debug_str:0000000000016d7c .LASF3078
C:\Users\CYMR90~1\AppData\Local\Temp\ccSmV8cy.s:32216  .debug_str:00000000000247c1 .LASF3079
C:\Users\CYMR90~1\AppData\Local\Temp\ccSmV8cy.s:23505  .debug_str:0000000000002325 .LASF3080
C:\Users\CYMR90~1\AppData\Local\Temp\ccSmV8cy.s:24773  .debug_str:0000000000007320 .LASF3081
C:\Users\CYMR90~1\AppData\Local\Temp\ccSmV8cy.s:33396  .debug_str:0000000000029565 .LASF3082
C:\Users\CYMR90~1\AppData\Local\Temp\ccSmV8cy.s:25545  .debug_str:000000000000a464 .LASF3083
C:\Users\CYMR90~1\AppData\Local\Temp\ccSmV8cy.s:33594  .debug_str:000000000002a1c6 .LASF3084
C:\Users\CYMR90~1\AppData\Local\Temp\ccSmV8cy.s:26735  .debug_str:000000000000f04c .LASF3085
C:\Users\CYMR90~1\AppData\Local\Temp\ccSmV8cy.s:28449  .debug_str:0000000000015c26 .LASF3086
C:\Users\CYMR90~1\AppData\Local\Temp\ccSmV8cy.s:31372  .debug_str:000000000002154e .LASF3087
C:\Users\CYMR90~1\AppData\Local\Temp\ccSmV8cy.s:29216  .debug_str:0000000000018d1a .LASF3088
C:\Users\CYMR90~1\AppData\Local\Temp\ccSmV8cy.s:31230  .debug_str:0000000000020c1f .LASF3089
C:\Users\CYMR90~1\AppData\Local\Temp\ccSmV8cy.s:33482  .debug_str:0000000000029a95 .LASF3090
C:\Users\CYMR90~1\AppData\Local\Temp\ccSmV8cy.s:31882  .debug_str:00000000000233f7 .LASF3091
C:\Users\CYMR90~1\AppData\Local\Temp\ccSmV8cy.s:26133  .debug_str:000000000000cab3 .LASF3092
C:\Users\CYMR90~1\AppData\Local\Temp\ccSmV8cy.s:34306  .debug_str:000000000002cd1f .LASF3093
C:\Users\CYMR90~1\AppData\Local\Temp\ccSmV8cy.s:31012  .debug_str:000000000001ff31 .LASF3094
C:\Users\CYMR90~1\AppData\Local\Temp\ccSmV8cy.s:33004  .debug_str:0000000000027b5e .LASF3095
C:\Users\CYMR90~1\AppData\Local\Temp\ccSmV8cy.s:32734  .debug_str:0000000000026b30 .LASF3096
C:\Users\CYMR90~1\AppData\Local\Temp\ccSmV8cy.s:26031  .debug_str:000000000000c4d9 .LASF3097
C:\Users\CYMR90~1\AppData\Local\Temp\ccSmV8cy.s:28495  .debug_str:0000000000015e96 .LASF3098
C:\Users\CYMR90~1\AppData\Local\Temp\ccSmV8cy.s:28393  .debug_str:00000000000158d8 .LASF3099
C:\Users\CYMR90~1\AppData\Local\Temp\ccSmV8cy.s:28397  .debug_str:0000000000015925 .LASF3100
C:\Users\CYMR90~1\AppData\Local\Temp\ccSmV8cy.s:25375  .debug_str:00000000000099bf .LASF3101
C:\Users\CYMR90~1\AppData\Local\Temp\ccSmV8cy.s:31572  .debug_str:00000000000221aa .LASF3102
C:\Users\CYMR90~1\AppData\Local\Temp\ccSmV8cy.s:34448  .debug_str:000000000002d5fa .LASF3103
C:\Users\CYMR90~1\AppData\Local\Temp\ccSmV8cy.s:26957  .debug_str:000000000000fdd5 .LASF3104
C:\Users\CYMR90~1\AppData\Local\Temp\ccSmV8cy.s:23719  .debug_str:0000000000003098 .LASF3105
C:\Users\CYMR90~1\AppData\Local\Temp\ccSmV8cy.s:26819  .debug_str:000000000000f519 .LASF3106
C:\Users\CYMR90~1\AppData\Local\Temp\ccSmV8cy.s:31254  .debug_str:0000000000020ddb .LASF3107
C:\Users\CYMR90~1\AppData\Local\Temp\ccSmV8cy.s:28473  .debug_str:0000000000015d5c .LASF3108
C:\Users\CYMR90~1\AppData\Local\Temp\ccSmV8cy.s:27469  .debug_str:0000000000011dad .LASF3109
C:\Users\CYMR90~1\AppData\Local\Temp\ccSmV8cy.s:30114  .debug_str:000000000001c6af .LASF3110
C:\Users\CYMR90~1\AppData\Local\Temp\ccSmV8cy.s:29126  .debug_str:00000000000187b5 .LASF3111
C:\Users\CYMR90~1\AppData\Local\Temp\ccSmV8cy.s:31084  .debug_str:000000000002039a .LASF3112
C:\Users\CYMR90~1\AppData\Local\Temp\ccSmV8cy.s:27269  .debug_str:000000000001110f .LASF3113
C:\Users\CYMR90~1\AppData\Local\Temp\ccSmV8cy.s:33274  .debug_str:0000000000028d60 .LASF3114
C:\Users\CYMR90~1\AppData\Local\Temp\ccSmV8cy.s:25255  .debug_str:00000000000092b4 .LASF3115
C:\Users\CYMR90~1\AppData\Local\Temp\ccSmV8cy.s:24311  .debug_str:000000000000566a .LASF3116
C:\Users\CYMR90~1\AppData\Local\Temp\ccSmV8cy.s:23349  .debug_str:00000000000019cf .LASF3117
C:\Users\CYMR90~1\AppData\Local\Temp\ccSmV8cy.s:33988  .debug_str:000000000002b870 .LASF3118
C:\Users\CYMR90~1\AppData\Local\Temp\ccSmV8cy.s:31518  .debug_str:0000000000021e30 .LASF3119
C:\Users\CYMR90~1\AppData\Local\Temp\ccSmV8cy.s:30536  .debug_str:000000000001e253 .LASF3120
C:\Users\CYMR90~1\AppData\Local\Temp\ccSmV8cy.s:24435  .debug_str:0000000000005dd8 .LASF3121
C:\Users\CYMR90~1\AppData\Local\Temp\ccSmV8cy.s:28645  .debug_str:0000000000016884 .LASF3122
C:\Users\CYMR90~1\AppData\Local\Temp\ccSmV8cy.s:27689  .debug_str:0000000000012c78 .LASF3123
C:\Users\CYMR90~1\AppData\Local\Temp\ccSmV8cy.s:26695  .debug_str:000000000000edf9 .LASF3124
C:\Users\CYMR90~1\AppData\Local\Temp\ccSmV8cy.s:26835  .debug_str:000000000000f5f9 .LASF3125
C:\Users\CYMR90~1\AppData\Local\Temp\ccSmV8cy.s:32954  .debug_str:0000000000027842 .LASF3126
C:\Users\CYMR90~1\AppData\Local\Temp\ccSmV8cy.s:32730  .debug_str:0000000000026ada .LASF3127
C:\Users\CYMR90~1\AppData\Local\Temp\ccSmV8cy.s:27163  .debug_str:0000000000010a97 .LASF3128
C:\Users\CYMR90~1\AppData\Local\Temp\ccSmV8cy.s:25985  .debug_str:000000000000c18d .LASF3129
C:\Users\CYMR90~1\AppData\Local\Temp\ccSmV8cy.s:24827  .debug_str:00000000000076c9 .LASF3130
C:\Users\CYMR90~1\AppData\Local\Temp\ccSmV8cy.s:30358  .debug_str:000000000001d6e8 .LASF3131
C:\Users\CYMR90~1\AppData\Local\Temp\ccSmV8cy.s:32004  .debug_str:0000000000023b0b .LASF3132
C:\Users\CYMR90~1\AppData\Local\Temp\ccSmV8cy.s:26169  .debug_str:000000000000cd73 .LASF3133
C:\Users\CYMR90~1\AppData\Local\Temp\ccSmV8cy.s:24381  .debug_str:0000000000005ab7 .LASF3134
C:\Users\CYMR90~1\AppData\Local\Temp\ccSmV8cy.s:24163  .debug_str:0000000000004d88 .LASF3135
C:\Users\CYMR90~1\AppData\Local\Temp\ccSmV8cy.s:30270  .debug_str:000000000001d088 .LASF3136
C:\Users\CYMR90~1\AppData\Local\Temp\ccSmV8cy.s:28741  .debug_str:0000000000016e72 .LASF3137
C:\Users\CYMR90~1\AppData\Local\Temp\ccSmV8cy.s:23647  .debug_str:0000000000002c47 .LASF3138
C:\Users\CYMR90~1\AppData\Local\Temp\ccSmV8cy.s:34382  .debug_str:000000000002d1db .LASF3139
C:\Users\CYMR90~1\AppData\Local\Temp\ccSmV8cy.s:33314  .debug_str:000000000002901c .LASF3140
C:\Users\CYMR90~1\AppData\Local\Temp\ccSmV8cy.s:24131  .debug_str:0000000000004b84 .LASF3141
C:\Users\CYMR90~1\AppData\Local\Temp\ccSmV8cy.s:30094  .debug_str:000000000001c584 .LASF3142
C:\Users\CYMR90~1\AppData\Local\Temp\ccSmV8cy.s:27273  .debug_str:000000000001114c .LASF3143
C:\Users\CYMR90~1\AppData\Local\Temp\ccSmV8cy.s:30420  .debug_str:000000000001dafa .LASF3144
C:\Users\CYMR90~1\AppData\Local\Temp\ccSmV8cy.s:23031  .debug_str:000000000000064b .LASF3145
C:\Users\CYMR90~1\AppData\Local\Temp\ccSmV8cy.s:27863  .debug_str:00000000000137b7 .LASF3146
C:\Users\CYMR90~1\AppData\Local\Temp\ccSmV8cy.s:32680  .debug_str:0000000000026799 .LASF3147
C:\Users\CYMR90~1\AppData\Local\Temp\ccSmV8cy.s:27773  .debug_str:00000000000131f7 .LASF3148
C:\Users\CYMR90~1\AppData\Local\Temp\ccSmV8cy.s:24533  .debug_str:00000000000063b3 .LASF3149
C:\Users\CYMR90~1\AppData\Local\Temp\ccSmV8cy.s:29088  .debug_str:00000000000185a2 .LASF3150
C:\Users\CYMR90~1\AppData\Local\Temp\ccSmV8cy.s:27533  .debug_str:00000000000122bb .LASF3151
C:\Users\CYMR90~1\AppData\Local\Temp\ccSmV8cy.s:26027  .debug_str:000000000000c497 .LASF3152
C:\Users\CYMR90~1\AppData\Local\Temp\ccSmV8cy.s:27189  .debug_str:0000000000010c12 .LASF3153
C:\Users\CYMR90~1\AppData\Local\Temp\ccSmV8cy.s:26391  .debug_str:000000000000dbac .LASF3154
C:\Users\CYMR90~1\AppData\Local\Temp\ccSmV8cy.s:25325  .debug_str:00000000000096ac .LASF3155
C:\Users\CYMR90~1\AppData\Local\Temp\ccSmV8cy.s:32364  .debug_str:00000000000251ed .LASF3156
C:\Users\CYMR90~1\AppData\Local\Temp\ccSmV8cy.s:27579  .debug_str:0000000000012544 .LASF3157
C:\Users\CYMR90~1\AppData\Local\Temp\ccSmV8cy.s:31972  .debug_str:0000000000023985 .LASF3158
C:\Users\CYMR90~1\AppData\Local\Temp\ccSmV8cy.s:25671  .debug_str:000000000000acc9 .LASF3159
C:\Users\CYMR90~1\AppData\Local\Temp\ccSmV8cy.s:26507  .debug_str:000000000000e203 .LASF3160
C:\Users\CYMR90~1\AppData\Local\Temp\ccSmV8cy.s:32914  .debug_str:00000000000275b6 .LASF3161
C:\Users\CYMR90~1\AppData\Local\Temp\ccSmV8cy.s:26419  .debug_str:000000000000dd21 .LASF3162
C:\Users\CYMR90~1\AppData\Local\Temp\ccSmV8cy.s:24427  .debug_str:0000000000005d75 .LASF3163
C:\Users\CYMR90~1\AppData\Local\Temp\ccSmV8cy.s:30784  .debug_str:000000000001f1a5 .LASF3164
C:\Users\CYMR90~1\AppData\Local\Temp\ccSmV8cy.s:24729  .debug_str:0000000000007058 .LASF3165
C:\Users\CYMR90~1\AppData\Local\Temp\ccSmV8cy.s:26721  .debug_str:000000000000ef83 .LASF3166
C:\Users\CYMR90~1\AppData\Local\Temp\ccSmV8cy.s:23185  .debug_str:0000000000000fd2 .LASF3167
C:\Users\CYMR90~1\AppData\Local\Temp\ccSmV8cy.s:34126  .debug_str:000000000002c119 .LASF3168
C:\Users\CYMR90~1\AppData\Local\Temp\ccSmV8cy.s:33708  .debug_str:000000000002a843 .LASF3169
C:\Users\CYMR90~1\AppData\Local\Temp\ccSmV8cy.s:31094  .debug_str:000000000002041e .LASF3170
C:\Users\CYMR90~1\AppData\Local\Temp\ccSmV8cy.s:32214  .debug_str:00000000000247a9 .LASF3171
C:\Users\CYMR90~1\AppData\Local\Temp\ccSmV8cy.s:30658  .debug_str:000000000001ea13 .LASF3172
C:\Users\CYMR90~1\AppData\Local\Temp\ccSmV8cy.s:29022  .debug_str:00000000000181d2 .LASF3173
C:\Users\CYMR90~1\AppData\Local\Temp\ccSmV8cy.s:33062  .debug_str:0000000000027f80 .LASF3174
C:\Users\CYMR90~1\AppData\Local\Temp\ccSmV8cy.s:28159  .debug_str:00000000000149fc .LASF3175
C:\Users\CYMR90~1\AppData\Local\Temp\ccSmV8cy.s:28747  .debug_str:0000000000016ecd .LASF3176
C:\Users\CYMR90~1\AppData\Local\Temp\ccSmV8cy.s:23439  .debug_str:0000000000001f84 .LASF3177
C:\Users\CYMR90~1\AppData\Local\Temp\ccSmV8cy.s:31040  .debug_str:00000000000200ce .LASF3178
C:\Users\CYMR90~1\AppData\Local\Temp\ccSmV8cy.s:30988  .debug_str:000000000001fdc8 .LASF3179
C:\Users\CYMR90~1\AppData\Local\Temp\ccSmV8cy.s:30066  .debug_str:000000000001c38f .LASF3180
C:\Users\CYMR90~1\AppData\Local\Temp\ccSmV8cy.s:23601  .debug_str:0000000000002943 .LASF3181
C:\Users\CYMR90~1\AppData\Local\Temp\ccSmV8cy.s:32540  .debug_str:0000000000025e14 .LASF3182
C:\Users\CYMR90~1\AppData\Local\Temp\ccSmV8cy.s:26309  .debug_str:000000000000d5e8 .LASF3183
C:\Users\CYMR90~1\AppData\Local\Temp\ccSmV8cy.s:23975  .debug_str:000000000000415b .LASF3184
C:\Users\CYMR90~1\AppData\Local\Temp\ccSmV8cy.s:23703  .debug_str:0000000000002f9b .LASF3185
C:\Users\CYMR90~1\AppData\Local\Temp\ccSmV8cy.s:25149  .debug_str:0000000000008c05 .LASF3186
C:\Users\CYMR90~1\AppData\Local\Temp\ccSmV8cy.s:30648  .debug_str:000000000001e961 .LASF3187
C:\Users\CYMR90~1\AppData\Local\Temp\ccSmV8cy.s:31808  .debug_str:0000000000022f82 .LASF3188
C:\Users\CYMR90~1\AppData\Local\Temp\ccSmV8cy.s:25537  .debug_str:000000000000a3d8 .LASF3189
C:\Users\CYMR90~1\AppData\Local\Temp\ccSmV8cy.s:26515  .debug_str:000000000000e267 .LASF3190
C:\Users\CYMR90~1\AppData\Local\Temp\ccSmV8cy.s:28535  .debug_str:000000000001611d .LASF3191
C:\Users\CYMR90~1\AppData\Local\Temp\ccSmV8cy.s:24545  .debug_str:0000000000006461 .LASF3192
C:\Users\CYMR90~1\AppData\Local\Temp\ccSmV8cy.s:32146  .debug_str:00000000000243d9 .LASF3193
C:\Users\CYMR90~1\AppData\Local\Temp\ccSmV8cy.s:29472  .debug_str:0000000000019d99 .LASF3194
C:\Users\CYMR90~1\AppData\Local\Temp\ccSmV8cy.s:26021  .debug_str:000000000000c408 .LASF3195
C:\Users\CYMR90~1\AppData\Local\Temp\ccSmV8cy.s:31258  .debug_str:0000000000020e1d .LASF3196
C:\Users\CYMR90~1\AppData\Local\Temp\ccSmV8cy.s:23339  .debug_str:0000000000001917 .LASF3197
C:\Users\CYMR90~1\AppData\Local\Temp\ccSmV8cy.s:33308  .debug_str:0000000000028faa .LASF3198
C:\Users\CYMR90~1\AppData\Local\Temp\ccSmV8cy.s:30752  .debug_str:000000000001efa6 .LASF3199
C:\Users\CYMR90~1\AppData\Local\Temp\ccSmV8cy.s:30044  .debug_str:000000000001c1df .LASF3200
C:\Users\CYMR90~1\AppData\Local\Temp\ccSmV8cy.s:33190  .debug_str:000000000002876b .LASF3201
C:\Users\CYMR90~1\AppData\Local\Temp\ccSmV8cy.s:23463  .debug_str:00000000000020c9 .LASF3202
C:\Users\CYMR90~1\AppData\Local\Temp\ccSmV8cy.s:26749  .debug_str:000000000000f147 .LASF3203
C:\Users\CYMR90~1\AppData\Local\Temp\ccSmV8cy.s:26789  .debug_str:000000000000f360 .LASF3204
C:\Users\CYMR90~1\AppData\Local\Temp\ccSmV8cy.s:32818  .debug_str:0000000000027030 .LASF3205
C:\Users\CYMR90~1\AppData\Local\Temp\ccSmV8cy.s:33194  .debug_str:00000000000287b0 .LASF3206
C:\Users\CYMR90~1\AppData\Local\Temp\ccSmV8cy.s:29118  .debug_str:0000000000018755 .LASF3207
C:\Users\CYMR90~1\AppData\Local\Temp\ccSmV8cy.s:31912  .debug_str:000000000002360e .LASF3208
C:\Users\CYMR90~1\AppData\Local\Temp\ccSmV8cy.s:23309  .debug_str:00000000000016ac .LASF3209
C:\Users\CYMR90~1\AppData\Local\Temp\ccSmV8cy.s:23595  .debug_str:00000000000028e7 .LASF3210
C:\Users\CYMR90~1\AppData\Local\Temp\ccSmV8cy.s:23701  .debug_str:0000000000002f77 .LASF3211
C:\Users\CYMR90~1\AppData\Local\Temp\ccSmV8cy.s:24517  .debug_str:00000000000062fc .LASF3212
C:\Users\CYMR90~1\AppData\Local\Temp\ccSmV8cy.s:27867  .debug_str:00000000000137f9 .LASF3213
C:\Users\CYMR90~1\AppData\Local\Temp\ccSmV8cy.s:26381  .debug_str:000000000000dafd .LASF3214
C:\Users\CYMR90~1\AppData\Local\Temp\ccSmV8cy.s:31480  .debug_str:0000000000021b3a .LASF3215
C:\Users\CYMR90~1\AppData\Local\Temp\ccSmV8cy.s:29482  .debug_str:0000000000019e78 .LASF3216
C:\Users\CYMR90~1\AppData\Local\Temp\ccSmV8cy.s:25513  .debug_str:000000000000a21b .LASF3217
C:\Users\CYMR90~1\AppData\Local\Temp\ccSmV8cy.s:25259  .debug_str:00000000000092f1 .LASF3218
C:\Users\CYMR90~1\AppData\Local\Temp\ccSmV8cy.s:25879  .debug_str:000000000000ba76 .LASF3219
C:\Users\CYMR90~1\AppData\Local\Temp\ccSmV8cy.s:24055  .debug_str:0000000000004605 .LASF3220
C:\Users\CYMR90~1\AppData\Local\Temp\ccSmV8cy.s:27291  .debug_str:00000000000112e2 .LASF3221
C:\Users\CYMR90~1\AppData\Local\Temp\ccSmV8cy.s:29004  .debug_str:00000000000180c9 .LASF3222
C:\Users\CYMR90~1\AppData\Local\Temp\ccSmV8cy.s:25127  .debug_str:0000000000008aad .LASF3223
C:\Users\CYMR90~1\AppData\Local\Temp\ccSmV8cy.s:25963  .debug_str:000000000000c008 .LASF3224
C:\Users\CYMR90~1\AppData\Local\Temp\ccSmV8cy.s:25911  .debug_str:000000000000bccf .LASF3225
C:\Users\CYMR90~1\AppData\Local\Temp\ccSmV8cy.s:28912  .debug_str:0000000000017ae1 .LASF3226
C:\Users\CYMR90~1\AppData\Local\Temp\ccSmV8cy.s:32910  .debug_str:000000000002757d .LASF3227
C:\Users\CYMR90~1\AppData\Local\Temp\ccSmV8cy.s:25615  .debug_str:000000000000a889 .LASF3228
C:\Users\CYMR90~1\AppData\Local\Temp\ccSmV8cy.s:23569  .debug_str:0000000000002719 .LASF3229
C:\Users\CYMR90~1\AppData\Local\Temp\ccSmV8cy.s:30782  .debug_str:000000000001f18b .LASF3230
C:\Users\CYMR90~1\AppData\Local\Temp\ccSmV8cy.s:33970  .debug_str:000000000002b768 .LASF3231
C:\Users\CYMR90~1\AppData\Local\Temp\ccSmV8cy.s:29296  .debug_str:0000000000019202 .LASF3232
C:\Users\CYMR90~1\AppData\Local\Temp\ccSmV8cy.s:23381  .debug_str:0000000000001beb .LASF3233
C:\Users\CYMR90~1\AppData\Local\Temp\ccSmV8cy.s:34394  .debug_str:000000000002d2b7 .LASF3234
C:\Users\CYMR90~1\AppData\Local\Temp\ccSmV8cy.s:28455  .debug_str:0000000000015c64 .LASF3235
C:\Users\CYMR90~1\AppData\Local\Temp\ccSmV8cy.s:32310  .debug_str:0000000000024e5d .LASF3236
C:\Users\CYMR90~1\AppData\Local\Temp\ccSmV8cy.s:25551  .debug_str:000000000000a4c5 .LASF3237
C:\Users\CYMR90~1\AppData\Local\Temp\ccSmV8cy.s:23405  .debug_str:0000000000001d63 .LASF3238
C:\Users\CYMR90~1\AppData\Local\Temp\ccSmV8cy.s:24539  .debug_str:0000000000006428 .LASF3239
C:\Users\CYMR90~1\AppData\Local\Temp\ccSmV8cy.s:29912  .debug_str:000000000001ba4c .LASF3240
C:\Users\CYMR90~1\AppData\Local\Temp\ccSmV8cy.s:27983  .debug_str:0000000000013f89 .LASF3241
C:\Users\CYMR90~1\AppData\Local\Temp\ccSmV8cy.s:25267  .debug_str:000000000000936c .LASF3242
C:\Users\CYMR90~1\AppData\Local\Temp\ccSmV8cy.s:24287  .debug_str:00000000000054e1 .LASF3243
C:\Users\CYMR90~1\AppData\Local\Temp\ccSmV8cy.s:33882  .debug_str:000000000002b273 .LASF3244
C:\Users\CYMR90~1\AppData\Local\Temp\ccSmV8cy.s:26039  .debug_str:000000000000c549 .LASF3245
C:\Users\CYMR90~1\AppData\Local\Temp\ccSmV8cy.s:23611  .debug_str:00000000000029e4 .LASF3246
C:\Users\CYMR90~1\AppData\Local\Temp\ccSmV8cy.s:31768  .debug_str:0000000000022d25 .LASF3247
C:\Users\CYMR90~1\AppData\Local\Temp\ccSmV8cy.s:28347  .debug_str:0000000000015624 .LASF3248
C:\Users\CYMR90~1\AppData\Local\Temp\ccSmV8cy.s:24823  .debug_str:0000000000007682 .LASF3249
C:\Users\CYMR90~1\AppData\Local\Temp\ccSmV8cy.s:29890  .debug_str:000000000001b901 .LASF3250
C:\Users\CYMR90~1\AppData\Local\Temp\ccSmV8cy.s:24425  .debug_str:0000000000005d56 .LASF3251
C:\Users\CYMR90~1\AppData\Local\Temp\ccSmV8cy.s:25359  .debug_str:00000000000098e5 .LASF3252
C:\Users\CYMR90~1\AppData\Local\Temp\ccSmV8cy.s:27707  .debug_str:0000000000012dab .LASF3253
C:\Users\CYMR90~1\AppData\Local\Temp\ccSmV8cy.s:31786  .debug_str:0000000000022df9 .LASF3254
C:\Users\CYMR90~1\AppData\Local\Temp\ccSmV8cy.s:33176  .debug_str:0000000000028657 .LASF3255
C:\Users\CYMR90~1\AppData\Local\Temp\ccSmV8cy.s:29106  .debug_str:00000000000186ae .LASF3256
C:\Users\CYMR90~1\AppData\Local\Temp\ccSmV8cy.s:27919  .debug_str:0000000000013bac .LASF3257
C:\Users\CYMR90~1\AppData\Local\Temp\ccSmV8cy.s:31784  .debug_str:0000000000022de0 .LASF3258
C:\Users\CYMR90~1\AppData\Local\Temp\ccSmV8cy.s:33608  .debug_str:000000000002a278 .LASF3259
C:\Users\CYMR90~1\AppData\Local\Temp\ccSmV8cy.s:29752  .debug_str:000000000001b059 .LASF3260
C:\Users\CYMR90~1\AppData\Local\Temp\ccSmV8cy.s:24689  .debug_str:0000000000006d9d .LASF3261
C:\Users\CYMR90~1\AppData\Local\Temp\ccSmV8cy.s:24293  .debug_str:0000000000005525 .LASF3262
C:\Users\CYMR90~1\AppData\Local\Temp\ccSmV8cy.s:30700  .debug_str:000000000001eca8 .LASF3263
C:\Users\CYMR90~1\AppData\Local\Temp\ccSmV8cy.s:26615  .debug_str:000000000000e89c .LASF3264
C:\Users\CYMR90~1\AppData\Local\Temp\ccSmV8cy.s:31990  .debug_str:0000000000023a4e .LASF3265
C:\Users\CYMR90~1\AppData\Local\Temp\ccSmV8cy.s:28966  .debug_str:0000000000017e18 .LASF3266
C:\Users\CYMR90~1\AppData\Local\Temp\ccSmV8cy.s:32430  .debug_str:0000000000025610 .LASF3267
C:\Users\CYMR90~1\AppData\Local\Temp\ccSmV8cy.s:31824  .debug_str:00000000000230a7 .LASF3268
C:\Users\CYMR90~1\AppData\Local\Temp\ccSmV8cy.s:29018  .debug_str:00000000000181a9 .LASF3269
C:\Users\CYMR90~1\AppData\Local\Temp\ccSmV8cy.s:34058  .debug_str:000000000002bcd9 .LASF3270
C:\Users\CYMR90~1\AppData\Local\Temp\ccSmV8cy.s:34362  .debug_str:000000000002d066 .LASF3271
C:\Users\CYMR90~1\AppData\Local\Temp\ccSmV8cy.s:32750  .debug_str:0000000000026bfd .LASF3272
C:\Users\CYMR90~1\AppData\Local\Temp\ccSmV8cy.s:23935  .debug_str:0000000000003e83 .LASF3273
C:\Users\CYMR90~1\AppData\Local\Temp\ccSmV8cy.s:26837  .debug_str:000000000000f628 .LASF3274
C:\Users\CYMR90~1\AppData\Local\Temp\ccSmV8cy.s:23903  .debug_str:0000000000003ca4 .LASF3275
C:\Users\CYMR90~1\AppData\Local\Temp\ccSmV8cy.s:29044  .debug_str:00000000000182ff .LASF3276
C:\Users\CYMR90~1\AppData\Local\Temp\ccSmV8cy.s:27225  .debug_str:0000000000010e52 .LASF3277
C:\Users\CYMR90~1\AppData\Local\Temp\ccSmV8cy.s:24657  .debug_str:0000000000006b74 .LASF3278
C:\Users\CYMR90~1\AppData\Local\Temp\ccSmV8cy.s:27629  .debug_str:00000000000128d8 .LASF3279
C:\Users\CYMR90~1\AppData\Local\Temp\ccSmV8cy.s:31092  .debug_str:0000000000020401 .LASF3280
C:\Users\CYMR90~1\AppData\Local\Temp\ccSmV8cy.s:24919  .debug_str:0000000000007ca1 .LASF3281
C:\Users\CYMR90~1\AppData\Local\Temp\ccSmV8cy.s:25623  .debug_str:000000000000a8eb .LASF3282
C:\Users\CYMR90~1\AppData\Local\Temp\ccSmV8cy.s:28103  .debug_str:0000000000014694 .LASF3283
C:\Users\CYMR90~1\AppData\Local\Temp\ccSmV8cy.s:30706  .debug_str:000000000001ecfc .LASF3284
C:\Users\CYMR90~1\AppData\Local\Temp\ccSmV8cy.s:24095  .debug_str:00000000000048b1 .LASF3285
C:\Users\CYMR90~1\AppData\Local\Temp\ccSmV8cy.s:31256  .debug_str:0000000000020e07 .LASF3286
C:\Users\CYMR90~1\AppData\Local\Temp\ccSmV8cy.s:31622  .debug_str:00000000000224c7 .LASF3287
C:\Users\CYMR90~1\AppData\Local\Temp\ccSmV8cy.s:25419  .debug_str:0000000000009c72 .LASF3288
C:\Users\CYMR90~1\AppData\Local\Temp\ccSmV8cy.s:24733  .debug_str:000000000000708a .LASF3289
C:\Users\CYMR90~1\AppData\Local\Temp\ccSmV8cy.s:25277  .debug_str:00000000000093da .LASF3290
C:\Users\CYMR90~1\AppData\Local\Temp\ccSmV8cy.s:23679  .debug_str:0000000000002e40 .LASF3291
C:\Users\CYMR90~1\AppData\Local\Temp\ccSmV8cy.s:34214  .debug_str:000000000002c6cb .LASF3292
C:\Users\CYMR90~1\AppData\Local\Temp\ccSmV8cy.s:24523  .debug_str:000000000000634f .LASF3293
C:\Users\CYMR90~1\AppData\Local\Temp\ccSmV8cy.s:23067  .debug_str:0000000000000811 .LASF3294
C:\Users\CYMR90~1\AppData\Local\Temp\ccSmV8cy.s:24103  .debug_str:0000000000004946 .LASF3295
C:\Users\CYMR90~1\AppData\Local\Temp\ccSmV8cy.s:31722  .debug_str:0000000000022a8c .LASF3296
C:\Users\CYMR90~1\AppData\Local\Temp\ccSmV8cy.s:29476  .debug_str:0000000000019df9 .LASF3297
C:\Users\CYMR90~1\AppData\Local\Temp\ccSmV8cy.s:31338  .debug_str:0000000000021340 .LASF3298
C:\Users\CYMR90~1\AppData\Local\Temp\ccSmV8cy.s:22999  .debug_str:0000000000000442 .LASF3299
C:\Users\CYMR90~1\AppData\Local\Temp\ccSmV8cy.s:30926  .debug_str:000000000001fa28 .LASF3300
C:\Users\CYMR90~1\AppData\Local\Temp\ccSmV8cy.s:29740  .debug_str:000000000001af9e .LASF3301
C:\Users\CYMR90~1\AppData\Local\Temp\ccSmV8cy.s:24577  .debug_str:0000000000006677 .LASF3302
C:\Users\CYMR90~1\AppData\Local\Temp\ccSmV8cy.s:30262  .debug_str:000000000001cfff .LASF3303
C:\Users\CYMR90~1\AppData\Local\Temp\ccSmV8cy.s:29084  .debug_str:000000000001856c .LASF3304
C:\Users\CYMR90~1\AppData\Local\Temp\ccSmV8cy.s:27587  .debug_str:00000000000125bc .LASF3305
C:\Users\CYMR90~1\AppData\Local\Temp\ccSmV8cy.s:25505  .debug_str:000000000000a188 .LASF3306
C:\Users\CYMR90~1\AppData\Local\Temp\ccSmV8cy.s:30568  .debug_str:000000000001e410 .LASF3307
C:\Users\CYMR90~1\AppData\Local\Temp\ccSmV8cy.s:34310  .debug_str:000000000002cd80 .LASF3308
C:\Users\CYMR90~1\AppData\Local\Temp\ccSmV8cy.s:29492  .debug_str:0000000000019f7e .LASF3309
C:\Users\CYMR90~1\AppData\Local\Temp\ccSmV8cy.s:29814  .debug_str:000000000001b401 .LASF3310
C:\Users\CYMR90~1\AppData\Local\Temp\ccSmV8cy.s:32356  .debug_str:000000000002518b .LASF3311
C:\Users\CYMR90~1\AppData\Local\Temp\ccSmV8cy.s:33778  .debug_str:000000000002ac1f .LASF3312
C:\Users\CYMR90~1\AppData\Local\Temp\ccSmV8cy.s:27463  .debug_str:0000000000011d4d .LASF3313
C:\Users\CYMR90~1\AppData\Local\Temp\ccSmV8cy.s:30516  .debug_str:000000000001e13f .LASF3314
C:\Users\CYMR90~1\AppData\Local\Temp\ccSmV8cy.s:26513  .debug_str:000000000000e24f .LASF3315
C:\Users\CYMR90~1\AppData\Local\Temp\ccSmV8cy.s:33548  .debug_str:0000000000029f05 .LASF3316
C:\Users\CYMR90~1\AppData\Local\Temp\ccSmV8cy.s:24837  .debug_str:0000000000007764 .LASF3317
C:\Users\CYMR90~1\AppData\Local\Temp\ccSmV8cy.s:33830  .debug_str:000000000002af66 .LASF3318
C:\Users\CYMR90~1\AppData\Local\Temp\ccSmV8cy.s:32590  .debug_str:00000000000261e5 .LASF3319
C:\Users\CYMR90~1\AppData\Local\Temp\ccSmV8cy.s:23861  .debug_str:0000000000003a12 .LASF3320
C:\Users\CYMR90~1\AppData\Local\Temp\ccSmV8cy.s:27155  .debug_str:0000000000010a1d .LASF3321
C:\Users\CYMR90~1\AppData\Local\Temp\ccSmV8cy.s:33278  .debug_str:0000000000028dae .LASF3322
C:\Users\CYMR90~1\AppData\Local\Temp\ccSmV8cy.s:27651  .debug_str:0000000000012a14 .LASF3323
C:\Users\CYMR90~1\AppData\Local\Temp\ccSmV8cy.s:25683  .debug_str:000000000000ad6b .LASF3324
C:\Users\CYMR90~1\AppData\Local\Temp\ccSmV8cy.s:34118  .debug_str:000000000002c085 .LASF3325
C:\Users\CYMR90~1\AppData\Local\Temp\ccSmV8cy.s:25771  .debug_str:000000000000b3b0 .LASF3326
C:\Users\CYMR90~1\AppData\Local\Temp\ccSmV8cy.s:27115  .debug_str:00000000000107c4 .LASF3327
C:\Users\CYMR90~1\AppData\Local\Temp\ccSmV8cy.s:33862  .debug_str:000000000002b150 .LASF3328
C:\Users\CYMR90~1\AppData\Local\Temp\ccSmV8cy.s:24607  .debug_str:000000000000683d .LASF3329
C:\Users\CYMR90~1\AppData\Local\Temp\ccSmV8cy.s:25519  .debug_str:000000000000a290 .LASF3330
C:\Users\CYMR90~1\AppData\Local\Temp\ccSmV8cy.s:31448  .debug_str:000000000002195b .LASF3331
C:\Users\CYMR90~1\AppData\Local\Temp\ccSmV8cy.s:32836  .debug_str:000000000002715f .LASF3332
C:\Users\CYMR90~1\AppData\Local\Temp\ccSmV8cy.s:26357  .debug_str:000000000000d943 .LASF3333
C:\Users\CYMR90~1\AppData\Local\Temp\ccSmV8cy.s:32202  .debug_str:00000000000246fd .LASF3334
C:\Users\CYMR90~1\AppData\Local\Temp\ccSmV8cy.s:28231  .debug_str:0000000000014eaf .LASF3335
C:\Users\CYMR90~1\AppData\Local\Temp\ccSmV8cy.s:27039  .debug_str:000000000001028d .LASF3336
C:\Users\CYMR90~1\AppData\Local\Temp\ccSmV8cy.s:30250  .debug_str:000000000001ce90 .LASF3337
C:\Users\CYMR90~1\AppData\Local\Temp\ccSmV8cy.s:33110  .debug_str:00000000000281f3 .LASF3338
C:\Users\CYMR90~1\AppData\Local\Temp\ccSmV8cy.s:23883  .debug_str:0000000000003b4a .LASF3339
C:\Users\CYMR90~1\AppData\Local\Temp\ccSmV8cy.s:30496  .debug_str:000000000001dfcf .LASF3340
C:\Users\CYMR90~1\AppData\Local\Temp\ccSmV8cy.s:33288  .debug_str:0000000000028e45 .LASF3341
C:\Users\CYMR90~1\AppData\Local\Temp\ccSmV8cy.s:23273  .debug_str:00000000000014b4 .LASF3342
C:\Users\CYMR90~1\AppData\Local\Temp\ccSmV8cy.s:31692  .debug_str:00000000000228b6 .LASF3343
C:\Users\CYMR90~1\AppData\Local\Temp\ccSmV8cy.s:28433  .debug_str:0000000000015b21 .LASF3344
C:\Users\CYMR90~1\AppData\Local\Temp\ccSmV8cy.s:25263  .debug_str:000000000000932d .LASF3345
C:\Users\CYMR90~1\AppData\Local\Temp\ccSmV8cy.s:30396  .debug_str:000000000001d99a .LASF3346
C:\Users\CYMR90~1\AppData\Local\Temp\ccSmV8cy.s:27793  .debug_str:0000000000013333 .LASF3347
C:\Users\CYMR90~1\AppData\Local\Temp\ccSmV8cy.s:25749  .debug_str:000000000000b17a .LASF3348
C:\Users\CYMR90~1\AppData\Local\Temp\ccSmV8cy.s:30322  .debug_str:000000000001d3fd .LASF3349
C:\Users\CYMR90~1\AppData\Local\Temp\ccSmV8cy.s:32454  .debug_str:0000000000025787 .LASF3350
C:\Users\CYMR90~1\AppData\Local\Temp\ccSmV8cy.s:24181  .debug_str:0000000000004ea6 .LASF3351
C:\Users\CYMR90~1\AppData\Local\Temp\ccSmV8cy.s:33794  .debug_str:000000000002acfd .LASF3352
C:\Users\CYMR90~1\AppData\Local\Temp\ccSmV8cy.s:29550  .debug_str:000000000001a2f5 .LASF3353
C:\Users\CYMR90~1\AppData\Local\Temp\ccSmV8cy.s:29594  .debug_str:000000000001a566 .LASF3354
C:\Users\CYMR90~1\AppData\Local\Temp\ccSmV8cy.s:29604  .debug_str:000000000001a5f5 .LASF3355
C:\Users\CYMR90~1\AppData\Local\Temp\ccSmV8cy.s:32958  .debug_str:0000000000027896 .LASF3356
C:\Users\CYMR90~1\AppData\Local\Temp\ccSmV8cy.s:27679  .debug_str:0000000000012bbd .LASF3357
C:\Users\CYMR90~1\AppData\Local\Temp\ccSmV8cy.s:33764  .debug_str:000000000002ab6a .LASF3358
C:\Users\CYMR90~1\AppData\Local\Temp\ccSmV8cy.s:27387  .debug_str:0000000000011858 .LASF3359
C:\Users\CYMR90~1\AppData\Local\Temp\ccSmV8cy.s:33040  .debug_str:0000000000027e28 .LASF3360
C:\Users\CYMR90~1\AppData\Local\Temp\ccSmV8cy.s:24073  .debug_str:000000000000471b .LASF3361
C:\Users\CYMR90~1\AppData\Local\Temp\ccSmV8cy.s:27263  .debug_str:0000000000011098 .LASF3362
C:\Users\CYMR90~1\AppData\Local\Temp\ccSmV8cy.s:30676  .debug_str:000000000001eb05 .LASF3363
C:\Users\CYMR90~1\AppData\Local\Temp\ccSmV8cy.s:27613  .debug_str:00000000000127a0 .LASF3364
C:\Users\CYMR90~1\AppData\Local\Temp\ccSmV8cy.s:27601  .debug_str:00000000000126c1 .LASF3365
C:\Users\CYMR90~1\AppData\Local\Temp\ccSmV8cy.s:27791  .debug_str:00000000000132fa .LASF3366
C:\Users\CYMR90~1\AppData\Local\Temp\ccSmV8cy.s:31922  .debug_str:000000000002368a .LASF3367
C:\Users\CYMR90~1\AppData\Local\Temp\ccSmV8cy.s:28623  .debug_str:0000000000016703 .LASF3368
C:\Users\CYMR90~1\AppData\Local\Temp\ccSmV8cy.s:30226  .debug_str:000000000001cd0d .LASF3369
C:\Users\CYMR90~1\AppData\Local\Temp\ccSmV8cy.s:25991  .debug_str:000000000000c1f5 .LASF3370
C:\Users\CYMR90~1\AppData\Local\Temp\ccSmV8cy.s:24953  .debug_str:0000000000007ec9 .LASF3371
C:\Users\CYMR90~1\AppData\Local\Temp\ccSmV8cy.s:24235  .debug_str:00000000000051c0 .LASF3372
C:\Users\CYMR90~1\AppData\Local\Temp\ccSmV8cy.s:27745  .debug_str:000000000001301f .LASF3373
C:\Users\CYMR90~1\AppData\Local\Temp\ccSmV8cy.s:25007  .debug_str:00000000000082d9 .LASF3374
C:\Users\CYMR90~1\AppData\Local\Temp\ccSmV8cy.s:23323  .debug_str:000000000000178b .LASF3375
C:\Users\CYMR90~1\AppData\Local\Temp\ccSmV8cy.s:33240  .debug_str:0000000000028aec .LASF3376
C:\Users\CYMR90~1\AppData\Local\Temp\ccSmV8cy.s:29878  .debug_str:000000000001b861 .LASF3377
C:\Users\CYMR90~1\AppData\Local\Temp\ccSmV8cy.s:26271  .debug_str:000000000000d388 .LASF3378
C:\Users\CYMR90~1\AppData\Local\Temp\ccSmV8cy.s:28189  .debug_str:0000000000014c03 .LASF3379
C:\Users\CYMR90~1\AppData\Local\Temp\ccSmV8cy.s:29196  .debug_str:0000000000018c23 .LASF3380
C:\Users\CYMR90~1\AppData\Local\Temp\ccSmV8cy.s:33104  .debug_str:0000000000028192 .LASF3381
C:\Users\CYMR90~1\AppData\Local\Temp\ccSmV8cy.s:30730  .debug_str:000000000001ee6c .LASF3382
C:\Users\CYMR90~1\AppData\Local\Temp\ccSmV8cy.s:24629  .debug_str:00000000000069d3 .LASF3383
C:\Users\CYMR90~1\AppData\Local\Temp\ccSmV8cy.s:25621  .debug_str:000000000000a8c8 .LASF3384
C:\Users\CYMR90~1\AppData\Local\Temp\ccSmV8cy.s:28681  .debug_str:0000000000016a85 .LASF3385
C:\Users\CYMR90~1\AppData\Local\Temp\ccSmV8cy.s:29652  .debug_str:000000000001a88d .LASF3386
C:\Users\CYMR90~1\AppData\Local\Temp\ccSmV8cy.s:30990  .debug_str:000000000001fde7 .LASF3387
C:\Users\CYMR90~1\AppData\Local\Temp\ccSmV8cy.s:27069  .debug_str:000000000001049f .LASF3388
C:\Users\CYMR90~1\AppData\Local\Temp\ccSmV8cy.s:34388  .debug_str:000000000002d247 .LASF3389
C:\Users\CYMR90~1\AppData\Local\Temp\ccSmV8cy.s:29006  .debug_str:00000000000180e0 .LASF3390
C:\Users\CYMR90~1\AppData\Local\Temp\ccSmV8cy.s:31720  .debug_str:0000000000022a68 .LASF3391
C:\Users\CYMR90~1\AppData\Local\Temp\ccSmV8cy.s:25951  .debug_str:000000000000bf5f .LASF3392
C:\Users\CYMR90~1\AppData\Local\Temp\ccSmV8cy.s:32006  .debug_str:0000000000023b38 .LASF3393
C:\Users\CYMR90~1\AppData\Local\Temp\ccSmV8cy.s:28069  .debug_str:000000000001447c .LASF3394
C:\Users\CYMR90~1\AppData\Local\Temp\ccSmV8cy.s:30882  .debug_str:000000000001f732 .LASF3395
C:\Users\CYMR90~1\AppData\Local\Temp\ccSmV8cy.s:26821  .debug_str:000000000000f53b .LASF3396
C:\Users\CYMR90~1\AppData\Local\Temp\ccSmV8cy.s:33758  .debug_str:000000000002ab10 .LASF3397
C:\Users\CYMR90~1\AppData\Local\Temp\ccSmV8cy.s:27153  .debug_str:0000000000010a06 .LASF3398
C:\Users\CYMR90~1\AppData\Local\Temp\ccSmV8cy.s:33368  .debug_str:00000000000293bc .LASF3399
C:\Users\CYMR90~1\AppData\Local\Temp\ccSmV8cy.s:28367  .debug_str:0000000000015756 .LASF3400
C:\Users\CYMR90~1\AppData\Local\Temp\ccSmV8cy.s:27493  .debug_str:0000000000011fcb .LASF3401
C:\Users\CYMR90~1\AppData\Local\Temp\ccSmV8cy.s:25301  .debug_str:000000000000955d .LASF3402
C:\Users\CYMR90~1\AppData\Local\Temp\ccSmV8cy.s:25705  .debug_str:000000000000aee6 .LASF3403
C:\Users\CYMR90~1\AppData\Local\Temp\ccSmV8cy.s:34518  .debug_str:000000000002da8a .LASF3404
C:\Users\CYMR90~1\AppData\Local\Temp\ccSmV8cy.s:24023  .debug_str:00000000000043f2 .LASF3405
C:\Users\CYMR90~1\AppData\Local\Temp\ccSmV8cy.s:34030  .debug_str:000000000002baac .LASF3406
C:\Users\CYMR90~1\AppData\Local\Temp\ccSmV8cy.s:26427  .debug_str:000000000000dd86 .LASF3407
C:\Users\CYMR90~1\AppData\Local\Temp\ccSmV8cy.s:29176  .debug_str:0000000000018aba .LASF3408
C:\Users\CYMR90~1\AppData\Local\Temp\ccSmV8cy.s:28621  .debug_str:00000000000166eb .LASF3409
C:\Users\CYMR90~1\AppData\Local\Temp\ccSmV8cy.s:32018  .debug_str:0000000000023be1 .LASF3410
C:\Users\CYMR90~1\AppData\Local\Temp\ccSmV8cy.s:23239  .debug_str:00000000000012b2 .LASF3411
C:\Users\CYMR90~1\AppData\Local\Temp\ccSmV8cy.s:29836  .debug_str:000000000001b561 .LASF3412
C:\Users\CYMR90~1\AppData\Local\Temp\ccSmV8cy.s:31876  .debug_str:0000000000023385 .LASF3413
C:\Users\CYMR90~1\AppData\Local\Temp\ccSmV8cy.s:24443  .debug_str:0000000000005e58 .LASF3414
C:\Users\CYMR90~1\AppData\Local\Temp\ccSmV8cy.s:32190  .debug_str:0000000000024656 .LASF3415
C:\Users\CYMR90~1\AppData\Local\Temp\ccSmV8cy.s:32624  .debug_str:000000000002641f .LASF3416
C:\Users\CYMR90~1\AppData\Local\Temp\ccSmV8cy.s:31328  .debug_str:00000000000212c7 .LASF3417
C:\Users\CYMR90~1\AppData\Local\Temp\ccSmV8cy.s:28521  .debug_str:0000000000016069 .LASF3418
C:\Users\CYMR90~1\AppData\Local\Temp\ccSmV8cy.s:28249  .debug_str:0000000000014fbc .LASF3419
C:\Users\CYMR90~1\AppData\Local\Temp\ccSmV8cy.s:28998  .debug_str:0000000000018067 .LASF3420
C:\Users\CYMR90~1\AppData\Local\Temp\ccSmV8cy.s:31226  .debug_str:0000000000020beb .LASF3421
C:\Users\CYMR90~1\AppData\Local\Temp\ccSmV8cy.s:24831  .debug_str:000000000000770b .LASF3422
C:\Users\CYMR90~1\AppData\Local\Temp\ccSmV8cy.s:22993  .debug_str:00000000000003e9 .LASF3423
C:\Users\CYMR90~1\AppData\Local\Temp\ccSmV8cy.s:33392  .debug_str:000000000002953c .LASF3424
C:\Users\CYMR90~1\AppData\Local\Temp\ccSmV8cy.s:23137  .debug_str:0000000000000c8f .LASF3425
C:\Users\CYMR90~1\AppData\Local\Temp\ccSmV8cy.s:31698  .debug_str:000000000002292a .LASF3426
C:\Users\CYMR90~1\AppData\Local\Temp\ccSmV8cy.s:27699  .debug_str:0000000000012d26 .LASF3427
C:\Users\CYMR90~1\AppData\Local\Temp\ccSmV8cy.s:25401  .debug_str:0000000000009b1c .LASF3428
C:\Users\CYMR90~1\AppData\Local\Temp\ccSmV8cy.s:26299  .debug_str:000000000000d53b .LASF3429
C:\Users\CYMR90~1\AppData\Local\Temp\ccSmV8cy.s:32008  .debug_str:0000000000023b5e .LASF3430
C:\Users\CYMR90~1\AppData\Local\Temp\ccSmV8cy.s:29922  .debug_str:000000000001bafd .LASF3431
C:\Users\CYMR90~1\AppData\Local\Temp\ccSmV8cy.s:28679  .debug_str:0000000000016a68 .LASF3432
C:\Users\CYMR90~1\AppData\Local\Temp\ccSmV8cy.s:32452  .debug_str:0000000000025769 .LASF3433
C:\Users\CYMR90~1\AppData\Local\Temp\ccSmV8cy.s:26951  .debug_str:000000000000fd84 .LASF3434
C:\Users\CYMR90~1\AppData\Local\Temp\ccSmV8cy.s:31920  .debug_str:000000000002366e .LASF3435
C:\Users\CYMR90~1\AppData\Local\Temp\ccSmV8cy.s:27885  .debug_str:000000000001390d .LASF3436
C:\Users\CYMR90~1\AppData\Local\Temp\ccSmV8cy.s:30448  .debug_str:000000000001dcae .LASF3437
C:\Users\CYMR90~1\AppData\Local\Temp\ccSmV8cy.s:33154  .debug_str:00000000000284ed .LASF3438
C:\Users\CYMR90~1\AppData\Local\Temp\ccSmV8cy.s:34432  .debug_str:000000000002d52c .LASF3439
C:\Users\CYMR90~1\AppData\Local\Temp\ccSmV8cy.s:23387  .debug_str:0000000000001c40 .LASF3440
C:\Users\CYMR90~1\AppData\Local\Temp\ccSmV8cy.s:23951  .debug_str:0000000000003f90 .LASF3441
C:\Users\CYMR90~1\AppData\Local\Temp\ccSmV8cy.s:34108  .debug_str:000000000002bfe9 .LASF3442
C:\Users\CYMR90~1\AppData\Local\Temp\ccSmV8cy.s:25779  .debug_str:000000000000b43e .LASF3443
C:\Users\CYMR90~1\AppData\Local\Temp\ccSmV8cy.s:28041  .debug_str:0000000000014313 .LASF3444
C:\Users\CYMR90~1\AppData\Local\Temp\ccSmV8cy.s:31800  .debug_str:0000000000022ef2 .LASF3445
C:\Users\CYMR90~1\AppData\Local\Temp\ccSmV8cy.s:32974  .debug_str:000000000002797e .LASF3446
C:\Users\CYMR90~1\AppData\Local\Temp\ccSmV8cy.s:24423  .debug_str:0000000000005d2c .LASF3447
C:\Users\CYMR90~1\AppData\Local\Temp\ccSmV8cy.s:25889  .debug_str:000000000000bb30 .LASF3448
C:\Users\CYMR90~1\AppData\Local\Temp\ccSmV8cy.s:24357  .debug_str:0000000000005931 .LASF3449
C:\Users\CYMR90~1\AppData\Local\Temp\ccSmV8cy.s:27605  .debug_str:0000000000012712 .LASF3450
C:\Users\CYMR90~1\AppData\Local\Temp\ccSmV8cy.s:33144  .debug_str:0000000000028450 .LASF3451
C:\Users\CYMR90~1\AppData\Local\Temp\ccSmV8cy.s:29438  .debug_str:0000000000019bc3 .LASF3452
C:\Users\CYMR90~1\AppData\Local\Temp\ccSmV8cy.s:28187  .debug_str:0000000000014bc8 .LASF3453
C:\Users\CYMR90~1\AppData\Local\Temp\ccSmV8cy.s:34470  .debug_str:000000000002d7d0 .LASF3454
C:\Users\CYMR90~1\AppData\Local\Temp\ccSmV8cy.s:30958  .debug_str:000000000001fc0f .LASF3455
C:\Users\CYMR90~1\AppData\Local\Temp\ccSmV8cy.s:27535  .debug_str:00000000000122d5 .LASF3456
C:\Users\CYMR90~1\AppData\Local\Temp\ccSmV8cy.s:24841  .debug_str:0000000000007799 .LASF3457
C:\Users\CYMR90~1\AppData\Local\Temp\ccSmV8cy.s:32060  .debug_str:0000000000023e72 .LASF3458
C:\Users\CYMR90~1\AppData\Local\Temp\ccSmV8cy.s:28571  .debug_str:0000000000016374 .LASF3459
C:\Users\CYMR90~1\AppData\Local\Temp\ccSmV8cy.s:25087  .debug_str:0000000000008881 .LASF3460
C:\Users\CYMR90~1\AppData\Local\Temp\ccSmV8cy.s:29124  .debug_str:000000000001878e .LASF3461
C:\Users\CYMR90~1\AppData\Local\Temp\ccSmV8cy.s:34166  .debug_str:000000000002c3d8 .LASF3462
C:\Users\CYMR90~1\AppData\Local\Temp\ccSmV8cy.s:32698  .debug_str:0000000000026895 .LASF3463
C:\Users\CYMR90~1\AppData\Local\Temp\ccSmV8cy.s:23343  .debug_str:0000000000001963 .LASF3464
C:\Users\CYMR90~1\AppData\Local\Temp\ccSmV8cy.s:24397  .debug_str:0000000000005b88 .LASF3465
C:\Users\CYMR90~1\AppData\Local\Temp\ccSmV8cy.s:30738  .debug_str:000000000001eeb8 .LASF3466
C:\Users\CYMR90~1\AppData\Local\Temp\ccSmV8cy.s:30966  .debug_str:000000000001fc8d .LASF3467
C:\Users\CYMR90~1\AppData\Local\Temp\ccSmV8cy.s:32110  .debug_str:00000000000241c0 .LASF3468
C:\Users\CYMR90~1\AppData\Local\Temp\ccSmV8cy.s:32480  .debug_str:00000000000259b4 .LASF3469
C:\Users\CYMR90~1\AppData\Local\Temp\ccSmV8cy.s:29230  .debug_str:0000000000018e04 .LASF3470
C:\Users\CYMR90~1\AppData\Local\Temp\ccSmV8cy.s:34412  .debug_str:000000000002d3e3 .LASF3471
C:\Users\CYMR90~1\AppData\Local\Temp\ccSmV8cy.s:25855  .debug_str:000000000000b88c .LASF3472
C:\Users\CYMR90~1\AppData\Local\Temp\ccSmV8cy.s:29104  .debug_str:000000000001868e .LASF3473
C:\Users\CYMR90~1\AppData\Local\Temp\ccSmV8cy.s:23275  .debug_str:00000000000014d3 .LASF3474
C:\Users\CYMR90~1\AppData\Local\Temp\ccSmV8cy.s:30202  .debug_str:000000000001cba2 .LASF3475
C:\Users\CYMR90~1\AppData\Local\Temp\ccSmV8cy.s:26083  .debug_str:000000000000c7f0 .LASF3476
C:\Users\CYMR90~1\AppData\Local\Temp\ccSmV8cy.s:26361  .debug_str:000000000000d98e .LASF3477
C:\Users\CYMR90~1\AppData\Local\Temp\ccSmV8cy.s:34162  .debug_str:000000000002c38d .LASF3478
C:\Users\CYMR90~1\AppData\Local\Temp\ccSmV8cy.s:31174  .debug_str:000000000002091b .LASF3479
C:\Users\CYMR90~1\AppData\Local\Temp\ccSmV8cy.s:26851  .debug_str:000000000000f728 .LASF3480
C:\Users\CYMR90~1\AppData\Local\Temp\ccSmV8cy.s:32622  .debug_str:00000000000263f7 .LASF3481
C:\Users\CYMR90~1\AppData\Local\Temp\ccSmV8cy.s:31550  .debug_str:0000000000022015 .LASF3482
C:\Users\CYMR90~1\AppData\Local\Temp\ccSmV8cy.s:27121  .debug_str:000000000001082e .LASF3483
C:\Users\CYMR90~1\AppData\Local\Temp\ccSmV8cy.s:31172  .debug_str:00000000000208f4 .LASF3484
C:\Users\CYMR90~1\AppData\Local\Temp\ccSmV8cy.s:28199  .debug_str:0000000000014ccc .LASF3485
C:\Users\CYMR90~1\AppData\Local\Temp\ccSmV8cy.s:34040  .debug_str:000000000002bb84 .LASF3486
C:\Users\CYMR90~1\AppData\Local\Temp\ccSmV8cy.s:23007  .debug_str:00000000000004cd .LASF3487
C:\Users\CYMR90~1\AppData\Local\Temp\ccSmV8cy.s:31206  .debug_str:0000000000020ae6 .LASF3488
C:\Users\CYMR90~1\AppData\Local\Temp\ccSmV8cy.s:32754  .debug_str:0000000000026c45 .LASF3489
C:\Users\CYMR90~1\AppData\Local\Temp\ccSmV8cy.s:34472  .debug_str:000000000002d7f7 .LASF3490
C:\Users\CYMR90~1\AppData\Local\Temp\ccSmV8cy.s:25487  .debug_str:000000000000a089 .LASF3491
C:\Users\CYMR90~1\AppData\Local\Temp\ccSmV8cy.s:29474  .debug_str:0000000000019dbc .LASF3492
C:\Users\CYMR90~1\AppData\Local\Temp\ccSmV8cy.s:26827  .debug_str:000000000000f581 .LASF3493
C:\Users\CYMR90~1\AppData\Local\Temp\ccSmV8cy.s:30880  .debug_str:000000000001f714 .LASF3494
C:\Users\CYMR90~1\AppData\Local\Temp\ccSmV8cy.s:29288  .debug_str:0000000000019160 .LASF3495
C:\Users\CYMR90~1\AppData\Local\Temp\ccSmV8cy.s:24723  .debug_str:0000000000007002 .LASF3496
C:\Users\CYMR90~1\AppData\Local\Temp\ccSmV8cy.s:30078  .debug_str:000000000001c462 .LASF3497
C:\Users\CYMR90~1\AppData\Local\Temp\ccSmV8cy.s:23939  .debug_str:0000000000003ed1 .LASF3498
C:\Users\CYMR90~1\AppData\Local\Temp\ccSmV8cy.s:25761  .debug_str:000000000000b26c .LASF3499
C:\Users\CYMR90~1\AppData\Local\Temp\ccSmV8cy.s:26847  .debug_str:000000000000f6da .LASF3500
C:\Users\CYMR90~1\AppData\Local\Temp\ccSmV8cy.s:31632  .debug_str:000000000002255c .LASF3501
C:\Users\CYMR90~1\AppData\Local\Temp\ccSmV8cy.s:25955  .debug_str:000000000000bf94 .LASF3502
C:\Users\CYMR90~1\AppData\Local\Temp\ccSmV8cy.s:30638  .debug_str:000000000001e8c2 .LASF3503
C:\Users\CYMR90~1\AppData\Local\Temp\ccSmV8cy.s:30532  .debug_str:000000000001e20a .LASF3504
C:\Users\CYMR90~1\AppData\Local\Temp\ccSmV8cy.s:31654  .debug_str:00000000000226b3 .LASF3505
C:\Users\CYMR90~1\AppData\Local\Temp\ccSmV8cy.s:25727  .debug_str:000000000000b02d .LASF3506
C:\Users\CYMR90~1\AppData\Local\Temp\ccSmV8cy.s:28161  .debug_str:0000000000014a16 .LASF3507
C:\Users\CYMR90~1\AppData\Local\Temp\ccSmV8cy.s:24493  .debug_str:0000000000006185 .LASF3508
C:\Users\CYMR90~1\AppData\Local\Temp\ccSmV8cy.s:31384  .debug_str:0000000000021612 .LASF3509
C:\Users\CYMR90~1\AppData\Local\Temp\ccSmV8cy.s:27779  .debug_str:000000000001323b .LASF3510
C:\Users\CYMR90~1\AppData\Local\Temp\ccSmV8cy.s:29896  .debug_str:000000000001b93e .LASF3511
C:\Users\CYMR90~1\AppData\Local\Temp\ccSmV8cy.s:29768  .debug_str:000000000001b155 .LASF3512
C:\Users\CYMR90~1\AppData\Local\Temp\ccSmV8cy.s:24245  .debug_str:0000000000005267 .LASF3513
C:\Users\CYMR90~1\AppData\Local\Temp\ccSmV8cy.s:31248  .debug_str:0000000000020d6a .LASF3514
C:\Users\CYMR90~1\AppData\Local\Temp\ccSmV8cy.s:27851  .debug_str:00000000000136dc .LASF3515
C:\Users\CYMR90~1\AppData\Local\Temp\ccSmV8cy.s:25599  .debug_str:000000000000a7c4 .LASF3516
C:\Users\CYMR90~1\AppData\Local\Temp\ccSmV8cy.s:30252  .debug_str:000000000001ceb5 .LASF3517
C:\Users\CYMR90~1\AppData\Local\Temp\ccSmV8cy.s:24769  .debug_str:00000000000072de .LASF3518
C:\Users\CYMR90~1\AppData\Local\Temp\ccSmV8cy.s:32952  .debug_str:0000000000027820 .LASF3519
C:\Users\CYMR90~1\AppData\Local\Temp\ccSmV8cy.s:24161  .debug_str:0000000000004d64 .LASF3520
C:\Users\CYMR90~1\AppData\Local\Temp\ccSmV8cy.s:25691  .debug_str:000000000000adf3 .LASF3521
C:\Users\CYMR90~1\AppData\Local\Temp\ccSmV8cy.s:26397  .debug_str:000000000000dbfb .LASF3522
C:\Users\CYMR90~1\AppData\Local\Temp\ccSmV8cy.s:32044  .debug_str:0000000000023d74 .LASF3523
C:\Users\CYMR90~1\AppData\Local\Temp\ccSmV8cy.s:30570  .debug_str:000000000001e446 .LASF3524
C:\Users\CYMR90~1\AppData\Local\Temp\ccSmV8cy.s:23019  .debug_str:0000000000000584 .LASF3525
C:\Users\CYMR90~1\AppData\Local\Temp\ccSmV8cy.s:24097  .debug_str:00000000000048c7 .LASF3526
C:\Users\CYMR90~1\AppData\Local\Temp\ccSmV8cy.s:26585  .debug_str:000000000000e6d5 .LASF3527
C:\Users\CYMR90~1\AppData\Local\Temp\ccSmV8cy.s:24671  .debug_str:0000000000006c59 .LASF3528
C:\Users\CYMR90~1\AppData\Local\Temp\ccSmV8cy.s:27991  .debug_str:0000000000013fec .LASF3529
C:\Users\CYMR90~1\AppData\Local\Temp\ccSmV8cy.s:27625  .debug_str:0000000000012881 .LASF3530
C:\Users\CYMR90~1\AppData\Local\Temp\ccSmV8cy.s:23715  .debug_str:000000000000304f .LASF3531
C:\Users\CYMR90~1\AppData\Local\Temp\ccSmV8cy.s:24295  .debug_str:0000000000005543 .LASF3532
C:\Users\CYMR90~1\AppData\Local\Temp\ccSmV8cy.s:23805  .debug_str:0000000000003656 .LASF3533
C:\Users\CYMR90~1\AppData\Local\Temp\ccSmV8cy.s:22971  .debug_str:000000000000029b .LASF3534
C:\Users\CYMR90~1\AppData\Local\Temp\ccSmV8cy.s:25297  .debug_str:0000000000009518 .LASF3535
C:\Users\CYMR90~1\AppData\Local\Temp\ccSmV8cy.s:28773  .debug_str:000000000001709a .LASF3536
C:\Users\CYMR90~1\AppData\Local\Temp\ccSmV8cy.s:23705  .debug_str:0000000000002fc2 .LASF3537
C:\Users\CYMR90~1\AppData\Local\Temp\ccSmV8cy.s:32906  .debug_str:0000000000027550 .LASF3538
C:\Users\CYMR90~1\AppData\Local\Temp\ccSmV8cy.s:28637  .debug_str:000000000001680a .LASF3539
C:\Users\CYMR90~1\AppData\Local\Temp\ccSmV8cy.s:29304  .debug_str:00000000000192ee .LASF3540
C:\Users\CYMR90~1\AppData\Local\Temp\ccSmV8cy.s:32052  .debug_str:0000000000023df3 .LASF3541
C:\Users\CYMR90~1\AppData\Local\Temp\ccSmV8cy.s:31834  .debug_str:000000000002313f .LASF3542
C:\Users\CYMR90~1\AppData\Local\Temp\ccSmV8cy.s:27823  .debug_str:000000000001350b .LASF3543
C:\Users\CYMR90~1\AppData\Local\Temp\ccSmV8cy.s:30490  .debug_str:000000000001df8e .LASF3544
C:\Users\CYMR90~1\AppData\Local\Temp\ccSmV8cy.s:33806  .debug_str:000000000002add1 .LASF3545
C:\Users\CYMR90~1\AppData\Local\Temp\ccSmV8cy.s:28655  .debug_str:000000000001690e .LASF3546
C:\Users\CYMR90~1\AppData\Local\Temp\ccSmV8cy.s:24771  .debug_str:00000000000072fc .LASF3547
C:\Users\CYMR90~1\AppData\Local\Temp\ccSmV8cy.s:27341  .debug_str:0000000000011572 .LASF3548
C:\Users\CYMR90~1\AppData\Local\Temp\ccSmV8cy.s:30620  .debug_str:000000000001e7f2 .LASF3549
C:\Users\CYMR90~1\AppData\Local\Temp\ccSmV8cy.s:25479  .debug_str:000000000000a00b .LASF3550
C:\Users\CYMR90~1\AppData\Local\Temp\ccSmV8cy.s:25287  .debug_str:0000000000009485 .LASF3551
C:\Users\CYMR90~1\AppData\Local\Temp\ccSmV8cy.s:30464  .debug_str:000000000001ddb1 .LASF3552
C:\Users\CYMR90~1\AppData\Local\Temp\ccSmV8cy.s:25887  .debug_str:000000000000bb0b .LASF3553
C:\Users\CYMR90~1\AppData\Local\Temp\ccSmV8cy.s:28978  .debug_str:0000000000017ed7 .LASF3554
C:\Users\CYMR90~1\AppData\Local\Temp\ccSmV8cy.s:32122  .debug_str:000000000002425d .LASF3555
C:\Users\CYMR90~1\AppData\Local\Temp\ccSmV8cy.s:27757  .debug_str:00000000000130ff .LASF3556
C:\Users\CYMR90~1\AppData\Local\Temp\ccSmV8cy.s:31346  .debug_str:00000000000213d4 .LASF3557
C:\Users\CYMR90~1\AppData\Local\Temp\ccSmV8cy.s:25809  .debug_str:000000000000b621 .LASF3558
C:\Users\CYMR90~1\AppData\Local\Temp\ccSmV8cy.s:24501  .debug_str:00000000000061f6 .LASF3559
C:\Users\CYMR90~1\AppData\Local\Temp\ccSmV8cy.s:28475  .debug_str:0000000000015d86 .LASF3560
C:\Users\CYMR90~1\AppData\Local\Temp\ccSmV8cy.s:27803  .debug_str:00000000000133e0 .LASF3561
C:\Users\CYMR90~1\AppData\Local\Temp\ccSmV8cy.s:34196  .debug_str:000000000002c5ab .LASF3562
C:\Users\CYMR90~1\AppData\Local\Temp\ccSmV8cy.s:29434  .debug_str:0000000000019b95 .LASF3563
C:\Users\CYMR90~1\AppData\Local\Temp\ccSmV8cy.s:25245  .debug_str:000000000000924f .LASF3564
C:\Users\CYMR90~1\AppData\Local\Temp\ccSmV8cy.s:33580  .debug_str:000000000002a130 .LASF3565
C:\Users\CYMR90~1\AppData\Local\Temp\ccSmV8cy.s:32810  .debug_str:0000000000026fab .LASF3566
C:\Users\CYMR90~1\AppData\Local\Temp\ccSmV8cy.s:29772  .debug_str:000000000001b187 .LASF3567
C:\Users\CYMR90~1\AppData\Local\Temp\ccSmV8cy.s:23277  .debug_str:00000000000014f4 .LASF3568
C:\Users\CYMR90~1\AppData\Local\Temp\ccSmV8cy.s:30806  .debug_str:000000000001f2f5 .LASF3569
C:\Users\CYMR90~1\AppData\Local\Temp\ccSmV8cy.s:31534  .debug_str:0000000000021f15 .LASF3570
C:\Users\CYMR90~1\AppData\Local\Temp\ccSmV8cy.s:25279  .debug_str:00000000000093f9 .LASF3571
C:\Users\CYMR90~1\AppData\Local\Temp\ccSmV8cy.s:32198  .debug_str:00000000000246b0 .LASF3572
C:\Users\CYMR90~1\AppData\Local\Temp\ccSmV8cy.s:34264  .debug_str:000000000002ca20 .LASF3573
C:\Users\CYMR90~1\AppData\Local\Temp\ccSmV8cy.s:28553  .debug_str:0000000000016222 .LASF3574
C:\Users\CYMR90~1\AppData\Local\Temp\ccSmV8cy.s:25767  .debug_str:000000000000b37e .LASF3575
C:\Users\CYMR90~1\AppData\Local\Temp\ccSmV8cy.s:31310  .debug_str:0000000000021194 .LASF3576
C:\Users\CYMR90~1\AppData\Local\Temp\ccSmV8cy.s:26709  .debug_str:000000000000eea9 .LASF3577
C:\Users\CYMR90~1\AppData\Local\Temp\ccSmV8cy.s:28892  .debug_str:000000000001799c .LASF3578
C:\Users\CYMR90~1\AppData\Local\Temp\ccSmV8cy.s:29520  .debug_str:000000000001a138 .LASF3579
C:\Users\CYMR90~1\AppData\Local\Temp\ccSmV8cy.s:25713  .debug_str:000000000000af60 .LASF3580
C:\Users\CYMR90~1\AppData\Local\Temp\ccSmV8cy.s:28281  .debug_str:000000000001519d .LASF3581
C:\Users\CYMR90~1\AppData\Local\Temp\ccSmV8cy.s:30708  .debug_str:000000000001ed14 .LASF3582
C:\Users\CYMR90~1\AppData\Local\Temp\ccSmV8cy.s:26207  .debug_str:000000000000d015 .LASF3583
C:\Users\CYMR90~1\AppData\Local\Temp\ccSmV8cy.s:26949  .debug_str:000000000000fd6f .LASF3584
C:\Users\CYMR90~1\AppData\Local\Temp\ccSmV8cy.s:30538  .debug_str:000000000001e27c .LASF3585
C:\Users\CYMR90~1\AppData\Local\Temp\ccSmV8cy.s:27835  .debug_str:00000000000135ce .LASF3586
C:\Users\CYMR90~1\AppData\Local\Temp\ccSmV8cy.s:29442  .debug_str:0000000000019c12 .LASF3587
C:\Users\CYMR90~1\AppData\Local\Temp\ccSmV8cy.s:33186  .debug_str:0000000000028741 .LASF3588
C:\Users\CYMR90~1\AppData\Local\Temp\ccSmV8cy.s:32826  .debug_str:00000000000270d5 .LASF3589
C:\Users\CYMR90~1\AppData\Local\Temp\ccSmV8cy.s:23683  .debug_str:0000000000002e75 .LASF3590
C:\Users\CYMR90~1\AppData\Local\Temp\ccSmV8cy.s:23459  .debug_str:000000000000209f .LASF3591
C:\Users\CYMR90~1\AppData\Local\Temp\ccSmV8cy.s:33138  .debug_str:00000000000283bc .LASF3592
C:\Users\CYMR90~1\AppData\Local\Temp\ccSmV8cy.s:25105  .debug_str:0000000000008980 .LASF3593
C:\Users\CYMR90~1\AppData\Local\Temp\ccSmV8cy.s:33888  .debug_str:000000000002b2c5 .LASF3594
C:\Users\CYMR90~1\AppData\Local\Temp\ccSmV8cy.s:24951  .debug_str:0000000000007eb2 .LASF3595
C:\Users\CYMR90~1\AppData\Local\Temp\ccSmV8cy.s:23033  .debug_str:0000000000000663 .LASF3596
C:\Users\CYMR90~1\AppData\Local\Temp\ccSmV8cy.s:32372  .debug_str:000000000002523a .LASF3597
C:\Users\CYMR90~1\AppData\Local\Temp\ccSmV8cy.s:23399  .debug_str:0000000000001d14 .LASF3598
C:\Users\CYMR90~1\AppData\Local\Temp\ccSmV8cy.s:26881  .debug_str:000000000000f900 .LASF3599
C:\Users\CYMR90~1\AppData\Local\Temp\ccSmV8cy.s:31980  .debug_str:00000000000239e2 .LASF3600
C:\Users\CYMR90~1\AppData\Local\Temp\ccSmV8cy.s:26051  .debug_str:000000000000c617 .LASF3601
C:\Users\CYMR90~1\AppData\Local\Temp\ccSmV8cy.s:26057  .debug_str:000000000000c672 .LASF3602
C:\Users\CYMR90~1\AppData\Local\Temp\ccSmV8cy.s:24521  .debug_str:0000000000006339 .LASF3603
C:\Users\CYMR90~1\AppData\Local\Temp\ccSmV8cy.s:24155  .debug_str:0000000000004cf2 .LASF3604
C:\Users\CYMR90~1\AppData\Local\Temp\ccSmV8cy.s:32736  .debug_str:0000000000026b59 .LASF3605
C:\Users\CYMR90~1\AppData\Local\Temp\ccSmV8cy.s:26469  .debug_str:000000000000dfe8 .LASF3606
C:\Users\CYMR90~1\AppData\Local\Temp\ccSmV8cy.s:27909  .debug_str:0000000000013b00 .LASF3607
C:\Users\CYMR90~1\AppData\Local\Temp\ccSmV8cy.s:25165  .debug_str:0000000000008cfa .LASF3608
C:\Users\CYMR90~1\AppData\Local\Temp\ccSmV8cy.s:28483  .debug_str:0000000000015dfc .LASF3609
C:\Users\CYMR90~1\AppData\Local\Temp\ccSmV8cy.s:32514  .debug_str:0000000000025c56 .LASF3610
C:\Users\CYMR90~1\AppData\Local\Temp\ccSmV8cy.s:25227  .debug_str:000000000000912e .LASF3611
C:\Users\CYMR90~1\AppData\Local\Temp\ccSmV8cy.s:26823  .debug_str:000000000000f560 .LASF3612
C:\Users\CYMR90~1\AppData\Local\Temp\ccSmV8cy.s:23181  .debug_str:0000000000000f06 .LASF3613
C:\Users\CYMR90~1\AppData\Local\Temp\ccSmV8cy.s:30970  .debug_str:000000000001fce7 .LASF3614
C:\Users\CYMR90~1\AppData\Local\Temp\ccSmV8cy.s:25935  .debug_str:000000000000be2b .LASF3615
C:\Users\CYMR90~1\AppData\Local\Temp\ccSmV8cy.s:31076  .debug_str:0000000000020301 .LASF3616
C:\Users\CYMR90~1\AppData\Local\Temp\ccSmV8cy.s:30008  .debug_str:000000000001bfe5 .LASF3617
C:\Users\CYMR90~1\AppData\Local\Temp\ccSmV8cy.s:27719  .debug_str:0000000000012e78 .LASF3618
C:\Users\CYMR90~1\AppData\Local\Temp\ccSmV8cy.s:23551  .debug_str:00000000000025e3 .LASF3619
C:\Users\CYMR90~1\AppData\Local\Temp\ccSmV8cy.s:30436  .debug_str:000000000001dbe6 .LASF3620
C:\Users\CYMR90~1\AppData\Local\Temp\ccSmV8cy.s:31854  .debug_str:000000000002324f .LASF3621
C:\Users\CYMR90~1\AppData\Local\Temp\ccSmV8cy.s:33872  .debug_str:000000000002b1e0 .LASF3622
C:\Users\CYMR90~1\AppData\Local\Temp\ccSmV8cy.s:29670  .debug_str:000000000001ab38 .LASF3623
C:\Users\CYMR90~1\AppData\Local\Temp\ccSmV8cy.s:23069  .debug_str:0000000000000830 .LASF3624
C:\Users\CYMR90~1\AppData\Local\Temp\ccSmV8cy.s:33538  .debug_str:0000000000029e6d .LASF3625
C:\Users\CYMR90~1\AppData\Local\Temp\ccSmV8cy.s:28735  .debug_str:0000000000016e11 .LASF3626
C:\Users\CYMR90~1\AppData\Local\Temp\ccSmV8cy.s:29402  .debug_str:000000000001997f .LASF3627
C:\Users\CYMR90~1\AppData\Local\Temp\ccSmV8cy.s:24331  .debug_str:0000000000005783 .LASF3628
C:\Users\CYMR90~1\AppData\Local\Temp\ccSmV8cy.s:25095  .debug_str:00000000000088f2 .LASF3629
C:\Users\CYMR90~1\AppData\Local\Temp\ccSmV8cy.s:27061  .debug_str:000000000001041b .LASF3630
C:\Users\CYMR90~1\AppData\Local\Temp\ccSmV8cy.s:32598  .debug_str:000000000002628f .LASF3631
C:\Users\CYMR90~1\AppData\Local\Temp\ccSmV8cy.s:31656  .debug_str:00000000000226cd .LASF3632
C:\Users\CYMR90~1\AppData\Local\Temp\ccSmV8cy.s:26425  .debug_str:000000000000dd70 .LASF3633
C:\Users\CYMR90~1\AppData\Local\Temp\ccSmV8cy.s:34036  .debug_str:000000000002bb45 .LASF3634
C:\Users\CYMR90~1\AppData\Local\Temp\ccSmV8cy.s:25805  .debug_str:000000000000b5e6 .LASF3635
C:\Users\CYMR90~1\AppData\Local\Temp\ccSmV8cy.s:31262  .debug_str:0000000000020ecd .LASF3636
C:\Users\CYMR90~1\AppData\Local\Temp\ccSmV8cy.s:28593  .debug_str:00000000000164e6 .LASF3637
C:\Users\CYMR90~1\AppData\Local\Temp\ccSmV8cy.s:23167  .debug_str:0000000000000e25 .LASF3638
C:\Users\CYMR90~1\AppData\Local\Temp\ccSmV8cy.s:34008  .debug_str:000000000002b976 .LASF3639
C:\Users\CYMR90~1\AppData\Local\Temp\ccSmV8cy.s:31458  .debug_str:00000000000219fc .LASF3640
C:\Users\CYMR90~1\AppData\Local\Temp\ccSmV8cy.s:31802  .debug_str:0000000000022f11 .LASF3641
C:\Users\CYMR90~1\AppData\Local\Temp\ccSmV8cy.s:28723  .debug_str:0000000000016d64 .LASF3642
C:\Users\CYMR90~1\AppData\Local\Temp\ccSmV8cy.s:25151  .debug_str:0000000000008c2c .LASF3643
C:\Users\CYMR90~1\AppData\Local\Temp\ccSmV8cy.s:32556  .debug_str:0000000000025f60 .LASF3644
C:\Users\CYMR90~1\AppData\Local\Temp\ccSmV8cy.s:29728  .debug_str:000000000001aefe .LASF3645
C:\Users\CYMR90~1\AppData\Local\Temp\ccSmV8cy.s:23177  .debug_str:0000000000000ed6 .LASF3646
C:\Users\CYMR90~1\AppData\Local\Temp\ccSmV8cy.s:31776  .debug_str:0000000000022d81 .LASF3647
C:\Users\CYMR90~1\AppData\Local\Temp\ccSmV8cy.s:33518  .debug_str:0000000000029d3a .LASF3648
C:\Users\CYMR90~1\AppData\Local\Temp\ccSmV8cy.s:23639  .debug_str:0000000000002b93 .LASF3649
C:\Users\CYMR90~1\AppData\Local\Temp\ccSmV8cy.s:26755  .debug_str:000000000000f1ad .LASF3650
C:\Users\CYMR90~1\AppData\Local\Temp\ccSmV8cy.s:24937  .debug_str:0000000000007df8 .LASF3651
C:\Users\CYMR90~1\AppData\Local\Temp\ccSmV8cy.s:23877  .debug_str:0000000000003b07 .LASF3652
C:\Users\CYMR90~1\AppData\Local\Temp\ccSmV8cy.s:28033  .debug_str:00000000000142ba .LASF3653
C:\Users\CYMR90~1\AppData\Local\Temp\ccSmV8cy.s:32464  .debug_str:0000000000025833 .LASF3654
C:\Users\CYMR90~1\AppData\Local\Temp\ccSmV8cy.s:27015  .debug_str:000000000001010f .LASF3655
C:\Users\CYMR90~1\AppData\Local\Temp\ccSmV8cy.s:28039  .debug_str:00000000000142fe .LASF3656
C:\Users\CYMR90~1\AppData\Local\Temp\ccSmV8cy.s:24449  .debug_str:0000000000005e98 .LASF3657
C:\Users\CYMR90~1\AppData\Local\Temp\ccSmV8cy.s:24035  .debug_str:00000000000044a5 .LASF3658
C:\Users\CYMR90~1\AppData\Local\Temp\ccSmV8cy.s:32260  .debug_str:0000000000024b26 .LASF3659
C:\Users\CYMR90~1\AppData\Local\Temp\ccSmV8cy.s:23723  .debug_str:00000000000030d9 .LASF3660
C:\Users\CYMR90~1\AppData\Local\Temp\ccSmV8cy.s:32056  .debug_str:0000000000023e38 .LASF3661
C:\Users\CYMR90~1\AppData\Local\Temp\ccSmV8cy.s:30802  .debug_str:000000000001f2b5 .LASF3662
C:\Users\CYMR90~1\AppData\Local\Temp\ccSmV8cy.s:23045  .debug_str:00000000000006e1 .LASF3663
C:\Users\CYMR90~1\AppData\Local\Temp\ccSmV8cy.s:33996  .debug_str:000000000002b8d0 .LASF3664
C:\Users\CYMR90~1\AppData\Local\Temp\ccSmV8cy.s:30288  .debug_str:000000000001d1cc .LASF3665
C:\Users\CYMR90~1\AppData\Local\Temp\ccSmV8cy.s:23329  .debug_str:00000000000017e9 .LASF3666
C:\Users\CYMR90~1\AppData\Local\Temp\ccSmV8cy.s:30670  .debug_str:000000000001eab2 .LASF3667
C:\Users\CYMR90~1\AppData\Local\Temp\ccSmV8cy.s:33026  .debug_str:0000000000027d61 .LASF3668
C:\Users\CYMR90~1\AppData\Local\Temp\ccSmV8cy.s:24897  .debug_str:0000000000007b3d .LASF3669
C:\Users\CYMR90~1\AppData\Local\Temp\ccSmV8cy.s:34348  .debug_str:000000000002cfa6 .LASF3670
C:\Users\CYMR90~1\AppData\Local\Temp\ccSmV8cy.s:33690  .debug_str:000000000002a746 .LASF3671
C:\Users\CYMR90~1\AppData\Local\Temp\ccSmV8cy.s:24957  .debug_str:0000000000007f0c .LASF3672
C:\Users\CYMR90~1\AppData\Local\Temp\ccSmV8cy.s:24015  .debug_str:000000000000439d .LASF3673
C:\Users\CYMR90~1\AppData\Local\Temp\ccSmV8cy.s:32880  .debug_str:00000000000273d8 .LASF3674
C:\Users\CYMR90~1\AppData\Local\Temp\ccSmV8cy.s:30198  .debug_str:000000000001cb76 .LASF3675
C:\Users\CYMR90~1\AppData\Local\Temp\ccSmV8cy.s:32852  .debug_str:0000000000027231 .LASF3676
C:\Users\CYMR90~1\AppData\Local\Temp\ccSmV8cy.s:24603  .debug_str:0000000000006807 .LASF3677
C:\Users\CYMR90~1\AppData\Local\Temp\ccSmV8cy.s:26947  .debug_str:000000000000fd56 .LASF3678
C:\Users\CYMR90~1\AppData\Local\Temp\ccSmV8cy.s:30772  .debug_str:000000000001f0fc .LASF3679
C:\Users\CYMR90~1\AppData\Local\Temp\ccSmV8cy.s:23169  .debug_str:0000000000000e3b .LASF3680
C:\Users\CYMR90~1\AppData\Local\Temp\ccSmV8cy.s:32000  .debug_str:0000000000023ad6 .LASF3681
C:\Users\CYMR90~1\AppData\Local\Temp\ccSmV8cy.s:29334  .debug_str:00000000000194fd .LASF3682
C:\Users\CYMR90~1\AppData\Local\Temp\ccSmV8cy.s:32266  .debug_str:0000000000024b88 .LASF3683
C:\Users\CYMR90~1\AppData\Local\Temp\ccSmV8cy.s:23733  .debug_str:0000000000003170 .LASF3684
C:\Users\CYMR90~1\AppData\Local\Temp\ccSmV8cy.s:32674  .debug_str:000000000002674f .LASF3685
C:\Users\CYMR90~1\AppData\Local\Temp\ccSmV8cy.s:28489  .debug_str:0000000000015e4c .LASF3686
C:\Users\CYMR90~1\AppData\Local\Temp\ccSmV8cy.s:27161  .debug_str:0000000000010a7d .LASF3687
C:\Users\CYMR90~1\AppData\Local\Temp\ccSmV8cy.s:24403  .debug_str:0000000000005bdd .LASF3688
C:\Users\CYMR90~1\AppData\Local\Temp\ccSmV8cy.s:33282  .debug_str:0000000000028df4 .LASF3689
C:\Users\CYMR90~1\AppData\Local\Temp\ccSmV8cy.s:32950  .debug_str:00000000000277e7 .LASF3690
C:\Users\CYMR90~1\AppData\Local\Temp\ccSmV8cy.s:25639  .debug_str:000000000000a9cb .LASF3691
C:\Users\CYMR90~1\AppData\Local\Temp\ccSmV8cy.s:24705  .debug_str:0000000000006ea6 .LASF3692
C:\Users\CYMR90~1\AppData\Local\Temp\ccSmV8cy.s:24169  .debug_str:0000000000004df7 .LASF3693
C:\Users\CYMR90~1\AppData\Local\Temp\ccSmV8cy.s:27401  .debug_str:000000000001192c .LASF3694
C:\Users\CYMR90~1\AppData\Local\Temp\ccSmV8cy.s:34140  .debug_str:000000000002c232 .LASF3695
C:\Users\CYMR90~1\AppData\Local\Temp\ccSmV8cy.s:27853  .debug_str:00000000000136fc .LASF3696
C:\Users\CYMR90~1\AppData\Local\Temp\ccSmV8cy.s:33752  .debug_str:000000000002aac0 .LASF3697
C:\Users\CYMR90~1\AppData\Local\Temp\ccSmV8cy.s:32822  .debug_str:0000000000027072 .LASF3698
C:\Users\CYMR90~1\AppData\Local\Temp\ccSmV8cy.s:33048  .debug_str:0000000000027eac .LASF3699
C:\Users\CYMR90~1\AppData\Local\Temp\ccSmV8cy.s:28147  .debug_str:000000000001494b .LASF3700
C:\Users\CYMR90~1\AppData\Local\Temp\ccSmV8cy.s:23443  .debug_str:0000000000001fbb .LASF3701
C:\Users\CYMR90~1\AppData\Local\Temp\ccSmV8cy.s:29552  .debug_str:000000000001a30f .LASF3702
C:\Users\CYMR90~1\AppData\Local\Temp\ccSmV8cy.s:25013  .debug_str:00000000000083d6 .LASF3703
C:\Users\CYMR90~1\AppData\Local\Temp\ccSmV8cy.s:29556  .debug_str:000000000001a359 .LASF3704
C:\Users\CYMR90~1\AppData\Local\Temp\ccSmV8cy.s:29862  .debug_str:000000000001b772 .LASF3705
C:\Users\CYMR90~1\AppData\Local\Temp\ccSmV8cy.s:31846  .debug_str:00000000000231e7 .LASF3706
C:\Users\CYMR90~1\AppData\Local\Temp\ccSmV8cy.s:32774  .debug_str:0000000000026d6f .LASF3707
C:\Users\CYMR90~1\AppData\Local\Temp\ccSmV8cy.s:23435  .debug_str:0000000000001f41 .LASF3708
C:\Users\CYMR90~1\AppData\Local\Temp\ccSmV8cy.s:28669  .debug_str:00000000000169c5 .LASF3709
C:\Users\CYMR90~1\AppData\Local\Temp\ccSmV8cy.s:23747  .debug_str:0000000000003276 .LASF3710
C:\Users\CYMR90~1\AppData\Local\Temp\ccSmV8cy.s:31090  .debug_str:00000000000203e8 .LASF3711
C:\Users\CYMR90~1\AppData\Local\Temp\ccSmV8cy.s:32436  .debug_str:0000000000025686 .LASF3712
C:\Users\CYMR90~1\AppData\Local\Temp\ccSmV8cy.s:23233  .debug_str:0000000000001272 .LASF3713
C:\Users\CYMR90~1\AppData\Local\Temp\ccSmV8cy.s:32494  .debug_str:0000000000025a75 .LASF3714
C:\Users\CYMR90~1\AppData\Local\Temp\ccSmV8cy.s:25129  .debug_str:0000000000008ac3 .LASF3715
C:\Users\CYMR90~1\AppData\Local\Temp\ccSmV8cy.s:33736  .debug_str:000000000002a9cd .LASF3716
C:\Users\CYMR90~1\AppData\Local\Temp\ccSmV8cy.s:30424  .debug_str:000000000001db29 .LASF3717
C:\Users\CYMR90~1\AppData\Local\Temp\ccSmV8cy.s:31404  .debug_str:000000000002171a .LASF3718
C:\Users\CYMR90~1\AppData\Local\Temp\ccSmV8cy.s:29806  .debug_str:000000000001b385 .LASF3719
C:\Users\CYMR90~1\AppData\Local\Temp\ccSmV8cy.s:24421  .debug_str:0000000000005d11 .LASF3720
C:\Users\CYMR90~1\AppData\Local\Temp\ccSmV8cy.s:33380  .debug_str:000000000002948d .LASF3721
C:\Users\CYMR90~1\AppData\Local\Temp\ccSmV8cy.s:32128  .debug_str:00000000000242e8 .LASF3722
C:\Users\CYMR90~1\AppData\Local\Temp\ccSmV8cy.s:28371  .debug_str:000000000001577d .LASF3723
C:\Users\CYMR90~1\AppData\Local\Temp\ccSmV8cy.s:26657  .debug_str:000000000000eb9d .LASF3724
C:\Users\CYMR90~1\AppData\Local\Temp\ccSmV8cy.s:23711  .debug_str:0000000000003011 .LASF3725
C:\Users\CYMR90~1\AppData\Local\Temp\ccSmV8cy.s:22955  .debug_str:00000000000001c8 .LASF3726
C:\Users\CYMR90~1\AppData\Local\Temp\ccSmV8cy.s:29500  .debug_str:0000000000019fd3 .LASF3727
C:\Users\CYMR90~1\AppData\Local\Temp\ccSmV8cy.s:27245  .debug_str:0000000000010f64 .LASF3728
C:\Users\CYMR90~1\AppData\Local\Temp\ccSmV8cy.s:24031  .debug_str:000000000000445b .LASF3729
C:\Users\CYMR90~1\AppData\Local\Temp\ccSmV8cy.s:24401  .debug_str:0000000000005bc5 .LASF3730
C:\Users\CYMR90~1\AppData\Local\Temp\ccSmV8cy.s:32834  .debug_str:0000000000027147 .LASF3731
C:\Users\CYMR90~1\AppData\Local\Temp\ccSmV8cy.s:22991  .debug_str:00000000000003c6 .LASF3732
C:\Users\CYMR90~1\AppData\Local\Temp\ccSmV8cy.s:33374  .debug_str:000000000002941e .LASF3733
C:\Users\CYMR90~1\AppData\Local\Temp\ccSmV8cy.s:33500  .debug_str:0000000000029bab .LASF3734
C:\Users\CYMR90~1\AppData\Local\Temp\ccSmV8cy.s:24065  .debug_str:00000000000046aa .LASF3735
C:\Users\CYMR90~1\AppData\Local\Temp\ccSmV8cy.s:25759  .debug_str:000000000000b24e .LASF3736
C:\Users\CYMR90~1\AppData\Local\Temp\ccSmV8cy.s:23011  .debug_str:0000000000000523 .LASF3737
C:\Users\CYMR90~1\AppData\Local\Temp\ccSmV8cy.s:30758  .debug_str:000000000001f014 .LASF3738
C:\Users\CYMR90~1\AppData\Local\Temp\ccSmV8cy.s:28854  .debug_str:0000000000017777 .LASF3739
C:\Users\CYMR90~1\AppData\Local\Temp\ccSmV8cy.s:23567  .debug_str:00000000000026f6 .LASF3740
C:\Users\CYMR90~1\AppData\Local\Temp\ccSmV8cy.s:32948  .debug_str:00000000000277d1 .LASF3741
C:\Users\CYMR90~1\AppData\Local\Temp\ccSmV8cy.s:34302  .debug_str:000000000002ccc8 .LASF3742
C:\Users\CYMR90~1\AppData\Local\Temp\ccSmV8cy.s:30842  .debug_str:000000000001f4cc .LASF3743
C:\Users\CYMR90~1\AppData\Local\Temp\ccSmV8cy.s:26121  .debug_str:000000000000c9f7 .LASF3744
C:\Users\CYMR90~1\AppData\Local\Temp\ccSmV8cy.s:31852  .debug_str:0000000000023230 .LASF3745
C:\Users\CYMR90~1\AppData\Local\Temp\ccSmV8cy.s:26023  .debug_str:000000000000c433 .LASF3746
C:\Users\CYMR90~1\AppData\Local\Temp\ccSmV8cy.s:31844  .debug_str:00000000000231c9 .LASF3747
C:\Users\CYMR90~1\AppData\Local\Temp\ccSmV8cy.s:28299  .debug_str:00000000000152bb .LASF3748
C:\Users\CYMR90~1\AppData\Local\Temp\ccSmV8cy.s:24465  .debug_str:0000000000005f9a .LASF3749
C:\Users\CYMR90~1\AppData\Local\Temp\ccSmV8cy.s:27361  .debug_str:000000000001169b .LASF3750
C:\Users\CYMR90~1\AppData\Local\Temp\ccSmV8cy.s:26521  .debug_str:000000000000e2cd .LASF3751
C:\Users\CYMR90~1\AppData\Local\Temp\ccSmV8cy.s:24119  .debug_str:0000000000004add .LASF3752
C:\Users\CYMR90~1\AppData\Local\Temp\ccSmV8cy.s:25423  .debug_str:0000000000009cb9 .LASF3753
C:\Users\CYMR90~1\AppData\Local\Temp\ccSmV8cy.s:28029  .debug_str:000000000001425a .LASF3754
C:\Users\CYMR90~1\AppData\Local\Temp\ccSmV8cy.s:23933  .debug_str:0000000000003e49 .LASF3755
C:\Users\CYMR90~1\AppData\Local\Temp\ccSmV8cy.s:32706  .debug_str:000000000002695e .LASF3756
C:\Users\CYMR90~1\AppData\Local\Temp\ccSmV8cy.s:22929  .debug_str:0000000000000000 .LASF3757
C:\Users\CYMR90~1\AppData\Local\Temp\ccSmV8cy.s:27343  .debug_str:0000000000011596 .LASF3758
C:\Users\CYMR90~1\AppData\Local\Temp\ccSmV8cy.s:25797  .debug_str:000000000000b569 .LASF3759
C:\Users\CYMR90~1\AppData\Local\Temp\ccSmV8cy.s:28797  .debug_str:0000000000017290 .LASF3760
C:\Users\CYMR90~1\AppData\Local\Temp\ccSmV8cy.s:23353  .debug_str:0000000000001a1e .LASF3761
C:\Users\CYMR90~1\AppData\Local\Temp\ccSmV8cy.s:24679  .debug_str:0000000000006ccd .LASF3762
C:\Users\CYMR90~1\AppData\Local\Temp\ccSmV8cy.s:26621  .debug_str:000000000000e8ec .LASF3763
C:\Users\CYMR90~1\AppData\Local\Temp\ccSmV8cy.s:30890  .debug_str:000000000001f7c3 .LASF3764
C:\Users\CYMR90~1\AppData\Local\Temp\ccSmV8cy.s:28297  .debug_str:0000000000015296 .LASF3765
C:\Users\CYMR90~1\AppData\Local\Temp\ccSmV8cy.s:33572  .debug_str:000000000002a099 .LASF3766
C:\Users\CYMR90~1\AppData\Local\Temp\ccSmV8cy.s:29360  .debug_str:000000000001961f .LASF3767
C:\Users\CYMR90~1\AppData\Local\Temp\ccSmV8cy.s:30710  .debug_str:000000000001ed2b .LASF3768
C:\Users\CYMR90~1\AppData\Local\Temp\ccSmV8cy.s:23561  .debug_str:0000000000002660 .LASF3769
C:\Users\CYMR90~1\AppData\Local\Temp\ccSmV8cy.s:30872  .debug_str:000000000001f6a0 .LASF3770
C:\Users\CYMR90~1\AppData\Local\Temp\ccSmV8cy.s:28171  .debug_str:0000000000014a89 .LASF3771
C:\Users\CYMR90~1\AppData\Local\Temp\ccSmV8cy.s:25777  .debug_str:000000000000b405 .LASF3772
C:\Users\CYMR90~1\AppData\Local\Temp\ccSmV8cy.s:29776  .debug_str:000000000001b1b7 .LASF3773
C:\Users\CYMR90~1\AppData\Local\Temp\ccSmV8cy.s:25181  .debug_str:0000000000008df1 .LASF3774
C:\Users\CYMR90~1\AppData\Local\Temp\ccSmV8cy.s:28459  .debug_str:0000000000015c8c .LASF3775
C:\Users\CYMR90~1\AppData\Local\Temp\ccSmV8cy.s:29424  .debug_str:0000000000019ab0 .LASF3776
C:\Users\CYMR90~1\AppData\Local\Temp\ccSmV8cy.s:26015  .debug_str:000000000000c3ab .LASF3777
C:\Users\CYMR90~1\AppData\Local\Temp\ccSmV8cy.s:29478  .debug_str:0000000000019e19 .LASF3778
C:\Users\CYMR90~1\AppData\Local\Temp\ccSmV8cy.s:24833  .debug_str:0000000000007721 .LASF3779
C:\Users\CYMR90~1\AppData\Local\Temp\ccSmV8cy.s:29502  .debug_str:000000000001a00e .LASF3780
C:\Users\CYMR90~1\AppData\Local\Temp\ccSmV8cy.s:24011  .debug_str:0000000000004354 .LASF3781
C:\Users\CYMR90~1\AppData\Local\Temp\ccSmV8cy.s:25655  .debug_str:000000000000aab7 .LASF3782
C:\Users\CYMR90~1\AppData\Local\Temp\ccSmV8cy.s:26383  .debug_str:000000000000db21 .LASF3783
C:\Users\CYMR90~1\AppData\Local\Temp\ccSmV8cy.s:31298  .debug_str:00000000000210cb .LASF3784
C:\Users\CYMR90~1\AppData\Local\Temp\ccSmV8cy.s:30884  .debug_str:000000000001f75a .LASF3785
C:\Users\CYMR90~1\AppData\Local\Temp\ccSmV8cy.s:26517  .debug_str:000000000000e287 .LASF3786
C:\Users\CYMR90~1\AppData\Local\Temp\ccSmV8cy.s:29964  .debug_str:000000000001bd5a .LASF3787
C:\Users\CYMR90~1\AppData\Local\Temp\ccSmV8cy.s:33802  .debug_str:000000000002ad7e .LASF3788
C:\Users\CYMR90~1\AppData\Local\Temp\ccSmV8cy.s:26137  .debug_str:000000000000cb18 .LASF3789
C:\Users\CYMR90~1\AppData\Local\Temp\ccSmV8cy.s:27997  .debug_str:0000000000014055 .LASF3790
C:\Users\CYMR90~1\AppData\Local\Temp\ccSmV8cy.s:31744  .debug_str:0000000000022bcf .LASF3791
C:\Users\CYMR90~1\AppData\Local\Temp\ccSmV8cy.s:33916  .debug_str:000000000002b421 .LASF3792
C:\Users\CYMR90~1\AppData\Local\Temp\ccSmV8cy.s:27031  .debug_str:000000000001020e .LASF3793
C:\Users\CYMR90~1\AppData\Local\Temp\ccSmV8cy.s:31806  .debug_str:0000000000022f4f .LASF3794
C:\Users\CYMR90~1\AppData\Local\Temp\ccSmV8cy.s:34156  .debug_str:000000000002c319 .LASF3795
C:\Users\CYMR90~1\AppData\Local\Temp\ccSmV8cy.s:32302  .debug_str:0000000000024dc3 .LASF3796
C:\Users\CYMR90~1\AppData\Local\Temp\ccSmV8cy.s:28739  .debug_str:0000000000016e4e .LASF3797
C:\Users\CYMR90~1\AppData\Local\Temp\ccSmV8cy.s:30256  .debug_str:000000000001cf8b .LASF3798
C:\Users\CYMR90~1\AppData\Local\Temp\ccSmV8cy.s:29530  .debug_str:000000000001a1c0 .LASF3799
C:\Users\CYMR90~1\AppData\Local\Temp\ccSmV8cy.s:27177  .debug_str:0000000000010b6e .LASF3800
C:\Users\CYMR90~1\AppData\Local\Temp\ccSmV8cy.s:27635  .debug_str:000000000001291d .LASF3801
C:\Users\CYMR90~1\AppData\Local\Temp\ccSmV8cy.s:23809  .debug_str:000000000000369e .LASF3802
C:\Users\CYMR90~1\AppData\Local\Temp\ccSmV8cy.s:26261  .debug_str:000000000000d2fb .LASF3803
C:\Users\CYMR90~1\AppData\Local\Temp\ccSmV8cy.s:27685  .debug_str:0000000000012c47 .LASF3804
C:\Users\CYMR90~1\AppData\Local\Temp\ccSmV8cy.s:25541  .debug_str:000000000000a419 .LASF3805
C:\Users\CYMR90~1\AppData\Local\Temp\ccSmV8cy.s:31378  .debug_str:00000000000215ae .LASF3806
C:\Users\CYMR90~1\AppData\Local\Temp\ccSmV8cy.s:29634  .debug_str:000000000001a7aa .LASF3807
C:\Users\CYMR90~1\AppData\Local\Temp\ccSmV8cy.s:23163  .debug_str:0000000000000deb .LASF3808
C:\Users\CYMR90~1\AppData\Local\Temp\ccSmV8cy.s:33172  .debug_str:000000000002861a .LASF3809
C:\Users\CYMR90~1\AppData\Local\Temp\ccSmV8cy.s:34416  .debug_str:000000000002d421 .LASF3810
C:\Users\CYMR90~1\AppData\Local\Temp\ccSmV8cy.s:26411  .debug_str:000000000000dca4 .LASF3811
C:\Users\CYMR90~1\AppData\Local\Temp\ccSmV8cy.s:29144  .debug_str:00000000000188e9 .LASF3812
C:\Users\CYMR90~1\AppData\Local\Temp\ccSmV8cy.s:30048  .debug_str:000000000001c25d .LASF3813
C:\Users\CYMR90~1\AppData\Local\Temp\ccSmV8cy.s:24047  .debug_str:000000000000457d .LASF3814
C:\Users\CYMR90~1\AppData\Local\Temp\ccSmV8cy.s:28607  .debug_str:00000000000165d7 .LASF3815
C:\Users\CYMR90~1\AppData\Local\Temp\ccSmV8cy.s:33878  .debug_str:000000000002b238 .LASF3816
C:\Users\CYMR90~1\AppData\Local\Temp\ccSmV8cy.s:31366  .debug_str:00000000000214de .LASF3817
C:\Users\CYMR90~1\AppData\Local\Temp\ccSmV8cy.s:33880  .debug_str:000000000002b256 .LASF3818
C:\Users\CYMR90~1\AppData\Local\Temp\ccSmV8cy.s:30186  .debug_str:000000000001cacb .LASF3819
C:\Users\CYMR90~1\AppData\Local\Temp\ccSmV8cy.s:23263  .debug_str:00000000000013f1 .LASF3820
C:\Users\CYMR90~1\AppData\Local\Temp\ccSmV8cy.s:32574  .debug_str:0000000000026061 .LASF3821
C:\Users\CYMR90~1\AppData\Local\Temp\ccSmV8cy.s:30082  .debug_str:000000000001c4ab .LASF3822
C:\Users\CYMR90~1\AppData\Local\Temp\ccSmV8cy.s:24459  .debug_str:0000000000005f32 .LASF3823
C:\Users\CYMR90~1\AppData\Local\Temp\ccSmV8cy.s:26645  .debug_str:000000000000ea76 .LASF3824
C:\Users\CYMR90~1\AppData\Local\Temp\ccSmV8cy.s:31238  .debug_str:0000000000020ccb .LASF3825
C:\Users\CYMR90~1\AppData\Local\Temp\ccSmV8cy.s:25739  .debug_str:000000000000b0d3 .LASF3826
C:\Users\CYMR90~1\AppData\Local\Temp\ccSmV8cy.s:32960  .debug_str:00000000000278c8 .LASF3827
C:\Users\CYMR90~1\AppData\Local\Temp\ccSmV8cy.s:28353  .debug_str:000000000001567e .LASF3828
C:\Users\CYMR90~1\AppData\Local\Temp\ccSmV8cy.s:33950  .debug_str:000000000002b62b .LASF3829
C:\Users\CYMR90~1\AppData\Local\Temp\ccSmV8cy.s:27165  .debug_str:0000000000010ac4 .LASF3830
C:\Users\CYMR90~1\AppData\Local\Temp\ccSmV8cy.s:31100  .debug_str:0000000000020474 .LASF3831
C:\Users\CYMR90~1\AppData\Local\Temp\ccSmV8cy.s:26745  .debug_str:000000000000f107 .LASF3832
C:\Users\CYMR90~1\AppData\Local\Temp\ccSmV8cy.s:24371  .debug_str:00000000000059f4 .LASF3833
C:\Users\CYMR90~1\AppData\Local\Temp\ccSmV8cy.s:26213  .debug_str:000000000000d06d .LASF3834
C:\Users\CYMR90~1\AppData\Local\Temp\ccSmV8cy.s:31416  .debug_str:00000000000217cd .LASF3835
C:\Users\CYMR90~1\AppData\Local\Temp\ccSmV8cy.s:34236  .debug_str:000000000002c8b7 .LASF3836
C:\Users\CYMR90~1\AppData\Local\Temp\ccSmV8cy.s:26939  .debug_str:000000000000fce1 .LASF3837
C:\Users\CYMR90~1\AppData\Local\Temp\ccSmV8cy.s:25307  .debug_str:00000000000095a7 .LASF3838
C:\Users\CYMR90~1\AppData\Local\Temp\ccSmV8cy.s:33914  .debug_str:000000000002b3ff .LASF3839
C:\Users\CYMR90~1\AppData\Local\Temp\ccSmV8cy.s:32064  .debug_str:0000000000023ebf .LASF3840
C:\Users\CYMR90~1\AppData\Local\Temp\ccSmV8cy.s:33372  .debug_str:00000000000293fa .LASF3841
C:\Users\CYMR90~1\AppData\Local\Temp\ccSmV8cy.s:24685  .debug_str:0000000000006d56 .LASF3842
C:\Users\CYMR90~1\AppData\Local\Temp\ccSmV8cy.s:29692  .debug_str:000000000001ac40 .LASF3843
C:\Users\CYMR90~1\AppData\Local\Temp\ccSmV8cy.s:33534  .debug_str:0000000000029e23 .LASF3844
C:\Users\CYMR90~1\AppData\Local\Temp\ccSmV8cy.s:31360  .debug_str:0000000000021497 .LASF3845
C:\Users\CYMR90~1\AppData\Local\Temp\ccSmV8cy.s:32538  .debug_str:0000000000025df5 .LASF3846
C:\Users\CYMR90~1\AppData\Local\Temp\ccSmV8cy.s:29610  .debug_str:000000000001a64f .LASF3847
C:\Users\CYMR90~1\AppData\Local\Temp\ccSmV8cy.s:29734  .debug_str:000000000001af45 .LASF3848
C:\Users\CYMR90~1\AppData\Local\Temp\ccSmV8cy.s:26941  .debug_str:000000000000fd03 .LASF3849
C:\Users\CYMR90~1\AppData\Local\Temp\ccSmV8cy.s:23523  .debug_str:0000000000002424 .LASF3850
C:\Users\CYMR90~1\AppData\Local\Temp\ccSmV8cy.s:25641  .debug_str:000000000000a9f6 .LASF3851
C:\Users\CYMR90~1\AppData\Local\Temp\ccSmV8cy.s:30728  .debug_str:000000000001ee4b .LASF3852
C:\Users\CYMR90~1\AppData\Local\Temp\ccSmV8cy.s:28924  .debug_str:0000000000017b9a .LASF3853
C:\Users\CYMR90~1\AppData\Local\Temp\ccSmV8cy.s:26335  .debug_str:000000000000d7a1 .LASF3854
C:\Users\CYMR90~1\AppData\Local\Temp\ccSmV8cy.s:34290  .debug_str:000000000002cbb4 .LASF3855
C:\Users\CYMR90~1\AppData\Local\Temp\ccSmV8cy.s:28759  .debug_str:0000000000016f7c .LASF3856
C:\Users\CYMR90~1\AppData\Local\Temp\ccSmV8cy.s:33944  .debug_str:000000000002b5cb .LASF3857
C:\Users\CYMR90~1\AppData\Local\Temp\ccSmV8cy.s:23739  .debug_str:00000000000031f8 .LASF3858
C:\Users\CYMR90~1\AppData\Local\Temp\ccSmV8cy.s:30972  .debug_str:000000000001fd03 .LASF3859
C:\Users\CYMR90~1\AppData\Local\Temp\ccSmV8cy.s:28769  .debug_str:0000000000017042 .LASF3860
C:\Users\CYMR90~1\AppData\Local\Temp\ccSmV8cy.s:25195  .debug_str:0000000000008ec4 .LASF3861
C:\Users\CYMR90~1\AppData\Local\Temp\ccSmV8cy.s:33042  .debug_str:0000000000027e61 .LASF3862
C:\Users\CYMR90~1\AppData\Local\Temp\ccSmV8cy.s:31950  .debug_str:0000000000023832 .LASF3863
C:\Users\CYMR90~1\AppData\Local\Temp\ccSmV8cy.s:23497  .debug_str:00000000000022ad .LASF3864
C:\Users\CYMR90~1\AppData\Local\Temp\ccSmV8cy.s:24643  .debug_str:0000000000006aa8 .LASF3865
C:\Users\CYMR90~1\AppData\Local\Temp\ccSmV8cy.s:23665  .debug_str:0000000000002d4e .LASF3866
C:\Users\CYMR90~1\AppData\Local\Temp\ccSmV8cy.s:30660  .debug_str:000000000001ea2b .LASF3867
C:\Users\CYMR90~1\AppData\Local\Temp\ccSmV8cy.s:25019  .debug_str:000000000000842b .LASF3868
C:\Users\CYMR90~1\AppData\Local\Temp\ccSmV8cy.s:26395  .debug_str:000000000000dbde .LASF3869
C:\Users\CYMR90~1\AppData\Local\Temp\ccSmV8cy.s:30236  .debug_str:000000000001cdce .LASF3870
C:\Users\CYMR90~1\AppData\Local\Temp\ccSmV8cy.s:30334  .debug_str:000000000001d4ca .LASF3871
C:\Users\CYMR90~1\AppData\Local\Temp\ccSmV8cy.s:30480  .debug_str:000000000001de9d .LASF3872
C:\Users\CYMR90~1\AppData\Local\Temp\ccSmV8cy.s:33284  .debug_str:0000000000028e0e .LASF3873
C:\Users\CYMR90~1\AppData\Local\Temp\ccSmV8cy.s:26969  .debug_str:000000000000fe65 .LASF3874
C:\Users\CYMR90~1\AppData\Local\Temp\ccSmV8cy.s:33688  .debug_str:000000000002a727 .LASF3875
C:\Users\CYMR90~1\AppData\Local\Temp\ccSmV8cy.s:30384  .debug_str:000000000001d8e2 .LASF3876
C:\Users\CYMR90~1\AppData\Local\Temp\ccSmV8cy.s:33850  .debug_str:000000000002b0a8 .LASF3877
C:\Users\CYMR90~1\AppData\Local\Temp\ccSmV8cy.s:25825  .debug_str:000000000000b717 .LASF3878
C:\Users\CYMR90~1\AppData\Local\Temp\ccSmV8cy.s:30138  .debug_str:000000000001c7f3 .LASF3879
C:\Users\CYMR90~1\AppData\Local\Temp\ccSmV8cy.s:27211  .debug_str:0000000000010d74 .LASF3880
C:\Users\CYMR90~1\AppData\Local\Temp\ccSmV8cy.s:23565  .debug_str:00000000000026d4 .LASF3881
C:\Users\CYMR90~1\AppData\Local\Temp\ccSmV8cy.s:31936  .debug_str:000000000002375e .LASF3882
C:\Users\CYMR90~1\AppData\Local\Temp\ccSmV8cy.s:24385  .debug_str:0000000000005af7 .LASF3883
C:\Users\CYMR90~1\AppData\Local\Temp\ccSmV8cy.s:23135  .debug_str:0000000000000c6a .LASF3884
C:\Users\CYMR90~1\AppData\Local\Temp\ccSmV8cy.s:24215  .debug_str:00000000000050a8 .LASF3885
C:\Users\CYMR90~1\AppData\Local\Temp\ccSmV8cy.s:24871  .debug_str:000000000000795f .LASF3886
C:\Users\CYMR90~1\AppData\Local\Temp\ccSmV8cy.s:32758  .debug_str:0000000000026c8c .LASF3887
C:\Users\CYMR90~1\AppData\Local\Temp\ccSmV8cy.s:34062  .debug_str:000000000002bd12 .LASF3888
C:\Users\CYMR90~1\AppData\Local\Temp\ccSmV8cy.s:22981  .debug_str:0000000000000322 .LASF3889
C:\Users\CYMR90~1\AppData\Local\Temp\ccSmV8cy.s:29602  .debug_str:000000000001a5de .LASF3890
C:\Users\CYMR90~1\AppData\Local\Temp\ccSmV8cy.s:25585  .debug_str:000000000000a702 .LASF3891
C:\Users\CYMR90~1\AppData\Local\Temp\ccSmV8cy.s:25235  .debug_str:000000000000919f .LASF3892
C:\Users\CYMR90~1\AppData\Local\Temp\ccSmV8cy.s:31088  .debug_str:00000000000203d2 .LASF3893
C:\Users\CYMR90~1\AppData\Local\Temp\ccSmV8cy.s:31718  .debug_str:0000000000022a50 .LASF3894
C:\Users\CYMR90~1\AppData\Local\Temp\ccSmV8cy.s:27661  .debug_str:0000000000012aac .LASF3895
C:\Users\CYMR90~1\AppData\Local\Temp\ccSmV8cy.s:31008  .debug_str:000000000001fef7 .LASF3896
C:\Users\CYMR90~1\AppData\Local\Temp\ccSmV8cy.s:28868  .debug_str:000000000001782b .LASF3897
C:\Users\CYMR90~1\AppData\Local\Temp\ccSmV8cy.s:28587  .debug_str:00000000000164a0 .LASF3898
C:\Users\CYMR90~1\AppData\Local\Temp\ccSmV8cy.s:28149  .debug_str:0000000000014986 .LASF3899
C:\Users\CYMR90~1\AppData\Local\Temp\ccSmV8cy.s:24985  .debug_str:0000000000008163 .LASF3900
C:\Users\CYMR90~1\AppData\Local\Temp\ccSmV8cy.s:30976  .debug_str:000000000001fd35 .LASF3901
C:\Users\CYMR90~1\AppData\Local\Temp\ccSmV8cy.s:30518  .debug_str:000000000001e157 .LASF3902
C:\Users\CYMR90~1\AppData\Local\Temp\ccSmV8cy.s:34486  .debug_str:000000000002d8df .LASF3903
C:\Users\CYMR90~1\AppData\Local\Temp\ccSmV8cy.s:26631  .debug_str:000000000000e98f .LASF3904
C:\Users\CYMR90~1\AppData\Local\Temp\ccSmV8cy.s:29174  .debug_str:0000000000018aa4 .LASF3905
C:\Users\CYMR90~1\AppData\Local\Temp\ccSmV8cy.s:23357  .debug_str:0000000000001a81 .LASF3906
C:\Users\CYMR90~1\AppData\Local\Temp\ccSmV8cy.s:23997  .debug_str:000000000000429c .LASF3907
C:\Users\CYMR90~1\AppData\Local\Temp\ccSmV8cy.s:24001  .debug_str:00000000000042c5 .LASF3908
C:\Users\CYMR90~1\AppData\Local\Temp\ccSmV8cy.s:27295  .debug_str:0000000000011312 .LASF3909
C:\Users\CYMR90~1\AppData\Local\Temp\ccSmV8cy.s:31904  .debug_str:0000000000023591 .LASF3910
C:\Users\CYMR90~1\AppData\Local\Temp\ccSmV8cy.s:28279  .debug_str:0000000000015185 .LASF3911
C:\Users\CYMR90~1\AppData\Local\Temp\ccSmV8cy.s:31996  .debug_str:0000000000023a9c .LASF3912
C:\Users\CYMR90~1\AppData\Local\Temp\ccSmV8cy.s:30586  .debug_str:000000000001e5c1 .LASF3913
C:\Users\CYMR90~1\AppData\Local\Temp\ccSmV8cy.s:27261  .debug_str:0000000000011083 .LASF3914
C:\Users\CYMR90~1\AppData\Local\Temp\ccSmV8cy.s:32642  .debug_str:000000000002653c .LASF3915
C:\Users\CYMR90~1\AppData\Local\Temp\ccSmV8cy.s:32262  .debug_str:0000000000024b3b .LASF3916
C:\Users\CYMR90~1\AppData\Local\Temp\ccSmV8cy.s:27119  .debug_str:0000000000010815 .LASF3917
C:\Users\CYMR90~1\AppData\Local\Temp\ccSmV8cy.s:28465  .debug_str:0000000000015ce4 .LASF3918
C:\Users\CYMR90~1\AppData\Local\Temp\ccSmV8cy.s:34088  .debug_str:000000000002bed5 .LASF3919
C:\Users\CYMR90~1\AppData\Local\Temp\ccSmV8cy.s:32308  .debug_str:0000000000024e3b .LASF3920
C:\Users\CYMR90~1\AppData\Local\Temp\ccSmV8cy.s:28349  .debug_str:0000000000015640 .LASF3921
C:\Users\CYMR90~1\AppData\Local\Temp\ccSmV8cy.s:30546  .debug_str:000000000001e2e5 .LASF3922
C:\Users\CYMR90~1\AppData\Local\Temp\ccSmV8cy.s:26379  .debug_str:000000000000dacc .LASF3923
C:\Users\CYMR90~1\AppData\Local\Temp\ccSmV8cy.s:25191  .debug_str:0000000000008e8a .LASF3924
C:\Users\CYMR90~1\AppData\Local\Temp\ccSmV8cy.s:27265  .debug_str:00000000000110d1 .LASF3925
C:\Users\CYMR90~1\AppData\Local\Temp\ccSmV8cy.s:32408  .debug_str:0000000000025483 .LASF3926
C:\Users\CYMR90~1\AppData\Local\Temp\ccSmV8cy.s:28932  .debug_str:0000000000017bf6 .LASF3927
C:\Users\CYMR90~1\AppData\Local\Temp\ccSmV8cy.s:28699  .debug_str:0000000000016b7a .LASF3928
C:\Users\CYMR90~1\AppData\Local\Temp\ccSmV8cy.s:23947  .debug_str:0000000000003f58 .LASF3929
C:\Users\CYMR90~1\AppData\Local\Temp\ccSmV8cy.s:33064  .debug_str:0000000000027f9b .LASF3930
C:\Users\CYMR90~1\AppData\Local\Temp\ccSmV8cy.s:26603  .debug_str:000000000000e7ec .LASF3931
C:\Users\CYMR90~1\AppData\Local\Temp\ccSmV8cy.s:23989  .debug_str:0000000000004219 .LASF3932
C:\Users\CYMR90~1\AppData\Local\Temp\ccSmV8cy.s:29032  .debug_str:0000000000018252 .LASF3933
C:\Users\CYMR90~1\AppData\Local\Temp\ccSmV8cy.s:26599  .debug_str:000000000000e7ad .LASF3934
C:\Users\CYMR90~1\AppData\Local\Temp\ccSmV8cy.s:23509  .debug_str:000000000000235b .LASF3935
C:\Users\CYMR90~1\AppData\Local\Temp\ccSmV8cy.s:33922  .debug_str:000000000002b485 .LASF3936
C:\Users\CYMR90~1\AppData\Local\Temp\ccSmV8cy.s:26547  .debug_str:000000000000e48e .LASF3937
C:\Users\CYMR90~1\AppData\Local\Temp\ccSmV8cy.s:23695  .debug_str:0000000000002f2a .LASF3938
C:\Users\CYMR90~1\AppData\Local\Temp\ccSmV8cy.s:27819  .debug_str:00000000000134e0 .LASF3939
C:\Users\CYMR90~1\AppData\Local\Temp\ccSmV8cy.s:33640  .debug_str:000000000002a462 .LASF3940
C:\Users\CYMR90~1\AppData\Local\Temp\ccSmV8cy.s:29598  .debug_str:000000000001a5ab .LASF3941
C:\Users\CYMR90~1\AppData\Local\Temp\ccSmV8cy.s:29636  .debug_str:000000000001a7c1 .LASF3942
C:\Users\CYMR90~1\AppData\Local\Temp\ccSmV8cy.s:32580  .debug_str:00000000000260dc .LASF3943
C:\Users\CYMR90~1\AppData\Local\Temp\ccSmV8cy.s:33234  .debug_str:0000000000028a95 .LASF3944
C:\Users\CYMR90~1\AppData\Local\Temp\ccSmV8cy.s:34452  .debug_str:000000000002d639 .LASF3945
C:\Users\CYMR90~1\AppData\Local\Temp\ccSmV8cy.s:25719  .debug_str:000000000000afc4 .LASF3946
C:\Users\CYMR90~1\AppData\Local\Temp\ccSmV8cy.s:32038  .debug_str:0000000000023d12 .LASF3947
C:\Users\CYMR90~1\AppData\Local\Temp\ccSmV8cy.s:26065  .debug_str:000000000000c6d9 .LASF3948
C:\Users\CYMR90~1\AppData\Local\Temp\ccSmV8cy.s:27179  .debug_str:0000000000010bac .LASF3949
C:\Users\CYMR90~1\AppData\Local\Temp\ccSmV8cy.s:34334  .debug_str:000000000002cee6 .LASF3950
C:\Users\CYMR90~1\AppData\Local\Temp\ccSmV8cy.s:32444  .debug_str:00000000000256eb .LASF3951
C:\Users\CYMR90~1\AppData\Local\Temp\ccSmV8cy.s:32350  .debug_str:000000000002509b .LASF3952
C:\Users\CYMR90~1\AppData\Local\Temp\ccSmV8cy.s:24735  .debug_str:00000000000070a3 .LASF3953
C:\Users\CYMR90~1\AppData\Local\Temp\ccSmV8cy.s:28727  .debug_str:0000000000016d93 .LASF3954
C:\Users\CYMR90~1\AppData\Local\Temp\ccSmV8cy.s:33132  .debug_str:0000000000028363 .LASF3955
C:\Users\CYMR90~1\AppData\Local\Temp\ccSmV8cy.s:30314  .debug_str:000000000001d35b .LASF3956
C:\Users\CYMR90~1\AppData\Local\Temp\ccSmV8cy.s:32922  .debug_str:00000000000275fe .LASF3957
C:\Users\CYMR90~1\AppData\Local\Temp\ccSmV8cy.s:29038  .debug_str:00000000000182b2 .LASF3958
C:\Users\CYMR90~1\AppData\Local\Temp\ccSmV8cy.s:33676  .debug_str:000000000002a673 .LASF3959
C:\Users\CYMR90~1\AppData\Local\Temp\ccSmV8cy.s:25039  .debug_str:0000000000008592 .LASF3960
C:\Users\CYMR90~1\AppData\Local\Temp\ccSmV8cy.s:27381  .debug_str:00000000000117e2 .LASF3961
C:\Users\CYMR90~1\AppData\Local\Temp\ccSmV8cy.s:23511  .debug_str:0000000000002380 .LASF3962
C:\Users\CYMR90~1\AppData\Local\Temp\ccSmV8cy.s:30808  .debug_str:000000000001f30d .LASF3963
C:\Users\CYMR90~1\AppData\Local\Temp\ccSmV8cy.s:28719  .debug_str:0000000000016d20 .LASF3964
C:\Users\CYMR90~1\AppData\Local\Temp\ccSmV8cy.s:27811  .debug_str:000000000001345d .LASF3965
C:\Users\CYMR90~1\AppData\Local\Temp\ccSmV8cy.s:23981  .debug_str:00000000000041b6 .LASF3966
C:\Users\CYMR90~1\AppData\Local\Temp\ccSmV8cy.s:32664  .debug_str:00000000000266b3 .LASF3967
C:\Users\CYMR90~1\AppData\Local\Temp\ccSmV8cy.s:26681  .debug_str:000000000000ed27 .LASF3968
C:\Users\CYMR90~1\AppData\Local\Temp\ccSmV8cy.s:31554  .debug_str:0000000000022073 .LASF3969
C:\Users\CYMR90~1\AppData\Local\Temp\ccSmV8cy.s:28183  .debug_str:0000000000014b77 .LASF3970
C:\Users\CYMR90~1\AppData\Local\Temp\ccSmV8cy.s:25785  .debug_str:000000000000b4a0 .LASF3971
C:\Users\CYMR90~1\AppData\Local\Temp\ccSmV8cy.s:31368  .debug_str:00000000000214fb .LASF3972
C:\Users\CYMR90~1\AppData\Local\Temp\ccSmV8cy.s:32770  .debug_str:0000000000026d1f .LASF3973
C:\Users\CYMR90~1\AppData\Local\Temp\ccSmV8cy.s:31050  .debug_str:0000000000020175 .LASF3974
C:\Users\CYMR90~1\AppData\Local\Temp\ccSmV8cy.s:31660  .debug_str:00000000000226f1 .LASF3975
C:\Users\CYMR90~1\AppData\Local\Temp\ccSmV8cy.s:29864  .debug_str:000000000001b78b .LASF3976
C:\Users\CYMR90~1\AppData\Local\Temp\ccSmV8cy.s:31212  .debug_str:0000000000020b2d .LASF3977
C:\Users\CYMR90~1\AppData\Local\Temp\ccSmV8cy.s:32720  .debug_str:0000000000026a3d .LASF3978
C:\Users\CYMR90~1\AppData\Local\Temp\ccSmV8cy.s:29868  .debug_str:000000000001b7dc .LASF3979
C:\Users\CYMR90~1\AppData\Local\Temp\ccSmV8cy.s:30916  .debug_str:000000000001f98d .LASF3980
C:\Users\CYMR90~1\AppData\Local\Temp\ccSmV8cy.s:34516  .debug_str:000000000002da68 .LASF3981
C:\Users\CYMR90~1\AppData\Local\Temp\ccSmV8cy.s:24601  .debug_str:00000000000067e4 .LASF3982
C:\Users\CYMR90~1\AppData\Local\Temp\ccSmV8cy.s:25015  .debug_str:00000000000083ef .LASF3983
C:\Users\CYMR90~1\AppData\Local\Temp\ccSmV8cy.s:23115  .debug_str:0000000000000acf .LASF3984
C:\Users\CYMR90~1\AppData\Local\Temp\ccSmV8cy.s:31860  .debug_str:00000000000232b9 .LASF3985
C:\Users\CYMR90~1\AppData\Local\Temp\ccSmV8cy.s:28203  .debug_str:0000000000014d1f .LASF3986
C:\Users\CYMR90~1\AppData\Local\Temp\ccSmV8cy.s:23117  .debug_str:0000000000000af1 .LASF3987
C:\Users\CYMR90~1\AppData\Local\Temp\ccSmV8cy.s:27973  .debug_str:0000000000013eef .LASF3988
C:\Users\CYMR90~1\AppData\Local\Temp\ccSmV8cy.s:33524  .debug_str:0000000000029d85 .LASF3989
C:\Users\CYMR90~1\AppData\Local\Temp\ccSmV8cy.s:27881  .debug_str:00000000000138c3 .LASF3990
C:\Users\CYMR90~1\AppData\Local\Temp\ccSmV8cy.s:30360  .debug_str:000000000001d715 .LASF3991
C:\Users\CYMR90~1\AppData\Local\Temp\ccSmV8cy.s:28325  .debug_str:00000000000154ab .LASF3992
C:\Users\CYMR90~1\AppData\Local\Temp\ccSmV8cy.s:23487  .debug_str:00000000000021f6 .LASF3993
C:\Users\CYMR90~1\AppData\Local\Temp\ccSmV8cy.s:24995  .debug_str:0000000000008210 .LASF3994
C:\Users\CYMR90~1\AppData\Local\Temp\ccSmV8cy.s:25873  .debug_str:000000000000ba21 .LASF3995
C:\Users\CYMR90~1\AppData\Local\Temp\ccSmV8cy.s:29800  .debug_str:000000000001b332 .LASF3996
C:\Users\CYMR90~1\AppData\Local\Temp\ccSmV8cy.s:31228  .debug_str:0000000000020c02 .LASF3997
C:\Users\CYMR90~1\AppData\Local\Temp\ccSmV8cy.s:24071  .debug_str:00000000000046ff .LASF3998
C:\Users\CYMR90~1\AppData\Local\Temp\ccSmV8cy.s:25123  .debug_str:0000000000008a7b .LASF3999
C:\Users\CYMR90~1\AppData\Local\Temp\ccSmV8cy.s:26807  .debug_str:000000000000f47c .LASF4000
C:\Users\CYMR90~1\AppData\Local\Temp\ccSmV8cy.s:30640  .debug_str:000000000001e8f4 .LASF4001
C:\Users\CYMR90~1\AppData\Local\Temp\ccSmV8cy.s:32278  .debug_str:0000000000024c5d .LASF4002
C:\Users\CYMR90~1\AppData\Local\Temp\ccSmV8cy.s:33822  .debug_str:000000000002aef2 .LASF4003
C:\Users\CYMR90~1\AppData\Local\Temp\ccSmV8cy.s:29180  .debug_str:0000000000018af1 .LASF4004
C:\Users\CYMR90~1\AppData\Local\Temp\ccSmV8cy.s:31630  .debug_str:0000000000022538 .LASF4005
C:\Users\CYMR90~1\AppData\Local\Temp\ccSmV8cy.s:25399  .debug_str:0000000000009af8 .LASF4006
C:\Users\CYMR90~1\AppData\Local\Temp\ccSmV8cy.s:32078  .debug_str:0000000000023fb5 .LASF4007
C:\Users\CYMR90~1\AppData\Local\Temp\ccSmV8cy.s:28345  .debug_str:00000000000155fb .LASF4008
C:\Users\CYMR90~1\AppData\Local\Temp\ccSmV8cy.s:31798  .debug_str:0000000000022ec9 .LASF4009
C:\Users\CYMR90~1\AppData\Local\Temp\ccSmV8cy.s:25823  .debug_str:000000000000b6ee .LASF4010
C:\Users\CYMR90~1\AppData\Local\Temp\ccSmV8cy.s:33516  .debug_str:0000000000029d11 .LASF4011
C:\Users\CYMR90~1\AppData\Local\Temp\ccSmV8cy.s:28439  .debug_str:0000000000015b89 .LASF4012
C:\Users\CYMR90~1\AppData\Local\Temp\ccSmV8cy.s:31564  .debug_str:0000000000022122 .LASF4013
C:\Users\CYMR90~1\AppData\Local\Temp\ccSmV8cy.s:33932  .debug_str:000000000002b522 .LASF4014
C:\Users\CYMR90~1\AppData\Local\Temp\ccSmV8cy.s:23089  .debug_str:0000000000000925 .LASF4015
C:\Users\CYMR90~1\AppData\Local\Temp\ccSmV8cy.s:28980  .debug_str:0000000000017efc .LASF4016
C:\Users\CYMR90~1\AppData\Local\Temp\ccSmV8cy.s:30850  .debug_str:000000000001f54b .LASF4017
C:\Users\CYMR90~1\AppData\Local\Temp\ccSmV8cy.s:25555  .debug_str:000000000000a4f4 .LASF4018
C:\Users\CYMR90~1\AppData\Local\Temp\ccSmV8cy.s:24345  .debug_str:0000000000005874 .LASF4019
C:\Users\CYMR90~1\AppData\Local\Temp\ccSmV8cy.s:26937  .debug_str:000000000000fcb7 .LASF4020
C:\Users\CYMR90~1\AppData\Local\Temp\ccSmV8cy.s:29260  .debug_str:0000000000018faf .LASF4021
C:\Users\CYMR90~1\AppData\Local\Temp\ccSmV8cy.s:23587  .debug_str:0000000000002854 .LASF4022
C:\Users\CYMR90~1\AppData\Local\Temp\ccSmV8cy.s:29508  .debug_str:000000000001a087 .LASF4023
C:\Users\CYMR90~1\AppData\Local\Temp\ccSmV8cy.s:30906  .debug_str:000000000001f8d9 .LASF4024
C:\Users\CYMR90~1\AppData\Local\Temp\ccSmV8cy.s:32940  .debug_str:0000000000027750 .LASF4025
C:\Users\CYMR90~1\AppData\Local\Temp\ccSmV8cy.s:24583  .debug_str:00000000000066e2 .LASF4026
C:\Users\CYMR90~1\AppData\Local\Temp\ccSmV8cy.s:27731  .debug_str:0000000000012f2e .LASF4027
C:\Users\CYMR90~1\AppData\Local\Temp\ccSmV8cy.s:30148  .debug_str:000000000001c899 .LASF4028
C:\Users\CYMR90~1\AppData\Local\Temp\ccSmV8cy.s:29510  .debug_str:000000000001a0b3 .LASF4029
C:\Users\CYMR90~1\AppData\Local\Temp\ccSmV8cy.s:28315  .debug_str:00000000000153ea .LASF4030
C:\Users\CYMR90~1\AppData\Local\Temp\ccSmV8cy.s:25997  .debug_str:000000000000c296 .LASF4031
C:\Users\CYMR90~1\AppData\Local\Temp\ccSmV8cy.s:29092  .debug_str:00000000000185e9 .LASF4032
C:\Users\CYMR90~1\AppData\Local\Temp\ccSmV8cy.s:28077  .debug_str:0000000000014519 .LASF4033
C:\Users\CYMR90~1\AppData\Local\Temp\ccSmV8cy.s:32526  .debug_str:0000000000025d15 .LASF4034
C:\Users\CYMR90~1\AppData\Local\Temp\ccSmV8cy.s:31350  .debug_str:0000000000021433 .LASF4035
C:\Users\CYMR90~1\AppData\Local\Temp\ccSmV8cy.s:34450  .debug_str:000000000002d617 .LASF4036
C:\Users\CYMR90~1\AppData\Local\Temp\ccSmV8cy.s:23717  .debug_str:0000000000003076 .LASF4037
C:\Users\CYMR90~1\AppData\Local\Temp\ccSmV8cy.s:24913  .debug_str:0000000000007c30 .LASF4038
C:\Users\CYMR90~1\AppData\Local\Temp\ccSmV8cy.s:33714  .debug_str:000000000002a880 .LASF4039
C:\Users\CYMR90~1\AppData\Local\Temp\ccSmV8cy.s:28467  .debug_str:0000000000015cfd .LASF4040
C:\Users\CYMR90~1\AppData\Local\Temp\ccSmV8cy.s:26975  .debug_str:000000000000febb .LASF4041
C:\Users\CYMR90~1\AppData\Local\Temp\ccSmV8cy.s:23657  .debug_str:0000000000002ce6 .LASF4042
C:\Users\CYMR90~1\AppData\Local\Temp\ccSmV8cy.s:27005  .debug_str:0000000000010088 .LASF4043
C:\Users\CYMR90~1\AppData\Local\Temp\ccSmV8cy.s:28882  .debug_str:00000000000178ff .LASF4044
C:\Users\CYMR90~1\AppData\Local\Temp\ccSmV8cy.s:32294  .debug_str:0000000000024d63 .LASF4045
C:\Users\CYMR90~1\AppData\Local\Temp\ccSmV8cy.s:23165  .debug_str:0000000000000e02 .LASF4046
C:\Users\CYMR90~1\AppData\Local\Temp\ccSmV8cy.s:25435  .debug_str:0000000000009d93 .LASF4047
C:\Users\CYMR90~1\AppData\Local\Temp\ccSmV8cy.s:28339  .debug_str:000000000001559d .LASF4048
C:\Users\CYMR90~1\AppData\Local\Temp\ccSmV8cy.s:25177  .debug_str:0000000000008dc3 .LASF4049
C:\Users\CYMR90~1\AppData\Local\Temp\ccSmV8cy.s:25111  .debug_str:00000000000089c7 .LASF4050
C:\Users\CYMR90~1\AppData\Local\Temp\ccSmV8cy.s:33980  .debug_str:000000000002b7df .LASF4051
C:\Users\CYMR90~1\AppData\Local\Temp\ccSmV8cy.s:32236  .debug_str:00000000000249a0 .LASF4052
C:\Users\CYMR90~1\AppData\Local\Temp\ccSmV8cy.s:33964  .debug_str:000000000002b70d .LASF4053
C:\Users\CYMR90~1\AppData\Local\Temp\ccSmV8cy.s:29708  .debug_str:000000000001ad53 .LASF4054
C:\Users\CYMR90~1\AppData\Local\Temp\ccSmV8cy.s:33448  .debug_str:0000000000029845 .LASF4055
C:\Users\CYMR90~1\AppData\Local\Temp\ccSmV8cy.s:33130  .debug_str:0000000000028341 .LASF4056
C:\Users\CYMR90~1\AppData\Local\Temp\ccSmV8cy.s:25411  .debug_str:0000000000009bfe .LASF4057
C:\Users\CYMR90~1\AppData\Local\Temp\ccSmV8cy.s:32866  .debug_str:00000000000272f3 .LASF4058
C:\Users\CYMR90~1\AppData\Local\Temp\ccSmV8cy.s:29138  .debug_str:0000000000018880 .LASF4059
C:\Users\CYMR90~1\AppData\Local\Temp\ccSmV8cy.s:29046  .debug_str:000000000001831e .LASF4060
C:\Users\CYMR90~1\AppData\Local\Temp\ccSmV8cy.s:26141  .debug_str:000000000000cb6f .LASF4061
C:\Users\CYMR90~1\AppData\Local\Temp\ccSmV8cy.s:26865  .debug_str:000000000000f7e6 .LASF4062
C:\Users\CYMR90~1\AppData\Local\Temp\ccSmV8cy.s:30338  .debug_str:000000000001d50e .LASF4063
C:\Users\CYMR90~1\AppData\Local\Temp\ccSmV8cy.s:30554  .debug_str:000000000001e349 .LASF4064
C:\Users\CYMR90~1\AppData\Local\Temp\ccSmV8cy.s:26165  .debug_str:000000000000cd31 .LASF4065
C:\Users\CYMR90~1\AppData\Local\Temp\ccSmV8cy.s:32502  .debug_str:0000000000025b93 .LASF4066
C:\Users\CYMR90~1\AppData\Local\Temp\ccSmV8cy.s:25547  .debug_str:000000000000a47e .LASF4067
C:\Users\CYMR90~1\AppData\Local\Temp\ccSmV8cy.s:32318  .debug_str:0000000000024ec0 .LASF4068
C:\Users\CYMR90~1\AppData\Local\Temp\ccSmV8cy.s:30086  .debug_str:000000000001c4f5 .LASF4069
C:\Users\CYMR90~1\AppData\Local\Temp\ccSmV8cy.s:28986  .debug_str:0000000000017f60 .LASF4070
C:\Users\CYMR90~1\AppData\Local\Temp\ccSmV8cy.s:27199  .debug_str:0000000000010cd4 .LASF4071
C:\Users\CYMR90~1\AppData\Local\Temp\ccSmV8cy.s:23437  .debug_str:0000000000001f5a .LASF4072
C:\Users\CYMR90~1\AppData\Local\Temp\ccSmV8cy.s:30650  .debug_str:000000000001e989 .LASF4073
C:\Users\CYMR90~1\AppData\Local\Temp\ccSmV8cy.s:30170  .debug_str:000000000001c9d0 .LASF4074
C:\Users\CYMR90~1\AppData\Local\Temp\ccSmV8cy.s:28233  .debug_str:0000000000014ed4 .LASF4075
C:\Users\CYMR90~1\AppData\Local\Temp\ccSmV8cy.s:24063  .debug_str:000000000000467e .LASF4076
C:\Users\CYMR90~1\AppData\Local\Temp\ccSmV8cy.s:29798  .debug_str:000000000001b306 .LASF4077
C:\Users\CYMR90~1\AppData\Local\Temp\ccSmV8cy.s:32608  .debug_str:000000000002630f .LASF4078
C:\Users\CYMR90~1\AppData\Local\Temp\ccSmV8cy.s:34510  .debug_str:000000000002da08 .LASF4079
C:\Users\CYMR90~1\AppData\Local\Temp\ccSmV8cy.s:24537  .debug_str:00000000000063fb .LASF4080
C:\Users\CYMR90~1\AppData\Local\Temp\ccSmV8cy.s:22931  .debug_str:000000000000003c .LASF4081
C:\Users\CYMR90~1\AppData\Local\Temp\ccSmV8cy.s:33436  .debug_str:000000000002979b .LASF4082
C:\Users\CYMR90~1\AppData\Local\Temp\ccSmV8cy.s:27849  .debug_str:00000000000136c6 .LASF4083
C:\Users\CYMR90~1\AppData\Local\Temp\ccSmV8cy.s:34180  .debug_str:000000000002c4ca .LASF4084
C:\Users\CYMR90~1\AppData\Local\Temp\ccSmV8cy.s:28491  .debug_str:0000000000015e66 .LASF4085
C:\Users\CYMR90~1\AppData\Local\Temp\ccSmV8cy.s:25949  .debug_str:000000000000bf49 .LASF4086
C:\Users\CYMR90~1\AppData\Local\Temp\ccSmV8cy.s:28329  .debug_str:00000000000154f2 .LASF4087
C:\Users\CYMR90~1\AppData\Local\Temp\ccSmV8cy.s:25901  .debug_str:000000000000bc1f .LASF4088
C:\Users\CYMR90~1\AppData\Local\Temp\ccSmV8cy.s:28537  .debug_str:000000000001613e .LASF4089
C:\Users\CYMR90~1\AppData\Local\Temp\ccSmV8cy.s:27405  .debug_str:000000000001197c .LASF4090
C:\Users\CYMR90~1\AppData\Local\Temp\ccSmV8cy.s:32780  .debug_str:0000000000026dc8 .LASF4091
C:\Users\CYMR90~1\AppData\Local\Temp\ccSmV8cy.s:29436  .debug_str:0000000000019bac .LASF4092
C:\Users\CYMR90~1\AppData\Local\Temp\ccSmV8cy.s:28409  .debug_str:00000000000159df .LASF4093
C:\Users\CYMR90~1\AppData\Local\Temp\ccSmV8cy.s:32840  .debug_str:000000000002719a .LASF4094
C:\Users\CYMR90~1\AppData\Local\Temp\ccSmV8cy.s:28273  .debug_str:0000000000015148 .LASF4095
C:\Users\CYMR90~1\AppData\Local\Temp\ccSmV8cy.s:24873  .debug_str:0000000000007981 .LASF4096
C:\Users\CYMR90~1\AppData\Local\Temp\ccSmV8cy.s:34116  .debug_str:000000000002c06d .LASF4097
C:\Users\CYMR90~1\AppData\Local\Temp\ccSmV8cy.s:34246  .debug_str:000000000002c935 .LASF4098
C:\Users\CYMR90~1\AppData\Local\Temp\ccSmV8cy.s:31898  .debug_str:0000000000023559 .LASF4099
C:\Users\CYMR90~1\AppData\Local\Temp\ccSmV8cy.s:24243  .debug_str:000000000000524f .LASF4100
C:\Users\CYMR90~1\AppData\Local\Temp\ccSmV8cy.s:25943  .debug_str:000000000000bf0a .LASF4101
C:\Users\CYMR90~1\AppData\Local\Temp\ccSmV8cy.s:29210  .debug_str:0000000000018cca .LASF4102
C:\Users\CYMR90~1\AppData\Local\Temp\ccSmV8cy.s:24151  .debug_str:0000000000004cc3 .LASF4103
C:\Users\CYMR90~1\AppData\Local\Temp\ccSmV8cy.s:23785  .debug_str:0000000000003508 .LASF4104
C:\Users\CYMR90~1\AppData\Local\Temp\ccSmV8cy.s:29686  .debug_str:000000000001abe9 .LASF4105
C:\Users\CYMR90~1\AppData\Local\Temp\ccSmV8cy.s:27249  .debug_str:0000000000010fa3 .LASF4106
C:\Users\CYMR90~1\AppData\Local\Temp\ccSmV8cy.s:32828  .debug_str:00000000000270ea .LASF4107
C:\Users\CYMR90~1\AppData\Local\Temp\ccSmV8cy.s:27843  .debug_str:0000000000013667 .LASF4108
C:\Users\CYMR90~1\AppData\Local\Temp\ccSmV8cy.s:25781  .debug_str:000000000000b45e .LASF4109
C:\Users\CYMR90~1\AppData\Local\Temp\ccSmV8cy.s:29310  .debug_str:000000000001937b .LASF4110
C:\Users\CYMR90~1\AppData\Local\Temp\ccSmV8cy.s:30248  .debug_str:000000000001ce74 .LASF4111
C:\Users\CYMR90~1\AppData\Local\Temp\ccSmV8cy.s:24503  .debug_str:000000000000621b .LASF4112
C:\Users\CYMR90~1\AppData\Local\Temp\ccSmV8cy.s:29792  .debug_str:000000000001b2c4 .LASF4113
C:\Users\CYMR90~1\AppData\Local\Temp\ccSmV8cy.s:28423  .debug_str:0000000000015a94 .LASF4114
C:\Users\CYMR90~1\AppData\Local\Temp\ccSmV8cy.s:31156  .debug_str:000000000002080f .LASF4115
C:\Users\CYMR90~1\AppData\Local\Temp\ccSmV8cy.s:33354  .debug_str:00000000000292c6 .LASF4116
C:\Users\CYMR90~1\AppData\Local\Temp\ccSmV8cy.s:28055  .debug_str:00000000000143b4 .LASF4117
C:\Users\CYMR90~1\AppData\Local\Temp\ccSmV8cy.s:27987  .debug_str:0000000000013fb7 .LASF4118
C:\Users\CYMR90~1\AppData\Local\Temp\ccSmV8cy.s:23541  .debug_str:000000000000255b .LASF4119
C:\Users\CYMR90~1\AppData\Local\Temp\ccSmV8cy.s:33892  .debug_str:000000000002b2ee .LASF4120
C:\Users\CYMR90~1\AppData\Local\Temp\ccSmV8cy.s:30190  .debug_str:000000000001caff .LASF4121
C:\Users\CYMR90~1\AppData\Local\Temp\ccSmV8cy.s:30940  .debug_str:000000000001fae6 .LASF4122
C:\Users\CYMR90~1\AppData\Local\Temp\ccSmV8cy.s:24651  .debug_str:0000000000006b1a .LASF4123
C:\Users\CYMR90~1\AppData\Local\Temp\ccSmV8cy.s:33440  .debug_str:00000000000297df .LASF4124
C:\Users\CYMR90~1\AppData\Local\Temp\ccSmV8cy.s:25269  .debug_str:0000000000009383 .LASF4125
C:\Users\CYMR90~1\AppData\Local\Temp\ccSmV8cy.s:25437  .debug_str:0000000000009db6 .LASF4126
C:\Users\CYMR90~1\AppData\Local\Temp\ccSmV8cy.s:27007  .debug_str:00000000000100aa .LASF4127
C:\Users\CYMR90~1\AppData\Local\Temp\ccSmV8cy.s:34268  .debug_str:000000000002ca72 .LASF4128
C:\Users\CYMR90~1\AppData\Local\Temp\ccSmV8cy.s:26131  .debug_str:000000000000ca9b .LASF4129
C:\Users\CYMR90~1\AppData\Local\Temp\ccSmV8cy.s:28703  .debug_str:0000000000016bbd .LASF4130
C:\Users\CYMR90~1\AppData\Local\Temp\ccSmV8cy.s:27775  .debug_str:0000000000013213 .LASF4131
C:\Users\CYMR90~1\AppData\Local\Temp\ccSmV8cy.s:25769  .debug_str:000000000000b397 .LASF4132
C:\Users\CYMR90~1\AppData\Local\Temp\ccSmV8cy.s:28343  .debug_str:00000000000155e2 .LASF4133
C:\Users\CYMR90~1\AppData\Local\Temp\ccSmV8cy.s:24791  .debug_str:0000000000007457 .LASF4134
C:\Users\CYMR90~1\AppData\Local\Temp\ccSmV8cy.s:29134  .debug_str:0000000000018843 .LASF4135
C:\Users\CYMR90~1\AppData\Local\Temp\ccSmV8cy.s:26959  .debug_str:000000000000fded .LASF4136
C:\Users\CYMR90~1\AppData\Local\Temp\ccSmV8cy.s:31752  .debug_str:0000000000022c4f .LASF4137
C:\Users\CYMR90~1\AppData\Local\Temp\ccSmV8cy.s:24947  .debug_str:0000000000007e65 .LASF4138
C:\Users\CYMR90~1\AppData\Local\Temp\ccSmV8cy.s:29818  .debug_str:000000000001b423 .LASF4139
C:\Users\CYMR90~1\AppData\Local\Temp\ccSmV8cy.s:34530  .debug_str:000000000002db39 .LASF4140
C:\Users\CYMR90~1\AppData\Local\Temp\ccSmV8cy.s:23851  .debug_str:000000000000395a .LASF4141
C:\Users\CYMR90~1\AppData\Local\Temp\ccSmV8cy.s:34500  .debug_str:000000000002d973 .LASF4142
C:\Users\CYMR90~1\AppData\Local\Temp\ccSmV8cy.s:31812  .debug_str:0000000000022fc5 .LASF4143
C:\Users\CYMR90~1\AppData\Local\Temp\ccSmV8cy.s:24219  .debug_str:00000000000050e6 .LASF4144
C:\Users\CYMR90~1\AppData\Local\Temp\ccSmV8cy.s:33012  .debug_str:0000000000027bec .LASF4145
C:\Users\CYMR90~1\AppData\Local\Temp\ccSmV8cy.s:27399  .debug_str:000000000001190b .LASF4146
C:\Users\CYMR90~1\AppData\Local\Temp\ccSmV8cy.s:26369  .debug_str:000000000000da1d .LASF4147
C:\Users\CYMR90~1\AppData\Local\Temp\ccSmV8cy.s:23485  .debug_str:00000000000021d9 .LASF4148
C:\Users\CYMR90~1\AppData\Local\Temp\ccSmV8cy.s:31176  .debug_str:0000000000020942 .LASF4149
C:\Users\CYMR90~1\AppData\Local\Temp\ccSmV8cy.s:27941  .debug_str:0000000000013d0a .LASF4150
C:\Users\CYMR90~1\AppData\Local\Temp\ccSmV8cy.s:33010  .debug_str:0000000000027bc9 .LASF4151
C:\Users\CYMR90~1\AppData\Local\Temp\ccSmV8cy.s:23365  .debug_str:0000000000001ae3 .LASF4152
C:\Users\CYMR90~1\AppData\Local\Temp\ccSmV8cy.s:26983  .debug_str:000000000000ff35 .LASF4153
C:\Users\CYMR90~1\AppData\Local\Temp\ccSmV8cy.s:25313  .debug_str:00000000000095ff .LASF4154
C:\Users\CYMR90~1\AppData\Local\Temp\ccSmV8cy.s:31470  .debug_str:0000000000021ab2 .LASF4155
C:\Users\CYMR90~1\AppData\Local\Temp\ccSmV8cy.s:33946  .debug_str:000000000002b5f1 .LASF4156
C:\Users\CYMR90~1\AppData\Local\Temp\ccSmV8cy.s:28856  .debug_str:00000000000177a5 .LASF4157
C:\Users\CYMR90~1\AppData\Local\Temp\ccSmV8cy.s:28970  .debug_str:0000000000017e5b .LASF4158
C:\Users\CYMR90~1\AppData\Local\Temp\ccSmV8cy.s:30572  .debug_str:000000000001e46a .LASF4159
C:\Users\CYMR90~1\AppData\Local\Temp\ccSmV8cy.s:25565  .debug_str:000000000000a5a5 .LASF4160
C:\Users\CYMR90~1\AppData\Local\Temp\ccSmV8cy.s:31016  .debug_str:000000000001ff76 .LASF4161
C:\Users\CYMR90~1\AppData\Local\Temp\ccSmV8cy.s:32766  .debug_str:0000000000026ceb .LASF4162
C:\Users\CYMR90~1\AppData\Local\Temp\ccSmV8cy.s:27767  .debug_str:00000000000131a6 .LASF4163
C:\Users\CYMR90~1\AppData\Local\Temp\ccSmV8cy.s:23855  .debug_str:0000000000003993 .LASF4164
C:\Users\CYMR90~1\AppData\Local\Temp\ccSmV8cy.s:24041  .debug_str:000000000000450e .LASF4165
C:\Users\CYMR90~1\AppData\Local\Temp\ccSmV8cy.s:33170  .debug_str:00000000000285fb .LASF4166
C:\Users\CYMR90~1\AppData\Local\Temp\ccSmV8cy.s:27423  .debug_str:0000000000011a9a .LASF4167
C:\Users\CYMR90~1\AppData\Local\Temp\ccSmV8cy.s:25957  .debug_str:000000000000bfb5 .LASF4168
C:\Users\CYMR90~1\AppData\Local\Temp\ccSmV8cy.s:32194  .debug_str:000000000002467c .LASF4169
C:\Users\CYMR90~1\AppData\Local\Temp\ccSmV8cy.s:27473  .debug_str:0000000000011e05 .LASF4170
C:\Users\CYMR90~1\AppData\Local\Temp\ccSmV8cy.s:28493  .debug_str:0000000000015e7c .LASF4171
C:\Users\CYMR90~1\AppData\Local\Temp\ccSmV8cy.s:34216  .debug_str:000000000002c6e8 .LASF4172
C:\Users\CYMR90~1\AppData\Local\Temp\ccSmV8cy.s:28840  .debug_str:00000000000176c8 .LASF4173
C:\Users\CYMR90~1\AppData\Local\Temp\ccSmV8cy.s:23817  .debug_str:000000000000372f .LASF4174
C:\Users\CYMR90~1\AppData\Local\Temp\ccSmV8cy.s:25969  .debug_str:000000000000c06c .LASF4175
C:\Users\CYMR90~1\AppData\Local\Temp\ccSmV8cy.s:24553  .debug_str:00000000000064e0 .LASF4176
C:\Users\CYMR90~1\AppData\Local\Temp\ccSmV8cy.s:32798  .debug_str:0000000000026f0d .LASF4177
C:\Users\CYMR90~1\AppData\Local\Temp\ccSmV8cy.s:33402  .debug_str:00000000000295a8 .LASF4178
C:\Users\CYMR90~1\AppData\Local\Temp\ccSmV8cy.s:23055  .debug_str:000000000000075d .LASF4179
C:\Users\CYMR90~1\AppData\Local\Temp\ccSmV8cy.s:29732  .debug_str:000000000001af2c .LASF4180
C:\Users\CYMR90~1\AppData\Local\Temp\ccSmV8cy.s:34208  .debug_str:000000000002c672 .LASF4181
C:\Users\CYMR90~1\AppData\Local\Temp\ccSmV8cy.s:25755  .debug_str:000000000000b215 .LASF4182
C:\Users\CYMR90~1\AppData\Local\Temp\ccSmV8cy.s:24645  .debug_str:0000000000006ac3 .LASF4183
C:\Users\CYMR90~1\AppData\Local\Temp\ccSmV8cy.s:25667  .debug_str:000000000000ac89 .LASF4184
C:\Users\CYMR90~1\AppData\Local\Temp\ccSmV8cy.s:29758  .debug_str:000000000001b0b7 .LASF4185
C:\Users\CYMR90~1\AppData\Local\Temp\ccSmV8cy.s:30922  .debug_str:000000000001f9e9 .LASF4186
C:\Users\CYMR90~1\AppData\Local\Temp\ccSmV8cy.s:30026  .debug_str:000000000001c0f7 .LASF4187
C:\Users\CYMR90~1\AppData\Local\Temp\ccSmV8cy.s:24343  .debug_str:000000000000585b .LASF4188
C:\Users\CYMR90~1\AppData\Local\Temp\ccSmV8cy.s:31964  .debug_str:0000000000023907 .LASF4189
C:\Users\CYMR90~1\AppData\Local\Temp\ccSmV8cy.s:31986  .debug_str:0000000000023a20 .LASF4190
C:\Users\CYMR90~1\AppData\Local\Temp\ccSmV8cy.s:32472  .debug_str:00000000000258b2 .LASF4191
C:\Users\CYMR90~1\AppData\Local\Temp\ccSmV8cy.s:29584  .debug_str:000000000001a4db .LASF4192
C:\Users\CYMR90~1\AppData\Local\Temp\ccSmV8cy.s:32028  .debug_str:0000000000023c89 .LASF4193
C:\Users\CYMR90~1\AppData\Local\Temp\ccSmV8cy.s:33544  .debug_str:0000000000029ed8 .LASF4194
C:\Users\CYMR90~1\AppData\Local\Temp\ccSmV8cy.s:27847  .debug_str:00000000000136a6 .LASF4195
C:\Users\CYMR90~1\AppData\Local\Temp\ccSmV8cy.s:27673  .debug_str:0000000000012b6a .LASF4196
C:\Users\CYMR90~1\AppData\Local\Temp\ccSmV8cy.s:31548  .debug_str:0000000000021ff5 .LASF4197
C:\Users\CYMR90~1\AppData\Local\Temp\ccSmV8cy.s:30160  .debug_str:000000000001c946 .LASF4198
C:\Users\CYMR90~1\AppData\Local\Temp\ccSmV8cy.s:32438  .debug_str:000000000002569f .LASF4199
C:\Users\CYMR90~1\AppData\Local\Temp\ccSmV8cy.s:29050  .debug_str:000000000001835b .LASF4200
C:\Users\CYMR90~1\AppData\Local\Temp\ccSmV8cy.s:29966  .debug_str:000000000001bd87 .LASF4201
C:\Users\CYMR90~1\AppData\Local\Temp\ccSmV8cy.s:31532  .debug_str:0000000000021efe .LASF4202
C:\Users\CYMR90~1\AppData\Local\Temp\ccSmV8cy.s:28940  .debug_str:0000000000017c8c .LASF4203
C:\Users\CYMR90~1\AppData\Local\Temp\ccSmV8cy.s:23327  .debug_str:00000000000017d0 .LASF4204
C:\Users\CYMR90~1\AppData\Local\Temp\ccSmV8cy.s:30822  .debug_str:000000000001f3c9 .LASF4205
C:\Users\CYMR90~1\AppData\Local\Temp\ccSmV8cy.s:31774  .debug_str:0000000000022d69 .LASF4206
C:\Users\CYMR90~1\AppData\Local\Temp\ccSmV8cy.s:26487  .debug_str:000000000000e0b9 .LASF4207
C:\Users\CYMR90~1\AppData\Local\Temp\ccSmV8cy.s:32230  .debug_str:0000000000024879 .LASF4208
C:\Users\CYMR90~1\AppData\Local\Temp\ccSmV8cy.s:30452  .debug_str:000000000001dcd9 .LASF4209
C:\Users\CYMR90~1\AppData\Local\Temp\ccSmV8cy.s:30430  .debug_str:000000000001db80 .LASF4210
C:\Users\CYMR90~1\AppData\Local\Temp\ccSmV8cy.s:23199  .debug_str:000000000000107b .LASF4211
C:\Users\CYMR90~1\AppData\Local\Temp\ccSmV8cy.s:27723  .debug_str:0000000000012ea7 .LASF4212
C:\Users\CYMR90~1\AppData\Local\Temp\ccSmV8cy.s:29150  .debug_str:000000000001892f .LASF4213
C:\Users\CYMR90~1\AppData\Local\Temp\ccSmV8cy.s:28417  .debug_str:0000000000015a55 .LASF4214
C:\Users\CYMR90~1\AppData\Local\Temp\ccSmV8cy.s:29738  .debug_str:000000000001af7b .LASF4215
C:\Users\CYMR90~1\AppData\Local\Temp\ccSmV8cy.s:33662  .debug_str:000000000002a5b4 .LASF4216
C:\Users\CYMR90~1\AppData\Local\Temp\ccSmV8cy.s:26145  .debug_str:000000000000cba0 .LASF4217
C:\Users\CYMR90~1\AppData\Local\Temp\ccSmV8cy.s:26605  .debug_str:000000000000e813 .LASF4218
C:\Users\CYMR90~1\AppData\Local\Temp\ccSmV8cy.s:26795  .debug_str:000000000000f3b6 .LASF4219
C:\Users\CYMR90~1\AppData\Local\Temp\ccSmV8cy.s:24687  .debug_str:0000000000006d7a .LASF4220
C:\Users\CYMR90~1\AppData\Local\Temp\ccSmV8cy.s:26251  .debug_str:000000000000d268 .LASF4221
C:\Users\CYMR90~1\AppData\Local\Temp\ccSmV8cy.s:23075  .debug_str:000000000000087e .LASF4222
C:\Users\CYMR90~1\AppData\Local\Temp\ccSmV8cy.s:32016  .debug_str:0000000000023bc1 .LASF4223
C:\Users\CYMR90~1\AppData\Local\Temp\ccSmV8cy.s:28763  .debug_str:0000000000016fe3 .LASF4224
C:\Users\CYMR90~1\AppData\Local\Temp\ccSmV8cy.s:29972  .debug_str:000000000001bdde .LASF4225
C:\Users\CYMR90~1\AppData\Local\Temp\ccSmV8cy.s:26981  .debug_str:000000000000ff15 .LASF4226
C:\Users\CYMR90~1\AppData\Local\Temp\ccSmV8cy.s:33212  .debug_str:00000000000288d1 .LASF4227
C:\Users\CYMR90~1\AppData\Local\Temp\ccSmV8cy.s:24903  .debug_str:0000000000007b9a .LASF4228
C:\Users\CYMR90~1\AppData\Local\Temp\ccSmV8cy.s:26389  .debug_str:000000000000db8b .LASF4229
C:\Users\CYMR90~1\AppData\Local\Temp\ccSmV8cy.s:34404  .debug_str:000000000002d34b .LASF4230
C:\Users\CYMR90~1\AppData\Local\Temp\ccSmV8cy.s:26003  .debug_str:000000000000c30f .LASF4231
C:\Users\CYMR90~1\AppData\Local\Temp\ccSmV8cy.s:25539  .debug_str:000000000000a3f8 .LASF4232
C:\Users\CYMR90~1\AppData\Local\Temp\ccSmV8cy.s:33118  .debug_str:0000000000028286 .LASF4233
C:\Users\CYMR90~1\AppData\Local\Temp\ccSmV8cy.s:27467  .debug_str:0000000000011d89 .LASF4234
C:\Users\CYMR90~1\AppData\Local\Temp\ccSmV8cy.s:24133  .debug_str:0000000000004bae .LASF4235
C:\Users\CYMR90~1\AppData\Local\Temp\ccSmV8cy.s:25483  .debug_str:000000000000a044 .LASF4236
C:\Users\CYMR90~1\AppData\Local\Temp\ccSmV8cy.s:29380  .debug_str:000000000001984c .LASF4237
C:\Users\CYMR90~1\AppData\Local\Temp\ccSmV8cy.s:30382  .debug_str:000000000001d8be .LASF4238
C:\Users\CYMR90~1\AppData\Local\Temp\ccSmV8cy.s:30612  .debug_str:000000000001e77d .LASF4239
C:\Users\CYMR90~1\AppData\Local\Temp\ccSmV8cy.s:26223  .debug_str:000000000000d0f7 .LASF4240
C:\Users\CYMR90~1\AppData\Local\Temp\ccSmV8cy.s:34080  .debug_str:000000000002be3a .LASF4241
C:\Users\CYMR90~1\AppData\Local\Temp\ccSmV8cy.s:26633  .debug_str:000000000000e9a4 .LASF4242
C:\Users\CYMR90~1\AppData\Local\Temp\ccSmV8cy.s:29554  .debug_str:000000000001a328 .LASF4243
C:\Users\CYMR90~1\AppData\Local\Temp\ccSmV8cy.s:29294  .debug_str:00000000000191d1 .LASF4244
C:\Users\CYMR90~1\AppData\Local\Temp\ccSmV8cy.s:23825  .debug_str:0000000000003794 .LASF4245
C:\Users\CYMR90~1\AppData\Local\Temp\ccSmV8cy.s:24093  .debug_str:0000000000004880 .LASF4246
C:\Users\CYMR90~1\AppData\Local\Temp\ccSmV8cy.s:25173  .debug_str:0000000000008d73 .LASF4247
C:\Users\CYMR90~1\AppData\Local\Temp\ccSmV8cy.s:27559  .debug_str:0000000000012426 .LASF4248
C:\Users\CYMR90~1\AppData\Local\Temp\ccSmV8cy.s:28301  .debug_str:00000000000152d9 .LASF4249
C:\Users\CYMR90~1\AppData\Local\Temp\ccSmV8cy.s:34270  .debug_str:000000000002ca8a .LASF4250
C:\Users\CYMR90~1\AppData\Local\Temp\ccSmV8cy.s:25055  .debug_str:0000000000008682 .LASF4251
C:\Users\CYMR90~1\AppData\Local\Temp\ccSmV8cy.s:25629  .debug_str:000000000000a932 .LASF4252
C:\Users\CYMR90~1\AppData\Local\Temp\ccSmV8cy.s:29386  .debug_str:00000000000198ae .LASF4253
C:\Users\CYMR90~1\AppData\Local\Temp\ccSmV8cy.s:26573  .debug_str:000000000000e622 .LASF4254
C:\Users\CYMR90~1\AppData\Local\Temp\ccSmV8cy.s:34322  .debug_str:000000000002ce3c .LASF4255
C:\Users\CYMR90~1\AppData\Local\Temp\ccSmV8cy.s:23371  .debug_str:0000000000001b45 .LASF4256
C:\Users\CYMR90~1\AppData\Local\Temp\ccSmV8cy.s:33202  .debug_str:0000000000028826 .LASF4257
C:\Users\CYMR90~1\AppData\Local\Temp\ccSmV8cy.s:30512  .debug_str:000000000001e0fc .LASF4258
C:\Users\CYMR90~1\AppData\Local\Temp\ccSmV8cy.s:28816  .debug_str:0000000000017553 .LASF4259
C:\Users\CYMR90~1\AppData\Local\Temp\ccSmV8cy.s:25591  .debug_str:000000000000a744 .LASF4260
C:\Users\CYMR90~1\AppData\Local\Temp\ccSmV8cy.s:31594  .debug_str:00000000000222ca .LASF4261
C:\Users\CYMR90~1\AppData\Local\Temp\ccSmV8cy.s:26743  .debug_str:000000000000f0df .LASF4262
C:\Users\CYMR90~1\AppData\Local\Temp\ccSmV8cy.s:29280  .debug_str:00000000000190e5 .LASF4263
C:\Users\CYMR90~1\AppData\Local\Temp\ccSmV8cy.s:27947  .debug_str:0000000000013d54 .LASF4264
C:\Users\CYMR90~1\AppData\Local\Temp\ccSmV8cy.s:26607  .debug_str:000000000000e836 .LASF4265
C:\Users\CYMR90~1\AppData\Local\Temp\ccSmV8cy.s:25097  .debug_str:000000000000890f .LASF4266
C:\Users\CYMR90~1\AppData\Local\Temp\ccSmV8cy.s:23607  .debug_str:00000000000029ac .LASF4267
C:\Users\CYMR90~1\AppData\Local\Temp\ccSmV8cy.s:27529  .debug_str:0000000000012284 .LASF4268
C:\Users\CYMR90~1\AppData\Local\Temp\ccSmV8cy.s:31154  .debug_str:00000000000207e4 .LASF4269
C:\Users\CYMR90~1\AppData\Local\Temp\ccSmV8cy.s:23761  .debug_str:0000000000003365 .LASF4270
C:\Users\CYMR90~1\AppData\Local\Temp\ccSmV8cy.s:31082  .debug_str:000000000002035b .LASF4271
C:\Users\CYMR90~1\AppData\Local\Temp\ccSmV8cy.s:27931  .debug_str:0000000000013c74 .LASF4272
C:\Users\CYMR90~1\AppData\Local\Temp\ccSmV8cy.s:32248  .debug_str:0000000000024a3c .LASF4273
C:\Users\CYMR90~1\AppData\Local\Temp\ccSmV8cy.s:25571  .debug_str:000000000000a5f4 .LASF4274
C:\Users\CYMR90~1\AppData\Local\Temp\ccSmV8cy.s:29376  .debug_str:0000000000019809 .LASF4275
C:\Users\CYMR90~1\AppData\Local\Temp\ccSmV8cy.s:33792  .debug_str:000000000002acd0 .LASF4276
C:\Users\CYMR90~1\AppData\Local\Temp\ccSmV8cy.s:24593  .debug_str:0000000000006773 .LASF4277
C:\Users\CYMR90~1\AppData\Local\Temp\ccSmV8cy.s:33784  .debug_str:000000000002ac59 .LASF4278
C:\Users\CYMR90~1\AppData\Local\Temp\ccSmV8cy.s:23693  .debug_str:0000000000002efd .LASF4279
C:\Users\CYMR90~1\AppData\Local\Temp\ccSmV8cy.s:28071  .debug_str:00000000000144a5 .LASF4280
C:\Users\CYMR90~1\AppData\Local\Temp\ccSmV8cy.s:23305  .debug_str:000000000000165a .LASF4281
C:\Users\CYMR90~1\AppData\Local\Temp\ccSmV8cy.s:28111  .debug_str:0000000000014728 .LASF4282
C:\Users\CYMR90~1\AppData\Local\Temp\ccSmV8cy.s:23379  .debug_str:0000000000001bbc .LASF4283
C:\Users\CYMR90~1\AppData\Local\Temp\ccSmV8cy.s:25285  .debug_str:0000000000009456 .LASF4284
C:\Users\CYMR90~1\AppData\Local\Temp\ccSmV8cy.s:30356  .debug_str:000000000001d6b9 .LASF4285
C:\Users\CYMR90~1\AppData\Local\Temp\ccSmV8cy.s:33840  .debug_str:000000000002b00d .LASF4286
C:\Users\CYMR90~1\AppData\Local\Temp\ccSmV8cy.s:24087  .debug_str:0000000000004808 .LASF4287
C:\Users\CYMR90~1\AppData\Local\Temp\ccSmV8cy.s:27339  .debug_str:0000000000011543 .LASF4288
C:\Users\CYMR90~1\AppData\Local\Temp\ccSmV8cy.s:31038  .debug_str:000000000002009f .LASF4289
C:\Users\CYMR90~1\AppData\Local\Temp\ccSmV8cy.s:30168  .debug_str:000000000001c9a8 .LASF4290
C:\Users\CYMR90~1\AppData\Local\Temp\ccSmV8cy.s:31180  .debug_str:0000000000020974 .LASF4291
C:\Users\CYMR90~1\AppData\Local\Temp\ccSmV8cy.s:34482  .debug_str:000000000002d880 .LASF4292
C:\Users\CYMR90~1\AppData\Local\Temp\ccSmV8cy.s:23821  .debug_str:000000000000375e .LASF4293
C:\Users\CYMR90~1\AppData\Local\Temp\ccSmV8cy.s:30778  .debug_str:000000000001f149 .LASF4294
C:\Users\CYMR90~1\AppData\Local\Temp\ccSmV8cy.s:31566  .debug_str:000000000002214e .LASF4295
C:\Users\CYMR90~1\AppData\Local\Temp\ccSmV8cy.s:23393  .debug_str:0000000000001ca4 .LASF4296
C:\Users\CYMR90~1\AppData\Local\Temp\ccSmV8cy.s:32824  .debug_str:00000000000270ac .LASF4297
C:\Users\CYMR90~1\AppData\Local\Temp\ccSmV8cy.s:30064  .debug_str:000000000001c349 .LASF4298
C:\Users\CYMR90~1\AppData\Local\Temp\ccSmV8cy.s:27257  .debug_str:0000000000011051 .LASF4299
C:\Users\CYMR90~1\AppData\Local\Temp\ccSmV8cy.s:34182  .debug_str:000000000002c4e2 .LASF4300
C:\Users\CYMR90~1\AppData\Local\Temp\ccSmV8cy.s:29780  .debug_str:000000000001b21c .LASF4301
C:\Users\CYMR90~1\AppData\Local\Temp\ccSmV8cy.s:31188  .debug_str:0000000000020a07 .LASF4302
C:\Users\CYMR90~1\AppData\Local\Temp\ccSmV8cy.s:26671  .debug_str:000000000000ec6b .LASF4303
C:\Users\CYMR90~1\AppData\Local\Temp\ccSmV8cy.s:28227  .debug_str:0000000000014e52 .LASF4304
C:\Users\CYMR90~1\AppData\Local\Temp\ccSmV8cy.s:29628  .debug_str:000000000001a74f .LASF4305
C:\Users\CYMR90~1\AppData\Local\Temp\ccSmV8cy.s:29930  .debug_str:000000000001bb71 .LASF4306
C:\Users\CYMR90~1\AppData\Local\Temp\ccSmV8cy.s:32288  .debug_str:0000000000024cdc .LASF4307
C:\Users\CYMR90~1\AppData\Local\Temp\ccSmV8cy.s:29742  .debug_str:000000000001afbe .LASF4308
C:\Users\CYMR90~1\AppData\Local\Temp\ccSmV8cy.s:26285  .debug_str:000000000000d48b .LASF4309
C:\Users\CYMR90~1\AppData\Local\Temp\ccSmV8cy.s:26283  .debug_str:000000000000d46c .LASF4310
C:\Users\CYMR90~1\AppData\Local\Temp\ccSmV8cy.s:26751  .debug_str:000000000000f167 .LASF4311
C:\Users\CYMR90~1\AppData\Local\Temp\ccSmV8cy.s:24969  .debug_str:0000000000007fc1 .LASF4312
C:\Users\CYMR90~1\AppData\Local\Temp\ccSmV8cy.s:25033  .debug_str:0000000000008533 .LASF4313
C:\Users\CYMR90~1\AppData\Local\Temp\ccSmV8cy.s:24609  .debug_str:0000000000006859 .LASF4314
C:\Users\CYMR90~1\AppData\Local\Temp\ccSmV8cy.s:27383  .debug_str:0000000000011802 .LASF4315
C:\Users\CYMR90~1\AppData\Local\Temp\ccSmV8cy.s:33020  .debug_str:0000000000027cf3 .LASF4316
C:\Users\CYMR90~1\AppData\Local\Temp\ccSmV8cy.s:29350  .debug_str:000000000001959d .LASF4317
C:\Users\CYMR90~1\AppData\Local\Temp\ccSmV8cy.s:27701  .debug_str:0000000000012d3f .LASF4318
C:\Users\CYMR90~1\AppData\Local\Temp\ccSmV8cy.s:26173  .debug_str:000000000000cdc3 .LASF4319
C:\Users\CYMR90~1\AppData\Local\Temp\ccSmV8cy.s:30756  .debug_str:000000000001efde .LASF4320
C:\Users\CYMR90~1\AppData\Local\Temp\ccSmV8cy.s:25283  .debug_str:0000000000009425 .LASF4321
C:\Users\CYMR90~1\AppData\Local\Temp\ccSmV8cy.s:34006  .debug_str:000000000002b94c .LASF4322
C:\Users\CYMR90~1\AppData\Local\Temp\ccSmV8cy.s:25575  .debug_str:000000000000a633 .LASF4323
C:\Users\CYMR90~1\AppData\Local\Temp\ccSmV8cy.s:25133  .debug_str:0000000000008b16 .LASF4324
C:\Users\CYMR90~1\AppData\Local\Temp\ccSmV8cy.s:33112  .debug_str:0000000000028216 .LASF4325
C:\Users\CYMR90~1\AppData\Local\Temp\ccSmV8cy.s:34522  .debug_str:000000000002dab7 .LASF4326
C:\Users\CYMR90~1\AppData\Local\Temp\ccSmV8cy.s:27783  .debug_str:000000000001326a .LASF4327
C:\Users\CYMR90~1\AppData\Local\Temp\ccSmV8cy.s:27627  .debug_str:00000000000128a8 .LASF4328
C:\Users\CYMR90~1\AppData\Local\Temp\ccSmV8cy.s:23673  .debug_str:0000000000002dbf .LASF4329
C:\Users\CYMR90~1\AppData\Local\Temp\ccSmV8cy.s:29842  .debug_str:000000000001b5b1 .LASF4330
C:\Users\CYMR90~1\AppData\Local\Temp\ccSmV8cy.s:26933  .debug_str:000000000000fc80 .LASF4331
C:\Users\CYMR90~1\AppData\Local\Temp\ccSmV8cy.s:28311  .debug_str:00000000000153b7 .LASF4332
C:\Users\CYMR90~1\AppData\Local\Temp\ccSmV8cy.s:27037  .debug_str:000000000001026e .LASF4333
C:\Users\CYMR90~1\AppData\Local\Temp\ccSmV8cy.s:30786  .debug_str:000000000001f1cc .LASF4334
C:\Users\CYMR90~1\AppData\Local\Temp\ccSmV8cy.s:30796  .debug_str:000000000001f250 .LASF4335
C:\Users\CYMR90~1\AppData\Local\Temp\ccSmV8cy.s:32796  .debug_str:0000000000026ee7 .LASF4336
C:\Users\CYMR90~1\AppData\Local\Temp\ccSmV8cy.s:29854  .debug_str:000000000001b652 .LASF4337
C:\Users\CYMR90~1\AppData\Local\Temp\ccSmV8cy.s:26085  .debug_str:000000000000c811 .LASF4338
C:\Users\CYMR90~1\AppData\Local\Temp\ccSmV8cy.s:22995  .debug_str:0000000000000401 .LASF4339
C:\Users\CYMR90~1\AppData\Local\Temp\ccSmV8cy.s:26441  .debug_str:000000000000de3f .LASF4340
C:\Users\CYMR90~1\AppData\Local\Temp\ccSmV8cy.s:23589  .debug_str:000000000000287c .LASF4341
C:\Users\CYMR90~1\AppData\Local\Temp\ccSmV8cy.s:30812  .debug_str:000000000001f34a .LASF4342
C:\Users\CYMR90~1\AppData\Local\Temp\ccSmV8cy.s:28333  .debug_str:0000000000015547 .LASF4343
C:\Users\CYMR90~1\AppData\Local\Temp\ccSmV8cy.s:34064  .debug_str:000000000002bd27 .LASF4344
C:\Users\CYMR90~1\AppData\Local\Temp\ccSmV8cy.s:26985  .debug_str:000000000000ff56 .LASF4345
C:\Users\CYMR90~1\AppData\Local\Temp\ccSmV8cy.s:33540  .debug_str:0000000000029e89 .LASF4346
C:\Users\CYMR90~1\AppData\Local\Temp\ccSmV8cy.s:31018  .debug_str:000000000001ff94 .LASF4347
C:\Users\CYMR90~1\AppData\Local\Temp\ccSmV8cy.s:30828  .debug_str:000000000001f3fa .LASF4348
C:\Users\CYMR90~1\AppData\Local\Temp\ccSmV8cy.s:24309  .debug_str:0000000000005641 .LASF4349
C:\Users\CYMR90~1\AppData\Local\Temp\ccSmV8cy.s:24451  .debug_str:0000000000005eae .LASF4350
C:\Users\CYMR90~1\AppData\Local\Temp\ccSmV8cy.s:31126  .debug_str:0000000000020601 .LASF4351
C:\Users\CYMR90~1\AppData\Local\Temp\ccSmV8cy.s:29744  .debug_str:000000000001afdd .LASF4352
C:\Users\CYMR90~1\AppData\Local\Temp\ccSmV8cy.s:34508  .debug_str:000000000002d9e1 .LASF4353
C:\Users\CYMR90~1\AppData\Local\Temp\ccSmV8cy.s:28916  .debug_str:0000000000017b15 .LASF4354
C:\Users\CYMR90~1\AppData\Local\Temp\ccSmV8cy.s:24497  .debug_str:00000000000061b5 .LASF4355
C:\Users\CYMR90~1\AppData\Local\Temp\ccSmV8cy.s:26855  .debug_str:000000000000f764 .LASF4356
C:\Users\CYMR90~1\AppData\Local\Temp\ccSmV8cy.s:31134  .debug_str:000000000002068b .LASF4357
C:\Users\CYMR90~1\AppData\Local\Temp\ccSmV8cy.s:29240  .debug_str:0000000000018e9b .LASF4358
C:\Users\CYMR90~1\AppData\Local\Temp\ccSmV8cy.s:24277  .debug_str:0000000000005437 .LASF4359
C:\Users\CYMR90~1\AppData\Local\Temp\ccSmV8cy.s:32942  .debug_str:0000000000027769 .LASF4360
C:\Users\CYMR90~1\AppData\Local\Temp\ccSmV8cy.s:33358  .debug_str:00000000000292fb .LASF4361
C:\Users\CYMR90~1\AppData\Local\Temp\ccSmV8cy.s:23027  .debug_str:00000000000005ee .LASF4362
C:\Users\CYMR90~1\AppData\Local\Temp\ccSmV8cy.s:33636  .debug_str:000000000002a42a .LASF4363
C:\Users\CYMR90~1\AppData\Local\Temp\ccSmV8cy.s:28363  .debug_str:00000000000156fb .LASF4364
C:\Users\CYMR90~1\AppData\Local\Temp\ccSmV8cy.s:33824  .debug_str:000000000002af16 .LASF4365
C:\Users\CYMR90~1\AppData\Local\Temp\ccSmV8cy.s:26927  .debug_str:000000000000fc0d .LASF4366
C:\Users\CYMR90~1\AppData\Local\Temp\ccSmV8cy.s:26231  .debug_str:000000000000d17e .LASF4367
C:\Users\CYMR90~1\AppData\Local\Temp\ccSmV8cy.s:32772  .debug_str:0000000000026d49 .LASF4368
C:\Users\CYMR90~1\AppData\Local\Temp\ccSmV8cy.s:27861  .debug_str:0000000000013791 .LASF4369
C:\Users\CYMR90~1\AppData\Local\Temp\ccSmV8cy.s:26037  .debug_str:000000000000c523 .LASF4370
C:\Users\CYMR90~1\AppData\Local\Temp\ccSmV8cy.s:23867  .debug_str:0000000000003a77 .LASF4371
C:\Users\CYMR90~1\AppData\Local\Temp\ccSmV8cy.s:24807  .debug_str:000000000000758d .LASF4372
C:\Users\CYMR90~1\AppData\Local\Temp\ccSmV8cy.s:26931  .debug_str:000000000000fc5c .LASF4373
C:\Users\CYMR90~1\AppData\Local\Temp\ccSmV8cy.s:24373  .debug_str:0000000000005a16 .LASF4374
C:\Users\CYMR90~1\AppData\Local\Temp\ccSmV8cy.s:33238  .debug_str:0000000000028ac7 .LASF4375
C:\Users\CYMR90~1\AppData\Local\Temp\ccSmV8cy.s:27067  .debug_str:000000000001047d .LASF4376
C:\Users\CYMR90~1\AppData\Local\Temp\ccSmV8cy.s:23687  .debug_str:0000000000002ea1 .LASF4377
C:\Users\CYMR90~1\AppData\Local\Temp\ccSmV8cy.s:32634  .debug_str:00000000000264b8 .LASF4378
C:\Users\CYMR90~1\AppData\Local\Temp\ccSmV8cy.s:33034  .debug_str:0000000000027ddc .LASF4379
C:\Users\CYMR90~1\AppData\Local\Temp\ccSmV8cy.s:27409  .debug_str:00000000000119bc .LASF4380
C:\Users\CYMR90~1\AppData\Local\Temp\ccSmV8cy.s:28619  .debug_str:00000000000166b4 .LASF4381
C:\Users\CYMR90~1\AppData\Local\Temp\ccSmV8cy.s:32020  .debug_str:0000000000023bfa .LASF4382
C:\Users\CYMR90~1\AppData\Local\Temp\ccSmV8cy.s:30740  .debug_str:000000000001eedf .LASF4383
C:\Users\CYMR90~1\AppData\Local\Temp\ccSmV8cy.s:31662  .debug_str:0000000000022719 .LASF4384
C:\Users\CYMR90~1\AppData\Local\Temp\ccSmV8cy.s:34528  .debug_str:000000000002db13 .LASF4385
C:\Users\CYMR90~1\AppData\Local\Temp\ccSmV8cy.s:32178  .debug_str:000000000002458b .LASF4386
C:\Users\CYMR90~1\AppData\Local\Temp\ccSmV8cy.s:32448  .debug_str:000000000002572c .LASF4387
C:\Users\CYMR90~1\AppData\Local\Temp\ccSmV8cy.s:24907  .debug_str:0000000000007bcd .LASF4388
C:\Users\CYMR90~1\AppData\Local\Temp\ccSmV8cy.s:24239  .debug_str:000000000000520a .LASF4389
C:\Users\CYMR90~1\AppData\Local\Temp\ccSmV8cy.s:31878  .debug_str:000000000002339e .LASF4390
C:\Users\CYMR90~1\AppData\Local\Temp\ccSmV8cy.s:27711  .debug_str:0000000000012de2 .LASF4391
C:\Users\CYMR90~1\AppData\Local\Temp\ccSmV8cy.s:32470  .debug_str:000000000002588a .LASF4392
C:\Users\CYMR90~1\AppData\Local\Temp\ccSmV8cy.s:33680  .debug_str:000000000002a6a9 .LASF4393
C:\Users\CYMR90~1\AppData\Local\Temp\ccSmV8cy.s:23635  .debug_str:0000000000002b53 .LASF4394
C:\Users\CYMR90~1\AppData\Local\Temp\ccSmV8cy.s:32596  .debug_str:0000000000026266 .LASF4395
C:\Users\CYMR90~1\AppData\Local\Temp\ccSmV8cy.s:32652  .debug_str:0000000000026613 .LASF4396
C:\Users\CYMR90~1\AppData\Local\Temp\ccSmV8cy.s:33088  .debug_str:00000000000280c6 .LASF4397
C:\Users\CYMR90~1\AppData\Local\Temp\ccSmV8cy.s:33168  .debug_str:00000000000285d8 .LASF4398
C:\Users\CYMR90~1\AppData\Local\Temp\ccSmV8cy.s:27221  .debug_str:0000000000010e08 .LASF4399
C:\Users\CYMR90~1\AppData\Local\Temp\ccSmV8cy.s:32468  .debug_str:0000000000025866 .LASF4400
C:\Users\CYMR90~1\AppData\Local\Temp\ccSmV8cy.s:33018  .debug_str:0000000000027cdc .LASF4401
C:\Users\CYMR90~1\AppData\Local\Temp\ccSmV8cy.s:27259  .debug_str:0000000000011070 .LASF4402
C:\Users\CYMR90~1\AppData\Local\Temp\ccSmV8cy.s:33954  .debug_str:000000000002b678 .LASF4403
C:\Users\CYMR90~1\AppData\Local\Temp\ccSmV8cy.s:25203  .debug_str:0000000000008f3c .LASF4404
C:\Users\CYMR90~1\AppData\Local\Temp\ccSmV8cy.s:25801  .debug_str:000000000000b5be .LASF4405
C:\Users\CYMR90~1\AppData\Local\Temp\ccSmV8cy.s:32660  .debug_str:0000000000026684 .LASF4406
C:\Users\CYMR90~1\AppData\Local\Temp\ccSmV8cy.s:23225  .debug_str:000000000000120b .LASF4407
C:\Users\CYMR90~1\AppData\Local\Temp\ccSmV8cy.s:28695  .debug_str:0000000000016b42 .LASF4408
C:\Users\CYMR90~1\AppData\Local\Temp\ccSmV8cy.s:30824  .debug_str:000000000001f3e1 .LASF4409
C:\Users\CYMR90~1\AppData\Local\Temp\ccSmV8cy.s:33162  .debug_str:0000000000028575 .LASF4410
C:\Users\CYMR90~1\AppData\Local\Temp\ccSmV8cy.s:26697  .debug_str:000000000000ee22 .LASF4411
C:\Users\CYMR90~1\AppData\Local\Temp\ccSmV8cy.s:33192  .debug_str:000000000002878f .LASF4412
C:\Users\CYMR90~1\AppData\Local\Temp\ccSmV8cy.s:30760  .debug_str:000000000001f032 .LASF4413
C:\Users\CYMR90~1\AppData\Local\Temp\ccSmV8cy.s:27471  .debug_str:0000000000011dd4 .LASF4414
C:\Users\CYMR90~1\AppData\Local\Temp\ccSmV8cy.s:31080  .debug_str:000000000002032a .LASF4415
C:\Users\CYMR90~1\AppData\Local\Temp\ccSmV8cy.s:24221  .debug_str:0000000000005104 .LASF4416
C:\Users\CYMR90~1\AppData\Local\Temp\ccSmV8cy.s:28003  .debug_str:00000000000140e2 .LASF4417
C:\Users\CYMR90~1\AppData\Local\Temp\ccSmV8cy.s:25605  .debug_str:000000000000a802 .LASF4418
C:\Users\CYMR90~1\AppData\Local\Temp\ccSmV8cy.s:26555  .debug_str:000000000000e519 .LASF4419
C:\Users\CYMR90~1\AppData\Local\Temp\ccSmV8cy.s:30316  .debug_str:000000000001d381 .LASF4420
C:\Users\CYMR90~1\AppData\Local\Temp\ccSmV8cy.s:26675  .debug_str:000000000000ecc3 .LASF4421
C:\Users\CYMR90~1\AppData\Local\Temp\ccSmV8cy.s:33576  .debug_str:000000000002a0e6 .LASF4422
C:\Users\CYMR90~1\AppData\Local\Temp\ccSmV8cy.s:30862  .debug_str:000000000001f5fa .LASF4423
C:\Users\CYMR90~1\AppData\Local\Temp\ccSmV8cy.s:26637  .debug_str:000000000000e9eb .LASF4424
C:\Users\CYMR90~1\AppData\Local\Temp\ccSmV8cy.s:23311  .debug_str:00000000000016d0 .LASF4425
C:\Users\CYMR90~1\AppData\Local\Temp\ccSmV8cy.s:33094  .debug_str:0000000000028110 .LASF4426
C:\Users\CYMR90~1\AppData\Local\Temp\ccSmV8cy.s:32986  .debug_str:0000000000027a23 .LASF4427
C:\Users\CYMR90~1\AppData\Local\Temp\ccSmV8cy.s:32710  .debug_str:00000000000269af .LASF4428
C:\Users\CYMR90~1\AppData\Local\Temp\ccSmV8cy.s:30820  .debug_str:000000000001f3b3 .LASF4429
C:\Users\CYMR90~1\AppData\Local\Temp\ccSmV8cy.s:32968  .debug_str:0000000000027924 .LASF4430
C:\Users\CYMR90~1\AppData\Local\Temp\ccSmV8cy.s:31428  .debug_str:0000000000021872 .LASF4431
C:\Users\CYMR90~1\AppData\Local\Temp\ccSmV8cy.s:26177  .debug_str:000000000000ce37 .LASF4432
C:\Users\CYMR90~1\AppData\Local\Temp\ccSmV8cy.s:34480  .debug_str:000000000002d868 .LASF4433
C:\Users\CYMR90~1\AppData\Local\Temp\ccSmV8cy.s:26977  .debug_str:000000000000fedd .LASF4434
C:\Users\CYMR90~1\AppData\Local\Temp\ccSmV8cy.s:29026  .debug_str:0000000000018203 .LASF4435
C:\Users\CYMR90~1\AppData\Local\Temp\ccSmV8cy.s:33848  .debug_str:000000000002b090 .LASF4436
C:\Users\CYMR90~1\AppData\Local\Temp\ccSmV8cy.s:27927  .debug_str:0000000000013c37 .LASF4437
C:\Users\CYMR90~1\AppData\Local\Temp\ccSmV8cy.s:31006  .debug_str:000000000001fee1 .LASF4438
C:\Users\CYMR90~1\AppData\Local\Temp\ccSmV8cy.s:24877  .debug_str:00000000000079da .LASF4439
C:\Users\CYMR90~1\AppData\Local\Temp\ccSmV8cy.s:32504  .debug_str:0000000000025bbe .LASF4440
C:\Users\CYMR90~1\AppData\Local\Temp\ccSmV8cy.s:24743  .debug_str:0000000000007125 .LASF4441
C:\Users\CYMR90~1\AppData\Local\Temp\ccSmV8cy.s:33066  .debug_str:0000000000027fc0 .LASF4442
C:\Users\CYMR90~1\AppData\Local\Temp\ccSmV8cy.s:33552  .debug_str:0000000000029f44 .LASF4443
C:\Users\CYMR90~1\AppData\Local\Temp\ccSmV8cy.s:31762  .debug_str:0000000000022ce0 .LASF4444
C:\Users\CYMR90~1\AppData\Local\Temp\ccSmV8cy.s:28469  .debug_str:0000000000015d1f .LASF4445
C:\Users\CYMR90~1\AppData\Local\Temp\ccSmV8cy.s:25209  .debug_str:0000000000008f83 .LASF4446
C:\Users\CYMR90~1\AppData\Local\Temp\ccSmV8cy.s:23771  .debug_str:0000000000003415 .LASF4447
C:\Users\CYMR90~1\AppData\Local\Temp\ccSmV8cy.s:29208  .debug_str:0000000000018cb2 .LASF4448
C:\Users\CYMR90~1\AppData\Local\Temp\ccSmV8cy.s:25397  .debug_str:0000000000009ae1 .LASF4449
C:\Users\CYMR90~1\AppData\Local\Temp\ccSmV8cy.s:27913  .debug_str:0000000000013b36 .LASF4450
C:\Users\CYMR90~1\AppData\Local\Temp\ccSmV8cy.s:32280  .debug_str:0000000000024c80 .LASF4451
C:\Users\CYMR90~1\AppData\Local\Temp\ccSmV8cy.s:26797  .debug_str:000000000000f3d9 .LASF4452
C:\Users\CYMR90~1\AppData\Local\Temp\ccSmV8cy.s:33442  .debug_str:00000000000297f7 .LASF4453
C:\Users\CYMR90~1\AppData\Local\Temp\ccSmV8cy.s:25333  .debug_str:0000000000009721 .LASF4454
C:\Users\CYMR90~1\AppData\Local\Temp\ccSmV8cy.s:34158  .debug_str:000000000002c35c .LASF4455
C:\Users\CYMR90~1\AppData\Local\Temp\ccSmV8cy.s:31578  .debug_str:00000000000221fe .LASF4456
C:\Users\CYMR90~1\AppData\Local\Temp\ccSmV8cy.s:26935  .debug_str:000000000000fc9f .LASF4457
C:\Users\CYMR90~1\AppData\Local\Temp\ccSmV8cy.s:24069  .debug_str:00000000000046e7 .LASF4458
C:\Users\CYMR90~1\AppData\Local\Temp\ccSmV8cy.s:29746  .debug_str:000000000001b004 .LASF4459
C:\Users\CYMR90~1\AppData\Local\Temp\ccSmV8cy.s:23283  .debug_str:0000000000001540 .LASF4460
C:\Users\CYMR90~1\AppData\Local\Temp\ccSmV8cy.s:26879  .debug_str:000000000000f8e4 .LASF4461
C:\Users\CYMR90~1\AppData\Local\Temp\ccSmV8cy.s:23053  .debug_str:0000000000000745 .LASF4462
C:\Users\CYMR90~1\AppData\Local\Temp\ccSmV8cy.s:22997  .debug_str:000000000000042b .LASF4463
C:\Users\CYMR90~1\AppData\Local\Temp\ccSmV8cy.s:23361  .debug_str:0000000000001aaa .LASF4464
C:\Users\CYMR90~1\AppData\Local\Temp\ccSmV8cy.s:32104  .debug_str:0000000000024170 .LASF4465
C:\Users\CYMR90~1\AppData\Local\Temp\ccSmV8cy.s:32768  .debug_str:0000000000026d08 .LASF4466
C:\Users\CYMR90~1\AppData\Local\Temp\ccSmV8cy.s:27815  .debug_str:0000000000013492 .LASF4467
C:\Users\CYMR90~1\AppData\Local\Temp\ccSmV8cy.s:29782  .debug_str:000000000001b240 .LASF4468
C:\Users\CYMR90~1\AppData\Local\Temp\ccSmV8cy.s:31152  .debug_str:00000000000207cd .LASF4469
C:\Users\CYMR90~1\AppData\Local\Temp\ccSmV8cy.s:28567  .debug_str:000000000001634e .LASF4470
C:\Users\CYMR90~1\AppData\Local\Temp\ccSmV8cy.s:31214  .debug_str:0000000000020b5a .LASF4471
C:\Users\CYMR90~1\AppData\Local\Temp\ccSmV8cy.s:30514  .debug_str:000000000001e126 .LASF4472
C:\Users\CYMR90~1\AppData\Local\Temp\ccSmV8cy.s:25121  .debug_str:0000000000008a64 .LASF4473
C:\Users\CYMR90~1\AppData\Local\Temp\ccSmV8cy.s:23519  .debug_str:00000000000023f3 .LASF4474
C:\Users\CYMR90~1\AppData\Local\Temp\ccSmV8cy.s:31194  .debug_str:0000000000020a53 .LASF4475
C:\Users\CYMR90~1\AppData\Local\Temp\ccSmV8cy.s:24125  .debug_str:0000000000004b3e .LASF4476
C:\Users\CYMR90~1\AppData\Local\Temp\ccSmV8cy.s:24787  .debug_str:000000000000742d .LASF4477
C:\Users\CYMR90~1\AppData\Local\Temp\ccSmV8cy.s:31858  .debug_str:000000000002329a .LASF4478
C:\Users\CYMR90~1\AppData\Local\Temp\ccSmV8cy.s:33626  .debug_str:000000000002a3a2 .LASF4479
C:\Users\CYMR90~1\AppData\Local\Temp\ccSmV8cy.s:29366  .debug_str:00000000000196ad .LASF4480
C:\Users\CYMR90~1\AppData\Local\Temp\ccSmV8cy.s:30714  .debug_str:000000000001edb4 .LASF4481
C:\Users\CYMR90~1\AppData\Local\Temp\ccSmV8cy.s:30904  .debug_str:000000000001f8bc .LASF4482
C:\Users\CYMR90~1\AppData\Local\Temp\ccSmV8cy.s:25005  .debug_str:00000000000082c2 .LASF4483
C:\Users\CYMR90~1\AppData\Local\Temp\ccSmV8cy.s:34198  .debug_str:000000000002c5c2 .LASF4484
C:\Users\CYMR90~1\AppData\Local\Temp\ccSmV8cy.s:28007  .debug_str:000000000001412b .LASF4485
C:\Users\CYMR90~1\AppData\Local\Temp\ccSmV8cy.s:33578  .debug_str:000000000002a118 .LASF4486
C:\Users\CYMR90~1\AppData\Local\Temp\ccSmV8cy.s:29886  .debug_str:000000000001b8cf .LASF4487
C:\Users\CYMR90~1\AppData\Local\Temp\ccSmV8cy.s:29428  .debug_str:0000000000019b23 .LASF4488
C:\Users\CYMR90~1\AppData\Local\Temp\ccSmV8cy.s:30914  .debug_str:000000000001f975 .LASF4489
C:\Users\CYMR90~1\AppData\Local\Temp\ccSmV8cy.s:34184  .debug_str:000000000002c508 .LASF4490
C:\Users\CYMR90~1\AppData\Local\Temp\ccSmV8cy.s:32982  .debug_str:00000000000279f3 .LASF4491
C:\Users\CYMR90~1\AppData\Local\Temp\ccSmV8cy.s:32034  .debug_str:0000000000023ce4 .LASF4492
C:\Users\CYMR90~1\AppData\Local\Temp\ccSmV8cy.s:25851  .debug_str:000000000000b843 .LASF4493
C:\Users\CYMR90~1\AppData\Local\Temp\ccSmV8cy.s:32158  .debug_str:0000000000024481 .LASF4494
C:\Users\CYMR90~1\AppData\Local\Temp\ccSmV8cy.s:23179  .debug_str:0000000000000eee .LASF4495
C:\Users\CYMR90~1\AppData\Local\Temp\ccSmV8cy.s:29110  .debug_str:00000000000186ee .LASF4496
C:\Users\CYMR90~1\AppData\Local\Temp\ccSmV8cy.s:29140  .debug_str:00000000000188a2 .LASF4497
C:\Users\CYMR90~1\AppData\Local\Temp\ccSmV8cy.s:31634  .debug_str:0000000000022588 .LASF4498
C:\Users\CYMR90~1\AppData\Local\Temp\ccSmV8cy.s:26291  .debug_str:000000000000d4dc .LASF4499
C:\Users\CYMR90~1\AppData\Local\Temp\ccSmV8cy.s:24961  .debug_str:0000000000007f4b .LASF4500
C:\Users\CYMR90~1\AppData\Local\Temp\ccSmV8cy.s:24383  .debug_str:0000000000005ae0 .LASF4501
C:\Users\CYMR90~1\AppData\Local\Temp\ccSmV8cy.s:28211  .debug_str:0000000000014d9b .LASF4502
C:\Users\CYMR90~1\AppData\Local\Temp\ccSmV8cy.s:26217  .debug_str:000000000000d0a1 .LASF4503
C:\Users\CYMR90~1\AppData\Local\Temp\ccSmV8cy.s:27621  .debug_str:0000000000012847 .LASF4504
C:\Users\CYMR90~1\AppData\Local\Temp\ccSmV8cy.s:25959  .debug_str:000000000000bfd6 .LASF4505
C:\Users\CYMR90~1\AppData\Local\Temp\ccSmV8cy.s:33184  .debug_str:000000000002872a .LASF4506
C:\Users\CYMR90~1\AppData\Local\Temp\ccSmV8cy.s:28639  .debug_str:000000000001682e .LASF4507
C:\Users\CYMR90~1\AppData\Local\Temp\ccSmV8cy.s:32490  .debug_str:0000000000025a40 .LASF4508
C:\Users\CYMR90~1\AppData\Local\Temp\ccSmV8cy.s:33246  .debug_str:0000000000028b55 .LASF4509
C:\Users\CYMR90~1\AppData\Local\Temp\ccSmV8cy.s:30524  .debug_str:000000000001e19a .LASF4510
C:\Users\CYMR90~1\AppData\Local\Temp\ccSmV8cy.s:34338  .debug_str:000000000002cf16 .LASF4511
C:\Users\CYMR90~1\AppData\Local\Temp\ccSmV8cy.s:30560  .debug_str:000000000001e3b4 .LASF4512
C:\Users\CYMR90~1\AppData\Local\Temp\ccSmV8cy.s:34244  .debug_str:000000000002c91f .LASF4513
C:\Users\CYMR90~1\AppData\Local\Temp\ccSmV8cy.s:31476  .debug_str:0000000000021b0e .LASF4514
C:\Users\CYMR90~1\AppData\Local\Temp\ccSmV8cy.s:26301  .debug_str:000000000000d55b .LASF4515
C:\Users\CYMR90~1\AppData\Local\Temp\ccSmV8cy.s:30504  .debug_str:000000000001e05f .LASF4516
C:\Users\CYMR90~1\AppData\Local\Temp\ccSmV8cy.s:29024  .debug_str:00000000000181ec .LASF4517
C:\Users\CYMR90~1\AppData\Local\Temp\ccSmV8cy.s:28163  .debug_str:0000000000014a34 .LASF4518
C:\Users\CYMR90~1\AppData\Local\Temp\ccSmV8cy.s:28193  .debug_str:0000000000014c67 .LASF4519
C:\Users\CYMR90~1\AppData\Local\Temp\ccSmV8cy.s:31208  .debug_str:0000000000020b05 .LASF4520
C:\Users\CYMR90~1\AppData\Local\Temp\ccSmV8cy.s:26365  .debug_str:000000000000d9f6 .LASF4521
C:\Users\CYMR90~1\AppData\Local\Temp\ccSmV8cy.s:28035  .debug_str:00000000000142d1 .LASF4522
C:\Users\CYMR90~1\AppData\Local\Temp\ccSmV8cy.s:30378  .debug_str:000000000001d887 .LASF4523
C:\Users\CYMR90~1\AppData\Local\Temp\ccSmV8cy.s:29600  .debug_str:000000000001a5c2 .LASF4524
C:\Users\CYMR90~1\AppData\Local\Temp\ccSmV8cy.s:32484  .debug_str:00000000000259ef .LASF4525
C:\Users\CYMR90~1\AppData\Local\Temp\ccSmV8cy.s:30414  .debug_str:000000000001dac1 .LASF4526
C:\Users\CYMR90~1\AppData\Local\Temp\ccSmV8cy.s:33716  .debug_str:000000000002a8a2 .LASF4527
C:\Users\CYMR90~1\AppData\Local\Temp\ccSmV8cy.s:31288  .debug_str:000000000002103b .LASF4528
C:\Users\CYMR90~1\AppData\Local\Temp\ccSmV8cy.s:25553  .debug_str:000000000000a4dc .LASF4529
C:\Users\CYMR90~1\AppData\Local\Temp\ccSmV8cy.s:26403  .debug_str:000000000000dc37 .LASF4530
C:\Users\CYMR90~1\AppData\Local\Temp\ccSmV8cy.s:31202  .debug_str:0000000000020ab7 .LASF4531
C:\Users\CYMR90~1\AppData\Local\Temp\ccSmV8cy.s:32586  .debug_str:00000000000261a9 .LASF4532
C:\Users\CYMR90~1\AppData\Local\Temp\ccSmV8cy.s:25135  .debug_str:0000000000008b37 .LASF4533
C:\Users\CYMR90~1\AppData\Local\Temp\ccSmV8cy.s:33462  .debug_str:0000000000029911 .LASF4534
C:\Users\CYMR90~1\AppData\Local\Temp\ccSmV8cy.s:27103  .debug_str:00000000000106b5 .LASF4535
C:\Users\CYMR90~1\AppData\Local\Temp\ccSmV8cy.s:27021  .debug_str:0000000000010163 .LASF4536
C:\Users\CYMR90~1\AppData\Local\Temp\ccSmV8cy.s:29302  .debug_str:000000000001924e .LASF4537
C:\Users\CYMR90~1\AppData\Local\Temp\ccSmV8cy.s:26163  .debug_str:000000000000cce4 .LASF4538
C:\Users\CYMR90~1\AppData\Local\Temp\ccSmV8cy.s:26303  .debug_str:000000000000d573 .LASF4539
C:\Users\CYMR90~1\AppData\Local\Temp\ccSmV8cy.s:27413  .debug_str:0000000000011a07 .LASF4540
C:\Users\CYMR90~1\AppData\Local\Temp\ccSmV8cy.s:34512  .debug_str:000000000002da33 .LASF4541
C:\Users\CYMR90~1\AppData\Local\Temp\ccSmV8cy.s:25299  .debug_str:000000000000953b .LASF4542
C:\Users\CYMR90~1\AppData\Local\Temp\ccSmV8cy.s:25367  .debug_str:0000000000009964 .LASF4543
C:\Users\CYMR90~1\AppData\Local\Temp\ccSmV8cy.s:30442  .debug_str:000000000001dc5e .LASF4544
C:\Users\CYMR90~1\AppData\Local\Temp\ccSmV8cy.s:28962  .debug_str:0000000000017dbd .LASF4545
C:\Users\CYMR90~1\AppData\Local\Temp\ccSmV8cy.s:24189  .debug_str:0000000000004f20 .LASF4546
C:\Users\CYMR90~1\AppData\Local\Temp\ccSmV8cy.s:22935  .debug_str:0000000000000078 .LASF4547
C:\Users\CYMR90~1\AppData\Local\Temp\ccSmV8cy.s:31166  .debug_str:00000000000208ac .LASF4548
C:\Users\CYMR90~1\AppData\Local\Temp\ccSmV8cy.s:34484  .debug_str:000000000002d8a9 .LASF4549
C:\Users\CYMR90~1\AppData\Local\Temp\ccSmV8cy.s:30584  .debug_str:000000000001e59f .LASF4550
C:\Users\CYMR90~1\AppData\Local\Temp\ccSmV8cy.s:33800  .debug_str:000000000002ad5b .LASF4551
C:\Users\CYMR90~1\AppData\Local\Temp\ccSmV8cy.s:34056  .debug_str:000000000002bca0 .LASF4552
C:\Users\CYMR90~1\AppData\Local\Temp\ccSmV8cy.s:31400  .debug_str:00000000000216dd .LASF4553
C:\Users\CYMR90~1\AppData\Local\Temp\ccSmV8cy.s:29618  .debug_str:000000000001a6c6 .LASF4554
C:\Users\CYMR90~1\AppData\Local\Temp\ccSmV8cy.s:30748  .debug_str:000000000001ef5f .LASF4555
C:\Users\CYMR90~1\AppData\Local\Temp\ccSmV8cy.s:27647  .debug_str:00000000000129c0 .LASF4556
C:\Users\CYMR90~1\AppData\Local\Temp\ccSmV8cy.s:33210  .debug_str:00000000000288b8 .LASF4557
C:\Users\CYMR90~1\AppData\Local\Temp\ccSmV8cy.s:27619  .debug_str:000000000001282e .LASF4558
C:\Users\CYMR90~1\AppData\Local\Temp\ccSmV8cy.s:24557  .debug_str:000000000000652b .LASF4559
C:\Users\CYMR90~1\AppData\Local\Temp\ccSmV8cy.s:30892  .debug_str:000000000001f7e8 .LASF4560
C:\Users\CYMR90~1\AppData\Local\Temp\ccSmV8cy.s:27133  .debug_str:00000000000108e3 .LASF4561
C:\Users\CYMR90~1\AppData\Local\Temp\ccSmV8cy.s:23315  .debug_str:0000000000001716 .LASF4562
C:\Users\CYMR90~1\AppData\Local\Temp\ccSmV8cy.s:31112  .debug_str:0000000000020516 .LASF4563
C:\Users\CYMR90~1\AppData\Local\Temp\ccSmV8cy.s:27643  .debug_str:000000000001297b .LASF4564
C:\Users\CYMR90~1\AppData\Local\Temp\ccSmV8cy.s:24113  .debug_str:00000000000049d6 .LASF4565
C:\Users\CYMR90~1\AppData\Local\Temp\ccSmV8cy.s:23269  .debug_str:000000000000144a .LASF4566
C:\Users\CYMR90~1\AppData\Local\Temp\ccSmV8cy.s:32924  .debug_str:0000000000027623 .LASF4567
C:\Users\CYMR90~1\AppData\Local\Temp\ccSmV8cy.s:28629  .debug_str:000000000001676a .LASF4568
C:\Users\CYMR90~1\AppData\Local\Temp\ccSmV8cy.s:31414  .debug_str:00000000000217af .LASF4569
C:\Users\CYMR90~1\AppData\Local\Temp\ccSmV8cy.s:25811  .debug_str:000000000000b646 .LASF4570
C:\Users\CYMR90~1\AppData\Local\Temp\ccSmV8cy.s:32200  .debug_str:00000000000246c6 .LASF4571
C:\Users\CYMR90~1\AppData\Local\Temp\ccSmV8cy.s:24461  .debug_str:0000000000005f67 .LASF4572
C:\Users\CYMR90~1\AppData\Local\Temp\ccSmV8cy.s:33076  .debug_str:0000000000028038 .LASF4573
C:\Users\CYMR90~1\AppData\Local\Temp\ccSmV8cy.s:25057  .debug_str:00000000000086aa .LASF4574
C:\Users\CYMR90~1\AppData\Local\Temp\ccSmV8cy.s:34054  .debug_str:000000000002bc86 .LASF4575
C:\Users\CYMR90~1\AppData\Local\Temp\ccSmV8cy.s:32500  .debug_str:0000000000025b79 .LASF4576
C:\Users\CYMR90~1\AppData\Local\Temp\ccSmV8cy.s:25533  .debug_str:000000000000a379 .LASF4577
C:\Users\CYMR90~1\AppData\Local\Temp\ccSmV8cy.s:23189  .debug_str:0000000000001002 .LASF4578
C:\Users\CYMR90~1\AppData\Local\Temp\ccSmV8cy.s:31020  .debug_str:000000000001ffbd .LASF4579
C:\Users\CYMR90~1\AppData\Local\Temp\ccSmV8cy.s:24409  .debug_str:0000000000005c4f .LASF4580
C:\Users\CYMR90~1\AppData\Local\Temp\ccSmV8cy.s:34022  .debug_str:000000000002ba42 .LASF4581
C:\Users\CYMR90~1\AppData\Local\Temp\ccSmV8cy.s:28693  .debug_str:0000000000016b25 .LASF4582
C:\Users\CYMR90~1\AppData\Local\Temp\ccSmV8cy.s:28487  .debug_str:0000000000015e31 .LASF4583
C:\Users\CYMR90~1\AppData\Local\Temp\ccSmV8cy.s:30848  .debug_str:000000000001f52e .LASF4584
C:\Users\CYMR90~1\AppData\Local\Temp\ccSmV8cy.s:25883  .debug_str:000000000000bac5 .LASF4585
C:\Users\CYMR90~1\AppData\Local\Temp\ccSmV8cy.s:32362  .debug_str:00000000000251d1 .LASF4586
C:\Users\CYMR90~1\AppData\Local\Temp\ccSmV8cy.s:25433  .debug_str:0000000000009d77 .LASF4587
C:\Users\CYMR90~1\AppData\Local\Temp\ccSmV8cy.s:23937  .debug_str:0000000000003e9a .LASF4588
C:\Users\CYMR90~1\AppData\Local\Temp\ccSmV8cy.s:27091  .debug_str:0000000000010614 .LASF4589
C:\Users\CYMR90~1\AppData\Local\Temp\ccSmV8cy.s:30056  .debug_str:000000000001c2e4 .LASF4590
C:\Users\CYMR90~1\AppData\Local\Temp\ccSmV8cy.s:27841  .debug_str:0000000000013630 .LASF4591
C:\Users\CYMR90~1\AppData\Local\Temp\ccSmV8cy.s:33744  .debug_str:000000000002aa53 .LASF4592
C:\Users\CYMR90~1\AppData\Local\Temp\ccSmV8cy.s:31604  .debug_str:000000000002238f .LASF4593
C:\Users\CYMR90~1\AppData\Local\Temp\ccSmV8cy.s:23001  .debug_str:000000000000045f .LASF4594
C:\Users\CYMR90~1\AppData\Local\Temp\ccSmV8cy.s:34408  .debug_str:000000000002d39c .LASF4595
C:\Users\CYMR90~1\AppData\Local\Temp\ccSmV8cy.s:33450  .debug_str:0000000000029858 .LASF4596
C:\Users\CYMR90~1\AppData\Local\Temp\ccSmV8cy.s:23757  .debug_str:0000000000003315 .LASF4597
C:\Users\CYMR90~1\AppData\Local\Temp\ccSmV8cy.s:31558  .debug_str:00000000000220db .LASF4598
C:\Users\CYMR90~1\AppData\Local\Temp\ccSmV8cy.s:34368  .debug_str:000000000002d0ca .LASF4599
C:\Users\CYMR90~1\AppData\Local\Temp\ccSmV8cy.s:31316  .debug_str:00000000000211e9 .LASF4600
C:\Users\CYMR90~1\AppData\Local\Temp\ccSmV8cy.s:33700  .debug_str:000000000002a7cb .LASF4601
C:\Users\CYMR90~1\AppData\Local\Temp\ccSmV8cy.s:28565  .debug_str:000000000001632e .LASF4602
C:\Users\CYMR90~1\AppData\Local\Temp\ccSmV8cy.s:28878  .debug_str:00000000000178a3 .LASF4603
C:\Users\CYMR90~1\AppData\Local\Temp\ccSmV8cy.s:26907  .debug_str:000000000000fa61 .LASF4604
C:\Users\CYMR90~1\AppData\Local\Temp\ccSmV8cy.s:26897  .debug_str:000000000000f9d4 .LASF4605
C:\Users\CYMR90~1\AppData\Local\Temp\ccSmV8cy.s:29910  .debug_str:000000000001ba14 .LASF4606
C:\Users\CYMR90~1\AppData\Local\Temp\ccSmV8cy.s:32808  .debug_str:0000000000026f90 .LASF4607
C:\Users\CYMR90~1\AppData\Local\Temp\ccSmV8cy.s:30548  .debug_str:000000000001e311 .LASF4608
C:\Users\CYMR90~1\AppData\Local\Temp\ccSmV8cy.s:29470  .debug_str:0000000000019d5d .LASF4609
C:\Users\CYMR90~1\AppData\Local\Temp\ccSmV8cy.s:27663  .debug_str:0000000000012ac0 .LASF4610
C:\Users\CYMR90~1\AppData\Local\Temp\ccSmV8cy.s:29010  .debug_str:0000000000018120 .LASF4611
C:\Users\CYMR90~1\AppData\Local\Temp\ccSmV8cy.s:23453  .debug_str:000000000000203f .LASF4612
C:\Users\CYMR90~1\AppData\Local\Temp\ccSmV8cy.s:34492  .debug_str:000000000002d913 .LASF4613
C:\Users\CYMR90~1\AppData\Local\Temp\ccSmV8cy.s:24107  .debug_str:0000000000004973 .LASF4614
C:\Users\CYMR90~1\AppData\Local\Temp\ccSmV8cy.s:27415  .debug_str:0000000000011a29 .LASF4615
C:\Users\CYMR90~1\AppData\Local\Temp\ccSmV8cy.s:25741  .debug_str:000000000000b0ff .LASF4616
C:\Users\CYMR90~1\AppData\Local\Temp\ccSmV8cy.s:29462  .debug_str:0000000000019d01 .LASF4617
C:\Users\CYMR90~1\AppData\Local\Temp\ccSmV8cy.s:34114  .debug_str:000000000002c046 .LASF4618
C:\Users\CYMR90~1\AppData\Local\Temp\ccSmV8cy.s:25561  .debug_str:000000000000a568 .LASF4619
C:\Users\CYMR90~1\AppData\Local\Temp\ccSmV8cy.s:31340  .debug_str:000000000002135f .LASF4620
C:\Users\CYMR90~1\AppData\Local\Temp\ccSmV8cy.s:25303  .debug_str:0000000000009578 .LASF4621
C:\Users\CYMR90~1\AppData\Local\Temp\ccSmV8cy.s:34150  .debug_str:000000000002c2c8 .LASF4622
C:\Users\CYMR90~1\AppData\Local\Temp\ccSmV8cy.s:23247  .debug_str:000000000000131a .LASF4623
C:\Users\CYMR90~1\AppData\Local\Temp\ccSmV8cy.s:34028  .debug_str:000000000002ba94 .LASF4624
C:\Users\CYMR90~1\AppData\Local\Temp\ccSmV8cy.s:31672  .debug_str:00000000000227be .LASF4625
C:\Users\CYMR90~1\AppData\Local\Temp\ccSmV8cy.s:31326  .debug_str:00000000000212b0 .LASF4626
C:\Users\CYMR90~1\AppData\Local\Temp\ccSmV8cy.s:27085  .debug_str:0000000000010583 .LASF4627
C:\Users\CYMR90~1\AppData\Local\Temp\ccSmV8cy.s:23425  .debug_str:0000000000001e88 .LASF4628
C:\Users\CYMR90~1\AppData\Local\Temp\ccSmV8cy.s:30216  .debug_str:000000000001cc68 .LASF4629
C:\Users\CYMR90~1\AppData\Local\Temp\ccSmV8cy.s:26531  .debug_str:000000000000e3a1 .LASF4630
C:\Users\CYMR90~1\AppData\Local\Temp\ccSmV8cy.s:28107  .debug_str:00000000000146d2 .LASF4631
C:\Users\CYMR90~1\AppData\Local\Temp\ccSmV8cy.s:33316  .debug_str:0000000000029049 .LASF4632
C:\Users\CYMR90~1\AppData\Local\Temp\ccSmV8cy.s:34266  .debug_str:000000000002ca39 .LASF4633
C:\Users\CYMR90~1\AppData\Local\Temp\ccSmV8cy.s:30722  .debug_str:000000000001ee21 .LASF4634
C:\Users\CYMR90~1\AppData\Local\Temp\ccSmV8cy.s:30614  .debug_str:000000000001e7a1 .LASF4635
C:\Users\CYMR90~1\AppData\Local\Temp\ccSmV8cy.s:25725  .debug_str:000000000000b00c .LASF4636
C:\Users\CYMR90~1\AppData\Local\Temp\ccSmV8cy.s:29954  .debug_str:000000000001bcc3 .LASF4637
C:\Users\CYMR90~1\AppData\Local\Temp\ccSmV8cy.s:26529  .debug_str:000000000000e380 .LASF4638
C:\Users\CYMR90~1\AppData\Local\Temp\ccSmV8cy.s:31380  .debug_str:00000000000215c7 .LASF4639
C:\Users\CYMR90~1\AppData\Local\Temp\ccSmV8cy.s:32252  .debug_str:0000000000024aa6 .LASF4640
C:\Users\CYMR90~1\AppData\Local\Temp\ccSmV8cy.s:33156  .debug_str:0000000000028504 .LASF4641
C:\Users\CYMR90~1\AppData\Local\Temp\ccSmV8cy.s:31504  .debug_str:0000000000021d54 .LASF4642
C:\Users\CYMR90~1\AppData\Local\Temp\ccSmV8cy.s:32778  .debug_str:0000000000026da3 .LASF4643
C:\Users\CYMR90~1\AppData\Local\Temp\ccSmV8cy.s:34420  .debug_str:000000000002d478 .LASF4644
C:\Users\CYMR90~1\AppData\Local\Temp\ccSmV8cy.s:23839  .debug_str:000000000000387b .LASF4645
C:\Users\CYMR90~1\AppData\Local\Temp\ccSmV8cy.s:23537  .debug_str:00000000000024e3 .LASF4646
C:\Users\CYMR90~1\AppData\Local\Temp\ccSmV8cy.s:32342  .debug_str:0000000000025036 .LASF4647
C:\Users\CYMR90~1\AppData\Local\Temp\ccSmV8cy.s:26087  .debug_str:000000000000c83c .LASF4648
C:\Users\CYMR90~1\AppData\Local\Temp\ccSmV8cy.s:30326  .debug_str:000000000001d43d .LASF4649
C:\Users\CYMR90~1\AppData\Local\Temp\ccSmV8cy.s:32988  .debug_str:0000000000027a3a .LASF4650
C:\Users\CYMR90~1\AppData\Local\Temp\ccSmV8cy.s:25715  .debug_str:000000000000af72 .LASF4651
C:\Users\CYMR90~1\AppData\Local\Temp\ccSmV8cy.s:29404  .debug_str:0000000000019996 .LASF4652
C:\Users\CYMR90~1\AppData\Local\Temp\ccSmV8cy.s:24165  .debug_str:0000000000004db3 .LASF4653
C:\Users\CYMR90~1\AppData\Local\Temp\ccSmV8cy.s:23131  .debug_str:0000000000000c35 .LASF4654
C:\Users\CYMR90~1\AppData\Local\Temp\ccSmV8cy.s:31664  .debug_str:000000000002273e .LASF4655
C:\Users\CYMR90~1\AppData\Local\Temp\ccSmV8cy.s:25733  .debug_str:000000000000b082 .LASF4656
C:\Users\CYMR90~1\AppData\Local\Temp\ccSmV8cy.s:23853  .debug_str:0000000000003972 .LASF4657
C:\Users\CYMR90~1\AppData\Local\Temp\ccSmV8cy.s:24099  .debug_str:00000000000048eb .LASF4658
C:\Users\CYMR90~1\AppData\Local\Temp\ccSmV8cy.s:29198  .debug_str:0000000000018c3c .LASF4659
C:\Users\CYMR90~1\AppData\Local\Temp\ccSmV8cy.s:28675  .debug_str:0000000000016a28 .LASF4660
C:\Users\CYMR90~1\AppData\Local\Temp\ccSmV8cy.s:29804  .debug_str:000000000001b369 .LASF4661
C:\Users\CYMR90~1\AppData\Local\Temp\ccSmV8cy.s:31300  .debug_str:0000000000021105 .LASF4662
C:\Users\CYMR90~1\AppData\Local\Temp\ccSmV8cy.s:33930  .debug_str:000000000002b50a .LASF4663
C:\Users\CYMR90~1\AppData\Local\Temp\ccSmV8cy.s:28743  .debug_str:0000000000016e9f .LASF4664
C:\Users\CYMR90~1\AppData\Local\Temp\ccSmV8cy.s:27761  .debug_str:0000000000013147 .LASF4665
C:\Users\CYMR90~1\AppData\Local\Temp\ccSmV8cy.s:29852  .debug_str:000000000001b639 .LASF4666
C:\Users\CYMR90~1\AppData\Local\Temp\ccSmV8cy.s:34386  .debug_str:000000000002d22e .LASF4667
C:\Users\CYMR90~1\AppData\Local\Temp\ccSmV8cy.s:25017  .debug_str:0000000000008413 .LASF4668
C:\Users\CYMR90~1\AppData\Local\Temp\ccSmV8cy.s:25115  .debug_str:0000000000008a00 .LASF4669
C:\Users\CYMR90~1\AppData\Local\Temp\ccSmV8cy.s:31588  .debug_str:0000000000022275 .LASF4670
C:\Users\CYMR90~1\AppData\Local\Temp\ccSmV8cy.s:29528  .debug_str:000000000001a1a5 .LASF4671
C:\Users\CYMR90~1\AppData\Local\Temp\ccSmV8cy.s:31218  .debug_str:0000000000020b7f .LASF4672
C:\Users\CYMR90~1\AppData\Local\Temp\ccSmV8cy.s:31760  .debug_str:0000000000022cc9 .LASF4673
C:\Users\CYMR90~1\AppData\Local\Temp\ccSmV8cy.s:25261  .debug_str:0000000000009315 .LASF4674
C:\Users\CYMR90~1\AppData\Local\Temp\ccSmV8cy.s:24709  .debug_str:0000000000006ef7 .LASF4675
C:\Users\CYMR90~1\AppData\Local\Temp\ccSmV8cy.s:34092  .debug_str:000000000002bf2e .LASF4676
C:\Users\CYMR90~1\AppData\Local\Temp\ccSmV8cy.s:33918  .debug_str:000000000002b44a .LASF4677
C:\Users\CYMR90~1\AppData\Local\Temp\ccSmV8cy.s:23319  .debug_str:0000000000001767 .LASF4678
C:\Users\CYMR90~1\AppData\Local\Temp\ccSmV8cy.s:23111  .debug_str:0000000000000a84 .LASF4679
C:\Users\CYMR90~1\AppData\Local\Temp\ccSmV8cy.s:29788  .debug_str:000000000001b27f .LASF4680
C:\Users\CYMR90~1\AppData\Local\Temp\ccSmV8cy.s:27025  .debug_str:00000000000101be .LASF4681
C:\Users\CYMR90~1\AppData\Local\Temp\ccSmV8cy.s:34400  .debug_str:000000000002d308 .LASF4682
C:\Users\CYMR90~1\AppData\Local\Temp\ccSmV8cy.s:29372  .debug_str:00000000000197d6 .LASF4683
C:\Users\CYMR90~1\AppData\Local\Temp\ccSmV8cy.s:33678  .debug_str:000000000002a68f .LASF4684
C:\Users\CYMR90~1\AppData\Local\Temp\ccSmV8cy.s:29414  .debug_str:0000000000019a33 .LASF4685
C:\Users\CYMR90~1\AppData\Local\Temp\ccSmV8cy.s:31738  .debug_str:0000000000022b89 .LASF4686
C:\Users\CYMR90~1\AppData\Local\Temp\ccSmV8cy.s:28099  .debug_str:0000000000014655 .LASF4687
C:\Users\CYMR90~1\AppData\Local\Temp\ccSmV8cy.s:26189  .debug_str:000000000000cf05 .LASF4688
C:\Users\CYMR90~1\AppData\Local\Temp\ccSmV8cy.s:23729  .debug_str:0000000000003123 .LASF4689
C:\Users\CYMR90~1\AppData\Local\Temp\ccSmV8cy.s:26785  .debug_str:000000000000f32d .LASF4690
C:\Users\CYMR90~1\AppData\Local\Temp\ccSmV8cy.s:30994  .debug_str:000000000001fe1a .LASF4691
C:\Users\CYMR90~1\AppData\Local\Temp\ccSmV8cy.s:33712  .debug_str:000000000002a865 .LASF4692
C:\Users\CYMR90~1\AppData\Local\Temp\ccSmV8cy.s:32902  .debug_str:0000000000027529 .LASF4693
C:\Users\CYMR90~1\AppData\Local\Temp\ccSmV8cy.s:34238  .debug_str:000000000002c8d9 .LASF4694
C:\Users\CYMR90~1\AppData\Local\Temp\ccSmV8cy.s:32002  .debug_str:0000000000023af0 .LASF4695
C:\Users\CYMR90~1\AppData\Local\Temp\ccSmV8cy.s:31708  .debug_str:00000000000229cf .LASF4696
C:\Users\CYMR90~1\AppData\Local\Temp\ccSmV8cy.s:30646  .debug_str:000000000001e946 .LASF4697
C:\Users\CYMR90~1\AppData\Local\Temp\ccSmV8cy.s:29640  .debug_str:000000000001a7f8 .LASF4698
C:\Users\CYMR90~1\AppData\Local\Temp\ccSmV8cy.s:29236  .debug_str:0000000000018e79 .LASF4699
C:\Users\CYMR90~1\AppData\Local\Temp\ccSmV8cy.s:33966  .debug_str:000000000002b729 .LASF4700
C:\Users\CYMR90~1\AppData\Local\Temp\ccSmV8cy.s:32668  .debug_str:00000000000266de .LASF4701
C:\Users\CYMR90~1\AppData\Local\Temp\ccSmV8cy.s:24275  .debug_str:000000000000541e .LASF4702
C:\Users\CYMR90~1\AppData\Local\Temp\ccSmV8cy.s:28221  .debug_str:0000000000014e15 .LASF4703
C:\Users\CYMR90~1\AppData\Local\Temp\ccSmV8cy.s:28525  .debug_str:0000000000016092 .LASF4704
C:\Users\CYMR90~1\AppData\Local\Temp\ccSmV8cy.s:26921  .debug_str:000000000000fb20 .LASF4705
C:\Users\CYMR90~1\AppData\Local\Temp\ccSmV8cy.s:25395  .debug_str:0000000000009ac6 .LASF4706
C:\Users\CYMR90~1\AppData\Local\Temp\ccSmV8cy.s:30662  .debug_str:000000000001ea45 .LASF4707
C:\Users\CYMR90~1\AppData\Local\Temp\ccSmV8cy.s:23441  .debug_str:0000000000001fa1 .LASF4708
C:\Users\CYMR90~1\AppData\Local\Temp\ccSmV8cy.s:30540  .debug_str:000000000001e291 .LASF4709
C:\Users\CYMR90~1\AppData\Local\Temp\ccSmV8cy.s:25369  .debug_str:0000000000009986 .LASF4710
C:\Users\CYMR90~1\AppData\Local\Temp\ccSmV8cy.s:29112  .debug_str:0000000000018705 .LASF4711
C:\Users\CYMR90~1\AppData\Local\Temp\ccSmV8cy.s:33672  .debug_str:000000000002a63f .LASF4712
C:\Users\CYMR90~1\AppData\Local\Temp\ccSmV8cy.s:26567  .debug_str:000000000000e5cd .LASF4713
C:\Users\CYMR90~1\AppData\Local\Temp\ccSmV8cy.s:25635  .debug_str:000000000000a99c .LASF4714
C:\Users\CYMR90~1\AppData\Local\Temp\ccSmV8cy.s:34292  .debug_str:000000000002cbdb .LASF4715
C:\Users\CYMR90~1\AppData\Local\Temp\ccSmV8cy.s:26875  .debug_str:000000000000f8a5 .LASF4716
C:\Users\CYMR90~1\AppData\Local\Temp\ccSmV8cy.s:28832  .debug_str:0000000000017657 .LASF4717
C:\Users\CYMR90~1\AppData\Local\Temp\ccSmV8cy.s:24149  .debug_str:0000000000004ca5 .LASF4718
C:\Users\CYMR90~1\AppData\Local\Temp\ccSmV8cy.s:30912  .debug_str:000000000001f959 .LASF4719
C:\Users\CYMR90~1\AppData\Local\Temp\ccSmV8cy.s:26577  .debug_str:000000000000e66d .LASF4720
C:\Users\CYMR90~1\AppData\Local\Temp\ccSmV8cy.s:34044  .debug_str:000000000002bbd1 .LASF4721
C:\Users\CYMR90~1\AppData\Local\Temp\ccSmV8cy.s:28533  .debug_str:0000000000016100 .LASF4722
C:\Users\CYMR90~1\AppData\Local\Temp\ccSmV8cy.s:28876  .debug_str:0000000000017887 .LASF4723
C:\Users\CYMR90~1\AppData\Local\Temp\ccSmV8cy.s:30458  .debug_str:000000000001dd5b .LASF4724
C:\Users\CYMR90~1\AppData\Local\Temp\ccSmV8cy.s:28930  .debug_str:0000000000017bdb .LASF4725
C:\Users\CYMR90~1\AppData\Local\Temp\ccSmV8cy.s:25569  .debug_str:000000000000a5d6 .LASF4726
C:\Users\CYMR90~1\AppData\Local\Temp\ccSmV8cy.s:30610  .debug_str:000000000001e75e .LASF4727
C:\Users\CYMR90~1\AppData\Local\Temp\ccSmV8cy.s:31552  .debug_str:0000000000022054 .LASF4728
C:\Users\CYMR90~1\AppData\Local\Temp\ccSmV8cy.s:27141  .debug_str:0000000000010953 .LASF4729
C:\Users\CYMR90~1\AppData\Local\Temp\ccSmV8cy.s:26997  .debug_str:000000000000fff4 .LASF4730
C:\Users\CYMR90~1\AppData\Local\Temp\ccSmV8cy.s:34424  .debug_str:000000000002d4c6 .LASF4731
C:\Users\CYMR90~1\AppData\Local\Temp\ccSmV8cy.s:31488  .debug_str:0000000000021c62 .LASF4732
C:\Users\CYMR90~1\AppData\Local\Temp\ccSmV8cy.s:29160  .debug_str:00000000000189dc .LASF4733
C:\Users\CYMR90~1\AppData\Local\Temp\ccSmV8cy.s:26333  .debug_str:000000000000d787 .LASF4734
C:\Users\CYMR90~1\AppData\Local\Temp\ccSmV8cy.s:32764  .debug_str:0000000000026cce .LASF4735
C:\Users\CYMR90~1\AppData\Local\Temp\ccSmV8cy.s:33860  .debug_str:000000000002b135 .LASF4736
C:\Users\CYMR90~1\AppData\Local\Temp\ccSmV8cy.s:25975  .debug_str:000000000000c0a2 .LASF4737
C:\Users\CYMR90~1\AppData\Local\Temp\ccSmV8cy.s:33262  .debug_str:0000000000028cd7 .LASF4738
C:\Users\CYMR90~1\AppData\Local\Temp\ccSmV8cy.s:30084  .debug_str:000000000001c4da .LASF4739
C:\Users\CYMR90~1\AppData\Local\Temp\ccSmV8cy.s:33724  .debug_str:000000000002a908 .LASF4740
C:\Users\CYMR90~1\AppData\Local\Temp\ccSmV8cy.s:31730  .debug_str:0000000000022af8 .LASF4741
C:\Users\CYMR90~1\AppData\Local\Temp\ccSmV8cy.s:26375  .debug_str:000000000000da97 .LASF4742
C:\Users\CYMR90~1\AppData\Local\Temp\ccSmV8cy.s:29504  .debug_str:000000000001a049 .LASF4743
C:\Users\CYMR90~1\AppData\Local\Temp\ccSmV8cy.s:27485  .debug_str:0000000000011f71 .LASF4744
C:\Users\CYMR90~1\AppData\Local\Temp\ccSmV8cy.s:29856  .debug_str:000000000001b679 .LASF4745
C:\Users\CYMR90~1\AppData\Local\Temp\ccSmV8cy.s:31782  .debug_str:0000000000022dc7 .LASF4746
C:\Users\CYMR90~1\AppData\Local\Temp\ccSmV8cy.s:28405  .debug_str:00000000000159b3 .LASF4747
C:\Users\CYMR90~1\AppData\Local\Temp\ccSmV8cy.s:30776  .debug_str:000000000001f12e .LASF4748
C:\Users\CYMR90~1\AppData\Local\Temp\ccSmV8cy.s:32508  .debug_str:0000000000025c00 .LASF4749
C:\Users\CYMR90~1\AppData\Local\Temp\ccSmV8cy.s:26663  .debug_str:000000000000ec06 .LASF4750
C:\Users\CYMR90~1\AppData\Local\Temp\ccSmV8cy.s:31336  .debug_str:0000000000021327 .LASF4751
C:\Users\CYMR90~1\AppData\Local\Temp\ccSmV8cy.s:34248  .debug_str:000000000002c94d .LASF4752
C:\Users\CYMR90~1\AppData\Local\Temp\ccSmV8cy.s:33984  .debug_str:000000000002b82e .LASF4753
C:\Users\CYMR90~1\AppData\Local\Temp\ccSmV8cy.s:23065  .debug_str:00000000000007f7 .LASF4754
C:\Users\CYMR90~1\AppData\Local\Temp\ccSmV8cy.s:26793  .debug_str:000000000000f39c .LASF4755
C:\Users\CYMR90~1\AppData\Local\Temp\ccSmV8cy.s:31364  .debug_str:00000000000214c5 .LASF4756
C:\Users\CYMR90~1\AppData\Local\Temp\ccSmV8cy.s:24753  .debug_str:00000000000071e6 .LASF4757
C:\Users\CYMR90~1\AppData\Local\Temp\ccSmV8cy.s:25461  .debug_str:0000000000009f02 .LASF4758
C:\Users\CYMR90~1\AppData\Local\Temp\ccSmV8cy.s:28824  .debug_str:00000000000175d0 .LASF4759
C:\Users\CYMR90~1\AppData\Local\Temp\ccSmV8cy.s:29274  .debug_str:000000000001909d .LASF4760
C:\Users\CYMR90~1\AppData\Local\Temp\ccSmV8cy.s:33796  .debug_str:000000000002ad1b .LASF4761
C:\Users\CYMR90~1\AppData\Local\Temp\ccSmV8cy.s:26339  .debug_str:000000000000d7e1 .LASF4762
C:\Users\CYMR90~1\AppData\Local\Temp\ccSmV8cy.s:28874  .debug_str:000000000001786a .LASF4763
C:\Users\CYMR90~1\AppData\Local\Temp\ccSmV8cy.s:28175  .debug_str:0000000000014afb .LASF4764
C:\Users\CYMR90~1\AppData\Local\Temp\ccSmV8cy.s:33306  .debug_str:0000000000028f8d .LASF4765
C:\Users\CYMR90~1\AppData\Local\Temp\ccSmV8cy.s:30690  .debug_str:000000000001ebf2 .LASF4766
C:\Users\CYMR90~1\AppData\Local\Temp\ccSmV8cy.s:33588  .debug_str:000000000002a18d .LASF4767
C:\Users\CYMR90~1\AppData\Local\Temp\ccSmV8cy.s:23659  .debug_str:0000000000002d08 .LASF4768
C:\Users\CYMR90~1\AppData\Local\Temp\ccSmV8cy.s:30894  .debug_str:000000000001f801 .LASF4769
C:\Users\CYMR90~1\AppData\Local\Temp\ccSmV8cy.s:25529  .debug_str:000000000000a34c .LASF4770
C:\Users\CYMR90~1\AppData\Local\Temp\ccSmV8cy.s:26863  .debug_str:000000000000f7ce .LASF4771
C:\Users\CYMR90~1\AppData\Local\Temp\ccSmV8cy.s:24411  .debug_str:0000000000005c8b .LASF4772
C:\Users\CYMR90~1\AppData\Local\Temp\ccSmV8cy.s:29332  .debug_str:00000000000194e2 .LASF4773
C:\Users\CYMR90~1\AppData\Local\Temp\ccSmV8cy.s:32428  .debug_str:00000000000255f4 .LASF4774
C:\Users\CYMR90~1\AppData\Local\Temp\ccSmV8cy.s:29754  .debug_str:000000000001b078 .LASF4775
C:\Users\CYMR90~1\AppData\Local\Temp\ccSmV8cy.s:29612  .debug_str:000000000001a66e .LASF4776
C:\Users\CYMR90~1\AppData\Local\Temp\ccSmV8cy.s:24635  .debug_str:0000000000006a1c .LASF4777
C:\Users\CYMR90~1\AppData\Local\Temp\ccSmV8cy.s:27721  .debug_str:0000000000012e8d .LASF4778
C:\Users\CYMR90~1\AppData\Local\Temp\ccSmV8cy.s:26511  .debug_str:000000000000e232 .LASF4779
C:\Users\CYMR90~1\AppData\Local\Temp\ccSmV8cy.s:25089  .debug_str:00000000000088a8 .LASF4780
C:\Users\CYMR90~1\AppData\Local\Temp\ccSmV8cy.s:28683  .debug_str:0000000000016aa9 .LASF4781
C:\Users\CYMR90~1\AppData\Local\Temp\ccSmV8cy.s:25893  .debug_str:000000000000bb78 .LASF4782
C:\Users\CYMR90~1\AppData\Local\Temp\ccSmV8cy.s:23811  .debug_str:00000000000036b7 .LASF4783
C:\Users\CYMR90~1\AppData\Local\Temp\ccSmV8cy.s:25207  .debug_str:0000000000008f66 .LASF4784
C:\Users\CYMR90~1\AppData\Local\Temp\ccSmV8cy.s:25321  .debug_str:000000000000966b .LASF4785
C:\Users\CYMR90~1\AppData\Local\Temp\ccSmV8cy.s:31482  .debug_str:0000000000021b5e .LASF4786
C:\Users\CYMR90~1\AppData\Local\Temp\ccSmV8cy.s:27113  .debug_str:00000000000107a9 .LASF4787
C:\Users\CYMR90~1\AppData\Local\Temp\ccSmV8cy.s:30386  .debug_str:000000000001d8fd .LASF4788
C:\Users\CYMR90~1\AppData\Local\Temp\ccSmV8cy.s:29460  .debug_str:0000000000019ce7 .LASF4789
C:\Users\CYMR90~1\AppData\Local\Temp\ccSmV8cy.s:27653  .debug_str:0000000000012a37 .LASF4790
C:\Users\CYMR90~1\AppData\Local\Temp\ccSmV8cy.s:27509  .debug_str:0000000000012155 .LASF4791
C:\Users\CYMR90~1\AppData\Local\Temp\ccSmV8cy.s:29870  .debug_str:000000000001b7fc .LASF4792
C:\Users\CYMR90~1\AppData\Local\Temp\ccSmV8cy.s:32072  .debug_str:0000000000023f72 .LASF4793
C:\Users\CYMR90~1\AppData\Local\Temp\ccSmV8cy.s:27831  .debug_str:0000000000013592 .LASF4794
C:\Users\CYMR90~1\AppData\Local\Temp\ccSmV8cy.s:29522  .debug_str:000000000001a14e .LASF4795
C:\Users\CYMR90~1\AppData\Local\Temp\ccSmV8cy.s:30878  .debug_str:000000000001f6f5 .LASF4796
C:\Users\CYMR90~1\AppData\Local\Temp\ccSmV8cy.s:29264  .debug_str:0000000000018ffb .LASF4797
C:\Users\CYMR90~1\AppData\Local\Temp\ccSmV8cy.s:32856  .debug_str:0000000000027264 .LASF4798
C:\Users\CYMR90~1\AppData\Local\Temp\ccSmV8cy.s:32394  .debug_str:0000000000025395 .LASF4799
C:\Users\CYMR90~1\AppData\Local\Temp\ccSmV8cy.s:26741  .debug_str:000000000000f0c7 .LASF4800
C:\Users\CYMR90~1\AppData\Local\Temp\ccSmV8cy.s:33400  .debug_str:000000000002958f .LASF4801
C:\Users\CYMR90~1\AppData\Local\Temp\ccSmV8cy.s:33000  .debug_str:0000000000027adc .LASF4802
C:\Users\CYMR90~1\AppData\Local\Temp\ccSmV8cy.s:23641  .debug_str:0000000000002bab .LASF4803
C:\Users\CYMR90~1\AppData\Local\Temp\ccSmV8cy.s:28365  .debug_str:000000000001572b .LASF4804
C:\Users\CYMR90~1\AppData\Local\Temp\ccSmV8cy.s:32566  .debug_str:0000000000025fde .LASF4805
C:\Users\CYMR90~1\AppData\Local\Temp\ccSmV8cy.s:26259  .debug_str:000000000000d2e3 .LASF4806
C:\Users\CYMR90~1\AppData\Local\Temp\ccSmV8cy.s:24529  .debug_str:000000000000638c .LASF4807
C:\Users\CYMR90~1\AppData\Local\Temp\ccSmV8cy.s:31440  .debug_str:000000000002190e .LASF4808
C:\Users\CYMR90~1\AppData\Local\Temp\ccSmV8cy.s:31704  .debug_str:0000000000022974 .LASF4809
C:\Users\CYMR90~1\AppData\Local\Temp\ccSmV8cy.s:25379  .debug_str:0000000000009a02 .LASF4810
C:\Users\CYMR90~1\AppData\Local\Temp\ccSmV8cy.s:32118  .debug_str:000000000002422f .LASF4811
C:\Users\CYMR90~1\AppData\Local\Temp\ccSmV8cy.s:24797  .debug_str:00000000000074f4 .LASF4812
C:\Users\CYMR90~1\AppData\Local\Temp\ccSmV8cy.s:23575  .debug_str:000000000000276a .LASF4813
C:\Users\CYMR90~1\AppData\Local\Temp\ccSmV8cy.s:28539  .debug_str:0000000000016155 .LASF4814
C:\Users\CYMR90~1\AppData\Local\Temp\ccSmV8cy.s:30818  .debug_str:000000000001f39a .LASF4815
C:\Users\CYMR90~1\AppData\Local\Temp\ccSmV8cy.s:23253  .debug_str:000000000000135d .LASF4816
C:\Users\CYMR90~1\AppData\Local\Temp\ccSmV8cy.s:23401  .debug_str:0000000000001d2c .LASF4817
C:\Users\CYMR90~1\AppData\Local\Temp\ccSmV8cy.s:29934  .debug_str:000000000001bbc0 .LASF4818
C:\Users\CYMR90~1\AppData\Local\Temp\ccSmV8cy.s:31968  .debug_str:0000000000023949 .LASF4819
C:\Users\CYMR90~1\AppData\Local\Temp\ccSmV8cy.s:27543  .debug_str:000000000001236f .LASF4820
C:\Users\CYMR90~1\AppData\Local\Temp\ccSmV8cy.s:28079  .debug_str:000000000001453c .LASF4821
C:\Users\CYMR90~1\AppData\Local\Temp\ccSmV8cy.s:25341  .debug_str:000000000000977e .LASF4822
C:\Users\CYMR90~1\AppData\Local\Temp\ccSmV8cy.s:33832  .debug_str:000000000002af84 .LASF4823
C:\Users\CYMR90~1\AppData\Local\Temp\ccSmV8cy.s:29354  .debug_str:00000000000195dc .LASF4824
C:\Users\CYMR90~1\AppData\Local\Temp\ccSmV8cy.s:33384  .debug_str:00000000000294be .LASF4825
C:\Users\CYMR90~1\AppData\Local\Temp\ccSmV8cy.s:31160  .debug_str:000000000002083d .LASF4826
C:\Users\CYMR90~1\AppData\Local\Temp\ccSmV8cy.s:33302  .debug_str:0000000000028f47 .LASF4827
C:\Users\CYMR90~1\AppData\Local\Temp\ccSmV8cy.s:26575  .debug_str:000000000000e64e .LASF4828
C:\Users\CYMR90~1\AppData\Local\Temp\ccSmV8cy.s:24999  .debug_str:000000000000824d .LASF4829
C:\Users\CYMR90~1\AppData\Local\Temp\ccSmV8cy.s:34300  .debug_str:000000000002cc8d .LASF4830
C:\Users\CYMR90~1\AppData\Local\Temp\ccSmV8cy.s:30698  .debug_str:000000000001ec8b .LASF4831
C:\Users\CYMR90~1\AppData\Local\Temp\ccSmV8cy.s:30166  .debug_str:000000000001c98c .LASF4832
C:\Users\CYMR90~1\AppData\Local\Temp\ccSmV8cy.s:28375  .debug_str:00000000000157cb .LASF4833
C:\Users\CYMR90~1\AppData\Local\Temp\ccSmV8cy.s:32250  .debug_str:0000000000024a69 .LASF4834
C:\Users\CYMR90~1\AppData\Local\Temp\ccSmV8cy.s:31490  .debug_str:0000000000021c79 .LASF4835
C:\Users\CYMR90~1\AppData\Local\Temp\ccSmV8cy.s:25921  .debug_str:000000000000bd67 .LASF4836
C:\Users\CYMR90~1\AppData\Local\Temp\ccSmV8cy.s:29632  .debug_str:000000000001a788 .LASF4837
C:\Users\CYMR90~1\AppData\Local\Temp\ccSmV8cy.s:22939  .debug_str:00000000000000ae .LASF4838
C:\Users\CYMR90~1\AppData\Local\Temp\ccSmV8cy.s:27501  .debug_str:000000000001203a .LASF4839
C:\Users\CYMR90~1\AppData\Local\Temp\ccSmV8cy.s:31530  .debug_str:0000000000021eda .LASF4840
C:\Users\CYMR90~1\AppData\Local\Temp\ccSmV8cy.s:31796  .debug_str:0000000000022ea4 .LASF4841
C:\Users\CYMR90~1\AppData\Local\Temp\ccSmV8cy.s:28609  .debug_str:00000000000165f5 .LASF4842
C:\Users\CYMR90~1\AppData\Local\Temp\ccSmV8cy.s:33652  .debug_str:000000000002a506 .LASF4843
C:\Users\CYMR90~1\AppData\Local\Temp\ccSmV8cy.s:26161  .debug_str:000000000000cca3 .LASF4844
C:\Users\CYMR90~1\AppData\Local\Temp\ccSmV8cy.s:27683  .debug_str:0000000000012c23 .LASF4845
C:\Users\CYMR90~1\AppData\Local\Temp\ccSmV8cy.s:32094  .debug_str:00000000000240b3 .LASF4846
C:\Users\CYMR90~1\AppData\Local\Temp\ccSmV8cy.s:32524  .debug_str:0000000000025cf1 .LASF4847
C:\Users\CYMR90~1\AppData\Local\Temp\ccSmV8cy.s:27545  .debug_str:0000000000012384 .LASF4848
C:\Users\CYMR90~1\AppData\Local\Temp\ccSmV8cy.s:27901  .debug_str:0000000000013a77 .LASF4849
C:\Users\CYMR90~1\AppData\Local\Temp\ccSmV8cy.s:23419  .debug_str:0000000000001e1f .LASF4850
C:\Users\CYMR90~1\AppData\Local\Temp\ccSmV8cy.s:24765  .debug_str:0000000000007294 .LASF4851
C:\Users\CYMR90~1\AppData\Local\Temp\ccSmV8cy.s:34120  .debug_str:000000000002c0a4 .LASF4852
C:\Users\CYMR90~1\AppData\Local\Temp\ccSmV8cy.s:25693  .debug_str:000000000000ae04 .LASF4853
C:\Users\CYMR90~1\AppData\Local\Temp\ccSmV8cy.s:34276  .debug_str:000000000002cb1c .LASF4854
C:\Users\CYMR90~1\AppData\Local\Temp\ccSmV8cy.s:26049  .debug_str:000000000000c5f2 .LASF4855
C:\Users\CYMR90~1\AppData\Local\Temp\ccSmV8cy.s:27753  .debug_str:00000000000130a0 .LASF4856
C:\Users\CYMR90~1\AppData\Local\Temp\ccSmV8cy.s:23191  .debug_str:000000000000101c .LASF4857
C:\Users\CYMR90~1\AppData\Local\Temp\ccSmV8cy.s:29718  .debug_str:000000000001ade8 .LASF4858
C:\Users\CYMR90~1\AppData\Local\Temp\ccSmV8cy.s:24025  .debug_str:0000000000004411 .LASF4859
C:\Users\CYMR90~1\AppData\Local\Temp\ccSmV8cy.s:28838  .debug_str:00000000000176a6 .LASF4860
C:\Users\CYMR90~1\AppData\Local\Temp\ccSmV8cy.s:24297  .debug_str:0000000000005566 .LASF4861
C:\Users\CYMR90~1\AppData\Local\Temp\ccSmV8cy.s:25447  .debug_str:0000000000009e3f .LASF4862
C:\Users\CYMR90~1\AppData\Local\Temp\ccSmV8cy.s:24575  .debug_str:0000000000006655 .LASF4863
C:\Users\CYMR90~1\AppData\Local\Temp\ccSmV8cy.s:30506  .debug_str:000000000001e075 .LASF4864
C:\Users\CYMR90~1\AppData\Local\Temp\ccSmV8cy.s:29572  .debug_str:000000000001a443 .LASF4865
C:\Users\CYMR90~1\AppData\Local\Temp\ccSmV8cy.s:31728  .debug_str:0000000000022ad5 .LASF4866
C:\Users\CYMR90~1\AppData\Local\Temp\ccSmV8cy.s:24147  .debug_str:0000000000004c81 .LASF4867
C:\Users\CYMR90~1\AppData\Local\Temp\ccSmV8cy.s:33664  .debug_str:000000000002a5d7 .LASF4868
C:\Users\CYMR90~1\AppData\Local\Temp\ccSmV8cy.s:29416  .debug_str:0000000000019a4e .LASF4869
C:\Users\CYMR90~1\AppData\Local\Temp\ccSmV8cy.s:26767  .debug_str:000000000000f23c .LASF4870
C:\Users\CYMR90~1\AppData\Local\Temp\ccSmV8cy.s:25729  .debug_str:000000000000b047 .LASF4871
C:\Users\CYMR90~1\AppData\Local\Temp\ccSmV8cy.s:23043  .debug_str:00000000000006bd .LASF4872
C:\Users\CYMR90~1\AppData\Local\Temp\ccSmV8cy.s:25167  .debug_str:0000000000008d0f .LASF4873
C:\Users\CYMR90~1\AppData\Local\Temp\ccSmV8cy.s:25931  .debug_str:000000000000bdf1 .LASF4874
C:\Users\CYMR90~1\AppData\Local\Temp\ccSmV8cy.s:26719  .debug_str:000000000000ef5f .LASF4875
C:\Users\CYMR90~1\AppData\Local\Temp\ccSmV8cy.s:24803  .debug_str:0000000000007553 .LASF4876
C:\Users\CYMR90~1\AppData\Local\Temp\ccSmV8cy.s:23085  .debug_str:00000000000008e5 .LASF4877
C:\Users\CYMR90~1\AppData\Local\Temp\ccSmV8cy.s:30428  .debug_str:000000000001db5c .LASF4878
C:\Users\CYMR90~1\AppData\Local\Temp\ccSmV8cy.s:24223  .debug_str:0000000000005135 .LASF4879
C:\Users\CYMR90~1\AppData\Local\Temp\ccSmV8cy.s:29988  .debug_str:000000000001beeb .LASF4880
C:\Users\CYMR90~1\AppData\Local\Temp\ccSmV8cy.s:28101  .debug_str:0000000000014670 .LASF4881
C:\Users\CYMR90~1\AppData\Local\Temp\ccSmV8cy.s:34396  .debug_str:000000000002d2cd .LASF4882
C:\Users\CYMR90~1\AppData\Local\Temp\ccSmV8cy.s:33330  .debug_str:0000000000029173 .LASF4883
C:\Users\CYMR90~1\AppData\Local\Temp\ccSmV8cy.s:23367  .debug_str:0000000000001b02 .LASF4884
C:\Users\CYMR90~1\AppData\Local\Temp\ccSmV8cy.s:23489  .debug_str:0000000000002219 .LASF4885
C:\Users\CYMR90~1\AppData\Local\Temp\ccSmV8cy.s:27137  .debug_str:0000000000010915 .LASF4886
C:\Users\CYMR90~1\AppData\Local\Temp\ccSmV8cy.s:31010  .debug_str:000000000001ff0d .LASF4887
C:\Users\CYMR90~1\AppData\Local\Temp\ccSmV8cy.s:27279  .debug_str:00000000000111ab .LASF4888
C:\Users\CYMR90~1\AppData\Local\Temp\ccSmV8cy.s:31706  .debug_str:000000000002298c .LASF4889
C:\Users\CYMR90~1\AppData\Local\Temp\ccSmV8cy.s:27961  .debug_str:0000000000013e14 .LASF4890
C:\Users\CYMR90~1\AppData\Local\Temp\ccSmV8cy.s:24989  .debug_str:00000000000081b8 .LASF4891
C:\Users\CYMR90~1\AppData\Local\Temp\ccSmV8cy.s:31944  .debug_str:00000000000237be .LASF4892
C:\Users\CYMR90~1\AppData\Local\Temp\ccSmV8cy.s:34122  .debug_str:000000000002c0c8 .LASF4893
C:\Users\CYMR90~1\AppData\Local\Temp\ccSmV8cy.s:29162  .debug_str:00000000000189f5 .LASF4894
C:\Users\CYMR90~1\AppData\Local\Temp\ccSmV8cy.s:30074  .debug_str:000000000001c412 .LASF4895
C:\Users\CYMR90~1\AppData\Local\Temp\ccSmV8cy.s:27435  .debug_str:0000000000011b7b .LASF4896
C:\Users\CYMR90~1\AppData\Local\Temp\ccSmV8cy.s:24347  .debug_str:000000000000589e .LASF4897
C:\Users\CYMR90~1\AppData\Local\Temp\ccSmV8cy.s:24859  .debug_str:00000000000078c3 .LASF4898
C:\Users\CYMR90~1\AppData\Local\Temp\ccSmV8cy.s:23801  .debug_str:0000000000003616 .LASF4899
C:\Users\CYMR90~1\AppData\Local\Temp\ccSmV8cy.s:32332  .debug_str:0000000000024fa0 .LASF4900
C:\Users\CYMR90~1\AppData\Local\Temp\ccSmV8cy.s:27077  .debug_str:0000000000010500 .LASF4901
C:\Users\CYMR90~1\AppData\Local\Temp\ccSmV8cy.s:28900  .debug_str:0000000000017a0f .LASF4902
C:\Users\CYMR90~1\AppData\Local\Temp\ccSmV8cy.s:25289  .debug_str:00000000000094a9 .LASF4903
C:\Users\CYMR90~1\AppData\Local\Temp\ccSmV8cy.s:31598  .debug_str:0000000000022307 .LASF4904
C:\Users\CYMR90~1\AppData\Local\Temp\ccSmV8cy.s:33574  .debug_str:000000000002a0c0 .LASF4905
C:\Users\CYMR90~1\AppData\Local\Temp\ccSmV8cy.s:34466  .debug_str:000000000002d79d .LASF4906
C:\Users\CYMR90~1\AppData\Local\Temp\ccSmV8cy.s:33464  .debug_str:0000000000029962 .LASF4907
C:\Users\CYMR90~1\AppData\Local\Temp\ccSmV8cy.s:31828  .debug_str:00000000000230ec .LASF4908
C:\Users\CYMR90~1\AppData\Local\Temp\ccSmV8cy.s:31674  .debug_str:00000000000227d4 .LASF4909
C:\Users\CYMR90~1\AppData\Local\Temp\ccSmV8cy.s:28826  .debug_str:00000000000175e8 .LASF4910
C:\Users\CYMR90~1\AppData\Local\Temp\ccSmV8cy.s:27833  .debug_str:00000000000135ac .LASF4911
C:\Users\CYMR90~1\AppData\Local\Temp\ccSmV8cy.s:26319  .debug_str:000000000000d6a5 .LASF4912
C:\Users\CYMR90~1\AppData\Local\Temp\ccSmV8cy.s:24751  .debug_str:00000000000071a5 .LASF4913
C:\Users\CYMR90~1\AppData\Local\Temp\ccSmV8cy.s:31736  .debug_str:0000000000022b66 .LASF4914
C:\Users\CYMR90~1\AppData\Local\Temp\ccSmV8cy.s:26185  .debug_str:000000000000ced5 .LASF4915
C:\Users\CYMR90~1\AppData\Local\Temp\ccSmV8cy.s:31962  .debug_str:00000000000238e4 .LASF4916
C:\Users\CYMR90~1\AppData\Local\Temp\ccSmV8cy.s:28001  .debug_str:000000000001409f .LASF4917
C:\Users\CYMR90~1\AppData\Local\Temp\ccSmV8cy.s:30308  .debug_str:000000000001d2e9 .LASF4918
C:\Users\CYMR90~1\AppData\Local\Temp\ccSmV8cy.s:28972  .debug_str:0000000000017e79 .LASF4919
C:\Users\CYMR90~1\AppData\Local\Temp\ccSmV8cy.s:28573  .debug_str:000000000001639b .LASF4920
C:\Users\CYMR90~1\AppData\Local\Temp\ccSmV8cy.s:24627  .debug_str:00000000000069ac .LASF4921
C:\Users\CYMR90~1\AppData\Local\Temp\ccSmV8cy.s:25793  .debug_str:000000000000b510 .LASF4922
C:\Users\CYMR90~1\AppData\Local\Temp\ccSmV8cy.s:28123  .debug_str:0000000000014802 .LASF4923
C:\Users\CYMR90~1\AppData\Local\Temp\ccSmV8cy.s:31930  .debug_str:000000000002370e .LASF4924
C:\Users\CYMR90~1\AppData\Local\Temp\ccSmV8cy.s:32912  .debug_str:0000000000027594 .LASF4925
C:\Users\CYMR90~1\AppData\Local\Temp\ccSmV8cy.s:30112  .debug_str:000000000001c68d .LASF4926
C:\Users\CYMR90~1\AppData\Local\Temp\ccSmV8cy.s:24265  .debug_str:0000000000005372 .LASF4927
C:\Users\CYMR90~1\AppData\Local\Temp\ccSmV8cy.s:29412  .debug_str:0000000000019a11 .LASF4928
C:\Users\CYMR90~1\AppData\Local\Temp\ccSmV8cy.s:25843  .debug_str:000000000000b7d0 .LASF4929
C:\Users\CYMR90~1\AppData\Local\Temp\ccSmV8cy.s:27011  .debug_str:00000000000100dc .LASF4930
C:\Users\CYMR90~1\AppData\Local\Temp\ccSmV8cy.s:34222  .debug_str:000000000002c76e .LASF4931
C:\Users\CYMR90~1\AppData\Local\Temp\ccSmV8cy.s:32456  .debug_str:00000000000257b1 .LASF4932
C:\Users\CYMR90~1\AppData\Local\Temp\ccSmV8cy.s:26461  .debug_str:000000000000df76 .LASF4933
C:\Users\CYMR90~1\AppData\Local\Temp\ccSmV8cy.s:24355  .debug_str:000000000000590d .LASF4934
C:\Users\CYMR90~1\AppData\Local\Temp\ccSmV8cy.s:33696  .debug_str:000000000002a784 .LASF4935
C:\Users\CYMR90~1\AppData\Local\Temp\ccSmV8cy.s:31402  .debug_str:00000000000216f6 .LASF4936
C:\Users\CYMR90~1\AppData\Local\Temp\ccSmV8cy.s:24359  .debug_str:000000000000596d .LASF4937
C:\Users\CYMR90~1\AppData\Local\Temp\ccSmV8cy.s:33902  .debug_str:000000000002b368 .LASF4938
C:\Users\CYMR90~1\AppData\Local\Temp\ccSmV8cy.s:24453  .debug_str:0000000000005ed4 .LASF4939
C:\Users\CYMR90~1\AppData\Local\Temp\ccSmV8cy.s:33798  .debug_str:000000000002ad37 .LASF4940
C:\Users\CYMR90~1\AppData\Local\Temp\ccSmV8cy.s:31590  .debug_str:000000000002228d .LASF4941
C:\Users\CYMR90~1\AppData\Local\Temp\ccSmV8cy.s:32716  .debug_str:00000000000269fe .LASF4942
C:\Users\CYMR90~1\AppData\Local\Temp\ccSmV8cy.s:24183  .debug_str:0000000000004ec2 .LASF4943
C:\Users\CYMR90~1\AppData\Local\Temp\ccSmV8cy.s:31474  .debug_str:0000000000021aea .LASF4944
C:\Users\CYMR90~1\AppData\Local\Temp\ccSmV8cy.s:31320  .debug_str:000000000002124d .LASF4945
C:\Users\CYMR90~1\AppData\Local\Temp\ccSmV8cy.s:33854  .debug_str:000000000002b0de .LASF4946
C:\Users\CYMR90~1\AppData\Local\Temp\ccSmV8cy.s:32862  .debug_str:00000000000272c3 .LASF4947
C:\Users\CYMR90~1\AppData\Local\Temp\ccSmV8cy.s:24369  .debug_str:00000000000059d0 .LASF4948
C:\Users\CYMR90~1\AppData\Local\Temp\ccSmV8cy.s:27417  .debug_str:0000000000011a41 .LASF4949
C:\Users\CYMR90~1\AppData\Local\Temp\ccSmV8cy.s:25583  .debug_str:000000000000a6de .LASF4950
C:\Users\CYMR90~1\AppData\Local\Temp\ccSmV8cy.s:33408  .debug_str:00000000000295f5 .LASF4951
C:\Users\CYMR90~1\AppData\Local\Temp\ccSmV8cy.s:30336  .debug_str:000000000001d4ea .LASF4952
C:\Users\CYMR90~1\AppData\Local\Temp\ccSmV8cy.s:27019  .debug_str:000000000001013f .LASF4953
C:\Users\CYMR90~1\AppData\Local\Temp\ccSmV8cy.s:28287  .debug_str:00000000000151fb .LASF4954
C:\Users\CYMR90~1\AppData\Local\Temp\ccSmV8cy.s:34392  .debug_str:000000000002d291 .LASF4955
C:\Users\CYMR90~1\AppData\Local\Temp\ccSmV8cy.s:23849  .debug_str:0000000000003935 .LASF4956
C:\Users\CYMR90~1\AppData\Local\Temp\ccSmV8cy.s:32506  .debug_str:0000000000025bd6 .LASF4957
C:\Users\CYMR90~1\AppData\Local\Temp\ccSmV8cy.s:27203  .debug_str:0000000000010d0d .LASF4958
C:\Users\CYMR90~1\AppData\Local\Temp\ccSmV8cy.s:30510  .debug_str:000000000001e0bc .LASF4959
C:\Users\CYMR90~1\AppData\Local\Temp\ccSmV8cy.s:27879  .debug_str:0000000000013893 .LASF4960
C:\Users\CYMR90~1\AppData\Local\Temp\ccSmV8cy.s:30656  .debug_str:000000000001e9e9 .LASF4961
C:\Users\CYMR90~1\AppData\Local\Temp\ccSmV8cy.s:23633  .debug_str:0000000000002b27 .LASF4962
C:\Users\CYMR90~1\AppData\Local\Temp\ccSmV8cy.s:32972  .debug_str:0000000000027951 .LASF4963
C:\Users\CYMR90~1\AppData\Local\Temp\ccSmV8cy.s:27739  .debug_str:0000000000012fa9 .LASF4964
C:\Users\CYMR90~1\AppData\Local\Temp\ccSmV8cy.s:32314  .debug_str:0000000000024e8c .LASF4965
C:\Users\CYMR90~1\AppData\Local\Temp\ccSmV8cy.s:23725  .debug_str:00000000000030f2 .LASF4966
C:\Users\CYMR90~1\AppData\Local\Temp\ccSmV8cy.s:30534  .debug_str:000000000001e231 .LASF4967
C:\Users\CYMR90~1\AppData\Local\Temp\ccSmV8cy.s:30574  .debug_str:000000000001e488 .LASF4968
C:\Users\CYMR90~1\AppData\Local\Temp\ccSmV8cy.s:23271  .debug_str:0000000000001467 .LASF4969
C:\Users\CYMR90~1\AppData\Local\Temp\ccSmV8cy.s:24891  .debug_str:0000000000007ade .LASF4970
C:\Users\CYMR90~1\AppData\Local\Temp\ccSmV8cy.s:32416  .debug_str:000000000002550b .LASF4971
C:\Users\CYMR90~1\AppData\Local\Temp\ccSmV8cy.s:30712  .debug_str:000000000001ed84 .LASF4972
C:\Users\CYMR90~1\AppData\Local\Temp\ccSmV8cy.s:29582  .debug_str:000000000001a4ab .LASF4973
C:\Users\CYMR90~1\AppData\Local\Temp\ccSmV8cy.s:28309  .debug_str:0000000000015387 .LASF4974
C:\Users\CYMR90~1\AppData\Local\Temp\ccSmV8cy.s:23029  .debug_str:000000000000061b .LASF4975
C:\Users\CYMR90~1\AppData\Local\Temp\ccSmV8cy.s:34110  .debug_str:000000000002c005 .LASF4976
C:\Users\CYMR90~1\AppData\Local\Temp\ccSmV8cy.s:24737  .debug_str:00000000000070c5 .LASF4977
C:\Users\CYMR90~1\AppData\Local\Temp\ccSmV8cy.s:23385  .debug_str:0000000000001c10 .LASF4978
C:\Users\CYMR90~1\AppData\Local\Temp\ccSmV8cy.s:33222  .debug_str:0000000000028965 .LASF4979
C:\Users\CYMR90~1\AppData\Local\Temp\ccSmV8cy.s:33458  .debug_str:00000000000298c5 .LASF4980
C:\Users\CYMR90~1\AppData\Local\Temp\ccSmV8cy.s:22949  .debug_str:0000000000000146 .LASF4981
C:\Users\CYMR90~1\AppData\Local\Temp\ccSmV8cy.s:34340  .debug_str:000000000002cf2c .LASF4982
C:\Users\CYMR90~1\AppData\Local\Temp\ccSmV8cy.s:25681  .debug_str:000000000000ad39 .LASF4983
C:\Users\CYMR90~1\AppData\Local\Temp\ccSmV8cy.s:32432  .debug_str:000000000002562e .LASF4984
C:\Users\CYMR90~1\AppData\Local\Temp\ccSmV8cy.s:31184  .debug_str:00000000000209bc .LASF4985
C:\Users\CYMR90~1\AppData\Local\Temp\ccSmV8cy.s:33002  .debug_str:0000000000027b2c .LASF4986
C:\Users\CYMR90~1\AppData\Local\Temp\ccSmV8cy.s:27117  .debug_str:00000000000107e3 .LASF4987
C:\Users\CYMR90~1\AppData\Local\Temp\ccSmV8cy.s:33182  .debug_str:00000000000286f8 .LASF4988
C:\Users\CYMR90~1\AppData\Local\Temp\ccSmV8cy.s:31484  .debug_str:0000000000021b7a .LASF4989
C:\Users\CYMR90~1\AppData\Local\Temp\ccSmV8cy.s:24407  .debug_str:0000000000005c1d .LASF4990
C:\Users\CYMR90~1\AppData\Local\Temp\ccSmV8cy.s:27107  .debug_str:000000000001072a .LASF4991
C:\Users\CYMR90~1\AppData\Local\Temp\ccSmV8cy.s:26869  .debug_str:000000000000f837 .LASF4992
C:\Users\CYMR90~1\AppData\Local\Temp\ccSmV8cy.s:26045  .debug_str:000000000000c5a5 .LASF4993
C:\Users\CYMR90~1\AppData\Local\Temp\ccSmV8cy.s:25853  .debug_str:000000000000b85a .LASF4994
C:\Users\CYMR90~1\AppData\Local\Temp\ccSmV8cy.s:30286  .debug_str:000000000001d19a .LASF4995
C:\Users\CYMR90~1\AppData\Local\Temp\ccSmV8cy.s:27541  .debug_str:000000000001233d .LASF4996
C:\Users\CYMR90~1\AppData\Local\Temp\ccSmV8cy.s:33106  .debug_str:00000000000281ab .LASF4997
C:\Users\CYMR90~1\AppData\Local\Temp\ccSmV8cy.s:24555  .debug_str:00000000000064f9 .LASF4998
C:\Users\CYMR90~1\AppData\Local\Temp\ccSmV8cy.s:30280  .debug_str:000000000001d127 .LASF4999
C:\Users\CYMR90~1\AppData\Local\Temp\ccSmV8cy.s:27089  .debug_str:00000000000105e2 .LASF5000
C:\Users\CYMR90~1\AppData\Local\Temp\ccSmV8cy.s:31450  .debug_str:000000000002197b .LASF5001
C:\Users\CYMR90~1\AppData\Local\Temp\ccSmV8cy.s:24193  .debug_str:0000000000004f7a .LASF5002
C:\Users\CYMR90~1\AppData\Local\Temp\ccSmV8cy.s:23731  .debug_str:000000000000313e .LASF5003
C:\Users\CYMR90~1\AppData\Local\Temp\ccSmV8cy.s:32930  .debug_str:0000000000027683 .LASF5004
C:\Users\CYMR90~1\AppData\Local\Temp\ccSmV8cy.s:28415  .debug_str:0000000000015a23 .LASF5005
C:\Users\CYMR90~1\AppData\Local\Temp\ccSmV8cy.s:24051  .debug_str:00000000000045ad .LASF5006
C:\Users\CYMR90~1\AppData\Local\Temp\ccSmV8cy.s:30602  .debug_str:000000000001e6ba .LASF5007
C:\Users\CYMR90~1\AppData\Local\Temp\ccSmV8cy.s:25239  .debug_str:00000000000091cf .LASF5008
C:\Users\CYMR90~1\AppData\Local\Temp\ccSmV8cy.s:31638  .debug_str:00000000000225b2 .LASF5009
C:\Users\CYMR90~1\AppData\Local\Temp\ccSmV8cy.s:32030  .debug_str:0000000000023ca9 .LASF5010
C:\Users\CYMR90~1\AppData\Local\Temp\ccSmV8cy.s:32790  .debug_str:0000000000026e77 .LASF5011
C:\Users\CYMR90~1\AppData\Local\Temp\ccSmV8cy.s:33226  .debug_str:00000000000289ee .LASF5012
C:\Users\CYMR90~1\AppData\Local\Temp\ccSmV8cy.s:24581  .debug_str:00000000000066b0 .LASF5013
C:\Users\CYMR90~1\AppData\Local\Temp\ccSmV8cy.s:23891  .debug_str:0000000000003bf5 .LASF5014
C:\Users\CYMR90~1\AppData\Local\Temp\ccSmV8cy.s:24033  .debug_str:0000000000004473 .LASF5015
C:\Users\CYMR90~1\AppData\Local\Temp\ccSmV8cy.s:32206  .debug_str:0000000000024739 .LASF5016
C:\Users\CYMR90~1\AppData\Local\Temp\ccSmV8cy.s:25413  .debug_str:0000000000009c20 .LASF5017
C:\Users\CYMR90~1\AppData\Local\Temp\ccSmV8cy.s:29826  .debug_str:000000000001b48e .LASF5018
C:\Users\CYMR90~1\AppData\Local\Temp\ccSmV8cy.s:23995  .debug_str:000000000000426a .LASF5019
C:\Users\CYMR90~1\AppData\Local\Temp\ccSmV8cy.s:28561  .debug_str:000000000001629b .LASF5020
C:\Users\CYMR90~1\AppData\Local\Temp\ccSmV8cy.s:25041  .debug_str:00000000000085ac .LASF5021
C:\Users\CYMR90~1\AppData\Local\Temp\ccSmV8cy.s:23971  .debug_str:0000000000004103 .LASF5022
C:\Users\CYMR90~1\AppData\Local\Temp\ccSmV8cy.s:33732  .debug_str:000000000002a984 .LASF5023
C:\Users\CYMR90~1\AppData\Local\Temp\ccSmV8cy.s:24857  .debug_str:0000000000007891 .LASF5024
C:\Users\CYMR90~1\AppData\Local\Temp\ccSmV8cy.s:31002  .debug_str:000000000001fe93 .LASF5025
C:\Users\CYMR90~1\AppData\Local\Temp\ccSmV8cy.s:23585  .debug_str:0000000000002822 .LASF5026
C:\Users\CYMR90~1\AppData\Local\Temp\ccSmV8cy.s:29142  .debug_str:00000000000188b7 .LASF5027
C:\Users\CYMR90~1\AppData\Local\Temp\ccSmV8cy.s:34464  .debug_str:000000000002d76b .LASF5028
C:\Users\CYMR90~1\AppData\Local\Temp\ccSmV8cy.s:25051  .debug_str:000000000000863c .LASF5029
C:\Users\CYMR90~1\AppData\Local\Temp\ccSmV8cy.s:32672  .debug_str:000000000002671d .LASF5030
C:\Users\CYMR90~1\AppData\Local\Temp\ccSmV8cy.s:27681  .debug_str:0000000000012bf1 .LASF5031
C:\Users\CYMR90~1\AppData\Local\Temp\ccSmV8cy.s:31948  .debug_str:0000000000023800 .LASF5032
C:\Users\CYMR90~1\AppData\Local\Temp\ccSmV8cy.s:23129  .debug_str:0000000000000c03 .LASF5033
C:\Users\CYMR90~1\AppData\Local\Temp\ccSmV8cy.s:27729  .debug_str:0000000000012ee9 .LASF5034
C:\Users\CYMR90~1\AppData\Local\Temp\ccSmV8cy.s:31136  .debug_str:00000000000206b4 .LASF5035
C:\Users\CYMR90~1\AppData\Local\Temp\ccSmV8cy.s:33530  .debug_str:0000000000029de8 .LASF5036
C:\Users\CYMR90~1\AppData\Local\Temp\ccSmV8cy.s:32708  .debug_str:000000000002698b .LASF5037
C:\Users\CYMR90~1\AppData\Local\Temp\ccSmV8cy.s:23879  .debug_str:0000000000003b1e .LASF5038
C:\Users\CYMR90~1\AppData\Local\Temp\ccSmV8cy.s:32650  .debug_str:00000000000265d3 .LASF5039
C:\Users\CYMR90~1\AppData\Local\Temp\ccSmV8cy.s:28705  .debug_str:0000000000016bd5 .LASF5040
C:\Users\CYMR90~1\AppData\Local\Temp\ccSmV8cy.s:32256  .debug_str:0000000000024ae0 .LASF5041
C:\Users\CYMR90~1\AppData\Local\Temp\ccSmV8cy.s:28549  .debug_str:00000000000161da .LASF5042
C:\Users\CYMR90~1\AppData\Local\Temp\ccSmV8cy.s:28984  .debug_str:0000000000017f3e .LASF5043
C:\Users\CYMR90~1\AppData\Local\Temp\ccSmV8cy.s:25919  .debug_str:000000000000bd45 .LASF5044
C:\Users\CYMR90~1\AppData\Local\Temp\ccSmV8cy.s:28317  .debug_str:000000000001540b .LASF5045
C:\Users\CYMR90~1\AppData\Local\Temp\ccSmV8cy.s:31342  .debug_str:0000000000021387 .LASF5046
C:\Users\CYMR90~1\AppData\Local\Temp\ccSmV8cy.s:28341  .debug_str:00000000000155c0 .LASF5047
C:\Users\CYMR90~1\AppData\Local\Temp\ccSmV8cy.s:32738  .debug_str:0000000000026b6f .LASF5048
C:\Users\CYMR90~1\AppData\Local\Temp\ccSmV8cy.s:27041  .debug_str:00000000000102b0 .LASF5049
C:\Users\CYMR90~1\AppData\Local\Temp\ccSmV8cy.s:30240  .debug_str:000000000001ce03 .LASF5050
C:\Users\CYMR90~1\AppData\Local\Temp\ccSmV8cy.s:24965  .debug_str:0000000000007f83 .LASF5051
C:\Users\CYMR90~1\AppData\Local\Temp\ccSmV8cy.s:26667  .debug_str:000000000000ec3f .LASF5052
C:\Users\CYMR90~1\AppData\Local\Temp\ccSmV8cy.s:22941  .debug_str:00000000000000d1 .LASF5053
C:\Users\CYMR90~1\AppData\Local\Temp\ccSmV8cy.s:27955  .debug_str:0000000000013dd3 .LASF5054
C:\Users\CYMR90~1\AppData\Local\Temp\ccSmV8cy.s:24325  .debug_str:000000000000572c .LASF5055
C:\Users\CYMR90~1\AppData\Local\Temp\ccSmV8cy.s:29242  .debug_str:0000000000018ec5 .LASF5056
C:\Users\CYMR90~1\AppData\Local\Temp\ccSmV8cy.s:26549  .debug_str:000000000000e4c7 .LASF5057
C:\Users\CYMR90~1\AppData\Local\Temp\ccSmV8cy.s:27093  .debug_str:0000000000010630 .LASF5058
C:\Users\CYMR90~1\AppData\Local\Temp\ccSmV8cy.s:27043  .debug_str:00000000000102d3 .LASF5059
C:\Users\CYMR90~1\AppData\Local\Temp\ccSmV8cy.s:28950  .debug_str:0000000000017d11 .LASF5060
C:\Users\CYMR90~1\AppData\Local\Temp\ccSmV8cy.s:28387  .debug_str:0000000000015863 .LASF5061
C:\Users\CYMR90~1\AppData\Local\Temp\ccSmV8cy.s:27765  .debug_str:0000000000013182 .LASF5062
C:\Users\CYMR90~1\AppData\Local\Temp\ccSmV8cy.s:30220  .debug_str:000000000001cca7 .LASF5063
C:\Users\CYMR90~1\AppData\Local\Temp\ccSmV8cy.s:24755  .debug_str:0000000000007201 .LASF5064
C:\Users\CYMR90~1\AppData\Local\Temp\ccSmV8cy.s:23307  .debug_str:0000000000001688 .LASF5065
C:\Users\CYMR90~1\AppData\Local\Temp\ccSmV8cy.s:28403  .debug_str:000000000001598f .LASF5066
C:\Users\CYMR90~1\AppData\Local\Temp\ccSmV8cy.s:27829  .debug_str:000000000001356e .LASF5067
C:\Users\CYMR90~1\AppData\Local\Temp\ccSmV8cy.s:30522  .debug_str:000000000001e176 .LASF5068
C:\Users\CYMR90~1\AppData\Local\Temp\ccSmV8cy.s:23529  .debug_str:0000000000002487 .LASF5069
C:\Users\CYMR90~1\AppData\Local\Temp\ccSmV8cy.s:25679  .debug_str:000000000000ad15 .LASF5070
C:\Users\CYMR90~1\AppData\Local\Temp\ccSmV8cy.s:23267  .debug_str:0000000000001426 .LASF5071
C:\Users\CYMR90~1\AppData\Local\Temp\ccSmV8cy.s:27379  .debug_str:00000000000117be .LASF5072
C:\Users\CYMR90~1\AppData\Local\Temp\ccSmV8cy.s:29596  .debug_str:000000000001a587 .LASF5073
C:\Users\CYMR90~1\AppData\Local\Temp\ccSmV8cy.s:28105  .debug_str:00000000000146ae .LASF5074
C:\Users\CYMR90~1\AppData\Local\Temp\ccSmV8cy.s:33452  .debug_str:0000000000029880 .LASF5075
C:\Users\CYMR90~1\AppData\Local\Temp\ccSmV8cy.s:29982  .debug_str:000000000001be9a .LASF5076
C:\Users\CYMR90~1\AppData\Local\Temp\ccSmV8cy.s:27457  .debug_str:0000000000011cf5 .LASF5077
C:\Users\CYMR90~1\AppData\Local\Temp\ccSmV8cy.s:33838  .debug_str:000000000002afe9 .LASF5078
C:\Users\CYMR90~1\AppData\Local\Temp\ccSmV8cy.s:34154  .debug_str:000000000002c2f5 .LASF5079
C:\Users\CYMR90~1\AppData\Local\Temp\ccSmV8cy.s:25709  .debug_str:000000000000af16 .LASF5080
C:\Users\CYMR90~1\AppData\Local\Temp\ccSmV8cy.s:24191  .debug_str:0000000000004f56 .LASF5081
C:\Users\CYMR90~1\AppData\Local\Temp\ccSmV8cy.s:34374  .debug_str:000000000002d14e .LASF5082
C:\Users\CYMR90~1\AppData\Local\Temp\ccSmV8cy.s:27525  .debug_str:0000000000012239 .LASF5083
C:\Users\CYMR90~1\AppData\Local\Temp\ccSmV8cy.s:23061  .debug_str:00000000000007c8 .LASF5084
C:\Users\CYMR90~1\AppData\Local\Temp\ccSmV8cy.s:32136  .debug_str:0000000000024352 .LASF5085
C:\Users\CYMR90~1\AppData\Local\Temp\ccSmV8cy.s:28657  .debug_str:0000000000016932 .LASF5086
C:\Users\CYMR90~1\AppData\Local\Temp\ccSmV8cy.s:27055  .debug_str:00000000000103c2 .LASF5087
C:\Users\CYMR90~1\AppData\Local\Temp\ccSmV8cy.s:33312  .debug_str:0000000000028ff8 .LASF5088
C:\Users\CYMR90~1\AppData\Local\Temp\ccSmV8cy.s:31282  .debug_str:0000000000020fec .LASF5089
C:\Users\CYMR90~1\AppData\Local\Temp\ccSmV8cy.s:33024  .debug_str:0000000000027d3d .LASF5090
C:\Users\CYMR90~1\AppData\Local\Temp\ccSmV8cy.s:33152  .debug_str:00000000000284c9 .LASF5091
C:\Users\CYMR90~1\AppData\Local\Temp\ccSmV8cy.s:34130  .debug_str:000000000002c14a .LASF5092
C:\Users\CYMR90~1\AppData\Local\Temp\ccSmV8cy.s:26219  .debug_str:000000000000d0b8 .LASF5093
C:\Users\CYMR90~1\AppData\Local\Temp\ccSmV8cy.s:34320  .debug_str:000000000002ce18 .LASF5094
C:\Users\CYMR90~1\AppData\Local\Temp\ccSmV8cy.s:24089  .debug_str:0000000000004837 .LASF5095
C:\Users\CYMR90~1\AppData\Local\Temp\ccSmV8cy.s:27385  .debug_str:0000000000011834 .LASF5096
C:\Users\CYMR90~1\AppData\Local\Temp\ccSmV8cy.s:30352  .debug_str:000000000001d679 .LASF5097
C:\Users\CYMR90~1\AppData\Local\Temp\ccSmV8cy.s:28886  .debug_str:0000000000017942 .LASF5098
C:\Users\CYMR90~1\AppData\Local\Temp\ccSmV8cy.s:33390  .debug_str:0000000000029518 .LASF5099
C:\Users\CYMR90~1\AppData\Local\Temp\ccSmV8cy.s:23677  .debug_str:0000000000002e1c .LASF5100
C:\Users\CYMR90~1\AppData\Local\Temp\ccSmV8cy.s:26071  .debug_str:000000000000c746 .LASF5101
C:\Users\CYMR90~1\AppData\Local\Temp\ccSmV8cy.s:30460  .debug_str:000000000001dd75 .LASF5102
C:\Users\CYMR90~1\AppData\Local\Temp\ccSmV8cy.s:24851  .debug_str:000000000000782c .LASF5103
C:\Users\CYMR90~1\AppData\Local\Temp\ccSmV8cy.s:24159  .debug_str:0000000000004d40 .LASF5104
C:\Users\CYMR90~1\AppData\Local\Temp\ccSmV8cy.s:24981  .debug_str:0000000000008122 .LASF5105
C:\Users\CYMR90~1\AppData\Local\Temp\ccSmV8cy.s:23491  .debug_str:000000000000223d .LASF5106
C:\Users\CYMR90~1\AppData\Local\Temp\ccSmV8cy.s:33654  .debug_str:000000000002a52b .LASF5107
C:\Users\CYMR90~1\AppData\Local\Temp\ccSmV8cy.s:23577  .debug_str:0000000000002783 .LASF5108
C:\Users\CYMR90~1\AppData\Local\Temp\ccSmV8cy.s:32160  .debug_str:0000000000024499 .LASF5109
C:\Users\CYMR90~1\AppData\Local\Temp\ccSmV8cy.s:27465  .debug_str:0000000000011d65 .LASF5110
C:\Users\CYMR90~1\AppData\Local\Temp\ccSmV8cy.s:29926  .debug_str:000000000001bb2c .LASF5111
C:\Users\CYMR90~1\AppData\Local\Temp\ccSmV8cy.s:27081  .debug_str:0000000000010545 .LASF5112
C:\Users\CYMR90~1\AppData\Local\Temp\ccSmV8cy.s:23389  .debug_str:0000000000001c5a .LASF5113
C:\Users\CYMR90~1\AppData\Local\Temp\ccSmV8cy.s:31688  .debug_str:0000000000022875 .LASF5114
C:\Users\CYMR90~1\AppData\Local\Temp\ccSmV8cy.s:28307  .debug_str:0000000000015363 .LASF5115
C:\Users\CYMR90~1\AppData\Local\Temp\ccSmV8cy.s:26873  .debug_str:000000000000f881 .LASF5116
C:\Users\CYMR90~1\AppData\Local\Temp\ccSmV8cy.s:29518  .debug_str:000000000001a114 .LASF5117
C:\Users\CYMR90~1\AppData\Local\Temp\ccSmV8cy.s:29400  .debug_str:000000000001995b .LASF5118
C:\Users\CYMR90~1\AppData\Local\Temp\ccSmV8cy.s:30832  .debug_str:000000000001f449 .LASF5119
C:\Users\CYMR90~1\AppData\Local\Temp\ccSmV8cy.s:32786  .debug_str:0000000000026e3c .LASF5120
C:\Users\CYMR90~1\AppData\Local\Temp\ccSmV8cy.s:30900  .debug_str:000000000001f872 .LASF5121
C:\Users\CYMR90~1\AppData\Local\Temp\ccSmV8cy.s:25345  .debug_str:00000000000097bf .LASF5122
C:\Users\CYMR90~1\AppData\Local\Temp\ccSmV8cy.s:33960  .debug_str:000000000002b6d6 .LASF5123
C:\Users\CYMR90~1\AppData\Local\Temp\ccSmV8cy.s:30394  .debug_str:000000000001d976 .LASF5124
C:\Users\CYMR90~1\AppData\Local\Temp\ccSmV8cy.s:27389  .debug_str:000000000001188f .LASF5125
C:\Users\CYMR90~1\AppData\Local\Temp\ccSmV8cy.s:32050  .debug_str:0000000000023dcf .LASF5126
C:\Users\CYMR90~1\AppData\Local\Temp\ccSmV8cy.s:31544  .debug_str:0000000000021fab .LASF5127
C:\Users\CYMR90~1\AppData\Local\Temp\ccSmV8cy.s:28063  .debug_str:0000000000014435 .LASF5128
C:\Users\CYMR90~1\AppData\Local\Temp\ccSmV8cy.s:30830  .debug_str:000000000001f425 .LASF5129
C:\Users\CYMR90~1\AppData\Local\Temp\ccSmV8cy.s:31970  .debug_str:0000000000023961 .LASF5130
C:\Users\CYMR90~1\AppData\Local\Temp\ccSmV8cy.s:34402  .debug_str:000000000002d327 .LASF5131
C:\Users\CYMR90~1\AppData\Local\Temp\ccSmV8cy.s:32804  .debug_str:0000000000026f5a .LASF5132
C:\Users\CYMR90~1\AppData\Local\Temp\ccSmV8cy.s:32636  .debug_str:00000000000264dd .LASF5133
C:\Users\CYMR90~1\AppData\Local\Temp\ccSmV8cy.s:28285  .debug_str:00000000000151d7 .LASF5134
C:\Users\CYMR90~1\AppData\Local\Temp\ccSmV8cy.s:34434  .debug_str:000000000002d546 .LASF5135
C:\Users\CYMR90~1\AppData\Local\Temp\ccSmV8cy.s:23355  .debug_str:0000000000001a5d .LASF5136
C:\Users\CYMR90~1\AppData\Local\Temp\ccSmV8cy.s:31694  .debug_str:00000000000228e2 .LASF5137
C:\Users\CYMR90~1\AppData\Local\Temp\ccSmV8cy.s:30544  .debug_str:000000000001e2c1 .LASF5138
C:\Users\CYMR90~1\AppData\Local\Temp\ccSmV8cy.s:29968  .debug_str:000000000001bda1 .LASF5139
C:\Users\CYMR90~1\AppData\Local\Temp\ccSmV8cy.s:34220  .debug_str:000000000002c748 .LASF5140
C:\Users\CYMR90~1\AppData\Local\Temp\ccSmV8cy.s:29052  .debug_str:0000000000018376 .LASF5141
C:\Users\CYMR90~1\AppData\Local\Temp\ccSmV8cy.s:30182  .debug_str:000000000001ca8b .LASF5142
C:\Users\CYMR90~1\AppData\Local\Temp\ccSmV8cy.s:25515  .debug_str:000000000000a240 .LASF5143
C:\Users\CYMR90~1\AppData\Local\Temp\ccSmV8cy.s:34254  .debug_str:000000000002c9a6 .LASF5144
C:\Users\CYMR90~1\AppData\Local\Temp\ccSmV8cy.s:25023  .debug_str:0000000000008483 .LASF5145
C:\Users\CYMR90~1\AppData\Local\Temp\ccSmV8cy.s:27455  .debug_str:0000000000011ccf .LASF5146
C:\Users\CYMR90~1\AppData\Local\Temp\ccSmV8cy.s:30036  .debug_str:000000000001c175 .LASF5147
C:\Users\CYMR90~1\AppData\Local\Temp\ccSmV8cy.s:34168  .debug_str:000000000002c413 .LASF5148
C:\Users\CYMR90~1\AppData\Local\Temp\ccSmV8cy.s:25241  .debug_str:0000000000009201 .LASF5149
C:\Users\CYMR90~1\AppData\Local\Temp\ccSmV8cy.s:34042  .debug_str:000000000002bbab .LASF5150
C:\Users\CYMR90~1\AppData\Local\Temp\ccSmV8cy.s:33158  .debug_str:0000000000028529 .LASF5151
C:\Users\CYMR90~1\AppData\Local\Temp\ccSmV8cy.s:27503  .debug_str:000000000001205e .LASF5152
C:\Users\CYMR90~1\AppData\Local\Temp\ccSmV8cy.s:24885  .debug_str:0000000000007a55 .LASF5153
C:\Users\CYMR90~1\AppData\Local\Temp\ccSmV8cy.s:25631  .debug_str:000000000000a95a .LASF5154
C:\Users\CYMR90~1\AppData\Local\Temp\ccSmV8cy.s:28195  .debug_str:0000000000014c7e .LASF5155
C:\Users\CYMR90~1\AppData\Local\Temp\ccSmV8cy.s:33422  .debug_str:0000000000029698 .LASF5156
C:\Users\CYMR90~1\AppData\Local\Temp\ccSmV8cy.s:30398  .debug_str:000000000001d9bb .LASF5157
C:\Users\CYMR90~1\AppData\Local\Temp\ccSmV8cy.s:28505  .debug_str:0000000000015f40 .LASF5158
C:\Users\CYMR90~1\AppData\Local\Temp\ccSmV8cy.s:23477  .debug_str:0000000000002170 .LASF5159
C:\Users\CYMR90~1\AppData\Local\Temp\ccSmV8cy.s:25049  .debug_str:0000000000008616 .LASF5160
C:\Users\CYMR90~1\AppData\Local\Temp\ccSmV8cy.s:26253  .debug_str:000000000000d286 .LASF5161
C:\Users\CYMR90~1\AppData\Local\Temp\ccSmV8cy.s:30294  .debug_str:000000000001d211 .LASF5162
C:\Users\CYMR90~1\AppData\Local\Temp\ccSmV8cy.s:27445  .debug_str:0000000000011c16 .LASF5163
C:\Users\CYMR90~1\AppData\Local\Temp\ccSmV8cy.s:26125  .debug_str:000000000000ca4c .LASF5164
C:\Users\CYMR90~1\AppData\Local\Temp\ccSmV8cy.s:29904  .debug_str:000000000001b9b8 .LASF5165
C:\Users\CYMR90~1\AppData\Local\Temp\ccSmV8cy.s:28721  .debug_str:0000000000016d3e .LASF5166
C:\Users\CYMR90~1\AppData\Local\Temp\ccSmV8cy.s:26473  .debug_str:000000000000e012 .LASF5167
C:\Users\CYMR90~1\AppData\Local\Temp\ccSmV8cy.s:25441  .debug_str:0000000000009de2 .LASF5168
C:\Users\CYMR90~1\AppData\Local\Temp\ccSmV8cy.s:31410  .debug_str:000000000002177a .LASF5169
C:\Users\CYMR90~1\AppData\Local\Temp\ccSmV8cy.s:25309  .debug_str:00000000000095c9 .LASF5170
C:\Users\CYMR90~1\AppData\Local\Temp\ccSmV8cy.s:29364  .debug_str:0000000000019687 .LASF5171
C:\Users\CYMR90~1\AppData\Local\Temp\ccSmV8cy.s:26731  .debug_str:000000000000f002 .LASF5172
C:\Users\CYMR90~1\AppData\Local\Temp\ccSmV8cy.s:29116  .debug_str:000000000001872f .LASF5173
C:\Users\CYMR90~1\AppData\Local\Temp\ccSmV8cy.s:29860  .debug_str:000000000001b74c .LASF5174
C:\Users\CYMR90~1\AppData\Local\Temp\ccSmV8cy.s:33958  .debug_str:000000000002b6b0 .LASF5175
C:\Users\CYMR90~1\AppData\Local\Temp\ccSmV8cy.s:26409  .debug_str:000000000000dc7e .LASF5176
C:\Users\CYMR90~1\AppData\Local\Temp\ccSmV8cy.s:25501  .debug_str:000000000000a149 .LASF5177
C:\Users\CYMR90~1\AppData\Local\Temp\ccSmV8cy.s:24889  .debug_str:0000000000007ab8 .LASF5178
C:\Users\CYMR90~1\AppData\Local\Temp\ccSmV8cy.s:23807  .debug_str:0000000000003678 .LASF5179
C:\Users\CYMR90~1\AppData\Local\Temp\ccSmV8cy.s:33328  .debug_str:000000000002914d .LASF5180
C:\Users\CYMR90~1\AppData\Local\Temp\ccSmV8cy.s:31818  .debug_str:000000000002303a .LASF5181
C:\Users\CYMR90~1\AppData\Local\Temp\ccSmV8cy.s:25743  .debug_str:000000000000b112 .LASF5182
C:\Users\CYMR90~1\AppData\Local\Temp\ccSmV8cy.s:32612  .debug_str:0000000000026352 .LASF5183
C:\Users\CYMR90~1\AppData\Local\Temp\ccSmV8cy.s:33884  .debug_str:000000000002b28e .LASF5184
C:\Users\CYMR90~1\AppData\Local\Temp\ccSmV8cy.s:29108  .debug_str:00000000000186c8 .LASF5185
C:\Users\CYMR90~1\AppData\Local\Temp\ccSmV8cy.s:27883  .debug_str:00000000000138e7 .LASF5186
C:\Users\CYMR90~1\AppData\Local\Temp\ccSmV8cy.s:34376  .debug_str:000000000002d172 .LASF5187
C:\Users\CYMR90~1\AppData\Local\Temp\ccSmV8cy.s:27453  .debug_str:0000000000011ca9 .LASF5188
C:\Users\CYMR90~1\AppData\Local\Temp\ccSmV8cy.s:23767  .debug_str:00000000000033c9 .LASF5189
C:\Users\CYMR90~1\AppData\Local\Temp\ccSmV8cy.s:33250  .debug_str:0000000000028b83 .LASF5190
C:\Users\CYMR90~1\AppData\Local\Temp\ccSmV8cy.s:24761  .debug_str:000000000000725e .LASF5191
C:\Users\CYMR90~1\AppData\Local\Temp\ccSmV8cy.s:31144  .debug_str:000000000002073e .LASF5192
C:\Users\CYMR90~1\AppData\Local\Temp\ccSmV8cy.s:33812  .debug_str:000000000002ae29 .LASF5193
C:\Users\CYMR90~1\AppData\Local\Temp\ccSmV8cy.s:26275  .debug_str:000000000000d3d6 .LASF5194
C:\Users\CYMR90~1\AppData\Local\Temp\ccSmV8cy.s:23495  .debug_str:0000000000002287 .LASF5195
C:\Users\CYMR90~1\AppData\Local\Temp\ccSmV8cy.s:34314  .debug_str:000000000002cdb1 .LASF5196
C:\Users\CYMR90~1\AppData\Local\Temp\ccSmV8cy.s:25025  .debug_str:00000000000084a9 .LASF5197
C:\Users\CYMR90~1\AppData\Local\Temp\ccSmV8cy.s:28271  .debug_str:0000000000015122 .LASF5198
C:\Users\CYMR90~1\AppData\Local\Temp\ccSmV8cy.s:27797  .debug_str:000000000001336a .LASF5199
C:\Users\CYMR90~1\AppData\Local\Temp\ccSmV8cy.s:26081  .debug_str:000000000000c7ca .LASF5200
C:\Users\CYMR90~1\AppData\Local\Temp\ccSmV8cy.s:29650  .debug_str:000000000001a867 .LASF5201
C:\Users\CYMR90~1\AppData\Local\Temp\ccSmV8cy.s:31966  .debug_str:0000000000023923 .LASF5202
C:\Users\CYMR90~1\AppData\Local\Temp\ccSmV8cy.s:26211  .debug_str:000000000000d047 .LASF5203
C:\Users\CYMR90~1\AppData\Local\Temp\ccSmV8cy.s:30208  .debug_str:000000000001cbe4 .LASF5204
C:\Users\CYMR90~1\AppData\Local\Temp\ccSmV8cy.s:31546  .debug_str:0000000000021fcf .LASF5205
C:\Users\CYMR90~1\AppData\Local\Temp\ccSmV8cy.s:26691  .debug_str:000000000000edc0 .LASF5206
C:\Users\CYMR90~1\AppData\Local\Temp\ccSmV8cy.s:30682  .debug_str:000000000001eb53 .LASF5207
C:\Users\CYMR90~1\AppData\Local\Temp\ccSmV8cy.s:23127  .debug_str:0000000000000bdd .LASF5208
C:\Users\CYMR90~1\AppData\Local\Temp\ccSmV8cy.s:30214  .debug_str:000000000001cc42 .LASF5209
C:\Users\CYMR90~1\AppData\Local\Temp\ccSmV8cy.s:31820  .debug_str:0000000000023060 .LASF5210
C:\Users\CYMR90~1\AppData\Local\Temp\ccSmV8cy.s:26431  .debug_str:000000000000ddbe .LASF5211
C:\Users\CYMR90~1\AppData\Local\Temp\ccSmV8cy.s:25929  .debug_str:000000000000bdcb .LASF5212
C:\Users\CYMR90~1\AppData\Local\Temp\ccSmV8cy.s:24585  .debug_str:00000000000066fb .LASF5213
C:\Users\CYMR90~1\AppData\Local\Temp\ccSmV8cy.s:34186  .debug_str:000000000002c520 .LASF5214
C:\Users\CYMR90~1\AppData\Local\Temp\ccSmV8cy.s:29778  .debug_str:000000000001b1f6 .LASF5215
C:\Users\CYMR90~1\AppData\Local\Temp\ccSmV8cy.s:30618  .debug_str:000000000001e7cc .LASF5216
C:\Users\CYMR90~1\AppData\Local\Temp\ccSmV8cy.s:26305  .debug_str:000000000000d5af .LASF5217
C:\Users\CYMR90~1\AppData\Local\Temp\ccSmV8cy.s:34364  .debug_str:000000000002d081 .LASF5218
C:\Users\CYMR90~1\AppData\Local\Temp\ccSmV8cy.s:24053  .debug_str:00000000000045df .LASF5219
C:\Users\CYMR90~1\AppData\Local\Temp\ccSmV8cy.s:33612  .debug_str:000000000002a2bf .LASF5220
C:\Users\CYMR90~1\AppData\Local\Temp\ccSmV8cy.s:24819  .debug_str:0000000000007650 .LASF5221
C:\Users\CYMR90~1\AppData\Local\Temp\ccSmV8cy.s:33730  .debug_str:000000000002a95e .LASF5222
C:\Users\CYMR90~1\AppData\Local\Temp\ccSmV8cy.s:23833  .debug_str:0000000000003815 .LASF5223
C:\Users\CYMR90~1\AppData\Local\Temp\ccSmV8cy.s:26571  .debug_str:000000000000e5fc .LASF5224
C:\Users\CYMR90~1\AppData\Local\Temp\ccSmV8cy.s:24349  .debug_str:00000000000058c0 .LASF5225
C:\Users\CYMR90~1\AppData\Local\Temp\ccSmV8cy.s:22985  .debug_str:0000000000000361 .LASF5226
C:\Users\CYMR90~1\AppData\Local\Temp\ccSmV8cy.s:23605  .debug_str:0000000000002986 .LASF5227
C:\Users\CYMR90~1\AppData\Local\Temp\ccSmV8cy.s:28377  .debug_str:00000000000157e8 .LASF5228
C:\Users\CYMR90~1\AppData\Local\Temp\ccSmV8cy.s:28135  .debug_str:0000000000014898 .LASF5229
C:\Users\CYMR90~1\AppData\Local\Temp\ccSmV8cy.s:26001  .debug_str:000000000000c2e9 .LASF5230
C:\Users\CYMR90~1\AppData\Local\Temp\ccSmV8cy.s:23285  .debug_str:0000000000001558 .LASF5231
C:\Users\CYMR90~1\AppData\Local\Temp\ccSmV8cy.s:34050  .debug_str:000000000002bc4a .LASF5232
C:\Users\CYMR90~1\AppData\Local\Temp\ccSmV8cy.s:30886  .debug_str:000000000001f786 .LASF5233
C:\Users\CYMR90~1\AppData\Local\Temp\ccSmV8cy.s:31074  .debug_str:00000000000202db .LASF5234
C:\Users\CYMR90~1\AppData\Local\Temp\ccSmV8cy.s:34532  .debug_str:000000000002db51 .LASF5235
C:\Users\CYMR90~1\AppData\Local\Temp\ccSmV8cy.s:23279  .debug_str:0000000000001508 .LASF5236
C:\Users\CYMR90~1\AppData\Local\Temp\ccSmV8cy.s:27595  .debug_str:0000000000012643 .LASF5237
C:\Users\CYMR90~1\AppData\Local\Temp\ccSmV8cy.s:24767  .debug_str:00000000000072b8 .LASF5238
C:\Users\CYMR90~1\AppData\Local\Temp\ccSmV8cy.s:32694  .debug_str:0000000000026862 .LASF5239
C:\Users\CYMR90~1\AppData\Local\Temp\ccSmV8cy.s:28319  .debug_str:000000000001542d .LASF5240
C:\Users\CYMR90~1\AppData\Local\Temp\ccSmV8cy.s:31626  .debug_str:00000000000224f8 .LASF5241
C:\Users\CYMR90~1\AppData\Local\Temp\ccSmV8cy.s:27805  .debug_str:0000000000013405 .LASF5242
C:\Users\CYMR90~1\AppData\Local\Temp\ccSmV8cy.s:24455  .debug_str:0000000000005ef8 .LASF5243
C:\Users\CYMR90~1\AppData\Local\Temp\ccSmV8cy.s:29136  .debug_str:000000000001885a .LASF5244
C:\Users\CYMR90~1\AppData\Local\Temp\ccSmV8cy.s:33174  .debug_str:0000000000028631 .LASF5245
C:\Users\CYMR90~1\AppData\Local\Temp\ccSmV8cy.s:33164  .debug_str:0000000000028597 .LASF5246
C:\Users\CYMR90~1\AppData\Local\Temp\ccSmV8cy.s:34380  .debug_str:000000000002d1b5 .LASF5247
C:\Users\CYMR90~1\AppData\Local\Temp\ccSmV8cy.s:30012  .debug_str:000000000001c02e .LASF5248
C:\Users\CYMR90~1\AppData\Local\Temp\ccSmV8cy.s:31382  .debug_str:00000000000215ec .LASF5249
C:\Users\CYMR90~1\AppData\Local\Temp\ccSmV8cy.s:23591  .debug_str:00000000000028a7 .LASF5250
C:\Users\CYMR90~1\AppData\Local\Temp\ccSmV8cy.s:31000  .debug_str:000000000001fe6d .LASF5251
C:\Users\CYMR90~1\AppData\Local\Temp\ccSmV8cy.s:25029  .debug_str:00000000000084e5 .LASF5252
C:\Users\CYMR90~1\AppData\Local\Temp\ccSmV8cy.s:29068  .debug_str:0000000000018457 .LASF5253
C:\Users\CYMR90~1\AppData\Local\Temp\ccSmV8cy.s:22987  .debug_str:0000000000000387 .LASF5254
C:\Users\CYMR90~1\AppData\Local\Temp\ccSmV8cy.s:23945  .debug_str:0000000000003f32 .LASF5255
C:\Users\CYMR90~1\AppData\Local\Temp\ccSmV8cy.s:29568  .debug_str:000000000001a40a .LASF5256
C:\Users\CYMR90~1\AppData\Local\Temp\ccSmV8cy.s:29266  .debug_str:000000000001901a .LASF5257
C:\Users\CYMR90~1\AppData\Local\Temp\ccSmV8cy.s:32070  .debug_str:0000000000023f4c .LASF5258
C:\Users\CYMR90~1\AppData\Local\Temp\ccSmV8cy.s:31104  .debug_str:00000000000204ae .LASF5259
C:\Users\CYMR90~1\AppData\Local\Temp\ccSmV8cy.s:32412  .debug_str:00000000000254d2 .LASF5260
C:\Users\CYMR90~1\AppData\Local\Temp\ccSmV8cy.s:29920  .debug_str:000000000001bad7 .LASF5261
C:\Users\CYMR90~1\AppData\Local\Temp\ccSmV8cy.s:29002  .debug_str:00000000000180a3 .LASF5262
C:\Users\CYMR90~1\AppData\Local\Temp\ccSmV8cy.s:25187  .debug_str:0000000000008e4e .LASF5263
C:\Users\CYMR90~1\AppData\Local\Temp\ccSmV8cy.s:31826  .debug_str:00000000000230c6 .LASF5264
C:\Users\CYMR90~1\AppData\Local\Temp\ccSmV8cy.s:29990  .debug_str:000000000001bf0f .LASF5265
C:\Users\CYMR90~1\AppData\Local\Temp\ccSmV8cy.s:33602  .debug_str:000000000002a235 .LASF5266
C:\Users\CYMR90~1\AppData\Local\Temp\ccSmV8cy.s:26059  .debug_str:000000000000c686 .LASF5267
C:\Users\CYMR90~1\AppData\Local\Temp\ccSmV8cy.s:27247  .debug_str:0000000000010f7d .LASF5268
C:\Users\CYMR90~1\AppData\Local\Temp\ccSmV8cy.s:26945  .debug_str:000000000000fd30 .LASF5269
C:\Users\CYMR90~1\AppData\Local\Temp\ccSmV8cy.s:24883  .debug_str:0000000000007a2f .LASF5270
C:\Users\CYMR90~1\AppData\Local\Temp\ccSmV8cy.s:23835  .debug_str:000000000000383b .LASF5271
C:\Users\CYMR90~1\AppData\Local\Temp\ccSmV8cy.s:34384  .debug_str:000000000002d208 .LASF5272
C:\Users\CYMR90~1\AppData\Local\Temp\ccSmV8cy.s:25377  .debug_str:00000000000099dc .LASF5273
C:\Users\CYMR90~1\AppData\Local\Temp\ccSmV8cy.s:34440  .debug_str:000000000002d59e .LASF5274
C:\Users\CYMR90~1\AppData\Local\Temp\ccSmV8cy.s:33542  .debug_str:0000000000029eb2 .LASF5275
C:\Users\CYMR90~1\AppData\Local\Temp\ccSmV8cy.s:25995  .debug_str:000000000000c270 .LASF5276
C:\Users\CYMR90~1\AppData\Local\Temp\ccSmV8cy.s:30412  .debug_str:000000000001da9b .LASF5277
C:\Users\CYMR90~1\AppData\Local\Temp\ccSmV8cy.s:32434  .debug_str:0000000000025660 .LASF5278
C:\Users\CYMR90~1\AppData\Local\Temp\ccSmV8cy.s:28389  .debug_str:0000000000015887 .LASF5279
C:\Users\CYMR90~1\AppData\Local\Temp\ccSmV8cy.s:31130  .debug_str:000000000002064e .LASF5280
C:\Users\CYMR90~1\AppData\Local\Temp\ccSmV8cy.s:31880  .debug_str:00000000000233d1 .LASF5281
C:\Users\CYMR90~1\AppData\Local\Temp\ccSmV8cy.s:32632  .debug_str:0000000000026492 .LASF5282
C:\Users\CYMR90~1\AppData\Local\Temp\ccSmV8cy.s:25581  .debug_str:000000000000a6b8 .LASF5283
C:\Users\CYMR90~1\AppData\Local\Temp\ccSmV8cy.s:31280  .debug_str:0000000000020fc6 .LASF5284
C:\Users\CYMR90~1\AppData\Local\Temp\ccSmV8cy.s:31276  .debug_str:0000000000020f89 .LASF5285
C:\Users\CYMR90~1\AppData\Local\Temp\ccSmV8cy.s:33650  .debug_str:000000000002a4e0 .LASF5286
C:\Users\CYMR90~1\AppData\Local\Temp\ccSmV8cy.s:33972  .debug_str:000000000002b77b .LASF5287
C:\Users\CYMR90~1\AppData\Local\Temp\ccSmV8cy.s:26867  .debug_str:000000000000f811 .LASF5288
C:\Users\CYMR90~1\AppData\Local\Temp\ccSmV8cy.s:32532  .debug_str:0000000000025d9a .LASF5289
C:\Users\CYMR90~1\AppData\Local\Temp\ccSmV8cy.s:27589  .debug_str:00000000000125e3 .LASF5290
C:\Users\CYMR90~1\AppData\Local\Temp\ccSmV8cy.s:26817  .debug_str:000000000000f4f3 .LASF5291
C:\Users\CYMR90~1\AppData\Local\Temp\ccSmV8cy.s:29308  .debug_str:0000000000019355 .LASF5292
C:\Users\CYMR90~1\AppData\Local\Temp\ccSmV8cy.s:32462  .debug_str:000000000002580d .LASF5293
C:\Users\CYMR90~1\AppData\Local\Temp\ccSmV8cy.s:29756  .debug_str:000000000001b091 .LASF5294
C:\Users\CYMR90~1\AppData\Local\Temp\ccSmV8cy.s:25669  .debug_str:000000000000aca3 .LASF5295
C:\Users\CYMR90~1\AppData\Local\Temp\ccSmV8cy.s:27967  .debug_str:0000000000013e89 .LASF5296
C:\Users\CYMR90~1\AppData\Local\Temp\ccSmV8cy.s:26359  .debug_str:000000000000d968 .LASF5297
C:\Users\CYMR90~1\AppData\Local\Temp\ccSmV8cy.s:26225  .debug_str:000000000000d11b .LASF5298
C:\Users\CYMR90~1\AppData\Local\Temp\ccSmV8cy.s:28783  .debug_str:0000000000017132 .LASF5299
C:\Users\CYMR90~1\AppData\Local\Temp\ccSmV8cy.s:30400  .debug_str:000000000001d9e1 .LASF5300
C:\Users\CYMR90~1\AppData\Local\Temp\ccSmV8cy.s:29228  .debug_str:0000000000018dde .LASF5301
C:\Users\CYMR90~1\AppData\Local\Temp\ccSmV8cy.s:27243  .debug_str:0000000000010f3e .LASF5302
C:\Users\CYMR90~1\AppData\Local\Temp\ccSmV8cy.s:25783  .debug_str:000000000000b47a .LASF5303
C:\Users\CYMR90~1\AppData\Local\Temp\ccSmV8cy.s:29268  .debug_str:0000000000019040 .LASF5304
C:\Users\CYMR90~1\AppData\Local\Temp\ccSmV8cy.s:29484  .debug_str:0000000000019e9d .LASF5305
C:\Users\CYMR90~1\AppData\Local\Temp\ccSmV8cy.s:30230  .debug_str:000000000001cd6d .LASF5306
C:\Users\CYMR90~1\AppData\Local\Temp\ccSmV8cy.s:24799  .debug_str:000000000000750d .LASF5307
C:\Users\CYMR90~1\AppData\Local\Temp\ccSmV8cy.s:34330  .debug_str:000000000002ce9a .LASF5308
C:\Users\CYMR90~1\AppData\Local\Temp\ccSmV8cy.s:26643  .debug_str:000000000000ea50 .LASF5309
C:\Users\CYMR90~1\AppData\Local\Temp\ccSmV8cy.s:23219  .debug_str:0000000000001186 .LASF5310
C:\Users\CYMR90~1\AppData\Local\Temp\ccSmV8cy.s:30478  .debug_str:000000000001de77 .LASF5311
C:\Users\CYMR90~1\AppData\Local\Temp\ccSmV8cy.s:30472  .debug_str:000000000001de10 .LASF5312
C:\Users\CYMR90~1\AppData\Local\Temp\ccSmV8cy.s:24339  .debug_str:00000000000057e8 .LASF5313
C:\Users\CYMR90~1\AppData\Local\Temp\ccSmV8cy.s:25451  .debug_str:0000000000009e68 .LASF5314
C:\Users\CYMR90~1\AppData\Local\Temp\ccSmV8cy.s:26229  .debug_str:000000000000d158 .LASF5315
C:\Users\CYMR90~1\AppData\Local\Temp\ccSmV8cy.s:30228  .debug_str:000000000001cd47 .LASF5316
C:\Users\CYMR90~1\AppData\Local\Temp\ccSmV8cy.s:30804  .debug_str:000000000001f2cf .LASF5317
C:\Users\CYMR90~1\AppData\Local\Temp\ccSmV8cy.s:26805  .debug_str:000000000000f456 .LASF5318
C:\Users\CYMR90~1\AppData\Local\Temp\ccSmV8cy.s:31044  .debug_str:000000000002011b .LASF5319
C:\Users\CYMR90~1\AppData\Local\Temp\ccSmV8cy.s:30142  .debug_str:000000000001c83c .LASF5320
C:\Users\CYMR90~1\AppData\Local\Temp\ccSmV8cy.s:34086  .debug_str:000000000002beaf .LASF5321
C:\Users\CYMR90~1\AppData\Local\Temp\ccSmV8cy.s:29698  .debug_str:000000000001ac95 .LASF5322
C:\Users\CYMR90~1\AppData\Local\Temp\ccSmV8cy.s:32390  .debug_str:0000000000025359 .LASF5323
C:\Users\CYMR90~1\AppData\Local\Temp\ccSmV8cy.s:29668  .debug_str:000000000001ab12 .LASF5324
C:\Users\CYMR90~1\AppData\Local\Temp\ccSmV8cy.s:30152  .debug_str:000000000001c8c7 .LASF5325
C:\Users\CYMR90~1\AppData\Local\Temp\ccSmV8cy.s:23769  .debug_str:00000000000033ef .LASF5326
C:\Users\CYMR90~1\AppData\Local\Temp\ccSmV8cy.s:26151  .debug_str:000000000000cbf5 .LASF5327
C:\Users\CYMR90~1\AppData\Local\Temp\ccSmV8cy.s:29028  .debug_str:0000000000018218 .LASF5328
C:\Users\CYMR90~1\AppData\Local\Temp\ccSmV8cy.s:32784  .debug_str:0000000000026e16 .LASF5329
C:\Users\CYMR90~1\AppData\Local\Temp\ccSmV8cy.s:25577  .debug_str:000000000000a67a .LASF5330
C:\Users\CYMR90~1\AppData\Local\Temp\ccSmV8cy.s:29616  .debug_str:000000000001a6a0 .LASF5331
C:\Users\CYMR90~1\AppData\Local\Temp\ccSmV8cy.s:33624  .debug_str:000000000002a37c .LASF5332
C:\Users\CYMR90~1\AppData\Local\Temp\ccSmV8cy.s:26079  .debug_str:000000000000c7a4 .LASF5333
C:\Users\CYMR90~1\AppData\Local\Temp\ccSmV8cy.s:30092  .debug_str:000000000001c55e .LASF5334
C:\Users\CYMR90~1\AppData\Local\Temp\ccSmV8cy.s:30346  .debug_str:000000000001d628 .LASF5335
C:\Users\CYMR90~1\AppData\Local\Temp\ccSmV8cy.s:29762  .debug_str:000000000001b0f9 .LASF5336
C:\Users\CYMR90~1\AppData\Local\Temp\ccSmV8cy.s:30652  .debug_str:000000000001e9b3 .LASF5337
C:\Users\CYMR90~1\AppData\Local\Temp\ccSmV8cy.s:34332  .debug_str:000000000002cec0 .LASF5338
C:\Users\CYMR90~1\AppData\Local\Temp\ccSmV8cy.s:32062  .debug_str:0000000000023e99 .LASF5339
C:\Users\CYMR90~1\AppData\Local\Temp\ccSmV8cy.s:24081  .debug_str:00000000000047b4 .LASF5340
C:\Users\CYMR90~1\AppData\Local\Temp\ccSmV8cy.s:28237  .debug_str:0000000000014f16 .LASF5341
C:\Users\CYMR90~1\AppData\Local\Temp\ccSmV8cy.s:27001  .debug_str:0000000000010056 .LASF5342
C:\Users\CYMR90~1\AppData\Local\Temp\ccSmV8cy.s:24665  .debug_str:0000000000006bff .LASF5343
C:\Users\CYMR90~1\AppData\Local\Temp\ccSmV8cy.s:23175  .debug_str:0000000000000eb0 .LASF5344
C:\Users\CYMR90~1\AppData\Local\Temp\ccSmV8cy.s:34164  .debug_str:000000000002c3b2 .LASF5345
C:\Users\CYMR90~1\AppData\Local\Temp\ccSmV8cy.s:24649  .debug_str:0000000000006af4 .LASF5346
C:\Users\CYMR90~1\AppData\Local\Temp\ccSmV8cy.s:29222  .debug_str:0000000000018d92 .LASF5347
C:\Users\CYMR90~1\AppData\Local\Temp\ccSmV8cy.s:33344  .debug_str:0000000000029254 .LASF5348
C:\Users\CYMR90~1\AppData\Local\Temp\ccSmV8cy.s:32670  .debug_str:00000000000266f7 .LASF5349
C:\Users\CYMR90~1\AppData\Local\Temp\ccSmV8cy.s:28185  .debug_str:0000000000014ba2 .LASF5350
C:\Users\CYMR90~1\AppData\Local\Temp\ccSmV8cy.s:29094  .debug_str:000000000001860c .LASF5351
C:\Users\CYMR90~1\AppData\Local\Temp\ccSmV8cy.s:23147  .debug_str:0000000000000d18 .LASF5352
C:\Users\CYMR90~1\AppData\Local\Temp\ccSmV8cy.s:30456  .debug_str:000000000001dd35 .LASF5353
C:\Users\CYMR90~1\AppData\Local\Temp\ccSmV8cy.s:25233  .debug_str:0000000000009179 .LASF5354
C:\Users\CYMR90~1\AppData\Local\Temp\ccSmV8cy.s:27223  .debug_str:0000000000010e2c .LASF5355
C:\Users\CYMR90~1\AppData\Local\Temp\ccSmV8cy.s:30902  .debug_str:000000000001f896 .LASF5356
C:\Users\CYMR90~1\AppData\Local\Temp\ccSmV8cy.s:26495  .debug_str:000000000000e135 .LASF5357
C:\Users\CYMR90~1\AppData\Local\Temp\ccSmV8cy.s:22965  .debug_str:0000000000000241 .LASF5358
C:\Users\CYMR90~1\AppData\Local\Temp\ccSmV8cy.s:32550  .debug_str:0000000000025ec5 .LASF5359
C:\Users\CYMR90~1\AppData\Local\Temp\ccSmV8cy.s:34188  .debug_str:000000000002c546 .LASF5360
C:\Users\CYMR90~1\AppData\Local\Temp\ccSmV8cy.s:25365  .debug_str:000000000000993e .LASF5361
C:\Users\CYMR90~1\AppData\Local\Temp\ccSmV8cy.s:28595  .debug_str:00000000000164fc .LASF5362
C:\Users\CYMR90~1\AppData\Local\Temp\ccSmV8cy.s:32616  .debug_str:0000000000026391 .LASF5363
C:\Users\CYMR90~1\AppData\Local\Temp\ccSmV8cy.s:27655  .debug_str:0000000000012a51 .LASF5364
C:\Users\CYMR90~1\AppData\Local\Temp\ccSmV8cy.s:33124  .debug_str:00000000000282e3 .LASF5365
C:\Users\CYMR90~1\AppData\Local\Temp\ccSmV8cy.s:28431  .debug_str:0000000000015afb .LASF5366
C:\Users\CYMR90~1\AppData\Local\Temp\ccSmV8cy.s:31610  .debug_str:0000000000022408 .LASF5367
C:\Users\CYMR90~1\AppData\Local\Temp\ccSmV8cy.s:23433  .debug_str:0000000000001f1b .LASF5368
C:\Users\CYMR90~1\AppData\Local\Temp\ccSmV8cy.s:26687  .debug_str:000000000000ed8a .LASF5369
C:\Users\CYMR90~1\AppData\Local\Temp\ccSmV8cy.s:25083  .debug_str:000000000000884a .LASF5370
C:\Users\CYMR90~1\AppData\Local\Temp\ccSmV8cy.s:30930  .debug_str:000000000001fa59 .LASF5371
C:\Users\CYMR90~1\AppData\Local\Temp\ccSmV8cy.s:32546  .debug_str:0000000000025e78 .LASF5372
C:\Users\CYMR90~1\AppData\Local\Temp\ccSmV8cy.s:32324  .debug_str:0000000000024f25 .LASF5373
C:\Users\CYMR90~1\AppData\Local\Temp\ccSmV8cy.s:24005  .debug_str:00000000000042fa .LASF5374
C:\Users\CYMR90~1\AppData\Local\Temp\ccSmV8cy.s:26557  .debug_str:000000000000e549 .LASF5375
C:\Users\CYMR90~1\AppData\Local\Temp\ccSmV8cy.s:27307  .debug_str:00000000000113a2 .LASF5376
C:\Users\CYMR90~1\AppData\Local\Temp\ccSmV8cy.s:29608  .debug_str:000000000001a629 .LASF5377
C:\Users\CYMR90~1\AppData\Local\Temp\ccSmV8cy.s:33618  .debug_str:000000000002a312 .LASF5378
C:\Users\CYMR90~1\AppData\Local\Temp\ccSmV8cy.s:23631  .debug_str:0000000000002b01 .LASF5379
C:\Users\CYMR90~1\AppData\Local\Temp\ccSmV8cy.s:30234  .debug_str:000000000001cda8 .LASF5380
C:\Users\CYMR90~1\AppData\Local\Temp\ccSmV8cy.s:34272  .debug_str:000000000002cac8 .LASF5381
C:\Users\CYMR90~1\AppData\Local\Temp\ccSmV8cy.s:24559  .debug_str:0000000000006562 .LASF5382
C:\Users\CYMR90~1\AppData\Local\Temp\ccSmV8cy.s:32486  .debug_str:0000000000025a04 .LASF5383
C:\Users\CYMR90~1\AppData\Local\Temp\ccSmV8cy.s:34526  .debug_str:000000000002daed .LASF5384
C:\Users\CYMR90~1\AppData\Local\Temp\ccSmV8cy.s:24177  .debug_str:0000000000004e67 .LASF5385
C:\Users\CYMR90~1\AppData\Local\Temp\ccSmV8cy.s:29544  .debug_str:000000000001a2b3 .LASF5386
C:\Users\CYMR90~1\AppData\Local\Temp\ccSmV8cy.s:24405  .debug_str:0000000000005bf7 .LASF5387
C:\Users\CYMR90~1\AppData\Local\Temp\ccSmV8cy.s:26009  .debug_str:000000000000c360 .LASF5388
C:\Users\CYMR90~1\AppData\Local\Temp\ccSmV8cy.s:27371  .debug_str:000000000001173a .LASF5389
C:\Users\CYMR90~1\AppData\Local\Temp\ccSmV8cy.s:25475  .debug_str:0000000000009fce .LASF5390
C:\Users\CYMR90~1\AppData\Local\Temp\ccSmV8cy.s:32712  .debug_str:00000000000269c5 .LASF5391
C:\Users\CYMR90~1\AppData\Local\Temp\ccSmV8cy.s:28974  .debug_str:0000000000017e9f .LASF5392
C:\Users\CYMR90~1\AppData\Local\Temp\ccSmV8cy.s:29956  .debug_str:000000000001bce5 .LASF5393
C:\Users\CYMR90~1\AppData\Local\Temp\ccSmV8cy.s:32592  .debug_str:000000000002621a .LASF5394
C:\Users\CYMR90~1\AppData\Local\Temp\ccSmV8cy.s:29480  .debug_str:0000000000019e52 .LASF5395
C:\Users\CYMR90~1\AppData\Local\Temp\ccSmV8cy.s:33494  .debug_str:0000000000029b44 .LASF5396
C:\Users\CYMR90~1\AppData\Local\Temp\ccSmV8cy.s:33986  .debug_str:000000000002b84a .LASF5397
C:\Users\CYMR90~1\AppData\Local\Temp\ccSmV8cy.s:24881  .debug_str:0000000000007a09 .LASF5398
C:\Users\CYMR90~1\AppData\Local\Temp\ccSmV8cy.s:34506  .debug_str:000000000002d9bb .LASF5399
C:\Users\CYMR90~1\AppData\Local\Temp\ccSmV8cy.s:24747  .debug_str:0000000000007158 .LASF5400
C:\Users\CYMR90~1\AppData\Local\Temp\ccSmV8cy.s:28918  .debug_str:0000000000017b40 .LASF5401
C:\Users\CYMR90~1\AppData\Local\Temp\ccSmV8cy.s:32816  .debug_str:000000000002700a .LASF5402
C:\Users\CYMR90~1\AppData\Local\Temp\ccSmV8cy.s:31422  .debug_str:0000000000021818 .LASF5403
C:\Users\CYMR90~1\AppData\Local\Temp\ccSmV8cy.s:33810  .debug_str:000000000002ae03 .LASF5404
C:\Users\CYMR90~1\AppData\Local\Temp\ccSmV8cy.s:24567  .debug_str:00000000000065dd .LASF5405
C:\Users\CYMR90~1\AppData\Local\Temp\ccSmV8cy.s:23391  .debug_str:0000000000001c7e .LASF5406
C:\Users\CYMR90~1\AppData\Local\Temp\ccSmV8cy.s:29408  .debug_str:00000000000199da .LASF5407
C:\Users\CYMR90~1\AppData\Local\Temp\ccSmV8cy.s:27553  .debug_str:00000000000123cf .LASF5408
C:\Users\CYMR90~1\AppData\Local\Temp\ccSmV8cy.s:24485  .debug_str:00000000000060ee .LASF5409
C:\Users\CYMR90~1\AppData\Local\Temp\ccSmV8cy.s:28852  .debug_str:0000000000017751 .LASF5410
C:\Users\CYMR90~1\AppData\Local\Temp\ccSmV8cy.s:32868  .debug_str:0000000000027315 .LASF5411
C:\Users\CYMR90~1\AppData\Local\Temp\ccSmV8cy.s:25295  .debug_str:00000000000094f2 .LASF5412
C:\Users\CYMR90~1\AppData\Local\Temp\ccSmV8cy.s:23341  .debug_str:000000000000193d .LASF5413
C:\Users\CYMR90~1\AppData\Local\Temp\ccSmV8cy.s:24305  .debug_str:00000000000055ff .LASF5414
C:\Users\CYMR90~1\AppData\Local\Temp\ccSmV8cy.s:30594  .debug_str:000000000001e642 .LASF5415
C:\Users\CYMR90~1\AppData\Local\Temp\ccSmV8cy.s:29848  .debug_str:000000000001b5f9 .LASF5416
C:\Users\CYMR90~1\AppData\Local\Temp\ccSmV8cy.s:33844  .debug_str:000000000002b053 .LASF5417
C:\Users\CYMR90~1\AppData\Local\Temp\ccSmV8cy.s:26399  .debug_str:000000000000dc08 .LASF5418
C:\Users\CYMR90~1\AppData\Local\Temp\ccSmV8cy.s:23345  .debug_str:0000000000001989 .LASF5419
C:\Users\CYMR90~1\AppData\Local\Temp\ccSmV8cy.s:32802  .debug_str:0000000000026f34 .LASF5420
C:\Users\CYMR90~1\AppData\Local\Temp\ccSmV8cy.s:27053  .debug_str:000000000001039c .LASF5421
C:\Users\CYMR90~1\AppData\Local\Temp\ccSmV8cy.s:29588  .debug_str:000000000001a514 .LASF5422
C:\Users\CYMR90~1\AppData\Local\Temp\ccSmV8cy.s:30328  .debug_str:000000000001d463 .LASF5423
C:\Users\CYMR90~1\AppData\Local\Temp\ccSmV8cy.s:27969  .debug_str:0000000000013eaf .LASF5424
C:\Users\CYMR90~1\AppData\Local\Temp\ccSmV8cy.s:29790  .debug_str:000000000001b29e .LASF5425
C:\Users\CYMR90~1\AppData\Local\Temp\ccSmV8cy.s:33776  .debug_str:000000000002abf9 .LASF5426
C:\Users\CYMR90~1\AppData\Local\Temp\ccSmV8cy.s:30668  .debug_str:000000000001ea8c .LASF5427
C:\Users\CYMR90~1\AppData\Local\Temp\ccSmV8cy.s:26993  .debug_str:000000000000ffb6 .LASF5428
C:\Users\CYMR90~1\AppData\Local\Temp\ccSmV8cy.s:30692  .debug_str:000000000001ec0b .LASF5429
C:\Users\CYMR90~1\AppData\Local\Temp\ccSmV8cy.s:25159  .debug_str:0000000000008ca2 .LASF5430
C:\Users\CYMR90~1\AppData\Local\Temp\ccSmV8cy.s:32884  .debug_str:0000000000027420 .LASF5431
C:\Users\CYMR90~1\AppData\Local\Temp\ccSmV8cy.s:23139  .debug_str:0000000000000ca5 .LASF5432
C:\Users\CYMR90~1\AppData\Local\Temp\ccSmV8cy.s:31128  .debug_str:0000000000020628 .LASF5433
C:\Users\CYMR90~1\AppData\Local\Temp\ccSmV8cy.s:29714  .debug_str:000000000001adaf .LASF5434
C:\Users\CYMR90~1\AppData\Local\Temp\ccSmV8cy.s:28057  .debug_str:00000000000143d1 .LASF5435
C:\Users\CYMR90~1\AppData\Local\Temp\ccSmV8cy.s:29076  .debug_str:00000000000184db .LASF5436
C:\Users\CYMR90~1\AppData\Local\Temp\ccSmV8cy.s:28755  .debug_str:0000000000016f3d .LASF5437
C:\Users\CYMR90~1\AppData\Local\Temp\ccSmV8cy.s:27495  .debug_str:0000000000011fe3 .LASF5438
C:\Users\CYMR90~1\AppData\Local\Temp\ccSmV8cy.s:25711  .debug_str:000000000000af3a .LASF5439
C:\Users\CYMR90~1\AppData\Local\Temp\ccSmV8cy.s:23773  .debug_str:000000000000342d .LASF5440
C:\Users\CYMR90~1\AppData\Local\Temp\ccSmV8cy.s:27855  .debug_str:000000000001371b .LASF5441
C:\Users\CYMR90~1\AppData\Local\Temp\ccSmV8cy.s:31516  .debug_str:0000000000021e0a .LASF5442
C:\Users\CYMR90~1\AppData\Local\Temp\ccSmV8cy.s:26029  .debug_str:000000000000c4b3 .LASF5443
C:\Users\CYMR90~1\AppData\Local\Temp\ccSmV8cy.s:24677  .debug_str:0000000000006ca7 .LASF5444
C:\Users\CYMR90~1\AppData\Local\Temp\ccSmV8cy.s:32334  .debug_str:0000000000024fc2 .LASF5445
C:\Users\CYMR90~1\AppData\Local\Temp\ccSmV8cy.s:24739  .debug_str:00000000000070f5 .LASF5446
C:\Users\CYMR90~1\AppData\Local\Temp\ccSmV8cy.s:27159  .debug_str:0000000000010a57 .LASF5447
C:\Users\CYMR90~1\AppData\Local\Temp\ccSmV8cy.s:32932  .debug_str:00000000000276b5 .LASF5448
C:\Users\CYMR90~1\AppData\Local\Temp\ccSmV8cy.s:31122  .debug_str:0000000000020599 .LASF5449
C:\Users\CYMR90~1\AppData\Local\Temp\ccSmV8cy.s:26123  .debug_str:000000000000ca26 .LASF5450
C:\Users\CYMR90~1\AppData\Local\Temp\ccSmV8cy.s:31804  .debug_str:0000000000022f29 .LASF5451
C:\Users\CYMR90~1\AppData\Local\Temp\ccSmV8cy.s:27645  .debug_str:000000000001299a .LASF5452
C:\Users\CYMR90~1\AppData\Local\Temp\ccSmV8cy.s:28527  .debug_str:00000000000160ae .LASF5453
C:\Users\CYMR90~1\AppData\Local\Temp\ccSmV8cy.s:32792  .debug_str:0000000000026ea9 .LASF5454
C:\Users\CYMR90~1\AppData\Local\Temp\ccSmV8cy.s:33096  .debug_str:0000000000028126 .LASF5455
C:\Users\CYMR90~1\AppData\Local\Temp\ccSmV8cy.s:28749  .debug_str:0000000000016ee9 .LASF5456
C:\Users\CYMR90~1\AppData\Local\Temp\ccSmV8cy.s:27215  .debug_str:0000000000010daf .LASF5457
C:\Users\CYMR90~1\AppData\Local\Temp\ccSmV8cy.s:30800  .debug_str:000000000001f28f .LASF5458
C:\Users\CYMR90~1\AppData\Local\Temp\ccSmV8cy.s:33898  .debug_str:000000000002b333 .LASF5459
C:\Users\CYMR90~1\AppData\Local\Temp\ccSmV8cy.s:31732  .debug_str:0000000000022b11 .LASF5460
C:\Users\CYMR90~1\AppData\Local\Temp\ccSmV8cy.s:28633  .debug_str:00000000000167c9 .LASF5461
C:\Users\CYMR90~1\AppData\Local\Temp\ccSmV8cy.s:31910  .debug_str:00000000000235e8 .LASF5462
C:\Users\CYMR90~1\AppData\Local\Temp\ccSmV8cy.s:26899  .debug_str:000000000000f9ef .LASF5463
C:\Users\CYMR90~1\AppData\Local\Temp\ccSmV8cy.s:26467  .debug_str:000000000000dfc2 .LASF5464
C:\Users\CYMR90~1\AppData\Local\Temp\ccSmV8cy.s:28677  .debug_str:0000000000016a42 .LASF5465
C:\Users\CYMR90~1\AppData\Local\Temp\ccSmV8cy.s:30764  .debug_str:000000000001f07a .LASF5466
C:\Users\CYMR90~1\AppData\Local\Temp\ccSmV8cy.s:29538  .debug_str:000000000001a262 .LASF5467
C:\Users\CYMR90~1\AppData\Local\Temp\ccSmV8cy.s:23929  .debug_str:0000000000003e0d .LASF5468
C:\Users\CYMR90~1\AppData\Local\Temp\ccSmV8cy.s:30434  .debug_str:000000000001dbc0 .LASF5469
C:\Users\CYMR90~1\AppData\Local\Temp\ccSmV8cy.s:33126  .debug_str:0000000000028309 .LASF5470
C:\Users\CYMR90~1\AppData\Local\Temp\ccSmV8cy.s:28117  .debug_str:0000000000014786 .LASF5471
C:\Users\CYMR90~1\AppData\Local\Temp\ccSmV8cy.s:26241  .debug_str:000000000000d1ee .LASF5472
C:\Users\CYMR90~1\AppData\Local\Temp\ccSmV8cy.s:25323  .debug_str:0000000000009686 .LASF5473
C:\Users\CYMR90~1\AppData\Local\Temp\ccSmV8cy.s:23649  .debug_str:0000000000002c74 .LASF5474
C:\Users\CYMR90~1\AppData\Local\Temp\ccSmV8cy.s:34390  .debug_str:000000000002d26b .LASF5475
C:\Users\CYMR90~1\AppData\Local\Temp\ccSmV8cy.s:25213  .debug_str:0000000000008faa .LASF5476
C:\Users\CYMR90~1\AppData\Local\Temp\ccSmV8cy.s:29188  .debug_str:0000000000018b8f .LASF5477
C:\Users\CYMR90~1\AppData\Local\Temp\ccSmV8cy.s:23413  .debug_str:0000000000001dcf .LASF5478
C:\Users\CYMR90~1\AppData\Local\Temp\ccSmV8cy.s:30224  .debug_str:000000000001cce7 .LASF5479
C:\Users\CYMR90~1\AppData\Local\Temp\ccSmV8cy.s:28053  .debug_str:000000000001438e .LASF5480
C:\Users\CYMR90~1\AppData\Local\Temp\ccSmV8cy.s:32088  .debug_str:000000000002406a .LASF5481
C:\Users\CYMR90~1\AppData\Local\Temp\ccSmV8cy.s:28477  .debug_str:0000000000015dab .LASF5482
C:\Users\CYMR90~1\AppData\Local\Temp\ccSmV8cy.s:33276  .debug_str:0000000000028d88 .LASF5483
C:\Users\CYMR90~1\AppData\Local\Temp\ccSmV8cy.s:26413  .debug_str:000000000000dcc3 .LASF5484
C:\Users\CYMR90~1\AppData\Local\Temp\ccSmV8cy.s:31916  .debug_str:0000000000023633 .LASF5485
C:\Users\CYMR90~1\AppData\Local\Temp\ccSmV8cy.s:24303  .debug_str:00000000000055d9 .LASF5486
C:\Users\CYMR90~1\AppData\Local\Temp\ccSmV8cy.s:33160  .debug_str:000000000002854f .LASF5487
C:\Users\CYMR90~1\AppData\Local\Temp\ccSmV8cy.s:24301  .debug_str:00000000000055b3 .LASF5488
C:\Users\CYMR90~1\AppData\Local\Temp\ccSmV8cy.s:27351  .debug_str:0000000000011618 .LASF5489
C:\Users\CYMR90~1\AppData\Local\Temp\ccSmV8cy.s:24853  .debug_str:0000000000007850 .LASF5490
C:\Users\CYMR90~1\AppData\Local\Temp\ccSmV8cy.s:23493  .debug_str:0000000000002261 .LASF5491
C:\Users\CYMR90~1\AppData\Local\Temp\ccSmV8cy.s:24633  .debug_str:00000000000069f6 .LASF5492
C:\Users\CYMR90~1\AppData\Local\Temp\ccSmV8cy.s:27411  .debug_str:00000000000119e1 .LASF5493
C:\Users\CYMR90~1\AppData\Local\Temp\ccSmV8cy.s:30088  .debug_str:000000000001c522 .LASF5494
C:\Users\CYMR90~1\AppData\Local\Temp\ccSmV8cy.s:28717  .debug_str:0000000000016cfa .LASF5495
C:\Users\CYMR90~1\AppData\Local\Temp\ccSmV8cy.s:34360  .debug_str:000000000002d040 .LASF5496
C:\Users\CYMR90~1\AppData\Local\Temp\ccSmV8cy.s:28551  .debug_str:00000000000161fc .LASF5497
C:\Users\CYMR90~1\AppData\Local\Temp\ccSmV8cy.s:31148  .debug_str:0000000000020795 .LASF5498
C:\Users\CYMR90~1\AppData\Local\Temp\ccSmV8cy.s:24699  .debug_str:0000000000006e30 .LASF5499
C:\Users\CYMR90~1\AppData\Local\Temp\ccSmV8cy.s:24333  .debug_str:000000000000579c .LASF5500
C:\Users\CYMR90~1\AppData\Local\Temp\ccSmV8cy.s:30388  .debug_str:000000000001d916 .LASF5501
C:\Users\CYMR90~1\AppData\Local\Temp\ccSmV8cy.s:23049  .debug_str:0000000000000706 .LASF5502
C:\Users\CYMR90~1\AppData\Local\Temp\ccSmV8cy.s:24329  .debug_str:000000000000575d .LASF5503
C:\Users\CYMR90~1\AppData\Local\Temp\ccSmV8cy.s:29506  .debug_str:000000000001a061 .LASF5504
C:\Users\CYMR90~1\AppData\Local\Temp\ccSmV8cy.s:29192  .debug_str:0000000000018bdd .LASF5505
C:\Users\CYMR90~1\AppData\Local\Temp\ccSmV8cy.s:32164  .debug_str:00000000000244d3 .LASF5506
C:\Users\CYMR90~1\AppData\Local\Temp\ccSmV8cy.s:25987  .debug_str:000000000000c1ba .LASF5507
C:\Users\CYMR90~1\AppData\Local\Temp\ccSmV8cy.s:24697  .debug_str:0000000000006e0a .LASF5508
C:\Users\CYMR90~1\AppData\Local\Temp\ccSmV8cy.s:34068  .debug_str:000000000002bd6c .LASF5509
C:\Users\CYMR90~1\AppData\Local\Temp\ccSmV8cy.s:24271  .debug_str:00000000000053e0 .LASF5510
C:\Users\CYMR90~1\AppData\Local\Temp\ccSmV8cy.s:25593  .debug_str:000000000000a76b .LASF5511
C:\Users\CYMR90~1\AppData\Local\Temp\ccSmV8cy.s:24863  .debug_str:000000000000790e .LASF5512
C:\Users\CYMR90~1\AppData\Local\Temp\ccSmV8cy.s:23125  .debug_str:0000000000000bb7 .LASF5513
C:\Users\CYMR90~1\AppData\Local\Temp\ccSmV8cy.s:32756  .debug_str:0000000000026c66 .LASF5514
C:\Users\CYMR90~1\AppData\Local\Temp\ccSmV8cy.s:29704  .debug_str:000000000001ad07 .LASF5515
C:\Users\CYMR90~1\AppData\Local\Temp\ccSmV8cy.s:25967  .debug_str:000000000000c046 .LASF5516
C:\Users\CYMR90~1\AppData\Local\Temp\ccSmV8cy.s:33528  .debug_str:0000000000029dc2 .LASF5517
C:\Users\CYMR90~1\AppData\Local\Temp\ccSmV8cy.s:24959  .debug_str:0000000000007f25 .LASF5518
C:\Users\CYMR90~1\AppData\Local\Temp\ccSmV8cy.s:27609  .debug_str:0000000000012751 .LASF5519
C:\Users\CYMR90~1\AppData\Local\Temp\ccSmV8cy.s:32380  .debug_str:00000000000252a3 .LASF5520
C:\Users\CYMR90~1\AppData\Local\Temp\ccSmV8cy.s:31574  .debug_str:00000000000221c7 .LASF5521
C:\Users\CYMR90~1\AppData\Local\Temp\ccSmV8cy.s:32594  .debug_str:0000000000026240 .LASF5522
C:\Users\CYMR90~1\AppData\Local\Temp\ccSmV8cy.s:28239  .debug_str:0000000000014f3c .LASF5523
C:\Users\CYMR90~1\AppData\Local\Temp\ccSmV8cy.s:29000  .debug_str:000000000001807d .LASF5524
C:\Users\CYMR90~1\AppData\Local\Temp\ccSmV8cy.s:31200  .debug_str:0000000000020a91 .LASF5525
C:\Users\CYMR90~1\AppData\Local\Temp\ccSmV8cy.s:31608  .debug_str:00000000000223e2 .LASF5526
C:\Users\CYMR90~1\AppData\Local\Temp\ccSmV8cy.s:32980  .debug_str:00000000000279cd .LASF5527
C:\Users\CYMR90~1\AppData\Local\Temp\ccSmV8cy.s:29872  .debug_str:000000000001b819 .LASF5528
C:\Users\CYMR90~1\AppData\Local\Temp\ccSmV8cy.s:32022  .debug_str:0000000000023c32 .LASF5529
C:\Users\CYMR90~1\AppData\Local\Temp\ccSmV8cy.s:24715  .debug_str:0000000000006f5d .LASF5530
C:\Users\CYMR90~1\AppData\Local\Temp\ccSmV8cy.s:28795  .debug_str:000000000001726a .LASF5531
C:\Users\CYMR90~1\AppData\Local\Temp\ccSmV8cy.s:32814  .debug_str:0000000000026fe4 .LASF5532
C:\Users\CYMR90~1\AppData\Local\Temp\ccSmV8cy.s:24045  .debug_str:0000000000004557 .LASF5533
C:\Users\CYMR90~1\AppData\Local\Temp\ccSmV8cy.s:25443  .debug_str:0000000000009e08 .LASF5534
C:\Users\CYMR90~1\AppData\Local\Temp\ccSmV8cy.s:27917  .debug_str:0000000000013b86 .LASF5535
C:\Users\CYMR90~1\AppData\Local\Temp\ccSmV8cy.s:30072  .debug_str:000000000001c3ec .LASF5536
C:\Users\CYMR90~1\AppData\Local\Temp\ccSmV8cy.s:28952  .debug_str:0000000000017d35 .LASF5537
C:\Users\CYMR90~1\AppData\Local\Temp\ccSmV8cy.s:28283  .debug_str:00000000000151b1 .LASF5538
C:\Users\CYMR90~1\AppData\Local\Temp\ccSmV8cy.s:24491  .debug_str:000000000000615f .LASF5539
C:\Users\CYMR90~1\AppData\Local\Temp\ccSmV8cy.s:25891  .debug_str:000000000000bb52 .LASF5540
C:\Users\CYMR90~1\AppData\Local\Temp\ccSmV8cy.s:27459  .debug_str:0000000000011d19 .LASF5541
C:\Users\CYMR90~1\AppData\Local\Temp\ccSmV8cy.s:31462  .debug_str:0000000000021a1f .LASF5542
C:\Users\CYMR90~1\AppData\Local\Temp\ccSmV8cy.s:23859  .debug_str:00000000000039ec .LASF5543
C:\Users\CYMR90~1\AppData\Local\Temp\ccSmV8cy.s:27933  .debug_str:0000000000013ca1 .LASF5544
C:\Users\CYMR90~1\AppData\Local\Temp\ccSmV8cy.s:31064  .debug_str:000000000002022a .LASF5545
C:\Users\CYMR90~1\AppData\Local\Temp\ccSmV8cy.s:30194  .debug_str:000000000001cb2d .LASF5546
C:\Users\CYMR90~1\AppData\Local\Temp\ccSmV8cy.s:29330  .debug_str:00000000000194bc .LASF5547
C:\Users\CYMR90~1\AppData\Local\Temp\ccSmV8cy.s:30942  .debug_str:000000000001fb04 .LASF5548
C:\Users\CYMR90~1\AppData\Local\Temp\ccSmV8cy.s:24043  .debug_str:0000000000004531 .LASF5549
C:\Users\CYMR90~1\AppData\Local\Temp\ccSmV8cy.s:23973  .debug_str:0000000000004135 .LASF5550
C:\Users\CYMR90~1\AppData\Local\Temp\ccSmV8cy.s:31392  .debug_str:000000000002167a .LASF5551
C:\Users\CYMR90~1\AppData\Local\Temp\ccSmV8cy.s:29292  .debug_str:0000000000019195 .LASF5552
C:\Users\CYMR90~1\AppData\Local\Temp\ccSmV8cy.s:32010  .debug_str:0000000000023b77 .LASF5553
C:\Users\CYMR90~1\AppData\Local\Temp\ccSmV8cy.s:31906  .debug_str:00000000000235a8 .LASF5554
C:\Users\CYMR90~1\AppData\Local\Temp\ccSmV8cy.s:23655  .debug_str:0000000000002cc4 .LASF5555
                           .group:0000000000000000 wm4.0.10abbef32179bc1260444192115bdf5e
                           .group:0000000000000000 wm4.stddef.h.39.144cf5ddcd53cbfdac30259dc1a6c87f
                           .group:0000000000000000 wm4._newlib_version.h.4.bfdf54b0af045d4a71376ae00f63a22c
                           .group:0000000000000000 wm4.newlib.h.18.08a2ecba46890ca2aa56bbe21686e6c3
                           .group:0000000000000000 wm4.ieeefp.h.202.4f2759f5758fd82153cfbf98692f2ced
                           .group:0000000000000000 wm4.features.h.22.fad1cec3bc7ff06488171438dbdcfd02
                           .group:0000000000000000 wm4.config.h.83.13bbc8852bfac55b724c9822481355b5
                           .group:0000000000000000 wm4._ansi.h.31.de524f58584151836e90d8620a16f8e8
                           .group:0000000000000000 wm4.stdio.h.31.7c0e28c411445f3f9c5b11accf882760
                           .group:0000000000000000 wm4._default_types.h.6.959254cf5f09734ea7516c89e8bb21bd
                           .group:0000000000000000 wm4.stddef.h.155.ba788add86a0e365f264484f110c3c29
                           .group:0000000000000000 wm4.cdefs.h.49.39045112216f6a021dbdffe3bf5accce
                           .group:0000000000000000 wm4.stdarg.h.34.3a23a216c0c293b3d2ea2e89281481e6
                           .group:0000000000000000 wm4._types.h.20.dd0d04dca3800a0d2a6129b87f3adbb2
                           .group:0000000000000000 wm4.stddef.h.155.3588ebfdd1e8c7ede80509bb9c3b8009
                           .group:0000000000000000 wm4._types.h.127.34941de1b2539d59d5cac00e0dd27a45
                           .group:0000000000000000 wm4.reent.h.17.e292bf8b0bec6c96e131a54347145a30
                           .group:0000000000000000 wm4.lock.h.2.c0958401bd0ce484d507ee19aacab817
                           .group:0000000000000000 wm4.reent.h.77.dcd6129ff07fe81bd5636db29abe53b2
                           .group:0000000000000000 wm4.types.h.40.8b6acba56cefbb11746718204edc8f5e
                           .group:0000000000000000 wm4._stdint.h.10.c24fa3af3bc1706662bb5593a907e841
                           .group:0000000000000000 wm4._endian.h.18.1bf9649e8e5bbc91042012680270b9ed
                           .group:0000000000000000 wm4.endian.h.9.49f3a4695c1b61e8a0808de3c4a106cb
                           .group:0000000000000000 wm4._timeval.h.32.bec3221fa7a9bb0bdde696c9c57e47d2
                           .group:0000000000000000 wm4.timespec.h.41.d855182eb0e690443ab8651bcedca6e1
                           .group:0000000000000000 wm4.select.h.19.40cd3f2bfc456b193b790c2754690ebf
                           .group:0000000000000000 wm4.types.h.51.5571ec98f267d17d3c670b7a3ba33afa
                           .group:0000000000000000 wm4.sched.h.22.c60982713a5c428609783c78f9c78d95
                           .group:0000000000000000 wm4._pthreadtypes.h.36.fcee9961c35163dde6267ef772ad1972
                           .group:0000000000000000 wm4.stdio.h.2.4aa87247282eca6c8f36f9de33d8df1a
                           .group:0000000000000000 wm4.stdio.h.81.932d0c162786b883f622b8d05c120c78
                           .group:0000000000000000 wm4.gd32vw55x.h.47.379378190858578060a317909b2c8d8a
                           .group:0000000000000000 wm4._intsup.h.10.48bafbb683905c4daa4565a85aeeb264
                           .group:0000000000000000 wm4.stdint.h.23.d53047a68f4a85177f80b422d52785ed
                           .group:0000000000000000 wm4.nmsis_version.h.19.ffa173da8efb17b1050904994d6f500e
                           .group:0000000000000000 wm4.riscv_bits.h.19.ee94eb3d39937793d4cd0a62363e5d00
                           .group:0000000000000000 wm4.riscv_encoding.h.35.f5d37fad7abbab8278b4bb6f1e32fa65
                           .group:0000000000000000 wm4.nmsis_gcc.h.61.5d70d7598ffc79c3c991d847a574cf23
                           .group:0000000000000000 wm4.core_feature_base.h.20.e99d3e75c26a8f3341d35bf20d0e1d20
                           .group:0000000000000000 wm4.core_feature_fpu.h.19.695f2200274659b530cb97cda749ff4f
                           .group:0000000000000000 wm4.core_feature_dsp.h.19.e8f8d7aa42f197807aefedb6584486cd
                           .group:0000000000000000 wm4.core_compatiable.h.19.5b8282d61b1f6889a82895616b730084
                           .group:0000000000000000 wm4.core_feature_eclic.h.19.e0c091d0cbda79e8b3b031b979ebd5a1
                           .group:0000000000000000 wm4.core_feature_timer.h.19.21a5151282de34c37dfa6d84e262aa54
                           .group:0000000000000000 wm4.system_gd32vw55x.h.32.f1fcb1212d387c35ac955b0e96ada468
                           .group:0000000000000000 wm4.gd32vw55x.h.231.3529c650aff38c9372f7e03177fd2c8a
                           .group:0000000000000000 wm4.gd32vw55x_adc.h.42.ae73acec1704ef509ccecb41a875b50e
                           .group:0000000000000000 wm4.gd32vw55x_cau.h.36.c98428fe1eae7edb4721da5c8078c974
                           .group:0000000000000000 wm4.gd32vw55x_crc.h.37.c58f296814c2300a4b067c08bd88d54e
                           .group:0000000000000000 wm4.gd32vw55x_dbg.h.36.311650c8545549d482ceca8befc5a232
                           .group:0000000000000000 wm4.gd32vw55x_dma.h.36.f4adc751172b2a7b1533dda72e948737
                           .group:0000000000000000 wm4.gd32vw55x_eclic.h.36.0411499f2b2493c67246e32ccae096c1
                           .group:0000000000000000 wm4.gd32vw55x_efuse.h.36.091404cecbab70359dfd93faec5fdb62
                           .group:0000000000000000 wm4.gd32vw55x_exti.h.36.de7508334dd12f1a6a673521a1a835f5
                           .group:0000000000000000 wm4.gd32vw55x_fmc.h.36.a4b0b94c47ffe23a2fa09260c5ed4850
                           .group:0000000000000000 wm4.gd32vw55x_fwdgt.h.36.4846b6900fd24b5bfce4986c9a8ce677
                           .group:0000000000000000 wm4.gd32vw55x_gpio.h.36.adfee1371bb58d3d9043c47bdb25a90f
                           .group:0000000000000000 wm4.gd32vw55x_hau.h.36.f3cbcbd7b67c9e5bdc7a1100b1bf3458
                           .group:0000000000000000 wm4.gd32vw55x_i2c.h.36.3848990933925e084eb427083790c53f
                           .group:0000000000000000 wm4.gd32vw55x_pkcau.h.36.bb2235f4cf4967063a51bfa9aca5ef27
                           .group:0000000000000000 wm4.gd32vw55x_pmu.h.36.4c76091f1415551526d489ccf2c42052
                           .group:0000000000000000 wm4.gd32vw55x_qspi.h.36.2d2c181cfe19b935a9641008fc786613
                           .group:0000000000000000 wm4.gd32vw55x_rtc.h.36.3172855e8715659e080e0eab46fdf175
                           .group:0000000000000000 wm4.gd32vw55x_spi.h.36.9fa1be2b09fb73e4b5886e97f0e96d58
                           .group:0000000000000000 wm4.gd32vw55x_syscfg.h.36.010551f05591f5e34051d2e15df0352b
                           .group:0000000000000000 wm4.gd32vw55x_timer.h.38.2cbee78ea60d47145be361b2d2c55070
                           .group:0000000000000000 wm4.gd32vw55x_trng.h.36.c9e7807af1b1ab68d3bbb54f4ed5cd73
                           .group:0000000000000000 wm4.gd32vw55x_usart.h.36.f5c497cca17945a34f154b0e17017d02
                           .group:0000000000000000 wm4.gd32vw55x_wwdgt.h.36.f7a443b7302efc0e5c335888582ee197
                           .group:0000000000000000 wm4.gd32vw55x_rcu.h.41.11f1580dac7139850052e06c3fbdeb5e

NO UNDEFINED SYMBOLS
