   1              		.file	"gd32vw55x_rtc.c"
   2              		.option nopic
   3              		.attribute arch, "rv32i2p0_m2p0_a2p0_c2p0"
   4              		.attribute unaligned_access, 0
   5              		.attribute stack_align, 16
   6              		.text
   7              	.Ltext0:
   8              		.cfi_sections	.debug_frame
   9              		.section	.text.rtc_deinit,"ax",@progbits
  10              		.align	1
  11              		.globl	rtc_deinit
  13              	rtc_deinit:
  14              	.LFB347:
  15              		.file 1 "../Firmware/GD32VW55x_standard_peripheral/Source/gd32vw55x_rtc.c"
   1:../Firmware/GD32VW55x_standard_peripheral/Source/gd32vw55x_rtc.c **** /*!
   2:../Firmware/GD32VW55x_standard_peripheral/Source/gd32vw55x_rtc.c ****     \file    gd32vw55x_rtc.c
   3:../Firmware/GD32VW55x_standard_peripheral/Source/gd32vw55x_rtc.c ****     \brief   RTC driver
   4:../Firmware/GD32VW55x_standard_peripheral/Source/gd32vw55x_rtc.c **** 
   5:../Firmware/GD32VW55x_standard_peripheral/Source/gd32vw55x_rtc.c ****     \version 2025-01-16, V1.4.0, firmware for GD32VW55x
   6:../Firmware/GD32VW55x_standard_peripheral/Source/gd32vw55x_rtc.c **** */
   7:../Firmware/GD32VW55x_standard_peripheral/Source/gd32vw55x_rtc.c **** 
   8:../Firmware/GD32VW55x_standard_peripheral/Source/gd32vw55x_rtc.c **** /*
   9:../Firmware/GD32VW55x_standard_peripheral/Source/gd32vw55x_rtc.c ****     Copyright (c) 2025, GigaDevice Semiconductor Inc.
  10:../Firmware/GD32VW55x_standard_peripheral/Source/gd32vw55x_rtc.c **** 
  11:../Firmware/GD32VW55x_standard_peripheral/Source/gd32vw55x_rtc.c ****     Redistribution and use in source and binary forms, with or without modification,
  12:../Firmware/GD32VW55x_standard_peripheral/Source/gd32vw55x_rtc.c **** are permitted provided that the following conditions are met:
  13:../Firmware/GD32VW55x_standard_peripheral/Source/gd32vw55x_rtc.c **** 
  14:../Firmware/GD32VW55x_standard_peripheral/Source/gd32vw55x_rtc.c ****     1. Redistributions of source code must retain the above copyright notice, this
  15:../Firmware/GD32VW55x_standard_peripheral/Source/gd32vw55x_rtc.c ****        list of conditions and the following disclaimer.
  16:../Firmware/GD32VW55x_standard_peripheral/Source/gd32vw55x_rtc.c ****     2. Redistributions in binary form must reproduce the above copyright notice,
  17:../Firmware/GD32VW55x_standard_peripheral/Source/gd32vw55x_rtc.c ****        this list of conditions and the following disclaimer in the documentation
  18:../Firmware/GD32VW55x_standard_peripheral/Source/gd32vw55x_rtc.c ****        and/or other materials provided with the distribution.
  19:../Firmware/GD32VW55x_standard_peripheral/Source/gd32vw55x_rtc.c ****     3. Neither the name of the copyright holder nor the names of its contributors
  20:../Firmware/GD32VW55x_standard_peripheral/Source/gd32vw55x_rtc.c ****        may be used to endorse or promote products derived from this software without
  21:../Firmware/GD32VW55x_standard_peripheral/Source/gd32vw55x_rtc.c ****        specific prior written permission.
  22:../Firmware/GD32VW55x_standard_peripheral/Source/gd32vw55x_rtc.c **** 
  23:../Firmware/GD32VW55x_standard_peripheral/Source/gd32vw55x_rtc.c ****     THIS SOFTWARE IS PROVIDED BY THE COPYRIGHT HOLDERS AND CONTRIBUTORS "AS IS"
  24:../Firmware/GD32VW55x_standard_peripheral/Source/gd32vw55x_rtc.c **** AND ANY EXPRESS OR IMPLIED WARRANTIES, INCLUDING, BUT NOT LIMITED TO, THE IMPLIED
  25:../Firmware/GD32VW55x_standard_peripheral/Source/gd32vw55x_rtc.c **** WARRANTIES OF MERCHANTABILITY AND FITNESS FOR A PARTICULAR PURPOSE ARE DISCLAIMED.
  26:../Firmware/GD32VW55x_standard_peripheral/Source/gd32vw55x_rtc.c **** IN NO EVENT SHALL THE COPYRIGHT HOLDER OR CONTRIBUTORS BE LIABLE FOR ANY DIRECT,
  27:../Firmware/GD32VW55x_standard_peripheral/Source/gd32vw55x_rtc.c **** INDIRECT, INCIDENTAL, SPECIAL, EXEMPLARY, OR CONSEQUENTIAL DAMAGES (INCLUDING, BUT
  28:../Firmware/GD32VW55x_standard_peripheral/Source/gd32vw55x_rtc.c **** NOT LIMITED TO, PROCUREMENT OF SUBSTITUTE GOODS OR SERVICES; LOSS OF USE, DATA, OR
  29:../Firmware/GD32VW55x_standard_peripheral/Source/gd32vw55x_rtc.c **** PROFITS; OR BUSINESS INTERRUPTION) HOWEVER CAUSED AND ON ANY THEORY OF LIABILITY,
  30:../Firmware/GD32VW55x_standard_peripheral/Source/gd32vw55x_rtc.c **** WHETHER IN CONTRACT, STRICT LIABILITY, OR TORT (INCLUDING NEGLIGENCE OR OTHERWISE)
  31:../Firmware/GD32VW55x_standard_peripheral/Source/gd32vw55x_rtc.c **** ARISING IN ANY WAY OUT OF THE USE OF THIS SOFTWARE, EVEN IF ADVISED OF THE POSSIBILITY
  32:../Firmware/GD32VW55x_standard_peripheral/Source/gd32vw55x_rtc.c **** OF SUCH DAMAGE.
  33:../Firmware/GD32VW55x_standard_peripheral/Source/gd32vw55x_rtc.c **** */
  34:../Firmware/GD32VW55x_standard_peripheral/Source/gd32vw55x_rtc.c **** 
  35:../Firmware/GD32VW55x_standard_peripheral/Source/gd32vw55x_rtc.c **** #include "gd32vw55x_rtc.h"
  36:../Firmware/GD32VW55x_standard_peripheral/Source/gd32vw55x_rtc.c **** 
  37:../Firmware/GD32VW55x_standard_peripheral/Source/gd32vw55x_rtc.c **** /* RTC timeout value */
  38:../Firmware/GD32VW55x_standard_peripheral/Source/gd32vw55x_rtc.c **** #define RTC_WTWF_TIMEOUT                   ((uint32_t)0x00004000U)                    /*!< wakeup t
  39:../Firmware/GD32VW55x_standard_peripheral/Source/gd32vw55x_rtc.c **** #define RTC_INITM_TIMEOUT                  ((uint32_t)0x00008000U)                    /*!< initiali
  40:../Firmware/GD32VW55x_standard_peripheral/Source/gd32vw55x_rtc.c **** #define RTC_RSYNF_TIMEOUT                  ((uint32_t)0x00008000U)                    /*!< register
  41:../Firmware/GD32VW55x_standard_peripheral/Source/gd32vw55x_rtc.c **** #define RTC_HRFC_TIMEOUT                   ((uint32_t)0x20000000U)                    /*!< recalibr
  42:../Firmware/GD32VW55x_standard_peripheral/Source/gd32vw55x_rtc.c **** #define RTC_SHIFTCTL_TIMEOUT               ((uint32_t)0x00001000U)                    /*!< shift fu
  43:../Firmware/GD32VW55x_standard_peripheral/Source/gd32vw55x_rtc.c **** #define RTC_ALRMXWF_TIMEOUT                ((uint32_t)0x00008000U)                    /*!< alarm co
  44:../Firmware/GD32VW55x_standard_peripheral/Source/gd32vw55x_rtc.c **** 
  45:../Firmware/GD32VW55x_standard_peripheral/Source/gd32vw55x_rtc.c **** /*!
  46:../Firmware/GD32VW55x_standard_peripheral/Source/gd32vw55x_rtc.c ****     \brief      reset most of the RTC registers
  47:../Firmware/GD32VW55x_standard_peripheral/Source/gd32vw55x_rtc.c ****     \param[in]  none
  48:../Firmware/GD32VW55x_standard_peripheral/Source/gd32vw55x_rtc.c ****     \param[out] none
  49:../Firmware/GD32VW55x_standard_peripheral/Source/gd32vw55x_rtc.c ****     \retval     ErrStatus: ERROR or SUCCESS
  50:../Firmware/GD32VW55x_standard_peripheral/Source/gd32vw55x_rtc.c **** */
  51:../Firmware/GD32VW55x_standard_peripheral/Source/gd32vw55x_rtc.c **** ErrStatus rtc_deinit(void)
  52:../Firmware/GD32VW55x_standard_peripheral/Source/gd32vw55x_rtc.c **** {
  16              		.loc 1 52 1
  17              		.cfi_startproc
  18 0000 0111     		addi	sp,sp,-32
  19              		.cfi_def_cfa_offset 32
  20 0002 06CE     		sw	ra,28(sp)
  21 0004 22CC     		sw	s0,24(sp)
  22              		.cfi_offset 1, -4
  23              		.cfi_offset 8, -8
  24 0006 0010     		addi	s0,sp,32
  25              		.cfi_def_cfa 8, 0
  53:../Firmware/GD32VW55x_standard_peripheral/Source/gd32vw55x_rtc.c ****     /* After Backup domain reset, some of the RTC registers are write-protected: RTC_TIME, RTC_DATE
  54:../Firmware/GD32VW55x_standard_peripheral/Source/gd32vw55x_rtc.c ****      RTC_HRFC, RTC_COSC, RTC_SHIFTCTL, the bit INITM in RTC_ICS and the bits CS, S1H, A1H, REFEN in
  55:../Firmware/GD32VW55x_standard_peripheral/Source/gd32vw55x_rtc.c ****     ErrStatus error_status = ERROR;
  26              		.loc 1 55 15
  27 0008 232604FE 		sw	zero,-20(s0)
  56:../Firmware/GD32VW55x_standard_peripheral/Source/gd32vw55x_rtc.c ****     volatile uint32_t time_index = RTC_WTWF_TIMEOUT;
  28              		.loc 1 56 23
  29 000c 9167     		li	a5,16384
  30 000e 2322F4FE 		sw	a5,-28(s0)
  57:../Firmware/GD32VW55x_standard_peripheral/Source/gd32vw55x_rtc.c ****     uint32_t flag_status = RESET;
  31              		.loc 1 57 14
  32 0012 232404FE 		sw	zero,-24(s0)
  58:../Firmware/GD32VW55x_standard_peripheral/Source/gd32vw55x_rtc.c ****     /* RTC_TAMP register is not under write protection */
  59:../Firmware/GD32VW55x_standard_peripheral/Source/gd32vw55x_rtc.c ****     RTC_TAMP = RTC_REGISTER_RESET;
  33              		.loc 1 59 5
  34 0016 B7370040 		li	a5,1073754112
  35 001a 93870784 		addi	a5,a5,-1984
  36              		.loc 1 59 14
  37 001e 23A00700 		sw	zero,0(a5)
  60:../Firmware/GD32VW55x_standard_peripheral/Source/gd32vw55x_rtc.c **** 
  61:../Firmware/GD32VW55x_standard_peripheral/Source/gd32vw55x_rtc.c ****     /* rtc alarmx related registers are not under the protection of RTC_WPK, different from former 
  62:../Firmware/GD32VW55x_standard_peripheral/Source/gd32vw55x_rtc.c ****     RTC_CTL &= ((uint32_t)~(RTC_CTL_ALRM0EN | RTC_CTL_ALRM1EN));
  38              		.loc 1 62 13
  39 0022 B7370040 		li	a5,1073754112
  40 0026 93878780 		addi	a5,a5,-2040
  41 002a 9843     		lw	a4,0(a5)
  42 002c B7370040 		li	a5,1073754112
  43 0030 93878780 		addi	a5,a5,-2040
  44 0034 1377F7CF 		andi	a4,a4,-769
  45 0038 98C3     		sw	a4,0(a5)
  63:../Firmware/GD32VW55x_standard_peripheral/Source/gd32vw55x_rtc.c ****     /* to write RTC_ALRMxTD and RTC_ALRMxSS register, 1  ALRMxEN bit in RTC_CTL register should be 
  64:../Firmware/GD32VW55x_standard_peripheral/Source/gd32vw55x_rtc.c ****       2 or in INIT mode */
  65:../Firmware/GD32VW55x_standard_peripheral/Source/gd32vw55x_rtc.c ****     RTC_ALRM0TD = RTC_REGISTER_RESET;
  46              		.loc 1 65 5
  47 003a B7370040 		li	a5,1073754112
  48 003e 9387C781 		addi	a5,a5,-2020
  49              		.loc 1 65 17
  50 0042 23A00700 		sw	zero,0(a5)
  66:../Firmware/GD32VW55x_standard_peripheral/Source/gd32vw55x_rtc.c ****     RTC_ALRM1TD = RTC_REGISTER_RESET;
  51              		.loc 1 66 5
  52 0046 B7370040 		li	a5,1073754112
  53 004a 93870782 		addi	a5,a5,-2016
  54              		.loc 1 66 17
  55 004e 23A00700 		sw	zero,0(a5)
  67:../Firmware/GD32VW55x_standard_peripheral/Source/gd32vw55x_rtc.c ****     RTC_ALRM0SS = RTC_REGISTER_RESET;
  56              		.loc 1 67 5
  57 0052 B7370040 		li	a5,1073754112
  58 0056 93874784 		addi	a5,a5,-1980
  59              		.loc 1 67 17
  60 005a 23A00700 		sw	zero,0(a5)
  68:../Firmware/GD32VW55x_standard_peripheral/Source/gd32vw55x_rtc.c ****     RTC_ALRM1SS = RTC_REGISTER_RESET;
  61              		.loc 1 68 5
  62 005e B7370040 		li	a5,1073754112
  63 0062 93878784 		addi	a5,a5,-1976
  64              		.loc 1 68 17
  65 0066 23A00700 		sw	zero,0(a5)
  69:../Firmware/GD32VW55x_standard_peripheral/Source/gd32vw55x_rtc.c **** 
  70:../Firmware/GD32VW55x_standard_peripheral/Source/gd32vw55x_rtc.c ****     /* 1 only when RTC_CTL_WTEN=0 and RTC_ICS_WTWF=1 can write RTC_CTL[2:0]
  71:../Firmware/GD32VW55x_standard_peripheral/Source/gd32vw55x_rtc.c ****        2 or configure the wakeup timer in INIT mode*/
  72:../Firmware/GD32VW55x_standard_peripheral/Source/gd32vw55x_rtc.c ****     RTC_CTL &= ((uint32_t)~RTC_CTL_WTEN);
  66              		.loc 1 72 13
  67 006a B7370040 		li	a5,1073754112
  68 006e 93878780 		addi	a5,a5,-2040
  69 0072 9843     		lw	a4,0(a5)
  70 0074 B7370040 		li	a5,1073754112
  71 0078 93878780 		addi	a5,a5,-2040
  72 007c 1377F7BF 		andi	a4,a4,-1025
  73 0080 98C3     		sw	a4,0(a5)
  74              	.L3:
  73:../Firmware/GD32VW55x_standard_peripheral/Source/gd32vw55x_rtc.c ****     /* wait until the WTWF flag to be set */
  74:../Firmware/GD32VW55x_standard_peripheral/Source/gd32vw55x_rtc.c ****     do {
  75:../Firmware/GD32VW55x_standard_peripheral/Source/gd32vw55x_rtc.c ****         flag_status = RTC_STAT & RTC_STAT_WTWF;
  75              		.loc 1 75 23 discriminator 2
  76 0082 B7370040 		li	a5,1073754112
  77 0086 9387C780 		addi	a5,a5,-2036
  78 008a 9C43     		lw	a5,0(a5)
  79              		.loc 1 75 21 discriminator 2
  80 008c 918B     		andi	a5,a5,4
  81 008e 2324F4FE 		sw	a5,-24(s0)
  76:../Firmware/GD32VW55x_standard_peripheral/Source/gd32vw55x_rtc.c ****     } while((--time_index > 0U) && ((uint32_t)RESET == flag_status));
  82              		.loc 1 76 14 discriminator 2
  83 0092 832744FE 		lw	a5,-28(s0)
  84 0096 FD17     		addi	a5,a5,-1
  85              		.loc 1 76 5 discriminator 2
  86 0098 2322F4FE 		sw	a5,-28(s0)
  87 009c 81C7     		beq	a5,zero,.L2
  88              		.loc 1 76 33 discriminator 1
  89 009e 832784FE 		lw	a5,-24(s0)
  90 00a2 E5D3     		beq	a5,zero,.L3
  91              	.L2:
  77:../Firmware/GD32VW55x_standard_peripheral/Source/gd32vw55x_rtc.c **** 
  78:../Firmware/GD32VW55x_standard_peripheral/Source/gd32vw55x_rtc.c ****     if((uint32_t)RESET == flag_status) {
  92              		.loc 1 78 7
  93 00a4 832784FE 		lw	a5,-24(s0)
  94 00a8 81E7     		bne	a5,zero,.L4
  79:../Firmware/GD32VW55x_standard_peripheral/Source/gd32vw55x_rtc.c ****         error_status = ERROR;
  95              		.loc 1 79 22
  96 00aa 232604FE 		sw	zero,-20(s0)
  97 00ae C9A8     		j	.L5
  98              	.L4:
  80:../Firmware/GD32VW55x_standard_peripheral/Source/gd32vw55x_rtc.c ****     } else {
  81:../Firmware/GD32VW55x_standard_peripheral/Source/gd32vw55x_rtc.c ****         RTC_CTL &= ((uint32_t)~RTC_CTL_WTCS);
  99              		.loc 1 81 17
 100 00b0 B7370040 		li	a5,1073754112
 101 00b4 93878780 		addi	a5,a5,-2040
 102 00b8 9843     		lw	a4,0(a5)
 103 00ba B7370040 		li	a5,1073754112
 104 00be 93878780 		addi	a5,a5,-2040
 105 00c2 619B     		andi	a4,a4,-8
 106 00c4 98C3     		sw	a4,0(a5)
  82:../Firmware/GD32VW55x_standard_peripheral/Source/gd32vw55x_rtc.c ****         RTC_WUT = RTC_WUT_RESET;
 107              		.loc 1 82 9
 108 00c6 B7370040 		li	a5,1073754112
 109 00ca 93874781 		addi	a5,a5,-2028
 110              		.loc 1 82 17
 111 00ce 4167     		li	a4,65536
 112 00d0 7D17     		addi	a4,a4,-1
 113 00d2 98C3     		sw	a4,0(a5)
  83:../Firmware/GD32VW55x_standard_peripheral/Source/gd32vw55x_rtc.c **** 
  84:../Firmware/GD32VW55x_standard_peripheral/Source/gd32vw55x_rtc.c ****         /* disable the write protection */
  85:../Firmware/GD32VW55x_standard_peripheral/Source/gd32vw55x_rtc.c ****         RTC_WPK = RTC_UNLOCK_KEY1;
 114              		.loc 1 85 9
 115 00d4 B7370040 		li	a5,1073754112
 116 00d8 93874782 		addi	a5,a5,-2012
 117              		.loc 1 85 17
 118 00dc 1307A00C 		li	a4,202
 119 00e0 98C3     		sw	a4,0(a5)
  86:../Firmware/GD32VW55x_standard_peripheral/Source/gd32vw55x_rtc.c ****         RTC_WPK = RTC_UNLOCK_KEY2;
 120              		.loc 1 86 9
 121 00e2 B7370040 		li	a5,1073754112
 122 00e6 93874782 		addi	a5,a5,-2012
 123              		.loc 1 86 17
 124 00ea 13073005 		li	a4,83
 125 00ee 98C3     		sw	a4,0(a5)
  87:../Firmware/GD32VW55x_standard_peripheral/Source/gd32vw55x_rtc.c **** 
  88:../Firmware/GD32VW55x_standard_peripheral/Source/gd32vw55x_rtc.c ****         /* enter init mode */
  89:../Firmware/GD32VW55x_standard_peripheral/Source/gd32vw55x_rtc.c ****         error_status = rtc_init_mode_enter();
 126              		.loc 1 89 24
 127 00f0 97000000 		call	rtc_init_mode_enter
 127      E7800000 
 128 00f8 2326A4FE 		sw	a0,-20(s0)
  90:../Firmware/GD32VW55x_standard_peripheral/Source/gd32vw55x_rtc.c ****         /* RTC_TIME, RTC_DATE, RTC_PSC registers, plus INITM in RTC_ICS, plus CS control bits in RT
  91:../Firmware/GD32VW55x_standard_peripheral/Source/gd32vw55x_rtc.c ****         RTC_CTL = RTC_REGISTER_RESET;
 129              		.loc 1 91 9
 130 00fc B7370040 		li	a5,1073754112
 131 0100 93878780 		addi	a5,a5,-2040
 132              		.loc 1 91 17
 133 0104 23A00700 		sw	zero,0(a5)
  92:../Firmware/GD32VW55x_standard_peripheral/Source/gd32vw55x_rtc.c **** 
  93:../Firmware/GD32VW55x_standard_peripheral/Source/gd32vw55x_rtc.c ****         /* before reset RTC_TIME and RTC_DATE, BPSHAD bit in RTC_CTL should be reset as the conditi
  94:../Firmware/GD32VW55x_standard_peripheral/Source/gd32vw55x_rtc.c ****            in order to read calendar from shadow register, not the real registers being reset */
  95:../Firmware/GD32VW55x_standard_peripheral/Source/gd32vw55x_rtc.c ****         RTC_TIME = RTC_REGISTER_RESET;
 134              		.loc 1 95 9
 135 0108 B7370040 		li	a5,1073754112
 136 010c 93870780 		addi	a5,a5,-2048
 137              		.loc 1 95 18
 138 0110 23A00700 		sw	zero,0(a5)
  96:../Firmware/GD32VW55x_standard_peripheral/Source/gd32vw55x_rtc.c ****         RTC_DATE = RTC_DATE_RESET;
 139              		.loc 1 96 9
 140 0114 B7370040 		li	a5,1073754112
 141 0118 93874780 		addi	a5,a5,-2044
 142              		.loc 1 96 18
 143 011c 0967     		li	a4,8192
 144 011e 13071710 		addi	a4,a4,257
 145 0122 98C3     		sw	a4,0(a5)
  97:../Firmware/GD32VW55x_standard_peripheral/Source/gd32vw55x_rtc.c ****         RTC_PSC = RTC_PSC_RESET;
 146              		.loc 1 97 9
 147 0124 B7370040 		li	a5,1073754112
 148 0128 93870781 		addi	a5,a5,-2032
 149              		.loc 1 97 17
 150 012c 37077F00 		li	a4,8323072
 151 0130 1307F70F 		addi	a4,a4,255
 152 0134 98C3     		sw	a4,0(a5)
  98:../Firmware/GD32VW55x_standard_peripheral/Source/gd32vw55x_rtc.c ****         /* write protected and can only be written in initialization state */
  99:../Firmware/GD32VW55x_standard_peripheral/Source/gd32vw55x_rtc.c ****         RTC_COSC = RTC_REGISTER_RESET;
 153              		.loc 1 99 9
 154 0136 B7370040 		li	a5,1073754112
 155 013a 93878781 		addi	a5,a5,-2024
 156              		.loc 1 99 18
 157 013e 23A00700 		sw	zero,0(a5)
 100:../Firmware/GD32VW55x_standard_peripheral/Source/gd32vw55x_rtc.c ****         /* reset RTC_ICS register, also exit init mode.
 101:../Firmware/GD32VW55x_standard_peripheral/Source/gd32vw55x_rtc.c ****            at the same time, RTC_ICS_SOPF bit is reset, as the condition to reset RTC_SHIFTCTL regi
 102:../Firmware/GD32VW55x_standard_peripheral/Source/gd32vw55x_rtc.c ****         RTC_STAT = RTC_STAT_RESET;
 158              		.loc 1 102 9
 159 0142 B7370040 		li	a5,1073754112
 160 0146 9387C780 		addi	a5,a5,-2036
 161              		.loc 1 102 18
 162 014a 23A00700 		sw	zero,0(a5)
 103:../Firmware/GD32VW55x_standard_peripheral/Source/gd32vw55x_rtc.c ****         /* reset RTC_SHIFTCTL and RTC_HRFC register, and the bits S1H, A1H, REFEN in RTC_CTL, these
 104:../Firmware/GD32VW55x_standard_peripheral/Source/gd32vw55x_rtc.c ****         RTC_SHIFTCTL = RTC_REGISTER_RESET;
 163              		.loc 1 104 9
 164 014e B7370040 		li	a5,1073754112
 165 0152 9387C782 		addi	a5,a5,-2004
 166              		.loc 1 104 22
 167 0156 23A00700 		sw	zero,0(a5)
 105:../Firmware/GD32VW55x_standard_peripheral/Source/gd32vw55x_rtc.c ****         RTC_HRFC = RTC_REGISTER_RESET;
 168              		.loc 1 105 9
 169 015a B7370040 		li	a5,1073754112
 170 015e 9387C783 		addi	a5,a5,-1988
 171              		.loc 1 105 18
 172 0162 23A00700 		sw	zero,0(a5)
 106:../Firmware/GD32VW55x_standard_peripheral/Source/gd32vw55x_rtc.c **** 
 107:../Firmware/GD32VW55x_standard_peripheral/Source/gd32vw55x_rtc.c ****         error_status = rtc_register_sync_wait();
 173              		.loc 1 107 24
 174 0166 97000000 		call	rtc_register_sync_wait
 174      E7800000 
 175 016e 2326A4FE 		sw	a0,-20(s0)
 108:../Firmware/GD32VW55x_standard_peripheral/Source/gd32vw55x_rtc.c **** 
 109:../Firmware/GD32VW55x_standard_peripheral/Source/gd32vw55x_rtc.c ****         /* enable the write protection */
 110:../Firmware/GD32VW55x_standard_peripheral/Source/gd32vw55x_rtc.c ****         RTC_WPK = RTC_LOCK_KEY;
 176              		.loc 1 110 9
 177 0172 B7370040 		li	a5,1073754112
 178 0176 93874782 		addi	a5,a5,-2012
 179              		.loc 1 110 17
 180 017a 1307F00F 		li	a4,255
 181 017e 98C3     		sw	a4,0(a5)
 182              	.L5:
 111:../Firmware/GD32VW55x_standard_peripheral/Source/gd32vw55x_rtc.c **** 
 112:../Firmware/GD32VW55x_standard_peripheral/Source/gd32vw55x_rtc.c ****     }
 113:../Firmware/GD32VW55x_standard_peripheral/Source/gd32vw55x_rtc.c ****     return error_status;
 183              		.loc 1 113 12
 184 0180 8327C4FE 		lw	a5,-20(s0)
 114:../Firmware/GD32VW55x_standard_peripheral/Source/gd32vw55x_rtc.c **** }
 185              		.loc 1 114 1
 186 0184 3E85     		mv	a0,a5
 187 0186 F240     		lw	ra,28(sp)
 188              		.cfi_restore 1
 189 0188 6244     		lw	s0,24(sp)
 190              		.cfi_restore 8
 191              		.cfi_def_cfa 2, 32
 192 018a 0561     		addi	sp,sp,32
 193              		.cfi_def_cfa_offset 0
 194 018c 8280     		jr	ra
 195              		.cfi_endproc
 196              	.LFE347:
 198              		.section	.text.rtc_init,"ax",@progbits
 199              		.align	1
 200              		.globl	rtc_init
 202              	rtc_init:
 203              	.LFB348:
 115:../Firmware/GD32VW55x_standard_peripheral/Source/gd32vw55x_rtc.c **** 
 116:../Firmware/GD32VW55x_standard_peripheral/Source/gd32vw55x_rtc.c **** /*!
 117:../Firmware/GD32VW55x_standard_peripheral/Source/gd32vw55x_rtc.c ****     \brief      initialize RTC registers
 118:../Firmware/GD32VW55x_standard_peripheral/Source/gd32vw55x_rtc.c ****     \param[in]  rtc_initpara_struct: pointer to a rtc_parameter_struct structure which contains
 119:../Firmware/GD32VW55x_standard_peripheral/Source/gd32vw55x_rtc.c ****                 parameters for initialization of the rtc peripheral
 120:../Firmware/GD32VW55x_standard_peripheral/Source/gd32vw55x_rtc.c ****                 members of the structure and the member values are shown as below:
 121:../Firmware/GD32VW55x_standard_peripheral/Source/gd32vw55x_rtc.c ****                   year: 0x0 - 0x99(BCD format)
 122:../Firmware/GD32VW55x_standard_peripheral/Source/gd32vw55x_rtc.c ****                   month: RTC_JAN, RTC_FEB, RTC_MAR, RTC_APR, RTC_MAY, RTC_JUN,
 123:../Firmware/GD32VW55x_standard_peripheral/Source/gd32vw55x_rtc.c ****                              RTC_JUL, RTC_AUG, RTC_SEP, RTC_OCT, RTC_NOV, RTC_DEC
 124:../Firmware/GD32VW55x_standard_peripheral/Source/gd32vw55x_rtc.c ****                   date: 0x1 - 0x31(BCD format)
 125:../Firmware/GD32VW55x_standard_peripheral/Source/gd32vw55x_rtc.c ****                   day_of_week: RTC_MONDAY, RTC_TUESDAY, RTC_WEDNESDAY, RTC_THURSDAY
 126:../Firmware/GD32VW55x_standard_peripheral/Source/gd32vw55x_rtc.c ****                                    RTC_FRIDAY, RTC_SATURDAY, RTC_SUNDAY
 127:../Firmware/GD32VW55x_standard_peripheral/Source/gd32vw55x_rtc.c ****                   hour: 0x0 - 0x12(BCD format) or 0x0 - 0x23(BCD format) depending on the rtc displ
 128:../Firmware/GD32VW55x_standard_peripheral/Source/gd32vw55x_rtc.c ****                   minute: 0x0 - 0x59(BCD format)
 129:../Firmware/GD32VW55x_standard_peripheral/Source/gd32vw55x_rtc.c ****                   second: 0x0 - 0x59(BCD format)
 130:../Firmware/GD32VW55x_standard_peripheral/Source/gd32vw55x_rtc.c ****                   factor_asyn: 0x0 - 0x7F
 131:../Firmware/GD32VW55x_standard_peripheral/Source/gd32vw55x_rtc.c ****                   factor_syn: 0x0 - 0x7FFF
 132:../Firmware/GD32VW55x_standard_peripheral/Source/gd32vw55x_rtc.c ****                   am_pm: RTC_AM, RTC_PM
 133:../Firmware/GD32VW55x_standard_peripheral/Source/gd32vw55x_rtc.c ****                   display_format: RTC_24HOUR, RTC_12HOUR
 134:../Firmware/GD32VW55x_standard_peripheral/Source/gd32vw55x_rtc.c ****     \param[out] none
 135:../Firmware/GD32VW55x_standard_peripheral/Source/gd32vw55x_rtc.c ****     \retval     ErrStatus: ERROR or SUCCESS
 136:../Firmware/GD32VW55x_standard_peripheral/Source/gd32vw55x_rtc.c **** */
 137:../Firmware/GD32VW55x_standard_peripheral/Source/gd32vw55x_rtc.c **** ErrStatus rtc_init(rtc_parameter_struct *rtc_initpara_struct)
 138:../Firmware/GD32VW55x_standard_peripheral/Source/gd32vw55x_rtc.c **** {
 204              		.loc 1 138 1
 205              		.cfi_startproc
 206 0000 7971     		addi	sp,sp,-48
 207              		.cfi_def_cfa_offset 48
 208 0002 06D6     		sw	ra,44(sp)
 209 0004 22D4     		sw	s0,40(sp)
 210              		.cfi_offset 1, -4
 211              		.cfi_offset 8, -8
 212 0006 0018     		addi	s0,sp,48
 213              		.cfi_def_cfa 8, 0
 214 0008 232EA4FC 		sw	a0,-36(s0)
 139:../Firmware/GD32VW55x_standard_peripheral/Source/gd32vw55x_rtc.c ****     ErrStatus error_status = ERROR;
 215              		.loc 1 139 15
 216 000c 232604FE 		sw	zero,-20(s0)
 140:../Firmware/GD32VW55x_standard_peripheral/Source/gd32vw55x_rtc.c ****     uint32_t reg_time = 0U, reg_date = 0U;
 217              		.loc 1 140 14
 218 0010 232404FE 		sw	zero,-24(s0)
 219              		.loc 1 140 29
 220 0014 232204FE 		sw	zero,-28(s0)
 141:../Firmware/GD32VW55x_standard_peripheral/Source/gd32vw55x_rtc.c **** 
 142:../Firmware/GD32VW55x_standard_peripheral/Source/gd32vw55x_rtc.c ****     reg_date = (DATE_YR(rtc_initpara_struct->year) | \
 221              		.loc 1 142 17
 222 0018 8327C4FD 		lw	a5,-36(s0)
 223 001c 83C70700 		lbu	a5,0(a5)
 224 0020 13970701 		slli	a4,a5,16
 225 0024 B707FF00 		li	a5,16711680
 226 0028 7D8F     		and	a4,a4,a5
 143:../Firmware/GD32VW55x_standard_peripheral/Source/gd32vw55x_rtc.c ****                 DATE_DOW(rtc_initpara_struct->day_of_week) | \
 227              		.loc 1 143 17
 228 002a 8327C4FD 		lw	a5,-36(s0)
 229 002e 83C73700 		lbu	a5,3(a5)
 230 0032 9396D700 		slli	a3,a5,13
 231 0036 C167     		li	a5,65536
 232 0038 FD17     		addi	a5,a5,-1
 233 003a F58F     		and	a5,a3,a5
 142:../Firmware/GD32VW55x_standard_peripheral/Source/gd32vw55x_rtc.c ****                 DATE_DOW(rtc_initpara_struct->day_of_week) | \
 234              		.loc 1 142 52
 235 003c 5D8F     		or	a4,a4,a5
 144:../Firmware/GD32VW55x_standard_peripheral/Source/gd32vw55x_rtc.c ****                 DATE_MON(rtc_initpara_struct->month) | \
 236              		.loc 1 144 17
 237 003e 8327C4FD 		lw	a5,-36(s0)
 238 0042 83C71700 		lbu	a5,1(a5)
 239 0046 93968700 		slli	a3,a5,8
 240 004a 8967     		li	a5,8192
 241 004c 938707F0 		addi	a5,a5,-256
 242 0050 F58F     		and	a5,a3,a5
 143:../Firmware/GD32VW55x_standard_peripheral/Source/gd32vw55x_rtc.c ****                 DATE_DOW(rtc_initpara_struct->day_of_week) | \
 243              		.loc 1 143 60
 244 0052 5D8F     		or	a4,a4,a5
 145:../Firmware/GD32VW55x_standard_peripheral/Source/gd32vw55x_rtc.c ****                 DATE_DAY(rtc_initpara_struct->date));
 245              		.loc 1 145 17
 246 0054 8327C4FD 		lw	a5,-36(s0)
 247 0058 83C72700 		lbu	a5,2(a5)
 248 005c 93F7F703 		andi	a5,a5,63
 142:../Firmware/GD32VW55x_standard_peripheral/Source/gd32vw55x_rtc.c ****                 DATE_DOW(rtc_initpara_struct->day_of_week) | \
 249              		.loc 1 142 14
 250 0060 D98F     		or	a5,a4,a5
 251 0062 2322F4FE 		sw	a5,-28(s0)
 146:../Firmware/GD32VW55x_standard_peripheral/Source/gd32vw55x_rtc.c **** 
 147:../Firmware/GD32VW55x_standard_peripheral/Source/gd32vw55x_rtc.c ****     reg_time = (rtc_initpara_struct->am_pm | \
 252              		.loc 1 147 36
 253 0066 8327C4FD 		lw	a5,-36(s0)
 254 006a D847     		lw	a4,12(a5)
 148:../Firmware/GD32VW55x_standard_peripheral/Source/gd32vw55x_rtc.c ****                 TIME_HR(rtc_initpara_struct->hour)  | \
 255              		.loc 1 148 17
 256 006c 8327C4FD 		lw	a5,-36(s0)
 257 0070 83C74700 		lbu	a5,4(a5)
 258 0074 93960701 		slli	a3,a5,16
 259 0078 B7073F00 		li	a5,4128768
 260 007c F58F     		and	a5,a3,a5
 147:../Firmware/GD32VW55x_standard_peripheral/Source/gd32vw55x_rtc.c ****                 TIME_HR(rtc_initpara_struct->hour)  | \
 261              		.loc 1 147 44
 262 007e 5D8F     		or	a4,a4,a5
 149:../Firmware/GD32VW55x_standard_peripheral/Source/gd32vw55x_rtc.c ****                 TIME_MN(rtc_initpara_struct->minute) | \
 263              		.loc 1 149 17
 264 0080 8327C4FD 		lw	a5,-36(s0)
 265 0084 83C75700 		lbu	a5,5(a5)
 266 0088 93968700 		slli	a3,a5,8
 267 008c A167     		li	a5,32768
 268 008e 938707F0 		addi	a5,a5,-256
 269 0092 F58F     		and	a5,a3,a5
 148:../Firmware/GD32VW55x_standard_peripheral/Source/gd32vw55x_rtc.c ****                 TIME_HR(rtc_initpara_struct->hour)  | \
 270              		.loc 1 148 53
 271 0094 5D8F     		or	a4,a4,a5
 150:../Firmware/GD32VW55x_standard_peripheral/Source/gd32vw55x_rtc.c ****                 TIME_SC(rtc_initpara_struct->second));
 272              		.loc 1 150 17
 273 0096 8327C4FD 		lw	a5,-36(s0)
 274 009a 83C76700 		lbu	a5,6(a5)
 275 009e 93F7F707 		andi	a5,a5,127
 147:../Firmware/GD32VW55x_standard_peripheral/Source/gd32vw55x_rtc.c ****                 TIME_HR(rtc_initpara_struct->hour)  | \
 276              		.loc 1 147 14
 277 00a2 D98F     		or	a5,a4,a5
 278 00a4 2324F4FE 		sw	a5,-24(s0)
 151:../Firmware/GD32VW55x_standard_peripheral/Source/gd32vw55x_rtc.c **** 
 152:../Firmware/GD32VW55x_standard_peripheral/Source/gd32vw55x_rtc.c ****     /* 1st: disable the write protection */
 153:../Firmware/GD32VW55x_standard_peripheral/Source/gd32vw55x_rtc.c ****     RTC_WPK = RTC_UNLOCK_KEY1;
 279              		.loc 1 153 5
 280 00a8 B7370040 		li	a5,1073754112
 281 00ac 93874782 		addi	a5,a5,-2012
 282              		.loc 1 153 13
 283 00b0 1307A00C 		li	a4,202
 284 00b4 98C3     		sw	a4,0(a5)
 154:../Firmware/GD32VW55x_standard_peripheral/Source/gd32vw55x_rtc.c ****     RTC_WPK = RTC_UNLOCK_KEY2;
 285              		.loc 1 154 5
 286 00b6 B7370040 		li	a5,1073754112
 287 00ba 93874782 		addi	a5,a5,-2012
 288              		.loc 1 154 13
 289 00be 13073005 		li	a4,83
 290 00c2 98C3     		sw	a4,0(a5)
 155:../Firmware/GD32VW55x_standard_peripheral/Source/gd32vw55x_rtc.c **** 
 156:../Firmware/GD32VW55x_standard_peripheral/Source/gd32vw55x_rtc.c ****     /* 2nd: enter init mode */
 157:../Firmware/GD32VW55x_standard_peripheral/Source/gd32vw55x_rtc.c ****     error_status = rtc_init_mode_enter();
 291              		.loc 1 157 20
 292 00c4 97000000 		call	rtc_init_mode_enter
 292      E7800000 
 293 00cc 2326A4FE 		sw	a0,-20(s0)
 158:../Firmware/GD32VW55x_standard_peripheral/Source/gd32vw55x_rtc.c **** 
 159:../Firmware/GD32VW55x_standard_peripheral/Source/gd32vw55x_rtc.c ****     if(ERROR != error_status) {
 294              		.loc 1 159 7
 295 00d0 8327C4FE 		lw	a5,-20(s0)
 296 00d4 D9CB     		beq	a5,zero,.L8
 160:../Firmware/GD32VW55x_standard_peripheral/Source/gd32vw55x_rtc.c ****         RTC_PSC = (uint32_t)(PSC_FACTOR_A(rtc_initpara_struct->factor_asyn) | \
 297              		.loc 1 160 30
 298 00d6 8327C4FD 		lw	a5,-36(s0)
 299 00da 83D78700 		lhu	a5,8(a5)
 300 00de 13970701 		slli	a4,a5,16
 301 00e2 B7077F00 		li	a5,8323072
 302 00e6 B376F700 		and	a3,a4,a5
 161:../Firmware/GD32VW55x_standard_peripheral/Source/gd32vw55x_rtc.c ****                              PSC_FACTOR_S(rtc_initpara_struct->factor_syn));
 303              		.loc 1 161 30
 304 00ea 8327C4FD 		lw	a5,-36(s0)
 305 00ee 83D7A700 		lhu	a5,10(a5)
 306 00f2 3E87     		mv	a4,a5
 307 00f4 A167     		li	a5,32768
 308 00f6 FD17     		addi	a5,a5,-1
 309 00f8 7D8F     		and	a4,a4,a5
 160:../Firmware/GD32VW55x_standard_peripheral/Source/gd32vw55x_rtc.c ****         RTC_PSC = (uint32_t)(PSC_FACTOR_A(rtc_initpara_struct->factor_asyn) | \
 310              		.loc 1 160 9
 311 00fa B7370040 		li	a5,1073754112
 312 00fe 93870781 		addi	a5,a5,-2032
 160:../Firmware/GD32VW55x_standard_peripheral/Source/gd32vw55x_rtc.c ****         RTC_PSC = (uint32_t)(PSC_FACTOR_A(rtc_initpara_struct->factor_asyn) | \
 313              		.loc 1 160 19
 314 0102 558F     		or	a4,a3,a4
 160:../Firmware/GD32VW55x_standard_peripheral/Source/gd32vw55x_rtc.c ****         RTC_PSC = (uint32_t)(PSC_FACTOR_A(rtc_initpara_struct->factor_asyn) | \
 315              		.loc 1 160 17
 316 0104 98C3     		sw	a4,0(a5)
 162:../Firmware/GD32VW55x_standard_peripheral/Source/gd32vw55x_rtc.c **** 
 163:../Firmware/GD32VW55x_standard_peripheral/Source/gd32vw55x_rtc.c ****         RTC_TIME = (uint32_t)reg_time;
 317              		.loc 1 163 9
 318 0106 B7370040 		li	a5,1073754112
 319 010a 93870780 		addi	a5,a5,-2048
 320              		.loc 1 163 18
 321 010e 032784FE 		lw	a4,-24(s0)
 322 0112 98C3     		sw	a4,0(a5)
 164:../Firmware/GD32VW55x_standard_peripheral/Source/gd32vw55x_rtc.c ****         RTC_DATE = (uint32_t)reg_date;
 323              		.loc 1 164 9
 324 0114 B7370040 		li	a5,1073754112
 325 0118 93874780 		addi	a5,a5,-2044
 326              		.loc 1 164 18
 327 011c 032744FE 		lw	a4,-28(s0)
 328 0120 98C3     		sw	a4,0(a5)
 165:../Firmware/GD32VW55x_standard_peripheral/Source/gd32vw55x_rtc.c **** 
 166:../Firmware/GD32VW55x_standard_peripheral/Source/gd32vw55x_rtc.c ****         RTC_CTL &= (uint32_t)(~RTC_CTL_CS);
 329              		.loc 1 166 17
 330 0122 B7370040 		li	a5,1073754112
 331 0126 93878780 		addi	a5,a5,-2040
 332 012a 9843     		lw	a4,0(a5)
 333 012c B7370040 		li	a5,1073754112
 334 0130 93878780 		addi	a5,a5,-2040
 335 0134 1377F7FB 		andi	a4,a4,-65
 336 0138 98C3     		sw	a4,0(a5)
 167:../Firmware/GD32VW55x_standard_peripheral/Source/gd32vw55x_rtc.c ****         RTC_CTL |=  rtc_initpara_struct->display_format;
 337              		.loc 1 167 17
 338 013a B7370040 		li	a5,1073754112
 339 013e 93878780 		addi	a5,a5,-2040
 340 0142 9443     		lw	a3,0(a5)
 341              		.loc 1 167 40
 342 0144 8327C4FD 		lw	a5,-36(s0)
 343 0148 984B     		lw	a4,16(a5)
 344              		.loc 1 167 17
 345 014a B7370040 		li	a5,1073754112
 346 014e 93878780 		addi	a5,a5,-2040
 347 0152 558F     		or	a4,a3,a4
 348 0154 98C3     		sw	a4,0(a5)
 168:../Firmware/GD32VW55x_standard_peripheral/Source/gd32vw55x_rtc.c **** 
 169:../Firmware/GD32VW55x_standard_peripheral/Source/gd32vw55x_rtc.c ****         /* 3rd: exit init mode */
 170:../Firmware/GD32VW55x_standard_peripheral/Source/gd32vw55x_rtc.c ****         rtc_init_mode_exit();
 349              		.loc 1 170 9
 350 0156 97000000 		call	rtc_init_mode_exit
 350      E7800000 
 171:../Firmware/GD32VW55x_standard_peripheral/Source/gd32vw55x_rtc.c **** 
 172:../Firmware/GD32VW55x_standard_peripheral/Source/gd32vw55x_rtc.c ****         /* 4th: wait the RSYNF flag to set */
 173:../Firmware/GD32VW55x_standard_peripheral/Source/gd32vw55x_rtc.c ****         error_status = rtc_register_sync_wait();
 351              		.loc 1 173 24
 352 015e 97000000 		call	rtc_register_sync_wait
 352      E7800000 
 353 0166 2326A4FE 		sw	a0,-20(s0)
 354              	.L8:
 174:../Firmware/GD32VW55x_standard_peripheral/Source/gd32vw55x_rtc.c ****     }
 175:../Firmware/GD32VW55x_standard_peripheral/Source/gd32vw55x_rtc.c **** 
 176:../Firmware/GD32VW55x_standard_peripheral/Source/gd32vw55x_rtc.c ****     /* 5th:  enable the write protection */
 177:../Firmware/GD32VW55x_standard_peripheral/Source/gd32vw55x_rtc.c ****     RTC_WPK = RTC_LOCK_KEY;
 355              		.loc 1 177 5
 356 016a B7370040 		li	a5,1073754112
 357 016e 93874782 		addi	a5,a5,-2012
 358              		.loc 1 177 13
 359 0172 1307F00F 		li	a4,255
 360 0176 98C3     		sw	a4,0(a5)
 178:../Firmware/GD32VW55x_standard_peripheral/Source/gd32vw55x_rtc.c **** 
 179:../Firmware/GD32VW55x_standard_peripheral/Source/gd32vw55x_rtc.c ****     return error_status;
 361              		.loc 1 179 12
 362 0178 8327C4FE 		lw	a5,-20(s0)
 180:../Firmware/GD32VW55x_standard_peripheral/Source/gd32vw55x_rtc.c **** }
 363              		.loc 1 180 1
 364 017c 3E85     		mv	a0,a5
 365 017e B250     		lw	ra,44(sp)
 366              		.cfi_restore 1
 367 0180 2254     		lw	s0,40(sp)
 368              		.cfi_restore 8
 369              		.cfi_def_cfa 2, 48
 370 0182 4561     		addi	sp,sp,48
 371              		.cfi_def_cfa_offset 0
 372 0184 8280     		jr	ra
 373              		.cfi_endproc
 374              	.LFE348:
 376              		.section	.text.rtc_init_mode_enter,"ax",@progbits
 377              		.align	1
 378              		.globl	rtc_init_mode_enter
 380              	rtc_init_mode_enter:
 381              	.LFB349:
 181:../Firmware/GD32VW55x_standard_peripheral/Source/gd32vw55x_rtc.c **** 
 182:../Firmware/GD32VW55x_standard_peripheral/Source/gd32vw55x_rtc.c **** /*!
 183:../Firmware/GD32VW55x_standard_peripheral/Source/gd32vw55x_rtc.c ****     \brief      enter RTC init mode
 184:../Firmware/GD32VW55x_standard_peripheral/Source/gd32vw55x_rtc.c ****     \param[in]  none
 185:../Firmware/GD32VW55x_standard_peripheral/Source/gd32vw55x_rtc.c ****     \param[out] none
 186:../Firmware/GD32VW55x_standard_peripheral/Source/gd32vw55x_rtc.c ****     \retval     ErrStatus: ERROR or SUCCESS
 187:../Firmware/GD32VW55x_standard_peripheral/Source/gd32vw55x_rtc.c **** */
 188:../Firmware/GD32VW55x_standard_peripheral/Source/gd32vw55x_rtc.c **** ErrStatus rtc_init_mode_enter(void)
 189:../Firmware/GD32VW55x_standard_peripheral/Source/gd32vw55x_rtc.c **** {
 382              		.loc 1 189 1
 383              		.cfi_startproc
 384 0000 0111     		addi	sp,sp,-32
 385              		.cfi_def_cfa_offset 32
 386 0002 22CE     		sw	s0,28(sp)
 387              		.cfi_offset 8, -4
 388 0004 0010     		addi	s0,sp,32
 389              		.cfi_def_cfa 8, 0
 190:../Firmware/GD32VW55x_standard_peripheral/Source/gd32vw55x_rtc.c ****     volatile uint32_t time_index = RTC_INITM_TIMEOUT;
 390              		.loc 1 190 23
 391 0006 A167     		li	a5,32768
 392 0008 2322F4FE 		sw	a5,-28(s0)
 191:../Firmware/GD32VW55x_standard_peripheral/Source/gd32vw55x_rtc.c ****     uint32_t flag_status = RESET;
 393              		.loc 1 191 14
 394 000c 232404FE 		sw	zero,-24(s0)
 192:../Firmware/GD32VW55x_standard_peripheral/Source/gd32vw55x_rtc.c ****     ErrStatus error_status = ERROR;
 395              		.loc 1 192 15
 396 0010 232604FE 		sw	zero,-20(s0)
 193:../Firmware/GD32VW55x_standard_peripheral/Source/gd32vw55x_rtc.c **** 
 194:../Firmware/GD32VW55x_standard_peripheral/Source/gd32vw55x_rtc.c ****     /* check whether it has been in init mode */
 195:../Firmware/GD32VW55x_standard_peripheral/Source/gd32vw55x_rtc.c ****     if((uint32_t)RESET == (RTC_STAT & RTC_STAT_INITF)) {
 397              		.loc 1 195 28
 398 0014 B7370040 		li	a5,1073754112
 399 0018 9387C780 		addi	a5,a5,-2036
 400 001c 9C43     		lw	a5,0(a5)
 401              		.loc 1 195 37
 402 001e 93F70704 		andi	a5,a5,64
 403              		.loc 1 195 7
 404 0022 B1E7     		bne	a5,zero,.L11
 196:../Firmware/GD32VW55x_standard_peripheral/Source/gd32vw55x_rtc.c ****         RTC_STAT |= RTC_STAT_INITM;
 405              		.loc 1 196 18
 406 0024 B7370040 		li	a5,1073754112
 407 0028 9387C780 		addi	a5,a5,-2036
 408 002c 9843     		lw	a4,0(a5)
 409 002e B7370040 		li	a5,1073754112
 410 0032 9387C780 		addi	a5,a5,-2036
 411 0036 13670708 		ori	a4,a4,128
 412 003a 98C3     		sw	a4,0(a5)
 413              	.L13:
 197:../Firmware/GD32VW55x_standard_peripheral/Source/gd32vw55x_rtc.c **** 
 198:../Firmware/GD32VW55x_standard_peripheral/Source/gd32vw55x_rtc.c ****         /* wait until the INITF flag to be set */
 199:../Firmware/GD32VW55x_standard_peripheral/Source/gd32vw55x_rtc.c ****         do {
 200:../Firmware/GD32VW55x_standard_peripheral/Source/gd32vw55x_rtc.c ****             flag_status = RTC_STAT & RTC_STAT_INITF;
 414              		.loc 1 200 27 discriminator 2
 415 003c B7370040 		li	a5,1073754112
 416 0040 9387C780 		addi	a5,a5,-2036
 417 0044 9C43     		lw	a5,0(a5)
 418              		.loc 1 200 25 discriminator 2
 419 0046 93F70704 		andi	a5,a5,64
 420 004a 2324F4FE 		sw	a5,-24(s0)
 201:../Firmware/GD32VW55x_standard_peripheral/Source/gd32vw55x_rtc.c ****         } while((--time_index > 0U) && ((uint32_t)RESET == flag_status));
 421              		.loc 1 201 18 discriminator 2
 422 004e 832744FE 		lw	a5,-28(s0)
 423 0052 FD17     		addi	a5,a5,-1
 424              		.loc 1 201 9 discriminator 2
 425 0054 2322F4FE 		sw	a5,-28(s0)
 426 0058 81C7     		beq	a5,zero,.L12
 427              		.loc 1 201 37 discriminator 1
 428 005a 832784FE 		lw	a5,-24(s0)
 429 005e F9DF     		beq	a5,zero,.L13
 430              	.L12:
 202:../Firmware/GD32VW55x_standard_peripheral/Source/gd32vw55x_rtc.c **** 
 203:../Firmware/GD32VW55x_standard_peripheral/Source/gd32vw55x_rtc.c ****         if((uint32_t)RESET != flag_status) {
 431              		.loc 1 203 11
 432 0060 832784FE 		lw	a5,-24(s0)
 433 0064 81CB     		beq	a5,zero,.L14
 204:../Firmware/GD32VW55x_standard_peripheral/Source/gd32vw55x_rtc.c ****             error_status = SUCCESS;
 434              		.loc 1 204 26
 435 0066 8547     		li	a5,1
 436 0068 2326F4FE 		sw	a5,-20(s0)
 437 006c 21A0     		j	.L14
 438              	.L11:
 205:../Firmware/GD32VW55x_standard_peripheral/Source/gd32vw55x_rtc.c ****         }
 206:../Firmware/GD32VW55x_standard_peripheral/Source/gd32vw55x_rtc.c ****     } else {
 207:../Firmware/GD32VW55x_standard_peripheral/Source/gd32vw55x_rtc.c ****         error_status = SUCCESS;
 439              		.loc 1 207 22
 440 006e 8547     		li	a5,1
 441 0070 2326F4FE 		sw	a5,-20(s0)
 442              	.L14:
 208:../Firmware/GD32VW55x_standard_peripheral/Source/gd32vw55x_rtc.c ****     }
 209:../Firmware/GD32VW55x_standard_peripheral/Source/gd32vw55x_rtc.c ****     return error_status;
 443              		.loc 1 209 12
 444 0074 8327C4FE 		lw	a5,-20(s0)
 210:../Firmware/GD32VW55x_standard_peripheral/Source/gd32vw55x_rtc.c **** }
 445              		.loc 1 210 1
 446 0078 3E85     		mv	a0,a5
 447 007a 7244     		lw	s0,28(sp)
 448              		.cfi_restore 8
 449              		.cfi_def_cfa 2, 32
 450 007c 0561     		addi	sp,sp,32
 451              		.cfi_def_cfa_offset 0
 452 007e 8280     		jr	ra
 453              		.cfi_endproc
 454              	.LFE349:
 456              		.section	.text.rtc_init_mode_exit,"ax",@progbits
 457              		.align	1
 458              		.globl	rtc_init_mode_exit
 460              	rtc_init_mode_exit:
 461              	.LFB350:
 211:../Firmware/GD32VW55x_standard_peripheral/Source/gd32vw55x_rtc.c **** 
 212:../Firmware/GD32VW55x_standard_peripheral/Source/gd32vw55x_rtc.c **** /*!
 213:../Firmware/GD32VW55x_standard_peripheral/Source/gd32vw55x_rtc.c ****     \brief      exit RTC init mode
 214:../Firmware/GD32VW55x_standard_peripheral/Source/gd32vw55x_rtc.c ****     \param[in]  none
 215:../Firmware/GD32VW55x_standard_peripheral/Source/gd32vw55x_rtc.c ****     \param[out] none
 216:../Firmware/GD32VW55x_standard_peripheral/Source/gd32vw55x_rtc.c ****     \retval     none
 217:../Firmware/GD32VW55x_standard_peripheral/Source/gd32vw55x_rtc.c **** */
 218:../Firmware/GD32VW55x_standard_peripheral/Source/gd32vw55x_rtc.c **** void rtc_init_mode_exit(void)
 219:../Firmware/GD32VW55x_standard_peripheral/Source/gd32vw55x_rtc.c **** {
 462              		.loc 1 219 1
 463              		.cfi_startproc
 464 0000 4111     		addi	sp,sp,-16
 465              		.cfi_def_cfa_offset 16
 466 0002 22C6     		sw	s0,12(sp)
 467              		.cfi_offset 8, -4
 468 0004 0008     		addi	s0,sp,16
 469              		.cfi_def_cfa 8, 0
 220:../Firmware/GD32VW55x_standard_peripheral/Source/gd32vw55x_rtc.c ****     RTC_STAT &= (uint32_t)(~RTC_STAT_INITM);
 470              		.loc 1 220 14
 471 0006 B7370040 		li	a5,1073754112
 472 000a 9387C780 		addi	a5,a5,-2036
 473 000e 9843     		lw	a4,0(a5)
 474 0010 B7370040 		li	a5,1073754112
 475 0014 9387C780 		addi	a5,a5,-2036
 476 0018 1377F7F7 		andi	a4,a4,-129
 477 001c 98C3     		sw	a4,0(a5)
 221:../Firmware/GD32VW55x_standard_peripheral/Source/gd32vw55x_rtc.c **** }
 478              		.loc 1 221 1
 479 001e 0100     		nop
 480 0020 3244     		lw	s0,12(sp)
 481              		.cfi_restore 8
 482              		.cfi_def_cfa 2, 16
 483 0022 4101     		addi	sp,sp,16
 484              		.cfi_def_cfa_offset 0
 485 0024 8280     		jr	ra
 486              		.cfi_endproc
 487              	.LFE350:
 489              		.section	.text.rtc_register_sync_wait,"ax",@progbits
 490              		.align	1
 491              		.globl	rtc_register_sync_wait
 493              	rtc_register_sync_wait:
 494              	.LFB351:
 222:../Firmware/GD32VW55x_standard_peripheral/Source/gd32vw55x_rtc.c **** 
 223:../Firmware/GD32VW55x_standard_peripheral/Source/gd32vw55x_rtc.c **** /*!
 224:../Firmware/GD32VW55x_standard_peripheral/Source/gd32vw55x_rtc.c ****     \brief      wait until RTC_TIME and RTC_DATE registers are synchronized with APB clock, and the
 225:../Firmware/GD32VW55x_standard_peripheral/Source/gd32vw55x_rtc.c ****                 registers are updated
 226:../Firmware/GD32VW55x_standard_peripheral/Source/gd32vw55x_rtc.c ****     \param[in]  none
 227:../Firmware/GD32VW55x_standard_peripheral/Source/gd32vw55x_rtc.c ****     \param[out] none
 228:../Firmware/GD32VW55x_standard_peripheral/Source/gd32vw55x_rtc.c ****     \retval     ErrStatus: ERROR or SUCCESS
 229:../Firmware/GD32VW55x_standard_peripheral/Source/gd32vw55x_rtc.c **** */
 230:../Firmware/GD32VW55x_standard_peripheral/Source/gd32vw55x_rtc.c **** ErrStatus rtc_register_sync_wait(void)
 231:../Firmware/GD32VW55x_standard_peripheral/Source/gd32vw55x_rtc.c **** {
 495              		.loc 1 231 1
 496              		.cfi_startproc
 497 0000 0111     		addi	sp,sp,-32
 498              		.cfi_def_cfa_offset 32
 499 0002 22CE     		sw	s0,28(sp)
 500              		.cfi_offset 8, -4
 501 0004 0010     		addi	s0,sp,32
 502              		.cfi_def_cfa 8, 0
 232:../Firmware/GD32VW55x_standard_peripheral/Source/gd32vw55x_rtc.c ****     volatile uint32_t time_index = RTC_RSYNF_TIMEOUT;
 503              		.loc 1 232 23
 504 0006 A167     		li	a5,32768
 505 0008 2322F4FE 		sw	a5,-28(s0)
 233:../Firmware/GD32VW55x_standard_peripheral/Source/gd32vw55x_rtc.c ****     uint32_t flag_status = RESET;
 506              		.loc 1 233 14
 507 000c 232404FE 		sw	zero,-24(s0)
 234:../Firmware/GD32VW55x_standard_peripheral/Source/gd32vw55x_rtc.c ****     ErrStatus error_status = ERROR;
 508              		.loc 1 234 15
 509 0010 232604FE 		sw	zero,-20(s0)
 235:../Firmware/GD32VW55x_standard_peripheral/Source/gd32vw55x_rtc.c **** 
 236:../Firmware/GD32VW55x_standard_peripheral/Source/gd32vw55x_rtc.c ****     if((uint32_t)RESET == (RTC_CTL & RTC_CTL_BPSHAD)) {
 510              		.loc 1 236 28
 511 0014 B7370040 		li	a5,1073754112
 512 0018 93878780 		addi	a5,a5,-2040
 513 001c 9C43     		lw	a5,0(a5)
 514              		.loc 1 236 36
 515 001e 93F70702 		andi	a5,a5,32
 516              		.loc 1 236 7
 517 0022 BDEB     		bne	a5,zero,.L18
 237:../Firmware/GD32VW55x_standard_peripheral/Source/gd32vw55x_rtc.c ****         /* disable the write protection */
 238:../Firmware/GD32VW55x_standard_peripheral/Source/gd32vw55x_rtc.c ****         RTC_WPK = RTC_UNLOCK_KEY1;
 518              		.loc 1 238 9
 519 0024 B7370040 		li	a5,1073754112
 520 0028 93874782 		addi	a5,a5,-2012
 521              		.loc 1 238 17
 522 002c 1307A00C 		li	a4,202
 523 0030 98C3     		sw	a4,0(a5)
 239:../Firmware/GD32VW55x_standard_peripheral/Source/gd32vw55x_rtc.c ****         RTC_WPK = RTC_UNLOCK_KEY2;
 524              		.loc 1 239 9
 525 0032 B7370040 		li	a5,1073754112
 526 0036 93874782 		addi	a5,a5,-2012
 527              		.loc 1 239 17
 528 003a 13073005 		li	a4,83
 529 003e 98C3     		sw	a4,0(a5)
 240:../Firmware/GD32VW55x_standard_peripheral/Source/gd32vw55x_rtc.c **** 
 241:../Firmware/GD32VW55x_standard_peripheral/Source/gd32vw55x_rtc.c ****         /* firstly clear RSYNF flag */
 242:../Firmware/GD32VW55x_standard_peripheral/Source/gd32vw55x_rtc.c ****         RTC_STAT &= (uint32_t)(~RTC_STAT_RSYNF);
 530              		.loc 1 242 18
 531 0040 B7370040 		li	a5,1073754112
 532 0044 9387C780 		addi	a5,a5,-2036
 533 0048 9843     		lw	a4,0(a5)
 534 004a B7370040 		li	a5,1073754112
 535 004e 9387C780 		addi	a5,a5,-2036
 536 0052 1377F7FD 		andi	a4,a4,-33
 537 0056 98C3     		sw	a4,0(a5)
 538              	.L20:
 243:../Firmware/GD32VW55x_standard_peripheral/Source/gd32vw55x_rtc.c **** 
 244:../Firmware/GD32VW55x_standard_peripheral/Source/gd32vw55x_rtc.c ****         /* wait until RSYNF flag to be set */
 245:../Firmware/GD32VW55x_standard_peripheral/Source/gd32vw55x_rtc.c ****         do {
 246:../Firmware/GD32VW55x_standard_peripheral/Source/gd32vw55x_rtc.c ****             flag_status = RTC_STAT & RTC_STAT_RSYNF;
 539              		.loc 1 246 27 discriminator 2
 540 0058 B7370040 		li	a5,1073754112
 541 005c 9387C780 		addi	a5,a5,-2036
 542 0060 9C43     		lw	a5,0(a5)
 543              		.loc 1 246 25 discriminator 2
 544 0062 93F70702 		andi	a5,a5,32
 545 0066 2324F4FE 		sw	a5,-24(s0)
 247:../Firmware/GD32VW55x_standard_peripheral/Source/gd32vw55x_rtc.c ****         } while((--time_index > 0U) && ((uint32_t)RESET == flag_status));
 546              		.loc 1 247 18 discriminator 2
 547 006a 832744FE 		lw	a5,-28(s0)
 548 006e FD17     		addi	a5,a5,-1
 549              		.loc 1 247 9 discriminator 2
 550 0070 2322F4FE 		sw	a5,-28(s0)
 551 0074 81C7     		beq	a5,zero,.L19
 552              		.loc 1 247 37 discriminator 1
 553 0076 832784FE 		lw	a5,-24(s0)
 554 007a F9DF     		beq	a5,zero,.L20
 555              	.L19:
 248:../Firmware/GD32VW55x_standard_peripheral/Source/gd32vw55x_rtc.c **** 
 249:../Firmware/GD32VW55x_standard_peripheral/Source/gd32vw55x_rtc.c ****         if((uint32_t)RESET != flag_status) {
 556              		.loc 1 249 11
 557 007c 832784FE 		lw	a5,-24(s0)
 558 0080 81C7     		beq	a5,zero,.L21
 250:../Firmware/GD32VW55x_standard_peripheral/Source/gd32vw55x_rtc.c ****             error_status = SUCCESS;
 559              		.loc 1 250 26
 560 0082 8547     		li	a5,1
 561 0084 2326F4FE 		sw	a5,-20(s0)
 562              	.L21:
 251:../Firmware/GD32VW55x_standard_peripheral/Source/gd32vw55x_rtc.c ****         }
 252:../Firmware/GD32VW55x_standard_peripheral/Source/gd32vw55x_rtc.c **** 
 253:../Firmware/GD32VW55x_standard_peripheral/Source/gd32vw55x_rtc.c ****         /* enable the write protection */
 254:../Firmware/GD32VW55x_standard_peripheral/Source/gd32vw55x_rtc.c ****         RTC_WPK = RTC_LOCK_KEY;
 563              		.loc 1 254 9
 564 0088 B7370040 		li	a5,1073754112
 565 008c 93874782 		addi	a5,a5,-2012
 566              		.loc 1 254 17
 567 0090 1307F00F 		li	a4,255
 568 0094 98C3     		sw	a4,0(a5)
 569 0096 21A0     		j	.L22
 570              	.L18:
 255:../Firmware/GD32VW55x_standard_peripheral/Source/gd32vw55x_rtc.c ****     } else {
 256:../Firmware/GD32VW55x_standard_peripheral/Source/gd32vw55x_rtc.c ****         error_status = SUCCESS;
 571              		.loc 1 256 22
 572 0098 8547     		li	a5,1
 573 009a 2326F4FE 		sw	a5,-20(s0)
 574              	.L22:
 257:../Firmware/GD32VW55x_standard_peripheral/Source/gd32vw55x_rtc.c ****     }
 258:../Firmware/GD32VW55x_standard_peripheral/Source/gd32vw55x_rtc.c **** 
 259:../Firmware/GD32VW55x_standard_peripheral/Source/gd32vw55x_rtc.c ****     return error_status;
 575              		.loc 1 259 12
 576 009e 8327C4FE 		lw	a5,-20(s0)
 260:../Firmware/GD32VW55x_standard_peripheral/Source/gd32vw55x_rtc.c **** }
 577              		.loc 1 260 1
 578 00a2 3E85     		mv	a0,a5
 579 00a4 7244     		lw	s0,28(sp)
 580              		.cfi_restore 8
 581              		.cfi_def_cfa 2, 32
 582 00a6 0561     		addi	sp,sp,32
 583              		.cfi_def_cfa_offset 0
 584 00a8 8280     		jr	ra
 585              		.cfi_endproc
 586              	.LFE351:
 588              		.section	.text.rtc_current_time_get,"ax",@progbits
 589              		.align	1
 590              		.globl	rtc_current_time_get
 592              	rtc_current_time_get:
 593              	.LFB352:
 261:../Firmware/GD32VW55x_standard_peripheral/Source/gd32vw55x_rtc.c **** 
 262:../Firmware/GD32VW55x_standard_peripheral/Source/gd32vw55x_rtc.c **** /*!
 263:../Firmware/GD32VW55x_standard_peripheral/Source/gd32vw55x_rtc.c ****     \brief      get current time and date
 264:../Firmware/GD32VW55x_standard_peripheral/Source/gd32vw55x_rtc.c ****     \param[in]  none
 265:../Firmware/GD32VW55x_standard_peripheral/Source/gd32vw55x_rtc.c ****     \param[out] rtc_initpara_struct: pointer to a rtc_parameter_struct structure which contains
 266:../Firmware/GD32VW55x_standard_peripheral/Source/gd32vw55x_rtc.c ****                 parameters for initialization of the rtc peripheral
 267:../Firmware/GD32VW55x_standard_peripheral/Source/gd32vw55x_rtc.c ****                 members of the structure and the member values are shown as below:
 268:../Firmware/GD32VW55x_standard_peripheral/Source/gd32vw55x_rtc.c ****                   year: 0x0 - 0x99(BCD format)
 269:../Firmware/GD32VW55x_standard_peripheral/Source/gd32vw55x_rtc.c ****                   month: RTC_JAN, RTC_FEB, RTC_MAR, RTC_APR, RTC_MAY, RTC_JUN,
 270:../Firmware/GD32VW55x_standard_peripheral/Source/gd32vw55x_rtc.c ****                              RTC_JUL, RTC_AUG, RTC_SEP, RTC_OCT, RTC_NOV, RTC_DEC
 271:../Firmware/GD32VW55x_standard_peripheral/Source/gd32vw55x_rtc.c ****                   date: 0x1 - 0x31(BCD format)
 272:../Firmware/GD32VW55x_standard_peripheral/Source/gd32vw55x_rtc.c ****                   day_of_week: RTC_MONDAY, RTC_TUESDAY, RTC_WEDNESDAY, RTC_THURSDAY
 273:../Firmware/GD32VW55x_standard_peripheral/Source/gd32vw55x_rtc.c ****                                    RTC_FRIDAY, RTC_SATURDAY, RTC_SUNDAY
 274:../Firmware/GD32VW55x_standard_peripheral/Source/gd32vw55x_rtc.c ****                   hour: 0x0 - 0x12(BCD format) or 0x0 - 0x23(BCD format) depending on the rtc displ
 275:../Firmware/GD32VW55x_standard_peripheral/Source/gd32vw55x_rtc.c ****                   minute: 0x0 - 0x59(BCD format)
 276:../Firmware/GD32VW55x_standard_peripheral/Source/gd32vw55x_rtc.c ****                   second: 0x0 - 0x59(BCD format)
 277:../Firmware/GD32VW55x_standard_peripheral/Source/gd32vw55x_rtc.c ****                   factor_asyn: 0x0 - 0x7F
 278:../Firmware/GD32VW55x_standard_peripheral/Source/gd32vw55x_rtc.c ****                   factor_syn: 0x0 - 0x7FFF
 279:../Firmware/GD32VW55x_standard_peripheral/Source/gd32vw55x_rtc.c ****                   am_pm: RTC_AM, RTC_PM
 280:../Firmware/GD32VW55x_standard_peripheral/Source/gd32vw55x_rtc.c ****                   display_format: RTC_24HOUR, RTC_12HOUR
 281:../Firmware/GD32VW55x_standard_peripheral/Source/gd32vw55x_rtc.c ****     \retval     none
 282:../Firmware/GD32VW55x_standard_peripheral/Source/gd32vw55x_rtc.c **** */
 283:../Firmware/GD32VW55x_standard_peripheral/Source/gd32vw55x_rtc.c **** void rtc_current_time_get(rtc_parameter_struct *rtc_initpara_struct)
 284:../Firmware/GD32VW55x_standard_peripheral/Source/gd32vw55x_rtc.c **** {
 594              		.loc 1 284 1
 595              		.cfi_startproc
 596 0000 7971     		addi	sp,sp,-48
 597              		.cfi_def_cfa_offset 48
 598 0002 22D6     		sw	s0,44(sp)
 599              		.cfi_offset 8, -4
 600 0004 0018     		addi	s0,sp,48
 601              		.cfi_def_cfa 8, 0
 602 0006 232EA4FC 		sw	a0,-36(s0)
 285:../Firmware/GD32VW55x_standard_peripheral/Source/gd32vw55x_rtc.c ****     uint32_t temp_tr = 0U, temp_dr = 0U, temp_pscr = 0U, temp_ctlr = 0U;
 603              		.loc 1 285 14
 604 000a 232604FE 		sw	zero,-20(s0)
 605              		.loc 1 285 28
 606 000e 232404FE 		sw	zero,-24(s0)
 607              		.loc 1 285 42
 608 0012 232204FE 		sw	zero,-28(s0)
 609              		.loc 1 285 58
 610 0016 232004FE 		sw	zero,-32(s0)
 286:../Firmware/GD32VW55x_standard_peripheral/Source/gd32vw55x_rtc.c **** 
 287:../Firmware/GD32VW55x_standard_peripheral/Source/gd32vw55x_rtc.c ****     temp_tr = (uint32_t)RTC_TIME;
 611              		.loc 1 287 15
 612 001a B7370040 		li	a5,1073754112
 613 001e 93870780 		addi	a5,a5,-2048
 614              		.loc 1 287 13
 615 0022 9C43     		lw	a5,0(a5)
 616 0024 2326F4FE 		sw	a5,-20(s0)
 288:../Firmware/GD32VW55x_standard_peripheral/Source/gd32vw55x_rtc.c ****     temp_dr = (uint32_t)RTC_DATE;
 617              		.loc 1 288 15
 618 0028 B7370040 		li	a5,1073754112
 619 002c 93874780 		addi	a5,a5,-2044
 620              		.loc 1 288 13
 621 0030 9C43     		lw	a5,0(a5)
 622 0032 2324F4FE 		sw	a5,-24(s0)
 289:../Firmware/GD32VW55x_standard_peripheral/Source/gd32vw55x_rtc.c ****     temp_pscr = (uint32_t)RTC_PSC;
 623              		.loc 1 289 17
 624 0036 B7370040 		li	a5,1073754112
 625 003a 93870781 		addi	a5,a5,-2032
 626              		.loc 1 289 15
 627 003e 9C43     		lw	a5,0(a5)
 628 0040 2322F4FE 		sw	a5,-28(s0)
 290:../Firmware/GD32VW55x_standard_peripheral/Source/gd32vw55x_rtc.c ****     temp_ctlr = (uint32_t)RTC_CTL;
 629              		.loc 1 290 17
 630 0044 B7370040 		li	a5,1073754112
 631 0048 93878780 		addi	a5,a5,-2040
 632              		.loc 1 290 15
 633 004c 9C43     		lw	a5,0(a5)
 634 004e 2320F4FE 		sw	a5,-32(s0)
 291:../Firmware/GD32VW55x_standard_peripheral/Source/gd32vw55x_rtc.c **** 
 292:../Firmware/GD32VW55x_standard_peripheral/Source/gd32vw55x_rtc.c ****     /* get current time and construct rtc_parameter_struct structure */
 293:../Firmware/GD32VW55x_standard_peripheral/Source/gd32vw55x_rtc.c ****     rtc_initpara_struct->year = (uint8_t)GET_DATE_YR(temp_dr);
 635              		.loc 1 293 42
 636 0052 832784FE 		lw	a5,-24(s0)
 637 0056 C183     		srli	a5,a5,16
 638              		.loc 1 293 33
 639 0058 13F7F70F 		andi	a4,a5,0xff
 640              		.loc 1 293 31
 641 005c 8327C4FD 		lw	a5,-36(s0)
 642 0060 2380E700 		sb	a4,0(a5)
 294:../Firmware/GD32VW55x_standard_peripheral/Source/gd32vw55x_rtc.c ****     rtc_initpara_struct->month = (uint8_t)GET_DATE_MON(temp_dr);
 643              		.loc 1 294 43
 644 0064 832784FE 		lw	a5,-24(s0)
 645 0068 A183     		srli	a5,a5,8
 646              		.loc 1 294 34
 647 006a 93F7F70F 		andi	a5,a5,0xff
 648 006e FD8B     		andi	a5,a5,31
 649 0070 13F7F70F 		andi	a4,a5,0xff
 650              		.loc 1 294 32
 651 0074 8327C4FD 		lw	a5,-36(s0)
 652 0078 A380E700 		sb	a4,1(a5)
 295:../Firmware/GD32VW55x_standard_peripheral/Source/gd32vw55x_rtc.c ****     rtc_initpara_struct->date = (uint8_t)GET_DATE_DAY(temp_dr);
 653              		.loc 1 295 33
 654 007c 832784FE 		lw	a5,-24(s0)
 655 0080 93F7F70F 		andi	a5,a5,0xff
 656 0084 93F7F703 		andi	a5,a5,63
 657 0088 13F7F70F 		andi	a4,a5,0xff
 658              		.loc 1 295 31
 659 008c 8327C4FD 		lw	a5,-36(s0)
 660 0090 2381E700 		sb	a4,2(a5)
 296:../Firmware/GD32VW55x_standard_peripheral/Source/gd32vw55x_rtc.c ****     rtc_initpara_struct->day_of_week = (uint8_t)GET_DATE_DOW(temp_dr);
 661              		.loc 1 296 49
 662 0094 832784FE 		lw	a5,-24(s0)
 663 0098 B583     		srli	a5,a5,13
 664              		.loc 1 296 40
 665 009a 93F7F70F 		andi	a5,a5,0xff
 666 009e 9D8B     		andi	a5,a5,7
 667 00a0 13F7F70F 		andi	a4,a5,0xff
 668              		.loc 1 296 38
 669 00a4 8327C4FD 		lw	a5,-36(s0)
 670 00a8 A381E700 		sb	a4,3(a5)
 297:../Firmware/GD32VW55x_standard_peripheral/Source/gd32vw55x_rtc.c ****     rtc_initpara_struct->hour = (uint8_t)GET_TIME_HR(temp_tr);
 671              		.loc 1 297 42
 672 00ac 8327C4FE 		lw	a5,-20(s0)
 673 00b0 C183     		srli	a5,a5,16
 674              		.loc 1 297 33
 675 00b2 93F7F70F 		andi	a5,a5,0xff
 676 00b6 93F7F703 		andi	a5,a5,63
 677 00ba 13F7F70F 		andi	a4,a5,0xff
 678              		.loc 1 297 31
 679 00be 8327C4FD 		lw	a5,-36(s0)
 680 00c2 2382E700 		sb	a4,4(a5)
 298:../Firmware/GD32VW55x_standard_peripheral/Source/gd32vw55x_rtc.c ****     rtc_initpara_struct->minute = (uint8_t)GET_TIME_MN(temp_tr);
 681              		.loc 1 298 44
 682 00c6 8327C4FE 		lw	a5,-20(s0)
 683 00ca A183     		srli	a5,a5,8
 684              		.loc 1 298 35
 685 00cc 93F7F70F 		andi	a5,a5,0xff
 686 00d0 93F7F707 		andi	a5,a5,127
 687 00d4 13F7F70F 		andi	a4,a5,0xff
 688              		.loc 1 298 33
 689 00d8 8327C4FD 		lw	a5,-36(s0)
 690 00dc A382E700 		sb	a4,5(a5)
 299:../Firmware/GD32VW55x_standard_peripheral/Source/gd32vw55x_rtc.c ****     rtc_initpara_struct->second = (uint8_t)GET_TIME_SC(temp_tr);
 691              		.loc 1 299 35
 692 00e0 8327C4FE 		lw	a5,-20(s0)
 693 00e4 93F7F70F 		andi	a5,a5,0xff
 694 00e8 93F7F707 		andi	a5,a5,127
 695 00ec 13F7F70F 		andi	a4,a5,0xff
 696              		.loc 1 299 33
 697 00f0 8327C4FD 		lw	a5,-36(s0)
 698 00f4 2383E700 		sb	a4,6(a5)
 300:../Firmware/GD32VW55x_standard_peripheral/Source/gd32vw55x_rtc.c ****     rtc_initpara_struct->factor_asyn = (uint16_t)GET_PSC_FACTOR_A(temp_pscr);
 699              		.loc 1 300 50
 700 00f8 832744FE 		lw	a5,-28(s0)
 701 00fc C183     		srli	a5,a5,16
 702              		.loc 1 300 40
 703 00fe C207     		slli	a5,a5,16
 704 0100 C183     		srli	a5,a5,16
 705 0102 93F7F707 		andi	a5,a5,127
 706 0106 13970701 		slli	a4,a5,16
 707 010a 4183     		srli	a4,a4,16
 708              		.loc 1 300 38
 709 010c 8327C4FD 		lw	a5,-36(s0)
 710 0110 2394E700 		sh	a4,8(a5)
 301:../Firmware/GD32VW55x_standard_peripheral/Source/gd32vw55x_rtc.c ****     rtc_initpara_struct->factor_syn = (uint16_t)GET_PSC_FACTOR_S(temp_pscr);
 711              		.loc 1 301 39
 712 0114 832744FE 		lw	a5,-28(s0)
 713 0118 13970701 		slli	a4,a5,16
 714 011c 4183     		srli	a4,a4,16
 715 011e A167     		li	a5,32768
 716 0120 FD17     		addi	a5,a5,-1
 717 0122 F98F     		and	a5,a4,a5
 718 0124 13970701 		slli	a4,a5,16
 719 0128 4183     		srli	a4,a4,16
 720              		.loc 1 301 37
 721 012a 8327C4FD 		lw	a5,-36(s0)
 722 012e 2395E700 		sh	a4,10(a5)
 302:../Firmware/GD32VW55x_standard_peripheral/Source/gd32vw55x_rtc.c ****     rtc_initpara_struct->am_pm = (uint32_t)(temp_tr & RTC_TIME_PM);
 723              		.loc 1 302 34
 724 0132 0327C4FE 		lw	a4,-20(s0)
 725 0136 B7074000 		li	a5,4194304
 726 013a 7D8F     		and	a4,a4,a5
 727              		.loc 1 302 32
 728 013c 8327C4FD 		lw	a5,-36(s0)
 729 0140 D8C7     		sw	a4,12(a5)
 303:../Firmware/GD32VW55x_standard_peripheral/Source/gd32vw55x_rtc.c ****     rtc_initpara_struct->display_format = (uint32_t)(temp_ctlr & RTC_CTL_CS);
 730              		.loc 1 303 43
 731 0142 832704FE 		lw	a5,-32(s0)
 732 0146 13F70704 		andi	a4,a5,64
 733              		.loc 1 303 41
 734 014a 8327C4FD 		lw	a5,-36(s0)
 735 014e 98CB     		sw	a4,16(a5)
 304:../Firmware/GD32VW55x_standard_peripheral/Source/gd32vw55x_rtc.c **** }
 736              		.loc 1 304 1
 737 0150 0100     		nop
 738 0152 3254     		lw	s0,44(sp)
 739              		.cfi_restore 8
 740              		.cfi_def_cfa 2, 48
 741 0154 4561     		addi	sp,sp,48
 742              		.cfi_def_cfa_offset 0
 743 0156 8280     		jr	ra
 744              		.cfi_endproc
 745              	.LFE352:
 747              		.section	.text.rtc_subsecond_get,"ax",@progbits
 748              		.align	1
 749              		.globl	rtc_subsecond_get
 751              	rtc_subsecond_get:
 752              	.LFB353:
 305:../Firmware/GD32VW55x_standard_peripheral/Source/gd32vw55x_rtc.c **** 
 306:../Firmware/GD32VW55x_standard_peripheral/Source/gd32vw55x_rtc.c **** /*!
 307:../Firmware/GD32VW55x_standard_peripheral/Source/gd32vw55x_rtc.c ****     \brief      get current subsecond value
 308:../Firmware/GD32VW55x_standard_peripheral/Source/gd32vw55x_rtc.c ****     \param[in]  none
 309:../Firmware/GD32VW55x_standard_peripheral/Source/gd32vw55x_rtc.c ****     \param[out] none
 310:../Firmware/GD32VW55x_standard_peripheral/Source/gd32vw55x_rtc.c ****     \retval     current subsecond value
 311:../Firmware/GD32VW55x_standard_peripheral/Source/gd32vw55x_rtc.c **** */
 312:../Firmware/GD32VW55x_standard_peripheral/Source/gd32vw55x_rtc.c **** uint32_t rtc_subsecond_get(void)
 313:../Firmware/GD32VW55x_standard_peripheral/Source/gd32vw55x_rtc.c **** {
 753              		.loc 1 313 1
 754              		.cfi_startproc
 755 0000 0111     		addi	sp,sp,-32
 756              		.cfi_def_cfa_offset 32
 757 0002 22CE     		sw	s0,28(sp)
 758              		.cfi_offset 8, -4
 759 0004 0010     		addi	s0,sp,32
 760              		.cfi_def_cfa 8, 0
 314:../Firmware/GD32VW55x_standard_peripheral/Source/gd32vw55x_rtc.c ****     uint32_t reg = 0U;
 761              		.loc 1 314 14
 762 0006 232604FE 		sw	zero,-20(s0)
 315:../Firmware/GD32VW55x_standard_peripheral/Source/gd32vw55x_rtc.c ****     /* if BPSHAD bit is reset, reading RTC_SS will lock RTC_TIME and RTC_DATE automatically */
 316:../Firmware/GD32VW55x_standard_peripheral/Source/gd32vw55x_rtc.c ****     reg = (uint32_t)RTC_SS;
 763              		.loc 1 316 11
 764 000a B7370040 		li	a5,1073754112
 765 000e 93878782 		addi	a5,a5,-2008
 766              		.loc 1 316 9
 767 0012 9C43     		lw	a5,0(a5)
 768 0014 2326F4FE 		sw	a5,-20(s0)
 317:../Firmware/GD32VW55x_standard_peripheral/Source/gd32vw55x_rtc.c ****     /* read RTC_DATE to unlock the 3 shadow registers */
 318:../Firmware/GD32VW55x_standard_peripheral/Source/gd32vw55x_rtc.c ****     (void)(RTC_DATE);
 769              		.loc 1 318 5
 770 0018 B7370040 		li	a5,1073754112
 771 001c 93874780 		addi	a5,a5,-2044
 772 0020 9C43     		lw	a5,0(a5)
 319:../Firmware/GD32VW55x_standard_peripheral/Source/gd32vw55x_rtc.c **** 
 320:../Firmware/GD32VW55x_standard_peripheral/Source/gd32vw55x_rtc.c ****     return reg;
 773              		.loc 1 320 12
 774 0022 8327C4FE 		lw	a5,-20(s0)
 321:../Firmware/GD32VW55x_standard_peripheral/Source/gd32vw55x_rtc.c **** }
 775              		.loc 1 321 1
 776 0026 3E85     		mv	a0,a5
 777 0028 7244     		lw	s0,28(sp)
 778              		.cfi_restore 8
 779              		.cfi_def_cfa 2, 32
 780 002a 0561     		addi	sp,sp,32
 781              		.cfi_def_cfa_offset 0
 782 002c 8280     		jr	ra
 783              		.cfi_endproc
 784              	.LFE353:
 786              		.section	.text.rtc_alarm_config,"ax",@progbits
 787              		.align	1
 788              		.globl	rtc_alarm_config
 790              	rtc_alarm_config:
 791              	.LFB354:
 322:../Firmware/GD32VW55x_standard_peripheral/Source/gd32vw55x_rtc.c **** 
 323:../Firmware/GD32VW55x_standard_peripheral/Source/gd32vw55x_rtc.c **** /*!
 324:../Firmware/GD32VW55x_standard_peripheral/Source/gd32vw55x_rtc.c ****     \brief      configure RTC alarm
 325:../Firmware/GD32VW55x_standard_peripheral/Source/gd32vw55x_rtc.c ****     \param[in]  rtc_alarm: RTC_ALARM0 or RTC_ALARM1
 326:../Firmware/GD32VW55x_standard_peripheral/Source/gd32vw55x_rtc.c ****     \param[in]  rtc_alarm_time: pointer to a rtc_alarm_struct structure which contains
 327:../Firmware/GD32VW55x_standard_peripheral/Source/gd32vw55x_rtc.c ****                 parameters for RTC alarm configuration
 328:../Firmware/GD32VW55x_standard_peripheral/Source/gd32vw55x_rtc.c ****                 members of the structure and the member values are shown as below:
 329:../Firmware/GD32VW55x_standard_peripheral/Source/gd32vw55x_rtc.c ****                   alarm_mask: RTC_ALARM_NONE_MASK, RTC_ALARM_DATE_MASK, RTC_ALARM_HOUR_MASK
 330:../Firmware/GD32VW55x_standard_peripheral/Source/gd32vw55x_rtc.c ****                                   RTC_ALARM_MINUTE_MASK, RTC_ALARM_SECOND_MASK, RTC_ALARM_ALL_MASK
 331:../Firmware/GD32VW55x_standard_peripheral/Source/gd32vw55x_rtc.c ****                   weekday_or_date: RTC_ALARM_DATE_SELECTED, RTC_ALARM_WEEKDAY_SELECTED
 332:../Firmware/GD32VW55x_standard_peripheral/Source/gd32vw55x_rtc.c ****                   alarm_day: 1) 0x1 - 0x31(BCD format) if RTC_ALARM_DATE_SELECTED is set
 333:../Firmware/GD32VW55x_standard_peripheral/Source/gd32vw55x_rtc.c ****                                  2) RTC_MONDAY, RTC_TUESDAY, RTC_WEDNESDAY, RTC_THURSDAY, RTC_FRIDA
 334:../Firmware/GD32VW55x_standard_peripheral/Source/gd32vw55x_rtc.c ****                                     RTC_SATURDAY, RTC_SUNDAY if RTC_ALARM_WEEKDAY_SELECTED is set
 335:../Firmware/GD32VW55x_standard_peripheral/Source/gd32vw55x_rtc.c ****                   alarm_hour: 0x0 - 0x12(BCD format) or 0x0 - 0x23(BCD format) depending on the rtc
 336:../Firmware/GD32VW55x_standard_peripheral/Source/gd32vw55x_rtc.c ****                   alarm_minute: 0x0 - 0x59(BCD format)
 337:../Firmware/GD32VW55x_standard_peripheral/Source/gd32vw55x_rtc.c ****                   alarm_second: 0x0 - 0x59(BCD format)
 338:../Firmware/GD32VW55x_standard_peripheral/Source/gd32vw55x_rtc.c ****                   am_pm: RTC_AM, RTC_PM
 339:../Firmware/GD32VW55x_standard_peripheral/Source/gd32vw55x_rtc.c ****     \param[out] none
 340:../Firmware/GD32VW55x_standard_peripheral/Source/gd32vw55x_rtc.c ****     \retval     none
 341:../Firmware/GD32VW55x_standard_peripheral/Source/gd32vw55x_rtc.c **** */
 342:../Firmware/GD32VW55x_standard_peripheral/Source/gd32vw55x_rtc.c **** void rtc_alarm_config(uint8_t rtc_alarm, rtc_alarm_struct *rtc_alarm_time)
 343:../Firmware/GD32VW55x_standard_peripheral/Source/gd32vw55x_rtc.c **** {
 792              		.loc 1 343 1
 793              		.cfi_startproc
 794 0000 7971     		addi	sp,sp,-48
 795              		.cfi_def_cfa_offset 48
 796 0002 22D6     		sw	s0,44(sp)
 797              		.cfi_offset 8, -4
 798 0004 0018     		addi	s0,sp,48
 799              		.cfi_def_cfa 8, 0
 800 0006 AA87     		mv	a5,a0
 801 0008 232CB4FC 		sw	a1,-40(s0)
 802 000c A30FF4FC 		sb	a5,-33(s0)
 344:../Firmware/GD32VW55x_standard_peripheral/Source/gd32vw55x_rtc.c ****     uint32_t reg_alrmtd = 0U;
 803              		.loc 1 344 14
 804 0010 232604FE 		sw	zero,-20(s0)
 345:../Firmware/GD32VW55x_standard_peripheral/Source/gd32vw55x_rtc.c **** 
 346:../Firmware/GD32VW55x_standard_peripheral/Source/gd32vw55x_rtc.c ****     /* disable the write protection */
 347:../Firmware/GD32VW55x_standard_peripheral/Source/gd32vw55x_rtc.c ****     RTC_WPK = RTC_UNLOCK_KEY1;
 805              		.loc 1 347 5
 806 0014 B7370040 		li	a5,1073754112
 807 0018 93874782 		addi	a5,a5,-2012
 808              		.loc 1 347 13
 809 001c 1307A00C 		li	a4,202
 810 0020 98C3     		sw	a4,0(a5)
 348:../Firmware/GD32VW55x_standard_peripheral/Source/gd32vw55x_rtc.c ****     RTC_WPK = RTC_UNLOCK_KEY2;
 811              		.loc 1 348 5
 812 0022 B7370040 		li	a5,1073754112
 813 0026 93874782 		addi	a5,a5,-2012
 814              		.loc 1 348 13
 815 002a 13073005 		li	a4,83
 816 002e 98C3     		sw	a4,0(a5)
 349:../Firmware/GD32VW55x_standard_peripheral/Source/gd32vw55x_rtc.c **** 
 350:../Firmware/GD32VW55x_standard_peripheral/Source/gd32vw55x_rtc.c ****     reg_alrmtd = (rtc_alarm_time->alarm_mask | \
 817              		.loc 1 350 33
 818 0030 832784FD 		lw	a5,-40(s0)
 819 0034 9843     		lw	a4,0(a5)
 351:../Firmware/GD32VW55x_standard_peripheral/Source/gd32vw55x_rtc.c ****                   rtc_alarm_time->weekday_or_date | \
 820              		.loc 1 351 33
 821 0036 832784FD 		lw	a5,-40(s0)
 822 003a DC43     		lw	a5,4(a5)
 350:../Firmware/GD32VW55x_standard_peripheral/Source/gd32vw55x_rtc.c ****                   rtc_alarm_time->weekday_or_date | \
 823              		.loc 1 350 46
 824 003c 5D8F     		or	a4,a4,a5
 352:../Firmware/GD32VW55x_standard_peripheral/Source/gd32vw55x_rtc.c ****                   rtc_alarm_time->am_pm | \
 825              		.loc 1 352 33
 826 003e 832784FD 		lw	a5,-40(s0)
 827 0042 DC47     		lw	a5,12(a5)
 351:../Firmware/GD32VW55x_standard_peripheral/Source/gd32vw55x_rtc.c ****                   rtc_alarm_time->weekday_or_date | \
 828              		.loc 1 351 51
 829 0044 5D8F     		or	a4,a4,a5
 353:../Firmware/GD32VW55x_standard_peripheral/Source/gd32vw55x_rtc.c ****                   ALRMTD_DAY(rtc_alarm_time->alarm_day) | \
 830              		.loc 1 353 19
 831 0046 832784FD 		lw	a5,-40(s0)
 832 004a 83C78700 		lbu	a5,8(a5)
 833 004e 93968701 		slli	a3,a5,24
 834 0052 B707003F 		li	a5,1056964608
 835 0056 F58F     		and	a5,a3,a5
 352:../Firmware/GD32VW55x_standard_peripheral/Source/gd32vw55x_rtc.c ****                   rtc_alarm_time->am_pm | \
 836              		.loc 1 352 41
 837 0058 5D8F     		or	a4,a4,a5
 354:../Firmware/GD32VW55x_standard_peripheral/Source/gd32vw55x_rtc.c ****                   ALRMTD_HR(rtc_alarm_time->alarm_hour) | \
 838              		.loc 1 354 19
 839 005a 832784FD 		lw	a5,-40(s0)
 840 005e 83C79700 		lbu	a5,9(a5)
 841 0062 93960701 		slli	a3,a5,16
 842 0066 B7073F00 		li	a5,4128768
 843 006a F58F     		and	a5,a3,a5
 353:../Firmware/GD32VW55x_standard_peripheral/Source/gd32vw55x_rtc.c ****                   ALRMTD_DAY(rtc_alarm_time->alarm_day) | \
 844              		.loc 1 353 57
 845 006c 5D8F     		or	a4,a4,a5
 355:../Firmware/GD32VW55x_standard_peripheral/Source/gd32vw55x_rtc.c ****                   ALRMTD_MN(rtc_alarm_time->alarm_minute) | \
 846              		.loc 1 355 19
 847 006e 832784FD 		lw	a5,-40(s0)
 848 0072 83C7A700 		lbu	a5,10(a5)
 849 0076 93968700 		slli	a3,a5,8
 850 007a A167     		li	a5,32768
 851 007c 938707F0 		addi	a5,a5,-256
 852 0080 F58F     		and	a5,a3,a5
 354:../Firmware/GD32VW55x_standard_peripheral/Source/gd32vw55x_rtc.c ****                   ALRMTD_HR(rtc_alarm_time->alarm_hour) | \
 853              		.loc 1 354 57
 854 0082 5D8F     		or	a4,a4,a5
 356:../Firmware/GD32VW55x_standard_peripheral/Source/gd32vw55x_rtc.c ****                   ALRMTD_SC(rtc_alarm_time->alarm_second));
 855              		.loc 1 356 19
 856 0084 832784FD 		lw	a5,-40(s0)
 857 0088 83C7B700 		lbu	a5,11(a5)
 858 008c 93F7F707 		andi	a5,a5,127
 350:../Firmware/GD32VW55x_standard_peripheral/Source/gd32vw55x_rtc.c ****                   rtc_alarm_time->weekday_or_date | \
 859              		.loc 1 350 16
 860 0090 D98F     		or	a5,a4,a5
 861 0092 2326F4FE 		sw	a5,-20(s0)
 357:../Firmware/GD32VW55x_standard_peripheral/Source/gd32vw55x_rtc.c **** 
 358:../Firmware/GD32VW55x_standard_peripheral/Source/gd32vw55x_rtc.c ****     if(RTC_ALARM0 == rtc_alarm) {
 862              		.loc 1 358 7
 863 0096 0347F4FD 		lbu	a4,-33(s0)
 864 009a 8547     		li	a5,1
 865 009c 631AF700 		bne	a4,a5,.L28
 359:../Firmware/GD32VW55x_standard_peripheral/Source/gd32vw55x_rtc.c ****         RTC_ALRM0TD = (uint32_t)reg_alrmtd;
 866              		.loc 1 359 9
 867 00a0 B7370040 		li	a5,1073754112
 868 00a4 9387C781 		addi	a5,a5,-2020
 869              		.loc 1 359 21
 870 00a8 0327C4FE 		lw	a4,-20(s0)
 871 00ac 98C3     		sw	a4,0(a5)
 872 00ae 01A8     		j	.L29
 873              	.L28:
 360:../Firmware/GD32VW55x_standard_peripheral/Source/gd32vw55x_rtc.c **** 
 361:../Firmware/GD32VW55x_standard_peripheral/Source/gd32vw55x_rtc.c ****     } else {
 362:../Firmware/GD32VW55x_standard_peripheral/Source/gd32vw55x_rtc.c ****         RTC_ALRM1TD = (uint32_t)reg_alrmtd;
 874              		.loc 1 362 9
 875 00b0 B7370040 		li	a5,1073754112
 876 00b4 93870782 		addi	a5,a5,-2016
 877              		.loc 1 362 21
 878 00b8 0327C4FE 		lw	a4,-20(s0)
 879 00bc 98C3     		sw	a4,0(a5)
 880              	.L29:
 363:../Firmware/GD32VW55x_standard_peripheral/Source/gd32vw55x_rtc.c ****     }
 364:../Firmware/GD32VW55x_standard_peripheral/Source/gd32vw55x_rtc.c **** 
 365:../Firmware/GD32VW55x_standard_peripheral/Source/gd32vw55x_rtc.c ****     /* enable the write protection */
 366:../Firmware/GD32VW55x_standard_peripheral/Source/gd32vw55x_rtc.c ****     RTC_WPK = RTC_LOCK_KEY;
 881              		.loc 1 366 5
 882 00be B7370040 		li	a5,1073754112
 883 00c2 93874782 		addi	a5,a5,-2012
 884              		.loc 1 366 13
 885 00c6 1307F00F 		li	a4,255
 886 00ca 98C3     		sw	a4,0(a5)
 367:../Firmware/GD32VW55x_standard_peripheral/Source/gd32vw55x_rtc.c **** }
 887              		.loc 1 367 1
 888 00cc 0100     		nop
 889 00ce 3254     		lw	s0,44(sp)
 890              		.cfi_restore 8
 891              		.cfi_def_cfa 2, 48
 892 00d0 4561     		addi	sp,sp,48
 893              		.cfi_def_cfa_offset 0
 894 00d2 8280     		jr	ra
 895              		.cfi_endproc
 896              	.LFE354:
 898              		.section	.text.rtc_alarm_subsecond_config,"ax",@progbits
 899              		.align	1
 900              		.globl	rtc_alarm_subsecond_config
 902              	rtc_alarm_subsecond_config:
 903              	.LFB355:
 368:../Firmware/GD32VW55x_standard_peripheral/Source/gd32vw55x_rtc.c **** 
 369:../Firmware/GD32VW55x_standard_peripheral/Source/gd32vw55x_rtc.c **** /*!
 370:../Firmware/GD32VW55x_standard_peripheral/Source/gd32vw55x_rtc.c ****     \brief      configure subsecond of RTC alarm
 371:../Firmware/GD32VW55x_standard_peripheral/Source/gd32vw55x_rtc.c ****     \param[in]  rtc_alarm: RTC_ALARM0 or RTC_ALARM1
 372:../Firmware/GD32VW55x_standard_peripheral/Source/gd32vw55x_rtc.c ****     \param[in]  mask_subsecond: alarm subsecond mask
 373:../Firmware/GD32VW55x_standard_peripheral/Source/gd32vw55x_rtc.c ****       \arg        RTC_MSKSSC_0_14: mask alarm subsecond configuration
 374:../Firmware/GD32VW55x_standard_peripheral/Source/gd32vw55x_rtc.c ****       \arg        RTC_MSKSSC_1_14: mask RTC_ALRMXSS_SSC[14:1], and RTC_ALRMXSS_SSC[0] is to be comp
 375:../Firmware/GD32VW55x_standard_peripheral/Source/gd32vw55x_rtc.c ****       \arg        RTC_MSKSSC_2_14: mask RTC_ALRMXSS_SSC[14:2], and RTC_ALRMXSS_SSC[1:0] is to be co
 376:../Firmware/GD32VW55x_standard_peripheral/Source/gd32vw55x_rtc.c ****       \arg        RTC_MSKSSC_3_14: mask RTC_ALRMXSS_SSC[14:3], and RTC_ALRMXSS_SSC[2:0] is to be co
 377:../Firmware/GD32VW55x_standard_peripheral/Source/gd32vw55x_rtc.c ****       \arg        RTC_MSKSSC_4_14: mask RTC_ALRMXSS_SSC[14:4]], and RTC_ALRMXSS_SSC[3:0] is to be c
 378:../Firmware/GD32VW55x_standard_peripheral/Source/gd32vw55x_rtc.c ****       \arg        RTC_MSKSSC_5_14: mask RTC_ALRMXSS_SSC[14:5], and RTC_ALRMXSS_SSC[4:0] is to be co
 379:../Firmware/GD32VW55x_standard_peripheral/Source/gd32vw55x_rtc.c ****       \arg        RTC_MSKSSC_6_14: mask RTC_ALRMXSS_SSC[14:6], and RTC_ALRMXSS_SSC[5:0] is to be co
 380:../Firmware/GD32VW55x_standard_peripheral/Source/gd32vw55x_rtc.c ****       \arg        RTC_MSKSSC_7_14: mask RTC_ALRMXSS_SSC[14:7], and RTC_ALRMXSS_SSC[6:0] is to be co
 381:../Firmware/GD32VW55x_standard_peripheral/Source/gd32vw55x_rtc.c ****       \arg        RTC_MSKSSC_8_14: mask RTC_ALRMXSS_SSC[14:8], and RTC_ALRMXSS_SSC[7:0] is to be co
 382:../Firmware/GD32VW55x_standard_peripheral/Source/gd32vw55x_rtc.c ****       \arg        RTC_MSKSSC_9_14: mask RTC_ALRMXSS_SSC[14:9], and RTC_ALRMXSS_SSC[8:0] is to be co
 383:../Firmware/GD32VW55x_standard_peripheral/Source/gd32vw55x_rtc.c ****       \arg        RTC_MSKSSC_10_14: mask RTC_ALRMXSS_SSC[14:10], and RTC_ALRMXSS_SSC[9:0] is to be 
 384:../Firmware/GD32VW55x_standard_peripheral/Source/gd32vw55x_rtc.c ****       \arg        RTC_MSKSSC_11_14: mask RTC_ALRMXSS_SSC[14:11], and RTC_ALRMXSS_SSC[10:0] is to be
 385:../Firmware/GD32VW55x_standard_peripheral/Source/gd32vw55x_rtc.c ****       \arg        RTC_MSKSSC_12_14: mask RTC_ALRMXSS_SSC[14:12], and RTC_ALRMXSS_SSC[11:0] is to be
 386:../Firmware/GD32VW55x_standard_peripheral/Source/gd32vw55x_rtc.c ****       \arg        RTC_MSKSSC_13_14: mask RTC_ALRMXSS_SSC[14:13], and RTC_ALRMXSS_SSC[12:0] is to be
 387:../Firmware/GD32VW55x_standard_peripheral/Source/gd32vw55x_rtc.c ****       \arg        RTC_MSKSSC_14: mask RTC_ALRMXSS_SSC[14], and RTC_ALRMXSS_SSC[13:0] is to be compa
 388:../Firmware/GD32VW55x_standard_peripheral/Source/gd32vw55x_rtc.c ****       \arg        RTC_MSKSSC_NONE: mask none, and RTC_ALRMXSS_SSC[14:0] is to be compared
 389:../Firmware/GD32VW55x_standard_peripheral/Source/gd32vw55x_rtc.c ****     \param[in]  subsecond: alarm subsecond value(0x000 - 0x7FFF)
 390:../Firmware/GD32VW55x_standard_peripheral/Source/gd32vw55x_rtc.c ****     \param[out] none
 391:../Firmware/GD32VW55x_standard_peripheral/Source/gd32vw55x_rtc.c ****     \retval     none
 392:../Firmware/GD32VW55x_standard_peripheral/Source/gd32vw55x_rtc.c **** */
 393:../Firmware/GD32VW55x_standard_peripheral/Source/gd32vw55x_rtc.c **** void rtc_alarm_subsecond_config(uint8_t rtc_alarm, uint32_t mask_subsecond, uint32_t subsecond)
 394:../Firmware/GD32VW55x_standard_peripheral/Source/gd32vw55x_rtc.c **** {
 904              		.loc 1 394 1
 905              		.cfi_startproc
 906 0000 0111     		addi	sp,sp,-32
 907              		.cfi_def_cfa_offset 32
 908 0002 22CE     		sw	s0,28(sp)
 909              		.cfi_offset 8, -4
 910 0004 0010     		addi	s0,sp,32
 911              		.cfi_def_cfa 8, 0
 912 0006 AA87     		mv	a5,a0
 913 0008 2324B4FE 		sw	a1,-24(s0)
 914 000c 2322C4FE 		sw	a2,-28(s0)
 915 0010 A307F4FE 		sb	a5,-17(s0)
 395:../Firmware/GD32VW55x_standard_peripheral/Source/gd32vw55x_rtc.c ****     /* disable the write protection */
 396:../Firmware/GD32VW55x_standard_peripheral/Source/gd32vw55x_rtc.c ****     RTC_WPK = RTC_UNLOCK_KEY1;
 916              		.loc 1 396 5
 917 0014 B7370040 		li	a5,1073754112
 918 0018 93874782 		addi	a5,a5,-2012
 919              		.loc 1 396 13
 920 001c 1307A00C 		li	a4,202
 921 0020 98C3     		sw	a4,0(a5)
 397:../Firmware/GD32VW55x_standard_peripheral/Source/gd32vw55x_rtc.c ****     RTC_WPK = RTC_UNLOCK_KEY2;
 922              		.loc 1 397 5
 923 0022 B7370040 		li	a5,1073754112
 924 0026 93874782 		addi	a5,a5,-2012
 925              		.loc 1 397 13
 926 002a 13073005 		li	a4,83
 927 002e 98C3     		sw	a4,0(a5)
 398:../Firmware/GD32VW55x_standard_peripheral/Source/gd32vw55x_rtc.c **** 
 399:../Firmware/GD32VW55x_standard_peripheral/Source/gd32vw55x_rtc.c ****     if(RTC_ALARM0 == rtc_alarm) {
 928              		.loc 1 399 7
 929 0030 0347F4FE 		lbu	a4,-17(s0)
 930 0034 8547     		li	a5,1
 931 0036 631DF700 		bne	a4,a5,.L31
 400:../Firmware/GD32VW55x_standard_peripheral/Source/gd32vw55x_rtc.c ****         RTC_ALRM0SS = mask_subsecond | subsecond;
 932              		.loc 1 400 9
 933 003a B7370040 		li	a5,1073754112
 934 003e 93874784 		addi	a5,a5,-1980
 935              		.loc 1 400 38
 936 0042 832684FE 		lw	a3,-24(s0)
 937 0046 032744FE 		lw	a4,-28(s0)
 938 004a 558F     		or	a4,a3,a4
 939              		.loc 1 400 21
 940 004c 98C3     		sw	a4,0(a5)
 941 004e 19A8     		j	.L32
 942              	.L31:
 401:../Firmware/GD32VW55x_standard_peripheral/Source/gd32vw55x_rtc.c ****     } else {
 402:../Firmware/GD32VW55x_standard_peripheral/Source/gd32vw55x_rtc.c ****         RTC_ALRM1SS = mask_subsecond | subsecond;
 943              		.loc 1 402 9
 944 0050 B7370040 		li	a5,1073754112
 945 0054 93878784 		addi	a5,a5,-1976
 946              		.loc 1 402 38
 947 0058 832684FE 		lw	a3,-24(s0)
 948 005c 032744FE 		lw	a4,-28(s0)
 949 0060 558F     		or	a4,a3,a4
 950              		.loc 1 402 21
 951 0062 98C3     		sw	a4,0(a5)
 952              	.L32:
 403:../Firmware/GD32VW55x_standard_peripheral/Source/gd32vw55x_rtc.c ****     }
 404:../Firmware/GD32VW55x_standard_peripheral/Source/gd32vw55x_rtc.c **** 
 405:../Firmware/GD32VW55x_standard_peripheral/Source/gd32vw55x_rtc.c ****     /* enable the write protection */
 406:../Firmware/GD32VW55x_standard_peripheral/Source/gd32vw55x_rtc.c ****     RTC_WPK = RTC_LOCK_KEY;
 953              		.loc 1 406 5
 954 0064 B7370040 		li	a5,1073754112
 955 0068 93874782 		addi	a5,a5,-2012
 956              		.loc 1 406 13
 957 006c 1307F00F 		li	a4,255
 958 0070 98C3     		sw	a4,0(a5)
 407:../Firmware/GD32VW55x_standard_peripheral/Source/gd32vw55x_rtc.c **** }
 959              		.loc 1 407 1
 960 0072 0100     		nop
 961 0074 7244     		lw	s0,28(sp)
 962              		.cfi_restore 8
 963              		.cfi_def_cfa 2, 32
 964 0076 0561     		addi	sp,sp,32
 965              		.cfi_def_cfa_offset 0
 966 0078 8280     		jr	ra
 967              		.cfi_endproc
 968              	.LFE355:
 970              		.section	.text.rtc_alarm_get,"ax",@progbits
 971              		.align	1
 972              		.globl	rtc_alarm_get
 974              	rtc_alarm_get:
 975              	.LFB356:
 408:../Firmware/GD32VW55x_standard_peripheral/Source/gd32vw55x_rtc.c **** 
 409:../Firmware/GD32VW55x_standard_peripheral/Source/gd32vw55x_rtc.c **** /*!
 410:../Firmware/GD32VW55x_standard_peripheral/Source/gd32vw55x_rtc.c ****     \brief      get RTC alarm
 411:../Firmware/GD32VW55x_standard_peripheral/Source/gd32vw55x_rtc.c ****     \param[in]  rtc_alarm: RTC_ALARM0 or RTC_ALARM1
 412:../Firmware/GD32VW55x_standard_peripheral/Source/gd32vw55x_rtc.c ****     \param[out] rtc_alarm_time: pointer to a rtc_alarm_struct structure which contains
 413:../Firmware/GD32VW55x_standard_peripheral/Source/gd32vw55x_rtc.c ****                 parameters for RTC alarm configuration
 414:../Firmware/GD32VW55x_standard_peripheral/Source/gd32vw55x_rtc.c ****                 members of the structure and the member values are shown as below:
 415:../Firmware/GD32VW55x_standard_peripheral/Source/gd32vw55x_rtc.c ****                   alarm_mask: RTC_ALARM_NONE_MASK, RTC_ALARM_DATE_MASK, RTC_ALARM_HOUR_MASK
 416:../Firmware/GD32VW55x_standard_peripheral/Source/gd32vw55x_rtc.c ****                                   RTC_ALARM_MINUTE_MASK, RTC_ALARM_SECOND_MASK, RTC_ALARM_ALL_MASK
 417:../Firmware/GD32VW55x_standard_peripheral/Source/gd32vw55x_rtc.c ****                   weekday_or_date: RTC_ALARM_DATE_SELECTED, RTC_ALARM_WEEKDAY_SELECTED
 418:../Firmware/GD32VW55x_standard_peripheral/Source/gd32vw55x_rtc.c ****                   alarm_day: 1) 0x1 - 0x31(BCD format) if RTC_ALARM_DATE_SELECTED is set
 419:../Firmware/GD32VW55x_standard_peripheral/Source/gd32vw55x_rtc.c ****                                  2) RTC_MONDAY, RTC_TUESDAY, RTC_WEDNESDAY, RTC_THURSDAY, RTC_FRIDA
 420:../Firmware/GD32VW55x_standard_peripheral/Source/gd32vw55x_rtc.c ****                                     RTC_SATURDAY, RTC_SUNDAY if RTC_ALARM_WEEKDAY_SELECTED is set
 421:../Firmware/GD32VW55x_standard_peripheral/Source/gd32vw55x_rtc.c ****                   alarm_hour: 0x0 - 0x12(BCD format) or 0x0 - 0x23(BCD format) depending on the rtc
 422:../Firmware/GD32VW55x_standard_peripheral/Source/gd32vw55x_rtc.c ****                   alarm_minute: 0x0 - 0x59(BCD format)
 423:../Firmware/GD32VW55x_standard_peripheral/Source/gd32vw55x_rtc.c ****                   alarm_second: 0x0 - 0x59(BCD format)
 424:../Firmware/GD32VW55x_standard_peripheral/Source/gd32vw55x_rtc.c ****                   am_pm: RTC_AM, RTC_PM
 425:../Firmware/GD32VW55x_standard_peripheral/Source/gd32vw55x_rtc.c ****     \retval     none
 426:../Firmware/GD32VW55x_standard_peripheral/Source/gd32vw55x_rtc.c **** */
 427:../Firmware/GD32VW55x_standard_peripheral/Source/gd32vw55x_rtc.c **** void rtc_alarm_get(uint8_t rtc_alarm, rtc_alarm_struct *rtc_alarm_time)
 428:../Firmware/GD32VW55x_standard_peripheral/Source/gd32vw55x_rtc.c **** {
 976              		.loc 1 428 1
 977              		.cfi_startproc
 978 0000 7971     		addi	sp,sp,-48
 979              		.cfi_def_cfa_offset 48
 980 0002 22D6     		sw	s0,44(sp)
 981              		.cfi_offset 8, -4
 982 0004 0018     		addi	s0,sp,48
 983              		.cfi_def_cfa 8, 0
 984 0006 AA87     		mv	a5,a0
 985 0008 232CB4FC 		sw	a1,-40(s0)
 986 000c A30FF4FC 		sb	a5,-33(s0)
 429:../Firmware/GD32VW55x_standard_peripheral/Source/gd32vw55x_rtc.c ****     uint32_t reg_alrmtd = 0U;
 987              		.loc 1 429 14
 988 0010 232604FE 		sw	zero,-20(s0)
 430:../Firmware/GD32VW55x_standard_peripheral/Source/gd32vw55x_rtc.c **** 
 431:../Firmware/GD32VW55x_standard_peripheral/Source/gd32vw55x_rtc.c ****     /* get the value of RTC_ALRM0TD register */
 432:../Firmware/GD32VW55x_standard_peripheral/Source/gd32vw55x_rtc.c ****     if(RTC_ALARM0 == rtc_alarm) {
 989              		.loc 1 432 7
 990 0014 0347F4FD 		lbu	a4,-33(s0)
 991 0018 8547     		li	a5,1
 992 001a 631AF700 		bne	a4,a5,.L34
 433:../Firmware/GD32VW55x_standard_peripheral/Source/gd32vw55x_rtc.c ****         reg_alrmtd = RTC_ALRM0TD;
 993              		.loc 1 433 22
 994 001e B7370040 		li	a5,1073754112
 995 0022 9387C781 		addi	a5,a5,-2020
 996              		.loc 1 433 20
 997 0026 9C43     		lw	a5,0(a5)
 998 0028 2326F4FE 		sw	a5,-20(s0)
 999 002c 01A8     		j	.L35
 1000              	.L34:
 434:../Firmware/GD32VW55x_standard_peripheral/Source/gd32vw55x_rtc.c ****     } else {
 435:../Firmware/GD32VW55x_standard_peripheral/Source/gd32vw55x_rtc.c ****         reg_alrmtd = RTC_ALRM1TD;
 1001              		.loc 1 435 22
 1002 002e B7370040 		li	a5,1073754112
 1003 0032 93870782 		addi	a5,a5,-2016
 1004              		.loc 1 435 20
 1005 0036 9C43     		lw	a5,0(a5)
 1006 0038 2326F4FE 		sw	a5,-20(s0)
 1007              	.L35:
 436:../Firmware/GD32VW55x_standard_peripheral/Source/gd32vw55x_rtc.c ****     }
 437:../Firmware/GD32VW55x_standard_peripheral/Source/gd32vw55x_rtc.c ****     /* get alarm parameters and construct the rtc_alarm_struct structure */
 438:../Firmware/GD32VW55x_standard_peripheral/Source/gd32vw55x_rtc.c ****     rtc_alarm_time->alarm_mask = reg_alrmtd & RTC_ALARM_ALL_MASK;
 1008              		.loc 1 438 45
 1009 003c 0327C4FE 		lw	a4,-20(s0)
 1010 0040 B7878080 		li	a5,-2139062272
 1011 0044 93870708 		addi	a5,a5,128
 1012 0048 7D8F     		and	a4,a4,a5
 1013              		.loc 1 438 32
 1014 004a 832784FD 		lw	a5,-40(s0)
 1015 004e 98C3     		sw	a4,0(a5)
 439:../Firmware/GD32VW55x_standard_peripheral/Source/gd32vw55x_rtc.c ****     rtc_alarm_time->am_pm = (uint32_t)(reg_alrmtd & RTC_ALRMXTD_PM);
 1016              		.loc 1 439 29
 1017 0050 0327C4FE 		lw	a4,-20(s0)
 1018 0054 B7074000 		li	a5,4194304
 1019 0058 7D8F     		and	a4,a4,a5
 1020              		.loc 1 439 27
 1021 005a 832784FD 		lw	a5,-40(s0)
 1022 005e D8C7     		sw	a4,12(a5)
 440:../Firmware/GD32VW55x_standard_peripheral/Source/gd32vw55x_rtc.c ****     rtc_alarm_time->weekday_or_date = (uint32_t)(reg_alrmtd & RTC_ALRMXTD_DOWS);
 1023              		.loc 1 440 39
 1024 0060 0327C4FE 		lw	a4,-20(s0)
 1025 0064 B7070040 		li	a5,1073741824
 1026 0068 7D8F     		and	a4,a4,a5
 1027              		.loc 1 440 37
 1028 006a 832784FD 		lw	a5,-40(s0)
 1029 006e D8C3     		sw	a4,4(a5)
 441:../Firmware/GD32VW55x_standard_peripheral/Source/gd32vw55x_rtc.c ****     rtc_alarm_time->alarm_day = (uint8_t)GET_ALRMTD_DAY(reg_alrmtd);
 1030              		.loc 1 441 42
 1031 0070 8327C4FE 		lw	a5,-20(s0)
 1032 0074 E183     		srli	a5,a5,24
 1033              		.loc 1 441 33
 1034 0076 93F7F70F 		andi	a5,a5,0xff
 1035 007a 93F7F703 		andi	a5,a5,63
 1036 007e 13F7F70F 		andi	a4,a5,0xff
 1037              		.loc 1 441 31
 1038 0082 832784FD 		lw	a5,-40(s0)
 1039 0086 2384E700 		sb	a4,8(a5)
 442:../Firmware/GD32VW55x_standard_peripheral/Source/gd32vw55x_rtc.c ****     rtc_alarm_time->alarm_hour = (uint8_t)GET_ALRMTD_HR(reg_alrmtd);
 1040              		.loc 1 442 43
 1041 008a 8327C4FE 		lw	a5,-20(s0)
 1042 008e C183     		srli	a5,a5,16
 1043              		.loc 1 442 34
 1044 0090 93F7F70F 		andi	a5,a5,0xff
 1045 0094 93F7F703 		andi	a5,a5,63
 1046 0098 13F7F70F 		andi	a4,a5,0xff
 1047              		.loc 1 442 32
 1048 009c 832784FD 		lw	a5,-40(s0)
 1049 00a0 A384E700 		sb	a4,9(a5)
 443:../Firmware/GD32VW55x_standard_peripheral/Source/gd32vw55x_rtc.c ****     rtc_alarm_time->alarm_minute = (uint8_t)GET_ALRMTD_MN(reg_alrmtd);
 1050              		.loc 1 443 45
 1051 00a4 8327C4FE 		lw	a5,-20(s0)
 1052 00a8 A183     		srli	a5,a5,8
 1053              		.loc 1 443 36
 1054 00aa 93F7F70F 		andi	a5,a5,0xff
 1055 00ae 93F7F707 		andi	a5,a5,127
 1056 00b2 13F7F70F 		andi	a4,a5,0xff
 1057              		.loc 1 443 34
 1058 00b6 832784FD 		lw	a5,-40(s0)
 1059 00ba 2385E700 		sb	a4,10(a5)
 444:../Firmware/GD32VW55x_standard_peripheral/Source/gd32vw55x_rtc.c ****     rtc_alarm_time->alarm_second = (uint8_t)GET_ALRMTD_SC(reg_alrmtd);
 1060              		.loc 1 444 36
 1061 00be 8327C4FE 		lw	a5,-20(s0)
 1062 00c2 93F7F70F 		andi	a5,a5,0xff
 1063 00c6 93F7F707 		andi	a5,a5,127
 1064 00ca 13F7F70F 		andi	a4,a5,0xff
 1065              		.loc 1 444 34
 1066 00ce 832784FD 		lw	a5,-40(s0)
 1067 00d2 A385E700 		sb	a4,11(a5)
 445:../Firmware/GD32VW55x_standard_peripheral/Source/gd32vw55x_rtc.c **** }
 1068              		.loc 1 445 1
 1069 00d6 0100     		nop
 1070 00d8 3254     		lw	s0,44(sp)
 1071              		.cfi_restore 8
 1072              		.cfi_def_cfa 2, 48
 1073 00da 4561     		addi	sp,sp,48
 1074              		.cfi_def_cfa_offset 0
 1075 00dc 8280     		jr	ra
 1076              		.cfi_endproc
 1077              	.LFE356:
 1079              		.section	.text.rtc_alarm_subsecond_get,"ax",@progbits
 1080              		.align	1
 1081              		.globl	rtc_alarm_subsecond_get
 1083              	rtc_alarm_subsecond_get:
 1084              	.LFB357:
 446:../Firmware/GD32VW55x_standard_peripheral/Source/gd32vw55x_rtc.c **** 
 447:../Firmware/GD32VW55x_standard_peripheral/Source/gd32vw55x_rtc.c **** /*!
 448:../Firmware/GD32VW55x_standard_peripheral/Source/gd32vw55x_rtc.c ****     \brief      get RTC alarm subsecond
 449:../Firmware/GD32VW55x_standard_peripheral/Source/gd32vw55x_rtc.c ****     \param[in]  rtc_alarm: RTC_ALARM0 or RTC_ALARM1
 450:../Firmware/GD32VW55x_standard_peripheral/Source/gd32vw55x_rtc.c ****     \param[out] none
 451:../Firmware/GD32VW55x_standard_peripheral/Source/gd32vw55x_rtc.c ****     \retval     RTC alarm subsecond value
 452:../Firmware/GD32VW55x_standard_peripheral/Source/gd32vw55x_rtc.c **** */
 453:../Firmware/GD32VW55x_standard_peripheral/Source/gd32vw55x_rtc.c **** uint32_t rtc_alarm_subsecond_get(uint8_t rtc_alarm)
 454:../Firmware/GD32VW55x_standard_peripheral/Source/gd32vw55x_rtc.c **** {
 1085              		.loc 1 454 1
 1086              		.cfi_startproc
 1087 0000 0111     		addi	sp,sp,-32
 1088              		.cfi_def_cfa_offset 32
 1089 0002 22CE     		sw	s0,28(sp)
 1090              		.cfi_offset 8, -4
 1091 0004 0010     		addi	s0,sp,32
 1092              		.cfi_def_cfa 8, 0
 1093 0006 AA87     		mv	a5,a0
 1094 0008 A307F4FE 		sb	a5,-17(s0)
 455:../Firmware/GD32VW55x_standard_peripheral/Source/gd32vw55x_rtc.c ****     if(RTC_ALARM0 == rtc_alarm) {
 1095              		.loc 1 455 7
 1096 000c 0347F4FE 		lbu	a4,-17(s0)
 1097 0010 8547     		li	a5,1
 1098 0012 631BF700 		bne	a4,a5,.L37
 456:../Firmware/GD32VW55x_standard_peripheral/Source/gd32vw55x_rtc.c ****         return ((uint32_t)(RTC_ALRM0SS & RTC_ALRMXSS_SSC));
 1099              		.loc 1 456 17
 1100 0016 B7370040 		li	a5,1073754112
 1101 001a 93874784 		addi	a5,a5,-1980
 1102 001e 9843     		lw	a4,0(a5)
 1103 0020 A167     		li	a5,32768
 1104 0022 FD17     		addi	a5,a5,-1
 1105 0024 F98F     		and	a5,a4,a5
 1106 0026 09A8     		j	.L38
 1107              	.L37:
 457:../Firmware/GD32VW55x_standard_peripheral/Source/gd32vw55x_rtc.c ****     } else {
 458:../Firmware/GD32VW55x_standard_peripheral/Source/gd32vw55x_rtc.c ****         return ((uint32_t)(RTC_ALRM1SS & RTC_ALRMXSS_SSC));
 1108              		.loc 1 458 17
 1109 0028 B7370040 		li	a5,1073754112
 1110 002c 93878784 		addi	a5,a5,-1976
 1111 0030 9843     		lw	a4,0(a5)
 1112 0032 A167     		li	a5,32768
 1113 0034 FD17     		addi	a5,a5,-1
 1114 0036 F98F     		and	a5,a4,a5
 1115              	.L38:
 459:../Firmware/GD32VW55x_standard_peripheral/Source/gd32vw55x_rtc.c ****     }
 460:../Firmware/GD32VW55x_standard_peripheral/Source/gd32vw55x_rtc.c **** }
 1116              		.loc 1 460 1
 1117 0038 3E85     		mv	a0,a5
 1118 003a 7244     		lw	s0,28(sp)
 1119              		.cfi_restore 8
 1120              		.cfi_def_cfa 2, 32
 1121 003c 0561     		addi	sp,sp,32
 1122              		.cfi_def_cfa_offset 0
 1123 003e 8280     		jr	ra
 1124              		.cfi_endproc
 1125              	.LFE357:
 1127              		.section	.text.rtc_alarm_enable,"ax",@progbits
 1128              		.align	1
 1129              		.globl	rtc_alarm_enable
 1131              	rtc_alarm_enable:
 1132              	.LFB358:
 461:../Firmware/GD32VW55x_standard_peripheral/Source/gd32vw55x_rtc.c **** 
 462:../Firmware/GD32VW55x_standard_peripheral/Source/gd32vw55x_rtc.c **** /*!
 463:../Firmware/GD32VW55x_standard_peripheral/Source/gd32vw55x_rtc.c ****     \brief      enable RTC alarm
 464:../Firmware/GD32VW55x_standard_peripheral/Source/gd32vw55x_rtc.c ****     \param[in]  rtc_alarm: RTC_ALARM0 or RTC_ALARM1
 465:../Firmware/GD32VW55x_standard_peripheral/Source/gd32vw55x_rtc.c ****     \param[out] none
 466:../Firmware/GD32VW55x_standard_peripheral/Source/gd32vw55x_rtc.c ****     \retval     none
 467:../Firmware/GD32VW55x_standard_peripheral/Source/gd32vw55x_rtc.c **** */
 468:../Firmware/GD32VW55x_standard_peripheral/Source/gd32vw55x_rtc.c **** void rtc_alarm_enable(uint8_t rtc_alarm)
 469:../Firmware/GD32VW55x_standard_peripheral/Source/gd32vw55x_rtc.c **** {
 1133              		.loc 1 469 1
 1134              		.cfi_startproc
 1135 0000 0111     		addi	sp,sp,-32
 1136              		.cfi_def_cfa_offset 32
 1137 0002 22CE     		sw	s0,28(sp)
 1138              		.cfi_offset 8, -4
 1139 0004 0010     		addi	s0,sp,32
 1140              		.cfi_def_cfa 8, 0
 1141 0006 AA87     		mv	a5,a0
 1142 0008 A307F4FE 		sb	a5,-17(s0)
 470:../Firmware/GD32VW55x_standard_peripheral/Source/gd32vw55x_rtc.c ****     /* disable the write protection */
 471:../Firmware/GD32VW55x_standard_peripheral/Source/gd32vw55x_rtc.c ****     RTC_WPK = RTC_UNLOCK_KEY1;
 1143              		.loc 1 471 5
 1144 000c B7370040 		li	a5,1073754112
 1145 0010 93874782 		addi	a5,a5,-2012
 1146              		.loc 1 471 13
 1147 0014 1307A00C 		li	a4,202
 1148 0018 98C3     		sw	a4,0(a5)
 472:../Firmware/GD32VW55x_standard_peripheral/Source/gd32vw55x_rtc.c ****     RTC_WPK = RTC_UNLOCK_KEY2;
 1149              		.loc 1 472 5
 1150 001a B7370040 		li	a5,1073754112
 1151 001e 93874782 		addi	a5,a5,-2012
 1152              		.loc 1 472 13
 1153 0022 13073005 		li	a4,83
 1154 0026 98C3     		sw	a4,0(a5)
 473:../Firmware/GD32VW55x_standard_peripheral/Source/gd32vw55x_rtc.c **** 
 474:../Firmware/GD32VW55x_standard_peripheral/Source/gd32vw55x_rtc.c ****     if(RTC_ALARM0 == rtc_alarm) {
 1155              		.loc 1 474 7
 1156 0028 0347F4FE 		lbu	a4,-17(s0)
 1157 002c 8547     		li	a5,1
 1158 002e 631FF700 		bne	a4,a5,.L40
 475:../Firmware/GD32VW55x_standard_peripheral/Source/gd32vw55x_rtc.c ****         RTC_CTL |= RTC_CTL_ALRM0EN;
 1159              		.loc 1 475 17
 1160 0032 B7370040 		li	a5,1073754112
 1161 0036 93878780 		addi	a5,a5,-2040
 1162 003a 9843     		lw	a4,0(a5)
 1163 003c B7370040 		li	a5,1073754112
 1164 0040 93878780 		addi	a5,a5,-2040
 1165 0044 13670710 		ori	a4,a4,256
 1166 0048 98C3     		sw	a4,0(a5)
 1167 004a 29A8     		j	.L41
 1168              	.L40:
 476:../Firmware/GD32VW55x_standard_peripheral/Source/gd32vw55x_rtc.c ****     } else {
 477:../Firmware/GD32VW55x_standard_peripheral/Source/gd32vw55x_rtc.c ****         RTC_CTL |= RTC_CTL_ALRM1EN;
 1169              		.loc 1 477 17
 1170 004c B7370040 		li	a5,1073754112
 1171 0050 93878780 		addi	a5,a5,-2040
 1172 0054 9843     		lw	a4,0(a5)
 1173 0056 B7370040 		li	a5,1073754112
 1174 005a 93878780 		addi	a5,a5,-2040
 1175 005e 13670720 		ori	a4,a4,512
 1176 0062 98C3     		sw	a4,0(a5)
 1177              	.L41:
 478:../Firmware/GD32VW55x_standard_peripheral/Source/gd32vw55x_rtc.c ****     }
 479:../Firmware/GD32VW55x_standard_peripheral/Source/gd32vw55x_rtc.c **** 
 480:../Firmware/GD32VW55x_standard_peripheral/Source/gd32vw55x_rtc.c ****     /* enable the write protection */
 481:../Firmware/GD32VW55x_standard_peripheral/Source/gd32vw55x_rtc.c ****     RTC_WPK = RTC_LOCK_KEY;
 1178              		.loc 1 481 5
 1179 0064 B7370040 		li	a5,1073754112
 1180 0068 93874782 		addi	a5,a5,-2012
 1181              		.loc 1 481 13
 1182 006c 1307F00F 		li	a4,255
 1183 0070 98C3     		sw	a4,0(a5)
 482:../Firmware/GD32VW55x_standard_peripheral/Source/gd32vw55x_rtc.c **** }
 1184              		.loc 1 482 1
 1185 0072 0100     		nop
 1186 0074 7244     		lw	s0,28(sp)
 1187              		.cfi_restore 8
 1188              		.cfi_def_cfa 2, 32
 1189 0076 0561     		addi	sp,sp,32
 1190              		.cfi_def_cfa_offset 0
 1191 0078 8280     		jr	ra
 1192              		.cfi_endproc
 1193              	.LFE358:
 1195              		.section	.text.rtc_alarm_disable,"ax",@progbits
 1196              		.align	1
 1197              		.globl	rtc_alarm_disable
 1199              	rtc_alarm_disable:
 1200              	.LFB359:
 483:../Firmware/GD32VW55x_standard_peripheral/Source/gd32vw55x_rtc.c **** 
 484:../Firmware/GD32VW55x_standard_peripheral/Source/gd32vw55x_rtc.c **** /*!
 485:../Firmware/GD32VW55x_standard_peripheral/Source/gd32vw55x_rtc.c ****     \brief      disable RTC alarm
 486:../Firmware/GD32VW55x_standard_peripheral/Source/gd32vw55x_rtc.c ****     \param[in]  rtc_alarm: RTC_ALARM0 or RTC_ALARM1
 487:../Firmware/GD32VW55x_standard_peripheral/Source/gd32vw55x_rtc.c ****     \param[out] none
 488:../Firmware/GD32VW55x_standard_peripheral/Source/gd32vw55x_rtc.c ****     \retval     ErrStatus: ERROR or SUCCESS
 489:../Firmware/GD32VW55x_standard_peripheral/Source/gd32vw55x_rtc.c **** */
 490:../Firmware/GD32VW55x_standard_peripheral/Source/gd32vw55x_rtc.c **** ErrStatus rtc_alarm_disable(uint8_t rtc_alarm)
 491:../Firmware/GD32VW55x_standard_peripheral/Source/gd32vw55x_rtc.c **** {
 1201              		.loc 1 491 1
 1202              		.cfi_startproc
 1203 0000 7971     		addi	sp,sp,-48
 1204              		.cfi_def_cfa_offset 48
 1205 0002 22D6     		sw	s0,44(sp)
 1206              		.cfi_offset 8, -4
 1207 0004 0018     		addi	s0,sp,48
 1208              		.cfi_def_cfa 8, 0
 1209 0006 AA87     		mv	a5,a0
 1210 0008 A30FF4FC 		sb	a5,-33(s0)
 492:../Firmware/GD32VW55x_standard_peripheral/Source/gd32vw55x_rtc.c ****     volatile uint32_t time_index = RTC_ALRMXWF_TIMEOUT;
 1211              		.loc 1 492 23
 1212 000c A167     		li	a5,32768
 1213 000e 2322F4FE 		sw	a5,-28(s0)
 493:../Firmware/GD32VW55x_standard_peripheral/Source/gd32vw55x_rtc.c ****     ErrStatus error_status = ERROR;
 1214              		.loc 1 493 15
 1215 0012 232604FE 		sw	zero,-20(s0)
 494:../Firmware/GD32VW55x_standard_peripheral/Source/gd32vw55x_rtc.c ****     uint32_t flag_status = RESET;
 1216              		.loc 1 494 14
 1217 0016 232404FE 		sw	zero,-24(s0)
 495:../Firmware/GD32VW55x_standard_peripheral/Source/gd32vw55x_rtc.c **** 
 496:../Firmware/GD32VW55x_standard_peripheral/Source/gd32vw55x_rtc.c ****     /* disable the write protection */
 497:../Firmware/GD32VW55x_standard_peripheral/Source/gd32vw55x_rtc.c ****     RTC_WPK = RTC_UNLOCK_KEY1;
 1218              		.loc 1 497 5
 1219 001a B7370040 		li	a5,1073754112
 1220 001e 93874782 		addi	a5,a5,-2012
 1221              		.loc 1 497 13
 1222 0022 1307A00C 		li	a4,202
 1223 0026 98C3     		sw	a4,0(a5)
 498:../Firmware/GD32VW55x_standard_peripheral/Source/gd32vw55x_rtc.c ****     RTC_WPK = RTC_UNLOCK_KEY2;
 1224              		.loc 1 498 5
 1225 0028 B7370040 		li	a5,1073754112
 1226 002c 93874782 		addi	a5,a5,-2012
 1227              		.loc 1 498 13
 1228 0030 13073005 		li	a4,83
 1229 0034 98C3     		sw	a4,0(a5)
 499:../Firmware/GD32VW55x_standard_peripheral/Source/gd32vw55x_rtc.c **** 
 500:../Firmware/GD32VW55x_standard_peripheral/Source/gd32vw55x_rtc.c ****     /* clear the state of alarm */
 501:../Firmware/GD32VW55x_standard_peripheral/Source/gd32vw55x_rtc.c ****     if(RTC_ALARM0 == rtc_alarm) {
 1230              		.loc 1 501 7
 1231 0036 0347F4FD 		lbu	a4,-33(s0)
 1232 003a 8547     		li	a5,1
 1233 003c 6310F704 		bne	a4,a5,.L43
 502:../Firmware/GD32VW55x_standard_peripheral/Source/gd32vw55x_rtc.c ****         RTC_CTL &= (uint32_t)(~RTC_CTL_ALRM0EN);
 1234              		.loc 1 502 17
 1235 0040 B7370040 		li	a5,1073754112
 1236 0044 93878780 		addi	a5,a5,-2040
 1237 0048 9843     		lw	a4,0(a5)
 1238 004a B7370040 		li	a5,1073754112
 1239 004e 93878780 		addi	a5,a5,-2040
 1240 0052 1377F7EF 		andi	a4,a4,-257
 1241 0056 98C3     		sw	a4,0(a5)
 1242              	.L45:
 503:../Firmware/GD32VW55x_standard_peripheral/Source/gd32vw55x_rtc.c ****         /* wait until ALRM0WF flag to be set after the alarm is disabled */
 504:../Firmware/GD32VW55x_standard_peripheral/Source/gd32vw55x_rtc.c ****         do {
 505:../Firmware/GD32VW55x_standard_peripheral/Source/gd32vw55x_rtc.c ****             flag_status = RTC_STAT & RTC_STAT_ALRM0WF;
 1243              		.loc 1 505 27 discriminator 2
 1244 0058 B7370040 		li	a5,1073754112
 1245 005c 9387C780 		addi	a5,a5,-2036
 1246 0060 9C43     		lw	a5,0(a5)
 1247              		.loc 1 505 25 discriminator 2
 1248 0062 858B     		andi	a5,a5,1
 1249 0064 2324F4FE 		sw	a5,-24(s0)
 506:../Firmware/GD32VW55x_standard_peripheral/Source/gd32vw55x_rtc.c ****         } while((--time_index > 0U) && ((uint32_t)RESET == flag_status));
 1250              		.loc 1 506 18 discriminator 2
 1251 0068 832744FE 		lw	a5,-28(s0)
 1252 006c FD17     		addi	a5,a5,-1
 1253              		.loc 1 506 9 discriminator 2
 1254 006e 2322F4FE 		sw	a5,-28(s0)
 1255 0072 B1C3     		beq	a5,zero,.L44
 1256              		.loc 1 506 37 discriminator 1
 1257 0074 832784FE 		lw	a5,-24(s0)
 1258 0078 E5D3     		beq	a5,zero,.L45
 1259 007a 35A8     		j	.L44
 1260              	.L43:
 507:../Firmware/GD32VW55x_standard_peripheral/Source/gd32vw55x_rtc.c ****     } else {
 508:../Firmware/GD32VW55x_standard_peripheral/Source/gd32vw55x_rtc.c ****         RTC_CTL &= (uint32_t)(~RTC_CTL_ALRM1EN);
 1261              		.loc 1 508 17
 1262 007c B7370040 		li	a5,1073754112
 1263 0080 93878780 		addi	a5,a5,-2040
 1264 0084 9843     		lw	a4,0(a5)
 1265 0086 B7370040 		li	a5,1073754112
 1266 008a 93878780 		addi	a5,a5,-2040
 1267 008e 1377F7DF 		andi	a4,a4,-513
 1268 0092 98C3     		sw	a4,0(a5)
 1269              	.L46:
 509:../Firmware/GD32VW55x_standard_peripheral/Source/gd32vw55x_rtc.c ****         /* wait until ALRM1WF flag to be set after the alarm is disabled */
 510:../Firmware/GD32VW55x_standard_peripheral/Source/gd32vw55x_rtc.c ****         do {
 511:../Firmware/GD32VW55x_standard_peripheral/Source/gd32vw55x_rtc.c ****             flag_status = RTC_STAT & RTC_STAT_ALRM1WF;
 1270              		.loc 1 511 27 discriminator 2
 1271 0094 B7370040 		li	a5,1073754112
 1272 0098 9387C780 		addi	a5,a5,-2036
 1273 009c 9C43     		lw	a5,0(a5)
 1274              		.loc 1 511 25 discriminator 2
 1275 009e 898B     		andi	a5,a5,2
 1276 00a0 2324F4FE 		sw	a5,-24(s0)
 512:../Firmware/GD32VW55x_standard_peripheral/Source/gd32vw55x_rtc.c ****         } while((--time_index > 0U) && ((uint32_t)RESET == flag_status));
 1277              		.loc 1 512 18 discriminator 2
 1278 00a4 832744FE 		lw	a5,-28(s0)
 1279 00a8 FD17     		addi	a5,a5,-1
 1280              		.loc 1 512 9 discriminator 2
 1281 00aa 2322F4FE 		sw	a5,-28(s0)
 1282 00ae 81C7     		beq	a5,zero,.L44
 1283              		.loc 1 512 37 discriminator 1
 1284 00b0 832784FE 		lw	a5,-24(s0)
 1285 00b4 E5D3     		beq	a5,zero,.L46
 1286              	.L44:
 513:../Firmware/GD32VW55x_standard_peripheral/Source/gd32vw55x_rtc.c ****     }
 514:../Firmware/GD32VW55x_standard_peripheral/Source/gd32vw55x_rtc.c **** 
 515:../Firmware/GD32VW55x_standard_peripheral/Source/gd32vw55x_rtc.c ****     if((uint32_t)RESET != flag_status) {
 1287              		.loc 1 515 7
 1288 00b6 832784FE 		lw	a5,-24(s0)
 1289 00ba 81C7     		beq	a5,zero,.L47
 516:../Firmware/GD32VW55x_standard_peripheral/Source/gd32vw55x_rtc.c ****         error_status = SUCCESS;
 1290              		.loc 1 516 22
 1291 00bc 8547     		li	a5,1
 1292 00be 2326F4FE 		sw	a5,-20(s0)
 1293              	.L47:
 517:../Firmware/GD32VW55x_standard_peripheral/Source/gd32vw55x_rtc.c ****     }
 518:../Firmware/GD32VW55x_standard_peripheral/Source/gd32vw55x_rtc.c **** 
 519:../Firmware/GD32VW55x_standard_peripheral/Source/gd32vw55x_rtc.c ****     /* enable the write protection */
 520:../Firmware/GD32VW55x_standard_peripheral/Source/gd32vw55x_rtc.c ****     RTC_WPK = RTC_LOCK_KEY;
 1294              		.loc 1 520 5
 1295 00c2 B7370040 		li	a5,1073754112
 1296 00c6 93874782 		addi	a5,a5,-2012
 1297              		.loc 1 520 13
 1298 00ca 1307F00F 		li	a4,255
 1299 00ce 98C3     		sw	a4,0(a5)
 521:../Firmware/GD32VW55x_standard_peripheral/Source/gd32vw55x_rtc.c **** 
 522:../Firmware/GD32VW55x_standard_peripheral/Source/gd32vw55x_rtc.c ****     return error_status;
 1300              		.loc 1 522 12
 1301 00d0 8327C4FE 		lw	a5,-20(s0)
 523:../Firmware/GD32VW55x_standard_peripheral/Source/gd32vw55x_rtc.c **** }
 1302              		.loc 1 523 1
 1303 00d4 3E85     		mv	a0,a5
 1304 00d6 3254     		lw	s0,44(sp)
 1305              		.cfi_restore 8
 1306              		.cfi_def_cfa 2, 48
 1307 00d8 4561     		addi	sp,sp,48
 1308              		.cfi_def_cfa_offset 0
 1309 00da 8280     		jr	ra
 1310              		.cfi_endproc
 1311              	.LFE359:
 1313              		.section	.text.rtc_timestamp_enable,"ax",@progbits
 1314              		.align	1
 1315              		.globl	rtc_timestamp_enable
 1317              	rtc_timestamp_enable:
 1318              	.LFB360:
 524:../Firmware/GD32VW55x_standard_peripheral/Source/gd32vw55x_rtc.c **** 
 525:../Firmware/GD32VW55x_standard_peripheral/Source/gd32vw55x_rtc.c **** /*!
 526:../Firmware/GD32VW55x_standard_peripheral/Source/gd32vw55x_rtc.c ****     \brief      enable RTC time-stamp
 527:../Firmware/GD32VW55x_standard_peripheral/Source/gd32vw55x_rtc.c ****     \param[in]  edge: specify which edge to detect of time-stamp
 528:../Firmware/GD32VW55x_standard_peripheral/Source/gd32vw55x_rtc.c ****       \arg        RTC_TIMESTAMP_RISING_EDGE: rising edge is valid event edge for timestamp event
 529:../Firmware/GD32VW55x_standard_peripheral/Source/gd32vw55x_rtc.c ****       \arg        RTC_TIMESTAMP_FALLING_EDGE: falling edge is valid event edge for timestamp event
 530:../Firmware/GD32VW55x_standard_peripheral/Source/gd32vw55x_rtc.c ****     \param[out] none
 531:../Firmware/GD32VW55x_standard_peripheral/Source/gd32vw55x_rtc.c ****     \retval     none
 532:../Firmware/GD32VW55x_standard_peripheral/Source/gd32vw55x_rtc.c **** */
 533:../Firmware/GD32VW55x_standard_peripheral/Source/gd32vw55x_rtc.c **** void rtc_timestamp_enable(uint32_t edge)
 534:../Firmware/GD32VW55x_standard_peripheral/Source/gd32vw55x_rtc.c **** {
 1319              		.loc 1 534 1
 1320              		.cfi_startproc
 1321 0000 7971     		addi	sp,sp,-48
 1322              		.cfi_def_cfa_offset 48
 1323 0002 22D6     		sw	s0,44(sp)
 1324              		.cfi_offset 8, -4
 1325 0004 0018     		addi	s0,sp,48
 1326              		.cfi_def_cfa 8, 0
 1327 0006 232EA4FC 		sw	a0,-36(s0)
 535:../Firmware/GD32VW55x_standard_peripheral/Source/gd32vw55x_rtc.c ****     uint32_t reg_ctl = 0U;
 1328              		.loc 1 535 14
 1329 000a 232604FE 		sw	zero,-20(s0)
 536:../Firmware/GD32VW55x_standard_peripheral/Source/gd32vw55x_rtc.c **** 
 537:../Firmware/GD32VW55x_standard_peripheral/Source/gd32vw55x_rtc.c ****     /* disable the write protection */
 538:../Firmware/GD32VW55x_standard_peripheral/Source/gd32vw55x_rtc.c ****     RTC_WPK = RTC_UNLOCK_KEY1;
 1330              		.loc 1 538 5
 1331 000e B7370040 		li	a5,1073754112
 1332 0012 93874782 		addi	a5,a5,-2012
 1333              		.loc 1 538 13
 1334 0016 1307A00C 		li	a4,202
 1335 001a 98C3     		sw	a4,0(a5)
 539:../Firmware/GD32VW55x_standard_peripheral/Source/gd32vw55x_rtc.c ****     RTC_WPK = RTC_UNLOCK_KEY2;
 1336              		.loc 1 539 5
 1337 001c B7370040 		li	a5,1073754112
 1338 0020 93874782 		addi	a5,a5,-2012
 1339              		.loc 1 539 13
 1340 0024 13073005 		li	a4,83
 1341 0028 98C3     		sw	a4,0(a5)
 540:../Firmware/GD32VW55x_standard_peripheral/Source/gd32vw55x_rtc.c **** 
 541:../Firmware/GD32VW55x_standard_peripheral/Source/gd32vw55x_rtc.c ****     /* clear the bits to be configured in RTC_CTL */
 542:../Firmware/GD32VW55x_standard_peripheral/Source/gd32vw55x_rtc.c ****     reg_ctl = (uint32_t)(RTC_CTL & (uint32_t)(~(RTC_CTL_TSEG | RTC_CTL_TSEN)));
 1342              		.loc 1 542 26
 1343 002a B7370040 		li	a5,1073754112
 1344 002e 93878780 		addi	a5,a5,-2040
 1345 0032 9843     		lw	a4,0(a5)
 1346              		.loc 1 542 13
 1347 0034 FD77     		li	a5,-4096
 1348 0036 9387777F 		addi	a5,a5,2039
 1349 003a F98F     		and	a5,a4,a5
 1350 003c 2326F4FE 		sw	a5,-20(s0)
 543:../Firmware/GD32VW55x_standard_peripheral/Source/gd32vw55x_rtc.c **** 
 544:../Firmware/GD32VW55x_standard_peripheral/Source/gd32vw55x_rtc.c ****     /* new configuration */
 545:../Firmware/GD32VW55x_standard_peripheral/Source/gd32vw55x_rtc.c ****     reg_ctl |= (uint32_t)(edge | RTC_CTL_TSEN);
 1351              		.loc 1 545 13
 1352 0040 0327C4FD 		lw	a4,-36(s0)
 1353 0044 8327C4FE 		lw	a5,-20(s0)
 1354 0048 5D8F     		or	a4,a4,a5
 1355 004a 8567     		li	a5,4096
 1356 004c 93870780 		addi	a5,a5,-2048
 1357 0050 D98F     		or	a5,a4,a5
 1358 0052 2326F4FE 		sw	a5,-20(s0)
 546:../Firmware/GD32VW55x_standard_peripheral/Source/gd32vw55x_rtc.c **** 
 547:../Firmware/GD32VW55x_standard_peripheral/Source/gd32vw55x_rtc.c ****     RTC_CTL = (uint32_t)reg_ctl;
 1359              		.loc 1 547 5
 1360 0056 B7370040 		li	a5,1073754112
 1361 005a 93878780 		addi	a5,a5,-2040
 1362              		.loc 1 547 13
 1363 005e 0327C4FE 		lw	a4,-20(s0)
 1364 0062 98C3     		sw	a4,0(a5)
 548:../Firmware/GD32VW55x_standard_peripheral/Source/gd32vw55x_rtc.c ****     /* enable the write protection */
 549:../Firmware/GD32VW55x_standard_peripheral/Source/gd32vw55x_rtc.c ****     RTC_WPK = RTC_LOCK_KEY;
 1365              		.loc 1 549 5
 1366 0064 B7370040 		li	a5,1073754112
 1367 0068 93874782 		addi	a5,a5,-2012
 1368              		.loc 1 549 13
 1369 006c 1307F00F 		li	a4,255
 1370 0070 98C3     		sw	a4,0(a5)
 550:../Firmware/GD32VW55x_standard_peripheral/Source/gd32vw55x_rtc.c **** }
 1371              		.loc 1 550 1
 1372 0072 0100     		nop
 1373 0074 3254     		lw	s0,44(sp)
 1374              		.cfi_restore 8
 1375              		.cfi_def_cfa 2, 48
 1376 0076 4561     		addi	sp,sp,48
 1377              		.cfi_def_cfa_offset 0
 1378 0078 8280     		jr	ra
 1379              		.cfi_endproc
 1380              	.LFE360:
 1382              		.section	.text.rtc_timestamp_disable,"ax",@progbits
 1383              		.align	1
 1384              		.globl	rtc_timestamp_disable
 1386              	rtc_timestamp_disable:
 1387              	.LFB361:
 551:../Firmware/GD32VW55x_standard_peripheral/Source/gd32vw55x_rtc.c **** 
 552:../Firmware/GD32VW55x_standard_peripheral/Source/gd32vw55x_rtc.c **** /*!
 553:../Firmware/GD32VW55x_standard_peripheral/Source/gd32vw55x_rtc.c ****     \brief      disable RTC time-stamp
 554:../Firmware/GD32VW55x_standard_peripheral/Source/gd32vw55x_rtc.c ****     \param[in]  none
 555:../Firmware/GD32VW55x_standard_peripheral/Source/gd32vw55x_rtc.c ****     \param[out] none
 556:../Firmware/GD32VW55x_standard_peripheral/Source/gd32vw55x_rtc.c ****     \retval     none
 557:../Firmware/GD32VW55x_standard_peripheral/Source/gd32vw55x_rtc.c **** */
 558:../Firmware/GD32VW55x_standard_peripheral/Source/gd32vw55x_rtc.c **** void rtc_timestamp_disable(void)
 559:../Firmware/GD32VW55x_standard_peripheral/Source/gd32vw55x_rtc.c **** {
 1388              		.loc 1 559 1
 1389              		.cfi_startproc
 1390 0000 4111     		addi	sp,sp,-16
 1391              		.cfi_def_cfa_offset 16
 1392 0002 22C6     		sw	s0,12(sp)
 1393              		.cfi_offset 8, -4
 1394 0004 0008     		addi	s0,sp,16
 1395              		.cfi_def_cfa 8, 0
 560:../Firmware/GD32VW55x_standard_peripheral/Source/gd32vw55x_rtc.c ****     /* disable the write protection */
 561:../Firmware/GD32VW55x_standard_peripheral/Source/gd32vw55x_rtc.c ****     RTC_WPK = RTC_UNLOCK_KEY1;
 1396              		.loc 1 561 5
 1397 0006 B7370040 		li	a5,1073754112
 1398 000a 93874782 		addi	a5,a5,-2012
 1399              		.loc 1 561 13
 1400 000e 1307A00C 		li	a4,202
 1401 0012 98C3     		sw	a4,0(a5)
 562:../Firmware/GD32VW55x_standard_peripheral/Source/gd32vw55x_rtc.c ****     RTC_WPK = RTC_UNLOCK_KEY2;
 1402              		.loc 1 562 5
 1403 0014 B7370040 		li	a5,1073754112
 1404 0018 93874782 		addi	a5,a5,-2012
 1405              		.loc 1 562 13
 1406 001c 13073005 		li	a4,83
 1407 0020 98C3     		sw	a4,0(a5)
 563:../Firmware/GD32VW55x_standard_peripheral/Source/gd32vw55x_rtc.c **** 
 564:../Firmware/GD32VW55x_standard_peripheral/Source/gd32vw55x_rtc.c ****     /* clear the TSEN bit */
 565:../Firmware/GD32VW55x_standard_peripheral/Source/gd32vw55x_rtc.c ****     RTC_CTL &= (uint32_t)(~ RTC_CTL_TSEN);
 1408              		.loc 1 565 13
 1409 0022 B7370040 		li	a5,1073754112
 1410 0026 93878780 		addi	a5,a5,-2040
 1411 002a 9443     		lw	a3,0(a5)
 1412 002c B7370040 		li	a5,1073754112
 1413 0030 93878780 		addi	a5,a5,-2040
 1414 0034 7D77     		li	a4,-4096
 1415 0036 1307F77F 		addi	a4,a4,2047
 1416 003a 758F     		and	a4,a3,a4
 1417 003c 98C3     		sw	a4,0(a5)
 566:../Firmware/GD32VW55x_standard_peripheral/Source/gd32vw55x_rtc.c **** 
 567:../Firmware/GD32VW55x_standard_peripheral/Source/gd32vw55x_rtc.c ****     /* enable the write protection */
 568:../Firmware/GD32VW55x_standard_peripheral/Source/gd32vw55x_rtc.c ****     RTC_WPK = RTC_LOCK_KEY;
 1418              		.loc 1 568 5
 1419 003e B7370040 		li	a5,1073754112
 1420 0042 93874782 		addi	a5,a5,-2012
 1421              		.loc 1 568 13
 1422 0046 1307F00F 		li	a4,255
 1423 004a 98C3     		sw	a4,0(a5)
 569:../Firmware/GD32VW55x_standard_peripheral/Source/gd32vw55x_rtc.c **** }
 1424              		.loc 1 569 1
 1425 004c 0100     		nop
 1426 004e 3244     		lw	s0,12(sp)
 1427              		.cfi_restore 8
 1428              		.cfi_def_cfa 2, 16
 1429 0050 4101     		addi	sp,sp,16
 1430              		.cfi_def_cfa_offset 0
 1431 0052 8280     		jr	ra
 1432              		.cfi_endproc
 1433              	.LFE361:
 1435              		.section	.text.rtc_timestamp_get,"ax",@progbits
 1436              		.align	1
 1437              		.globl	rtc_timestamp_get
 1439              	rtc_timestamp_get:
 1440              	.LFB362:
 570:../Firmware/GD32VW55x_standard_peripheral/Source/gd32vw55x_rtc.c **** 
 571:../Firmware/GD32VW55x_standard_peripheral/Source/gd32vw55x_rtc.c **** /*!
 572:../Firmware/GD32VW55x_standard_peripheral/Source/gd32vw55x_rtc.c ****     \brief      get RTC timestamp time and date
 573:../Firmware/GD32VW55x_standard_peripheral/Source/gd32vw55x_rtc.c ****     \param[in]  none
 574:../Firmware/GD32VW55x_standard_peripheral/Source/gd32vw55x_rtc.c ****     \param[out] rtc_timestamp: pointer to a rtc_timestamp_struct structure which contains
 575:../Firmware/GD32VW55x_standard_peripheral/Source/gd32vw55x_rtc.c ****                 parameters for RTC time-stamp configuration
 576:../Firmware/GD32VW55x_standard_peripheral/Source/gd32vw55x_rtc.c ****                 members of the structure and the member values are shown as below:
 577:../Firmware/GD32VW55x_standard_peripheral/Source/gd32vw55x_rtc.c ****                   timestamp_month: RTC_JAN, RTC_FEB, RTC_MAR, RTC_APR, RTC_MAY, RTC_JUN,
 578:../Firmware/GD32VW55x_standard_peripheral/Source/gd32vw55x_rtc.c ****                                        RTC_JUL, RTC_AUG, RTC_SEP, RTC_OCT, RTC_NOV, RTC_DEC
 579:../Firmware/GD32VW55x_standard_peripheral/Source/gd32vw55x_rtc.c ****                   timestamp_date: 0x1 - 0x31(BCD format)
 580:../Firmware/GD32VW55x_standard_peripheral/Source/gd32vw55x_rtc.c ****                   timestamp_day: RTC_MONDAY, RTC_TUESDAY, RTC_WEDNESDAY, RTC_THURSDAY, RTC_FRIDAY,
 581:../Firmware/GD32VW55x_standard_peripheral/Source/gd32vw55x_rtc.c ****                                      RTC_SATURDAY, RTC_SUNDAY
 582:../Firmware/GD32VW55x_standard_peripheral/Source/gd32vw55x_rtc.c ****                   timestamp_hour: 0x0 - 0x12(BCD format) or 0x0 - 0x23(BCD format) depending on the
 583:../Firmware/GD32VW55x_standard_peripheral/Source/gd32vw55x_rtc.c ****                   timestamp_minute: 0x0 - 0x59(BCD format)
 584:../Firmware/GD32VW55x_standard_peripheral/Source/gd32vw55x_rtc.c ****                   timestamp_second: 0x0 - 0x59(BCD format)
 585:../Firmware/GD32VW55x_standard_peripheral/Source/gd32vw55x_rtc.c ****                   am_pm: RTC_AM, RTC_PM
 586:../Firmware/GD32VW55x_standard_peripheral/Source/gd32vw55x_rtc.c ****     \retval     none
 587:../Firmware/GD32VW55x_standard_peripheral/Source/gd32vw55x_rtc.c **** */
 588:../Firmware/GD32VW55x_standard_peripheral/Source/gd32vw55x_rtc.c **** void rtc_timestamp_get(rtc_timestamp_struct *rtc_timestamp)
 589:../Firmware/GD32VW55x_standard_peripheral/Source/gd32vw55x_rtc.c **** {
 1441              		.loc 1 589 1
 1442              		.cfi_startproc
 1443 0000 7971     		addi	sp,sp,-48
 1444              		.cfi_def_cfa_offset 48
 1445 0002 22D6     		sw	s0,44(sp)
 1446              		.cfi_offset 8, -4
 1447 0004 0018     		addi	s0,sp,48
 1448              		.cfi_def_cfa 8, 0
 1449 0006 232EA4FC 		sw	a0,-36(s0)
 590:../Firmware/GD32VW55x_standard_peripheral/Source/gd32vw55x_rtc.c ****     uint32_t temp_tts = 0U, temp_dts = 0U;
 1450              		.loc 1 590 14
 1451 000a 232604FE 		sw	zero,-20(s0)
 1452              		.loc 1 590 29
 1453 000e 232404FE 		sw	zero,-24(s0)
 591:../Firmware/GD32VW55x_standard_peripheral/Source/gd32vw55x_rtc.c **** 
 592:../Firmware/GD32VW55x_standard_peripheral/Source/gd32vw55x_rtc.c ****     /* get the value of time_stamp registers */
 593:../Firmware/GD32VW55x_standard_peripheral/Source/gd32vw55x_rtc.c ****     temp_tts = (uint32_t)RTC_TTS;
 1454              		.loc 1 593 16
 1455 0012 B7370040 		li	a5,1073754112
 1456 0016 93870783 		addi	a5,a5,-2000
 1457              		.loc 1 593 14
 1458 001a 9C43     		lw	a5,0(a5)
 1459 001c 2326F4FE 		sw	a5,-20(s0)
 594:../Firmware/GD32VW55x_standard_peripheral/Source/gd32vw55x_rtc.c ****     temp_dts = (uint32_t)RTC_DTS;
 1460              		.loc 1 594 16
 1461 0020 B7370040 		li	a5,1073754112
 1462 0024 93874783 		addi	a5,a5,-1996
 1463              		.loc 1 594 14
 1464 0028 9C43     		lw	a5,0(a5)
 1465 002a 2324F4FE 		sw	a5,-24(s0)
 595:../Firmware/GD32VW55x_standard_peripheral/Source/gd32vw55x_rtc.c **** 
 596:../Firmware/GD32VW55x_standard_peripheral/Source/gd32vw55x_rtc.c ****     /* get timestamp time and construct the rtc_timestamp_struct structure */
 597:../Firmware/GD32VW55x_standard_peripheral/Source/gd32vw55x_rtc.c ****     rtc_timestamp->am_pm = (uint32_t)(temp_tts & RTC_TTS_PM);
 1466              		.loc 1 597 28
 1467 002e 0327C4FE 		lw	a4,-20(s0)
 1468 0032 B7074000 		li	a5,4194304
 1469 0036 7D8F     		and	a4,a4,a5
 1470              		.loc 1 597 26
 1471 0038 8327C4FD 		lw	a5,-36(s0)
 1472 003c 98C7     		sw	a4,8(a5)
 598:../Firmware/GD32VW55x_standard_peripheral/Source/gd32vw55x_rtc.c ****     rtc_timestamp->timestamp_month = (uint8_t)GET_DTS_MON(temp_dts);
 1473              		.loc 1 598 47
 1474 003e 832784FE 		lw	a5,-24(s0)
 1475 0042 A183     		srli	a5,a5,8
 1476              		.loc 1 598 38
 1477 0044 93F7F70F 		andi	a5,a5,0xff
 1478 0048 FD8B     		andi	a5,a5,31
 1479 004a 13F7F70F 		andi	a4,a5,0xff
 1480              		.loc 1 598 36
 1481 004e 8327C4FD 		lw	a5,-36(s0)
 1482 0052 2380E700 		sb	a4,0(a5)
 599:../Firmware/GD32VW55x_standard_peripheral/Source/gd32vw55x_rtc.c ****     rtc_timestamp->timestamp_date = (uint8_t)GET_DTS_DAY(temp_dts);
 1483              		.loc 1 599 37
 1484 0056 832784FE 		lw	a5,-24(s0)
 1485 005a 93F7F70F 		andi	a5,a5,0xff
 1486 005e 93F7F703 		andi	a5,a5,63
 1487 0062 13F7F70F 		andi	a4,a5,0xff
 1488              		.loc 1 599 35
 1489 0066 8327C4FD 		lw	a5,-36(s0)
 1490 006a A380E700 		sb	a4,1(a5)
 600:../Firmware/GD32VW55x_standard_peripheral/Source/gd32vw55x_rtc.c ****     rtc_timestamp->timestamp_day = (uint8_t)GET_DTS_DOW(temp_dts);
 1491              		.loc 1 600 45
 1492 006e 832784FE 		lw	a5,-24(s0)
 1493 0072 B583     		srli	a5,a5,13
 1494              		.loc 1 600 36
 1495 0074 93F7F70F 		andi	a5,a5,0xff
 1496 0078 9D8B     		andi	a5,a5,7
 1497 007a 13F7F70F 		andi	a4,a5,0xff
 1498              		.loc 1 600 34
 1499 007e 8327C4FD 		lw	a5,-36(s0)
 1500 0082 2381E700 		sb	a4,2(a5)
 601:../Firmware/GD32VW55x_standard_peripheral/Source/gd32vw55x_rtc.c ****     rtc_timestamp->timestamp_hour = (uint8_t)GET_TTS_HR(temp_tts);
 1501              		.loc 1 601 46
 1502 0086 8327C4FE 		lw	a5,-20(s0)
 1503 008a C183     		srli	a5,a5,16
 1504              		.loc 1 601 37
 1505 008c 93F7F70F 		andi	a5,a5,0xff
 1506 0090 93F7F703 		andi	a5,a5,63
 1507 0094 13F7F70F 		andi	a4,a5,0xff
 1508              		.loc 1 601 35
 1509 0098 8327C4FD 		lw	a5,-36(s0)
 1510 009c A381E700 		sb	a4,3(a5)
 602:../Firmware/GD32VW55x_standard_peripheral/Source/gd32vw55x_rtc.c ****     rtc_timestamp->timestamp_minute = (uint8_t)GET_TTS_MN(temp_tts);
 1511              		.loc 1 602 48
 1512 00a0 8327C4FE 		lw	a5,-20(s0)
 1513 00a4 A183     		srli	a5,a5,8
 1514              		.loc 1 602 39
 1515 00a6 93F7F70F 		andi	a5,a5,0xff
 1516 00aa 93F7F707 		andi	a5,a5,127
 1517 00ae 13F7F70F 		andi	a4,a5,0xff
 1518              		.loc 1 602 37
 1519 00b2 8327C4FD 		lw	a5,-36(s0)
 1520 00b6 2382E700 		sb	a4,4(a5)
 603:../Firmware/GD32VW55x_standard_peripheral/Source/gd32vw55x_rtc.c ****     rtc_timestamp->timestamp_second = (uint8_t)GET_TTS_SC(temp_tts);
 1521              		.loc 1 603 39
 1522 00ba 8327C4FE 		lw	a5,-20(s0)
 1523 00be 93F7F70F 		andi	a5,a5,0xff
 1524 00c2 93F7F707 		andi	a5,a5,127
 1525 00c6 13F7F70F 		andi	a4,a5,0xff
 1526              		.loc 1 603 37
 1527 00ca 8327C4FD 		lw	a5,-36(s0)
 1528 00ce A382E700 		sb	a4,5(a5)
 604:../Firmware/GD32VW55x_standard_peripheral/Source/gd32vw55x_rtc.c **** }
 1529              		.loc 1 604 1
 1530 00d2 0100     		nop
 1531 00d4 3254     		lw	s0,44(sp)
 1532              		.cfi_restore 8
 1533              		.cfi_def_cfa 2, 48
 1534 00d6 4561     		addi	sp,sp,48
 1535              		.cfi_def_cfa_offset 0
 1536 00d8 8280     		jr	ra
 1537              		.cfi_endproc
 1538              	.LFE362:
 1540              		.section	.text.rtc_timestamp_subsecond_get,"ax",@progbits
 1541              		.align	1
 1542              		.globl	rtc_timestamp_subsecond_get
 1544              	rtc_timestamp_subsecond_get:
 1545              	.LFB363:
 605:../Firmware/GD32VW55x_standard_peripheral/Source/gd32vw55x_rtc.c **** 
 606:../Firmware/GD32VW55x_standard_peripheral/Source/gd32vw55x_rtc.c **** /*!
 607:../Firmware/GD32VW55x_standard_peripheral/Source/gd32vw55x_rtc.c ****     \brief      get RTC time-stamp subsecond
 608:../Firmware/GD32VW55x_standard_peripheral/Source/gd32vw55x_rtc.c ****     \param[in]  none
 609:../Firmware/GD32VW55x_standard_peripheral/Source/gd32vw55x_rtc.c ****     \param[out] none
 610:../Firmware/GD32VW55x_standard_peripheral/Source/gd32vw55x_rtc.c ****     \retval     RTC time-stamp subsecond value
 611:../Firmware/GD32VW55x_standard_peripheral/Source/gd32vw55x_rtc.c **** */
 612:../Firmware/GD32VW55x_standard_peripheral/Source/gd32vw55x_rtc.c **** uint32_t rtc_timestamp_subsecond_get(void)
 613:../Firmware/GD32VW55x_standard_peripheral/Source/gd32vw55x_rtc.c **** {
 1546              		.loc 1 613 1
 1547              		.cfi_startproc
 1548 0000 4111     		addi	sp,sp,-16
 1549              		.cfi_def_cfa_offset 16
 1550 0002 22C6     		sw	s0,12(sp)
 1551              		.cfi_offset 8, -4
 1552 0004 0008     		addi	s0,sp,16
 1553              		.cfi_def_cfa 8, 0
 614:../Firmware/GD32VW55x_standard_peripheral/Source/gd32vw55x_rtc.c ****     return ((uint32_t)RTC_SSTS);
 1554              		.loc 1 614 13
 1555 0006 B7370040 		li	a5,1073754112
 1556 000a 93878783 		addi	a5,a5,-1992
 1557 000e 9C43     		lw	a5,0(a5)
 615:../Firmware/GD32VW55x_standard_peripheral/Source/gd32vw55x_rtc.c **** }
 1558              		.loc 1 615 1
 1559 0010 3E85     		mv	a0,a5
 1560 0012 3244     		lw	s0,12(sp)
 1561              		.cfi_restore 8
 1562              		.cfi_def_cfa 2, 16
 1563 0014 4101     		addi	sp,sp,16
 1564              		.cfi_def_cfa_offset 0
 1565 0016 8280     		jr	ra
 1566              		.cfi_endproc
 1567              	.LFE363:
 1569              		.section	.text.rtc_tamper_enable,"ax",@progbits
 1570              		.align	1
 1571              		.globl	rtc_tamper_enable
 1573              	rtc_tamper_enable:
 1574              	.LFB364:
 616:../Firmware/GD32VW55x_standard_peripheral/Source/gd32vw55x_rtc.c **** 
 617:../Firmware/GD32VW55x_standard_peripheral/Source/gd32vw55x_rtc.c **** /*!
 618:../Firmware/GD32VW55x_standard_peripheral/Source/gd32vw55x_rtc.c ****     \brief      enable RTC tamper
 619:../Firmware/GD32VW55x_standard_peripheral/Source/gd32vw55x_rtc.c ****     \param[in]  rtc_tamper: pointer to a rtc_tamper_struct structure which contains
 620:../Firmware/GD32VW55x_standard_peripheral/Source/gd32vw55x_rtc.c ****                 parameters for RTC tamper configuration
 621:../Firmware/GD32VW55x_standard_peripheral/Source/gd32vw55x_rtc.c ****                 members of the structure and the member values are shown as below:
 622:../Firmware/GD32VW55x_standard_peripheral/Source/gd32vw55x_rtc.c ****                   detecting tamper event can using edge mode or level mode
 623:../Firmware/GD32VW55x_standard_peripheral/Source/gd32vw55x_rtc.c ****                   (1) using edge mode configuration:
 624:../Firmware/GD32VW55x_standard_peripheral/Source/gd32vw55x_rtc.c ****                   tamper_source: RTC_TAMPER0, RTC_TAMPER1
 625:../Firmware/GD32VW55x_standard_peripheral/Source/gd32vw55x_rtc.c ****                   tamper_trigger: RTC_TAMPER_TRIGGER_EDGE_RISING, RTC_TAMPER_TRIGGER_EDGE_FALLING
 626:../Firmware/GD32VW55x_standard_peripheral/Source/gd32vw55x_rtc.c ****                   tamper_filter: RTC_FLT_EDGE
 627:../Firmware/GD32VW55x_standard_peripheral/Source/gd32vw55x_rtc.c ****                   tamper_with_timestamp: DISABLE, ENABLE
 628:../Firmware/GD32VW55x_standard_peripheral/Source/gd32vw55x_rtc.c ****                   (2) using level mode configuration:
 629:../Firmware/GD32VW55x_standard_peripheral/Source/gd32vw55x_rtc.c ****                   tamper_source: RTC_TAMPER0, RTC_TAMPER1
 630:../Firmware/GD32VW55x_standard_peripheral/Source/gd32vw55x_rtc.c ****                   tamper_trigger:RTC_TAMPER_TRIGGER_LEVEL_LOW, RTC_TAMPER_TRIGGER_LEVEL_HIGH
 631:../Firmware/GD32VW55x_standard_peripheral/Source/gd32vw55x_rtc.c ****                   tamper_filter: RTC_FLT_2S, RTC_FLT_4S, RTC_FLT_8S
 632:../Firmware/GD32VW55x_standard_peripheral/Source/gd32vw55x_rtc.c ****                   tamper_sample_frequency: RTC_FREQ_DIV32768, RTC_FREQ_DIV16384, RTC_FREQ_DIV8192,
 633:../Firmware/GD32VW55x_standard_peripheral/Source/gd32vw55x_rtc.c ****                                                RTC_FREQ_DIV4096, RTC_FREQ_DIV2048, RTC_FREQ_DIV1024
 634:../Firmware/GD32VW55x_standard_peripheral/Source/gd32vw55x_rtc.c ****                                                RTC_FREQ_DIV512, RTC_FREQ_DIV256
 635:../Firmware/GD32VW55x_standard_peripheral/Source/gd32vw55x_rtc.c ****                   tamper_precharge_enable: DISABLE, ENABLE
 636:../Firmware/GD32VW55x_standard_peripheral/Source/gd32vw55x_rtc.c ****                   tamper_precharge_time: RTC_PRCH_1C, RTC_PRCH_2C, RTC_PRCH_4C, RTC_PRCH_8C
 637:../Firmware/GD32VW55x_standard_peripheral/Source/gd32vw55x_rtc.c ****                   tamper_with_timestamp: DISABLE, ENABLE
 638:../Firmware/GD32VW55x_standard_peripheral/Source/gd32vw55x_rtc.c ****     \param[out] none
 639:../Firmware/GD32VW55x_standard_peripheral/Source/gd32vw55x_rtc.c ****     \retval     none
 640:../Firmware/GD32VW55x_standard_peripheral/Source/gd32vw55x_rtc.c **** */
 641:../Firmware/GD32VW55x_standard_peripheral/Source/gd32vw55x_rtc.c **** void rtc_tamper_enable(rtc_tamper_struct *rtc_tamper)
 642:../Firmware/GD32VW55x_standard_peripheral/Source/gd32vw55x_rtc.c **** {
 1575              		.loc 1 642 1
 1576              		.cfi_startproc
 1577 0000 0111     		addi	sp,sp,-32
 1578              		.cfi_def_cfa_offset 32
 1579 0002 22CE     		sw	s0,28(sp)
 1580              		.cfi_offset 8, -4
 1581 0004 0010     		addi	s0,sp,32
 1582              		.cfi_def_cfa 8, 0
 1583 0006 2326A4FE 		sw	a0,-20(s0)
 643:../Firmware/GD32VW55x_standard_peripheral/Source/gd32vw55x_rtc.c ****     /* disable tamper */
 644:../Firmware/GD32VW55x_standard_peripheral/Source/gd32vw55x_rtc.c ****     RTC_TAMP &= (uint32_t)~(rtc_tamper->tamper_source);
 1584              		.loc 1 644 14
 1585 000a B7370040 		li	a5,1073754112
 1586 000e 93870784 		addi	a5,a5,-1984
 1587 0012 9443     		lw	a3,0(a5)
 1588              		.loc 1 644 39
 1589 0014 8327C4FE 		lw	a5,-20(s0)
 1590 0018 9C43     		lw	a5,0(a5)
 1591              		.loc 1 644 27
 1592 001a 13C7F7FF 		not	a4,a5
 1593              		.loc 1 644 14
 1594 001e B7370040 		li	a5,1073754112
 1595 0022 93870784 		addi	a5,a5,-1984
 1596 0026 758F     		and	a4,a3,a4
 1597 0028 98C3     		sw	a4,0(a5)
 645:../Firmware/GD32VW55x_standard_peripheral/Source/gd32vw55x_rtc.c **** 
 646:../Firmware/GD32VW55x_standard_peripheral/Source/gd32vw55x_rtc.c ****     /* tamper filter must be used when the tamper source is voltage level detection */
 647:../Firmware/GD32VW55x_standard_peripheral/Source/gd32vw55x_rtc.c ****     RTC_TAMP &= (uint32_t)~RTC_TAMP_FLT;
 1598              		.loc 1 647 14
 1599 002a B7370040 		li	a5,1073754112
 1600 002e 93870784 		addi	a5,a5,-1984
 1601 0032 9443     		lw	a3,0(a5)
 1602 0034 B7370040 		li	a5,1073754112
 1603 0038 93870784 		addi	a5,a5,-1984
 1604 003c 7977     		li	a4,-8192
 1605 003e 1307F77F 		addi	a4,a4,2047
 1606 0042 758F     		and	a4,a3,a4
 1607 0044 98C3     		sw	a4,0(a5)
 648:../Firmware/GD32VW55x_standard_peripheral/Source/gd32vw55x_rtc.c **** 
 649:../Firmware/GD32VW55x_standard_peripheral/Source/gd32vw55x_rtc.c ****     /* the tamper source is voltage level detection */
 650:../Firmware/GD32VW55x_standard_peripheral/Source/gd32vw55x_rtc.c ****     if((uint32_t)(rtc_tamper->tamper_filter) != RTC_FLT_EDGE) {
 1608              		.loc 1 650 29
 1609 0046 8327C4FE 		lw	a5,-20(s0)
 1610 004a 9C47     		lw	a5,8(a5)
 1611              		.loc 1 650 7
 1612 004c E5C3     		beq	a5,zero,.L55
 651:../Firmware/GD32VW55x_standard_peripheral/Source/gd32vw55x_rtc.c ****         RTC_TAMP &= (uint32_t)~(RTC_TAMP_DISPU | RTC_TAMP_PRCH | RTC_TAMP_FREQ | RTC_TAMP_FLT);
 1613              		.loc 1 651 18
 1614 004e B7370040 		li	a5,1073754112
 1615 0052 93870784 		addi	a5,a5,-1984
 1616 0056 9443     		lw	a3,0(a5)
 1617 0058 B7370040 		li	a5,1073754112
 1618 005c 93870784 		addi	a5,a5,-1984
 1619 0060 4177     		li	a4,-65536
 1620 0062 1307F70F 		addi	a4,a4,255
 1621 0066 758F     		and	a4,a3,a4
 1622 0068 98C3     		sw	a4,0(a5)
 652:../Firmware/GD32VW55x_standard_peripheral/Source/gd32vw55x_rtc.c **** 
 653:../Firmware/GD32VW55x_standard_peripheral/Source/gd32vw55x_rtc.c ****         /* check if the tamper pin need precharge, if need, then configure the precharge time */
 654:../Firmware/GD32VW55x_standard_peripheral/Source/gd32vw55x_rtc.c ****         if(DISABLE == rtc_tamper->tamper_precharge_enable) {
 1623              		.loc 1 654 33
 1624 006a 8327C4FE 		lw	a5,-20(s0)
 1625 006e 9C4B     		lw	a5,16(a5)
 1626              		.loc 1 654 11
 1627 0070 91EF     		bne	a5,zero,.L56
 655:../Firmware/GD32VW55x_standard_peripheral/Source/gd32vw55x_rtc.c ****             RTC_TAMP |= (uint32_t)RTC_TAMP_DISPU;
 1628              		.loc 1 655 22
 1629 0072 B7370040 		li	a5,1073754112
 1630 0076 93870784 		addi	a5,a5,-1984
 1631 007a 9443     		lw	a3,0(a5)
 1632 007c B7370040 		li	a5,1073754112
 1633 0080 93870784 		addi	a5,a5,-1984
 1634 0084 2167     		li	a4,32768
 1635 0086 558F     		or	a4,a3,a4
 1636 0088 98C3     		sw	a4,0(a5)
 1637 008a 39A8     		j	.L57
 1638              	.L56:
 656:../Firmware/GD32VW55x_standard_peripheral/Source/gd32vw55x_rtc.c ****         } else {
 657:../Firmware/GD32VW55x_standard_peripheral/Source/gd32vw55x_rtc.c ****             RTC_TAMP |= (uint32_t)(rtc_tamper->tamper_precharge_time);
 1639              		.loc 1 657 22
 1640 008c B7370040 		li	a5,1073754112
 1641 0090 93870784 		addi	a5,a5,-1984
 1642 0094 9443     		lw	a3,0(a5)
 1643              		.loc 1 657 46
 1644 0096 8327C4FE 		lw	a5,-20(s0)
 1645 009a D84B     		lw	a4,20(a5)
 1646              		.loc 1 657 22
 1647 009c B7370040 		li	a5,1073754112
 1648 00a0 93870784 		addi	a5,a5,-1984
 1649 00a4 558F     		or	a4,a3,a4
 1650 00a6 98C3     		sw	a4,0(a5)
 1651              	.L57:
 658:../Firmware/GD32VW55x_standard_peripheral/Source/gd32vw55x_rtc.c ****         }
 659:../Firmware/GD32VW55x_standard_peripheral/Source/gd32vw55x_rtc.c **** 
 660:../Firmware/GD32VW55x_standard_peripheral/Source/gd32vw55x_rtc.c ****         RTC_TAMP |= (uint32_t)(rtc_tamper->tamper_sample_frequency);
 1652              		.loc 1 660 18
 1653 00a8 B7370040 		li	a5,1073754112
 1654 00ac 93870784 		addi	a5,a5,-1984
 1655 00b0 9443     		lw	a3,0(a5)
 1656              		.loc 1 660 42
 1657 00b2 8327C4FE 		lw	a5,-20(s0)
 1658 00b6 D847     		lw	a4,12(a5)
 1659              		.loc 1 660 18
 1660 00b8 B7370040 		li	a5,1073754112
 1661 00bc 93870784 		addi	a5,a5,-1984
 1662 00c0 558F     		or	a4,a3,a4
 1663 00c2 98C3     		sw	a4,0(a5)
 661:../Firmware/GD32VW55x_standard_peripheral/Source/gd32vw55x_rtc.c ****         RTC_TAMP |= (uint32_t)(rtc_tamper->tamper_filter);
 1664              		.loc 1 661 18
 1665 00c4 B7370040 		li	a5,1073754112
 1666 00c8 93870784 		addi	a5,a5,-1984
 1667 00cc 9443     		lw	a3,0(a5)
 1668              		.loc 1 661 42
 1669 00ce 8327C4FE 		lw	a5,-20(s0)
 1670 00d2 9847     		lw	a4,8(a5)
 1671              		.loc 1 661 18
 1672 00d4 B7370040 		li	a5,1073754112
 1673 00d8 93870784 		addi	a5,a5,-1984
 1674 00dc 558F     		or	a4,a3,a4
 1675 00de 98C3     		sw	a4,0(a5)
 662:../Firmware/GD32VW55x_standard_peripheral/Source/gd32vw55x_rtc.c **** 
 663:../Firmware/GD32VW55x_standard_peripheral/Source/gd32vw55x_rtc.c ****         /* configure the tamper trigger */
 664:../Firmware/GD32VW55x_standard_peripheral/Source/gd32vw55x_rtc.c ****         RTC_TAMP &= ((uint32_t)~((rtc_tamper->tamper_source) << RTC_TAMPER_TRIGGER_POS));
 1676              		.loc 1 664 18
 1677 00e0 B7370040 		li	a5,1073754112
 1678 00e4 93870784 		addi	a5,a5,-1984
 1679 00e8 9443     		lw	a3,0(a5)
 1680              		.loc 1 664 45
 1681 00ea 8327C4FE 		lw	a5,-20(s0)
 1682 00ee 9C43     		lw	a5,0(a5)
 1683              		.loc 1 664 62
 1684 00f0 8607     		slli	a5,a5,1
 1685              		.loc 1 664 32
 1686 00f2 13C7F7FF 		not	a4,a5
 1687              		.loc 1 664 18
 1688 00f6 B7370040 		li	a5,1073754112
 1689 00fa 93870784 		addi	a5,a5,-1984
 1690 00fe 758F     		and	a4,a3,a4
 1691 0100 98C3     		sw	a4,0(a5)
 665:../Firmware/GD32VW55x_standard_peripheral/Source/gd32vw55x_rtc.c ****         if(RTC_TAMPER_TRIGGER_LEVEL_LOW != rtc_tamper->tamper_trigger) {
 1692              		.loc 1 665 54
 1693 0102 8327C4FE 		lw	a5,-20(s0)
 1694 0106 DC43     		lw	a5,4(a5)
 1695              		.loc 1 665 11
 1696 0108 BDC7     		beq	a5,zero,.L58
 666:../Firmware/GD32VW55x_standard_peripheral/Source/gd32vw55x_rtc.c ****             RTC_TAMP |= (uint32_t)((rtc_tamper->tamper_source) << RTC_TAMPER_TRIGGER_POS);
 1697              		.loc 1 666 22
 1698 010a B7370040 		li	a5,1073754112
 1699 010e 93870784 		addi	a5,a5,-1984
 1700 0112 9443     		lw	a3,0(a5)
 1701              		.loc 1 666 47
 1702 0114 8327C4FE 		lw	a5,-20(s0)
 1703 0118 9C43     		lw	a5,0(a5)
 1704              		.loc 1 666 64
 1705 011a 13971700 		slli	a4,a5,1
 1706              		.loc 1 666 22
 1707 011e B7370040 		li	a5,1073754112
 1708 0122 93870784 		addi	a5,a5,-1984
 1709 0126 558F     		or	a4,a3,a4
 1710 0128 98C3     		sw	a4,0(a5)
 1711 012a B1A0     		j	.L58
 1712              	.L55:
 667:../Firmware/GD32VW55x_standard_peripheral/Source/gd32vw55x_rtc.c ****         }
 668:../Firmware/GD32VW55x_standard_peripheral/Source/gd32vw55x_rtc.c ****     } else {
 669:../Firmware/GD32VW55x_standard_peripheral/Source/gd32vw55x_rtc.c ****         /* configure the tamper trigger */
 670:../Firmware/GD32VW55x_standard_peripheral/Source/gd32vw55x_rtc.c ****         RTC_TAMP &= ((uint32_t)~((rtc_tamper->tamper_source) << RTC_TAMPER_TRIGGER_POS));
 1713              		.loc 1 670 18
 1714 012c B7370040 		li	a5,1073754112
 1715 0130 93870784 		addi	a5,a5,-1984
 1716 0134 9443     		lw	a3,0(a5)
 1717              		.loc 1 670 45
 1718 0136 8327C4FE 		lw	a5,-20(s0)
 1719 013a 9C43     		lw	a5,0(a5)
 1720              		.loc 1 670 62
 1721 013c 8607     		slli	a5,a5,1
 1722              		.loc 1 670 32
 1723 013e 13C7F7FF 		not	a4,a5
 1724              		.loc 1 670 18
 1725 0142 B7370040 		li	a5,1073754112
 1726 0146 93870784 		addi	a5,a5,-1984
 1727 014a 758F     		and	a4,a3,a4
 1728 014c 98C3     		sw	a4,0(a5)
 671:../Firmware/GD32VW55x_standard_peripheral/Source/gd32vw55x_rtc.c ****         if(RTC_TAMPER_TRIGGER_EDGE_RISING != rtc_tamper->tamper_trigger) {
 1729              		.loc 1 671 56
 1730 014e 8327C4FE 		lw	a5,-20(s0)
 1731 0152 DC43     		lw	a5,4(a5)
 1732              		.loc 1 671 11
 1733 0154 8DC3     		beq	a5,zero,.L58
 672:../Firmware/GD32VW55x_standard_peripheral/Source/gd32vw55x_rtc.c ****             RTC_TAMP |= (uint32_t)((rtc_tamper->tamper_source) << RTC_TAMPER_TRIGGER_POS);
 1734              		.loc 1 672 22
 1735 0156 B7370040 		li	a5,1073754112
 1736 015a 93870784 		addi	a5,a5,-1984
 1737 015e 9443     		lw	a3,0(a5)
 1738              		.loc 1 672 47
 1739 0160 8327C4FE 		lw	a5,-20(s0)
 1740 0164 9C43     		lw	a5,0(a5)
 1741              		.loc 1 672 64
 1742 0166 13971700 		slli	a4,a5,1
 1743              		.loc 1 672 22
 1744 016a B7370040 		li	a5,1073754112
 1745 016e 93870784 		addi	a5,a5,-1984
 1746 0172 558F     		or	a4,a3,a4
 1747 0174 98C3     		sw	a4,0(a5)
 1748              	.L58:
 673:../Firmware/GD32VW55x_standard_peripheral/Source/gd32vw55x_rtc.c ****         }
 674:../Firmware/GD32VW55x_standard_peripheral/Source/gd32vw55x_rtc.c ****     }
 675:../Firmware/GD32VW55x_standard_peripheral/Source/gd32vw55x_rtc.c ****     RTC_TAMP &= (uint32_t)~RTC_TAMP_TPTS;
 1749              		.loc 1 675 14
 1750 0176 B7370040 		li	a5,1073754112
 1751 017a 93870784 		addi	a5,a5,-1984
 1752 017e 9843     		lw	a4,0(a5)
 1753 0180 B7370040 		li	a5,1073754112
 1754 0184 93870784 		addi	a5,a5,-1984
 1755 0188 1377F7F7 		andi	a4,a4,-129
 1756 018c 98C3     		sw	a4,0(a5)
 676:../Firmware/GD32VW55x_standard_peripheral/Source/gd32vw55x_rtc.c ****     if(DISABLE != rtc_tamper->tamper_with_timestamp) {
 1757              		.loc 1 676 29
 1758 018e 8327C4FE 		lw	a5,-20(s0)
 1759 0192 9C4F     		lw	a5,24(a5)
 1760              		.loc 1 676 7
 1761 0194 89CF     		beq	a5,zero,.L59
 677:../Firmware/GD32VW55x_standard_peripheral/Source/gd32vw55x_rtc.c ****         /* the tamper event also cause a time-stamp event */
 678:../Firmware/GD32VW55x_standard_peripheral/Source/gd32vw55x_rtc.c ****         RTC_TAMP |= (uint32_t)RTC_TAMP_TPTS;
 1762              		.loc 1 678 18
 1763 0196 B7370040 		li	a5,1073754112
 1764 019a 93870784 		addi	a5,a5,-1984
 1765 019e 9843     		lw	a4,0(a5)
 1766 01a0 B7370040 		li	a5,1073754112
 1767 01a4 93870784 		addi	a5,a5,-1984
 1768 01a8 13670708 		ori	a4,a4,128
 1769 01ac 98C3     		sw	a4,0(a5)
 1770              	.L59:
 679:../Firmware/GD32VW55x_standard_peripheral/Source/gd32vw55x_rtc.c ****     }
 680:../Firmware/GD32VW55x_standard_peripheral/Source/gd32vw55x_rtc.c ****     /* enable tamper */
 681:../Firmware/GD32VW55x_standard_peripheral/Source/gd32vw55x_rtc.c ****     RTC_TAMP |= (uint32_t)(rtc_tamper->tamper_source);
 1771              		.loc 1 681 14
 1772 01ae B7370040 		li	a5,1073754112
 1773 01b2 93870784 		addi	a5,a5,-1984
 1774 01b6 9443     		lw	a3,0(a5)
 1775              		.loc 1 681 38
 1776 01b8 8327C4FE 		lw	a5,-20(s0)
 1777 01bc 9843     		lw	a4,0(a5)
 1778              		.loc 1 681 14
 1779 01be B7370040 		li	a5,1073754112
 1780 01c2 93870784 		addi	a5,a5,-1984
 1781 01c6 558F     		or	a4,a3,a4
 1782 01c8 98C3     		sw	a4,0(a5)
 682:../Firmware/GD32VW55x_standard_peripheral/Source/gd32vw55x_rtc.c **** }
 1783              		.loc 1 682 1
 1784 01ca 0100     		nop
 1785 01cc 7244     		lw	s0,28(sp)
 1786              		.cfi_restore 8
 1787              		.cfi_def_cfa 2, 32
 1788 01ce 0561     		addi	sp,sp,32
 1789              		.cfi_def_cfa_offset 0
 1790 01d0 8280     		jr	ra
 1791              		.cfi_endproc
 1792              	.LFE364:
 1794              		.section	.text.rtc_tamper_disable,"ax",@progbits
 1795              		.align	1
 1796              		.globl	rtc_tamper_disable
 1798              	rtc_tamper_disable:
 1799              	.LFB365:
 683:../Firmware/GD32VW55x_standard_peripheral/Source/gd32vw55x_rtc.c **** 
 684:../Firmware/GD32VW55x_standard_peripheral/Source/gd32vw55x_rtc.c **** /*!
 685:../Firmware/GD32VW55x_standard_peripheral/Source/gd32vw55x_rtc.c ****     \brief      disable RTC tamper
 686:../Firmware/GD32VW55x_standard_peripheral/Source/gd32vw55x_rtc.c ****     \param[in]  source: specify which tamper source to be disabled
 687:../Firmware/GD32VW55x_standard_peripheral/Source/gd32vw55x_rtc.c ****       \arg        RTC_TAMPER0
 688:../Firmware/GD32VW55x_standard_peripheral/Source/gd32vw55x_rtc.c ****       \arg        RTC_TAMPER1
 689:../Firmware/GD32VW55x_standard_peripheral/Source/gd32vw55x_rtc.c ****     \param[out] none
 690:../Firmware/GD32VW55x_standard_peripheral/Source/gd32vw55x_rtc.c ****     \retval     none
 691:../Firmware/GD32VW55x_standard_peripheral/Source/gd32vw55x_rtc.c **** */
 692:../Firmware/GD32VW55x_standard_peripheral/Source/gd32vw55x_rtc.c **** void rtc_tamper_disable(uint32_t source)
 693:../Firmware/GD32VW55x_standard_peripheral/Source/gd32vw55x_rtc.c **** {
 1800              		.loc 1 693 1
 1801              		.cfi_startproc
 1802 0000 0111     		addi	sp,sp,-32
 1803              		.cfi_def_cfa_offset 32
 1804 0002 22CE     		sw	s0,28(sp)
 1805              		.cfi_offset 8, -4
 1806 0004 0010     		addi	s0,sp,32
 1807              		.cfi_def_cfa 8, 0
 1808 0006 2326A4FE 		sw	a0,-20(s0)
 694:../Firmware/GD32VW55x_standard_peripheral/Source/gd32vw55x_rtc.c ****     /* disable tamper */
 695:../Firmware/GD32VW55x_standard_peripheral/Source/gd32vw55x_rtc.c ****     RTC_TAMP &= (uint32_t)~source;
 1809              		.loc 1 695 14
 1810 000a B7370040 		li	a5,1073754112
 1811 000e 93870784 		addi	a5,a5,-1984
 1812 0012 9443     		lw	a3,0(a5)
 1813              		.loc 1 695 27
 1814 0014 8327C4FE 		lw	a5,-20(s0)
 1815 0018 13C7F7FF 		not	a4,a5
 1816              		.loc 1 695 14
 1817 001c B7370040 		li	a5,1073754112
 1818 0020 93870784 		addi	a5,a5,-1984
 1819 0024 758F     		and	a4,a3,a4
 1820 0026 98C3     		sw	a4,0(a5)
 696:../Firmware/GD32VW55x_standard_peripheral/Source/gd32vw55x_rtc.c **** }
 1821              		.loc 1 696 1
 1822 0028 0100     		nop
 1823 002a 7244     		lw	s0,28(sp)
 1824              		.cfi_restore 8
 1825              		.cfi_def_cfa 2, 32
 1826 002c 0561     		addi	sp,sp,32
 1827              		.cfi_def_cfa_offset 0
 1828 002e 8280     		jr	ra
 1829              		.cfi_endproc
 1830              	.LFE365:
 1832              		.section	.text.rtc_software_bkp_reset,"ax",@progbits
 1833              		.align	1
 1834              		.globl	rtc_software_bkp_reset
 1836              	rtc_software_bkp_reset:
 1837              	.LFB366:
 697:../Firmware/GD32VW55x_standard_peripheral/Source/gd32vw55x_rtc.c **** 
 698:../Firmware/GD32VW55x_standard_peripheral/Source/gd32vw55x_rtc.c **** /*!
 699:../Firmware/GD32VW55x_standard_peripheral/Source/gd32vw55x_rtc.c ****     \brief      reset the RTC_BKP registers by sofware
 700:../Firmware/GD32VW55x_standard_peripheral/Source/gd32vw55x_rtc.c ****     \param[in]  none
 701:../Firmware/GD32VW55x_standard_peripheral/Source/gd32vw55x_rtc.c ****     \param[out] none
 702:../Firmware/GD32VW55x_standard_peripheral/Source/gd32vw55x_rtc.c ****     \retval     none
 703:../Firmware/GD32VW55x_standard_peripheral/Source/gd32vw55x_rtc.c **** */
 704:../Firmware/GD32VW55x_standard_peripheral/Source/gd32vw55x_rtc.c **** void rtc_software_bkp_reset(void)
 705:../Firmware/GD32VW55x_standard_peripheral/Source/gd32vw55x_rtc.c **** {
 1838              		.loc 1 705 1
 1839              		.cfi_startproc
 1840 0000 4111     		addi	sp,sp,-16
 1841              		.cfi_def_cfa_offset 16
 1842 0002 22C6     		sw	s0,12(sp)
 1843              		.cfi_offset 8, -4
 1844 0004 0008     		addi	s0,sp,16
 1845              		.cfi_def_cfa 8, 0
 706:../Firmware/GD32VW55x_standard_peripheral/Source/gd32vw55x_rtc.c ****     RTC_TAMP |= RTC_TAMP_BKERASE;
 1846              		.loc 1 706 14
 1847 0006 B7370040 		li	a5,1073754112
 1848 000a 93870784 		addi	a5,a5,-1984
 1849 000e 9443     		lw	a3,0(a5)
 1850 0010 B7370040 		li	a5,1073754112
 1851 0014 93870784 		addi	a5,a5,-1984
 1852 0018 37070080 		li	a4,-2147483648
 1853 001c 558F     		or	a4,a3,a4
 1854 001e 98C3     		sw	a4,0(a5)
 707:../Firmware/GD32VW55x_standard_peripheral/Source/gd32vw55x_rtc.c **** }
 1855              		.loc 1 707 1
 1856 0020 0100     		nop
 1857 0022 3244     		lw	s0,12(sp)
 1858              		.cfi_restore 8
 1859              		.cfi_def_cfa 2, 16
 1860 0024 4101     		addi	sp,sp,16
 1861              		.cfi_def_cfa_offset 0
 1862 0026 8280     		jr	ra
 1863              		.cfi_endproc
 1864              	.LFE366:
 1866              		.section	.text.rtc_tamper_without_bkp_reset,"ax",@progbits
 1867              		.align	1
 1868              		.globl	rtc_tamper_without_bkp_reset
 1870              	rtc_tamper_without_bkp_reset:
 1871              	.LFB367:
 708:../Firmware/GD32VW55x_standard_peripheral/Source/gd32vw55x_rtc.c **** 
 709:../Firmware/GD32VW55x_standard_peripheral/Source/gd32vw55x_rtc.c **** /*!
 710:../Firmware/GD32VW55x_standard_peripheral/Source/gd32vw55x_rtc.c ****     \brief      tamperx event does not erase the RTC_BKP registers
 711:../Firmware/GD32VW55x_standard_peripheral/Source/gd32vw55x_rtc.c ****     \param[in]  ne_source: specify which tamper source will not trigger the RTC_BKP registers reset
 712:../Firmware/GD32VW55x_standard_peripheral/Source/gd32vw55x_rtc.c ****       \arg        RTC_TAMPXNOER_NONE: both tamper0 and tamper1 event will trigger RTC_BKP registers
 713:../Firmware/GD32VW55x_standard_peripheral/Source/gd32vw55x_rtc.c ****       \arg        RTC_TAMPXNOER_TP0: tamper0 event will not trigger RTC_BKP registers reset
 714:../Firmware/GD32VW55x_standard_peripheral/Source/gd32vw55x_rtc.c ****       \arg        RTC_TAMPXNOER_TP1: tamper1 event will not trigger RTC_BKP registers reset
 715:../Firmware/GD32VW55x_standard_peripheral/Source/gd32vw55x_rtc.c ****       \arg        RTC_TAMPXNOER_TP0_TP1: Neither tamper0 nor tamepr1 event will trigger RTC_BKP reg
 716:../Firmware/GD32VW55x_standard_peripheral/Source/gd32vw55x_rtc.c ****     \param[out] none
 717:../Firmware/GD32VW55x_standard_peripheral/Source/gd32vw55x_rtc.c ****     \retval     none
 718:../Firmware/GD32VW55x_standard_peripheral/Source/gd32vw55x_rtc.c **** */
 719:../Firmware/GD32VW55x_standard_peripheral/Source/gd32vw55x_rtc.c **** void rtc_tamper_without_bkp_reset(uint32_t tamper_source)
 720:../Firmware/GD32VW55x_standard_peripheral/Source/gd32vw55x_rtc.c **** {
 1872              		.loc 1 720 1
 1873              		.cfi_startproc
 1874 0000 0111     		addi	sp,sp,-32
 1875              		.cfi_def_cfa_offset 32
 1876 0002 22CE     		sw	s0,28(sp)
 1877              		.cfi_offset 8, -4
 1878 0004 0010     		addi	s0,sp,32
 1879              		.cfi_def_cfa 8, 0
 1880 0006 2326A4FE 		sw	a0,-20(s0)
 721:../Firmware/GD32VW55x_standard_peripheral/Source/gd32vw55x_rtc.c ****     RTC_TAMP &= (uint32_t)~(RTC_TAMP_TP0NOER | RTC_TAMP_TP1NOER);
 1881              		.loc 1 721 14
 1882 000a B7370040 		li	a5,1073754112
 1883 000e 93870784 		addi	a5,a5,-1984
 1884 0012 9443     		lw	a3,0(a5)
 1885 0014 B7370040 		li	a5,1073754112
 1886 0018 93870784 		addi	a5,a5,-1984
 1887 001c 3707E8FF 		li	a4,-1572864
 1888 0020 7D17     		addi	a4,a4,-1
 1889 0022 758F     		and	a4,a3,a4
 1890 0024 98C3     		sw	a4,0(a5)
 722:../Firmware/GD32VW55x_standard_peripheral/Source/gd32vw55x_rtc.c ****     RTC_TAMP |= tamper_source;
 1891              		.loc 1 722 14
 1892 0026 B7370040 		li	a5,1073754112
 1893 002a 93870784 		addi	a5,a5,-1984
 1894 002e 9443     		lw	a3,0(a5)
 1895 0030 B7370040 		li	a5,1073754112
 1896 0034 93870784 		addi	a5,a5,-1984
 1897 0038 0327C4FE 		lw	a4,-20(s0)
 1898 003c 558F     		or	a4,a3,a4
 1899 003e 98C3     		sw	a4,0(a5)
 723:../Firmware/GD32VW55x_standard_peripheral/Source/gd32vw55x_rtc.c **** }
 1900              		.loc 1 723 1
 1901 0040 0100     		nop
 1902 0042 7244     		lw	s0,28(sp)
 1903              		.cfi_restore 8
 1904              		.cfi_def_cfa 2, 32
 1905 0044 0561     		addi	sp,sp,32
 1906              		.cfi_def_cfa_offset 0
 1907 0046 8280     		jr	ra
 1908              		.cfi_endproc
 1909              	.LFE367:
 1911              		.section	.text.rtc_output_pin_select,"ax",@progbits
 1912              		.align	1
 1913              		.globl	rtc_output_pin_select
 1915              	rtc_output_pin_select:
 1916              	.LFB368:
 724:../Firmware/GD32VW55x_standard_peripheral/Source/gd32vw55x_rtc.c **** 
 725:../Firmware/GD32VW55x_standard_peripheral/Source/gd32vw55x_rtc.c **** /*!
 726:../Firmware/GD32VW55x_standard_peripheral/Source/gd32vw55x_rtc.c ****     \brief      select the RTC output pin
 727:../Firmware/GD32VW55x_standard_peripheral/Source/gd32vw55x_rtc.c ****     \param[in]  pin: specify the rtc output pin is PC15 or not
 728:../Firmware/GD32VW55x_standard_peripheral/Source/gd32vw55x_rtc.c ****       \arg        RTC_OUT_PC15: the rtc output pin is PC15
 729:../Firmware/GD32VW55x_standard_peripheral/Source/gd32vw55x_rtc.c ****       \arg        RTC_OUT_PA3_PA8: the rtc output pin is PA3 or PA8 according to the AFIO configura
 730:../Firmware/GD32VW55x_standard_peripheral/Source/gd32vw55x_rtc.c ****     \param[out] none
 731:../Firmware/GD32VW55x_standard_peripheral/Source/gd32vw55x_rtc.c ****     \retval     none
 732:../Firmware/GD32VW55x_standard_peripheral/Source/gd32vw55x_rtc.c **** */
 733:../Firmware/GD32VW55x_standard_peripheral/Source/gd32vw55x_rtc.c **** void rtc_output_pin_select(uint32_t pin)
 734:../Firmware/GD32VW55x_standard_peripheral/Source/gd32vw55x_rtc.c **** {
 1917              		.loc 1 734 1
 1918              		.cfi_startproc
 1919 0000 0111     		addi	sp,sp,-32
 1920              		.cfi_def_cfa_offset 32
 1921 0002 22CE     		sw	s0,28(sp)
 1922              		.cfi_offset 8, -4
 1923 0004 0010     		addi	s0,sp,32
 1924              		.cfi_def_cfa 8, 0
 1925 0006 2326A4FE 		sw	a0,-20(s0)
 735:../Firmware/GD32VW55x_standard_peripheral/Source/gd32vw55x_rtc.c ****     /* disable the write protection */
 736:../Firmware/GD32VW55x_standard_peripheral/Source/gd32vw55x_rtc.c ****     RTC_WPK = RTC_UNLOCK_KEY1;
 1926              		.loc 1 736 5
 1927 000a B7370040 		li	a5,1073754112
 1928 000e 93874782 		addi	a5,a5,-2012
 1929              		.loc 1 736 13
 1930 0012 1307A00C 		li	a4,202
 1931 0016 98C3     		sw	a4,0(a5)
 737:../Firmware/GD32VW55x_standard_peripheral/Source/gd32vw55x_rtc.c ****     RTC_WPK = RTC_UNLOCK_KEY2;
 1932              		.loc 1 737 5
 1933 0018 B7370040 		li	a5,1073754112
 1934 001c 93874782 		addi	a5,a5,-2012
 1935              		.loc 1 737 13
 1936 0020 13073005 		li	a4,83
 1937 0024 98C3     		sw	a4,0(a5)
 738:../Firmware/GD32VW55x_standard_peripheral/Source/gd32vw55x_rtc.c **** 
 739:../Firmware/GD32VW55x_standard_peripheral/Source/gd32vw55x_rtc.c ****     RTC_CTL &= (uint32_t)~(RTC_CTL_OUT2EN);
 1938              		.loc 1 739 13
 1939 0026 B7370040 		li	a5,1073754112
 1940 002a 93878780 		addi	a5,a5,-2040
 1941 002e 9443     		lw	a3,0(a5)
 1942 0030 B7370040 		li	a5,1073754112
 1943 0034 93878780 		addi	a5,a5,-2040
 1944 0038 37070080 		li	a4,-2147483648
 1945 003c 1347F7FF 		xori	a4,a4,-1
 1946 0040 758F     		and	a4,a3,a4
 1947 0042 98C3     		sw	a4,0(a5)
 740:../Firmware/GD32VW55x_standard_peripheral/Source/gd32vw55x_rtc.c ****     RTC_CTL |= (uint32_t)(pin);
 1948              		.loc 1 740 13
 1949 0044 B7370040 		li	a5,1073754112
 1950 0048 93878780 		addi	a5,a5,-2040
 1951 004c 9443     		lw	a3,0(a5)
 1952 004e B7370040 		li	a5,1073754112
 1953 0052 93878780 		addi	a5,a5,-2040
 1954 0056 0327C4FE 		lw	a4,-20(s0)
 1955 005a 558F     		or	a4,a3,a4
 1956 005c 98C3     		sw	a4,0(a5)
 741:../Firmware/GD32VW55x_standard_peripheral/Source/gd32vw55x_rtc.c **** 
 742:../Firmware/GD32VW55x_standard_peripheral/Source/gd32vw55x_rtc.c ****     /* enable the write protection */
 743:../Firmware/GD32VW55x_standard_peripheral/Source/gd32vw55x_rtc.c ****     RTC_WPK = RTC_LOCK_KEY;
 1957              		.loc 1 743 5
 1958 005e B7370040 		li	a5,1073754112
 1959 0062 93874782 		addi	a5,a5,-2012
 1960              		.loc 1 743 13
 1961 0066 1307F00F 		li	a4,255
 1962 006a 98C3     		sw	a4,0(a5)
 744:../Firmware/GD32VW55x_standard_peripheral/Source/gd32vw55x_rtc.c **** }
 1963              		.loc 1 744 1
 1964 006c 0100     		nop
 1965 006e 7244     		lw	s0,28(sp)
 1966              		.cfi_restore 8
 1967              		.cfi_def_cfa 2, 32
 1968 0070 0561     		addi	sp,sp,32
 1969              		.cfi_def_cfa_offset 0
 1970 0072 8280     		jr	ra
 1971              		.cfi_endproc
 1972              	.LFE368:
 1974              		.section	.text.rtc_alarm_output_config,"ax",@progbits
 1975              		.align	1
 1976              		.globl	rtc_alarm_output_config
 1978              	rtc_alarm_output_config:
 1979              	.LFB369:
 745:../Firmware/GD32VW55x_standard_peripheral/Source/gd32vw55x_rtc.c **** 
 746:../Firmware/GD32VW55x_standard_peripheral/Source/gd32vw55x_rtc.c **** /*!
 747:../Firmware/GD32VW55x_standard_peripheral/Source/gd32vw55x_rtc.c ****     \brief      configure rtc alarm output source
 748:../Firmware/GD32VW55x_standard_peripheral/Source/gd32vw55x_rtc.c ****     \param[in]  source: specify signal to output
 749:../Firmware/GD32VW55x_standard_peripheral/Source/gd32vw55x_rtc.c ****       \arg        RTC_ALARM0_HIGH: when the alarm0 flag is set, the output pin is high
 750:../Firmware/GD32VW55x_standard_peripheral/Source/gd32vw55x_rtc.c ****       \arg        RTC_ALARM0_LOW: when the alarm0 flag is set, the output pin is low
 751:../Firmware/GD32VW55x_standard_peripheral/Source/gd32vw55x_rtc.c ****       \arg        RTC_ALARM1_HIGH: when the alarm1 flag is set, the output pin is high
 752:../Firmware/GD32VW55x_standard_peripheral/Source/gd32vw55x_rtc.c ****       \arg        RTC_ALARM1_LOW: when the alarm1 flag is set, the output pin is low
 753:../Firmware/GD32VW55x_standard_peripheral/Source/gd32vw55x_rtc.c ****       \arg        RTC_WAKEUP_HIGH: when the wakeup flag is set, the output pin is high
 754:../Firmware/GD32VW55x_standard_peripheral/Source/gd32vw55x_rtc.c ****       \arg        RTC_WAKEUP_LOW: when the wakeup flag is set, the output pin is low
 755:../Firmware/GD32VW55x_standard_peripheral/Source/gd32vw55x_rtc.c ****     \param[in]  mode: specify the output pin mode when output alarm signal or auto wakeup signal
 756:../Firmware/GD32VW55x_standard_peripheral/Source/gd32vw55x_rtc.c ****       \arg        RTC_ALARM_OUTPUT_OD: open drain mode
 757:../Firmware/GD32VW55x_standard_peripheral/Source/gd32vw55x_rtc.c ****       \arg        RTC_ALARM_OUTPUT_PP: push pull mode
 758:../Firmware/GD32VW55x_standard_peripheral/Source/gd32vw55x_rtc.c ****     \param[out] none
 759:../Firmware/GD32VW55x_standard_peripheral/Source/gd32vw55x_rtc.c ****     \retval     none
 760:../Firmware/GD32VW55x_standard_peripheral/Source/gd32vw55x_rtc.c **** */
 761:../Firmware/GD32VW55x_standard_peripheral/Source/gd32vw55x_rtc.c **** void rtc_alarm_output_config(uint32_t source, uint32_t mode)
 762:../Firmware/GD32VW55x_standard_peripheral/Source/gd32vw55x_rtc.c **** {
 1980              		.loc 1 762 1
 1981              		.cfi_startproc
 1982 0000 0111     		addi	sp,sp,-32
 1983              		.cfi_def_cfa_offset 32
 1984 0002 22CE     		sw	s0,28(sp)
 1985              		.cfi_offset 8, -4
 1986 0004 0010     		addi	s0,sp,32
 1987              		.cfi_def_cfa 8, 0
 1988 0006 2326A4FE 		sw	a0,-20(s0)
 1989 000a 2324B4FE 		sw	a1,-24(s0)
 763:../Firmware/GD32VW55x_standard_peripheral/Source/gd32vw55x_rtc.c ****     /* disable the write protection */
 764:../Firmware/GD32VW55x_standard_peripheral/Source/gd32vw55x_rtc.c ****     RTC_WPK = RTC_UNLOCK_KEY1;
 1990              		.loc 1 764 5
 1991 000e B7370040 		li	a5,1073754112
 1992 0012 93874782 		addi	a5,a5,-2012
 1993              		.loc 1 764 13
 1994 0016 1307A00C 		li	a4,202
 1995 001a 98C3     		sw	a4,0(a5)
 765:../Firmware/GD32VW55x_standard_peripheral/Source/gd32vw55x_rtc.c ****     RTC_WPK = RTC_UNLOCK_KEY2;
 1996              		.loc 1 765 5
 1997 001c B7370040 		li	a5,1073754112
 1998 0020 93874782 		addi	a5,a5,-2012
 1999              		.loc 1 765 13
 2000 0024 13073005 		li	a4,83
 2001 0028 98C3     		sw	a4,0(a5)
 766:../Firmware/GD32VW55x_standard_peripheral/Source/gd32vw55x_rtc.c **** 
 767:../Firmware/GD32VW55x_standard_peripheral/Source/gd32vw55x_rtc.c ****     RTC_CTL &= ~(RTC_CTL_OS | RTC_CTL_OPOL);
 2002              		.loc 1 767 13
 2003 002a B7370040 		li	a5,1073754112
 2004 002e 93878780 		addi	a5,a5,-2040
 2005 0032 9443     		lw	a3,0(a5)
 2006 0034 B7370040 		li	a5,1073754112
 2007 0038 93878780 		addi	a5,a5,-2040
 2008 003c 370790FF 		li	a4,-7340032
 2009 0040 7D17     		addi	a4,a4,-1
 2010 0042 758F     		and	a4,a3,a4
 2011 0044 98C3     		sw	a4,0(a5)
 768:../Firmware/GD32VW55x_standard_peripheral/Source/gd32vw55x_rtc.c ****     RTC_TAMP &= ~RTC_TAMP_AOT;
 2012              		.loc 1 768 14
 2013 0046 B7370040 		li	a5,1073754112
 2014 004a 93870784 		addi	a5,a5,-1984
 2015 004e 9443     		lw	a3,0(a5)
 2016 0050 B7370040 		li	a5,1073754112
 2017 0054 93870784 		addi	a5,a5,-1984
 2018 0058 3707FCFF 		li	a4,-262144
 2019 005c 7D17     		addi	a4,a4,-1
 2020 005e 758F     		and	a4,a3,a4
 2021 0060 98C3     		sw	a4,0(a5)
 769:../Firmware/GD32VW55x_standard_peripheral/Source/gd32vw55x_rtc.c **** 
 770:../Firmware/GD32VW55x_standard_peripheral/Source/gd32vw55x_rtc.c ****     RTC_CTL |= (uint32_t)(source);
 2022              		.loc 1 770 13
 2023 0062 B7370040 		li	a5,1073754112
 2024 0066 93878780 		addi	a5,a5,-2040
 2025 006a 9443     		lw	a3,0(a5)
 2026 006c B7370040 		li	a5,1073754112
 2027 0070 93878780 		addi	a5,a5,-2040
 2028 0074 0327C4FE 		lw	a4,-20(s0)
 2029 0078 558F     		or	a4,a3,a4
 2030 007a 98C3     		sw	a4,0(a5)
 771:../Firmware/GD32VW55x_standard_peripheral/Source/gd32vw55x_rtc.c ****     /* alarm output */
 772:../Firmware/GD32VW55x_standard_peripheral/Source/gd32vw55x_rtc.c ****     RTC_TAMP |= (uint32_t)(mode);
 2031              		.loc 1 772 14
 2032 007c B7370040 		li	a5,1073754112
 2033 0080 93870784 		addi	a5,a5,-1984
 2034 0084 9443     		lw	a3,0(a5)
 2035 0086 B7370040 		li	a5,1073754112
 2036 008a 93870784 		addi	a5,a5,-1984
 2037 008e 032784FE 		lw	a4,-24(s0)
 2038 0092 558F     		or	a4,a3,a4
 2039 0094 98C3     		sw	a4,0(a5)
 773:../Firmware/GD32VW55x_standard_peripheral/Source/gd32vw55x_rtc.c ****     /* enable the write protection */
 774:../Firmware/GD32VW55x_standard_peripheral/Source/gd32vw55x_rtc.c ****     RTC_WPK = RTC_LOCK_KEY;
 2040              		.loc 1 774 5
 2041 0096 B7370040 		li	a5,1073754112
 2042 009a 93874782 		addi	a5,a5,-2012
 2043              		.loc 1 774 13
 2044 009e 1307F00F 		li	a4,255
 2045 00a2 98C3     		sw	a4,0(a5)
 775:../Firmware/GD32VW55x_standard_peripheral/Source/gd32vw55x_rtc.c **** }
 2046              		.loc 1 775 1
 2047 00a4 0100     		nop
 2048 00a6 7244     		lw	s0,28(sp)
 2049              		.cfi_restore 8
 2050              		.cfi_def_cfa 2, 32
 2051 00a8 0561     		addi	sp,sp,32
 2052              		.cfi_def_cfa_offset 0
 2053 00aa 8280     		jr	ra
 2054              		.cfi_endproc
 2055              	.LFE369:
 2057              		.section	.text.rtc_calibration_output_config,"ax",@progbits
 2058              		.align	1
 2059              		.globl	rtc_calibration_output_config
 2061              	rtc_calibration_output_config:
 2062              	.LFB370:
 776:../Firmware/GD32VW55x_standard_peripheral/Source/gd32vw55x_rtc.c **** 
 777:../Firmware/GD32VW55x_standard_peripheral/Source/gd32vw55x_rtc.c **** /*!
 778:../Firmware/GD32VW55x_standard_peripheral/Source/gd32vw55x_rtc.c ****     \brief      configure rtc calibration output source
 779:../Firmware/GD32VW55x_standard_peripheral/Source/gd32vw55x_rtc.c ****     \param[in]  source: specify signal to output
 780:../Firmware/GD32VW55x_standard_peripheral/Source/gd32vw55x_rtc.c ****       \arg        RTC_CALIBRATION_512HZ: when the LSE freqency is 32768Hz and the RTC_PSC
 781:../Firmware/GD32VW55x_standard_peripheral/Source/gd32vw55x_rtc.c ****                                          is the default value, output 512Hz signal
 782:../Firmware/GD32VW55x_standard_peripheral/Source/gd32vw55x_rtc.c ****       \arg        RTC_CALIBRATION_1HZ: when the LSE freqency is 32768Hz and the RTC_PSC
 783:../Firmware/GD32VW55x_standard_peripheral/Source/gd32vw55x_rtc.c ****                                        is the default value, output 1Hz signal
 784:../Firmware/GD32VW55x_standard_peripheral/Source/gd32vw55x_rtc.c ****     \param[out] none
 785:../Firmware/GD32VW55x_standard_peripheral/Source/gd32vw55x_rtc.c ****     \retval     none
 786:../Firmware/GD32VW55x_standard_peripheral/Source/gd32vw55x_rtc.c **** */
 787:../Firmware/GD32VW55x_standard_peripheral/Source/gd32vw55x_rtc.c **** void rtc_calibration_output_config(uint32_t source)
 788:../Firmware/GD32VW55x_standard_peripheral/Source/gd32vw55x_rtc.c **** {
 2063              		.loc 1 788 1
 2064              		.cfi_startproc
 2065 0000 0111     		addi	sp,sp,-32
 2066              		.cfi_def_cfa_offset 32
 2067 0002 22CE     		sw	s0,28(sp)
 2068              		.cfi_offset 8, -4
 2069 0004 0010     		addi	s0,sp,32
 2070              		.cfi_def_cfa 8, 0
 2071 0006 2326A4FE 		sw	a0,-20(s0)
 789:../Firmware/GD32VW55x_standard_peripheral/Source/gd32vw55x_rtc.c ****     /* disable the write protection */
 790:../Firmware/GD32VW55x_standard_peripheral/Source/gd32vw55x_rtc.c ****     RTC_WPK = RTC_UNLOCK_KEY1;
 2072              		.loc 1 790 5
 2073 000a B7370040 		li	a5,1073754112
 2074 000e 93874782 		addi	a5,a5,-2012
 2075              		.loc 1 790 13
 2076 0012 1307A00C 		li	a4,202
 2077 0016 98C3     		sw	a4,0(a5)
 791:../Firmware/GD32VW55x_standard_peripheral/Source/gd32vw55x_rtc.c ****     RTC_WPK = RTC_UNLOCK_KEY2;
 2078              		.loc 1 791 5
 2079 0018 B7370040 		li	a5,1073754112
 2080 001c 93874782 		addi	a5,a5,-2012
 2081              		.loc 1 791 13
 2082 0020 13073005 		li	a4,83
 2083 0024 98C3     		sw	a4,0(a5)
 792:../Firmware/GD32VW55x_standard_peripheral/Source/gd32vw55x_rtc.c **** 
 793:../Firmware/GD32VW55x_standard_peripheral/Source/gd32vw55x_rtc.c ****     RTC_CTL &= (uint32_t)~(RTC_CTL_COEN | RTC_CTL_COS);
 2084              		.loc 1 793 13
 2085 0026 B7370040 		li	a5,1073754112
 2086 002a 93878780 		addi	a5,a5,-2040
 2087 002e 9443     		lw	a3,0(a5)
 2088 0030 B7370040 		li	a5,1073754112
 2089 0034 93878780 		addi	a5,a5,-2040
 2090 0038 370778FF 		li	a4,-8912896
 2091 003c 7D17     		addi	a4,a4,-1
 2092 003e 758F     		and	a4,a3,a4
 2093 0040 98C3     		sw	a4,0(a5)
 794:../Firmware/GD32VW55x_standard_peripheral/Source/gd32vw55x_rtc.c **** 
 795:../Firmware/GD32VW55x_standard_peripheral/Source/gd32vw55x_rtc.c ****     RTC_CTL |= (uint32_t)(source);
 2094              		.loc 1 795 13
 2095 0042 B7370040 		li	a5,1073754112
 2096 0046 93878780 		addi	a5,a5,-2040
 2097 004a 9443     		lw	a3,0(a5)
 2098 004c B7370040 		li	a5,1073754112
 2099 0050 93878780 		addi	a5,a5,-2040
 2100 0054 0327C4FE 		lw	a4,-20(s0)
 2101 0058 558F     		or	a4,a3,a4
 2102 005a 98C3     		sw	a4,0(a5)
 796:../Firmware/GD32VW55x_standard_peripheral/Source/gd32vw55x_rtc.c ****     /* enable the write protection */
 797:../Firmware/GD32VW55x_standard_peripheral/Source/gd32vw55x_rtc.c ****     RTC_WPK = RTC_LOCK_KEY;
 2103              		.loc 1 797 5
 2104 005c B7370040 		li	a5,1073754112
 2105 0060 93874782 		addi	a5,a5,-2012
 2106              		.loc 1 797 13
 2107 0064 1307F00F 		li	a4,255
 2108 0068 98C3     		sw	a4,0(a5)
 798:../Firmware/GD32VW55x_standard_peripheral/Source/gd32vw55x_rtc.c **** }
 2109              		.loc 1 798 1
 2110 006a 0100     		nop
 2111 006c 7244     		lw	s0,28(sp)
 2112              		.cfi_restore 8
 2113              		.cfi_def_cfa 2, 32
 2114 006e 0561     		addi	sp,sp,32
 2115              		.cfi_def_cfa_offset 0
 2116 0070 8280     		jr	ra
 2117              		.cfi_endproc
 2118              	.LFE370:
 2120              		.section	.text.rtc_hour_adjust,"ax",@progbits
 2121              		.align	1
 2122              		.globl	rtc_hour_adjust
 2124              	rtc_hour_adjust:
 2125              	.LFB371:
 799:../Firmware/GD32VW55x_standard_peripheral/Source/gd32vw55x_rtc.c **** 
 800:../Firmware/GD32VW55x_standard_peripheral/Source/gd32vw55x_rtc.c **** /*!
 801:../Firmware/GD32VW55x_standard_peripheral/Source/gd32vw55x_rtc.c ****     \brief      adjust the daylight saving time by adding or substracting one hour from the current
 802:../Firmware/GD32VW55x_standard_peripheral/Source/gd32vw55x_rtc.c ****     \param[in]  operation: hour adjustment operation
 803:../Firmware/GD32VW55x_standard_peripheral/Source/gd32vw55x_rtc.c ****       \arg        RTC_CTL_A1H: add one hour
 804:../Firmware/GD32VW55x_standard_peripheral/Source/gd32vw55x_rtc.c ****       \arg        RTC_CTL_S1H: substract one hour
 805:../Firmware/GD32VW55x_standard_peripheral/Source/gd32vw55x_rtc.c ****     \param[out] none
 806:../Firmware/GD32VW55x_standard_peripheral/Source/gd32vw55x_rtc.c ****     \retval     none
 807:../Firmware/GD32VW55x_standard_peripheral/Source/gd32vw55x_rtc.c **** */
 808:../Firmware/GD32VW55x_standard_peripheral/Source/gd32vw55x_rtc.c **** void rtc_hour_adjust(uint32_t operation)
 809:../Firmware/GD32VW55x_standard_peripheral/Source/gd32vw55x_rtc.c **** {
 2126              		.loc 1 809 1
 2127              		.cfi_startproc
 2128 0000 0111     		addi	sp,sp,-32
 2129              		.cfi_def_cfa_offset 32
 2130 0002 22CE     		sw	s0,28(sp)
 2131              		.cfi_offset 8, -4
 2132 0004 0010     		addi	s0,sp,32
 2133              		.cfi_def_cfa 8, 0
 2134 0006 2326A4FE 		sw	a0,-20(s0)
 810:../Firmware/GD32VW55x_standard_peripheral/Source/gd32vw55x_rtc.c ****     /* disable the write protection */
 811:../Firmware/GD32VW55x_standard_peripheral/Source/gd32vw55x_rtc.c ****     RTC_WPK = RTC_UNLOCK_KEY1;
 2135              		.loc 1 811 5
 2136 000a B7370040 		li	a5,1073754112
 2137 000e 93874782 		addi	a5,a5,-2012
 2138              		.loc 1 811 13
 2139 0012 1307A00C 		li	a4,202
 2140 0016 98C3     		sw	a4,0(a5)
 812:../Firmware/GD32VW55x_standard_peripheral/Source/gd32vw55x_rtc.c ****     RTC_WPK = RTC_UNLOCK_KEY2;
 2141              		.loc 1 812 5
 2142 0018 B7370040 		li	a5,1073754112
 2143 001c 93874782 		addi	a5,a5,-2012
 2144              		.loc 1 812 13
 2145 0020 13073005 		li	a4,83
 2146 0024 98C3     		sw	a4,0(a5)
 813:../Firmware/GD32VW55x_standard_peripheral/Source/gd32vw55x_rtc.c **** 
 814:../Firmware/GD32VW55x_standard_peripheral/Source/gd32vw55x_rtc.c ****     RTC_CTL |= (uint32_t)(operation);
 2147              		.loc 1 814 13
 2148 0026 B7370040 		li	a5,1073754112
 2149 002a 93878780 		addi	a5,a5,-2040
 2150 002e 9443     		lw	a3,0(a5)
 2151 0030 B7370040 		li	a5,1073754112
 2152 0034 93878780 		addi	a5,a5,-2040
 2153 0038 0327C4FE 		lw	a4,-20(s0)
 2154 003c 558F     		or	a4,a3,a4
 2155 003e 98C3     		sw	a4,0(a5)
 815:../Firmware/GD32VW55x_standard_peripheral/Source/gd32vw55x_rtc.c **** 
 816:../Firmware/GD32VW55x_standard_peripheral/Source/gd32vw55x_rtc.c ****     /* enable the write protection */
 817:../Firmware/GD32VW55x_standard_peripheral/Source/gd32vw55x_rtc.c ****     RTC_WPK = RTC_LOCK_KEY;
 2156              		.loc 1 817 5
 2157 0040 B7370040 		li	a5,1073754112
 2158 0044 93874782 		addi	a5,a5,-2012
 2159              		.loc 1 817 13
 2160 0048 1307F00F 		li	a4,255
 2161 004c 98C3     		sw	a4,0(a5)
 818:../Firmware/GD32VW55x_standard_peripheral/Source/gd32vw55x_rtc.c **** }
 2162              		.loc 1 818 1
 2163 004e 0100     		nop
 2164 0050 7244     		lw	s0,28(sp)
 2165              		.cfi_restore 8
 2166              		.cfi_def_cfa 2, 32
 2167 0052 0561     		addi	sp,sp,32
 2168              		.cfi_def_cfa_offset 0
 2169 0054 8280     		jr	ra
 2170              		.cfi_endproc
 2171              	.LFE371:
 2173              		.section	.text.rtc_second_adjust,"ax",@progbits
 2174              		.align	1
 2175              		.globl	rtc_second_adjust
 2177              	rtc_second_adjust:
 2178              	.LFB372:
 819:../Firmware/GD32VW55x_standard_peripheral/Source/gd32vw55x_rtc.c **** 
 820:../Firmware/GD32VW55x_standard_peripheral/Source/gd32vw55x_rtc.c **** /*!
 821:../Firmware/GD32VW55x_standard_peripheral/Source/gd32vw55x_rtc.c ****     \brief      adjust RTC second or subsecond value of current time
 822:../Firmware/GD32VW55x_standard_peripheral/Source/gd32vw55x_rtc.c ****     \param[in]  add: add 1s to current time or not
 823:../Firmware/GD32VW55x_standard_peripheral/Source/gd32vw55x_rtc.c ****       \arg        RTC_SHIFT_ADD1S_RESET: no effect
 824:../Firmware/GD32VW55x_standard_peripheral/Source/gd32vw55x_rtc.c ****       \arg        RTC_SHIFT_ADD1S_SET: add 1s to current time
 825:../Firmware/GD32VW55x_standard_peripheral/Source/gd32vw55x_rtc.c ****     \param[in]  minus: number of subsecond to minus from current time(0x0 - 0x7FFF)
 826:../Firmware/GD32VW55x_standard_peripheral/Source/gd32vw55x_rtc.c ****     \param[out] none
 827:../Firmware/GD32VW55x_standard_peripheral/Source/gd32vw55x_rtc.c ****     \retval     ErrStatus: ERROR or SUCCESS
 828:../Firmware/GD32VW55x_standard_peripheral/Source/gd32vw55x_rtc.c **** */
 829:../Firmware/GD32VW55x_standard_peripheral/Source/gd32vw55x_rtc.c **** ErrStatus rtc_second_adjust(uint32_t add, uint32_t minus)
 830:../Firmware/GD32VW55x_standard_peripheral/Source/gd32vw55x_rtc.c **** {
 2179              		.loc 1 830 1
 2180              		.cfi_startproc
 2181 0000 7971     		addi	sp,sp,-48
 2182              		.cfi_def_cfa_offset 48
 2183 0002 06D6     		sw	ra,44(sp)
 2184 0004 22D4     		sw	s0,40(sp)
 2185              		.cfi_offset 1, -4
 2186              		.cfi_offset 8, -8
 2187 0006 0018     		addi	s0,sp,48
 2188              		.cfi_def_cfa 8, 0
 2189 0008 232EA4FC 		sw	a0,-36(s0)
 2190 000c 232CB4FC 		sw	a1,-40(s0)
 831:../Firmware/GD32VW55x_standard_peripheral/Source/gd32vw55x_rtc.c ****     volatile uint32_t time_index = RTC_SHIFTCTL_TIMEOUT;
 2191              		.loc 1 831 23
 2192 0010 8567     		li	a5,4096
 2193 0012 2320F4FE 		sw	a5,-32(s0)
 832:../Firmware/GD32VW55x_standard_peripheral/Source/gd32vw55x_rtc.c ****     ErrStatus error_status = ERROR;
 2194              		.loc 1 832 15
 2195 0016 232604FE 		sw	zero,-20(s0)
 833:../Firmware/GD32VW55x_standard_peripheral/Source/gd32vw55x_rtc.c ****     uint32_t flag_status = RESET;
 2196              		.loc 1 833 14
 2197 001a 232404FE 		sw	zero,-24(s0)
 834:../Firmware/GD32VW55x_standard_peripheral/Source/gd32vw55x_rtc.c ****     uint32_t temp = 0U;
 2198              		.loc 1 834 14
 2199 001e 232204FE 		sw	zero,-28(s0)
 835:../Firmware/GD32VW55x_standard_peripheral/Source/gd32vw55x_rtc.c ****     /* disable the write protection */
 836:../Firmware/GD32VW55x_standard_peripheral/Source/gd32vw55x_rtc.c ****     RTC_WPK = RTC_UNLOCK_KEY1;
 2200              		.loc 1 836 5
 2201 0022 B7370040 		li	a5,1073754112
 2202 0026 93874782 		addi	a5,a5,-2012
 2203              		.loc 1 836 13
 2204 002a 1307A00C 		li	a4,202
 2205 002e 98C3     		sw	a4,0(a5)
 837:../Firmware/GD32VW55x_standard_peripheral/Source/gd32vw55x_rtc.c ****     RTC_WPK = RTC_UNLOCK_KEY2;
 2206              		.loc 1 837 5
 2207 0030 B7370040 		li	a5,1073754112
 2208 0034 93874782 		addi	a5,a5,-2012
 2209              		.loc 1 837 13
 2210 0038 13073005 		li	a4,83
 2211 003c 98C3     		sw	a4,0(a5)
 2212              	.L69:
 838:../Firmware/GD32VW55x_standard_peripheral/Source/gd32vw55x_rtc.c **** 
 839:../Firmware/GD32VW55x_standard_peripheral/Source/gd32vw55x_rtc.c ****     /* check if a shift operation is ongoing */
 840:../Firmware/GD32VW55x_standard_peripheral/Source/gd32vw55x_rtc.c ****     do {
 841:../Firmware/GD32VW55x_standard_peripheral/Source/gd32vw55x_rtc.c ****         flag_status = RTC_STAT & RTC_STAT_SOPF;
 2213              		.loc 1 841 23 discriminator 2
 2214 003e B7370040 		li	a5,1073754112
 2215 0042 9387C780 		addi	a5,a5,-2036
 2216 0046 9C43     		lw	a5,0(a5)
 2217              		.loc 1 841 21 discriminator 2
 2218 0048 A18B     		andi	a5,a5,8
 2219 004a 2324F4FE 		sw	a5,-24(s0)
 842:../Firmware/GD32VW55x_standard_peripheral/Source/gd32vw55x_rtc.c ****     } while((--time_index > 0U) && ((uint32_t)RESET != flag_status));
 2220              		.loc 1 842 14 discriminator 2
 2221 004e 832704FE 		lw	a5,-32(s0)
 2222 0052 FD17     		addi	a5,a5,-1
 2223              		.loc 1 842 5 discriminator 2
 2224 0054 2320F4FE 		sw	a5,-32(s0)
 2225 0058 81C7     		beq	a5,zero,.L68
 2226              		.loc 1 842 33 discriminator 1
 2227 005a 832784FE 		lw	a5,-24(s0)
 2228 005e E5F3     		bne	a5,zero,.L69
 2229              	.L68:
 843:../Firmware/GD32VW55x_standard_peripheral/Source/gd32vw55x_rtc.c **** 
 844:../Firmware/GD32VW55x_standard_peripheral/Source/gd32vw55x_rtc.c ****     /* check if the function of reference clock detection is disabled */
 845:../Firmware/GD32VW55x_standard_peripheral/Source/gd32vw55x_rtc.c ****     temp = RTC_CTL & RTC_CTL_REFEN;
 2230              		.loc 1 845 12
 2231 0060 B7370040 		li	a5,1073754112
 2232 0064 93878780 		addi	a5,a5,-2040
 2233 0068 9C43     		lw	a5,0(a5)
 2234              		.loc 1 845 10
 2235 006a C18B     		andi	a5,a5,16
 2236 006c 2322F4FE 		sw	a5,-28(s0)
 846:../Firmware/GD32VW55x_standard_peripheral/Source/gd32vw55x_rtc.c ****     if((RESET == flag_status) && (RESET == temp)) {
 2237              		.loc 1 846 7
 2238 0070 832784FE 		lw	a5,-24(s0)
 2239 0074 85EB     		bne	a5,zero,.L70
 2240              		.loc 1 846 31 discriminator 1
 2241 0076 832744FE 		lw	a5,-28(s0)
 2242 007a 8DE7     		bne	a5,zero,.L70
 847:../Firmware/GD32VW55x_standard_peripheral/Source/gd32vw55x_rtc.c ****         RTC_SHIFTCTL = (uint32_t)(add | SHIFTCTL_SFS(minus));
 2243              		.loc 1 847 41
 2244 007c 032784FD 		lw	a4,-40(s0)
 2245 0080 A167     		li	a5,32768
 2246 0082 FD17     		addi	a5,a5,-1
 2247 0084 B376F700 		and	a3,a4,a5
 2248              		.loc 1 847 9
 2249 0088 B7370040 		li	a5,1073754112
 2250 008c 9387C782 		addi	a5,a5,-2004
 2251              		.loc 1 847 24
 2252 0090 0327C4FD 		lw	a4,-36(s0)
 2253 0094 558F     		or	a4,a3,a4
 2254              		.loc 1 847 22
 2255 0096 98C3     		sw	a4,0(a5)
 848:../Firmware/GD32VW55x_standard_peripheral/Source/gd32vw55x_rtc.c ****         error_status = rtc_register_sync_wait();
 2256              		.loc 1 848 24
 2257 0098 97000000 		call	rtc_register_sync_wait
 2257      E7800000 
 2258 00a0 2326A4FE 		sw	a0,-20(s0)
 2259              	.L70:
 849:../Firmware/GD32VW55x_standard_peripheral/Source/gd32vw55x_rtc.c ****     }
 850:../Firmware/GD32VW55x_standard_peripheral/Source/gd32vw55x_rtc.c ****     /* enable the write protection */
 851:../Firmware/GD32VW55x_standard_peripheral/Source/gd32vw55x_rtc.c ****     RTC_WPK = RTC_LOCK_KEY;
 2260              		.loc 1 851 5
 2261 00a4 B7370040 		li	a5,1073754112
 2262 00a8 93874782 		addi	a5,a5,-2012
 2263              		.loc 1 851 13
 2264 00ac 1307F00F 		li	a4,255
 2265 00b0 98C3     		sw	a4,0(a5)
 852:../Firmware/GD32VW55x_standard_peripheral/Source/gd32vw55x_rtc.c ****     return error_status;
 2266              		.loc 1 852 12
 2267 00b2 8327C4FE 		lw	a5,-20(s0)
 853:../Firmware/GD32VW55x_standard_peripheral/Source/gd32vw55x_rtc.c **** }
 2268              		.loc 1 853 1
 2269 00b6 3E85     		mv	a0,a5
 2270 00b8 B250     		lw	ra,44(sp)
 2271              		.cfi_restore 1
 2272 00ba 2254     		lw	s0,40(sp)
 2273              		.cfi_restore 8
 2274              		.cfi_def_cfa 2, 48
 2275 00bc 4561     		addi	sp,sp,48
 2276              		.cfi_def_cfa_offset 0
 2277 00be 8280     		jr	ra
 2278              		.cfi_endproc
 2279              	.LFE372:
 2281              		.section	.text.rtc_bypass_shadow_enable,"ax",@progbits
 2282              		.align	1
 2283              		.globl	rtc_bypass_shadow_enable
 2285              	rtc_bypass_shadow_enable:
 2286              	.LFB373:
 854:../Firmware/GD32VW55x_standard_peripheral/Source/gd32vw55x_rtc.c **** 
 855:../Firmware/GD32VW55x_standard_peripheral/Source/gd32vw55x_rtc.c **** /*!
 856:../Firmware/GD32VW55x_standard_peripheral/Source/gd32vw55x_rtc.c ****     \brief      enable RTC bypass shadow registers function
 857:../Firmware/GD32VW55x_standard_peripheral/Source/gd32vw55x_rtc.c ****     \param[in]  none
 858:../Firmware/GD32VW55x_standard_peripheral/Source/gd32vw55x_rtc.c ****     \param[out] none
 859:../Firmware/GD32VW55x_standard_peripheral/Source/gd32vw55x_rtc.c ****     \retval     none
 860:../Firmware/GD32VW55x_standard_peripheral/Source/gd32vw55x_rtc.c **** */
 861:../Firmware/GD32VW55x_standard_peripheral/Source/gd32vw55x_rtc.c **** void rtc_bypass_shadow_enable(void)
 862:../Firmware/GD32VW55x_standard_peripheral/Source/gd32vw55x_rtc.c **** {
 2287              		.loc 1 862 1
 2288              		.cfi_startproc
 2289 0000 4111     		addi	sp,sp,-16
 2290              		.cfi_def_cfa_offset 16
 2291 0002 22C6     		sw	s0,12(sp)
 2292              		.cfi_offset 8, -4
 2293 0004 0008     		addi	s0,sp,16
 2294              		.cfi_def_cfa 8, 0
 863:../Firmware/GD32VW55x_standard_peripheral/Source/gd32vw55x_rtc.c ****     /* disable the write protection */
 864:../Firmware/GD32VW55x_standard_peripheral/Source/gd32vw55x_rtc.c ****     RTC_WPK = RTC_UNLOCK_KEY1;
 2295              		.loc 1 864 5
 2296 0006 B7370040 		li	a5,1073754112
 2297 000a 93874782 		addi	a5,a5,-2012
 2298              		.loc 1 864 13
 2299 000e 1307A00C 		li	a4,202
 2300 0012 98C3     		sw	a4,0(a5)
 865:../Firmware/GD32VW55x_standard_peripheral/Source/gd32vw55x_rtc.c ****     RTC_WPK = RTC_UNLOCK_KEY2;
 2301              		.loc 1 865 5
 2302 0014 B7370040 		li	a5,1073754112
 2303 0018 93874782 		addi	a5,a5,-2012
 2304              		.loc 1 865 13
 2305 001c 13073005 		li	a4,83
 2306 0020 98C3     		sw	a4,0(a5)
 866:../Firmware/GD32VW55x_standard_peripheral/Source/gd32vw55x_rtc.c **** 
 867:../Firmware/GD32VW55x_standard_peripheral/Source/gd32vw55x_rtc.c ****     RTC_CTL |= RTC_CTL_BPSHAD;
 2307              		.loc 1 867 13
 2308 0022 B7370040 		li	a5,1073754112
 2309 0026 93878780 		addi	a5,a5,-2040
 2310 002a 9843     		lw	a4,0(a5)
 2311 002c B7370040 		li	a5,1073754112
 2312 0030 93878780 		addi	a5,a5,-2040
 2313 0034 13670702 		ori	a4,a4,32
 2314 0038 98C3     		sw	a4,0(a5)
 868:../Firmware/GD32VW55x_standard_peripheral/Source/gd32vw55x_rtc.c **** 
 869:../Firmware/GD32VW55x_standard_peripheral/Source/gd32vw55x_rtc.c ****     /* enable the write protection */
 870:../Firmware/GD32VW55x_standard_peripheral/Source/gd32vw55x_rtc.c ****     RTC_WPK = RTC_LOCK_KEY;
 2315              		.loc 1 870 5
 2316 003a B7370040 		li	a5,1073754112
 2317 003e 93874782 		addi	a5,a5,-2012
 2318              		.loc 1 870 13
 2319 0042 1307F00F 		li	a4,255
 2320 0046 98C3     		sw	a4,0(a5)
 871:../Firmware/GD32VW55x_standard_peripheral/Source/gd32vw55x_rtc.c **** }
 2321              		.loc 1 871 1
 2322 0048 0100     		nop
 2323 004a 3244     		lw	s0,12(sp)
 2324              		.cfi_restore 8
 2325              		.cfi_def_cfa 2, 16
 2326 004c 4101     		addi	sp,sp,16
 2327              		.cfi_def_cfa_offset 0
 2328 004e 8280     		jr	ra
 2329              		.cfi_endproc
 2330              	.LFE373:
 2332              		.section	.text.rtc_bypass_shadow_disable,"ax",@progbits
 2333              		.align	1
 2334              		.globl	rtc_bypass_shadow_disable
 2336              	rtc_bypass_shadow_disable:
 2337              	.LFB374:
 872:../Firmware/GD32VW55x_standard_peripheral/Source/gd32vw55x_rtc.c **** 
 873:../Firmware/GD32VW55x_standard_peripheral/Source/gd32vw55x_rtc.c **** /*!
 874:../Firmware/GD32VW55x_standard_peripheral/Source/gd32vw55x_rtc.c ****     \brief      disable RTC bypass shadow registers function
 875:../Firmware/GD32VW55x_standard_peripheral/Source/gd32vw55x_rtc.c ****     \param[in]  none
 876:../Firmware/GD32VW55x_standard_peripheral/Source/gd32vw55x_rtc.c ****     \param[out] none
 877:../Firmware/GD32VW55x_standard_peripheral/Source/gd32vw55x_rtc.c ****     \retval     none
 878:../Firmware/GD32VW55x_standard_peripheral/Source/gd32vw55x_rtc.c **** */
 879:../Firmware/GD32VW55x_standard_peripheral/Source/gd32vw55x_rtc.c **** void rtc_bypass_shadow_disable(void)
 880:../Firmware/GD32VW55x_standard_peripheral/Source/gd32vw55x_rtc.c **** {
 2338              		.loc 1 880 1
 2339              		.cfi_startproc
 2340 0000 4111     		addi	sp,sp,-16
 2341              		.cfi_def_cfa_offset 16
 2342 0002 22C6     		sw	s0,12(sp)
 2343              		.cfi_offset 8, -4
 2344 0004 0008     		addi	s0,sp,16
 2345              		.cfi_def_cfa 8, 0
 881:../Firmware/GD32VW55x_standard_peripheral/Source/gd32vw55x_rtc.c ****     /* disable the write protection */
 882:../Firmware/GD32VW55x_standard_peripheral/Source/gd32vw55x_rtc.c ****     RTC_WPK = RTC_UNLOCK_KEY1;
 2346              		.loc 1 882 5
 2347 0006 B7370040 		li	a5,1073754112
 2348 000a 93874782 		addi	a5,a5,-2012
 2349              		.loc 1 882 13
 2350 000e 1307A00C 		li	a4,202
 2351 0012 98C3     		sw	a4,0(a5)
 883:../Firmware/GD32VW55x_standard_peripheral/Source/gd32vw55x_rtc.c ****     RTC_WPK = RTC_UNLOCK_KEY2;
 2352              		.loc 1 883 5
 2353 0014 B7370040 		li	a5,1073754112
 2354 0018 93874782 		addi	a5,a5,-2012
 2355              		.loc 1 883 13
 2356 001c 13073005 		li	a4,83
 2357 0020 98C3     		sw	a4,0(a5)
 884:../Firmware/GD32VW55x_standard_peripheral/Source/gd32vw55x_rtc.c **** 
 885:../Firmware/GD32VW55x_standard_peripheral/Source/gd32vw55x_rtc.c ****     RTC_CTL &= ~RTC_CTL_BPSHAD;
 2358              		.loc 1 885 13
 2359 0022 B7370040 		li	a5,1073754112
 2360 0026 93878780 		addi	a5,a5,-2040
 2361 002a 9843     		lw	a4,0(a5)
 2362 002c B7370040 		li	a5,1073754112
 2363 0030 93878780 		addi	a5,a5,-2040
 2364 0034 1377F7FD 		andi	a4,a4,-33
 2365 0038 98C3     		sw	a4,0(a5)
 886:../Firmware/GD32VW55x_standard_peripheral/Source/gd32vw55x_rtc.c **** 
 887:../Firmware/GD32VW55x_standard_peripheral/Source/gd32vw55x_rtc.c ****     /* enable the write protection */
 888:../Firmware/GD32VW55x_standard_peripheral/Source/gd32vw55x_rtc.c ****     RTC_WPK = RTC_LOCK_KEY;
 2366              		.loc 1 888 5
 2367 003a B7370040 		li	a5,1073754112
 2368 003e 93874782 		addi	a5,a5,-2012
 2369              		.loc 1 888 13
 2370 0042 1307F00F 		li	a4,255
 2371 0046 98C3     		sw	a4,0(a5)
 889:../Firmware/GD32VW55x_standard_peripheral/Source/gd32vw55x_rtc.c **** }
 2372              		.loc 1 889 1
 2373 0048 0100     		nop
 2374 004a 3244     		lw	s0,12(sp)
 2375              		.cfi_restore 8
 2376              		.cfi_def_cfa 2, 16
 2377 004c 4101     		addi	sp,sp,16
 2378              		.cfi_def_cfa_offset 0
 2379 004e 8280     		jr	ra
 2380              		.cfi_endproc
 2381              	.LFE374:
 2383              		.section	.text.rtc_refclock_detection_enable,"ax",@progbits
 2384              		.align	1
 2385              		.globl	rtc_refclock_detection_enable
 2387              	rtc_refclock_detection_enable:
 2388              	.LFB375:
 890:../Firmware/GD32VW55x_standard_peripheral/Source/gd32vw55x_rtc.c **** 
 891:../Firmware/GD32VW55x_standard_peripheral/Source/gd32vw55x_rtc.c **** /*!
 892:../Firmware/GD32VW55x_standard_peripheral/Source/gd32vw55x_rtc.c ****     \brief      enable RTC reference clock detection function
 893:../Firmware/GD32VW55x_standard_peripheral/Source/gd32vw55x_rtc.c ****     \param[in]  none
 894:../Firmware/GD32VW55x_standard_peripheral/Source/gd32vw55x_rtc.c ****     \param[out] none
 895:../Firmware/GD32VW55x_standard_peripheral/Source/gd32vw55x_rtc.c ****     \retval     ErrStatus: ERROR or SUCCESS
 896:../Firmware/GD32VW55x_standard_peripheral/Source/gd32vw55x_rtc.c **** */
 897:../Firmware/GD32VW55x_standard_peripheral/Source/gd32vw55x_rtc.c **** ErrStatus rtc_refclock_detection_enable(void)
 898:../Firmware/GD32VW55x_standard_peripheral/Source/gd32vw55x_rtc.c **** {
 2389              		.loc 1 898 1
 2390              		.cfi_startproc
 2391 0000 0111     		addi	sp,sp,-32
 2392              		.cfi_def_cfa_offset 32
 2393 0002 06CE     		sw	ra,28(sp)
 2394 0004 22CC     		sw	s0,24(sp)
 2395              		.cfi_offset 1, -4
 2396              		.cfi_offset 8, -8
 2397 0006 0010     		addi	s0,sp,32
 2398              		.cfi_def_cfa 8, 0
 899:../Firmware/GD32VW55x_standard_peripheral/Source/gd32vw55x_rtc.c ****     ErrStatus error_status = ERROR;
 2399              		.loc 1 899 15
 2400 0008 232604FE 		sw	zero,-20(s0)
 900:../Firmware/GD32VW55x_standard_peripheral/Source/gd32vw55x_rtc.c **** 
 901:../Firmware/GD32VW55x_standard_peripheral/Source/gd32vw55x_rtc.c ****     /* disable the write protection */
 902:../Firmware/GD32VW55x_standard_peripheral/Source/gd32vw55x_rtc.c ****     RTC_WPK = RTC_UNLOCK_KEY1;
 2401              		.loc 1 902 5
 2402 000c B7370040 		li	a5,1073754112
 2403 0010 93874782 		addi	a5,a5,-2012
 2404              		.loc 1 902 13
 2405 0014 1307A00C 		li	a4,202
 2406 0018 98C3     		sw	a4,0(a5)
 903:../Firmware/GD32VW55x_standard_peripheral/Source/gd32vw55x_rtc.c ****     RTC_WPK = RTC_UNLOCK_KEY2;
 2407              		.loc 1 903 5
 2408 001a B7370040 		li	a5,1073754112
 2409 001e 93874782 		addi	a5,a5,-2012
 2410              		.loc 1 903 13
 2411 0022 13073005 		li	a4,83
 2412 0026 98C3     		sw	a4,0(a5)
 904:../Firmware/GD32VW55x_standard_peripheral/Source/gd32vw55x_rtc.c **** 
 905:../Firmware/GD32VW55x_standard_peripheral/Source/gd32vw55x_rtc.c ****     /* enter init mode */
 906:../Firmware/GD32VW55x_standard_peripheral/Source/gd32vw55x_rtc.c ****     error_status = rtc_init_mode_enter();
 2413              		.loc 1 906 20
 2414 0028 97000000 		call	rtc_init_mode_enter
 2414      E7800000 
 2415 0030 2326A4FE 		sw	a0,-20(s0)
 907:../Firmware/GD32VW55x_standard_peripheral/Source/gd32vw55x_rtc.c **** 
 908:../Firmware/GD32VW55x_standard_peripheral/Source/gd32vw55x_rtc.c ****     if(ERROR != error_status) {
 2416              		.loc 1 908 7
 2417 0034 8327C4FE 		lw	a5,-20(s0)
 2418 0038 8DC3     		beq	a5,zero,.L75
 909:../Firmware/GD32VW55x_standard_peripheral/Source/gd32vw55x_rtc.c ****         RTC_CTL |= (uint32_t)RTC_CTL_REFEN;
 2419              		.loc 1 909 17
 2420 003a B7370040 		li	a5,1073754112
 2421 003e 93878780 		addi	a5,a5,-2040
 2422 0042 9843     		lw	a4,0(a5)
 2423 0044 B7370040 		li	a5,1073754112
 2424 0048 93878780 		addi	a5,a5,-2040
 2425 004c 13670701 		ori	a4,a4,16
 2426 0050 98C3     		sw	a4,0(a5)
 910:../Firmware/GD32VW55x_standard_peripheral/Source/gd32vw55x_rtc.c ****         /* exit init mode */
 911:../Firmware/GD32VW55x_standard_peripheral/Source/gd32vw55x_rtc.c ****         rtc_init_mode_exit();
 2427              		.loc 1 911 9
 2428 0052 97000000 		call	rtc_init_mode_exit
 2428      E7800000 
 2429              	.L75:
 912:../Firmware/GD32VW55x_standard_peripheral/Source/gd32vw55x_rtc.c ****     }
 913:../Firmware/GD32VW55x_standard_peripheral/Source/gd32vw55x_rtc.c ****     /* enable the write protection */
 914:../Firmware/GD32VW55x_standard_peripheral/Source/gd32vw55x_rtc.c ****     RTC_WPK = RTC_LOCK_KEY;
 2430              		.loc 1 914 5
 2431 005a B7370040 		li	a5,1073754112
 2432 005e 93874782 		addi	a5,a5,-2012
 2433              		.loc 1 914 13
 2434 0062 1307F00F 		li	a4,255
 2435 0066 98C3     		sw	a4,0(a5)
 915:../Firmware/GD32VW55x_standard_peripheral/Source/gd32vw55x_rtc.c ****     return error_status;
 2436              		.loc 1 915 12
 2437 0068 8327C4FE 		lw	a5,-20(s0)
 916:../Firmware/GD32VW55x_standard_peripheral/Source/gd32vw55x_rtc.c **** }
 2438              		.loc 1 916 1
 2439 006c 3E85     		mv	a0,a5
 2440 006e F240     		lw	ra,28(sp)
 2441              		.cfi_restore 1
 2442 0070 6244     		lw	s0,24(sp)
 2443              		.cfi_restore 8
 2444              		.cfi_def_cfa 2, 32
 2445 0072 0561     		addi	sp,sp,32
 2446              		.cfi_def_cfa_offset 0
 2447 0074 8280     		jr	ra
 2448              		.cfi_endproc
 2449              	.LFE375:
 2451              		.section	.text.rtc_refclock_detection_disable,"ax",@progbits
 2452              		.align	1
 2453              		.globl	rtc_refclock_detection_disable
 2455              	rtc_refclock_detection_disable:
 2456              	.LFB376:
 917:../Firmware/GD32VW55x_standard_peripheral/Source/gd32vw55x_rtc.c **** 
 918:../Firmware/GD32VW55x_standard_peripheral/Source/gd32vw55x_rtc.c **** /*!
 919:../Firmware/GD32VW55x_standard_peripheral/Source/gd32vw55x_rtc.c ****     \brief      disable RTC reference clock detection function
 920:../Firmware/GD32VW55x_standard_peripheral/Source/gd32vw55x_rtc.c ****     \param[in]  none
 921:../Firmware/GD32VW55x_standard_peripheral/Source/gd32vw55x_rtc.c ****     \param[out] none
 922:../Firmware/GD32VW55x_standard_peripheral/Source/gd32vw55x_rtc.c ****     \retval     ErrStatus: ERROR or SUCCESS
 923:../Firmware/GD32VW55x_standard_peripheral/Source/gd32vw55x_rtc.c **** */
 924:../Firmware/GD32VW55x_standard_peripheral/Source/gd32vw55x_rtc.c **** ErrStatus rtc_refclock_detection_disable(void)
 925:../Firmware/GD32VW55x_standard_peripheral/Source/gd32vw55x_rtc.c **** {
 2457              		.loc 1 925 1
 2458              		.cfi_startproc
 2459 0000 0111     		addi	sp,sp,-32
 2460              		.cfi_def_cfa_offset 32
 2461 0002 06CE     		sw	ra,28(sp)
 2462 0004 22CC     		sw	s0,24(sp)
 2463              		.cfi_offset 1, -4
 2464              		.cfi_offset 8, -8
 2465 0006 0010     		addi	s0,sp,32
 2466              		.cfi_def_cfa 8, 0
 926:../Firmware/GD32VW55x_standard_peripheral/Source/gd32vw55x_rtc.c ****     ErrStatus error_status = ERROR;
 2467              		.loc 1 926 15
 2468 0008 232604FE 		sw	zero,-20(s0)
 927:../Firmware/GD32VW55x_standard_peripheral/Source/gd32vw55x_rtc.c **** 
 928:../Firmware/GD32VW55x_standard_peripheral/Source/gd32vw55x_rtc.c ****     /* disable the write protection */
 929:../Firmware/GD32VW55x_standard_peripheral/Source/gd32vw55x_rtc.c ****     RTC_WPK = RTC_UNLOCK_KEY1;
 2469              		.loc 1 929 5
 2470 000c B7370040 		li	a5,1073754112
 2471 0010 93874782 		addi	a5,a5,-2012
 2472              		.loc 1 929 13
 2473 0014 1307A00C 		li	a4,202
 2474 0018 98C3     		sw	a4,0(a5)
 930:../Firmware/GD32VW55x_standard_peripheral/Source/gd32vw55x_rtc.c ****     RTC_WPK = RTC_UNLOCK_KEY2;
 2475              		.loc 1 930 5
 2476 001a B7370040 		li	a5,1073754112
 2477 001e 93874782 		addi	a5,a5,-2012
 2478              		.loc 1 930 13
 2479 0022 13073005 		li	a4,83
 2480 0026 98C3     		sw	a4,0(a5)
 931:../Firmware/GD32VW55x_standard_peripheral/Source/gd32vw55x_rtc.c **** 
 932:../Firmware/GD32VW55x_standard_peripheral/Source/gd32vw55x_rtc.c ****     /* enter init mode */
 933:../Firmware/GD32VW55x_standard_peripheral/Source/gd32vw55x_rtc.c ****     error_status = rtc_init_mode_enter();
 2481              		.loc 1 933 20
 2482 0028 97000000 		call	rtc_init_mode_enter
 2482      E7800000 
 2483 0030 2326A4FE 		sw	a0,-20(s0)
 934:../Firmware/GD32VW55x_standard_peripheral/Source/gd32vw55x_rtc.c **** 
 935:../Firmware/GD32VW55x_standard_peripheral/Source/gd32vw55x_rtc.c ****     if(ERROR != error_status) {
 2484              		.loc 1 935 7
 2485 0034 8327C4FE 		lw	a5,-20(s0)
 2486 0038 85C3     		beq	a5,zero,.L78
 936:../Firmware/GD32VW55x_standard_peripheral/Source/gd32vw55x_rtc.c ****         RTC_CTL &= (uint32_t)~RTC_CTL_REFEN;
 2487              		.loc 1 936 17
 2488 003a B7370040 		li	a5,1073754112
 2489 003e 93878780 		addi	a5,a5,-2040
 2490 0042 9843     		lw	a4,0(a5)
 2491 0044 B7370040 		li	a5,1073754112
 2492 0048 93878780 		addi	a5,a5,-2040
 2493 004c 3D9B     		andi	a4,a4,-17
 2494 004e 98C3     		sw	a4,0(a5)
 937:../Firmware/GD32VW55x_standard_peripheral/Source/gd32vw55x_rtc.c ****         /* exit init mode */
 938:../Firmware/GD32VW55x_standard_peripheral/Source/gd32vw55x_rtc.c ****         rtc_init_mode_exit();
 2495              		.loc 1 938 9
 2496 0050 97000000 		call	rtc_init_mode_exit
 2496      E7800000 
 2497              	.L78:
 939:../Firmware/GD32VW55x_standard_peripheral/Source/gd32vw55x_rtc.c ****     }
 940:../Firmware/GD32VW55x_standard_peripheral/Source/gd32vw55x_rtc.c **** 
 941:../Firmware/GD32VW55x_standard_peripheral/Source/gd32vw55x_rtc.c ****     /* enable the write protection */
 942:../Firmware/GD32VW55x_standard_peripheral/Source/gd32vw55x_rtc.c ****     RTC_WPK = RTC_LOCK_KEY;
 2498              		.loc 1 942 5
 2499 0058 B7370040 		li	a5,1073754112
 2500 005c 93874782 		addi	a5,a5,-2012
 2501              		.loc 1 942 13
 2502 0060 1307F00F 		li	a4,255
 2503 0064 98C3     		sw	a4,0(a5)
 943:../Firmware/GD32VW55x_standard_peripheral/Source/gd32vw55x_rtc.c **** 
 944:../Firmware/GD32VW55x_standard_peripheral/Source/gd32vw55x_rtc.c ****     return error_status;
 2504              		.loc 1 944 12
 2505 0066 8327C4FE 		lw	a5,-20(s0)
 945:../Firmware/GD32VW55x_standard_peripheral/Source/gd32vw55x_rtc.c **** }
 2506              		.loc 1 945 1
 2507 006a 3E85     		mv	a0,a5
 2508 006c F240     		lw	ra,28(sp)
 2509              		.cfi_restore 1
 2510 006e 6244     		lw	s0,24(sp)
 2511              		.cfi_restore 8
 2512              		.cfi_def_cfa 2, 32
 2513 0070 0561     		addi	sp,sp,32
 2514              		.cfi_def_cfa_offset 0
 2515 0072 8280     		jr	ra
 2516              		.cfi_endproc
 2517              	.LFE376:
 2519              		.section	.text.rtc_wakeup_enable,"ax",@progbits
 2520              		.align	1
 2521              		.globl	rtc_wakeup_enable
 2523              	rtc_wakeup_enable:
 2524              	.LFB377:
 946:../Firmware/GD32VW55x_standard_peripheral/Source/gd32vw55x_rtc.c **** 
 947:../Firmware/GD32VW55x_standard_peripheral/Source/gd32vw55x_rtc.c **** /*!
 948:../Firmware/GD32VW55x_standard_peripheral/Source/gd32vw55x_rtc.c ****     \brief      enable RTC auto wakeup function
 949:../Firmware/GD32VW55x_standard_peripheral/Source/gd32vw55x_rtc.c ****     \param[in]  none
 950:../Firmware/GD32VW55x_standard_peripheral/Source/gd32vw55x_rtc.c ****     \param[out] none
 951:../Firmware/GD32VW55x_standard_peripheral/Source/gd32vw55x_rtc.c ****     \retval     none
 952:../Firmware/GD32VW55x_standard_peripheral/Source/gd32vw55x_rtc.c **** */
 953:../Firmware/GD32VW55x_standard_peripheral/Source/gd32vw55x_rtc.c **** void rtc_wakeup_enable(void)
 954:../Firmware/GD32VW55x_standard_peripheral/Source/gd32vw55x_rtc.c **** {
 2525              		.loc 1 954 1
 2526              		.cfi_startproc
 2527 0000 4111     		addi	sp,sp,-16
 2528              		.cfi_def_cfa_offset 16
 2529 0002 22C6     		sw	s0,12(sp)
 2530              		.cfi_offset 8, -4
 2531 0004 0008     		addi	s0,sp,16
 2532              		.cfi_def_cfa 8, 0
 955:../Firmware/GD32VW55x_standard_peripheral/Source/gd32vw55x_rtc.c ****     /* disable the write protection */
 956:../Firmware/GD32VW55x_standard_peripheral/Source/gd32vw55x_rtc.c ****     RTC_WPK = RTC_UNLOCK_KEY1;
 2533              		.loc 1 956 5
 2534 0006 B7370040 		li	a5,1073754112
 2535 000a 93874782 		addi	a5,a5,-2012
 2536              		.loc 1 956 13
 2537 000e 1307A00C 		li	a4,202
 2538 0012 98C3     		sw	a4,0(a5)
 957:../Firmware/GD32VW55x_standard_peripheral/Source/gd32vw55x_rtc.c ****     RTC_WPK = RTC_UNLOCK_KEY2;
 2539              		.loc 1 957 5
 2540 0014 B7370040 		li	a5,1073754112
 2541 0018 93874782 		addi	a5,a5,-2012
 2542              		.loc 1 957 13
 2543 001c 13073005 		li	a4,83
 2544 0020 98C3     		sw	a4,0(a5)
 958:../Firmware/GD32VW55x_standard_peripheral/Source/gd32vw55x_rtc.c **** 
 959:../Firmware/GD32VW55x_standard_peripheral/Source/gd32vw55x_rtc.c ****     RTC_CTL |= RTC_CTL_WTEN;
 2545              		.loc 1 959 13
 2546 0022 B7370040 		li	a5,1073754112
 2547 0026 93878780 		addi	a5,a5,-2040
 2548 002a 9843     		lw	a4,0(a5)
 2549 002c B7370040 		li	a5,1073754112
 2550 0030 93878780 		addi	a5,a5,-2040
 2551 0034 13670740 		ori	a4,a4,1024
 2552 0038 98C3     		sw	a4,0(a5)
 960:../Firmware/GD32VW55x_standard_peripheral/Source/gd32vw55x_rtc.c **** 
 961:../Firmware/GD32VW55x_standard_peripheral/Source/gd32vw55x_rtc.c ****     /* enable the write protection */
 962:../Firmware/GD32VW55x_standard_peripheral/Source/gd32vw55x_rtc.c ****     RTC_WPK = RTC_LOCK_KEY;
 2553              		.loc 1 962 5
 2554 003a B7370040 		li	a5,1073754112
 2555 003e 93874782 		addi	a5,a5,-2012
 2556              		.loc 1 962 13
 2557 0042 1307F00F 		li	a4,255
 2558 0046 98C3     		sw	a4,0(a5)
 963:../Firmware/GD32VW55x_standard_peripheral/Source/gd32vw55x_rtc.c **** }
 2559              		.loc 1 963 1
 2560 0048 0100     		nop
 2561 004a 3244     		lw	s0,12(sp)
 2562              		.cfi_restore 8
 2563              		.cfi_def_cfa 2, 16
 2564 004c 4101     		addi	sp,sp,16
 2565              		.cfi_def_cfa_offset 0
 2566 004e 8280     		jr	ra
 2567              		.cfi_endproc
 2568              	.LFE377:
 2570              		.section	.text.rtc_wakeup_disable,"ax",@progbits
 2571              		.align	1
 2572              		.globl	rtc_wakeup_disable
 2574              	rtc_wakeup_disable:
 2575              	.LFB378:
 964:../Firmware/GD32VW55x_standard_peripheral/Source/gd32vw55x_rtc.c **** 
 965:../Firmware/GD32VW55x_standard_peripheral/Source/gd32vw55x_rtc.c **** /*!
 966:../Firmware/GD32VW55x_standard_peripheral/Source/gd32vw55x_rtc.c ****     \brief      disable RTC auto wakeup function
 967:../Firmware/GD32VW55x_standard_peripheral/Source/gd32vw55x_rtc.c ****     \param[in]  none
 968:../Firmware/GD32VW55x_standard_peripheral/Source/gd32vw55x_rtc.c ****     \param[out] none
 969:../Firmware/GD32VW55x_standard_peripheral/Source/gd32vw55x_rtc.c ****     \retval     ErrStatus: ERROR or SUCCESS
 970:../Firmware/GD32VW55x_standard_peripheral/Source/gd32vw55x_rtc.c **** */
 971:../Firmware/GD32VW55x_standard_peripheral/Source/gd32vw55x_rtc.c **** ErrStatus rtc_wakeup_disable(void)
 972:../Firmware/GD32VW55x_standard_peripheral/Source/gd32vw55x_rtc.c **** {
 2576              		.loc 1 972 1
 2577              		.cfi_startproc
 2578 0000 0111     		addi	sp,sp,-32
 2579              		.cfi_def_cfa_offset 32
 2580 0002 22CE     		sw	s0,28(sp)
 2581              		.cfi_offset 8, -4
 2582 0004 0010     		addi	s0,sp,32
 2583              		.cfi_def_cfa 8, 0
 973:../Firmware/GD32VW55x_standard_peripheral/Source/gd32vw55x_rtc.c ****     ErrStatus error_status = ERROR;
 2584              		.loc 1 973 15
 2585 0006 232604FE 		sw	zero,-20(s0)
 974:../Firmware/GD32VW55x_standard_peripheral/Source/gd32vw55x_rtc.c ****     volatile uint32_t time_index = RTC_WTWF_TIMEOUT;
 2586              		.loc 1 974 23
 2587 000a 9167     		li	a5,16384
 2588 000c 2322F4FE 		sw	a5,-28(s0)
 975:../Firmware/GD32VW55x_standard_peripheral/Source/gd32vw55x_rtc.c ****     uint32_t flag_status = RESET;
 2589              		.loc 1 975 14
 2590 0010 232404FE 		sw	zero,-24(s0)
 976:../Firmware/GD32VW55x_standard_peripheral/Source/gd32vw55x_rtc.c **** 
 977:../Firmware/GD32VW55x_standard_peripheral/Source/gd32vw55x_rtc.c ****     /* disable the write protection */
 978:../Firmware/GD32VW55x_standard_peripheral/Source/gd32vw55x_rtc.c ****     RTC_WPK = RTC_UNLOCK_KEY1;
 2591              		.loc 1 978 5
 2592 0014 B7370040 		li	a5,1073754112
 2593 0018 93874782 		addi	a5,a5,-2012
 2594              		.loc 1 978 13
 2595 001c 1307A00C 		li	a4,202
 2596 0020 98C3     		sw	a4,0(a5)
 979:../Firmware/GD32VW55x_standard_peripheral/Source/gd32vw55x_rtc.c ****     RTC_WPK = RTC_UNLOCK_KEY2;
 2597              		.loc 1 979 5
 2598 0022 B7370040 		li	a5,1073754112
 2599 0026 93874782 		addi	a5,a5,-2012
 2600              		.loc 1 979 13
 2601 002a 13073005 		li	a4,83
 2602 002e 98C3     		sw	a4,0(a5)
 980:../Firmware/GD32VW55x_standard_peripheral/Source/gd32vw55x_rtc.c **** 
 981:../Firmware/GD32VW55x_standard_peripheral/Source/gd32vw55x_rtc.c ****     RTC_CTL &= ~RTC_CTL_WTEN;
 2603              		.loc 1 981 13
 2604 0030 B7370040 		li	a5,1073754112
 2605 0034 93878780 		addi	a5,a5,-2040
 2606 0038 9843     		lw	a4,0(a5)
 2607 003a B7370040 		li	a5,1073754112
 2608 003e 93878780 		addi	a5,a5,-2040
 2609 0042 1377F7BF 		andi	a4,a4,-1025
 2610 0046 98C3     		sw	a4,0(a5)
 2611              	.L83:
 982:../Firmware/GD32VW55x_standard_peripheral/Source/gd32vw55x_rtc.c ****     /* wait until the WTWF flag to be set */
 983:../Firmware/GD32VW55x_standard_peripheral/Source/gd32vw55x_rtc.c ****     do {
 984:../Firmware/GD32VW55x_standard_peripheral/Source/gd32vw55x_rtc.c ****         flag_status = RTC_STAT & RTC_STAT_WTWF;
 2612              		.loc 1 984 23 discriminator 2
 2613 0048 B7370040 		li	a5,1073754112
 2614 004c 9387C780 		addi	a5,a5,-2036
 2615 0050 9C43     		lw	a5,0(a5)
 2616              		.loc 1 984 21 discriminator 2
 2617 0052 918B     		andi	a5,a5,4
 2618 0054 2324F4FE 		sw	a5,-24(s0)
 985:../Firmware/GD32VW55x_standard_peripheral/Source/gd32vw55x_rtc.c ****     } while((--time_index > 0U) && ((uint32_t)RESET == flag_status));
 2619              		.loc 1 985 14 discriminator 2
 2620 0058 832744FE 		lw	a5,-28(s0)
 2621 005c FD17     		addi	a5,a5,-1
 2622              		.loc 1 985 5 discriminator 2
 2623 005e 2322F4FE 		sw	a5,-28(s0)
 2624 0062 81C7     		beq	a5,zero,.L82
 2625              		.loc 1 985 33 discriminator 1
 2626 0064 832784FE 		lw	a5,-24(s0)
 2627 0068 E5D3     		beq	a5,zero,.L83
 2628              	.L82:
 986:../Firmware/GD32VW55x_standard_peripheral/Source/gd32vw55x_rtc.c **** 
 987:../Firmware/GD32VW55x_standard_peripheral/Source/gd32vw55x_rtc.c ****     if((uint32_t)RESET == flag_status) {
 2629              		.loc 1 987 7
 2630 006a 832784FE 		lw	a5,-24(s0)
 2631 006e 81E7     		bne	a5,zero,.L84
 988:../Firmware/GD32VW55x_standard_peripheral/Source/gd32vw55x_rtc.c ****         error_status = ERROR;
 2632              		.loc 1 988 22
 2633 0070 232604FE 		sw	zero,-20(s0)
 2634 0074 21A0     		j	.L85
 2635              	.L84:
 989:../Firmware/GD32VW55x_standard_peripheral/Source/gd32vw55x_rtc.c ****     } else {
 990:../Firmware/GD32VW55x_standard_peripheral/Source/gd32vw55x_rtc.c ****         error_status = SUCCESS;
 2636              		.loc 1 990 22
 2637 0076 8547     		li	a5,1
 2638 0078 2326F4FE 		sw	a5,-20(s0)
 2639              	.L85:
 991:../Firmware/GD32VW55x_standard_peripheral/Source/gd32vw55x_rtc.c ****     }
 992:../Firmware/GD32VW55x_standard_peripheral/Source/gd32vw55x_rtc.c **** 
 993:../Firmware/GD32VW55x_standard_peripheral/Source/gd32vw55x_rtc.c ****     /* enable the write protection */
 994:../Firmware/GD32VW55x_standard_peripheral/Source/gd32vw55x_rtc.c ****     RTC_WPK = RTC_LOCK_KEY;
 2640              		.loc 1 994 5
 2641 007c B7370040 		li	a5,1073754112
 2642 0080 93874782 		addi	a5,a5,-2012
 2643              		.loc 1 994 13
 2644 0084 1307F00F 		li	a4,255
 2645 0088 98C3     		sw	a4,0(a5)
 995:../Firmware/GD32VW55x_standard_peripheral/Source/gd32vw55x_rtc.c **** 
 996:../Firmware/GD32VW55x_standard_peripheral/Source/gd32vw55x_rtc.c ****     return error_status;
 2646              		.loc 1 996 12
 2647 008a 8327C4FE 		lw	a5,-20(s0)
 997:../Firmware/GD32VW55x_standard_peripheral/Source/gd32vw55x_rtc.c **** }
 2648              		.loc 1 997 1
 2649 008e 3E85     		mv	a0,a5
 2650 0090 7244     		lw	s0,28(sp)
 2651              		.cfi_restore 8
 2652              		.cfi_def_cfa 2, 32
 2653 0092 0561     		addi	sp,sp,32
 2654              		.cfi_def_cfa_offset 0
 2655 0094 8280     		jr	ra
 2656              		.cfi_endproc
 2657              	.LFE378:
 2659              		.section	.text.rtc_wakeup_clock_set,"ax",@progbits
 2660              		.align	1
 2661              		.globl	rtc_wakeup_clock_set
 2663              	rtc_wakeup_clock_set:
 2664              	.LFB379:
 998:../Firmware/GD32VW55x_standard_peripheral/Source/gd32vw55x_rtc.c **** 
 999:../Firmware/GD32VW55x_standard_peripheral/Source/gd32vw55x_rtc.c **** /*!
1000:../Firmware/GD32VW55x_standard_peripheral/Source/gd32vw55x_rtc.c ****     \brief      set RTC auto wakeup timer clock
1001:../Firmware/GD32VW55x_standard_peripheral/Source/gd32vw55x_rtc.c ****     \param[in]  wakeup_clock:
1002:../Firmware/GD32VW55x_standard_peripheral/Source/gd32vw55x_rtc.c ****       \arg        WAKEUP_RTCCK_DIV16: RTC auto wakeup timer clock is RTC clock divided by 16
1003:../Firmware/GD32VW55x_standard_peripheral/Source/gd32vw55x_rtc.c ****       \arg        WAKEUP_RTCCK_DIV8: RTC auto wakeup timer clock is RTC clock divided by 8
1004:../Firmware/GD32VW55x_standard_peripheral/Source/gd32vw55x_rtc.c ****       \arg        WAKEUP_RTCCK_DIV4: RTC auto wakeup timer clock is RTC clock divided by 4
1005:../Firmware/GD32VW55x_standard_peripheral/Source/gd32vw55x_rtc.c ****       \arg        WAKEUP_RTCCK_DIV2: RTC auto wakeup timer clock is RTC clock divided by 2
1006:../Firmware/GD32VW55x_standard_peripheral/Source/gd32vw55x_rtc.c ****       \arg        WAKEUP_CKSPRE: RTC auto wakeup timer clock is ckspre
1007:../Firmware/GD32VW55x_standard_peripheral/Source/gd32vw55x_rtc.c ****       \arg        WAKEUP_CKSPRE_2EXP16: RTC auto wakeup timer clock is ckspre and wakeup timer add 
1008:../Firmware/GD32VW55x_standard_peripheral/Source/gd32vw55x_rtc.c ****     \param[out] none
1009:../Firmware/GD32VW55x_standard_peripheral/Source/gd32vw55x_rtc.c ****     \retval     ErrStatus: ERROR or SUCCESS
1010:../Firmware/GD32VW55x_standard_peripheral/Source/gd32vw55x_rtc.c **** */
1011:../Firmware/GD32VW55x_standard_peripheral/Source/gd32vw55x_rtc.c **** ErrStatus rtc_wakeup_clock_set(uint8_t wakeup_clock)
1012:../Firmware/GD32VW55x_standard_peripheral/Source/gd32vw55x_rtc.c **** {
 2665              		.loc 1 1012 1
 2666              		.cfi_startproc
 2667 0000 7971     		addi	sp,sp,-48
 2668              		.cfi_def_cfa_offset 48
 2669 0002 22D6     		sw	s0,44(sp)
 2670              		.cfi_offset 8, -4
 2671 0004 0018     		addi	s0,sp,48
 2672              		.cfi_def_cfa 8, 0
 2673 0006 AA87     		mv	a5,a0
 2674 0008 A30FF4FC 		sb	a5,-33(s0)
1013:../Firmware/GD32VW55x_standard_peripheral/Source/gd32vw55x_rtc.c ****     ErrStatus error_status = ERROR;
 2675              		.loc 1 1013 15
 2676 000c 232604FE 		sw	zero,-20(s0)
1014:../Firmware/GD32VW55x_standard_peripheral/Source/gd32vw55x_rtc.c ****     volatile uint32_t time_index = RTC_WTWF_TIMEOUT;
 2677              		.loc 1 1014 23
 2678 0010 9167     		li	a5,16384
 2679 0012 2322F4FE 		sw	a5,-28(s0)
1015:../Firmware/GD32VW55x_standard_peripheral/Source/gd32vw55x_rtc.c ****     uint32_t flag_status = RESET;
 2680              		.loc 1 1015 14
 2681 0016 232404FE 		sw	zero,-24(s0)
1016:../Firmware/GD32VW55x_standard_peripheral/Source/gd32vw55x_rtc.c **** 
1017:../Firmware/GD32VW55x_standard_peripheral/Source/gd32vw55x_rtc.c ****     /* disable the write protection */
1018:../Firmware/GD32VW55x_standard_peripheral/Source/gd32vw55x_rtc.c ****     RTC_WPK = RTC_UNLOCK_KEY1;
 2682              		.loc 1 1018 5
 2683 001a B7370040 		li	a5,1073754112
 2684 001e 93874782 		addi	a5,a5,-2012
 2685              		.loc 1 1018 13
 2686 0022 1307A00C 		li	a4,202
 2687 0026 98C3     		sw	a4,0(a5)
1019:../Firmware/GD32VW55x_standard_peripheral/Source/gd32vw55x_rtc.c ****     RTC_WPK = RTC_UNLOCK_KEY2;
 2688              		.loc 1 1019 5
 2689 0028 B7370040 		li	a5,1073754112
 2690 002c 93874782 		addi	a5,a5,-2012
 2691              		.loc 1 1019 13
 2692 0030 13073005 		li	a4,83
 2693 0034 98C3     		sw	a4,0(a5)
 2694              	.L89:
1020:../Firmware/GD32VW55x_standard_peripheral/Source/gd32vw55x_rtc.c **** 
1021:../Firmware/GD32VW55x_standard_peripheral/Source/gd32vw55x_rtc.c ****     /* only when RTC_CTL_WTEN=0 and RTC_ICS_WTWF=1 can write RTC_CTL[2:0] */
1022:../Firmware/GD32VW55x_standard_peripheral/Source/gd32vw55x_rtc.c ****     /* wait until the WTWF flag to be set */
1023:../Firmware/GD32VW55x_standard_peripheral/Source/gd32vw55x_rtc.c ****     do {
1024:../Firmware/GD32VW55x_standard_peripheral/Source/gd32vw55x_rtc.c ****         flag_status = RTC_STAT & RTC_STAT_WTWF;
 2695              		.loc 1 1024 23 discriminator 2
 2696 0036 B7370040 		li	a5,1073754112
 2697 003a 9387C780 		addi	a5,a5,-2036
 2698 003e 9C43     		lw	a5,0(a5)
 2699              		.loc 1 1024 21 discriminator 2
 2700 0040 918B     		andi	a5,a5,4
 2701 0042 2324F4FE 		sw	a5,-24(s0)
1025:../Firmware/GD32VW55x_standard_peripheral/Source/gd32vw55x_rtc.c ****     } while((--time_index > 0U) && ((uint32_t)RESET == flag_status));
 2702              		.loc 1 1025 14 discriminator 2
 2703 0046 832744FE 		lw	a5,-28(s0)
 2704 004a FD17     		addi	a5,a5,-1
 2705              		.loc 1 1025 5 discriminator 2
 2706 004c 2322F4FE 		sw	a5,-28(s0)
 2707 0050 81C7     		beq	a5,zero,.L88
 2708              		.loc 1 1025 33 discriminator 1
 2709 0052 832784FE 		lw	a5,-24(s0)
 2710 0056 E5D3     		beq	a5,zero,.L89
 2711              	.L88:
1026:../Firmware/GD32VW55x_standard_peripheral/Source/gd32vw55x_rtc.c **** 
1027:../Firmware/GD32VW55x_standard_peripheral/Source/gd32vw55x_rtc.c ****     if((uint32_t)RESET == flag_status) {
 2712              		.loc 1 1027 7
 2713 0058 832784FE 		lw	a5,-24(s0)
 2714 005c 81E7     		bne	a5,zero,.L90
1028:../Firmware/GD32VW55x_standard_peripheral/Source/gd32vw55x_rtc.c ****         error_status = ERROR;
 2715              		.loc 1 1028 22
 2716 005e 232604FE 		sw	zero,-20(s0)
 2717 0062 25A8     		j	.L91
 2718              	.L90:
1029:../Firmware/GD32VW55x_standard_peripheral/Source/gd32vw55x_rtc.c ****     } else {
1030:../Firmware/GD32VW55x_standard_peripheral/Source/gd32vw55x_rtc.c ****         RTC_CTL &= (uint32_t)~ RTC_CTL_WTCS;
 2719              		.loc 1 1030 17
 2720 0064 B7370040 		li	a5,1073754112
 2721 0068 93878780 		addi	a5,a5,-2040
 2722 006c 9843     		lw	a4,0(a5)
 2723 006e B7370040 		li	a5,1073754112
 2724 0072 93878780 		addi	a5,a5,-2040
 2725 0076 619B     		andi	a4,a4,-8
 2726 0078 98C3     		sw	a4,0(a5)
1031:../Firmware/GD32VW55x_standard_peripheral/Source/gd32vw55x_rtc.c ****         RTC_CTL |= (uint32_t)wakeup_clock;
 2727              		.loc 1 1031 17
 2728 007a B7370040 		li	a5,1073754112
 2729 007e 93878780 		addi	a5,a5,-2040
 2730 0082 9443     		lw	a3,0(a5)
 2731              		.loc 1 1031 20
 2732 0084 0347F4FD 		lbu	a4,-33(s0)
 2733              		.loc 1 1031 17
 2734 0088 B7370040 		li	a5,1073754112
 2735 008c 93878780 		addi	a5,a5,-2040
 2736 0090 558F     		or	a4,a3,a4
 2737 0092 98C3     		sw	a4,0(a5)
1032:../Firmware/GD32VW55x_standard_peripheral/Source/gd32vw55x_rtc.c ****         error_status = SUCCESS;
 2738              		.loc 1 1032 22
 2739 0094 8547     		li	a5,1
 2740 0096 2326F4FE 		sw	a5,-20(s0)
 2741              	.L91:
1033:../Firmware/GD32VW55x_standard_peripheral/Source/gd32vw55x_rtc.c ****     }
1034:../Firmware/GD32VW55x_standard_peripheral/Source/gd32vw55x_rtc.c **** 
1035:../Firmware/GD32VW55x_standard_peripheral/Source/gd32vw55x_rtc.c ****     /* enable the write protection */
1036:../Firmware/GD32VW55x_standard_peripheral/Source/gd32vw55x_rtc.c ****     RTC_WPK = RTC_LOCK_KEY;
 2742              		.loc 1 1036 5
 2743 009a B7370040 		li	a5,1073754112
 2744 009e 93874782 		addi	a5,a5,-2012
 2745              		.loc 1 1036 13
 2746 00a2 1307F00F 		li	a4,255
 2747 00a6 98C3     		sw	a4,0(a5)
1037:../Firmware/GD32VW55x_standard_peripheral/Source/gd32vw55x_rtc.c **** 
1038:../Firmware/GD32VW55x_standard_peripheral/Source/gd32vw55x_rtc.c ****     return error_status;
 2748              		.loc 1 1038 12
 2749 00a8 8327C4FE 		lw	a5,-20(s0)
1039:../Firmware/GD32VW55x_standard_peripheral/Source/gd32vw55x_rtc.c **** }
 2750              		.loc 1 1039 1
 2751 00ac 3E85     		mv	a0,a5
 2752 00ae 3254     		lw	s0,44(sp)
 2753              		.cfi_restore 8
 2754              		.cfi_def_cfa 2, 48
 2755 00b0 4561     		addi	sp,sp,48
 2756              		.cfi_def_cfa_offset 0
 2757 00b2 8280     		jr	ra
 2758              		.cfi_endproc
 2759              	.LFE379:
 2761              		.section	.text.rtc_wakeup_timer_set,"ax",@progbits
 2762              		.align	1
 2763              		.globl	rtc_wakeup_timer_set
 2765              	rtc_wakeup_timer_set:
 2766              	.LFB380:
1040:../Firmware/GD32VW55x_standard_peripheral/Source/gd32vw55x_rtc.c **** 
1041:../Firmware/GD32VW55x_standard_peripheral/Source/gd32vw55x_rtc.c **** /*!
1042:../Firmware/GD32VW55x_standard_peripheral/Source/gd32vw55x_rtc.c ****     \brief      set wakeup timer value
1043:../Firmware/GD32VW55x_standard_peripheral/Source/gd32vw55x_rtc.c ****     \param[in]  wakeup_timer: 0x0000-0xffff
1044:../Firmware/GD32VW55x_standard_peripheral/Source/gd32vw55x_rtc.c ****     \param[out] none
1045:../Firmware/GD32VW55x_standard_peripheral/Source/gd32vw55x_rtc.c ****     \retval     ErrStatus: ERROR or SUCCESS
1046:../Firmware/GD32VW55x_standard_peripheral/Source/gd32vw55x_rtc.c **** */
1047:../Firmware/GD32VW55x_standard_peripheral/Source/gd32vw55x_rtc.c **** ErrStatus rtc_wakeup_timer_set(uint16_t wakeup_timer)
1048:../Firmware/GD32VW55x_standard_peripheral/Source/gd32vw55x_rtc.c **** {
 2767              		.loc 1 1048 1
 2768              		.cfi_startproc
 2769 0000 7971     		addi	sp,sp,-48
 2770              		.cfi_def_cfa_offset 48
 2771 0002 22D6     		sw	s0,44(sp)
 2772              		.cfi_offset 8, -4
 2773 0004 0018     		addi	s0,sp,48
 2774              		.cfi_def_cfa 8, 0
 2775 0006 AA87     		mv	a5,a0
 2776 0008 231FF4FC 		sh	a5,-34(s0)
1049:../Firmware/GD32VW55x_standard_peripheral/Source/gd32vw55x_rtc.c ****     ErrStatus error_status = ERROR;
 2777              		.loc 1 1049 15
 2778 000c 232604FE 		sw	zero,-20(s0)
1050:../Firmware/GD32VW55x_standard_peripheral/Source/gd32vw55x_rtc.c ****     volatile uint32_t time_index = RTC_WTWF_TIMEOUT;
 2779              		.loc 1 1050 23
 2780 0010 9167     		li	a5,16384
 2781 0012 2322F4FE 		sw	a5,-28(s0)
1051:../Firmware/GD32VW55x_standard_peripheral/Source/gd32vw55x_rtc.c ****     uint32_t flag_status = RESET;
 2782              		.loc 1 1051 14
 2783 0016 232404FE 		sw	zero,-24(s0)
1052:../Firmware/GD32VW55x_standard_peripheral/Source/gd32vw55x_rtc.c **** 
1053:../Firmware/GD32VW55x_standard_peripheral/Source/gd32vw55x_rtc.c ****     /* disable the write protection */
1054:../Firmware/GD32VW55x_standard_peripheral/Source/gd32vw55x_rtc.c ****     RTC_WPK = RTC_UNLOCK_KEY1;
 2784              		.loc 1 1054 5
 2785 001a B7370040 		li	a5,1073754112
 2786 001e 93874782 		addi	a5,a5,-2012
 2787              		.loc 1 1054 13
 2788 0022 1307A00C 		li	a4,202
 2789 0026 98C3     		sw	a4,0(a5)
1055:../Firmware/GD32VW55x_standard_peripheral/Source/gd32vw55x_rtc.c ****     RTC_WPK = RTC_UNLOCK_KEY2;
 2790              		.loc 1 1055 5
 2791 0028 B7370040 		li	a5,1073754112
 2792 002c 93874782 		addi	a5,a5,-2012
 2793              		.loc 1 1055 13
 2794 0030 13073005 		li	a4,83
 2795 0034 98C3     		sw	a4,0(a5)
 2796              	.L95:
1056:../Firmware/GD32VW55x_standard_peripheral/Source/gd32vw55x_rtc.c **** 
1057:../Firmware/GD32VW55x_standard_peripheral/Source/gd32vw55x_rtc.c ****     /* wait until the WTWF flag to be set */
1058:../Firmware/GD32VW55x_standard_peripheral/Source/gd32vw55x_rtc.c ****     do {
1059:../Firmware/GD32VW55x_standard_peripheral/Source/gd32vw55x_rtc.c ****         flag_status = RTC_STAT & RTC_STAT_WTWF;
 2797              		.loc 1 1059 23 discriminator 2
 2798 0036 B7370040 		li	a5,1073754112
 2799 003a 9387C780 		addi	a5,a5,-2036
 2800 003e 9C43     		lw	a5,0(a5)
 2801              		.loc 1 1059 21 discriminator 2
 2802 0040 918B     		andi	a5,a5,4
 2803 0042 2324F4FE 		sw	a5,-24(s0)
1060:../Firmware/GD32VW55x_standard_peripheral/Source/gd32vw55x_rtc.c ****     } while((--time_index > 0U) && ((uint32_t)RESET == flag_status));
 2804              		.loc 1 1060 14 discriminator 2
 2805 0046 832744FE 		lw	a5,-28(s0)
 2806 004a FD17     		addi	a5,a5,-1
 2807              		.loc 1 1060 5 discriminator 2
 2808 004c 2322F4FE 		sw	a5,-28(s0)
 2809 0050 81C7     		beq	a5,zero,.L94
 2810              		.loc 1 1060 33 discriminator 1
 2811 0052 832784FE 		lw	a5,-24(s0)
 2812 0056 E5D3     		beq	a5,zero,.L95
 2813              	.L94:
1061:../Firmware/GD32VW55x_standard_peripheral/Source/gd32vw55x_rtc.c **** 
1062:../Firmware/GD32VW55x_standard_peripheral/Source/gd32vw55x_rtc.c ****     if((uint32_t)RESET == flag_status) {
 2814              		.loc 1 1062 7
 2815 0058 832784FE 		lw	a5,-24(s0)
 2816 005c 81E7     		bne	a5,zero,.L96
1063:../Firmware/GD32VW55x_standard_peripheral/Source/gd32vw55x_rtc.c ****         error_status = ERROR;
 2817              		.loc 1 1063 22
 2818 005e 232604FE 		sw	zero,-20(s0)
 2819 0062 19A8     		j	.L97
 2820              	.L96:
1064:../Firmware/GD32VW55x_standard_peripheral/Source/gd32vw55x_rtc.c ****     } else {
1065:../Firmware/GD32VW55x_standard_peripheral/Source/gd32vw55x_rtc.c ****         RTC_WUT = (uint32_t)wakeup_timer;
 2821              		.loc 1 1065 9
 2822 0064 B7370040 		li	a5,1073754112
 2823 0068 93874781 		addi	a5,a5,-2028
 2824              		.loc 1 1065 19
 2825 006c 0357E4FD 		lhu	a4,-34(s0)
 2826              		.loc 1 1065 17
 2827 0070 98C3     		sw	a4,0(a5)
1066:../Firmware/GD32VW55x_standard_peripheral/Source/gd32vw55x_rtc.c ****         error_status = SUCCESS;
 2828              		.loc 1 1066 22
 2829 0072 8547     		li	a5,1
 2830 0074 2326F4FE 		sw	a5,-20(s0)
 2831              	.L97:
1067:../Firmware/GD32VW55x_standard_peripheral/Source/gd32vw55x_rtc.c ****     }
1068:../Firmware/GD32VW55x_standard_peripheral/Source/gd32vw55x_rtc.c **** 
1069:../Firmware/GD32VW55x_standard_peripheral/Source/gd32vw55x_rtc.c ****     /* enable the write protection */
1070:../Firmware/GD32VW55x_standard_peripheral/Source/gd32vw55x_rtc.c ****     RTC_WPK = RTC_LOCK_KEY;
 2832              		.loc 1 1070 5
 2833 0078 B7370040 		li	a5,1073754112
 2834 007c 93874782 		addi	a5,a5,-2012
 2835              		.loc 1 1070 13
 2836 0080 1307F00F 		li	a4,255
 2837 0084 98C3     		sw	a4,0(a5)
1071:../Firmware/GD32VW55x_standard_peripheral/Source/gd32vw55x_rtc.c **** 
1072:../Firmware/GD32VW55x_standard_peripheral/Source/gd32vw55x_rtc.c ****     return error_status;
 2838              		.loc 1 1072 12
 2839 0086 8327C4FE 		lw	a5,-20(s0)
1073:../Firmware/GD32VW55x_standard_peripheral/Source/gd32vw55x_rtc.c **** }
 2840              		.loc 1 1073 1
 2841 008a 3E85     		mv	a0,a5
 2842 008c 3254     		lw	s0,44(sp)
 2843              		.cfi_restore 8
 2844              		.cfi_def_cfa 2, 48
 2845 008e 4561     		addi	sp,sp,48
 2846              		.cfi_def_cfa_offset 0
 2847 0090 8280     		jr	ra
 2848              		.cfi_endproc
 2849              	.LFE380:
 2851              		.section	.text.rtc_wakeup_timer_get,"ax",@progbits
 2852              		.align	1
 2853              		.globl	rtc_wakeup_timer_get
 2855              	rtc_wakeup_timer_get:
 2856              	.LFB381:
1074:../Firmware/GD32VW55x_standard_peripheral/Source/gd32vw55x_rtc.c **** 
1075:../Firmware/GD32VW55x_standard_peripheral/Source/gd32vw55x_rtc.c **** /*!
1076:../Firmware/GD32VW55x_standard_peripheral/Source/gd32vw55x_rtc.c ****     \brief      get wakeup timer value
1077:../Firmware/GD32VW55x_standard_peripheral/Source/gd32vw55x_rtc.c ****     \param[in]  none
1078:../Firmware/GD32VW55x_standard_peripheral/Source/gd32vw55x_rtc.c ****     \param[out] none
1079:../Firmware/GD32VW55x_standard_peripheral/Source/gd32vw55x_rtc.c ****     \retval     wakeup timer value
1080:../Firmware/GD32VW55x_standard_peripheral/Source/gd32vw55x_rtc.c **** */
1081:../Firmware/GD32VW55x_standard_peripheral/Source/gd32vw55x_rtc.c **** uint16_t rtc_wakeup_timer_get(void)
1082:../Firmware/GD32VW55x_standard_peripheral/Source/gd32vw55x_rtc.c **** {
 2857              		.loc 1 1082 1
 2858              		.cfi_startproc
 2859 0000 4111     		addi	sp,sp,-16
 2860              		.cfi_def_cfa_offset 16
 2861 0002 22C6     		sw	s0,12(sp)
 2862              		.cfi_offset 8, -4
 2863 0004 0008     		addi	s0,sp,16
 2864              		.cfi_def_cfa 8, 0
1083:../Firmware/GD32VW55x_standard_peripheral/Source/gd32vw55x_rtc.c ****     return (uint16_t)RTC_WUT;
 2865              		.loc 1 1083 22
 2866 0006 B7370040 		li	a5,1073754112
 2867 000a 93874781 		addi	a5,a5,-2028
 2868 000e 9C43     		lw	a5,0(a5)
 2869              		.loc 1 1083 12
 2870 0010 C207     		slli	a5,a5,16
 2871 0012 C183     		srli	a5,a5,16
1084:../Firmware/GD32VW55x_standard_peripheral/Source/gd32vw55x_rtc.c **** }
 2872              		.loc 1 1084 1
 2873 0014 3E85     		mv	a0,a5
 2874 0016 3244     		lw	s0,12(sp)
 2875              		.cfi_restore 8
 2876              		.cfi_def_cfa 2, 16
 2877 0018 4101     		addi	sp,sp,16
 2878              		.cfi_def_cfa_offset 0
 2879 001a 8280     		jr	ra
 2880              		.cfi_endproc
 2881              	.LFE381:
 2883              		.section	.text.rtc_smooth_calibration_config,"ax",@progbits
 2884              		.align	1
 2885              		.globl	rtc_smooth_calibration_config
 2887              	rtc_smooth_calibration_config:
 2888              	.LFB382:
1085:../Firmware/GD32VW55x_standard_peripheral/Source/gd32vw55x_rtc.c **** 
1086:../Firmware/GD32VW55x_standard_peripheral/Source/gd32vw55x_rtc.c **** /*!
1087:../Firmware/GD32VW55x_standard_peripheral/Source/gd32vw55x_rtc.c ****     \brief      configure RTC smooth calibration
1088:../Firmware/GD32VW55x_standard_peripheral/Source/gd32vw55x_rtc.c ****     \param[in]  window: select calibration window
1089:../Firmware/GD32VW55x_standard_peripheral/Source/gd32vw55x_rtc.c ****       \arg        RTC_CALIBRATION_WINDOW_32S: 2exp20 RTCCLK cycles, 32s if RTCCLK = 32768 Hz
1090:../Firmware/GD32VW55x_standard_peripheral/Source/gd32vw55x_rtc.c ****       \arg        RTC_CALIBRATION_WINDOW_16S: 2exp19 RTCCLK cycles, 16s if RTCCLK = 32768 Hz
1091:../Firmware/GD32VW55x_standard_peripheral/Source/gd32vw55x_rtc.c ****       \arg        RTC_CALIBRATION_WINDOW_8S: 2exp18 RTCCLK cycles, 8s if RTCCLK = 32768 Hz
1092:../Firmware/GD32VW55x_standard_peripheral/Source/gd32vw55x_rtc.c ****     \param[in]  plus: add RTC clock or not
1093:../Firmware/GD32VW55x_standard_peripheral/Source/gd32vw55x_rtc.c ****       \arg        RTC_CALIBRATION_PLUS_SET: add one RTC clock every 2048 rtc clock
1094:../Firmware/GD32VW55x_standard_peripheral/Source/gd32vw55x_rtc.c ****       \arg        RTC_CALIBRATION_PLUS_RESET: no effect
1095:../Firmware/GD32VW55x_standard_peripheral/Source/gd32vw55x_rtc.c ****     \param[in]  minus: the RTC clock to minus during the calibration window(0x0 - 0x1FF)
1096:../Firmware/GD32VW55x_standard_peripheral/Source/gd32vw55x_rtc.c ****     \param[out] none
1097:../Firmware/GD32VW55x_standard_peripheral/Source/gd32vw55x_rtc.c ****     \retval     ErrStatus: ERROR or SUCCESS
1098:../Firmware/GD32VW55x_standard_peripheral/Source/gd32vw55x_rtc.c **** */
1099:../Firmware/GD32VW55x_standard_peripheral/Source/gd32vw55x_rtc.c **** ErrStatus rtc_smooth_calibration_config(uint32_t window, uint32_t plus, uint32_t minus)
1100:../Firmware/GD32VW55x_standard_peripheral/Source/gd32vw55x_rtc.c **** {
 2889              		.loc 1 1100 1
 2890              		.cfi_startproc
 2891 0000 7971     		addi	sp,sp,-48
 2892              		.cfi_def_cfa_offset 48
 2893 0002 22D6     		sw	s0,44(sp)
 2894              		.cfi_offset 8, -4
 2895 0004 0018     		addi	s0,sp,48
 2896              		.cfi_def_cfa 8, 0
 2897 0006 232EA4FC 		sw	a0,-36(s0)
 2898 000a 232CB4FC 		sw	a1,-40(s0)
 2899 000e 232AC4FC 		sw	a2,-44(s0)
1101:../Firmware/GD32VW55x_standard_peripheral/Source/gd32vw55x_rtc.c ****     volatile uint32_t time_index = RTC_HRFC_TIMEOUT;
 2900              		.loc 1 1101 23
 2901 0012 B7070020 		li	a5,536870912
 2902 0016 2322F4FE 		sw	a5,-28(s0)
1102:../Firmware/GD32VW55x_standard_peripheral/Source/gd32vw55x_rtc.c ****     ErrStatus error_status = ERROR;
 2903              		.loc 1 1102 15
 2904 001a 232604FE 		sw	zero,-20(s0)
1103:../Firmware/GD32VW55x_standard_peripheral/Source/gd32vw55x_rtc.c ****     uint32_t flag_status = RESET;
 2905              		.loc 1 1103 14
 2906 001e 232404FE 		sw	zero,-24(s0)
1104:../Firmware/GD32VW55x_standard_peripheral/Source/gd32vw55x_rtc.c **** 
1105:../Firmware/GD32VW55x_standard_peripheral/Source/gd32vw55x_rtc.c ****     /* disable the write protection */
1106:../Firmware/GD32VW55x_standard_peripheral/Source/gd32vw55x_rtc.c ****     RTC_WPK = RTC_UNLOCK_KEY1;
 2907              		.loc 1 1106 5
 2908 0022 B7370040 		li	a5,1073754112
 2909 0026 93874782 		addi	a5,a5,-2012
 2910              		.loc 1 1106 13
 2911 002a 1307A00C 		li	a4,202
 2912 002e 98C3     		sw	a4,0(a5)
1107:../Firmware/GD32VW55x_standard_peripheral/Source/gd32vw55x_rtc.c ****     RTC_WPK = RTC_UNLOCK_KEY2;
 2913              		.loc 1 1107 5
 2914 0030 B7370040 		li	a5,1073754112
 2915 0034 93874782 		addi	a5,a5,-2012
 2916              		.loc 1 1107 13
 2917 0038 13073005 		li	a4,83
 2918 003c 98C3     		sw	a4,0(a5)
 2919              	.L103:
1108:../Firmware/GD32VW55x_standard_peripheral/Source/gd32vw55x_rtc.c **** 
1109:../Firmware/GD32VW55x_standard_peripheral/Source/gd32vw55x_rtc.c ****     /* check if a smooth calibration operation is ongoing */
1110:../Firmware/GD32VW55x_standard_peripheral/Source/gd32vw55x_rtc.c ****     do {
1111:../Firmware/GD32VW55x_standard_peripheral/Source/gd32vw55x_rtc.c ****         flag_status = RTC_STAT & RTC_STAT_SCPF;
 2920              		.loc 1 1111 23 discriminator 2
 2921 003e B7370040 		li	a5,1073754112
 2922 0042 9387C780 		addi	a5,a5,-2036
 2923 0046 9843     		lw	a4,0(a5)
 2924              		.loc 1 1111 21 discriminator 2
 2925 0048 C167     		li	a5,65536
 2926 004a F98F     		and	a5,a4,a5
 2927 004c 2324F4FE 		sw	a5,-24(s0)
1112:../Firmware/GD32VW55x_standard_peripheral/Source/gd32vw55x_rtc.c ****     } while((--time_index > 0U) && ((uint32_t)RESET != flag_status));
 2928              		.loc 1 1112 14 discriminator 2
 2929 0050 832744FE 		lw	a5,-28(s0)
 2930 0054 FD17     		addi	a5,a5,-1
 2931              		.loc 1 1112 5 discriminator 2
 2932 0056 2322F4FE 		sw	a5,-28(s0)
 2933 005a 81C7     		beq	a5,zero,.L102
 2934              		.loc 1 1112 33 discriminator 1
 2935 005c 832784FE 		lw	a5,-24(s0)
 2936 0060 F9FF     		bne	a5,zero,.L103
 2937              	.L102:
1113:../Firmware/GD32VW55x_standard_peripheral/Source/gd32vw55x_rtc.c **** 
1114:../Firmware/GD32VW55x_standard_peripheral/Source/gd32vw55x_rtc.c ****     if((uint32_t)RESET == flag_status) {
 2938              		.loc 1 1114 7
 2939 0062 832784FE 		lw	a5,-24(s0)
 2940 0066 85E7     		bne	a5,zero,.L104
1115:../Firmware/GD32VW55x_standard_peripheral/Source/gd32vw55x_rtc.c ****         RTC_HRFC = (uint32_t)(window | plus | HRFC_CMSK(minus));
 2941              		.loc 1 1115 38
 2942 0068 0327C4FD 		lw	a4,-36(s0)
 2943 006c 832784FD 		lw	a5,-40(s0)
 2944 0070 B366F700 		or	a3,a4,a5
 2945              		.loc 1 1115 47
 2946 0074 832744FD 		lw	a5,-44(s0)
 2947 0078 13F7F71F 		andi	a4,a5,511
 2948              		.loc 1 1115 9
 2949 007c B7370040 		li	a5,1073754112
 2950 0080 9387C783 		addi	a5,a5,-1988
 2951              		.loc 1 1115 20
 2952 0084 558F     		or	a4,a3,a4
 2953              		.loc 1 1115 18
 2954 0086 98C3     		sw	a4,0(a5)
1116:../Firmware/GD32VW55x_standard_peripheral/Source/gd32vw55x_rtc.c ****         error_status = SUCCESS;
 2955              		.loc 1 1116 22
 2956 0088 8547     		li	a5,1
 2957 008a 2326F4FE 		sw	a5,-20(s0)
 2958              	.L104:
1117:../Firmware/GD32VW55x_standard_peripheral/Source/gd32vw55x_rtc.c ****     }
1118:../Firmware/GD32VW55x_standard_peripheral/Source/gd32vw55x_rtc.c **** 
1119:../Firmware/GD32VW55x_standard_peripheral/Source/gd32vw55x_rtc.c ****     /* enable the write protection */
1120:../Firmware/GD32VW55x_standard_peripheral/Source/gd32vw55x_rtc.c ****     RTC_WPK = RTC_LOCK_KEY;
 2959              		.loc 1 1120 5
 2960 008e B7370040 		li	a5,1073754112
 2961 0092 93874782 		addi	a5,a5,-2012
 2962              		.loc 1 1120 13
 2963 0096 1307F00F 		li	a4,255
 2964 009a 98C3     		sw	a4,0(a5)
1121:../Firmware/GD32VW55x_standard_peripheral/Source/gd32vw55x_rtc.c **** 
1122:../Firmware/GD32VW55x_standard_peripheral/Source/gd32vw55x_rtc.c ****     return error_status;
 2965              		.loc 1 1122 12
 2966 009c 8327C4FE 		lw	a5,-20(s0)
1123:../Firmware/GD32VW55x_standard_peripheral/Source/gd32vw55x_rtc.c **** }
 2967              		.loc 1 1123 1
 2968 00a0 3E85     		mv	a0,a5
 2969 00a2 3254     		lw	s0,44(sp)
 2970              		.cfi_restore 8
 2971              		.cfi_def_cfa 2, 48
 2972 00a4 4561     		addi	sp,sp,48
 2973              		.cfi_def_cfa_offset 0
 2974 00a6 8280     		jr	ra
 2975              		.cfi_endproc
 2976              	.LFE382:
 2978              		.section	.text.rtc_coarse_calibration_enable,"ax",@progbits
 2979              		.align	1
 2980              		.globl	rtc_coarse_calibration_enable
 2982              	rtc_coarse_calibration_enable:
 2983              	.LFB383:
1124:../Firmware/GD32VW55x_standard_peripheral/Source/gd32vw55x_rtc.c **** 
1125:../Firmware/GD32VW55x_standard_peripheral/Source/gd32vw55x_rtc.c **** /*!
1126:../Firmware/GD32VW55x_standard_peripheral/Source/gd32vw55x_rtc.c ****     \brief      enable RTC coarse calibration
1127:../Firmware/GD32VW55x_standard_peripheral/Source/gd32vw55x_rtc.c ****     \param[in]  none
1128:../Firmware/GD32VW55x_standard_peripheral/Source/gd32vw55x_rtc.c ****     \param[out] none
1129:../Firmware/GD32VW55x_standard_peripheral/Source/gd32vw55x_rtc.c ****     \retval     ErrStatus: ERROR or SUCCESS
1130:../Firmware/GD32VW55x_standard_peripheral/Source/gd32vw55x_rtc.c **** */
1131:../Firmware/GD32VW55x_standard_peripheral/Source/gd32vw55x_rtc.c **** ErrStatus rtc_coarse_calibration_enable(void)
1132:../Firmware/GD32VW55x_standard_peripheral/Source/gd32vw55x_rtc.c **** {
 2984              		.loc 1 1132 1
 2985              		.cfi_startproc
 2986 0000 0111     		addi	sp,sp,-32
 2987              		.cfi_def_cfa_offset 32
 2988 0002 06CE     		sw	ra,28(sp)
 2989 0004 22CC     		sw	s0,24(sp)
 2990              		.cfi_offset 1, -4
 2991              		.cfi_offset 8, -8
 2992 0006 0010     		addi	s0,sp,32
 2993              		.cfi_def_cfa 8, 0
1133:../Firmware/GD32VW55x_standard_peripheral/Source/gd32vw55x_rtc.c ****     ErrStatus error_status = ERROR;
 2994              		.loc 1 1133 15
 2995 0008 232604FE 		sw	zero,-20(s0)
1134:../Firmware/GD32VW55x_standard_peripheral/Source/gd32vw55x_rtc.c ****     /* disable the write protection */
1135:../Firmware/GD32VW55x_standard_peripheral/Source/gd32vw55x_rtc.c ****     RTC_WPK = RTC_UNLOCK_KEY1;
 2996              		.loc 1 1135 5
 2997 000c B7370040 		li	a5,1073754112
 2998 0010 93874782 		addi	a5,a5,-2012
 2999              		.loc 1 1135 13
 3000 0014 1307A00C 		li	a4,202
 3001 0018 98C3     		sw	a4,0(a5)
1136:../Firmware/GD32VW55x_standard_peripheral/Source/gd32vw55x_rtc.c ****     RTC_WPK = RTC_UNLOCK_KEY2;
 3002              		.loc 1 1136 5
 3003 001a B7370040 		li	a5,1073754112
 3004 001e 93874782 		addi	a5,a5,-2012
 3005              		.loc 1 1136 13
 3006 0022 13073005 		li	a4,83
 3007 0026 98C3     		sw	a4,0(a5)
1137:../Firmware/GD32VW55x_standard_peripheral/Source/gd32vw55x_rtc.c ****     /* enter init mode */
1138:../Firmware/GD32VW55x_standard_peripheral/Source/gd32vw55x_rtc.c ****     error_status = rtc_init_mode_enter();
 3008              		.loc 1 1138 20
 3009 0028 97000000 		call	rtc_init_mode_enter
 3009      E7800000 
 3010 0030 2326A4FE 		sw	a0,-20(s0)
1139:../Firmware/GD32VW55x_standard_peripheral/Source/gd32vw55x_rtc.c **** 
1140:../Firmware/GD32VW55x_standard_peripheral/Source/gd32vw55x_rtc.c ****     if(ERROR != error_status) {
 3011              		.loc 1 1140 7
 3012 0034 8327C4FE 		lw	a5,-20(s0)
 3013 0038 8DC3     		beq	a5,zero,.L107
1141:../Firmware/GD32VW55x_standard_peripheral/Source/gd32vw55x_rtc.c ****         RTC_CTL |= (uint32_t)RTC_CTL_CCEN;
 3014              		.loc 1 1141 17
 3015 003a B7370040 		li	a5,1073754112
 3016 003e 93878780 		addi	a5,a5,-2040
 3017 0042 9843     		lw	a4,0(a5)
 3018 0044 B7370040 		li	a5,1073754112
 3019 0048 93878780 		addi	a5,a5,-2040
 3020 004c 13670708 		ori	a4,a4,128
 3021 0050 98C3     		sw	a4,0(a5)
1142:../Firmware/GD32VW55x_standard_peripheral/Source/gd32vw55x_rtc.c ****         /* exit init mode */
1143:../Firmware/GD32VW55x_standard_peripheral/Source/gd32vw55x_rtc.c ****         rtc_init_mode_exit();
 3022              		.loc 1 1143 9
 3023 0052 97000000 		call	rtc_init_mode_exit
 3023      E7800000 
 3024              	.L107:
1144:../Firmware/GD32VW55x_standard_peripheral/Source/gd32vw55x_rtc.c ****     }
1145:../Firmware/GD32VW55x_standard_peripheral/Source/gd32vw55x_rtc.c ****     /* enable the write protection */
1146:../Firmware/GD32VW55x_standard_peripheral/Source/gd32vw55x_rtc.c ****     RTC_WPK = RTC_LOCK_KEY;
 3025              		.loc 1 1146 5
 3026 005a B7370040 		li	a5,1073754112
 3027 005e 93874782 		addi	a5,a5,-2012
 3028              		.loc 1 1146 13
 3029 0062 1307F00F 		li	a4,255
 3030 0066 98C3     		sw	a4,0(a5)
1147:../Firmware/GD32VW55x_standard_peripheral/Source/gd32vw55x_rtc.c ****     return error_status;
 3031              		.loc 1 1147 12
 3032 0068 8327C4FE 		lw	a5,-20(s0)
1148:../Firmware/GD32VW55x_standard_peripheral/Source/gd32vw55x_rtc.c **** }
 3033              		.loc 1 1148 1
 3034 006c 3E85     		mv	a0,a5
 3035 006e F240     		lw	ra,28(sp)
 3036              		.cfi_restore 1
 3037 0070 6244     		lw	s0,24(sp)
 3038              		.cfi_restore 8
 3039              		.cfi_def_cfa 2, 32
 3040 0072 0561     		addi	sp,sp,32
 3041              		.cfi_def_cfa_offset 0
 3042 0074 8280     		jr	ra
 3043              		.cfi_endproc
 3044              	.LFE383:
 3046              		.section	.text.rtc_coarse_calibration_disable,"ax",@progbits
 3047              		.align	1
 3048              		.globl	rtc_coarse_calibration_disable
 3050              	rtc_coarse_calibration_disable:
 3051              	.LFB384:
1149:../Firmware/GD32VW55x_standard_peripheral/Source/gd32vw55x_rtc.c **** 
1150:../Firmware/GD32VW55x_standard_peripheral/Source/gd32vw55x_rtc.c **** /*!
1151:../Firmware/GD32VW55x_standard_peripheral/Source/gd32vw55x_rtc.c ****     \brief      disable RTC coarse calibration
1152:../Firmware/GD32VW55x_standard_peripheral/Source/gd32vw55x_rtc.c ****     \param[in]  none
1153:../Firmware/GD32VW55x_standard_peripheral/Source/gd32vw55x_rtc.c ****     \param[out] none
1154:../Firmware/GD32VW55x_standard_peripheral/Source/gd32vw55x_rtc.c ****     \retval     ErrStatus: ERROR or SUCCESS
1155:../Firmware/GD32VW55x_standard_peripheral/Source/gd32vw55x_rtc.c **** */
1156:../Firmware/GD32VW55x_standard_peripheral/Source/gd32vw55x_rtc.c **** ErrStatus rtc_coarse_calibration_disable(void)
1157:../Firmware/GD32VW55x_standard_peripheral/Source/gd32vw55x_rtc.c **** {
 3052              		.loc 1 1157 1
 3053              		.cfi_startproc
 3054 0000 0111     		addi	sp,sp,-32
 3055              		.cfi_def_cfa_offset 32
 3056 0002 06CE     		sw	ra,28(sp)
 3057 0004 22CC     		sw	s0,24(sp)
 3058              		.cfi_offset 1, -4
 3059              		.cfi_offset 8, -8
 3060 0006 0010     		addi	s0,sp,32
 3061              		.cfi_def_cfa 8, 0
1158:../Firmware/GD32VW55x_standard_peripheral/Source/gd32vw55x_rtc.c ****     ErrStatus error_status = ERROR;
 3062              		.loc 1 1158 15
 3063 0008 232604FE 		sw	zero,-20(s0)
1159:../Firmware/GD32VW55x_standard_peripheral/Source/gd32vw55x_rtc.c ****     /* disable the write protection */
1160:../Firmware/GD32VW55x_standard_peripheral/Source/gd32vw55x_rtc.c ****     RTC_WPK = RTC_UNLOCK_KEY1;
 3064              		.loc 1 1160 5
 3065 000c B7370040 		li	a5,1073754112
 3066 0010 93874782 		addi	a5,a5,-2012
 3067              		.loc 1 1160 13
 3068 0014 1307A00C 		li	a4,202
 3069 0018 98C3     		sw	a4,0(a5)
1161:../Firmware/GD32VW55x_standard_peripheral/Source/gd32vw55x_rtc.c ****     RTC_WPK = RTC_UNLOCK_KEY2;
 3070              		.loc 1 1161 5
 3071 001a B7370040 		li	a5,1073754112
 3072 001e 93874782 		addi	a5,a5,-2012
 3073              		.loc 1 1161 13
 3074 0022 13073005 		li	a4,83
 3075 0026 98C3     		sw	a4,0(a5)
1162:../Firmware/GD32VW55x_standard_peripheral/Source/gd32vw55x_rtc.c ****     /* enter init mode */
1163:../Firmware/GD32VW55x_standard_peripheral/Source/gd32vw55x_rtc.c ****     error_status = rtc_init_mode_enter();
 3076              		.loc 1 1163 20
 3077 0028 97000000 		call	rtc_init_mode_enter
 3077      E7800000 
 3078 0030 2326A4FE 		sw	a0,-20(s0)
1164:../Firmware/GD32VW55x_standard_peripheral/Source/gd32vw55x_rtc.c **** 
1165:../Firmware/GD32VW55x_standard_peripheral/Source/gd32vw55x_rtc.c ****     if(ERROR != error_status) {
 3079              		.loc 1 1165 7
 3080 0034 8327C4FE 		lw	a5,-20(s0)
 3081 0038 8DC3     		beq	a5,zero,.L110
1166:../Firmware/GD32VW55x_standard_peripheral/Source/gd32vw55x_rtc.c ****         RTC_CTL &= (uint32_t)~RTC_CTL_CCEN;
 3082              		.loc 1 1166 17
 3083 003a B7370040 		li	a5,1073754112
 3084 003e 93878780 		addi	a5,a5,-2040
 3085 0042 9843     		lw	a4,0(a5)
 3086 0044 B7370040 		li	a5,1073754112
 3087 0048 93878780 		addi	a5,a5,-2040
 3088 004c 1377F7F7 		andi	a4,a4,-129
 3089 0050 98C3     		sw	a4,0(a5)
1167:../Firmware/GD32VW55x_standard_peripheral/Source/gd32vw55x_rtc.c ****         /* exit init mode */
1168:../Firmware/GD32VW55x_standard_peripheral/Source/gd32vw55x_rtc.c ****         rtc_init_mode_exit();
 3090              		.loc 1 1168 9
 3091 0052 97000000 		call	rtc_init_mode_exit
 3091      E7800000 
 3092              	.L110:
1169:../Firmware/GD32VW55x_standard_peripheral/Source/gd32vw55x_rtc.c ****     }
1170:../Firmware/GD32VW55x_standard_peripheral/Source/gd32vw55x_rtc.c **** 
1171:../Firmware/GD32VW55x_standard_peripheral/Source/gd32vw55x_rtc.c ****     /* enable the write protection */
1172:../Firmware/GD32VW55x_standard_peripheral/Source/gd32vw55x_rtc.c ****     RTC_WPK = RTC_LOCK_KEY;
 3093              		.loc 1 1172 5
 3094 005a B7370040 		li	a5,1073754112
 3095 005e 93874782 		addi	a5,a5,-2012
 3096              		.loc 1 1172 13
 3097 0062 1307F00F 		li	a4,255
 3098 0066 98C3     		sw	a4,0(a5)
1173:../Firmware/GD32VW55x_standard_peripheral/Source/gd32vw55x_rtc.c ****     return error_status;
 3099              		.loc 1 1173 12
 3100 0068 8327C4FE 		lw	a5,-20(s0)
1174:../Firmware/GD32VW55x_standard_peripheral/Source/gd32vw55x_rtc.c **** }
 3101              		.loc 1 1174 1
 3102 006c 3E85     		mv	a0,a5
 3103 006e F240     		lw	ra,28(sp)
 3104              		.cfi_restore 1
 3105 0070 6244     		lw	s0,24(sp)
 3106              		.cfi_restore 8
 3107              		.cfi_def_cfa 2, 32
 3108 0072 0561     		addi	sp,sp,32
 3109              		.cfi_def_cfa_offset 0
 3110 0074 8280     		jr	ra
 3111              		.cfi_endproc
 3112              	.LFE384:
 3114              		.section	.text.rtc_coarse_calibration_config,"ax",@progbits
 3115              		.align	1
 3116              		.globl	rtc_coarse_calibration_config
 3118              	rtc_coarse_calibration_config:
 3119              	.LFB385:
1175:../Firmware/GD32VW55x_standard_peripheral/Source/gd32vw55x_rtc.c **** 
1176:../Firmware/GD32VW55x_standard_peripheral/Source/gd32vw55x_rtc.c **** /*!
1177:../Firmware/GD32VW55x_standard_peripheral/Source/gd32vw55x_rtc.c ****     \brief      config coarse calibration direction and step
1178:../Firmware/GD32VW55x_standard_peripheral/Source/gd32vw55x_rtc.c ****     \param[in]  direction: CALIB_INCREASE or CALIB_DECREASE
1179:../Firmware/GD32VW55x_standard_peripheral/Source/gd32vw55x_rtc.c ****     \param[in]  step: 0x00-0x1F
1180:../Firmware/GD32VW55x_standard_peripheral/Source/gd32vw55x_rtc.c ****                 COSD=0:
1181:../Firmware/GD32VW55x_standard_peripheral/Source/gd32vw55x_rtc.c ****                   0x00:+0 PPM
1182:../Firmware/GD32VW55x_standard_peripheral/Source/gd32vw55x_rtc.c ****                   0x01:+4 PPM
1183:../Firmware/GD32VW55x_standard_peripheral/Source/gd32vw55x_rtc.c ****                   0x02:+8 PPM
1184:../Firmware/GD32VW55x_standard_peripheral/Source/gd32vw55x_rtc.c ****                   ....
1185:../Firmware/GD32VW55x_standard_peripheral/Source/gd32vw55x_rtc.c ****                   0x1F:+126 PPM
1186:../Firmware/GD32VW55x_standard_peripheral/Source/gd32vw55x_rtc.c ****                 COSD=1:
1187:../Firmware/GD32VW55x_standard_peripheral/Source/gd32vw55x_rtc.c ****                   0x00:-0 PPM
1188:../Firmware/GD32VW55x_standard_peripheral/Source/gd32vw55x_rtc.c ****                   0x01:-2 PPM
1189:../Firmware/GD32VW55x_standard_peripheral/Source/gd32vw55x_rtc.c ****                   0x02:-4 PPM
1190:../Firmware/GD32VW55x_standard_peripheral/Source/gd32vw55x_rtc.c ****                   ....
1191:../Firmware/GD32VW55x_standard_peripheral/Source/gd32vw55x_rtc.c ****                   0x1F:-63 PPM
1192:../Firmware/GD32VW55x_standard_peripheral/Source/gd32vw55x_rtc.c ****     \param[out] none
1193:../Firmware/GD32VW55x_standard_peripheral/Source/gd32vw55x_rtc.c ****     \retval     ErrStatus: ERROR or SUCCESS
1194:../Firmware/GD32VW55x_standard_peripheral/Source/gd32vw55x_rtc.c **** */
1195:../Firmware/GD32VW55x_standard_peripheral/Source/gd32vw55x_rtc.c **** ErrStatus rtc_coarse_calibration_config(uint8_t direction, uint8_t step)
1196:../Firmware/GD32VW55x_standard_peripheral/Source/gd32vw55x_rtc.c **** {
 3120              		.loc 1 1196 1
 3121              		.cfi_startproc
 3122 0000 7971     		addi	sp,sp,-48
 3123              		.cfi_def_cfa_offset 48
 3124 0002 06D6     		sw	ra,44(sp)
 3125 0004 22D4     		sw	s0,40(sp)
 3126              		.cfi_offset 1, -4
 3127              		.cfi_offset 8, -8
 3128 0006 0018     		addi	s0,sp,48
 3129              		.cfi_def_cfa 8, 0
 3130 0008 AA87     		mv	a5,a0
 3131 000a 2E87     		mv	a4,a1
 3132 000c A30FF4FC 		sb	a5,-33(s0)
 3133 0010 BA87     		mv	a5,a4
 3134 0012 230FF4FC 		sb	a5,-34(s0)
1197:../Firmware/GD32VW55x_standard_peripheral/Source/gd32vw55x_rtc.c ****     ErrStatus error_status = ERROR;
 3135              		.loc 1 1197 15
 3136 0016 232604FE 		sw	zero,-20(s0)
1198:../Firmware/GD32VW55x_standard_peripheral/Source/gd32vw55x_rtc.c ****     /* disable the write protection */
1199:../Firmware/GD32VW55x_standard_peripheral/Source/gd32vw55x_rtc.c ****     RTC_WPK = RTC_UNLOCK_KEY1;
 3137              		.loc 1 1199 5
 3138 001a B7370040 		li	a5,1073754112
 3139 001e 93874782 		addi	a5,a5,-2012
 3140              		.loc 1 1199 13
 3141 0022 1307A00C 		li	a4,202
 3142 0026 98C3     		sw	a4,0(a5)
1200:../Firmware/GD32VW55x_standard_peripheral/Source/gd32vw55x_rtc.c ****     RTC_WPK = RTC_UNLOCK_KEY2;
 3143              		.loc 1 1200 5
 3144 0028 B7370040 		li	a5,1073754112
 3145 002c 93874782 		addi	a5,a5,-2012
 3146              		.loc 1 1200 13
 3147 0030 13073005 		li	a4,83
 3148 0034 98C3     		sw	a4,0(a5)
1201:../Firmware/GD32VW55x_standard_peripheral/Source/gd32vw55x_rtc.c **** 
1202:../Firmware/GD32VW55x_standard_peripheral/Source/gd32vw55x_rtc.c ****     /* enter init mode */
1203:../Firmware/GD32VW55x_standard_peripheral/Source/gd32vw55x_rtc.c ****     error_status = rtc_init_mode_enter();
 3149              		.loc 1 1203 20
 3150 0036 97000000 		call	rtc_init_mode_enter
 3150      E7800000 
 3151 003e 2326A4FE 		sw	a0,-20(s0)
1204:../Firmware/GD32VW55x_standard_peripheral/Source/gd32vw55x_rtc.c **** 
1205:../Firmware/GD32VW55x_standard_peripheral/Source/gd32vw55x_rtc.c ****     if(ERROR != error_status) {
 3152              		.loc 1 1205 7
 3153 0042 8327C4FE 		lw	a5,-20(s0)
 3154 0046 ADCF     		beq	a5,zero,.L113
1206:../Firmware/GD32VW55x_standard_peripheral/Source/gd32vw55x_rtc.c ****         if(CALIB_DECREASE == direction) {
 3155              		.loc 1 1206 11
 3156 0048 0347F4FD 		lbu	a4,-33(s0)
 3157 004c 8947     		li	a5,2
 3158 004e 631FF700 		bne	a4,a5,.L114
1207:../Firmware/GD32VW55x_standard_peripheral/Source/gd32vw55x_rtc.c ****             RTC_COSC |= (uint32_t)RTC_COSC_COSD;
 3159              		.loc 1 1207 22
 3160 0052 B7370040 		li	a5,1073754112
 3161 0056 93878781 		addi	a5,a5,-2024
 3162 005a 9843     		lw	a4,0(a5)
 3163 005c B7370040 		li	a5,1073754112
 3164 0060 93878781 		addi	a5,a5,-2024
 3165 0064 13670708 		ori	a4,a4,128
 3166 0068 98C3     		sw	a4,0(a5)
 3167 006a 29A8     		j	.L115
 3168              	.L114:
1208:../Firmware/GD32VW55x_standard_peripheral/Source/gd32vw55x_rtc.c ****         } else {
1209:../Firmware/GD32VW55x_standard_peripheral/Source/gd32vw55x_rtc.c ****             RTC_COSC &= (uint32_t)~RTC_COSC_COSD;
 3169              		.loc 1 1209 22
 3170 006c B7370040 		li	a5,1073754112
 3171 0070 93878781 		addi	a5,a5,-2024
 3172 0074 9843     		lw	a4,0(a5)
 3173 0076 B7370040 		li	a5,1073754112
 3174 007a 93878781 		addi	a5,a5,-2024
 3175 007e 1377F7F7 		andi	a4,a4,-129
 3176 0082 98C3     		sw	a4,0(a5)
 3177              	.L115:
1210:../Firmware/GD32VW55x_standard_peripheral/Source/gd32vw55x_rtc.c ****         }
1211:../Firmware/GD32VW55x_standard_peripheral/Source/gd32vw55x_rtc.c ****         RTC_COSC &= ~RTC_COSC_COSS;
 3178              		.loc 1 1211 18
 3179 0084 B7370040 		li	a5,1073754112
 3180 0088 93878781 		addi	a5,a5,-2024
 3181 008c 9843     		lw	a4,0(a5)
 3182 008e B7370040 		li	a5,1073754112
 3183 0092 93878781 		addi	a5,a5,-2024
 3184 0096 019B     		andi	a4,a4,-32
 3185 0098 98C3     		sw	a4,0(a5)
1212:../Firmware/GD32VW55x_standard_peripheral/Source/gd32vw55x_rtc.c ****         RTC_COSC |= (uint32_t)((uint32_t)step & 0x1FU);
 3186              		.loc 1 1212 18
 3187 009a B7370040 		li	a5,1073754112
 3188 009e 93878781 		addi	a5,a5,-2024
 3189 00a2 9443     		lw	a3,0(a5)
 3190              		.loc 1 1212 21
 3191 00a4 8347E4FD 		lbu	a5,-34(s0)
 3192 00a8 13F7F701 		andi	a4,a5,31
 3193              		.loc 1 1212 18
 3194 00ac B7370040 		li	a5,1073754112
 3195 00b0 93878781 		addi	a5,a5,-2024
 3196 00b4 558F     		or	a4,a3,a4
 3197 00b6 98C3     		sw	a4,0(a5)
1213:../Firmware/GD32VW55x_standard_peripheral/Source/gd32vw55x_rtc.c ****         /* exit init mode */
1214:../Firmware/GD32VW55x_standard_peripheral/Source/gd32vw55x_rtc.c ****         rtc_init_mode_exit();
 3198              		.loc 1 1214 9
 3199 00b8 97000000 		call	rtc_init_mode_exit
 3199      E7800000 
 3200              	.L113:
1215:../Firmware/GD32VW55x_standard_peripheral/Source/gd32vw55x_rtc.c ****     }
1216:../Firmware/GD32VW55x_standard_peripheral/Source/gd32vw55x_rtc.c ****     /* enable the write protection */
1217:../Firmware/GD32VW55x_standard_peripheral/Source/gd32vw55x_rtc.c ****     RTC_WPK = RTC_LOCK_KEY;
 3201              		.loc 1 1217 5
 3202 00c0 B7370040 		li	a5,1073754112
 3203 00c4 93874782 		addi	a5,a5,-2012
 3204              		.loc 1 1217 13
 3205 00c8 1307F00F 		li	a4,255
 3206 00cc 98C3     		sw	a4,0(a5)
1218:../Firmware/GD32VW55x_standard_peripheral/Source/gd32vw55x_rtc.c ****     return error_status;
 3207              		.loc 1 1218 12
 3208 00ce 8327C4FE 		lw	a5,-20(s0)
1219:../Firmware/GD32VW55x_standard_peripheral/Source/gd32vw55x_rtc.c **** }
 3209              		.loc 1 1219 1
 3210 00d2 3E85     		mv	a0,a5
 3211 00d4 B250     		lw	ra,44(sp)
 3212              		.cfi_restore 1
 3213 00d6 2254     		lw	s0,40(sp)
 3214              		.cfi_restore 8
 3215              		.cfi_def_cfa 2, 48
 3216 00d8 4561     		addi	sp,sp,48
 3217              		.cfi_def_cfa_offset 0
 3218 00da 8280     		jr	ra
 3219              		.cfi_endproc
 3220              	.LFE385:
 3222              		.section	.text.rtc_flag_get,"ax",@progbits
 3223              		.align	1
 3224              		.globl	rtc_flag_get
 3226              	rtc_flag_get:
 3227              	.LFB386:
1220:../Firmware/GD32VW55x_standard_peripheral/Source/gd32vw55x_rtc.c **** 
1221:../Firmware/GD32VW55x_standard_peripheral/Source/gd32vw55x_rtc.c **** /*!
1222:../Firmware/GD32VW55x_standard_peripheral/Source/gd32vw55x_rtc.c ****     \brief      check specified flag
1223:../Firmware/GD32VW55x_standard_peripheral/Source/gd32vw55x_rtc.c ****     \param[in]  flag: specify which flag to check
1224:../Firmware/GD32VW55x_standard_peripheral/Source/gd32vw55x_rtc.c ****       \arg        RTC_FLAG_SCP: smooth calibration pending flag
1225:../Firmware/GD32VW55x_standard_peripheral/Source/gd32vw55x_rtc.c ****       \arg        RTC_FLAG_TP1: RTC tamper 1 detected flag
1226:../Firmware/GD32VW55x_standard_peripheral/Source/gd32vw55x_rtc.c ****       \arg        RTC_FLAG_TP0: RTC tamper 0 detected flag
1227:../Firmware/GD32VW55x_standard_peripheral/Source/gd32vw55x_rtc.c ****       \arg        RTC_FLAG_TSOVR: time-stamp overflow flag
1228:../Firmware/GD32VW55x_standard_peripheral/Source/gd32vw55x_rtc.c ****       \arg        RTC_FLAG_TS: time-stamp flag
1229:../Firmware/GD32VW55x_standard_peripheral/Source/gd32vw55x_rtc.c ****       \arg        RTC_FLAG_ALARM0: alarm0 occurs flag
1230:../Firmware/GD32VW55x_standard_peripheral/Source/gd32vw55x_rtc.c ****       \arg        RTC_FLAG_ALARM1: alarm1 occurs flag
1231:../Firmware/GD32VW55x_standard_peripheral/Source/gd32vw55x_rtc.c ****       \arg        RTC_FLAG_WT: wakeup timer occurs flag
1232:../Firmware/GD32VW55x_standard_peripheral/Source/gd32vw55x_rtc.c ****       \arg        RTC_FLAG_INIT: initialization state flag
1233:../Firmware/GD32VW55x_standard_peripheral/Source/gd32vw55x_rtc.c ****       \arg        RTC_FLAG_RSYN: register synchronization flag
1234:../Firmware/GD32VW55x_standard_peripheral/Source/gd32vw55x_rtc.c ****       \arg        RTC_FLAG_YCM: year configuration mark status flag
1235:../Firmware/GD32VW55x_standard_peripheral/Source/gd32vw55x_rtc.c ****       \arg        RTC_FLAG_SOP: shift function operation pending flag
1236:../Firmware/GD32VW55x_standard_peripheral/Source/gd32vw55x_rtc.c ****       \arg        RTC_FLAG_ALARM0W: alarm0 configuration can be written flag
1237:../Firmware/GD32VW55x_standard_peripheral/Source/gd32vw55x_rtc.c ****       \arg        RTC_FLAG_ALARM1W: alarm1 configuration can be written flag
1238:../Firmware/GD32VW55x_standard_peripheral/Source/gd32vw55x_rtc.c ****       \arg        RTC_FLAG_WTW: wakeup timer can be written flag
1239:../Firmware/GD32VW55x_standard_peripheral/Source/gd32vw55x_rtc.c ****     \param[out] none
1240:../Firmware/GD32VW55x_standard_peripheral/Source/gd32vw55x_rtc.c ****     \retval     FlagStatus: SET or RESET
1241:../Firmware/GD32VW55x_standard_peripheral/Source/gd32vw55x_rtc.c **** */
1242:../Firmware/GD32VW55x_standard_peripheral/Source/gd32vw55x_rtc.c **** FlagStatus rtc_flag_get(uint32_t flag)
1243:../Firmware/GD32VW55x_standard_peripheral/Source/gd32vw55x_rtc.c **** {
 3228              		.loc 1 1243 1
 3229              		.cfi_startproc
 3230 0000 7971     		addi	sp,sp,-48
 3231              		.cfi_def_cfa_offset 48
 3232 0002 22D6     		sw	s0,44(sp)
 3233              		.cfi_offset 8, -4
 3234 0004 0018     		addi	s0,sp,48
 3235              		.cfi_def_cfa 8, 0
 3236 0006 232EA4FC 		sw	a0,-36(s0)
1244:../Firmware/GD32VW55x_standard_peripheral/Source/gd32vw55x_rtc.c ****     FlagStatus flag_state = RESET;
 3237              		.loc 1 1244 16
 3238 000a 232604FE 		sw	zero,-20(s0)
1245:../Firmware/GD32VW55x_standard_peripheral/Source/gd32vw55x_rtc.c **** 
1246:../Firmware/GD32VW55x_standard_peripheral/Source/gd32vw55x_rtc.c ****     if((uint32_t)RESET != (RTC_STAT & flag)) {
 3239              		.loc 1 1246 28
 3240 000e B7370040 		li	a5,1073754112
 3241 0012 9387C780 		addi	a5,a5,-2036
 3242 0016 9843     		lw	a4,0(a5)
 3243              		.loc 1 1246 37
 3244 0018 8327C4FD 		lw	a5,-36(s0)
 3245 001c F98F     		and	a5,a4,a5
 3246              		.loc 1 1246 7
 3247 001e 81C7     		beq	a5,zero,.L118
1247:../Firmware/GD32VW55x_standard_peripheral/Source/gd32vw55x_rtc.c ****         flag_state = SET;
 3248              		.loc 1 1247 20
 3249 0020 8547     		li	a5,1
 3250 0022 2326F4FE 		sw	a5,-20(s0)
 3251              	.L118:
1248:../Firmware/GD32VW55x_standard_peripheral/Source/gd32vw55x_rtc.c ****     }
1249:../Firmware/GD32VW55x_standard_peripheral/Source/gd32vw55x_rtc.c ****     return flag_state;
 3252              		.loc 1 1249 12
 3253 0026 8327C4FE 		lw	a5,-20(s0)
1250:../Firmware/GD32VW55x_standard_peripheral/Source/gd32vw55x_rtc.c **** }
 3254              		.loc 1 1250 1
 3255 002a 3E85     		mv	a0,a5
 3256 002c 3254     		lw	s0,44(sp)
 3257              		.cfi_restore 8
 3258              		.cfi_def_cfa 2, 48
 3259 002e 4561     		addi	sp,sp,48
 3260              		.cfi_def_cfa_offset 0
 3261 0030 8280     		jr	ra
 3262              		.cfi_endproc
 3263              	.LFE386:
 3265              		.section	.text.rtc_flag_clear,"ax",@progbits
 3266              		.align	1
 3267              		.globl	rtc_flag_clear
 3269              	rtc_flag_clear:
 3270              	.LFB387:
1251:../Firmware/GD32VW55x_standard_peripheral/Source/gd32vw55x_rtc.c **** 
1252:../Firmware/GD32VW55x_standard_peripheral/Source/gd32vw55x_rtc.c **** /*!
1253:../Firmware/GD32VW55x_standard_peripheral/Source/gd32vw55x_rtc.c ****     \brief      clear specified flag
1254:../Firmware/GD32VW55x_standard_peripheral/Source/gd32vw55x_rtc.c ****     \param[in]  flag: specify which flag to clear
1255:../Firmware/GD32VW55x_standard_peripheral/Source/gd32vw55x_rtc.c ****       \arg        RTC_FLAG_TP1: RTC tamper 1 detected flag
1256:../Firmware/GD32VW55x_standard_peripheral/Source/gd32vw55x_rtc.c ****       \arg        RTC_FLAG_TP0: RTC tamper 0 detected flag
1257:../Firmware/GD32VW55x_standard_peripheral/Source/gd32vw55x_rtc.c ****       \arg        RTC_FLAG_TSOVR: time-stamp overflow flag
1258:../Firmware/GD32VW55x_standard_peripheral/Source/gd32vw55x_rtc.c ****       \arg        RTC_FLAG_TS: time-stamp flag
1259:../Firmware/GD32VW55x_standard_peripheral/Source/gd32vw55x_rtc.c ****       \arg        RTC_FLAG_WT: wakeup timer occurs flag
1260:../Firmware/GD32VW55x_standard_peripheral/Source/gd32vw55x_rtc.c ****       \arg        RTC_FLAG_ALARM0: alarm0 occurs flag
1261:../Firmware/GD32VW55x_standard_peripheral/Source/gd32vw55x_rtc.c ****       \arg        RTC_FLAG_ALARM1: alarm1 occurs flag
1262:../Firmware/GD32VW55x_standard_peripheral/Source/gd32vw55x_rtc.c ****       \arg        RTC_FLAG_RSYN: register synchronization flag
1263:../Firmware/GD32VW55x_standard_peripheral/Source/gd32vw55x_rtc.c ****     \param[out] none
1264:../Firmware/GD32VW55x_standard_peripheral/Source/gd32vw55x_rtc.c ****     \retval     none
1265:../Firmware/GD32VW55x_standard_peripheral/Source/gd32vw55x_rtc.c **** */
1266:../Firmware/GD32VW55x_standard_peripheral/Source/gd32vw55x_rtc.c **** void rtc_flag_clear(uint32_t flag)
1267:../Firmware/GD32VW55x_standard_peripheral/Source/gd32vw55x_rtc.c **** {
 3271              		.loc 1 1267 1
 3272              		.cfi_startproc
 3273 0000 0111     		addi	sp,sp,-32
 3274              		.cfi_def_cfa_offset 32
 3275 0002 22CE     		sw	s0,28(sp)
 3276              		.cfi_offset 8, -4
 3277 0004 0010     		addi	s0,sp,32
 3278              		.cfi_def_cfa 8, 0
 3279 0006 2326A4FE 		sw	a0,-20(s0)
1268:../Firmware/GD32VW55x_standard_peripheral/Source/gd32vw55x_rtc.c ****     /* disable the write protection */
1269:../Firmware/GD32VW55x_standard_peripheral/Source/gd32vw55x_rtc.c ****     RTC_WPK = RTC_UNLOCK_KEY1;
 3280              		.loc 1 1269 5
 3281 000a B7370040 		li	a5,1073754112
 3282 000e 93874782 		addi	a5,a5,-2012
 3283              		.loc 1 1269 13
 3284 0012 1307A00C 		li	a4,202
 3285 0016 98C3     		sw	a4,0(a5)
1270:../Firmware/GD32VW55x_standard_peripheral/Source/gd32vw55x_rtc.c ****     RTC_WPK = RTC_UNLOCK_KEY2;
 3286              		.loc 1 1270 5
 3287 0018 B7370040 		li	a5,1073754112
 3288 001c 93874782 		addi	a5,a5,-2012
 3289              		.loc 1 1270 13
 3290 0020 13073005 		li	a4,83
 3291 0024 98C3     		sw	a4,0(a5)
1271:../Firmware/GD32VW55x_standard_peripheral/Source/gd32vw55x_rtc.c **** 
1272:../Firmware/GD32VW55x_standard_peripheral/Source/gd32vw55x_rtc.c ****     RTC_STAT &= (uint32_t)(~flag);
 3292              		.loc 1 1272 14
 3293 0026 B7370040 		li	a5,1073754112
 3294 002a 9387C780 		addi	a5,a5,-2036
 3295 002e 9443     		lw	a3,0(a5)
 3296              		.loc 1 1272 28
 3297 0030 8327C4FE 		lw	a5,-20(s0)
 3298 0034 13C7F7FF 		not	a4,a5
 3299              		.loc 1 1272 14
 3300 0038 B7370040 		li	a5,1073754112
 3301 003c 9387C780 		addi	a5,a5,-2036
 3302 0040 758F     		and	a4,a3,a4
 3303 0042 98C3     		sw	a4,0(a5)
1273:../Firmware/GD32VW55x_standard_peripheral/Source/gd32vw55x_rtc.c **** 
1274:../Firmware/GD32VW55x_standard_peripheral/Source/gd32vw55x_rtc.c ****     /* enable the write protection */
1275:../Firmware/GD32VW55x_standard_peripheral/Source/gd32vw55x_rtc.c ****     RTC_WPK = RTC_LOCK_KEY;
 3304              		.loc 1 1275 5
 3305 0044 B7370040 		li	a5,1073754112
 3306 0048 93874782 		addi	a5,a5,-2012
 3307              		.loc 1 1275 13
 3308 004c 1307F00F 		li	a4,255
 3309 0050 98C3     		sw	a4,0(a5)
1276:../Firmware/GD32VW55x_standard_peripheral/Source/gd32vw55x_rtc.c **** }
 3310              		.loc 1 1276 1
 3311 0052 0100     		nop
 3312 0054 7244     		lw	s0,28(sp)
 3313              		.cfi_restore 8
 3314              		.cfi_def_cfa 2, 32
 3315 0056 0561     		addi	sp,sp,32
 3316              		.cfi_def_cfa_offset 0
 3317 0058 8280     		jr	ra
 3318              		.cfi_endproc
 3319              	.LFE387:
 3321              		.section	.text.rtc_interrupt_enable,"ax",@progbits
 3322              		.align	1
 3323              		.globl	rtc_interrupt_enable
 3325              	rtc_interrupt_enable:
 3326              	.LFB388:
1277:../Firmware/GD32VW55x_standard_peripheral/Source/gd32vw55x_rtc.c **** 
1278:../Firmware/GD32VW55x_standard_peripheral/Source/gd32vw55x_rtc.c **** /*!
1279:../Firmware/GD32VW55x_standard_peripheral/Source/gd32vw55x_rtc.c ****     \brief      enable specified RTC interrupt
1280:../Firmware/GD32VW55x_standard_peripheral/Source/gd32vw55x_rtc.c ****     \param[in]  interrupt: specify which interrupt source to be enabled
1281:../Firmware/GD32VW55x_standard_peripheral/Source/gd32vw55x_rtc.c ****       \arg        RTC_INT_TIMESTAMP: timestamp interrupt
1282:../Firmware/GD32VW55x_standard_peripheral/Source/gd32vw55x_rtc.c ****       \arg        RTC_INT_ALARM0: alarm0 interrupt
1283:../Firmware/GD32VW55x_standard_peripheral/Source/gd32vw55x_rtc.c ****       \arg        RTC_INT_ALARM1: alarm1 interrupt
1284:../Firmware/GD32VW55x_standard_peripheral/Source/gd32vw55x_rtc.c ****       \arg        RTC_INT_TAMP: tamper detection interrupt
1285:../Firmware/GD32VW55x_standard_peripheral/Source/gd32vw55x_rtc.c ****       \arg        RTC_INT_WAKEUP: wakeup timer interrupt
1286:../Firmware/GD32VW55x_standard_peripheral/Source/gd32vw55x_rtc.c ****     \param[out] none
1287:../Firmware/GD32VW55x_standard_peripheral/Source/gd32vw55x_rtc.c ****     \retval     none
1288:../Firmware/GD32VW55x_standard_peripheral/Source/gd32vw55x_rtc.c **** */
1289:../Firmware/GD32VW55x_standard_peripheral/Source/gd32vw55x_rtc.c **** void rtc_interrupt_enable(uint32_t interrupt)
1290:../Firmware/GD32VW55x_standard_peripheral/Source/gd32vw55x_rtc.c **** {
 3327              		.loc 1 1290 1
 3328              		.cfi_startproc
 3329 0000 0111     		addi	sp,sp,-32
 3330              		.cfi_def_cfa_offset 32
 3331 0002 22CE     		sw	s0,28(sp)
 3332              		.cfi_offset 8, -4
 3333 0004 0010     		addi	s0,sp,32
 3334              		.cfi_def_cfa 8, 0
 3335 0006 2326A4FE 		sw	a0,-20(s0)
1291:../Firmware/GD32VW55x_standard_peripheral/Source/gd32vw55x_rtc.c ****     if(RTC_INT_TAMP == interrupt) {
 3336              		.loc 1 1291 7
 3337 000a 0327C4FE 		lw	a4,-20(s0)
 3338 000e 9147     		li	a5,4
 3339 0010 6310F702 		bne	a4,a5,.L122
1292:../Firmware/GD32VW55x_standard_peripheral/Source/gd32vw55x_rtc.c ****         /* enable the interrupts in RTC_TAMP register */
1293:../Firmware/GD32VW55x_standard_peripheral/Source/gd32vw55x_rtc.c ****         RTC_TAMP |= (uint32_t)(interrupt);
 3340              		.loc 1 1293 18
 3341 0014 B7370040 		li	a5,1073754112
 3342 0018 93870784 		addi	a5,a5,-1984
 3343 001c 9443     		lw	a3,0(a5)
 3344 001e B7370040 		li	a5,1073754112
 3345 0022 93870784 		addi	a5,a5,-1984
 3346 0026 0327C4FE 		lw	a4,-20(s0)
 3347 002a 558F     		or	a4,a3,a4
 3348 002c 98C3     		sw	a4,0(a5)
1294:../Firmware/GD32VW55x_standard_peripheral/Source/gd32vw55x_rtc.c ****     } else {
1295:../Firmware/GD32VW55x_standard_peripheral/Source/gd32vw55x_rtc.c ****         /* disable the write protection */
1296:../Firmware/GD32VW55x_standard_peripheral/Source/gd32vw55x_rtc.c ****         RTC_WPK = RTC_UNLOCK_KEY1;
1297:../Firmware/GD32VW55x_standard_peripheral/Source/gd32vw55x_rtc.c ****         RTC_WPK = RTC_UNLOCK_KEY2;
1298:../Firmware/GD32VW55x_standard_peripheral/Source/gd32vw55x_rtc.c ****         /* enable the interrupts in RTC_CTL register */
1299:../Firmware/GD32VW55x_standard_peripheral/Source/gd32vw55x_rtc.c ****         RTC_CTL |= (uint32_t)(interrupt);
1300:../Firmware/GD32VW55x_standard_peripheral/Source/gd32vw55x_rtc.c ****         /* enable the write protection */
1301:../Firmware/GD32VW55x_standard_peripheral/Source/gd32vw55x_rtc.c ****         RTC_WPK = RTC_LOCK_KEY;
1302:../Firmware/GD32VW55x_standard_peripheral/Source/gd32vw55x_rtc.c ****     }
1303:../Firmware/GD32VW55x_standard_peripheral/Source/gd32vw55x_rtc.c **** }
 3349              		.loc 1 1303 1
 3350 002e 99A0     		j	.L124
 3351              	.L122:
1296:../Firmware/GD32VW55x_standard_peripheral/Source/gd32vw55x_rtc.c ****         RTC_WPK = RTC_UNLOCK_KEY2;
 3352              		.loc 1 1296 9
 3353 0030 B7370040 		li	a5,1073754112
 3354 0034 93874782 		addi	a5,a5,-2012
1296:../Firmware/GD32VW55x_standard_peripheral/Source/gd32vw55x_rtc.c ****         RTC_WPK = RTC_UNLOCK_KEY2;
 3355              		.loc 1 1296 17
 3356 0038 1307A00C 		li	a4,202
 3357 003c 98C3     		sw	a4,0(a5)
1297:../Firmware/GD32VW55x_standard_peripheral/Source/gd32vw55x_rtc.c ****         /* enable the interrupts in RTC_CTL register */
 3358              		.loc 1 1297 9
 3359 003e B7370040 		li	a5,1073754112
 3360 0042 93874782 		addi	a5,a5,-2012
1297:../Firmware/GD32VW55x_standard_peripheral/Source/gd32vw55x_rtc.c ****         /* enable the interrupts in RTC_CTL register */
 3361              		.loc 1 1297 17
 3362 0046 13073005 		li	a4,83
 3363 004a 98C3     		sw	a4,0(a5)
1299:../Firmware/GD32VW55x_standard_peripheral/Source/gd32vw55x_rtc.c ****         /* enable the write protection */
 3364              		.loc 1 1299 17
 3365 004c B7370040 		li	a5,1073754112
 3366 0050 93878780 		addi	a5,a5,-2040
 3367 0054 9443     		lw	a3,0(a5)
 3368 0056 B7370040 		li	a5,1073754112
 3369 005a 93878780 		addi	a5,a5,-2040
 3370 005e 0327C4FE 		lw	a4,-20(s0)
 3371 0062 558F     		or	a4,a3,a4
 3372 0064 98C3     		sw	a4,0(a5)
1301:../Firmware/GD32VW55x_standard_peripheral/Source/gd32vw55x_rtc.c ****     }
 3373              		.loc 1 1301 9
 3374 0066 B7370040 		li	a5,1073754112
 3375 006a 93874782 		addi	a5,a5,-2012
1301:../Firmware/GD32VW55x_standard_peripheral/Source/gd32vw55x_rtc.c ****     }
 3376              		.loc 1 1301 17
 3377 006e 1307F00F 		li	a4,255
 3378 0072 98C3     		sw	a4,0(a5)
 3379              	.L124:
 3380              		.loc 1 1303 1
 3381 0074 0100     		nop
 3382 0076 7244     		lw	s0,28(sp)
 3383              		.cfi_restore 8
 3384              		.cfi_def_cfa 2, 32
 3385 0078 0561     		addi	sp,sp,32
 3386              		.cfi_def_cfa_offset 0
 3387 007a 8280     		jr	ra
 3388              		.cfi_endproc
 3389              	.LFE388:
 3391              		.section	.text.rtc_interrupt_disable,"ax",@progbits
 3392              		.align	1
 3393              		.globl	rtc_interrupt_disable
 3395              	rtc_interrupt_disable:
 3396              	.LFB389:
1304:../Firmware/GD32VW55x_standard_peripheral/Source/gd32vw55x_rtc.c **** 
1305:../Firmware/GD32VW55x_standard_peripheral/Source/gd32vw55x_rtc.c **** /*!
1306:../Firmware/GD32VW55x_standard_peripheral/Source/gd32vw55x_rtc.c ****     \brief      disble specified RTC interrupt
1307:../Firmware/GD32VW55x_standard_peripheral/Source/gd32vw55x_rtc.c ****     \param[in]  interrupt: specify which interrupt source to be disabled
1308:../Firmware/GD32VW55x_standard_peripheral/Source/gd32vw55x_rtc.c ****       \arg        RTC_INT_TIMESTAMP: timestamp interrupt
1309:../Firmware/GD32VW55x_standard_peripheral/Source/gd32vw55x_rtc.c ****       \arg        RTC_INT_ALARM0: alarm0 interrupt
1310:../Firmware/GD32VW55x_standard_peripheral/Source/gd32vw55x_rtc.c ****       \arg        RTC_INT_ALARM1: alarm1 interrupt
1311:../Firmware/GD32VW55x_standard_peripheral/Source/gd32vw55x_rtc.c ****       \arg        RTC_INT_TAMP: tamper detection interrupt
1312:../Firmware/GD32VW55x_standard_peripheral/Source/gd32vw55x_rtc.c ****       \arg        RTC_INT_WAKEUP: wakeup timer interrupt
1313:../Firmware/GD32VW55x_standard_peripheral/Source/gd32vw55x_rtc.c ****     \param[out] none
1314:../Firmware/GD32VW55x_standard_peripheral/Source/gd32vw55x_rtc.c ****     \retval     none
1315:../Firmware/GD32VW55x_standard_peripheral/Source/gd32vw55x_rtc.c **** */
1316:../Firmware/GD32VW55x_standard_peripheral/Source/gd32vw55x_rtc.c **** void rtc_interrupt_disable(uint32_t interrupt)
1317:../Firmware/GD32VW55x_standard_peripheral/Source/gd32vw55x_rtc.c **** {
 3397              		.loc 1 1317 1
 3398              		.cfi_startproc
 3399 0000 0111     		addi	sp,sp,-32
 3400              		.cfi_def_cfa_offset 32
 3401 0002 22CE     		sw	s0,28(sp)
 3402              		.cfi_offset 8, -4
 3403 0004 0010     		addi	s0,sp,32
 3404              		.cfi_def_cfa 8, 0
 3405 0006 2326A4FE 		sw	a0,-20(s0)
1318:../Firmware/GD32VW55x_standard_peripheral/Source/gd32vw55x_rtc.c ****     if(RTC_INT_TAMP == interrupt) {
 3406              		.loc 1 1318 7
 3407 000a 0327C4FE 		lw	a4,-20(s0)
 3408 000e 9147     		li	a5,4
 3409 0010 6312F702 		bne	a4,a5,.L126
1319:../Firmware/GD32VW55x_standard_peripheral/Source/gd32vw55x_rtc.c ****         /* disable the interrupts in RTC_TAMP register */
1320:../Firmware/GD32VW55x_standard_peripheral/Source/gd32vw55x_rtc.c ****         RTC_TAMP &= (uint32_t)~(interrupt);
 3410              		.loc 1 1320 18
 3411 0014 B7370040 		li	a5,1073754112
 3412 0018 93870784 		addi	a5,a5,-1984
 3413 001c 9443     		lw	a3,0(a5)
 3414              		.loc 1 1320 31
 3415 001e 8327C4FE 		lw	a5,-20(s0)
 3416 0022 13C7F7FF 		not	a4,a5
 3417              		.loc 1 1320 18
 3418 0026 B7370040 		li	a5,1073754112
 3419 002a 93870784 		addi	a5,a5,-1984
 3420 002e 758F     		and	a4,a3,a4
 3421 0030 98C3     		sw	a4,0(a5)
1321:../Firmware/GD32VW55x_standard_peripheral/Source/gd32vw55x_rtc.c ****     } else {
1322:../Firmware/GD32VW55x_standard_peripheral/Source/gd32vw55x_rtc.c ****         /* disable the write protection */
1323:../Firmware/GD32VW55x_standard_peripheral/Source/gd32vw55x_rtc.c ****         RTC_WPK = RTC_UNLOCK_KEY1;
1324:../Firmware/GD32VW55x_standard_peripheral/Source/gd32vw55x_rtc.c ****         RTC_WPK = RTC_UNLOCK_KEY2;
1325:../Firmware/GD32VW55x_standard_peripheral/Source/gd32vw55x_rtc.c ****         /* disable the interrupts in RTC_CTL register */
1326:../Firmware/GD32VW55x_standard_peripheral/Source/gd32vw55x_rtc.c ****         RTC_CTL &= (uint32_t)~(interrupt);
1327:../Firmware/GD32VW55x_standard_peripheral/Source/gd32vw55x_rtc.c ****         /* enable the write protection */
1328:../Firmware/GD32VW55x_standard_peripheral/Source/gd32vw55x_rtc.c ****         RTC_WPK = RTC_LOCK_KEY;
1329:../Firmware/GD32VW55x_standard_peripheral/Source/gd32vw55x_rtc.c ****     }
1330:../Firmware/GD32VW55x_standard_peripheral/Source/gd32vw55x_rtc.c **** }
 3422              		.loc 1 1330 1
 3423 0032 A9A0     		j	.L128
 3424              	.L126:
1323:../Firmware/GD32VW55x_standard_peripheral/Source/gd32vw55x_rtc.c ****         RTC_WPK = RTC_UNLOCK_KEY2;
 3425              		.loc 1 1323 9
 3426 0034 B7370040 		li	a5,1073754112
 3427 0038 93874782 		addi	a5,a5,-2012
1323:../Firmware/GD32VW55x_standard_peripheral/Source/gd32vw55x_rtc.c ****         RTC_WPK = RTC_UNLOCK_KEY2;
 3428              		.loc 1 1323 17
 3429 003c 1307A00C 		li	a4,202
 3430 0040 98C3     		sw	a4,0(a5)
1324:../Firmware/GD32VW55x_standard_peripheral/Source/gd32vw55x_rtc.c ****         /* disable the interrupts in RTC_CTL register */
 3431              		.loc 1 1324 9
 3432 0042 B7370040 		li	a5,1073754112
 3433 0046 93874782 		addi	a5,a5,-2012
1324:../Firmware/GD32VW55x_standard_peripheral/Source/gd32vw55x_rtc.c ****         /* disable the interrupts in RTC_CTL register */
 3434              		.loc 1 1324 17
 3435 004a 13073005 		li	a4,83
 3436 004e 98C3     		sw	a4,0(a5)
1326:../Firmware/GD32VW55x_standard_peripheral/Source/gd32vw55x_rtc.c ****         /* enable the write protection */
 3437              		.loc 1 1326 17
 3438 0050 B7370040 		li	a5,1073754112
 3439 0054 93878780 		addi	a5,a5,-2040
 3440 0058 9443     		lw	a3,0(a5)
1326:../Firmware/GD32VW55x_standard_peripheral/Source/gd32vw55x_rtc.c ****         /* enable the write protection */
 3441              		.loc 1 1326 30
 3442 005a 8327C4FE 		lw	a5,-20(s0)
 3443 005e 13C7F7FF 		not	a4,a5
1326:../Firmware/GD32VW55x_standard_peripheral/Source/gd32vw55x_rtc.c ****         /* enable the write protection */
 3444              		.loc 1 1326 17
 3445 0062 B7370040 		li	a5,1073754112
 3446 0066 93878780 		addi	a5,a5,-2040
 3447 006a 758F     		and	a4,a3,a4
 3448 006c 98C3     		sw	a4,0(a5)
1328:../Firmware/GD32VW55x_standard_peripheral/Source/gd32vw55x_rtc.c ****     }
 3449              		.loc 1 1328 9
 3450 006e B7370040 		li	a5,1073754112
 3451 0072 93874782 		addi	a5,a5,-2012
1328:../Firmware/GD32VW55x_standard_peripheral/Source/gd32vw55x_rtc.c ****     }
 3452              		.loc 1 1328 17
 3453 0076 1307F00F 		li	a4,255
 3454 007a 98C3     		sw	a4,0(a5)
 3455              	.L128:
 3456              		.loc 1 1330 1
 3457 007c 0100     		nop
 3458 007e 7244     		lw	s0,28(sp)
 3459              		.cfi_restore 8
 3460              		.cfi_def_cfa 2, 32
 3461 0080 0561     		addi	sp,sp,32
 3462              		.cfi_def_cfa_offset 0
 3463 0082 8280     		jr	ra
 3464              		.cfi_endproc
 3465              	.LFE389:
 3467              		.text
 3468              	.Letext0:
 3469              		.file 2 "e:\\gd32\\gd32embeddedbuilder_v1.5.2.30854\\tools\\nuclei_riscv_newlibc_prebuilt_win32_20
 3470              		.file 3 "e:\\gd32\\gd32embeddedbuilder_v1.5.2.30854\\tools\\nuclei_riscv_newlibc_prebuilt_win32_20
 3471              		.file 4 "../Firmware/GD32VW55x_standard_peripheral/gd32vw55x.h"
 3472              		.file 5 "../Firmware/GD32VW55x_standard_peripheral/Include/gd32vw55x_rtc.h"
DEFINED SYMBOLS
                            *ABS*:0000000000000000 gd32vw55x_rtc.c
C:\Users\CYMR90~1\AppData\Local\Temp\ccSIna8B.s:13     .text.rtc_deinit:0000000000000000 rtc_deinit
C:\Users\CYMR90~1\AppData\Local\Temp\ccSIna8B.s:17     .text.rtc_deinit:0000000000000000 .L0 
C:\Users\CYMR90~1\AppData\Local\Temp\ccSIna8B.s:18     .text.rtc_deinit:0000000000000000 .L0 
C:\Users\CYMR90~1\AppData\Local\Temp\ccSIna8B.s:19     .text.rtc_deinit:0000000000000002 .L0 
C:\Users\CYMR90~1\AppData\Local\Temp\ccSIna8B.s:22     .text.rtc_deinit:0000000000000006 .L0 
C:\Users\CYMR90~1\AppData\Local\Temp\ccSIna8B.s:23     .text.rtc_deinit:0000000000000006 .L0 
C:\Users\CYMR90~1\AppData\Local\Temp\ccSIna8B.s:25     .text.rtc_deinit:0000000000000008 .L0 
C:\Users\CYMR90~1\AppData\Local\Temp\ccSIna8B.s:27     .text.rtc_deinit:0000000000000008 .L0 
C:\Users\CYMR90~1\AppData\Local\Temp\ccSIna8B.s:29     .text.rtc_deinit:000000000000000c .L0 
C:\Users\CYMR90~1\AppData\Local\Temp\ccSIna8B.s:32     .text.rtc_deinit:0000000000000012 .L0 
C:\Users\CYMR90~1\AppData\Local\Temp\ccSIna8B.s:34     .text.rtc_deinit:0000000000000016 .L0 
C:\Users\CYMR90~1\AppData\Local\Temp\ccSIna8B.s:37     .text.rtc_deinit:000000000000001e .L0 
C:\Users\CYMR90~1\AppData\Local\Temp\ccSIna8B.s:39     .text.rtc_deinit:0000000000000022 .L0 
C:\Users\CYMR90~1\AppData\Local\Temp\ccSIna8B.s:47     .text.rtc_deinit:000000000000003a .L0 
C:\Users\CYMR90~1\AppData\Local\Temp\ccSIna8B.s:50     .text.rtc_deinit:0000000000000042 .L0 
C:\Users\CYMR90~1\AppData\Local\Temp\ccSIna8B.s:52     .text.rtc_deinit:0000000000000046 .L0 
C:\Users\CYMR90~1\AppData\Local\Temp\ccSIna8B.s:55     .text.rtc_deinit:000000000000004e .L0 
C:\Users\CYMR90~1\AppData\Local\Temp\ccSIna8B.s:57     .text.rtc_deinit:0000000000000052 .L0 
C:\Users\CYMR90~1\AppData\Local\Temp\ccSIna8B.s:60     .text.rtc_deinit:000000000000005a .L0 
C:\Users\CYMR90~1\AppData\Local\Temp\ccSIna8B.s:62     .text.rtc_deinit:000000000000005e .L0 
C:\Users\CYMR90~1\AppData\Local\Temp\ccSIna8B.s:65     .text.rtc_deinit:0000000000000066 .L0 
C:\Users\CYMR90~1\AppData\Local\Temp\ccSIna8B.s:67     .text.rtc_deinit:000000000000006a .L0 
C:\Users\CYMR90~1\AppData\Local\Temp\ccSIna8B.s:76     .text.rtc_deinit:0000000000000082 .L0 
C:\Users\CYMR90~1\AppData\Local\Temp\ccSIna8B.s:80     .text.rtc_deinit:000000000000008c .L0 
C:\Users\CYMR90~1\AppData\Local\Temp\ccSIna8B.s:83     .text.rtc_deinit:0000000000000092 .L0 
C:\Users\CYMR90~1\AppData\Local\Temp\ccSIna8B.s:86     .text.rtc_deinit:0000000000000098 .L0 
C:\Users\CYMR90~1\AppData\Local\Temp\ccSIna8B.s:89     .text.rtc_deinit:000000000000009e .L0 
C:\Users\CYMR90~1\AppData\Local\Temp\ccSIna8B.s:93     .text.rtc_deinit:00000000000000a4 .L0 
C:\Users\CYMR90~1\AppData\Local\Temp\ccSIna8B.s:96     .text.rtc_deinit:00000000000000aa .L0 
C:\Users\CYMR90~1\AppData\Local\Temp\ccSIna8B.s:100    .text.rtc_deinit:00000000000000b0 .L0 
C:\Users\CYMR90~1\AppData\Local\Temp\ccSIna8B.s:108    .text.rtc_deinit:00000000000000c6 .L0 
C:\Users\CYMR90~1\AppData\Local\Temp\ccSIna8B.s:111    .text.rtc_deinit:00000000000000ce .L0 
C:\Users\CYMR90~1\AppData\Local\Temp\ccSIna8B.s:115    .text.rtc_deinit:00000000000000d4 .L0 
C:\Users\CYMR90~1\AppData\Local\Temp\ccSIna8B.s:118    .text.rtc_deinit:00000000000000dc .L0 
C:\Users\CYMR90~1\AppData\Local\Temp\ccSIna8B.s:121    .text.rtc_deinit:00000000000000e2 .L0 
C:\Users\CYMR90~1\AppData\Local\Temp\ccSIna8B.s:124    .text.rtc_deinit:00000000000000ea .L0 
C:\Users\CYMR90~1\AppData\Local\Temp\ccSIna8B.s:380    .text.rtc_init_mode_enter:0000000000000000 rtc_init_mode_enter
C:\Users\CYMR90~1\AppData\Local\Temp\ccSIna8B.s:127    .text.rtc_deinit:00000000000000f0 .L0 
C:\Users\CYMR90~1\AppData\Local\Temp\ccSIna8B.s:130    .text.rtc_deinit:00000000000000fc .L0 
C:\Users\CYMR90~1\AppData\Local\Temp\ccSIna8B.s:133    .text.rtc_deinit:0000000000000104 .L0 
C:\Users\CYMR90~1\AppData\Local\Temp\ccSIna8B.s:135    .text.rtc_deinit:0000000000000108 .L0 
C:\Users\CYMR90~1\AppData\Local\Temp\ccSIna8B.s:138    .text.rtc_deinit:0000000000000110 .L0 
C:\Users\CYMR90~1\AppData\Local\Temp\ccSIna8B.s:140    .text.rtc_deinit:0000000000000114 .L0 
C:\Users\CYMR90~1\AppData\Local\Temp\ccSIna8B.s:143    .text.rtc_deinit:000000000000011c .L0 
C:\Users\CYMR90~1\AppData\Local\Temp\ccSIna8B.s:147    .text.rtc_deinit:0000000000000124 .L0 
C:\Users\CYMR90~1\AppData\Local\Temp\ccSIna8B.s:150    .text.rtc_deinit:000000000000012c .L0 
C:\Users\CYMR90~1\AppData\Local\Temp\ccSIna8B.s:154    .text.rtc_deinit:0000000000000136 .L0 
C:\Users\CYMR90~1\AppData\Local\Temp\ccSIna8B.s:157    .text.rtc_deinit:000000000000013e .L0 
C:\Users\CYMR90~1\AppData\Local\Temp\ccSIna8B.s:159    .text.rtc_deinit:0000000000000142 .L0 
C:\Users\CYMR90~1\AppData\Local\Temp\ccSIna8B.s:162    .text.rtc_deinit:000000000000014a .L0 
C:\Users\CYMR90~1\AppData\Local\Temp\ccSIna8B.s:164    .text.rtc_deinit:000000000000014e .L0 
C:\Users\CYMR90~1\AppData\Local\Temp\ccSIna8B.s:167    .text.rtc_deinit:0000000000000156 .L0 
C:\Users\CYMR90~1\AppData\Local\Temp\ccSIna8B.s:169    .text.rtc_deinit:000000000000015a .L0 
C:\Users\CYMR90~1\AppData\Local\Temp\ccSIna8B.s:172    .text.rtc_deinit:0000000000000162 .L0 
C:\Users\CYMR90~1\AppData\Local\Temp\ccSIna8B.s:493    .text.rtc_register_sync_wait:0000000000000000 rtc_register_sync_wait
C:\Users\CYMR90~1\AppData\Local\Temp\ccSIna8B.s:174    .text.rtc_deinit:0000000000000166 .L0 
C:\Users\CYMR90~1\AppData\Local\Temp\ccSIna8B.s:177    .text.rtc_deinit:0000000000000172 .L0 
C:\Users\CYMR90~1\AppData\Local\Temp\ccSIna8B.s:180    .text.rtc_deinit:000000000000017a .L0 
C:\Users\CYMR90~1\AppData\Local\Temp\ccSIna8B.s:184    .text.rtc_deinit:0000000000000180 .L0 
C:\Users\CYMR90~1\AppData\Local\Temp\ccSIna8B.s:186    .text.rtc_deinit:0000000000000184 .L0 
C:\Users\CYMR90~1\AppData\Local\Temp\ccSIna8B.s:188    .text.rtc_deinit:0000000000000188 .L0 
C:\Users\CYMR90~1\AppData\Local\Temp\ccSIna8B.s:190    .text.rtc_deinit:000000000000018a .L0 
C:\Users\CYMR90~1\AppData\Local\Temp\ccSIna8B.s:191    .text.rtc_deinit:000000000000018a .L0 
C:\Users\CYMR90~1\AppData\Local\Temp\ccSIna8B.s:193    .text.rtc_deinit:000000000000018c .L0 
C:\Users\CYMR90~1\AppData\Local\Temp\ccSIna8B.s:195    .text.rtc_deinit:000000000000018e .L0 
C:\Users\CYMR90~1\AppData\Local\Temp\ccSIna8B.s:202    .text.rtc_init:0000000000000000 rtc_init
C:\Users\CYMR90~1\AppData\Local\Temp\ccSIna8B.s:205    .text.rtc_init:0000000000000000 .L0 
C:\Users\CYMR90~1\AppData\Local\Temp\ccSIna8B.s:206    .text.rtc_init:0000000000000000 .L0 
C:\Users\CYMR90~1\AppData\Local\Temp\ccSIna8B.s:207    .text.rtc_init:0000000000000002 .L0 
C:\Users\CYMR90~1\AppData\Local\Temp\ccSIna8B.s:210    .text.rtc_init:0000000000000006 .L0 
C:\Users\CYMR90~1\AppData\Local\Temp\ccSIna8B.s:211    .text.rtc_init:0000000000000006 .L0 
C:\Users\CYMR90~1\AppData\Local\Temp\ccSIna8B.s:213    .text.rtc_init:0000000000000008 .L0 
C:\Users\CYMR90~1\AppData\Local\Temp\ccSIna8B.s:216    .text.rtc_init:000000000000000c .L0 
C:\Users\CYMR90~1\AppData\Local\Temp\ccSIna8B.s:218    .text.rtc_init:0000000000000010 .L0 
C:\Users\CYMR90~1\AppData\Local\Temp\ccSIna8B.s:220    .text.rtc_init:0000000000000014 .L0 
C:\Users\CYMR90~1\AppData\Local\Temp\ccSIna8B.s:222    .text.rtc_init:0000000000000018 .L0 
C:\Users\CYMR90~1\AppData\Local\Temp\ccSIna8B.s:228    .text.rtc_init:000000000000002a .L0 
C:\Users\CYMR90~1\AppData\Local\Temp\ccSIna8B.s:235    .text.rtc_init:000000000000003c .L0 
C:\Users\CYMR90~1\AppData\Local\Temp\ccSIna8B.s:237    .text.rtc_init:000000000000003e .L0 
C:\Users\CYMR90~1\AppData\Local\Temp\ccSIna8B.s:244    .text.rtc_init:0000000000000052 .L0 
C:\Users\CYMR90~1\AppData\Local\Temp\ccSIna8B.s:246    .text.rtc_init:0000000000000054 .L0 
C:\Users\CYMR90~1\AppData\Local\Temp\ccSIna8B.s:250    .text.rtc_init:0000000000000060 .L0 
C:\Users\CYMR90~1\AppData\Local\Temp\ccSIna8B.s:253    .text.rtc_init:0000000000000066 .L0 
C:\Users\CYMR90~1\AppData\Local\Temp\ccSIna8B.s:256    .text.rtc_init:000000000000006c .L0 
C:\Users\CYMR90~1\AppData\Local\Temp\ccSIna8B.s:262    .text.rtc_init:000000000000007e .L0 
C:\Users\CYMR90~1\AppData\Local\Temp\ccSIna8B.s:264    .text.rtc_init:0000000000000080 .L0 
C:\Users\CYMR90~1\AppData\Local\Temp\ccSIna8B.s:271    .text.rtc_init:0000000000000094 .L0 
C:\Users\CYMR90~1\AppData\Local\Temp\ccSIna8B.s:273    .text.rtc_init:0000000000000096 .L0 
C:\Users\CYMR90~1\AppData\Local\Temp\ccSIna8B.s:277    .text.rtc_init:00000000000000a2 .L0 
C:\Users\CYMR90~1\AppData\Local\Temp\ccSIna8B.s:280    .text.rtc_init:00000000000000a8 .L0 
C:\Users\CYMR90~1\AppData\Local\Temp\ccSIna8B.s:283    .text.rtc_init:00000000000000b0 .L0 
C:\Users\CYMR90~1\AppData\Local\Temp\ccSIna8B.s:286    .text.rtc_init:00000000000000b6 .L0 
C:\Users\CYMR90~1\AppData\Local\Temp\ccSIna8B.s:289    .text.rtc_init:00000000000000be .L0 
C:\Users\CYMR90~1\AppData\Local\Temp\ccSIna8B.s:292    .text.rtc_init:00000000000000c4 .L0 
C:\Users\CYMR90~1\AppData\Local\Temp\ccSIna8B.s:295    .text.rtc_init:00000000000000d0 .L0 
C:\Users\CYMR90~1\AppData\Local\Temp\ccSIna8B.s:298    .text.rtc_init:00000000000000d6 .L0 
C:\Users\CYMR90~1\AppData\Local\Temp\ccSIna8B.s:304    .text.rtc_init:00000000000000ea .L0 
C:\Users\CYMR90~1\AppData\Local\Temp\ccSIna8B.s:311    .text.rtc_init:00000000000000fa .L0 
C:\Users\CYMR90~1\AppData\Local\Temp\ccSIna8B.s:314    .text.rtc_init:0000000000000102 .L0 
C:\Users\CYMR90~1\AppData\Local\Temp\ccSIna8B.s:316    .text.rtc_init:0000000000000104 .L0 
C:\Users\CYMR90~1\AppData\Local\Temp\ccSIna8B.s:318    .text.rtc_init:0000000000000106 .L0 
C:\Users\CYMR90~1\AppData\Local\Temp\ccSIna8B.s:321    .text.rtc_init:000000000000010e .L0 
C:\Users\CYMR90~1\AppData\Local\Temp\ccSIna8B.s:324    .text.rtc_init:0000000000000114 .L0 
C:\Users\CYMR90~1\AppData\Local\Temp\ccSIna8B.s:327    .text.rtc_init:000000000000011c .L0 
C:\Users\CYMR90~1\AppData\Local\Temp\ccSIna8B.s:330    .text.rtc_init:0000000000000122 .L0 
C:\Users\CYMR90~1\AppData\Local\Temp\ccSIna8B.s:338    .text.rtc_init:000000000000013a .L0 
C:\Users\CYMR90~1\AppData\Local\Temp\ccSIna8B.s:342    .text.rtc_init:0000000000000144 .L0 
C:\Users\CYMR90~1\AppData\Local\Temp\ccSIna8B.s:345    .text.rtc_init:000000000000014a .L0 
C:\Users\CYMR90~1\AppData\Local\Temp\ccSIna8B.s:460    .text.rtc_init_mode_exit:0000000000000000 rtc_init_mode_exit
C:\Users\CYMR90~1\AppData\Local\Temp\ccSIna8B.s:350    .text.rtc_init:0000000000000156 .L0 
C:\Users\CYMR90~1\AppData\Local\Temp\ccSIna8B.s:352    .text.rtc_init:000000000000015e .L0 
C:\Users\CYMR90~1\AppData\Local\Temp\ccSIna8B.s:356    .text.rtc_init:000000000000016a .L0 
C:\Users\CYMR90~1\AppData\Local\Temp\ccSIna8B.s:359    .text.rtc_init:0000000000000172 .L0 
C:\Users\CYMR90~1\AppData\Local\Temp\ccSIna8B.s:362    .text.rtc_init:0000000000000178 .L0 
C:\Users\CYMR90~1\AppData\Local\Temp\ccSIna8B.s:364    .text.rtc_init:000000000000017c .L0 
C:\Users\CYMR90~1\AppData\Local\Temp\ccSIna8B.s:366    .text.rtc_init:0000000000000180 .L0 
C:\Users\CYMR90~1\AppData\Local\Temp\ccSIna8B.s:368    .text.rtc_init:0000000000000182 .L0 
C:\Users\CYMR90~1\AppData\Local\Temp\ccSIna8B.s:369    .text.rtc_init:0000000000000182 .L0 
C:\Users\CYMR90~1\AppData\Local\Temp\ccSIna8B.s:371    .text.rtc_init:0000000000000184 .L0 
C:\Users\CYMR90~1\AppData\Local\Temp\ccSIna8B.s:373    .text.rtc_init:0000000000000186 .L0 
C:\Users\CYMR90~1\AppData\Local\Temp\ccSIna8B.s:383    .text.rtc_init_mode_enter:0000000000000000 .L0 
C:\Users\CYMR90~1\AppData\Local\Temp\ccSIna8B.s:384    .text.rtc_init_mode_enter:0000000000000000 .L0 
C:\Users\CYMR90~1\AppData\Local\Temp\ccSIna8B.s:385    .text.rtc_init_mode_enter:0000000000000002 .L0 
C:\Users\CYMR90~1\AppData\Local\Temp\ccSIna8B.s:387    .text.rtc_init_mode_enter:0000000000000004 .L0 
C:\Users\CYMR90~1\AppData\Local\Temp\ccSIna8B.s:389    .text.rtc_init_mode_enter:0000000000000006 .L0 
C:\Users\CYMR90~1\AppData\Local\Temp\ccSIna8B.s:391    .text.rtc_init_mode_enter:0000000000000006 .L0 
C:\Users\CYMR90~1\AppData\Local\Temp\ccSIna8B.s:394    .text.rtc_init_mode_enter:000000000000000c .L0 
C:\Users\CYMR90~1\AppData\Local\Temp\ccSIna8B.s:396    .text.rtc_init_mode_enter:0000000000000010 .L0 
C:\Users\CYMR90~1\AppData\Local\Temp\ccSIna8B.s:398    .text.rtc_init_mode_enter:0000000000000014 .L0 
C:\Users\CYMR90~1\AppData\Local\Temp\ccSIna8B.s:402    .text.rtc_init_mode_enter:000000000000001e .L0 
C:\Users\CYMR90~1\AppData\Local\Temp\ccSIna8B.s:404    .text.rtc_init_mode_enter:0000000000000022 .L0 
C:\Users\CYMR90~1\AppData\Local\Temp\ccSIna8B.s:406    .text.rtc_init_mode_enter:0000000000000024 .L0 
C:\Users\CYMR90~1\AppData\Local\Temp\ccSIna8B.s:415    .text.rtc_init_mode_enter:000000000000003c .L0 
C:\Users\CYMR90~1\AppData\Local\Temp\ccSIna8B.s:419    .text.rtc_init_mode_enter:0000000000000046 .L0 
C:\Users\CYMR90~1\AppData\Local\Temp\ccSIna8B.s:422    .text.rtc_init_mode_enter:000000000000004e .L0 
C:\Users\CYMR90~1\AppData\Local\Temp\ccSIna8B.s:425    .text.rtc_init_mode_enter:0000000000000054 .L0 
C:\Users\CYMR90~1\AppData\Local\Temp\ccSIna8B.s:428    .text.rtc_init_mode_enter:000000000000005a .L0 
C:\Users\CYMR90~1\AppData\Local\Temp\ccSIna8B.s:432    .text.rtc_init_mode_enter:0000000000000060 .L0 
C:\Users\CYMR90~1\AppData\Local\Temp\ccSIna8B.s:435    .text.rtc_init_mode_enter:0000000000000066 .L0 
C:\Users\CYMR90~1\AppData\Local\Temp\ccSIna8B.s:440    .text.rtc_init_mode_enter:000000000000006e .L0 
C:\Users\CYMR90~1\AppData\Local\Temp\ccSIna8B.s:444    .text.rtc_init_mode_enter:0000000000000074 .L0 
C:\Users\CYMR90~1\AppData\Local\Temp\ccSIna8B.s:446    .text.rtc_init_mode_enter:0000000000000078 .L0 
C:\Users\CYMR90~1\AppData\Local\Temp\ccSIna8B.s:448    .text.rtc_init_mode_enter:000000000000007c .L0 
C:\Users\CYMR90~1\AppData\Local\Temp\ccSIna8B.s:449    .text.rtc_init_mode_enter:000000000000007c .L0 
C:\Users\CYMR90~1\AppData\Local\Temp\ccSIna8B.s:451    .text.rtc_init_mode_enter:000000000000007e .L0 
C:\Users\CYMR90~1\AppData\Local\Temp\ccSIna8B.s:453    .text.rtc_init_mode_enter:0000000000000080 .L0 
C:\Users\CYMR90~1\AppData\Local\Temp\ccSIna8B.s:463    .text.rtc_init_mode_exit:0000000000000000 .L0 
C:\Users\CYMR90~1\AppData\Local\Temp\ccSIna8B.s:464    .text.rtc_init_mode_exit:0000000000000000 .L0 
C:\Users\CYMR90~1\AppData\Local\Temp\ccSIna8B.s:465    .text.rtc_init_mode_exit:0000000000000002 .L0 
C:\Users\CYMR90~1\AppData\Local\Temp\ccSIna8B.s:467    .text.rtc_init_mode_exit:0000000000000004 .L0 
C:\Users\CYMR90~1\AppData\Local\Temp\ccSIna8B.s:469    .text.rtc_init_mode_exit:0000000000000006 .L0 
C:\Users\CYMR90~1\AppData\Local\Temp\ccSIna8B.s:471    .text.rtc_init_mode_exit:0000000000000006 .L0 
C:\Users\CYMR90~1\AppData\Local\Temp\ccSIna8B.s:479    .text.rtc_init_mode_exit:000000000000001e .L0 
C:\Users\CYMR90~1\AppData\Local\Temp\ccSIna8B.s:481    .text.rtc_init_mode_exit:0000000000000022 .L0 
C:\Users\CYMR90~1\AppData\Local\Temp\ccSIna8B.s:482    .text.rtc_init_mode_exit:0000000000000022 .L0 
C:\Users\CYMR90~1\AppData\Local\Temp\ccSIna8B.s:484    .text.rtc_init_mode_exit:0000000000000024 .L0 
C:\Users\CYMR90~1\AppData\Local\Temp\ccSIna8B.s:486    .text.rtc_init_mode_exit:0000000000000026 .L0 
C:\Users\CYMR90~1\AppData\Local\Temp\ccSIna8B.s:496    .text.rtc_register_sync_wait:0000000000000000 .L0 
C:\Users\CYMR90~1\AppData\Local\Temp\ccSIna8B.s:497    .text.rtc_register_sync_wait:0000000000000000 .L0 
C:\Users\CYMR90~1\AppData\Local\Temp\ccSIna8B.s:498    .text.rtc_register_sync_wait:0000000000000002 .L0 
C:\Users\CYMR90~1\AppData\Local\Temp\ccSIna8B.s:500    .text.rtc_register_sync_wait:0000000000000004 .L0 
C:\Users\CYMR90~1\AppData\Local\Temp\ccSIna8B.s:502    .text.rtc_register_sync_wait:0000000000000006 .L0 
C:\Users\CYMR90~1\AppData\Local\Temp\ccSIna8B.s:504    .text.rtc_register_sync_wait:0000000000000006 .L0 
C:\Users\CYMR90~1\AppData\Local\Temp\ccSIna8B.s:507    .text.rtc_register_sync_wait:000000000000000c .L0 
C:\Users\CYMR90~1\AppData\Local\Temp\ccSIna8B.s:509    .text.rtc_register_sync_wait:0000000000000010 .L0 
C:\Users\CYMR90~1\AppData\Local\Temp\ccSIna8B.s:511    .text.rtc_register_sync_wait:0000000000000014 .L0 
C:\Users\CYMR90~1\AppData\Local\Temp\ccSIna8B.s:515    .text.rtc_register_sync_wait:000000000000001e .L0 
C:\Users\CYMR90~1\AppData\Local\Temp\ccSIna8B.s:517    .text.rtc_register_sync_wait:0000000000000022 .L0 
C:\Users\CYMR90~1\AppData\Local\Temp\ccSIna8B.s:519    .text.rtc_register_sync_wait:0000000000000024 .L0 
C:\Users\CYMR90~1\AppData\Local\Temp\ccSIna8B.s:522    .text.rtc_register_sync_wait:000000000000002c .L0 
C:\Users\CYMR90~1\AppData\Local\Temp\ccSIna8B.s:525    .text.rtc_register_sync_wait:0000000000000032 .L0 
C:\Users\CYMR90~1\AppData\Local\Temp\ccSIna8B.s:528    .text.rtc_register_sync_wait:000000000000003a .L0 
C:\Users\CYMR90~1\AppData\Local\Temp\ccSIna8B.s:531    .text.rtc_register_sync_wait:0000000000000040 .L0 
C:\Users\CYMR90~1\AppData\Local\Temp\ccSIna8B.s:540    .text.rtc_register_sync_wait:0000000000000058 .L0 
C:\Users\CYMR90~1\AppData\Local\Temp\ccSIna8B.s:544    .text.rtc_register_sync_wait:0000000000000062 .L0 
C:\Users\CYMR90~1\AppData\Local\Temp\ccSIna8B.s:547    .text.rtc_register_sync_wait:000000000000006a .L0 
C:\Users\CYMR90~1\AppData\Local\Temp\ccSIna8B.s:550    .text.rtc_register_sync_wait:0000000000000070 .L0 
C:\Users\CYMR90~1\AppData\Local\Temp\ccSIna8B.s:553    .text.rtc_register_sync_wait:0000000000000076 .L0 
C:\Users\CYMR90~1\AppData\Local\Temp\ccSIna8B.s:557    .text.rtc_register_sync_wait:000000000000007c .L0 
C:\Users\CYMR90~1\AppData\Local\Temp\ccSIna8B.s:560    .text.rtc_register_sync_wait:0000000000000082 .L0 
C:\Users\CYMR90~1\AppData\Local\Temp\ccSIna8B.s:564    .text.rtc_register_sync_wait:0000000000000088 .L0 
C:\Users\CYMR90~1\AppData\Local\Temp\ccSIna8B.s:567    .text.rtc_register_sync_wait:0000000000000090 .L0 
C:\Users\CYMR90~1\AppData\Local\Temp\ccSIna8B.s:572    .text.rtc_register_sync_wait:0000000000000098 .L0 
C:\Users\CYMR90~1\AppData\Local\Temp\ccSIna8B.s:576    .text.rtc_register_sync_wait:000000000000009e .L0 
C:\Users\CYMR90~1\AppData\Local\Temp\ccSIna8B.s:578    .text.rtc_register_sync_wait:00000000000000a2 .L0 
C:\Users\CYMR90~1\AppData\Local\Temp\ccSIna8B.s:580    .text.rtc_register_sync_wait:00000000000000a6 .L0 
C:\Users\CYMR90~1\AppData\Local\Temp\ccSIna8B.s:581    .text.rtc_register_sync_wait:00000000000000a6 .L0 
C:\Users\CYMR90~1\AppData\Local\Temp\ccSIna8B.s:583    .text.rtc_register_sync_wait:00000000000000a8 .L0 
C:\Users\CYMR90~1\AppData\Local\Temp\ccSIna8B.s:585    .text.rtc_register_sync_wait:00000000000000aa .L0 
C:\Users\CYMR90~1\AppData\Local\Temp\ccSIna8B.s:592    .text.rtc_current_time_get:0000000000000000 rtc_current_time_get
C:\Users\CYMR90~1\AppData\Local\Temp\ccSIna8B.s:595    .text.rtc_current_time_get:0000000000000000 .L0 
C:\Users\CYMR90~1\AppData\Local\Temp\ccSIna8B.s:596    .text.rtc_current_time_get:0000000000000000 .L0 
C:\Users\CYMR90~1\AppData\Local\Temp\ccSIna8B.s:597    .text.rtc_current_time_get:0000000000000002 .L0 
C:\Users\CYMR90~1\AppData\Local\Temp\ccSIna8B.s:599    .text.rtc_current_time_get:0000000000000004 .L0 
C:\Users\CYMR90~1\AppData\Local\Temp\ccSIna8B.s:601    .text.rtc_current_time_get:0000000000000006 .L0 
C:\Users\CYMR90~1\AppData\Local\Temp\ccSIna8B.s:604    .text.rtc_current_time_get:000000000000000a .L0 
C:\Users\CYMR90~1\AppData\Local\Temp\ccSIna8B.s:606    .text.rtc_current_time_get:000000000000000e .L0 
C:\Users\CYMR90~1\AppData\Local\Temp\ccSIna8B.s:608    .text.rtc_current_time_get:0000000000000012 .L0 
C:\Users\CYMR90~1\AppData\Local\Temp\ccSIna8B.s:610    .text.rtc_current_time_get:0000000000000016 .L0 
C:\Users\CYMR90~1\AppData\Local\Temp\ccSIna8B.s:612    .text.rtc_current_time_get:000000000000001a .L0 
C:\Users\CYMR90~1\AppData\Local\Temp\ccSIna8B.s:615    .text.rtc_current_time_get:0000000000000022 .L0 
C:\Users\CYMR90~1\AppData\Local\Temp\ccSIna8B.s:618    .text.rtc_current_time_get:0000000000000028 .L0 
C:\Users\CYMR90~1\AppData\Local\Temp\ccSIna8B.s:621    .text.rtc_current_time_get:0000000000000030 .L0 
C:\Users\CYMR90~1\AppData\Local\Temp\ccSIna8B.s:624    .text.rtc_current_time_get:0000000000000036 .L0 
C:\Users\CYMR90~1\AppData\Local\Temp\ccSIna8B.s:627    .text.rtc_current_time_get:000000000000003e .L0 
C:\Users\CYMR90~1\AppData\Local\Temp\ccSIna8B.s:630    .text.rtc_current_time_get:0000000000000044 .L0 
C:\Users\CYMR90~1\AppData\Local\Temp\ccSIna8B.s:633    .text.rtc_current_time_get:000000000000004c .L0 
C:\Users\CYMR90~1\AppData\Local\Temp\ccSIna8B.s:636    .text.rtc_current_time_get:0000000000000052 .L0 
C:\Users\CYMR90~1\AppData\Local\Temp\ccSIna8B.s:639    .text.rtc_current_time_get:0000000000000058 .L0 
C:\Users\CYMR90~1\AppData\Local\Temp\ccSIna8B.s:641    .text.rtc_current_time_get:000000000000005c .L0 
C:\Users\CYMR90~1\AppData\Local\Temp\ccSIna8B.s:644    .text.rtc_current_time_get:0000000000000064 .L0 
C:\Users\CYMR90~1\AppData\Local\Temp\ccSIna8B.s:647    .text.rtc_current_time_get:000000000000006a .L0 
C:\Users\CYMR90~1\AppData\Local\Temp\ccSIna8B.s:651    .text.rtc_current_time_get:0000000000000074 .L0 
C:\Users\CYMR90~1\AppData\Local\Temp\ccSIna8B.s:654    .text.rtc_current_time_get:000000000000007c .L0 
C:\Users\CYMR90~1\AppData\Local\Temp\ccSIna8B.s:659    .text.rtc_current_time_get:000000000000008c .L0 
C:\Users\CYMR90~1\AppData\Local\Temp\ccSIna8B.s:662    .text.rtc_current_time_get:0000000000000094 .L0 
C:\Users\CYMR90~1\AppData\Local\Temp\ccSIna8B.s:665    .text.rtc_current_time_get:000000000000009a .L0 
C:\Users\CYMR90~1\AppData\Local\Temp\ccSIna8B.s:669    .text.rtc_current_time_get:00000000000000a4 .L0 
C:\Users\CYMR90~1\AppData\Local\Temp\ccSIna8B.s:672    .text.rtc_current_time_get:00000000000000ac .L0 
C:\Users\CYMR90~1\AppData\Local\Temp\ccSIna8B.s:675    .text.rtc_current_time_get:00000000000000b2 .L0 
C:\Users\CYMR90~1\AppData\Local\Temp\ccSIna8B.s:679    .text.rtc_current_time_get:00000000000000be .L0 
C:\Users\CYMR90~1\AppData\Local\Temp\ccSIna8B.s:682    .text.rtc_current_time_get:00000000000000c6 .L0 
C:\Users\CYMR90~1\AppData\Local\Temp\ccSIna8B.s:685    .text.rtc_current_time_get:00000000000000cc .L0 
C:\Users\CYMR90~1\AppData\Local\Temp\ccSIna8B.s:689    .text.rtc_current_time_get:00000000000000d8 .L0 
C:\Users\CYMR90~1\AppData\Local\Temp\ccSIna8B.s:692    .text.rtc_current_time_get:00000000000000e0 .L0 
C:\Users\CYMR90~1\AppData\Local\Temp\ccSIna8B.s:697    .text.rtc_current_time_get:00000000000000f0 .L0 
C:\Users\CYMR90~1\AppData\Local\Temp\ccSIna8B.s:700    .text.rtc_current_time_get:00000000000000f8 .L0 
C:\Users\CYMR90~1\AppData\Local\Temp\ccSIna8B.s:703    .text.rtc_current_time_get:00000000000000fe .L0 
C:\Users\CYMR90~1\AppData\Local\Temp\ccSIna8B.s:709    .text.rtc_current_time_get:000000000000010c .L0 
C:\Users\CYMR90~1\AppData\Local\Temp\ccSIna8B.s:712    .text.rtc_current_time_get:0000000000000114 .L0 
C:\Users\CYMR90~1\AppData\Local\Temp\ccSIna8B.s:721    .text.rtc_current_time_get:000000000000012a .L0 
C:\Users\CYMR90~1\AppData\Local\Temp\ccSIna8B.s:724    .text.rtc_current_time_get:0000000000000132 .L0 
C:\Users\CYMR90~1\AppData\Local\Temp\ccSIna8B.s:728    .text.rtc_current_time_get:000000000000013c .L0 
C:\Users\CYMR90~1\AppData\Local\Temp\ccSIna8B.s:731    .text.rtc_current_time_get:0000000000000142 .L0 
C:\Users\CYMR90~1\AppData\Local\Temp\ccSIna8B.s:734    .text.rtc_current_time_get:000000000000014a .L0 
C:\Users\CYMR90~1\AppData\Local\Temp\ccSIna8B.s:737    .text.rtc_current_time_get:0000000000000150 .L0 
C:\Users\CYMR90~1\AppData\Local\Temp\ccSIna8B.s:739    .text.rtc_current_time_get:0000000000000154 .L0 
C:\Users\CYMR90~1\AppData\Local\Temp\ccSIna8B.s:740    .text.rtc_current_time_get:0000000000000154 .L0 
C:\Users\CYMR90~1\AppData\Local\Temp\ccSIna8B.s:742    .text.rtc_current_time_get:0000000000000156 .L0 
C:\Users\CYMR90~1\AppData\Local\Temp\ccSIna8B.s:744    .text.rtc_current_time_get:0000000000000158 .L0 
C:\Users\CYMR90~1\AppData\Local\Temp\ccSIna8B.s:751    .text.rtc_subsecond_get:0000000000000000 rtc_subsecond_get
C:\Users\CYMR90~1\AppData\Local\Temp\ccSIna8B.s:754    .text.rtc_subsecond_get:0000000000000000 .L0 
C:\Users\CYMR90~1\AppData\Local\Temp\ccSIna8B.s:755    .text.rtc_subsecond_get:0000000000000000 .L0 
C:\Users\CYMR90~1\AppData\Local\Temp\ccSIna8B.s:756    .text.rtc_subsecond_get:0000000000000002 .L0 
C:\Users\CYMR90~1\AppData\Local\Temp\ccSIna8B.s:758    .text.rtc_subsecond_get:0000000000000004 .L0 
C:\Users\CYMR90~1\AppData\Local\Temp\ccSIna8B.s:760    .text.rtc_subsecond_get:0000000000000006 .L0 
C:\Users\CYMR90~1\AppData\Local\Temp\ccSIna8B.s:762    .text.rtc_subsecond_get:0000000000000006 .L0 
C:\Users\CYMR90~1\AppData\Local\Temp\ccSIna8B.s:764    .text.rtc_subsecond_get:000000000000000a .L0 
C:\Users\CYMR90~1\AppData\Local\Temp\ccSIna8B.s:767    .text.rtc_subsecond_get:0000000000000012 .L0 
C:\Users\CYMR90~1\AppData\Local\Temp\ccSIna8B.s:770    .text.rtc_subsecond_get:0000000000000018 .L0 
C:\Users\CYMR90~1\AppData\Local\Temp\ccSIna8B.s:774    .text.rtc_subsecond_get:0000000000000022 .L0 
C:\Users\CYMR90~1\AppData\Local\Temp\ccSIna8B.s:776    .text.rtc_subsecond_get:0000000000000026 .L0 
C:\Users\CYMR90~1\AppData\Local\Temp\ccSIna8B.s:778    .text.rtc_subsecond_get:000000000000002a .L0 
C:\Users\CYMR90~1\AppData\Local\Temp\ccSIna8B.s:779    .text.rtc_subsecond_get:000000000000002a .L0 
C:\Users\CYMR90~1\AppData\Local\Temp\ccSIna8B.s:781    .text.rtc_subsecond_get:000000000000002c .L0 
C:\Users\CYMR90~1\AppData\Local\Temp\ccSIna8B.s:783    .text.rtc_subsecond_get:000000000000002e .L0 
C:\Users\CYMR90~1\AppData\Local\Temp\ccSIna8B.s:790    .text.rtc_alarm_config:0000000000000000 rtc_alarm_config
C:\Users\CYMR90~1\AppData\Local\Temp\ccSIna8B.s:793    .text.rtc_alarm_config:0000000000000000 .L0 
C:\Users\CYMR90~1\AppData\Local\Temp\ccSIna8B.s:794    .text.rtc_alarm_config:0000000000000000 .L0 
C:\Users\CYMR90~1\AppData\Local\Temp\ccSIna8B.s:795    .text.rtc_alarm_config:0000000000000002 .L0 
C:\Users\CYMR90~1\AppData\Local\Temp\ccSIna8B.s:797    .text.rtc_alarm_config:0000000000000004 .L0 
C:\Users\CYMR90~1\AppData\Local\Temp\ccSIna8B.s:799    .text.rtc_alarm_config:0000000000000006 .L0 
C:\Users\CYMR90~1\AppData\Local\Temp\ccSIna8B.s:804    .text.rtc_alarm_config:0000000000000010 .L0 
C:\Users\CYMR90~1\AppData\Local\Temp\ccSIna8B.s:806    .text.rtc_alarm_config:0000000000000014 .L0 
C:\Users\CYMR90~1\AppData\Local\Temp\ccSIna8B.s:809    .text.rtc_alarm_config:000000000000001c .L0 
C:\Users\CYMR90~1\AppData\Local\Temp\ccSIna8B.s:812    .text.rtc_alarm_config:0000000000000022 .L0 
C:\Users\CYMR90~1\AppData\Local\Temp\ccSIna8B.s:815    .text.rtc_alarm_config:000000000000002a .L0 
C:\Users\CYMR90~1\AppData\Local\Temp\ccSIna8B.s:818    .text.rtc_alarm_config:0000000000000030 .L0 
C:\Users\CYMR90~1\AppData\Local\Temp\ccSIna8B.s:821    .text.rtc_alarm_config:0000000000000036 .L0 
C:\Users\CYMR90~1\AppData\Local\Temp\ccSIna8B.s:824    .text.rtc_alarm_config:000000000000003c .L0 
C:\Users\CYMR90~1\AppData\Local\Temp\ccSIna8B.s:826    .text.rtc_alarm_config:000000000000003e .L0 
C:\Users\CYMR90~1\AppData\Local\Temp\ccSIna8B.s:829    .text.rtc_alarm_config:0000000000000044 .L0 
C:\Users\CYMR90~1\AppData\Local\Temp\ccSIna8B.s:831    .text.rtc_alarm_config:0000000000000046 .L0 
C:\Users\CYMR90~1\AppData\Local\Temp\ccSIna8B.s:837    .text.rtc_alarm_config:0000000000000058 .L0 
C:\Users\CYMR90~1\AppData\Local\Temp\ccSIna8B.s:839    .text.rtc_alarm_config:000000000000005a .L0 
C:\Users\CYMR90~1\AppData\Local\Temp\ccSIna8B.s:845    .text.rtc_alarm_config:000000000000006c .L0 
C:\Users\CYMR90~1\AppData\Local\Temp\ccSIna8B.s:847    .text.rtc_alarm_config:000000000000006e .L0 
C:\Users\CYMR90~1\AppData\Local\Temp\ccSIna8B.s:854    .text.rtc_alarm_config:0000000000000082 .L0 
C:\Users\CYMR90~1\AppData\Local\Temp\ccSIna8B.s:856    .text.rtc_alarm_config:0000000000000084 .L0 
C:\Users\CYMR90~1\AppData\Local\Temp\ccSIna8B.s:860    .text.rtc_alarm_config:0000000000000090 .L0 
C:\Users\CYMR90~1\AppData\Local\Temp\ccSIna8B.s:863    .text.rtc_alarm_config:0000000000000096 .L0 
C:\Users\CYMR90~1\AppData\Local\Temp\ccSIna8B.s:867    .text.rtc_alarm_config:00000000000000a0 .L0 
C:\Users\CYMR90~1\AppData\Local\Temp\ccSIna8B.s:870    .text.rtc_alarm_config:00000000000000a8 .L0 
C:\Users\CYMR90~1\AppData\Local\Temp\ccSIna8B.s:875    .text.rtc_alarm_config:00000000000000b0 .L0 
C:\Users\CYMR90~1\AppData\Local\Temp\ccSIna8B.s:878    .text.rtc_alarm_config:00000000000000b8 .L0 
C:\Users\CYMR90~1\AppData\Local\Temp\ccSIna8B.s:882    .text.rtc_alarm_config:00000000000000be .L0 
C:\Users\CYMR90~1\AppData\Local\Temp\ccSIna8B.s:885    .text.rtc_alarm_config:00000000000000c6 .L0 
C:\Users\CYMR90~1\AppData\Local\Temp\ccSIna8B.s:888    .text.rtc_alarm_config:00000000000000cc .L0 
C:\Users\CYMR90~1\AppData\Local\Temp\ccSIna8B.s:890    .text.rtc_alarm_config:00000000000000d0 .L0 
C:\Users\CYMR90~1\AppData\Local\Temp\ccSIna8B.s:891    .text.rtc_alarm_config:00000000000000d0 .L0 
C:\Users\CYMR90~1\AppData\Local\Temp\ccSIna8B.s:893    .text.rtc_alarm_config:00000000000000d2 .L0 
C:\Users\CYMR90~1\AppData\Local\Temp\ccSIna8B.s:895    .text.rtc_alarm_config:00000000000000d4 .L0 
C:\Users\CYMR90~1\AppData\Local\Temp\ccSIna8B.s:902    .text.rtc_alarm_subsecond_config:0000000000000000 rtc_alarm_subsecond_config
C:\Users\CYMR90~1\AppData\Local\Temp\ccSIna8B.s:905    .text.rtc_alarm_subsecond_config:0000000000000000 .L0 
C:\Users\CYMR90~1\AppData\Local\Temp\ccSIna8B.s:906    .text.rtc_alarm_subsecond_config:0000000000000000 .L0 
C:\Users\CYMR90~1\AppData\Local\Temp\ccSIna8B.s:907    .text.rtc_alarm_subsecond_config:0000000000000002 .L0 
C:\Users\CYMR90~1\AppData\Local\Temp\ccSIna8B.s:909    .text.rtc_alarm_subsecond_config:0000000000000004 .L0 
C:\Users\CYMR90~1\AppData\Local\Temp\ccSIna8B.s:911    .text.rtc_alarm_subsecond_config:0000000000000006 .L0 
C:\Users\CYMR90~1\AppData\Local\Temp\ccSIna8B.s:917    .text.rtc_alarm_subsecond_config:0000000000000014 .L0 
C:\Users\CYMR90~1\AppData\Local\Temp\ccSIna8B.s:920    .text.rtc_alarm_subsecond_config:000000000000001c .L0 
C:\Users\CYMR90~1\AppData\Local\Temp\ccSIna8B.s:923    .text.rtc_alarm_subsecond_config:0000000000000022 .L0 
C:\Users\CYMR90~1\AppData\Local\Temp\ccSIna8B.s:926    .text.rtc_alarm_subsecond_config:000000000000002a .L0 
C:\Users\CYMR90~1\AppData\Local\Temp\ccSIna8B.s:929    .text.rtc_alarm_subsecond_config:0000000000000030 .L0 
C:\Users\CYMR90~1\AppData\Local\Temp\ccSIna8B.s:933    .text.rtc_alarm_subsecond_config:000000000000003a .L0 
C:\Users\CYMR90~1\AppData\Local\Temp\ccSIna8B.s:936    .text.rtc_alarm_subsecond_config:0000000000000042 .L0 
C:\Users\CYMR90~1\AppData\Local\Temp\ccSIna8B.s:940    .text.rtc_alarm_subsecond_config:000000000000004c .L0 
C:\Users\CYMR90~1\AppData\Local\Temp\ccSIna8B.s:944    .text.rtc_alarm_subsecond_config:0000000000000050 .L0 
C:\Users\CYMR90~1\AppData\Local\Temp\ccSIna8B.s:947    .text.rtc_alarm_subsecond_config:0000000000000058 .L0 
C:\Users\CYMR90~1\AppData\Local\Temp\ccSIna8B.s:951    .text.rtc_alarm_subsecond_config:0000000000000062 .L0 
C:\Users\CYMR90~1\AppData\Local\Temp\ccSIna8B.s:954    .text.rtc_alarm_subsecond_config:0000000000000064 .L0 
C:\Users\CYMR90~1\AppData\Local\Temp\ccSIna8B.s:957    .text.rtc_alarm_subsecond_config:000000000000006c .L0 
C:\Users\CYMR90~1\AppData\Local\Temp\ccSIna8B.s:960    .text.rtc_alarm_subsecond_config:0000000000000072 .L0 
C:\Users\CYMR90~1\AppData\Local\Temp\ccSIna8B.s:962    .text.rtc_alarm_subsecond_config:0000000000000076 .L0 
C:\Users\CYMR90~1\AppData\Local\Temp\ccSIna8B.s:963    .text.rtc_alarm_subsecond_config:0000000000000076 .L0 
C:\Users\CYMR90~1\AppData\Local\Temp\ccSIna8B.s:965    .text.rtc_alarm_subsecond_config:0000000000000078 .L0 
C:\Users\CYMR90~1\AppData\Local\Temp\ccSIna8B.s:967    .text.rtc_alarm_subsecond_config:000000000000007a .L0 
C:\Users\CYMR90~1\AppData\Local\Temp\ccSIna8B.s:974    .text.rtc_alarm_get:0000000000000000 rtc_alarm_get
C:\Users\CYMR90~1\AppData\Local\Temp\ccSIna8B.s:977    .text.rtc_alarm_get:0000000000000000 .L0 
C:\Users\CYMR90~1\AppData\Local\Temp\ccSIna8B.s:978    .text.rtc_alarm_get:0000000000000000 .L0 
C:\Users\CYMR90~1\AppData\Local\Temp\ccSIna8B.s:979    .text.rtc_alarm_get:0000000000000002 .L0 
C:\Users\CYMR90~1\AppData\Local\Temp\ccSIna8B.s:981    .text.rtc_alarm_get:0000000000000004 .L0 
C:\Users\CYMR90~1\AppData\Local\Temp\ccSIna8B.s:983    .text.rtc_alarm_get:0000000000000006 .L0 
C:\Users\CYMR90~1\AppData\Local\Temp\ccSIna8B.s:988    .text.rtc_alarm_get:0000000000000010 .L0 
C:\Users\CYMR90~1\AppData\Local\Temp\ccSIna8B.s:990    .text.rtc_alarm_get:0000000000000014 .L0 
C:\Users\CYMR90~1\AppData\Local\Temp\ccSIna8B.s:994    .text.rtc_alarm_get:000000000000001e .L0 
C:\Users\CYMR90~1\AppData\Local\Temp\ccSIna8B.s:997    .text.rtc_alarm_get:0000000000000026 .L0 
C:\Users\CYMR90~1\AppData\Local\Temp\ccSIna8B.s:1002   .text.rtc_alarm_get:000000000000002e .L0 
C:\Users\CYMR90~1\AppData\Local\Temp\ccSIna8B.s:1005   .text.rtc_alarm_get:0000000000000036 .L0 
C:\Users\CYMR90~1\AppData\Local\Temp\ccSIna8B.s:1009   .text.rtc_alarm_get:000000000000003c .L0 
C:\Users\CYMR90~1\AppData\Local\Temp\ccSIna8B.s:1014   .text.rtc_alarm_get:000000000000004a .L0 
C:\Users\CYMR90~1\AppData\Local\Temp\ccSIna8B.s:1017   .text.rtc_alarm_get:0000000000000050 .L0 
C:\Users\CYMR90~1\AppData\Local\Temp\ccSIna8B.s:1021   .text.rtc_alarm_get:000000000000005a .L0 
C:\Users\CYMR90~1\AppData\Local\Temp\ccSIna8B.s:1024   .text.rtc_alarm_get:0000000000000060 .L0 
C:\Users\CYMR90~1\AppData\Local\Temp\ccSIna8B.s:1028   .text.rtc_alarm_get:000000000000006a .L0 
C:\Users\CYMR90~1\AppData\Local\Temp\ccSIna8B.s:1031   .text.rtc_alarm_get:0000000000000070 .L0 
C:\Users\CYMR90~1\AppData\Local\Temp\ccSIna8B.s:1034   .text.rtc_alarm_get:0000000000000076 .L0 
C:\Users\CYMR90~1\AppData\Local\Temp\ccSIna8B.s:1038   .text.rtc_alarm_get:0000000000000082 .L0 
C:\Users\CYMR90~1\AppData\Local\Temp\ccSIna8B.s:1041   .text.rtc_alarm_get:000000000000008a .L0 
C:\Users\CYMR90~1\AppData\Local\Temp\ccSIna8B.s:1044   .text.rtc_alarm_get:0000000000000090 .L0 
C:\Users\CYMR90~1\AppData\Local\Temp\ccSIna8B.s:1048   .text.rtc_alarm_get:000000000000009c .L0 
C:\Users\CYMR90~1\AppData\Local\Temp\ccSIna8B.s:1051   .text.rtc_alarm_get:00000000000000a4 .L0 
C:\Users\CYMR90~1\AppData\Local\Temp\ccSIna8B.s:1054   .text.rtc_alarm_get:00000000000000aa .L0 
C:\Users\CYMR90~1\AppData\Local\Temp\ccSIna8B.s:1058   .text.rtc_alarm_get:00000000000000b6 .L0 
C:\Users\CYMR90~1\AppData\Local\Temp\ccSIna8B.s:1061   .text.rtc_alarm_get:00000000000000be .L0 
C:\Users\CYMR90~1\AppData\Local\Temp\ccSIna8B.s:1066   .text.rtc_alarm_get:00000000000000ce .L0 
C:\Users\CYMR90~1\AppData\Local\Temp\ccSIna8B.s:1069   .text.rtc_alarm_get:00000000000000d6 .L0 
C:\Users\CYMR90~1\AppData\Local\Temp\ccSIna8B.s:1071   .text.rtc_alarm_get:00000000000000da .L0 
C:\Users\CYMR90~1\AppData\Local\Temp\ccSIna8B.s:1072   .text.rtc_alarm_get:00000000000000da .L0 
C:\Users\CYMR90~1\AppData\Local\Temp\ccSIna8B.s:1074   .text.rtc_alarm_get:00000000000000dc .L0 
C:\Users\CYMR90~1\AppData\Local\Temp\ccSIna8B.s:1076   .text.rtc_alarm_get:00000000000000de .L0 
C:\Users\CYMR90~1\AppData\Local\Temp\ccSIna8B.s:1083   .text.rtc_alarm_subsecond_get:0000000000000000 rtc_alarm_subsecond_get
C:\Users\CYMR90~1\AppData\Local\Temp\ccSIna8B.s:1086   .text.rtc_alarm_subsecond_get:0000000000000000 .L0 
C:\Users\CYMR90~1\AppData\Local\Temp\ccSIna8B.s:1087   .text.rtc_alarm_subsecond_get:0000000000000000 .L0 
C:\Users\CYMR90~1\AppData\Local\Temp\ccSIna8B.s:1088   .text.rtc_alarm_subsecond_get:0000000000000002 .L0 
C:\Users\CYMR90~1\AppData\Local\Temp\ccSIna8B.s:1090   .text.rtc_alarm_subsecond_get:0000000000000004 .L0 
C:\Users\CYMR90~1\AppData\Local\Temp\ccSIna8B.s:1092   .text.rtc_alarm_subsecond_get:0000000000000006 .L0 
C:\Users\CYMR90~1\AppData\Local\Temp\ccSIna8B.s:1096   .text.rtc_alarm_subsecond_get:000000000000000c .L0 
C:\Users\CYMR90~1\AppData\Local\Temp\ccSIna8B.s:1100   .text.rtc_alarm_subsecond_get:0000000000000016 .L0 
C:\Users\CYMR90~1\AppData\Local\Temp\ccSIna8B.s:1109   .text.rtc_alarm_subsecond_get:0000000000000028 .L0 
C:\Users\CYMR90~1\AppData\Local\Temp\ccSIna8B.s:1117   .text.rtc_alarm_subsecond_get:0000000000000038 .L0 
C:\Users\CYMR90~1\AppData\Local\Temp\ccSIna8B.s:1119   .text.rtc_alarm_subsecond_get:000000000000003c .L0 
C:\Users\CYMR90~1\AppData\Local\Temp\ccSIna8B.s:1120   .text.rtc_alarm_subsecond_get:000000000000003c .L0 
C:\Users\CYMR90~1\AppData\Local\Temp\ccSIna8B.s:1122   .text.rtc_alarm_subsecond_get:000000000000003e .L0 
C:\Users\CYMR90~1\AppData\Local\Temp\ccSIna8B.s:1124   .text.rtc_alarm_subsecond_get:0000000000000040 .L0 
C:\Users\CYMR90~1\AppData\Local\Temp\ccSIna8B.s:1131   .text.rtc_alarm_enable:0000000000000000 rtc_alarm_enable
C:\Users\CYMR90~1\AppData\Local\Temp\ccSIna8B.s:1134   .text.rtc_alarm_enable:0000000000000000 .L0 
C:\Users\CYMR90~1\AppData\Local\Temp\ccSIna8B.s:1135   .text.rtc_alarm_enable:0000000000000000 .L0 
C:\Users\CYMR90~1\AppData\Local\Temp\ccSIna8B.s:1136   .text.rtc_alarm_enable:0000000000000002 .L0 
C:\Users\CYMR90~1\AppData\Local\Temp\ccSIna8B.s:1138   .text.rtc_alarm_enable:0000000000000004 .L0 
C:\Users\CYMR90~1\AppData\Local\Temp\ccSIna8B.s:1140   .text.rtc_alarm_enable:0000000000000006 .L0 
C:\Users\CYMR90~1\AppData\Local\Temp\ccSIna8B.s:1144   .text.rtc_alarm_enable:000000000000000c .L0 
C:\Users\CYMR90~1\AppData\Local\Temp\ccSIna8B.s:1147   .text.rtc_alarm_enable:0000000000000014 .L0 
C:\Users\CYMR90~1\AppData\Local\Temp\ccSIna8B.s:1150   .text.rtc_alarm_enable:000000000000001a .L0 
C:\Users\CYMR90~1\AppData\Local\Temp\ccSIna8B.s:1153   .text.rtc_alarm_enable:0000000000000022 .L0 
C:\Users\CYMR90~1\AppData\Local\Temp\ccSIna8B.s:1156   .text.rtc_alarm_enable:0000000000000028 .L0 
C:\Users\CYMR90~1\AppData\Local\Temp\ccSIna8B.s:1160   .text.rtc_alarm_enable:0000000000000032 .L0 
C:\Users\CYMR90~1\AppData\Local\Temp\ccSIna8B.s:1170   .text.rtc_alarm_enable:000000000000004c .L0 
C:\Users\CYMR90~1\AppData\Local\Temp\ccSIna8B.s:1179   .text.rtc_alarm_enable:0000000000000064 .L0 
C:\Users\CYMR90~1\AppData\Local\Temp\ccSIna8B.s:1182   .text.rtc_alarm_enable:000000000000006c .L0 
C:\Users\CYMR90~1\AppData\Local\Temp\ccSIna8B.s:1185   .text.rtc_alarm_enable:0000000000000072 .L0 
C:\Users\CYMR90~1\AppData\Local\Temp\ccSIna8B.s:1187   .text.rtc_alarm_enable:0000000000000076 .L0 
C:\Users\CYMR90~1\AppData\Local\Temp\ccSIna8B.s:1188   .text.rtc_alarm_enable:0000000000000076 .L0 
C:\Users\CYMR90~1\AppData\Local\Temp\ccSIna8B.s:1190   .text.rtc_alarm_enable:0000000000000078 .L0 
C:\Users\CYMR90~1\AppData\Local\Temp\ccSIna8B.s:1192   .text.rtc_alarm_enable:000000000000007a .L0 
C:\Users\CYMR90~1\AppData\Local\Temp\ccSIna8B.s:1199   .text.rtc_alarm_disable:0000000000000000 rtc_alarm_disable
C:\Users\CYMR90~1\AppData\Local\Temp\ccSIna8B.s:1202   .text.rtc_alarm_disable:0000000000000000 .L0 
C:\Users\CYMR90~1\AppData\Local\Temp\ccSIna8B.s:1203   .text.rtc_alarm_disable:0000000000000000 .L0 
C:\Users\CYMR90~1\AppData\Local\Temp\ccSIna8B.s:1204   .text.rtc_alarm_disable:0000000000000002 .L0 
C:\Users\CYMR90~1\AppData\Local\Temp\ccSIna8B.s:1206   .text.rtc_alarm_disable:0000000000000004 .L0 
C:\Users\CYMR90~1\AppData\Local\Temp\ccSIna8B.s:1208   .text.rtc_alarm_disable:0000000000000006 .L0 
C:\Users\CYMR90~1\AppData\Local\Temp\ccSIna8B.s:1212   .text.rtc_alarm_disable:000000000000000c .L0 
C:\Users\CYMR90~1\AppData\Local\Temp\ccSIna8B.s:1215   .text.rtc_alarm_disable:0000000000000012 .L0 
C:\Users\CYMR90~1\AppData\Local\Temp\ccSIna8B.s:1217   .text.rtc_alarm_disable:0000000000000016 .L0 
C:\Users\CYMR90~1\AppData\Local\Temp\ccSIna8B.s:1219   .text.rtc_alarm_disable:000000000000001a .L0 
C:\Users\CYMR90~1\AppData\Local\Temp\ccSIna8B.s:1222   .text.rtc_alarm_disable:0000000000000022 .L0 
C:\Users\CYMR90~1\AppData\Local\Temp\ccSIna8B.s:1225   .text.rtc_alarm_disable:0000000000000028 .L0 
C:\Users\CYMR90~1\AppData\Local\Temp\ccSIna8B.s:1228   .text.rtc_alarm_disable:0000000000000030 .L0 
C:\Users\CYMR90~1\AppData\Local\Temp\ccSIna8B.s:1231   .text.rtc_alarm_disable:0000000000000036 .L0 
C:\Users\CYMR90~1\AppData\Local\Temp\ccSIna8B.s:1235   .text.rtc_alarm_disable:0000000000000040 .L0 
C:\Users\CYMR90~1\AppData\Local\Temp\ccSIna8B.s:1244   .text.rtc_alarm_disable:0000000000000058 .L0 
C:\Users\CYMR90~1\AppData\Local\Temp\ccSIna8B.s:1248   .text.rtc_alarm_disable:0000000000000062 .L0 
C:\Users\CYMR90~1\AppData\Local\Temp\ccSIna8B.s:1251   .text.rtc_alarm_disable:0000000000000068 .L0 
C:\Users\CYMR90~1\AppData\Local\Temp\ccSIna8B.s:1254   .text.rtc_alarm_disable:000000000000006e .L0 
C:\Users\CYMR90~1\AppData\Local\Temp\ccSIna8B.s:1257   .text.rtc_alarm_disable:0000000000000074 .L0 
C:\Users\CYMR90~1\AppData\Local\Temp\ccSIna8B.s:1262   .text.rtc_alarm_disable:000000000000007c .L0 
C:\Users\CYMR90~1\AppData\Local\Temp\ccSIna8B.s:1271   .text.rtc_alarm_disable:0000000000000094 .L0 
C:\Users\CYMR90~1\AppData\Local\Temp\ccSIna8B.s:1275   .text.rtc_alarm_disable:000000000000009e .L0 
C:\Users\CYMR90~1\AppData\Local\Temp\ccSIna8B.s:1278   .text.rtc_alarm_disable:00000000000000a4 .L0 
C:\Users\CYMR90~1\AppData\Local\Temp\ccSIna8B.s:1281   .text.rtc_alarm_disable:00000000000000aa .L0 
C:\Users\CYMR90~1\AppData\Local\Temp\ccSIna8B.s:1284   .text.rtc_alarm_disable:00000000000000b0 .L0 
C:\Users\CYMR90~1\AppData\Local\Temp\ccSIna8B.s:1288   .text.rtc_alarm_disable:00000000000000b6 .L0 
C:\Users\CYMR90~1\AppData\Local\Temp\ccSIna8B.s:1291   .text.rtc_alarm_disable:00000000000000bc .L0 
C:\Users\CYMR90~1\AppData\Local\Temp\ccSIna8B.s:1295   .text.rtc_alarm_disable:00000000000000c2 .L0 
C:\Users\CYMR90~1\AppData\Local\Temp\ccSIna8B.s:1298   .text.rtc_alarm_disable:00000000000000ca .L0 
C:\Users\CYMR90~1\AppData\Local\Temp\ccSIna8B.s:1301   .text.rtc_alarm_disable:00000000000000d0 .L0 
C:\Users\CYMR90~1\AppData\Local\Temp\ccSIna8B.s:1303   .text.rtc_alarm_disable:00000000000000d4 .L0 
C:\Users\CYMR90~1\AppData\Local\Temp\ccSIna8B.s:1305   .text.rtc_alarm_disable:00000000000000d8 .L0 
C:\Users\CYMR90~1\AppData\Local\Temp\ccSIna8B.s:1306   .text.rtc_alarm_disable:00000000000000d8 .L0 
C:\Users\CYMR90~1\AppData\Local\Temp\ccSIna8B.s:1308   .text.rtc_alarm_disable:00000000000000da .L0 
C:\Users\CYMR90~1\AppData\Local\Temp\ccSIna8B.s:1310   .text.rtc_alarm_disable:00000000000000dc .L0 
C:\Users\CYMR90~1\AppData\Local\Temp\ccSIna8B.s:1317   .text.rtc_timestamp_enable:0000000000000000 rtc_timestamp_enable
C:\Users\CYMR90~1\AppData\Local\Temp\ccSIna8B.s:1320   .text.rtc_timestamp_enable:0000000000000000 .L0 
C:\Users\CYMR90~1\AppData\Local\Temp\ccSIna8B.s:1321   .text.rtc_timestamp_enable:0000000000000000 .L0 
C:\Users\CYMR90~1\AppData\Local\Temp\ccSIna8B.s:1322   .text.rtc_timestamp_enable:0000000000000002 .L0 
C:\Users\CYMR90~1\AppData\Local\Temp\ccSIna8B.s:1324   .text.rtc_timestamp_enable:0000000000000004 .L0 
C:\Users\CYMR90~1\AppData\Local\Temp\ccSIna8B.s:1326   .text.rtc_timestamp_enable:0000000000000006 .L0 
C:\Users\CYMR90~1\AppData\Local\Temp\ccSIna8B.s:1329   .text.rtc_timestamp_enable:000000000000000a .L0 
C:\Users\CYMR90~1\AppData\Local\Temp\ccSIna8B.s:1331   .text.rtc_timestamp_enable:000000000000000e .L0 
C:\Users\CYMR90~1\AppData\Local\Temp\ccSIna8B.s:1334   .text.rtc_timestamp_enable:0000000000000016 .L0 
C:\Users\CYMR90~1\AppData\Local\Temp\ccSIna8B.s:1337   .text.rtc_timestamp_enable:000000000000001c .L0 
C:\Users\CYMR90~1\AppData\Local\Temp\ccSIna8B.s:1340   .text.rtc_timestamp_enable:0000000000000024 .L0 
C:\Users\CYMR90~1\AppData\Local\Temp\ccSIna8B.s:1343   .text.rtc_timestamp_enable:000000000000002a .L0 
C:\Users\CYMR90~1\AppData\Local\Temp\ccSIna8B.s:1347   .text.rtc_timestamp_enable:0000000000000034 .L0 
C:\Users\CYMR90~1\AppData\Local\Temp\ccSIna8B.s:1352   .text.rtc_timestamp_enable:0000000000000040 .L0 
C:\Users\CYMR90~1\AppData\Local\Temp\ccSIna8B.s:1360   .text.rtc_timestamp_enable:0000000000000056 .L0 
C:\Users\CYMR90~1\AppData\Local\Temp\ccSIna8B.s:1363   .text.rtc_timestamp_enable:000000000000005e .L0 
C:\Users\CYMR90~1\AppData\Local\Temp\ccSIna8B.s:1366   .text.rtc_timestamp_enable:0000000000000064 .L0 
C:\Users\CYMR90~1\AppData\Local\Temp\ccSIna8B.s:1369   .text.rtc_timestamp_enable:000000000000006c .L0 
C:\Users\CYMR90~1\AppData\Local\Temp\ccSIna8B.s:1372   .text.rtc_timestamp_enable:0000000000000072 .L0 
C:\Users\CYMR90~1\AppData\Local\Temp\ccSIna8B.s:1374   .text.rtc_timestamp_enable:0000000000000076 .L0 
C:\Users\CYMR90~1\AppData\Local\Temp\ccSIna8B.s:1375   .text.rtc_timestamp_enable:0000000000000076 .L0 
C:\Users\CYMR90~1\AppData\Local\Temp\ccSIna8B.s:1377   .text.rtc_timestamp_enable:0000000000000078 .L0 
C:\Users\CYMR90~1\AppData\Local\Temp\ccSIna8B.s:1379   .text.rtc_timestamp_enable:000000000000007a .L0 
C:\Users\CYMR90~1\AppData\Local\Temp\ccSIna8B.s:1386   .text.rtc_timestamp_disable:0000000000000000 rtc_timestamp_disable
C:\Users\CYMR90~1\AppData\Local\Temp\ccSIna8B.s:1389   .text.rtc_timestamp_disable:0000000000000000 .L0 
C:\Users\CYMR90~1\AppData\Local\Temp\ccSIna8B.s:1390   .text.rtc_timestamp_disable:0000000000000000 .L0 
C:\Users\CYMR90~1\AppData\Local\Temp\ccSIna8B.s:1391   .text.rtc_timestamp_disable:0000000000000002 .L0 
C:\Users\CYMR90~1\AppData\Local\Temp\ccSIna8B.s:1393   .text.rtc_timestamp_disable:0000000000000004 .L0 
C:\Users\CYMR90~1\AppData\Local\Temp\ccSIna8B.s:1395   .text.rtc_timestamp_disable:0000000000000006 .L0 
C:\Users\CYMR90~1\AppData\Local\Temp\ccSIna8B.s:1397   .text.rtc_timestamp_disable:0000000000000006 .L0 
C:\Users\CYMR90~1\AppData\Local\Temp\ccSIna8B.s:1400   .text.rtc_timestamp_disable:000000000000000e .L0 
C:\Users\CYMR90~1\AppData\Local\Temp\ccSIna8B.s:1403   .text.rtc_timestamp_disable:0000000000000014 .L0 
C:\Users\CYMR90~1\AppData\Local\Temp\ccSIna8B.s:1406   .text.rtc_timestamp_disable:000000000000001c .L0 
C:\Users\CYMR90~1\AppData\Local\Temp\ccSIna8B.s:1409   .text.rtc_timestamp_disable:0000000000000022 .L0 
C:\Users\CYMR90~1\AppData\Local\Temp\ccSIna8B.s:1419   .text.rtc_timestamp_disable:000000000000003e .L0 
C:\Users\CYMR90~1\AppData\Local\Temp\ccSIna8B.s:1422   .text.rtc_timestamp_disable:0000000000000046 .L0 
C:\Users\CYMR90~1\AppData\Local\Temp\ccSIna8B.s:1425   .text.rtc_timestamp_disable:000000000000004c .L0 
C:\Users\CYMR90~1\AppData\Local\Temp\ccSIna8B.s:1427   .text.rtc_timestamp_disable:0000000000000050 .L0 
C:\Users\CYMR90~1\AppData\Local\Temp\ccSIna8B.s:1428   .text.rtc_timestamp_disable:0000000000000050 .L0 
C:\Users\CYMR90~1\AppData\Local\Temp\ccSIna8B.s:1430   .text.rtc_timestamp_disable:0000000000000052 .L0 
C:\Users\CYMR90~1\AppData\Local\Temp\ccSIna8B.s:1432   .text.rtc_timestamp_disable:0000000000000054 .L0 
C:\Users\CYMR90~1\AppData\Local\Temp\ccSIna8B.s:1439   .text.rtc_timestamp_get:0000000000000000 rtc_timestamp_get
C:\Users\CYMR90~1\AppData\Local\Temp\ccSIna8B.s:1442   .text.rtc_timestamp_get:0000000000000000 .L0 
C:\Users\CYMR90~1\AppData\Local\Temp\ccSIna8B.s:1443   .text.rtc_timestamp_get:0000000000000000 .L0 
C:\Users\CYMR90~1\AppData\Local\Temp\ccSIna8B.s:1444   .text.rtc_timestamp_get:0000000000000002 .L0 
C:\Users\CYMR90~1\AppData\Local\Temp\ccSIna8B.s:1446   .text.rtc_timestamp_get:0000000000000004 .L0 
C:\Users\CYMR90~1\AppData\Local\Temp\ccSIna8B.s:1448   .text.rtc_timestamp_get:0000000000000006 .L0 
C:\Users\CYMR90~1\AppData\Local\Temp\ccSIna8B.s:1451   .text.rtc_timestamp_get:000000000000000a .L0 
C:\Users\CYMR90~1\AppData\Local\Temp\ccSIna8B.s:1453   .text.rtc_timestamp_get:000000000000000e .L0 
C:\Users\CYMR90~1\AppData\Local\Temp\ccSIna8B.s:1455   .text.rtc_timestamp_get:0000000000000012 .L0 
C:\Users\CYMR90~1\AppData\Local\Temp\ccSIna8B.s:1458   .text.rtc_timestamp_get:000000000000001a .L0 
C:\Users\CYMR90~1\AppData\Local\Temp\ccSIna8B.s:1461   .text.rtc_timestamp_get:0000000000000020 .L0 
C:\Users\CYMR90~1\AppData\Local\Temp\ccSIna8B.s:1464   .text.rtc_timestamp_get:0000000000000028 .L0 
C:\Users\CYMR90~1\AppData\Local\Temp\ccSIna8B.s:1467   .text.rtc_timestamp_get:000000000000002e .L0 
C:\Users\CYMR90~1\AppData\Local\Temp\ccSIna8B.s:1471   .text.rtc_timestamp_get:0000000000000038 .L0 
C:\Users\CYMR90~1\AppData\Local\Temp\ccSIna8B.s:1474   .text.rtc_timestamp_get:000000000000003e .L0 
C:\Users\CYMR90~1\AppData\Local\Temp\ccSIna8B.s:1477   .text.rtc_timestamp_get:0000000000000044 .L0 
C:\Users\CYMR90~1\AppData\Local\Temp\ccSIna8B.s:1481   .text.rtc_timestamp_get:000000000000004e .L0 
C:\Users\CYMR90~1\AppData\Local\Temp\ccSIna8B.s:1484   .text.rtc_timestamp_get:0000000000000056 .L0 
C:\Users\CYMR90~1\AppData\Local\Temp\ccSIna8B.s:1489   .text.rtc_timestamp_get:0000000000000066 .L0 
C:\Users\CYMR90~1\AppData\Local\Temp\ccSIna8B.s:1492   .text.rtc_timestamp_get:000000000000006e .L0 
C:\Users\CYMR90~1\AppData\Local\Temp\ccSIna8B.s:1495   .text.rtc_timestamp_get:0000000000000074 .L0 
C:\Users\CYMR90~1\AppData\Local\Temp\ccSIna8B.s:1499   .text.rtc_timestamp_get:000000000000007e .L0 
C:\Users\CYMR90~1\AppData\Local\Temp\ccSIna8B.s:1502   .text.rtc_timestamp_get:0000000000000086 .L0 
C:\Users\CYMR90~1\AppData\Local\Temp\ccSIna8B.s:1505   .text.rtc_timestamp_get:000000000000008c .L0 
C:\Users\CYMR90~1\AppData\Local\Temp\ccSIna8B.s:1509   .text.rtc_timestamp_get:0000000000000098 .L0 
C:\Users\CYMR90~1\AppData\Local\Temp\ccSIna8B.s:1512   .text.rtc_timestamp_get:00000000000000a0 .L0 
C:\Users\CYMR90~1\AppData\Local\Temp\ccSIna8B.s:1515   .text.rtc_timestamp_get:00000000000000a6 .L0 
C:\Users\CYMR90~1\AppData\Local\Temp\ccSIna8B.s:1519   .text.rtc_timestamp_get:00000000000000b2 .L0 
C:\Users\CYMR90~1\AppData\Local\Temp\ccSIna8B.s:1522   .text.rtc_timestamp_get:00000000000000ba .L0 
C:\Users\CYMR90~1\AppData\Local\Temp\ccSIna8B.s:1527   .text.rtc_timestamp_get:00000000000000ca .L0 
C:\Users\CYMR90~1\AppData\Local\Temp\ccSIna8B.s:1530   .text.rtc_timestamp_get:00000000000000d2 .L0 
C:\Users\CYMR90~1\AppData\Local\Temp\ccSIna8B.s:1532   .text.rtc_timestamp_get:00000000000000d6 .L0 
C:\Users\CYMR90~1\AppData\Local\Temp\ccSIna8B.s:1533   .text.rtc_timestamp_get:00000000000000d6 .L0 
C:\Users\CYMR90~1\AppData\Local\Temp\ccSIna8B.s:1535   .text.rtc_timestamp_get:00000000000000d8 .L0 
C:\Users\CYMR90~1\AppData\Local\Temp\ccSIna8B.s:1537   .text.rtc_timestamp_get:00000000000000da .L0 
C:\Users\CYMR90~1\AppData\Local\Temp\ccSIna8B.s:1544   .text.rtc_timestamp_subsecond_get:0000000000000000 rtc_timestamp_subsecond_get
C:\Users\CYMR90~1\AppData\Local\Temp\ccSIna8B.s:1547   .text.rtc_timestamp_subsecond_get:0000000000000000 .L0 
C:\Users\CYMR90~1\AppData\Local\Temp\ccSIna8B.s:1548   .text.rtc_timestamp_subsecond_get:0000000000000000 .L0 
C:\Users\CYMR90~1\AppData\Local\Temp\ccSIna8B.s:1549   .text.rtc_timestamp_subsecond_get:0000000000000002 .L0 
C:\Users\CYMR90~1\AppData\Local\Temp\ccSIna8B.s:1551   .text.rtc_timestamp_subsecond_get:0000000000000004 .L0 
C:\Users\CYMR90~1\AppData\Local\Temp\ccSIna8B.s:1553   .text.rtc_timestamp_subsecond_get:0000000000000006 .L0 
C:\Users\CYMR90~1\AppData\Local\Temp\ccSIna8B.s:1555   .text.rtc_timestamp_subsecond_get:0000000000000006 .L0 
C:\Users\CYMR90~1\AppData\Local\Temp\ccSIna8B.s:1559   .text.rtc_timestamp_subsecond_get:0000000000000010 .L0 
C:\Users\CYMR90~1\AppData\Local\Temp\ccSIna8B.s:1561   .text.rtc_timestamp_subsecond_get:0000000000000014 .L0 
C:\Users\CYMR90~1\AppData\Local\Temp\ccSIna8B.s:1562   .text.rtc_timestamp_subsecond_get:0000000000000014 .L0 
C:\Users\CYMR90~1\AppData\Local\Temp\ccSIna8B.s:1564   .text.rtc_timestamp_subsecond_get:0000000000000016 .L0 
C:\Users\CYMR90~1\AppData\Local\Temp\ccSIna8B.s:1566   .text.rtc_timestamp_subsecond_get:0000000000000018 .L0 
C:\Users\CYMR90~1\AppData\Local\Temp\ccSIna8B.s:1573   .text.rtc_tamper_enable:0000000000000000 rtc_tamper_enable
C:\Users\CYMR90~1\AppData\Local\Temp\ccSIna8B.s:1576   .text.rtc_tamper_enable:0000000000000000 .L0 
C:\Users\CYMR90~1\AppData\Local\Temp\ccSIna8B.s:1577   .text.rtc_tamper_enable:0000000000000000 .L0 
C:\Users\CYMR90~1\AppData\Local\Temp\ccSIna8B.s:1578   .text.rtc_tamper_enable:0000000000000002 .L0 
C:\Users\CYMR90~1\AppData\Local\Temp\ccSIna8B.s:1580   .text.rtc_tamper_enable:0000000000000004 .L0 
C:\Users\CYMR90~1\AppData\Local\Temp\ccSIna8B.s:1582   .text.rtc_tamper_enable:0000000000000006 .L0 
C:\Users\CYMR90~1\AppData\Local\Temp\ccSIna8B.s:1585   .text.rtc_tamper_enable:000000000000000a .L0 
C:\Users\CYMR90~1\AppData\Local\Temp\ccSIna8B.s:1589   .text.rtc_tamper_enable:0000000000000014 .L0 
C:\Users\CYMR90~1\AppData\Local\Temp\ccSIna8B.s:1592   .text.rtc_tamper_enable:000000000000001a .L0 
C:\Users\CYMR90~1\AppData\Local\Temp\ccSIna8B.s:1594   .text.rtc_tamper_enable:000000000000001e .L0 
C:\Users\CYMR90~1\AppData\Local\Temp\ccSIna8B.s:1599   .text.rtc_tamper_enable:000000000000002a .L0 
C:\Users\CYMR90~1\AppData\Local\Temp\ccSIna8B.s:1609   .text.rtc_tamper_enable:0000000000000046 .L0 
C:\Users\CYMR90~1\AppData\Local\Temp\ccSIna8B.s:1612   .text.rtc_tamper_enable:000000000000004c .L0 
C:\Users\CYMR90~1\AppData\Local\Temp\ccSIna8B.s:1614   .text.rtc_tamper_enable:000000000000004e .L0 
C:\Users\CYMR90~1\AppData\Local\Temp\ccSIna8B.s:1624   .text.rtc_tamper_enable:000000000000006a .L0 
C:\Users\CYMR90~1\AppData\Local\Temp\ccSIna8B.s:1627   .text.rtc_tamper_enable:0000000000000070 .L0 
C:\Users\CYMR90~1\AppData\Local\Temp\ccSIna8B.s:1629   .text.rtc_tamper_enable:0000000000000072 .L0 
C:\Users\CYMR90~1\AppData\Local\Temp\ccSIna8B.s:1640   .text.rtc_tamper_enable:000000000000008c .L0 
C:\Users\CYMR90~1\AppData\Local\Temp\ccSIna8B.s:1644   .text.rtc_tamper_enable:0000000000000096 .L0 
C:\Users\CYMR90~1\AppData\Local\Temp\ccSIna8B.s:1647   .text.rtc_tamper_enable:000000000000009c .L0 
C:\Users\CYMR90~1\AppData\Local\Temp\ccSIna8B.s:1653   .text.rtc_tamper_enable:00000000000000a8 .L0 
C:\Users\CYMR90~1\AppData\Local\Temp\ccSIna8B.s:1657   .text.rtc_tamper_enable:00000000000000b2 .L0 
C:\Users\CYMR90~1\AppData\Local\Temp\ccSIna8B.s:1660   .text.rtc_tamper_enable:00000000000000b8 .L0 
C:\Users\CYMR90~1\AppData\Local\Temp\ccSIna8B.s:1665   .text.rtc_tamper_enable:00000000000000c4 .L0 
C:\Users\CYMR90~1\AppData\Local\Temp\ccSIna8B.s:1669   .text.rtc_tamper_enable:00000000000000ce .L0 
C:\Users\CYMR90~1\AppData\Local\Temp\ccSIna8B.s:1672   .text.rtc_tamper_enable:00000000000000d4 .L0 
C:\Users\CYMR90~1\AppData\Local\Temp\ccSIna8B.s:1677   .text.rtc_tamper_enable:00000000000000e0 .L0 
C:\Users\CYMR90~1\AppData\Local\Temp\ccSIna8B.s:1681   .text.rtc_tamper_enable:00000000000000ea .L0 
C:\Users\CYMR90~1\AppData\Local\Temp\ccSIna8B.s:1684   .text.rtc_tamper_enable:00000000000000f0 .L0 
C:\Users\CYMR90~1\AppData\Local\Temp\ccSIna8B.s:1686   .text.rtc_tamper_enable:00000000000000f2 .L0 
C:\Users\CYMR90~1\AppData\Local\Temp\ccSIna8B.s:1688   .text.rtc_tamper_enable:00000000000000f6 .L0 
C:\Users\CYMR90~1\AppData\Local\Temp\ccSIna8B.s:1693   .text.rtc_tamper_enable:0000000000000102 .L0 
C:\Users\CYMR90~1\AppData\Local\Temp\ccSIna8B.s:1696   .text.rtc_tamper_enable:0000000000000108 .L0 
C:\Users\CYMR90~1\AppData\Local\Temp\ccSIna8B.s:1698   .text.rtc_tamper_enable:000000000000010a .L0 
C:\Users\CYMR90~1\AppData\Local\Temp\ccSIna8B.s:1702   .text.rtc_tamper_enable:0000000000000114 .L0 
C:\Users\CYMR90~1\AppData\Local\Temp\ccSIna8B.s:1705   .text.rtc_tamper_enable:000000000000011a .L0 
C:\Users\CYMR90~1\AppData\Local\Temp\ccSIna8B.s:1707   .text.rtc_tamper_enable:000000000000011e .L0 
C:\Users\CYMR90~1\AppData\Local\Temp\ccSIna8B.s:1714   .text.rtc_tamper_enable:000000000000012c .L0 
C:\Users\CYMR90~1\AppData\Local\Temp\ccSIna8B.s:1718   .text.rtc_tamper_enable:0000000000000136 .L0 
C:\Users\CYMR90~1\AppData\Local\Temp\ccSIna8B.s:1721   .text.rtc_tamper_enable:000000000000013c .L0 
C:\Users\CYMR90~1\AppData\Local\Temp\ccSIna8B.s:1723   .text.rtc_tamper_enable:000000000000013e .L0 
C:\Users\CYMR90~1\AppData\Local\Temp\ccSIna8B.s:1725   .text.rtc_tamper_enable:0000000000000142 .L0 
C:\Users\CYMR90~1\AppData\Local\Temp\ccSIna8B.s:1730   .text.rtc_tamper_enable:000000000000014e .L0 
C:\Users\CYMR90~1\AppData\Local\Temp\ccSIna8B.s:1733   .text.rtc_tamper_enable:0000000000000154 .L0 
C:\Users\CYMR90~1\AppData\Local\Temp\ccSIna8B.s:1735   .text.rtc_tamper_enable:0000000000000156 .L0 
C:\Users\CYMR90~1\AppData\Local\Temp\ccSIna8B.s:1739   .text.rtc_tamper_enable:0000000000000160 .L0 
C:\Users\CYMR90~1\AppData\Local\Temp\ccSIna8B.s:1742   .text.rtc_tamper_enable:0000000000000166 .L0 
C:\Users\CYMR90~1\AppData\Local\Temp\ccSIna8B.s:1744   .text.rtc_tamper_enable:000000000000016a .L0 
C:\Users\CYMR90~1\AppData\Local\Temp\ccSIna8B.s:1750   .text.rtc_tamper_enable:0000000000000176 .L0 
C:\Users\CYMR90~1\AppData\Local\Temp\ccSIna8B.s:1758   .text.rtc_tamper_enable:000000000000018e .L0 
C:\Users\CYMR90~1\AppData\Local\Temp\ccSIna8B.s:1761   .text.rtc_tamper_enable:0000000000000194 .L0 
C:\Users\CYMR90~1\AppData\Local\Temp\ccSIna8B.s:1763   .text.rtc_tamper_enable:0000000000000196 .L0 
C:\Users\CYMR90~1\AppData\Local\Temp\ccSIna8B.s:1772   .text.rtc_tamper_enable:00000000000001ae .L0 
C:\Users\CYMR90~1\AppData\Local\Temp\ccSIna8B.s:1776   .text.rtc_tamper_enable:00000000000001b8 .L0 
C:\Users\CYMR90~1\AppData\Local\Temp\ccSIna8B.s:1779   .text.rtc_tamper_enable:00000000000001be .L0 
C:\Users\CYMR90~1\AppData\Local\Temp\ccSIna8B.s:1784   .text.rtc_tamper_enable:00000000000001ca .L0 
C:\Users\CYMR90~1\AppData\Local\Temp\ccSIna8B.s:1786   .text.rtc_tamper_enable:00000000000001ce .L0 
C:\Users\CYMR90~1\AppData\Local\Temp\ccSIna8B.s:1787   .text.rtc_tamper_enable:00000000000001ce .L0 
C:\Users\CYMR90~1\AppData\Local\Temp\ccSIna8B.s:1789   .text.rtc_tamper_enable:00000000000001d0 .L0 
C:\Users\CYMR90~1\AppData\Local\Temp\ccSIna8B.s:1791   .text.rtc_tamper_enable:00000000000001d2 .L0 
C:\Users\CYMR90~1\AppData\Local\Temp\ccSIna8B.s:1798   .text.rtc_tamper_disable:0000000000000000 rtc_tamper_disable
C:\Users\CYMR90~1\AppData\Local\Temp\ccSIna8B.s:1801   .text.rtc_tamper_disable:0000000000000000 .L0 
C:\Users\CYMR90~1\AppData\Local\Temp\ccSIna8B.s:1802   .text.rtc_tamper_disable:0000000000000000 .L0 
C:\Users\CYMR90~1\AppData\Local\Temp\ccSIna8B.s:1803   .text.rtc_tamper_disable:0000000000000002 .L0 
C:\Users\CYMR90~1\AppData\Local\Temp\ccSIna8B.s:1805   .text.rtc_tamper_disable:0000000000000004 .L0 
C:\Users\CYMR90~1\AppData\Local\Temp\ccSIna8B.s:1807   .text.rtc_tamper_disable:0000000000000006 .L0 
C:\Users\CYMR90~1\AppData\Local\Temp\ccSIna8B.s:1810   .text.rtc_tamper_disable:000000000000000a .L0 
C:\Users\CYMR90~1\AppData\Local\Temp\ccSIna8B.s:1814   .text.rtc_tamper_disable:0000000000000014 .L0 
C:\Users\CYMR90~1\AppData\Local\Temp\ccSIna8B.s:1817   .text.rtc_tamper_disable:000000000000001c .L0 
C:\Users\CYMR90~1\AppData\Local\Temp\ccSIna8B.s:1822   .text.rtc_tamper_disable:0000000000000028 .L0 
C:\Users\CYMR90~1\AppData\Local\Temp\ccSIna8B.s:1824   .text.rtc_tamper_disable:000000000000002c .L0 
C:\Users\CYMR90~1\AppData\Local\Temp\ccSIna8B.s:1825   .text.rtc_tamper_disable:000000000000002c .L0 
C:\Users\CYMR90~1\AppData\Local\Temp\ccSIna8B.s:1827   .text.rtc_tamper_disable:000000000000002e .L0 
C:\Users\CYMR90~1\AppData\Local\Temp\ccSIna8B.s:1829   .text.rtc_tamper_disable:0000000000000030 .L0 
C:\Users\CYMR90~1\AppData\Local\Temp\ccSIna8B.s:1836   .text.rtc_software_bkp_reset:0000000000000000 rtc_software_bkp_reset
C:\Users\CYMR90~1\AppData\Local\Temp\ccSIna8B.s:1839   .text.rtc_software_bkp_reset:0000000000000000 .L0 
C:\Users\CYMR90~1\AppData\Local\Temp\ccSIna8B.s:1840   .text.rtc_software_bkp_reset:0000000000000000 .L0 
C:\Users\CYMR90~1\AppData\Local\Temp\ccSIna8B.s:1841   .text.rtc_software_bkp_reset:0000000000000002 .L0 
C:\Users\CYMR90~1\AppData\Local\Temp\ccSIna8B.s:1843   .text.rtc_software_bkp_reset:0000000000000004 .L0 
C:\Users\CYMR90~1\AppData\Local\Temp\ccSIna8B.s:1845   .text.rtc_software_bkp_reset:0000000000000006 .L0 
C:\Users\CYMR90~1\AppData\Local\Temp\ccSIna8B.s:1847   .text.rtc_software_bkp_reset:0000000000000006 .L0 
C:\Users\CYMR90~1\AppData\Local\Temp\ccSIna8B.s:1856   .text.rtc_software_bkp_reset:0000000000000020 .L0 
C:\Users\CYMR90~1\AppData\Local\Temp\ccSIna8B.s:1858   .text.rtc_software_bkp_reset:0000000000000024 .L0 
C:\Users\CYMR90~1\AppData\Local\Temp\ccSIna8B.s:1859   .text.rtc_software_bkp_reset:0000000000000024 .L0 
C:\Users\CYMR90~1\AppData\Local\Temp\ccSIna8B.s:1861   .text.rtc_software_bkp_reset:0000000000000026 .L0 
C:\Users\CYMR90~1\AppData\Local\Temp\ccSIna8B.s:1863   .text.rtc_software_bkp_reset:0000000000000028 .L0 
C:\Users\CYMR90~1\AppData\Local\Temp\ccSIna8B.s:1870   .text.rtc_tamper_without_bkp_reset:0000000000000000 rtc_tamper_without_bkp_reset
C:\Users\CYMR90~1\AppData\Local\Temp\ccSIna8B.s:1873   .text.rtc_tamper_without_bkp_reset:0000000000000000 .L0 
C:\Users\CYMR90~1\AppData\Local\Temp\ccSIna8B.s:1874   .text.rtc_tamper_without_bkp_reset:0000000000000000 .L0 
C:\Users\CYMR90~1\AppData\Local\Temp\ccSIna8B.s:1875   .text.rtc_tamper_without_bkp_reset:0000000000000002 .L0 
C:\Users\CYMR90~1\AppData\Local\Temp\ccSIna8B.s:1877   .text.rtc_tamper_without_bkp_reset:0000000000000004 .L0 
C:\Users\CYMR90~1\AppData\Local\Temp\ccSIna8B.s:1879   .text.rtc_tamper_without_bkp_reset:0000000000000006 .L0 
C:\Users\CYMR90~1\AppData\Local\Temp\ccSIna8B.s:1882   .text.rtc_tamper_without_bkp_reset:000000000000000a .L0 
C:\Users\CYMR90~1\AppData\Local\Temp\ccSIna8B.s:1892   .text.rtc_tamper_without_bkp_reset:0000000000000026 .L0 
C:\Users\CYMR90~1\AppData\Local\Temp\ccSIna8B.s:1901   .text.rtc_tamper_without_bkp_reset:0000000000000040 .L0 
C:\Users\CYMR90~1\AppData\Local\Temp\ccSIna8B.s:1903   .text.rtc_tamper_without_bkp_reset:0000000000000044 .L0 
C:\Users\CYMR90~1\AppData\Local\Temp\ccSIna8B.s:1904   .text.rtc_tamper_without_bkp_reset:0000000000000044 .L0 
C:\Users\CYMR90~1\AppData\Local\Temp\ccSIna8B.s:1906   .text.rtc_tamper_without_bkp_reset:0000000000000046 .L0 
C:\Users\CYMR90~1\AppData\Local\Temp\ccSIna8B.s:1908   .text.rtc_tamper_without_bkp_reset:0000000000000048 .L0 
C:\Users\CYMR90~1\AppData\Local\Temp\ccSIna8B.s:1915   .text.rtc_output_pin_select:0000000000000000 rtc_output_pin_select
C:\Users\CYMR90~1\AppData\Local\Temp\ccSIna8B.s:1918   .text.rtc_output_pin_select:0000000000000000 .L0 
C:\Users\CYMR90~1\AppData\Local\Temp\ccSIna8B.s:1919   .text.rtc_output_pin_select:0000000000000000 .L0 
C:\Users\CYMR90~1\AppData\Local\Temp\ccSIna8B.s:1920   .text.rtc_output_pin_select:0000000000000002 .L0 
C:\Users\CYMR90~1\AppData\Local\Temp\ccSIna8B.s:1922   .text.rtc_output_pin_select:0000000000000004 .L0 
C:\Users\CYMR90~1\AppData\Local\Temp\ccSIna8B.s:1924   .text.rtc_output_pin_select:0000000000000006 .L0 
C:\Users\CYMR90~1\AppData\Local\Temp\ccSIna8B.s:1927   .text.rtc_output_pin_select:000000000000000a .L0 
C:\Users\CYMR90~1\AppData\Local\Temp\ccSIna8B.s:1930   .text.rtc_output_pin_select:0000000000000012 .L0 
C:\Users\CYMR90~1\AppData\Local\Temp\ccSIna8B.s:1933   .text.rtc_output_pin_select:0000000000000018 .L0 
C:\Users\CYMR90~1\AppData\Local\Temp\ccSIna8B.s:1936   .text.rtc_output_pin_select:0000000000000020 .L0 
C:\Users\CYMR90~1\AppData\Local\Temp\ccSIna8B.s:1939   .text.rtc_output_pin_select:0000000000000026 .L0 
C:\Users\CYMR90~1\AppData\Local\Temp\ccSIna8B.s:1949   .text.rtc_output_pin_select:0000000000000044 .L0 
C:\Users\CYMR90~1\AppData\Local\Temp\ccSIna8B.s:1958   .text.rtc_output_pin_select:000000000000005e .L0 
C:\Users\CYMR90~1\AppData\Local\Temp\ccSIna8B.s:1961   .text.rtc_output_pin_select:0000000000000066 .L0 
C:\Users\CYMR90~1\AppData\Local\Temp\ccSIna8B.s:1964   .text.rtc_output_pin_select:000000000000006c .L0 
C:\Users\CYMR90~1\AppData\Local\Temp\ccSIna8B.s:1966   .text.rtc_output_pin_select:0000000000000070 .L0 
C:\Users\CYMR90~1\AppData\Local\Temp\ccSIna8B.s:1967   .text.rtc_output_pin_select:0000000000000070 .L0 
C:\Users\CYMR90~1\AppData\Local\Temp\ccSIna8B.s:1969   .text.rtc_output_pin_select:0000000000000072 .L0 
C:\Users\CYMR90~1\AppData\Local\Temp\ccSIna8B.s:1971   .text.rtc_output_pin_select:0000000000000074 .L0 
C:\Users\CYMR90~1\AppData\Local\Temp\ccSIna8B.s:1978   .text.rtc_alarm_output_config:0000000000000000 rtc_alarm_output_config
C:\Users\CYMR90~1\AppData\Local\Temp\ccSIna8B.s:1981   .text.rtc_alarm_output_config:0000000000000000 .L0 
C:\Users\CYMR90~1\AppData\Local\Temp\ccSIna8B.s:1982   .text.rtc_alarm_output_config:0000000000000000 .L0 
C:\Users\CYMR90~1\AppData\Local\Temp\ccSIna8B.s:1983   .text.rtc_alarm_output_config:0000000000000002 .L0 
C:\Users\CYMR90~1\AppData\Local\Temp\ccSIna8B.s:1985   .text.rtc_alarm_output_config:0000000000000004 .L0 
C:\Users\CYMR90~1\AppData\Local\Temp\ccSIna8B.s:1987   .text.rtc_alarm_output_config:0000000000000006 .L0 
C:\Users\CYMR90~1\AppData\Local\Temp\ccSIna8B.s:1991   .text.rtc_alarm_output_config:000000000000000e .L0 
C:\Users\CYMR90~1\AppData\Local\Temp\ccSIna8B.s:1994   .text.rtc_alarm_output_config:0000000000000016 .L0 
C:\Users\CYMR90~1\AppData\Local\Temp\ccSIna8B.s:1997   .text.rtc_alarm_output_config:000000000000001c .L0 
C:\Users\CYMR90~1\AppData\Local\Temp\ccSIna8B.s:2000   .text.rtc_alarm_output_config:0000000000000024 .L0 
C:\Users\CYMR90~1\AppData\Local\Temp\ccSIna8B.s:2003   .text.rtc_alarm_output_config:000000000000002a .L0 
C:\Users\CYMR90~1\AppData\Local\Temp\ccSIna8B.s:2013   .text.rtc_alarm_output_config:0000000000000046 .L0 
C:\Users\CYMR90~1\AppData\Local\Temp\ccSIna8B.s:2023   .text.rtc_alarm_output_config:0000000000000062 .L0 
C:\Users\CYMR90~1\AppData\Local\Temp\ccSIna8B.s:2032   .text.rtc_alarm_output_config:000000000000007c .L0 
C:\Users\CYMR90~1\AppData\Local\Temp\ccSIna8B.s:2041   .text.rtc_alarm_output_config:0000000000000096 .L0 
C:\Users\CYMR90~1\AppData\Local\Temp\ccSIna8B.s:2044   .text.rtc_alarm_output_config:000000000000009e .L0 
C:\Users\CYMR90~1\AppData\Local\Temp\ccSIna8B.s:2047   .text.rtc_alarm_output_config:00000000000000a4 .L0 
C:\Users\CYMR90~1\AppData\Local\Temp\ccSIna8B.s:2049   .text.rtc_alarm_output_config:00000000000000a8 .L0 
C:\Users\CYMR90~1\AppData\Local\Temp\ccSIna8B.s:2050   .text.rtc_alarm_output_config:00000000000000a8 .L0 
C:\Users\CYMR90~1\AppData\Local\Temp\ccSIna8B.s:2052   .text.rtc_alarm_output_config:00000000000000aa .L0 
C:\Users\CYMR90~1\AppData\Local\Temp\ccSIna8B.s:2054   .text.rtc_alarm_output_config:00000000000000ac .L0 
C:\Users\CYMR90~1\AppData\Local\Temp\ccSIna8B.s:2061   .text.rtc_calibration_output_config:0000000000000000 rtc_calibration_output_config
C:\Users\CYMR90~1\AppData\Local\Temp\ccSIna8B.s:2064   .text.rtc_calibration_output_config:0000000000000000 .L0 
C:\Users\CYMR90~1\AppData\Local\Temp\ccSIna8B.s:2065   .text.rtc_calibration_output_config:0000000000000000 .L0 
C:\Users\CYMR90~1\AppData\Local\Temp\ccSIna8B.s:2066   .text.rtc_calibration_output_config:0000000000000002 .L0 
C:\Users\CYMR90~1\AppData\Local\Temp\ccSIna8B.s:2068   .text.rtc_calibration_output_config:0000000000000004 .L0 
C:\Users\CYMR90~1\AppData\Local\Temp\ccSIna8B.s:2070   .text.rtc_calibration_output_config:0000000000000006 .L0 
C:\Users\CYMR90~1\AppData\Local\Temp\ccSIna8B.s:2073   .text.rtc_calibration_output_config:000000000000000a .L0 
C:\Users\CYMR90~1\AppData\Local\Temp\ccSIna8B.s:2076   .text.rtc_calibration_output_config:0000000000000012 .L0 
C:\Users\CYMR90~1\AppData\Local\Temp\ccSIna8B.s:2079   .text.rtc_calibration_output_config:0000000000000018 .L0 
C:\Users\CYMR90~1\AppData\Local\Temp\ccSIna8B.s:2082   .text.rtc_calibration_output_config:0000000000000020 .L0 
C:\Users\CYMR90~1\AppData\Local\Temp\ccSIna8B.s:2085   .text.rtc_calibration_output_config:0000000000000026 .L0 
C:\Users\CYMR90~1\AppData\Local\Temp\ccSIna8B.s:2095   .text.rtc_calibration_output_config:0000000000000042 .L0 
C:\Users\CYMR90~1\AppData\Local\Temp\ccSIna8B.s:2104   .text.rtc_calibration_output_config:000000000000005c .L0 
C:\Users\CYMR90~1\AppData\Local\Temp\ccSIna8B.s:2107   .text.rtc_calibration_output_config:0000000000000064 .L0 
C:\Users\CYMR90~1\AppData\Local\Temp\ccSIna8B.s:2110   .text.rtc_calibration_output_config:000000000000006a .L0 
C:\Users\CYMR90~1\AppData\Local\Temp\ccSIna8B.s:2112   .text.rtc_calibration_output_config:000000000000006e .L0 
C:\Users\CYMR90~1\AppData\Local\Temp\ccSIna8B.s:2113   .text.rtc_calibration_output_config:000000000000006e .L0 
C:\Users\CYMR90~1\AppData\Local\Temp\ccSIna8B.s:2115   .text.rtc_calibration_output_config:0000000000000070 .L0 
C:\Users\CYMR90~1\AppData\Local\Temp\ccSIna8B.s:2117   .text.rtc_calibration_output_config:0000000000000072 .L0 
C:\Users\CYMR90~1\AppData\Local\Temp\ccSIna8B.s:2124   .text.rtc_hour_adjust:0000000000000000 rtc_hour_adjust
C:\Users\CYMR90~1\AppData\Local\Temp\ccSIna8B.s:2127   .text.rtc_hour_adjust:0000000000000000 .L0 
C:\Users\CYMR90~1\AppData\Local\Temp\ccSIna8B.s:2128   .text.rtc_hour_adjust:0000000000000000 .L0 
C:\Users\CYMR90~1\AppData\Local\Temp\ccSIna8B.s:2129   .text.rtc_hour_adjust:0000000000000002 .L0 
C:\Users\CYMR90~1\AppData\Local\Temp\ccSIna8B.s:2131   .text.rtc_hour_adjust:0000000000000004 .L0 
C:\Users\CYMR90~1\AppData\Local\Temp\ccSIna8B.s:2133   .text.rtc_hour_adjust:0000000000000006 .L0 
C:\Users\CYMR90~1\AppData\Local\Temp\ccSIna8B.s:2136   .text.rtc_hour_adjust:000000000000000a .L0 
C:\Users\CYMR90~1\AppData\Local\Temp\ccSIna8B.s:2139   .text.rtc_hour_adjust:0000000000000012 .L0 
C:\Users\CYMR90~1\AppData\Local\Temp\ccSIna8B.s:2142   .text.rtc_hour_adjust:0000000000000018 .L0 
C:\Users\CYMR90~1\AppData\Local\Temp\ccSIna8B.s:2145   .text.rtc_hour_adjust:0000000000000020 .L0 
C:\Users\CYMR90~1\AppData\Local\Temp\ccSIna8B.s:2148   .text.rtc_hour_adjust:0000000000000026 .L0 
C:\Users\CYMR90~1\AppData\Local\Temp\ccSIna8B.s:2157   .text.rtc_hour_adjust:0000000000000040 .L0 
C:\Users\CYMR90~1\AppData\Local\Temp\ccSIna8B.s:2160   .text.rtc_hour_adjust:0000000000000048 .L0 
C:\Users\CYMR90~1\AppData\Local\Temp\ccSIna8B.s:2163   .text.rtc_hour_adjust:000000000000004e .L0 
C:\Users\CYMR90~1\AppData\Local\Temp\ccSIna8B.s:2165   .text.rtc_hour_adjust:0000000000000052 .L0 
C:\Users\CYMR90~1\AppData\Local\Temp\ccSIna8B.s:2166   .text.rtc_hour_adjust:0000000000000052 .L0 
C:\Users\CYMR90~1\AppData\Local\Temp\ccSIna8B.s:2168   .text.rtc_hour_adjust:0000000000000054 .L0 
C:\Users\CYMR90~1\AppData\Local\Temp\ccSIna8B.s:2170   .text.rtc_hour_adjust:0000000000000056 .L0 
C:\Users\CYMR90~1\AppData\Local\Temp\ccSIna8B.s:2177   .text.rtc_second_adjust:0000000000000000 rtc_second_adjust
C:\Users\CYMR90~1\AppData\Local\Temp\ccSIna8B.s:2180   .text.rtc_second_adjust:0000000000000000 .L0 
C:\Users\CYMR90~1\AppData\Local\Temp\ccSIna8B.s:2181   .text.rtc_second_adjust:0000000000000000 .L0 
C:\Users\CYMR90~1\AppData\Local\Temp\ccSIna8B.s:2182   .text.rtc_second_adjust:0000000000000002 .L0 
C:\Users\CYMR90~1\AppData\Local\Temp\ccSIna8B.s:2185   .text.rtc_second_adjust:0000000000000006 .L0 
C:\Users\CYMR90~1\AppData\Local\Temp\ccSIna8B.s:2186   .text.rtc_second_adjust:0000000000000006 .L0 
C:\Users\CYMR90~1\AppData\Local\Temp\ccSIna8B.s:2188   .text.rtc_second_adjust:0000000000000008 .L0 
C:\Users\CYMR90~1\AppData\Local\Temp\ccSIna8B.s:2192   .text.rtc_second_adjust:0000000000000010 .L0 
C:\Users\CYMR90~1\AppData\Local\Temp\ccSIna8B.s:2195   .text.rtc_second_adjust:0000000000000016 .L0 
C:\Users\CYMR90~1\AppData\Local\Temp\ccSIna8B.s:2197   .text.rtc_second_adjust:000000000000001a .L0 
C:\Users\CYMR90~1\AppData\Local\Temp\ccSIna8B.s:2199   .text.rtc_second_adjust:000000000000001e .L0 
C:\Users\CYMR90~1\AppData\Local\Temp\ccSIna8B.s:2201   .text.rtc_second_adjust:0000000000000022 .L0 
C:\Users\CYMR90~1\AppData\Local\Temp\ccSIna8B.s:2204   .text.rtc_second_adjust:000000000000002a .L0 
C:\Users\CYMR90~1\AppData\Local\Temp\ccSIna8B.s:2207   .text.rtc_second_adjust:0000000000000030 .L0 
C:\Users\CYMR90~1\AppData\Local\Temp\ccSIna8B.s:2210   .text.rtc_second_adjust:0000000000000038 .L0 
C:\Users\CYMR90~1\AppData\Local\Temp\ccSIna8B.s:2214   .text.rtc_second_adjust:000000000000003e .L0 
C:\Users\CYMR90~1\AppData\Local\Temp\ccSIna8B.s:2218   .text.rtc_second_adjust:0000000000000048 .L0 
C:\Users\CYMR90~1\AppData\Local\Temp\ccSIna8B.s:2221   .text.rtc_second_adjust:000000000000004e .L0 
C:\Users\CYMR90~1\AppData\Local\Temp\ccSIna8B.s:2224   .text.rtc_second_adjust:0000000000000054 .L0 
C:\Users\CYMR90~1\AppData\Local\Temp\ccSIna8B.s:2227   .text.rtc_second_adjust:000000000000005a .L0 
C:\Users\CYMR90~1\AppData\Local\Temp\ccSIna8B.s:2231   .text.rtc_second_adjust:0000000000000060 .L0 
C:\Users\CYMR90~1\AppData\Local\Temp\ccSIna8B.s:2235   .text.rtc_second_adjust:000000000000006a .L0 
C:\Users\CYMR90~1\AppData\Local\Temp\ccSIna8B.s:2238   .text.rtc_second_adjust:0000000000000070 .L0 
C:\Users\CYMR90~1\AppData\Local\Temp\ccSIna8B.s:2241   .text.rtc_second_adjust:0000000000000076 .L0 
C:\Users\CYMR90~1\AppData\Local\Temp\ccSIna8B.s:2244   .text.rtc_second_adjust:000000000000007c .L0 
C:\Users\CYMR90~1\AppData\Local\Temp\ccSIna8B.s:2249   .text.rtc_second_adjust:0000000000000088 .L0 
C:\Users\CYMR90~1\AppData\Local\Temp\ccSIna8B.s:2252   .text.rtc_second_adjust:0000000000000090 .L0 
C:\Users\CYMR90~1\AppData\Local\Temp\ccSIna8B.s:2255   .text.rtc_second_adjust:0000000000000096 .L0 
C:\Users\CYMR90~1\AppData\Local\Temp\ccSIna8B.s:2257   .text.rtc_second_adjust:0000000000000098 .L0 
C:\Users\CYMR90~1\AppData\Local\Temp\ccSIna8B.s:2261   .text.rtc_second_adjust:00000000000000a4 .L0 
C:\Users\CYMR90~1\AppData\Local\Temp\ccSIna8B.s:2264   .text.rtc_second_adjust:00000000000000ac .L0 
C:\Users\CYMR90~1\AppData\Local\Temp\ccSIna8B.s:2267   .text.rtc_second_adjust:00000000000000b2 .L0 
C:\Users\CYMR90~1\AppData\Local\Temp\ccSIna8B.s:2269   .text.rtc_second_adjust:00000000000000b6 .L0 
C:\Users\CYMR90~1\AppData\Local\Temp\ccSIna8B.s:2271   .text.rtc_second_adjust:00000000000000ba .L0 
C:\Users\CYMR90~1\AppData\Local\Temp\ccSIna8B.s:2273   .text.rtc_second_adjust:00000000000000bc .L0 
C:\Users\CYMR90~1\AppData\Local\Temp\ccSIna8B.s:2274   .text.rtc_second_adjust:00000000000000bc .L0 
C:\Users\CYMR90~1\AppData\Local\Temp\ccSIna8B.s:2276   .text.rtc_second_adjust:00000000000000be .L0 
C:\Users\CYMR90~1\AppData\Local\Temp\ccSIna8B.s:2278   .text.rtc_second_adjust:00000000000000c0 .L0 
C:\Users\CYMR90~1\AppData\Local\Temp\ccSIna8B.s:2285   .text.rtc_bypass_shadow_enable:0000000000000000 rtc_bypass_shadow_enable
C:\Users\CYMR90~1\AppData\Local\Temp\ccSIna8B.s:2288   .text.rtc_bypass_shadow_enable:0000000000000000 .L0 
C:\Users\CYMR90~1\AppData\Local\Temp\ccSIna8B.s:2289   .text.rtc_bypass_shadow_enable:0000000000000000 .L0 
C:\Users\CYMR90~1\AppData\Local\Temp\ccSIna8B.s:2290   .text.rtc_bypass_shadow_enable:0000000000000002 .L0 
C:\Users\CYMR90~1\AppData\Local\Temp\ccSIna8B.s:2292   .text.rtc_bypass_shadow_enable:0000000000000004 .L0 
C:\Users\CYMR90~1\AppData\Local\Temp\ccSIna8B.s:2294   .text.rtc_bypass_shadow_enable:0000000000000006 .L0 
C:\Users\CYMR90~1\AppData\Local\Temp\ccSIna8B.s:2296   .text.rtc_bypass_shadow_enable:0000000000000006 .L0 
C:\Users\CYMR90~1\AppData\Local\Temp\ccSIna8B.s:2299   .text.rtc_bypass_shadow_enable:000000000000000e .L0 
C:\Users\CYMR90~1\AppData\Local\Temp\ccSIna8B.s:2302   .text.rtc_bypass_shadow_enable:0000000000000014 .L0 
C:\Users\CYMR90~1\AppData\Local\Temp\ccSIna8B.s:2305   .text.rtc_bypass_shadow_enable:000000000000001c .L0 
C:\Users\CYMR90~1\AppData\Local\Temp\ccSIna8B.s:2308   .text.rtc_bypass_shadow_enable:0000000000000022 .L0 
C:\Users\CYMR90~1\AppData\Local\Temp\ccSIna8B.s:2316   .text.rtc_bypass_shadow_enable:000000000000003a .L0 
C:\Users\CYMR90~1\AppData\Local\Temp\ccSIna8B.s:2319   .text.rtc_bypass_shadow_enable:0000000000000042 .L0 
C:\Users\CYMR90~1\AppData\Local\Temp\ccSIna8B.s:2322   .text.rtc_bypass_shadow_enable:0000000000000048 .L0 
C:\Users\CYMR90~1\AppData\Local\Temp\ccSIna8B.s:2324   .text.rtc_bypass_shadow_enable:000000000000004c .L0 
C:\Users\CYMR90~1\AppData\Local\Temp\ccSIna8B.s:2325   .text.rtc_bypass_shadow_enable:000000000000004c .L0 
C:\Users\CYMR90~1\AppData\Local\Temp\ccSIna8B.s:2327   .text.rtc_bypass_shadow_enable:000000000000004e .L0 
C:\Users\CYMR90~1\AppData\Local\Temp\ccSIna8B.s:2329   .text.rtc_bypass_shadow_enable:0000000000000050 .L0 
C:\Users\CYMR90~1\AppData\Local\Temp\ccSIna8B.s:2336   .text.rtc_bypass_shadow_disable:0000000000000000 rtc_bypass_shadow_disable
C:\Users\CYMR90~1\AppData\Local\Temp\ccSIna8B.s:2339   .text.rtc_bypass_shadow_disable:0000000000000000 .L0 
C:\Users\CYMR90~1\AppData\Local\Temp\ccSIna8B.s:2340   .text.rtc_bypass_shadow_disable:0000000000000000 .L0 
C:\Users\CYMR90~1\AppData\Local\Temp\ccSIna8B.s:2341   .text.rtc_bypass_shadow_disable:0000000000000002 .L0 
C:\Users\CYMR90~1\AppData\Local\Temp\ccSIna8B.s:2343   .text.rtc_bypass_shadow_disable:0000000000000004 .L0 
C:\Users\CYMR90~1\AppData\Local\Temp\ccSIna8B.s:2345   .text.rtc_bypass_shadow_disable:0000000000000006 .L0 
C:\Users\CYMR90~1\AppData\Local\Temp\ccSIna8B.s:2347   .text.rtc_bypass_shadow_disable:0000000000000006 .L0 
C:\Users\CYMR90~1\AppData\Local\Temp\ccSIna8B.s:2350   .text.rtc_bypass_shadow_disable:000000000000000e .L0 
C:\Users\CYMR90~1\AppData\Local\Temp\ccSIna8B.s:2353   .text.rtc_bypass_shadow_disable:0000000000000014 .L0 
C:\Users\CYMR90~1\AppData\Local\Temp\ccSIna8B.s:2356   .text.rtc_bypass_shadow_disable:000000000000001c .L0 
C:\Users\CYMR90~1\AppData\Local\Temp\ccSIna8B.s:2359   .text.rtc_bypass_shadow_disable:0000000000000022 .L0 
C:\Users\CYMR90~1\AppData\Local\Temp\ccSIna8B.s:2367   .text.rtc_bypass_shadow_disable:000000000000003a .L0 
C:\Users\CYMR90~1\AppData\Local\Temp\ccSIna8B.s:2370   .text.rtc_bypass_shadow_disable:0000000000000042 .L0 
C:\Users\CYMR90~1\AppData\Local\Temp\ccSIna8B.s:2373   .text.rtc_bypass_shadow_disable:0000000000000048 .L0 
C:\Users\CYMR90~1\AppData\Local\Temp\ccSIna8B.s:2375   .text.rtc_bypass_shadow_disable:000000000000004c .L0 
C:\Users\CYMR90~1\AppData\Local\Temp\ccSIna8B.s:2376   .text.rtc_bypass_shadow_disable:000000000000004c .L0 
C:\Users\CYMR90~1\AppData\Local\Temp\ccSIna8B.s:2378   .text.rtc_bypass_shadow_disable:000000000000004e .L0 
C:\Users\CYMR90~1\AppData\Local\Temp\ccSIna8B.s:2380   .text.rtc_bypass_shadow_disable:0000000000000050 .L0 
C:\Users\CYMR90~1\AppData\Local\Temp\ccSIna8B.s:2387   .text.rtc_refclock_detection_enable:0000000000000000 rtc_refclock_detection_enable
C:\Users\CYMR90~1\AppData\Local\Temp\ccSIna8B.s:2390   .text.rtc_refclock_detection_enable:0000000000000000 .L0 
C:\Users\CYMR90~1\AppData\Local\Temp\ccSIna8B.s:2391   .text.rtc_refclock_detection_enable:0000000000000000 .L0 
C:\Users\CYMR90~1\AppData\Local\Temp\ccSIna8B.s:2392   .text.rtc_refclock_detection_enable:0000000000000002 .L0 
C:\Users\CYMR90~1\AppData\Local\Temp\ccSIna8B.s:2395   .text.rtc_refclock_detection_enable:0000000000000006 .L0 
C:\Users\CYMR90~1\AppData\Local\Temp\ccSIna8B.s:2396   .text.rtc_refclock_detection_enable:0000000000000006 .L0 
C:\Users\CYMR90~1\AppData\Local\Temp\ccSIna8B.s:2398   .text.rtc_refclock_detection_enable:0000000000000008 .L0 
C:\Users\CYMR90~1\AppData\Local\Temp\ccSIna8B.s:2400   .text.rtc_refclock_detection_enable:0000000000000008 .L0 
C:\Users\CYMR90~1\AppData\Local\Temp\ccSIna8B.s:2402   .text.rtc_refclock_detection_enable:000000000000000c .L0 
C:\Users\CYMR90~1\AppData\Local\Temp\ccSIna8B.s:2405   .text.rtc_refclock_detection_enable:0000000000000014 .L0 
C:\Users\CYMR90~1\AppData\Local\Temp\ccSIna8B.s:2408   .text.rtc_refclock_detection_enable:000000000000001a .L0 
C:\Users\CYMR90~1\AppData\Local\Temp\ccSIna8B.s:2411   .text.rtc_refclock_detection_enable:0000000000000022 .L0 
C:\Users\CYMR90~1\AppData\Local\Temp\ccSIna8B.s:2414   .text.rtc_refclock_detection_enable:0000000000000028 .L0 
C:\Users\CYMR90~1\AppData\Local\Temp\ccSIna8B.s:2417   .text.rtc_refclock_detection_enable:0000000000000034 .L0 
C:\Users\CYMR90~1\AppData\Local\Temp\ccSIna8B.s:2420   .text.rtc_refclock_detection_enable:000000000000003a .L0 
C:\Users\CYMR90~1\AppData\Local\Temp\ccSIna8B.s:2428   .text.rtc_refclock_detection_enable:0000000000000052 .L0 
C:\Users\CYMR90~1\AppData\Local\Temp\ccSIna8B.s:2431   .text.rtc_refclock_detection_enable:000000000000005a .L0 
C:\Users\CYMR90~1\AppData\Local\Temp\ccSIna8B.s:2434   .text.rtc_refclock_detection_enable:0000000000000062 .L0 
C:\Users\CYMR90~1\AppData\Local\Temp\ccSIna8B.s:2437   .text.rtc_refclock_detection_enable:0000000000000068 .L0 
C:\Users\CYMR90~1\AppData\Local\Temp\ccSIna8B.s:2439   .text.rtc_refclock_detection_enable:000000000000006c .L0 
C:\Users\CYMR90~1\AppData\Local\Temp\ccSIna8B.s:2441   .text.rtc_refclock_detection_enable:0000000000000070 .L0 
C:\Users\CYMR90~1\AppData\Local\Temp\ccSIna8B.s:2443   .text.rtc_refclock_detection_enable:0000000000000072 .L0 
C:\Users\CYMR90~1\AppData\Local\Temp\ccSIna8B.s:2444   .text.rtc_refclock_detection_enable:0000000000000072 .L0 
C:\Users\CYMR90~1\AppData\Local\Temp\ccSIna8B.s:2446   .text.rtc_refclock_detection_enable:0000000000000074 .L0 
C:\Users\CYMR90~1\AppData\Local\Temp\ccSIna8B.s:2448   .text.rtc_refclock_detection_enable:0000000000000076 .L0 
C:\Users\CYMR90~1\AppData\Local\Temp\ccSIna8B.s:2455   .text.rtc_refclock_detection_disable:0000000000000000 rtc_refclock_detection_disable
C:\Users\CYMR90~1\AppData\Local\Temp\ccSIna8B.s:2458   .text.rtc_refclock_detection_disable:0000000000000000 .L0 
C:\Users\CYMR90~1\AppData\Local\Temp\ccSIna8B.s:2459   .text.rtc_refclock_detection_disable:0000000000000000 .L0 
C:\Users\CYMR90~1\AppData\Local\Temp\ccSIna8B.s:2460   .text.rtc_refclock_detection_disable:0000000000000002 .L0 
C:\Users\CYMR90~1\AppData\Local\Temp\ccSIna8B.s:2463   .text.rtc_refclock_detection_disable:0000000000000006 .L0 
C:\Users\CYMR90~1\AppData\Local\Temp\ccSIna8B.s:2464   .text.rtc_refclock_detection_disable:0000000000000006 .L0 
C:\Users\CYMR90~1\AppData\Local\Temp\ccSIna8B.s:2466   .text.rtc_refclock_detection_disable:0000000000000008 .L0 
C:\Users\CYMR90~1\AppData\Local\Temp\ccSIna8B.s:2468   .text.rtc_refclock_detection_disable:0000000000000008 .L0 
C:\Users\CYMR90~1\AppData\Local\Temp\ccSIna8B.s:2470   .text.rtc_refclock_detection_disable:000000000000000c .L0 
C:\Users\CYMR90~1\AppData\Local\Temp\ccSIna8B.s:2473   .text.rtc_refclock_detection_disable:0000000000000014 .L0 
C:\Users\CYMR90~1\AppData\Local\Temp\ccSIna8B.s:2476   .text.rtc_refclock_detection_disable:000000000000001a .L0 
C:\Users\CYMR90~1\AppData\Local\Temp\ccSIna8B.s:2479   .text.rtc_refclock_detection_disable:0000000000000022 .L0 
C:\Users\CYMR90~1\AppData\Local\Temp\ccSIna8B.s:2482   .text.rtc_refclock_detection_disable:0000000000000028 .L0 
C:\Users\CYMR90~1\AppData\Local\Temp\ccSIna8B.s:2485   .text.rtc_refclock_detection_disable:0000000000000034 .L0 
C:\Users\CYMR90~1\AppData\Local\Temp\ccSIna8B.s:2488   .text.rtc_refclock_detection_disable:000000000000003a .L0 
C:\Users\CYMR90~1\AppData\Local\Temp\ccSIna8B.s:2496   .text.rtc_refclock_detection_disable:0000000000000050 .L0 
C:\Users\CYMR90~1\AppData\Local\Temp\ccSIna8B.s:2499   .text.rtc_refclock_detection_disable:0000000000000058 .L0 
C:\Users\CYMR90~1\AppData\Local\Temp\ccSIna8B.s:2502   .text.rtc_refclock_detection_disable:0000000000000060 .L0 
C:\Users\CYMR90~1\AppData\Local\Temp\ccSIna8B.s:2505   .text.rtc_refclock_detection_disable:0000000000000066 .L0 
C:\Users\CYMR90~1\AppData\Local\Temp\ccSIna8B.s:2507   .text.rtc_refclock_detection_disable:000000000000006a .L0 
C:\Users\CYMR90~1\AppData\Local\Temp\ccSIna8B.s:2509   .text.rtc_refclock_detection_disable:000000000000006e .L0 
C:\Users\CYMR90~1\AppData\Local\Temp\ccSIna8B.s:2511   .text.rtc_refclock_detection_disable:0000000000000070 .L0 
C:\Users\CYMR90~1\AppData\Local\Temp\ccSIna8B.s:2512   .text.rtc_refclock_detection_disable:0000000000000070 .L0 
C:\Users\CYMR90~1\AppData\Local\Temp\ccSIna8B.s:2514   .text.rtc_refclock_detection_disable:0000000000000072 .L0 
C:\Users\CYMR90~1\AppData\Local\Temp\ccSIna8B.s:2516   .text.rtc_refclock_detection_disable:0000000000000074 .L0 
C:\Users\CYMR90~1\AppData\Local\Temp\ccSIna8B.s:2523   .text.rtc_wakeup_enable:0000000000000000 rtc_wakeup_enable
C:\Users\CYMR90~1\AppData\Local\Temp\ccSIna8B.s:2526   .text.rtc_wakeup_enable:0000000000000000 .L0 
C:\Users\CYMR90~1\AppData\Local\Temp\ccSIna8B.s:2527   .text.rtc_wakeup_enable:0000000000000000 .L0 
C:\Users\CYMR90~1\AppData\Local\Temp\ccSIna8B.s:2528   .text.rtc_wakeup_enable:0000000000000002 .L0 
C:\Users\CYMR90~1\AppData\Local\Temp\ccSIna8B.s:2530   .text.rtc_wakeup_enable:0000000000000004 .L0 
C:\Users\CYMR90~1\AppData\Local\Temp\ccSIna8B.s:2532   .text.rtc_wakeup_enable:0000000000000006 .L0 
C:\Users\CYMR90~1\AppData\Local\Temp\ccSIna8B.s:2534   .text.rtc_wakeup_enable:0000000000000006 .L0 
C:\Users\CYMR90~1\AppData\Local\Temp\ccSIna8B.s:2537   .text.rtc_wakeup_enable:000000000000000e .L0 
C:\Users\CYMR90~1\AppData\Local\Temp\ccSIna8B.s:2540   .text.rtc_wakeup_enable:0000000000000014 .L0 
C:\Users\CYMR90~1\AppData\Local\Temp\ccSIna8B.s:2543   .text.rtc_wakeup_enable:000000000000001c .L0 
C:\Users\CYMR90~1\AppData\Local\Temp\ccSIna8B.s:2546   .text.rtc_wakeup_enable:0000000000000022 .L0 
C:\Users\CYMR90~1\AppData\Local\Temp\ccSIna8B.s:2554   .text.rtc_wakeup_enable:000000000000003a .L0 
C:\Users\CYMR90~1\AppData\Local\Temp\ccSIna8B.s:2557   .text.rtc_wakeup_enable:0000000000000042 .L0 
C:\Users\CYMR90~1\AppData\Local\Temp\ccSIna8B.s:2560   .text.rtc_wakeup_enable:0000000000000048 .L0 
C:\Users\CYMR90~1\AppData\Local\Temp\ccSIna8B.s:2562   .text.rtc_wakeup_enable:000000000000004c .L0 
C:\Users\CYMR90~1\AppData\Local\Temp\ccSIna8B.s:2563   .text.rtc_wakeup_enable:000000000000004c .L0 
C:\Users\CYMR90~1\AppData\Local\Temp\ccSIna8B.s:2565   .text.rtc_wakeup_enable:000000000000004e .L0 
C:\Users\CYMR90~1\AppData\Local\Temp\ccSIna8B.s:2567   .text.rtc_wakeup_enable:0000000000000050 .L0 
C:\Users\CYMR90~1\AppData\Local\Temp\ccSIna8B.s:2574   .text.rtc_wakeup_disable:0000000000000000 rtc_wakeup_disable
C:\Users\CYMR90~1\AppData\Local\Temp\ccSIna8B.s:2577   .text.rtc_wakeup_disable:0000000000000000 .L0 
C:\Users\CYMR90~1\AppData\Local\Temp\ccSIna8B.s:2578   .text.rtc_wakeup_disable:0000000000000000 .L0 
C:\Users\CYMR90~1\AppData\Local\Temp\ccSIna8B.s:2579   .text.rtc_wakeup_disable:0000000000000002 .L0 
C:\Users\CYMR90~1\AppData\Local\Temp\ccSIna8B.s:2581   .text.rtc_wakeup_disable:0000000000000004 .L0 
C:\Users\CYMR90~1\AppData\Local\Temp\ccSIna8B.s:2583   .text.rtc_wakeup_disable:0000000000000006 .L0 
C:\Users\CYMR90~1\AppData\Local\Temp\ccSIna8B.s:2585   .text.rtc_wakeup_disable:0000000000000006 .L0 
C:\Users\CYMR90~1\AppData\Local\Temp\ccSIna8B.s:2587   .text.rtc_wakeup_disable:000000000000000a .L0 
C:\Users\CYMR90~1\AppData\Local\Temp\ccSIna8B.s:2590   .text.rtc_wakeup_disable:0000000000000010 .L0 
C:\Users\CYMR90~1\AppData\Local\Temp\ccSIna8B.s:2592   .text.rtc_wakeup_disable:0000000000000014 .L0 
C:\Users\CYMR90~1\AppData\Local\Temp\ccSIna8B.s:2595   .text.rtc_wakeup_disable:000000000000001c .L0 
C:\Users\CYMR90~1\AppData\Local\Temp\ccSIna8B.s:2598   .text.rtc_wakeup_disable:0000000000000022 .L0 
C:\Users\CYMR90~1\AppData\Local\Temp\ccSIna8B.s:2601   .text.rtc_wakeup_disable:000000000000002a .L0 
C:\Users\CYMR90~1\AppData\Local\Temp\ccSIna8B.s:2604   .text.rtc_wakeup_disable:0000000000000030 .L0 
C:\Users\CYMR90~1\AppData\Local\Temp\ccSIna8B.s:2613   .text.rtc_wakeup_disable:0000000000000048 .L0 
C:\Users\CYMR90~1\AppData\Local\Temp\ccSIna8B.s:2617   .text.rtc_wakeup_disable:0000000000000052 .L0 
C:\Users\CYMR90~1\AppData\Local\Temp\ccSIna8B.s:2620   .text.rtc_wakeup_disable:0000000000000058 .L0 
C:\Users\CYMR90~1\AppData\Local\Temp\ccSIna8B.s:2623   .text.rtc_wakeup_disable:000000000000005e .L0 
C:\Users\CYMR90~1\AppData\Local\Temp\ccSIna8B.s:2626   .text.rtc_wakeup_disable:0000000000000064 .L0 
C:\Users\CYMR90~1\AppData\Local\Temp\ccSIna8B.s:2630   .text.rtc_wakeup_disable:000000000000006a .L0 
C:\Users\CYMR90~1\AppData\Local\Temp\ccSIna8B.s:2633   .text.rtc_wakeup_disable:0000000000000070 .L0 
C:\Users\CYMR90~1\AppData\Local\Temp\ccSIna8B.s:2637   .text.rtc_wakeup_disable:0000000000000076 .L0 
C:\Users\CYMR90~1\AppData\Local\Temp\ccSIna8B.s:2641   .text.rtc_wakeup_disable:000000000000007c .L0 
C:\Users\CYMR90~1\AppData\Local\Temp\ccSIna8B.s:2644   .text.rtc_wakeup_disable:0000000000000084 .L0 
C:\Users\CYMR90~1\AppData\Local\Temp\ccSIna8B.s:2647   .text.rtc_wakeup_disable:000000000000008a .L0 
C:\Users\CYMR90~1\AppData\Local\Temp\ccSIna8B.s:2649   .text.rtc_wakeup_disable:000000000000008e .L0 
C:\Users\CYMR90~1\AppData\Local\Temp\ccSIna8B.s:2651   .text.rtc_wakeup_disable:0000000000000092 .L0 
C:\Users\CYMR90~1\AppData\Local\Temp\ccSIna8B.s:2652   .text.rtc_wakeup_disable:0000000000000092 .L0 
C:\Users\CYMR90~1\AppData\Local\Temp\ccSIna8B.s:2654   .text.rtc_wakeup_disable:0000000000000094 .L0 
C:\Users\CYMR90~1\AppData\Local\Temp\ccSIna8B.s:2656   .text.rtc_wakeup_disable:0000000000000096 .L0 
C:\Users\CYMR90~1\AppData\Local\Temp\ccSIna8B.s:2663   .text.rtc_wakeup_clock_set:0000000000000000 rtc_wakeup_clock_set
C:\Users\CYMR90~1\AppData\Local\Temp\ccSIna8B.s:2666   .text.rtc_wakeup_clock_set:0000000000000000 .L0 
C:\Users\CYMR90~1\AppData\Local\Temp\ccSIna8B.s:2667   .text.rtc_wakeup_clock_set:0000000000000000 .L0 
C:\Users\CYMR90~1\AppData\Local\Temp\ccSIna8B.s:2668   .text.rtc_wakeup_clock_set:0000000000000002 .L0 
C:\Users\CYMR90~1\AppData\Local\Temp\ccSIna8B.s:2670   .text.rtc_wakeup_clock_set:0000000000000004 .L0 
C:\Users\CYMR90~1\AppData\Local\Temp\ccSIna8B.s:2672   .text.rtc_wakeup_clock_set:0000000000000006 .L0 
C:\Users\CYMR90~1\AppData\Local\Temp\ccSIna8B.s:2676   .text.rtc_wakeup_clock_set:000000000000000c .L0 
C:\Users\CYMR90~1\AppData\Local\Temp\ccSIna8B.s:2678   .text.rtc_wakeup_clock_set:0000000000000010 .L0 
C:\Users\CYMR90~1\AppData\Local\Temp\ccSIna8B.s:2681   .text.rtc_wakeup_clock_set:0000000000000016 .L0 
C:\Users\CYMR90~1\AppData\Local\Temp\ccSIna8B.s:2683   .text.rtc_wakeup_clock_set:000000000000001a .L0 
C:\Users\CYMR90~1\AppData\Local\Temp\ccSIna8B.s:2686   .text.rtc_wakeup_clock_set:0000000000000022 .L0 
C:\Users\CYMR90~1\AppData\Local\Temp\ccSIna8B.s:2689   .text.rtc_wakeup_clock_set:0000000000000028 .L0 
C:\Users\CYMR90~1\AppData\Local\Temp\ccSIna8B.s:2692   .text.rtc_wakeup_clock_set:0000000000000030 .L0 
C:\Users\CYMR90~1\AppData\Local\Temp\ccSIna8B.s:2696   .text.rtc_wakeup_clock_set:0000000000000036 .L0 
C:\Users\CYMR90~1\AppData\Local\Temp\ccSIna8B.s:2700   .text.rtc_wakeup_clock_set:0000000000000040 .L0 
C:\Users\CYMR90~1\AppData\Local\Temp\ccSIna8B.s:2703   .text.rtc_wakeup_clock_set:0000000000000046 .L0 
C:\Users\CYMR90~1\AppData\Local\Temp\ccSIna8B.s:2706   .text.rtc_wakeup_clock_set:000000000000004c .L0 
C:\Users\CYMR90~1\AppData\Local\Temp\ccSIna8B.s:2709   .text.rtc_wakeup_clock_set:0000000000000052 .L0 
C:\Users\CYMR90~1\AppData\Local\Temp\ccSIna8B.s:2713   .text.rtc_wakeup_clock_set:0000000000000058 .L0 
C:\Users\CYMR90~1\AppData\Local\Temp\ccSIna8B.s:2716   .text.rtc_wakeup_clock_set:000000000000005e .L0 
C:\Users\CYMR90~1\AppData\Local\Temp\ccSIna8B.s:2720   .text.rtc_wakeup_clock_set:0000000000000064 .L0 
C:\Users\CYMR90~1\AppData\Local\Temp\ccSIna8B.s:2728   .text.rtc_wakeup_clock_set:000000000000007a .L0 
C:\Users\CYMR90~1\AppData\Local\Temp\ccSIna8B.s:2732   .text.rtc_wakeup_clock_set:0000000000000084 .L0 
C:\Users\CYMR90~1\AppData\Local\Temp\ccSIna8B.s:2734   .text.rtc_wakeup_clock_set:0000000000000088 .L0 
C:\Users\CYMR90~1\AppData\Local\Temp\ccSIna8B.s:2739   .text.rtc_wakeup_clock_set:0000000000000094 .L0 
C:\Users\CYMR90~1\AppData\Local\Temp\ccSIna8B.s:2743   .text.rtc_wakeup_clock_set:000000000000009a .L0 
C:\Users\CYMR90~1\AppData\Local\Temp\ccSIna8B.s:2746   .text.rtc_wakeup_clock_set:00000000000000a2 .L0 
C:\Users\CYMR90~1\AppData\Local\Temp\ccSIna8B.s:2749   .text.rtc_wakeup_clock_set:00000000000000a8 .L0 
C:\Users\CYMR90~1\AppData\Local\Temp\ccSIna8B.s:2751   .text.rtc_wakeup_clock_set:00000000000000ac .L0 
C:\Users\CYMR90~1\AppData\Local\Temp\ccSIna8B.s:2753   .text.rtc_wakeup_clock_set:00000000000000b0 .L0 
C:\Users\CYMR90~1\AppData\Local\Temp\ccSIna8B.s:2754   .text.rtc_wakeup_clock_set:00000000000000b0 .L0 
C:\Users\CYMR90~1\AppData\Local\Temp\ccSIna8B.s:2756   .text.rtc_wakeup_clock_set:00000000000000b2 .L0 
C:\Users\CYMR90~1\AppData\Local\Temp\ccSIna8B.s:2758   .text.rtc_wakeup_clock_set:00000000000000b4 .L0 
C:\Users\CYMR90~1\AppData\Local\Temp\ccSIna8B.s:2765   .text.rtc_wakeup_timer_set:0000000000000000 rtc_wakeup_timer_set
C:\Users\CYMR90~1\AppData\Local\Temp\ccSIna8B.s:2768   .text.rtc_wakeup_timer_set:0000000000000000 .L0 
C:\Users\CYMR90~1\AppData\Local\Temp\ccSIna8B.s:2769   .text.rtc_wakeup_timer_set:0000000000000000 .L0 
C:\Users\CYMR90~1\AppData\Local\Temp\ccSIna8B.s:2770   .text.rtc_wakeup_timer_set:0000000000000002 .L0 
C:\Users\CYMR90~1\AppData\Local\Temp\ccSIna8B.s:2772   .text.rtc_wakeup_timer_set:0000000000000004 .L0 
C:\Users\CYMR90~1\AppData\Local\Temp\ccSIna8B.s:2774   .text.rtc_wakeup_timer_set:0000000000000006 .L0 
C:\Users\CYMR90~1\AppData\Local\Temp\ccSIna8B.s:2778   .text.rtc_wakeup_timer_set:000000000000000c .L0 
C:\Users\CYMR90~1\AppData\Local\Temp\ccSIna8B.s:2780   .text.rtc_wakeup_timer_set:0000000000000010 .L0 
C:\Users\CYMR90~1\AppData\Local\Temp\ccSIna8B.s:2783   .text.rtc_wakeup_timer_set:0000000000000016 .L0 
C:\Users\CYMR90~1\AppData\Local\Temp\ccSIna8B.s:2785   .text.rtc_wakeup_timer_set:000000000000001a .L0 
C:\Users\CYMR90~1\AppData\Local\Temp\ccSIna8B.s:2788   .text.rtc_wakeup_timer_set:0000000000000022 .L0 
C:\Users\CYMR90~1\AppData\Local\Temp\ccSIna8B.s:2791   .text.rtc_wakeup_timer_set:0000000000000028 .L0 
C:\Users\CYMR90~1\AppData\Local\Temp\ccSIna8B.s:2794   .text.rtc_wakeup_timer_set:0000000000000030 .L0 
C:\Users\CYMR90~1\AppData\Local\Temp\ccSIna8B.s:2798   .text.rtc_wakeup_timer_set:0000000000000036 .L0 
C:\Users\CYMR90~1\AppData\Local\Temp\ccSIna8B.s:2802   .text.rtc_wakeup_timer_set:0000000000000040 .L0 
C:\Users\CYMR90~1\AppData\Local\Temp\ccSIna8B.s:2805   .text.rtc_wakeup_timer_set:0000000000000046 .L0 
C:\Users\CYMR90~1\AppData\Local\Temp\ccSIna8B.s:2808   .text.rtc_wakeup_timer_set:000000000000004c .L0 
C:\Users\CYMR90~1\AppData\Local\Temp\ccSIna8B.s:2811   .text.rtc_wakeup_timer_set:0000000000000052 .L0 
C:\Users\CYMR90~1\AppData\Local\Temp\ccSIna8B.s:2815   .text.rtc_wakeup_timer_set:0000000000000058 .L0 
C:\Users\CYMR90~1\AppData\Local\Temp\ccSIna8B.s:2818   .text.rtc_wakeup_timer_set:000000000000005e .L0 
C:\Users\CYMR90~1\AppData\Local\Temp\ccSIna8B.s:2822   .text.rtc_wakeup_timer_set:0000000000000064 .L0 
C:\Users\CYMR90~1\AppData\Local\Temp\ccSIna8B.s:2825   .text.rtc_wakeup_timer_set:000000000000006c .L0 
C:\Users\CYMR90~1\AppData\Local\Temp\ccSIna8B.s:2827   .text.rtc_wakeup_timer_set:0000000000000070 .L0 
C:\Users\CYMR90~1\AppData\Local\Temp\ccSIna8B.s:2829   .text.rtc_wakeup_timer_set:0000000000000072 .L0 
C:\Users\CYMR90~1\AppData\Local\Temp\ccSIna8B.s:2833   .text.rtc_wakeup_timer_set:0000000000000078 .L0 
C:\Users\CYMR90~1\AppData\Local\Temp\ccSIna8B.s:2836   .text.rtc_wakeup_timer_set:0000000000000080 .L0 
C:\Users\CYMR90~1\AppData\Local\Temp\ccSIna8B.s:2839   .text.rtc_wakeup_timer_set:0000000000000086 .L0 
C:\Users\CYMR90~1\AppData\Local\Temp\ccSIna8B.s:2841   .text.rtc_wakeup_timer_set:000000000000008a .L0 
C:\Users\CYMR90~1\AppData\Local\Temp\ccSIna8B.s:2843   .text.rtc_wakeup_timer_set:000000000000008e .L0 
C:\Users\CYMR90~1\AppData\Local\Temp\ccSIna8B.s:2844   .text.rtc_wakeup_timer_set:000000000000008e .L0 
C:\Users\CYMR90~1\AppData\Local\Temp\ccSIna8B.s:2846   .text.rtc_wakeup_timer_set:0000000000000090 .L0 
C:\Users\CYMR90~1\AppData\Local\Temp\ccSIna8B.s:2848   .text.rtc_wakeup_timer_set:0000000000000092 .L0 
C:\Users\CYMR90~1\AppData\Local\Temp\ccSIna8B.s:2855   .text.rtc_wakeup_timer_get:0000000000000000 rtc_wakeup_timer_get
C:\Users\CYMR90~1\AppData\Local\Temp\ccSIna8B.s:2858   .text.rtc_wakeup_timer_get:0000000000000000 .L0 
C:\Users\CYMR90~1\AppData\Local\Temp\ccSIna8B.s:2859   .text.rtc_wakeup_timer_get:0000000000000000 .L0 
C:\Users\CYMR90~1\AppData\Local\Temp\ccSIna8B.s:2860   .text.rtc_wakeup_timer_get:0000000000000002 .L0 
C:\Users\CYMR90~1\AppData\Local\Temp\ccSIna8B.s:2862   .text.rtc_wakeup_timer_get:0000000000000004 .L0 
C:\Users\CYMR90~1\AppData\Local\Temp\ccSIna8B.s:2864   .text.rtc_wakeup_timer_get:0000000000000006 .L0 
C:\Users\CYMR90~1\AppData\Local\Temp\ccSIna8B.s:2866   .text.rtc_wakeup_timer_get:0000000000000006 .L0 
C:\Users\CYMR90~1\AppData\Local\Temp\ccSIna8B.s:2870   .text.rtc_wakeup_timer_get:0000000000000010 .L0 
C:\Users\CYMR90~1\AppData\Local\Temp\ccSIna8B.s:2873   .text.rtc_wakeup_timer_get:0000000000000014 .L0 
C:\Users\CYMR90~1\AppData\Local\Temp\ccSIna8B.s:2875   .text.rtc_wakeup_timer_get:0000000000000018 .L0 
C:\Users\CYMR90~1\AppData\Local\Temp\ccSIna8B.s:2876   .text.rtc_wakeup_timer_get:0000000000000018 .L0 
C:\Users\CYMR90~1\AppData\Local\Temp\ccSIna8B.s:2878   .text.rtc_wakeup_timer_get:000000000000001a .L0 
C:\Users\CYMR90~1\AppData\Local\Temp\ccSIna8B.s:2880   .text.rtc_wakeup_timer_get:000000000000001c .L0 
C:\Users\CYMR90~1\AppData\Local\Temp\ccSIna8B.s:2887   .text.rtc_smooth_calibration_config:0000000000000000 rtc_smooth_calibration_config
C:\Users\CYMR90~1\AppData\Local\Temp\ccSIna8B.s:2890   .text.rtc_smooth_calibration_config:0000000000000000 .L0 
C:\Users\CYMR90~1\AppData\Local\Temp\ccSIna8B.s:2891   .text.rtc_smooth_calibration_config:0000000000000000 .L0 
C:\Users\CYMR90~1\AppData\Local\Temp\ccSIna8B.s:2892   .text.rtc_smooth_calibration_config:0000000000000002 .L0 
C:\Users\CYMR90~1\AppData\Local\Temp\ccSIna8B.s:2894   .text.rtc_smooth_calibration_config:0000000000000004 .L0 
C:\Users\CYMR90~1\AppData\Local\Temp\ccSIna8B.s:2896   .text.rtc_smooth_calibration_config:0000000000000006 .L0 
C:\Users\CYMR90~1\AppData\Local\Temp\ccSIna8B.s:2901   .text.rtc_smooth_calibration_config:0000000000000012 .L0 
C:\Users\CYMR90~1\AppData\Local\Temp\ccSIna8B.s:2904   .text.rtc_smooth_calibration_config:000000000000001a .L0 
C:\Users\CYMR90~1\AppData\Local\Temp\ccSIna8B.s:2906   .text.rtc_smooth_calibration_config:000000000000001e .L0 
C:\Users\CYMR90~1\AppData\Local\Temp\ccSIna8B.s:2908   .text.rtc_smooth_calibration_config:0000000000000022 .L0 
C:\Users\CYMR90~1\AppData\Local\Temp\ccSIna8B.s:2911   .text.rtc_smooth_calibration_config:000000000000002a .L0 
C:\Users\CYMR90~1\AppData\Local\Temp\ccSIna8B.s:2914   .text.rtc_smooth_calibration_config:0000000000000030 .L0 
C:\Users\CYMR90~1\AppData\Local\Temp\ccSIna8B.s:2917   .text.rtc_smooth_calibration_config:0000000000000038 .L0 
C:\Users\CYMR90~1\AppData\Local\Temp\ccSIna8B.s:2921   .text.rtc_smooth_calibration_config:000000000000003e .L0 
C:\Users\CYMR90~1\AppData\Local\Temp\ccSIna8B.s:2925   .text.rtc_smooth_calibration_config:0000000000000048 .L0 
C:\Users\CYMR90~1\AppData\Local\Temp\ccSIna8B.s:2929   .text.rtc_smooth_calibration_config:0000000000000050 .L0 
C:\Users\CYMR90~1\AppData\Local\Temp\ccSIna8B.s:2932   .text.rtc_smooth_calibration_config:0000000000000056 .L0 
C:\Users\CYMR90~1\AppData\Local\Temp\ccSIna8B.s:2935   .text.rtc_smooth_calibration_config:000000000000005c .L0 
C:\Users\CYMR90~1\AppData\Local\Temp\ccSIna8B.s:2939   .text.rtc_smooth_calibration_config:0000000000000062 .L0 
C:\Users\CYMR90~1\AppData\Local\Temp\ccSIna8B.s:2942   .text.rtc_smooth_calibration_config:0000000000000068 .L0 
C:\Users\CYMR90~1\AppData\Local\Temp\ccSIna8B.s:2946   .text.rtc_smooth_calibration_config:0000000000000074 .L0 
C:\Users\CYMR90~1\AppData\Local\Temp\ccSIna8B.s:2949   .text.rtc_smooth_calibration_config:000000000000007c .L0 
C:\Users\CYMR90~1\AppData\Local\Temp\ccSIna8B.s:2952   .text.rtc_smooth_calibration_config:0000000000000084 .L0 
C:\Users\CYMR90~1\AppData\Local\Temp\ccSIna8B.s:2954   .text.rtc_smooth_calibration_config:0000000000000086 .L0 
C:\Users\CYMR90~1\AppData\Local\Temp\ccSIna8B.s:2956   .text.rtc_smooth_calibration_config:0000000000000088 .L0 
C:\Users\CYMR90~1\AppData\Local\Temp\ccSIna8B.s:2960   .text.rtc_smooth_calibration_config:000000000000008e .L0 
C:\Users\CYMR90~1\AppData\Local\Temp\ccSIna8B.s:2963   .text.rtc_smooth_calibration_config:0000000000000096 .L0 
C:\Users\CYMR90~1\AppData\Local\Temp\ccSIna8B.s:2966   .text.rtc_smooth_calibration_config:000000000000009c .L0 
C:\Users\CYMR90~1\AppData\Local\Temp\ccSIna8B.s:2968   .text.rtc_smooth_calibration_config:00000000000000a0 .L0 
C:\Users\CYMR90~1\AppData\Local\Temp\ccSIna8B.s:2970   .text.rtc_smooth_calibration_config:00000000000000a4 .L0 
C:\Users\CYMR90~1\AppData\Local\Temp\ccSIna8B.s:2971   .text.rtc_smooth_calibration_config:00000000000000a4 .L0 
C:\Users\CYMR90~1\AppData\Local\Temp\ccSIna8B.s:2973   .text.rtc_smooth_calibration_config:00000000000000a6 .L0 
C:\Users\CYMR90~1\AppData\Local\Temp\ccSIna8B.s:2975   .text.rtc_smooth_calibration_config:00000000000000a8 .L0 
C:\Users\CYMR90~1\AppData\Local\Temp\ccSIna8B.s:2982   .text.rtc_coarse_calibration_enable:0000000000000000 rtc_coarse_calibration_enable
C:\Users\CYMR90~1\AppData\Local\Temp\ccSIna8B.s:2985   .text.rtc_coarse_calibration_enable:0000000000000000 .L0 
C:\Users\CYMR90~1\AppData\Local\Temp\ccSIna8B.s:2986   .text.rtc_coarse_calibration_enable:0000000000000000 .L0 
C:\Users\CYMR90~1\AppData\Local\Temp\ccSIna8B.s:2987   .text.rtc_coarse_calibration_enable:0000000000000002 .L0 
C:\Users\CYMR90~1\AppData\Local\Temp\ccSIna8B.s:2990   .text.rtc_coarse_calibration_enable:0000000000000006 .L0 
C:\Users\CYMR90~1\AppData\Local\Temp\ccSIna8B.s:2991   .text.rtc_coarse_calibration_enable:0000000000000006 .L0 
C:\Users\CYMR90~1\AppData\Local\Temp\ccSIna8B.s:2993   .text.rtc_coarse_calibration_enable:0000000000000008 .L0 
C:\Users\CYMR90~1\AppData\Local\Temp\ccSIna8B.s:2995   .text.rtc_coarse_calibration_enable:0000000000000008 .L0 
C:\Users\CYMR90~1\AppData\Local\Temp\ccSIna8B.s:2997   .text.rtc_coarse_calibration_enable:000000000000000c .L0 
C:\Users\CYMR90~1\AppData\Local\Temp\ccSIna8B.s:3000   .text.rtc_coarse_calibration_enable:0000000000000014 .L0 
C:\Users\CYMR90~1\AppData\Local\Temp\ccSIna8B.s:3003   .text.rtc_coarse_calibration_enable:000000000000001a .L0 
C:\Users\CYMR90~1\AppData\Local\Temp\ccSIna8B.s:3006   .text.rtc_coarse_calibration_enable:0000000000000022 .L0 
C:\Users\CYMR90~1\AppData\Local\Temp\ccSIna8B.s:3009   .text.rtc_coarse_calibration_enable:0000000000000028 .L0 
C:\Users\CYMR90~1\AppData\Local\Temp\ccSIna8B.s:3012   .text.rtc_coarse_calibration_enable:0000000000000034 .L0 
C:\Users\CYMR90~1\AppData\Local\Temp\ccSIna8B.s:3015   .text.rtc_coarse_calibration_enable:000000000000003a .L0 
C:\Users\CYMR90~1\AppData\Local\Temp\ccSIna8B.s:3023   .text.rtc_coarse_calibration_enable:0000000000000052 .L0 
C:\Users\CYMR90~1\AppData\Local\Temp\ccSIna8B.s:3026   .text.rtc_coarse_calibration_enable:000000000000005a .L0 
C:\Users\CYMR90~1\AppData\Local\Temp\ccSIna8B.s:3029   .text.rtc_coarse_calibration_enable:0000000000000062 .L0 
C:\Users\CYMR90~1\AppData\Local\Temp\ccSIna8B.s:3032   .text.rtc_coarse_calibration_enable:0000000000000068 .L0 
C:\Users\CYMR90~1\AppData\Local\Temp\ccSIna8B.s:3034   .text.rtc_coarse_calibration_enable:000000000000006c .L0 
C:\Users\CYMR90~1\AppData\Local\Temp\ccSIna8B.s:3036   .text.rtc_coarse_calibration_enable:0000000000000070 .L0 
C:\Users\CYMR90~1\AppData\Local\Temp\ccSIna8B.s:3038   .text.rtc_coarse_calibration_enable:0000000000000072 .L0 
C:\Users\CYMR90~1\AppData\Local\Temp\ccSIna8B.s:3039   .text.rtc_coarse_calibration_enable:0000000000000072 .L0 
C:\Users\CYMR90~1\AppData\Local\Temp\ccSIna8B.s:3041   .text.rtc_coarse_calibration_enable:0000000000000074 .L0 
C:\Users\CYMR90~1\AppData\Local\Temp\ccSIna8B.s:3043   .text.rtc_coarse_calibration_enable:0000000000000076 .L0 
C:\Users\CYMR90~1\AppData\Local\Temp\ccSIna8B.s:3050   .text.rtc_coarse_calibration_disable:0000000000000000 rtc_coarse_calibration_disable
C:\Users\CYMR90~1\AppData\Local\Temp\ccSIna8B.s:3053   .text.rtc_coarse_calibration_disable:0000000000000000 .L0 
C:\Users\CYMR90~1\AppData\Local\Temp\ccSIna8B.s:3054   .text.rtc_coarse_calibration_disable:0000000000000000 .L0 
C:\Users\CYMR90~1\AppData\Local\Temp\ccSIna8B.s:3055   .text.rtc_coarse_calibration_disable:0000000000000002 .L0 
C:\Users\CYMR90~1\AppData\Local\Temp\ccSIna8B.s:3058   .text.rtc_coarse_calibration_disable:0000000000000006 .L0 
C:\Users\CYMR90~1\AppData\Local\Temp\ccSIna8B.s:3059   .text.rtc_coarse_calibration_disable:0000000000000006 .L0 
C:\Users\CYMR90~1\AppData\Local\Temp\ccSIna8B.s:3061   .text.rtc_coarse_calibration_disable:0000000000000008 .L0 
C:\Users\CYMR90~1\AppData\Local\Temp\ccSIna8B.s:3063   .text.rtc_coarse_calibration_disable:0000000000000008 .L0 
C:\Users\CYMR90~1\AppData\Local\Temp\ccSIna8B.s:3065   .text.rtc_coarse_calibration_disable:000000000000000c .L0 
C:\Users\CYMR90~1\AppData\Local\Temp\ccSIna8B.s:3068   .text.rtc_coarse_calibration_disable:0000000000000014 .L0 
C:\Users\CYMR90~1\AppData\Local\Temp\ccSIna8B.s:3071   .text.rtc_coarse_calibration_disable:000000000000001a .L0 
C:\Users\CYMR90~1\AppData\Local\Temp\ccSIna8B.s:3074   .text.rtc_coarse_calibration_disable:0000000000000022 .L0 
C:\Users\CYMR90~1\AppData\Local\Temp\ccSIna8B.s:3077   .text.rtc_coarse_calibration_disable:0000000000000028 .L0 
C:\Users\CYMR90~1\AppData\Local\Temp\ccSIna8B.s:3080   .text.rtc_coarse_calibration_disable:0000000000000034 .L0 
C:\Users\CYMR90~1\AppData\Local\Temp\ccSIna8B.s:3083   .text.rtc_coarse_calibration_disable:000000000000003a .L0 
C:\Users\CYMR90~1\AppData\Local\Temp\ccSIna8B.s:3091   .text.rtc_coarse_calibration_disable:0000000000000052 .L0 
C:\Users\CYMR90~1\AppData\Local\Temp\ccSIna8B.s:3094   .text.rtc_coarse_calibration_disable:000000000000005a .L0 
C:\Users\CYMR90~1\AppData\Local\Temp\ccSIna8B.s:3097   .text.rtc_coarse_calibration_disable:0000000000000062 .L0 
C:\Users\CYMR90~1\AppData\Local\Temp\ccSIna8B.s:3100   .text.rtc_coarse_calibration_disable:0000000000000068 .L0 
C:\Users\CYMR90~1\AppData\Local\Temp\ccSIna8B.s:3102   .text.rtc_coarse_calibration_disable:000000000000006c .L0 
C:\Users\CYMR90~1\AppData\Local\Temp\ccSIna8B.s:3104   .text.rtc_coarse_calibration_disable:0000000000000070 .L0 
C:\Users\CYMR90~1\AppData\Local\Temp\ccSIna8B.s:3106   .text.rtc_coarse_calibration_disable:0000000000000072 .L0 
C:\Users\CYMR90~1\AppData\Local\Temp\ccSIna8B.s:3107   .text.rtc_coarse_calibration_disable:0000000000000072 .L0 
C:\Users\CYMR90~1\AppData\Local\Temp\ccSIna8B.s:3109   .text.rtc_coarse_calibration_disable:0000000000000074 .L0 
C:\Users\CYMR90~1\AppData\Local\Temp\ccSIna8B.s:3111   .text.rtc_coarse_calibration_disable:0000000000000076 .L0 
C:\Users\CYMR90~1\AppData\Local\Temp\ccSIna8B.s:3118   .text.rtc_coarse_calibration_config:0000000000000000 rtc_coarse_calibration_config
C:\Users\CYMR90~1\AppData\Local\Temp\ccSIna8B.s:3121   .text.rtc_coarse_calibration_config:0000000000000000 .L0 
C:\Users\CYMR90~1\AppData\Local\Temp\ccSIna8B.s:3122   .text.rtc_coarse_calibration_config:0000000000000000 .L0 
C:\Users\CYMR90~1\AppData\Local\Temp\ccSIna8B.s:3123   .text.rtc_coarse_calibration_config:0000000000000002 .L0 
C:\Users\CYMR90~1\AppData\Local\Temp\ccSIna8B.s:3126   .text.rtc_coarse_calibration_config:0000000000000006 .L0 
C:\Users\CYMR90~1\AppData\Local\Temp\ccSIna8B.s:3127   .text.rtc_coarse_calibration_config:0000000000000006 .L0 
C:\Users\CYMR90~1\AppData\Local\Temp\ccSIna8B.s:3129   .text.rtc_coarse_calibration_config:0000000000000008 .L0 
C:\Users\CYMR90~1\AppData\Local\Temp\ccSIna8B.s:3136   .text.rtc_coarse_calibration_config:0000000000000016 .L0 
C:\Users\CYMR90~1\AppData\Local\Temp\ccSIna8B.s:3138   .text.rtc_coarse_calibration_config:000000000000001a .L0 
C:\Users\CYMR90~1\AppData\Local\Temp\ccSIna8B.s:3141   .text.rtc_coarse_calibration_config:0000000000000022 .L0 
C:\Users\CYMR90~1\AppData\Local\Temp\ccSIna8B.s:3144   .text.rtc_coarse_calibration_config:0000000000000028 .L0 
C:\Users\CYMR90~1\AppData\Local\Temp\ccSIna8B.s:3147   .text.rtc_coarse_calibration_config:0000000000000030 .L0 
C:\Users\CYMR90~1\AppData\Local\Temp\ccSIna8B.s:3150   .text.rtc_coarse_calibration_config:0000000000000036 .L0 
C:\Users\CYMR90~1\AppData\Local\Temp\ccSIna8B.s:3153   .text.rtc_coarse_calibration_config:0000000000000042 .L0 
C:\Users\CYMR90~1\AppData\Local\Temp\ccSIna8B.s:3156   .text.rtc_coarse_calibration_config:0000000000000048 .L0 
C:\Users\CYMR90~1\AppData\Local\Temp\ccSIna8B.s:3160   .text.rtc_coarse_calibration_config:0000000000000052 .L0 
C:\Users\CYMR90~1\AppData\Local\Temp\ccSIna8B.s:3170   .text.rtc_coarse_calibration_config:000000000000006c .L0 
C:\Users\CYMR90~1\AppData\Local\Temp\ccSIna8B.s:3179   .text.rtc_coarse_calibration_config:0000000000000084 .L0 
C:\Users\CYMR90~1\AppData\Local\Temp\ccSIna8B.s:3187   .text.rtc_coarse_calibration_config:000000000000009a .L0 
C:\Users\CYMR90~1\AppData\Local\Temp\ccSIna8B.s:3191   .text.rtc_coarse_calibration_config:00000000000000a4 .L0 
C:\Users\CYMR90~1\AppData\Local\Temp\ccSIna8B.s:3194   .text.rtc_coarse_calibration_config:00000000000000ac .L0 
C:\Users\CYMR90~1\AppData\Local\Temp\ccSIna8B.s:3199   .text.rtc_coarse_calibration_config:00000000000000b8 .L0 
C:\Users\CYMR90~1\AppData\Local\Temp\ccSIna8B.s:3202   .text.rtc_coarse_calibration_config:00000000000000c0 .L0 
C:\Users\CYMR90~1\AppData\Local\Temp\ccSIna8B.s:3205   .text.rtc_coarse_calibration_config:00000000000000c8 .L0 
C:\Users\CYMR90~1\AppData\Local\Temp\ccSIna8B.s:3208   .text.rtc_coarse_calibration_config:00000000000000ce .L0 
C:\Users\CYMR90~1\AppData\Local\Temp\ccSIna8B.s:3210   .text.rtc_coarse_calibration_config:00000000000000d2 .L0 
C:\Users\CYMR90~1\AppData\Local\Temp\ccSIna8B.s:3212   .text.rtc_coarse_calibration_config:00000000000000d6 .L0 
C:\Users\CYMR90~1\AppData\Local\Temp\ccSIna8B.s:3214   .text.rtc_coarse_calibration_config:00000000000000d8 .L0 
C:\Users\CYMR90~1\AppData\Local\Temp\ccSIna8B.s:3215   .text.rtc_coarse_calibration_config:00000000000000d8 .L0 
C:\Users\CYMR90~1\AppData\Local\Temp\ccSIna8B.s:3217   .text.rtc_coarse_calibration_config:00000000000000da .L0 
C:\Users\CYMR90~1\AppData\Local\Temp\ccSIna8B.s:3219   .text.rtc_coarse_calibration_config:00000000000000dc .L0 
C:\Users\CYMR90~1\AppData\Local\Temp\ccSIna8B.s:3226   .text.rtc_flag_get:0000000000000000 rtc_flag_get
C:\Users\CYMR90~1\AppData\Local\Temp\ccSIna8B.s:3229   .text.rtc_flag_get:0000000000000000 .L0 
C:\Users\CYMR90~1\AppData\Local\Temp\ccSIna8B.s:3230   .text.rtc_flag_get:0000000000000000 .L0 
C:\Users\CYMR90~1\AppData\Local\Temp\ccSIna8B.s:3231   .text.rtc_flag_get:0000000000000002 .L0 
C:\Users\CYMR90~1\AppData\Local\Temp\ccSIna8B.s:3233   .text.rtc_flag_get:0000000000000004 .L0 
C:\Users\CYMR90~1\AppData\Local\Temp\ccSIna8B.s:3235   .text.rtc_flag_get:0000000000000006 .L0 
C:\Users\CYMR90~1\AppData\Local\Temp\ccSIna8B.s:3238   .text.rtc_flag_get:000000000000000a .L0 
C:\Users\CYMR90~1\AppData\Local\Temp\ccSIna8B.s:3240   .text.rtc_flag_get:000000000000000e .L0 
C:\Users\CYMR90~1\AppData\Local\Temp\ccSIna8B.s:3244   .text.rtc_flag_get:0000000000000018 .L0 
C:\Users\CYMR90~1\AppData\Local\Temp\ccSIna8B.s:3247   .text.rtc_flag_get:000000000000001e .L0 
C:\Users\CYMR90~1\AppData\Local\Temp\ccSIna8B.s:3249   .text.rtc_flag_get:0000000000000020 .L0 
C:\Users\CYMR90~1\AppData\Local\Temp\ccSIna8B.s:3253   .text.rtc_flag_get:0000000000000026 .L0 
C:\Users\CYMR90~1\AppData\Local\Temp\ccSIna8B.s:3255   .text.rtc_flag_get:000000000000002a .L0 
C:\Users\CYMR90~1\AppData\Local\Temp\ccSIna8B.s:3257   .text.rtc_flag_get:000000000000002e .L0 
C:\Users\CYMR90~1\AppData\Local\Temp\ccSIna8B.s:3258   .text.rtc_flag_get:000000000000002e .L0 
C:\Users\CYMR90~1\AppData\Local\Temp\ccSIna8B.s:3260   .text.rtc_flag_get:0000000000000030 .L0 
C:\Users\CYMR90~1\AppData\Local\Temp\ccSIna8B.s:3262   .text.rtc_flag_get:0000000000000032 .L0 
C:\Users\CYMR90~1\AppData\Local\Temp\ccSIna8B.s:3269   .text.rtc_flag_clear:0000000000000000 rtc_flag_clear
C:\Users\CYMR90~1\AppData\Local\Temp\ccSIna8B.s:3272   .text.rtc_flag_clear:0000000000000000 .L0 
C:\Users\CYMR90~1\AppData\Local\Temp\ccSIna8B.s:3273   .text.rtc_flag_clear:0000000000000000 .L0 
C:\Users\CYMR90~1\AppData\Local\Temp\ccSIna8B.s:3274   .text.rtc_flag_clear:0000000000000002 .L0 
C:\Users\CYMR90~1\AppData\Local\Temp\ccSIna8B.s:3276   .text.rtc_flag_clear:0000000000000004 .L0 
C:\Users\CYMR90~1\AppData\Local\Temp\ccSIna8B.s:3278   .text.rtc_flag_clear:0000000000000006 .L0 
C:\Users\CYMR90~1\AppData\Local\Temp\ccSIna8B.s:3281   .text.rtc_flag_clear:000000000000000a .L0 
C:\Users\CYMR90~1\AppData\Local\Temp\ccSIna8B.s:3284   .text.rtc_flag_clear:0000000000000012 .L0 
C:\Users\CYMR90~1\AppData\Local\Temp\ccSIna8B.s:3287   .text.rtc_flag_clear:0000000000000018 .L0 
C:\Users\CYMR90~1\AppData\Local\Temp\ccSIna8B.s:3290   .text.rtc_flag_clear:0000000000000020 .L0 
C:\Users\CYMR90~1\AppData\Local\Temp\ccSIna8B.s:3293   .text.rtc_flag_clear:0000000000000026 .L0 
C:\Users\CYMR90~1\AppData\Local\Temp\ccSIna8B.s:3297   .text.rtc_flag_clear:0000000000000030 .L0 
C:\Users\CYMR90~1\AppData\Local\Temp\ccSIna8B.s:3300   .text.rtc_flag_clear:0000000000000038 .L0 
C:\Users\CYMR90~1\AppData\Local\Temp\ccSIna8B.s:3305   .text.rtc_flag_clear:0000000000000044 .L0 
C:\Users\CYMR90~1\AppData\Local\Temp\ccSIna8B.s:3308   .text.rtc_flag_clear:000000000000004c .L0 
C:\Users\CYMR90~1\AppData\Local\Temp\ccSIna8B.s:3311   .text.rtc_flag_clear:0000000000000052 .L0 
C:\Users\CYMR90~1\AppData\Local\Temp\ccSIna8B.s:3313   .text.rtc_flag_clear:0000000000000056 .L0 
C:\Users\CYMR90~1\AppData\Local\Temp\ccSIna8B.s:3314   .text.rtc_flag_clear:0000000000000056 .L0 
C:\Users\CYMR90~1\AppData\Local\Temp\ccSIna8B.s:3316   .text.rtc_flag_clear:0000000000000058 .L0 
C:\Users\CYMR90~1\AppData\Local\Temp\ccSIna8B.s:3318   .text.rtc_flag_clear:000000000000005a .L0 
C:\Users\CYMR90~1\AppData\Local\Temp\ccSIna8B.s:3325   .text.rtc_interrupt_enable:0000000000000000 rtc_interrupt_enable
C:\Users\CYMR90~1\AppData\Local\Temp\ccSIna8B.s:3328   .text.rtc_interrupt_enable:0000000000000000 .L0 
C:\Users\CYMR90~1\AppData\Local\Temp\ccSIna8B.s:3329   .text.rtc_interrupt_enable:0000000000000000 .L0 
C:\Users\CYMR90~1\AppData\Local\Temp\ccSIna8B.s:3330   .text.rtc_interrupt_enable:0000000000000002 .L0 
C:\Users\CYMR90~1\AppData\Local\Temp\ccSIna8B.s:3332   .text.rtc_interrupt_enable:0000000000000004 .L0 
C:\Users\CYMR90~1\AppData\Local\Temp\ccSIna8B.s:3334   .text.rtc_interrupt_enable:0000000000000006 .L0 
C:\Users\CYMR90~1\AppData\Local\Temp\ccSIna8B.s:3337   .text.rtc_interrupt_enable:000000000000000a .L0 
C:\Users\CYMR90~1\AppData\Local\Temp\ccSIna8B.s:3341   .text.rtc_interrupt_enable:0000000000000014 .L0 
C:\Users\CYMR90~1\AppData\Local\Temp\ccSIna8B.s:3350   .text.rtc_interrupt_enable:000000000000002e .L0 
C:\Users\CYMR90~1\AppData\Local\Temp\ccSIna8B.s:3353   .text.rtc_interrupt_enable:0000000000000030 .L0 
C:\Users\CYMR90~1\AppData\Local\Temp\ccSIna8B.s:3356   .text.rtc_interrupt_enable:0000000000000038 .L0 
C:\Users\CYMR90~1\AppData\Local\Temp\ccSIna8B.s:3359   .text.rtc_interrupt_enable:000000000000003e .L0 
C:\Users\CYMR90~1\AppData\Local\Temp\ccSIna8B.s:3362   .text.rtc_interrupt_enable:0000000000000046 .L0 
C:\Users\CYMR90~1\AppData\Local\Temp\ccSIna8B.s:3365   .text.rtc_interrupt_enable:000000000000004c .L0 
C:\Users\CYMR90~1\AppData\Local\Temp\ccSIna8B.s:3374   .text.rtc_interrupt_enable:0000000000000066 .L0 
C:\Users\CYMR90~1\AppData\Local\Temp\ccSIna8B.s:3377   .text.rtc_interrupt_enable:000000000000006e .L0 
C:\Users\CYMR90~1\AppData\Local\Temp\ccSIna8B.s:3381   .text.rtc_interrupt_enable:0000000000000074 .L0 
C:\Users\CYMR90~1\AppData\Local\Temp\ccSIna8B.s:3383   .text.rtc_interrupt_enable:0000000000000078 .L0 
C:\Users\CYMR90~1\AppData\Local\Temp\ccSIna8B.s:3384   .text.rtc_interrupt_enable:0000000000000078 .L0 
C:\Users\CYMR90~1\AppData\Local\Temp\ccSIna8B.s:3386   .text.rtc_interrupt_enable:000000000000007a .L0 
C:\Users\CYMR90~1\AppData\Local\Temp\ccSIna8B.s:3388   .text.rtc_interrupt_enable:000000000000007c .L0 
C:\Users\CYMR90~1\AppData\Local\Temp\ccSIna8B.s:3395   .text.rtc_interrupt_disable:0000000000000000 rtc_interrupt_disable
C:\Users\CYMR90~1\AppData\Local\Temp\ccSIna8B.s:3398   .text.rtc_interrupt_disable:0000000000000000 .L0 
C:\Users\CYMR90~1\AppData\Local\Temp\ccSIna8B.s:3399   .text.rtc_interrupt_disable:0000000000000000 .L0 
C:\Users\CYMR90~1\AppData\Local\Temp\ccSIna8B.s:3400   .text.rtc_interrupt_disable:0000000000000002 .L0 
C:\Users\CYMR90~1\AppData\Local\Temp\ccSIna8B.s:3402   .text.rtc_interrupt_disable:0000000000000004 .L0 
C:\Users\CYMR90~1\AppData\Local\Temp\ccSIna8B.s:3404   .text.rtc_interrupt_disable:0000000000000006 .L0 
C:\Users\CYMR90~1\AppData\Local\Temp\ccSIna8B.s:3407   .text.rtc_interrupt_disable:000000000000000a .L0 
C:\Users\CYMR90~1\AppData\Local\Temp\ccSIna8B.s:3411   .text.rtc_interrupt_disable:0000000000000014 .L0 
C:\Users\CYMR90~1\AppData\Local\Temp\ccSIna8B.s:3415   .text.rtc_interrupt_disable:000000000000001e .L0 
C:\Users\CYMR90~1\AppData\Local\Temp\ccSIna8B.s:3418   .text.rtc_interrupt_disable:0000000000000026 .L0 
C:\Users\CYMR90~1\AppData\Local\Temp\ccSIna8B.s:3423   .text.rtc_interrupt_disable:0000000000000032 .L0 
C:\Users\CYMR90~1\AppData\Local\Temp\ccSIna8B.s:3426   .text.rtc_interrupt_disable:0000000000000034 .L0 
C:\Users\CYMR90~1\AppData\Local\Temp\ccSIna8B.s:3429   .text.rtc_interrupt_disable:000000000000003c .L0 
C:\Users\CYMR90~1\AppData\Local\Temp\ccSIna8B.s:3432   .text.rtc_interrupt_disable:0000000000000042 .L0 
C:\Users\CYMR90~1\AppData\Local\Temp\ccSIna8B.s:3435   .text.rtc_interrupt_disable:000000000000004a .L0 
C:\Users\CYMR90~1\AppData\Local\Temp\ccSIna8B.s:3438   .text.rtc_interrupt_disable:0000000000000050 .L0 
C:\Users\CYMR90~1\AppData\Local\Temp\ccSIna8B.s:3442   .text.rtc_interrupt_disable:000000000000005a .L0 
C:\Users\CYMR90~1\AppData\Local\Temp\ccSIna8B.s:3445   .text.rtc_interrupt_disable:0000000000000062 .L0 
C:\Users\CYMR90~1\AppData\Local\Temp\ccSIna8B.s:3450   .text.rtc_interrupt_disable:000000000000006e .L0 
C:\Users\CYMR90~1\AppData\Local\Temp\ccSIna8B.s:3453   .text.rtc_interrupt_disable:0000000000000076 .L0 
C:\Users\CYMR90~1\AppData\Local\Temp\ccSIna8B.s:3457   .text.rtc_interrupt_disable:000000000000007c .L0 
C:\Users\CYMR90~1\AppData\Local\Temp\ccSIna8B.s:3459   .text.rtc_interrupt_disable:0000000000000080 .L0 
C:\Users\CYMR90~1\AppData\Local\Temp\ccSIna8B.s:3460   .text.rtc_interrupt_disable:0000000000000080 .L0 
C:\Users\CYMR90~1\AppData\Local\Temp\ccSIna8B.s:3462   .text.rtc_interrupt_disable:0000000000000082 .L0 
C:\Users\CYMR90~1\AppData\Local\Temp\ccSIna8B.s:3464   .text.rtc_interrupt_disable:0000000000000084 .L0 
C:\Users\CYMR90~1\AppData\Local\Temp\ccSIna8B.s:198    .text.rtc_deinit:000000000000018e .L0 
C:\Users\CYMR90~1\AppData\Local\Temp\ccSIna8B.s:376    .text.rtc_init:0000000000000186 .L0 
C:\Users\CYMR90~1\AppData\Local\Temp\ccSIna8B.s:456    .text.rtc_init_mode_enter:0000000000000080 .L0 
C:\Users\CYMR90~1\AppData\Local\Temp\ccSIna8B.s:489    .text.rtc_init_mode_exit:0000000000000026 .L0 
C:\Users\CYMR90~1\AppData\Local\Temp\ccSIna8B.s:588    .text.rtc_register_sync_wait:00000000000000aa .L0 
C:\Users\CYMR90~1\AppData\Local\Temp\ccSIna8B.s:747    .text.rtc_current_time_get:0000000000000158 .L0 
C:\Users\CYMR90~1\AppData\Local\Temp\ccSIna8B.s:786    .text.rtc_subsecond_get:000000000000002e .L0 
C:\Users\CYMR90~1\AppData\Local\Temp\ccSIna8B.s:898    .text.rtc_alarm_config:00000000000000d4 .L0 
C:\Users\CYMR90~1\AppData\Local\Temp\ccSIna8B.s:970    .text.rtc_alarm_subsecond_config:000000000000007a .L0 
C:\Users\CYMR90~1\AppData\Local\Temp\ccSIna8B.s:1079   .text.rtc_alarm_get:00000000000000de .L0 
C:\Users\CYMR90~1\AppData\Local\Temp\ccSIna8B.s:1127   .text.rtc_alarm_subsecond_get:0000000000000040 .L0 
C:\Users\CYMR90~1\AppData\Local\Temp\ccSIna8B.s:1195   .text.rtc_alarm_enable:000000000000007a .L0 
C:\Users\CYMR90~1\AppData\Local\Temp\ccSIna8B.s:1313   .text.rtc_alarm_disable:00000000000000dc .L0 
C:\Users\CYMR90~1\AppData\Local\Temp\ccSIna8B.s:1382   .text.rtc_timestamp_enable:000000000000007a .L0 
C:\Users\CYMR90~1\AppData\Local\Temp\ccSIna8B.s:1435   .text.rtc_timestamp_disable:0000000000000054 .L0 
C:\Users\CYMR90~1\AppData\Local\Temp\ccSIna8B.s:1540   .text.rtc_timestamp_get:00000000000000da .L0 
C:\Users\CYMR90~1\AppData\Local\Temp\ccSIna8B.s:1569   .text.rtc_timestamp_subsecond_get:0000000000000018 .L0 
C:\Users\CYMR90~1\AppData\Local\Temp\ccSIna8B.s:1794   .text.rtc_tamper_enable:00000000000001d2 .L0 
C:\Users\CYMR90~1\AppData\Local\Temp\ccSIna8B.s:1832   .text.rtc_tamper_disable:0000000000000030 .L0 
C:\Users\CYMR90~1\AppData\Local\Temp\ccSIna8B.s:1866   .text.rtc_software_bkp_reset:0000000000000028 .L0 
C:\Users\CYMR90~1\AppData\Local\Temp\ccSIna8B.s:1911   .text.rtc_tamper_without_bkp_reset:0000000000000048 .L0 
C:\Users\CYMR90~1\AppData\Local\Temp\ccSIna8B.s:1974   .text.rtc_output_pin_select:0000000000000074 .L0 
C:\Users\CYMR90~1\AppData\Local\Temp\ccSIna8B.s:2057   .text.rtc_alarm_output_config:00000000000000ac .L0 
C:\Users\CYMR90~1\AppData\Local\Temp\ccSIna8B.s:2120   .text.rtc_calibration_output_config:0000000000000072 .L0 
C:\Users\CYMR90~1\AppData\Local\Temp\ccSIna8B.s:2173   .text.rtc_hour_adjust:0000000000000056 .L0 
C:\Users\CYMR90~1\AppData\Local\Temp\ccSIna8B.s:2281   .text.rtc_second_adjust:00000000000000c0 .L0 
C:\Users\CYMR90~1\AppData\Local\Temp\ccSIna8B.s:2332   .text.rtc_bypass_shadow_enable:0000000000000050 .L0 
C:\Users\CYMR90~1\AppData\Local\Temp\ccSIna8B.s:2383   .text.rtc_bypass_shadow_disable:0000000000000050 .L0 
C:\Users\CYMR90~1\AppData\Local\Temp\ccSIna8B.s:2451   .text.rtc_refclock_detection_enable:0000000000000076 .L0 
C:\Users\CYMR90~1\AppData\Local\Temp\ccSIna8B.s:2519   .text.rtc_refclock_detection_disable:0000000000000074 .L0 
C:\Users\CYMR90~1\AppData\Local\Temp\ccSIna8B.s:2570   .text.rtc_wakeup_enable:0000000000000050 .L0 
C:\Users\CYMR90~1\AppData\Local\Temp\ccSIna8B.s:2659   .text.rtc_wakeup_disable:0000000000000096 .L0 
C:\Users\CYMR90~1\AppData\Local\Temp\ccSIna8B.s:2761   .text.rtc_wakeup_clock_set:00000000000000b4 .L0 
C:\Users\CYMR90~1\AppData\Local\Temp\ccSIna8B.s:2851   .text.rtc_wakeup_timer_set:0000000000000092 .L0 
C:\Users\CYMR90~1\AppData\Local\Temp\ccSIna8B.s:2883   .text.rtc_wakeup_timer_get:000000000000001c .L0 
C:\Users\CYMR90~1\AppData\Local\Temp\ccSIna8B.s:2978   .text.rtc_smooth_calibration_config:00000000000000a8 .L0 
C:\Users\CYMR90~1\AppData\Local\Temp\ccSIna8B.s:3046   .text.rtc_coarse_calibration_enable:0000000000000076 .L0 
C:\Users\CYMR90~1\AppData\Local\Temp\ccSIna8B.s:3114   .text.rtc_coarse_calibration_disable:0000000000000076 .L0 
C:\Users\CYMR90~1\AppData\Local\Temp\ccSIna8B.s:3222   .text.rtc_coarse_calibration_config:00000000000000dc .L0 
C:\Users\CYMR90~1\AppData\Local\Temp\ccSIna8B.s:3265   .text.rtc_flag_get:0000000000000032 .L0 
C:\Users\CYMR90~1\AppData\Local\Temp\ccSIna8B.s:3321   .text.rtc_flag_clear:000000000000005a .L0 
C:\Users\CYMR90~1\AppData\Local\Temp\ccSIna8B.s:3391   .text.rtc_interrupt_enable:000000000000007c .L0 
C:\Users\CYMR90~1\AppData\Local\Temp\ccSIna8B.s:3467   .text.rtc_interrupt_disable:0000000000000084 .L0 
                     .debug_frame:0000000000000000 .L0 
C:\Users\CYMR90~1\AppData\Local\Temp\ccSIna8B.s:91     .text.rtc_deinit:00000000000000a4 .L2
C:\Users\CYMR90~1\AppData\Local\Temp\ccSIna8B.s:74     .text.rtc_deinit:0000000000000082 .L3
C:\Users\CYMR90~1\AppData\Local\Temp\ccSIna8B.s:98     .text.rtc_deinit:00000000000000b0 .L4
C:\Users\CYMR90~1\AppData\Local\Temp\ccSIna8B.s:182    .text.rtc_deinit:0000000000000180 .L5
C:\Users\CYMR90~1\AppData\Local\Temp\ccSIna8B.s:354    .text.rtc_init:000000000000016a .L8
C:\Users\CYMR90~1\AppData\Local\Temp\ccSIna8B.s:438    .text.rtc_init_mode_enter:000000000000006e .L11
C:\Users\CYMR90~1\AppData\Local\Temp\ccSIna8B.s:430    .text.rtc_init_mode_enter:0000000000000060 .L12
C:\Users\CYMR90~1\AppData\Local\Temp\ccSIna8B.s:413    .text.rtc_init_mode_enter:000000000000003c .L13
C:\Users\CYMR90~1\AppData\Local\Temp\ccSIna8B.s:442    .text.rtc_init_mode_enter:0000000000000074 .L14
C:\Users\CYMR90~1\AppData\Local\Temp\ccSIna8B.s:570    .text.rtc_register_sync_wait:0000000000000098 .L18
C:\Users\CYMR90~1\AppData\Local\Temp\ccSIna8B.s:555    .text.rtc_register_sync_wait:000000000000007c .L19
C:\Users\CYMR90~1\AppData\Local\Temp\ccSIna8B.s:538    .text.rtc_register_sync_wait:0000000000000058 .L20
C:\Users\CYMR90~1\AppData\Local\Temp\ccSIna8B.s:562    .text.rtc_register_sync_wait:0000000000000088 .L21
C:\Users\CYMR90~1\AppData\Local\Temp\ccSIna8B.s:574    .text.rtc_register_sync_wait:000000000000009e .L22
C:\Users\CYMR90~1\AppData\Local\Temp\ccSIna8B.s:873    .text.rtc_alarm_config:00000000000000b0 .L28
C:\Users\CYMR90~1\AppData\Local\Temp\ccSIna8B.s:880    .text.rtc_alarm_config:00000000000000be .L29
C:\Users\CYMR90~1\AppData\Local\Temp\ccSIna8B.s:942    .text.rtc_alarm_subsecond_config:0000000000000050 .L31
C:\Users\CYMR90~1\AppData\Local\Temp\ccSIna8B.s:952    .text.rtc_alarm_subsecond_config:0000000000000064 .L32
C:\Users\CYMR90~1\AppData\Local\Temp\ccSIna8B.s:1000   .text.rtc_alarm_get:000000000000002e .L34
C:\Users\CYMR90~1\AppData\Local\Temp\ccSIna8B.s:1007   .text.rtc_alarm_get:000000000000003c .L35
C:\Users\CYMR90~1\AppData\Local\Temp\ccSIna8B.s:1107   .text.rtc_alarm_subsecond_get:0000000000000028 .L37
C:\Users\CYMR90~1\AppData\Local\Temp\ccSIna8B.s:1115   .text.rtc_alarm_subsecond_get:0000000000000038 .L38
C:\Users\CYMR90~1\AppData\Local\Temp\ccSIna8B.s:1168   .text.rtc_alarm_enable:000000000000004c .L40
C:\Users\CYMR90~1\AppData\Local\Temp\ccSIna8B.s:1177   .text.rtc_alarm_enable:0000000000000064 .L41
C:\Users\CYMR90~1\AppData\Local\Temp\ccSIna8B.s:1260   .text.rtc_alarm_disable:000000000000007c .L43
C:\Users\CYMR90~1\AppData\Local\Temp\ccSIna8B.s:1286   .text.rtc_alarm_disable:00000000000000b6 .L44
C:\Users\CYMR90~1\AppData\Local\Temp\ccSIna8B.s:1242   .text.rtc_alarm_disable:0000000000000058 .L45
C:\Users\CYMR90~1\AppData\Local\Temp\ccSIna8B.s:1269   .text.rtc_alarm_disable:0000000000000094 .L46
C:\Users\CYMR90~1\AppData\Local\Temp\ccSIna8B.s:1293   .text.rtc_alarm_disable:00000000000000c2 .L47
C:\Users\CYMR90~1\AppData\Local\Temp\ccSIna8B.s:1712   .text.rtc_tamper_enable:000000000000012c .L55
C:\Users\CYMR90~1\AppData\Local\Temp\ccSIna8B.s:1638   .text.rtc_tamper_enable:000000000000008c .L56
C:\Users\CYMR90~1\AppData\Local\Temp\ccSIna8B.s:1651   .text.rtc_tamper_enable:00000000000000a8 .L57
C:\Users\CYMR90~1\AppData\Local\Temp\ccSIna8B.s:1748   .text.rtc_tamper_enable:0000000000000176 .L58
C:\Users\CYMR90~1\AppData\Local\Temp\ccSIna8B.s:1770   .text.rtc_tamper_enable:00000000000001ae .L59
C:\Users\CYMR90~1\AppData\Local\Temp\ccSIna8B.s:2229   .text.rtc_second_adjust:0000000000000060 .L68
C:\Users\CYMR90~1\AppData\Local\Temp\ccSIna8B.s:2212   .text.rtc_second_adjust:000000000000003e .L69
C:\Users\CYMR90~1\AppData\Local\Temp\ccSIna8B.s:2259   .text.rtc_second_adjust:00000000000000a4 .L70
C:\Users\CYMR90~1\AppData\Local\Temp\ccSIna8B.s:2429   .text.rtc_refclock_detection_enable:000000000000005a .L75
C:\Users\CYMR90~1\AppData\Local\Temp\ccSIna8B.s:2497   .text.rtc_refclock_detection_disable:0000000000000058 .L78
C:\Users\CYMR90~1\AppData\Local\Temp\ccSIna8B.s:2628   .text.rtc_wakeup_disable:000000000000006a .L82
C:\Users\CYMR90~1\AppData\Local\Temp\ccSIna8B.s:2611   .text.rtc_wakeup_disable:0000000000000048 .L83
C:\Users\CYMR90~1\AppData\Local\Temp\ccSIna8B.s:2635   .text.rtc_wakeup_disable:0000000000000076 .L84
C:\Users\CYMR90~1\AppData\Local\Temp\ccSIna8B.s:2639   .text.rtc_wakeup_disable:000000000000007c .L85
C:\Users\CYMR90~1\AppData\Local\Temp\ccSIna8B.s:2711   .text.rtc_wakeup_clock_set:0000000000000058 .L88
C:\Users\CYMR90~1\AppData\Local\Temp\ccSIna8B.s:2694   .text.rtc_wakeup_clock_set:0000000000000036 .L89
C:\Users\CYMR90~1\AppData\Local\Temp\ccSIna8B.s:2718   .text.rtc_wakeup_clock_set:0000000000000064 .L90
C:\Users\CYMR90~1\AppData\Local\Temp\ccSIna8B.s:2741   .text.rtc_wakeup_clock_set:000000000000009a .L91
C:\Users\CYMR90~1\AppData\Local\Temp\ccSIna8B.s:2813   .text.rtc_wakeup_timer_set:0000000000000058 .L94
C:\Users\CYMR90~1\AppData\Local\Temp\ccSIna8B.s:2796   .text.rtc_wakeup_timer_set:0000000000000036 .L95
C:\Users\CYMR90~1\AppData\Local\Temp\ccSIna8B.s:2820   .text.rtc_wakeup_timer_set:0000000000000064 .L96
C:\Users\CYMR90~1\AppData\Local\Temp\ccSIna8B.s:2831   .text.rtc_wakeup_timer_set:0000000000000078 .L97
C:\Users\CYMR90~1\AppData\Local\Temp\ccSIna8B.s:2937   .text.rtc_smooth_calibration_config:0000000000000062 .L102
C:\Users\CYMR90~1\AppData\Local\Temp\ccSIna8B.s:2919   .text.rtc_smooth_calibration_config:000000000000003e .L103
C:\Users\CYMR90~1\AppData\Local\Temp\ccSIna8B.s:2958   .text.rtc_smooth_calibration_config:000000000000008e .L104
C:\Users\CYMR90~1\AppData\Local\Temp\ccSIna8B.s:3024   .text.rtc_coarse_calibration_enable:000000000000005a .L107
C:\Users\CYMR90~1\AppData\Local\Temp\ccSIna8B.s:3092   .text.rtc_coarse_calibration_disable:000000000000005a .L110
C:\Users\CYMR90~1\AppData\Local\Temp\ccSIna8B.s:3200   .text.rtc_coarse_calibration_config:00000000000000c0 .L113
C:\Users\CYMR90~1\AppData\Local\Temp\ccSIna8B.s:3168   .text.rtc_coarse_calibration_config:000000000000006c .L114
C:\Users\CYMR90~1\AppData\Local\Temp\ccSIna8B.s:3177   .text.rtc_coarse_calibration_config:0000000000000084 .L115
C:\Users\CYMR90~1\AppData\Local\Temp\ccSIna8B.s:3251   .text.rtc_flag_get:0000000000000026 .L118
C:\Users\CYMR90~1\AppData\Local\Temp\ccSIna8B.s:3351   .text.rtc_interrupt_enable:0000000000000030 .L122
C:\Users\CYMR90~1\AppData\Local\Temp\ccSIna8B.s:3379   .text.rtc_interrupt_enable:0000000000000074 .L124
C:\Users\CYMR90~1\AppData\Local\Temp\ccSIna8B.s:3424   .text.rtc_interrupt_disable:0000000000000034 .L126
C:\Users\CYMR90~1\AppData\Local\Temp\ccSIna8B.s:3455   .text.rtc_interrupt_disable:000000000000007c .L128
C:\Users\CYMR90~1\AppData\Local\Temp\ccSIna8B.s:5141   .debug_abbrev:0000000000000000 .Ldebug_abbrev0
C:\Users\CYMR90~1\AppData\Local\Temp\ccSIna8B.s:26269  .debug_str:000000000000afd2 .LASF5698
C:\Users\CYMR90~1\AppData\Local\Temp\ccSIna8B.s:33000  .debug_str:0000000000025c8c .LASF5699
C:\Users\CYMR90~1\AppData\Local\Temp\ccSIna8B.s:29211  .debug_str:0000000000016b64 .LASF5700
C:\Users\CYMR90~1\AppData\Local\Temp\ccSIna8B.s:5747   .debug_ranges:0000000000000000 .Ldebug_ranges0
C:\Users\CYMR90~1\AppData\Local\Temp\ccSIna8B.s:23491  .debug_line:0000000000000000 .Ldebug_line0
C:\Users\CYMR90~1\AppData\Local\Temp\ccSIna8B.s:5837   .debug_macro:0000000000000000 .Ldebug_macro0
C:\Users\CYMR90~1\AppData\Local\Temp\ccSIna8B.s:34852  .debug_str:000000000002d30e .LASF5562
C:\Users\CYMR90~1\AppData\Local\Temp\ccSIna8B.s:23509  .debug_str:000000000000011c .LASF5563
C:\Users\CYMR90~1\AppData\Local\Temp\ccSIna8B.s:24437  .debug_str:0000000000003ae8 .LASF5564
C:\Users\CYMR90~1\AppData\Local\Temp\ccSIna8B.s:29678  .debug_str:00000000000189ed .LASF5565
C:\Users\CYMR90~1\AppData\Local\Temp\ccSIna8B.s:25749  .debug_str:000000000000900e .LASF5568
C:\Users\CYMR90~1\AppData\Local\Temp\ccSIna8B.s:29121  .debug_str:0000000000016555 .LASF5566
C:\Users\CYMR90~1\AppData\Local\Temp\ccSIna8B.s:31000  .debug_str:000000000001e0c5 .LASF5567
C:\Users\CYMR90~1\AppData\Local\Temp\ccSIna8B.s:27093  .debug_str:000000000000e5f4 .LASF5569
C:\Users\CYMR90~1\AppData\Local\Temp\ccSIna8B.s:28591  .debug_str:00000000000144ec .LASF5570
C:\Users\CYMR90~1\AppData\Local\Temp\ccSIna8B.s:31418  .debug_str:000000000001f94a .LASF5571
C:\Users\CYMR90~1\AppData\Local\Temp\ccSIna8B.s:29890  .debug_str:00000000000197ef .LASF5572
C:\Users\CYMR90~1\AppData\Local\Temp\ccSIna8B.s:23633  .debug_str:000000000000085d .LASF5573
C:\Users\CYMR90~1\AppData\Local\Temp\ccSIna8B.s:32996  .debug_str:0000000000025c58 .LASF5574
C:\Users\CYMR90~1\AppData\Local\Temp\ccSIna8B.s:31440  .debug_str:000000000001fab3 .LASF855
C:\Users\CYMR90~1\AppData\Local\Temp\ccSIna8B.s:28891  .debug_str:00000000000156f9 .LASF5575
C:\Users\CYMR90~1\AppData\Local\Temp\ccSIna8B.s:32926  .debug_str:0000000000025721 .LASF5576
C:\Users\CYMR90~1\AppData\Local\Temp\ccSIna8B.s:33110  .debug_str:00000000000263ac .LASF5577
C:\Users\CYMR90~1\AppData\Local\Temp\ccSIna8B.s:25549  .debug_str:0000000000008345 .LASF5578
C:\Users\CYMR90~1\AppData\Local\Temp\ccSIna8B.s:27079  .debug_str:000000000000e53a .LASF5579
C:\Users\CYMR90~1\AppData\Local\Temp\ccSIna8B.s:23735  .debug_str:0000000000000f3e .LASF5580
C:\Users\CYMR90~1\AppData\Local\Temp\ccSIna8B.s:32672  .debug_str:000000000002463f .LASF5581
C:\Users\CYMR90~1\AppData\Local\Temp\ccSIna8B.s:26121  .debug_str:000000000000a6b6 .LASF5582
C:\Users\CYMR90~1\AppData\Local\Temp\ccSIna8B.s:31208  .debug_str:000000000001eccf .LASF5583
C:\Users\CYMR90~1\AppData\Local\Temp\ccSIna8B.s:28443  .debug_str:0000000000013be2 .LASF5584
C:\Users\CYMR90~1\AppData\Local\Temp\ccSIna8B.s:34824  .debug_str:000000000002d160 .LASF5585
C:\Users\CYMR90~1\AppData\Local\Temp\ccSIna8B.s:23943  .debug_str:0000000000001b69 .LASF5586
C:\Users\CYMR90~1\AppData\Local\Temp\ccSIna8B.s:27311  .debug_str:000000000000f310 .LASF5587
C:\Users\CYMR90~1\AppData\Local\Temp\ccSIna8B.s:32384  .debug_str:00000000000233ea .LASF5588
C:\Users\CYMR90~1\AppData\Local\Temp\ccSIna8B.s:27043  .debug_str:000000000000e333 .LASF5589
C:\Users\CYMR90~1\AppData\Local\Temp\ccSIna8B.s:28897  .debug_str:0000000000015729 .LASF5590
C:\Users\CYMR90~1\AppData\Local\Temp\ccSIna8B.s:30182  .debug_str:000000000001ac1f .LASF5591
C:\Users\CYMR90~1\AppData\Local\Temp\ccSIna8B.s:30316  .debug_str:000000000001b4dc .LASF5592
C:\Users\CYMR90~1\AppData\Local\Temp\ccSIna8B.s:30068  .debug_str:000000000001a37d .LASF5593
C:\Users\CYMR90~1\AppData\Local\Temp\ccSIna8B.s:34586  .debug_str:000000000002c18a .LASF5594
C:\Users\CYMR90~1\AppData\Local\Temp\ccSIna8B.s:32544  .debug_str:0000000000023d73 .LASF5595
C:\Users\CYMR90~1\AppData\Local\Temp\ccSIna8B.s:27105  .debug_str:000000000000e698 .LASF5596
C:\Users\CYMR90~1\AppData\Local\Temp\ccSIna8B.s:23619  .debug_str:0000000000000787 .LASF5597
C:\Users\CYMR90~1\AppData\Local\Temp\ccSIna8B.s:26069  .debug_str:000000000000a380 .LASF5598
C:\Users\CYMR90~1\AppData\Local\Temp\ccSIna8B.s:30582  .debug_str:000000000001c4ba .LASF5599
C:\Users\CYMR90~1\AppData\Local\Temp\ccSIna8B.s:34766  .debug_str:000000000002cd8b .LASF5600
C:\Users\CYMR90~1\AppData\Local\Temp\ccSIna8B.s:27177  .debug_str:000000000000eb03 .LASF5601
C:\Users\CYMR90~1\AppData\Local\Temp\ccSIna8B.s:28657  .debug_str:0000000000014924 .LASF5602
C:\Users\CYMR90~1\AppData\Local\Temp\ccSIna8B.s:28795  .debug_str:0000000000015191 .LASF5603
C:\Users\CYMR90~1\AppData\Local\Temp\ccSIna8B.s:25829  .debug_str:000000000000949b .LASF5604
C:\Users\CYMR90~1\AppData\Local\Temp\ccSIna8B.s:32858  .debug_str:00000000000251e7 .LASF5605
C:\Users\CYMR90~1\AppData\Local\Temp\ccSIna8B.s:31256  .debug_str:000000000001efa5 .LASF5606
C:\Users\CYMR90~1\AppData\Local\Temp\ccSIna8B.s:26047  .debug_str:000000000000a245 .LASF5607
C:\Users\CYMR90~1\AppData\Local\Temp\ccSIna8B.s:26277  .debug_str:000000000000b0eb .LASF5608
C:\Users\CYMR90~1\AppData\Local\Temp\ccSIna8B.s:31198  .debug_str:000000000001ec64 .LASF5609
C:\Users\CYMR90~1\AppData\Local\Temp\ccSIna8B.s:33546  .debug_str:0000000000027f59 .LASF5610
C:\Users\CYMR90~1\AppData\Local\Temp\ccSIna8B.s:33056  .debug_str:000000000002602a .LASF5611
C:\Users\CYMR90~1\AppData\Local\Temp\ccSIna8B.s:30550  .debug_str:000000000001c30e .LASF5612
C:\Users\CYMR90~1\AppData\Local\Temp\ccSIna8B.s:28825  .debug_str:0000000000015335 .LASF5613
C:\Users\CYMR90~1\AppData\Local\Temp\ccSIna8B.s:26739  .debug_str:000000000000cfd4 .LASF5614
C:\Users\CYMR90~1\AppData\Local\Temp\ccSIna8B.s:29980  .debug_str:0000000000019e5e .LASF5615
C:\Users\CYMR90~1\AppData\Local\Temp\ccSIna8B.s:30390  .debug_str:000000000001b951 .LASF5616
C:\Users\CYMR90~1\AppData\Local\Temp\ccSIna8B.s:31584  .debug_str:0000000000020353 .LASF5617
C:\Users\CYMR90~1\AppData\Local\Temp\ccSIna8B.s:23745  .debug_str:0000000000000fbe .LASF5618
C:\Users\CYMR90~1\AppData\Local\Temp\ccSIna8B.s:32550  .debug_str:0000000000023db0 .LASF5619
C:\Users\CYMR90~1\AppData\Local\Temp\ccSIna8B.s:26043  .debug_str:000000000000a1fd .LASF5620
C:\Users\CYMR90~1\AppData\Local\Temp\ccSIna8B.s:3396   .text.rtc_interrupt_disable:0000000000000000 .LFB389
C:\Users\CYMR90~1\AppData\Local\Temp\ccSIna8B.s:3465   .text.rtc_interrupt_disable:0000000000000084 .LFE389
C:\Users\CYMR90~1\AppData\Local\Temp\ccSIna8B.s:30242  .debug_str:000000000001afbb .LASF5622
C:\Users\CYMR90~1\AppData\Local\Temp\ccSIna8B.s:28339  .debug_str:000000000001350e .LASF5621
C:\Users\CYMR90~1\AppData\Local\Temp\ccSIna8B.s:3326   .text.rtc_interrupt_enable:0000000000000000 .LFB388
C:\Users\CYMR90~1\AppData\Local\Temp\ccSIna8B.s:3389   .text.rtc_interrupt_enable:000000000000007c .LFE388
C:\Users\CYMR90~1\AppData\Local\Temp\ccSIna8B.s:30030  .debug_str:000000000001a138 .LASF5623
C:\Users\CYMR90~1\AppData\Local\Temp\ccSIna8B.s:3270   .text.rtc_flag_clear:0000000000000000 .LFB387
C:\Users\CYMR90~1\AppData\Local\Temp\ccSIna8B.s:3319   .text.rtc_flag_clear:000000000000005a .LFE387
C:\Users\CYMR90~1\AppData\Local\Temp\ccSIna8B.s:26109  .debug_str:000000000000a5f7 .LASF5624
C:\Users\CYMR90~1\AppData\Local\Temp\ccSIna8B.s:29508  .debug_str:0000000000017fb4 .LASF5625
C:\Users\CYMR90~1\AppData\Local\Temp\ccSIna8B.s:3227   .text.rtc_flag_get:0000000000000000 .LFB386
C:\Users\CYMR90~1\AppData\Local\Temp\ccSIna8B.s:3263   .text.rtc_flag_get:0000000000000032 .LFE386
C:\Users\CYMR90~1\AppData\Local\Temp\ccSIna8B.s:27581  .debug_str:00000000000104e5 .LASF5629
C:\Users\CYMR90~1\AppData\Local\Temp\ccSIna8B.s:25235  .debug_str:0000000000006d75 .LASF5626
C:\Users\CYMR90~1\AppData\Local\Temp\ccSIna8B.s:3119   .text.rtc_coarse_calibration_config:0000000000000000 .LFB385
C:\Users\CYMR90~1\AppData\Local\Temp\ccSIna8B.s:3220   .text.rtc_coarse_calibration_config:00000000000000dc .LFE385
C:\Users\CYMR90~1\AppData\Local\Temp\ccSIna8B.s:26681  .debug_str:000000000000cc96 .LASF5627
C:\Users\CYMR90~1\AppData\Local\Temp\ccSIna8B.s:34720  .debug_str:000000000002ca6c .LASF5628
C:\Users\CYMR90~1\AppData\Local\Temp\ccSIna8B.s:32132  .debug_str:000000000002253a .LASF5630
C:\Users\CYMR90~1\AppData\Local\Temp\ccSIna8B.s:24173  .debug_str:0000000000002999 .LASF5631
C:\Users\CYMR90~1\AppData\Local\Temp\ccSIna8B.s:3051   .text.rtc_coarse_calibration_disable:0000000000000000 .LFB384
C:\Users\CYMR90~1\AppData\Local\Temp\ccSIna8B.s:3112   .text.rtc_coarse_calibration_disable:0000000000000076 .LFE384
C:\Users\CYMR90~1\AppData\Local\Temp\ccSIna8B.s:24813  .debug_str:000000000000536c .LASF5632
C:\Users\CYMR90~1\AppData\Local\Temp\ccSIna8B.s:2983   .text.rtc_coarse_calibration_enable:0000000000000000 .LFB383
C:\Users\CYMR90~1\AppData\Local\Temp\ccSIna8B.s:3044   .text.rtc_coarse_calibration_enable:0000000000000076 .LFE383
C:\Users\CYMR90~1\AppData\Local\Temp\ccSIna8B.s:29432  .debug_str:0000000000017b32 .LASF5633
C:\Users\CYMR90~1\AppData\Local\Temp\ccSIna8B.s:2888   .text.rtc_smooth_calibration_config:0000000000000000 .LFB382
C:\Users\CYMR90~1\AppData\Local\Temp\ccSIna8B.s:2976   .text.rtc_smooth_calibration_config:00000000000000a8 .LFE382
C:\Users\CYMR90~1\AppData\Local\Temp\ccSIna8B.s:27517  .debug_str:0000000000010122 .LASF5634
C:\Users\CYMR90~1\AppData\Local\Temp\ccSIna8B.s:30144  .debug_str:000000000001a981 .LASF5635
C:\Users\CYMR90~1\AppData\Local\Temp\ccSIna8B.s:23827  .debug_str:0000000000001491 .LASF5636
C:\Users\CYMR90~1\AppData\Local\Temp\ccSIna8B.s:27057  .debug_str:000000000000e3f8 .LASF5637
C:\Users\CYMR90~1\AppData\Local\Temp\ccSIna8B.s:31620  .debug_str:0000000000020593 .LASF5638
C:\Users\CYMR90~1\AppData\Local\Temp\ccSIna8B.s:24861  .debug_str:0000000000005641 .LASF5663
C:\Users\CYMR90~1\AppData\Local\Temp\ccSIna8B.s:2856   .text.rtc_wakeup_timer_get:0000000000000000 .LFB381
C:\Users\CYMR90~1\AppData\Local\Temp\ccSIna8B.s:2881   .text.rtc_wakeup_timer_get:000000000000001c .LFE381
C:\Users\CYMR90~1\AppData\Local\Temp\ccSIna8B.s:29808  .debug_str:0000000000019308 .LASF5639
C:\Users\CYMR90~1\AppData\Local\Temp\ccSIna8B.s:2766   .text.rtc_wakeup_timer_set:0000000000000000 .LFB380
C:\Users\CYMR90~1\AppData\Local\Temp\ccSIna8B.s:2849   .text.rtc_wakeup_timer_set:0000000000000092 .LFE380
C:\Users\CYMR90~1\AppData\Local\Temp\ccSIna8B.s:24963  .debug_str:0000000000005cec .LASF5640
C:\Users\CYMR90~1\AppData\Local\Temp\ccSIna8B.s:30120  .debug_str:000000000001a7fd .LASF5641
C:\Users\CYMR90~1\AppData\Local\Temp\ccSIna8B.s:2664   .text.rtc_wakeup_clock_set:0000000000000000 .LFB379
C:\Users\CYMR90~1\AppData\Local\Temp\ccSIna8B.s:2759   .text.rtc_wakeup_clock_set:00000000000000b4 .LFE379
C:\Users\CYMR90~1\AppData\Local\Temp\ccSIna8B.s:32024  .debug_str:0000000000021ea9 .LASF5642
C:\Users\CYMR90~1\AppData\Local\Temp\ccSIna8B.s:29780  .debug_str:0000000000019095 .LASF5643
C:\Users\CYMR90~1\AppData\Local\Temp\ccSIna8B.s:2575   .text.rtc_wakeup_disable:0000000000000000 .LFB378
C:\Users\CYMR90~1\AppData\Local\Temp\ccSIna8B.s:2657   .text.rtc_wakeup_disable:0000000000000096 .LFE378
C:\Users\CYMR90~1\AppData\Local\Temp\ccSIna8B.s:26893  .debug_str:000000000000da4c .LASF5646
C:\Users\CYMR90~1\AppData\Local\Temp\ccSIna8B.s:2524   .text.rtc_wakeup_enable:0000000000000000 .LFB377
C:\Users\CYMR90~1\AppData\Local\Temp\ccSIna8B.s:2568   .text.rtc_wakeup_enable:0000000000000050 .LFE377
C:\Users\CYMR90~1\AppData\Local\Temp\ccSIna8B.s:29544  .debug_str:00000000000181df .LASF5644
C:\Users\CYMR90~1\AppData\Local\Temp\ccSIna8B.s:2456   .text.rtc_refclock_detection_disable:0000000000000000 .LFB376
C:\Users\CYMR90~1\AppData\Local\Temp\ccSIna8B.s:2517   .text.rtc_refclock_detection_disable:0000000000000074 .LFE376
C:\Users\CYMR90~1\AppData\Local\Temp\ccSIna8B.s:34710  .debug_str:000000000002c9ed .LASF5645
C:\Users\CYMR90~1\AppData\Local\Temp\ccSIna8B.s:2388   .text.rtc_refclock_detection_enable:0000000000000000 .LFB375
C:\Users\CYMR90~1\AppData\Local\Temp\ccSIna8B.s:2449   .text.rtc_refclock_detection_enable:0000000000000076 .LFE375
C:\Users\CYMR90~1\AppData\Local\Temp\ccSIna8B.s:33756  .debug_str:0000000000028e34 .LASF5647
C:\Users\CYMR90~1\AppData\Local\Temp\ccSIna8B.s:2337   .text.rtc_bypass_shadow_disable:0000000000000000 .LFB374
C:\Users\CYMR90~1\AppData\Local\Temp\ccSIna8B.s:2381   .text.rtc_bypass_shadow_disable:0000000000000050 .LFE374
C:\Users\CYMR90~1\AppData\Local\Temp\ccSIna8B.s:32686  .debug_str:00000000000246d6 .LASF5648
C:\Users\CYMR90~1\AppData\Local\Temp\ccSIna8B.s:2286   .text.rtc_bypass_shadow_enable:0000000000000000 .LFB373
C:\Users\CYMR90~1\AppData\Local\Temp\ccSIna8B.s:2330   .text.rtc_bypass_shadow_enable:0000000000000050 .LFE373
C:\Users\CYMR90~1\AppData\Local\Temp\ccSIna8B.s:33354  .debug_str:00000000000272a4 .LASF5649
C:\Users\CYMR90~1\AppData\Local\Temp\ccSIna8B.s:2178   .text.rtc_second_adjust:0000000000000000 .LFB372
C:\Users\CYMR90~1\AppData\Local\Temp\ccSIna8B.s:2279   .text.rtc_second_adjust:00000000000000c0 .LFE372
C:\Users\CYMR90~1\AppData\Local\Temp\ccSIna8B.s:29726  .debug_str:0000000000018ca1 .LASF5650
C:\Users\CYMR90~1\AppData\Local\Temp\ccSIna8B.s:27341  .debug_str:000000000000f502 .LASF5651
C:\Users\CYMR90~1\AppData\Local\Temp\ccSIna8B.s:2125   .text.rtc_hour_adjust:0000000000000000 .LFB371
C:\Users\CYMR90~1\AppData\Local\Temp\ccSIna8B.s:2171   .text.rtc_hour_adjust:0000000000000056 .LFE371
C:\Users\CYMR90~1\AppData\Local\Temp\ccSIna8B.s:29688  .debug_str:0000000000018a74 .LASF5652
C:\Users\CYMR90~1\AppData\Local\Temp\ccSIna8B.s:27777  .debug_str:00000000000110ce .LASF5653
C:\Users\CYMR90~1\AppData\Local\Temp\ccSIna8B.s:2062   .text.rtc_calibration_output_config:0000000000000000 .LFB370
C:\Users\CYMR90~1\AppData\Local\Temp\ccSIna8B.s:2118   .text.rtc_calibration_output_config:0000000000000072 .LFE370
C:\Users\CYMR90~1\AppData\Local\Temp\ccSIna8B.s:30638  .debug_str:000000000001c7ad .LASF5654
C:\Users\CYMR90~1\AppData\Local\Temp\ccSIna8B.s:27647  .debug_str:00000000000108ca .LASF5655
C:\Users\CYMR90~1\AppData\Local\Temp\ccSIna8B.s:1979   .text.rtc_alarm_output_config:0000000000000000 .LFB369
C:\Users\CYMR90~1\AppData\Local\Temp\ccSIna8B.s:2055   .text.rtc_alarm_output_config:00000000000000ac .LFE369
C:\Users\CYMR90~1\AppData\Local\Temp\ccSIna8B.s:34088  .debug_str:000000000002a2ab .LASF5656
C:\Users\CYMR90~1\AppData\Local\Temp\ccSIna8B.s:34532  .debug_str:000000000002be02 .LASF5657
C:\Users\CYMR90~1\AppData\Local\Temp\ccSIna8B.s:1916   .text.rtc_output_pin_select:0000000000000000 .LFB368
C:\Users\CYMR90~1\AppData\Local\Temp\ccSIna8B.s:1972   .text.rtc_output_pin_select:0000000000000074 .LFE368
C:\Users\CYMR90~1\AppData\Local\Temp\ccSIna8B.s:32916  .debug_str:0000000000025653 .LASF5658
C:\Users\CYMR90~1\AppData\Local\Temp\ccSIna8B.s:1871   .text.rtc_tamper_without_bkp_reset:0000000000000000 .LFB367
C:\Users\CYMR90~1\AppData\Local\Temp\ccSIna8B.s:1909   .text.rtc_tamper_without_bkp_reset:0000000000000048 .LFE367
C:\Users\CYMR90~1\AppData\Local\Temp\ccSIna8B.s:32674  .debug_str:0000000000024645 .LASF5659
C:\Users\CYMR90~1\AppData\Local\Temp\ccSIna8B.s:1837   .text.rtc_software_bkp_reset:0000000000000000 .LFB366
C:\Users\CYMR90~1\AppData\Local\Temp\ccSIna8B.s:1864   .text.rtc_software_bkp_reset:0000000000000028 .LFE366
C:\Users\CYMR90~1\AppData\Local\Temp\ccSIna8B.s:32694  .debug_str:0000000000024744 .LASF5660
C:\Users\CYMR90~1\AppData\Local\Temp\ccSIna8B.s:1799   .text.rtc_tamper_disable:0000000000000000 .LFB365
C:\Users\CYMR90~1\AppData\Local\Temp\ccSIna8B.s:1830   .text.rtc_tamper_disable:0000000000000030 .LFE365
C:\Users\CYMR90~1\AppData\Local\Temp\ccSIna8B.s:34220  .debug_str:000000000002aaa1 .LASF5661
C:\Users\CYMR90~1\AppData\Local\Temp\ccSIna8B.s:1574   .text.rtc_tamper_enable:0000000000000000 .LFB364
C:\Users\CYMR90~1\AppData\Local\Temp\ccSIna8B.s:1792   .text.rtc_tamper_enable:00000000000001d2 .LFE364
C:\Users\CYMR90~1\AppData\Local\Temp\ccSIna8B.s:28337  .debug_str:0000000000013503 .LASF5662
C:\Users\CYMR90~1\AppData\Local\Temp\ccSIna8B.s:30546  .debug_str:000000000001c2c4 .LASF5664
C:\Users\CYMR90~1\AppData\Local\Temp\ccSIna8B.s:1545   .text.rtc_timestamp_subsecond_get:0000000000000000 .LFB363
C:\Users\CYMR90~1\AppData\Local\Temp\ccSIna8B.s:1567   .text.rtc_timestamp_subsecond_get:0000000000000018 .LFE363
C:\Users\CYMR90~1\AppData\Local\Temp\ccSIna8B.s:31694  .debug_str:0000000000020a42 .LASF5665
C:\Users\CYMR90~1\AppData\Local\Temp\ccSIna8B.s:1440   .text.rtc_timestamp_get:0000000000000000 .LFB362
C:\Users\CYMR90~1\AppData\Local\Temp\ccSIna8B.s:1538   .text.rtc_timestamp_get:00000000000000da .LFE362
C:\Users\CYMR90~1\AppData\Local\Temp\ccSIna8B.s:32284  .debug_str:0000000000022e82 .LASF5666
C:\Users\CYMR90~1\AppData\Local\Temp\ccSIna8B.s:25555  .debug_str:0000000000008389 .LASF5667
C:\Users\CYMR90~1\AppData\Local\Temp\ccSIna8B.s:28211  .debug_str:0000000000012cf1 .LASF5668
C:\Users\CYMR90~1\AppData\Local\Temp\ccSIna8B.s:25411  .debug_str:000000000000790b .LASF5669
C:\Users\CYMR90~1\AppData\Local\Temp\ccSIna8B.s:1387   .text.rtc_timestamp_disable:0000000000000000 .LFB361
C:\Users\CYMR90~1\AppData\Local\Temp\ccSIna8B.s:1433   .text.rtc_timestamp_disable:0000000000000054 .LFE361
C:\Users\CYMR90~1\AppData\Local\Temp\ccSIna8B.s:34816  .debug_str:000000000002d06b .LASF5670
C:\Users\CYMR90~1\AppData\Local\Temp\ccSIna8B.s:1318   .text.rtc_timestamp_enable:0000000000000000 .LFB360
C:\Users\CYMR90~1\AppData\Local\Temp\ccSIna8B.s:1380   .text.rtc_timestamp_enable:000000000000007a .LFE360
C:\Users\CYMR90~1\AppData\Local\Temp\ccSIna8B.s:25467  .debug_str:0000000000007cc1 .LASF5671
C:\Users\CYMR90~1\AppData\Local\Temp\ccSIna8B.s:23981  .debug_str:0000000000001da7 .LASF5672
C:\Users\CYMR90~1\AppData\Local\Temp\ccSIna8B.s:30618  .debug_str:000000000001c69f .LASF5673
C:\Users\CYMR90~1\AppData\Local\Temp\ccSIna8B.s:1200   .text.rtc_alarm_disable:0000000000000000 .LFB359
C:\Users\CYMR90~1\AppData\Local\Temp\ccSIna8B.s:1311   .text.rtc_alarm_disable:00000000000000dc .LFE359
C:\Users\CYMR90~1\AppData\Local\Temp\ccSIna8B.s:34882  .debug_str:000000000002d4d2 .LASF5674
C:\Users\CYMR90~1\AppData\Local\Temp\ccSIna8B.s:27573  .debug_str:000000000001047e .LASF5675
C:\Users\CYMR90~1\AppData\Local\Temp\ccSIna8B.s:1132   .text.rtc_alarm_enable:0000000000000000 .LFB358
C:\Users\CYMR90~1\AppData\Local\Temp\ccSIna8B.s:1193   .text.rtc_alarm_enable:000000000000007a .LFE358
C:\Users\CYMR90~1\AppData\Local\Temp\ccSIna8B.s:25243  .debug_str:0000000000006df4 .LASF5676
C:\Users\CYMR90~1\AppData\Local\Temp\ccSIna8B.s:1084   .text.rtc_alarm_subsecond_get:0000000000000000 .LFB357
C:\Users\CYMR90~1\AppData\Local\Temp\ccSIna8B.s:1125   .text.rtc_alarm_subsecond_get:0000000000000040 .LFE357
C:\Users\CYMR90~1\AppData\Local\Temp\ccSIna8B.s:25131  .debug_str:00000000000066d1 .LASF5677
C:\Users\CYMR90~1\AppData\Local\Temp\ccSIna8B.s:975    .text.rtc_alarm_get:0000000000000000 .LFB356
C:\Users\CYMR90~1\AppData\Local\Temp\ccSIna8B.s:1077   .text.rtc_alarm_get:00000000000000de .LFE356
C:\Users\CYMR90~1\AppData\Local\Temp\ccSIna8B.s:34694  .debug_str:000000000002c922 .LASF5678
C:\Users\CYMR90~1\AppData\Local\Temp\ccSIna8B.s:34696  .debug_str:000000000002c931 .LASF5679
C:\Users\CYMR90~1\AppData\Local\Temp\ccSIna8B.s:32566  .debug_str:0000000000023e9c .LASF5680
C:\Users\CYMR90~1\AppData\Local\Temp\ccSIna8B.s:903    .text.rtc_alarm_subsecond_config:0000000000000000 .LFB355
C:\Users\CYMR90~1\AppData\Local\Temp\ccSIna8B.s:968    .text.rtc_alarm_subsecond_config:000000000000007a .LFE355
C:\Users\CYMR90~1\AppData\Local\Temp\ccSIna8B.s:27533  .debug_str:000000000001023c .LASF5681
C:\Users\CYMR90~1\AppData\Local\Temp\ccSIna8B.s:32468  .debug_str:0000000000023924 .LASF5682
C:\Users\CYMR90~1\AppData\Local\Temp\ccSIna8B.s:27969  .debug_str:0000000000011d1b .LASF5683
C:\Users\CYMR90~1\AppData\Local\Temp\ccSIna8B.s:791    .text.rtc_alarm_config:0000000000000000 .LFB354
C:\Users\CYMR90~1\AppData\Local\Temp\ccSIna8B.s:896    .text.rtc_alarm_config:00000000000000d4 .LFE354
C:\Users\CYMR90~1\AppData\Local\Temp\ccSIna8B.s:29552  .debug_str:000000000001824a .LASF5684
C:\Users\CYMR90~1\AppData\Local\Temp\ccSIna8B.s:752    .text.rtc_subsecond_get:0000000000000000 .LFB353
C:\Users\CYMR90~1\AppData\Local\Temp\ccSIna8B.s:784    .text.rtc_subsecond_get:000000000000002e .LFE353
C:\Users\CYMR90~1\AppData\Local\Temp\ccSIna8B.s:31076  .debug_str:000000000001e533 .LASF5685
C:\Users\CYMR90~1\AppData\Local\Temp\ccSIna8B.s:593    .text.rtc_current_time_get:0000000000000000 .LFB352
C:\Users\CYMR90~1\AppData\Local\Temp\ccSIna8B.s:745    .text.rtc_current_time_get:0000000000000158 .LFE352
C:\Users\CYMR90~1\AppData\Local\Temp\ccSIna8B.s:24579  .debug_str:0000000000004445 .LASF5686
C:\Users\CYMR90~1\AppData\Local\Temp\ccSIna8B.s:32892  .debug_str:00000000000254f4 .LASF5687
C:\Users\CYMR90~1\AppData\Local\Temp\ccSIna8B.s:31372  .debug_str:000000000001f6b2 .LASF5688
C:\Users\CYMR90~1\AppData\Local\Temp\ccSIna8B.s:30002  .debug_str:0000000000019fc8 .LASF5689
C:\Users\CYMR90~1\AppData\Local\Temp\ccSIna8B.s:23617  .debug_str:000000000000077d .LASF5690
C:\Users\CYMR90~1\AppData\Local\Temp\ccSIna8B.s:31534  .debug_str:00000000000200a4 .LASF5691
C:\Users\CYMR90~1\AppData\Local\Temp\ccSIna8B.s:494    .text.rtc_register_sync_wait:0000000000000000 .LFB351
C:\Users\CYMR90~1\AppData\Local\Temp\ccSIna8B.s:586    .text.rtc_register_sync_wait:00000000000000aa .LFE351
C:\Users\CYMR90~1\AppData\Local\Temp\ccSIna8B.s:29416  .debug_str:0000000000017a18 .LASF5692
C:\Users\CYMR90~1\AppData\Local\Temp\ccSIna8B.s:461    .text.rtc_init_mode_exit:0000000000000000 .LFB350
C:\Users\CYMR90~1\AppData\Local\Temp\ccSIna8B.s:487    .text.rtc_init_mode_exit:0000000000000026 .LFE350
C:\Users\CYMR90~1\AppData\Local\Temp\ccSIna8B.s:28693  .debug_str:0000000000014b13 .LASF5693
C:\Users\CYMR90~1\AppData\Local\Temp\ccSIna8B.s:381    .text.rtc_init_mode_enter:0000000000000000 .LFB349
C:\Users\CYMR90~1\AppData\Local\Temp\ccSIna8B.s:454    .text.rtc_init_mode_enter:0000000000000080 .LFE349
C:\Users\CYMR90~1\AppData\Local\Temp\ccSIna8B.s:30284  .debug_str:000000000001b297 .LASF5694
C:\Users\CYMR90~1\AppData\Local\Temp\ccSIna8B.s:203    .text.rtc_init:0000000000000000 .LFB348
C:\Users\CYMR90~1\AppData\Local\Temp\ccSIna8B.s:374    .text.rtc_init:0000000000000186 .LFE348
C:\Users\CYMR90~1\AppData\Local\Temp\ccSIna8B.s:34830  .debug_str:000000000002d1d6 .LASF5695
C:\Users\CYMR90~1\AppData\Local\Temp\ccSIna8B.s:27153  .debug_str:000000000000e9b0 .LASF5696
C:\Users\CYMR90~1\AppData\Local\Temp\ccSIna8B.s:33122  .debug_str:000000000002644d .LASF5697
C:\Users\CYMR90~1\AppData\Local\Temp\ccSIna8B.s:14     .text.rtc_deinit:0000000000000000 .LFB347
C:\Users\CYMR90~1\AppData\Local\Temp\ccSIna8B.s:196    .text.rtc_deinit:000000000000018e .LFE347
C:\Users\CYMR90~1\AppData\Local\Temp\ccSIna8B.s:3474   .debug_info:0000000000000000 .Ldebug_info0
C:\Users\CYMR90~1\AppData\Local\Temp\ccSIna8B.s:6476   .debug_macro:0000000000000000 .Ldebug_macro2
C:\Users\CYMR90~1\AppData\Local\Temp\ccSIna8B.s:26201  .debug_str:000000000000ab46 .LASF314
C:\Users\CYMR90~1\AppData\Local\Temp\ccSIna8B.s:29300  .debug_str:0000000000017327 .LASF315
C:\Users\CYMR90~1\AppData\Local\Temp\ccSIna8B.s:7423   .debug_macro:0000000000000000 .Ldebug_macro3
C:\Users\CYMR90~1\AppData\Local\Temp\ccSIna8B.s:25699  .debug_str:0000000000008c98 .LASF369
C:\Users\CYMR90~1\AppData\Local\Temp\ccSIna8B.s:25255  .debug_str:0000000000006eac .LASF370
C:\Users\CYMR90~1\AppData\Local\Temp\ccSIna8B.s:29550  .debug_str:000000000001823b .LASF371
C:\Users\CYMR90~1\AppData\Local\Temp\ccSIna8B.s:7587   .debug_macro:0000000000000000 .Ldebug_macro4
C:\Users\CYMR90~1\AppData\Local\Temp\ccSIna8B.s:7607   .debug_macro:0000000000000000 .Ldebug_macro5
C:\Users\CYMR90~1\AppData\Local\Temp\ccSIna8B.s:28191  .debug_str:0000000000012b91 .LASF390
C:\Users\CYMR90~1\AppData\Local\Temp\ccSIna8B.s:7651   .debug_macro:0000000000000000 .Ldebug_macro6
C:\Users\CYMR90~1\AppData\Local\Temp\ccSIna8B.s:7665   .debug_macro:0000000000000000 .Ldebug_macro7
C:\Users\CYMR90~1\AppData\Local\Temp\ccSIna8B.s:7733   .debug_macro:0000000000000000 .Ldebug_macro8
C:\Users\CYMR90~1\AppData\Local\Temp\ccSIna8B.s:7759   .debug_macro:0000000000000000 .Ldebug_macro9
C:\Users\CYMR90~1\AppData\Local\Temp\ccSIna8B.s:7788   .debug_macro:0000000000000000 .Ldebug_macro10
C:\Users\CYMR90~1\AppData\Local\Temp\ccSIna8B.s:29692  .debug_str:0000000000018a9f .LASF433
C:\Users\CYMR90~1\AppData\Local\Temp\ccSIna8B.s:7802   .debug_macro:0000000000000000 .Ldebug_macro11
C:\Users\CYMR90~1\AppData\Local\Temp\ccSIna8B.s:7846   .debug_macro:0000000000000000 .Ldebug_macro12
C:\Users\CYMR90~1\AppData\Local\Temp\ccSIna8B.s:7872   .debug_macro:0000000000000000 .Ldebug_macro13
C:\Users\CYMR90~1\AppData\Local\Temp\ccSIna8B.s:33270  .debug_str:0000000000026d79 .LASF569
C:\Users\CYMR90~1\AppData\Local\Temp\ccSIna8B.s:8243   .debug_macro:0000000000000000 .Ldebug_macro14
C:\Users\CYMR90~1\AppData\Local\Temp\ccSIna8B.s:27713  .debug_str:0000000000010c9c .LASF572
C:\Users\CYMR90~1\AppData\Local\Temp\ccSIna8B.s:32596  .debug_str:000000000002405e .LASF573
C:\Users\CYMR90~1\AppData\Local\Temp\ccSIna8B.s:8254   .debug_macro:0000000000000000 .Ldebug_macro15
C:\Users\CYMR90~1\AppData\Local\Temp\ccSIna8B.s:8268   .debug_macro:0000000000000000 .Ldebug_macro16
C:\Users\CYMR90~1\AppData\Local\Temp\ccSIna8B.s:24193  .debug_str:0000000000002ad3 .LASF578
C:\Users\CYMR90~1\AppData\Local\Temp\ccSIna8B.s:8300   .debug_macro:0000000000000000 .Ldebug_macro17
C:\Users\CYMR90~1\AppData\Local\Temp\ccSIna8B.s:8326   .debug_macro:0000000000000000 .Ldebug_macro18
C:\Users\CYMR90~1\AppData\Local\Temp\ccSIna8B.s:8337   .debug_macro:0000000000000000 .Ldebug_macro19
C:\Users\CYMR90~1\AppData\Local\Temp\ccSIna8B.s:8381   .debug_macro:0000000000000000 .Ldebug_macro20
C:\Users\CYMR90~1\AppData\Local\Temp\ccSIna8B.s:8551   .debug_macro:0000000000000000 .Ldebug_macro21
C:\Users\CYMR90~1\AppData\Local\Temp\ccSIna8B.s:8562   .debug_macro:0000000000000000 .Ldebug_macro22
C:\Users\CYMR90~1\AppData\Local\Temp\ccSIna8B.s:28197  .debug_str:0000000000012bea .LASF675
C:\Users\CYMR90~1\AppData\Local\Temp\ccSIna8B.s:8618   .debug_macro:0000000000000000 .Ldebug_macro23
C:\Users\CYMR90~1\AppData\Local\Temp\ccSIna8B.s:8635   .debug_macro:0000000000000000 .Ldebug_macro24
C:\Users\CYMR90~1\AppData\Local\Temp\ccSIna8B.s:31410  .debug_str:000000000001f8da .LASF693
C:\Users\CYMR90~1\AppData\Local\Temp\ccSIna8B.s:29558  .debug_str:0000000000018284 .LASF694
C:\Users\CYMR90~1\AppData\Local\Temp\ccSIna8B.s:8679   .debug_macro:0000000000000000 .Ldebug_macro25
C:\Users\CYMR90~1\AppData\Local\Temp\ccSIna8B.s:24705  .debug_str:0000000000004d07 .LASF700
C:\Users\CYMR90~1\AppData\Local\Temp\ccSIna8B.s:25841  .debug_str:000000000000953b .LASF701
C:\Users\CYMR90~1\AppData\Local\Temp\ccSIna8B.s:8699   .debug_macro:0000000000000000 .Ldebug_macro26
C:\Users\CYMR90~1\AppData\Local\Temp\ccSIna8B.s:8710   .debug_macro:0000000000000000 .Ldebug_macro27
C:\Users\CYMR90~1\AppData\Local\Temp\ccSIna8B.s:8754   .debug_macro:0000000000000000 .Ldebug_macro28
C:\Users\CYMR90~1\AppData\Local\Temp\ccSIna8B.s:25081  .debug_str:00000000000063de .LASF749
C:\Users\CYMR90~1\AppData\Local\Temp\ccSIna8B.s:8855   .debug_macro:0000000000000000 .Ldebug_macro29
C:\Users\CYMR90~1\AppData\Local\Temp\ccSIna8B.s:8872   .debug_macro:0000000000000000 .Ldebug_macro30
C:\Users\CYMR90~1\AppData\Local\Temp\ccSIna8B.s:23561  .debug_str:000000000000045d .LASF763
C:\Users\CYMR90~1\AppData\Local\Temp\ccSIna8B.s:24887  .debug_str:00000000000057ea .LASF764
C:\Users\CYMR90~1\AppData\Local\Temp\ccSIna8B.s:8904   .debug_macro:0000000000000000 .Ldebug_macro31
C:\Users\CYMR90~1\AppData\Local\Temp\ccSIna8B.s:8918   .debug_macro:0000000000000000 .Ldebug_macro32
C:\Users\CYMR90~1\AppData\Local\Temp\ccSIna8B.s:9088   .debug_macro:0000000000000000 .Ldebug_macro33
C:\Users\CYMR90~1\AppData\Local\Temp\ccSIna8B.s:27371  .debug_str:000000000000f6ec .LASF850
C:\Users\CYMR90~1\AppData\Local\Temp\ccSIna8B.s:29774  .debug_str:000000000001905e .LASF851
C:\Users\CYMR90~1\AppData\Local\Temp\ccSIna8B.s:9174   .debug_macro:0000000000000000 .Ldebug_macro34
C:\Users\CYMR90~1\AppData\Local\Temp\ccSIna8B.s:9299   .debug_macro:0000000000000000 .Ldebug_macro35
C:\Users\CYMR90~1\AppData\Local\Temp\ccSIna8B.s:23853  .debug_str:00000000000015ce .LASF951
C:\Users\CYMR90~1\AppData\Local\Temp\ccSIna8B.s:9511   .debug_macro:0000000000000000 .Ldebug_macro36
C:\Users\CYMR90~1\AppData\Local\Temp\ccSIna8B.s:25585  .debug_str:00000000000085a6 .LASF957
C:\Users\CYMR90~1\AppData\Local\Temp\ccSIna8B.s:25133  .debug_str:00000000000066df .LASF958
C:\Users\CYMR90~1\AppData\Local\Temp\ccSIna8B.s:31246  .debug_str:000000000001eefb .LASF959
C:\Users\CYMR90~1\AppData\Local\Temp\ccSIna8B.s:9531   .debug_macro:0000000000000000 .Ldebug_macro37
C:\Users\CYMR90~1\AppData\Local\Temp\ccSIna8B.s:9623   .debug_macro:0000000000000000 .Ldebug_macro38
C:\Users\CYMR90~1\AppData\Local\Temp\ccSIna8B.s:11269  .debug_macro:0000000000000000 .Ldebug_macro39
C:\Users\CYMR90~1\AppData\Local\Temp\ccSIna8B.s:11361  .debug_macro:0000000000000000 .Ldebug_macro40
C:\Users\CYMR90~1\AppData\Local\Temp\ccSIna8B.s:11417  .debug_macro:0000000000000000 .Ldebug_macro41
C:\Users\CYMR90~1\AppData\Local\Temp\ccSIna8B.s:11431  .debug_macro:0000000000000000 .Ldebug_macro42
C:\Users\CYMR90~1\AppData\Local\Temp\ccSIna8B.s:29083  .debug_str:0000000000016329 .LASF1655
C:\Users\CYMR90~1\AppData\Local\Temp\ccSIna8B.s:25967  .debug_str:0000000000009d82 .LASF1656
C:\Users\CYMR90~1\AppData\Local\Temp\ccSIna8B.s:11655  .debug_macro:0000000000000000 .Ldebug_macro43
C:\Users\CYMR90~1\AppData\Local\Temp\ccSIna8B.s:11702  .debug_macro:0000000000000000 .Ldebug_macro44
C:\Users\CYMR90~1\AppData\Local\Temp\ccSIna8B.s:11857  .debug_macro:0000000000000000 .Ldebug_macro45
C:\Users\CYMR90~1\AppData\Local\Temp\ccSIna8B.s:11913  .debug_macro:0000000000000000 .Ldebug_macro46
C:\Users\CYMR90~1\AppData\Local\Temp\ccSIna8B.s:11924  .debug_macro:0000000000000000 .Ldebug_macro47
C:\Users\CYMR90~1\AppData\Local\Temp\ccSIna8B.s:34068  .debug_str:000000000002a1b5 .LASF1782
C:\Users\CYMR90~1\AppData\Local\Temp\ccSIna8B.s:28845  .debug_str:000000000001547f .LASF1783
C:\Users\CYMR90~1\AppData\Local\Temp\ccSIna8B.s:12055  .debug_macro:0000000000000000 .Ldebug_macro48
C:\Users\CYMR90~1\AppData\Local\Temp\ccSIna8B.s:12627  .debug_macro:0000000000000000 .Ldebug_macro49
C:\Users\CYMR90~1\AppData\Local\Temp\ccSIna8B.s:12914  .debug_macro:0000000000000000 .Ldebug_macro50
C:\Users\CYMR90~1\AppData\Local\Temp\ccSIna8B.s:12943  .debug_macro:0000000000000000 .Ldebug_macro51
C:\Users\CYMR90~1\AppData\Local\Temp\ccSIna8B.s:13020  .debug_macro:0000000000000000 .Ldebug_macro52
C:\Users\CYMR90~1\AppData\Local\Temp\ccSIna8B.s:13553  .debug_macro:0000000000000000 .Ldebug_macro53
C:\Users\CYMR90~1\AppData\Local\Temp\ccSIna8B.s:13576  .debug_macro:0000000000000000 .Ldebug_macro54
C:\Users\CYMR90~1\AppData\Local\Temp\ccSIna8B.s:13842  .debug_macro:0000000000000000 .Ldebug_macro55
C:\Users\CYMR90~1\AppData\Local\Temp\ccSIna8B.s:14321  .debug_macro:0000000000000000 .Ldebug_macro56
C:\Users\CYMR90~1\AppData\Local\Temp\ccSIna8B.s:14650  .debug_macro:0000000000000000 .Ldebug_macro57
C:\Users\CYMR90~1\AppData\Local\Temp\ccSIna8B.s:14739  .debug_macro:0000000000000000 .Ldebug_macro58
C:\Users\CYMR90~1\AppData\Local\Temp\ccSIna8B.s:15554  .debug_macro:0000000000000000 .Ldebug_macro59
C:\Users\CYMR90~1\AppData\Local\Temp\ccSIna8B.s:15745  .debug_macro:0000000000000000 .Ldebug_macro60
C:\Users\CYMR90~1\AppData\Local\Temp\ccSIna8B.s:16248  .debug_macro:0000000000000000 .Ldebug_macro61
C:\Users\CYMR90~1\AppData\Local\Temp\ccSIna8B.s:16394  .debug_macro:0000000000000000 .Ldebug_macro62
C:\Users\CYMR90~1\AppData\Local\Temp\ccSIna8B.s:16924  .debug_macro:0000000000000000 .Ldebug_macro63
C:\Users\CYMR90~1\AppData\Local\Temp\ccSIna8B.s:17346  .debug_macro:0000000000000000 .Ldebug_macro64
C:\Users\CYMR90~1\AppData\Local\Temp\ccSIna8B.s:20120  .debug_macro:0000000000000000 .Ldebug_macro65
C:\Users\CYMR90~1\AppData\Local\Temp\ccSIna8B.s:20389  .debug_macro:0000000000000000 .Ldebug_macro66
C:\Users\CYMR90~1\AppData\Local\Temp\ccSIna8B.s:20661  .debug_macro:0000000000000000 .Ldebug_macro67
C:\Users\CYMR90~1\AppData\Local\Temp\ccSIna8B.s:21689  .debug_macro:0000000000000000 .Ldebug_macro68
C:\Users\CYMR90~1\AppData\Local\Temp\ccSIna8B.s:21733  .debug_macro:0000000000000000 .Ldebug_macro69
C:\Users\CYMR90~1\AppData\Local\Temp\ccSIna8B.s:22359  .debug_macro:0000000000000000 .Ldebug_macro70
C:\Users\CYMR90~1\AppData\Local\Temp\ccSIna8B.s:22418  .debug_macro:0000000000000000 .Ldebug_macro71
C:\Users\CYMR90~1\AppData\Local\Temp\ccSIna8B.s:31220  .debug_str:000000000001ed58 .LASF5556
C:\Users\CYMR90~1\AppData\Local\Temp\ccSIna8B.s:24679  .debug_str:0000000000004b51 .LASF5557
C:\Users\CYMR90~1\AppData\Local\Temp\ccSIna8B.s:24923  .debug_str:0000000000005a26 .LASF5558
C:\Users\CYMR90~1\AppData\Local\Temp\ccSIna8B.s:34736  .debug_str:000000000002cb5a .LASF5559
C:\Users\CYMR90~1\AppData\Local\Temp\ccSIna8B.s:33498  .debug_str:0000000000027bfa .LASF5560
C:\Users\CYMR90~1\AppData\Local\Temp\ccSIna8B.s:25273  .debug_str:0000000000006fde .LASF5561
C:\Users\CYMR90~1\AppData\Local\Temp\ccSIna8B.s:24869  .debug_str:00000000000056af .LASF0
C:\Users\CYMR90~1\AppData\Local\Temp\ccSIna8B.s:29280  .debug_str:0000000000017210 .LASF1
C:\Users\CYMR90~1\AppData\Local\Temp\ccSIna8B.s:27537  .debug_str:000000000001026e .LASF2
C:\Users\CYMR90~1\AppData\Local\Temp\ccSIna8B.s:27593  .debug_str:0000000000010594 .LASF3
C:\Users\CYMR90~1\AppData\Local\Temp\ccSIna8B.s:28895  .debug_str:0000000000015717 .LASF4
C:\Users\CYMR90~1\AppData\Local\Temp\ccSIna8B.s:34468  .debug_str:000000000002ba01 .LASF5
C:\Users\CYMR90~1\AppData\Local\Temp\ccSIna8B.s:25105  .debug_str:000000000000656f .LASF6
C:\Users\CYMR90~1\AppData\Local\Temp\ccSIna8B.s:33786  .debug_str:0000000000028fd7 .LASF7
C:\Users\CYMR90~1\AppData\Local\Temp\ccSIna8B.s:32716  .debug_str:00000000000248a0 .LASF8
C:\Users\CYMR90~1\AppData\Local\Temp\ccSIna8B.s:30628  .debug_str:000000000001c71d .LASF9
C:\Users\CYMR90~1\AppData\Local\Temp\ccSIna8B.s:29978  .debug_str:0000000000019e4b .LASF10
C:\Users\CYMR90~1\AppData\Local\Temp\ccSIna8B.s:29830  .debug_str:0000000000019460 .LASF11
C:\Users\CYMR90~1\AppData\Local\Temp\ccSIna8B.s:34306  .debug_str:000000000002afa3 .LASF12
C:\Users\CYMR90~1\AppData\Local\Temp\ccSIna8B.s:29844  .debug_str:0000000000019538 .LASF13
C:\Users\CYMR90~1\AppData\Local\Temp\ccSIna8B.s:26125  .debug_str:000000000000a6e9 .LASF14
C:\Users\CYMR90~1\AppData\Local\Temp\ccSIna8B.s:31196  .debug_str:000000000001ec4d .LASF15
C:\Users\CYMR90~1\AppData\Local\Temp\ccSIna8B.s:31966  .debug_str:0000000000021b28 .LASF16
C:\Users\CYMR90~1\AppData\Local\Temp\ccSIna8B.s:26171  .debug_str:000000000000a98f .LASF17
C:\Users\CYMR90~1\AppData\Local\Temp\ccSIna8B.s:33010  .debug_str:0000000000025d50 .LASF18
C:\Users\CYMR90~1\AppData\Local\Temp\ccSIna8B.s:33162  .debug_str:0000000000026666 .LASF19
C:\Users\CYMR90~1\AppData\Local\Temp\ccSIna8B.s:24175  .debug_str:00000000000029b8 .LASF20
C:\Users\CYMR90~1\AppData\Local\Temp\ccSIna8B.s:29642  .debug_str:00000000000187c9 .LASF21
C:\Users\CYMR90~1\AppData\Local\Temp\ccSIna8B.s:29640  .debug_str:00000000000187af .LASF22
C:\Users\CYMR90~1\AppData\Local\Temp\ccSIna8B.s:32270  .debug_str:0000000000022dbf .LASF23
C:\Users\CYMR90~1\AppData\Local\Temp\ccSIna8B.s:30580  .debug_str:000000000001c4ab .LASF24
C:\Users\CYMR90~1\AppData\Local\Temp\ccSIna8B.s:24409  .debug_str:0000000000003913 .LASF25
C:\Users\CYMR90~1\AppData\Local\Temp\ccSIna8B.s:29017  .debug_str:0000000000015e98 .LASF26
C:\Users\CYMR90~1\AppData\Local\Temp\ccSIna8B.s:32274  .debug_str:0000000000022deb .LASF27
C:\Users\CYMR90~1\AppData\Local\Temp\ccSIna8B.s:31974  .debug_str:0000000000021b85 .LASF28
C:\Users\CYMR90~1\AppData\Local\Temp\ccSIna8B.s:24819  .debug_str:00000000000053c7 .LASF29
C:\Users\CYMR90~1\AppData\Local\Temp\ccSIna8B.s:30976  .debug_str:000000000001df11 .LASF30
C:\Users\CYMR90~1\AppData\Local\Temp\ccSIna8B.s:23797  .debug_str:00000000000012bd .LASF31
C:\Users\CYMR90~1\AppData\Local\Temp\ccSIna8B.s:31446  .debug_str:000000000001fae7 .LASF32
C:\Users\CYMR90~1\AppData\Local\Temp\ccSIna8B.s:26007  .debug_str:0000000000009fb7 .LASF33
C:\Users\CYMR90~1\AppData\Local\Temp\ccSIna8B.s:25857  .debug_str:0000000000009626 .LASF34
C:\Users\CYMR90~1\AppData\Local\Temp\ccSIna8B.s:27183  .debug_str:000000000000eb37 .LASF35
C:\Users\CYMR90~1\AppData\Local\Temp\ccSIna8B.s:30086  .debug_str:000000000001a490 .LASF36
C:\Users\CYMR90~1\AppData\Local\Temp\ccSIna8B.s:25349  .debug_str:0000000000007520 .LASF37
C:\Users\CYMR90~1\AppData\Local\Temp\ccSIna8B.s:27535  .debug_str:000000000001024b .LASF38
C:\Users\CYMR90~1\AppData\Local\Temp\ccSIna8B.s:24373  .debug_str:0000000000003674 .LASF39
C:\Users\CYMR90~1\AppData\Local\Temp\ccSIna8B.s:24165  .debug_str:0000000000002907 .LASF40
C:\Users\CYMR90~1\AppData\Local\Temp\ccSIna8B.s:27701  .debug_str:0000000000010be7 .LASF41
C:\Users\CYMR90~1\AppData\Local\Temp\ccSIna8B.s:28131  .debug_str:00000000000127a1 .LASF42
C:\Users\CYMR90~1\AppData\Local\Temp\ccSIna8B.s:28393  .debug_str:00000000000138fa .LASF43
C:\Users\CYMR90~1\AppData\Local\Temp\ccSIna8B.s:30076  .debug_str:000000000001a3fe .LASF44
C:\Users\CYMR90~1\AppData\Local\Temp\ccSIna8B.s:27993  .debug_str:0000000000011e61 .LASF45
C:\Users\CYMR90~1\AppData\Local\Temp\ccSIna8B.s:24641  .debug_str:0000000000004872 .LASF46
C:\Users\CYMR90~1\AppData\Local\Temp\ccSIna8B.s:30982  .debug_str:000000000001df76 .LASF47
C:\Users\CYMR90~1\AppData\Local\Temp\ccSIna8B.s:32718  .debug_str:00000000000248b5 .LASF48
C:\Users\CYMR90~1\AppData\Local\Temp\ccSIna8B.s:26923  .debug_str:000000000000dbf1 .LASF49
C:\Users\CYMR90~1\AppData\Local\Temp\ccSIna8B.s:24007  .debug_str:0000000000001f12 .LASF50
C:\Users\CYMR90~1\AppData\Local\Temp\ccSIna8B.s:23511  .debug_str:000000000000012a .LASF51
C:\Users\CYMR90~1\AppData\Local\Temp\ccSIna8B.s:34080  .debug_str:000000000002a24a .LASF52
C:\Users\CYMR90~1\AppData\Local\Temp\ccSIna8B.s:26725  .debug_str:000000000000cf0f .LASF53
C:\Users\CYMR90~1\AppData\Local\Temp\ccSIna8B.s:28473  .debug_str:0000000000013d9c .LASF54
C:\Users\CYMR90~1\AppData\Local\Temp\ccSIna8B.s:27499  .debug_str:0000000000010008 .LASF55
C:\Users\CYMR90~1\AppData\Local\Temp\ccSIna8B.s:25439  .debug_str:0000000000007ad2 .LASF56
C:\Users\CYMR90~1\AppData\Local\Temp\ccSIna8B.s:28873  .debug_str:00000000000155ec .LASF57
C:\Users\CYMR90~1\AppData\Local\Temp\ccSIna8B.s:23751  .debug_str:0000000000001006 .LASF58
C:\Users\CYMR90~1\AppData\Local\Temp\ccSIna8B.s:33014  .debug_str:0000000000025d90 .LASF59
C:\Users\CYMR90~1\AppData\Local\Temp\ccSIna8B.s:28401  .debug_str:0000000000013955 .LASF60
C:\Users\CYMR90~1\AppData\Local\Temp\ccSIna8B.s:30356  .debug_str:000000000001b734 .LASF61
C:\Users\CYMR90~1\AppData\Local\Temp\ccSIna8B.s:24235  .debug_str:0000000000002d92 .LASF62
C:\Users\CYMR90~1\AppData\Local\Temp\ccSIna8B.s:26915  .debug_str:000000000000db8e .LASF63
C:\Users\CYMR90~1\AppData\Local\Temp\ccSIna8B.s:26635  .debug_str:000000000000c81b .LASF64
C:\Users\CYMR90~1\AppData\Local\Temp\ccSIna8B.s:30062  .debug_str:000000000001a330 .LASF65
C:\Users\CYMR90~1\AppData\Local\Temp\ccSIna8B.s:28701  .debug_str:0000000000014b69 .LASF66
C:\Users\CYMR90~1\AppData\Local\Temp\ccSIna8B.s:33858  .debug_str:000000000002944d .LASF67
C:\Users\CYMR90~1\AppData\Local\Temp\ccSIna8B.s:34308  .debug_str:000000000002afb6 .LASF68
C:\Users\CYMR90~1\AppData\Local\Temp\ccSIna8B.s:27947  .debug_str:0000000000011bdc .LASF69
C:\Users\CYMR90~1\AppData\Local\Temp\ccSIna8B.s:27073  .debug_str:000000000000e4e4 .LASF70
C:\Users\CYMR90~1\AppData\Local\Temp\ccSIna8B.s:24653  .debug_str:00000000000049c5 .LASF71
C:\Users\CYMR90~1\AppData\Local\Temp\ccSIna8B.s:27983  .debug_str:0000000000011dda .LASF72
C:\Users\CYMR90~1\AppData\Local\Temp\ccSIna8B.s:27603  .debug_str:000000000001061e .LASF73
C:\Users\CYMR90~1\AppData\Local\Temp\ccSIna8B.s:28209  .debug_str:0000000000012cce .LASF74
C:\Users\CYMR90~1\AppData\Local\Temp\ccSIna8B.s:28053  .debug_str:000000000001225e .LASF75
C:\Users\CYMR90~1\AppData\Local\Temp\ccSIna8B.s:28151  .debug_str:00000000000128ff .LASF76
C:\Users\CYMR90~1\AppData\Local\Temp\ccSIna8B.s:32632  .debug_str:0000000000024362 .LASF77
C:\Users\CYMR90~1\AppData\Local\Temp\ccSIna8B.s:30554  .debug_str:000000000001c32e .LASF78
C:\Users\CYMR90~1\AppData\Local\Temp\ccSIna8B.s:30948  .debug_str:000000000001dce9 .LASF79
C:\Users\CYMR90~1\AppData\Local\Temp\ccSIna8B.s:33838  .debug_str:00000000000292fe .LASF80
C:\Users\CYMR90~1\AppData\Local\Temp\ccSIna8B.s:25959  .debug_str:0000000000009cdd .LASF81
C:\Users\CYMR90~1\AppData\Local\Temp\ccSIna8B.s:26157  .debug_str:000000000000a878 .LASF82
C:\Users\CYMR90~1\AppData\Local\Temp\ccSIna8B.s:33970  .debug_str:0000000000029c08 .LASF83
C:\Users\CYMR90~1\AppData\Local\Temp\ccSIna8B.s:25899  .debug_str:00000000000098e8 .LASF84
C:\Users\CYMR90~1\AppData\Local\Temp\ccSIna8B.s:25167  .debug_str:0000000000006924 .LASF85
C:\Users\CYMR90~1\AppData\Local\Temp\ccSIna8B.s:30262  .debug_str:000000000001b117 .LASF86
C:\Users\CYMR90~1\AppData\Local\Temp\ccSIna8B.s:34002  .debug_str:0000000000029da9 .LASF87
C:\Users\CYMR90~1\AppData\Local\Temp\ccSIna8B.s:31386  .debug_str:000000000001f76b .LASF88
C:\Users\CYMR90~1\AppData\Local\Temp\ccSIna8B.s:30180  .debug_str:000000000001ac09 .LASF89
C:\Users\CYMR90~1\AppData\Local\Temp\ccSIna8B.s:31414  .debug_str:000000000001f90d .LASF90
C:\Users\CYMR90~1\AppData\Local\Temp\ccSIna8B.s:34210  .debug_str:000000000002a9f4 .LASF91
C:\Users\CYMR90~1\AppData\Local\Temp\ccSIna8B.s:33022  .debug_str:0000000000025e08 .LASF92
C:\Users\CYMR90~1\AppData\Local\Temp\ccSIna8B.s:26037  .debug_str:000000000000a1a2 .LASF93
C:\Users\CYMR90~1\AppData\Local\Temp\ccSIna8B.s:30832  .debug_str:000000000001d5a5 .LASF94
C:\Users\CYMR90~1\AppData\Local\Temp\ccSIna8B.s:28431  .debug_str:0000000000013b34 .LASF95
C:\Users\CYMR90~1\AppData\Local\Temp\ccSIna8B.s:28413  .debug_str:0000000000013a1e .LASF96
C:\Users\CYMR90~1\AppData\Local\Temp\ccSIna8B.s:34518  .debug_str:000000000002bd44 .LASF97
C:\Users\CYMR90~1\AppData\Local\Temp\ccSIna8B.s:28067  .debug_str:0000000000012356 .LASF98
C:\Users\CYMR90~1\AppData\Local\Temp\ccSIna8B.s:31992  .debug_str:0000000000021c9d .LASF99
C:\Users\CYMR90~1\AppData\Local\Temp\ccSIna8B.s:25385  .debug_str:000000000000775b .LASF100
C:\Users\CYMR90~1\AppData\Local\Temp\ccSIna8B.s:27549  .debug_str:00000000000102f9 .LASF101
C:\Users\CYMR90~1\AppData\Local\Temp\ccSIna8B.s:28937  .debug_str:0000000000015950 .LASF102
C:\Users\CYMR90~1\AppData\Local\Temp\ccSIna8B.s:27833  .debug_str:000000000001140e .LASF103
C:\Users\CYMR90~1\AppData\Local\Temp\ccSIna8B.s:26825  .debug_str:000000000000d588 .LASF104
C:\Users\CYMR90~1\AppData\Local\Temp\ccSIna8B.s:28003  .debug_str:0000000000011ef8 .LASF105
C:\Users\CYMR90~1\AppData\Local\Temp\ccSIna8B.s:30652  .debug_str:000000000001c8a0 .LASF106
C:\Users\CYMR90~1\AppData\Local\Temp\ccSIna8B.s:27827  .debug_str:00000000000113af .LASF107
C:\Users\CYMR90~1\AppData\Local\Temp\ccSIna8B.s:26821  .debug_str:000000000000d564 .LASF108
C:\Users\CYMR90~1\AppData\Local\Temp\ccSIna8B.s:28263  .debug_str:0000000000013037 .LASF109
C:\Users\CYMR90~1\AppData\Local\Temp\ccSIna8B.s:27207  .debug_str:000000000000ece5 .LASF110
C:\Users\CYMR90~1\AppData\Local\Temp\ccSIna8B.s:29698  .debug_str:0000000000018afb .LASF111
C:\Users\CYMR90~1\AppData\Local\Temp\ccSIna8B.s:26293  .debug_str:000000000000b1d5 .LASF112
C:\Users\CYMR90~1\AppData\Local\Temp\ccSIna8B.s:26035  .debug_str:000000000000a179 .LASF113
C:\Users\CYMR90~1\AppData\Local\Temp\ccSIna8B.s:28969  .debug_str:0000000000015b50 .LASF114
C:\Users\CYMR90~1\AppData\Local\Temp\ccSIna8B.s:33900  .debug_str:000000000002976d .LASF115
C:\Users\CYMR90~1\AppData\Local\Temp\ccSIna8B.s:32514  .debug_str:0000000000023bcc .LASF116
C:\Users\CYMR90~1\AppData\Local\Temp\ccSIna8B.s:25789  .debug_str:0000000000009242 .LASF117
C:\Users\CYMR90~1\AppData\Local\Temp\ccSIna8B.s:30418  .debug_str:000000000001baf6 .LASF118
C:\Users\CYMR90~1\AppData\Local\Temp\ccSIna8B.s:34624  .debug_str:000000000002c45a .LASF119
C:\Users\CYMR90~1\AppData\Local\Temp\ccSIna8B.s:27125  .debug_str:000000000000e7b1 .LASF120
C:\Users\CYMR90~1\AppData\Local\Temp\ccSIna8B.s:32612  .debug_str:000000000002412d .LASF121
C:\Users\CYMR90~1\AppData\Local\Temp\ccSIna8B.s:26595  .debug_str:000000000000c5b5 .LASF122
C:\Users\CYMR90~1\AppData\Local\Temp\ccSIna8B.s:26709  .debug_str:000000000000ce45 .LASF123
C:\Users\CYMR90~1\AppData\Local\Temp\ccSIna8B.s:24343  .debug_str:00000000000034ab .LASF124
C:\Users\CYMR90~1\AppData\Local\Temp\ccSIna8B.s:24615  .debug_str:00000000000046a1 .LASF125
C:\Users\CYMR90~1\AppData\Local\Temp\ccSIna8B.s:33572  .debug_str:000000000002811b .LASF126
C:\Users\CYMR90~1\AppData\Local\Temp\ccSIna8B.s:28009  .debug_str:0000000000011f36 .LASF127
C:\Users\CYMR90~1\AppData\Local\Temp\ccSIna8B.s:30808  .debug_str:000000000001d42a .LASF128
C:\Users\CYMR90~1\AppData\Local\Temp\ccSIna8B.s:25867  .debug_str:00000000000096be .LASF129
C:\Users\CYMR90~1\AppData\Local\Temp\ccSIna8B.s:33136  .debug_str:00000000000264e4 .LASF130
C:\Users\CYMR90~1\AppData\Local\Temp\ccSIna8B.s:33442  .debug_str:00000000000278b5 .LASF131
C:\Users\CYMR90~1\AppData\Local\Temp\ccSIna8B.s:33250  .debug_str:0000000000026bfe .LASF132
C:\Users\CYMR90~1\AppData\Local\Temp\ccSIna8B.s:27099  .debug_str:000000000000e630 .LASF133
C:\Users\CYMR90~1\AppData\Local\Temp\ccSIna8B.s:32530  .debug_str:0000000000023cb0 .LASF134
C:\Users\CYMR90~1\AppData\Local\Temp\ccSIna8B.s:24609  .debug_str:000000000000463a .LASF135
C:\Users\CYMR90~1\AppData\Local\Temp\ccSIna8B.s:25489  .debug_str:0000000000007e1b .LASF136
C:\Users\CYMR90~1\AppData\Local\Temp\ccSIna8B.s:34300  .debug_str:000000000002af4c .LASF137
C:\Users\CYMR90~1\AppData\Local\Temp\ccSIna8B.s:28259  .debug_str:0000000000013007 .LASF138
C:\Users\CYMR90~1\AppData\Local\Temp\ccSIna8B.s:33782  .debug_str:0000000000028faf .LASF139
C:\Users\CYMR90~1\AppData\Local\Temp\ccSIna8B.s:32900  .debug_str:0000000000025559 .LASF140
C:\Users\CYMR90~1\AppData\Local\Temp\ccSIna8B.s:30508  .debug_str:000000000001c072 .LASF141
C:\Users\CYMR90~1\AppData\Local\Temp\ccSIna8B.s:25997  .debug_str:0000000000009f16 .LASF142
C:\Users\CYMR90~1\AppData\Local\Temp\ccSIna8B.s:34374  .debug_str:000000000002b3a8 .LASF143
C:\Users\CYMR90~1\AppData\Local\Temp\ccSIna8B.s:29666  .debug_str:000000000001892c .LASF144
C:\Users\CYMR90~1\AppData\Local\Temp\ccSIna8B.s:28715  .debug_str:0000000000014c72 .LASF145
C:\Users\CYMR90~1\AppData\Local\Temp\ccSIna8B.s:26669  .debug_str:000000000000caf7 .LASF146
C:\Users\CYMR90~1\AppData\Local\Temp\ccSIna8B.s:24651  .debug_str:00000000000049ae .LASF147
C:\Users\CYMR90~1\AppData\Local\Temp\ccSIna8B.s:27251  .debug_str:000000000000efc8 .LASF148
C:\Users\CYMR90~1\AppData\Local\Temp\ccSIna8B.s:29644  .debug_str:00000000000187dd .LASF149
C:\Users\CYMR90~1\AppData\Local\Temp\ccSIna8B.s:23591  .debug_str:00000000000005f4 .LASF150
C:\Users\CYMR90~1\AppData\Local\Temp\ccSIna8B.s:31976  .debug_str:0000000000021b9f .LASF151
C:\Users\CYMR90~1\AppData\Local\Temp\ccSIna8B.s:28253  .debug_str:0000000000012f85 .LASF152
C:\Users\CYMR90~1\AppData\Local\Temp\ccSIna8B.s:32906  .debug_str:00000000000255ac .LASF153
C:\Users\CYMR90~1\AppData\Local\Temp\ccSIna8B.s:30716  .debug_str:000000000001cd16 .LASF154
C:\Users\CYMR90~1\AppData\Local\Temp\ccSIna8B.s:27661  .debug_str:000000000001098c .LASF155
C:\Users\CYMR90~1\AppData\Local\Temp\ccSIna8B.s:30728  .debug_str:000000000001cdfc .LASF156
C:\Users\CYMR90~1\AppData\Local\Temp\ccSIna8B.s:30836  .debug_str:000000000001d5ec .LASF157
C:\Users\CYMR90~1\AppData\Local\Temp\ccSIna8B.s:26521  .debug_str:000000000000c152 .LASF158
C:\Users\CYMR90~1\AppData\Local\Temp\ccSIna8B.s:25589  .debug_str:00000000000085c8 .LASF159
C:\Users\CYMR90~1\AppData\Local\Temp\ccSIna8B.s:30362  .debug_str:000000000001b788 .LASF160
C:\Users\CYMR90~1\AppData\Local\Temp\ccSIna8B.s:31796  .debug_str:0000000000021089 .LASF161
C:\Users\CYMR90~1\AppData\Local\Temp\ccSIna8B.s:29970  .debug_str:0000000000019dc6 .LASF162
C:\Users\CYMR90~1\AppData\Local\Temp\ccSIna8B.s:32522  .debug_str:0000000000023c3e .LASF163
C:\Users\CYMR90~1\AppData\Local\Temp\ccSIna8B.s:34196  .debug_str:000000000002a926 .LASF164
C:\Users\CYMR90~1\AppData\Local\Temp\ccSIna8B.s:25341  .debug_str:00000000000074bf .LASF165
C:\Users\CYMR90~1\AppData\Local\Temp\ccSIna8B.s:33888  .debug_str:000000000002963e .LASF166
C:\Users\CYMR90~1\AppData\Local\Temp\ccSIna8B.s:33700  .debug_str:0000000000028a7a .LASF167
C:\Users\CYMR90~1\AppData\Local\Temp\ccSIna8B.s:32442  .debug_str:0000000000023749 .LASF168
C:\Users\CYMR90~1\AppData\Local\Temp\ccSIna8B.s:29428  .debug_str:0000000000017ad7 .LASF169
C:\Users\CYMR90~1\AppData\Local\Temp\ccSIna8B.s:33310  .debug_str:0000000000026fbc .LASF170
C:\Users\CYMR90~1\AppData\Local\Temp\ccSIna8B.s:29043  .debug_str:0000000000016041 .LASF171
C:\Users\CYMR90~1\AppData\Local\Temp\ccSIna8B.s:30634  .debug_str:000000000001c77c .LASF172
C:\Users\CYMR90~1\AppData\Local\Temp\ccSIna8B.s:25989  .debug_str:0000000000009eac .LASF173
C:\Users\CYMR90~1\AppData\Local\Temp\ccSIna8B.s:32338  .debug_str:0000000000023197 .LASF174
C:\Users\CYMR90~1\AppData\Local\Temp\ccSIna8B.s:25003  .debug_str:0000000000005f34 .LASF175
C:\Users\CYMR90~1\AppData\Local\Temp\ccSIna8B.s:25833  .debug_str:00000000000094d2 .LASF176
C:\Users\CYMR90~1\AppData\Local\Temp\ccSIna8B.s:24487  .debug_str:0000000000003df6 .LASF177
C:\Users\CYMR90~1\AppData\Local\Temp\ccSIna8B.s:29840  .debug_str:00000000000194f6 .LASF178
C:\Users\CYMR90~1\AppData\Local\Temp\ccSIna8B.s:26763  .debug_str:000000000000d179 .LASF179
C:\Users\CYMR90~1\AppData\Local\Temp\ccSIna8B.s:24001  .debug_str:0000000000001ea6 .LASF180
C:\Users\CYMR90~1\AppData\Local\Temp\ccSIna8B.s:34514  .debug_str:000000000002bd19 .LASF181
C:\Users\CYMR90~1\AppData\Local\Temp\ccSIna8B.s:23783  .debug_str:0000000000001212 .LASF182
C:\Users\CYMR90~1\AppData\Local\Temp\ccSIna8B.s:28371  .debug_str:000000000001376f .LASF183
C:\Users\CYMR90~1\AppData\Local\Temp\ccSIna8B.s:28781  .debug_str:000000000001509e .LASF184
C:\Users\CYMR90~1\AppData\Local\Temp\ccSIna8B.s:33710  .debug_str:0000000000028b29 .LASF185
C:\Users\CYMR90~1\AppData\Local\Temp\ccSIna8B.s:26865  .debug_str:000000000000d8ba .LASF186
C:\Users\CYMR90~1\AppData\Local\Temp\ccSIna8B.s:25325  .debug_str:000000000000735e .LASF187
C:\Users\CYMR90~1\AppData\Local\Temp\ccSIna8B.s:31362  .debug_str:000000000001f637 .LASF188
C:\Users\CYMR90~1\AppData\Local\Temp\ccSIna8B.s:27147  .debug_str:000000000000e954 .LASF189
C:\Users\CYMR90~1\AppData\Local\Temp\ccSIna8B.s:28479  .debug_str:0000000000013dfb .LASF190
C:\Users\CYMR90~1\AppData\Local\Temp\ccSIna8B.s:31856  .debug_str:00000000000213db .LASF191
C:\Users\CYMR90~1\AppData\Local\Temp\ccSIna8B.s:29203  .debug_str:0000000000016b0c .LASF192
C:\Users\CYMR90~1\AppData\Local\Temp\ccSIna8B.s:32092  .debug_str:00000000000222c7 .LASF193
C:\Users\CYMR90~1\AppData\Local\Temp\ccSIna8B.s:24955  .debug_str:0000000000005c67 .LASF194
C:\Users\CYMR90~1\AppData\Local\Temp\ccSIna8B.s:24311  .debug_str:0000000000003286 .LASF195
C:\Users\CYMR90~1\AppData\Local\Temp\ccSIna8B.s:26969  .debug_str:000000000000de76 .LASF196
C:\Users\CYMR90~1\AppData\Local\Temp\ccSIna8B.s:27895  .debug_str:00000000000117e3 .LASF197
C:\Users\CYMR90~1\AppData\Local\Temp\ccSIna8B.s:24803  .debug_str:00000000000052c9 .LASF198
C:\Users\CYMR90~1\AppData\Local\Temp\ccSIna8B.s:33604  .debug_str:0000000000028361 .LASF199
C:\Users\CYMR90~1\AppData\Local\Temp\ccSIna8B.s:31736  .debug_str:0000000000020cef .LASF200
C:\Users\CYMR90~1\AppData\Local\Temp\ccSIna8B.s:30844  .debug_str:000000000001d64a .LASF201
C:\Users\CYMR90~1\AppData\Local\Temp\ccSIna8B.s:25963  .debug_str:0000000000009d10 .LASF202
C:\Users\CYMR90~1\AppData\Local\Temp\ccSIna8B.s:34060  .debug_str:000000000002a124 .LASF203
C:\Users\CYMR90~1\AppData\Local\Temp\ccSIna8B.s:24323  .debug_str:0000000000003357 .LASF204
C:\Users\CYMR90~1\AppData\Local\Temp\ccSIna8B.s:27375  .debug_str:000000000000f718 .LASF205
C:\Users\CYMR90~1\AppData\Local\Temp\ccSIna8B.s:33794  .debug_str:0000000000029038 .LASF206
C:\Users\CYMR90~1\AppData\Local\Temp\ccSIna8B.s:28599  .debug_str:000000000001456d .LASF207
C:\Users\CYMR90~1\AppData\Local\Temp\ccSIna8B.s:31402  .debug_str:000000000001f86b .LASF208
C:\Users\CYMR90~1\AppData\Local\Temp\ccSIna8B.s:26587  .debug_str:000000000000c54e .LASF209
C:\Users\CYMR90~1\AppData\Local\Temp\ccSIna8B.s:34722  .debug_str:000000000002ca71 .LASF210
C:\Users\CYMR90~1\AppData\Local\Temp\ccSIna8B.s:28571  .debug_str:00000000000143d4 .LASF211
C:\Users\CYMR90~1\AppData\Local\Temp\ccSIna8B.s:31238  .debug_str:000000000001ee88 .LASF212
C:\Users\CYMR90~1\AppData\Local\Temp\ccSIna8B.s:29860  .debug_str:0000000000019624 .LASF213
C:\Users\CYMR90~1\AppData\Local\Temp\ccSIna8B.s:25043  .debug_str:0000000000006180 .LASF214
C:\Users\CYMR90~1\AppData\Local\Temp\ccSIna8B.s:28579  .debug_str:000000000001442f .LASF215
C:\Users\CYMR90~1\AppData\Local\Temp\ccSIna8B.s:29770  .debug_str:000000000001900c .LASF216
C:\Users\CYMR90~1\AppData\Local\Temp\ccSIna8B.s:31512  .debug_str:000000000001feff .LASF217
C:\Users\CYMR90~1\AppData\Local\Temp\ccSIna8B.s:27453  .debug_str:000000000000fce3 .LASF218
C:\Users\CYMR90~1\AppData\Local\Temp\ccSIna8B.s:32908  .debug_str:00000000000255e8 .LASF219
C:\Users\CYMR90~1\AppData\Local\Temp\ccSIna8B.s:32710  .debug_str:000000000002483c .LASF220
C:\Users\CYMR90~1\AppData\Local\Temp\ccSIna8B.s:32234  .debug_str:0000000000022b23 .LASF221
C:\Users\CYMR90~1\AppData\Local\Temp\ccSIna8B.s:28853  .debug_str:00000000000154dc .LASF222
C:\Users\CYMR90~1\AppData\Local\Temp\ccSIna8B.s:25013  .debug_str:0000000000005fb6 .LASF223
C:\Users\CYMR90~1\AppData\Local\Temp\ccSIna8B.s:25691  .debug_str:0000000000008c0f .LASF224
C:\Users\CYMR90~1\AppData\Local\Temp\ccSIna8B.s:34384  .debug_str:000000000002b42c .LASF225
C:\Users\CYMR90~1\AppData\Local\Temp\ccSIna8B.s:27037  .debug_str:000000000000e2e9 .LASF226
C:\Users\CYMR90~1\AppData\Local\Temp\ccSIna8B.s:30712  .debug_str:000000000001cce8 .LASF227
C:\Users\CYMR90~1\AppData\Local\Temp\ccSIna8B.s:30560  .debug_str:000000000001c36c .LASF228
C:\Users\CYMR90~1\AppData\Local\Temp\ccSIna8B.s:26983  .debug_str:000000000000df53 .LASF229
C:\Users\CYMR90~1\AppData\Local\Temp\ccSIna8B.s:31282  .debug_str:000000000001f114 .LASF230
C:\Users\CYMR90~1\AppData\Local\Temp\ccSIna8B.s:25743  .debug_str:0000000000008f6d .LASF231
C:\Users\CYMR90~1\AppData\Local\Temp\ccSIna8B.s:25055  .debug_str:0000000000006247 .LASF232
C:\Users\CYMR90~1\AppData\Local\Temp\ccSIna8B.s:25639  .debug_str:000000000000889e .LASF233
C:\Users\CYMR90~1\AppData\Local\Temp\ccSIna8B.s:27653  .debug_str:0000000000010909 .LASF234
C:\Users\CYMR90~1\AppData\Local\Temp\ccSIna8B.s:27373  .debug_str:000000000000f6fe .LASF235
C:\Users\CYMR90~1\AppData\Local\Temp\ccSIna8B.s:32450  .debug_str:00000000000237f5 .LASF236
C:\Users\CYMR90~1\AppData\Local\Temp\ccSIna8B.s:27393  .debug_str:000000000000f8bd .LASF237
C:\Users\CYMR90~1\AppData\Local\Temp\ccSIna8B.s:33132  .debug_str:00000000000264a8 .LASF238
C:\Users\CYMR90~1\AppData\Local\Temp\ccSIna8B.s:32434  .debug_str:00000000000236ca .LASF239
C:\Users\CYMR90~1\AppData\Local\Temp\ccSIna8B.s:32670  .debug_str:0000000000024626 .LASF240
C:\Users\CYMR90~1\AppData\Local\Temp\ccSIna8B.s:25453  .debug_str:0000000000007c00 .LASF241
C:\Users\CYMR90~1\AppData\Local\Temp\ccSIna8B.s:27059  .debug_str:000000000000e403 .LASF242
C:\Users\CYMR90~1\AppData\Local\Temp\ccSIna8B.s:28047  .debug_str:00000000000121b9 .LASF243
C:\Users\CYMR90~1\AppData\Local\Temp\ccSIna8B.s:32460  .debug_str:000000000002386d .LASF244
C:\Users\CYMR90~1\AppData\Local\Temp\ccSIna8B.s:28237  .debug_str:0000000000012e65 .LASF245
C:\Users\CYMR90~1\AppData\Local\Temp\ccSIna8B.s:31294  .debug_str:000000000001f1f9 .LASF246
C:\Users\CYMR90~1\AppData\Local\Temp\ccSIna8B.s:29628  .debug_str:00000000000186c9 .LASF247
C:\Users\CYMR90~1\AppData\Local\Temp\ccSIna8B.s:29135  .debug_str:000000000001661a .LASF248
C:\Users\CYMR90~1\AppData\Local\Temp\ccSIna8B.s:30648  .debug_str:000000000001c870 .LASF249
C:\Users\CYMR90~1\AppData\Local\Temp\ccSIna8B.s:30028  .debug_str:000000000001a11d .LASF250
C:\Users\CYMR90~1\AppData\Local\Temp\ccSIna8B.s:33118  .debug_str:0000000000026420 .LASF251
C:\Users\CYMR90~1\AppData\Local\Temp\ccSIna8B.s:32282  .debug_str:0000000000022e70 .LASF252
C:\Users\CYMR90~1\AppData\Local\Temp\ccSIna8B.s:26953  .debug_str:000000000000ddb4 .LASF253
C:\Users\CYMR90~1\AppData\Local\Temp\ccSIna8B.s:32986  .debug_str:0000000000025bc5 .LASF254
C:\Users\CYMR90~1\AppData\Local\Temp\ccSIna8B.s:26805  .debug_str:000000000000d440 .LASF255
C:\Users\CYMR90~1\AppData\Local\Temp\ccSIna8B.s:29934  .debug_str:0000000000019b71 .LASF256
C:\Users\CYMR90~1\AppData\Local\Temp\ccSIna8B.s:27055  .debug_str:000000000000e3de .LASF257
C:\Users\CYMR90~1\AppData\Local\Temp\ccSIna8B.s:31224  .debug_str:000000000001ed95 .LASF258
C:\Users\CYMR90~1\AppData\Local\Temp\ccSIna8B.s:26257  .debug_str:000000000000aede .LASF259
C:\Users\CYMR90~1\AppData\Local\Temp\ccSIna8B.s:23669  .debug_str:0000000000000a95 .LASF260
C:\Users\CYMR90~1\AppData\Local\Temp\ccSIna8B.s:34114  .debug_str:000000000002a423 .LASF261
C:\Users\CYMR90~1\AppData\Local\Temp\ccSIna8B.s:33584  .debug_str:00000000000281c0 .LASF262
C:\Users\CYMR90~1\AppData\Local\Temp\ccSIna8B.s:28553  .debug_str:000000000001428c .LASF263
C:\Users\CYMR90~1\AppData\Local\Temp\ccSIna8B.s:30532  .debug_str:000000000001c205 .LASF264
C:\Users\CYMR90~1\AppData\Local\Temp\ccSIna8B.s:27503  .debug_str:000000000001004f .LASF265
C:\Users\CYMR90~1\AppData\Local\Temp\ccSIna8B.s:26985  .debug_str:000000000000df94 .LASF266
C:\Users\CYMR90~1\AppData\Local\Temp\ccSIna8B.s:26305  .debug_str:000000000000b29a .LASF267
C:\Users\CYMR90~1\AppData\Local\Temp\ccSIna8B.s:30636  .debug_str:000000000001c791 .LASF268
C:\Users\CYMR90~1\AppData\Local\Temp\ccSIna8B.s:26615  .debug_str:000000000000c6f6 .LASF269
C:\Users\CYMR90~1\AppData\Local\Temp\ccSIna8B.s:27567  .debug_str:000000000001042d .LASF270
C:\Users\CYMR90~1\AppData\Local\Temp\ccSIna8B.s:28341  .debug_str:0000000000013523 .LASF271
C:\Users\CYMR90~1\AppData\Local\Temp\ccSIna8B.s:33232  .debug_str:0000000000026b04 .LASF272
C:\Users\CYMR90~1\AppData\Local\Temp\ccSIna8B.s:25211  .debug_str:0000000000006bd9 .LASF273
C:\Users\CYMR90~1\AppData\Local\Temp\ccSIna8B.s:24119  .debug_str:0000000000002566 .LASF274
C:\Users\CYMR90~1\AppData\Local\Temp\ccSIna8B.s:25309  .debug_str:0000000000007247 .LASF275
C:\Users\CYMR90~1\AppData\Local\Temp\ccSIna8B.s:24377  .debug_str:00000000000036b0 .LASF276
C:\Users\CYMR90~1\AppData\Local\Temp\ccSIna8B.s:26503  .debug_str:000000000000c025 .LASF277
C:\Users\CYMR90~1\AppData\Local\Temp\ccSIna8B.s:23809  .debug_str:000000000000135e .LASF278
C:\Users\CYMR90~1\AppData\Local\Temp\ccSIna8B.s:25137  .debug_str:0000000000006709 .LASF279
C:\Users\CYMR90~1\AppData\Local\Temp\ccSIna8B.s:33910  .debug_str:0000000000029803 .LASF280
C:\Users\CYMR90~1\AppData\Local\Temp\ccSIna8B.s:26013  .debug_str:000000000000a001 .LASF281
C:\Users\CYMR90~1\AppData\Local\Temp\ccSIna8B.s:25101  .debug_str:0000000000006532 .LASF282
C:\Users\CYMR90~1\AppData\Local\Temp\ccSIna8B.s:25007  .debug_str:0000000000005f64 .LASF283
C:\Users\CYMR90~1\AppData\Local\Temp\ccSIna8B.s:24757  .debug_str:0000000000005029 .LASF284
C:\Users\CYMR90~1\AppData\Local\Temp\ccSIna8B.s:32780  .debug_str:0000000000024d06 .LASF285
C:\Users\CYMR90~1\AppData\Local\Temp\ccSIna8B.s:33616  .debug_str:0000000000028457 .LASF286
C:\Users\CYMR90~1\AppData\Local\Temp\ccSIna8B.s:33896  .debug_str:000000000002969b .LASF287
C:\Users\CYMR90~1\AppData\Local\Temp\ccSIna8B.s:33808  .debug_str:0000000000029109 .LASF288
C:\Users\CYMR90~1\AppData\Local\Temp\ccSIna8B.s:34652  .debug_str:000000000002c617 .LASF289
C:\Users\CYMR90~1\AppData\Local\Temp\ccSIna8B.s:29572  .debug_str:000000000001837d .LASF290
C:\Users\CYMR90~1\AppData\Local\Temp\ccSIna8B.s:28603  .debug_str:0000000000014593 .LASF291
C:\Users\CYMR90~1\AppData\Local\Temp\ccSIna8B.s:32818  .debug_str:0000000000024f9e .LASF292
C:\Users\CYMR90~1\AppData\Local\Temp\ccSIna8B.s:24403  .debug_str:00000000000038ab .LASF293
C:\Users\CYMR90~1\AppData\Local\Temp\ccSIna8B.s:31748  .debug_str:0000000000020dbe .LASF294
C:\Users\CYMR90~1\AppData\Local\Temp\ccSIna8B.s:24677  .debug_str:0000000000004b2d .LASF295
C:\Users\CYMR90~1\AppData\Local\Temp\ccSIna8B.s:34242  .debug_str:000000000002abf5 .LASF296
C:\Users\CYMR90~1\AppData\Local\Temp\ccSIna8B.s:34434  .debug_str:000000000002b7b3 .LASF297
C:\Users\CYMR90~1\AppData\Local\Temp\ccSIna8B.s:29446  .debug_str:0000000000017c0d .LASF298
C:\Users\CYMR90~1\AppData\Local\Temp\ccSIna8B.s:23653  .debug_str:000000000000098f .LASF299
C:\Users\CYMR90~1\AppData\Local\Temp\ccSIna8B.s:27475  .debug_str:000000000000fe7d .LASF300
C:\Users\CYMR90~1\AppData\Local\Temp\ccSIna8B.s:30204  .debug_str:000000000001ad69 .LASF301
C:\Users\CYMR90~1\AppData\Local\Temp\ccSIna8B.s:28709  .debug_str:0000000000014be4 .LASF302
C:\Users\CYMR90~1\AppData\Local\Temp\ccSIna8B.s:28185  .debug_str:0000000000012b2d .LASF303
C:\Users\CYMR90~1\AppData\Local\Temp\ccSIna8B.s:24041  .debug_str:00000000000020c1 .LASF304
C:\Users\CYMR90~1\AppData\Local\Temp\ccSIna8B.s:26623  .debug_str:000000000000c77a .LASF305
C:\Users\CYMR90~1\AppData\Local\Temp\ccSIna8B.s:31958  .debug_str:0000000000021ac2 .LASF306
C:\Users\CYMR90~1\AppData\Local\Temp\ccSIna8B.s:27493  .debug_str:000000000000ffaa .LASF307
C:\Users\CYMR90~1\AppData\Local\Temp\ccSIna8B.s:32800  .debug_str:0000000000024e5c .LASF308
C:\Users\CYMR90~1\AppData\Local\Temp\ccSIna8B.s:32406  .debug_str:000000000002352a .LASF309
C:\Users\CYMR90~1\AppData\Local\Temp\ccSIna8B.s:27039  .debug_str:000000000000e302 .LASF310
C:\Users\CYMR90~1\AppData\Local\Temp\ccSIna8B.s:33128  .debug_str:000000000002647d .LASF311
C:\Users\CYMR90~1\AppData\Local\Temp\ccSIna8B.s:32626  .debug_str:00000000000242fb .LASF312
C:\Users\CYMR90~1\AppData\Local\Temp\ccSIna8B.s:26745  .debug_str:000000000000d023 .LASF313
C:\Users\CYMR90~1\AppData\Local\Temp\ccSIna8B.s:29716  .debug_str:0000000000018c1b .LASF316
C:\Users\CYMR90~1\AppData\Local\Temp\ccSIna8B.s:30078  .debug_str:000000000001a41b .LASF317
C:\Users\CYMR90~1\AppData\Local\Temp\ccSIna8B.s:30424  .debug_str:000000000001bb34 .LASF318
C:\Users\CYMR90~1\AppData\Local\Temp\ccSIna8B.s:27483  .debug_str:000000000000ff1a .LASF319
C:\Users\CYMR90~1\AppData\Local\Temp\ccSIna8B.s:26375  .debug_str:000000000000b746 .LASF320
C:\Users\CYMR90~1\AppData\Local\Temp\ccSIna8B.s:33856  .debug_str:0000000000029441 .LASF321
C:\Users\CYMR90~1\AppData\Local\Temp\ccSIna8B.s:26951  .debug_str:000000000000dda7 .LASF322
C:\Users\CYMR90~1\AppData\Local\Temp\ccSIna8B.s:33078  .debug_str:000000000002616f .LASF323
C:\Users\CYMR90~1\AppData\Local\Temp\ccSIna8B.s:23529  .debug_str:0000000000000257 .LASF324
C:\Users\CYMR90~1\AppData\Local\Temp\ccSIna8B.s:34264  .debug_str:000000000002ad22 .LASF325
C:\Users\CYMR90~1\AppData\Local\Temp\ccSIna8B.s:24459  .debug_str:0000000000003c1b .LASF326
C:\Users\CYMR90~1\AppData\Local\Temp\ccSIna8B.s:28541  .debug_str:00000000000141cc .LASF327
C:\Users\CYMR90~1\AppData\Local\Temp\ccSIna8B.s:28187  .debug_str:0000000000012b42 .LASF328
C:\Users\CYMR90~1\AppData\Local\Temp\ccSIna8B.s:31074  .debug_str:000000000001e527 .LASF329
C:\Users\CYMR90~1\AppData\Local\Temp\ccSIna8B.s:31066  .debug_str:000000000001e4d6 .LASF330
C:\Users\CYMR90~1\AppData\Local\Temp\ccSIna8B.s:33272  .debug_str:0000000000026d8b .LASF331
C:\Users\CYMR90~1\AppData\Local\Temp\ccSIna8B.s:33836  .debug_str:00000000000292ef .LASF332
C:\Users\CYMR90~1\AppData\Local\Temp\ccSIna8B.s:34024  .debug_str:0000000000029efd .LASF333
C:\Users\CYMR90~1\AppData\Local\Temp\ccSIna8B.s:30052  .debug_str:000000000001a29b .LASF334
C:\Users\CYMR90~1\AppData\Local\Temp\ccSIna8B.s:29492  .debug_str:0000000000017eca .LASF335
C:\Users\CYMR90~1\AppData\Local\Temp\ccSIna8B.s:33878  .debug_str:00000000000295af .LASF336
C:\Users\CYMR90~1\AppData\Local\Temp\ccSIna8B.s:28115  .debug_str:0000000000012653 .LASF337
C:\Users\CYMR90~1\AppData\Local\Temp\ccSIna8B.s:31804  .debug_str:00000000000210eb .LASF338
C:\Users\CYMR90~1\AppData\Local\Temp\ccSIna8B.s:26129  .debug_str:000000000000a712 .LASF339
C:\Users\CYMR90~1\AppData\Local\Temp\ccSIna8B.s:28319  .debug_str:00000000000133f5 .LASF340
C:\Users\CYMR90~1\AppData\Local\Temp\ccSIna8B.s:30254  .debug_str:000000000001b065 .LASF341
C:\Users\CYMR90~1\AppData\Local\Temp\ccSIna8B.s:26439  .debug_str:000000000000bb89 .LASF342
C:\Users\CYMR90~1\AppData\Local\Temp\ccSIna8B.s:23789  .debug_str:000000000000125d .LASF343
C:\Users\CYMR90~1\AppData\Local\Temp\ccSIna8B.s:33992  .debug_str:0000000000029d18 .LASF344
C:\Users\CYMR90~1\AppData\Local\Temp\ccSIna8B.s:34594  .debug_str:000000000002c214 .LASF345
C:\Users\CYMR90~1\AppData\Local\Temp\ccSIna8B.s:27363  .debug_str:000000000000f676 .LASF346
C:\Users\CYMR90~1\AppData\Local\Temp\ccSIna8B.s:23641  .debug_str:00000000000008d8 .LASF347
C:\Users\CYMR90~1\AppData\Local\Temp\ccSIna8B.s:31596  .debug_str:000000000002040f .LASF348
C:\Users\CYMR90~1\AppData\Local\Temp\ccSIna8B.s:33594  .debug_str:000000000002828f .LASF349
C:\Users\CYMR90~1\AppData\Local\Temp\ccSIna8B.s:31068  .debug_str:000000000001e4e2 .LASF350
C:\Users\CYMR90~1\AppData\Local\Temp\ccSIna8B.s:23569  .debug_str:00000000000004f1 .LASF351
C:\Users\CYMR90~1\AppData\Local\Temp\ccSIna8B.s:31366  .debug_str:000000000001f667 .LASF352
C:\Users\CYMR90~1\AppData\Local\Temp\ccSIna8B.s:33070  .debug_str:0000000000026105 .LASF353
C:\Users\CYMR90~1\AppData\Local\Temp\ccSIna8B.s:30698  .debug_str:000000000001cc36 .LASF354
C:\Users\CYMR90~1\AppData\Local\Temp\ccSIna8B.s:30858  .debug_str:000000000001d740 .LASF355
C:\Users\CYMR90~1\AppData\Local\Temp\ccSIna8B.s:26831  .debug_str:000000000000d67e .LASF356
C:\Users\CYMR90~1\AppData\Local\Temp\ccSIna8B.s:30010  .debug_str:000000000001a029 .LASF357
C:\Users\CYMR90~1\AppData\Local\Temp\ccSIna8B.s:33500  .debug_str:0000000000027c27 .LASF358
C:\Users\CYMR90~1\AppData\Local\Temp\ccSIna8B.s:28177  .debug_str:0000000000012a82 .LASF359
C:\Users\CYMR90~1\AppData\Local\Temp\ccSIna8B.s:26227  .debug_str:000000000000ad16 .LASF360
C:\Users\CYMR90~1\AppData\Local\Temp\ccSIna8B.s:31240  .debug_str:000000000001eea0 .LASF361
C:\Users\CYMR90~1\AppData\Local\Temp\ccSIna8B.s:27921  .debug_str:0000000000011999 .LASF362
C:\Users\CYMR90~1\AppData\Local\Temp\ccSIna8B.s:33772  .debug_str:0000000000028f08 .LASF363
C:\Users\CYMR90~1\AppData\Local\Temp\ccSIna8B.s:25773  .debug_str:000000000000916e .LASF364
C:\Users\CYMR90~1\AppData\Local\Temp\ccSIna8B.s:33664  .debug_str:00000000000287db .LASF365
C:\Users\CYMR90~1\AppData\Local\Temp\ccSIna8B.s:25171  .debug_str:0000000000006989 .LASF366
C:\Users\CYMR90~1\AppData\Local\Temp\ccSIna8B.s:28311  .debug_str:0000000000013357 .LASF367
C:\Users\CYMR90~1\AppData\Local\Temp\ccSIna8B.s:25461  .debug_str:0000000000007c7e .LASF368
C:\Users\CYMR90~1\AppData\Local\Temp\ccSIna8B.s:29538  .debug_str:000000000001818f .LASF372
C:\Users\CYMR90~1\AppData\Local\Temp\ccSIna8B.s:33312  .debug_str:0000000000027001 .LASF373
C:\Users\CYMR90~1\AppData\Local\Temp\ccSIna8B.s:26209  .debug_str:000000000000abe4 .LASF374
C:\Users\CYMR90~1\AppData\Local\Temp\ccSIna8B.s:29322  .debug_str:0000000000017470 .LASF375
C:\Users\CYMR90~1\AppData\Local\Temp\ccSIna8B.s:29522  .debug_str:00000000000180a9 .LASF376
C:\Users\CYMR90~1\AppData\Local\Temp\ccSIna8B.s:32056  .debug_str:00000000000220b0 .LASF377
C:\Users\CYMR90~1\AppData\Local\Temp\ccSIna8B.s:30714  .debug_str:000000000001cd01 .LASF378
C:\Users\CYMR90~1\AppData\Local\Temp\ccSIna8B.s:34426  .debug_str:000000000002b740 .LASF379
C:\Users\CYMR90~1\AppData\Local\Temp\ccSIna8B.s:24133  .debug_str:0000000000002664 .LASF380
C:\Users\CYMR90~1\AppData\Local\Temp\ccSIna8B.s:34364  .debug_str:000000000002b328 .LASF381
C:\Users\CYMR90~1\AppData\Local\Temp\ccSIna8B.s:30432  .debug_str:000000000001bb85 .LASF382
C:\Users\CYMR90~1\AppData\Local\Temp\ccSIna8B.s:25227  .debug_str:0000000000006ce6 .LASF383
C:\Users\CYMR90~1\AppData\Local\Temp\ccSIna8B.s:26589  .debug_str:000000000000c569 .LASF384
C:\Users\CYMR90~1\AppData\Local\Temp\ccSIna8B.s:29950  .debug_str:0000000000019c8e .LASF385
C:\Users\CYMR90~1\AppData\Local\Temp\ccSIna8B.s:27599  .debug_str:00000000000105ef .LASF386
C:\Users\CYMR90~1\AppData\Local\Temp\ccSIna8B.s:24067  .debug_str:0000000000002260 .LASF387
C:\Users\CYMR90~1\AppData\Local\Temp\ccSIna8B.s:27209  .debug_str:000000000000ed05 .LASF388
C:\Users\CYMR90~1\AppData\Local\Temp\ccSIna8B.s:25741  .debug_str:0000000000008f59 .LASF389
C:\Users\CYMR90~1\AppData\Local\Temp\ccSIna8B.s:24547  .debug_str:000000000000426a .LASF391
C:\Users\CYMR90~1\AppData\Local\Temp\ccSIna8B.s:27607  .debug_str:000000000001065b .LASF392
C:\Users\CYMR90~1\AppData\Local\Temp\ccSIna8B.s:31696  .debug_str:0000000000020a54 .LASF393
C:\Users\CYMR90~1\AppData\Local\Temp\ccSIna8B.s:33456  .debug_str:0000000000027981 .LASF394
C:\Users\CYMR90~1\AppData\Local\Temp\ccSIna8B.s:24093  .debug_str:00000000000023be .LASF395
C:\Users\CYMR90~1\AppData\Local\Temp\ccSIna8B.s:26251  .debug_str:000000000000ae7a .LASF396
C:\Users\CYMR90~1\AppData\Local\Temp\ccSIna8B.s:30058  .debug_str:000000000001a2fb .LASF397
C:\Users\CYMR90~1\AppData\Local\Temp\ccSIna8B.s:34240  .debug_str:000000000002abe3 .LASF398
C:\Users\CYMR90~1\AppData\Local\Temp\ccSIna8B.s:28885  .debug_str:00000000000156b5 .LASF399
C:\Users\CYMR90~1\AppData\Local\Temp\ccSIna8B.s:31324  .debug_str:000000000001f3c4 .LASF400
C:\Users\CYMR90~1\AppData\Local\Temp\ccSIna8B.s:25731  .debug_str:0000000000008e64 .LASF401
C:\Users\CYMR90~1\AppData\Local\Temp\ccSIna8B.s:29376  .debug_str:0000000000017790 .LASF402
C:\Users\CYMR90~1\AppData\Local\Temp\ccSIna8B.s:25071  .debug_str:0000000000006348 .LASF403
C:\Users\CYMR90~1\AppData\Local\Temp\ccSIna8B.s:26185  .debug_str:000000000000aa56 .LASF404
C:\Users\CYMR90~1\AppData\Local\Temp\ccSIna8B.s:27267  .debug_str:000000000000f097 .LASF405
C:\Users\CYMR90~1\AppData\Local\Temp\ccSIna8B.s:30620  .debug_str:000000000001c6b1 .LASF406
C:\Users\CYMR90~1\AppData\Local\Temp\ccSIna8B.s:28805  .debug_str:000000000001522f .LASF407
C:\Users\CYMR90~1\AppData\Local\Temp\ccSIna8B.s:29790  .debug_str:0000000000019109 .LASF408
C:\Users\CYMR90~1\AppData\Local\Temp\ccSIna8B.s:32002  .debug_str:0000000000021d5b .LASF409
C:\Users\CYMR90~1\AppData\Local\Temp\ccSIna8B.s:25025  .debug_str:0000000000006071 .LASF410
C:\Users\CYMR90~1\AppData\Local\Temp\ccSIna8B.s:28993  .debug_str:0000000000015cc7 .LASF411
C:\Users\CYMR90~1\AppData\Local\Temp\ccSIna8B.s:32128  .debug_str:000000000002250e .LASF412
C:\Users\CYMR90~1\AppData\Local\Temp\ccSIna8B.s:25203  .debug_str:0000000000006b79 .LASF413
C:\Users\CYMR90~1\AppData\Local\Temp\ccSIna8B.s:33870  .debug_str:0000000000029523 .LASF414
C:\Users\CYMR90~1\AppData\Local\Temp\ccSIna8B.s:27365  .debug_str:000000000000f684 .LASF415
C:\Users\CYMR90~1\AppData\Local\Temp\ccSIna8B.s:33188  .debug_str:0000000000026849 .LASF416
C:\Users\CYMR90~1\AppData\Local\Temp\ccSIna8B.s:32680  .debug_str:000000000002469b .LASF417
C:\Users\CYMR90~1\AppData\Local\Temp\ccSIna8B.s:25657  .debug_str:00000000000089c7 .LASF418
C:\Users\CYMR90~1\AppData\Local\Temp\ccSIna8B.s:34086  .debug_str:000000000002a2a1 .LASF419
C:\Users\CYMR90~1\AppData\Local\Temp\ccSIna8B.s:25277  .debug_str:0000000000007030 .LASF420
C:\Users\CYMR90~1\AppData\Local\Temp\ccSIna8B.s:34284  .debug_str:000000000002ae37 .LASF421
C:\Users\CYMR90~1\AppData\Local\Temp\ccSIna8B.s:26515  .debug_str:000000000000c102 .LASF422
C:\Users\CYMR90~1\AppData\Local\Temp\ccSIna8B.s:26723  .debug_str:000000000000cf03 .LASF423
C:\Users\CYMR90~1\AppData\Local\Temp\ccSIna8B.s:31216  .debug_str:000000000001ed2d .LASF424
C:\Users\CYMR90~1\AppData\Local\Temp\ccSIna8B.s:29828  .debug_str:0000000000019447 .LASF425
C:\Users\CYMR90~1\AppData\Local\Temp\ccSIna8B.s:23541  .debug_str:0000000000000320 .LASF426
C:\Users\CYMR90~1\AppData\Local\Temp\ccSIna8B.s:33780  .debug_str:0000000000028f8c .LASF427
C:\Users\CYMR90~1\AppData\Local\Temp\ccSIna8B.s:29073  .debug_str:0000000000016281 .LASF428
C:\Users\CYMR90~1\AppData\Local\Temp\ccSIna8B.s:30994  .debug_str:000000000001e063 .LASF429
C:\Users\CYMR90~1\AppData\Local\Temp\ccSIna8B.s:27547  .debug_str:00000000000102f0 .LASF430
C:\Users\CYMR90~1\AppData\Local\Temp\ccSIna8B.s:29274  .debug_str:00000000000171ad .LASF431
C:\Users\CYMR90~1\AppData\Local\Temp\ccSIna8B.s:34168  .debug_str:000000000002a729 .LASF432
C:\Users\CYMR90~1\AppData\Local\Temp\ccSIna8B.s:26705  .debug_str:000000000000ce06 .LASF434
C:\Users\CYMR90~1\AppData\Local\Temp\ccSIna8B.s:24731  .debug_str:0000000000004e8b .LASF435
C:\Users\CYMR90~1\AppData\Local\Temp\ccSIna8B.s:29466  .debug_str:0000000000017d45 .LASF436
C:\Users\CYMR90~1\AppData\Local\Temp\ccSIna8B.s:25297  .debug_str:000000000000716c .LASF437
C:\Users\CYMR90~1\AppData\Local\Temp\ccSIna8B.s:33798  .debug_str:0000000000029074 .LASF438
C:\Users\CYMR90~1\AppData\Local\Temp\ccSIna8B.s:23503  .debug_str:00000000000000c7 .LASF439
C:\Users\CYMR90~1\AppData\Local\Temp\ccSIna8B.s:31258  .debug_str:000000000001efb4 .LASF440
C:\Users\CYMR90~1\AppData\Local\Temp\ccSIna8B.s:26959  .debug_str:000000000000de0c .LASF441
C:\Users\CYMR90~1\AppData\Local\Temp\ccSIna8B.s:32310  .debug_str:0000000000022fff .LASF442
C:\Users\CYMR90~1\AppData\Local\Temp\ccSIna8B.s:27847  .debug_str:00000000000114e6 .LASF443
C:\Users\CYMR90~1\AppData\Local\Temp\ccSIna8B.s:27683  .debug_str:0000000000010ad3 .LASF444
C:\Users\CYMR90~1\AppData\Local\Temp\ccSIna8B.s:34714  .debug_str:000000000002ca20 .LASF445
C:\Users\CYMR90~1\AppData\Local\Temp\ccSIna8B.s:34650  .debug_str:000000000002c611 .LASF446
C:\Users\CYMR90~1\AppData\Local\Temp\ccSIna8B.s:34268  .debug_str:000000000002ad4c .LASF447
C:\Users\CYMR90~1\AppData\Local\Temp\ccSIna8B.s:31952  .debug_str:0000000000021a67 .LASF448
C:\Users\CYMR90~1\AppData\Local\Temp\ccSIna8B.s:24559  .debug_str:0000000000004309 .LASF449
C:\Users\CYMR90~1\AppData\Local\Temp\ccSIna8B.s:25317  .debug_str:00000000000072d5 .LASF450
C:\Users\CYMR90~1\AppData\Local\Temp\ccSIna8B.s:25935  .debug_str:0000000000009b54 .LASF451
C:\Users\CYMR90~1\AppData\Local\Temp\ccSIna8B.s:28717  .debug_str:0000000000014c86 .LASF452
C:\Users\CYMR90~1\AppData\Local\Temp\ccSIna8B.s:24011  .debug_str:0000000000001f45 .LASF453
C:\Users\CYMR90~1\AppData\Local\Temp\ccSIna8B.s:34656  .debug_str:000000000002c64a .LASF454
C:\Users\CYMR90~1\AppData\Local\Temp\ccSIna8B.s:27131  .debug_str:000000000000e818 .LASF455
C:\Users\CYMR90~1\AppData\Local\Temp\ccSIna8B.s:31902  .debug_str:000000000002173e .LASF456
C:\Users\CYMR90~1\AppData\Local\Temp\ccSIna8B.s:26801  .debug_str:000000000000d41e .LASF457
C:\Users\CYMR90~1\AppData\Local\Temp\ccSIna8B.s:25083  .debug_str:00000000000063f5 .LASF458
C:\Users\CYMR90~1\AppData\Local\Temp\ccSIna8B.s:27751  .debug_str:0000000000010f7c .LASF459
C:\Users\CYMR90~1\AppData\Local\Temp\ccSIna8B.s:31650  .debug_str:00000000000207b7 .LASF460
C:\Users\CYMR90~1\AppData\Local\Temp\ccSIna8B.s:32806  .debug_str:0000000000024ebf .LASF461
C:\Users\CYMR90~1\AppData\Local\Temp\ccSIna8B.s:29235  .debug_str:0000000000016d81 .LASF462
C:\Users\CYMR90~1\AppData\Local\Temp\ccSIna8B.s:30110  .debug_str:000000000001a792 .LASF463
C:\Users\CYMR90~1\AppData\Local\Temp\ccSIna8B.s:26975  .debug_str:000000000000ded8 .LASF464
C:\Users\CYMR90~1\AppData\Local\Temp\ccSIna8B.s:28127  .debug_str:0000000000012766 .LASF465
C:\Users\CYMR90~1\AppData\Local\Temp\ccSIna8B.s:25221  .debug_str:0000000000006ca0 .LASF466
C:\Users\CYMR90~1\AppData\Local\Temp\ccSIna8B.s:25791  .debug_str:0000000000009251 .LASF467
C:\Users\CYMR90~1\AppData\Local\Temp\ccSIna8B.s:27893  .debug_str:00000000000117cc .LASF468
C:\Users\CYMR90~1\AppData\Local\Temp\ccSIna8B.s:24357  .debug_str:0000000000003598 .LASF469
C:\Users\CYMR90~1\AppData\Local\Temp\ccSIna8B.s:27643  .debug_str:000000000001086c .LASF470
C:\Users\CYMR90~1\AppData\Local\Temp\ccSIna8B.s:27523  .debug_str:000000000001017a .LASF471
C:\Users\CYMR90~1\AppData\Local\Temp\ccSIna8B.s:27103  .debug_str:000000000000e67c .LASF472
C:\Users\CYMR90~1\AppData\Local\Temp\ccSIna8B.s:23723  .debug_str:0000000000000dfa .LASF473
C:\Users\CYMR90~1\AppData\Local\Temp\ccSIna8B.s:25343  .debug_str:00000000000074d6 .LASF474
C:\Users\CYMR90~1\AppData\Local\Temp\ccSIna8B.s:23671  .debug_str:0000000000000ad3 .LASF475
C:\Users\CYMR90~1\AppData\Local\Temp\ccSIna8B.s:24525  .debug_str:0000000000004080 .LASF476
C:\Users\CYMR90~1\AppData\Local\Temp\ccSIna8B.s:23895  .debug_str:0000000000001872 .LASF477
C:\Users\CYMR90~1\AppData\Local\Temp\ccSIna8B.s:29019  .debug_str:0000000000015eb5 .LASF478
C:\Users\CYMR90~1\AppData\Local\Temp\ccSIna8B.s:26393  .debug_str:000000000000b8a0 .LASF479
C:\Users\CYMR90~1\AppData\Local\Temp\ccSIna8B.s:34280  .debug_str:000000000002ae07 .LASF480
C:\Users\CYMR90~1\AppData\Local\Temp\ccSIna8B.s:29622  .debug_str:000000000001866f .LASF481
C:\Users\CYMR90~1\AppData\Local\Temp\ccSIna8B.s:26315  .debug_str:000000000000b32f .LASF482
C:\Users\CYMR90~1\AppData\Local\Temp\ccSIna8B.s:25123  .debug_str:0000000000006668 .LASF483
C:\Users\CYMR90~1\AppData\Local\Temp\ccSIna8B.s:23637  .debug_str:0000000000000891 .LASF484
C:\Users\CYMR90~1\AppData\Local\Temp\ccSIna8B.s:29570  .debug_str:000000000001835a .LASF485
C:\Users\CYMR90~1\AppData\Local\Temp\ccSIna8B.s:24741  .debug_str:0000000000004f29 .LASF486
C:\Users\CYMR90~1\AppData\Local\Temp\ccSIna8B.s:28477  .debug_str:0000000000013de5 .LASF487
C:\Users\CYMR90~1\AppData\Local\Temp\ccSIna8B.s:27671  .debug_str:0000000000010a2f .LASF488
C:\Users\CYMR90~1\AppData\Local\Temp\ccSIna8B.s:28241  .debug_str:0000000000012ec7 .LASF489
C:\Users\CYMR90~1\AppData\Local\Temp\ccSIna8B.s:26679  .debug_str:000000000000cc7d .LASF490
C:\Users\CYMR90~1\AppData\Local\Temp\ccSIna8B.s:25655  .debug_str:00000000000089b9 .LASF491
C:\Users\CYMR90~1\AppData\Local\Temp\ccSIna8B.s:27323  .debug_str:000000000000f3ec .LASF492
C:\Users\CYMR90~1\AppData\Local\Temp\ccSIna8B.s:27633  .debug_str:00000000000107f0 .LASF493
C:\Users\CYMR90~1\AppData\Local\Temp\ccSIna8B.s:27529  .debug_str:00000000000101ee .LASF494
C:\Users\CYMR90~1\AppData\Local\Temp\ccSIna8B.s:29818  .debug_str:00000000000193ac .LASF495
C:\Users\CYMR90~1\AppData\Local\Temp\ccSIna8B.s:34740  .debug_str:000000000002cb9c .LASF496
C:\Users\CYMR90~1\AppData\Local\Temp\ccSIna8B.s:34672  .debug_str:000000000002c7a4 .LASF497
C:\Users\CYMR90~1\AppData\Local\Temp\ccSIna8B.s:27369  .debug_str:000000000000f6cb .LASF498
C:\Users\CYMR90~1\AppData\Local\Temp\ccSIna8B.s:33894  .debug_str:0000000000029676 .LASF499
C:\Users\CYMR90~1\AppData\Local\Temp\ccSIna8B.s:33996  .debug_str:0000000000029d3b .LASF500
C:\Users\CYMR90~1\AppData\Local\Temp\ccSIna8B.s:30042  .debug_str:000000000001a1fd .LASF501
C:\Users\CYMR90~1\AppData\Local\Temp\ccSIna8B.s:33946  .debug_str:0000000000029a69 .LASF502
C:\Users\CYMR90~1\AppData\Local\Temp\ccSIna8B.s:28633  .debug_str:0000000000014738 .LASF503
C:\Users\CYMR90~1\AppData\Local\Temp\ccSIna8B.s:24221  .debug_str:0000000000002c88 .LASF504
C:\Users\CYMR90~1\AppData\Local\Temp\ccSIna8B.s:32562  .debug_str:0000000000023e37 .LASF505
C:\Users\CYMR90~1\AppData\Local\Temp\ccSIna8B.s:33452  .debug_str:0000000000027946 .LASF506
C:\Users\CYMR90~1\AppData\Local\Temp\ccSIna8B.s:33028  .debug_str:0000000000025e72 .LASF507
C:\Users\CYMR90~1\AppData\Local\Temp\ccSIna8B.s:29736  .debug_str:0000000000018d29 .LASF508
C:\Users\CYMR90~1\AppData\Local\Temp\ccSIna8B.s:31990  .debug_str:0000000000021c5f .LASF509
C:\Users\CYMR90~1\AppData\Local\Temp\ccSIna8B.s:33682  .debug_str:0000000000028926 .LASF510
C:\Users\CYMR90~1\AppData\Local\Temp\ccSIna8B.s:29510  .debug_str:0000000000017fc1 .LASF511
C:\Users\CYMR90~1\AppData\Local\Temp\ccSIna8B.s:33298  .debug_str:0000000000026eea .LASF512
C:\Users\CYMR90~1\AppData\Local\Temp\ccSIna8B.s:33422  .debug_str:000000000002778c .LASF513
C:\Users\CYMR90~1\AppData\Local\Temp\ccSIna8B.s:33876  .debug_str:0000000000029574 .LASF514
C:\Users\CYMR90~1\AppData\Local\Temp\ccSIna8B.s:28405  .debug_str:00000000000139a1 .LASF515
C:\Users\CYMR90~1\AppData\Local\Temp\ccSIna8B.s:33744  .debug_str:0000000000028d53 .LASF516
C:\Users\CYMR90~1\AppData\Local\Temp\ccSIna8B.s:29888  .debug_str:00000000000197db .LASF517
C:\Users\CYMR90~1\AppData\Local\Temp\ccSIna8B.s:33692  .debug_str:00000000000289f3 .LASF518
C:\Users\CYMR90~1\AppData\Local\Temp\ccSIna8B.s:30540  .debug_str:000000000001c26d .LASF519
C:\Users\CYMR90~1\AppData\Local\Temp\ccSIna8B.s:34644  .debug_str:000000000002c5af .LASF520
C:\Users\CYMR90~1\AppData\Local\Temp\ccSIna8B.s:30804  .debug_str:000000000001d3e1 .LASF521
C:\Users\CYMR90~1\AppData\Local\Temp\ccSIna8B.s:32934  .debug_str:000000000002577a .LASF522
C:\Users\CYMR90~1\AppData\Local\Temp\ccSIna8B.s:28285  .debug_str:0000000000013197 .LASF523
C:\Users\CYMR90~1\AppData\Local\Temp\ccSIna8B.s:32474  .debug_str:000000000002396a .LASF524
C:\Users\CYMR90~1\AppData\Local\Temp\ccSIna8B.s:25875  .debug_str:000000000000972a .LASF525
C:\Users\CYMR90~1\AppData\Local\Temp\ccSIna8B.s:34664  .debug_str:000000000002c6b8 .LASF526
C:\Users\CYMR90~1\AppData\Local\Temp\ccSIna8B.s:27141  .debug_str:000000000000e8a8 .LASF527
C:\Users\CYMR90~1\AppData\Local\Temp\ccSIna8B.s:28149  .debug_str:00000000000128c1 .LASF528
C:\Users\CYMR90~1\AppData\Local\Temp\ccSIna8B.s:28999  .debug_str:0000000000015d24 .LASF529
C:\Users\CYMR90~1\AppData\Local\Temp\ccSIna8B.s:29031  .debug_str:0000000000015f66 .LASF530
C:\Users\CYMR90~1\AppData\Local\Temp\ccSIna8B.s:28075  .debug_str:00000000000123db .LASF531
C:\Users\CYMR90~1\AppData\Local\Temp\ccSIna8B.s:24281  .debug_str:0000000000003042 .LASF532
C:\Users\CYMR90~1\AppData\Local\Temp\ccSIna8B.s:26807  .debug_str:000000000000d458 .LASF533
C:\Users\CYMR90~1\AppData\Local\Temp\ccSIna8B.s:34508  .debug_str:000000000002bc5c .LASF534
C:\Users\CYMR90~1\AppData\Local\Temp\ccSIna8B.s:27321  .debug_str:000000000000f3a0 .LASF535
C:\Users\CYMR90~1\AppData\Local\Temp\ccSIna8B.s:32658  .debug_str:000000000002454c .LASF536
C:\Users\CYMR90~1\AppData\Local\Temp\ccSIna8B.s:34150  .debug_str:000000000002a62d .LASF537
C:\Users\CYMR90~1\AppData\Local\Temp\ccSIna8B.s:27911  .debug_str:00000000000118e0 .LASF538
C:\Users\CYMR90~1\AppData\Local\Temp\ccSIna8B.s:28483  .debug_str:0000000000013e3c .LASF539
C:\Users\CYMR90~1\AppData\Local\Temp\ccSIna8B.s:33362  .debug_str:0000000000027309 .LASF540
C:\Users\CYMR90~1\AppData\Local\Temp\ccSIna8B.s:26909  .debug_str:000000000000db45 .LASF541
C:\Users\CYMR90~1\AppData\Local\Temp\ccSIna8B.s:30890  .debug_str:000000000001d955 .LASF542
C:\Users\CYMR90~1\AppData\Local\Temp\ccSIna8B.s:24631  .debug_str:00000000000047b0 .LASF543
C:\Users\CYMR90~1\AppData\Local\Temp\ccSIna8B.s:27067  .debug_str:000000000000e46b .LASF544
C:\Users\CYMR90~1\AppData\Local\Temp\ccSIna8B.s:33934  .debug_str:00000000000299a0 .LASF545
C:\Users\CYMR90~1\AppData\Local\Temp\ccSIna8B.s:28415  .debug_str:0000000000013a30 .LASF546
C:\Users\CYMR90~1\AppData\Local\Temp\ccSIna8B.s:32182  .debug_str:00000000000227e8 .LASF547
C:\Users\CYMR90~1\AppData\Local\Temp\ccSIna8B.s:34422  .debug_str:000000000002b6ff .LASF548
C:\Users\CYMR90~1\AppData\Local\Temp\ccSIna8B.s:24331  .debug_str:00000000000033d6 .LASF549
C:\Users\CYMR90~1\AppData\Local\Temp\ccSIna8B.s:25493  .debug_str:0000000000007e5b .LASF550
C:\Users\CYMR90~1\AppData\Local\Temp\ccSIna8B.s:33196  .debug_str:00000000000268ac .LASF551
C:\Users\CYMR90~1\AppData\Local\Temp\ccSIna8B.s:25051  .debug_str:000000000000620c .LASF552
C:\Users\CYMR90~1\AppData\Local\Temp\ccSIna8B.s:34170  .debug_str:000000000002a736 .LASF553
C:\Users\CYMR90~1\AppData\Local\Temp\ccSIna8B.s:26467  .debug_str:000000000000bd51 .LASF554
C:\Users\CYMR90~1\AppData\Local\Temp\ccSIna8B.s:26655  .debug_str:000000000000c9d8 .LASF555
C:\Users\CYMR90~1\AppData\Local\Temp\ccSIna8B.s:25169  .debug_str:0000000000006936 .LASF556
C:\Users\CYMR90~1\AppData\Local\Temp\ccSIna8B.s:24875  .debug_str:00000000000056fb .LASF557
C:\Users\CYMR90~1\AppData\Local\Temp\ccSIna8B.s:28021  .debug_str:000000000001200a .LASF558
C:\Users\CYMR90~1\AppData\Local\Temp\ccSIna8B.s:29764  .debug_str:0000000000018f7f .LASF559
C:\Users\CYMR90~1\AppData\Local\Temp\ccSIna8B.s:33732  .debug_str:0000000000028c92 .LASF560
C:\Users\CYMR90~1\AppData\Local\Temp\ccSIna8B.s:26463  .debug_str:000000000000bced .LASF561
C:\Users\CYMR90~1\AppData\Local\Temp\ccSIna8B.s:27481  .debug_str:000000000000fecf .LASF562
C:\Users\CYMR90~1\AppData\Local\Temp\ccSIna8B.s:26853  .debug_str:000000000000d7c2 .LASF563
C:\Users\CYMR90~1\AppData\Local\Temp\ccSIna8B.s:26167  .debug_str:000000000000a912 .LASF564
C:\Users\CYMR90~1\AppData\Local\Temp\ccSIna8B.s:31928  .debug_str:00000000000218b4 .LASF565
C:\Users\CYMR90~1\AppData\Local\Temp\ccSIna8B.s:31132  .debug_str:000000000001e85c .LASF566
C:\Users\CYMR90~1\AppData\Local\Temp\ccSIna8B.s:28017  .debug_str:0000000000011fc2 .LASF567
C:\Users\CYMR90~1\AppData\Local\Temp\ccSIna8B.s:28519  .debug_str:0000000000014052 .LASF568
C:\Users\CYMR90~1\AppData\Local\Temp\ccSIna8B.s:23693  .debug_str:0000000000000c53 .LASF570
C:\Users\CYMR90~1\AppData\Local\Temp\ccSIna8B.s:29394  .debug_str:000000000001789c .LASF571
C:\Users\CYMR90~1\AppData\Local\Temp\ccSIna8B.s:30536  .debug_str:000000000001c247 .LASF574
C:\Users\CYMR90~1\AppData\Local\Temp\ccSIna8B.s:24599  .debug_str:000000000000459f .LASF575
C:\Users\CYMR90~1\AppData\Local\Temp\ccSIna8B.s:28639  .debug_str:00000000000147c2 .LASF576
C:\Users\CYMR90~1\AppData\Local\Temp\ccSIna8B.s:25587  .debug_str:00000000000085ba .LASF577
C:\Users\CYMR90~1\AppData\Local\Temp\ccSIna8B.s:31828  .debug_str:0000000000021243 .LASF579
C:\Users\CYMR90~1\AppData\Local\Temp\ccSIna8B.s:31006  .debug_str:000000000001e119 .LASF580
C:\Users\CYMR90~1\AppData\Local\Temp\ccSIna8B.s:32560  .debug_str:0000000000023e2e .LASF581
C:\Users\CYMR90~1\AppData\Local\Temp\ccSIna8B.s:25009  .debug_str:0000000000005f7b .LASF582
C:\Users\CYMR90~1\AppData\Local\Temp\ccSIna8B.s:27625  .debug_str:0000000000010760 .LASF583
C:\Users\CYMR90~1\AppData\Local\Temp\ccSIna8B.s:24171  .debug_str:000000000000297f .LASF584
C:\Users\CYMR90~1\AppData\Local\Temp\ccSIna8B.s:34030  .debug_str:0000000000029f5c .LASF585
C:\Users\CYMR90~1\AppData\Local\Temp\ccSIna8B.s:32226  .debug_str:0000000000022ac9 .LASF586
C:\Users\CYMR90~1\AppData\Local\Temp\ccSIna8B.s:30420  .debug_str:000000000001bb12 .LASF587
C:\Users\CYMR90~1\AppData\Local\Temp\ccSIna8B.s:25237  .debug_str:0000000000006d93 .LASF588
C:\Users\CYMR90~1\AppData\Local\Temp\ccSIna8B.s:29676  .debug_str:00000000000189c0 .LASF589
C:\Users\CYMR90~1\AppData\Local\Temp\ccSIna8B.s:30054  .debug_str:000000000001a2a4 .LASF590
C:\Users\CYMR90~1\AppData\Local\Temp\ccSIna8B.s:30882  .debug_str:000000000001d8e9 .LASF591
C:\Users\CYMR90~1\AppData\Local\Temp\ccSIna8B.s:33330  .debug_str:0000000000027139 .LASF592
C:\Users\CYMR90~1\AppData\Local\Temp\ccSIna8B.s:32548  .debug_str:0000000000023d92 .LASF593
C:\Users\CYMR90~1\AppData\Local\Temp\ccSIna8B.s:27587  .debug_str:000000000001053c .LASF594
C:\Users\CYMR90~1\AppData\Local\Temp\ccSIna8B.s:28475  .debug_str:0000000000013dc5 .LASF595
C:\Users\CYMR90~1\AppData\Local\Temp\ccSIna8B.s:28201  .debug_str:0000000000012c2d .LASF596
C:\Users\CYMR90~1\AppData\Local\Temp\ccSIna8B.s:25345  .debug_str:00000000000074f5 .LASF597
C:\Users\CYMR90~1\AppData\Local\Temp\ccSIna8B.s:33552  .debug_str:0000000000027fed .LASF598
C:\Users\CYMR90~1\AppData\Local\Temp\ccSIna8B.s:28363  .debug_str:00000000000136f3 .LASF599
C:\Users\CYMR90~1\AppData\Local\Temp\ccSIna8B.s:31344  .debug_str:000000000001f4f5 .LASF600
C:\Users\CYMR90~1\AppData\Local\Temp\ccSIna8B.s:30608  .debug_str:000000000001c61a .LASF601
C:\Users\CYMR90~1\AppData\Local\Temp\ccSIna8B.s:33034  .debug_str:0000000000025ed8 .LASF602
C:\Users\CYMR90~1\AppData\Local\Temp\ccSIna8B.s:33752  .debug_str:0000000000028de6 .LASF603
C:\Users\CYMR90~1\AppData\Local\Temp\ccSIna8B.s:33642  .debug_str:0000000000028676 .LASF604
C:\Users\CYMR90~1\AppData\Local\Temp\ccSIna8B.s:28309  .debug_str:000000000001333f .LASF605
C:\Users\CYMR90~1\AppData\Local\Temp\ccSIna8B.s:32364  .debug_str:00000000000232e3 .LASF606
C:\Users\CYMR90~1\AppData\Local\Temp\ccSIna8B.s:25945  .debug_str:0000000000009c0e .LASF607
C:\Users\CYMR90~1\AppData\Local\Temp\ccSIna8B.s:25443  .debug_str:0000000000007b1b .LASF608
C:\Users\CYMR90~1\AppData\Local\Temp\ccSIna8B.s:26229  .debug_str:000000000000ad24 .LASF609
C:\Users\CYMR90~1\AppData\Local\Temp\ccSIna8B.s:30458  .debug_str:000000000001bd02 .LASF610
C:\Users\CYMR90~1\AppData\Local\Temp\ccSIna8B.s:24975  .debug_str:0000000000005d89 .LASF611
C:\Users\CYMR90~1\AppData\Local\Temp\ccSIna8B.s:32152  .debug_str:0000000000022639 .LASF612
C:\Users\CYMR90~1\AppData\Local\Temp\ccSIna8B.s:28863  .debug_str:000000000001555a .LASF613
C:\Users\CYMR90~1\AppData\Local\Temp\ccSIna8B.s:29296  .debug_str:00000000000172f9 .LASF614
C:\Users\CYMR90~1\AppData\Local\Temp\ccSIna8B.s:23595  .debug_str:0000000000000621 .LASF615
C:\Users\CYMR90~1\AppData\Local\Temp\ccSIna8B.s:29103  .debug_str:000000000001642a .LASF616
C:\Users\CYMR90~1\AppData\Local\Temp\ccSIna8B.s:30092  .debug_str:000000000001a4f2 .LASF617
C:\Users\CYMR90~1\AppData\Local\Temp\ccSIna8B.s:29237  .debug_str:0000000000016d90 .LASF618
C:\Users\CYMR90~1\AppData\Local\Temp\ccSIna8B.s:32232  .debug_str:0000000000022b09 .LASF619
C:\Users\CYMR90~1\AppData\Local\Temp\ccSIna8B.s:26481  .debug_str:000000000000bebe .LASF620
C:\Users\CYMR90~1\AppData\Local\Temp\ccSIna8B.s:25253  .debug_str:0000000000006e96 .LASF621
C:\Users\CYMR90~1\AppData\Local\Temp\ccSIna8B.s:32426  .debug_str:0000000000023646 .LASF622
C:\Users\CYMR90~1\AppData\Local\Temp\ccSIna8B.s:31524  .debug_str:000000000001fff0 .LASF623
C:\Users\CYMR90~1\AppData\Local\Temp\ccSIna8B.s:33510  .debug_str:0000000000027cbe .LASF624
C:\Users\CYMR90~1\AppData\Local\Temp\ccSIna8B.s:34122  .debug_str:000000000002a4a8 .LASF625
C:\Users\CYMR90~1\AppData\Local\Temp\ccSIna8B.s:28549  .debug_str:000000000001422b .LASF626
C:\Users\CYMR90~1\AppData\Local\Temp\ccSIna8B.s:34386  .debug_str:000000000002b443 .LASF627
C:\Users\CYMR90~1\AppData\Local\Temp\ccSIna8B.s:28957  .debug_str:0000000000015a95 .LASF628
C:\Users\CYMR90~1\AppData\Local\Temp\ccSIna8B.s:32180  .debug_str:00000000000227b0 .LASF629
C:\Users\CYMR90~1\AppData\Local\Temp\ccSIna8B.s:25663  .debug_str:0000000000008a3e .LASF630
C:\Users\CYMR90~1\AppData\Local\Temp\ccSIna8B.s:26895  .debug_str:000000000000da5e .LASF631
C:\Users\CYMR90~1\AppData\Local\Temp\ccSIna8B.s:32142  .debug_str:0000000000022599 .LASF632
C:\Users\CYMR90~1\AppData\Local\Temp\ccSIna8B.s:26597  .debug_str:000000000000c5e0 .LASF633
C:\Users\CYMR90~1\AppData\Local\Temp\ccSIna8B.s:24103  .debug_str:0000000000002478 .LASF634
C:\Users\CYMR90~1\AppData\Local\Temp\ccSIna8B.s:30000  .debug_str:0000000000019f8e .LASF635
C:\Users\CYMR90~1\AppData\Local\Temp\ccSIna8B.s:29159  .debug_str:00000000000167f1 .LASF636
C:\Users\CYMR90~1\AppData\Local\Temp\ccSIna8B.s:30774  .debug_str:000000000001d227 .LASF637
C:\Users\CYMR90~1\AppData\Local\Temp\ccSIna8B.s:24395  .debug_str:0000000000003804 .LASF638
C:\Users\CYMR90~1\AppData\Local\Temp\ccSIna8B.s:27971  .debug_str:0000000000011d2c .LASF639
C:\Users\CYMR90~1\AppData\Local\Temp\ccSIna8B.s:25525  .debug_str:000000000000810f .LASF640
C:\Users\CYMR90~1\AppData\Local\Temp\ccSIna8B.s:28183  .debug_str:0000000000012af1 .LASF641
C:\Users\CYMR90~1\AppData\Local\Temp\ccSIna8B.s:26383  .debug_str:000000000000b7c0 .LASF642
C:\Users\CYMR90~1\AppData\Local\Temp\ccSIna8B.s:33488  .debug_str:0000000000027b39 .LASF643
C:\Users\CYMR90~1\AppData\Local\Temp\ccSIna8B.s:26761  .debug_str:000000000000d137 .LASF644
C:\Users\CYMR90~1\AppData\Local\Temp\ccSIna8B.s:24571  .debug_str:00000000000043a1 .LASF645
C:\Users\CYMR90~1\AppData\Local\Temp\ccSIna8B.s:25403  .debug_str:0000000000007874 .LASF646
C:\Users\CYMR90~1\AppData\Local\Temp\ccSIna8B.s:24321  .debug_str:0000000000003323 .LASF647
C:\Users\CYMR90~1\AppData\Local\Temp\ccSIna8B.s:24689  .debug_str:0000000000004be1 .LASF648
C:\Users\CYMR90~1\AppData\Local\Temp\ccSIna8B.s:34028  .debug_str:0000000000029f1d .LASF649
C:\Users\CYMR90~1\AppData\Local\Temp\ccSIna8B.s:27891  .debug_str:0000000000011774 .LASF650
C:\Users\CYMR90~1\AppData\Local\Temp\ccSIna8B.s:34140  .debug_str:000000000002a5a0 .LASF651
C:\Users\CYMR90~1\AppData\Local\Temp\ccSIna8B.s:27491  .debug_str:000000000000ff90 .LASF652
C:\Users\CYMR90~1\AppData\Local\Temp\ccSIna8B.s:23573  .debug_str:0000000000000511 .LASF653
C:\Users\CYMR90~1\AppData\Local\Temp\ccSIna8B.s:34368  .debug_str:000000000002b353 .LASF654
C:\Users\CYMR90~1\AppData\Local\Temp\ccSIna8B.s:25761  .debug_str:00000000000090c0 .LASF655
C:\Users\CYMR90~1\AppData\Local\Temp\ccSIna8B.s:33570  .debug_str:0000000000028103 .LASF656
C:\Users\CYMR90~1\AppData\Local\Temp\ccSIna8B.s:23631  .debug_str:000000000000084f .LASF657
C:\Users\CYMR90~1\AppData\Local\Temp\ccSIna8B.s:34192  .debug_str:000000000002a8ae .LASF658
C:\Users\CYMR90~1\AppData\Local\Temp\ccSIna8B.s:28279  .debug_str:0000000000013146 .LASF659
C:\Users\CYMR90~1\AppData\Local\Temp\ccSIna8B.s:30710  .debug_str:000000000001ccd5 .LASF660
C:\Users\CYMR90~1\AppData\Local\Temp\ccSIna8B.s:27175  .debug_str:000000000000eaf0 .LASF661
C:\Users\CYMR90~1\AppData\Local\Temp\ccSIna8B.s:23585  .debug_str:00000000000005b4 .LASF662
C:\Users\CYMR90~1\AppData\Local\Temp\ccSIna8B.s:33344  .debug_str:0000000000027214 .LASF663
C:\Users\CYMR90~1\AppData\Local\Temp\ccSIna8B.s:27867  .debug_str:000000000001161c .LASF664
C:\Users\CYMR90~1\AppData\Local\Temp\ccSIna8B.s:27857  .debug_str:000000000001158e .LASF665
C:\Users\CYMR90~1\AppData\Local\Temp\ccSIna8B.s:29772  .debug_str:000000000001904a .LASF666
C:\Users\CYMR90~1\AppData\Local\Temp\ccSIna8B.s:24987  .debug_str:0000000000005e21 .LASF667
C:\Users\CYMR90~1\AppData\Local\Temp\ccSIna8B.s:34878  .debug_str:000000000002d4a1 .LASF668
C:\Users\CYMR90~1\AppData\Local\Temp\ccSIna8B.s:25367  .debug_str:0000000000007638 .LASF669
C:\Users\CYMR90~1\AppData\Local\Temp\ccSIna8B.s:32026  .debug_str:0000000000021eb6 .LASF670
C:\Users\CYMR90~1\AppData\Local\Temp\ccSIna8B.s:28261  .debug_str:0000000000013023 .LASF671
C:\Users\CYMR90~1\AppData\Local\Temp\ccSIna8B.s:31424  .debug_str:000000000001f98c .LASF672
C:\Users\CYMR90~1\AppData\Local\Temp\ccSIna8B.s:32156  .debug_str:000000000002266a .LASF673
C:\Users\CYMR90~1\AppData\Local\Temp\ccSIna8B.s:23961  .debug_str:0000000000001c5b .LASF674
C:\Users\CYMR90~1\AppData\Local\Temp\ccSIna8B.s:28943  .debug_str:00000000000159b6 .LASF676
C:\Users\CYMR90~1\AppData\Local\Temp\ccSIna8B.s:32578  .debug_str:0000000000023f4b .LASF677
C:\Users\CYMR90~1\AppData\Local\Temp\ccSIna8B.s:30012  .debug_str:000000000001a035 .LASF678
C:\Users\CYMR90~1\AppData\Local\Temp\ccSIna8B.s:32678  .debug_str:0000000000024680 .LASF679
C:\Users\CYMR90~1\AppData\Local\Temp\ccSIna8B.s:31128  .debug_str:000000000001e830 .LASF680
C:\Users\CYMR90~1\AppData\Local\Temp\ccSIna8B.s:34042  .debug_str:000000000002a01a .LASF681
C:\Users\CYMR90~1\AppData\Local\Temp\ccSIna8B.s:24573  .debug_str:00000000000043df .LASF682
C:\Users\CYMR90~1\AppData\Local\Temp\ccSIna8B.s:24495  .debug_str:0000000000003e67 .LASF683
C:\Users\CYMR90~1\AppData\Local\Temp\ccSIna8B.s:25901  .debug_str:00000000000098fb .LASF684
C:\Users\CYMR90~1\AppData\Local\Temp\ccSIna8B.s:30462  .debug_str:000000000001bd2f .LASF685
C:\Users\CYMR90~1\AppData\Local\Temp\ccSIna8B.s:31886  .debug_str:0000000000021636 .LASF686
C:\Users\CYMR90~1\AppData\Local\Temp\ccSIna8B.s:29215  .debug_str:0000000000016bc1 .LASF687
C:\Users\CYMR90~1\AppData\Local\Temp\ccSIna8B.s:27789  .debug_str:0000000000011192 .LASF688
C:\Users\CYMR90~1\AppData\Local\Temp\ccSIna8B.s:24375  .debug_str:0000000000003696 .LASF689
C:\Users\CYMR90~1\AppData\Local\Temp\ccSIna8B.s:25259  .debug_str:0000000000006f15 .LASF690
C:\Users\CYMR90~1\AppData\Local\Temp\ccSIna8B.s:28133  .debug_str:00000000000127ba .LASF691
C:\Users\CYMR90~1\AppData\Local\Temp\ccSIna8B.s:28981  .debug_str:0000000000015bff .LASF692
C:\Users\CYMR90~1\AppData\Local\Temp\ccSIna8B.s:24953  .debug_str:0000000000005c55 .LASF695
C:\Users\CYMR90~1\AppData\Local\Temp\ccSIna8B.s:29392  .debug_str:0000000000017885 .LASF696
C:\Users\CYMR90~1\AppData\Local\Temp\ccSIna8B.s:29284  .debug_str:0000000000017245 .LASF697
C:\Users\CYMR90~1\AppData\Local\Temp\ccSIna8B.s:30430  .debug_str:000000000001bb73 .LASF698
C:\Users\CYMR90~1\AppData\Local\Temp\ccSIna8B.s:32618  .debug_str:000000000002418f .LASF699
C:\Users\CYMR90~1\AppData\Local\Temp\ccSIna8B.s:28713  .debug_str:0000000000014c03 .LASF702
C:\Users\CYMR90~1\AppData\Local\Temp\ccSIna8B.s:25925  .debug_str:0000000000009a6c .LASF703
C:\Users\CYMR90~1\AppData\Local\Temp\ccSIna8B.s:31314  .debug_str:000000000001f334 .LASF704
C:\Users\CYMR90~1\AppData\Local\Temp\ccSIna8B.s:24765  .debug_str:0000000000005086 .LASF705
C:\Users\CYMR90~1\AppData\Local\Temp\ccSIna8B.s:29041  .debug_str:0000000000016033 .LASF706
C:\Users\CYMR90~1\AppData\Local\Temp\ccSIna8B.s:27367  .debug_str:000000000000f6a5 .LASF707
C:\Users\CYMR90~1\AppData\Local\Temp\ccSIna8B.s:33768  .debug_str:0000000000028edc .LASF708
C:\Users\CYMR90~1\AppData\Local\Temp\ccSIna8B.s:33004  .debug_str:0000000000025ce5 .LASF709
C:\Users\CYMR90~1\AppData\Local\Temp\ccSIna8B.s:32030  .debug_str:0000000000021efc .LASF710
C:\Users\CYMR90~1\AppData\Local\Temp\ccSIna8B.s:27527  .debug_str:00000000000101bb .LASF711
C:\Users\CYMR90~1\AppData\Local\Temp\ccSIna8B.s:29189  .debug_str:00000000000169b2 .LASF712
C:\Users\CYMR90~1\AppData\Local\Temp\ccSIna8B.s:26161  .debug_str:000000000000a8bd .LASF713
C:\Users\CYMR90~1\AppData\Local\Temp\ccSIna8B.s:34588  .debug_str:000000000002c195 .LASF714
C:\Users\CYMR90~1\AppData\Local\Temp\ccSIna8B.s:25509  .debug_str:0000000000007ff0 .LASF715
C:\Users\CYMR90~1\AppData\Local\Temp\ccSIna8B.s:26421  .debug_str:000000000000ba2d .LASF716
C:\Users\CYMR90~1\AppData\Local\Temp\ccSIna8B.s:31540  .debug_str:0000000000020102 .LASF717
C:\Users\CYMR90~1\AppData\Local\Temp\ccSIna8B.s:32960  .debug_str:000000000002599a .LASF718
C:\Users\CYMR90~1\AppData\Local\Temp\ccSIna8B.s:32726  .debug_str:0000000000024939 .LASF719
C:\Users\CYMR90~1\AppData\Local\Temp\ccSIna8B.s:29710  .debug_str:0000000000018bc9 .LASF720
C:\Users\CYMR90~1\AppData\Local\Temp\ccSIna8B.s:24017  .debug_str:0000000000001fa1 .LASF721
C:\Users\CYMR90~1\AppData\Local\Temp\ccSIna8B.s:31654  .debug_str:00000000000207eb .LASF722
C:\Users\CYMR90~1\AppData\Local\Temp\ccSIna8B.s:30622  .debug_str:000000000001c6c1 .LASF723
C:\Users\CYMR90~1\AppData\Local\Temp\ccSIna8B.s:31180  .debug_str:000000000001eb6f .LASF724
C:\Users\CYMR90~1\AppData\Local\Temp\ccSIna8B.s:32134  .debug_str:0000000000022547 .LASF725
C:\Users\CYMR90~1\AppData\Local\Temp\ccSIna8B.s:28379  .debug_str:00000000000137ff .LASF726
C:\Users\CYMR90~1\AppData\Local\Temp\ccSIna8B.s:26155  .debug_str:000000000000a863 .LASF727
C:\Users\CYMR90~1\AppData\Local\Temp\ccSIna8B.s:33096  .debug_str:00000000000262c3 .LASF728
C:\Users\CYMR90~1\AppData\Local\Temp\ccSIna8B.s:31430  .debug_str:000000000001fa0a .LASF729
C:\Users\CYMR90~1\AppData\Local\Temp\ccSIna8B.s:33632  .debug_str:00000000000285db .LASF730
C:\Users\CYMR90~1\AppData\Local\Temp\ccSIna8B.s:28351  .debug_str:000000000001362b .LASF731
C:\Users\CYMR90~1\AppData\Local\Temp\ccSIna8B.s:33036  .debug_str:0000000000025f13 .LASF732
C:\Users\CYMR90~1\AppData\Local\Temp\ccSIna8B.s:34796  .debug_str:000000000002cf70 .LASF733
C:\Users\CYMR90~1\AppData\Local\Temp\ccSIna8B.s:27087  .debug_str:000000000000e5b2 .LASF734
C:\Users\CYMR90~1\AppData\Local\Temp\ccSIna8B.s:28575  .debug_str:0000000000014403 .LASF735
C:\Users\CYMR90~1\AppData\Local\Temp\ccSIna8B.s:34724  .debug_str:000000000002ca87 .LASF736
C:\Users\CYMR90~1\AppData\Local\Temp\ccSIna8B.s:26731  .debug_str:000000000000cf62 .LASF737
C:\Users\CYMR90~1\AppData\Local\Temp\ccSIna8B.s:34654  .debug_str:000000000002c639 .LASF738
C:\Users\CYMR90~1\AppData\Local\Temp\ccSIna8B.s:34476  .debug_str:000000000002ba6b .LASF739
C:\Users\CYMR90~1\AppData\Local\Temp\ccSIna8B.s:23931  .debug_str:0000000000001a96 .LASF740
C:\Users\CYMR90~1\AppData\Local\Temp\ccSIna8B.s:26661  .debug_str:000000000000ca48 .LASF741
C:\Users\CYMR90~1\AppData\Local\Temp\ccSIna8B.s:23907  .debug_str:0000000000001937 .LASF742
C:\Users\CYMR90~1\AppData\Local\Temp\ccSIna8B.s:27799  .debug_str:0000000000011202 .LASF743
C:\Users\CYMR90~1\AppData\Local\Temp\ccSIna8B.s:24361  .debug_str:00000000000035d5 .LASF744
C:\Users\CYMR90~1\AppData\Local\Temp\ccSIna8B.s:25771  .debug_str:0000000000009159 .LASF745
C:\Users\CYMR90~1\AppData\Local\Temp\ccSIna8B.s:32146  .debug_str:00000000000225e8 .LASF746
C:\Users\CYMR90~1\AppData\Local\Temp\ccSIna8B.s:23803  .debug_str:0000000000001302 .LASF747
C:\Users\CYMR90~1\AppData\Local\Temp\ccSIna8B.s:23793  .debug_str:0000000000001280 .LASF748
C:\Users\CYMR90~1\AppData\Local\Temp\ccSIna8B.s:24931  .debug_str:0000000000005aa3 .LASF750
C:\Users\CYMR90~1\AppData\Local\Temp\ccSIna8B.s:27715  .debug_str:0000000000010cae .LASF751
C:\Users\CYMR90~1\AppData\Local\Temp\ccSIna8B.s:33930  .debug_str:000000000002995e .LASF752
C:\Users\CYMR90~1\AppData\Local\Temp\ccSIna8B.s:27651  .debug_str:00000000000108fe .LASF753
C:\Users\CYMR90~1\AppData\Local\Temp\ccSIna8B.s:24809  .debug_str:000000000000533b .LASF754
C:\Users\CYMR90~1\AppData\Local\Temp\ccSIna8B.s:26405  .debug_str:000000000000b940 .LASF755
C:\Users\CYMR90~1\AppData\Local\Temp\ccSIna8B.s:29976  .debug_str:0000000000019e33 .LASF756
C:\Users\CYMR90~1\AppData\Local\Temp\ccSIna8B.s:25911  .debug_str:00000000000099aa .LASF757
C:\Users\CYMR90~1\AppData\Local\Temp\ccSIna8B.s:32988  .debug_str:0000000000025be2 .LASF758
C:\Users\CYMR90~1\AppData\Local\Temp\ccSIna8B.s:34836  .debug_str:000000000002d228 .LASF759
C:\Users\CYMR90~1\AppData\Local\Temp\ccSIna8B.s:30342  .debug_str:000000000001b648 .LASF760
C:\Users\CYMR90~1\AppData\Local\Temp\ccSIna8B.s:34570  .debug_str:000000000002c06a .LASF761
C:\Users\CYMR90~1\AppData\Local\Temp\ccSIna8B.s:26333  .debug_str:000000000000b410 .LASF762
C:\Users\CYMR90~1\AppData\Local\Temp\ccSIna8B.s:30350  .debug_str:000000000001b6dc .LASF765
C:\Users\CYMR90~1\AppData\Local\Temp\ccSIna8B.s:29013  .debug_str:0000000000015e16 .LASF766
C:\Users\CYMR90~1\AppData\Local\Temp\ccSIna8B.s:32036  .debug_str:0000000000021f49 .LASF767
C:\Users\CYMR90~1\AppData\Local\Temp\ccSIna8B.s:29005  .debug_str:0000000000015dbd .LASF768
C:\Users\CYMR90~1\AppData\Local\Temp\ccSIna8B.s:24159  .debug_str:00000000000028be .LASF769
C:\Users\CYMR90~1\AppData\Local\Temp\ccSIna8B.s:30478  .debug_str:000000000001be72 .LASF770
C:\Users\CYMR90~1\AppData\Local\Temp\ccSIna8B.s:29099  .debug_str:0000000000016404 .LASF771
C:\Users\CYMR90~1\AppData\Local\Temp\ccSIna8B.s:32690  .debug_str:0000000000024712 .LASF772
C:\Users\CYMR90~1\AppData\Local\Temp\ccSIna8B.s:32324  .debug_str:00000000000230bb .LASF773
C:\Users\CYMR90~1\AppData\Local\Temp\ccSIna8B.s:30790  .debug_str:000000000001d31a .LASF774
C:\Users\CYMR90~1\AppData\Local\Temp\ccSIna8B.s:33038  .debug_str:0000000000025f29 .LASF775
C:\Users\CYMR90~1\AppData\Local\Temp\ccSIna8B.s:26055  .debug_str:000000000000a2b8 .LASF776
C:\Users\CYMR90~1\AppData\Local\Temp\ccSIna8B.s:26071  .debug_str:000000000000a38b .LASF777
C:\Users\CYMR90~1\AppData\Local\Temp\ccSIna8B.s:31118  .debug_str:000000000001e78f .LASF778
C:\Users\CYMR90~1\AppData\Local\Temp\ccSIna8B.s:27589  .debug_str:0000000000010564 .LASF779
C:\Users\CYMR90~1\AppData\Local\Temp\ccSIna8B.s:31382  .debug_str:000000000001f741 .LASF780
C:\Users\CYMR90~1\AppData\Local\Temp\ccSIna8B.s:32032  .debug_str:0000000000021f10 .LASF781
C:\Users\CYMR90~1\AppData\Local\Temp\ccSIna8B.s:28085  .debug_str:0000000000012482 .LASF782
C:\Users\CYMR90~1\AppData\Local\Temp\ccSIna8B.s:29223  .debug_str:0000000000016ce4 .LASF783
C:\Users\CYMR90~1\AppData\Local\Temp\ccSIna8B.s:27987  .debug_str:0000000000011e15 .LASF784
C:\Users\CYMR90~1\AppData\Local\Temp\ccSIna8B.s:27275  .debug_str:000000000000f108 .LASF785
C:\Users\CYMR90~1\AppData\Local\Temp\ccSIna8B.s:32394  .debug_str:0000000000023471 .LASF786
C:\Users\CYMR90~1\AppData\Local\Temp\ccSIna8B.s:28727  .debug_str:0000000000014d28 .LASF787
C:\Users\CYMR90~1\AppData\Local\Temp\ccSIna8B.s:31054  .debug_str:000000000001e40d .LASF788
C:\Users\CYMR90~1\AppData\Local\Temp\ccSIna8B.s:27445  .debug_str:000000000000fc70 .LASF789
C:\Users\CYMR90~1\AppData\Local\Temp\ccSIna8B.s:24859  .debug_str:0000000000005634 .LASF790
C:\Users\CYMR90~1\AppData\Local\Temp\ccSIna8B.s:33388  .debug_str:000000000002756a .LASF791
C:\Users\CYMR90~1\AppData\Local\Temp\ccSIna8B.s:25629  .debug_str:000000000000880c .LASF792
C:\Users\CYMR90~1\AppData\Local\Temp\ccSIna8B.s:34802  .debug_str:000000000002cfbe .LASF793
C:\Users\CYMR90~1\AppData\Local\Temp\ccSIna8B.s:25415  .debug_str:000000000000795e .LASF794
C:\Users\CYMR90~1\AppData\Local\Temp\ccSIna8B.s:24715  .debug_str:0000000000004d98 .LASF795
C:\Users\CYMR90~1\AppData\Local\Temp\ccSIna8B.s:31626  .debug_str:00000000000205dd .LASF796
C:\Users\CYMR90~1\AppData\Local\Temp\ccSIna8B.s:34360  .debug_str:000000000002b302 .LASF797
C:\Users\CYMR90~1\AppData\Local\Temp\ccSIna8B.s:25241  .debug_str:0000000000006ddd .LASF798
C:\Users\CYMR90~1\AppData\Local\Temp\ccSIna8B.s:33706  .debug_str:0000000000028af9 .LASF799
C:\Users\CYMR90~1\AppData\Local\Temp\ccSIna8B.s:24825  .debug_str:0000000000005425 .LASF800
C:\Users\CYMR90~1\AppData\Local\Temp\ccSIna8B.s:30112  .debug_str:000000000001a79f .LASF801
C:\Users\CYMR90~1\AppData\Local\Temp\ccSIna8B.s:30140  .debug_str:000000000001a93d .LASF802
C:\Users\CYMR90~1\AppData\Local\Temp\ccSIna8B.s:25975  .debug_str:0000000000009df6 .LASF803
C:\Users\CYMR90~1\AppData\Local\Temp\ccSIna8B.s:28485  .debug_str:0000000000013e5c .LASF804
C:\Users\CYMR90~1\AppData\Local\Temp\ccSIna8B.s:25257  .debug_str:0000000000006eba .LASF805
C:\Users\CYMR90~1\AppData\Local\Temp\ccSIna8B.s:27939  .debug_str:0000000000011b18 .LASF806
C:\Users\CYMR90~1\AppData\Local\Temp\ccSIna8B.s:27231  .debug_str:000000000000ee7c .LASF807
C:\Users\CYMR90~1\AppData\Local\Temp\ccSIna8B.s:30672  .debug_str:000000000001ca87 .LASF808
C:\Users\CYMR90~1\AppData\Local\Temp\ccSIna8B.s:33106  .debug_str:000000000002635a .LASF809
C:\Users\CYMR90~1\AppData\Local\Temp\ccSIna8B.s:34574  .debug_str:000000000002c0bf .LASF810
C:\Users\CYMR90~1\AppData\Local\Temp\ccSIna8B.s:25653  .debug_str:0000000000008980 .LASF811
C:\Users\CYMR90~1\AppData\Local\Temp\ccSIna8B.s:24555  .debug_str:00000000000042d6 .LASF812
C:\Users\CYMR90~1\AppData\Local\Temp\ccSIna8B.s:34608  .debug_str:000000000002c358 .LASF813
C:\Users\CYMR90~1\AppData\Local\Temp\ccSIna8B.s:24927  .debug_str:0000000000005a7c .LASF814
C:\Users\CYMR90~1\AppData\Local\Temp\ccSIna8B.s:25151  .debug_str:00000000000067fb .LASF815
C:\Users\CYMR90~1\AppData\Local\Temp\ccSIna8B.s:30446  .debug_str:000000000001bc5c .LASF816
C:\Users\CYMR90~1\AppData\Local\Temp\ccSIna8B.s:25837  .debug_str:0000000000009503 .LASF817
C:\Users\CYMR90~1\AppData\Local\Temp\ccSIna8B.s:30590  .debug_str:000000000001c524 .LASF818
C:\Users\CYMR90~1\AppData\Local\Temp\ccSIna8B.s:30482  .debug_str:000000000001be8a .LASF819
C:\Users\CYMR90~1\AppData\Local\Temp\ccSIna8B.s:23673  .debug_str:0000000000000b0c .LASF820
C:\Users\CYMR90~1\AppData\Local\Temp\ccSIna8B.s:34194  .debug_str:000000000002a8be .LASF821
C:\Users\CYMR90~1\AppData\Local\Temp\ccSIna8B.s:32684  .debug_str:00000000000246c9 .LASF822
C:\Users\CYMR90~1\AppData\Local\Temp\ccSIna8B.s:25801  .debug_str:00000000000092d4 .LASF823
C:\Users\CYMR90~1\AppData\Local\Temp\ccSIna8B.s:29145  .debug_str:0000000000016728 .LASF824
C:\Users\CYMR90~1\AppData\Local\Temp\ccSIna8B.s:30776  .debug_str:000000000001d251 .LASF825
C:\Users\CYMR90~1\AppData\Local\Temp\ccSIna8B.s:28941  .debug_str:0000000000015995 .LASF826
C:\Users\CYMR90~1\AppData\Local\Temp\ccSIna8B.s:24445  .debug_str:0000000000003b4b .LASF827
C:\Users\CYMR90~1\AppData\Local\Temp\ccSIna8B.s:27255  .debug_str:000000000000effb .LASF828
C:\Users\CYMR90~1\AppData\Local\Temp\ccSIna8B.s:32798  .debug_str:0000000000024e31 .LASF829
C:\Users\CYMR90~1\AppData\Local\Temp\ccSIna8B.s:32978  .debug_str:0000000000025b22 .LASF830
C:\Users\CYMR90~1\AppData\Local\Temp\ccSIna8B.s:26411  .debug_str:000000000000b99b .LASF831
C:\Users\CYMR90~1\AppData\Local\Temp\ccSIna8B.s:27199  .debug_str:000000000000ec6c .LASF832
C:\Users\CYMR90~1\AppData\Local\Temp\ccSIna8B.s:25017  .debug_str:0000000000005fe7 .LASF833
C:\Users\CYMR90~1\AppData\Local\Temp\ccSIna8B.s:27843  .debug_str:0000000000011499 .LASF834
C:\Users\CYMR90~1\AppData\Local\Temp\ccSIna8B.s:29632  .debug_str:0000000000018735 .LASF835
C:\Users\CYMR90~1\AppData\Local\Temp\ccSIna8B.s:27745  .debug_str:0000000000010e97 .LASF836
C:\Users\CYMR90~1\AppData\Local\Temp\ccSIna8B.s:31532  .debug_str:0000000000020092 .LASF837
C:\Users\CYMR90~1\AppData\Local\Temp\ccSIna8B.s:25703  .debug_str:0000000000008ce6 .LASF838
C:\Users\CYMR90~1\AppData\Local\Temp\ccSIna8B.s:24847  .debug_str:0000000000005595 .LASF839
C:\Users\CYMR90~1\AppData\Local\Temp\ccSIna8B.s:27639  .debug_str:0000000000010835 .LASF840
C:\Users\CYMR90~1\AppData\Local\Temp\ccSIna8B.s:26547  .debug_str:000000000000c2f8 .LASF841
C:\Users\CYMR90~1\AppData\Local\Temp\ccSIna8B.s:30690  .debug_str:000000000001cbb6 .LASF842
C:\Users\CYMR90~1\AppData\Local\Temp\ccSIna8B.s:23743  .debug_str:0000000000000fae .LASF843
C:\Users\CYMR90~1\AppData\Local\Temp\ccSIna8B.s:24101  .debug_str:0000000000002468 .LASF844
C:\Users\CYMR90~1\AppData\Local\Temp\ccSIna8B.s:32538  .debug_str:0000000000023d24 .LASF845
C:\Users\CYMR90~1\AppData\Local\Temp\ccSIna8B.s:23499  .debug_str:0000000000000096 .LASF846
C:\Users\CYMR90~1\AppData\Local\Temp\ccSIna8B.s:25499  .debug_str:0000000000007f63 .LASF847
C:\Users\CYMR90~1\AppData\Local\Temp\ccSIna8B.s:31388  .debug_str:000000000001f78f .LASF848
C:\Users\CYMR90~1\AppData\Local\Temp\ccSIna8B.s:25463  .debug_str:0000000000007c90 .LASF849
C:\Users\CYMR90~1\AppData\Local\Temp\ccSIna8B.s:26849  .debug_str:000000000000d794 .LASF852
C:\Users\CYMR90~1\AppData\Local\Temp\ccSIna8B.s:33762  .debug_str:0000000000028e84 .LASF853
C:\Users\CYMR90~1\AppData\Local\Temp\ccSIna8B.s:28787  .debug_str:000000000001512c .LASF854
C:\Users\CYMR90~1\AppData\Local\Temp\ccSIna8B.s:32042  .debug_str:0000000000021fde .LASF856
C:\Users\CYMR90~1\AppData\Local\Temp\ccSIna8B.s:30908  .debug_str:000000000001daa6 .LASF857
C:\Users\CYMR90~1\AppData\Local\Temp\ccSIna8B.s:33582  .debug_str:00000000000281b6 .LASF858
C:\Users\CYMR90~1\AppData\Local\Temp\ccSIna8B.s:26837  .debug_str:000000000000d6c5 .LASF859
C:\Users\CYMR90~1\AppData\Local\Temp\ccSIna8B.s:27797  .debug_str:00000000000111f8 .LASF860
C:\Users\CYMR90~1\AppData\Local\Temp\ccSIna8B.s:31970  .debug_str:0000000000021b56 .LASF861
C:\Users\CYMR90~1\AppData\Local\Temp\ccSIna8B.s:31110  .debug_str:000000000001e73f .LASF862
C:\Users\CYMR90~1\AppData\Local\Temp\ccSIna8B.s:23847  .debug_str:000000000000158d .LASF863
C:\Users\CYMR90~1\AppData\Local\Temp\ccSIna8B.s:24501  .debug_str:0000000000003eac .LASF864
C:\Users\CYMR90~1\AppData\Local\Temp\ccSIna8B.s:24897  .debug_str:00000000000058a3 .LASF865
C:\Users\CYMR90~1\AppData\Local\Temp\ccSIna8B.s:26103  .debug_str:000000000000a5a2 .LASF866
C:\Users\CYMR90~1\AppData\Local\Temp\ccSIna8B.s:25569  .debug_str:0000000000008470 .LASF867
C:\Users\CYMR90~1\AppData\Local\Temp\ccSIna8B.s:30840  .debug_str:000000000001d61c .LASF868
C:\Users\CYMR90~1\AppData\Local\Temp\ccSIna8B.s:31472  .debug_str:000000000001fcc3 .LASF869
C:\Users\CYMR90~1\AppData\Local\Temp\ccSIna8B.s:32554  .debug_str:0000000000023de7 .LASF870
C:\Users\CYMR90~1\AppData\Local\Temp\ccSIna8B.s:25739  .debug_str:0000000000008f4d .LASF871
C:\Users\CYMR90~1\AppData\Local\Temp\ccSIna8B.s:26181  .debug_str:000000000000aa1f .LASF872
C:\Users\CYMR90~1\AppData\Local\Temp\ccSIna8B.s:30680  .debug_str:000000000001cb1f .LASF873
C:\Users\CYMR90~1\AppData\Local\Temp\ccSIna8B.s:33274  .debug_str:0000000000026d94 .LASF874
C:\Users\CYMR90~1\AppData\Local\Temp\ccSIna8B.s:28005  .debug_str:0000000000011f06 .LASF875
C:\Users\CYMR90~1\AppData\Local\Temp\ccSIna8B.s:28691  .debug_str:0000000000014b09 .LASF876
C:\Users\CYMR90~1\AppData\Local\Temp\ccSIna8B.s:25981  .debug_str:0000000000009e4b .LASF877
C:\Users\CYMR90~1\AppData\Local\Temp\ccSIna8B.s:30384  .debug_str:000000000001b8f9 .LASF878
C:\Users\CYMR90~1\AppData\Local\Temp\ccSIna8B.s:34050  .debug_str:000000000002a09d .LASF879
C:\Users\CYMR90~1\AppData\Local\Temp\ccSIna8B.s:29336  .debug_str:000000000001753e .LASF880
C:\Users\CYMR90~1\AppData\Local\Temp\ccSIna8B.s:24827  .debug_str:000000000000543e .LASF881
C:\Users\CYMR90~1\AppData\Local\Temp\ccSIna8B.s:28221  .debug_str:0000000000012d88 .LASF882
C:\Users\CYMR90~1\AppData\Local\Temp\ccSIna8B.s:31356  .debug_str:000000000001f5dd .LASF883
C:\Users\CYMR90~1\AppData\Local\Temp\ccSIna8B.s:31544  .debug_str:000000000002012f .LASF884
C:\Users\CYMR90~1\AppData\Local\Temp\ccSIna8B.s:34862  .debug_str:000000000002d38d .LASF885
C:\Users\CYMR90~1\AppData\Local\Temp\ccSIna8B.s:30392  .debug_str:000000000001b969 .LASF886
C:\Users\CYMR90~1\AppData\Local\Temp\ccSIna8B.s:25849  .debug_str:00000000000095aa .LASF887
C:\Users\CYMR90~1\AppData\Local\Temp\ccSIna8B.s:32504  .debug_str:0000000000023b4c .LASF888
C:\Users\CYMR90~1\AppData\Local\Temp\ccSIna8B.s:28159  .debug_str:0000000000012970 .LASF889
C:\Users\CYMR90~1\AppData\Local\Temp\ccSIna8B.s:32438  .debug_str:0000000000023701 .LASF890
C:\Users\CYMR90~1\AppData\Local\Temp\ccSIna8B.s:24647  .debug_str:0000000000004961 .LASF891
C:\Users\CYMR90~1\AppData\Local\Temp\ccSIna8B.s:27151  .debug_str:000000000000e992 .LASF892
C:\Users\CYMR90~1\AppData\Local\Temp\ccSIna8B.s:33220  .debug_str:0000000000026a50 .LASF893
C:\Users\CYMR90~1\AppData\Local\Temp\ccSIna8B.s:32598  .debug_str:000000000002406d .LASF894
C:\Users\CYMR90~1\AppData\Local\Temp\ccSIna8B.s:23817  .debug_str:00000000000013d9 .LASF895
C:\Users\CYMR90~1\AppData\Local\Temp\ccSIna8B.s:28551  .debug_str:0000000000014263 .LASF896
C:\Users\CYMR90~1\AppData\Local\Temp\ccSIna8B.s:24735  .debug_str:0000000000004eb6 .LASF897
C:\Users\CYMR90~1\AppData\Local\Temp\ccSIna8B.s:25971  .debug_str:0000000000009db7 .LASF898
C:\Users\CYMR90~1\AppData\Local\Temp\ccSIna8B.s:33522  .debug_str:0000000000027dce .LASF899
C:\Users\CYMR90~1\AppData\Local\Temp\ccSIna8B.s:26291  .debug_str:000000000000b1bb .LASF900
C:\Users\CYMR90~1\AppData\Local\Temp\ccSIna8B.s:30436  .debug_str:000000000001bba9 .LASF901
C:\Users\CYMR90~1\AppData\Local\Temp\ccSIna8B.s:34066  .debug_str:000000000002a18a .LASF902
C:\Users\CYMR90~1\AppData\Local\Temp\ccSIna8B.s:32796  .debug_str:0000000000024e0b .LASF903
C:\Users\CYMR90~1\AppData\Local\Temp\ccSIna8B.s:33668  .debug_str:0000000000028828 .LASF904
C:\Users\CYMR90~1\AppData\Local\Temp\ccSIna8B.s:28205  .debug_str:0000000000012c97 .LASF905
C:\Users\CYMR90~1\AppData\Local\Temp\ccSIna8B.s:25617  .debug_str:0000000000008769 .LASF906
C:\Users\CYMR90~1\AppData\Local\Temp\ccSIna8B.s:30772  .debug_str:000000000001d20b .LASF907
C:\Users\CYMR90~1\AppData\Local\Temp\ccSIna8B.s:27145  .debug_str:000000000000e929 .LASF908
C:\Users\CYMR90~1\AppData\Local\Temp\ccSIna8B.s:33492  .debug_str:0000000000027b99 .LASF909
C:\Users\CYMR90~1\AppData\Local\Temp\ccSIna8B.s:27767  .debug_str:000000000001103d .LASF910
C:\Users\CYMR90~1\AppData\Local\Temp\ccSIna8B.s:24195  .debug_str:0000000000002ae6 .LASF911
C:\Users\CYMR90~1\AppData\Local\Temp\ccSIna8B.s:23787  .debug_str:0000000000001243 .LASF912
C:\Users\CYMR90~1\AppData\Local\Temp\ccSIna8B.s:31888  .debug_str:000000000002165a .LASF913
C:\Users\CYMR90~1\AppData\Local\Temp\ccSIna8B.s:32778  .debug_str:0000000000024cdb .LASF914
C:\Users\CYMR90~1\AppData\Local\Temp\ccSIna8B.s:26675  .debug_str:000000000000cb5d .LASF915
C:\Users\CYMR90~1\AppData\Local\Temp\ccSIna8B.s:27001  .debug_str:000000000000e0b6 .LASF916
C:\Users\CYMR90~1\AppData\Local\Temp\ccSIna8B.s:27571  .debug_str:0000000000010457 .LASF917
C:\Users\CYMR90~1\AppData\Local\Temp\ccSIna8B.s:34312  .debug_str:000000000002afdf .LASF918
C:\Users\CYMR90~1\AppData\Local\Temp\ccSIna8B.s:23773  .debug_str:000000000000114f .LASF919
C:\Users\CYMR90~1\AppData\Local\Temp\ccSIna8B.s:26279  .debug_str:000000000000b0fa .LASF920
C:\Users\CYMR90~1\AppData\Local\Temp\ccSIna8B.s:32728  .debug_str:000000000002494e .LASF921
C:\Users\CYMR90~1\AppData\Local\Temp\ccSIna8B.s:30134  .debug_str:000000000001a8cb .LASF922
C:\Users\CYMR90~1\AppData\Local\Temp\ccSIna8B.s:33254  .debug_str:0000000000026c45 .LASF923
C:\Users\CYMR90~1\AppData\Local\Temp\ccSIna8B.s:29266  .debug_str:0000000000017129 .LASF924
C:\Users\CYMR90~1\AppData\Local\Temp\ccSIna8B.s:24151  .debug_str:000000000000282b .LASF925
C:\Users\CYMR90~1\AppData\Local\Temp\ccSIna8B.s:30344  .debug_str:000000000001b682 .LASF926
C:\Users\CYMR90~1\AppData\Local\Temp\ccSIna8B.s:23883  .debug_str:00000000000017a1 .LASF927
C:\Users\CYMR90~1\AppData\Local\Temp\ccSIna8B.s:28719  .debug_str:0000000000014ca2 .LASF928
C:\Users\CYMR90~1\AppData\Local\Temp\ccSIna8B.s:31420  .debug_str:000000000001f953 .LASF929
C:\Users\CYMR90~1\AppData\Local\Temp\ccSIna8B.s:34572  .debug_str:000000000002c0a2 .LASF930
C:\Users\CYMR90~1\AppData\Local\Temp\ccSIna8B.s:34794  .debug_str:000000000002cf52 .LASF931
C:\Users\CYMR90~1\AppData\Local\Temp\ccSIna8B.s:31316  .debug_str:000000000001f348 .LASF932
C:\Users\CYMR90~1\AppData\Local\Temp\ccSIna8B.s:34044  .debug_str:000000000002a02a .LASF933
C:\Users\CYMR90~1\AppData\Local\Temp\ccSIna8B.s:29061  .debug_str:00000000000161bb .LASF934
C:\Users\CYMR90~1\AppData\Local\Temp\ccSIna8B.s:29906  .debug_str:00000000000198f7 .LASF935
C:\Users\CYMR90~1\AppData\Local\Temp\ccSIna8B.s:28945  .debug_str:00000000000159ca .LASF936
C:\Users\CYMR90~1\AppData\Local\Temp\ccSIna8B.s:32870  .debug_str:0000000000025314 .LASF937
C:\Users\CYMR90~1\AppData\Local\Temp\ccSIna8B.s:23689  .debug_str:0000000000000c14 .LASF938
C:\Users\CYMR90~1\AppData\Local\Temp\ccSIna8B.s:31692  .debug_str:0000000000020a2a .LASF939
C:\Users\CYMR90~1\AppData\Local\Temp\ccSIna8B.s:32962  .debug_str:00000000000259a6 .LASF940
C:\Users\CYMR90~1\AppData\Local\Temp\ccSIna8B.s:26413  .debug_str:000000000000b9b9 .LASF941
C:\Users\CYMR90~1\AppData\Local\Temp\ccSIna8B.s:30122  .debug_str:000000000001a812 .LASF942
C:\Users\CYMR90~1\AppData\Local\Temp\ccSIna8B.s:29974  .debug_str:0000000000019e1b .LASF943
C:\Users\CYMR90~1\AppData\Local\Temp\ccSIna8B.s:33084  .debug_str:0000000000026202 .LASF944
C:\Users\CYMR90~1\AppData\Local\Temp\ccSIna8B.s:30530  .debug_str:000000000001c1ed .LASF945
C:\Users\CYMR90~1\AppData\Local\Temp\ccSIna8B.s:26431  .debug_str:000000000000bb1f .LASF946
C:\Users\CYMR90~1\AppData\Local\Temp\ccSIna8B.s:29420  .debug_str:0000000000017a55 .LASF947
C:\Users\CYMR90~1\AppData\Local\Temp\ccSIna8B.s:31038  .debug_str:000000000001e2e8 .LASF948
C:\Users\CYMR90~1\AppData\Local\Temp\ccSIna8B.s:27741  .debug_str:0000000000010e59 .LASF949
C:\Users\CYMR90~1\AppData\Local\Temp\ccSIna8B.s:26737  .debug_str:000000000000cfb8 .LASF950
C:\Users\CYMR90~1\AppData\Local\Temp\ccSIna8B.s:25321  .debug_str:0000000000007332 .LASF952
C:\Users\CYMR90~1\AppData\Local\Temp\ccSIna8B.s:28865  .debug_str:0000000000015571 .LASF953
C:\Users\CYMR90~1\AppData\Local\Temp\ccSIna8B.s:26771  .debug_str:000000000000d1ef .LASF954
C:\Users\CYMR90~1\AppData\Local\Temp\ccSIna8B.s:34786  .debug_str:000000000002cedd .LASF955
C:\Users\CYMR90~1\AppData\Local\Temp\ccSIna8B.s:33942  .debug_str:00000000000299ec .LASF956
C:\Users\CYMR90~1\AppData\Local\Temp\ccSIna8B.s:34034  .debug_str:0000000000029f94 .LASF960
C:\Users\CYMR90~1\AppData\Local\Temp\ccSIna8B.s:25877  .debug_str:00000000000097b6 .LASF961
C:\Users\CYMR90~1\AppData\Local\Temp\ccSIna8B.s:33282  .debug_str:0000000000026e1f .LASF962
C:\Users\CYMR90~1\AppData\Local\Temp\ccSIna8B.s:27979  .debug_str:0000000000011dae .LASF963
C:\Users\CYMR90~1\AppData\Local\Temp\ccSIna8B.s:25347  .debug_str:0000000000007519 .LASF964
C:\Users\CYMR90~1\AppData\Local\Temp\ccSIna8B.s:32072  .debug_str:0000000000022190 .LASF965
C:\Users\CYMR90~1\AppData\Local\Temp\ccSIna8B.s:30338  .debug_str:000000000001b616 .LASF966
C:\Users\CYMR90~1\AppData\Local\Temp\ccSIna8B.s:33226  .debug_str:0000000000026aac .LASF967
C:\Users\CYMR90~1\AppData\Local\Temp\ccSIna8B.s:34354  .debug_str:000000000002b294 .LASF968
C:\Users\CYMR90~1\AppData\Local\Temp\ccSIna8B.s:25075  .debug_str:0000000000006377 .LASF969
C:\Users\CYMR90~1\AppData\Local\Temp\ccSIna8B.s:28589  .debug_str:00000000000144ca .LASF970
C:\Users\CYMR90~1\AppData\Local\Temp\ccSIna8B.s:34446  .debug_str:000000000002b88f .LASF971
C:\Users\CYMR90~1\AppData\Local\Temp\ccSIna8B.s:27197  .debug_str:000000000000ec46 .LASF972
C:\Users\CYMR90~1\AppData\Local\Temp\ccSIna8B.s:27165  .debug_str:000000000000ea59 .LASF973
C:\Users\CYMR90~1\AppData\Local\Temp\ccSIna8B.s:26797  .debug_str:000000000000d3af .LASF974
C:\Users\CYMR90~1\AppData\Local\Temp\ccSIna8B.s:29195  .debug_str:0000000000016a2c .LASF975
C:\Users\CYMR90~1\AppData\Local\Temp\ccSIna8B.s:34820  .debug_str:000000000002d098 .LASF976
C:\Users\CYMR90~1\AppData\Local\Temp\ccSIna8B.s:26733  .debug_str:000000000000cf73 .LASF977
C:\Users\CYMR90~1\AppData\Local\Temp\ccSIna8B.s:34850  .debug_str:000000000002d2fc .LASF978
C:\Users\CYMR90~1\AppData\Local\Temp\ccSIna8B.s:33066  .debug_str:00000000000260c9 .LASF979
C:\Users\CYMR90~1\AppData\Local\Temp\ccSIna8B.s:33126  .debug_str:0000000000026467 .LASF980
C:\Users\CYMR90~1\AppData\Local\Temp\ccSIna8B.s:27253  .debug_str:000000000000efe1 .LASF981
C:\Users\CYMR90~1\AppData\Local\Temp\ccSIna8B.s:24775  .debug_str:0000000000005130 .LASF982
C:\Users\CYMR90~1\AppData\Local\Temp\ccSIna8B.s:28001  .debug_str:0000000000011ee9 .LASF983
C:\Users\CYMR90~1\AppData\Local\Temp\ccSIna8B.s:30754  .debug_str:000000000001d058 .LASF984
C:\Users\CYMR90~1\AppData\Local\Temp\ccSIna8B.s:30768  .debug_str:000000000001d144 .LASF985
C:\Users\CYMR90~1\AppData\Local\Temp\ccSIna8B.s:32356  .debug_str:0000000000023291 .LASF986
C:\Users\CYMR90~1\AppData\Local\Temp\ccSIna8B.s:29009  .debug_str:0000000000015df2 .LASF987
C:\Users\CYMR90~1\AppData\Local\Temp\ccSIna8B.s:24213  .debug_str:0000000000002bf9 .LASF988
C:\Users\CYMR90~1\AppData\Local\Temp\ccSIna8B.s:32268  .debug_str:0000000000022da8 .LASF989
C:\Users\CYMR90~1\AppData\Local\Temp\ccSIna8B.s:29724  .debug_str:0000000000018c8a .LASF990
C:\Users\CYMR90~1\AppData\Local\Temp\ccSIna8B.s:26729  .debug_str:000000000000cf4b .LASF991
C:\Users\CYMR90~1\AppData\Local\Temp\ccSIna8B.s:33228  .debug_str:0000000000026ad4 .LASF992
C:\Users\CYMR90~1\AppData\Local\Temp\ccSIna8B.s:25363  .debug_str:00000000000075ff .LASF993
C:\Users\CYMR90~1\AppData\Local\Temp\ccSIna8B.s:33046  .debug_str:0000000000025f7d .LASF994
C:\Users\CYMR90~1\AppData\Local\Temp\ccSIna8B.s:29806  .debug_str:00000000000192f0 .LASF995
C:\Users\CYMR90~1\AppData\Local\Temp\ccSIna8B.s:33850  .debug_str:00000000000293ec .LASF996
C:\Users\CYMR90~1\AppData\Local\Temp\ccSIna8B.s:30950  .debug_str:000000000001dcfb .LASF997
C:\Users\CYMR90~1\AppData\Local\Temp\ccSIna8B.s:31016  .debug_str:000000000001e19a .LASF998
C:\Users\CYMR90~1\AppData\Local\Temp\ccSIna8B.s:24113  .debug_str:0000000000002506 .LASF999
C:\Users\CYMR90~1\AppData\Local\Temp\ccSIna8B.s:24451  .debug_str:0000000000003ba5 .LASF1000
C:\Users\CYMR90~1\AppData\Local\Temp\ccSIna8B.s:32704  .debug_str:00000000000247e3 .LASF1001
C:\Users\CYMR90~1\AppData\Local\Temp\ccSIna8B.s:27577  .debug_str:00000000000104a6 .LASF1002
C:\Users\CYMR90~1\AppData\Local\Temp\ccSIna8B.s:24727  .debug_str:0000000000004e5d .LASF1003
C:\Users\CYMR90~1\AppData\Local\Temp\ccSIna8B.s:30574  .debug_str:000000000001c459 .LASF1004
C:\Users\CYMR90~1\AppData\Local\Temp\ccSIna8B.s:27955  .debug_str:0000000000011c45 .LASF1005
C:\Users\CYMR90~1\AppData\Local\Temp\ccSIna8B.s:26689  .debug_str:000000000000cd10 .LASF1006
C:\Users\CYMR90~1\AppData\Local\Temp\ccSIna8B.s:25049  .debug_str:00000000000061ee .LASF1007
C:\Users\CYMR90~1\AppData\Local\Temp\ccSIna8B.s:32068  .debug_str:0000000000022158 .LASF1008
C:\Users\CYMR90~1\AppData\Local\Temp\ccSIna8B.s:29498  .debug_str:0000000000017f0e .LASF1009
C:\Users\CYMR90~1\AppData\Local\Temp\ccSIna8B.s:29656  .debug_str:000000000001887d .LASF1010
C:\Users\CYMR90~1\AppData\Local\Temp\ccSIna8B.s:27017  .debug_str:000000000000e1c5 .LASF1011
C:\Users\CYMR90~1\AppData\Local\Temp\ccSIna8B.s:30812  .debug_str:000000000001d46f .LASF1012
C:\Users\CYMR90~1\AppData\Local\Temp\ccSIna8B.s:32272  .debug_str:0000000000022dd3 .LASF1013
C:\Users\CYMR90~1\AppData\Local\Temp\ccSIna8B.s:29926  .debug_str:0000000000019a9e .LASF1014
C:\Users\CYMR90~1\AppData\Local\Temp\ccSIna8B.s:26611  .debug_str:000000000000c699 .LASF1015
C:\Users\CYMR90~1\AppData\Local\Temp\ccSIna8B.s:24935  .debug_str:0000000000005ad9 .LASF1016
C:\Users\CYMR90~1\AppData\Local\Temp\ccSIna8B.s:24885  .debug_str:00000000000057d3 .LASF1017
C:\Users\CYMR90~1\AppData\Local\Temp\ccSIna8B.s:33378  .debug_str:000000000002742a .LASF1018
C:\Users\CYMR90~1\AppData\Local\Temp\ccSIna8B.s:27263  .debug_str:000000000000f063 .LASF1019
C:\Users\CYMR90~1\AppData\Local\Temp\ccSIna8B.s:24107  .debug_str:00000000000024bd .LASF1020
C:\Users\CYMR90~1\AppData\Local\Temp\ccSIna8B.s:29536  .debug_str:0000000000018172 .LASF1021
C:\Users\CYMR90~1\AppData\Local\Temp\ccSIna8B.s:26545  .debug_str:000000000000c2e0 .LASF1022
C:\Users\CYMR90~1\AppData\Local\Temp\ccSIna8B.s:33300  .debug_str:0000000000026f15 .LASF1023
C:\Users\CYMR90~1\AppData\Local\Temp\ccSIna8B.s:25783  .debug_str:00000000000091fc .LASF1024
C:\Users\CYMR90~1\AppData\Local\Temp\ccSIna8B.s:28273  .debug_str:00000000000130e0 .LASF1025
C:\Users\CYMR90~1\AppData\Local\Temp\ccSIna8B.s:27771  .debug_str:000000000001107e .LASF1026
C:\Users\CYMR90~1\AppData\Local\Temp\ccSIna8B.s:28711  .debug_str:0000000000014bee .LASF1027
C:\Users\CYMR90~1\AppData\Local\Temp\ccSIna8B.s:30888  .debug_str:000000000001d940 .LASF1028
C:\Users\CYMR90~1\AppData\Local\Temp\ccSIna8B.s:31274  .debug_str:000000000001f0ab .LASF1029
C:\Users\CYMR90~1\AppData\Local\Temp\ccSIna8B.s:32572  .debug_str:0000000000023ef9 .LASF1030
C:\Users\CYMR90~1\AppData\Local\Temp\ccSIna8B.s:31648  .debug_str:00000000000207a5 .LASF1031
C:\Users\CYMR90~1\AppData\Local\Temp\ccSIna8B.s:33944  .debug_str:0000000000029a54 .LASF1032
C:\Users\CYMR90~1\AppData\Local\Temp\ccSIna8B.s:25933  .debug_str:0000000000009b43 .LASF1033
C:\Users\CYMR90~1\AppData\Local\Temp\ccSIna8B.s:24783  .debug_str:00000000000051b2 .LASF1034
C:\Users\CYMR90~1\AppData\Local\Temp\ccSIna8B.s:29852  .debug_str:00000000000195ae .LASF1035
C:\Users\CYMR90~1\AppData\Local\Temp\ccSIna8B.s:30114  .debug_str:000000000001a7b9 .LASF1036
C:\Users\CYMR90~1\AppData\Local\Temp\ccSIna8B.s:32370  .debug_str:0000000000023328 .LASF1037
C:\Users\CYMR90~1\AppData\Local\Temp\ccSIna8B.s:27429  .debug_str:000000000000fb9e .LASF1038
C:\Users\CYMR90~1\AppData\Local\Temp\ccSIna8B.s:30990  .debug_str:000000000001e013 .LASF1039
C:\Users\CYMR90~1\AppData\Local\Temp\ccSIna8B.s:28883  .debug_str:00000000000156a3 .LASF1040
C:\Users\CYMR90~1\AppData\Local\Temp\ccSIna8B.s:27337  .debug_str:000000000000f4db .LASF1041
C:\Users\CYMR90~1\AppData\Local\Temp\ccSIna8B.s:33116  .debug_str:00000000000263f7 .LASF1042
C:\Users\CYMR90~1\AppData\Local\Temp\ccSIna8B.s:27579  .debug_str:00000000000104bd .LASF1043
C:\Users\CYMR90~1\AppData\Local\Temp\ccSIna8B.s:23519  .debug_str:00000000000001c1 .LASF1044
C:\Users\CYMR90~1\AppData\Local\Temp\ccSIna8B.s:25795  .debug_str:0000000000009283 .LASF1045
C:\Users\CYMR90~1\AppData\Local\Temp\ccSIna8B.s:30046  .debug_str:000000000001a244 .LASF1046
C:\Users\CYMR90~1\AppData\Local\Temp\ccSIna8B.s:29131  .debug_str:00000000000165d4 .LASF1047
C:\Users\CYMR90~1\AppData\Local\Temp\ccSIna8B.s:32416  .debug_str:00000000000235b1 .LASF1048
C:\Users\CYMR90~1\AppData\Local\Temp\ccSIna8B.s:31236  .debug_str:000000000001ee70 .LASF1049
C:\Users\CYMR90~1\AppData\Local\Temp\ccSIna8B.s:24287  .debug_str:00000000000030f3 .LASF1050
C:\Users\CYMR90~1\AppData\Local\Temp\ccSIna8B.s:24435  .debug_str:0000000000003ad6 .LASF1051
C:\Users\CYMR90~1\AppData\Local\Temp\ccSIna8B.s:31456  .debug_str:000000000001fba6 .LASF1052
C:\Users\CYMR90~1\AppData\Local\Temp\ccSIna8B.s:26289  .debug_str:000000000000b1a9 .LASF1053
C:\Users\CYMR90~1\AppData\Local\Temp\ccSIna8B.s:32312  .debug_str:0000000000023019 .LASF1054
C:\Users\CYMR90~1\AppData\Local\Temp\ccSIna8B.s:28247  .debug_str:0000000000012f30 .LASF1055
C:\Users\CYMR90~1\AppData\Local\Temp\ccSIna8B.s:27193  .debug_str:000000000000ebf4 .LASF1056
C:\Users\CYMR90~1\AppData\Local\Temp\ccSIna8B.s:33560  .debug_str:0000000000028066 .LASF1057
C:\Users\CYMR90~1\AppData\Local\Temp\ccSIna8B.s:34154  .debug_str:000000000002a652 .LASF1058
C:\Users\CYMR90~1\AppData\Local\Temp\ccSIna8B.s:32868  .debug_str:00000000000252f2 .LASF1059
C:\Users\CYMR90~1\AppData\Local\Temp\ccSIna8B.s:26119  .debug_str:000000000000a699 .LASF1060
C:\Users\CYMR90~1\AppData\Local\Temp\ccSIna8B.s:25599  .debug_str:0000000000008666 .LASF1061
C:\Users\CYMR90~1\AppData\Local\Temp\ccSIna8B.s:23655  .debug_str:00000000000009a4 .LASF1062
C:\Users\CYMR90~1\AppData\Local\Temp\ccSIna8B.s:28627  .debug_str:00000000000146da .LASF1063
C:\Users\CYMR90~1\AppData\Local\Temp\ccSIna8B.s:24497  .debug_str:0000000000003e7e .LASF1064
C:\Users\CYMR90~1\AppData\Local\Temp\ccSIna8B.s:23593  .debug_str:000000000000060a .LASF1065
C:\Users\CYMR90~1\AppData\Local\Temp\ccSIna8B.s:34856  .debug_str:000000000002d345 .LASF1066
C:\Users\CYMR90~1\AppData\Local\Temp\ccSIna8B.s:32706  .debug_str:00000000000247fb .LASF1067
C:\Users\CYMR90~1\AppData\Local\Temp\ccSIna8B.s:29193  .debug_str:0000000000016a12 .LASF1068
C:\Users\CYMR90~1\AppData\Local\Temp\ccSIna8B.s:30784  .debug_str:000000000001d2b5 .LASF1069
C:\Users\CYMR90~1\AppData\Local\Temp\ccSIna8B.s:23707  .debug_str:0000000000000d0b .LASF1070
C:\Users\CYMR90~1\AppData\Local\Temp\ccSIna8B.s:26061  .debug_str:000000000000a30c .LASF1071
C:\Users\CYMR90~1\AppData\Local\Temp\ccSIna8B.s:32220  .debug_str:0000000000022a6b .LASF1072
C:\Users\CYMR90~1\AppData\Local\Temp\ccSIna8B.s:30750  .debug_str:000000000001d016 .LASF1073
C:\Users\CYMR90~1\AppData\Local\Temp\ccSIna8B.s:33814  .debug_str:000000000002917e .LASF1074
C:\Users\CYMR90~1\AppData\Local\Temp\ccSIna8B.s:29344  .debug_str:000000000001759f .LASF1075
C:\Users\CYMR90~1\AppData\Local\Temp\ccSIna8B.s:24145  .debug_str:00000000000027db .LASF1076
C:\Users\CYMR90~1\AppData\Local\Temp\ccSIna8B.s:34244  .debug_str:000000000002ac16 .LASF1077
C:\Users\CYMR90~1\AppData\Local\Temp\ccSIna8B.s:25109  .debug_str:0000000000006599 .LASF1078
C:\Users\CYMR90~1\AppData\Local\Temp\ccSIna8B.s:31690  .debug_str:0000000000020a18 .LASF1079
C:\Users\CYMR90~1\AppData\Local\Temp\ccSIna8B.s:27029  .debug_str:000000000000e279 .LASF1080
C:\Users\CYMR90~1\AppData\Local\Temp\ccSIna8B.s:30552  .debug_str:000000000001c31c .LASF1081
C:\Users\CYMR90~1\AppData\Local\Temp\ccSIna8B.s:33408  .debug_str:00000000000276b1 .LASF1082
C:\Users\CYMR90~1\AppData\Local\Temp\ccSIna8B.s:28819  .debug_str:0000000000015303 .LASF1083
C:\Users\CYMR90~1\AppData\Local\Temp\ccSIna8B.s:31910  .debug_str:00000000000217c0 .LASF1084
C:\Users\CYMR90~1\AppData\Local\Temp\ccSIna8B.s:24805  .debug_str:0000000000005303 .LASF1085
C:\Users\CYMR90~1\AppData\Local\Temp\ccSIna8B.s:23919  .debug_str:00000000000019e9 .LASF1086
C:\Users\CYMR90~1\AppData\Local\Temp\ccSIna8B.s:27063  .debug_str:000000000000e440 .LASF1087
C:\Users\CYMR90~1\AppData\Local\Temp\ccSIna8B.s:33124  .debug_str:0000000000026458 .LASF1088
C:\Users\CYMR90~1\AppData\Local\Temp\ccSIna8B.s:32214  .debug_str:0000000000022a14 .LASF1089
C:\Users\CYMR90~1\AppData\Local\Temp\ccSIna8B.s:23765  .debug_str:00000000000010c4 .LASF1090
C:\Users\CYMR90~1\AppData\Local\Temp\ccSIna8B.s:34782  .debug_str:000000000002ce85 .LASF1091
C:\Users\CYMR90~1\AppData\Local\Temp\ccSIna8B.s:33520  .debug_str:0000000000027db6 .LASF1092
C:\Users\CYMR90~1\AppData\Local\Temp\ccSIna8B.s:27405  .debug_str:000000000000f955 .LASF1093
C:\Users\CYMR90~1\AppData\Local\Temp\ccSIna8B.s:33168  .debug_str:00000000000266c4 .LASF1094
C:\Users\CYMR90~1\AppData\Local\Temp\ccSIna8B.s:28899  .debug_str:000000000001572e .LASF1095
C:\Users\CYMR90~1\AppData\Local\Temp\ccSIna8B.s:30360  .debug_str:000000000001b768 .LASF1096
C:\Users\CYMR90~1\AppData\Local\Temp\ccSIna8B.s:30892  .debug_str:000000000001d992 .LASF1097
C:\Users\CYMR90~1\AppData\Local\Temp\ccSIna8B.s:25097  .debug_str:00000000000064f4 .LASF1098
C:\Users\CYMR90~1\AppData\Local\Temp\ccSIna8B.s:28267  .debug_str:0000000000013067 .LASF1099
C:\Users\CYMR90~1\AppData\Local\Temp\ccSIna8B.s:27961  .debug_str:0000000000011c9a .LASF1100
C:\Users\CYMR90~1\AppData\Local\Temp\ccSIna8B.s:32488  .debug_str:0000000000023a50 .LASF1101
C:\Users\CYMR90~1\AppData\Local\Temp\ccSIna8B.s:26743  .debug_str:000000000000d008 .LASF1102
C:\Users\CYMR90~1\AppData\Local\Temp\ccSIna8B.s:32162  .debug_str:00000000000226ab .LASF1103
C:\Users\CYMR90~1\AppData\Local\Temp\ccSIna8B.s:33758  .debug_str:0000000000028e4e .LASF1104
C:\Users\CYMR90~1\AppData\Local\Temp\ccSIna8B.s:31578  .debug_str:000000000002030a .LASF1105
C:\Users\CYMR90~1\AppData\Local\Temp\ccSIna8B.s:28451  .debug_str:0000000000013c38 .LASF1106
C:\Users\CYMR90~1\AppData\Local\Temp\ccSIna8B.s:32412  .debug_str:000000000002357b .LASF1107
C:\Users\CYMR90~1\AppData\Local\Temp\ccSIna8B.s:30280  .debug_str:000000000001b264 .LASF1108
C:\Users\CYMR90~1\AppData\Local\Temp\ccSIna8B.s:25113  .debug_str:00000000000065d5 .LASF1109
C:\Users\CYMR90~1\AppData\Local\Temp\ccSIna8B.s:26091  .debug_str:000000000000a4b4 .LASF1110
C:\Users\CYMR90~1\AppData\Local\Temp\ccSIna8B.s:23977  .debug_str:0000000000001d70 .LASF1111
C:\Users\CYMR90~1\AppData\Local\Temp\ccSIna8B.s:25197  .debug_str:0000000000006b22 .LASF1112
C:\Users\CYMR90~1\AppData\Local\Temp\ccSIna8B.s:26313  .debug_str:000000000000b30e .LASF1113
C:\Users\CYMR90~1\AppData\Local\Temp\ccSIna8B.s:24851  .debug_str:00000000000055bd .LASF1114
C:\Users\CYMR90~1\AppData\Local\Temp\ccSIna8B.s:25881  .debug_str:00000000000097dd .LASF1115
C:\Users\CYMR90~1\AppData\Local\Temp\ccSIna8B.s:33602  .debug_str:0000000000028348 .LASF1116
C:\Users\CYMR90~1\AppData\Local\Temp\ccSIna8B.s:34104  .debug_str:000000000002a370 .LASF1117
C:\Users\CYMR90~1\AppData\Local\Temp\ccSIna8B.s:25019  .debug_str:0000000000006011 .LASF1118
C:\Users\CYMR90~1\AppData\Local\Temp\ccSIna8B.s:29512  .debug_str:0000000000017fed .LASF1119
C:\Users\CYMR90~1\AppData\Local\Temp\ccSIna8B.s:25567  .debug_str:0000000000008453 .LASF1120
C:\Users\CYMR90~1\AppData\Local\Temp\ccSIna8B.s:25777  .debug_str:000000000000919b .LASF1121
C:\Users\CYMR90~1\AppData\Local\Temp\ccSIna8B.s:28383  .debug_str:000000000001382e .LASF1122
C:\Users\CYMR90~1\AppData\Local\Temp\ccSIna8B.s:28027  .debug_str:0000000000012074 .LASF1123
C:\Users\CYMR90~1\AppData\Local\Temp\ccSIna8B.s:31666  .debug_str:00000000000208b3 .LASF1124
C:\Users\CYMR90~1\AppData\Local\Temp\ccSIna8B.s:28823  .debug_str:000000000001531f .LASF1125
C:\Users\CYMR90~1\AppData\Local\Temp\ccSIna8B.s:28919  .debug_str:0000000000015867 .LASF1126
C:\Users\CYMR90~1\AppData\Local\Temp\ccSIna8B.s:32302  .debug_str:0000000000022f7b .LASF1127
C:\Users\CYMR90~1\AppData\Local\Temp\ccSIna8B.s:33406  .debug_str:000000000002769c .LASF1128
C:\Users\CYMR90~1\AppData\Local\Temp\ccSIna8B.s:24899  .debug_str:00000000000058b0 .LASF1129
C:\Users\CYMR90~1\AppData\Local\Temp\ccSIna8B.s:28917  .debug_str:0000000000015852 .LASF1130
C:\Users\CYMR90~1\AppData\Local\Temp\ccSIna8B.s:33940  .debug_str:00000000000299d7 .LASF1131
C:\Users\CYMR90~1\AppData\Local\Temp\ccSIna8B.s:34344  .debug_str:000000000002b201 .LASF1132
C:\Users\CYMR90~1\AppData\Local\Temp\ccSIna8B.s:29626  .debug_str:00000000000186b0 .LASF1133
C:\Users\CYMR90~1\AppData\Local\Temp\ccSIna8B.s:32458  .debug_str:0000000000023857 .LASF1134
C:\Users\CYMR90~1\AppData\Local\Temp\ccSIna8B.s:25451  .debug_str:0000000000007bea .LASF1135
C:\Users\CYMR90~1\AppData\Local\Temp\ccSIna8B.s:24667  .debug_str:0000000000004a9b .LASF1136
C:\Users\CYMR90~1\AppData\Local\Temp\ccSIna8B.s:24503  .debug_str:0000000000003eb7 .LASF1137
C:\Users\CYMR90~1\AppData\Local\Temp\ccSIna8B.s:33950  .debug_str:0000000000029ab3 .LASF1138
C:\Users\CYMR90~1\AppData\Local\Temp\ccSIna8B.s:31020  .debug_str:000000000001e1d3 .LASF1139
C:\Users\CYMR90~1\AppData\Local\Temp\ccSIna8B.s:33936  .debug_str:00000000000299aa .LASF1140
C:\Users\CYMR90~1\AppData\Local\Temp\ccSIna8B.s:23565  .debug_str:00000000000004ad .LASF1141
C:\Users\CYMR90~1\AppData\Local\Temp\ccSIna8B.s:28059  .debug_str:00000000000122ba .LASF1142
C:\Users\CYMR90~1\AppData\Local\Temp\ccSIna8B.s:27069  .debug_str:000000000000e4b3 .LASF1143
C:\Users\CYMR90~1\AppData\Local\Temp\ccSIna8B.s:33464  .debug_str:00000000000279df .LASF1144
C:\Users\CYMR90~1\AppData\Local\Temp\ccSIna8B.s:31624  .debug_str:00000000000205c3 .LASF1145
C:\Users\CYMR90~1\AppData\Local\Temp\ccSIna8B.s:26577  .debug_str:000000000000c4b8 .LASF1146
C:\Users\CYMR90~1\AppData\Local\Temp\ccSIna8B.s:34778  .debug_str:000000000002ce43 .LASF1147
C:\Users\CYMR90~1\AppData\Local\Temp\ccSIna8B.s:29370  .debug_str:0000000000017718 .LASF1148
C:\Users\CYMR90~1\AppData\Local\Temp\ccSIna8B.s:29634  .debug_str:000000000001875d .LASF1149
C:\Users\CYMR90~1\AppData\Local\Temp\ccSIna8B.s:30382  .debug_str:000000000001b8be .LASF1150
C:\Users\CYMR90~1\AppData\Local\Temp\ccSIna8B.s:23979  .debug_str:0000000000001d8e .LASF1151
C:\Users\CYMR90~1\AppData\Local\Temp\ccSIna8B.s:30802  .debug_str:000000000001d3ca .LASF1152
C:\Users\CYMR90~1\AppData\Local\Temp\ccSIna8B.s:25905  .debug_str:000000000000991c .LASF1153
C:\Users\CYMR90~1\AppData\Local\Temp\ccSIna8B.s:31924  .debug_str:0000000000021872 .LASF1154
C:\Users\CYMR90~1\AppData\Local\Temp\ccSIna8B.s:31150  .debug_str:000000000001e9cd .LASF1155
C:\Users\CYMR90~1\AppData\Local\Temp\ccSIna8B.s:24787  .debug_str:00000000000051de .LASF1156
C:\Users\CYMR90~1\AppData\Local\Temp\ccSIna8B.s:30984  .debug_str:000000000001df98 .LASF1157
C:\Users\CYMR90~1\AppData\Local\Temp\ccSIna8B.s:26331  .debug_str:000000000000b3fe .LASF1158
C:\Users\CYMR90~1\AppData\Local\Temp\ccSIna8B.s:34120  .debug_str:000000000002a496 .LASF1159
C:\Users\CYMR90~1\AppData\Local\Temp\ccSIna8B.s:23869  .debug_str:00000000000016d5 .LASF1160
C:\Users\CYMR90~1\AppData\Local\Temp\ccSIna8B.s:34204  .debug_str:000000000002a99d .LASF1161
C:\Users\CYMR90~1\AppData\Local\Temp\ccSIna8B.s:33892  .debug_str:000000000002966e .LASF1162
C:\Users\CYMR90~1\AppData\Local\Temp\ccSIna8B.s:30878  .debug_str:000000000001d8bb .LASF1163
C:\Users\CYMR90~1\AppData\Local\Temp\ccSIna8B.s:30014  .debug_str:000000000001a046 .LASF1164
C:\Users\CYMR90~1\AppData\Local\Temp\ccSIna8B.s:26881  .debug_str:000000000000d9b0 .LASF1165
C:\Users\CYMR90~1\AppData\Local\Temp\ccSIna8B.s:31548  .debug_str:000000000002016b .LASF1166
C:\Users\CYMR90~1\AppData\Local\Temp\ccSIna8B.s:28821  .debug_str:0000000000015315 .LASF1167
C:\Users\CYMR90~1\AppData\Local\Temp\ccSIna8B.s:25903  .debug_str:0000000000009912 .LASF1168
C:\Users\CYMR90~1\AppData\Local\Temp\ccSIna8B.s:28855  .debug_str:00000000000154ed .LASF1169
C:\Users\CYMR90~1\AppData\Local\Temp\ccSIna8B.s:30222  .debug_str:000000000001ae94 .LASF1170
C:\Users\CYMR90~1\AppData\Local\Temp\ccSIna8B.s:29928  .debug_str:0000000000019ab5 .LASF1171
C:\Users\CYMR90~1\AppData\Local\Temp\ccSIna8B.s:34148  .debug_str:000000000002a620 .LASF1172
C:\Users\CYMR90~1\AppData\Local\Temp\ccSIna8B.s:29139  .debug_str:0000000000016645 .LASF1173
C:\Users\CYMR90~1\AppData\Local\Temp\ccSIna8B.s:23687  .debug_str:0000000000000c06 .LASF1174
C:\Users\CYMR90~1\AppData\Local\Temp\ccSIna8B.s:24087  .debug_str:0000000000002374 .LASF1175
C:\Users\CYMR90~1\AppData\Local\Temp\ccSIna8B.s:28355  .debug_str:000000000001367e .LASF1176
C:\Users\CYMR90~1\AppData\Local\Temp\ccSIna8B.s:26685  .debug_str:000000000000cce0 .LASF1177
C:\Users\CYMR90~1\AppData\Local\Temp\ccSIna8B.s:30936  .debug_str:000000000001dc54 .LASF1178
C:\Users\CYMR90~1\AppData\Local\Temp\ccSIna8B.s:27305  .debug_str:000000000000f2cb .LASF1179
C:\Users\CYMR90~1\AppData\Local\Temp\ccSIna8B.s:26867  .debug_str:000000000000d8f6 .LASF1180
C:\Users\CYMR90~1\AppData\Local\Temp\ccSIna8B.s:32662  .debug_str:00000000000245b3 .LASF1181
C:\Users\CYMR90~1\AppData\Local\Temp\ccSIna8B.s:25713  .debug_str:0000000000008d75 .LASF1182
C:\Users\CYMR90~1\AppData\Local\Temp\ccSIna8B.s:24253  .debug_str:0000000000002ea5 .LASF1183
C:\Users\CYMR90~1\AppData\Local\Temp\ccSIna8B.s:31260  .debug_str:000000000001efc9 .LASF1184
C:\Users\CYMR90~1\AppData\Local\Temp\ccSIna8B.s:31722  .debug_str:0000000000020c09 .LASF1185
C:\Users\CYMR90~1\AppData\Local\Temp\ccSIna8B.s:32910  .debug_str:0000000000025601 .LASF1186
C:\Users\CYMR90~1\AppData\Local\Temp\ccSIna8B.s:23983  .debug_str:0000000000001daf .LASF1187
C:\Users\CYMR90~1\AppData\Local\Temp\ccSIna8B.s:24909  .debug_str:0000000000005940 .LASF1188
C:\Users\CYMR90~1\AppData\Local\Temp\ccSIna8B.s:32266  .debug_str:0000000000022d94 .LASF1189
C:\Users\CYMR90~1\AppData\Local\Temp\ccSIna8B.s:25455  .debug_str:0000000000007c1b .LASF1190
C:\Users\CYMR90~1\AppData\Local\Temp\ccSIna8B.s:32248  .debug_str:0000000000022c1d .LASF1191
C:\Users\CYMR90~1\AppData\Local\Temp\ccSIna8B.s:26659  .debug_str:000000000000ca36 .LASF1192
C:\Users\CYMR90~1\AppData\Local\Temp\ccSIna8B.s:31912  .debug_str:00000000000217d2 .LASF1193
C:\Users\CYMR90~1\AppData\Local\Temp\ccSIna8B.s:26919  .debug_str:000000000000dbcf .LASF1194
C:\Users\CYMR90~1\AppData\Local\Temp\ccSIna8B.s:30480  .debug_str:000000000001be7f .LASF1195
C:\Users\CYMR90~1\AppData\Local\Temp\ccSIna8B.s:28505  .debug_str:0000000000013f98 .LASF1196
C:\Users\CYMR90~1\AppData\Local\Temp\ccSIna8B.s:31948  .debug_str:0000000000021a3f .LASF1197
C:\Users\CYMR90~1\AppData\Local\Temp\ccSIna8B.s:34146  .debug_str:000000000002a611 .LASF1198
C:\Users\CYMR90~1\AppData\Local\Temp\ccSIna8B.s:29163  .debug_str:000000000001683b .LASF1199
C:\Users\CYMR90~1\AppData\Local\Temp\ccSIna8B.s:34152  .debug_str:000000000002a647 .LASF1200
C:\Users\CYMR90~1\AppData\Local\Temp\ccSIna8B.s:26153  .debug_str:000000000000a857 .LASF1201
C:\Users\CYMR90~1\AppData\Local\Temp\ccSIna8B.s:25811  .debug_str:0000000000009393 .LASF1202
C:\Users\CYMR90~1\AppData\Local\Temp\ccSIna8B.s:29356  .debug_str:0000000000017661 .LASF1203
C:\Users\CYMR90~1\AppData\Local\Temp\ccSIna8B.s:33240  .debug_str:0000000000026b7d .LASF1204
C:\Users\CYMR90~1\AppData\Local\Temp\ccSIna8B.s:28409  .debug_str:00000000000139ee .LASF1205
C:\Users\CYMR90~1\AppData\Local\Temp\ccSIna8B.s:27473  .debug_str:000000000000fe71 .LASF1206
C:\Users\CYMR90~1\AppData\Local\Temp\ccSIna8B.s:34116  .debug_str:000000000002a464 .LASF1207
C:\Users\CYMR90~1\AppData\Local\Temp\ccSIna8B.s:32760  .debug_str:0000000000024be1 .LASF1208
C:\Users\CYMR90~1\AppData\Local\Temp\ccSIna8B.s:27397  .debug_str:000000000000f8f8 .LASF1209
C:\Users\CYMR90~1\AppData\Local\Temp\ccSIna8B.s:24799  .debug_str:000000000000529b .LASF1210
C:\Users\CYMR90~1\AppData\Local\Temp\ccSIna8B.s:24901  .debug_str:00000000000058c6 .LASF1211
C:\Users\CYMR90~1\AppData\Local\Temp\ccSIna8B.s:25603  .debug_str:00000000000086aa .LASF1212
C:\Users\CYMR90~1\AppData\Local\Temp\ccSIna8B.s:25191  .debug_str:0000000000006aa2 .LASF1213
C:\Users\CYMR90~1\AppData\Local\Temp\ccSIna8B.s:24097  .debug_str:0000000000002430 .LASF1214
C:\Users\CYMR90~1\AppData\Local\Temp\ccSIna8B.s:25949  .debug_str:0000000000009c50 .LASF1215
C:\Users\CYMR90~1\AppData\Local\Temp\ccSIna8B.s:24039  .debug_str:00000000000020ab .LASF1216
C:\Users\CYMR90~1\AppData\Local\Temp\ccSIna8B.s:32366  .debug_str:00000000000232fb .LASF1217
C:\Users\CYMR90~1\AppData\Local\Temp\ccSIna8B.s:32382  .debug_str:00000000000233c8 .LASF1218
C:\Users\CYMR90~1\AppData\Local\Temp\ccSIna8B.s:32816  .debug_str:0000000000024f8e .LASF1219
C:\Users\CYMR90~1\AppData\Local\Temp\ccSIna8B.s:30364  .debug_str:000000000001b79c .LASF1220
C:\Users\CYMR90~1\AppData\Local\Temp\ccSIna8B.s:26961  .debug_str:000000000000de21 .LASF1221
C:\Users\CYMR90~1\AppData\Local\Temp\ccSIna8B.s:28675  .debug_str:0000000000014a1a .LASF1222
C:\Users\CYMR90~1\AppData\Local\Temp\ccSIna8B.s:24273  .debug_str:0000000000002fd7 .LASF1223
C:\Users\CYMR90~1\AppData\Local\Temp\ccSIna8B.s:30108  .debug_str:000000000001a783 .LASF1224
C:\Users\CYMR90~1\AppData\Local\Temp\ccSIna8B.s:33426  .debug_str:00000000000277ce .LASF1225
C:\Users\CYMR90~1\AppData\Local\Temp\ccSIna8B.s:26417  .debug_str:000000000000b9f3 .LASF1226
C:\Users\CYMR90~1\AppData\Local\Temp\ccSIna8B.s:25337  .debug_str:000000000000746f .LASF1227
C:\Users\CYMR90~1\AppData\Local\Temp\ccSIna8B.s:24369  .debug_str:0000000000003646 .LASF1228
C:\Users\CYMR90~1\AppData\Local\Temp\ccSIna8B.s:34840  .debug_str:000000000002d261 .LASF1229
C:\Users\CYMR90~1\AppData\Local\Temp\ccSIna8B.s:33874  .debug_str:000000000002955e .LASF1230
C:\Users\CYMR90~1\AppData\Local\Temp\ccSIna8B.s:32876  .debug_str:0000000000025369 .LASF1231
C:\Users\CYMR90~1\AppData\Local\Temp\ccSIna8B.s:31900  .debug_str:0000000000021728 .LASF1232
C:\Users\CYMR90~1\AppData\Local\Temp\ccSIna8B.s:31782  .debug_str:0000000000020fc6 .LASF1233
C:\Users\CYMR90~1\AppData\Local\Temp\ccSIna8B.s:30820  .debug_str:000000000001d4d8 .LASF1234
C:\Users\CYMR90~1\AppData\Local\Temp\ccSIna8B.s:29882  .debug_str:000000000001979a .LASF1235
C:\Users\CYMR90~1\AppData\Local\Temp\ccSIna8B.s:28573  .debug_str:00000000000143ec .LASF1236
C:\Users\CYMR90~1\AppData\Local\Temp\ccSIna8B.s:27945  .debug_str:0000000000011bc5 .LASF1237
C:\Users\CYMR90~1\AppData\Local\Temp\ccSIna8B.s:29254  .debug_str:0000000000017066 .LASF1238
C:\Users\CYMR90~1\AppData\Local\Temp\ccSIna8B.s:26021  .debug_str:000000000000a075 .LASF1239
C:\Users\CYMR90~1\AppData\Local\Temp\ccSIna8B.s:25015  .debug_str:0000000000005fd0 .LASF1240
C:\Users\CYMR90~1\AppData\Local\Temp\ccSIna8B.s:24055  .debug_str:0000000000002197 .LASF1241
C:\Users\CYMR90~1\AppData\Local\Temp\ccSIna8B.s:34546  .debug_str:000000000002bef3 .LASF1242
C:\Users\CYMR90~1\AppData\Local\Temp\ccSIna8B.s:23579  .debug_str:0000000000000561 .LASF1243
C:\Users\CYMR90~1\AppData\Local\Temp\ccSIna8B.s:34018  .debug_str:0000000000029ea9 .LASF1244
C:\Users\CYMR90~1\AppData\Local\Temp\ccSIna8B.s:33030  .debug_str:0000000000025e9c .LASF1245
C:\Users\CYMR90~1\AppData\Local\Temp\ccSIna8B.s:32058  .debug_str:00000000000220c7 .LASF1246
C:\Users\CYMR90~1\AppData\Local\Temp\ccSIna8B.s:31060  .debug_str:000000000001e465 .LASF1247
C:\Users\CYMR90~1\AppData\Local\Temp\ccSIna8B.s:30166  .debug_str:000000000001ab23 .LASF1248
C:\Users\CYMR90~1\AppData\Local\Temp\ccSIna8B.s:29207  .debug_str:0000000000016b36 .LASF1249
C:\Users\CYMR90~1\AppData\Local\Temp\ccSIna8B.s:29374  .debug_str:0000000000017779 .LASF1250
C:\Users\CYMR90~1\AppData\Local\Temp\ccSIna8B.s:32848  .debug_str:000000000002516e .LASF1251
C:\Users\CYMR90~1\AppData\Local\Temp\ccSIna8B.s:29476  .debug_str:0000000000017de7 .LASF1252
C:\Users\CYMR90~1\AppData\Local\Temp\ccSIna8B.s:26803  .debug_str:000000000000d429 .LASF1253
C:\Users\CYMR90~1\AppData\Local\Temp\ccSIna8B.s:25825  .debug_str:0000000000009462 .LASF1254
C:\Users\CYMR90~1\AppData\Local\Temp\ccSIna8B.s:23831  .debug_str:00000000000014bd .LASF1255
C:\Users\CYMR90~1\AppData\Local\Temp\ccSIna8B.s:26721  .debug_str:000000000000cef5 .LASF1256
C:\Users\CYMR90~1\AppData\Local\Temp\ccSIna8B.s:24969  .debug_str:0000000000005d3e .LASF1257
C:\Users\CYMR90~1\AppData\Local\Temp\ccSIna8B.s:29750  .debug_str:0000000000018ebe .LASF1258
C:\Users\CYMR90~1\AppData\Local\Temp\ccSIna8B.s:29752  .debug_str:0000000000018ed1 .LASF1259
C:\Users\CYMR90~1\AppData\Local\Temp\ccSIna8B.s:32252  .debug_str:0000000000022c4d .LASF1260
C:\Users\CYMR90~1\AppData\Local\Temp\ccSIna8B.s:30358  .debug_str:000000000001b755 .LASF1261
C:\Users\CYMR90~1\AppData\Local\Temp\ccSIna8B.s:27747  .debug_str:0000000000010f5d .LASF1262
C:\Users\CYMR90~1\AppData\Local\Temp\ccSIna8B.s:24855  .debug_str:0000000000005600 .LASF1263
C:\Users\CYMR90~1\AppData\Local\Temp\ccSIna8B.s:27045  .debug_str:000000000000e33f .LASF1264
C:\Users\CYMR90~1\AppData\Local\Temp\ccSIna8B.s:29231  .debug_str:0000000000016d5d .LASF1265
C:\Users\CYMR90~1\AppData\Local\Temp\ccSIna8B.s:31032  .debug_str:000000000001e293 .LASF1266
C:\Users\CYMR90~1\AppData\Local\Temp\ccSIna8B.s:32278  .debug_str:0000000000022e37 .LASF1267
C:\Users\CYMR90~1\AppData\Local\Temp\ccSIna8B.s:32452  .debug_str:000000000002380d .LASF1268
C:\Users\CYMR90~1\AppData\Local\Temp\ccSIna8B.s:27885  .debug_str:000000000001172c .LASF1269
C:\Users\CYMR90~1\AppData\Local\Temp\ccSIna8B.s:34596  .debug_str:000000000002c21e .LASF1270
C:\Users\CYMR90~1\AppData\Local\Temp\ccSIna8B.s:29478  .debug_str:0000000000017dfe .LASF1271
C:\Users\CYMR90~1\AppData\Local\Temp\ccSIna8B.s:33978  .debug_str:0000000000029c60 .LASF1272
C:\Users\CYMR90~1\AppData\Local\Temp\ccSIna8B.s:30938  .debug_str:000000000001dc61 .LASF1273
C:\Users\CYMR90~1\AppData\Local\Temp\ccSIna8B.s:23645  .debug_str:0000000000000916 .LASF1274
C:\Users\CYMR90~1\AppData\Local\Temp\ccSIna8B.s:29760  .debug_str:0000000000018f54 .LASF1275
C:\Users\CYMR90~1\AppData\Local\Temp\ccSIna8B.s:23755  .debug_str:0000000000001040 .LASF1276
C:\Users\CYMR90~1\AppData\Local\Temp\ccSIna8B.s:27765  .debug_str:000000000001102b .LASF1277
C:\Users\CYMR90~1\AppData\Local\Temp\ccSIna8B.s:25033  .debug_str:00000000000060eb .LASF1278
C:\Users\CYMR90~1\AppData\Local\Temp\ccSIna8B.s:24085  .debug_str:0000000000002362 .LASF1279
C:\Users\CYMR90~1\AppData\Local\Temp\ccSIna8B.s:34564  .debug_str:000000000002bff8 .LASF1280
C:\Users\CYMR90~1\AppData\Local\Temp\ccSIna8B.s:24921  .debug_str:0000000000005a13 .LASF1281
C:\Users\CYMR90~1\AppData\Local\Temp\ccSIna8B.s:23969  .debug_str:0000000000001cec .LASF1282
C:\Users\CYMR90~1\AppData\Local\Temp\ccSIna8B.s:31100  .debug_str:000000000001e699 .LASF1283
C:\Users\CYMR90~1\AppData\Local\Temp\ccSIna8B.s:33460  .debug_str:00000000000279a6 .LASF1284
C:\Users\CYMR90~1\AppData\Local\Temp\ccSIna8B.s:32478  .debug_str:00000000000239ca .LASF1285
C:\Users\CYMR90~1\AppData\Local\Temp\ccSIna8B.s:31498  .debug_str:000000000001fe48 .LASF1286
C:\Users\CYMR90~1\AppData\Local\Temp\ccSIna8B.s:30544  .debug_str:000000000001c2b1 .LASF1287
C:\Users\CYMR90~1\AppData\Local\Temp\ccSIna8B.s:29588  .debug_str:0000000000018477 .LASF1288
C:\Users\CYMR90~1\AppData\Local\Temp\ccSIna8B.s:28615  .debug_str:000000000001464c .LASF1289
C:\Users\CYMR90~1\AppData\Local\Temp\ccSIna8B.s:27675  .debug_str:0000000000010a60 .LASF1290
C:\Users\CYMR90~1\AppData\Local\Temp\ccSIna8B.s:32006  .debug_str:0000000000021d98 .LASF1291
C:\Users\CYMR90~1\AppData\Local\Temp\ccSIna8B.s:31008  .debug_str:000000000001e129 .LASF1292
C:\Users\CYMR90~1\AppData\Local\Temp\ccSIna8B.s:30106  .debug_str:000000000001a76f .LASF1293
C:\Users\CYMR90~1\AppData\Local\Temp\ccSIna8B.s:29095  .debug_str:00000000000163d8 .LASF1294
C:\Users\CYMR90~1\AppData\Local\Temp\ccSIna8B.s:28167  .debug_str:00000000000129f3 .LASF1295
C:\Users\CYMR90~1\AppData\Local\Temp\ccSIna8B.s:27205  .debug_str:000000000000ecd1 .LASF1296
C:\Users\CYMR90~1\AppData\Local\Temp\ccSIna8B.s:26555  .debug_str:000000000000c382 .LASF1297
C:\Users\CYMR90~1\AppData\Local\Temp\ccSIna8B.s:31464  .debug_str:000000000001fc1a .LASF1298
C:\Users\CYMR90~1\AppData\Local\Temp\ccSIna8B.s:30516  .debug_str:000000000001c0f7 .LASF1299
C:\Users\CYMR90~1\AppData\Local\Temp\ccSIna8B.s:23839  .debug_str:000000000000152c .LASF1300
C:\Users\CYMR90~1\AppData\Local\Temp\ccSIna8B.s:30492  .debug_str:000000000001bf53 .LASF1301
C:\Users\CYMR90~1\AppData\Local\Temp\ccSIna8B.s:31718  .debug_str:0000000000020be6 .LASF1302
C:\Users\CYMR90~1\AppData\Local\Temp\ccSIna8B.s:29137  .debug_str:0000000000016632 .LASF1303
C:\Users\CYMR90~1\AppData\Local\Temp\ccSIna8B.s:30024  .debug_str:000000000001a0ea .LASF1304
C:\Users\CYMR90~1\AppData\Local\Temp\ccSIna8B.s:29996  .debug_str:0000000000019f5f .LASF1305
C:\Users\CYMR90~1\AppData\Local\Temp\ccSIna8B.s:25717  .debug_str:0000000000008dae .LASF1306
C:\Users\CYMR90~1\AppData\Local\Temp\ccSIna8B.s:24701  .debug_str:0000000000004cd5 .LASF1307
C:\Users\CYMR90~1\AppData\Local\Temp\ccSIna8B.s:23767  .debug_str:00000000000010d6 .LASF1308
C:\Users\CYMR90~1\AppData\Local\Temp\ccSIna8B.s:34222  .debug_str:000000000002aab3 .LASF1309
C:\Users\CYMR90~1\AppData\Local\Temp\ccSIna8B.s:33236  .debug_str:0000000000026b42 .LASF1310
C:\Users\CYMR90~1\AppData\Local\Temp\ccSIna8B.s:32254  .debug_str:0000000000022c5e .LASF1311
C:\Users\CYMR90~1\AppData\Local\Temp\ccSIna8B.s:25669  .debug_str:0000000000008ac7 .LASF1312
C:\Users\CYMR90~1\AppData\Local\Temp\ccSIna8B.s:33784  .debug_str:0000000000028fbf .LASF1313
C:\Users\CYMR90~1\AppData\Local\Temp\ccSIna8B.s:28323  .debug_str:0000000000013424 .LASF1314
C:\Users\CYMR90~1\AppData\Local\Temp\ccSIna8B.s:34444  .debug_str:000000000002b877 .LASF1315
C:\Users\CYMR90~1\AppData\Local\Temp\ccSIna8B.s:32956  .debug_str:000000000002594b .LASF1316
C:\Users\CYMR90~1\AppData\Local\Temp\ccSIna8B.s:32470  .debug_str:000000000002392e .LASF1317
C:\Users\CYMR90~1\AppData\Local\Temp\ccSIna8B.s:31490  .debug_str:000000000001fddb .LASF1318
C:\Users\CYMR90~1\AppData\Local\Temp\ccSIna8B.s:30556  .debug_str:000000000001c347 .LASF1319
C:\Users\CYMR90~1\AppData\Local\Temp\ccSIna8B.s:29598  .debug_str:0000000000018525 .LASF1320
C:\Users\CYMR90~1\AppData\Local\Temp\ccSIna8B.s:28625  .debug_str:00000000000146c2 .LASF1321
C:\Users\CYMR90~1\AppData\Local\Temp\ccSIna8B.s:27681  .debug_str:0000000000010abb .LASF1322
C:\Users\CYMR90~1\AppData\Local\Temp\ccSIna8B.s:28143  .debug_str:000000000001286a .LASF1323
C:\Users\CYMR90~1\AppData\Local\Temp\ccSIna8B.s:27181  .debug_str:000000000000eb1f .LASF1324
C:\Users\CYMR90~1\AppData\Local\Temp\ccSIna8B.s:26205  .debug_str:000000000000ab97 .LASF1325
C:\Users\CYMR90~1\AppData\Local\Temp\ccSIna8B.s:25199  .debug_str:0000000000006b3e .LASF1326
C:\Users\CYMR90~1\AppData\Local\Temp\ccSIna8B.s:24231  .debug_str:0000000000002d32 .LASF1327
C:\Users\CYMR90~1\AppData\Local\Temp\ccSIna8B.s:34716  .debug_str:000000000002ca3b .LASF1328
C:\Users\CYMR90~1\AppData\Local\Temp\ccSIna8B.s:33790  .debug_str:0000000000029006 .LASF1329
C:\Users\CYMR90~1\AppData\Local\Temp\ccSIna8B.s:32794  .debug_str:0000000000024df3 .LASF1330
C:\Users\CYMR90~1\AppData\Local\Temp\ccSIna8B.s:31822  .debug_str:00000000000211ed .LASF1331
C:\Users\CYMR90~1\AppData\Local\Temp\ccSIna8B.s:30850  .debug_str:000000000001d6c8 .LASF1332
C:\Users\CYMR90~1\AppData\Local\Temp\ccSIna8B.s:31284  .debug_str:000000000001f150 .LASF1333
C:\Users\CYMR90~1\AppData\Local\Temp\ccSIna8B.s:30372  .debug_str:000000000001b818 .LASF1334
C:\Users\CYMR90~1\AppData\Local\Temp\ccSIna8B.s:29055  .debug_str:0000000000016151 .LASF1335
C:\Users\CYMR90~1\AppData\Local\Temp\ccSIna8B.s:26717  .debug_str:000000000000ceca .LASF1336
C:\Users\CYMR90~1\AppData\Local\Temp\ccSIna8B.s:31508  .debug_str:000000000001fec4 .LASF1337
C:\Users\CYMR90~1\AppData\Local\Temp\ccSIna8B.s:28025  .debug_str:000000000001205f .LASF1338
C:\Users\CYMR90~1\AppData\Local\Temp\ccSIna8B.s:23873  .debug_str:000000000000170d .LASF1339
C:\Users\CYMR90~1\AppData\Local\Temp\ccSIna8B.s:25993  .debug_str:0000000000009ee7 .LASF1340
C:\Users\CYMR90~1\AppData\Local\Temp\ccSIna8B.s:24985  .debug_str:0000000000005e0c .LASF1341
C:\Users\CYMR90~1\AppData\Local\Temp\ccSIna8B.s:24025  .debug_str:0000000000001ff4 .LASF1342
C:\Users\CYMR90~1\AppData\Local\Temp\ccSIna8B.s:34524  .debug_str:000000000002bd9a .LASF1343
C:\Users\CYMR90~1\AppData\Local\Temp\ccSIna8B.s:34310  .debug_str:000000000002afc9 .LASF1344
C:\Users\CYMR90~1\AppData\Local\Temp\ccSIna8B.s:33320  .debug_str:0000000000027098 .LASF1345
C:\Users\CYMR90~1\AppData\Local\Temp\ccSIna8B.s:32346  .debug_str:0000000000023204 .LASF1346
C:\Users\CYMR90~1\AppData\Local\Temp\ccSIna8B.s:33738  .debug_str:0000000000028d0e .LASF1347
C:\Users\CYMR90~1\AppData\Local\Temp\ccSIna8B.s:30422  .debug_str:000000000001bb1e .LASF1348
C:\Users\CYMR90~1\AppData\Local\Temp\ccSIna8B.s:30928  .debug_str:000000000001dbd3 .LASF1349
C:\Users\CYMR90~1\AppData\Local\Temp\ccSIna8B.s:28495  .debug_str:0000000000013f02 .LASF1350
C:\Users\CYMR90~1\AppData\Local\Temp\ccSIna8B.s:31652  .debug_str:00000000000207d5 .LASF1351
C:\Users\CYMR90~1\AppData\Local\Temp\ccSIna8B.s:26573  .debug_str:000000000000c48d .LASF1352
C:\Users\CYMR90~1\AppData\Local\Temp\ccSIna8B.s:25501  .debug_str:0000000000007f75 .LASF1353
C:\Users\CYMR90~1\AppData\Local\Temp\ccSIna8B.s:26075  .debug_str:000000000000a3c0 .LASF1354
C:\Users\CYMR90~1\AppData\Local\Temp\ccSIna8B.s:25065  .debug_str:00000000000062fb .LASF1355
C:\Users\CYMR90~1\AppData\Local\Temp\ccSIna8B.s:24109  .debug_str:00000000000024da .LASF1356
C:\Users\CYMR90~1\AppData\Local\Temp\ccSIna8B.s:34592  .debug_str:000000000002c1fe .LASF1357
C:\Users\CYMR90~1\AppData\Local\Temp\ccSIna8B.s:28585  .debug_str:000000000001449f .LASF1358
C:\Users\CYMR90~1\AppData\Local\Temp\ccSIna8B.s:25193  .debug_str:0000000000006ae6 .LASF1359
C:\Users\CYMR90~1\AppData\Local\Temp\ccSIna8B.s:31698  .debug_str:0000000000020a7c .LASF1360
C:\Users\CYMR90~1\AppData\Local\Temp\ccSIna8B.s:30650  .debug_str:000000000001c88a .LASF1361
C:\Users\CYMR90~1\AppData\Local\Temp\ccSIna8B.s:29696  .debug_str:0000000000018ae5 .LASF1362
C:\Users\CYMR90~1\AppData\Local\Temp\ccSIna8B.s:33750  .debug_str:0000000000028dd0 .LASF1363
C:\Users\CYMR90~1\AppData\Local\Temp\ccSIna8B.s:28983  .debug_str:0000000000015c19 .LASF1364
C:\Users\CYMR90~1\AppData\Local\Temp\ccSIna8B.s:25619  .debug_str:0000000000008783 .LASF1365
C:\Users\CYMR90~1\AppData\Local\Temp\ccSIna8B.s:33348  .debug_str:0000000000027255 .LASF1366
C:\Users\CYMR90~1\AppData\Local\Temp\ccSIna8B.s:32580  .debug_str:0000000000023f5c .LASF1367
C:\Users\CYMR90~1\AppData\Local\Temp\ccSIna8B.s:31590  .debug_str:00000000000203b9 .LASF1368
C:\Users\CYMR90~1\AppData\Local\Temp\ccSIna8B.s:29856  .debug_str:00000000000195da .LASF1369
C:\Users\CYMR90~1\AppData\Local\Temp\ccSIna8B.s:34484  .debug_str:000000000002bae1 .LASF1370
C:\Users\CYMR90~1\AppData\Local\Temp\ccSIna8B.s:30860  .debug_str:000000000001d753 .LASF1371
C:\Users\CYMR90~1\AppData\Local\Temp\ccSIna8B.s:24149  .debug_str:0000000000002818 .LASF1372
C:\Users\CYMR90~1\AppData\Local\Temp\ccSIna8B.s:26759  .debug_str:000000000000d120 .LASF1373
C:\Users\CYMR90~1\AppData\Local\Temp\ccSIna8B.s:29902  .debug_str:00000000000198b6 .LASF1374
C:\Users\CYMR90~1\AppData\Local\Temp\ccSIna8B.s:33020  .debug_str:0000000000025df1 .LASF1375
C:\Users\CYMR90~1\AppData\Local\Temp\ccSIna8B.s:24729  .debug_str:0000000000004e74 .LASF1376
C:\Users\CYMR90~1\AppData\Local\Temp\ccSIna8B.s:27931  .debug_str:0000000000011a2d .LASF1377
C:\Users\CYMR90~1\AppData\Local\Temp\ccSIna8B.s:31014  .debug_str:000000000001e183 .LASF1378
C:\Users\CYMR90~1\AppData\Local\Temp\ccSIna8B.s:34216  .debug_str:000000000002aa5f .LASF1379
C:\Users\CYMR90~1\AppData\Local\Temp\ccSIna8B.s:34184  .debug_str:000000000002a84c .LASF1380
C:\Users\CYMR90~1\AppData\Local\Temp\ccSIna8B.s:25839  .debug_str:0000000000009523 .LASF1381
C:\Users\CYMR90~1\AppData\Local\Temp\ccSIna8B.s:28955  .debug_str:0000000000015a7d .LASF1382
C:\Users\CYMR90~1\AppData\Local\Temp\ccSIna8B.s:32104  .debug_str:0000000000022386 .LASF1383
C:\Users\CYMR90~1\AppData\Local\Temp\ccSIna8B.s:23849  .debug_str:0000000000001596 .LASF1384
C:\Users\CYMR90~1\AppData\Local\Temp\ccSIna8B.s:28395  .debug_str:0000000000013912 .LASF1385
C:\Users\CYMR90~1\AppData\Local\Temp\ccSIna8B.s:30200  .debug_str:000000000001ad35 .LASF1386
C:\Users\CYMR90~1\AppData\Local\Temp\ccSIna8B.s:33308  .debug_str:0000000000026fa4 .LASF1387
C:\Users\CYMR90~1\AppData\Local\Temp\ccSIna8B.s:25021  .debug_str:0000000000006033 .LASF1388
C:\Users\CYMR90~1\AppData\Local\Temp\ccSIna8B.s:28129  .debug_str:0000000000012789 .LASF1389
C:\Users\CYMR90~1\AppData\Local\Temp\ccSIna8B.s:27479  .debug_str:000000000000feb7 .LASF1390
C:\Users\CYMR90~1\AppData\Local\Temp\ccSIna8B.s:30500  .debug_str:000000000001bfe3 .LASF1391
C:\Users\CYMR90~1\AppData\Local\Temp\ccSIna8B.s:33654  .debug_str:0000000000028744 .LASF1392
C:\Users\CYMR90~1\AppData\Local\Temp\ccSIna8B.s:25373  .debug_str:000000000000769f .LASF1393
C:\Users\CYMR90~1\AppData\Local\Temp\ccSIna8B.s:28525  .debug_str:00000000000140c4 .LASF1394
C:\Users\CYMR90~1\AppData\Local\Temp\ccSIna8B.s:24449  .debug_str:0000000000003b8d .LASF1395
C:\Users\CYMR90~1\AppData\Local\Temp\ccSIna8B.s:34900  .debug_str:000000000002d5c9 .LASF1396
C:\Users\CYMR90~1\AppData\Local\Temp\ccSIna8B.s:26633  .debug_str:000000000000c803 .LASF1397
C:\Users\CYMR90~1\AppData\Local\Temp\ccSIna8B.s:29776  .debug_str:0000000000019069 .LASF1398
C:\Users\CYMR90~1\AppData\Local\Temp\ccSIna8B.s:27835  .debug_str:0000000000011433 .LASF1399
C:\Users\CYMR90~1\AppData\Local\Temp\ccSIna8B.s:29119  .debug_str:000000000001653d .LASF1400
C:\Users\CYMR90~1\AppData\Local\Temp\ccSIna8B.s:23801  .debug_str:00000000000012ea .LASF1401
C:\Users\CYMR90~1\AppData\Local\Temp\ccSIna8B.s:31570  .debug_str:00000000000202b3 .LASF1402
C:\Users\CYMR90~1\AppData\Local\Temp\ccSIna8B.s:26457  .debug_str:000000000000bc9f .LASF1403
C:\Users\CYMR90~1\AppData\Local\Temp\ccSIna8B.s:31334  .debug_str:000000000001f46d .LASF1404
C:\Users\CYMR90~1\AppData\Local\Temp\ccSIna8B.s:24517  .debug_str:000000000000400c .LASF1405
C:\Users\CYMR90~1\AppData\Local\Temp\ccSIna8B.s:26195  .debug_str:000000000000aafa .LASF1406
C:\Users\CYMR90~1\AppData\Local\Temp\ccSIna8B.s:32300  .debug_str:0000000000022f63 .LASF1407
C:\Users\CYMR90~1\AppData\Local\Temp\ccSIna8B.s:32456  .debug_str:000000000002383f .LASF1408
C:\Users\CYMR90~1\AppData\Local\Temp\ccSIna8B.s:24183  .debug_str:0000000000002a32 .LASF1409
C:\Users\CYMR90~1\AppData\Local\Temp\ccSIna8B.s:27381  .debug_str:000000000000f773 .LASF1410
C:\Users\CYMR90~1\AppData\Local\Temp\ccSIna8B.s:33890  .debug_str:0000000000029655 .LASF1411
C:\Users\CYMR90~1\AppData\Local\Temp\ccSIna8B.s:25609  .debug_str:00000000000086ff .LASF1412
C:\Users\CYMR90~1\AppData\Local\Temp\ccSIna8B.s:28743  .debug_str:0000000000014e1c .LASF1413
C:\Users\CYMR90~1\AppData\Local\Temp\ccSIna8B.s:31880  .debug_str:00000000000215e6 .LASF1414
C:\Users\CYMR90~1\AppData\Local\Temp\ccSIna8B.s:23647  .debug_str:0000000000000929 .LASF1415
C:\Users\CYMR90~1\AppData\Local\Temp\ccSIna8B.s:26727  .debug_str:000000000000cf32 .LASF1416
C:\Users\CYMR90~1\AppData\Local\Temp\ccSIna8B.s:29880  .debug_str:0000000000019781 .LASF1417
C:\Users\CYMR90~1\AppData\Local\Temp\ccSIna8B.s:31398  .debug_str:000000000001f82c .LASF1418
C:\Users\CYMR90~1\AppData\Local\Temp\ccSIna8B.s:24709  .debug_str:0000000000004d3f .LASF1419
C:\Users\CYMR90~1\AppData\Local\Temp\ccSIna8B.s:27821  .debug_str:000000000001135a .LASF1420
C:\Users\CYMR90~1\AppData\Local\Temp\ccSIna8B.s:27161  .debug_str:000000000000ea18 .LASF1421
C:\Users\CYMR90~1\AppData\Local\Temp\ccSIna8B.s:30312  .debug_str:000000000001b4a3 .LASF1422
C:\Users\CYMR90~1\AppData\Local\Temp\ccSIna8B.s:33424  .debug_str:00000000000277b5 .LASF1423
C:\Users\CYMR90~1\AppData\Local\Temp\ccSIna8B.s:25147  .debug_str:00000000000067be .LASF1424
C:\Users\CYMR90~1\AppData\Local\Temp\ccSIna8B.s:28327  .debug_str:0000000000013452 .LASF1425
C:\Users\CYMR90~1\AppData\Local\Temp\ccSIna8B.s:31326  .debug_str:000000000001f3d4 .LASF1426
C:\Users\CYMR90~1\AppData\Local\Temp\ccSIna8B.s:34602  .debug_str:000000000002c2f1 .LASF1427
C:\Users\CYMR90~1\AppData\Local\Temp\ccSIna8B.s:26329  .debug_str:000000000000b3e5 .LASF1428
C:\Users\CYMR90~1\AppData\Local\Temp\ccSIna8B.s:29454  .debug_str:0000000000017ca2 .LASF1429
C:\Users\CYMR90~1\AppData\Local\Temp\ccSIna8B.s:32590  .debug_str:0000000000023ffc .LASF1430
C:\Users\CYMR90~1\AppData\Local\Temp\ccSIna8B.s:31336  .debug_str:000000000001f485 .LASF1431
C:\Users\CYMR90~1\AppData\Local\Temp\ccSIna8B.s:23605  .debug_str:00000000000006c1 .LASF1432
C:\Users\CYMR90~1\AppData\Local\Temp\ccSIna8B.s:32542  .debug_str:0000000000023d60 .LASF1433
C:\Users\CYMR90~1\AppData\Local\Temp\ccSIna8B.s:31574  .debug_str:00000000000202dd .LASF1434
C:\Users\CYMR90~1\AppData\Local\Temp\ccSIna8B.s:30616  .debug_str:000000000001c68c .LASF1435
C:\Users\CYMR90~1\AppData\Local\Temp\ccSIna8B.s:29662  .debug_str:00000000000188f3 .LASF1436
C:\Users\CYMR90~1\AppData\Local\Temp\ccSIna8B.s:34454  .debug_str:000000000002b923 .LASF1437
C:\Users\CYMR90~1\AppData\Local\Temp\ccSIna8B.s:33458  .debug_str:0000000000027992 .LASF1438
C:\Users\CYMR90~1\AppData\Local\Temp\ccSIna8B.s:32476  .debug_str:00000000000239b6 .LASF1439
C:\Users\CYMR90~1\AppData\Local\Temp\ccSIna8B.s:31496  .debug_str:000000000001fe34 .LASF1440
C:\Users\CYMR90~1\AppData\Local\Temp\ccSIna8B.s:30542  .debug_str:000000000001c29d .LASF1441
C:\Users\CYMR90~1\AppData\Local\Temp\ccSIna8B.s:29586  .debug_str:0000000000018463 .LASF1442
C:\Users\CYMR90~1\AppData\Local\Temp\ccSIna8B.s:28613  .debug_str:0000000000014638 .LASF1443
C:\Users\CYMR90~1\AppData\Local\Temp\ccSIna8B.s:27673  .debug_str:0000000000010a4c .LASF1444
C:\Users\CYMR90~1\AppData\Local\Temp\ccSIna8B.s:34560  .debug_str:000000000002bfc0 .LASF1445
C:\Users\CYMR90~1\AppData\Local\Temp\ccSIna8B.s:25725  .debug_str:0000000000008e1c .LASF1446
C:\Users\CYMR90~1\AppData\Local\Temp\ccSIna8B.s:27295  .debug_str:000000000000f233 .LASF1447
C:\Users\CYMR90~1\AppData\Local\Temp\ccSIna8B.s:32832  .debug_str:0000000000025087 .LASF1448
C:\Users\CYMR90~1\AppData\Local\Temp\ccSIna8B.s:31858  .debug_str:00000000000213f1 .LASF1449
C:\Users\CYMR90~1\AppData\Local\Temp\ccSIna8B.s:30870  .debug_str:000000000001d852 .LASF1450
C:\Users\CYMR90~1\AppData\Local\Temp\ccSIna8B.s:29948  .debug_str:0000000000019c79 .LASF1451
C:\Users\CYMR90~1\AppData\Local\Temp\ccSIna8B.s:28953  .debug_str:0000000000015a68 .LASF1452
C:\Users\CYMR90~1\AppData\Local\Temp\ccSIna8B.s:26327  .debug_str:000000000000b3d2 .LASF1453
C:\Users\CYMR90~1\AppData\Local\Temp\ccSIna8B.s:24929  .debug_str:0000000000005a93 .LASF1454
C:\Users\CYMR90~1\AppData\Local\Temp\ccSIna8B.s:26135  .debug_str:000000000000a762 .LASF1455
C:\Users\CYMR90~1\AppData\Local\Temp\ccSIna8B.s:31234  .debug_str:000000000001ee5d .LASF1456
C:\Users\CYMR90~1\AppData\Local\Temp\ccSIna8B.s:32886  .debug_str:0000000000025409 .LASF1457
C:\Users\CYMR90~1\AppData\Local\Temp\ccSIna8B.s:24673  .debug_str:0000000000004b03 .LASF1458
C:\Users\CYMR90~1\AppData\Local\Temp\ccSIna8B.s:31320  .debug_str:000000000001f386 .LASF1459
C:\Users\CYMR90~1\AppData\Local\Temp\ccSIna8B.s:28147  .debug_str:00000000000128ab .LASF1460
C:\Users\CYMR90~1\AppData\Local\Temp\ccSIna8B.s:26241  .debug_str:000000000000ade5 .LASF1461
C:\Users\CYMR90~1\AppData\Local\Temp\ccSIna8B.s:27437  .debug_str:000000000000fc0c .LASF1462
C:\Users\CYMR90~1\AppData\Local\Temp\ccSIna8B.s:27937  .debug_str:0000000000011b08 .LASF1463
C:\Users\CYMR90~1\AppData\Local\Temp\ccSIna8B.s:29011  .debug_str:0000000000015dfe .LASF1464
C:\Users\CYMR90~1\AppData\Local\Temp\ccSIna8B.s:34334  .debug_str:000000000002b16b .LASF1465
C:\Users\CYMR90~1\AppData\Local\Temp\ccSIna8B.s:30212  .debug_str:000000000001adfa .LASF1466
C:\Users\CYMR90~1\AppData\Local\Temp\ccSIna8B.s:28617  .debug_str:000000000001465f .LASF1467
C:\Users\CYMR90~1\AppData\Local\Temp\ccSIna8B.s:33340  .debug_str:00000000000271de .LASF1468
C:\Users\CYMR90~1\AppData\Local\Temp\ccSIna8B.s:27611  .debug_str:000000000001068f .LASF1469
C:\Users\CYMR90~1\AppData\Local\Temp\ccSIna8B.s:25681  .debug_str:0000000000008b89 .LASF1470
C:\Users\CYMR90~1\AppData\Local\Temp\ccSIna8B.s:27915  .debug_str:0000000000011938 .LASF1471
C:\Users\CYMR90~1\AppData\Local\Temp\ccSIna8B.s:29480  .debug_str:0000000000017e11 .LASF1472
C:\Users\CYMR90~1\AppData\Local\Temp\ccSIna8B.s:32784  .debug_str:0000000000024d51 .LASF1473
C:\Users\CYMR90~1\AppData\Local\Temp\ccSIna8B.s:33430  .debug_str:0000000000027806 .LASF1474
C:\Users\CYMR90~1\AppData\Local\Temp\ccSIna8B.s:23695  .debug_str:0000000000000c64 .LASF1475
C:\Users\CYMR90~1\AppData\Local\Temp\ccSIna8B.s:25611  .debug_str:0000000000008718 .LASF1476
C:\Users\CYMR90~1\AppData\Local\Temp\ccSIna8B.s:24209  .debug_str:0000000000002bc9 .LASF1477
C:\Users\CYMR90~1\AppData\Local\Temp\ccSIna8B.s:33622  .debug_str:00000000000284a5 .LASF1478
C:\Users\CYMR90~1\AppData\Local\Temp\ccSIna8B.s:32628  .debug_str:000000000002430c .LASF1479
C:\Users\CYMR90~1\AppData\Local\Temp\ccSIna8B.s:24335  .debug_str:000000000000341b .LASF1480
C:\Users\CYMR90~1\AppData\Local\Temp\ccSIna8B.s:26581  .debug_str:000000000000c4e9 .LASF1481
C:\Users\CYMR90~1\AppData\Local\Temp\ccSIna8B.s:32752  .debug_str:0000000000024b78 .LASF1482
C:\Users\CYMR90~1\AppData\Local\Temp\ccSIna8B.s:25927  .debug_str:0000000000009adb .LASF1483
C:\Users\CYMR90~1\AppData\Local\Temp\ccSIna8B.s:27985  .debug_str:0000000000011e01 .LASF1484
C:\Users\CYMR90~1\AppData\Local\Temp\ccSIna8B.s:27171  .debug_str:000000000000eaba .LASF1485
C:\Users\CYMR90~1\AppData\Local\Temp\ccSIna8B.s:28583  .debug_str:000000000001448c .LASF1486
C:\Users\CYMR90~1\AppData\Local\Temp\ccSIna8B.s:30196  .debug_str:000000000001ad06 .LASF1487
C:\Users\CYMR90~1\AppData\Local\Temp\ccSIna8B.s:23527  .debug_str:0000000000000244 .LASF1488
C:\Users\CYMR90~1\AppData\Local\Temp\ccSIna8B.s:28971  .debug_str:0000000000015b65 .LASF1489
C:\Users\CYMR90~1\AppData\Local\Temp\ccSIna8B.s:26967  .debug_str:000000000000de5f .LASF1490
C:\Users\CYMR90~1\AppData\Local\Temp\ccSIna8B.s:33854  .debug_str:000000000002942a .LASF1491
C:\Users\CYMR90~1\AppData\Local\Temp\ccSIna8B.s:24177  .debug_str:00000000000029cb .LASF1492
C:\Users\CYMR90~1\AppData\Local\Temp\ccSIna8B.s:31810  .debug_str:0000000000021147 .LASF1493
C:\Users\CYMR90~1\AppData\Local\Temp\ccSIna8B.s:34074  .debug_str:000000000002a201 .LASF1494
C:\Users\CYMR90~1\AppData\Local\Temp\ccSIna8B.s:25359  .debug_str:00000000000075d4 .LASF1495
C:\Users\CYMR90~1\AppData\Local\Temp\ccSIna8B.s:33112  .debug_str:00000000000263b5 .LASF1496
C:\Users\CYMR90~1\AppData\Local\Temp\ccSIna8B.s:33826  .debug_str:000000000002925d .LASF1497
C:\Users\CYMR90~1\AppData\Local\Temp\ccSIna8B.s:25153  .debug_str:0000000000006816 .LASF1498
C:\Users\CYMR90~1\AppData\Local\Temp\ccSIna8B.s:26017  .debug_str:000000000000a03c .LASF1499
C:\Users\CYMR90~1\AppData\Local\Temp\ccSIna8B.s:34768  .debug_str:000000000002cd95 .LASF1500
C:\Users\CYMR90~1\AppData\Local\Temp\ccSIna8B.s:33990  .debug_str:0000000000029d04 .LASF1501
C:\Users\CYMR90~1\AppData\Local\Temp\ccSIna8B.s:31708  .debug_str:0000000000020b46 .LASF1502
C:\Users\CYMR90~1\AppData\Local\Temp\ccSIna8B.s:25135  .debug_str:00000000000066f0 .LASF1503
C:\Users\CYMR90~1\AppData\Local\Temp\ccSIna8B.s:34076  .debug_str:000000000002a20f .LASF1504
C:\Users\CYMR90~1\AppData\Local\Temp\ccSIna8B.s:31072  .debug_str:000000000001e513 .LASF1505
C:\Users\CYMR90~1\AppData\Local\Temp\ccSIna8B.s:30400  .debug_str:000000000001b9df .LASF1506
C:\Users\CYMR90~1\AppData\Local\Temp\ccSIna8B.s:26387  .debug_str:000000000000b82a .LASF1507
C:\Users\CYMR90~1\AppData\Local\Temp\ccSIna8B.s:31914  .debug_str:00000000000217dd .LASF1508
C:\Users\CYMR90~1\AppData\Local\Temp\ccSIna8B.s:28093  .debug_str:00000000000124d8 .LASF1509
C:\Users\CYMR90~1\AppData\Local\Temp\ccSIna8B.s:33720  .debug_str:0000000000028bdc .LASF1510
C:\Users\CYMR90~1\AppData\Local\Temp\ccSIna8B.s:32490  .debug_str:0000000000023a70 .LASF1511
C:\Users\CYMR90~1\AppData\Local\Temp\ccSIna8B.s:24379  .debug_str:00000000000036f1 .LASF1512
C:\Users\CYMR90~1\AppData\Local\Temp\ccSIna8B.s:29033  .debug_str:0000000000015fc9 .LASF1513
C:\Users\CYMR90~1\AppData\Local\Temp\ccSIna8B.s:32912  .debug_str:0000000000025615 .LASF1514
C:\Users\CYMR90~1\AppData\Local\Temp\ccSIna8B.s:31296  .debug_str:000000000001f23a .LASF1515
C:\Users\CYMR90~1\AppData\Local\Temp\ccSIna8B.s:34504  .debug_str:000000000002bc28 .LASF1516
C:\Users\CYMR90~1\AppData\Local\Temp\ccSIna8B.s:31120  .debug_str:000000000001e79d .LASF1517
C:\Users\CYMR90~1\AppData\Local\Temp\ccSIna8B.s:33148  .debug_str:0000000000026597 .LASF1518
C:\Users\CYMR90~1\AppData\Local\Temp\ccSIna8B.s:28083  .debug_str:0000000000012467 .LASF1519
C:\Users\CYMR90~1\AppData\Local\Temp\ccSIna8B.s:31522  .debug_str:000000000001ffd5 .LASF1520
C:\Users\CYMR90~1\AppData\Local\Temp\ccSIna8B.s:30576  .debug_str:000000000001c46f .LASF1521
C:\Users\CYMR90~1\AppData\Local\Temp\ccSIna8B.s:31850  .debug_str:0000000000021382 .LASF1522
C:\Users\CYMR90~1\AppData\Local\Temp\ccSIna8B.s:29854  .debug_str:00000000000195be .LASF1523
C:\Users\CYMR90~1\AppData\Local\Temp\ccSIna8B.s:32492  .debug_str:0000000000023a86 .LASF1524
C:\Users\CYMR90~1\AppData\Local\Temp\ccSIna8B.s:24789  .debug_str:00000000000051f5 .LASF1525
C:\Users\CYMR90~1\AppData\Local\Temp\ccSIna8B.s:30514  .debug_str:000000000001c0dc .LASF1526
C:\Users\CYMR90~1\AppData\Local\Temp\ccSIna8B.s:26607  .debug_str:000000000000c660 .LASF1527
C:\Users\CYMR90~1\AppData\Local\Temp\ccSIna8B.s:32250  .debug_str:0000000000022c31 .LASF1528
C:\Users\CYMR90~1\AppData\Local\Temp\ccSIna8B.s:33516  .debug_str:0000000000027d26 .LASF1529
C:\Users\CYMR90~1\AppData\Local\Temp\ccSIna8B.s:32744  .debug_str:0000000000024a73 .LASF1530
C:\Users\CYMR90~1\AppData\Local\Temp\ccSIna8B.s:32810  .debug_str:0000000000024f02 .LASF1531
C:\Users\CYMR90~1\AppData\Local\Temp\ccSIna8B.s:24537  .debug_str:0000000000004137 .LASF1532
C:\Users\CYMR90~1\AppData\Local\Temp\ccSIna8B.s:29802  .debug_str:00000000000191dc .LASF1533
C:\Users\CYMR90~1\AppData\Local\Temp\ccSIna8B.s:32620  .debug_str:00000000000241a1 .LASF1534
C:\Users\CYMR90~1\AppData\Local\Temp\ccSIna8B.s:26677  .debug_str:000000000000cb83 .LASF1535
C:\Users\CYMR90~1\AppData\Local\Temp\ccSIna8B.s:32814  .debug_str:0000000000024f82 .LASF1536
C:\Users\CYMR90~1\AppData\Local\Temp\ccSIna8B.s:32160  .debug_str:000000000002269b .LASF1537
C:\Users\CYMR90~1\AppData\Local\Temp\ccSIna8B.s:33384  .debug_str:000000000002748c .LASF1538
C:\Users\CYMR90~1\AppData\Local\Temp\ccSIna8B.s:33276  .debug_str:0000000000026d9d .LASF1539
C:\Users\CYMR90~1\AppData\Local\Temp\ccSIna8B.s:27963  .debug_str:0000000000011cb4 .LASF1540
C:\Users\CYMR90~1\AppData\Local\Temp\ccSIna8B.s:34016  .debug_str:0000000000029e8c .LASF1541
C:\Users\CYMR90~1\AppData\Local\Temp\ccSIna8B.s:26943  .debug_str:000000000000dd2a .LASF1542
C:\Users\CYMR90~1\AppData\Local\Temp\ccSIna8B.s:24299  .debug_str:000000000000318b .LASF1543
C:\Users\CYMR90~1\AppData\Local\Temp\ccSIna8B.s:27521  .debug_str:000000000001014d .LASF1544
C:\Users\CYMR90~1\AppData\Local\Temp\ccSIna8B.s:25545  .debug_str:00000000000082e4 .LASF1545
C:\Users\CYMR90~1\AppData\Local\Temp\ccSIna8B.s:26025  .debug_str:000000000000a0af .LASF1546
C:\Users\CYMR90~1\AppData\Local\Temp\ccSIna8B.s:26663  .debug_str:000000000000ca5b .LASF1547
C:\Users\CYMR90~1\AppData\Local\Temp\ccSIna8B.s:33598  .debug_str:00000000000282ca .LASF1548
C:\Users\CYMR90~1\AppData\Local\Temp\ccSIna8B.s:33082  .debug_str:00000000000261a0 .LASF1549
C:\Users\CYMR90~1\AppData\Local\Temp\ccSIna8B.s:30466  .debug_str:000000000001bd6c .LASF1550
C:\Users\CYMR90~1\AppData\Local\Temp\ccSIna8B.s:27831  .debug_str:00000000000113e5 .LASF1551
C:\Users\CYMR90~1\AppData\Local\Temp\ccSIna8B.s:30434  .debug_str:000000000001bb93 .LASF1552
C:\Users\CYMR90~1\AppData\Local\Temp\ccSIna8B.s:23771  .debug_str:000000000000111c .LASF1553
C:\Users\CYMR90~1\AppData\Local\Temp\ccSIna8B.s:24079  .debug_str:00000000000022f7 .LASF1554
C:\Users\CYMR90~1\AppData\Local\Temp\ccSIna8B.s:31156  .debug_str:000000000001ea17 .LASF1555
C:\Users\CYMR90~1\AppData\Local\Temp\ccSIna8B.s:29754  .debug_str:0000000000018ee0 .LASF1556
C:\Users\CYMR90~1\AppData\Local\Temp\ccSIna8B.s:29778  .debug_str:0000000000019081 .LASF1557
C:\Users\CYMR90~1\AppData\Local\Temp\ccSIna8B.s:34100  .debug_str:000000000002a349 .LASF1558
C:\Users\CYMR90~1\AppData\Local\Temp\ccSIna8B.s:27667  .debug_str:0000000000010a07 .LASF1559
C:\Users\CYMR90~1\AppData\Local\Temp\ccSIna8B.s:32502  .debug_str:0000000000023aff .LASF1560
C:\Users\CYMR90~1\AppData\Local\Temp\ccSIna8B.s:32944  .debug_str:000000000002584d .LASF1561
C:\Users\CYMR90~1\AppData\Local\Temp\ccSIna8B.s:27783  .debug_str:0000000000011138 .LASF1562
C:\Users\CYMR90~1\AppData\Local\Temp\ccSIna8B.s:24979  .debug_str:0000000000005dbc .LASF1563
C:\Users\CYMR90~1\AppData\Local\Temp\ccSIna8B.s:34600  .debug_str:000000000002c24b .LASF1564
C:\Users\CYMR90~1\AppData\Local\Temp\ccSIna8B.s:25161  .debug_str:000000000000687f .LASF1565
C:\Users\CYMR90~1\AppData\Local\Temp\ccSIna8B.s:30868  .debug_str:000000000001d7c4 .LASF1566
C:\Users\CYMR90~1\AppData\Local\Temp\ccSIna8B.s:30150  .debug_str:000000000001a9ce .LASF1567
C:\Users\CYMR90~1\AppData\Local\Temp\ccSIna8B.s:31644  .debug_str:0000000000020700 .LASF1568
C:\Users\CYMR90~1\AppData\Local\Temp\ccSIna8B.s:24141  .debug_str:000000000000270e .LASF1569
C:\Users\CYMR90~1\AppData\Local\Temp\ccSIna8B.s:32972  .debug_str:0000000000025a4f .LASF1570
C:\Users\CYMR90~1\AppData\Local\Temp\ccSIna8B.s:28353  .debug_str:000000000001363e .LASF1571
C:\Users\CYMR90~1\AppData\Local\Temp\ccSIna8B.s:24839  .debug_str:0000000000005509 .LASF1572
C:\Users\CYMR90~1\AppData\Local\Temp\ccSIna8B.s:28773  .debug_str:000000000001502a .LASF1573
C:\Users\CYMR90~1\AppData\Local\Temp\ccSIna8B.s:33708  .debug_str:0000000000028b12 .LASF1574
C:\Users\CYMR90~1\AppData\Local\Temp\ccSIna8B.s:29244  .debug_str:0000000000016fba .LASF1575
C:\Users\CYMR90~1\AppData\Local\Temp\ccSIna8B.s:27325  .debug_str:000000000000f3fc .LASF1576
C:\Users\CYMR90~1\AppData\Local\Temp\ccSIna8B.s:31160  .debug_str:000000000001ea59 .LASF1577
C:\Users\CYMR90~1\AppData\Local\Temp\ccSIna8B.s:34208  .debug_str:000000000002a9c3 .LASF1578
C:\Users\CYMR90~1\AppData\Local\Temp\ccSIna8B.s:24089  .debug_str:0000000000002382 .LASF1579
C:\Users\CYMR90~1\AppData\Local\Temp\ccSIna8B.s:30720  .debug_str:000000000001cd84 .LASF1580
C:\Users\CYMR90~1\AppData\Local\Temp\ccSIna8B.s:26141  .debug_str:000000000000a7b5 .LASF1581
C:\Users\CYMR90~1\AppData\Local\Temp\ccSIna8B.s:26855  .debug_str:000000000000d808 .LASF1582
C:\Users\CYMR90~1\AppData\Local\Temp\ccSIna8B.s:25535  .debug_str:00000000000081bf .LASF1583
C:\Users\CYMR90~1\AppData\Local\Temp\ccSIna8B.s:33386  .debug_str:00000000000274aa .LASF1584
C:\Users\CYMR90~1\AppData\Local\Temp\ccSIna8B.s:30966  .debug_str:000000000001de05 .LASF1585
C:\Users\CYMR90~1\AppData\Local\Temp\ccSIna8B.s:34822  .debug_str:000000000002d0aa .LASF1586
C:\Users\CYMR90~1\AppData\Local\Temp\ccSIna8B.s:26827  .debug_str:000000000000d5a0 .LASF1587
C:\Users\CYMR90~1\AppData\Local\Temp\ccSIna8B.s:25495  .debug_str:0000000000007e8a .LASF1588
C:\Users\CYMR90~1\AppData\Local\Temp\ccSIna8B.s:29219  .debug_str:0000000000016c0b .LASF1589
C:\Users\CYMR90~1\AppData\Local\Temp\ccSIna8B.s:26355  .debug_str:000000000000b57c .LASF1590
C:\Users\CYMR90~1\AppData\Local\Temp\ccSIna8B.s:29143  .debug_str:0000000000016674 .LASF1591
C:\Users\CYMR90~1\AppData\Local\Temp\ccSIna8B.s:25735  .debug_str:0000000000008e8a .LASF1592
C:\Users\CYMR90~1\AppData\Local\Temp\ccSIna8B.s:28345  .debug_str:0000000000013559 .LASF1593
C:\Users\CYMR90~1\AppData\Local\Temp\ccSIna8B.s:33898  .debug_str:00000000000296b9 .LASF1594
C:\Users\CYMR90~1\AppData\Local\Temp\ccSIna8B.s:33630  .debug_str:0000000000028523 .LASF1595
C:\Users\CYMR90~1\AppData\Local\Temp\ccSIna8B.s:23731  .debug_str:0000000000000e6b .LASF1596
C:\Users\CYMR90~1\AppData\Local\Temp\ccSIna8B.s:30746  .debug_str:000000000001cf43 .LASF1597
C:\Users\CYMR90~1\AppData\Local\Temp\ccSIna8B.s:24645  .debug_str:00000000000048ad .LASF1598
C:\Users\CYMR90~1\AppData\Local\Temp\ccSIna8B.s:32888  .debug_str:0000000000025418 .LASF1599
C:\Users\CYMR90~1\AppData\Local\Temp\ccSIna8B.s:27387  .debug_str:000000000000f7c5 .LASF1600
C:\Users\CYMR90~1\AppData\Local\Temp\ccSIna8B.s:27407  .debug_str:000000000000f96d .LASF1601
C:\Users\CYMR90~1\AppData\Local\Temp\ccSIna8B.s:31874  .debug_str:00000000000214e9 .LASF1602
C:\Users\CYMR90~1\AppData\Local\Temp\ccSIna8B.s:30770  .debug_str:000000000001d153 .LASF1603
C:\Users\CYMR90~1\AppData\Local\Temp\ccSIna8B.s:30662  .debug_str:000000000001c942 .LASF1604
C:\Users\CYMR90~1\AppData\Local\Temp\ccSIna8B.s:32866  .debug_str:0000000000025246 .LASF1605
C:\Users\CYMR90~1\AppData\Local\Temp\ccSIna8B.s:32786  .debug_str:0000000000024d67 .LASF1606
C:\Users\CYMR90~1\AppData\Local\Temp\ccSIna8B.s:32736  .debug_str:00000000000249e6 .LASF1607
C:\Users\CYMR90~1\AppData\Local\Temp\ccSIna8B.s:29702  .debug_str:0000000000018b37 .LASF1608
C:\Users\CYMR90~1\AppData\Local\Temp\ccSIna8B.s:24621  .debug_str:000000000000470b .LASF1609
C:\Users\CYMR90~1\AppData\Local\Temp\ccSIna8B.s:32088  .debug_str:000000000002228b .LASF1610
C:\Users\CYMR90~1\AppData\Local\Temp\ccSIna8B.s:34726  .debug_str:000000000002ca98 .LASF1611
C:\Users\CYMR90~1\AppData\Local\Temp\ccSIna8B.s:30612  .debug_str:000000000001c650 .LASF1612
C:\Users\CYMR90~1\AppData\Local\Temp\ccSIna8B.s:28661  .debug_str:000000000001494a .LASF1613
C:\Users\CYMR90~1\AppData\Local\Temp\ccSIna8B.s:26011  .debug_str:0000000000009fde .LASF1614
C:\Users\CYMR90~1\AppData\Local\Temp\ccSIna8B.s:30296  .debug_str:000000000001b35d .LASF1615
C:\Users\CYMR90~1\AppData\Local\Temp\ccSIna8B.s:31972  .debug_str:0000000000021b62 .LASF1616
C:\Users\CYMR90~1\AppData\Local\Temp\ccSIna8B.s:28749  .debug_str:0000000000014e74 .LASF1617
C:\Users\CYMR90~1\AppData\Local\Temp\ccSIna8B.s:30674  .debug_str:000000000001cab6 .LASF1618
C:\Users\CYMR90~1\AppData\Local\Temp\ccSIna8B.s:24665  .debug_str:0000000000004a7d .LASF1619
C:\Users\CYMR90~1\AppData\Local\Temp\ccSIna8B.s:26391  .debug_str:000000000000b85a .LASF1620
C:\Users\CYMR90~1\AppData\Local\Temp\ccSIna8B.s:27247  .debug_str:000000000000ef91 .LASF1621
C:\Users\CYMR90~1\AppData\Local\Temp\ccSIna8B.s:24237  .debug_str:0000000000002db4 .LASF1622
C:\Users\CYMR90~1\AppData\Local\Temp\ccSIna8B.s:31674  .debug_str:0000000000020914 .LASF1623
C:\Users\CYMR90~1\AppData\Local\Temp\ccSIna8B.s:28347  .debug_str:00000000000135f4 .LASF1624
C:\Users\CYMR90~1\AppData\Local\Temp\ccSIna8B.s:26487  .debug_str:000000000000bf1b .LASF1625
C:\Users\CYMR90~1\AppData\Local\Temp\ccSIna8B.s:32376  .debug_str:0000000000023370 .LASF1626
C:\Users\CYMR90~1\AppData\Local\Temp\ccSIna8B.s:25157  .debug_str:0000000000006851 .LASF1627
C:\Users\CYMR90~1\AppData\Local\Temp\ccSIna8B.s:31416  .debug_str:000000000001f933 .LASF1628
C:\Users\CYMR90~1\AppData\Local\Temp\ccSIna8B.s:26253  .debug_str:000000000000aea7 .LASF1629
C:\Users\CYMR90~1\AppData\Local\Temp\ccSIna8B.s:32170  .debug_str:0000000000022707 .LASF1630
C:\Users\CYMR90~1\AppData\Local\Temp\ccSIna8B.s:25719  .debug_str:0000000000008dc5 .LASF1631
C:\Users\CYMR90~1\AppData\Local\Temp\ccSIna8B.s:23837  .debug_str:0000000000001519 .LASF1632
C:\Users\CYMR90~1\AppData\Local\Temp\ccSIna8B.s:30412  .debug_str:000000000001baab .LASF1633
C:\Users\CYMR90~1\AppData\Local\Temp\ccSIna8B.s:29388  .debug_str:000000000001784a .LASF1634
C:\Users\CYMR90~1\AppData\Local\Temp\ccSIna8B.s:26471  .debug_str:000000000000bdcb .LASF1635
C:\Users\CYMR90~1\AppData\Local\Temp\ccSIna8B.s:26575  .debug_str:000000000000c4a3 .LASF1636
C:\Users\CYMR90~1\AppData\Local\Temp\ccSIna8B.s:30268  .debug_str:000000000001b1b3 .LASF1637
C:\Users\CYMR90~1\AppData\Local\Temp\ccSIna8B.s:26647  .debug_str:000000000000c948 .LASF1638
C:\Users\CYMR90~1\AppData\Local\Temp\ccSIna8B.s:26367  .debug_str:000000000000b6b8 .LASF1639
C:\Users\CYMR90~1\AppData\Local\Temp\ccSIna8B.s:29602  .debug_str:0000000000018556 .LASF1640
C:\Users\CYMR90~1\AppData\Local\Temp\ccSIna8B.s:27617  .debug_str:00000000000106eb .LASF1641
C:\Users\CYMR90~1\AppData\Local\Temp\ccSIna8B.s:32724  .debug_str:0000000000024924 .LASF1642
C:\Users\CYMR90~1\AppData\Local\Temp\ccSIna8B.s:27973  .debug_str:0000000000011d66 .LASF1643
C:\Users\CYMR90~1\AppData\Local\Temp\ccSIna8B.s:31558  .debug_str:0000000000020205 .LASF1644
C:\Users\CYMR90~1\AppData\Local\Temp\ccSIna8B.s:34690  .debug_str:000000000002c8f4 .LASF1645
C:\Users\CYMR90~1\AppData\Local\Temp\ccSIna8B.s:24227  .debug_str:0000000000002d01 .LASF1646
C:\Users\CYMR90~1\AppData\Local\Temp\ccSIna8B.s:29181  .debug_str:0000000000016954 .LASF1647
C:\Users\CYMR90~1\AppData\Local\Temp\ccSIna8B.s:29292  .debug_str:00000000000172d0 .LASF1648
C:\Users\CYMR90~1\AppData\Local\Temp\ccSIna8B.s:24029  .debug_str:0000000000002028 .LASF1649
C:\Users\CYMR90~1\AppData\Local\Temp\ccSIna8B.s:25561  .debug_str:00000000000083de .LASF1650
C:\Users\CYMR90~1\AppData\Local\Temp\ccSIna8B.s:32392  .debug_str:000000000002345b .LASF1651
C:\Users\CYMR90~1\AppData\Local\Temp\ccSIna8B.s:28125  .debug_str:00000000000126f1 .LASF1652
C:\Users\CYMR90~1\AppData\Local\Temp\ccSIna8B.s:25449  .debug_str:0000000000007b75 .LASF1653
C:\Users\CYMR90~1\AppData\Local\Temp\ccSIna8B.s:23775  .debug_str:0000000000001173 .LASF1654
C:\Users\CYMR90~1\AppData\Local\Temp\ccSIna8B.s:29494  .debug_str:0000000000017ed4 .LASF1657
C:\Users\CYMR90~1\AppData\Local\Temp\ccSIna8B.s:34260  .debug_str:000000000002acfc .LASF1658
C:\Users\CYMR90~1\AppData\Local\Temp\ccSIna8B.s:27749  .debug_str:0000000000010f6b .LASF1659
C:\Users\CYMR90~1\AppData\Local\Temp\ccSIna8B.s:29826  .debug_str:0000000000019436 .LASF1660
C:\Users\CYMR90~1\AppData\Local\Temp\ccSIna8B.s:34500  .debug_str:000000000002bbe9 .LASF1661
C:\Users\CYMR90~1\AppData\Local\Temp\ccSIna8B.s:34534  .debug_str:000000000002be18 .LASF1662
C:\Users\CYMR90~1\AppData\Local\Temp\ccSIna8B.s:31760  .debug_str:0000000000020e90 .LASF1663
C:\Users\CYMR90~1\AppData\Local\Temp\ccSIna8B.s:28707  .debug_str:0000000000014bc0 .LASF1664
C:\Users\CYMR90~1\AppData\Local\Temp\ccSIna8B.s:30914  .debug_str:000000000001daf6 .LASF1665
C:\Users\CYMR90~1\AppData\Local\Temp\ccSIna8B.s:31852  .debug_str:000000000002139d .LASF1666
C:\Users\CYMR90~1\AppData\Local\Temp\ccSIna8B.s:27447  .debug_str:000000000000fc7c .LASF1667
C:\Users\CYMR90~1\AppData\Local\Temp\ccSIna8B.s:27157  .debug_str:000000000000e9d3 .LASF1668
C:\Users\CYMR90~1\AppData\Local\Temp\ccSIna8B.s:24465  .debug_str:0000000000003c68 .LASF1669
C:\Users\CYMR90~1\AppData\Local\Temp\ccSIna8B.s:25757  .debug_str:000000000000907d .LASF1670
C:\Users\CYMR90~1\AppData\Local\Temp\ccSIna8B.s:24685  .debug_str:0000000000004bb3 .LASF1671
C:\Users\CYMR90~1\AppData\Local\Temp\ccSIna8B.s:23577  .debug_str:0000000000000547 .LASF1672
C:\Users\CYMR90~1\AppData\Local\Temp\ccSIna8B.s:28637  .debug_str:0000000000014789 .LASF1673
C:\Users\CYMR90~1\AppData\Local\Temp\ccSIna8B.s:28041  .debug_str:0000000000012143 .LASF1674
C:\Users\CYMR90~1\AppData\Local\Temp\ccSIna8B.s:27195  .debug_str:000000000000ec09 .LASF1675
C:\Users\CYMR90~1\AppData\Local\Temp\ccSIna8B.s:32750  .debug_str:0000000000024b5e .LASF1676
C:\Users\CYMR90~1\AppData\Local\Temp\ccSIna8B.s:28171  .debug_str:0000000000012a1c .LASF1677
C:\Users\CYMR90~1\AppData\Local\Temp\ccSIna8B.s:34692  .debug_str:000000000002c909 .LASF1678
C:\Users\CYMR90~1\AppData\Local\Temp\ccSIna8B.s:24135  .debug_str:000000000000267b .LASF1679
C:\Users\CYMR90~1\AppData\Local\Temp\ccSIna8B.s:27697  .debug_str:0000000000010bbb .LASF1680
C:\Users\CYMR90~1\AppData\Local\Temp\ccSIna8B.s:28881  .debug_str:0000000000015674 .LASF1681
C:\Users\CYMR90~1\AppData\Local\Temp\ccSIna8B.s:27541  .debug_str:000000000001029d .LASF1682
C:\Users\CYMR90~1\AppData\Local\Temp\ccSIna8B.s:30252  .debug_str:000000000001b036 .LASF1683
C:\Users\CYMR90~1\AppData\Local\Temp\ccSIna8B.s:32340  .debug_str:00000000000231af .LASF1684
C:\Users\CYMR90~1\AppData\Local\Temp\ccSIna8B.s:33268  .debug_str:0000000000026d42 .LASF1685
C:\Users\CYMR90~1\AppData\Local\Temp\ccSIna8B.s:27695  .debug_str:0000000000010ba3 .LASF1686
C:\Users\CYMR90~1\AppData\Local\Temp\ccSIna8B.s:31656  .debug_str:00000000000207fe .LASF1687
C:\Users\CYMR90~1\AppData\Local\Temp\ccSIna8B.s:34006  .debug_str:0000000000029de1 .LASF1688
C:\Users\CYMR90~1\AppData\Local\Temp\ccSIna8B.s:32518  .debug_str:0000000000023c09 .LASF1689
C:\Users\CYMR90~1\AppData\Local\Temp\ccSIna8B.s:30368  .debug_str:000000000001b7ca .LASF1690
C:\Users\CYMR90~1\AppData\Local\Temp\ccSIna8B.s:28435  .debug_str:0000000000013b7b .LASF1691
C:\Users\CYMR90~1\AppData\Local\Temp\ccSIna8B.s:32070  .debug_str:0000000000022174 .LASF1692
C:\Users\CYMR90~1\AppData\Local\Temp\ccSIna8B.s:29690  .debug_str:0000000000018a7e .LASF1693
C:\Users\CYMR90~1\AppData\Local\Temp\ccSIna8B.s:27707  .debug_str:0000000000010c42 .LASF1694
C:\Users\CYMR90~1\AppData\Local\Temp\ccSIna8B.s:27613  .debug_str:000000000001069f .LASF1695
C:\Users\CYMR90~1\AppData\Local\Temp\ccSIna8B.s:29464  .debug_str:0000000000017d21 .LASF1696
C:\Users\CYMR90~1\AppData\Local\Temp\ccSIna8B.s:28755  .debug_str:0000000000014ec4 .LASF1697
C:\Users\CYMR90~1\AppData\Local\Temp\ccSIna8B.s:31310  .debug_str:000000000001f2f3 .LASF1698
C:\Users\CYMR90~1\AppData\Local\Temp\ccSIna8B.s:29864  .debug_str:0000000000019685 .LASF1699
C:\Users\CYMR90~1\AppData\Local\Temp\ccSIna8B.s:31772  .debug_str:0000000000020f44 .LASF1700
C:\Users\CYMR90~1\AppData\Local\Temp\ccSIna8B.s:31306  .debug_str:000000000001f2b6 .LASF1701
C:\Users\CYMR90~1\AppData\Local\Temp\ccSIna8B.s:32564  .debug_str:0000000000023e74 .LASF1702
C:\Users\CYMR90~1\AppData\Local\Temp\ccSIna8B.s:32524  .debug_str:0000000000023c58 .LASF1703
C:\Users\CYMR90~1\AppData\Local\Temp\ccSIna8B.s:32060  .debug_str:00000000000220de .LASF1704
C:\Users\CYMR90~1\AppData\Local\Temp\ccSIna8B.s:30496  .debug_str:000000000001bf88 .LASF1705
C:\Users\CYMR90~1\AppData\Local\Temp\ccSIna8B.s:31916  .debug_str:00000000000217f1 .LASF1706
C:\Users\CYMR90~1\AppData\Local\Temp\ccSIna8B.s:29368  .debug_str:00000000000176f4 .LASF1707
C:\Users\CYMR90~1\AppData\Local\Temp\ccSIna8B.s:28349  .debug_str:0000000000013607 .LASF1708
C:\Users\CYMR90~1\AppData\Local\Temp\ccSIna8B.s:31052  .debug_str:000000000001e3eb .LASF1709
C:\Users\CYMR90~1\AppData\Local\Temp\ccSIna8B.s:29604  .debug_str:000000000001856b .LASF1710
C:\Users\CYMR90~1\AppData\Local\Temp\ccSIna8B.s:33466  .debug_str:00000000000279f6 .LASF1711
C:\Users\CYMR90~1\AppData\Local\Temp\ccSIna8B.s:27991  .debug_str:0000000000011e3d .LASF1712
C:\Users\CYMR90~1\AppData\Local\Temp\ccSIna8B.s:25087  .debug_str:0000000000006429 .LASF1713
C:\Users\CYMR90~1\AppData\Local\Temp\ccSIna8B.s:27455  .debug_str:000000000000fcfa .LASF1714
C:\Users\CYMR90~1\AppData\Local\Temp\ccSIna8B.s:24355  .debug_str:000000000000356c .LASF1715
C:\Users\CYMR90~1\AppData\Local\Temp\ccSIna8B.s:27693  .debug_str:0000000000010b77 .LASF1716
C:\Users\CYMR90~1\AppData\Local\Temp\ccSIna8B.s:31018  .debug_str:000000000001e1b1 .LASF1717
C:\Users\CYMR90~1\AppData\Local\Temp\ccSIna8B.s:29568  .debug_str:0000000000018338 .LASF1718
C:\Users\CYMR90~1\AppData\Local\Temp\ccSIna8B.s:27935  .debug_str:0000000000011a5a .LASF1719
C:\Users\CYMR90~1\AppData\Local\Temp\ccSIna8B.s:29930  .debug_str:0000000000019ac2 .LASF1720
C:\Users\CYMR90~1\AppData\Local\Temp\ccSIna8B.s:28427  .debug_str:0000000000013af8 .LASF1721
C:\Users\CYMR90~1\AppData\Local\Temp\ccSIna8B.s:24065  .debug_str:000000000000223e .LASF1722
C:\Users\CYMR90~1\AppData\Local\Temp\ccSIna8B.s:30260  .debug_str:000000000001b0d0 .LASF1723
C:\Users\CYMR90~1\AppData\Local\Temp\ccSIna8B.s:24127  .debug_str:0000000000002605 .LASF1724
C:\Users\CYMR90~1\AppData\Local\Temp\ccSIna8B.s:28949  .debug_str:0000000000015a0b .LASF1725
C:\Users\CYMR90~1\AppData\Local\Temp\ccSIna8B.s:33802  .debug_str:00000000000290ae .LASF1726
C:\Users\CYMR90~1\AppData\Local\Temp\ccSIna8B.s:32204  .debug_str:0000000000022948 .LASF1727
C:\Users\CYMR90~1\AppData\Local\Temp\ccSIna8B.s:33432  .debug_str:000000000002781a .LASF1728
C:\Users\CYMR90~1\AppData\Local\Temp\ccSIna8B.s:30718  .debug_str:000000000001cd4d .LASF1729
C:\Users\CYMR90~1\AppData\Local\Temp\ccSIna8B.s:34604  .debug_str:000000000002c30a .LASF1730
C:\Users\CYMR90~1\AppData\Local\Temp\ccSIna8B.s:33258  .debug_str:0000000000026ca7 .LASF1731
C:\Users\CYMR90~1\AppData\Local\Temp\ccSIna8B.s:27871  .debug_str:0000000000011647 .LASF1732
C:\Users\CYMR90~1\AppData\Local\Temp\ccSIna8B.s:25871  .debug_str:00000000000096e5 .LASF1733
C:\Users\CYMR90~1\AppData\Local\Temp\ccSIna8B.s:23841  .debug_str:000000000000153d .LASF1734
C:\Users\CYMR90~1\AppData\Local\Temp\ccSIna8B.s:29324  .debug_str:0000000000017483 .LASF1735
C:\Users\CYMR90~1\AppData\Local\Temp\ccSIna8B.s:31484  .debug_str:000000000001fd7f .LASF1736
C:\Users\CYMR90~1\AppData\Local\Temp\ccSIna8B.s:25861  .debug_str:000000000000964f .LASF1737
C:\Users\CYMR90~1\AppData\Local\Temp\ccSIna8B.s:25575  .debug_str:00000000000084d0 .LASF1738
C:\Users\CYMR90~1\AppData\Local\Temp\ccSIna8B.s:33264  .debug_str:0000000000026d13 .LASF1739
C:\Users\CYMR90~1\AppData\Local\Temp\ccSIna8B.s:27221  .debug_str:000000000000edcc .LASF1740
C:\Users\CYMR90~1\AppData\Local\Temp\ccSIna8B.s:26207  .debug_str:000000000000abaf .LASF1741
C:\Users\CYMR90~1\AppData\Local\Temp\ccSIna8B.s:31332  .debug_str:000000000001f43a .LASF1742
C:\Users\CYMR90~1\AppData\Local\Temp\ccSIna8B.s:26697  .debug_str:000000000000cd84 .LASF1743
C:\Users\CYMR90~1\AppData\Local\Temp\ccSIna8B.s:33550  .debug_str:0000000000027f95 .LASF1744
C:\Users\CYMR90~1\AppData\Local\Temp\ccSIna8B.s:25581  .debug_str:0000000000008542 .LASF1745
C:\Users\CYMR90~1\AppData\Local\Temp\ccSIna8B.s:27511  .debug_str:00000000000100bd .LASF1746
C:\Users\CYMR90~1\AppData\Local\Temp\ccSIna8B.s:32568  .debug_str:0000000000023eb7 .LASF1747
C:\Users\CYMR90~1\AppData\Local\Temp\ccSIna8B.s:32178  .debug_str:000000000002278d .LASF1748
C:\Users\CYMR90~1\AppData\Local\Temp\ccSIna8B.s:27691  .debug_str:0000000000010b54 .LASF1749
C:\Users\CYMR90~1\AppData\Local\Temp\ccSIna8B.s:26361  .debug_str:000000000000b658 .LASF1750
C:\Users\CYMR90~1\AppData\Local\Temp\ccSIna8B.s:29500  .debug_str:0000000000017f2a .LASF1751
C:\Users\CYMR90~1\AppData\Local\Temp\ccSIna8B.s:24717  .debug_str:0000000000004da3 .LASF1752
C:\Users\CYMR90~1\AppData\Local\Temp\ccSIna8B.s:30236  .debug_str:000000000001af6a .LASF1753
C:\Users\CYMR90~1\AppData\Local\Temp\ccSIna8B.s:30132  .debug_str:000000000001a8a5 .LASF1754
C:\Users\CYMR90~1\AppData\Local\Temp\ccSIna8B.s:26637  .debug_str:000000000000c847 .LASF1755
C:\Users\CYMR90~1\AppData\Local\Temp\ccSIna8B.s:28239  .debug_str:0000000000012ea4 .LASF1756
C:\Users\CYMR90~1\AppData\Local\Temp\ccSIna8B.s:30328  .debug_str:000000000001b57b .LASF1757
C:\Users\CYMR90~1\AppData\Local\Temp\ccSIna8B.s:27313  .debug_str:000000000000f316 .LASF1758
C:\Users\CYMR90~1\AppData\Local\Temp\ccSIna8B.s:25391  .debug_str:00000000000077c2 .LASF1759
C:\Users\CYMR90~1\AppData\Local\Temp\ccSIna8B.s:30074  .debug_str:000000000001a3d5 .LASF1760
C:\Users\CYMR90~1\AppData\Local\Temp\ccSIna8B.s:25683  .debug_str:0000000000008b9b .LASF1761
C:\Users\CYMR90~1\AppData\Local\Temp\ccSIna8B.s:23899  .debug_str:00000000000018ba .LASF1762
C:\Users\CYMR90~1\AppData\Local\Temp\ccSIna8B.s:32764  .debug_str:0000000000024c04 .LASF1763
C:\Users\CYMR90~1\AppData\Local\Temp\ccSIna8B.s:25421  .debug_str:00000000000079b3 .LASF1764
C:\Users\CYMR90~1\AppData\Local\Temp\ccSIna8B.s:25099  .debug_str:000000000000650b .LASF1765
C:\Users\CYMR90~1\AppData\Local\Temp\ccSIna8B.s:23879  .debug_str:0000000000001766 .LASF1766
C:\Users\CYMR90~1\AppData\Local\Temp\ccSIna8B.s:30440  .debug_str:000000000001bbec .LASF1767
C:\Users\CYMR90~1\AppData\Local\Temp\ccSIna8B.s:23941  .debug_str:0000000000001b3e .LASF1768
C:\Users\CYMR90~1\AppData\Local\Temp\ccSIna8B.s:32974  .debug_str:0000000000025add .LASF1769
C:\Users\CYMR90~1\AppData\Local\Temp\ccSIna8B.s:34676  .debug_str:000000000002c803 .LASF1770
C:\Users\CYMR90~1\AppData\Local\Temp\ccSIna8B.s:26523  .debug_str:000000000000c169 .LASF1771
C:\Users\CYMR90~1\AppData\Local\Temp\ccSIna8B.s:26113  .debug_str:000000000000a613 .LASF1772
C:\Users\CYMR90~1\AppData\Local\Temp\ccSIna8B.s:23611  .debug_str:000000000000070c .LASF1773
C:\Users\CYMR90~1\AppData\Local\Temp\ccSIna8B.s:23663  .debug_str:0000000000000a13 .LASF1774
C:\Users\CYMR90~1\AppData\Local\Temp\ccSIna8B.s:33698  .debug_str:0000000000028a53 .LASF1775
C:\Users\CYMR90~1\AppData\Local\Temp\ccSIna8B.s:28651  .debug_str:00000000000148b7 .LASF1776
C:\Users\CYMR90~1\AppData\Local\Temp\ccSIna8B.s:27391  .debug_str:000000000000f896 .LASF1777
C:\Users\CYMR90~1\AppData\Local\Temp\ccSIna8B.s:29490  .debug_str:0000000000017ea3 .LASF1778
C:\Users\CYMR90~1\AppData\Local\Temp\ccSIna8B.s:24815  .debug_str:000000000000538a .LASF1779
C:\Users\CYMR90~1\AppData\Local\Temp\ccSIna8B.s:33012  .debug_str:0000000000025d67 .LASF1780
C:\Users\CYMR90~1\AppData\Local\Temp\ccSIna8B.s:32208  .debug_str:00000000000229b1 .LASF1781
C:\Users\CYMR90~1\AppData\Local\Temp\ccSIna8B.s:30726  .debug_str:000000000001cdef .LASF1784
C:\Users\CYMR90~1\AppData\Local\Temp\ccSIna8B.s:29876  .debug_str:000000000001973b .LASF1785
C:\Users\CYMR90~1\AppData\Local\Temp\ccSIna8B.s:29722  .debug_str:0000000000018c68 .LASF1786
C:\Users\CYMR90~1\AppData\Local\Temp\ccSIna8B.s:33508  .debug_str:0000000000027c9c .LASF1787
C:\Users\CYMR90~1\AppData\Local\Temp\ccSIna8B.s:34132  .debug_str:000000000002a522 .LASF1788
C:\Users\CYMR90~1\AppData\Local\Temp\ccSIna8B.s:34448  .debug_str:000000000002b8b5 .LASF1789
C:\Users\CYMR90~1\AppData\Local\Temp\ccSIna8B.s:24401  .debug_str:0000000000003888 .LASF1790
C:\Users\CYMR90~1\AppData\Local\Temp\ccSIna8B.s:23523  .debug_str:000000000000020e .LASF1791
C:\Users\CYMR90~1\AppData\Local\Temp\ccSIna8B.s:33350  .debug_str:0000000000027269 .LASF1792
C:\Users\CYMR90~1\AppData\Local\Temp\ccSIna8B.s:32422  .debug_str:0000000000023607 .LASF1793
C:\Users\CYMR90~1\AppData\Local\Temp\ccSIna8B.s:34326  .debug_str:000000000002b0d0 .LASF1794
C:\Users\CYMR90~1\AppData\Local\Temp\ccSIna8B.s:33634  .debug_str:00000000000285ee .LASF1795
C:\Users\CYMR90~1\AppData\Local\Temp\ccSIna8B.s:28361  .debug_str:00000000000136d1 .LASF1796
C:\Users\CYMR90~1\AppData\Local\Temp\ccSIna8B.s:28641  .debug_str:00000000000147cb .LASF1797
C:\Users\CYMR90~1\AppData\Local\Temp\ccSIna8B.s:27753  .debug_str:0000000000010f88 .LASF1798
C:\Users\CYMR90~1\AppData\Local\Temp\ccSIna8B.s:26553  .debug_str:000000000000c361 .LASF1799
C:\Users\CYMR90~1\AppData\Local\Temp\ccSIna8B.s:29404  .debug_str:0000000000017949 .LASF1800
C:\Users\CYMR90~1\AppData\Local\Temp\ccSIna8B.s:29714  .debug_str:0000000000018bf7 .LASF1801
C:\Users\CYMR90~1\AppData\Local\Temp\ccSIna8B.s:28777  .debug_str:0000000000015064 .LASF1802
C:\Users\CYMR90~1\AppData\Local\Temp\ccSIna8B.s:27815  .debug_str:000000000001130a .LASF1803
C:\Users\CYMR90~1\AppData\Local\Temp\ccSIna8B.s:27291  .debug_str:000000000000f1fb .LASF1804
C:\Users\CYMR90~1\AppData\Local\Temp\ccSIna8B.s:32004  .debug_str:0000000000021d71 .LASF1805
C:\Users\CYMR90~1\AppData\Local\Temp\ccSIna8B.s:28663  .debug_str:000000000001496e .LASF1806
C:\Users\CYMR90~1\AppData\Local\Temp\ccSIna8B.s:31600  .debug_str:0000000000020436 .LASF1807
C:\Users\CYMR90~1\AppData\Local\Temp\ccSIna8B.s:28801  .debug_str:00000000000151de .LASF1808
C:\Users\CYMR90~1\AppData\Local\Temp\ccSIna8B.s:33626  .debug_str:00000000000284e2 .LASF1809
C:\Users\CYMR90~1\AppData\Local\Temp\ccSIna8B.s:30816  .debug_str:000000000001d4a1 .LASF1810
C:\Users\CYMR90~1\AppData\Local\Temp\ccSIna8B.s:29506  .debug_str:0000000000017f9f .LASF1811
C:\Users\CYMR90~1\AppData\Local\Temp\ccSIna8B.s:23861  .debug_str:000000000000164f .LASF1812
C:\Users\CYMR90~1\AppData\Local\Temp\ccSIna8B.s:27703  .debug_str:0000000000010c01 .LASF1813
C:\Users\CYMR90~1\AppData\Local\Temp\ccSIna8B.s:27977  .debug_str:0000000000011d98 .LASF1814
C:\Users\CYMR90~1\AppData\Local\Temp\ccSIna8B.s:30798  .debug_str:000000000001d399 .LASF1815
C:\Users\CYMR90~1\AppData\Local\Temp\ccSIna8B.s:29470  .debug_str:0000000000017d93 .LASF1816
C:\Users\CYMR90~1\AppData\Local\Temp\ccSIna8B.s:30806  .debug_str:000000000001d417 .LASF1817
C:\Users\CYMR90~1\AppData\Local\Temp\ccSIna8B.s:31250  .debug_str:000000000001ef4d .LASF1818
C:\Users\CYMR90~1\AppData\Local\Temp\ccSIna8B.s:27509  .debug_str:00000000000100a8 .LASF1819
C:\Users\CYMR90~1\AppData\Local\Temp\ccSIna8B.s:31742  .debug_str:0000000000020d61 .LASF1820
C:\Users\CYMR90~1\AppData\Local\Temp\ccSIna8B.s:25127  .debug_str:00000000000066a3 .LASF1821
C:\Users\CYMR90~1\AppData\Local\Temp\ccSIna8B.s:25515  .debug_str:000000000000806c .LASF1822
C:\Users\CYMR90~1\AppData\Local\Temp\ccSIna8B.s:31178  .debug_str:000000000001eb58 .LASF1823
C:\Users\CYMR90~1\AppData\Local\Temp\ccSIna8B.s:33914  .debug_str:0000000000029844 .LASF1824
C:\Users\CYMR90~1\AppData\Local\Temp\ccSIna8B.s:26425  .debug_str:000000000000bad5 .LASF1825
C:\Users\CYMR90~1\AppData\Local\Temp\ccSIna8B.s:31840  .debug_str:00000000000212e7 .LASF1826
C:\Users\CYMR90~1\AppData\Local\Temp\ccSIna8B.s:34266  .debug_str:000000000002ad36 .LASF1827
C:\Users\CYMR90~1\AppData\Local\Temp\ccSIna8B.s:27265  .debug_str:000000000000f083 .LASF1828
C:\Users\CYMR90~1\AppData\Local\Temp\ccSIna8B.s:27333  .debug_str:000000000000f48b .LASF1829
C:\Users\CYMR90~1\AppData\Local\Temp\ccSIna8B.s:28121  .debug_str:00000000000126ae .LASF1830
C:\Users\CYMR90~1\AppData\Local\Temp\ccSIna8B.s:25891  .debug_str:000000000000987c .LASF1831
C:\Users\CYMR90~1\AppData\Local\Temp\ccSIna8B.s:33292  .debug_str:0000000000026e91 .LASF1832
C:\Users\CYMR90~1\AppData\Local\Temp\ccSIna8B.s:26693  .debug_str:000000000000cd47 .LASF1833
C:\Users\CYMR90~1\AppData\Local\Temp\ccSIna8B.s:25333  .debug_str:0000000000007430 .LASF1834
C:\Users\CYMR90~1\AppData\Local\Temp\ccSIna8B.s:29097  .debug_str:00000000000163ec .LASF1835
C:\Users\CYMR90~1\AppData\Local\Temp\ccSIna8B.s:28161  .debug_str:0000000000012989 .LASF1836
C:\Users\CYMR90~1\AppData\Local\Temp\ccSIna8B.s:29065  .debug_str:0000000000016208 .LASF1837
C:\Users\CYMR90~1\AppData\Local\Temp\ccSIna8B.s:29800  .debug_str:00000000000191c4 .LASF1838
C:\Users\CYMR90~1\AppData\Local\Temp\ccSIna8B.s:27757  .debug_str:0000000000010fc0 .LASF1839
C:\Users\CYMR90~1\AppData\Local\Temp\ccSIna8B.s:30756  .debug_str:000000000001d069 .LASF1840
C:\Users\CYMR90~1\AppData\Local\Temp\ccSIna8B.s:32838  .debug_str:00000000000250dd .LASF1841
C:\Users\CYMR90~1\AppData\Local\Temp\ccSIna8B.s:32846  .debug_str:0000000000025155 .LASF1842
C:\Users\CYMR90~1\AppData\Local\Temp\ccSIna8B.s:33248  .debug_str:0000000000026be6 .LASF1843
C:\Users\CYMR90~1\AppData\Local\Temp\ccSIna8B.s:34466  .debug_str:000000000002b9e9 .LASF1844
C:\Users\CYMR90~1\AppData\Local\Temp\ccSIna8B.s:34320  .debug_str:000000000002b07d .LASF1845
C:\Users\CYMR90~1\AppData\Local\Temp\ccSIna8B.s:25615  .debug_str:0000000000008752 .LASF1846
C:\Users\CYMR90~1\AppData\Local\Temp\ccSIna8B.s:30952  .debug_str:000000000001dd12 .LASF1847
C:\Users\CYMR90~1\AppData\Local\Temp\ccSIna8B.s:32114  .debug_str:0000000000022422 .LASF1848
C:\Users\CYMR90~1\AppData\Local\Temp\ccSIna8B.s:32130  .debug_str:000000000002251f .LASF1849
C:\Users\CYMR90~1\AppData\Local\Temp\ccSIna8B.s:31342  .debug_str:000000000001f4d8 .LASF1850
C:\Users\CYMR90~1\AppData\Local\Temp\ccSIna8B.s:25675  .debug_str:0000000000008b18 .LASF1851
C:\Users\CYMR90~1\AppData\Local\Temp\ccSIna8B.s:33202  .debug_str:000000000002691a .LASF1852
C:\Users\CYMR90~1\AppData\Local\Temp\ccSIna8B.s:26945  .debug_str:000000000000dd47 .LASF1853
C:\Users\CYMR90~1\AppData\Local\Temp\ccSIna8B.s:24305  .debug_str:000000000000321f .LASF1854
C:\Users\CYMR90~1\AppData\Local\Temp\ccSIna8B.s:30834  .debug_str:000000000001d5d2 .LASF1855
C:\Users\CYMR90~1\AppData\Local\Temp\ccSIna8B.s:33472  .debug_str:0000000000027a64 .LASF1856
C:\Users\CYMR90~1\AppData\Local\Temp\ccSIna8B.s:25765  .debug_str:0000000000009100 .LASF1857
C:\Users\CYMR90~1\AppData\Local\Temp\ccSIna8B.s:26619  .debug_str:000000000000c73a .LASF1858
C:\Users\CYMR90~1\AppData\Local\Temp\ccSIna8B.s:33574  .debug_str:0000000000028139 .LASF1859
C:\Users\CYMR90~1\AppData\Local\Temp\ccSIna8B.s:28807  .debug_str:000000000001523f .LASF1860
C:\Users\CYMR90~1\AppData\Local\Temp\ccSIna8B.s:29742  .debug_str:0000000000018e11 .LASF1861
C:\Users\CYMR90~1\AppData\Local\Temp\ccSIna8B.s:27559  .debug_str:0000000000010395 .LASF1862
C:\Users\CYMR90~1\AppData\Local\Temp\ccSIna8B.s:25285  .debug_str:0000000000007093 .LASF1863
C:\Users\CYMR90~1\AppData\Local\Temp\ccSIna8B.s:29654  .debug_str:000000000001885c .LASF1864
C:\Users\CYMR90~1\AppData\Local\Temp\ccSIna8B.s:24925  .debug_str:0000000000005a50 .LASF1865
C:\Users\CYMR90~1\AppData\Local\Temp\ccSIna8B.s:32308  .debug_str:0000000000022fdf .LASF1866
C:\Users\CYMR90~1\AppData\Local\Temp\ccSIna8B.s:31528  .debug_str:000000000002003b .LASF1867
C:\Users\CYMR90~1\AppData\Local\Temp\ccSIna8B.s:26551  .debug_str:000000000000c331 .LASF1868
C:\Users\CYMR90~1\AppData\Local\Temp\ccSIna8B.s:23643  .debug_str:00000000000008e5 .LASF1869
C:\Users\CYMR90~1\AppData\Local\Temp\ccSIna8B.s:24005  .debug_str:0000000000001eda .LASF1870
C:\Users\CYMR90~1\AppData\Local\Temp\ccSIna8B.s:33862  .debug_str:000000000002947d .LASF1871
C:\Users\CYMR90~1\AppData\Local\Temp\ccSIna8B.s:32950  .debug_str:00000000000258cf .LASF1872
C:\Users\CYMR90~1\AppData\Local\Temp\ccSIna8B.s:28939  .debug_str:000000000001596c .LASF1873
C:\Users\CYMR90~1\AppData\Local\Temp\ccSIna8B.s:25457  .debug_str:0000000000007c2f .LASF1874
C:\Users\CYMR90~1\AppData\Local\Temp\ccSIna8B.s:26341  .debug_str:000000000000b48a .LASF1875
C:\Users\CYMR90~1\AppData\Local\Temp\ccSIna8B.s:34040  .debug_str:0000000000029ff1 .LASF1876
C:\Users\CYMR90~1\AppData\Local\Temp\ccSIna8B.s:30270  .debug_str:000000000001b1c8 .LASF1877
C:\Users\CYMR90~1\AppData\Local\Temp\ccSIna8B.s:31010  .debug_str:000000000001e13d .LASF1878
C:\Users\CYMR90~1\AppData\Local\Temp\ccSIna8B.s:27395  .debug_str:000000000000f8cf .LASF1879
C:\Users\CYMR90~1\AppData\Local\Temp\ccSIna8B.s:25721  .debug_str:0000000000008ddc .LASF1880
C:\Users\CYMR90~1\AppData\Local\Temp\ccSIna8B.s:31322  .debug_str:000000000001f39b .LASF1881
C:\Users\CYMR90~1\AppData\Local\Temp\ccSIna8B.s:23757  .debug_str:000000000000104e .LASF1882
C:\Users\CYMR90~1\AppData\Local\Temp\ccSIna8B.s:31732  .debug_str:0000000000020c9f .LASF1883
C:\Users\CYMR90~1\AppData\Local\Temp\ccSIna8B.s:34462  .debug_str:000000000002b9a1 .LASF1884
C:\Users\CYMR90~1\AppData\Local\Temp\ccSIna8B.s:31434  .debug_str:000000000001fa43 .LASF1885
C:\Users\CYMR90~1\AppData\Local\Temp\ccSIna8B.s:33590  .debug_str:0000000000028238 .LASF1886
C:\Users\CYMR90~1\AppData\Local\Temp\ccSIna8B.s:25947  .debug_str:0000000000009c26 .LASF1887
C:\Users\CYMR90~1\AppData\Local\Temp\ccSIna8B.s:25751  .debug_str:0000000000009018 .LASF1888
C:\Users\CYMR90~1\AppData\Local\Temp\ccSIna8B.s:34496  .debug_str:000000000002bba7 .LASF1889
C:\Users\CYMR90~1\AppData\Local\Temp\ccSIna8B.s:29892  .debug_str:00000000000197fa .LASF1890
C:\Users\CYMR90~1\AppData\Local\Temp\ccSIna8B.s:25939  .debug_str:0000000000009b80 .LASF1891
C:\Users\CYMR90~1\AppData\Local\Temp\ccSIna8B.s:26031  .debug_str:000000000000a133 .LASF1892
C:\Users\CYMR90~1\AppData\Local\Temp\ccSIna8B.s:30644  .debug_str:000000000001c814 .LASF1893
C:\Users\CYMR90~1\AppData\Local\Temp\ccSIna8B.s:25745  .debug_str:0000000000008fac .LASF1894
C:\Users\CYMR90~1\AppData\Local\Temp\ccSIna8B.s:27013  .debug_str:000000000000e18b .LASF1895
C:\Users\CYMR90~1\AppData\Local\Temp\ccSIna8B.s:29334  .debug_str:0000000000017519 .LASF1896
C:\Users\CYMR90~1\AppData\Local\Temp\ccSIna8B.s:23957  .debug_str:0000000000001c0f .LASF1897
C:\Users\CYMR90~1\AppData\Local\Temp\ccSIna8B.s:33318  .debug_str:0000000000027072 .LASF1898
C:\Users\CYMR90~1\AppData\Local\Temp\ccSIna8B.s:30138  .debug_str:000000000001a917 .LASF1899
C:\Users\CYMR90~1\AppData\Local\Temp\ccSIna8B.s:26829  .debug_str:000000000000d658 .LASF1900
C:\Users\CYMR90~1\AppData\Local\Temp\ccSIna8B.s:23559  .debug_str:0000000000000436 .LASF1901
C:\Users\CYMR90~1\AppData\Local\Temp\ccSIna8B.s:24385  .debug_str:0000000000003760 .LASF1902
C:\Users\CYMR90~1\AppData\Local\Temp\ccSIna8B.s:26451  .debug_str:000000000000bc20 .LASF1903
C:\Users\CYMR90~1\AppData\Local\Temp\ccSIna8B.s:34744  .debug_str:000000000002cbdf .LASF1904
C:\Users\CYMR90~1\AppData\Local\Temp\ccSIna8B.s:29199  .debug_str:0000000000016aad .LASF1905
C:\Users\CYMR90~1\AppData\Local\Temp\ccSIna8B.s:25907  .debug_str:0000000000009937 .LASF1906
C:\Users\CYMR90~1\AppData\Local\Temp\ccSIna8B.s:33666  .debug_str:00000000000287ec .LASF1907
C:\Users\CYMR90~1\AppData\Local\Temp\ccSIna8B.s:30682  .debug_str:000000000001cb2c .LASF1908
C:\Users\CYMR90~1\AppData\Local\Temp\ccSIna8B.s:24911  .debug_str:0000000000005954 .LASF1909
C:\Users\CYMR90~1\AppData\Local\Temp\ccSIna8B.s:34032  .debug_str:0000000000029f74 .LASF1910
C:\Users\CYMR90~1\AppData\Local\Temp\ccSIna8B.s:30314  .debug_str:000000000001b4bc .LASF1911
C:\Users\CYMR90~1\AppData\Local\Temp\ccSIna8B.s:29994  .debug_str:0000000000019f40 .LASF1912
C:\Users\CYMR90~1\AppData\Local\Temp\ccSIna8B.s:26359  .debug_str:000000000000b639 .LASF1913
C:\Users\CYMR90~1\AppData\Local\Temp\ccSIna8B.s:26203  .debug_str:000000000000ab57 .LASF1914
C:\Users\CYMR90~1\AppData\Local\Temp\ccSIna8B.s:31634  .debug_str:0000000000020647 .LASF1915
C:\Users\CYMR90~1\AppData\Local\Temp\ccSIna8B.s:32924  .debug_str:00000000000256f5 .LASF1916
C:\Users\CYMR90~1\AppData\Local\Temp\ccSIna8B.s:29504  .debug_str:0000000000017f73 .LASF1917
C:\Users\CYMR90~1\AppData\Local\Temp\ccSIna8B.s:26105  .debug_str:000000000000a5a9 .LASF1918
C:\Users\CYMR90~1\AppData\Local\Temp\ccSIna8B.s:34090  .debug_str:000000000002a2b0 .LASF1919
C:\Users\CYMR90~1\AppData\Local\Temp\ccSIna8B.s:30654  .debug_str:000000000001c8b7 .LASF1920
C:\Users\CYMR90~1\AppData\Local\Temp\ccSIna8B.s:26791  .debug_str:000000000000d33c .LASF1921
C:\Users\CYMR90~1\AppData\Local\Temp\ccSIna8B.s:25307  .debug_str:000000000000721b .LASF1922
C:\Users\CYMR90~1\AppData\Local\Temp\ccSIna8B.s:31702  .debug_str:0000000000020aca .LASF1923
C:\Users\CYMR90~1\AppData\Local\Temp\ccSIna8B.s:33816  .debug_str:000000000002919a .LASF1924
C:\Users\CYMR90~1\AppData\Local\Temp\ccSIna8B.s:26223  .debug_str:000000000000acc2 .LASF1925
C:\Users\CYMR90~1\AppData\Local\Temp\ccSIna8B.s:31526  .debug_str:000000000002000d .LASF1926
C:\Users\CYMR90~1\AppData\Local\Temp\ccSIna8B.s:30548  .debug_str:000000000001c2e0 .LASF1927
C:\Users\CYMR90~1\AppData\Local\Temp\ccSIna8B.s:24423  .debug_str:00000000000039da .LASF1928
C:\Users\CYMR90~1\AppData\Local\Temp\ccSIna8B.s:25355  .debug_str:0000000000007578 .LASF1929
C:\Users\CYMR90~1\AppData\Local\Temp\ccSIna8B.s:31454  .debug_str:000000000001fb77 .LASF1930
C:\Users\CYMR90~1\AppData\Local\Temp\ccSIna8B.s:34774  .debug_str:000000000002cdec .LASF1931
C:\Users\CYMR90~1\AppData\Local\Temp\ccSIna8B.s:30070  .debug_str:000000000001a389 .LASF1932
C:\Users\CYMR90~1\AppData\Local\Temp\ccSIna8B.s:25471  .debug_str:0000000000007cde .LASF1933
C:\Users\CYMR90~1\AppData\Local\Temp\ccSIna8B.s:26529  .debug_str:000000000000c1dc .LASF1934
C:\Users\CYMR90~1\AppData\Local\Temp\ccSIna8B.s:30626  .debug_str:000000000001c6f8 .LASF1935
C:\Users\CYMR90~1\AppData\Local\Temp\ccSIna8B.s:24957  .debug_str:0000000000005c81 .LASF1936
C:\Users\CYMR90~1\AppData\Local\Temp\ccSIna8B.s:30484  .debug_str:000000000001beb1 .LASF1937
C:\Users\CYMR90~1\AppData\Local\Temp\ccSIna8B.s:29452  .debug_str:0000000000017c76 .LASF1938
C:\Users\CYMR90~1\AppData\Local\Temp\ccSIna8B.s:28757  .debug_str:0000000000014ef0 .LASF1939
C:\Users\CYMR90~1\AppData\Local\Temp\ccSIna8B.s:25659  .debug_str:00000000000089dd .LASF1940
C:\Users\CYMR90~1\AppData\Local\Temp\ccSIna8B.s:33882  .debug_str:00000000000295df .LASF1941
C:\Users\CYMR90~1\AppData\Local\Temp\ccSIna8B.s:30738  .debug_str:000000000001ceac .LASF1942
C:\Users\CYMR90~1\AppData\Local\Temp\ccSIna8B.s:26585  .debug_str:000000000000c52f .LASF1943
C:\Users\CYMR90~1\AppData\Local\Temp\ccSIna8B.s:27739  .debug_str:0000000000010e3a .LASF1944
C:\Users\CYMR90~1\AppData\Local\Temp\ccSIna8B.s:31562  .debug_str:0000000000020241 .LASF1945
C:\Users\CYMR90~1\AppData\Local\Temp\ccSIna8B.s:28471  .debug_str:0000000000013d7d .LASF1946
C:\Users\CYMR90~1\AppData\Local\Temp\ccSIna8B.s:25249  .debug_str:0000000000006e51 .LASF1947
C:\Users\CYMR90~1\AppData\Local\Temp\ccSIna8B.s:24155  .debug_str:0000000000002875 .LASF1948
C:\Users\CYMR90~1\AppData\Local\Temp\ccSIna8B.s:30366  .debug_str:000000000001b7ab .LASF1949
C:\Users\CYMR90~1\AppData\Local\Temp\ccSIna8B.s:27281  .debug_str:000000000000f14e .LASF1950
C:\Users\CYMR90~1\AppData\Local\Temp\ccSIna8B.s:24027  .debug_str:0000000000002009 .LASF1951
C:\Users\CYMR90~1\AppData\Local\Temp\ccSIna8B.s:32326  .debug_str:00000000000230c9 .LASF1952
C:\Users\CYMR90~1\AppData\Local\Temp\ccSIna8B.s:33058  .debug_str:000000000002603f .LASF1953
C:\Users\CYMR90~1\AppData\Local\Temp\ccSIna8B.s:28597  .debug_str:0000000000014552 .LASF1954
C:\Users\CYMR90~1\AppData\Local\Temp\ccSIna8B.s:31854  .debug_str:00000000000213c0 .LASF1955
C:\Users\CYMR90~1\AppData\Local\Temp\ccSIna8B.s:32520  .debug_str:0000000000023c21 .LASF1956
C:\Users\CYMR90~1\AppData\Local\Temp\ccSIna8B.s:24081  .debug_str:0000000000002321 .LASF1957
C:\Users\CYMR90~1\AppData\Local\Temp\ccSIna8B.s:34292  .debug_str:000000000002aebc .LASF1958
C:\Users\CYMR90~1\AppData\Local\Temp\ccSIna8B.s:25477  .debug_str:0000000000007d4f .LASF1959
C:\Users\CYMR90~1\AppData\Local\Temp\ccSIna8B.s:33864  .debug_str:00000000000294bc .LASF1960
C:\Users\CYMR90~1\AppData\Local\Temp\ccSIna8B.s:30692  .debug_str:000000000001cbd7 .LASF1961
C:\Users\CYMR90~1\AppData\Local\Temp\ccSIna8B.s:23603  .debug_str:0000000000000682 .LASF1962
C:\Users\CYMR90~1\AppData\Local\Temp\ccSIna8B.s:28985  .debug_str:0000000000015c2f .LASF1963
C:\Users\CYMR90~1\AppData\Local\Temp\ccSIna8B.s:32902  .debug_str:0000000000025571 .LASF1964
C:\Users\CYMR90~1\AppData\Local\Temp\ccSIna8B.s:25311  .debug_str:0000000000007286 .LASF1965
C:\Users\CYMR90~1\AppData\Local\Temp\ccSIna8B.s:30826  .debug_str:000000000001d530 .LASF1966
C:\Users\CYMR90~1\AppData\Local\Temp\ccSIna8B.s:34392  .debug_str:000000000002b4aa .LASF1967
C:\Users\CYMR90~1\AppData\Local\Temp\ccSIna8B.s:30668  .debug_str:000000000001ca47 .LASF1968
C:\Users\CYMR90~1\AppData\Local\Temp\ccSIna8B.s:32212  .debug_str:00000000000229f1 .LASF1969
C:\Users\CYMR90~1\AppData\Local\Temp\ccSIna8B.s:25295  .debug_str:0000000000007149 .LASF1970
C:\Users\CYMR90~1\AppData\Local\Temp\ccSIna8B.s:32216  .debug_str:0000000000022a22 .LASF1971
C:\Users\CYMR90~1\AppData\Local\Temp\ccSIna8B.s:32942  .debug_str:0000000000025825 .LASF1972
C:\Users\CYMR90~1\AppData\Local\Temp\ccSIna8B.s:29982  .debug_str:0000000000019e76 .LASF1973
C:\Users\CYMR90~1\AppData\Local\Temp\ccSIna8B.s:29784  .debug_str:00000000000190ce .LASF1974
C:\Users\CYMR90~1\AppData\Local\Temp\ccSIna8B.s:34340  .debug_str:000000000002b1ba .LASF1975
C:\Users\CYMR90~1\AppData\Local\Temp\ccSIna8B.s:25497  .debug_str:0000000000007f40 .LASF1976
C:\Users\CYMR90~1\AppData\Local\Temp\ccSIna8B.s:25855  .debug_str:0000000000009606 .LASF1977
C:\Users\CYMR90~1\AppData\Local\Temp\ccSIna8B.s:32078  .debug_str:00000000000221da .LASF1978
C:\Users\CYMR90~1\AppData\Local\Temp\ccSIna8B.s:24771  .debug_str:00000000000050e4 .LASF1979
C:\Users\CYMR90~1\AppData\Local\Temp\ccSIna8B.s:32836  .debug_str:00000000000250ba .LASF1980
C:\Users\CYMR90~1\AppData\Local\Temp\ccSIna8B.s:32688  .debug_str:00000000000246ef .LASF1981
C:\Users\CYMR90~1\AppData\Local\Temp\ccSIna8B.s:32526  .debug_str:0000000000023c7c .LASF1982
C:\Users\CYMR90~1\AppData\Local\Temp\ccSIna8B.s:33366  .debug_str:0000000000027337 .LASF1983
C:\Users\CYMR90~1\AppData\Local\Temp\ccSIna8B.s:34296  .debug_str:000000000002af12 .LASF1984
C:\Users\CYMR90~1\AppData\Local\Temp\ccSIna8B.s:25447  .debug_str:0000000000007b52 .LASF1985
C:\Users\CYMR90~1\AppData\Local\Temp\ccSIna8B.s:30402  .debug_str:000000000001b9f8 .LASF1986
C:\Users\CYMR90~1\AppData\Local\Temp\ccSIna8B.s:28673  .debug_str:00000000000149f7 .LASF1987
C:\Users\CYMR90~1\AppData\Local\Temp\ccSIna8B.s:29684  .debug_str:0000000000018a3b .LASF1988
C:\Users\CYMR90~1\AppData\Local\Temp\ccSIna8B.s:26687  .debug_str:000000000000cced .LASF1989
C:\Users\CYMR90~1\AppData\Local\Temp\ccSIna8B.s:24521  .debug_str:0000000000004038 .LASF1990
C:\Users\CYMR90~1\AppData\Local\Temp\ccSIna8B.s:26751  .debug_str:000000000000d08a .LASF1991
C:\Users\CYMR90~1\AppData\Local\Temp\ccSIna8B.s:27659  .debug_str:000000000001096a .LASF1992
C:\Users\CYMR90~1\AppData\Local\Temp\ccSIna8B.s:30406  .debug_str:000000000001ba3f .LASF1993
C:\Users\CYMR90~1\AppData\Local\Temp\ccSIna8B.s:23753  .debug_str:000000000000101e .LASF1994
C:\Users\CYMR90~1\AppData\Local\Temp\ccSIna8B.s:32958  .debug_str:0000000000025963 .LASF1995
C:\Users\CYMR90~1\AppData\Local\Temp\ccSIna8B.s:24383  .debug_str:000000000000372c .LASF1996
C:\Users\CYMR90~1\AppData\Local\Temp\ccSIna8B.s:33418  .debug_str:000000000002774a .LASF1997
C:\Users\CYMR90~1\AppData\Local\Temp\ccSIna8B.s:25631  .debug_str:0000000000008822 .LASF1998
C:\Users\CYMR90~1\AppData\Local\Temp\ccSIna8B.s:29610  .debug_str:00000000000185d5 .LASF1999
C:\Users\CYMR90~1\AppData\Local\Temp\ccSIna8B.s:29085  .debug_str:0000000000016341 .LASF2000
C:\Users\CYMR90~1\AppData\Local\Temp\ccSIna8B.s:27907  .debug_str:00000000000118ad .LASF2001
C:\Users\CYMR90~1\AppData\Local\Temp\ccSIna8B.s:32224  .debug_str:0000000000022ab3 .LASF2002
C:\Users\CYMR90~1\AppData\Local\Temp\ccSIna8B.s:33646  .debug_str:00000000000286aa .LASF2003
C:\Users\CYMR90~1\AppData\Local\Temp\ccSIna8B.s:28629  .debug_str:00000000000146f7 .LASF2004
C:\Users\CYMR90~1\AppData\Local\Temp\ccSIna8B.s:32116  .debug_str:000000000002243d .LASF2005
C:\Users\CYMR90~1\AppData\Local\Temp\ccSIna8B.s:29294  .debug_str:00000000000172e4 .LASF2006
C:\Users\CYMR90~1\AppData\Local\Temp\ccSIna8B.s:34548  .debug_str:000000000002bf0a .LASF2007
C:\Users\CYMR90~1\AppData\Local\Temp\ccSIna8B.s:24817  .debug_str:00000000000053b2 .LASF2008
C:\Users\CYMR90~1\AppData\Local\Temp\ccSIna8B.s:28397  .debug_str:000000000001392a .LASF2009
C:\Users\CYMR90~1\AppData\Local\Temp\ccSIna8B.s:31102  .debug_str:000000000001e6ac .LASF2010
C:\Users\CYMR90~1\AppData\Local\Temp\ccSIna8B.s:26719  .debug_str:000000000000cee0 .LASF2011
C:\Users\CYMR90~1\AppData\Local\Temp\ccSIna8B.s:28849  .debug_str:00000000000154a7 .LASF2012
C:\Users\CYMR90~1\AppData\Local\Temp\ccSIna8B.s:32408  .debug_str:0000000000023543 .LASF2013
C:\Users\CYMR90~1\AppData\Local\Temp\ccSIna8B.s:32168  .debug_str:00000000000226ef .LASF2014
C:\Users\CYMR90~1\AppData\Local\Temp\ccSIna8B.s:30116  .debug_str:000000000001a7cb .LASF2015
C:\Users\CYMR90~1\AppData\Local\Temp\ccSIna8B.s:34020  .debug_str:0000000000029ec0 .LASF2016
C:\Users\CYMR90~1\AppData\Local\Temp\ccSIna8B.s:32316  .debug_str:0000000000023059 .LASF2017
C:\Users\CYMR90~1\AppData\Local\Temp\ccSIna8B.s:34456  .debug_str:000000000002b937 .LASF2018
C:\Users\CYMR90~1\AppData\Local\Temp\ccSIna8B.s:30864  .debug_str:000000000001d78e .LASF2019
C:\Users\CYMR90~1\AppData\Local\Temp\ccSIna8B.s:25185  .debug_str:0000000000006a56 .LASF2020
C:\Users\CYMR90~1\AppData\Local\Temp\ccSIna8B.s:32360  .debug_str:00000000000232b3 .LASF2021
C:\Users\CYMR90~1\AppData\Local\Temp\ccSIna8B.s:33356  .debug_str:00000000000272b6 .LASF2022
C:\Users\CYMR90~1\AppData\Local\Temp\ccSIna8B.s:29518  .debug_str:0000000000018072 .LASF2023
C:\Users\CYMR90~1\AppData\Local\Temp\ccSIna8B.s:33294  .debug_str:0000000000026ea6 .LASF2024
C:\Users\CYMR90~1\AppData\Local\Temp\ccSIna8B.s:26423  .debug_str:000000000000baba .LASF2025
C:\Users\CYMR90~1\AppData\Local\Temp\ccSIna8B.s:34406  .debug_str:000000000002b579 .LASF2026
C:\Users\CYMR90~1\AppData\Local\Temp\ccSIna8B.s:24347  .debug_str:00000000000034ea .LASF2027
C:\Users\CYMR90~1\AppData\Local\Temp\ccSIna8B.s:32420  .debug_str:00000000000235e9 .LASF2028
C:\Users\CYMR90~1\AppData\Local\Temp\ccSIna8B.s:31422  .debug_str:000000000001f96f .LASF2029
C:\Users\CYMR90~1\AppData\Local\Temp\ccSIna8B.s:23507  .debug_str:00000000000000ff .LASF2030
C:\Users\CYMR90~1\AppData\Local\Temp\ccSIna8B.s:23963  .debug_str:0000000000001c70 .LASF2031
C:\Users\CYMR90~1\AppData\Local\Temp\ccSIna8B.s:26197  .debug_str:000000000000ab12 .LASF2032
C:\Users\CYMR90~1\AppData\Local\Temp\ccSIna8B.s:27411  .debug_str:000000000000fa59 .LASF2033
C:\Users\CYMR90~1\AppData\Local\Temp\ccSIna8B.s:26403  .debug_str:000000000000b923 .LASF2034
C:\Users\CYMR90~1\AppData\Local\Temp\ccSIna8B.s:27975  .debug_str:0000000000011d7b .LASF2035
C:\Users\CYMR90~1\AppData\Local\Temp\ccSIna8B.s:31890  .debug_str:0000000000021676 .LASF2036
C:\Users\CYMR90~1\AppData\Local\Temp\ccSIna8B.s:32294  .debug_str:0000000000022f12 .LASF2037
C:\Users\CYMR90~1\AppData\Local\Temp\ccSIna8B.s:32880  .debug_str:000000000002539d .LASF2038
C:\Users\CYMR90~1\AppData\Local\Temp\ccSIna8B.s:28069  .debug_str:0000000000012370 .LASF2039
C:\Users\CYMR90~1\AppData\Local\Temp\ccSIna8B.s:30056  .debug_str:000000000001a2db .LASF2040
C:\Users\CYMR90~1\AppData\Local\Temp\ccSIna8B.s:26747  .debug_str:000000000000d03a .LASF2041
C:\Users\CYMR90~1\AppData\Local\Temp\ccSIna8B.s:24163  .debug_str:00000000000028e8 .LASF2042
C:\Users\CYMR90~1\AppData\Local\Temp\ccSIna8B.s:24913  .debug_str:0000000000005992 .LASF2043
C:\Users\CYMR90~1\AppData\Local\Temp\ccSIna8B.s:34826  .debug_str:000000000002d16a .LASF2044
C:\Users\CYMR90~1\AppData\Local\Temp\ccSIna8B.s:28367  .debug_str:000000000001372a .LASF2045
C:\Users\CYMR90~1\AppData\Local\Temp\ccSIna8B.s:32184  .debug_str:00000000000227fb .LASF2046
C:\Users\CYMR90~1\AppData\Local\Temp\ccSIna8B.s:33828  .debug_str:0000000000029271 .LASF2047
C:\Users\CYMR90~1\AppData\Local\Temp\ccSIna8B.s:30528  .debug_str:000000000001c1ab .LASF2048
C:\Users\CYMR90~1\AppData\Local\Temp\ccSIna8B.s:31062  .debug_str:000000000001e47c .LASF2049
C:\Users\CYMR90~1\AppData\Local\Temp\ccSIna8B.s:24981  .debug_str:0000000000005dd6 .LASF2050
C:\Users\CYMR90~1\AppData\Local\Temp\ccSIna8B.s:24333  .debug_str:00000000000033f0 .LASF2051
C:\Users\CYMR90~1\AppData\Local\Temp\ccSIna8B.s:26307  .debug_str:000000000000b2ac .LASF2052
C:\Users\CYMR90~1\AppData\Local\Temp\ccSIna8B.s:32920  .debug_str:0000000000025694 .LASF2053
C:\Users\CYMR90~1\AppData\Local\Temp\ccSIna8B.s:34250  .debug_str:000000000002ac64 .LASF2054
C:\Users\CYMR90~1\AppData\Local\Temp\ccSIna8B.s:24781  .debug_str:000000000000518c .LASF2055
C:\Users\CYMR90~1\AppData\Local\Temp\ccSIna8B.s:33252  .debug_str:0000000000026c1d .LASF2056
C:\Users\CYMR90~1\AppData\Local\Temp\ccSIna8B.s:31228  .debug_str:000000000001ede9 .LASF2057
C:\Users\CYMR90~1\AppData\Local\Temp\ccSIna8B.s:29352  .debug_str:0000000000017623 .LASF2058
C:\Users\CYMR90~1\AppData\Local\Temp\ccSIna8B.s:26187  .debug_str:000000000000aa67 .LASF2059
C:\Users\CYMR90~1\AppData\Local\Temp\ccSIna8B.s:27005  .debug_str:000000000000e109 .LASF2060
C:\Users\CYMR90~1\AppData\Local\Temp\ccSIna8B.s:31688  .debug_str:00000000000209f8 .LASF2061
C:\Users\CYMR90~1\AppData\Local\Temp\ccSIna8B.s:28503  .debug_str:0000000000013f77 .LASF2062
C:\Users\CYMR90~1\AppData\Local\Temp\ccSIna8B.s:26183  .debug_str:000000000000aa2b .LASF2063
C:\Users\CYMR90~1\AppData\Local\Temp\ccSIna8B.s:27785  .debug_str:000000000001114f .LASF2064
C:\Users\CYMR90~1\AppData\Local\Temp\ccSIna8B.s:31190  .debug_str:000000000001ebe2 .LASF2065
C:\Users\CYMR90~1\AppData\Local\Temp\ccSIna8B.s:25873  .debug_str:0000000000009706 .LASF2066
C:\Users\CYMR90~1\AppData\Local\Temp\ccSIna8B.s:26335  .debug_str:000000000000b42c .LASF2067
C:\Users\CYMR90~1\AppData\Local\Temp\ccSIna8B.s:29458  .debug_str:0000000000017cd7 .LASF2068
C:\Users\CYMR90~1\AppData\Local\Temp\ccSIna8B.s:29057  .debug_str:0000000000016167 .LASF2069
C:\Users\CYMR90~1\AppData\Local\Temp\ccSIna8B.s:26887  .debug_str:000000000000d9e3 .LASF2070
C:\Users\CYMR90~1\AppData\Local\Temp\ccSIna8B.s:24951  .debug_str:0000000000005c3a .LASF2071
C:\Users\CYMR90~1\AppData\Local\Temp\ccSIna8B.s:28223  .debug_str:0000000000012da1 .LASF2072
C:\Users\CYMR90~1\AppData\Local\Temp\ccSIna8B.s:27243  .debug_str:000000000000ef64 .LASF2073
C:\Users\CYMR90~1\AppData\Local\Temp\ccSIna8B.s:26465  .debug_str:000000000000bd3e .LASF2074
C:\Users\CYMR90~1\AppData\Local\Temp\ccSIna8B.s:34626  .debug_str:000000000002c46a .LASF2075
C:\Users\CYMR90~1\AppData\Local\Temp\ccSIna8B.s:25737  .debug_str:0000000000008f40 .LASF2076
C:\Users\CYMR90~1\AppData\Local\Temp\ccSIna8B.s:33906  .debug_str:00000000000297c9 .LASF2077
C:\Users\CYMR90~1\AppData\Local\Temp\ccSIna8B.s:24795  .debug_str:000000000000525d .LASF2078
C:\Users\CYMR90~1\AppData\Local\Temp\ccSIna8B.s:23911  .debug_str:0000000000001960 .LASF2079
C:\Users\CYMR90~1\AppData\Local\Temp\ccSIna8B.s:32444  .debug_str:0000000000023790 .LASF2080
C:\Users\CYMR90~1\AppData\Local\Temp\ccSIna8B.s:33792  .debug_str:000000000002901e .LASF2081
C:\Users\CYMR90~1\AppData\Local\Temp\ccSIna8B.s:33884  .debug_str:0000000000029607 .LASF2082
C:\Users\CYMR90~1\AppData\Local\Temp\ccSIna8B.s:28095  .debug_str:00000000000124ec .LASF2083
C:\Users\CYMR90~1\AppData\Local\Temp\ccSIna8B.s:34124  .debug_str:000000000002a4c6 .LASF2084
C:\Users\CYMR90~1\AppData\Local\Temp\ccSIna8B.s:32332  .debug_str:0000000000023127 .LASF2085
C:\Users\CYMR90~1\AppData\Local\Temp\ccSIna8B.s:23807  .debug_str:0000000000001342 .LASF2086
C:\Users\CYMR90~1\AppData\Local\Temp\ccSIna8B.s:23657  .debug_str:00000000000009c1 .LASF2087
C:\Users\CYMR90~1\AppData\Local\Temp\ccSIna8B.s:30320  .debug_str:000000000001b509 .LASF2088
C:\Users\CYMR90~1\AppData\Local\Temp\ccSIna8B.s:31392  .debug_str:000000000001f7d4 .LASF2089
C:\Users\CYMR90~1\AppData\Local\Temp\ccSIna8B.s:29282  .debug_str:0000000000017229 .LASF2090
C:\Users\CYMR90~1\AppData\Local\Temp\ccSIna8B.s:28029  .debug_str:0000000000012089 .LASF2091
C:\Users\CYMR90~1\AppData\Local\Temp\ccSIna8B.s:29382  .debug_str:00000000000177f0 .LASF2092
C:\Users\CYMR90~1\AppData\Local\Temp\ccSIna8B.s:28533  .debug_str:000000000001415d .LASF2093
C:\Users\CYMR90~1\AppData\Local\Temp\ccSIna8B.s:34620  .debug_str:000000000002c416 .LASF2094
C:\Users\CYMR90~1\AppData\Local\Temp\ccSIna8B.s:24545  .debug_str:000000000000424c .LASF2095
C:\Users\CYMR90~1\AppData\Local\Temp\ccSIna8B.s:25985  .debug_str:0000000000009e6e .LASF2096
C:\Users\CYMR90~1\AppData\Local\Temp\ccSIna8B.s:24301  .debug_str:00000000000031bc .LASF2097
C:\Users\CYMR90~1\AppData\Local\Temp\ccSIna8B.s:33068  .debug_str:00000000000260dd .LASF2098
C:\Users\CYMR90~1\AppData\Local\Temp\ccSIna8B.s:27569  .debug_str:0000000000010446 .LASF2099
C:\Users\CYMR90~1\AppData\Local\Temp\ccSIna8B.s:26343  .debug_str:000000000000b4b3 .LASF2100
C:\Users\CYMR90~1\AppData\Local\Temp\ccSIna8B.s:25125  .debug_str:0000000000006680 .LASF2101
C:\Users\CYMR90~1\AppData\Local\Temp\ccSIna8B.s:24215  .debug_str:0000000000002c0f .LASF2102
C:\Users\CYMR90~1\AppData\Local\Temp\ccSIna8B.s:26023  .debug_str:000000000000a08c .LASF2103
C:\Users\CYMR90~1\AppData\Local\Temp\ccSIna8B.s:34576  .debug_str:000000000002c0f1 .LASF2104
C:\Users\CYMR90~1\AppData\Local\Temp\ccSIna8B.s:29380  .debug_str:00000000000177cc .LASF2105
C:\Users\CYMR90~1\AppData\Local\Temp\ccSIna8B.s:24319  .debug_str:00000000000032ff .LASF2106
C:\Users\CYMR90~1\AppData\Local\Temp\ccSIna8B.s:33852  .debug_str:0000000000029404 .LASF2107
C:\Users\CYMR90~1\AppData\Local\Temp\ccSIna8B.s:28063  .debug_str:00000000000122f6 .LASF2108
C:\Users\CYMR90~1\AppData\Local\Temp\ccSIna8B.s:24337  .debug_str:000000000000342e .LASF2109
C:\Users\CYMR90~1\AppData\Local\Temp\ccSIna8B.s:26793  .debug_str:000000000000d368 .LASF2110
C:\Users\CYMR90~1\AppData\Local\Temp\ccSIna8B.s:29328  .debug_str:00000000000174bd .LASF2111
C:\Users\CYMR90~1\AppData\Local\Temp\ccSIna8B.s:31412  .debug_str:000000000001f8e9 .LASF2112
C:\Users\CYMR90~1\AppData\Local\Temp\ccSIna8B.s:34014  .debug_str:0000000000029e66 .LASF2113
C:\Users\CYMR90~1\AppData\Local\Temp\ccSIna8B.s:33400  .debug_str:0000000000027629 .LASF2114
C:\Users\CYMR90~1\AppData\Local\Temp\ccSIna8B.s:28419  .debug_str:0000000000013a62 .LASF2115
C:\Users\CYMR90~1\AppData\Local\Temp\ccSIna8B.s:30302  .debug_str:000000000001b3e1 .LASF2116
C:\Users\CYMR90~1\AppData\Local\Temp\ccSIna8B.s:28609  .debug_str:00000000000145ef .LASF2117
C:\Users\CYMR90~1\AppData\Local\Temp\ccSIna8B.s:32676  .debug_str:000000000002465c .LASF2118
C:\Users\CYMR90~1\AppData\Local\Temp\ccSIna8B.s:31352  .debug_str:000000000001f577 .LASF2119
C:\Users\CYMR90~1\AppData\Local\Temp\ccSIna8B.s:24167  .debug_str:000000000000291f .LASF2120
C:\Users\CYMR90~1\AppData\Local\Temp\ccSIna8B.s:31792  .debug_str:0000000000021053 .LASF2121
C:\Users\CYMR90~1\AppData\Local\Temp\ccSIna8B.s:25591  .debug_str:00000000000085e0 .LASF2122
C:\Users\CYMR90~1\AppData\Local\Temp\ccSIna8B.s:28469  .debug_str:0000000000013d59 .LASF2123
C:\Users\CYMR90~1\AppData\Local\Temp\ccSIna8B.s:31088  .debug_str:000000000001e5ca .LASF2124
C:\Users\CYMR90~1\AppData\Local\Temp\ccSIna8B.s:28315  .debug_str:00000000000133ab .LASF2125
C:\Users\CYMR90~1\AppData\Local\Temp\ccSIna8B.s:29450  .debug_str:0000000000017c4f .LASF2126
C:\Users\CYMR90~1\AppData\Local\Temp\ccSIna8B.s:33380  .debug_str:0000000000027442 .LASF2127
C:\Users\CYMR90~1\AppData\Local\Temp\ccSIna8B.s:31904  .debug_str:000000000002174c .LASF2128
C:\Users\CYMR90~1\AppData\Local\Temp\ccSIna8B.s:27781  .debug_str:0000000000011114 .LASF2129
C:\Users\CYMR90~1\AppData\Local\Temp\ccSIna8B.s:31808  .debug_str:0000000000021123 .LASF2130
C:\Users\CYMR90~1\AppData\Local\Temp\ccSIna8B.s:29674  .debug_str:000000000001899a .LASF2131
C:\Users\CYMR90~1\AppData\Local\Temp\ccSIna8B.s:31628  .debug_str:00000000000205e8 .LASF2132
C:\Users\CYMR90~1\AppData\Local\Temp\ccSIna8B.s:27967  .debug_str:0000000000011cf4 .LASF2133
C:\Users\CYMR90~1\AppData\Local\Temp\ccSIna8B.s:24309  .debug_str:0000000000003261 .LASF2134
C:\Users\CYMR90~1\AppData\Local\Temp\ccSIna8B.s:24051  .debug_str:0000000000002158 .LASF2135
C:\Users\CYMR90~1\AppData\Local\Temp\ccSIna8B.s:29832  .debug_str:0000000000019473 .LASF2136
C:\Users\CYMR90~1\AppData\Local\Temp\ccSIna8B.s:34112  .debug_str:000000000002a3fd .LASF2137
C:\Users\CYMR90~1\AppData\Local\Temp\ccSIna8B.s:25593  .debug_str:0000000000008605 .LASF2138
C:\Users\CYMR90~1\AppData\Local\Temp\ccSIna8B.s:31998  .debug_str:0000000000021d13 .LASF2139
C:\Users\CYMR90~1\AppData\Local\Temp\ccSIna8B.s:27883  .debug_str:0000000000011707 .LASF2140
C:\Users\CYMR90~1\AppData\Local\Temp\ccSIna8B.s:27357  .debug_str:000000000000f61e .LASF2141
C:\Users\CYMR90~1\AppData\Local\Temp\ccSIna8B.s:31370  .debug_str:000000000001f68e .LASF2142
C:\Users\CYMR90~1\AppData\Local\Temp\ccSIna8B.s:31926  .debug_str:000000000002188e .LASF2143
C:\Users\CYMR90~1\AppData\Local\Temp\ccSIna8B.s:28157  .debug_str:0000000000012949 .LASF2144
C:\Users\CYMR90~1\AppData\Local\Temp\ccSIna8B.s:24339  .debug_str:0000000000003455 .LASF2145
C:\Users\CYMR90~1\AppData\Local\Temp\ccSIna8B.s:23513  .debug_str:0000000000000148 .LASF2146
C:\Users\CYMR90~1\AppData\Local\Temp\ccSIna8B.s:27213  .debug_str:000000000000ed39 .LASF2147
C:\Users\CYMR90~1\AppData\Local\Temp\ccSIna8B.s:29390  .debug_str:0000000000017861 .LASF2148
C:\Users\CYMR90~1\AppData\Local\Temp\ccSIna8B.s:28841  .debug_str:0000000000015436 .LASF2149
C:\Users\CYMR90~1\AppData\Local\Temp\ccSIna8B.s:33402  .debug_str:0000000000027650 .LASF2150
C:\Users\CYMR90~1\AppData\Local\Temp\ccSIna8B.s:28421  .debug_str:0000000000013a89 .LASF2151
C:\Users\CYMR90~1\AppData\Local\Temp\ccSIna8B.s:26973  .debug_str:000000000000deb3 .LASF2152
C:\Users\CYMR90~1\AppData\Local\Temp\ccSIna8B.s:33968  .debug_str:0000000000029bf2 .LASF2153
C:\Users\CYMR90~1\AppData\Local\Temp\ccSIna8B.s:29161  .debug_str:0000000000016825 .LASF2154
C:\Users\CYMR90~1\AppData\Local\Temp\ccSIna8B.s:27011  .debug_str:000000000000e175 .LASF2155
C:\Users\CYMR90~1\AppData\Local\Temp\ccSIna8B.s:24411  .debug_str:000000000000392c .LASF2156
C:\Users\CYMR90~1\AppData\Local\Temp\ccSIna8B.s:33368  .debug_str:000000000002735a .LASF2157
C:\Users\CYMR90~1\AppData\Local\Temp\ccSIna8B.s:27817  .debug_str:000000000001132e .LASF2158
C:\Users\CYMR90~1\AppData\Local\Temp\ccSIna8B.s:29734  .debug_str:0000000000018d12 .LASF2159
C:\Users\CYMR90~1\AppData\Local\Temp\ccSIna8B.s:33172  .debug_str:000000000002671f .LASF2160
C:\Users\CYMR90~1\AppData\Local\Temp\ccSIna8B.s:25769  .debug_str:0000000000009142 .LASF2161
C:\Users\CYMR90~1\AppData\Local\Temp\ccSIna8B.s:34098  .debug_str:000000000002a332 .LASF2162
C:\Users\CYMR90~1\AppData\Local\Temp\ccSIna8B.s:34812  .debug_str:000000000002d037 .LASF2163
C:\Users\CYMR90~1\AppData\Local\Temp\ccSIna8B.s:24447  .debug_str:0000000000003b75 .LASF2164
C:\Users\CYMR90~1\AppData\Local\Temp\ccSIna8B.s:32428  .debug_str:0000000000023665 .LASF2165
C:\Users\CYMR90~1\AppData\Local\Temp\ccSIna8B.s:29816  .debug_str:0000000000019394 .LASF2166
C:\Users\CYMR90~1\AppData\Local\Temp\ccSIna8B.s:27351  .debug_str:000000000000f5c7 .LASF2167
C:\Users\CYMR90~1\AppData\Local\Temp\ccSIna8B.s:25623  .debug_str:00000000000087ad .LASF2168
C:\Users\CYMR90~1\AppData\Local\Temp\ccSIna8B.s:30916  .debug_str:000000000001db1a .LASF2169
C:\Users\CYMR90~1\AppData\Local\Temp\ccSIna8B.s:29107  .debug_str:000000000001648e .LASF2170
C:\Users\CYMR90~1\AppData\Local\Temp\ccSIna8B.s:27129  .debug_str:000000000000e800 .LASF2171
C:\Users\CYMR90~1\AppData\Local\Temp\ccSIna8B.s:27271  .debug_str:000000000000f0c5 .LASF2172
C:\Users\CYMR90~1\AppData\Local\Temp\ccSIna8B.s:31374  .debug_str:000000000001f6ba .LASF2173
C:\Users\CYMR90~1\AppData\Local\Temp\ccSIna8B.s:29045  .debug_str:000000000001608a .LASF2174
C:\Users\CYMR90~1\AppData\Local\Temp\ccSIna8B.s:28023  .debug_str:0000000000012047 .LASF2175
C:\Users\CYMR90~1\AppData\Local\Temp\ccSIna8B.s:31154  .debug_str:000000000001e9fb .LASF2176
C:\Users\CYMR90~1\AppData\Local\Temp\ccSIna8B.s:26345  .debug_str:000000000000b4c2 .LASF2177
C:\Users\CYMR90~1\AppData\Local\Temp\ccSIna8B.s:32076  .debug_str:00000000000221c3 .LASF2178
C:\Users\CYMR90~1\AppData\Local\Temp\ccSIna8B.s:26987  .debug_str:000000000000dfac .LASF2179
C:\Users\CYMR90~1\AppData\Local\Temp\ccSIna8B.s:25465  .debug_str:0000000000007ca3 .LASF2180
C:\Users\CYMR90~1\AppData\Local\Temp\ccSIna8B.s:33088  .debug_str:0000000000026245 .LASF2181
C:\Users\CYMR90~1\AppData\Local\Temp\ccSIna8B.s:27159  .debug_str:000000000000e9fe .LASF2182
C:\Users\CYMR90~1\AppData\Local\Temp\ccSIna8B.s:29081  .debug_str:000000000001630b .LASF2183
C:\Users\CYMR90~1\AppData\Local\Temp\ccSIna8B.s:24565  .debug_str:0000000000004353 .LASF2184
C:\Users\CYMR90~1\AppData\Local\Temp\ccSIna8B.s:27439  .debug_str:000000000000fc20 .LASF2185
C:\Users\CYMR90~1\AppData\Local\Temp\ccSIna8B.s:34362  .debug_str:000000000002b30d .LASF2186
C:\Users\CYMR90~1\AppData\Local\Temp\ccSIna8B.s:31164  .debug_str:000000000001ea9b .LASF2187
C:\Users\CYMR90~1\AppData\Local\Temp\ccSIna8B.s:25969  .debug_str:0000000000009d9c .LASF2188
C:\Users\CYMR90~1\AppData\Local\Temp\ccSIna8B.s:30154  .debug_str:000000000001aa88 .LASF2189
C:\Users\CYMR90~1\AppData\Local\Temp\ccSIna8B.s:24505  .debug_str:0000000000003ece .LASF2190
C:\Users\CYMR90~1\AppData\Local\Temp\ccSIna8B.s:27335  .debug_str:000000000000f49f .LASF2191
C:\Users\CYMR90~1\AppData\Local\Temp\ccSIna8B.s:31248  .debug_str:000000000001ef11 .LASF2192
C:\Users\CYMR90~1\AppData\Local\Temp\ccSIna8B.s:24427  .debug_str:0000000000003a27 .LASF2193
C:\Users\CYMR90~1\AppData\Local\Temp\ccSIna8B.s:27913  .debug_str:00000000000118f9 .LASF2194
C:\Users\CYMR90~1\AppData\Local\Temp\ccSIna8B.s:32630  .debug_str:0000000000024323 .LASF2195
C:\Users\CYMR90~1\AppData\Local\Temp\ccSIna8B.s:25413  .debug_str:0000000000007921 .LASF2196
C:\Users\CYMR90~1\AppData\Local\Temp\ccSIna8B.s:28771  .debug_str:0000000000014fe9 .LASF2197
C:\Users\CYMR90~1\AppData\Local\Temp\ccSIna8B.s:25693  .debug_str:0000000000008c2b .LASF2198
C:\Users\CYMR90~1\AppData\Local\Temp\ccSIna8B.s:31622  .debug_str:000000000002059f .LASF2199
C:\Users\CYMR90~1\AppData\Local\Temp\ccSIna8B.s:26211  .debug_str:000000000000abf1 .LASF2200
C:\Users\CYMR90~1\AppData\Local\Temp\ccSIna8B.s:32144  .debug_str:00000000000225c4 .LASF2201
C:\Users\CYMR90~1\AppData\Local\Temp\ccSIna8B.s:31458  .debug_str:000000000001fbb8 .LASF2202
C:\Users\CYMR90~1\AppData\Local\Temp\ccSIna8B.s:32644  .debug_str:0000000000024448 .LASF2203
C:\Users\CYMR90~1\AppData\Local\Temp\ccSIna8B.s:33238  .debug_str:0000000000026b59 .LASF2204
C:\Users\CYMR90~1\AppData\Local\Temp\ccSIna8B.s:33072  .debug_str:0000000000026110 .LASF2205
C:\Users\CYMR90~1\AppData\Local\Temp\ccSIna8B.s:32698  .debug_str:0000000000024769 .LASF2206
C:\Users\CYMR90~1\AppData\Local\Temp\ccSIna8B.s:31756  .debug_str:0000000000020e4f .LASF2207
C:\Users\CYMR90~1\AppData\Local\Temp\ccSIna8B.s:27619  .debug_str:0000000000010700 .LASF2208
C:\Users\CYMR90~1\AppData\Local\Temp\ccSIna8B.s:26879  .debug_str:000000000000d988 .LASF2209
C:\Users\CYMR90~1\AppData\Local\Temp\ccSIna8B.s:31602  .debug_str:000000000002044a .LASF2210
C:\Users\CYMR90~1\AppData\Local\Temp\ccSIna8B.s:26475  .debug_str:000000000000be1a .LASF2211
C:\Users\CYMR90~1\AppData\Local\Temp\ccSIna8B.s:25183  .debug_str:0000000000006a2e .LASF2212
C:\Users\CYMR90~1\AppData\Local\Temp\ccSIna8B.s:27805  .debug_str:0000000000011257 .LASF2213
C:\Users\CYMR90~1\AppData\Local\Temp\ccSIna8B.s:34628  .debug_str:000000000002c47b .LASF2214
C:\Users\CYMR90~1\AppData\Local\Temp\ccSIna8B.s:27217  .debug_str:000000000000ed77 .LASF2215
C:\Users\CYMR90~1\AppData\Local\Temp\ccSIna8B.s:26169  .debug_str:000000000000a950 .LASF2216
C:\Users\CYMR90~1\AppData\Local\Temp\ccSIna8B.s:30398  .debug_str:000000000001b9c0 .LASF2217
C:\Users\CYMR90~1\AppData\Local\Temp\ccSIna8B.s:29708  .debug_str:0000000000018ba7 .LASF2218
C:\Users\CYMR90~1\AppData\Local\Temp\ccSIna8B.s:34396  .debug_str:000000000002b4e7 .LASF2219
C:\Users\CYMR90~1\AppData\Local\Temp\ccSIna8B.s:30942  .debug_str:000000000001dc94 .LASF2220
C:\Users\CYMR90~1\AppData\Local\Temp\ccSIna8B.s:29794  .debug_str:0000000000019145 .LASF2221
C:\Users\CYMR90~1\AppData\Local\Temp\ccSIna8B.s:28193  .debug_str:0000000000012ba3 .LASF2222
C:\Users\CYMR90~1\AppData\Local\Temp\ccSIna8B.s:30438  .debug_str:000000000001bbc5 .LASF2223
C:\Users\CYMR90~1\AppData\Local\Temp\ccSIna8B.s:33064  .debug_str:00000000000260a2 .LASF2224
C:\Users\CYMR90~1\AppData\Local\Temp\ccSIna8B.s:23537  .debug_str:00000000000002c4 .LASF2225
C:\Users\CYMR90~1\AppData\Local\Temp\ccSIna8B.s:24639  .debug_str:000000000000484c .LASF2226
C:\Users\CYMR90~1\AppData\Local\Temp\ccSIna8B.s:29984  .debug_str:0000000000019e87 .LASF2227
C:\Users\CYMR90~1\AppData\Local\Temp\ccSIna8B.s:29250  .debug_str:000000000001701b .LASF2228
C:\Users\CYMR90~1\AppData\Local\Temp\ccSIna8B.s:30992  .debug_str:000000000001e029 .LASF2229
C:\Users\CYMR90~1\AppData\Local\Temp\ccSIna8B.s:24607  .debug_str:0000000000004619 .LASF2230
C:\Users\CYMR90~1\AppData\Local\Temp\ccSIna8B.s:31218  .debug_str:000000000001ed37 .LASF2231
C:\Users\CYMR90~1\AppData\Local\Temp\ccSIna8B.s:23921  .debug_str:00000000000019fb .LASF2232
C:\Users\CYMR90~1\AppData\Local\Temp\ccSIna8B.s:29972  .debug_str:0000000000019dde .LASF2233
C:\Users\CYMR90~1\AppData\Local\Temp\ccSIna8B.s:26651  .debug_str:000000000000c98c .LASF2234
C:\Users\CYMR90~1\AppData\Local\Temp\ccSIna8B.s:24845  .debug_str:0000000000005576 .LASF2235
C:\Users\CYMR90~1\AppData\Local\Temp\ccSIna8B.s:34582  .debug_str:000000000002c14e .LASF2236
C:\Users\CYMR90~1\AppData\Local\Temp\ccSIna8B.s:27133  .debug_str:000000000000e83b .LASF2237
C:\Users\CYMR90~1\AppData\Local\Temp\ccSIna8B.s:31878  .debug_str:00000000000215c1 .LASF2238
C:\Users\CYMR90~1\AppData\Local\Temp\ccSIna8B.s:30896  .debug_str:000000000001d9cf .LASF2239
C:\Users\CYMR90~1\AppData\Local\Temp\ccSIna8B.s:30830  .debug_str:000000000001d574 .LASF2240
C:\Users\CYMR90~1\AppData\Local\Temp\ccSIna8B.s:23975  .debug_str:0000000000001d3e .LASF2241
C:\Users\CYMR90~1\AppData\Local\Temp\ccSIna8B.s:31898  .debug_str:00000000000216f8 .LASF2242
C:\Users\CYMR90~1\AppData\Local\Temp\ccSIna8B.s:33448  .debug_str:00000000000278fa .LASF2243
C:\Users\CYMR90~1\AppData\Local\Temp\ccSIna8B.s:28043  .debug_str:0000000000012160 .LASF2244
C:\Users\CYMR90~1\AppData\Local\Temp\ccSIna8B.s:29264  .debug_str:00000000000170f5 .LASF2245
C:\Users\CYMR90~1\AppData\Local\Temp\ccSIna8B.s:26159  .debug_str:000000000000a88a .LASF2246
C:\Users\CYMR90~1\AppData\Local\Temp\ccSIna8B.s:28837  .debug_str:00000000000153ea .LASF2247
C:\Users\CYMR90~1\AppData\Local\Temp\ccSIna8B.s:24341  .debug_str:000000000000347c .LASF2248
C:\Users\CYMR90~1\AppData\Local\Temp\ccSIna8B.s:31242  .debug_str:000000000001eeb3 .LASF2249
C:\Users\CYMR90~1\AppData\Local\Temp\ccSIna8B.s:30370  .debug_str:000000000001b7e9 .LASF2250
C:\Users\CYMR90~1\AppData\Local\Temp\ccSIna8B.s:29426  .debug_str:0000000000017aa8 .LASF2251
C:\Users\CYMR90~1\AppData\Local\Temp\ccSIna8B.s:32652  .debug_str:00000000000244e1 .LASF2252
C:\Users\CYMR90~1\AppData\Local\Temp\ccSIna8B.s:28199  .debug_str:0000000000012c00 .LASF2253
C:\Users\CYMR90~1\AppData\Local\Temp\ccSIna8B.s:26935  .debug_str:000000000000dca1 .LASF2254
C:\Users\CYMR90~1\AppData\Local\Temp\ccSIna8B.s:25677  .debug_str:0000000000008b35 .LASF2255
C:\Users\CYMR90~1\AppData\Local\Temp\ccSIna8B.s:27595  .debug_str:00000000000105a6 .LASF2256
C:\Users\CYMR90~1\AppData\Local\Temp\ccSIna8B.s:30646  .debug_str:000000000001c840 .LASF2257
C:\Users\CYMR90~1\AppData\Local\Temp\ccSIna8B.s:27901  .debug_str:0000000000011832 .LASF2258
C:\Users\CYMR90~1\AppData\Local\Temp\ccSIna8B.s:28123  .debug_str:00000000000126c2 .LASF2259
C:\Users\CYMR90~1\AppData\Local\Temp\ccSIna8B.s:27801  .debug_str:0000000000011215 .LASF2260
C:\Users\CYMR90~1\AppData\Local\Temp\ccSIna8B.s:28889  .debug_str:00000000000156dd .LASF2261
C:\Users\CYMR90~1\AppData\Local\Temp\ccSIna8B.s:24035  .debug_str:000000000000207a .LASF2262
C:\Users\CYMR90~1\AppData\Local\Temp\ccSIna8B.s:27909  .debug_str:00000000000118c4 .LASF2263
C:\Users\CYMR90~1\AppData\Local\Temp\ccSIna8B.s:31012  .debug_str:000000000001e167 .LASF2264
C:\Users\CYMR90~1\AppData\Local\Temp\ccSIna8B.s:25863  .debug_str:000000000000967a .LASF2265
C:\Users\CYMR90~1\AppData\Local\Temp\ccSIna8B.s:27021  .debug_str:000000000000e1fa .LASF2266
C:\Users\CYMR90~1\AppData\Local\Temp\ccSIna8B.s:26357  .debug_str:000000000000b619 .LASF2267
C:\Users\CYMR90~1\AppData\Local\Temp\ccSIna8B.s:29434  .debug_str:0000000000017b50 .LASF2268
C:\Users\CYMR90~1\AppData\Local\Temp\ccSIna8B.s:34314  .debug_str:000000000002b001 .LASF2269
C:\Users\CYMR90~1\AppData\Local\Temp\ccSIna8B.s:24657  .debug_str:00000000000049f7 .LASF2270
C:\Users\CYMR90~1\AppData\Local\Temp\ccSIna8B.s:30524  .debug_str:000000000001c16b .LASF2271
C:\Users\CYMR90~1\AppData\Local\Temp\ccSIna8B.s:30918  .debug_str:000000000001db32 .LASF2272
C:\Users\CYMR90~1\AppData\Local\Temp\ccSIna8B.s:28725  .debug_str:0000000000014d0b .LASF2273
C:\Users\CYMR90~1\AppData\Local\Temp\ccSIna8B.s:33660  .debug_str:000000000002879c .LASF2274
C:\Users\CYMR90~1\AppData\Local\Temp\ccSIna8B.s:30276  .debug_str:000000000001b22b .LASF2275
C:\Users\CYMR90~1\AppData\Local\Temp\ccSIna8B.s:26941  .debug_str:000000000000dd0c .LASF2276
C:\Users\CYMR90~1\AppData\Local\Temp\ccSIna8B.s:24441  .debug_str:0000000000003b0f .LASF2277
C:\Users\CYMR90~1\AppData\Local\Temp\ccSIna8B.s:23711  .debug_str:0000000000000d46 .LASF2278
C:\Users\CYMR90~1\AppData\Local\Temp\ccSIna8B.s:33514  .debug_str:0000000000027d08 .LASF2279
C:\Users\CYMR90~1\AppData\Local\Temp\ccSIna8B.s:31882  .debug_str:00000000000215ff .LASF2280
C:\Users\CYMR90~1\AppData\Local\Temp\ccSIna8B.s:24849  .debug_str:00000000000055aa .LASF2281
C:\Users\CYMR90~1\AppData\Local\Temp\ccSIna8B.s:30006  .debug_str:0000000000019ff8 .LASF2282
C:\Users\CYMR90~1\AppData\Local\Temp\ccSIna8B.s:29316  .debug_str:0000000000017402 .LASF2283
C:\Users\CYMR90~1\AppData\Local\Temp\ccSIna8B.s:30706  .debug_str:000000000001cc8f .LASF2284
C:\Users\CYMR90~1\AppData\Local\Temp\ccSIna8B.s:30234  .debug_str:000000000001af44 .LASF2285
C:\Users\CYMR90~1\AppData\Local\Temp\ccSIna8B.s:33428  .debug_str:00000000000277e0 .LASF2286
C:\Users\CYMR90~1\AppData\Local\Temp\ccSIna8B.s:27807  .debug_str:000000000001127f .LASF2287
C:\Users\CYMR90~1\AppData\Local\Temp\ccSIna8B.s:32040  .debug_str:0000000000021fb5 .LASF2288
C:\Users\CYMR90~1\AppData\Local\Temp\ccSIna8B.s:33982  .debug_str:0000000000029c86 .LASF2289
C:\Users\CYMR90~1\AppData\Local\Temp\ccSIna8B.s:28015  .debug_str:0000000000011f9c .LASF2290
C:\Users\CYMR90~1\AppData\Local\Temp\ccSIna8B.s:34450  .debug_str:000000000002b8d9 .LASF2291
C:\Users\CYMR90~1\AppData\Local\Temp\ccSIna8B.s:31106  .debug_str:000000000001e6f9 .LASF2292
C:\Users\CYMR90~1\AppData\Local\Temp\ccSIna8B.s:24743  .debug_str:0000000000004f3c .LASF2293
C:\Users\CYMR90~1\AppData\Local\Temp\ccSIna8B.s:33842  .debug_str:0000000000029342 .LASF2294
C:\Users\CYMR90~1\AppData\Local\Temp\ccSIna8B.s:34412  .debug_str:000000000002b62b .LASF2295
C:\Users\CYMR90~1\AppData\Local\Temp\ccSIna8B.s:27003  .debug_str:000000000000e0de .LASF2296
C:\Users\CYMR90~1\AppData\Local\Temp\ccSIna8B.s:26977  .debug_str:000000000000dee9 .LASF2297
C:\Users\CYMR90~1\AppData\Local\Temp\ccSIna8B.s:26337  .debug_str:000000000000b43d .LASF2298
C:\Users\CYMR90~1\AppData\Local\Temp\ccSIna8B.s:28531  .debug_str:0000000000014132 .LASF2299
C:\Users\CYMR90~1\AppData\Local\Temp\ccSIna8B.s:33674  .debug_str:0000000000028891 .LASF2300
C:\Users\CYMR90~1\AppData\Local\Temp\ccSIna8B.s:27329  .debug_str:000000000000f438 .LASF2301
C:\Users\CYMR90~1\AppData\Local\Temp\ccSIna8B.s:30472  .debug_str:000000000001be0c .LASF2302
C:\Users\CYMR90~1\AppData\Local\Temp\ccSIna8B.s:32790  .debug_str:0000000000024dab .LASF2303
C:\Users\CYMR90~1\AppData\Local\Temp\ccSIna8B.s:26933  .debug_str:000000000000dc7a .LASF2304
C:\Users\CYMR90~1\AppData\Local\Temp\ccSIna8B.s:31930  .debug_str:00000000000218c9 .LASF2305
C:\Users\CYMR90~1\AppData\Local\Temp\ccSIna8B.s:23795  .debug_str:0000000000001296 .LASF2306
C:\Users\CYMR90~1\AppData\Local\Temp\ccSIna8B.s:30178  .debug_str:000000000001abe2 .LASF2307
C:\Users\CYMR90~1\AppData\Local\Temp\ccSIna8B.s:30666  .debug_str:000000000001ca1e .LASF2308
C:\Users\CYMR90~1\AppData\Local\Temp\ccSIna8B.s:24285  .debug_str:00000000000030ca .LASF2309
C:\Users\CYMR90~1\AppData\Local\Temp\ccSIna8B.s:33086  .debug_str:000000000002621c .LASF2310
C:\Users\CYMR90~1\AppData\Local\Temp\ccSIna8B.s:33918  .debug_str:000000000002987c .LASF2311
C:\Users\CYMR90~1\AppData\Local\Temp\ccSIna8B.s:28567  .debug_str:0000000000014379 .LASF2312
C:\Users\CYMR90~1\AppData\Local\Temp\ccSIna8B.s:33628  .debug_str:00000000000284f7 .LASF2313
C:\Users\CYMR90~1\AppData\Local\Temp\ccSIna8B.s:25371  .debug_str:0000000000007673 .LASF2314
C:\Users\CYMR90~1\AppData\Local\Temp\ccSIna8B.s:31706  .debug_str:0000000000020b1a .LASF2315
C:\Users\CYMR90~1\AppData\Local\Temp\ccSIna8B.s:25433  .debug_str:0000000000007a5e .LASF2316
C:\Users\CYMR90~1\AppData\Local\Temp\ccSIna8B.s:30490  .debug_str:000000000001bf27 .LASF2317
C:\Users\CYMR90~1\AppData\Local\Temp\ccSIna8B.s:33670  .debug_str:0000000000028850 .LASF2318
C:\Users\CYMR90~1\AppData\Local\Temp\ccSIna8B.s:27219  .debug_str:000000000000eda0 .LASF2319
C:\Users\CYMR90~1\AppData\Local\Temp\ccSIna8B.s:24669  .debug_str:0000000000004ab3 .LASF2320
C:\Users\CYMR90~1\AppData\Local\Temp\ccSIna8B.s:24207  .debug_str:0000000000002bb3 .LASF2321
C:\Users\CYMR90~1\AppData\Local\Temp\ccSIna8B.s:34902  .debug_str:000000000002d5e1 .LASF2322
C:\Users\CYMR90~1\AppData\Local\Temp\ccSIna8B.s:25045  .debug_str:00000000000061c0 .LASF2323
C:\Users\CYMR90~1\AppData\Local\Temp\ccSIna8B.s:28687  .debug_str:0000000000014acd .LASF2324
C:\Users\CYMR90~1\AppData\Local\Temp\ccSIna8B.s:34478  .debug_str:000000000002ba7c .LASF2325
C:\Users\CYMR90~1\AppData\Local\Temp\ccSIna8B.s:26137  .debug_str:000000000000a777 .LASF2326
C:\Users\CYMR90~1\AppData\Local\Temp\ccSIna8B.s:29668  .debug_str:000000000001893c .LASF2327
C:\Users\CYMR90~1\AppData\Local\Temp\ccSIna8B.s:24069  .debug_str:0000000000002276 .LASF2328
C:\Users\CYMR90~1\AppData\Local\Temp\ccSIna8B.s:28601  .debug_str:000000000001457d .LASF2329
C:\Users\CYMR90~1\AppData\Local\Temp\ccSIna8B.s:25427  .debug_str:0000000000007a11 .LASF2330
C:\Users\CYMR90~1\AppData\Local\Temp\ccSIna8B.s:26579  .debug_str:000000000000c4d0 .LASF2331
C:\Users\CYMR90~1\AppData\Local\Temp\ccSIna8B.s:27641  .debug_str:0000000000010850 .LASF2332
C:\Users\CYMR90~1\AppData\Local\Temp\ccSIna8B.s:31838  .debug_str:00000000000212ca .LASF2333
C:\Users\CYMR90~1\AppData\Local\Temp\ccSIna8B.s:33262  .debug_str:0000000000026cfc .LASF2334
C:\Users\CYMR90~1\AppData\Local\Temp\ccSIna8B.s:27655  .debug_str:0000000000010922 .LASF2335
C:\Users\CYMR90~1\AppData\Local\Temp\ccSIna8B.s:28055  .debug_str:0000000000012277 .LASF2336
C:\Users\CYMR90~1\AppData\Local\Temp\ccSIna8B.s:27107  .debug_str:000000000000e6a7 .LASF2337
C:\Users\CYMR90~1\AppData\Local\Temp\ccSIna8B.s:25059  .debug_str:00000000000062ad .LASF2338
C:\Users\CYMR90~1\AppData\Local\Temp\ccSIna8B.s:24115  .debug_str:000000000000251c .LASF2339
C:\Users\CYMR90~1\AppData\Local\Temp\ccSIna8B.s:30884  .debug_str:000000000001d906 .LASF2340
C:\Users\CYMR90~1\AppData\Local\Temp\ccSIna8B.s:33146  .debug_str:000000000002657f .LASF2341
C:\Users\CYMR90~1\AppData\Local\Temp\ccSIna8B.s:31486  .debug_str:000000000001fda1 .LASF2342
C:\Users\CYMR90~1\AppData\Local\Temp\ccSIna8B.s:31502  .debug_str:000000000001fe79 .LASF2343
C:\Users\CYMR90~1\AppData\Local\Temp\ccSIna8B.s:32546  .debug_str:0000000000023d79 .LASF2344
C:\Users\CYMR90~1\AppData\Local\Temp\ccSIna8B.s:33370  .debug_str:0000000000027370 .LASF2345
C:\Users\CYMR90~1\AppData\Local\Temp\ccSIna8B.s:30592  .debug_str:000000000001c548 .LASF2346
C:\Users\CYMR90~1\AppData\Local\Temp\ccSIna8B.s:30760  .debug_str:000000000001d0a7 .LASF2347
C:\Users\CYMR90~1\AppData\Local\Temp\ccSIna8B.s:25645  .debug_str:0000000000008903 .LASF2348
C:\Users\CYMR90~1\AppData\Local\Temp\ccSIna8B.s:28407  .debug_str:00000000000139d4 .LASF2349
C:\Users\CYMR90~1\AppData\Local\Temp\ccSIna8B.s:31982  .debug_str:0000000000021bf1 .LASF2350
C:\Users\CYMR90~1\AppData\Local\Temp\ccSIna8B.s:34278  .debug_str:000000000002ade8 .LASF2351
C:\Users\CYMR90~1\AppData\Local\Temp\ccSIna8B.s:32776  .debug_str:0000000000024cbc .LASF2352
C:\Users\CYMR90~1\AppData\Local\Temp\ccSIna8B.s:25209  .debug_str:0000000000006bbf .LASF2353
C:\Users\CYMR90~1\AppData\Local\Temp\ccSIna8B.s:27551  .debug_str:000000000001030f .LASF2354
C:\Users\CYMR90~1\AppData\Local\Temp\ccSIna8B.s:25155  .debug_str:000000000000682d .LASF2355
C:\Users\CYMR90~1\AppData\Local\Temp\ccSIna8B.s:34684  .debug_str:000000000002c881 .LASF2356
C:\Users\CYMR90~1\AppData\Local\Temp\ccSIna8B.s:27779  .debug_str:00000000000110ec .LASF2357
C:\Users\CYMR90~1\AppData\Local\Temp\ccSIna8B.s:26845  .debug_str:000000000000d755 .LASF2358
C:\Users\CYMR90~1\AppData\Local\Temp\ccSIna8B.s:25883  .debug_str:00000000000097f9 .LASF2359
C:\Users\CYMR90~1\AppData\Local\Temp\ccSIna8B.s:24433  .debug_str:0000000000003ab0 .LASF2360
C:\Users\CYMR90~1\AppData\Local\Temp\ccSIna8B.s:27561  .debug_str:00000000000103af .LASF2361
C:\Users\CYMR90~1\AppData\Local\Temp\ccSIna8B.s:26317  .debug_str:000000000000b348 .LASF2362
C:\Users\CYMR90~1\AppData\Local\Temp\ccSIna8B.s:25089  .debug_str:000000000000644f .LASF2363
C:\Users\CYMR90~1\AppData\Local\Temp\ccSIna8B.s:32552  .debug_str:0000000000023dc2 .LASF2364
C:\Users\CYMR90~1\AppData\Local\Temp\ccSIna8B.s:31716  .debug_str:0000000000020bc5 .LASF2365
C:\Users\CYMR90~1\AppData\Local\Temp\ccSIna8B.s:28117  .debug_str:0000000000012661 .LASF2366
C:\Users\CYMR90~1\AppData\Local\Temp\ccSIna8B.s:32812  .debug_str:0000000000024f61 .LASF2367
C:\Users\CYMR90~1\AppData\Local\Temp\ccSIna8B.s:33444  .debug_str:00000000000278cd .LASF2368
C:\Users\CYMR90~1\AppData\Local\Temp\ccSIna8B.s:25869  .debug_str:00000000000096d6 .LASF2369
C:\Users\CYMR90~1\AppData\Local\Temp\ccSIna8B.s:27211  .debug_str:000000000000ed14 .LASF2370
C:\Users\CYMR90~1\AppData\Local\Temp\ccSIna8B.s:25219  .debug_str:0000000000006c7c .LASF2371
C:\Users\CYMR90~1\AppData\Local\Temp\ccSIna8B.s:27615  .debug_str:00000000000106c7 .LASF2372
C:\Users\CYMR90~1\AppData\Local\Temp\ccSIna8B.s:34562  .debug_str:000000000002bfd4 .LASF2373
C:\Users\CYMR90~1\AppData\Local\Temp\ccSIna8B.s:33214  .debug_str:00000000000269f4 .LASF2374
C:\Users\CYMR90~1\AppData\Local\Temp\ccSIna8B.s:23651  .debug_str:000000000000096d .LASF2375
C:\Users\CYMR90~1\AppData\Local\Temp\ccSIna8B.s:28019  .debug_str:0000000000011ff1 .LASF2376
C:\Users\CYMR90~1\AppData\Local\Temp\ccSIna8B.s:31184  .debug_str:000000000001eb97 .LASF2377
C:\Users\CYMR90~1\AppData\Local\Temp\ccSIna8B.s:34510  .debug_str:000000000002bcd3 .LASF2378
C:\Users\CYMR90~1\AppData\Local\Temp\ccSIna8B.s:26319  .debug_str:000000000000b36d .LASF2379
C:\Users\CYMR90~1\AppData\Local\Temp\ccSIna8B.s:25265  .debug_str:0000000000006f64 .LASF2380
C:\Users\CYMR90~1\AppData\Local\Temp\ccSIna8B.s:32766  .debug_str:0000000000024c2b .LASF2381
C:\Users\CYMR90~1\AppData\Local\Temp\ccSIna8B.s:32508  .debug_str:0000000000023b80 .LASF2382
C:\Users\CYMR90~1\AppData\Local\Temp\ccSIna8B.s:27791  .debug_str:00000000000111b6 .LASF2383
C:\Users\CYMR90~1\AppData\Local\Temp\ccSIna8B.s:30960  .debug_str:000000000001ddb5 .LASF2384
C:\Users\CYMR90~1\AppData\Local\Temp\ccSIna8B.s:34248  .debug_str:000000000002ac4b .LASF2385
C:\Users\CYMR90~1\AppData\Local\Temp\ccSIna8B.s:23953  .debug_str:0000000000001be1 .LASF2386
C:\Users\CYMR90~1\AppData\Local\Temp\ccSIna8B.s:28695  .debug_str:0000000000014b27 .LASF2387
C:\Users\CYMR90~1\AppData\Local\Temp\ccSIna8B.s:33446  .debug_str:00000000000278df .LASF2388
C:\Users\CYMR90~1\AppData\Local\Temp\ccSIna8B.s:30332  .debug_str:000000000001b5bc .LASF2389
C:\Users\CYMR90~1\AppData\Local\Temp\ccSIna8B.s:31494  .debug_str:000000000001fe19 .LASF2390
C:\Users\CYMR90~1\AppData\Local\Temp\ccSIna8B.s:24821  .debug_str:00000000000053ee .LASF2391
C:\Users\CYMR90~1\AppData\Local\Temp\ccSIna8B.s:29592  .debug_str:00000000000184ab .LASF2392
C:\Users\CYMR90~1\AppData\Local\Temp\ccSIna8B.s:34348  .debug_str:000000000002b22e .LASF2393
C:\Users\CYMR90~1\AppData\Local\Temp\ccSIna8B.s:30448  .debug_str:000000000001bc78 .LASF2394
C:\Users\CYMR90~1\AppData\Local\Temp\ccSIna8B.s:33506  .debug_str:0000000000027c81 .LASF2395
C:\Users\CYMR90~1\AppData\Local\Temp\ccSIna8B.s:26857  .debug_str:000000000000d81e .LASF2396
C:\Users\CYMR90~1\AppData\Local\Temp\ccSIna8B.s:31550  .debug_str:0000000000020176 .LASF2397
C:\Users\CYMR90~1\AppData\Local\Temp\ccSIna8B.s:24871  .debug_str:00000000000056ba .LASF2398
C:\Users\CYMR90~1\AppData\Local\Temp\ccSIna8B.s:29646  .debug_str:00000000000187f1 .LASF2399
C:\Users\CYMR90~1\AppData\Local\Temp\ccSIna8B.s:34408  .debug_str:000000000002b5df .LASF2400
C:\Users\CYMR90~1\AppData\Local\Temp\ccSIna8B.s:34282  .debug_str:000000000002ae20 .LASF2401
C:\Users\CYMR90~1\AppData\Local\Temp\ccSIna8B.s:26111  .debug_str:000000000000a5fc .LASF2402
C:\Users\CYMR90~1\AppData\Local\Temp\ccSIna8B.s:29332  .debug_str:0000000000017502 .LASF2403
C:\Users\CYMR90~1\AppData\Local\Temp\ccSIna8B.s:32556  .debug_str:0000000000023df3 .LASF2404
C:\Users\CYMR90~1\AppData\Local\Temp\ccSIna8B.s:24463  .debug_str:0000000000003c51 .LASF2405
C:\Users\CYMR90~1\AppData\Local\Temp\ccSIna8B.s:27663  .debug_str:00000000000109c6 .LASF2406
C:\Users\CYMR90~1\AppData\Local\Temp\ccSIna8B.s:30856  .debug_str:000000000001d729 .LASF2407
C:\Users\CYMR90~1\AppData\Local\Temp\ccSIna8B.s:27869  .debug_str:0000000000011630 .LASF2408
C:\Users\CYMR90~1\AppData\Local\Temp\ccSIna8B.s:28457  .debug_str:0000000000013c90 .LASF2409
C:\Users\CYMR90~1\AppData\Local\Temp\ccSIna8B.s:26833  .debug_str:000000000000d690 .LASF2410
C:\Users\CYMR90~1\AppData\Local\Temp\ccSIna8B.s:30224  .debug_str:000000000001aea1 .LASF2411
C:\Users\CYMR90~1\AppData\Local\Temp\ccSIna8B.s:23531  .debug_str:0000000000000268 .LASF2412
C:\Users\CYMR90~1\AppData\Local\Temp\ccSIna8B.s:23545  .debug_str:000000000000036e .LASF2413
C:\Users\CYMR90~1\AppData\Local\Temp\ccSIna8B.s:32990  .debug_str:0000000000025bfc .LASF2414
C:\Users\CYMR90~1\AppData\Local\Temp\ccSIna8B.s:26353  .debug_str:000000000000b563 .LASF2415
C:\Users\CYMR90~1\AppData\Local\Temp\ccSIna8B.s:31030  .debug_str:000000000001e27a .LASF2416
C:\Users\CYMR90~1\AppData\Local\Temp\ccSIna8B.s:33484  .debug_str:0000000000027b06 .LASF2417
C:\Users\CYMR90~1\AppData\Local\Temp\ccSIna8B.s:29123  .debug_str:0000000000016563 .LASF2418
C:\Users\CYMR90~1\AppData\Local\Temp\ccSIna8B.s:31244  .debug_str:000000000001eee2 .LASF2419
C:\Users\CYMR90~1\AppData\Local\Temp\ccSIna8B.s:28321  .debug_str:000000000001340b .LASF2420
C:\Users\CYMR90~1\AppData\Local\Temp\ccSIna8B.s:33040  .debug_str:0000000000025f37 .LASF2421
C:\Users\CYMR90~1\AppData\Local\Temp\ccSIna8B.s:26395  .debug_str:000000000000b8b7 .LASF2422
C:\Users\CYMR90~1\AppData\Local\Temp\ccSIna8B.s:31080  .debug_str:000000000001e561 .LASF2423
C:\Users\CYMR90~1\AppData\Local\Temp\ccSIna8B.s:24429  .debug_str:0000000000003a65 .LASF2424
C:\Users\CYMR90~1\AppData\Local\Temp\ccSIna8B.s:29183  .debug_str:0000000000016969 .LASF2425
C:\Users\CYMR90~1\AppData\Local\Temp\ccSIna8B.s:26237  .debug_str:000000000000adac .LASF2426
C:\Users\CYMR90~1\AppData\Local\Temp\ccSIna8B.s:29358  .debug_str:000000000001766d .LASF2427
C:\Users\CYMR90~1\AppData\Local\Temp\ccSIna8B.s:32594  .debug_str:0000000000024047 .LASF2428
C:\Users\CYMR90~1\AppData\Local\Temp\ccSIna8B.s:24413  .debug_str:0000000000003942 .LASF2429
C:\Users\CYMR90~1\AppData\Local\Temp\ccSIna8B.s:27699  .debug_str:0000000000010bd0 .LASF2430
C:\Users\CYMR90~1\AppData\Local\Temp\ccSIna8B.s:27949  .debug_str:0000000000011bf0 .LASF2431
C:\Users\CYMR90~1\AppData\Local\Temp\ccSIna8B.s:34166  .debug_str:000000000002a712 .LASF2432
C:\Users\CYMR90~1\AppData\Local\Temp\ccSIna8B.s:24613  .debug_str:000000000000468a .LASF2433
C:\Users\CYMR90~1\AppData\Local\Temp\ccSIna8B.s:33412  .debug_str:00000000000276fc .LASF2434
C:\Users\CYMR90~1\AppData\Local\Temp\ccSIna8B.s:32358  .debug_str:000000000002329c .LASF2435
C:\Users\CYMR90~1\AppData\Local\Temp\ccSIna8B.s:33728  .debug_str:0000000000028c4a .LASF2436
C:\Users\CYMR90~1\AppData\Local\Temp\ccSIna8B.s:27077  .debug_str:000000000000e521 .LASF2437
C:\Users\CYMR90~1\AppData\Local\Temp\ccSIna8B.s:31776  .debug_str:0000000000020f73 .LASF2438
C:\Users\CYMR90~1\AppData\Local\Temp\ccSIna8B.s:25107  .debug_str:0000000000006580 .LASF2439
C:\Users\CYMR90~1\AppData\Local\Temp\ccSIna8B.s:29886  .debug_str:00000000000197c2 .LASF2440
C:\Users\CYMR90~1\AppData\Local\Temp\ccSIna8B.s:34630  .debug_str:000000000002c4a3 .LASF2441
C:\Users\CYMR90~1\AppData\Local\Temp\ccSIna8B.s:27957  .debug_str:0000000000011c5d .LASF2442
C:\Users\CYMR90~1\AppData\Local\Temp\ccSIna8B.s:32660  .debug_str:000000000002459a .LASF2443
C:\Users\CYMR90~1\AppData\Local\Temp\ccSIna8B.s:30736  .debug_str:000000000001ce93 .LASF2444
C:\Users\CYMR90~1\AppData\Local\Temp\ccSIna8B.s:31832  .debug_str:000000000002125f .LASF2445
C:\Users\CYMR90~1\AppData\Local\Temp\ccSIna8B.s:25159  .debug_str:0000000000006866 .LASF2446
C:\Users\CYMR90~1\AppData\Local\Temp\ccSIna8B.s:29936  .debug_str:0000000000019b8b .LASF2447
C:\Users\CYMR90~1\AppData\Local\Temp\ccSIna8B.s:34680  .debug_str:000000000002c842 .LASF2448
C:\Users\CYMR90~1\AppData\Local\Temp\ccSIna8B.s:28011  .debug_str:0000000000011f4e .LASF2449
C:\Users\CYMR90~1\AppData\Local\Temp\ccSIna8B.s:27929  .debug_str:0000000000011a14 .LASF2450
C:\Users\CYMR90~1\AppData\Local\Temp\ccSIna8B.s:31516  .debug_str:000000000001ff68 .LASF2451
C:\Users\CYMR90~1\AppData\Local\Temp\ccSIna8B.s:32830  .debug_str:0000000000025070 .LASF2452
C:\Users\CYMR90~1\AppData\Local\Temp\ccSIna8B.s:31152  .debug_str:000000000001e9e4 .LASF2453
C:\Users\CYMR90~1\AppData\Local\Temp\ccSIna8B.s:29556  .debug_str:000000000001826d .LASF2454
C:\Users\CYMR90~1\AppData\Local\Temp\ccSIna8B.s:32992  .debug_str:0000000000025c15 .LASF2455
C:\Users\CYMR90~1\AppData\Local\Temp\ccSIna8B.s:26297  .debug_str:000000000000b230 .LASF2456
C:\Users\CYMR90~1\AppData\Local\Temp\ccSIna8B.s:28089  .debug_str:00000000000124a9 .LASF2457
C:\Users\CYMR90~1\AppData\Local\Temp\ccSIna8B.s:31252  .debug_str:000000000001ef62 .LASF2458
C:\Users\CYMR90~1\AppData\Local\Temp\ccSIna8B.s:32758  .debug_str:0000000000024bca .LASF2459
C:\Users\CYMR90~1\AppData\Local\Temp\ccSIna8B.s:26301  .debug_str:000000000000b26d .LASF2460
C:\Users\CYMR90~1\AppData\Local\Temp\ccSIna8B.s:32396  .debug_str:000000000002347a .LASF2461
C:\Users\CYMR90~1\AppData\Local\Temp\ccSIna8B.s:34506  .debug_str:000000000002bc43 .LASF2462
C:\Users\CYMR90~1\AppData\Local\Temp\ccSIna8B.s:30748  .debug_str:000000000001cffd .LASF2463
C:\Users\CYMR90~1\AppData\Local\Temp\ccSIna8B.s:24075  .debug_str:00000000000022c2 .LASF2464
C:\Users\CYMR90~1\AppData\Local\Temp\ccSIna8B.s:28815  .debug_str:00000000000152ae .LASF2465
C:\Users\CYMR90~1\AppData\Local\Temp\ccSIna8B.s:33578  .debug_str:000000000002817e .LASF2466
C:\Users\CYMR90~1\AppData\Local\Temp\ccSIna8B.s:26925  .debug_str:000000000000dc11 .LASF2467
C:\Users\CYMR90~1\AppData\Local\Temp\ccSIna8B.s:31618  .debug_str:000000000002057a .LASF2468
C:\Users\CYMR90~1\AppData\Local\Temp\ccSIna8B.s:29720  .debug_str:0000000000018c4f .LASF2469
C:\Users\CYMR90~1\AppData\Local\Temp\ccSIna8B.s:24491  .debug_str:0000000000003e2a .LASF2470
C:\Users\CYMR90~1\AppData\Local\Temp\ccSIna8B.s:24129  .debug_str:0000000000002627 .LASF2471
C:\Users\CYMR90~1\AppData\Local\Temp\ccSIna8B.s:28377  .debug_str:00000000000137e6 .LASF2472
C:\Users\CYMR90~1\AppData\Local\Temp\ccSIna8B.s:24557  .debug_str:00000000000042f0 .LASF2473
C:\Users\CYMR90~1\AppData\Local\Temp\ccSIna8B.s:26981  .debug_str:000000000000df3a .LASF2474
C:\Users\CYMR90~1\AppData\Local\Temp\ccSIna8B.s:31676  .debug_str:000000000002092b .LASF2475
C:\Users\CYMR90~1\AppData\Local\Temp\ccSIna8B.s:33860  .debug_str:0000000000029464 .LASF2476
C:\Users\CYMR90~1\AppData\Local\Temp\ccSIna8B.s:24271  .debug_str:0000000000002fbe .LASF2477
C:\Users\CYMR90~1\AppData\Local\Temp\ccSIna8B.s:28901  .debug_str:0000000000015748 .LASF2478
C:\Users\CYMR90~1\AppData\Local\Temp\ccSIna8B.s:33618  .debug_str:0000000000028475 .LASF2479
C:\Users\CYMR90~1\AppData\Local\Temp\ccSIna8B.s:31950  .debug_str:0000000000021a4e .LASF2480
C:\Users\CYMR90~1\AppData\Local\Temp\ccSIna8B.s:30336  .debug_str:000000000001b5fd .LASF2481
C:\Users\CYMR90~1\AppData\Local\Temp\ccSIna8B.s:30454  .debug_str:000000000001bcc3 .LASF2482
C:\Users\CYMR90~1\AppData\Local\Temp\ccSIna8B.s:33702  .debug_str:0000000000028abc .LASF2483
C:\Users\CYMR90~1\AppData\Local\Temp\ccSIna8B.s:25523  .debug_str:00000000000080f6 .LASF2484
C:\Users\CYMR90~1\AppData\Local\Temp\ccSIna8B.s:28669  .debug_str:00000000000149c7 .LASF2485
C:\Users\CYMR90~1\AppData\Local\Temp\ccSIna8B.s:28381  .debug_str:0000000000013813 .LASF2486
C:\Users\CYMR90~1\AppData\Local\Temp\ccSIna8B.s:33100  .debug_str:00000000000262fa .LASF2487
C:\Users\CYMR90~1\AppData\Local\Temp\ccSIna8B.s:26447  .debug_str:000000000000bbee .LASF2488
C:\Users\CYMR90~1\AppData\Local\Temp\ccSIna8B.s:31130  .debug_str:000000000001e841 .LASF2489
C:\Users\CYMR90~1\AppData\Local\Temp\ccSIna8B.s:24481  .debug_str:0000000000003d97 .LASF2490
C:\Users\CYMR90~1\AppData\Local\Temp\ccSIna8B.s:29246  .debug_str:0000000000016fd6 .LASF2491
C:\Users\CYMR90~1\AppData\Local\Temp\ccSIna8B.s:34000  .debug_str:0000000000029d8e .LASF2492
C:\Users\CYMR90~1\AppData\Local\Temp\ccSIna8B.s:33962  .debug_str:0000000000029b76 .LASF2493
C:\Users\CYMR90~1\AppData\Local\Temp\ccSIna8B.s:25377  .debug_str:00000000000076d4 .LASF2494
C:\Users\CYMR90~1\AppData\Local\Temp\ccSIna8B.s:26497  .debug_str:000000000000bfc1 .LASF2495
C:\Users\CYMR90~1\AppData\Local\Temp\ccSIna8B.s:31174  .debug_str:000000000001eb22 .LASF2496
C:\Users\CYMR90~1\AppData\Local\Temp\ccSIna8B.s:24529  .debug_str:00000000000040b9 .LASF2497
C:\Users\CYMR90~1\AppData\Local\Temp\ccSIna8B.s:23923  .debug_str:0000000000001a1c .LASF2498
C:\Users\CYMR90~1\AppData\Local\Temp\ccSIna8B.s:34052  .debug_str:000000000002a0ab .LASF2499
C:\Users\CYMR90~1\AppData\Local\Temp\ccSIna8B.s:27399  .debug_str:000000000000f904 .LASF2500
C:\Users\CYMR90~1\AppData\Local\Temp\ccSIna8B.s:27123  .debug_str:000000000000e79e .LASF2501
C:\Users\CYMR90~1\AppData\Local\Temp\ccSIna8B.s:30346  .debug_str:000000000001b6ab .LASF2502
C:\Users\CYMR90~1\AppData\Local\Temp\ccSIna8B.s:33588  .debug_str:0000000000028225 .LASF2503
C:\Users\CYMR90~1\AppData\Local\Temp\ccSIna8B.s:25395  .debug_str:0000000000007811 .LASF2504
C:\Users\CYMR90~1\AppData\Local\Temp\ccSIna8B.s:28555  .debug_str:00000000000142a4 .LASF2505
C:\Users\CYMR90~1\AppData\Local\Temp\ccSIna8B.s:31774  .debug_str:0000000000020f60 .LASF2506
C:\Users\CYMR90~1\AppData\Local\Temp\ccSIna8B.s:33986  .debug_str:0000000000029ccb .LASF2507
C:\Users\CYMR90~1\AppData\Local\Temp\ccSIna8B.s:26885  .debug_str:000000000000d9d0 .LASF2508
C:\Users\CYMR90~1\AppData\Local\Temp\ccSIna8B.s:30128  .debug_str:000000000001a86c .LASF2509
C:\Users\CYMR90~1\AppData\Local\Temp\ccSIna8B.s:33338  .debug_str:00000000000271cb .LASF2510
C:\Users\CYMR90~1\AppData\Local\Temp\ccSIna8B.s:33672  .debug_str:000000000002887c .LASF2511
C:\Users\CYMR90~1\AppData\Local\Temp\ccSIna8B.s:27023  .debug_str:000000000000e21a .LASF2512
C:\Users\CYMR90~1\AppData\Local\Temp\ccSIna8B.s:31720  .debug_str:0000000000020bf4 .LASF2513
C:\Users\CYMR90~1\AppData\Local\Temp\ccSIna8B.s:25037  .debug_str:0000000000006129 .LASF2514
C:\Users\CYMR90~1\AppData\Local\Temp\ccSIna8B.s:29822  .debug_str:00000000000193fb .LASF2515
C:\Users\CYMR90~1\AppData\Local\Temp\ccSIna8B.s:30596  .debug_str:000000000001c584 .LASF2516
C:\Users\CYMR90~1\AppData\Local\Temp\ccSIna8B.s:27899  .debug_str:000000000001181d .LASF2517
C:\Users\CYMR90~1\AppData\Local\Temp\ccSIna8B.s:32604  .debug_str:00000000000240b7 .LASF2518
C:\Users\CYMR90~1\AppData\Local\Temp\ccSIna8B.s:30684  .debug_str:000000000001cb67 .LASF2519
C:\Users\CYMR90~1\AppData\Local\Temp\ccSIna8B.s:31866  .debug_str:0000000000021466 .LASF2520
C:\Users\CYMR90~1\AppData\Local\Temp\ccSIna8B.s:25189  .debug_str:0000000000006a8d .LASF2521
C:\Users\CYMR90~1\AppData\Local\Temp\ccSIna8B.s:29962  .debug_str:0000000000019d51 .LASF2522
C:\Users\CYMR90~1\AppData\Local\Temp\ccSIna8B.s:34712  .debug_str:000000000002ca0b .LASF2523
C:\Users\CYMR90~1\AppData\Local\Temp\ccSIna8B.s:28035  .debug_str:00000000000120e5 .LASF2524
C:\Users\CYMR90~1\AppData\Local\Temp\ccSIna8B.s:32740  .debug_str:0000000000024a41 .LASF2525
C:\Users\CYMR90~1\AppData\Local\Temp\ccSIna8B.s:28233  .debug_str:0000000000012e2e .LASF2526
C:\Users\CYMR90~1\AppData\Local\Temp\ccSIna8B.s:24365  .debug_str:0000000000003613 .LASF2527
C:\Users\CYMR90~1\AppData\Local\Temp\ccSIna8B.s:29616  .debug_str:0000000000018619 .LASF2528
C:\Users\CYMR90~1\AppData\Local\Temp\ccSIna8B.s:25943  .debug_str:0000000000009beb .LASF2529
C:\Users\CYMR90~1\AppData\Local\Temp\ccSIna8B.s:24697  .debug_str:0000000000004c8a .LASF2530
C:\Users\CYMR90~1\AppData\Local\Temp\ccSIna8B.s:33060  .debug_str:000000000002605f .LASF2531
C:\Users\CYMR90~1\AppData\Local\Temp\ccSIna8B.s:29025  .debug_str:0000000000015f08 .LASF2532
C:\Users\CYMR90~1\AppData\Local\Temp\ccSIna8B.s:28785  .debug_str:0000000000015108 .LASF2533
C:\Users\CYMR90~1\AppData\Local\Temp\ccSIna8B.s:29167  .debug_str:0000000000016872 .LASF2534
C:\Users\CYMR90~1\AppData\Local\Temp\ccSIna8B.s:26005  .debug_str:0000000000009f93 .LASF2535
C:\Users\CYMR90~1\AppData\Local\Temp\ccSIna8B.s:32714  .debug_str:000000000002487c .LASF2536
C:\Users\CYMR90~1\AppData\Local\Temp\ccSIna8B.s:33810  .debug_str:000000000002912b .LASF2537
C:\Users\CYMR90~1\AppData\Local\Temp\ccSIna8B.s:23613  .debug_str:0000000000000733 .LASF2538
C:\Users\CYMR90~1\AppData\Local\Temp\ccSIna8B.s:25417  .debug_str:0000000000007969 .LASF2539
C:\Users\CYMR90~1\AppData\Local\Temp\ccSIna8B.s:24407  .debug_str:00000000000038ef .LASF2540
C:\Users\CYMR90~1\AppData\Local\Temp\ccSIna8B.s:32954  .debug_str:0000000000025927 .LASF2541
C:\Users\CYMR90~1\AppData\Local\Temp\ccSIna8B.s:28037  .debug_str:00000000000120fa .LASF2542
C:\Users\CYMR90~1\AppData\Local\Temp\ccSIna8B.s:26795  .debug_str:000000000000d38d .LASF2543
C:\Users\CYMR90~1\AppData\Local\Temp\ccSIna8B.s:31450  .debug_str:000000000001fb30 .LASF2544
C:\Users\CYMR90~1\AppData\Local\Temp\ccSIna8B.s:30564  .debug_str:000000000001c3ce .LASF2545
C:\Users\CYMR90~1\AppData\Local\Temp\ccSIna8B.s:24455  .debug_str:0000000000003bd2 .LASF2546
C:\Users\CYMR90~1\AppData\Local\Temp\ccSIna8B.s:33108  .debug_str:000000000002638a .LASF2547
C:\Users\CYMR90~1\AppData\Local\Temp\ccSIna8B.s:26767  .debug_str:000000000000d1a7 .LASF2548
C:\Users\CYMR90~1\AppData\Local\Temp\ccSIna8B.s:25845  .debug_str:000000000000956e .LASF2549
C:\Users\CYMR90~1\AppData\Local\Temp\ccSIna8B.s:24791  .debug_str:0000000000005210 .LASF2550
C:\Users\CYMR90~1\AppData\Local\Temp\ccSIna8B.s:33454  .debug_str:000000000002795f .LASF2551
C:\Users\CYMR90~1\AppData\Local\Temp\ccSIna8B.s:33760  .debug_str:0000000000028e62 .LASF2552
C:\Users\CYMR90~1\AppData\Local\Temp\ccSIna8B.s:27897  .debug_str:00000000000117fb .LASF2553
C:\Users\CYMR90~1\AppData\Local\Temp\ccSIna8B.s:31814  .debug_str:0000000000021170 .LASF2554
C:\Users\CYMR90~1\AppData\Local\Temp\ccSIna8B.s:28947  .debug_str:00000000000159e9 .LASF2555
C:\Users\CYMR90~1\AppData\Local\Temp\ccSIna8B.s:29514  .debug_str:000000000001800a .LASF2556
C:\Users\CYMR90~1\AppData\Local\Temp\ccSIna8B.s:28359  .debug_str:00000000000136af .LASF2557
C:\Users\CYMR90~1\AppData\Local\Temp\ccSIna8B.s:28843  .debug_str:000000000001545c .LASF2558
C:\Users\CYMR90~1\AppData\Local\Temp\ccSIna8B.s:27555  .debug_str:000000000001034e .LASF2559
C:\Users\CYMR90~1\AppData\Local\Temp\ccSIna8B.s:27845  .debug_str:00000000000114c3 .LASF2560
C:\Users\CYMR90~1\AppData\Local\Temp\ccSIna8B.s:26929  .debug_str:000000000000dc3f .LASF2561
C:\Users\CYMR90~1\AppData\Local\Temp\ccSIna8B.s:25923  .debug_str:0000000000009a49 .LASF2562
C:\Users\CYMR90~1\AppData\Local\Temp\ccSIna8B.s:34470  .debug_str:000000000002ba0d .LASF2563
C:\Users\CYMR90~1\AppData\Local\Temp\ccSIna8B.s:27575  .debug_str:000000000001048f .LASF2564
C:\Users\CYMR90~1\AppData\Local\Temp\ccSIna8B.s:33804  .debug_str:00000000000290ce .LASF2565
C:\Users\CYMR90~1\AppData\Local\Temp\ccSIna8B.s:32496  .debug_str:0000000000023ab9 .LASF2566
C:\Users\CYMR90~1\AppData\Local\Temp\ccSIna8B.s:29340  .debug_str:0000000000017571 .LASF2567
C:\Users\CYMR90~1\AppData\Local\Temp\ccSIna8B.s:28965  .debug_str:0000000000015b1f .LASF2568
C:\Users\CYMR90~1\AppData\Local\Temp\ccSIna8B.s:29093  .debug_str:00000000000163c6 .LASF2569
C:\Users\CYMR90~1\AppData\Local\Temp\ccSIna8B.s:33476  .debug_str:0000000000027a9b .LASF2570
C:\Users\CYMR90~1\AppData\Local\Temp\ccSIna8B.s:26783  .debug_str:000000000000d2bc .LASF2571
C:\Users\CYMR90~1\AppData\Local\Temp\ccSIna8B.s:31222  .debug_str:000000000001ed81 .LASF2572
C:\Users\CYMR90~1\AppData\Local\Temp\ccSIna8B.s:25315  .debug_str:00000000000072c0 .LASF2573
C:\Users\CYMR90~1\AppData\Local\Temp\ccSIna8B.s:23759  .debug_str:0000000000001079 .LASF2574
C:\Users\CYMR90~1\AppData\Local\Temp\ccSIna8B.s:30214  .debug_str:000000000001ae0d .LASF2575
C:\Users\CYMR90~1\AppData\Local\Temp\ccSIna8B.s:26591  .debug_str:000000000000c57d .LASF2576
C:\Users\CYMR90~1\AppData\Local\Temp\ccSIna8B.s:29071  .debug_str:000000000001626b .LASF2577
C:\Users\CYMR90~1\AppData\Local\Temp\ccSIna8B.s:26495  .debug_str:000000000000bfa9 .LASF2578
C:\Users\CYMR90~1\AppData\Local\Temp\ccSIna8B.s:26629  .debug_str:000000000000c7c7 .LASF2579
C:\Users\CYMR90~1\AppData\Local\Temp\ccSIna8B.s:30604  .debug_str:000000000001c5e3 .LASF2580
C:\Users\CYMR90~1\AppData\Local\Temp\ccSIna8B.s:24733  .debug_str:0000000000004ea0 .LASF2581
C:\Users\CYMR90~1\AppData\Local\Temp\ccSIna8B.s:30460  .debug_str:000000000001bd1a .LASF2582
C:\Users\CYMR90~1\AppData\Local\Temp\ccSIna8B.s:28951  .debug_str:0000000000015a52 .LASF2583
C:\Users\CYMR90~1\AppData\Local\Temp\ccSIna8B.s:33948  .debug_str:0000000000029a9c .LASF2584
C:\Users\CYMR90~1\AppData\Local\Temp\ccSIna8B.s:32106  .debug_str:000000000002239e .LASF2585
C:\Users\CYMR90~1\AppData\Local\Temp\ccSIna8B.s:24703  .debug_str:0000000000004cec .LASF2586
C:\Users\CYMR90~1\AppData\Local\Temp\ccSIna8B.s:31842  .debug_str:00000000000212ff .LASF2587
C:\Users\CYMR90~1\AppData\Local\Temp\ccSIna8B.s:34228  .debug_str:000000000002ab06 .LASF2588
C:\Users\CYMR90~1\AppData\Local\Temp\ccSIna8B.s:23709  .debug_str:0000000000000d26 .LASF2589
C:\Users\CYMR90~1\AppData\Local\Temp\ccSIna8B.s:25437  .debug_str:0000000000007ab0 .LASF2590
C:\Users\CYMR90~1\AppData\Local\Temp\ccSIna8B.s:25919  .debug_str:0000000000009a0f .LASF2591
C:\Users\CYMR90~1\AppData\Local\Temp\ccSIna8B.s:28213  .debug_str:0000000000012cfa .LASF2592
C:\Users\CYMR90~1\AppData\Local\Temp\ccSIna8B.s:25977  .debug_str:0000000000009e12 .LASF2593
C:\Users\CYMR90~1\AppData\Local\Temp\ccSIna8B.s:24493  .debug_str:0000000000003e43 .LASF2594
C:\Users\CYMR90~1\AppData\Local\Temp\ccSIna8B.s:30470  .debug_str:000000000001bdea .LASF2595
C:\Users\CYMR90~1\AppData\Local\Temp\ccSIna8B.s:29608  .debug_str:00000000000185b1 .LASF2596
C:\Users\CYMR90~1\AppData\Local\Temp\ccSIna8B.s:26039  .debug_str:000000000000a1c0 .LASF2597
C:\Users\CYMR90~1\AppData\Local\Temp\ccSIna8B.s:34804  .debug_str:000000000002cfce .LASF2598
C:\Users\CYMR90~1\AppData\Local\Temp\ccSIna8B.s:23949  .debug_str:0000000000001ba7 .LASF2599
C:\Users\CYMR90~1\AppData\Local\Temp\ccSIna8B.s:28467  .debug_str:0000000000013d35 .LASF2600
C:\Users\CYMR90~1\AppData\Local\Temp\ccSIna8B.s:32082  .debug_str:000000000002221e .LASF2601
C:\Users\CYMR90~1\AppData\Local\Temp\ccSIna8B.s:34580  .debug_str:000000000002c130 .LASF2602
C:\Users\CYMR90~1\AppData\Local\Temp\ccSIna8B.s:27905  .debug_str:0000000000011890 .LASF2603
C:\Users\CYMR90~1\AppData\Local\Temp\ccSIna8B.s:27235  .debug_str:000000000000ef02 .LASF2604
C:\Users\CYMR90~1\AppData\Local\Temp\ccSIna8B.s:30732  .debug_str:000000000001ce61 .LASF2605
C:\Users\CYMR90~1\AppData\Local\Temp\ccSIna8B.s:29998  .debug_str:0000000000019f72 .LASF2606
C:\Users\CYMR90~1\AppData\Local\Temp\ccSIna8B.s:24751  .debug_str:0000000000004fbe .LASF2607
C:\Users\CYMR90~1\AppData\Local\Temp\ccSIna8B.s:24663  .debug_str:0000000000004a62 .LASF2608
C:\Users\CYMR90~1\AppData\Local\Temp\ccSIna8B.s:34842  .debug_str:000000000002d277 .LASF2609
C:\Users\CYMR90~1\AppData\Local\Temp\ccSIna8B.s:31350  .debug_str:000000000001f559 .LASF2610
C:\Users\CYMR90~1\AppData\Local\Temp\ccSIna8B.s:25595  .debug_str:000000000000862c .LASF2611
C:\Users\CYMR90~1\AppData\Local\Temp\ccSIna8B.s:25583  .debug_str:000000000000858b .LASF2612
C:\Users\CYMR90~1\AppData\Local\Temp\ccSIna8B.s:32998  .debug_str:0000000000025c6f .LASF2613
C:\Users\CYMR90~1\AppData\Local\Temp\ccSIna8B.s:27859  .debug_str:00000000000115a1 .LASF2614
C:\Users\CYMR90~1\AppData\Local\Temp\ccSIna8B.s:29091  .debug_str:00000000000163a2 .LASF2615
C:\Users\CYMR90~1\AppData\Local\Temp\ccSIna8B.s:30416  .debug_str:000000000001badc .LASF2616
C:\Users\CYMR90~1\AppData\Local\Temp\ccSIna8B.s:33734  .debug_str:0000000000028cd9 .LASF2617
C:\Users\CYMR90~1\AppData\Local\Temp\ccSIna8B.s:31956  .debug_str:0000000000021a9d .LASF2618
C:\Users\CYMR90~1\AppData\Local\Temp\ccSIna8B.s:30964  .debug_str:000000000001dde0 .LASF2619
C:\Users\CYMR90~1\AppData\Local\Temp\ccSIna8B.s:24523  .debug_str:000000000000405b .LASF2620
C:\Users\CYMR90~1\AppData\Local\Temp\ccSIna8B.s:29047  .debug_str:00000000000160a8 .LASF2621
C:\Users\CYMR90~1\AppData\Local\Temp\ccSIna8B.s:33872  .debug_str:0000000000029539 .LASF2622
C:\Users\CYMR90~1\AppData\Local\Temp\ccSIna8B.s:32344  .debug_str:00000000000231df .LASF2623
C:\Users\CYMR90~1\AppData\Local\Temp\ccSIna8B.s:28879  .debug_str:000000000001564f .LASF2624
C:\Users\CYMR90~1\AppData\Local\Temp\ccSIna8B.s:24591  .debug_str:0000000000004507 .LASF2625
C:\Users\CYMR90~1\AppData\Local\Temp\ccSIna8B.s:24297  .debug_str:0000000000003171 .LASF2626
C:\Users\CYMR90~1\AppData\Local\Temp\ccSIna8B.s:25847  .debug_str:0000000000009590 .LASF2627
C:\Users\CYMR90~1\AppData\Local\Temp\ccSIna8B.s:23705  .debug_str:0000000000000cef .LASF2628
C:\Users\CYMR90~1\AppData\Local\Temp\ccSIna8B.s:27019  .debug_str:000000000000e1dc .LASF2629
C:\Users\CYMR90~1\AppData\Local\Temp\ccSIna8B.s:25651  .debug_str:0000000000008965 .LASF2630
C:\Users\CYMR90~1\AppData\Local\Temp\ccSIna8B.s:23995  .debug_str:0000000000001e61 .LASF2631
C:\Users\CYMR90~1\AppData\Local\Temp\ccSIna8B.s:26461  .debug_str:000000000000bcce .LASF2632
C:\Users\CYMR90~1\AppData\Local\Temp\ccSIna8B.s:23813  .debug_str:0000000000001394 .LASF2633
C:\Users\CYMR90~1\AppData\Local\Temp\ccSIna8B.s:30100  .debug_str:000000000001a71a .LASF2634
C:\Users\CYMR90~1\AppData\Local\Temp\ccSIna8B.s:29884  .debug_str:00000000000197b1 .LASF2635
C:\Users\CYMR90~1\AppData\Local\Temp\ccSIna8B.s:28387  .debug_str:0000000000013880 .LASF2636
C:\Users\CYMR90~1\AppData\Local\Temp\ccSIna8B.s:33640  .debug_str:000000000002864f .LASF2637
C:\Users\CYMR90~1\AppData\Local\Temp\ccSIna8B.s:30810  .debug_str:000000000001d448 .LASF2638
C:\Users\CYMR90~1\AppData\Local\Temp\ccSIna8B.s:30142  .debug_str:000000000001a959 .LASF2639
C:\Users\CYMR90~1\AppData\Local\Temp\ccSIna8B.s:30778  .debug_str:000000000001d25f .LASF2640
C:\Users\CYMR90~1\AppData\Local\Temp\ccSIna8B.s:29276  .debug_str:00000000000171bc .LASF2641
C:\Users\CYMR90~1\AppData\Local\Temp\ccSIna8B.s:33224  .debug_str:0000000000026a93 .LASF2642
C:\Users\CYMR90~1\AppData\Local\Temp\ccSIna8B.s:28325  .debug_str:000000000001343c .LASF2643
C:\Users\CYMR90~1\AppData\Local\Temp\ccSIna8B.s:23571  .debug_str:00000000000004fb .LASF2644
C:\Users\CYMR90~1\AppData\Local\Temp\ccSIna8B.s:24059  .debug_str:00000000000021c7 .LASF2645
C:\Users\CYMR90~1\AppData\Local\Temp\ccSIna8B.s:28909  .debug_str:00000000000157b8 .LASF2646
C:\Users\CYMR90~1\AppData\Local\Temp\ccSIna8B.s:23691  .debug_str:0000000000000c2e .LASF2647
C:\Users\CYMR90~1\AppData\Local\Temp\ccSIna8B.s:30872  .debug_str:000000000001d867 .LASF2648
C:\Users\CYMR90~1\AppData\Local\Temp\ccSIna8B.s:26173  .debug_str:000000000000a9a1 .LASF2649
C:\Users\CYMR90~1\AppData\Local\Temp\ccSIna8B.s:32788  .debug_str:0000000000024d85 .LASF2650
C:\Users\CYMR90~1\AppData\Local\Temp\ccSIna8B.s:24853  .debug_str:00000000000055d9 .LASF2651
C:\Users\CYMR90~1\AppData\Local\Temp\ccSIna8B.s:24457  .debug_str:0000000000003bf4 .LASF2652
C:\Users\CYMR90~1\AppData\Local\Temp\ccSIna8B.s:28595  .debug_str:0000000000014525 .LASF2653
C:\Users\CYMR90~1\AppData\Local\Temp\ccSIna8B.s:26535  .debug_str:000000000000c24c .LASF2654
C:\Users\CYMR90~1\AppData\Local\Temp\ccSIna8B.s:31338  .debug_str:000000000001f49e .LASF2655
C:\Users\CYMR90~1\AppData\Local\Temp\ccSIna8B.s:33032  .debug_str:0000000000025eb3 .LASF2656
C:\Users\CYMR90~1\AppData\Local\Temp\ccSIna8B.s:32246  .debug_str:0000000000022bf3 .LASF2657
C:\Users\CYMR90~1\AppData\Local\Temp\ccSIna8B.s:34788  .debug_str:000000000002cef8 .LASF2658
C:\Users\CYMR90~1\AppData\Local\Temp\ccSIna8B.s:24977  .debug_str:0000000000005d9e .LASF2659
C:\Users\CYMR90~1\AppData\Local\Temp\ccSIna8B.s:30126  .debug_str:000000000001a84e .LASF2660
C:\Users\CYMR90~1\AppData\Local\Temp\ccSIna8B.s:26259  .debug_str:000000000000af21 .LASF2661
C:\Users\CYMR90~1\AppData\Local\Temp\ccSIna8B.s:32932  .debug_str:0000000000025768 .LASF2662
C:\Users\CYMR90~1\AppData\Local\Temp\ccSIna8B.s:24245  .debug_str:0000000000002e23 .LASF2663
C:\Users\CYMR90~1\AppData\Local\Temp\ccSIna8B.s:34666  .debug_str:000000000002c717 .LASF2664
C:\Users\CYMR90~1\AppData\Local\Temp\ccSIna8B.s:23851  .debug_str:00000000000015ae .LASF2665
C:\Users\CYMR90~1\AppData\Local\Temp\ccSIna8B.s:32112  .debug_str:00000000000223f5 .LASF2666
C:\Users\CYMR90~1\AppData\Local\Temp\ccSIna8B.s:32122  .debug_str:000000000002249b .LASF2667
C:\Users\CYMR90~1\AppData\Local\Temp\ccSIna8B.s:28489  .debug_str:0000000000013ea6 .LASF2668
C:\Users\CYMR90~1\AppData\Local\Temp\ccSIna8B.s:28277  .debug_str:0000000000013119 .LASF2669
C:\Users\CYMR90~1\AppData\Local\Temp\ccSIna8B.s:31136  .debug_str:000000000001e8b7 .LASF2670
C:\Users\CYMR90~1\AppData\Local\Temp\ccSIna8B.s:26385  .debug_str:000000000000b7fc .LASF2671
C:\Users\CYMR90~1\AppData\Local\Temp\ccSIna8B.s:25245  .debug_str:0000000000006e0c .LASF2672
C:\Users\CYMR90~1\AppData\Local\Temp\ccSIna8B.s:31448  .debug_str:000000000001fb02 .LASF2673
C:\Users\CYMR90~1\AppData\Local\Temp\ccSIna8B.s:34008  .debug_str:0000000000029df5 .LASF2674
C:\Users\CYMR90~1\AppData\Local\Temp\ccSIna8B.s:31714  .debug_str:0000000000020b95 .LASF2675
C:\Users\CYMR90~1\AppData\Local\Temp\ccSIna8B.s:30792  .debug_str:000000000001d328 .LASF2676
C:\Users\CYMR90~1\AppData\Local\Temp\ccSIna8B.s:30038  .debug_str:000000000001a1ab .LASF2677
C:\Users\CYMR90~1\AppData\Local\Temp\ccSIna8B.s:26931  .debug_str:000000000000dc62 .LASF2678
C:\Users\CYMR90~1\AppData\Local\Temp\ccSIna8B.s:30304  .debug_str:000000000001b406 .LASF2679
C:\Users\CYMR90~1\AppData\Local\Temp\ccSIna8B.s:34388  .debug_str:000000000002b479 .LASF2680
C:\Users\CYMR90~1\AppData\Local\Temp\ccSIna8B.s:24763  .debug_str:000000000000506e .LASF2681
C:\Users\CYMR90~1\AppData\Local\Temp\ccSIna8B.s:25407  .debug_str:00000000000078cd .LASF2682
C:\Users\CYMR90~1\AppData\Local\Temp\ccSIna8B.s:33820  .debug_str:0000000000029204 .LASF2683
C:\Users\CYMR90~1\AppData\Local\Temp\ccSIna8B.s:24675  .debug_str:0000000000004b13 .LASF2684
C:\Users\CYMR90~1\AppData\Local\Temp\ccSIna8B.s:32864  .debug_str:000000000002522c .LASF2685
C:\Users\CYMR90~1\AppData\Local\Temp\ccSIna8B.s:26775  .debug_str:000000000000d21d .LASF2686
C:\Users\CYMR90~1\AppData\Local\Temp\ccSIna8B.s:32014  .debug_str:0000000000021e03 .LASF2687
C:\Users\CYMR90~1\AppData\Local\Temp\ccSIna8B.s:32262  .debug_str:0000000000022cdb .LASF2688
C:\Users\CYMR90~1\AppData\Local\Temp\ccSIna8B.s:30676  .debug_str:000000000001cad7 .LASF2689
C:\Users\CYMR90~1\AppData\Local\Temp\ccSIna8B.s:24439  .debug_str:0000000000003af4 .LASF2690
C:\Users\CYMR90~1\AppData\Local\Temp\ccSIna8B.s:29762  .debug_str:0000000000018f64 .LASF2691
C:\Users\CYMR90~1\AppData\Local\Temp\ccSIna8B.s:23627  .debug_str:00000000000007fb .LASF2692
C:\Users\CYMR90~1\AppData\Local\Temp\ccSIna8B.s:31542  .debug_str:0000000000020114 .LASF2693
C:\Users\CYMR90~1\AppData\Local\Temp\ccSIna8B.s:33722  .debug_str:0000000000028bf7 .LASF2694
C:\Users\CYMR90~1\AppData\Local\Temp\ccSIna8B.s:25551  .debug_str:000000000000834d .LASF2695
C:\Users\CYMR90~1\AppData\Local\Temp\ccSIna8B.s:23581  .debug_str:0000000000000578 .LASF2696
C:\Users\CYMR90~1\AppData\Local\Temp\ccSIna8B.s:32010  .debug_str:0000000000021dc7 .LASF2697
C:\Users\CYMR90~1\AppData\Local\Temp\ccSIna8B.s:23761  .debug_str:000000000000108b .LASF2698
C:\Users\CYMR90~1\AppData\Local\Temp\ccSIna8B.s:27031  .debug_str:000000000000e28b .LASF2699
C:\Users\CYMR90~1\AppData\Local\Temp\ccSIna8B.s:30272  .debug_str:000000000001b1f1 .LASF2700
C:\Users\CYMR90~1\AppData\Local\Temp\ccSIna8B.s:33478  .debug_str:0000000000027aae .LASF2701
C:\Users\CYMR90~1\AppData\Local\Temp\ccSIna8B.s:25293  .debug_str:0000000000007133 .LASF2702
C:\Users\CYMR90~1\AppData\Local\Temp\ccSIna8B.s:28547  .debug_str:0000000000014215 .LASF2703
C:\Users\CYMR90~1\AppData\Local\Temp\ccSIna8B.s:24971  .debug_str:0000000000005d4e .LASF2704
C:\Users\CYMR90~1\AppData\Local\Temp\ccSIna8B.s:29756  .debug_str:0000000000018f07 .LASF2705
C:\Users\CYMR90~1\AppData\Local\Temp\ccSIna8B.s:34516  .debug_str:000000000002bd2c .LASF2706
C:\Users\CYMR90~1\AppData\Local\Temp\ccSIna8B.s:27837  .debug_str:000000000001144b .LASF2707
C:\Users\CYMR90~1\AppData\Local\Temp\ccSIna8B.s:32532  .debug_str:0000000000023cd0 .LASF2708
C:\Users\CYMR90~1\AppData\Local\Temp\ccSIna8B.s:25897  .debug_str:00000000000098d0 .LASF2709
C:\Users\CYMR90~1\AppData\Local\Temp\ccSIna8B.s:26271  .debug_str:000000000000b09f .LASF2710
C:\Users\CYMR90~1\AppData\Local\Temp\ccSIna8B.s:26939  .debug_str:000000000000dcf2 .LASF2711
C:\Users\CYMR90~1\AppData\Local\Temp\ccSIna8B.s:32256  .debug_str:0000000000022c75 .LASF2712
C:\Users\CYMR90~1\AppData\Local\Temp\ccSIna8B.s:29484  .debug_str:0000000000017e48 .LASF2713
C:\Users\CYMR90~1\AppData\Local\Temp\ccSIna8B.s:24683  .debug_str:0000000000004b99 .LASF2714
C:\Users\CYMR90~1\AppData\Local\Temp\ccSIna8B.s:26143  .debug_str:000000000000a7cc .LASF2715
C:\Users\CYMR90~1\AppData\Local\Temp\ccSIna8B.s:31368  .debug_str:000000000001f672 .LASF2716
C:\Users\CYMR90~1\AppData\Local\Temp\ccSIna8B.s:25261  .debug_str:0000000000006f2f .LASF2717
C:\Users\CYMR90~1\AppData\Local\Temp\ccSIna8B.s:30474  .debug_str:000000000001be37 .LASF2718
C:\Users\CYMR90~1\AppData\Local\Temp\ccSIna8B.s:26627  .debug_str:000000000000c7ab .LASF2719
C:\Users\CYMR90~1\AppData\Local\Temp\ccSIna8B.s:26369  .debug_str:000000000000b6cb .LASF2720
C:\Users\CYMR90~1\AppData\Local\Temp\ccSIna8B.s:31614  .debug_str:000000000002053c .LASF2721
C:\Users\CYMR90~1\AppData\Local\Temp\ccSIna8B.s:25505  .debug_str:0000000000007faf .LASF2722
C:\Users\CYMR90~1\AppData\Local\Temp\ccSIna8B.s:30700  .debug_str:000000000001cc45 .LASF2723
C:\Users\CYMR90~1\AppData\Local\Temp\ccSIna8B.s:24551  .debug_str:0000000000004296 .LASF2724
C:\Users\CYMR90~1\AppData\Local\Temp\ccSIna8B.s:32510  .debug_str:0000000000023b99 .LASF2725
C:\Users\CYMR90~1\AppData\Local\Temp\ccSIna8B.s:29788  .debug_str:00000000000190f1 .LASF2726
C:\Users\CYMR90~1\AppData\Local\Temp\ccSIna8B.s:24021  .debug_str:0000000000001fc7 .LASF2727
C:\Users\CYMR90~1\AppData\Local\Temp\ccSIna8B.s:24371  .debug_str:000000000000365c .LASF2728
C:\Users\CYMR90~1\AppData\Local\Temp\ccSIna8B.s:33002  .debug_str:0000000000025ccd .LASF2729
C:\Users\CYMR90~1\AppData\Local\Temp\ccSIna8B.s:30330  .debug_str:000000000001b5a4 .LASF2730
C:\Users\CYMR90~1\AppData\Local\Temp\ccSIna8B.s:29472  .debug_str:0000000000017daa .LASF2731
C:\Users\CYMR90~1\AppData\Local\Temp\ccSIna8B.s:28543  .debug_str:00000000000141e1 .LASF2732
C:\Users\CYMR90~1\AppData\Local\Temp\ccSIna8B.s:28545  .debug_str:00000000000141fb .LASF2733
C:\Users\CYMR90~1\AppData\Local\Temp\ccSIna8B.s:33844  .debug_str:000000000002936b .LASF2734
C:\Users\CYMR90~1\AppData\Local\Temp\ccSIna8B.s:27637  .debug_str:000000000001081b .LASF2735
C:\Users\CYMR90~1\AppData\Local\Temp\ccSIna8B.s:30230  .debug_str:000000000001af0c .LASF2736
C:\Users\CYMR90~1\AppData\Local\Temp\ccSIna8B.s:24053  .debug_str:000000000000217c .LASF2737
C:\Users\CYMR90~1\AppData\Local\Temp\ccSIna8B.s:29268  .debug_str:000000000001714d .LASF2738
C:\Users\CYMR90~1\AppData\Local\Temp\ccSIna8B.s:28577  .debug_str:0000000000014414 .LASF2739
C:\Users\CYMR90~1\AppData\Local\Temp\ccSIna8B.s:28343  .debug_str:000000000001353e .LASF2740
C:\Users\CYMR90~1\AppData\Local\Temp\ccSIna8B.s:27239  .debug_str:000000000000ef33 .LASF2741
C:\Users\CYMR90~1\AppData\Local\Temp\ccSIna8B.s:34390  .debug_str:000000000002b491 .LASF2742
C:\Users\CYMR90~1\AppData\Local\Temp\ccSIna8B.s:26213  .debug_str:000000000000ac15 .LASF2743
C:\Users\CYMR90~1\AppData\Local\Temp\ccSIna8B.s:29430  .debug_str:0000000000017b19 .LASF2744
C:\Users\CYMR90~1\AppData\Local\Temp\ccSIna8B.s:32656  .debug_str:0000000000024533 .LASF2745
C:\Users\CYMR90~1\AppData\Local\Temp\ccSIna8B.s:24479  .debug_str:0000000000003d7e .LASF2746
C:\Users\CYMR90~1\AppData\Local\Temp\ccSIna8B.s:27769  .debug_str:0000000000011065 .LASF2747
C:\Users\CYMR90~1\AppData\Local\Temp\ccSIna8B.s:30944  .debug_str:000000000001dcba .LASF2748
C:\Users\CYMR90~1\AppData\Local\Temp\ccSIna8B.s:34136  .debug_str:000000000002a562 .LASF2749
C:\Users\CYMR90~1\AppData\Local\Temp\ccSIna8B.s:25973  .debug_str:0000000000009ddd .LASF2750
C:\Users\CYMR90~1\AppData\Local\Temp\ccSIna8B.s:29185  .debug_str:0000000000016982 .LASF2751
C:\Users\CYMR90~1\AppData\Local\Temp\ccSIna8B.s:31176  .debug_str:000000000001eb3d .LASF2752
C:\Users\CYMR90~1\AppData\Local\Temp\ccSIna8B.s:24531  .debug_str:00000000000040d4 .LASF2753
C:\Users\CYMR90~1\AppData\Local\Temp\ccSIna8B.s:29302  .debug_str:0000000000017334 .LASF2754
C:\Users\CYMR90~1\AppData\Local\Temp\ccSIna8B.s:34054  .debug_str:000000000002a0c6 .LASF2755
C:\Users\CYMR90~1\AppData\Local\Temp\ccSIna8B.s:27401  .debug_str:000000000000f91f .LASF2756
C:\Users\CYMR90~1\AppData\Local\Temp\ccSIna8B.s:32100  .debug_str:0000000000022354 .LASF2757
C:\Users\CYMR90~1\AppData\Local\Temp\ccSIna8B.s:25423  .debug_str:00000000000079da .LASF2758
C:\Users\CYMR90~1\AppData\Local\Temp\ccSIna8B.s:28671  .debug_str:00000000000149e0 .LASF2759
C:\Users\CYMR90~1\AppData\Local\Temp\ccSIna8B.s:31802  .debug_str:00000000000210d4 .LASF2760
C:\Users\CYMR90~1\AppData\Local\Temp\ccSIna8B.s:23659  .debug_str:00000000000009dd .LASF2761
C:\Users\CYMR90~1\AppData\Local\Temp\ccSIna8B.s:26921  .debug_str:000000000000dbda .LASF2762
C:\Users\CYMR90~1\AppData\Local\Temp\ccSIna8B.s:30160  .debug_str:000000000001aad9 .LASF2763
C:\Users\CYMR90~1\AppData\Local\Temp\ccSIna8B.s:23713  .debug_str:0000000000000d64 .LASF2764
C:\Users\CYMR90~1\AppData\Local\Temp\ccSIna8B.s:25177  .debug_str:00000000000069da .LASF2765
C:\Users\CYMR90~1\AppData\Local\Temp\ccSIna8B.s:28445  .debug_str:0000000000013bea .LASF2766
C:\Users\CYMR90~1\AppData\Local\Temp\ccSIna8B.s:31662  .debug_str:0000000000020878 .LASF2767
C:\Users\CYMR90~1\AppData\Local\Temp\ccSIna8B.s:28979  .debug_str:0000000000015be6 .LASF2768
C:\Users\CYMR90~1\AppData\Local\Temp\ccSIna8B.s:33740  .debug_str:0000000000028d24 .LASF2769
C:\Users\CYMR90~1\AppData\Local\Temp\ccSIna8B.s:27089  .debug_str:000000000000e5c3 .LASF2770
C:\Users\CYMR90~1\AppData\Local\Temp\ccSIna8B.s:25115  .debug_str:00000000000065ea .LASF2771
C:\Users\CYMR90~1\AppData\Local\Temp\ccSIna8B.s:29896  .debug_str:000000000001985d .LASF2772
C:\Users\CYMR90~1\AppData\Local\Temp\ccSIna8B.s:28399  .debug_str:0000000000013940 .LASF2773
C:\Users\CYMR90~1\AppData\Local\Temp\ccSIna8B.s:31604  .debug_str:0000000000020473 .LASF2774
C:\Users\CYMR90~1\AppData\Local\Temp\ccSIna8B.s:34886  .debug_str:000000000002d4f4 .LASF2775
C:\Users\CYMR90~1\AppData\Local\Temp\ccSIna8B.s:30566  .debug_str:000000000001c3f0 .LASF2776
C:\Users\CYMR90~1\AppData\Local\Temp\ccSIna8B.s:32640  .debug_str:0000000000024411 .LASF2777
C:\Users\CYMR90~1\AppData\Local\Temp\ccSIna8B.s:33074  .debug_str:0000000000026134 .LASF2778
C:\Users\CYMR90~1\AppData\Local\Temp\ccSIna8B.s:26927  .debug_str:000000000000dc2a .LASF2779
C:\Users\CYMR90~1\AppData\Local\Temp\ccSIna8B.s:28169  .debug_str:0000000000012a07 .LASF2780
C:\Users\CYMR90~1\AppData\Local\Temp\ccSIna8B.s:31340  .debug_str:000000000001f4c3 .LASF2781
C:\Users\CYMR90~1\AppData\Local\Temp\ccSIna8B.s:34646  .debug_str:000000000002c5dd .LASF2782
C:\Users\CYMR90~1\AppData\Local\Temp\ccSIna8B.s:32102  .debug_str:000000000002236f .LASF2783
C:\Users\CYMR90~1\AppData\Local\Temp\ccSIna8B.s:25513  .debug_str:0000000000008055 .LASF2784
C:\Users\CYMR90~1\AppData\Local\Temp\ccSIna8B.s:24453  .debug_str:0000000000003bbb .LASF2785
C:\Users\CYMR90~1\AppData\Local\Temp\ccSIna8B.s:29209  .debug_str:0000000000016b4d .LASF2786
C:\Users\CYMR90~1\AppData\Local\Temp\ccSIna8B.s:33972  .debug_str:0000000000029c1f .LASF2787
C:\Users\CYMR90~1\AppData\Local\Temp\ccSIna8B.s:27319  .debug_str:000000000000f389 .LASF2788
C:\Users\CYMR90~1\AppData\Local\Temp\ccSIna8B.s:29175  .debug_str:00000000000168fd .LASF2789
C:\Users\CYMR90~1\AppData\Local\Temp\ccSIna8B.s:33938  .debug_str:00000000000299c2 .LASF2790
C:\Users\CYMR90~1\AppData\Local\Temp\ccSIna8B.s:27293  .debug_str:000000000000f21e .LASF2791
C:\Users\CYMR90~1\AppData\Local\Temp\ccSIna8B.s:31986  .debug_str:0000000000021c23 .LASF2792
C:\Users\CYMR90~1\AppData\Local\Temp\ccSIna8B.s:28455  .debug_str:0000000000013c7b .LASF2793
C:\Users\CYMR90~1\AppData\Local\Temp\ccSIna8B.s:24629  .debug_str:000000000000479b .LASF2794
C:\Users\CYMR90~1\AppData\Local\Temp\ccSIna8B.s:28705  .debug_str:0000000000014bab .LASF2795
C:\Users\CYMR90~1\AppData\Local\Temp\ccSIna8B.s:28509  .debug_str:0000000000013fbf .LASF2796
C:\Users\CYMR90~1\AppData\Local\Temp\ccSIna8B.s:26815  .debug_str:000000000000d51b .LASF2797
C:\Users\CYMR90~1\AppData\Local\Temp\ccSIna8B.s:31506  .debug_str:000000000001feaf .LASF2798
C:\Users\CYMR90~1\AppData\Local\Temp\ccSIna8B.s:26433  .debug_str:000000000000bb39 .LASF2799
C:\Users\CYMR90~1\AppData\Local\Temp\ccSIna8B.s:31122  .debug_str:000000000001e7b3 .LASF2800
C:\Users\CYMR90~1\AppData\Local\Temp\ccSIna8B.s:24469  .debug_str:0000000000003cb3 .LASF2801
C:\Users\CYMR90~1\AppData\Local\Temp\ccSIna8B.s:29225  .debug_str:0000000000016cf2 .LASF2802
C:\Users\CYMR90~1\AppData\Local\Temp\ccSIna8B.s:25813  .debug_str:00000000000093a0 .LASF2803
C:\Users\CYMR90~1\AppData\Local\Temp\ccSIna8B.s:32610  .debug_str:0000000000024117 .LASF2804
C:\Users\CYMR90~1\AppData\Local\Temp\ccSIna8B.s:23971  .debug_str:0000000000001cff .LASF2805
C:\Users\CYMR90~1\AppData\Local\Temp\ccSIna8B.s:27261  .debug_str:000000000000f04e .LASF2806
C:\Users\CYMR90~1\AppData\Local\Temp\ccSIna8B.s:33416  .debug_str:0000000000027735 .LASF2807
C:\Users\CYMR90~1\AppData\Local\Temp\ccSIna8B.s:33712  .debug_str:0000000000028b63 .LASF2808
C:\Users\CYMR90~1\AppData\Local\Temp\ccSIna8B.s:25431  .debug_str:0000000000007a49 .LASF2809
C:\Users\CYMR90~1\AppData\Local\Temp\ccSIna8B.s:28677  .debug_str:0000000000014a27 .LASF2810
C:\Users\CYMR90~1\AppData\Local\Temp\ccSIna8B.s:25983  .debug_str:0000000000009e59 .LASF2811
C:\Users\CYMR90~1\AppData\Local\Temp\ccSIna8B.s:23749  .debug_str:0000000000000ff1 .LASF2812
C:\Users\CYMR90~1\AppData\Local\Temp\ccSIna8B.s:27015  .debug_str:000000000000e1b0 .LASF2813
C:\Users\CYMR90~1\AppData\Local\Temp\ccSIna8B.s:25529  .debug_str:0000000000008171 .LASF2814
C:\Users\CYMR90~1\AppData\Local\Temp\ccSIna8B.s:29532  .debug_str:0000000000018149 .LASF2815
C:\Users\CYMR90~1\AppData\Local\Temp\ccSIna8B.s:34298  .debug_str:000000000002af35 .LASF2816
C:\Users\CYMR90~1\AppData\Local\Temp\ccSIna8B.s:27635  .debug_str:0000000000010804 .LASF2817
C:\Users\CYMR90~1\AppData\Local\Temp\ccSIna8B.s:32342  .debug_str:00000000000231c8 .LASF2818
C:\Users\CYMR90~1\AppData\Local\Temp\ccSIna8B.s:32966  .debug_str:00000000000259f5 .LASF2819
C:\Users\CYMR90~1\AppData\Local\Temp\ccSIna8B.s:30426  .debug_str:000000000001bb44 .LASF2820
C:\Users\CYMR90~1\AppData\Local\Temp\ccSIna8B.s:27823  .debug_str:0000000000011373 .LASF2821
C:\Users\CYMR90~1\AppData\Local\Temp\ccSIna8B.s:34160  .debug_str:000000000002a6a6 .LASF2822
C:\Users\CYMR90~1\AppData\Local\Temp\ccSIna8B.s:25205  .debug_str:0000000000006b89 .LASF2823
C:\Users\CYMR90~1\AppData\Local\Temp\ccSIna8B.s:25625  .debug_str:00000000000087c4 .LASF2824
C:\Users\CYMR90~1\AppData\Local\Temp\ccSIna8B.s:26601  .debug_str:000000000000c615 .LASF2825
C:\Users\CYMR90~1\AppData\Local\Temp\ccSIna8B.s:34178  .debug_str:000000000002a7c2 .LASF2826
C:\Users\CYMR90~1\AppData\Local\Temp\ccSIna8B.s:24381  .debug_str:000000000000370f .LASF2827
C:\Users\CYMR90~1\AppData\Local\Temp\ccSIna8B.s:29366  .debug_str:00000000000176d7 .LASF2828
C:\Users\CYMR90~1\AppData\Local\Temp\ccSIna8B.s:24739  .debug_str:0000000000004f0c .LASF2829
C:\Users\CYMR90~1\AppData\Local\Temp\ccSIna8B.s:28163  .debug_str:00000000000129a4 .LASF2830
C:\Users\CYMR90~1\AppData\Local\Temp\ccSIna8B.s:24785  .debug_str:00000000000051c3 .LASF2831
C:\Users\CYMR90~1\AppData\Local\Temp\ccSIna8B.s:31672  .debug_str:00000000000208f7 .LASF2832
C:\Users\CYMR90~1\AppData\Local\Temp\ccSIna8B.s:28441  .debug_str:0000000000013bc4 .LASF2833
C:\Users\CYMR90~1\AppData\Local\Temp\ccSIna8B.s:27229  .debug_str:000000000000ee5e .LASF2834
C:\Users\CYMR90~1\AppData\Local\Temp\ccSIna8B.s:26263  .debug_str:000000000000af76 .LASF2835
C:\Users\CYMR90~1\AppData\Local\Temp\ccSIna8B.s:23811  .debug_str:0000000000001376 .LASF2836
C:\Users\CYMR90~1\AppData\Local\Temp\ccSIna8B.s:26639  .debug_str:000000000000c86d .LASF2837
C:\Users\CYMR90~1\AppData\Local\Temp\ccSIna8B.s:28449  .debug_str:0000000000013c25 .LASF2838
C:\Users\CYMR90~1\AppData\Local\Temp\ccSIna8B.s:31668  .debug_str:00000000000208c8 .LASF2839
C:\Users\CYMR90~1\AppData\Local\Temp\ccSIna8B.s:23525  .debug_str:0000000000000231 .LASF2840
C:\Users\CYMR90~1\AppData\Local\Temp\ccSIna8B.s:26773  .debug_str:000000000000d20a .LASF2841
C:\Users\CYMR90~1\AppData\Local\Temp\ccSIna8B.s:26265  .debug_str:000000000000af94 .LASF2842
C:\Users\CYMR90~1\AppData\Local\Temp\ccSIna8B.s:23721  .debug_str:0000000000000de7 .LASF2843
C:\Users\CYMR90~1\AppData\Local\Temp\ccSIna8B.s:30586  .debug_str:000000000001c4e6 .LASF2844
C:\Users\CYMR90~1\AppData\Local\Temp\ccSIna8B.s:31830  .debug_str:000000000002124c .LASF2845
C:\Users\CYMR90~1\AppData\Local\Temp\ccSIna8B.s:30238  .debug_str:000000000001af90 .LASF2846
C:\Users\CYMR90~1\AppData\Local\Temp\ccSIna8B.s:34704  .debug_str:000000000002c9a5 .LASF2847
C:\Users\CYMR90~1\AppData\Local\Temp\ccSIna8B.s:23845  .debug_str:0000000000001578 .LASF2848
C:\Users\CYMR90~1\AppData\Local\Temp\ccSIna8B.s:28587  .debug_str:00000000000144b5 .LASF2849
C:\Users\CYMR90~1\AppData\Local\Temp\ccSIna8B.s:26755  .debug_str:000000000000d0e5 .LASF2850
C:\Users\CYMR90~1\AppData\Local\Temp\ccSIna8B.s:34382  .debug_str:000000000002b417 .LASF2851
C:\Users\CYMR90~1\AppData\Local\Temp\ccSIna8B.s:30570  .debug_str:000000000001c41e .LASF2852
C:\Users\CYMR90~1\AppData\Local\Temp\ccSIna8B.s:26823  .debug_str:000000000000d573 .LASF2853
C:\Users\CYMR90~1\AppData\Local\Temp\ccSIna8B.s:32138  .debug_str:000000000002256f .LASF2854
C:\Users\CYMR90~1\AppData\Local\Temp\ccSIna8B.s:23955  .debug_str:0000000000001bfc .LASF2855
C:\Users\CYMR90~1\AppData\Local\Temp\ccSIna8B.s:27245  .debug_str:000000000000ef7e .LASF2856
C:\Users\CYMR90~1\AppData\Local\Temp\ccSIna8B.s:30450  .debug_str:000000000001bc93 .LASF2857
C:\Users\CYMR90~1\AppData\Local\Temp\ccSIna8B.s:33610  .debug_str:00000000000283ed .LASF2858
C:\Users\CYMR90~1\AppData\Local\Temp\ccSIna8B.s:27167  .debug_str:000000000000ea81 .LASF2859
C:\Users\CYMR90~1\AppData\Local\Temp\ccSIna8B.s:28665  .debug_str:0000000000014990 .LASF2860
C:\Users\CYMR90~1\AppData\Local\Temp\ccSIna8B.s:28697  .debug_str:0000000000014b42 .LASF2861
C:\Users\CYMR90~1\AppData\Local\Temp\ccSIna8B.s:27097  .debug_str:000000000000e61d .LASF2862
C:\Users\CYMR90~1\AppData\Local\Temp\ccSIna8B.s:23881  .debug_str:000000000000178e .LASF2863
C:\Users\CYMR90~1\AppData\Local\Temp\ccSIna8B.s:29233  .debug_str:0000000000016d6c .LASF2864
C:\Users\CYMR90~1\AppData\Local\Temp\ccSIna8B.s:32136  .debug_str:000000000002255a .LASF2865
C:\Users\CYMR90~1\AppData\Local\Temp\ccSIna8B.s:27339  .debug_str:000000000000f4ed .LASF2866
C:\Users\CYMR90~1\AppData\Local\Temp\ccSIna8B.s:32038  .debug_str:0000000000021fa0 .LASF2867
C:\Users\CYMR90~1\AppData\Local\Temp\ccSIna8B.s:32202  .debug_str:0000000000022933 .LASF2868
C:\Users\CYMR90~1\AppData\Local\Temp\ccSIna8B.s:30152  .debug_str:000000000001aa73 .LASF2869
C:\Users\CYMR90~1\AppData\Local\Temp\ccSIna8B.s:29398  .debug_str:00000000000178ce .LASF2870
C:\Users\CYMR90~1\AppData\Local\Temp\ccSIna8B.s:27109  .debug_str:000000000000e6c1 .LASF2871
C:\Users\CYMR90~1\AppData\Local\Temp\ccSIna8B.s:28287  .debug_str:00000000000131c4 .LASF2872
C:\Users\CYMR90~1\AppData\Local\Temp\ccSIna8B.s:28251  .debug_str:0000000000012f6c .LASF2873
C:\Users\CYMR90~1\AppData\Local\Temp\ccSIna8B.s:24289  .debug_str:0000000000003105 .LASF2874
C:\Users\CYMR90~1\AppData\Local\Temp\ccSIna8B.s:24169  .debug_str:0000000000002946 .LASF2875
C:\Users\CYMR90~1\AppData\Local\Temp\ccSIna8B.s:31790  .debug_str:0000000000021038 .LASF2876
C:\Users\CYMR90~1\AppData\Local\Temp\ccSIna8B.s:32792  .debug_str:0000000000024dd6 .LASF2877
C:\Users\CYMR90~1\AppData\Local\Temp\ccSIna8B.s:32464  .debug_str:00000000000238df .LASF2878
C:\Users\CYMR90~1\AppData\Local\Temp\ccSIna8B.s:26321  .debug_str:000000000000b386 .LASF2879
C:\Users\CYMR90~1\AppData\Local\Temp\ccSIna8B.s:29534  .debug_str:0000000000018160 .LASF2880
C:\Users\CYMR90~1\AppData\Local\Temp\ccSIna8B.s:32768  .debug_str:0000000000024c44 .LASF2881
C:\Users\CYMR90~1\AppData\Local\Temp\ccSIna8B.s:24583  .debug_str:0000000000004485 .LASF2882
C:\Users\CYMR90~1\AppData\Local\Temp\ccSIna8B.s:27793  .debug_str:00000000000111cf .LASF2883
C:\Users\CYMR90~1\AppData\Local\Temp\ccSIna8B.s:30962  .debug_str:000000000001ddce .LASF2884
C:\Users\CYMR90~1\AppData\Local\Temp\ccSIna8B.s:34808  .debug_str:000000000002d018 .LASF2885
C:\Users\CYMR90~1\AppData\Local\Temp\ccSIna8B.s:26085  .debug_str:000000000000a45a .LASF2886
C:\Users\CYMR90~1\AppData\Local\Temp\ccSIna8B.s:29308  .debug_str:0000000000017391 .LASF2887
C:\Users\CYMR90~1\AppData\Local\Temp\ccSIna8B.s:32528  .debug_str:0000000000023c9e .LASF2888
C:\Users\CYMR90~1\AppData\Local\Temp\ccSIna8B.s:30704  .debug_str:000000000001cc7b .LASF2889
C:\Users\CYMR90~1\AppData\Local\Temp\ccSIna8B.s:24019  .debug_str:0000000000001fb3 .LASF2890
C:\Users\CYMR90~1\AppData\Local\Temp\ccSIna8B.s:28763  .debug_str:0000000000014f67 .LASF2891
C:\Users\CYMR90~1\AppData\Local\Temp\ccSIna8B.s:33524  .debug_str:0000000000027ded .LASF2892
C:\Users\CYMR90~1\AppData\Local\Temp\ccSIna8B.s:26873  .debug_str:000000000000d941 .LASF2893
C:\Users\CYMR90~1\AppData\Local\Temp\ccSIna8B.s:31568  .debug_str:000000000002029f .LASF2894
C:\Users\CYMR90~1\AppData\Local\Temp\ccSIna8B.s:34202  .debug_str:000000000002a985 .LASF2895
C:\Users\CYMR90~1\AppData\Local\Temp\ccSIna8B.s:34420  .debug_str:000000000002b6bc .LASF2896
C:\Users\CYMR90~1\AppData\Local\Temp\ccSIna8B.s:30188  .debug_str:000000000001ac5a .LASF2897
C:\Users\CYMR90~1\AppData\Local\Temp\ccSIna8B.s:25327  .debug_str:000000000000739f .LASF2898
C:\Users\CYMR90~1\AppData\Local\Temp\ccSIna8B.s:25633  .debug_str:0000000000008845 .LASF2899
C:\Users\CYMR90~1\AppData\Local\Temp\ccSIna8B.s:29596  .debug_str:00000000000184de .LASF2900
C:\Users\CYMR90~1\AppData\Local\Temp\ccSIna8B.s:34520  .debug_str:000000000002bd59 .LASF2901
C:\Users\CYMR90~1\AppData\Local\Temp\ccSIna8B.s:28033  .debug_str:00000000000120c4 .LASF2902
C:\Users\CYMR90~1\AppData\Local\Temp\ccSIna8B.s:28861  .debug_str:0000000000015539 .LASF2903
C:\Users\CYMR90~1\AppData\Local\Temp\ccSIna8B.s:25027  .debug_str:0000000000006082 .LASF2904
C:\Users\CYMR90~1\AppData\Local\Temp\ccSIna8B.s:31816  .debug_str:0000000000021192 .LASF2905
C:\Users\CYMR90~1\AppData\Local\Temp\ccSIna8B.s:33212  .debug_str:00000000000269d4 .LASF2906
C:\Users\CYMR90~1\AppData\Local\Temp\ccSIna8B.s:34618  .debug_str:000000000002c3f6 .LASF2907
C:\Users\CYMR90~1\AppData\Local\Temp\ccSIna8B.s:24541  .debug_str:0000000000004206 .LASF2908
C:\Users\CYMR90~1\AppData\Local\Temp\ccSIna8B.s:28295  .debug_str:0000000000013252 .LASF2909
C:\Users\CYMR90~1\AppData\Local\Temp\ccSIna8B.s:33716  .debug_str:0000000000028b91 .LASF2910
C:\Users\CYMR90~1\AppData\Local\Temp\ccSIna8B.s:31636  .debug_str:0000000000020675 .LASF2911
C:\Users\CYMR90~1\AppData\Local\Temp\ccSIna8B.s:30526  .debug_str:000000000001c188 .LASF2912
C:\Users\CYMR90~1\AppData\Local\Temp\ccSIna8B.s:30098  .debug_str:000000000001a6dc .LASF2913
C:\Users\CYMR90~1\AppData\Local\Temp\ccSIna8B.s:30020  .debug_str:000000000001a09e .LASF2914
C:\Users\CYMR90~1\AppData\Local\Temp\ccSIna8B.s:32240  .debug_str:0000000000022b7f .LASF2915
C:\Users\CYMR90~1\AppData\Local\Temp\ccSIna8B.s:30520  .debug_str:000000000001c135 .LASF2916
C:\Users\CYMR90~1\AppData\Local\Temp\ccSIna8B.s:29660  .debug_str:00000000000188e3 .LASF2917
C:\Users\CYMR90~1\AppData\Local\Temp\ccSIna8B.s:28681  .debug_str:0000000000014a6c .LASF2918
C:\Users\CYMR90~1\AppData\Local\Temp\ccSIna8B.s:27841  .debug_str:0000000000011489 .LASF2919
C:\Users\CYMR90~1\AppData\Local\Temp\ccSIna8B.s:26965  .debug_str:000000000000de4f .LASF2920
C:\Users\CYMR90~1\AppData\Local\Temp\ccSIna8B.s:26079  .debug_str:000000000000a3f7 .LASF2921
C:\Users\CYMR90~1\AppData\Local\Temp\ccSIna8B.s:25163  .debug_str:00000000000068f9 .LASF2922
C:\Users\CYMR90~1\AppData\Local\Temp\ccSIna8B.s:24293  .debug_str:000000000000313b .LASF2923
C:\Users\CYMR90~1\AppData\Local\Temp\ccSIna8B.s:34858  .debug_str:000000000002d359 .LASF2924
C:\Users\CYMR90~1\AppData\Local\Temp\ccSIna8B.s:33976  .debug_str:0000000000029c50 .LASF2925
C:\Users\CYMR90~1\AppData\Local\Temp\ccSIna8B.s:32696  .debug_str:0000000000024757 .LASF2926
C:\Users\CYMR90~1\AppData\Local\Temp\ccSIna8B.s:24507  .debug_str:0000000000003f6b .LASF2927
C:\Users\CYMR90~1\AppData\Local\Temp\ccSIna8B.s:27809  .debug_str:00000000000112a6 .LASF2928
C:\Users\CYMR90~1\AppData\Local\Temp\ccSIna8B.s:30980  .debug_str:000000000001df64 .LASF2929
C:\Users\CYMR90~1\AppData\Local\Temp\ccSIna8B.s:26009  .debug_str:0000000000009fcc .LASF2930
C:\Users\CYMR90~1\AppData\Local\Temp\ccSIna8B.s:26097  .debug_str:000000000000a543 .LASF2931
C:\Users\CYMR90~1\AppData\Local\Temp\ccSIna8B.s:32320  .debug_str:0000000000023091 .LASF2932
C:\Users\CYMR90~1\AppData\Local\Temp\ccSIna8B.s:34810  .debug_str:000000000002d02a .LASF2933
C:\Users\CYMR90~1\AppData\Local\Temp\ccSIna8B.s:32772  .debug_str:0000000000024c7c .LASF2934
C:\Users\CYMR90~1\AppData\Local\Temp\ccSIna8B.s:28923  .debug_str:0000000000015892 .LASF2935
C:\Users\CYMR90~1\AppData\Local\Temp\ccSIna8B.s:31616  .debug_str:0000000000020559 .LASF2936
C:\Users\CYMR90~1\AppData\Local\Temp\ccSIna8B.s:29408  .debug_str:000000000001798b .LASF2937
C:\Users\CYMR90~1\AppData\Local\Temp\ccSIna8B.s:30156  .debug_str:000000000001aaa1 .LASF2938
C:\Users\CYMR90~1\AppData\Local\Temp\ccSIna8B.s:30194  .debug_str:000000000001ace5 .LASF2939
C:\Users\CYMR90~1\AppData\Local\Temp\ccSIna8B.s:29141  .debug_str:0000000000016653 .LASF2940
C:\Users\CYMR90~1\AppData\Local\Temp\ccSIna8B.s:28153  .debug_str:000000000001290f .LASF2941
C:\Users\CYMR90~1\AppData\Local\Temp\ccSIna8B.s:28539  .debug_str:00000000000141ab .LASF2942
C:\Users\CYMR90~1\AppData\Local\Temp\ccSIna8B.s:33130  .debug_str:0000000000026487 .LASF2943
C:\Users\CYMR90~1\AppData\Local\Temp\ccSIna8B.s:30352  .debug_str:000000000001b6ed .LASF2944
C:\Users\CYMR90~1\AppData\Local\Temp\ccSIna8B.s:25011  .debug_str:0000000000005f93 .LASF2945
C:\Users\CYMR90~1\AppData\Local\Temp\ccSIna8B.s:26963  .debug_str:000000000000de2d .LASF2946
C:\Users\CYMR90~1\AppData\Local\Temp\ccSIna8B.s:31944  .debug_str:00000000000219e3 .LASF2947
C:\Users\CYMR90~1\AppData\Local\Temp\ccSIna8B.s:33494  .debug_str:0000000000027bbf .LASF2948
C:\Users\CYMR90~1\AppData\Local\Temp\ccSIna8B.s:26513  .debug_str:000000000000c0ee .LASF2949
C:\Users\CYMR90~1\AppData\Local\Temp\ccSIna8B.s:27091  .debug_str:000000000000e5dc .LASF2950
C:\Users\CYMR90~1\AppData\Local\Temp\ccSIna8B.s:31086  .debug_str:000000000001e5b7 .LASF2951
C:\Users\CYMR90~1\AppData\Local\Temp\ccSIna8B.s:24761  .debug_str:0000000000005058 .LASF2952
C:\Users\CYMR90~1\AppData\Local\Temp\ccSIna8B.s:34376  .debug_str:000000000002b3be .LASF2953
C:\Users\CYMR90~1\AppData\Local\Temp\ccSIna8B.s:31442  .debug_str:000000000001fab8 .LASF2954
C:\Users\CYMR90~1\AppData\Local\Temp\ccSIna8B.s:33364  .debug_str:0000000000027323 .LASF2955
C:\Users\CYMR90~1\AppData\Local\Temp\ccSIna8B.s:31780  .debug_str:0000000000020fb2 .LASF2956
C:\Users\CYMR90~1\AppData\Local\Temp\ccSIna8B.s:34890  .debug_str:000000000002d528 .LASF2957
C:\Users\CYMR90~1\AppData\Local\Temp\ccSIna8B.s:24267  .debug_str:0000000000002f83 .LASF2958
C:\Users\CYMR90~1\AppData\Local\Temp\ccSIna8B.s:23997  .debug_str:0000000000001e83 .LASF2959
C:\Users\CYMR90~1\AppData\Local\Temp\ccSIna8B.s:31112  .debug_str:000000000001e747 .LASF2960
C:\Users\CYMR90~1\AppData\Local\Temp\ccSIna8B.s:24243  .debug_str:0000000000002e0c .LASF2961
C:\Users\CYMR90~1\AppData\Local\Temp\ccSIna8B.s:28437  .debug_str:0000000000013b96 .LASF2962
C:\Users\CYMR90~1\AppData\Local\Temp\ccSIna8B.s:34662  .debug_str:000000000002c6a2 .LASF2963
C:\Users\CYMR90~1\AppData\Local\Temp\ccSIna8B.s:33266  .debug_str:0000000000026d2e .LASF2964
C:\Users\CYMR90~1\AppData\Local\Temp\ccSIna8B.s:24997  .debug_str:0000000000005eb9 .LASF2965
C:\Users\CYMR90~1\AppData\Local\Temp\ccSIna8B.s:34346  .debug_str:000000000002b219 .LASF2966
C:\Users\CYMR90~1\AppData\Local\Temp\ccSIna8B.s:30686  .debug_str:000000000001cb7c .LASF2967
C:\Users\CYMR90~1\AppData\Local\Temp\ccSIna8B.s:31686  .debug_str:00000000000209d2 .LASF2968
C:\Users\CYMR90~1\AppData\Local\Temp\ccSIna8B.s:27463  .debug_str:000000000000fdc1 .LASF2969
C:\Users\CYMR90~1\AppData\Local\Temp\ccSIna8B.s:26583  .debug_str:000000000000c4fd .LASF2970
C:\Users\CYMR90~1\AppData\Local\Temp\ccSIna8B.s:30414  .debug_str:000000000001bac0 .LASF2971
C:\Users\CYMR90~1\AppData\Local\Temp\ccSIna8B.s:33678  .debug_str:00000000000288dc .LASF2972
C:\Users\CYMR90~1\AppData\Local\Temp\ccSIna8B.s:32094  .debug_str:00000000000222df .LASF2973
C:\Users\CYMR90~1\AppData\Local\Temp\ccSIna8B.s:33026  .debug_str:0000000000025e35 .LASF2974
C:\Users\CYMR90~1\AppData\Local\Temp\ccSIna8B.s:24593  .debug_str:0000000000004523 .LASF2975
C:\Users\CYMR90~1\AppData\Local\Temp\ccSIna8B.s:29496  .debug_str:0000000000017eec .LASF2976
C:\Users\CYMR90~1\AppData\Local\Temp\ccSIna8B.s:32000  .debug_str:0000000000021d3a .LASF2977
C:\Users\CYMR90~1\AppData\Local\Temp\ccSIna8B.s:25485  .debug_str:0000000000007dd6 .LASF2978
C:\Users\CYMR90~1\AppData\Local\Temp\ccSIna8B.s:30862  .debug_str:000000000001d763 .LASF2979
C:\Users\CYMR90~1\AppData\Local\Temp\ccSIna8B.s:26903  .debug_str:000000000000dae3 .LASF2980
C:\Users\CYMR90~1\AppData\Local\Temp\ccSIna8B.s:34442  .debug_str:000000000002b84a .LASF2981
C:\Users\CYMR90~1\AppData\Local\Temp\ccSIna8B.s:29526  .debug_str:00000000000180d9 .LASF2982
C:\Users\CYMR90~1\AppData\Local\Temp\ccSIna8B.s:24467  .debug_str:0000000000003c90 .LASF2983
C:\Users\CYMR90~1\AppData\Local\Temp\ccSIna8B.s:29758  .debug_str:0000000000018f1f .LASF2984
C:\Users\CYMR90~1\AppData\Local\Temp\ccSIna8B.s:23517  .debug_str:000000000000019f .LASF2985
C:\Users\CYMR90~1\AppData\Local\Temp\ccSIna8B.s:27285  .debug_str:000000000000f187 .LASF2986
C:\Users\CYMR90~1\AppData\Local\Temp\ccSIna8B.s:28747  .debug_str:0000000000014e53 .LASF2987
C:\Users\CYMR90~1\AppData\Local\Temp\ccSIna8B.s:28649  .debug_str:000000000001488c .LASF2988
C:\Users\CYMR90~1\AppData\Local\Temp\ccSIna8B.s:27309  .debug_str:000000000000f2f5 .LASF2989
C:\Users\CYMR90~1\AppData\Local\Temp\ccSIna8B.s:26989  .debug_str:000000000000dfca .LASF2990
C:\Users\CYMR90~1\AppData\Local\Temp\ccSIna8B.s:32480  .debug_str:00000000000239dd .LASF2991
C:\Users\CYMR90~1\AppData\Local\Temp\ccSIna8B.s:29338  .debug_str:000000000001754c .LASF2992
C:\Users\CYMR90~1\AppData\Local\Temp\ccSIna8B.s:28433  .debug_str:0000000000013b4c .LASF2993
C:\Users\CYMR90~1\AppData\Local\Temp\ccSIna8B.s:25705  .debug_str:0000000000008d04 .LASF2994
C:\Users\CYMR90~1\AppData\Local\Temp\ccSIna8B.s:34188  .debug_str:000000000002a87a .LASF2995
C:\Users\CYMR90~1\AppData\Local\Temp\ccSIna8B.s:28745  .debug_str:0000000000014e35 .LASF2996
C:\Users\CYMR90~1\AppData\Local\Temp\ccSIna8B.s:28833  .debug_str:00000000000153a6 .LASF2997
C:\Users\CYMR90~1\AppData\Local\Temp\ccSIna8B.s:24835  .debug_str:00000000000054b0 .LASF2998
C:\Users\CYMR90~1\AppData\Local\Temp\ccSIna8B.s:29015  .debug_str:0000000000015e6b .LASF2999
C:\Users\CYMR90~1\AppData\Local\Temp\ccSIna8B.s:32222  .debug_str:0000000000022a86 .LASF3000
C:\Users\CYMR90~1\AppData\Local\Temp\ccSIna8B.s:27657  .debug_str:000000000001093d .LASF3001
C:\Users\CYMR90~1\AppData\Local\Temp\ccSIna8B.s:28995  .debug_str:0000000000015cde .LASF3002
C:\Users\CYMR90~1\AppData\Local\Temp\ccSIna8B.s:23649  .debug_str:0000000000000942 .LASF3003
C:\Users\CYMR90~1\AppData\Local\Temp\ccSIna8B.s:31680  .debug_str:0000000000020974 .LASF3004
C:\Users\CYMR90~1\AppData\Local\Temp\ccSIna8B.s:34728  .debug_str:000000000002cabd .LASF3005
C:\Users\CYMR90~1\AppData\Local\Temp\ccSIna8B.s:32606  .debug_str:00000000000240cc .LASF3006
C:\Users\CYMR90~1\AppData\Local\Temp\ccSIna8B.s:31996  .debug_str:0000000000021ce7 .LASF3007
C:\Users\CYMR90~1\AppData\Local\Temp\ccSIna8B.s:24793  .debug_str:0000000000005232 .LASF3008
C:\Users\CYMR90~1\AppData\Local\Temp\ccSIna8B.s:34864  .debug_str:000000000002d3a7 .LASF3009
C:\Users\CYMR90~1\AppData\Local\Temp\ccSIna8B.s:27185  .debug_str:000000000000eb52 .LASF3010
C:\Users\CYMR90~1\AppData\Local\Temp\ccSIna8B.s:30538  .debug_str:000000000001c256 .LASF3011
C:\Users\CYMR90~1\AppData\Local\Temp\ccSIna8B.s:23843  .debug_str:0000000000001561 .LASF3012
C:\Users\CYMR90~1\AppData\Local\Temp\ccSIna8B.s:27787  .debug_str:000000000001117b .LASF3013
C:\Users\CYMR90~1\AppData\Local\Temp\ccSIna8B.s:26901  .debug_str:000000000000daca .LASF3014
C:\Users\CYMR90~1\AppData\Local\Temp\ccSIna8B.s:24023  .debug_str:0000000000001fdf .LASF3015
C:\Users\CYMR90~1\AppData\Local\Temp\ccSIna8B.s:31226  .debug_str:000000000001edd3 .LASF3016
C:\Users\CYMR90~1\AppData\Local\Temp\ccSIna8B.s:26537  .debug_str:000000000000c27a .LASF3017
C:\Users\CYMR90~1\AppData\Local\Temp\ccSIna8B.s:25313  .debug_str:00000000000072a9 .LASF3018
C:\Users\CYMR90~1\AppData\Local\Temp\ccSIna8B.s:29686  .debug_str:0000000000018a5e .LASF3019
C:\Users\CYMR90~1\AppData\Local\Temp\ccSIna8B.s:27505  .debug_str:000000000001006a .LASF3020
C:\Users\CYMR90~1\AppData\Local\Temp\ccSIna8B.s:24251  .debug_str:0000000000002e8e .LASF3021
C:\Users\CYMR90~1\AppData\Local\Temp\ccSIna8B.s:26599  .debug_str:000000000000c601 .LASF3022
C:\Users\CYMR90~1\AppData\Local\Temp\ccSIna8B.s:27115  .debug_str:000000000000e723 .LASF3023
C:\Users\CYMR90~1\AppData\Local\Temp\ccSIna8B.s:34474  .debug_str:000000000002ba55 .LASF3024
C:\Users\CYMR90~1\AppData\Local\Temp\ccSIna8B.s:25281  .debug_str:0000000000007054 .LASF3025
C:\Users\CYMR90~1\AppData\Local\Temp\ccSIna8B.s:31564  .debug_str:0000000000020260 .LASF3026
C:\Users\CYMR90~1\AppData\Local\Temp\ccSIna8B.s:27495  .debug_str:000000000000ffbb .LASF3027
C:\Users\CYMR90~1\AppData\Local\Temp\ccSIna8B.s:29350  .debug_str:000000000001760c .LASF3028
C:\Users\CYMR90~1\AppData\Local\Temp\ccSIna8B.s:24747  .debug_str:0000000000004f80 .LASF3029
C:\Users\CYMR90~1\AppData\Local\Temp\ccSIna8B.s:34398  .debug_str:000000000002b507 .LASF3030
C:\Users\CYMR90~1\AppData\Local\Temp\ccSIna8B.s:27065  .debug_str:000000000000e452 .LASF3031
C:\Users\CYMR90~1\AppData\Local\Temp\ccSIna8B.s:26151  .debug_str:000000000000a83e .LASF3032
C:\Users\CYMR90~1\AppData\Local\Temp\ccSIna8B.s:32840  .debug_str:00000000000250f6 .LASF3033
C:\Users\CYMR90~1\AppData\Local\Temp\ccSIna8B.s:27241  .debug_str:000000000000ef4e .LASF3034
C:\Users\CYMR90~1\AppData\Local\Temp\ccSIna8B.s:27035  .debug_str:000000000000e2d1 .LASF3035
C:\Users\CYMR90~1\AppData\Local\Temp\ccSIna8B.s:33606  .debug_str:00000000000283a0 .LASF3036
C:\Users\CYMR90~1\AppData\Local\Temp\ccSIna8B.s:25671  .debug_str:0000000000008ade .LASF3037
C:\Users\CYMR90~1\AppData\Local\Temp\ccSIna8B.s:34550  .debug_str:000000000002bf1f .LASF3038
C:\Users\CYMR90~1\AppData\Local\Temp\ccSIna8B.s:33696  .debug_str:0000000000028a39 .LASF3039
C:\Users\CYMR90~1\AppData\Local\Temp\ccSIna8B.s:23533  .debug_str:0000000000000281 .LASF3040
C:\Users\CYMR90~1\AppData\Local\Temp\ccSIna8B.s:24515  .debug_str:0000000000003fef .LASF3041
C:\Users\CYMR90~1\AppData\Local\Temp\ccSIna8B.s:30594  .debug_str:000000000001c565 .LASF3042
C:\Users\CYMR90~1\AppData\Local\Temp\ccSIna8B.s:30396  .debug_str:000000000001b9a3 .LASF3043
C:\Users\CYMR90~1\AppData\Local\Temp\ccSIna8B.s:32854  .debug_str:00000000000251b3 .LASF3044
C:\Users\CYMR90~1\AppData\Local\Temp\ccSIna8B.s:26907  .debug_str:000000000000db27 .LASF3045
C:\Users\CYMR90~1\AppData\Local\Temp\ccSIna8B.s:30008  .debug_str:000000000001a00b .LASF3046
C:\Users\CYMR90~1\AppData\Local\Temp\ccSIna8B.s:23781  .debug_str:00000000000011f4 .LASF3047
C:\Users\CYMR90~1\AppData\Local\Temp\ccSIna8B.s:27283  .debug_str:000000000000f16d .LASF3048
C:\Users\CYMR90~1\AppData\Local\Temp\ccSIna8B.s:30598  .debug_str:000000000001c599 .LASF3049
C:\Users\CYMR90~1\AppData\Local\Temp\ccSIna8B.s:33984  .debug_str:0000000000029cac .LASF3050
C:\Users\CYMR90~1\AppData\Local\Temp\ccSIna8B.s:23915  .debug_str:00000000000019a1 .LASF3051
C:\Users\CYMR90~1\AppData\Local\Temp\ccSIna8B.s:26003  .debug_str:0000000000009f78 .LASF3052
C:\Users\CYMR90~1\AppData\Local\Temp\ccSIna8B.s:33394  .debug_str:00000000000275ce .LASF3053
C:\Users\CYMR90~1\AppData\Local\Temp\ccSIna8B.s:25559  .debug_str:00000000000083c3 .LASF3054
C:\Users\CYMR90~1\AppData\Local\Temp\ccSIna8B.s:27071  .debug_str:000000000000e4cb .LASF3055
C:\Users\CYMR90~1\AppData\Local\Temp\ccSIna8B.s:32608  .debug_str:00000000000240f8 .LASF3056
C:\Users\CYMR90~1\AppData\Local\Temp\ccSIna8B.s:29938  .debug_str:0000000000019ba4 .LASF3057
C:\Users\CYMR90~1\AppData\Local\Temp\ccSIna8B.s:25955  .debug_str:0000000000009ca3 .LASF3058
C:\Users\CYMR90~1\AppData\Local\Temp\ccSIna8B.s:31348  .debug_str:000000000001f546 .LASF3059
C:\Users\CYMR90~1\AppData\Local\Temp\ccSIna8B.s:25533  .debug_str:00000000000081aa .LASF3060
C:\Users\CYMR90~1\AppData\Local\Temp\ccSIna8B.s:33592  .debug_str:0000000000028277 .LASF3061
C:\Users\CYMR90~1\AppData\Local\Temp\ccSIna8B.s:33246  .debug_str:0000000000026bd1 .LASF3062
C:\Users\CYMR90~1\AppData\Local\Temp\ccSIna8B.s:27889  .debug_str:000000000001175d .LASF3063
C:\Users\CYMR90~1\AppData\Local\Temp\ccSIna8B.s:32746  .debug_str:0000000000024b33 .LASF3064
C:\Users\CYMR90~1\AppData\Local\Temp\ccSIna8B.s:31818  .debug_str:00000000000211b2 .LASF3065
C:\Users\CYMR90~1\AppData\Local\Temp\ccSIna8B.s:27773  .debug_str:0000000000011093 .LASF3066
C:\Users\CYMR90~1\AppData\Local\Temp\ccSIna8B.s:33336  .debug_str:00000000000271b3 .LASF3067
C:\Users\CYMR90~1\AppData\Local\Temp\ccSIna8B.s:32484  .debug_str:0000000000023a1a .LASF3068
C:\Users\CYMR90~1\AppData\Local\Temp\ccSIna8B.s:29298  .debug_str:000000000001730f .LASF3069
C:\Users\CYMR90~1\AppData\Local\Temp\ccSIna8B.s:29035  .debug_str:0000000000015fde .LASF3070
C:\Users\CYMR90~1\AppData\Local\Temp\ccSIna8B.s:31304  .debug_str:000000000001f29e .LASF3071
C:\Users\CYMR90~1\AppData\Local\Temp\ccSIna8B.s:27731  .debug_str:0000000000010db7 .LASF3072
C:\Users\CYMR90~1\AppData\Local\Temp\ccSIna8B.s:27861  .debug_str:00000000000115c5 .LASF3073
C:\Users\CYMR90~1\AppData\Local\Temp\ccSIna8B.s:27257  .debug_str:000000000000f01d .LASF3074
C:\Users\CYMR90~1\AppData\Local\Temp\ccSIna8B.s:27385  .debug_str:000000000000f7ab .LASF3075
C:\Users\CYMR90~1\AppData\Local\Temp\ccSIna8B.s:31028  .debug_str:000000000001e263 .LASF3076
C:\Users\CYMR90~1\AppData\Local\Temp\ccSIna8B.s:33714  .debug_str:0000000000028b78 .LASF3077
C:\Users\CYMR90~1\AppData\Local\Temp\ccSIna8B.s:29155  .debug_str:00000000000167b7 .LASF3078
C:\Users\CYMR90~1\AppData\Local\Temp\ccSIna8B.s:32602  .debug_str:000000000002409d .LASF3079
C:\Users\CYMR90~1\AppData\Local\Temp\ccSIna8B.s:24057  .debug_str:00000000000021ae .LASF3080
C:\Users\CYMR90~1\AppData\Local\Temp\ccSIna8B.s:25305  .debug_str:0000000000007201 .LASF3081
C:\Users\CYMR90~1\AppData\Local\Temp\ccSIna8B.s:33770  .debug_str:0000000000028eed .LASF3082
C:\Users\CYMR90~1\AppData\Local\Temp\ccSIna8B.s:26057  .debug_str:000000000000a2c6 .LASF3083
C:\Users\CYMR90~1\AppData\Local\Temp\ccSIna8B.s:33980  .debug_str:0000000000029c6f .LASF3084
C:\Users\CYMR90~1\AppData\Local\Temp\ccSIna8B.s:27215  .debug_str:000000000000ed5d .LASF3085
C:\Users\CYMR90~1\AppData\Local\Temp\ccSIna8B.s:28887  .debug_str:00000000000156c3 .LASF3086
C:\Users\CYMR90~1\AppData\Local\Temp\ccSIna8B.s:31758  .debug_str:0000000000020e77 .LASF3087
C:\Users\CYMR90~1\AppData\Local\Temp\ccSIna8B.s:29658  .debug_str:0000000000018894 .LASF3088
C:\Users\CYMR90~1\AppData\Local\Temp\ccSIna8B.s:31612  .debug_str:00000000000204e7 .LASF3089
C:\Users\CYMR90~1\AppData\Local\Temp\ccSIna8B.s:33866  .debug_str:00000000000294dc .LASF3090
C:\Users\CYMR90~1\AppData\Local\Temp\ccSIna8B.s:32264  .debug_str:0000000000022cf6 .LASF3091
C:\Users\CYMR90~1\AppData\Local\Temp\ccSIna8B.s:26613  .debug_str:000000000000c6af .LASF3092
C:\Users\CYMR90~1\AppData\Local\Temp\ccSIna8B.s:34674  .debug_str:000000000002c7c9 .LASF3093
C:\Users\CYMR90~1\AppData\Local\Temp\ccSIna8B.s:27187  .debug_str:000000000000eb66 .LASF3094
C:\Users\CYMR90~1\AppData\Local\Temp\ccSIna8B.s:33376  .debug_str:00000000000273fe .LASF3095
C:\Users\CYMR90~1\AppData\Local\Temp\ccSIna8B.s:26779  .debug_str:000000000000d257 .LASF3096
C:\Users\CYMR90~1\AppData\Local\Temp\ccSIna8B.s:26511  .debug_str:000000000000c0c6 .LASF3097
C:\Users\CYMR90~1\AppData\Local\Temp\ccSIna8B.s:28935  .debug_str:0000000000015935 .LASF3098
C:\Users\CYMR90~1\AppData\Local\Temp\ccSIna8B.s:28835  .debug_str:00000000000153d1 .LASF3099
C:\Users\CYMR90~1\AppData\Local\Temp\ccSIna8B.s:29748  .debug_str:0000000000018e9d .LASF3100
C:\Users\CYMR90~1\AppData\Local\Temp\ccSIna8B.s:31436  .debug_str:000000000001fa6e .LASF3101
C:\Users\CYMR90~1\AppData\Local\Temp\ccSIna8B.s:31962  .debug_str:0000000000021ae5 .LASF3102
C:\Users\CYMR90~1\AppData\Local\Temp\ccSIna8B.s:34814  .debug_str:000000000002d04e .LASF3103
C:\Users\CYMR90~1\AppData\Local\Temp\ccSIna8B.s:27441  .debug_str:000000000000fc40 .LASF3104
C:\Users\CYMR90~1\AppData\Local\Temp\ccSIna8B.s:24265  .debug_str:0000000000002f57 .LASF3105
C:\Users\CYMR90~1\AppData\Local\Temp\ccSIna8B.s:27299  .debug_str:000000000000f26e .LASF3106
C:\Users\CYMR90~1\AppData\Local\Temp\ccSIna8B.s:31638  .debug_str:000000000002069a .LASF3107
C:\Users\CYMR90~1\AppData\Local\Temp\ccSIna8B.s:28911  .debug_str:00000000000157dd .LASF3108
C:\Users\CYMR90~1\AppData\Local\Temp\ccSIna8B.s:25053  .debug_str:0000000000006220 .LASF3109
C:\Users\CYMR90~1\AppData\Local\Temp\ccSIna8B.s:30534  .debug_str:000000000001c21f .LASF3110
C:\Users\CYMR90~1\AppData\Local\Temp\ccSIna8B.s:29564  .debug_str:00000000000182de .LASF3111
C:\Users\CYMR90~1\AppData\Local\Temp\ccSIna8B.s:31470  .debug_str:000000000001fc9b .LASF3112
C:\Users\CYMR90~1\AppData\Local\Temp\ccSIna8B.s:27733  .debug_str:0000000000010dcf .LASF3113
C:\Users\CYMR90~1\AppData\Local\Temp\ccSIna8B.s:33648  .debug_str:00000000000286c8 .LASF3114
C:\Users\CYMR90~1\AppData\Local\Temp\ccSIna8B.s:25775  .debug_str:0000000000009173 .LASF3115
C:\Users\CYMR90~1\AppData\Local\Temp\ccSIna8B.s:24843  .debug_str:000000000000554e .LASF3116
C:\Users\CYMR90~1\AppData\Local\Temp\ccSIna8B.s:23897  .debug_str:0000000000001892 .LASF3117
C:\Users\CYMR90~1\AppData\Local\Temp\ccSIna8B.s:34358  .debug_str:000000000002b2da .LASF3118
C:\Users\CYMR90~1\AppData\Local\Temp\ccSIna8B.s:31908  .debug_str:0000000000021797 .LASF3119
C:\Users\CYMR90~1\AppData\Local\Temp\ccSIna8B.s:30922  .debug_str:000000000001db68 .LASF3120
C:\Users\CYMR90~1\AppData\Local\Temp\ccSIna8B.s:30090  .debug_str:000000000001a4c9 .LASF3121
C:\Users\CYMR90~1\AppData\Local\Temp\ccSIna8B.s:29075  .debug_str:00000000000162aa .LASF3122
C:\Users\CYMR90~1\AppData\Local\Temp\ccSIna8B.s:28145  .debug_str:0000000000012882 .LASF3123
C:\Users\CYMR90~1\AppData\Local\Temp\ccSIna8B.s:28733  .debug_str:0000000000014d66 .LASF3124
C:\Users\CYMR90~1\AppData\Local\Temp\ccSIna8B.s:27315  .debug_str:000000000000f33d .LASF3125
C:\Users\CYMR90~1\AppData\Local\Temp\ccSIna8B.s:33328  .debug_str:000000000002710c .LASF3126
C:\Users\CYMR90~1\AppData\Local\Temp\ccSIna8B.s:33114  .debug_str:00000000000263ca .LASF3127
C:\Users\CYMR90~1\AppData\Local\Temp\ccSIna8B.s:27631  .debug_str:00000000000107c3 .LASF3128
C:\Users\CYMR90~1\AppData\Local\Temp\ccSIna8B.s:26469  .debug_str:000000000000bd9e .LASF3129
C:\Users\CYMR90~1\AppData\Local\Temp\ccSIna8B.s:25357  .debug_str:00000000000075a7 .LASF3130
C:\Users\CYMR90~1\AppData\Local\Temp\ccSIna8B.s:30764  .debug_str:000000000001d0f2 .LASF3131
C:\Users\CYMR90~1\AppData\Local\Temp\ccSIna8B.s:32386  .debug_str:00000000000233ef .LASF3132
C:\Users\CYMR90~1\AppData\Local\Temp\ccSIna8B.s:26649  .debug_str:000000000000c95b .LASF3133
C:\Users\CYMR90~1\AppData\Local\Temp\ccSIna8B.s:24915  .debug_str:00000000000059b1 .LASF3134
C:\Users\CYMR90~1\AppData\Local\Temp\ccSIna8B.s:24693  .debug_str:0000000000004c3d .LASF3135
C:\Users\CYMR90~1\AppData\Local\Temp\ccSIna8B.s:30678  .debug_str:000000000001caf2 .LASF3136
C:\Users\CYMR90~1\AppData\Local\Temp\ccSIna8B.s:29171  .debug_str:00000000000168b7 .LASF3137
C:\Users\CYMR90~1\AppData\Local\Temp\ccSIna8B.s:24197  .debug_str:0000000000002b05 .LASF3138
C:\Users\CYMR90~1\AppData\Local\Temp\ccSIna8B.s:34752  .debug_str:000000000002cc8c .LASF3139
C:\Users\CYMR90~1\AppData\Local\Temp\ccSIna8B.s:33686  .debug_str:0000000000028974 .LASF3140
C:\Users\CYMR90~1\AppData\Local\Temp\ccSIna8B.s:24659  .debug_str:0000000000004a14 .LASF3141
C:\Users\CYMR90~1\AppData\Local\Temp\ccSIna8B.s:30512  .debug_str:000000000001c0ae .LASF3142
C:\Users\CYMR90~1\AppData\Local\Temp\ccSIna8B.s:27737  .debug_str:0000000000010e14 .LASF3143
C:\Users\CYMR90~1\AppData\Local\Temp\ccSIna8B.s:30814  .debug_str:000000000001d487 .LASF3144
C:\Users\CYMR90~1\AppData\Local\Temp\ccSIna8B.s:23587  .debug_str:00000000000005c7 .LASF3145
C:\Users\CYMR90~1\AppData\Local\Temp\ccSIna8B.s:28313  .debug_str:000000000001338f .LASF3146
C:\Users\CYMR90~1\AppData\Local\Temp\ccSIna8B.s:33062  .debug_str:0000000000026080 .LASF3147
C:\Users\CYMR90~1\AppData\Local\Temp\ccSIna8B.s:28225  .debug_str:0000000000012dba .LASF3148
C:\Users\CYMR90~1\AppData\Local\Temp\ccSIna8B.s:25073  .debug_str:0000000000006357 .LASF3149
C:\Users\CYMR90~1\AppData\Local\Temp\ccSIna8B.s:29524  .debug_str:00000000000180c1 .LASF3150
C:\Users\CYMR90~1\AppData\Local\Temp\ccSIna8B.s:27989  .debug_str:0000000000011e23 .LASF3151
C:\Users\CYMR90~1\AppData\Local\Temp\ccSIna8B.s:26507  .debug_str:000000000000c084 .LASF3152
C:\Users\CYMR90~1\AppData\Local\Temp\ccSIna8B.s:30378  .debug_str:000000000001b878 .LASF3153
C:\Users\CYMR90~1\AppData\Local\Temp\ccSIna8B.s:26871  .debug_str:000000000000d923 .LASF3154
C:\Users\CYMR90~1\AppData\Local\Temp\ccSIna8B.s:25843  .debug_str:000000000000954e .LASF3155
C:\Users\CYMR90~1\AppData\Local\Temp\ccSIna8B.s:32756  .debug_str:0000000000024ba8 .LASF3156
C:\Users\CYMR90~1\AppData\Local\Temp\ccSIna8B.s:28031  .debug_str:00000000000120a4 .LASF3157
C:\Users\CYMR90~1\AppData\Local\Temp\ccSIna8B.s:32354  .debug_str:0000000000023271 .LASF3158
C:\Users\CYMR90~1\AppData\Local\Temp\ccSIna8B.s:26179  .debug_str:000000000000aa07 .LASF3159
C:\Users\CYMR90~1\AppData\Local\Temp\ccSIna8B.s:29952  .debug_str:0000000000019cb1 .LASF3160
C:\Users\CYMR90~1\AppData\Local\Temp\ccSIna8B.s:33288  .debug_str:0000000000026e61 .LASF3161
C:\Users\CYMR90~1\AppData\Local\Temp\ccSIna8B.s:26905  .debug_str:000000000000db02 .LASF3162
C:\Users\CYMR90~1\AppData\Local\Temp\ccSIna8B.s:24967  .debug_str:0000000000005d18 .LASF3163
C:\Users\CYMR90~1\AppData\Local\Temp\ccSIna8B.s:26491  .debug_str:000000000000bf58 .LASF3164
C:\Users\CYMR90~1\AppData\Local\Temp\ccSIna8B.s:25263  .debug_str:0000000000006f4b .LASF3165
C:\Users\CYMR90~1\AppData\Local\Temp\ccSIna8B.s:27203  .debug_str:000000000000ecba .LASF3166
C:\Users\CYMR90~1\AppData\Local\Temp\ccSIna8B.s:23733  .debug_str:0000000000000f21 .LASF3167
C:\Users\CYMR90~1\AppData\Local\Temp\ccSIna8B.s:34498  .debug_str:000000000002bbd1 .LASF3168
C:\Users\CYMR90~1\AppData\Local\Temp\ccSIna8B.s:34092  .debug_str:000000000002a2dc .LASF3169
C:\Users\CYMR90~1\AppData\Local\Temp\ccSIna8B.s:31482  .debug_str:000000000001fd63 .LASF3170
C:\Users\CYMR90~1\AppData\Local\Temp\ccSIna8B.s:32600  .debug_str:0000000000024085 .LASF3171
C:\Users\CYMR90~1\AppData\Local\Temp\ccSIna8B.s:31046  .debug_str:000000000001e386 .LASF3172
C:\Users\CYMR90~1\AppData\Local\Temp\ccSIna8B.s:31444  .debug_str:000000000001facd .LASF3173
C:\Users\CYMR90~1\AppData\Local\Temp\ccSIna8B.s:33436  .debug_str:000000000002785a .LASF3174
C:\Users\CYMR90~1\AppData\Local\Temp\ccSIna8B.s:28619  .debug_str:0000000000014673 .LASF3175
C:\Users\CYMR90~1\AppData\Local\Temp\ccSIna8B.s:29177  .debug_str:0000000000016912 .LASF3176
C:\Users\CYMR90~1\AppData\Local\Temp\ccSIna8B.s:23989  .debug_str:0000000000001e06 .LASF3177
C:\Users\CYMR90~1\AppData\Local\Temp\ccSIna8B.s:31428  .debug_str:000000000001f9d0 .LASF3178
C:\Users\CYMR90~1\AppData\Local\Temp\ccSIna8B.s:31376  .debug_str:000000000001f6d8 .LASF3179
C:\Users\CYMR90~1\AppData\Local\Temp\ccSIna8B.s:30488  .debug_str:000000000001bf05 .LASF3180
C:\Users\CYMR90~1\AppData\Local\Temp\ccSIna8B.s:24153  .debug_str:0000000000002851 .LASF3181
C:\Users\CYMR90~1\AppData\Local\Temp\ccSIna8B.s:32930  .debug_str:0000000000025749 .LASF3182
C:\Users\CYMR90~1\AppData\Local\Temp\ccSIna8B.s:26785  .debug_str:000000000000d2cf .LASF3183
C:\Users\CYMR90~1\AppData\Local\Temp\ccSIna8B.s:24511  .debug_str:0000000000003fa1 .LASF3184
C:\Users\CYMR90~1\AppData\Local\Temp\ccSIna8B.s:24247  .debug_str:0000000000002e43 .LASF3185
C:\Users\CYMR90~1\AppData\Local\Temp\ccSIna8B.s:25667  .debug_str:0000000000008aa0 .LASF3186
C:\Users\CYMR90~1\AppData\Local\Temp\ccSIna8B.s:31036  .debug_str:000000000001e2c0 .LASF3187
C:\Users\CYMR90~1\AppData\Local\Temp\ccSIna8B.s:32198  .debug_str:00000000000228e7 .LASF3188
C:\Users\CYMR90~1\AppData\Local\Temp\ccSIna8B.s:26049  .debug_str:000000000000a253 .LASF3189
C:\Users\CYMR90~1\AppData\Local\Temp\ccSIna8B.s:26995  .debug_str:000000000000e01b .LASF3190
C:\Users\CYMR90~1\AppData\Local\Temp\ccSIna8B.s:28975  .debug_str:0000000000015bae .LASF3191
C:\Users\CYMR90~1\AppData\Local\Temp\ccSIna8B.s:25085  .debug_str:0000000000006402 .LASF3192
C:\Users\CYMR90~1\AppData\Local\Temp\ccSIna8B.s:30266  .debug_str:000000000001b187 .LASF3193
C:\Users\CYMR90~1\AppData\Local\Temp\ccSIna8B.s:29910  .debug_str:0000000000019951 .LASF3194
C:\Users\CYMR90~1\AppData\Local\Temp\ccSIna8B.s:26499  .debug_str:000000000000bfdc .LASF3195
C:\Users\CYMR90~1\AppData\Local\Temp\ccSIna8B.s:31642  .debug_str:00000000000206dc .LASF3196
C:\Users\CYMR90~1\AppData\Local\Temp\ccSIna8B.s:29460  .debug_str:0000000000017ce4 .LASF3197
C:\Users\CYMR90~1\AppData\Local\Temp\ccSIna8B.s:33680  .debug_str:0000000000028902 .LASF3198
C:\Users\CYMR90~1\AppData\Local\Temp\ccSIna8B.s:31138  .debug_str:000000000001e8e6 .LASF3199
C:\Users\CYMR90~1\AppData\Local\Temp\ccSIna8B.s:30464  .debug_str:000000000001bd46 .LASF3200
C:\Users\CYMR90~1\AppData\Local\Temp\ccSIna8B.s:33562  .debug_str:000000000002807b .LASF3201
C:\Users\CYMR90~1\AppData\Local\Temp\ccSIna8B.s:24015  .debug_str:0000000000001f82 .LASF3202
C:\Users\CYMR90~1\AppData\Local\Temp\ccSIna8B.s:29618  .debug_str:000000000001863a .LASF3203
C:\Users\CYMR90~1\AppData\Local\Temp\ccSIna8B.s:27273  .debug_str:000000000000f0de .LASF3204
C:\Users\CYMR90~1\AppData\Local\Temp\ccSIna8B.s:33200  .debug_str:00000000000268f2 .LASF3205
C:\Users\CYMR90~1\AppData\Local\Temp\ccSIna8B.s:33568  .debug_str:00000000000280df .LASF3206
C:\Users\CYMR90~1\AppData\Local\Temp\ccSIna8B.s:29554  .debug_str:000000000001825c .LASF3207
C:\Users\CYMR90~1\AppData\Local\Temp\ccSIna8B.s:32298  .debug_str:0000000000022f56 .LASF3208
C:\Users\CYMR90~1\AppData\Local\Temp\ccSIna8B.s:23857  .debug_str:00000000000015fa .LASF3209
C:\Users\CYMR90~1\AppData\Local\Temp\ccSIna8B.s:24147  .debug_str:00000000000027f5 .LASF3210
C:\Users\CYMR90~1\AppData\Local\Temp\ccSIna8B.s:34162  .debug_str:000000000002a6c1 .LASF3211
C:\Users\CYMR90~1\AppData\Local\Temp\ccSIna8B.s:25057  .debug_str:000000000000628a .LASF3212
C:\Users\CYMR90~1\AppData\Local\Temp\ccSIna8B.s:28317  .debug_str:00000000000133d1 .LASF3213
C:\Users\CYMR90~1\AppData\Local\Temp\ccSIna8B.s:26861  .debug_str:000000000000d86b .LASF3214
C:\Users\CYMR90~1\AppData\Local\Temp\ccSIna8B.s:31868  .debug_str:000000000002147b .LASF3215
C:\Users\CYMR90~1\AppData\Local\Temp\ccSIna8B.s:29922  .debug_str:0000000000019a53 .LASF3216
C:\Users\CYMR90~1\AppData\Local\Temp\ccSIna8B.s:26027  .debug_str:000000000000a0e8 .LASF3217
C:\Users\CYMR90~1\AppData\Local\Temp\ccSIna8B.s:25779  .debug_str:00000000000091b0 .LASF3218
C:\Users\CYMR90~1\AppData\Local\Temp\ccSIna8B.s:26371  .debug_str:000000000000b6e8 .LASF3219
C:\Users\CYMR90~1\AppData\Local\Temp\ccSIna8B.s:24587  .debug_str:00000000000044bd .LASF3220
C:\Users\CYMR90~1\AppData\Local\Temp\ccSIna8B.s:27755  .debug_str:0000000000010faa .LASF3221
C:\Users\CYMR90~1\AppData\Local\Temp\ccSIna8B.s:29442  .debug_str:0000000000017bd2 .LASF3222
C:\Users\CYMR90~1\AppData\Local\Temp\ccSIna8B.s:25641  .debug_str:00000000000088b5 .LASF3223
C:\Users\CYMR90~1\AppData\Local\Temp\ccSIna8B.s:26449  .debug_str:000000000000bc09 .LASF3224
C:\Users\CYMR90~1\AppData\Local\Temp\ccSIna8B.s:26397  .debug_str:000000000000b8d0 .LASF3225
C:\Users\CYMR90~1\AppData\Local\Temp\ccSIna8B.s:29342  .debug_str:0000000000017587 .LASF3226
C:\Users\CYMR90~1\AppData\Local\Temp\ccSIna8B.s:33284  .debug_str:0000000000026e28 .LASF3227
C:\Users\CYMR90~1\AppData\Local\Temp\ccSIna8B.s:26127  .debug_str:000000000000a6fc .LASF3228
C:\Users\CYMR90~1\AppData\Local\Temp\ccSIna8B.s:24125  .debug_str:00000000000025ef .LASF3229
C:\Users\CYMR90~1\AppData\Local\Temp\ccSIna8B.s:31168  .debug_str:000000000001eacc .LASF3230
C:\Users\CYMR90~1\AppData\Local\Temp\ccSIna8B.s:23823  .debug_str:000000000000145d .LASF3231
C:\Users\CYMR90~1\AppData\Local\Temp\ccSIna8B.s:29732  .debug_str:0000000000018cfe .LASF3232
C:\Users\CYMR90~1\AppData\Local\Temp\ccSIna8B.s:23927  .debug_str:0000000000001a5d .LASF3233
C:\Users\CYMR90~1\AppData\Local\Temp\ccSIna8B.s:34764  .debug_str:000000000002cd75 .LASF3234
C:\Users\CYMR90~1\AppData\Local\Temp\ccSIna8B.s:28893  .debug_str:0000000000015701 .LASF3235
C:\Users\CYMR90~1\AppData\Local\Temp\ccSIna8B.s:32702  .debug_str:00000000000247cc .LASF3236
C:\Users\CYMR90~1\AppData\Local\Temp\ccSIna8B.s:26063  .debug_str:000000000000a327 .LASF3237
C:\Users\CYMR90~1\AppData\Local\Temp\ccSIna8B.s:23951  .debug_str:0000000000001bc9 .LASF3238
C:\Users\CYMR90~1\AppData\Local\Temp\ccSIna8B.s:25079  .debug_str:00000000000063c5 .LASF3239
C:\Users\CYMR90~1\AppData\Local\Temp\ccSIna8B.s:30340  .debug_str:000000000001b633 .LASF3240
C:\Users\CYMR90~1\AppData\Local\Temp\ccSIna8B.s:28439  .debug_str:0000000000013bac .LASF3241
C:\Users\CYMR90~1\AppData\Local\Temp\ccSIna8B.s:25785  .debug_str:0000000000009213 .LASF3242
C:\Users\CYMR90~1\AppData\Local\Temp\ccSIna8B.s:24823  .debug_str:0000000000005409 .LASF3243
C:\Users\CYMR90~1\AppData\Local\Temp\ccSIna8B.s:34256  .debug_str:000000000002acbb .LASF3244
C:\Users\CYMR90~1\AppData\Local\Temp\ccSIna8B.s:26519  .debug_str:000000000000c136 .LASF3245
C:\Users\CYMR90~1\AppData\Local\Temp\ccSIna8B.s:24161  .debug_str:00000000000028cc .LASF3246
C:\Users\CYMR90~1\AppData\Local\Temp\ccSIna8B.s:32158  .debug_str:000000000002267e .LASF3247
C:\Users\CYMR90~1\AppData\Local\Temp\ccSIna8B.s:28797  .debug_str:000000000001519e .LASF3248
C:\Users\CYMR90~1\AppData\Local\Temp\ccSIna8B.s:25353  .debug_str:0000000000007560 .LASF3249
C:\Users\CYMR90~1\AppData\Local\Temp\ccSIna8B.s:30322  .debug_str:000000000001b523 .LASF3250
C:\Users\CYMR90~1\AppData\Local\Temp\ccSIna8B.s:24965  .debug_str:0000000000005cf9 .LASF3251
C:\Users\CYMR90~1\AppData\Local\Temp\ccSIna8B.s:25879  .debug_str:00000000000097c0 .LASF3252
C:\Users\CYMR90~1\AppData\Local\Temp\ccSIna8B.s:34134  .debug_str:000000000002a546 .LASF3253
C:\Users\CYMR90~1\AppData\Local\Temp\ccSIna8B.s:32176  .debug_str:000000000002276f .LASF3254
C:\Users\CYMR90~1\AppData\Local\Temp\ccSIna8B.s:31044  .debug_str:000000000001e36b .LASF3255
C:\Users\CYMR90~1\AppData\Local\Temp\ccSIna8B.s:29542  .debug_str:00000000000181c5 .LASF3256
C:\Users\CYMR90~1\AppData\Local\Temp\ccSIna8B.s:27383  .debug_str:000000000000f78b .LASF3257
C:\Users\CYMR90~1\AppData\Local\Temp\ccSIna8B.s:32174  .debug_str:0000000000022756 .LASF3258
C:\Users\CYMR90~1\AppData\Local\Temp\ccSIna8B.s:33994  .debug_str:0000000000029d21 .LASF3259
C:\Users\CYMR90~1\AppData\Local\Temp\ccSIna8B.s:26917  .debug_str:000000000000dbb0 .LASF3260
C:\Users\CYMR90~1\AppData\Local\Temp\ccSIna8B.s:25217  .debug_str:0000000000006c5f .LASF3261
C:\Users\CYMR90~1\AppData\Local\Temp\ccSIna8B.s:24829  .debug_str:000000000000544d .LASF3262
C:\Users\CYMR90~1\AppData\Local\Temp\ccSIna8B.s:31084  .debug_str:000000000001e59a .LASF3263
C:\Users\CYMR90~1\AppData\Local\Temp\ccSIna8B.s:27095  .debug_str:000000000000e5ff .LASF3264
C:\Users\CYMR90~1\AppData\Local\Temp\ccSIna8B.s:32374  .debug_str:0000000000023353 .LASF3265
C:\Users\CYMR90~1\AppData\Local\Temp\ccSIna8B.s:29400  .debug_str:0000000000017907 .LASF3266
C:\Users\CYMR90~1\AppData\Local\Temp\ccSIna8B.s:32822  .debug_str:0000000000024fd7 .LASF3267
C:\Users\CYMR90~1\AppData\Local\Temp\ccSIna8B.s:32210  .debug_str:00000000000229d2 .LASF3268
C:\Users\CYMR90~1\AppData\Local\Temp\ccSIna8B.s:29456  .debug_str:0000000000017cbb .LASF3269
C:\Users\CYMR90~1\AppData\Local\Temp\ccSIna8B.s:34432  .debug_str:000000000002b796 .LASF3270
C:\Users\CYMR90~1\AppData\Local\Temp\ccSIna8B.s:34732  .debug_str:000000000002cb19 .LASF3271
C:\Users\CYMR90~1\AppData\Local\Temp\ccSIna8B.s:33134  .debug_str:00000000000264c4 .LASF3272
C:\Users\CYMR90~1\AppData\Local\Temp\ccSIna8B.s:24473  .debug_str:0000000000003d03 .LASF3273
C:\Users\CYMR90~1\AppData\Local\Temp\ccSIna8B.s:27317  .debug_str:000000000000f36c .LASF3274
C:\Users\CYMR90~1\AppData\Local\Temp\ccSIna8B.s:24443  .debug_str:0000000000003b2d .LASF3275
C:\Users\CYMR90~1\AppData\Local\Temp\ccSIna8B.s:27875  .debug_str:0000000000011691 .LASF3276
C:\Users\CYMR90~1\AppData\Local\Temp\ccSIna8B.s:27689  .debug_str:0000000000010b38 .LASF3277
C:\Users\CYMR90~1\AppData\Local\Temp\ccSIna8B.s:25187  .debug_str:0000000000006a71 .LASF3278
C:\Users\CYMR90~1\AppData\Local\Temp\ccSIna8B.s:28081  .debug_str:000000000001244b .LASF3279
C:\Users\CYMR90~1\AppData\Local\Temp\ccSIna8B.s:27735  .debug_str:0000000000010df7 .LASF3280
C:\Users\CYMR90~1\AppData\Local\Temp\ccSIna8B.s:25441  .debug_str:0000000000007aff .LASF3281
C:\Users\CYMR90~1\AppData\Local\Temp\ccSIna8B.s:26133  .debug_str:000000000000a746 .LASF3282
C:\Users\CYMR90~1\AppData\Local\Temp\ccSIna8B.s:28563  .debug_str:000000000001433b .LASF3283
C:\Users\CYMR90~1\AppData\Local\Temp\ccSIna8B.s:31090  .debug_str:000000000001e5ee .LASF3284
C:\Users\CYMR90~1\AppData\Local\Temp\ccSIna8B.s:24625  .debug_str:0000000000004761 .LASF3285
C:\Users\CYMR90~1\AppData\Local\Temp\ccSIna8B.s:31640  .debug_str:00000000000206c6 .LASF3286
C:\Users\CYMR90~1\AppData\Local\Temp\ccSIna8B.s:32008  .debug_str:0000000000021dac .LASF3287
C:\Users\CYMR90~1\AppData\Local\Temp\ccSIna8B.s:25937  .debug_str:0000000000009b63 .LASF3288
C:\Users\CYMR90~1\AppData\Local\Temp\ccSIna8B.s:25267  .debug_str:0000000000006f7d .LASF3289
C:\Users\CYMR90~1\AppData\Local\Temp\ccSIna8B.s:25797  .debug_str:000000000000929b .LASF3290
C:\Users\CYMR90~1\AppData\Local\Temp\ccSIna8B.s:24225  .debug_str:0000000000002ce1 .LASF3291
C:\Users\CYMR90~1\AppData\Local\Temp\ccSIna8B.s:34584  .debug_str:000000000002c16d .LASF3292
C:\Users\CYMR90~1\AppData\Local\Temp\ccSIna8B.s:25063  .debug_str:00000000000062dd .LASF3293
C:\Users\CYMR90~1\AppData\Local\Temp\ccSIna8B.s:23623  .debug_str:00000000000007b6 .LASF3294
C:\Users\CYMR90~1\AppData\Local\Temp\ccSIna8B.s:24633  .debug_str:00000000000047f3 .LASF3295
C:\Users\CYMR90~1\AppData\Local\Temp\ccSIna8B.s:24415  .debug_str:0000000000003959 .LASF3296
C:\Users\CYMR90~1\AppData\Local\Temp\ccSIna8B.s:29914  .debug_str:00000000000199b1 .LASF3297
C:\Users\CYMR90~1\AppData\Local\Temp\ccSIna8B.s:31726  .debug_str:0000000000020c36 .LASF3298
C:\Users\CYMR90~1\AppData\Local\Temp\ccSIna8B.s:23555  .debug_str:0000000000000403 .LASF3299
C:\Users\CYMR90~1\AppData\Local\Temp\ccSIna8B.s:31312  .debug_str:000000000001f317 .LASF3300
C:\Users\CYMR90~1\AppData\Local\Temp\ccSIna8B.s:30170  .debug_str:000000000001ab5d .LASF3301
C:\Users\CYMR90~1\AppData\Local\Temp\ccSIna8B.s:31082  .debug_str:000000000001e57a .LASF3302
C:\Users\CYMR90~1\AppData\Local\Temp\ccSIna8B.s:30670  .debug_str:000000000001ca69 .LASF3303
C:\Users\CYMR90~1\AppData\Local\Temp\ccSIna8B.s:29520  .debug_str:000000000001808b .LASF3304
C:\Users\CYMR90~1\AppData\Local\Temp\ccSIna8B.s:28039  .debug_str:000000000001211c .LASF3305
C:\Users\CYMR90~1\AppData\Local\Temp\ccSIna8B.s:26019  .debug_str:000000000000a055 .LASF3306
C:\Users\CYMR90~1\AppData\Local\Temp\ccSIna8B.s:30954  .debug_str:000000000001dd2f .LASF3307
C:\Users\CYMR90~1\AppData\Local\Temp\ccSIna8B.s:34678  .debug_str:000000000002c82a .LASF3308
C:\Users\CYMR90~1\AppData\Local\Temp\ccSIna8B.s:29932  .debug_str:0000000000019b59 .LASF3309
C:\Users\CYMR90~1\AppData\Local\Temp\ccSIna8B.s:30240  .debug_str:000000000001afa3 .LASF3310
C:\Users\CYMR90~1\AppData\Local\Temp\ccSIna8B.s:32748  .debug_str:0000000000024b46 .LASF3311
C:\Users\CYMR90~1\AppData\Local\Temp\ccSIna8B.s:34158  .debug_str:000000000002a68e .LASF3312
C:\Users\CYMR90~1\AppData\Local\Temp\ccSIna8B.s:27923  .debug_str:00000000000119a7 .LASF3313
C:\Users\CYMR90~1\AppData\Local\Temp\ccSIna8B.s:30904  .debug_str:000000000001da77 .LASF3314
C:\Users\CYMR90~1\AppData\Local\Temp\ccSIna8B.s:26993  .debug_str:000000000000e003 .LASF3315
C:\Users\CYMR90~1\AppData\Local\Temp\ccSIna8B.s:33932  .debug_str:000000000002996b .LASF3316
C:\Users\CYMR90~1\AppData\Local\Temp\ccSIna8B.s:25365  .debug_str:0000000000007617 .LASF3317
C:\Users\CYMR90~1\AppData\Local\Temp\ccSIna8B.s:34206  .debug_str:000000000002a9a5 .LASF3318
C:\Users\CYMR90~1\AppData\Local\Temp\ccSIna8B.s:32980  .debug_str:0000000000025b41 .LASF3319
C:\Users\CYMR90~1\AppData\Local\Temp\ccSIna8B.s:24399  .debug_str:0000000000003864 .LASF3320
C:\Users\CYMR90~1\AppData\Local\Temp\ccSIna8B.s:27623  .debug_str:000000000001073f .LASF3321
C:\Users\CYMR90~1\AppData\Local\Temp\ccSIna8B.s:33652  .debug_str:0000000000028716 .LASF3322
C:\Users\CYMR90~1\AppData\Local\Temp\ccSIna8B.s:28105  .debug_str:00000000000125b7 .LASF3323
C:\Users\CYMR90~1\AppData\Local\Temp\ccSIna8B.s:26193  .debug_str:000000000000aadb .LASF3324
C:\Users\CYMR90~1\AppData\Local\Temp\ccSIna8B.s:34490  .debug_str:000000000002bb3d .LASF3325
C:\Users\CYMR90~1\AppData\Local\Temp\ccSIna8B.s:32774  .debug_str:0000000000024c9d .LASF3326
C:\Users\CYMR90~1\AppData\Local\Temp\ccSIna8B.s:29986  .debug_str:0000000000019eae .LASF3327
C:\Users\CYMR90~1\AppData\Local\Temp\ccSIna8B.s:34236  .debug_str:000000000002ab85 .LASF3328
C:\Users\CYMR90~1\AppData\Local\Temp\ccSIna8B.s:29728  .debug_str:0000000000018ca6 .LASF3329
C:\Users\CYMR90~1\AppData\Local\Temp\ccSIna8B.s:34276  .debug_str:000000000002adc9 .LASF3330
C:\Users\CYMR90~1\AppData\Local\Temp\ccSIna8B.s:31834  .debug_str:0000000000021278 .LASF3331
C:\Users\CYMR90~1\AppData\Local\Temp\ccSIna8B.s:33218  .debug_str:0000000000026a32 .LASF3332
C:\Users\CYMR90~1\AppData\Local\Temp\ccSIna8B.s:26839  .debug_str:000000000000d6ca .LASF3333
C:\Users\CYMR90~1\AppData\Local\Temp\ccSIna8B.s:32588  .debug_str:0000000000023fd9 .LASF3334
C:\Users\CYMR90~1\AppData\Local\Temp\ccSIna8B.s:28683  .debug_str:0000000000014a7c .LASF3335
C:\Users\CYMR90~1\AppData\Local\Temp\ccSIna8B.s:27515  .debug_str:00000000000100ff .LASF3336
C:\Users\CYMR90~1\AppData\Local\Temp\ccSIna8B.s:30658  .debug_str:000000000001c8ff .LASF3337
C:\Users\CYMR90~1\AppData\Local\Temp\ccSIna8B.s:33480  .debug_str:0000000000027ac4 .LASF3338
C:\Users\CYMR90~1\AppData\Local\Temp\ccSIna8B.s:24421  .debug_str:00000000000039b5 .LASF3339
C:\Users\CYMR90~1\AppData\Local\Temp\ccSIna8B.s:30886  .debug_str:000000000001d91d .LASF3340
C:\Users\CYMR90~1\AppData\Local\Temp\ccSIna8B.s:33662  .debug_str:00000000000287ba .LASF3341
C:\Users\CYMR90~1\AppData\Local\Temp\ccSIna8B.s:25689  .debug_str:0000000000008bf0 .LASF3342
C:\Users\CYMR90~1\AppData\Local\Temp\ccSIna8B.s:32084  .debug_str:000000000002223b .LASF3343
C:\Users\CYMR90~1\AppData\Local\Temp\ccSIna8B.s:28871  .debug_str:00000000000155c6 .LASF3344
C:\Users\CYMR90~1\AppData\Local\Temp\ccSIna8B.s:25781  .debug_str:00000000000091d4 .LASF3345
C:\Users\CYMR90~1\AppData\Local\Temp\ccSIna8B.s:30796  .debug_str:000000000001d378 .LASF3346
C:\Users\CYMR90~1\AppData\Local\Temp\ccSIna8B.s:28245  .debug_str:0000000000012f0f .LASF3347
C:\Users\CYMR90~1\AppData\Local\Temp\ccSIna8B.s:26255  .debug_str:000000000000aebc .LASF3348
C:\Users\CYMR90~1\AppData\Local\Temp\ccSIna8B.s:30730  .debug_str:000000000001ce3a .LASF3349
C:\Users\CYMR90~1\AppData\Local\Temp\ccSIna8B.s:32844  .debug_str:000000000002512b .LASF3350
C:\Users\CYMR90~1\AppData\Local\Temp\ccSIna8B.s:24711  .debug_str:0000000000004d58 .LASF3351
C:\Users\CYMR90~1\AppData\Local\Temp\ccSIna8B.s:34174  .debug_str:000000000002a788 .LASF3352
C:\Users\CYMR90~1\AppData\Local\Temp\ccSIna8B.s:33044  .debug_str:0000000000025f63 .LASF3353
C:\Users\CYMR90~1\AppData\Local\Temp\ccSIna8B.s:27449  .debug_str:000000000000fca9 .LASF3354
C:\Users\CYMR90~1\AppData\Local\Temp\ccSIna8B.s:30036  .debug_str:000000000001a190 .LASF3355
C:\Users\CYMR90~1\AppData\Local\Temp\ccSIna8B.s:33332  .debug_str:0000000000027160 .LASF3356
C:\Users\CYMR90~1\AppData\Local\Temp\ccSIna8B.s:28135  .debug_str:00000000000127d4 .LASF3357
C:\Users\CYMR90~1\AppData\Local\Temp\ccSIna8B.s:34144  .debug_str:000000000002a5d9 .LASF3358
C:\Users\CYMR90~1\AppData\Local\Temp\ccSIna8B.s:29694  .debug_str:0000000000018aae .LASF3359
C:\Users\CYMR90~1\AppData\Local\Temp\ccSIna8B.s:33410  .debug_str:00000000000276c3 .LASF3360
C:\Users\CYMR90~1\AppData\Local\Temp\ccSIna8B.s:24605  .debug_str:00000000000045e2 .LASF3361
C:\Users\CYMR90~1\AppData\Local\Temp\ccSIna8B.s:27725  .debug_str:0000000000010d1d .LASF3362
C:\Users\CYMR90~1\AppData\Local\Temp\ccSIna8B.s:31064  .debug_str:000000000001e49f .LASF3363
C:\Users\CYMR90~1\AppData\Local\Temp\ccSIna8B.s:28065  .debug_str:000000000001231d .LASF3364
C:\Users\CYMR90~1\AppData\Local\Temp\ccSIna8B.s:27471  .debug_str:000000000000fe3a .LASF3365
C:\Users\CYMR90~1\AppData\Local\Temp\ccSIna8B.s:28243  .debug_str:0000000000012ed6 .LASF3366
C:\Users\CYMR90~1\AppData\Local\Temp\ccSIna8B.s:32306  .debug_str:0000000000022fac .LASF3367
C:\Users\CYMR90~1\AppData\Local\Temp\ccSIna8B.s:29053  .debug_str:000000000001611c .LASF3368
C:\Users\CYMR90~1\AppData\Local\Temp\ccSIna8B.s:30640  .debug_str:000000000001c7b4 .LASF3369
C:\Users\CYMR90~1\AppData\Local\Temp\ccSIna8B.s:26473  .debug_str:000000000000bde0 .LASF3370
C:\Users\CYMR90~1\AppData\Local\Temp\ccSIna8B.s:25475  .debug_str:0000000000007d2a .LASF3371
C:\Users\CYMR90~1\AppData\Local\Temp\ccSIna8B.s:24767  .debug_str:0000000000005099 .LASF3372
C:\Users\CYMR90~1\AppData\Local\Temp\ccSIna8B.s:28195  .debug_str:0000000000012bc9 .LASF3373
C:\Users\CYMR90~1\AppData\Local\Temp\ccSIna8B.s:23779  .debug_str:00000000000011c4 .LASF3374
C:\Users\CYMR90~1\AppData\Local\Temp\ccSIna8B.s:23871  .debug_str:00000000000016dd .LASF3375
C:\Users\CYMR90~1\AppData\Local\Temp\ccSIna8B.s:33614  .debug_str:0000000000028425 .LASF3376
C:\Users\CYMR90~1\AppData\Local\Temp\ccSIna8B.s:30306  .debug_str:000000000001b41e .LASF3377
C:\Users\CYMR90~1\AppData\Local\Temp\ccSIna8B.s:26753  .debug_str:000000000000d0ac .LASF3378
C:\Users\CYMR90~1\AppData\Local\Temp\ccSIna8B.s:28647  .debug_str:0000000000014853 .LASF3379
C:\Users\CYMR90~1\AppData\Local\Temp\ccSIna8B.s:29636  .debug_str:000000000001877d .LASF3380
C:\Users\CYMR90~1\AppData\Local\Temp\ccSIna8B.s:27469  .debug_str:000000000000fe21 .LASF3381
C:\Users\CYMR90~1\AppData\Local\Temp\ccSIna8B.s:31116  .debug_str:000000000001e77d .LASF3382
C:\Users\CYMR90~1\AppData\Local\Temp\ccSIna8B.s:26557  .debug_str:000000000000c394 .LASF3383
C:\Users\CYMR90~1\AppData\Local\Temp\ccSIna8B.s:26131  .debug_str:000000000000a723 .LASF3384
C:\Users\CYMR90~1\AppData\Local\Temp\ccSIna8B.s:29115  .debug_str:0000000000016502 .LASF3385
C:\Users\CYMR90~1\AppData\Local\Temp\ccSIna8B.s:30084  .debug_str:000000000001a46c .LASF3386
C:\Users\CYMR90~1\AppData\Local\Temp\ccSIna8B.s:31378  .debug_str:000000000001f6f7 .LASF3387
C:\Users\CYMR90~1\AppData\Local\Temp\ccSIna8B.s:27545  .debug_str:00000000000102cb .LASF3388
C:\Users\CYMR90~1\AppData\Local\Temp\ccSIna8B.s:34758  .debug_str:000000000002cd05 .LASF3389
C:\Users\CYMR90~1\AppData\Local\Temp\ccSIna8B.s:29444  .debug_str:0000000000017be9 .LASF3390
C:\Users\CYMR90~1\AppData\Local\Temp\ccSIna8B.s:32110  .debug_str:00000000000223d1 .LASF3391
C:\Users\CYMR90~1\AppData\Local\Temp\ccSIna8B.s:26437  .debug_str:000000000000bb65 .LASF3392
C:\Users\CYMR90~1\AppData\Local\Temp\ccSIna8B.s:32388  .debug_str:000000000002341c .LASF3393
C:\Users\CYMR90~1\AppData\Local\Temp\ccSIna8B.s:28527  .debug_str:00000000000140dc .LASF3394
C:\Users\CYMR90~1\AppData\Local\Temp\ccSIna8B.s:31266  .debug_str:000000000001f01a .LASF3395
C:\Users\CYMR90~1\AppData\Local\Temp\ccSIna8B.s:27301  .debug_str:000000000000f290 .LASF3396
C:\Users\CYMR90~1\AppData\Local\Temp\ccSIna8B.s:34138  .debug_str:000000000002a57b .LASF3397
C:\Users\CYMR90~1\AppData\Local\Temp\ccSIna8B.s:27621  .debug_str:0000000000010728 .LASF3398
C:\Users\CYMR90~1\AppData\Local\Temp\ccSIna8B.s:33742  .debug_str:0000000000028d3d .LASF3399
C:\Users\CYMR90~1\AppData\Local\Temp\ccSIna8B.s:28811  .debug_str:0000000000015281 .LASF3400
C:\Users\CYMR90~1\AppData\Local\Temp\ccSIna8B.s:27951  .debug_str:0000000000011c07 .LASF3401
C:\Users\CYMR90~1\AppData\Local\Temp\ccSIna8B.s:25821  .debug_str:0000000000009421 .LASF3402
C:\Users\CYMR90~1\AppData\Local\Temp\ccSIna8B.s:25397  .debug_str:0000000000007824 .LASF3403
C:\Users\CYMR90~1\AppData\Local\Temp\ccSIna8B.s:34884  .debug_str:000000000002d4dc .LASF3404
C:\Users\CYMR90~1\AppData\Local\Temp\ccSIna8B.s:24561  .debug_str:0000000000004312 .LASF3405
C:\Users\CYMR90~1\AppData\Local\Temp\ccSIna8B.s:34404  .debug_str:000000000002b561 .LASF3406
C:\Users\CYMR90~1\AppData\Local\Temp\ccSIna8B.s:26913  .debug_str:000000000000db78 .LASF3407
C:\Users\CYMR90~1\AppData\Local\Temp\ccSIna8B.s:29614  .debug_str:0000000000018603 .LASF3408
C:\Users\CYMR90~1\AppData\Local\Temp\ccSIna8B.s:29051  .debug_str:0000000000016104 .LASF3409
C:\Users\CYMR90~1\AppData\Local\Temp\ccSIna8B.s:32400  .debug_str:00000000000234b3 .LASF3410
C:\Users\CYMR90~1\AppData\Local\Temp\ccSIna8B.s:23791  .debug_str:000000000000126a .LASF3411
C:\Users\CYMR90~1\AppData\Local\Temp\ccSIna8B.s:24725  .debug_str:0000000000004e47 .LASF3412
C:\Users\CYMR90~1\AppData\Local\Temp\ccSIna8B.s:32258  .debug_str:0000000000022c8f .LASF3413
C:\Users\CYMR90~1\AppData\Local\Temp\ccSIna8B.s:24983  .debug_str:0000000000005df5 .LASF3414
C:\Users\CYMR90~1\AppData\Local\Temp\ccSIna8B.s:32574  .debug_str:0000000000023f0e .LASF3415
C:\Users\CYMR90~1\AppData\Local\Temp\ccSIna8B.s:33008  .debug_str:0000000000025d35 .LASF3416
C:\Users\CYMR90~1\AppData\Local\Temp\ccSIna8B.s:31712  .debug_str:0000000000020b7f .LASF3417
C:\Users\CYMR90~1\AppData\Local\Temp\ccSIna8B.s:28959  .debug_str:0000000000015acd .LASF3418
C:\Users\CYMR90~1\AppData\Local\Temp\ccSIna8B.s:28699  .debug_str:0000000000014b55 .LASF3419
C:\Users\CYMR90~1\AppData\Local\Temp\ccSIna8B.s:29436  .debug_str:0000000000017b70 .LASF3420
C:\Users\CYMR90~1\AppData\Local\Temp\ccSIna8B.s:31606  .debug_str:0000000000020488 .LASF3421
C:\Users\CYMR90~1\AppData\Local\Temp\ccSIna8B.s:25361  .debug_str:00000000000075e9 .LASF3422
C:\Users\CYMR90~1\AppData\Local\Temp\ccSIna8B.s:23549  .debug_str:00000000000003aa .LASF3423
C:\Users\CYMR90~1\AppData\Local\Temp\ccSIna8B.s:33766  .debug_str:0000000000028ec4 .LASF3424
C:\Users\CYMR90~1\AppData\Local\Temp\ccSIna8B.s:23685  .debug_str:0000000000000bf0 .LASF3425
C:\Users\CYMR90~1\AppData\Local\Temp\ccSIna8B.s:32090  .debug_str:00000000000222af .LASF3426
C:\Users\CYMR90~1\AppData\Local\Temp\ccSIna8B.s:28155  .debug_str:0000000000012930 .LASF3427
C:\Users\CYMR90~1\AppData\Local\Temp\ccSIna8B.s:28507  .debug_str:0000000000013fa3 .LASF3428
C:\Users\CYMR90~1\AppData\Local\Temp\ccSIna8B.s:26777  .debug_str:000000000000d237 .LASF3429
C:\Users\CYMR90~1\AppData\Local\Temp\ccSIna8B.s:32390  .debug_str:0000000000023442 .LASF3430
C:\Users\CYMR90~1\AppData\Local\Temp\ccSIna8B.s:30348  .debug_str:000000000001b6be .LASF3431
C:\Users\CYMR90~1\AppData\Local\Temp\ccSIna8B.s:29113  .debug_str:00000000000164e5 .LASF3432
C:\Users\CYMR90~1\AppData\Local\Temp\ccSIna8B.s:32842  .debug_str:000000000002510d .LASF3433
C:\Users\CYMR90~1\AppData\Local\Temp\ccSIna8B.s:27435  .debug_str:000000000000fbef .LASF3434
C:\Users\CYMR90~1\AppData\Local\Temp\ccSIna8B.s:32304  .debug_str:0000000000022f90 .LASF3435
C:\Users\CYMR90~1\AppData\Local\Temp\ccSIna8B.s:28335  .debug_str:00000000000134e5 .LASF3436
C:\Users\CYMR90~1\AppData\Local\Temp\ccSIna8B.s:30838  .debug_str:000000000001d601 .LASF3437
C:\Users\CYMR90~1\AppData\Local\Temp\ccSIna8B.s:33528  .debug_str:0000000000027e25 .LASF3438
C:\Users\CYMR90~1\AppData\Local\Temp\ccSIna8B.s:34798  .debug_str:000000000002cf80 .LASF3439
C:\Users\CYMR90~1\AppData\Local\Temp\ccSIna8B.s:23935  .debug_str:0000000000001ad7 .LASF3440
C:\Users\CYMR90~1\AppData\Local\Temp\ccSIna8B.s:24489  .debug_str:0000000000003e10 .LASF3441
C:\Users\CYMR90~1\AppData\Local\Temp\ccSIna8B.s:34480  .debug_str:000000000002ba95 .LASF3442
C:\Users\CYMR90~1\AppData\Local\Temp\ccSIna8B.s:26283  .debug_str:000000000000b13c .LASF3443
C:\Users\CYMR90~1\AppData\Local\Temp\ccSIna8B.s:28501  .debug_str:0000000000013f55 .LASF3444
C:\Users\CYMR90~1\AppData\Local\Temp\ccSIna8B.s:24759  .debug_str:0000000000005039 .LASF3445
C:\Users\CYMR90~1\AppData\Local\Temp\ccSIna8B.s:26165  .debug_str:000000000000a8fa .LASF3446
C:\Users\CYMR90~1\AppData\Local\Temp\ccSIna8B.s:24961  .debug_str:0000000000005cc2 .LASF3447
C:\Users\CYMR90~1\AppData\Local\Temp\ccSIna8B.s:26379  .debug_str:000000000000b778 .LASF3448
C:\Users\CYMR90~1\AppData\Local\Temp\ccSIna8B.s:24891  .debug_str:000000000000581e .LASF3449
C:\Users\CYMR90~1\AppData\Local\Temp\ccSIna8B.s:28057  .debug_str:0000000000012291 .LASF3450
C:\Users\CYMR90~1\AppData\Local\Temp\ccSIna8B.s:33518  .debug_str:0000000000027d88 .LASF3451
C:\Users\CYMR90~1\AppData\Local\Temp\ccSIna8B.s:29872  .debug_str:00000000000196f6 .LASF3452
C:\Users\CYMR90~1\AppData\Local\Temp\ccSIna8B.s:28645  .debug_str:0000000000014818 .LASF3453
C:\Users\CYMR90~1\AppData\Local\Temp\ccSIna8B.s:34832  .debug_str:000000000002d1df .LASF3454
C:\Users\CYMR90~1\AppData\Local\Temp\ccSIna8B.s:31346  .debug_str:000000000001f51f .LASF3455
C:\Users\CYMR90~1\AppData\Local\Temp\ccSIna8B.s:26285  .debug_str:000000000000b15c .LASF3456
C:\Users\CYMR90~1\AppData\Local\Temp\ccSIna8B.s:25369  .debug_str:000000000000764c .LASF3457
C:\Users\CYMR90~1\AppData\Local\Temp\ccSIna8B.s:32440  .debug_str:0000000000023722 .LASF3458
C:\Users\CYMR90~1\AppData\Local\Temp\ccSIna8B.s:29007  .debug_str:0000000000015dcb .LASF3459
C:\Users\CYMR90~1\AppData\Local\Temp\ccSIna8B.s:25605  .debug_str:00000000000086bb .LASF3460
C:\Users\CYMR90~1\AppData\Local\Temp\ccSIna8B.s:29560  .debug_str:0000000000018295 .LASF3461
C:\Users\CYMR90~1\AppData\Local\Temp\ccSIna8B.s:34542  .debug_str:000000000002be92 .LASF3462
C:\Users\CYMR90~1\AppData\Local\Temp\ccSIna8B.s:33080  .debug_str:000000000002617c .LASF3463
C:\Users\CYMR90~1\AppData\Local\Temp\ccSIna8B.s:23889  .debug_str:000000000000180c .LASF3464
C:\Users\CYMR90~1\AppData\Local\Temp\ccSIna8B.s:24933  .debug_str:0000000000005ab2 .LASF3465
C:\Users\CYMR90~1\AppData\Local\Temp\ccSIna8B.s:31124  .debug_str:000000000001e7c9 .LASF3466
C:\Users\CYMR90~1\AppData\Local\Temp\ccSIna8B.s:31354  .debug_str:000000000001f59d .LASF3467
C:\Users\CYMR90~1\AppData\Local\Temp\ccSIna8B.s:32486  .debug_str:0000000000023a31 .LASF3468
C:\Users\CYMR90~1\AppData\Local\Temp\ccSIna8B.s:23885  .debug_str:00000000000017c5 .LASF3469
C:\Users\CYMR90~1\AppData\Local\Temp\ccSIna8B.s:29672  .debug_str:0000000000018978 .LASF3470
C:\Users\CYMR90~1\AppData\Local\Temp\ccSIna8B.s:34780  .debug_str:000000000002ce63 .LASF3471
C:\Users\CYMR90~1\AppData\Local\Temp\ccSIna8B.s:26351  .debug_str:000000000000b524 .LASF3472
C:\Users\CYMR90~1\AppData\Local\Temp\ccSIna8B.s:29540  .debug_str:00000000000181a5 .LASF3473
C:\Users\CYMR90~1\AppData\Local\Temp\ccSIna8B.s:23825  .debug_str:0000000000001470 .LASF3474
C:\Users\CYMR90~1\AppData\Local\Temp\ccSIna8B.s:27763  .debug_str:000000000001100a .LASF3475
C:\Users\CYMR90~1\AppData\Local\Temp\ccSIna8B.s:26567  .debug_str:000000000000c424 .LASF3476
C:\Users\CYMR90~1\AppData\Local\Temp\ccSIna8B.s:26843  .debug_str:000000000000d715 .LASF3477
C:\Users\CYMR90~1\AppData\Local\Temp\ccSIna8B.s:34538  .debug_str:000000000002be47 .LASF3478
C:\Users\CYMR90~1\AppData\Local\Temp\ccSIna8B.s:31554  .debug_str:00000000000201b8 .LASF3479
C:\Users\CYMR90~1\AppData\Local\Temp\ccSIna8B.s:27331  .debug_str:000000000000f463 .LASF3480
C:\Users\CYMR90~1\AppData\Local\Temp\ccSIna8B.s:33006  .debug_str:0000000000025d0d .LASF3481
C:\Users\CYMR90~1\AppData\Local\Temp\ccSIna8B.s:31938  .debug_str:000000000002195a .LASF3482
C:\Users\CYMR90~1\AppData\Local\Temp\ccSIna8B.s:27583  .debug_str:00000000000104f0 .LASF3483
C:\Users\CYMR90~1\AppData\Local\Temp\ccSIna8B.s:31552  .debug_str:0000000000020191 .LASF3484
C:\Users\CYMR90~1\AppData\Local\Temp\ccSIna8B.s:28655  .debug_str:00000000000148fd .LASF3485
C:\Users\CYMR90~1\AppData\Local\Temp\ccSIna8B.s:34414  .debug_str:000000000002b654 .LASF3486
C:\Users\CYMR90~1\AppData\Local\Temp\ccSIna8B.s:23563  .debug_str:000000000000046d .LASF3487
C:\Users\CYMR90~1\AppData\Local\Temp\ccSIna8B.s:31582  .debug_str:0000000000020334 .LASF3488
C:\Users\CYMR90~1\AppData\Local\Temp\ccSIna8B.s:33140  .debug_str:0000000000026523 .LASF3489
C:\Users\CYMR90~1\AppData\Local\Temp\ccSIna8B.s:34834  .debug_str:000000000002d206 .LASF3490
C:\Users\CYMR90~1\AppData\Local\Temp\ccSIna8B.s:25999  .debug_str:0000000000009f37 .LASF3491
C:\Users\CYMR90~1\AppData\Local\Temp\ccSIna8B.s:29912  .debug_str:0000000000019974 .LASF3492
C:\Users\CYMR90~1\AppData\Local\Temp\ccSIna8B.s:27307  .debug_str:000000000000f2d6 .LASF3493
C:\Users\CYMR90~1\AppData\Local\Temp\ccSIna8B.s:31264  .debug_str:000000000001effc .LASF3494
C:\Users\CYMR90~1\AppData\Local\Temp\ccSIna8B.s:34708  .debug_str:000000000002c9ce .LASF3495
C:\Users\CYMR90~1\AppData\Local\Temp\ccSIna8B.s:34338  .debug_str:000000000002b19a .LASF3496
C:\Users\CYMR90~1\AppData\Local\Temp\ccSIna8B.s:30498  .debug_str:000000000001bfb2 .LASF3497
C:\Users\CYMR90~1\AppData\Local\Temp\ccSIna8B.s:24477  .debug_str:0000000000003d51 .LASF3498
C:\Users\CYMR90~1\AppData\Local\Temp\ccSIna8B.s:26267  .debug_str:000000000000afa7 .LASF3499
C:\Users\CYMR90~1\AppData\Local\Temp\ccSIna8B.s:27327  .debug_str:000000000000f415 .LASF3500
C:\Users\CYMR90~1\AppData\Local\Temp\ccSIna8B.s:32018  .debug_str:0000000000021e41 .LASF3501
C:\Users\CYMR90~1\AppData\Local\Temp\ccSIna8B.s:29221  .debug_str:0000000000016cc3 .LASF3502
C:\Users\CYMR90~1\AppData\Local\Temp\ccSIna8B.s:31024  .debug_str:000000000001e20f .LASF3503
C:\Users\CYMR90~1\AppData\Local\Temp\ccSIna8B.s:30258  .debug_str:000000000001b0a9 .LASF3504
C:\Users\CYMR90~1\AppData\Local\Temp\ccSIna8B.s:32044  .debug_str:0000000000021fe4 .LASF3505
C:\Users\CYMR90~1\AppData\Local\Temp\ccSIna8B.s:26233  .debug_str:000000000000ad6e .LASF3506
C:\Users\CYMR90~1\AppData\Local\Temp\ccSIna8B.s:28621  .debug_str:000000000001468d .LASF3507
C:\Users\CYMR90~1\AppData\Local\Temp\ccSIna8B.s:25031  .debug_str:00000000000060cd .LASF3508
C:\Users\CYMR90~1\AppData\Local\Temp\ccSIna8B.s:31770  .debug_str:0000000000020f24 .LASF3509
C:\Users\CYMR90~1\AppData\Local\Temp\ccSIna8B.s:28231  .debug_str:0000000000012e10 .LASF3510
C:\Users\CYMR90~1\AppData\Local\Temp\ccSIna8B.s:30326  .debug_str:000000000001b55d .LASF3511
C:\Users\CYMR90~1\AppData\Local\Temp\ccSIna8B.s:30198  .debug_str:000000000001ad1b .LASF3512
C:\Users\CYMR90~1\AppData\Local\Temp\ccSIna8B.s:24779  .debug_str:0000000000005172 .LASF3513
C:\Users\CYMR90~1\AppData\Local\Temp\ccSIna8B.s:31632  .debug_str:0000000000020629 .LASF3514
C:\Users\CYMR90~1\AppData\Local\Temp\ccSIna8B.s:28303  .debug_str:00000000000132da .LASF3515
C:\Users\CYMR90~1\AppData\Local\Temp\ccSIna8B.s:26107  .debug_str:000000000000a5d5 .LASF3516
C:\Users\CYMR90~1\AppData\Local\Temp\ccSIna8B.s:30660  .debug_str:000000000001c924 .LASF3517
C:\Users\CYMR90~1\AppData\Local\Temp\ccSIna8B.s:25301  .debug_str:00000000000071a0 .LASF3518
C:\Users\CYMR90~1\AppData\Local\Temp\ccSIna8B.s:33326  .debug_str:00000000000270ea .LASF3519
C:\Users\CYMR90~1\AppData\Local\Temp\ccSIna8B.s:24691  .debug_str:0000000000004c19 .LASF3520
C:\Users\CYMR90~1\AppData\Local\Temp\ccSIna8B.s:25029  .debug_str:00000000000060bc .LASF3521
C:\Users\CYMR90~1\AppData\Local\Temp\ccSIna8B.s:23999  .debug_str:0000000000001e99 .LASF3522
C:\Users\CYMR90~1\AppData\Local\Temp\ccSIna8B.s:30998  .debug_str:000000000001e0a4 .LASF3523
C:\Users\CYMR90~1\AppData\Local\Temp\ccSIna8B.s:29330  .debug_str:00000000000174e1 .LASF3524
C:\Users\CYMR90~1\AppData\Local\Temp\ccSIna8B.s:30374  .debug_str:000000000001b830 .LASF3525
C:\Users\CYMR90~1\AppData\Local\Temp\ccSIna8B.s:27007  .debug_str:000000000000e12a .LASF3526
C:\Users\CYMR90~1\AppData\Local\Temp\ccSIna8B.s:31764  .debug_str:0000000000020ece .LASF3527
C:\Users\CYMR90~1\AppData\Local\Temp\ccSIna8B.s:32638  .debug_str:00000000000243ec .LASF3528
C:\Users\CYMR90~1\AppData\Local\Temp\ccSIna8B.s:33530  .debug_str:0000000000027e3c .LASF3529
C:\Users\CYMR90~1\AppData\Local\Temp\ccSIna8B.s:31892  .debug_str:0000000000021693 .LASF3530
C:\Users\CYMR90~1\AppData\Local\Temp\ccSIna8B.s:33164  .debug_str:0000000000026679 .LASF3531
C:\Users\CYMR90~1\AppData\Local\Temp\ccSIna8B.s:25319  .debug_str:000000000000730e .LASF3532
C:\Users\CYMR90~1\AppData\Local\Temp\ccSIna8B.s:30386  .debug_str:000000000001b907 .LASF3533
C:\Users\CYMR90~1\AppData\Local\Temp\ccSIna8B.s:24091  .debug_str:000000000000239a .LASF3534
C:\Users\CYMR90~1\AppData\Local\Temp\ccSIna8B.s:32918  .debug_str:0000000000025670 .LASF3535
C:\Users\CYMR90~1\AppData\Local\Temp\ccSIna8B.s:26571  .debug_str:000000000000c469 .LASF3536
C:\Users\CYMR90~1\AppData\Local\Temp\ccSIna8B.s:29087  .debug_str:0000000000016358 .LASF3537
C:\Users\CYMR90~1\AppData\Local\Temp\ccSIna8B.s:33360  .debug_str:00000000000272e6 .LASF3538
C:\Users\CYMR90~1\AppData\Local\Temp\ccSIna8B.s:26221  .debug_str:000000000000ac9e .LASF3539
C:\Users\CYMR90~1\AppData\Local\Temp\ccSIna8B.s:27083  .debug_str:000000000000e568 .LASF3540
C:\Users\CYMR90~1\AppData\Local\Temp\ccSIna8B.s:24695  .debug_str:0000000000004c68 .LASF3541
C:\Users\CYMR90~1\AppData\Local\Temp\ccSIna8B.s:23679  .debug_str:0000000000000b76 .LASF3542
C:\Users\CYMR90~1\AppData\Local\Temp\ccSIna8B.s:32054  .debug_str:0000000000022088 .LASF3543
C:\Users\CYMR90~1\AppData\Local\Temp\ccSIna8B.s:26239  .debug_str:000000000000adc3 .LASF3544
C:\Users\CYMR90~1\AppData\Local\Temp\ccSIna8B.s:24391  .debug_str:00000000000037c4 .LASF3545
C:\Users\CYMR90~1\AppData\Local\Temp\ccSIna8B.s:23855  .debug_str:00000000000015e2 .LASF3546
C:\Users\CYMR90~1\AppData\Local\Temp\ccSIna8B.s:29638  .debug_str:0000000000018796 .LASF3547
C:\Users\CYMR90~1\AppData\Local\Temp\ccSIna8B.s:29109  .debug_str:00000000000164a5 .LASF3548
C:\Users\CYMR90~1\AppData\Local\Temp\ccSIna8B.s:28293  .debug_str:0000000000013236 .LASF3549
C:\Users\CYMR90~1\AppData\Local\Temp\ccSIna8B.s:29992  .debug_str:0000000000019f21 .LASF3550
C:\Users\CYMR90~1\AppData\Local\Temp\ccSIna8B.s:34302  .debug_str:000000000002af60 .LASF3551
C:\Users\CYMR90~1\AppData\Local\Temp\ccSIna8B.s:29173  .debug_str:00000000000168e4 .LASF3552
C:\Users\CYMR90~1\AppData\Local\Temp\ccSIna8B.s:32322  .debug_str:00000000000230a2 .LASF3553
C:\Users\CYMR90~1\AppData\Local\Temp\ccSIna8B.s:30282  .debug_str:000000000001b27e .LASF3554
C:\Users\CYMR90~1\AppData\Local\Temp\ccSIna8B.s:33194  .debug_str:0000000000026893 .LASF3555
C:\Users\CYMR90~1\AppData\Local\Temp\ccSIna8B.s:25541  .debug_str:00000000000082b6 .LASF3556
C:\Users\CYMR90~1\AppData\Local\Temp\ccSIna8B.s:24211  .debug_str:0000000000002bdf .LASF3557
C:\Users\CYMR90~1\AppData\Local\Temp\ccSIna8B.s:31978  .debug_str:0000000000021bb5 .LASF3558
C:\Users\CYMR90~1\AppData\Local\Temp\ccSIna8B.s:31302  .debug_str:000000000001f283 .LASF3559
C:\Users\CYMR90~1\AppData\Local\Temp\ccSIna8B.s:31598  .debug_str:000000000002041c .LASF3560
C:\Users\CYMR90~1\AppData\Local\Temp\ccSIna8B.s:32140  .debug_str:0000000000022582 .LASF3561
C:\Users\CYMR90~1\AppData\Local\Temp\ccSIna8B.s:27723  .debug_str:0000000000010d05 .LASF3562
C:\Users\CYMR90~1\AppData\Local\Temp\ccSIna8B.s:25995  .debug_str:0000000000009efc .LASF3563
C:\Users\CYMR90~1\AppData\Local\Temp\ccSIna8B.s:34464  .debug_str:000000000002b9cc .LASF3564
C:\Users\CYMR90~1\AppData\Local\Temp\ccSIna8B.s:34290  .debug_str:000000000002ae9f .LASF3565
C:\Users\CYMR90~1\AppData\Local\Temp\ccSIna8B.s:30974  .debug_str:000000000001def5 .LASF3566
C:\Users\CYMR90~1\AppData\Local\Temp\ccSIna8B.s:23661  .debug_str:00000000000009f4 .LASF3567
C:\Users\CYMR90~1\AppData\Local\Temp\ccSIna8B.s:33290  .debug_str:0000000000026e72 .LASF3568
C:\Users\CYMR90~1\AppData\Local\Temp\ccSIna8B.s:27501  .debug_str:0000000000010030 .LASF3569
C:\Users\CYMR90~1\AppData\Local\Temp\ccSIna8B.s:34770  .debug_str:000000000002cdac .LASF3570
C:\Users\CYMR90~1\AppData\Local\Temp\ccSIna8B.s:29804  .debug_str:00000000000192d5 .LASF3571
C:\Users\CYMR90~1\AppData\Local\Temp\ccSIna8B.s:34400  .debug_str:000000000002b51e .LASF3572
C:\Users\CYMR90~1\AppData\Local\Temp\ccSIna8B.s:29848  .debug_str:000000000001956d .LASF3573
C:\Users\CYMR90~1\AppData\Local\Temp\ccSIna8B.s:32124  .debug_str:00000000000224ca .LASF3574
C:\Users\CYMR90~1\AppData\Local\Temp\ccSIna8B.s:28557  .debug_str:00000000000142b7 .LASF3575
C:\Users\CYMR90~1\AppData\Local\Temp\ccSIna8B.s:26671  .debug_str:000000000000cb05 .LASF3576
C:\Users\CYMR90~1\AppData\Local\Temp\ccSIna8B.s:24275  .debug_str:0000000000002fe7 .LASF3577
C:\Users\CYMR90~1\AppData\Local\Temp\ccSIna8B.s:30164  .debug_str:000000000001ab09 .LASF3578
C:\Users\CYMR90~1\AppData\Local\Temp\ccSIna8B.s:31384  .debug_str:000000000001f74f .LASF3579
C:\Users\CYMR90~1\AppData\Local\Temp\ccSIna8B.s:34096  .debug_str:000000000002a317 .LASF3580
C:\Users\CYMR90~1\AppData\Local\Temp\ccSIna8B.s:33278  .debug_str:0000000000026ddf .LASF3581
C:\Users\CYMR90~1\AppData\Local\Temp\ccSIna8B.s:32188  .debug_str:000000000002283f .LASF3582
C:\Users\CYMR90~1\AppData\Local\Temp\ccSIna8B.s:32860  .debug_str:00000000000251f7 .LASF3583
C:\Users\CYMR90~1\AppData\Local\Temp\ccSIna8B.s:30972  .debug_str:000000000001ded9 .LASF3584
C:\Users\CYMR90~1\AppData\Local\Temp\ccSIna8B.s:31034  .debug_str:000000000001e2a5 .LASF3585
C:\Users\CYMR90~1\AppData\Local\Temp\ccSIna8B.s:30072  .debug_str:000000000001a3b9 .LASF3586
C:\Users\CYMR90~1\AppData\Local\Temp\ccSIna8B.s:23557  .debug_str:0000000000000420 .LASF3587
C:\Users\CYMR90~1\AppData\Local\Temp\ccSIna8B.s:29424  .debug_str:0000000000017a8f .LASF3588
C:\Users\CYMR90~1\AppData\Local\Temp\ccSIna8B.s:33050  .debug_str:0000000000025fb9 .LASF3589
C:\Users\CYMR90~1\AppData\Local\Temp\ccSIna8B.s:24811  .debug_str:0000000000005353 .LASF3590
C:\Users\CYMR90~1\AppData\Local\Temp\ccSIna8B.s:23901  .debug_str:00000000000018e1 .LASF3591
C:\Users\CYMR90~1\AppData\Local\Temp\ccSIna8B.s:28967  .debug_str:0000000000015b34 .LASF3592
C:\Users\CYMR90~1\AppData\Local\Temp\ccSIna8B.s:27403  .debug_str:000000000000f93a .LASF3593
C:\Users\CYMR90~1\AppData\Local\Temp\ccSIna8B.s:25913  .debug_str:00000000000099c3 .LASF3594
C:\Users\CYMR90~1\AppData\Local\Temp\ccSIna8B.s:31050  .debug_str:000000000001e3cf .LASF3595
C:\Users\CYMR90~1\AppData\Local\Temp\ccSIna8B.s:23991  .debug_str:0000000000001e23 .LASF3596
C:\Users\CYMR90~1\AppData\Local\Temp\ccSIna8B.s:31364  .debug_str:000000000001f64d .LASF3597
C:\Users\CYMR90~1\AppData\Local\Temp\ccSIna8B.s:25889  .debug_str:0000000000009861 .LASF3598
C:\Users\CYMR90~1\AppData\Local\Temp\ccSIna8B.s:29548  .debug_str:0000000000018220 .LASF3599
C:\Users\CYMR90~1\AppData\Local\Temp\ccSIna8B.s:33152  .debug_str:00000000000265c9 .LASF3600
C:\Users\CYMR90~1\AppData\Local\Temp\ccSIna8B.s:28731  .debug_str:0000000000014d49 .LASF3601
C:\Users\CYMR90~1\AppData\Local\Temp\ccSIna8B.s:31108  .debug_str:000000000001e722 .LASF3602
C:\Users\CYMR90~1\AppData\Local\Temp\ccSIna8B.s:34660  .debug_str:000000000002c685 .LASF3603
C:\Users\CYMR90~1\AppData\Local\Temp\ccSIna8B.s:27355  .debug_str:000000000000f603 .LASF3604
C:\Users\CYMR90~1\AppData\Local\Temp\ccSIna8B.s:31406  .debug_str:000000000001f8a2 .LASF3605
C:\Users\CYMR90~1\AppData\Local\Temp\ccSIna8B.s:24681  .debug_str:0000000000004b7b .LASF3606
C:\Users\CYMR90~1\AppData\Local\Temp\ccSIna8B.s:31298  .debug_str:000000000001f24f .LASF3607
C:\Users\CYMR90~1\AppData\Local\Temp\ccSIna8B.s:27053  .debug_str:000000000000e3c2 .LASF3608
C:\Users\CYMR90~1\AppData\Local\Temp\ccSIna8B.s:34418  .debug_str:000000000002b6a1 .LASF3609
C:\Users\CYMR90~1\AppData\Local\Temp\ccSIna8B.s:31968  .debug_str:0000000000021b39 .LASF3610
C:\Users\CYMR90~1\AppData\Local\Temp\ccSIna8B.s:29312  .debug_str:00000000000173c0 .LASF3611
C:\Users\CYMR90~1\AppData\Local\Temp\ccSIna8B.s:30848  .debug_str:000000000001d6ae .LASF3612
C:\Users\CYMR90~1\AppData\Local\Temp\ccSIna8B.s:29362  .debug_str:000000000001769a .LASF3613
C:\Users\CYMR90~1\AppData\Local\Temp\ccSIna8B.s:32878  .debug_str:000000000002537f .LASF3614
C:\Users\CYMR90~1\AppData\Local\Temp\ccSIna8B.s:30996  .debug_str:000000000001e085 .LASF3615
C:\Users\CYMR90~1\AppData\Local\Temp\ccSIna8B.s:31940  .debug_str:0000000000021999 .LASF3616
C:\Users\CYMR90~1\AppData\Local\Temp\ccSIna8B.s:27609  .debug_str:0000000000010675 .LASF3617
C:\Users\CYMR90~1\AppData\Local\Temp\ccSIna8B.s:28753  .debug_str:0000000000014ead .LASF3618
C:\Users\CYMR90~1\AppData\Local\Temp\ccSIna8B.s:34790  .debug_str:000000000002cf22 .LASF3619
C:\Users\CYMR90~1\AppData\Local\Temp\ccSIna8B.s:26765  .debug_str:000000000000d190 .LASF3620
C:\Users\CYMR90~1\AppData\Local\Temp\ccSIna8B.s:29600  .debug_str:000000000001853d .LASF3621
C:\Users\CYMR90~1\AppData\Local\Temp\ccSIna8B.s:25917  .debug_str:00000000000099f5 .LASF3622
C:\Users\CYMR90~1\AppData\Local\Temp\ccSIna8B.s:33150  .debug_str:00000000000265ac .LASF3623
C:\Users\CYMR90~1\AppData\Local\Temp\ccSIna8B.s:34232  .debug_str:000000000002ab45 .LASF3624
C:\Users\CYMR90~1\AppData\Local\Temp\ccSIna8B.s:26459  .debug_str:000000000000bcb3 .LASF3625
C:\Users\CYMR90~1\AppData\Local\Temp\ccSIna8B.s:33638  .debug_str:0000000000028634 .LASF3626
C:\Users\CYMR90~1\AppData\Local\Temp\ccSIna8B.s:30504  .debug_str:000000000001c02a .LASF3627
C:\Users\CYMR90~1\AppData\Local\Temp\ccSIna8B.s:34102  .debug_str:000000000002a357 .LASF3628
C:\Users\CYMR90~1\AppData\Local\Temp\ccSIna8B.s:24063  .debug_str:0000000000002225 .LASF3629
C:\Users\CYMR90~1\AppData\Local\Temp\ccSIna8B.s:33206  .debug_str:000000000002696e .LASF3630
C:\Users\CYMR90~1\AppData\Local\Temp\ccSIna8B.s:29944  .debug_str:0000000000019c35 .LASF3631
C:\Users\CYMR90~1\AppData\Local\Temp\ccSIna8B.s:29866  .debug_str:00000000000196a1 .LASF3632
C:\Users\CYMR90~1\AppData\Local\Temp\ccSIna8B.s:30286  .debug_str:000000000001b2a0 .LASF3633
C:\Users\CYMR90~1\AppData\Local\Temp\ccSIna8B.s:24071  .debug_str:000000000000228f .LASF3634
C:\Users\CYMR90~1\AppData\Local\Temp\ccSIna8B.s:33558  .debug_str:000000000002804b .LASF3635
C:\Users\CYMR90~1\AppData\Local\Temp\ccSIna8B.s:30934  .debug_str:000000000001dc39 .LASF3636
C:\Users\CYMR90~1\AppData\Local\Temp\ccSIna8B.s:32898  .debug_str:000000000002553e .LASF3637
C:\Users\CYMR90~1\AppData\Local\Temp\ccSIna8B.s:32190  .debug_str:000000000002285b .LASF3638
C:\Users\CYMR90~1\AppData\Local\Temp\ccSIna8B.s:31724  .debug_str:0000000000020c1d .LASF3639
C:\Users\CYMR90~1\AppData\Local\Temp\ccSIna8B.s:34616  .debug_str:000000000002c3db .LASF3640
C:\Users\CYMR90~1\AppData\Local\Temp\ccSIna8B.s:34356  .debug_str:000000000002b2be .LASF3641
C:\Users\CYMR90~1\AppData\Local\Temp\ccSIna8B.s:23621  .debug_str:000000000000079c .LASF3642
C:\Users\CYMR90~1\AppData\Local\Temp\ccSIna8B.s:27277  .debug_str:000000000000f111 .LASF3643
C:\Users\CYMR90~1\AppData\Local\Temp\ccSIna8B.s:28659  .debug_str:0000000000014931 .LASF3644
C:\Users\CYMR90~1\AppData\Local\Temp\ccSIna8B.s:32498  .debug_str:0000000000023ace .LASF3645
C:\Users\CYMR90~1\AppData\Local\Temp\ccSIna8B.s:30118  .debug_str:000000000001a7e3 .LASF3646
C:\Users\CYMR90~1\AppData\Local\Temp\ccSIna8B.s:29258  .debug_str:000000000001709f .LASF3647
C:\Users\CYMR90~1\AppData\Local\Temp\ccSIna8B.s:29712  .debug_str:0000000000018bde .LASF3648
C:\Users\CYMR90~1\AppData\Local\Temp\ccSIna8B.s:34176  .debug_str:000000000002a7a6 .LASF3649
C:\Users\CYMR90~1\AppData\Local\Temp\ccSIna8B.s:26817  .debug_str:000000000000d530 .LASF3650
C:\Users\CYMR90~1\AppData\Local\Temp\ccSIna8B.s:29310  .debug_str:00000000000173a3 .LASF3651
C:\Users\CYMR90~1\AppData\Local\Temp\ccSIna8B.s:28635  .debug_str:0000000000014771 .LASF3652
C:\Users\CYMR90~1\AppData\Local\Temp\ccSIna8B.s:28723  .debug_str:0000000000014cee .LASF3653
C:\Users\CYMR90~1\AppData\Local\Temp\ccSIna8B.s:31078  .debug_str:000000000001e548 .LASF3654
C:\Users\CYMR90~1\AppData\Local\Temp\ccSIna8B.s:33974  .debug_str:0000000000029c36 .LASF3655
C:\Users\CYMR90~1\AppData\Local\Temp\ccSIna8B.s:24205  .debug_str:0000000000002b99 .LASF3656
C:\Users\CYMR90~1\AppData\Local\Temp\ccSIna8B.s:31280  .debug_str:000000000001f0f7 .LASF3657
C:\Users\CYMR90~1\AppData\Local\Temp\ccSIna8B.s:26041  .debug_str:000000000000a1e2 .LASF3658
C:\Users\CYMR90~1\AppData\Local\Temp\ccSIna8B.s:24327  .debug_str:00000000000033a5 .LASF3659
C:\Users\CYMR90~1\AppData\Local\Temp\ccSIna8B.s:26281  .debug_str:000000000000b123 .LASF3660
C:\Users\CYMR90~1\AppData\Local\Temp\ccSIna8B.s:25207  .debug_str:0000000000006ba4 .LASF3661
C:\Users\CYMR90~1\AppData\Local\Temp\ccSIna8B.s:32820  .debug_str:0000000000024fbb .LASF3662
C:\Users\CYMR90~1\AppData\Local\Temp\ccSIna8B.s:30184  .debug_str:000000000001ac26 .LASF3663
C:\Users\CYMR90~1\AppData\Local\Temp\ccSIna8B.s:30044  .debug_str:000000000001a22a .LASF3664
C:\Users\CYMR90~1\AppData\Local\Temp\ccSIna8B.s:25165  .debug_str:0000000000006909 .LASF3665
C:\Users\CYMR90~1\AppData\Local\Temp\ccSIna8B.s:27155  .debug_str:000000000000e9b9 .LASF3666
C:\Users\CYMR90~1\AppData\Local\Temp\ccSIna8B.s:26991  .debug_str:000000000000dfe6 .LASF3667
C:\Users\CYMR90~1\AppData\Local\Temp\ccSIna8B.s:25607  .debug_str:00000000000086e2 .LASF3668
C:\Users\CYMR90~1\AppData\Local\Temp\ccSIna8B.s:25799  .debug_str:00000000000092ba .LASF3669
C:\Users\CYMR90~1\AppData\Local\Temp\ccSIna8B.s:26381  .debug_str:000000000000b79a .LASF3670
C:\Users\CYMR90~1\AppData\Local\Temp\ccSIna8B.s:24353  .debug_str:0000000000003543 .LASF3671
C:\Users\CYMR90~1\AppData\Local\Temp\ccSIna8B.s:25727  .debug_str:0000000000008e30 .LASF3672
C:\Users\CYMR90~1\AppData\Local\Temp\ccSIna8B.s:23539  .debug_str:0000000000000305 .LASF3673
C:\Users\CYMR90~1\AppData\Local\Temp\ccSIna8B.s:29306  .debug_str:0000000000017375 .LASF3674
C:\Users\CYMR90~1\AppData\Local\Temp\ccSIna8B.s:26533  .debug_str:000000000000c231 .LASF3675
C:\Users\CYMR90~1\AppData\Local\Temp\ccSIna8B.s:32436  .debug_str:00000000000236e8 .LASF3676
C:\Users\CYMR90~1\AppData\Local\Temp\ccSIna8B.s:29898  .debug_str:0000000000019876 .LASF3677
C:\Users\CYMR90~1\AppData\Local\Temp\ccSIna8B.s:28111  .debug_str:0000000000012613 .LASF3678
C:\Users\CYMR90~1\AppData\Local\Temp\ccSIna8B.s:27965  .debug_str:0000000000011cde .LASF3679
C:\Users\CYMR90~1\AppData\Local\Temp\ccSIna8B.s:30300  .debug_str:000000000001b3c4 .LASF3680
C:\Users\CYMR90~1\AppData\Local\Temp\ccSIna8B.s:32448  .debug_str:00000000000237d8 .LASF3681
C:\Users\CYMR90~1\AppData\Local\Temp\ccSIna8B.s:33908  .debug_str:00000000000297e9 .LASF3682
C:\Users\CYMR90~1\AppData\Local\Temp\ccSIna8B.s:29960  .debug_str:0000000000019d34 .LASF3683
C:\Users\CYMR90~1\AppData\Local\Temp\ccSIna8B.s:31262  .debug_str:000000000001efdd .LASF3684
C:\Users\CYMR90~1\AppData\Local\Temp\ccSIna8B.s:32378  .debug_str:0000000000023385 .LASF3685
C:\Users\CYMR90~1\AppData\Local\Temp\ccSIna8B.s:33234  .debug_str:0000000000026b1e .LASF3686
C:\Users\CYMR90~1\AppData\Local\Temp\ccSIna8B.s:23719  .debug_str:0000000000000dc3 .LASF3687
C:\Users\CYMR90~1\AppData\Local\Temp\ccSIna8B.s:27223  .debug_str:000000000000ee01 .LASF3688
C:\Users\CYMR90~1\AppData\Local\Temp\ccSIna8B.s:34612  .debug_str:000000000002c3aa .LASF3689
C:\Users\CYMR90~1\AppData\Local\Temp\ccSIna8B.s:33374  .debug_str:00000000000273ae .LASF3690
C:\Users\CYMR90~1\AppData\Local\Temp\ccSIna8B.s:24191  .debug_str:0000000000002a95 .LASF3691
C:\Users\CYMR90~1\AppData\Local\Temp\ccSIna8B.s:23875  .debug_str:0000000000001722 .LASF3692
C:\Users\CYMR90~1\AppData\Local\Temp\ccSIna8B.s:25329  .debug_str:00000000000073e2 .LASF3693
C:\Users\CYMR90~1\AppData\Local\Temp\ccSIna8B.s:25987  .debug_str:0000000000009e94 .LASF3694
C:\Users\CYMR90~1\AppData\Local\Temp\ccSIna8B.s:25069  .debug_str:0000000000006330 .LASF3695
C:\Users\CYMR90~1\AppData\Local\Temp\ccSIna8B.s:31826  .debug_str:000000000002122b .LASF3696
C:\Users\CYMR90~1\AppData\Local\Temp\ccSIna8B.s:32096  .debug_str:00000000000222f9 .LASF3697
C:\Users\CYMR90~1\AppData\Local\Temp\ccSIna8B.s:25895  .debug_str:00000000000098b8 .LASF3698
C:\Users\CYMR90~1\AppData\Local\Temp\ccSIna8B.s:32494  .debug_str:0000000000023aa0 .LASF3699
C:\Users\CYMR90~1\AppData\Local\Temp\ccSIna8B.s:34738  .debug_str:000000000002cb83 .LASF3700
C:\Users\CYMR90~1\AppData\Local\Temp\ccSIna8B.s:27543  .debug_str:00000000000102b2 .LASF3701
C:\Users\CYMR90~1\AppData\Local\Temp\ccSIna8B.s:27041  .debug_str:000000000000e31a .LASF3702
C:\Users\CYMR90~1\AppData\Local\Temp\ccSIna8B.s:31200  .debug_str:000000000001ec75 .LASF3703
C:\Users\CYMR90~1\AppData\Local\Temp\ccSIna8B.s:24643  .debug_str:0000000000004895 .LASF3704
C:\Users\CYMR90~1\AppData\Local\Temp\ccSIna8B.s:23947  .debug_str:0000000000001b92 .LASF3705
C:\Users\CYMR90~1\AppData\Local\Temp\ccSIna8B.s:25979  .debug_str:0000000000009e34 .LASF3706
C:\Users\CYMR90~1\AppData\Local\Temp\ccSIna8B.s:32352  .debug_str:0000000000023259 .LASF3707
C:\Users\CYMR90~1\AppData\Local\Temp\ccSIna8B.s:27997  .debug_str:0000000000011eb0 .LASF3708
C:\Users\CYMR90~1\AppData\Local\Temp\ccSIna8B.s:28537  .debug_str:0000000000014196 .LASF3709
C:\Users\CYMR90~1\AppData\Local\Temp\ccSIna8B.s:25859  .debug_str:0000000000009639 .LASF3710
C:\Users\CYMR90~1\AppData\Local\Temp\ccSIna8B.s:30202  .debug_str:000000000001ad4d .LASF3711
C:\Users\CYMR90~1\AppData\Local\Temp\ccSIna8B.s:29786  .debug_str:00000000000190db .LASF3712
C:\Users\CYMR90~1\AppData\Local\Temp\ccSIna8B.s:31670  .debug_str:00000000000208db .LASF3713
C:\Users\CYMR90~1\AppData\Local\Temp\ccSIna8B.s:29468  .debug_str:0000000000017d59 .LASF3714
C:\Users\CYMR90~1\AppData\Local\Temp\ccSIna8B.s:33676  .debug_str:00000000000288bc .LASF3715
C:\Users\CYMR90~1\AppData\Local\Temp\ccSIna8B.s:27051  .debug_str:000000000000e3a3 .LASF3716
C:\Users\CYMR90~1\AppData\Local\Temp\ccSIna8B.s:25521  .debug_str:00000000000080d6 .LASF3717
C:\Users\CYMR90~1\AppData\Local\Temp\ccSIna8B.s:34668  .debug_str:000000000002c737 .LASF3718
C:\Users\CYMR90~1\AppData\Local\Temp\ccSIna8B.s:28851  .debug_str:00000000000154bf .LASF3719
C:\Users\CYMR90~1\AppData\Local\Temp\ccSIna8B.s:30584  .debug_str:000000000001c4ca .LASF3720
C:\Users\CYMR90~1\AppData\Local\Temp\ccSIna8B.s:30018  .debug_str:000000000001a081 .LASF3721
C:\Users\CYMR90~1\AppData\Local\Temp\ccSIna8B.s:32636  .debug_str:00000000000243af .LASF3722
C:\Users\CYMR90~1\AppData\Local\Temp\ccSIna8B.s:31876  .debug_str:000000000002159f .LASF3723
C:\Users\CYMR90~1\AppData\Local\Temp\ccSIna8B.s:26409  .debug_str:000000000000b979 .LASF3724
C:\Users\CYMR90~1\AppData\Local\Temp\ccSIna8B.s:30064  .debug_str:000000000001a344 .LASF3725
C:\Users\CYMR90~1\AppData\Local\Temp\ccSIna8B.s:23505  .debug_str:00000000000000dc .LASF3726
C:\Users\CYMR90~1\AppData\Local\Temp\ccSIna8B.s:27959  .debug_str:0000000000011c76 .LASF3727
C:\Users\CYMR90~1\AppData\Local\Temp\ccSIna8B.s:31918  .debug_str:000000000002181f .LASF3728
C:\Users\CYMR90~1\AppData\Local\Temp\ccSIna8B.s:32186  .debug_str:000000000002281a .LASF3729
C:\Users\CYMR90~1\AppData\Local\Temp\ccSIna8B.s:29039  .debug_str:000000000001600e .LASF3730
C:\Users\CYMR90~1\AppData\Local\Temp\ccSIna8B.s:34038  .debug_str:0000000000029fcc .LASF3731
C:\Users\CYMR90~1\AppData\Local\Temp\ccSIna8B.s:26641  .debug_str:000000000000c88b .LASF3732
C:\Users\CYMR90~1\AppData\Local\Temp\ccSIna8B.s:34860  .debug_str:000000000002d369 .LASF3733
C:\Users\CYMR90~1\AppData\Local\Temp\ccSIna8B.s:32472  .debug_str:0000000000023946 .LASF3734
C:\Users\CYMR90~1\AppData\Local\Temp\ccSIna8B.s:32914  .debug_str:000000000002562f .LASF3735
C:\Users\CYMR90~1\AppData\Local\Temp\ccSIna8B.s:27999  .debug_str:0000000000011ec5 .LASF3736
C:\Users\CYMR90~1\AppData\Local\Temp\ccSIna8B.s:28357  .debug_str:000000000001368a .LASF3737
C:\Users\CYMR90~1\AppData\Local\Temp\ccSIna8B.s:23965  .debug_str:0000000000001c8d .LASF3738
C:\Users\CYMR90~1\AppData\Local\Temp\ccSIna8B.s:25299  .debug_str:000000000000717c .LASF3739
C:\Users\CYMR90~1\AppData\Local\Temp\ccSIna8B.s:34492  .debug_str:000000000002bb5c .LASF3740
C:\Users\CYMR90~1\AppData\Local\Temp\ccSIna8B.s:29069  .debug_str:0000000000016247 .LASF3741
C:\Users\CYMR90~1\AppData\Local\Temp\ccSIna8B.s:29878  .debug_str:000000000001975d .LASF3742
C:\Users\CYMR90~1\AppData\Local\Temp\ccSIna8B.s:26531  .debug_str:000000000000c20c .LASF3743
C:\Users\CYMR90~1\AppData\Local\Temp\ccSIna8B.s:28203  .debug_str:0000000000012c57 .LASF3744
C:\Users\CYMR90~1\AppData\Local\Temp\ccSIna8B.s:23739  .debug_str:0000000000000f66 .LASF3745
C:\Users\CYMR90~1\AppData\Local\Temp\ccSIna8B.s:30148  .debug_str:000000000001a9ac .LASF3746
C:\Users\CYMR90~1\AppData\Local\Temp\ccSIna8B.s:24563  .debug_str:0000000000004331 .LASF3747
C:\Users\CYMR90~1\AppData\Local\Temp\ccSIna8B.s:30394  .debug_str:000000000001b981 .LASF3748
C:\Users\CYMR90~1\AppData\Local\Temp\ccSIna8B.s:24833  .debug_str:000000000000548e .LASF3749
C:\Users\CYMR90~1\AppData\Local\Temp\ccSIna8B.s:25961  .debug_str:0000000000009cee .LASF3750
C:\Users\CYMR90~1\AppData\Local\Temp\ccSIna8B.s:25111  .debug_str:00000000000065b3 .LASF3751
C:\Users\CYMR90~1\AppData\Local\Temp\ccSIna8B.s:30894  .debug_str:000000000001d9ad .LASF3752
C:\Users\CYMR90~1\AppData\Local\Temp\ccSIna8B.s:33398  .debug_str:0000000000027607 .LASF3753
C:\Users\CYMR90~1\AppData\Local\Temp\ccSIna8B.s:32118  .debug_str:0000000000022452 .LASF3754
C:\Users\CYMR90~1\AppData\Local\Temp\ccSIna8B.s:25149  .debug_str:00000000000067d7 .LASF3755
C:\Users\CYMR90~1\AppData\Local\Temp\ccSIna8B.s:34048  .debug_str:000000000002a079 .LASF3756
C:\Users\CYMR90~1\AppData\Local\Temp\ccSIna8B.s:31358  .debug_str:000000000001f5f7 .LASF3757
C:\Users\CYMR90~1\AppData\Local\Temp\ccSIna8B.s:27249  .debug_str:000000000000efa4 .LASF3758
C:\Users\CYMR90~1\AppData\Local\Temp\ccSIna8B.s:26235  .debug_str:000000000000ad88 .LASF3759
C:\Users\CYMR90~1\AppData\Local\Temp\ccSIna8B.s:23599  .debug_str:0000000000000647 .LASF3760
C:\Users\CYMR90~1\AppData\Local\Temp\ccSIna8B.s:27489  .debug_str:000000000000ff6c .LASF3761
C:\Users\CYMR90~1\AppData\Local\Temp\ccSIna8B.s:26415  .debug_str:000000000000b9cf .LASF3762
C:\Users\CYMR90~1\AppData\Local\Temp\ccSIna8B.s:27201  .debug_str:000000000000ec96 .LASF3763
C:\Users\CYMR90~1\AppData\Local\Temp\ccSIna8B.s:25335  .debug_str:000000000000744b .LASF3764
C:\Users\CYMR90~1\AppData\Local\Temp\ccSIna8B.s:33468  .debug_str:0000000000027a1a .LASF3765
C:\Users\CYMR90~1\AppData\Local\Temp\ccSIna8B.s:30822  .debug_str:000000000001d4ef .LASF3766
C:\Users\CYMR90~1\AppData\Local\Temp\ccSIna8B.s:28299  .debug_str:0000000000013296 .LASF3767
C:\Users\CYMR90~1\AppData\Local\Temp\ccSIna8B.s:30408  .debug_str:000000000001ba61 .LASF3768
C:\Users\CYMR90~1\AppData\Local\Temp\ccSIna8B.s:34452  .debug_str:000000000002b8ff .LASF3769
C:\Users\CYMR90~1\AppData\Local\Temp\ccSIna8B.s:27629  .debug_str:000000000001079f .LASF3770
C:\Users\CYMR90~1\AppData\Local\Temp\ccSIna8B.s:33704  .debug_str:0000000000028ad5 .LASF3771
C:\Users\CYMR90~1\AppData\Local\Temp\ccSIna8B.s:26621  .debug_str:000000000000c756 .LASF3772
C:\Users\CYMR90~1\AppData\Local\Temp\ccSIna8B.s:24047  .debug_str:0000000000002110 .LASF3773
C:\Users\CYMR90~1\AppData\Local\Temp\ccSIna8B.s:27605  .debug_str:0000000000010637 .LASF3774
C:\Users\CYMR90~1\AppData\Local\Temp\ccSIna8B.s:27525  .debug_str:0000000000010197 .LASF3775
C:\Users\CYMR90~1\AppData\Local\Temp\ccSIna8B.s:27743  .debug_str:0000000000010e73 .LASF3776
C:\Users\CYMR90~1\AppData\Local\Temp\ccSIna8B.s:32098  .debug_str:0000000000022311 .LASF3777
C:\Users\CYMR90~1\AppData\Local\Temp\ccSIna8B.s:28417  .debug_str:0000000000013a3b .LASF3778
C:\Users\CYMR90~1\AppData\Local\Temp\ccSIna8B.s:25511  .debug_str:000000000000802f .LASF3779
C:\Users\CYMR90~1\AppData\Local\Temp\ccSIna8B.s:32328  .debug_str:00000000000230e8 .LASF3780
C:\Users\CYMR90~1\AppData\Local\Temp\ccSIna8B.s:34494  .debug_str:000000000002bb80 .LASF3781
C:\Users\CYMR90~1\AppData\Local\Temp\ccSIna8B.s:34022  .debug_str:0000000000029ed6 .LASF3782
C:\Users\CYMR90~1\AppData\Local\Temp\ccSIna8B.s:30494  .debug_str:000000000001bf62 .LASF3783
C:\Users\CYMR90~1\AppData\Local\Temp\ccSIna8B.s:25303  .debug_str:00000000000071be .LASF3784
C:\Users\CYMR90~1\AppData\Local\Temp\ccSIna8B.s:24881  .debug_str:000000000000578b .LASF3785
C:\Users\CYMR90~1\AppData\Local\Temp\ccSIna8B.s:25389  .debug_str:00000000000077a0 .LASF3786
C:\Users\CYMR90~1\AppData\Local\Temp\ccSIna8B.s:24345  .debug_str:00000000000034c8 .LASF3787
C:\Users\CYMR90~1\AppData\Local\Temp\ccSIna8B.s:32720  .debug_str:00000000000248dc .LASF3788
C:\Users\CYMR90~1\AppData\Local\Temp\ccSIna8B.s:27553  .debug_str:000000000001032c .LASF3789
C:\Users\CYMR90~1\AppData\Local\Temp\ccSIna8B.s:25701  .debug_str:0000000000008ca3 .LASF3790
C:\Users\CYMR90~1\AppData\Local\Temp\ccSIna8B.s:25809  .debug_str:000000000000936d .LASF3791
C:\Users\CYMR90~1\AppData\Local\Temp\ccSIna8B.s:31988  .debug_str:0000000000021c38 .LASF3792
C:\Users\CYMR90~1\AppData\Local\Temp\ccSIna8B.s:33954  .debug_str:0000000000029ae3 .LASF3793
C:\Users\CYMR90~1\AppData\Local\Temp\ccSIna8B.s:32238  .debug_str:0000000000022b58 .LASF3794
C:\Users\CYMR90~1\AppData\Local\Temp\ccSIna8B.s:33848  .debug_str:00000000000293a9 .LASF3795
C:\Users\CYMR90~1\AppData\Local\Temp\ccSIna8B.s:23635  .debug_str:000000000000086f .LASF3796
C:\Users\CYMR90~1\AppData\Local\Temp\ccSIna8B.s:32066  .debug_str:0000000000022136 .LASF3797
C:\Users\CYMR90~1\AppData\Local\Temp\ccSIna8B.s:29262  .debug_str:00000000000170d3 .LASF3798
C:\Users\CYMR90~1\AppData\Local\Temp\ccSIna8B.s:26243  .debug_str:000000000000adfc .LASF3799
C:\Users\CYMR90~1\AppData\Local\Temp\ccSIna8B.s:26799  .debug_str:000000000000d3fc .LASF3800
C:\Users\CYMR90~1\AppData\Local\Temp\ccSIna8B.s:25287  .debug_str:00000000000070ba .LASF3801
C:\Users\CYMR90~1\AppData\Local\Temp\ccSIna8B.s:28875  .debug_str:0000000000015603 .LASF3802
C:\Users\CYMR90~1\AppData\Local\Temp\ccSIna8B.s:26667  .debug_str:000000000000cad5 .LASF3803
C:\Users\CYMR90~1\AppData\Local\Temp\ccSIna8B.s:32348  .debug_str:000000000002321a .LASF3804
C:\Users\CYMR90~1\AppData\Local\Temp\ccSIna8B.s:30298  .debug_str:000000000001b381 .LASF3805
C:\Users\CYMR90~1\AppData\Local\Temp\ccSIna8B.s:32280  .debug_str:0000000000022e49 .LASF3806
C:\Users\CYMR90~1\AppData\Local\Temp\ccSIna8B.s:33434  .debug_str:0000000000027834 .LASF3807
C:\Users\CYMR90~1\AppData\Local\Temp\ccSIna8B.s:27119  .debug_str:000000000000e75f .LASF3808
C:\Users\CYMR90~1\AppData\Local\Temp\ccSIna8B.s:31328  .debug_str:000000000001f3ed .LASF3809
C:\Users\CYMR90~1\AppData\Local\Temp\ccSIna8B.s:26295  .debug_str:000000000000b1ee .LASF3810
C:\Users\CYMR90~1\AppData\Local\Temp\ccSIna8B.s:28581  .debug_str:000000000001446a .LASF3811
C:\Users\CYMR90~1\AppData\Local\Temp\ccSIna8B.s:29546  .debug_str:00000000000181fe .LASF3812
C:\Users\CYMR90~1\AppData\Local\Temp\ccSIna8B.s:33286  .debug_str:0000000000026e3f .LASF3813
C:\Users\CYMR90~1\AppData\Local\Temp\ccSIna8B.s:26087  .debug_str:000000000000a46c .LASF3814
C:\Users\CYMR90~1\AppData\Local\Temp\ccSIna8B.s:24801  .debug_str:00000000000052a7 .LASF3815
C:\Users\CYMR90~1\AppData\Local\Temp\ccSIna8B.s:29846  .debug_str:000000000001954b .LASF3816
C:\Users\CYMR90~1\AppData\Local\Temp\ccSIna8B.s:26339  .debug_str:000000000000b468 .LASF3817
C:\Users\CYMR90~1\AppData\Local\Temp\ccSIna8B.s:27085  .debug_str:000000000000e590 .LASF3818
C:\Users\CYMR90~1\AppData\Local\Temp\ccSIna8B.s:34590  .debug_str:000000000002c1dc .LASF3819
C:\Users\CYMR90~1\AppData\Local\Temp\ccSIna8B.s:34438  .debug_str:000000000002b801 .LASF3820
C:\Users\CYMR90~1\AppData\Local\Temp\ccSIna8B.s:26949  .debug_str:000000000000dd83 .LASF3821
C:\Users\CYMR90~1\AppData\Local\Temp\ccSIna8B.s:24889  .debug_str:00000000000057fa .LASF3822
C:\Users\CYMR90~1\AppData\Local\Temp\ccSIna8B.s:34078  .debug_str:000000000002a226 .LASF3823
C:\Users\CYMR90~1\AppData\Local\Temp\ccSIna8B.s:31786  .debug_str:0000000000020ff6 .LASF3824
C:\Users\CYMR90~1\AppData\Local\Temp\ccSIna8B.s:24893  .debug_str:000000000000585a .LASF3825
C:\Users\CYMR90~1\AppData\Local\Temp\ccSIna8B.s:28991  .debug_str:0000000000015ca3 .LASF3826
C:\Users\CYMR90~1\AppData\Local\Temp\ccSIna8B.s:24995  .debug_str:0000000000005e95 .LASF3827
C:\Users\CYMR90~1\AppData\Local\Temp\ccSIna8B.s:28465  .debug_str:0000000000013d11 .LASF3828
C:\Users\CYMR90~1\AppData\Local\Temp\ccSIna8B.s:31980  .debug_str:0000000000021bcd .LASF3829
C:\Users\CYMR90~1\AppData\Local\Temp\ccSIna8B.s:33098  .debug_str:00000000000262d6 .LASF3830
C:\Users\CYMR90~1\AppData\Local\Temp\ccSIna8B.s:24713  .debug_str:0000000000004d74 .LASF3831
C:\Users\CYMR90~1\AppData\Local\Temp\ccSIna8B.s:32558  .debug_str:0000000000023e0a .LASF3832
C:\Users\CYMR90~1\AppData\Local\Temp\ccSIna8B.s:31704  .debug_str:0000000000020af6 .LASF3833
C:\Users\CYMR90~1\AppData\Local\Temp\ccSIna8B.s:34230  .debug_str:000000000002ab21 .LASF3834
C:\Users\CYMR90~1\AppData\Local\Temp\ccSIna8B.s:27225  .debug_str:000000000000ee19 .LASF3835
C:\Users\CYMR90~1\AppData\Local\Temp\ccSIna8B.s:24903  .debug_str:00000000000058d5 .LASF3836
C:\Users\CYMR90~1\AppData\Local\Temp\ccSIna8B.s:26569  .debug_str:000000000000c445 .LASF3837
C:\Users\CYMR90~1\AppData\Local\Temp\ccSIna8B.s:31798  .debug_str:0000000000021098 .LASF3838
C:\Users\CYMR90~1\AppData\Local\Temp\ccSIna8B.s:29650  .debug_str:0000000000018824 .LASF3839
C:\Users\CYMR90~1\AppData\Local\Temp\ccSIna8B.s:30742  .debug_str:000000000001cef4 .LASF3840
C:\Users\CYMR90~1\AppData\Local\Temp\ccSIna8B.s:33822  .debug_str:000000000002921e .LASF3841
C:\Users\CYMR90~1\AppData\Local\Temp\ccSIna8B.s:28739  .debug_str:0000000000014dc9 .LASF3842
C:\Users\CYMR90~1\AppData\Local\Temp\ccSIna8B.s:34762  .debug_str:000000000002cd4f .LASF3843
C:\Users\CYMR90~1\AppData\Local\Temp\ccSIna8B.s:24387  .debug_str:0000000000003787 .LASF3844
C:\Users\CYMR90~1\AppData\Local\Temp\ccSIna8B.s:32896  .debug_str:0000000000025514 .LASF3845
C:\Users\CYMR90~1\AppData\Local\Temp\ccSIna8B.s:23763  .debug_str:00000000000010a1 .LASF3846
C:\Users\CYMR90~1\AppData\Local\Temp\ccSIna8B.s:30898  .debug_str:000000000001d9f4 .LASF3847
C:\Users\CYMR90~1\AppData\Local\Temp\ccSIna8B.s:28329  .debug_str:000000000001346b .LASF3848
C:\Users\CYMR90~1\AppData\Local\Temp\ccSIna8B.s:34854  .debug_str:000000000002d31b .LASF3849
C:\Users\CYMR90~1\AppData\Local\Temp\ccSIna8B.s:24179  .debug_str:00000000000029e0 .LASF3850
C:\Users\CYMR90~1\AppData\Local\Temp\ccSIna8B.s:33346  .debug_str:0000000000027228 .LASF3851
C:\Users\CYMR90~1\AppData\Local\Temp\ccSIna8B.s:28189  .debug_str:0000000000012b53 .LASF3852
C:\Users\CYMR90~1\AppData\Local\Temp\ccSIna8B.s:31608  .debug_str:000000000002049f .LASF3853
C:\Users\CYMR90~1\AppData\Local\Temp\ccSIna8B.s:31750  .debug_str:0000000000020ddd .LASF3854
C:\Users\CYMR90~1\AppData\Local\Temp\ccSIna8B.s:23717  .debug_str:0000000000000da1 .LASF3855
C:\Users\CYMR90~1\AppData\Local\Temp\ccSIna8B.s:30958  .debug_str:000000000001dd89 .LASF3856
C:\Users\CYMR90~1\AppData\Local\Temp\ccSIna8B.s:23821  .debug_str:0000000000001410 .LASF3857
C:\Users\CYMR90~1\AppData\Local\Temp\ccSIna8B.s:33608  .debug_str:00000000000283bd .LASF3858
C:\Users\CYMR90~1\AppData\Local\Temp\ccSIna8B.s:28097  .debug_str:0000000000012506 .LASF3859
C:\Users\CYMR90~1\AppData\Local\Temp\ccSIna8B.s:31096  .debug_str:000000000001e643 .LASF3860
C:\Users\CYMR90~1\AppData\Local\Temp\ccSIna8B.s:30016  .debug_str:000000000001a051 .LASF3861
C:\Users\CYMR90~1\AppData\Local\Temp\ccSIna8B.s:28759  .debug_str:0000000000014f18 .LASF3862
C:\Users\CYMR90~1\AppData\Local\Temp\ccSIna8B.s:25563  .debug_str:00000000000083f1 .LASF3863
C:\Users\CYMR90~1\AppData\Local\Temp\ccSIna8B.s:34482  .debug_str:000000000002bab1 .LASF3864
C:\Users\CYMR90~1\AppData\Local\Temp\ccSIna8B.s:32808  .debug_str:0000000000024ed2 .LASF3865
C:\Users\CYMR90~1\AppData\Local\Temp\ccSIna8B.s:23933  .debug_str:0000000000001aa7 .LASF3866
C:\Users\CYMR90~1\AppData\Local\Temp\ccSIna8B.s:33596  .debug_str:0000000000028299 .LASF3867
C:\Users\CYMR90~1\AppData\Local\Temp\ccSIna8B.s:33840  .debug_str:0000000000029310 .LASF3868
C:\Users\CYMR90~1\AppData\Local\Temp\ccSIna8B.s:23515  .debug_str:000000000000016d .LASF3869
C:\Users\CYMR90~1\AppData\Local\Temp\ccSIna8B.s:34180  .debug_str:000000000002a7df .LASF3870
C:\Users\CYMR90~1\AppData\Local\Temp\ccSIna8B.s:26189  .debug_str:000000000000aa87 .LASF3871
C:\Users\CYMR90~1\AppData\Local\Temp\ccSIna8B.s:32824  .debug_str:0000000000024ff5 .LASF3872
C:\Users\CYMR90~1\AppData\Local\Temp\ccSIna8B.s:26045  .debug_str:000000000000a213 .LASF3873
C:\Users\CYMR90~1\AppData\Local\Temp\ccSIna8B.s:31860  .debug_str:0000000000021406 .LASF3874
C:\Users\CYMR90~1\AppData\Local\Temp\ccSIna8B.s:24217  .debug_str:0000000000002c32 .LASF3875
C:\Users\CYMR90~1\AppData\Local\Temp\ccSIna8B.s:30034  .debug_str:000000000001a15e .LASF3876
C:\Users\CYMR90~1\AppData\Local\Temp\ccSIna8B.s:26859  .debug_str:000000000000d839 .LASF3877
C:\Users\CYMR90~1\AppData\Local\Temp\ccSIna8B.s:24945  .debug_str:0000000000005ba6 .LASF3878
C:\Users\CYMR90~1\AppData\Local\Temp\ccSIna8B.s:33512  .debug_str:0000000000027cd6 .LASF3879
C:\Users\CYMR90~1\AppData\Local\Temp\ccSIna8B.s:27349  .debug_str:000000000000f595 .LASF3880
C:\Users\CYMR90~1\AppData\Local\Temp\ccSIna8B.s:26527  .debug_str:000000000000c1aa .LASF3881
C:\Users\CYMR90~1\AppData\Local\Temp\ccSIna8B.s:26349  .debug_str:000000000000b4f2 .LASF3882
C:\Users\CYMR90~1\AppData\Local\Temp\ccSIna8B.s:23665  .debug_str:0000000000000a3f .LASF3883
C:\Users\CYMR90~1\AppData\Local\Temp\ccSIna8B.s:27995  .debug_str:0000000000011e7e .LASF3884
C:\Users\CYMR90~1\AppData\Local\Temp\ccSIna8B.s:32276  .debug_str:0000000000022e05 .LASF3885
C:\Users\CYMR90~1\AppData\Local\Temp\ccSIna8B.s:25093  .debug_str:000000000000648b .LASF3886
C:\Users\CYMR90~1\AppData\Local\Temp\ccSIna8B.s:26455  .debug_str:000000000000bc6d .LASF3887
C:\Users\CYMR90~1\AppData\Local\Temp\ccSIna8B.s:27563  .debug_str:00000000000103d5 .LASF3888
C:\Users\CYMR90~1\AppData\Local\Temp\ccSIna8B.s:31836  .debug_str:0000000000021298 .LASF3889
C:\Users\CYMR90~1\AppData\Local\Temp\ccSIna8B.s:24723  .debug_str:0000000000004e15 .LASF3890
C:\Users\CYMR90~1\AppData\Local\Temp\ccSIna8B.s:28973  .debug_str:0000000000015b7c .LASF3891
C:\Users\CYMR90~1\AppData\Local\Temp\ccSIna8B.s:33302  .debug_str:0000000000026f2a .LASF3892
C:\Users\CYMR90~1\AppData\Local\Temp\ccSIna8B.s:26231  .debug_str:000000000000ad3c .LASF3893
C:\Users\CYMR90~1\AppData\Local\Temp\ccSIna8B.s:28559  .debug_str:00000000000142d2 .LASF3894
C:\Users\CYMR90~1\AppData\Local\Temp\ccSIna8B.s:30986  .debug_str:000000000001dfb6 .LASF3895
C:\Users\CYMR90~1\AppData\Local\Temp\ccSIna8B.s:26735  .debug_str:000000000000cf86 .LASF3896
C:\Users\CYMR90~1\AppData\Local\Temp\ccSIna8B.s:32028  .debug_str:0000000000021eca .LASF3897
C:\Users\CYMR90~1\AppData\Local\Temp\ccSIna8B.s:24939  .debug_str:0000000000005b15 .LASF3898
C:\Users\CYMR90~1\AppData\Local\Temp\ccSIna8B.s:34436  .debug_str:000000000002b7cf .LASF3899
C:\Users\CYMR90~1\AppData\Local\Temp\ccSIna8B.s:27343  .debug_str:000000000000f512 .LASF3900
C:\Users\CYMR90~1\AppData\Local\Temp\ccSIna8B.s:31518  .debug_str:000000000001ff7f .LASF3901
C:\Users\CYMR90~1\AppData\Local\Temp\ccSIna8B.s:24431  .debug_str:0000000000003a7e .LASF3902
C:\Users\CYMR90~1\AppData\Local\Temp\ccSIna8B.s:27415  .debug_str:000000000000fa9a .LASF3903
C:\Users\CYMR90~1\AppData\Local\Temp\ccSIna8B.s:32592  .debug_str:0000000000024015 .LASF3904
C:\Users\CYMR90~1\AppData\Local\Temp\ccSIna8B.s:25931  .debug_str:0000000000009b11 .LASF3905
C:\Users\CYMR90~1\AppData\Local\Temp\ccSIna8B.s:30256  .debug_str:000000000001b077 .LASF3906
C:\Users\CYMR90~1\AppData\Local\Temp\ccSIna8B.s:24533  .debug_str:00000000000040ef .LASF3907
C:\Users\CYMR90~1\AppData\Local\Temp\ccSIna8B.s:32634  .debug_str:000000000002437d .LASF3908
C:\Users\CYMR90~1\AppData\Local\Temp\ccSIna8B.s:25565  .debug_str:0000000000008421 .LASF3909
C:\Users\CYMR90~1\AppData\Local\Temp\ccSIna8B.s:27191  .debug_str:000000000000ebc2 .LASF3910
C:\Users\CYMR90~1\AppData\Local\Temp\ccSIna8B.s:34106  .debug_str:000000000002a38d .LASF3911
C:\Users\CYMR90~1\AppData\Local\Temp\ccSIna8B.s:25387  .debug_str:000000000000776e .LASF3912
C:\Users\CYMR90~1\AppData\Local\Temp\ccSIna8B.s:31390  .debug_str:000000000001f7a2 .LASF3913
C:\Users\CYMR90~1\AppData\Local\Temp\ccSIna8B.s:24137  .debug_str:00000000000026b4 .LASF3914
C:\Users\CYMR90~1\AppData\Local\Temp\ccSIna8B.s:29582  .debug_str:0000000000018412 .LASF3915
C:\Users\CYMR90~1\AppData\Local\Temp\ccSIna8B.s:34828  .debug_str:000000000002d1a4 .LASF3916
C:\Users\CYMR90~1\AppData\Local\Temp\ccSIna8B.s:25573  .debug_str:000000000000849e .LASF3917
C:\Users\CYMR90~1\AppData\Local\Temp\ccSIna8B.s:33054  .debug_str:0000000000025ff8 .LASF3918
C:\Users\CYMR90~1\AppData\Local\Temp\ccSIna8B.s:28137  .debug_str:0000000000012808 .LASF3919
C:\Users\CYMR90~1\AppData\Local\Temp\ccSIna8B.s:32334  .debug_str:0000000000023143 .LASF3920
C:\Users\CYMR90~1\AppData\Local\Temp\ccSIna8B.s:25001  .debug_str:0000000000005f02 .LASF3921
C:\Users\CYMR90~1\AppData\Local\Temp\ccSIna8B.s:28179  .debug_str:0000000000012a93 .LASF3922
C:\Users\CYMR90~1\AppData\Local\Temp\ccSIna8B.s:31520  .debug_str:000000000001ffb1 .LASF3923
C:\Users\CYMR90~1\AppData\Local\Temp\ccSIna8B.s:28103  .debug_str:0000000000012593 .LASF3924
C:\Users\CYMR90~1\AppData\Local\Temp\ccSIna8B.s:33090  .debug_str:0000000000026263 .LASF3925
C:\Users\CYMR90~1\AppData\Local\Temp\ccSIna8B.s:24419  .debug_str:0000000000003991 .LASF3926
C:\Users\CYMR90~1\AppData\Local\Temp\ccSIna8B.s:26683  .debug_str:000000000000cca0 .LASF3927
C:\Users\CYMR90~1\AppData\Local\Temp\ccSIna8B.s:27139  .debug_str:000000000000e886 .LASF3928
C:\Users\CYMR90~1\AppData\Local\Temp\ccSIna8B.s:32642  .debug_str:0000000000024426 .LASF3929
C:\Users\CYMR90~1\AppData\Local\Temp\ccSIna8B.s:28987  .debug_str:0000000000015c52 .LASF3930
C:\Users\CYMR90~1\AppData\Local\Temp\ccSIna8B.s:29422  .debug_str:0000000000017a6d .LASF3931
C:\Users\CYMR90~1\AppData\Local\Temp\ccSIna8B.s:26407  .debug_str:000000000000b957 .LASF3932
C:\Users\CYMR90~1\AppData\Local\Temp\ccSIna8B.s:28767  .debug_str:0000000000014fa1 .LASF3933
C:\Users\CYMR90~1\AppData\Local\Temp\ccSIna8B.s:31730  .debug_str:0000000000020c7d .LASF3934
C:\Users\CYMR90~1\AppData\Local\Temp\ccSIna8B.s:28791  .debug_str:0000000000015156 .LASF3935
C:\Users\CYMR90~1\AppData\Local\Temp\ccSIna8B.s:25381  .debug_str:0000000000007713 .LASF3936
C:\Users\CYMR90~1\AppData\Local\Temp\ccSIna8B.s:29870  .debug_str:00000000000196d3 .LASF3937
C:\Users\CYMR90~1\AppData\Local\Temp\ccSIna8B.s:27849  .debug_str:0000000000011501 .LASF3938
C:\Users\CYMR90~1\AppData\Local\Temp\ccSIna8B.s:25487  .debug_str:0000000000007df7 .LASF3939
C:\Users\CYMR90~1\AppData\Local\Temp\ccSIna8B.s:23833  .debug_str:00000000000014cf .LASF3940
C:\Users\CYMR90~1\AppData\Local\Temp\ccSIna8B.s:27485  .debug_str:000000000000ff26 .LASF3941
C:\Users\CYMR90~1\AppData\Local\Temp\ccSIna8B.s:28411  .debug_str:00000000000139fa .LASF3942
C:\Users\CYMR90~1\AppData\Local\Temp\ccSIna8B.s:24857  .debug_str:0000000000005610 .LASF3943
C:\Users\CYMR90~1\AppData\Local\Temp\ccSIna8B.s:29682  .debug_str:0000000000018a17 .LASF3944
C:\Users\CYMR90~1\AppData\Local\Temp\ccSIna8B.s:27027  .debug_str:000000000000e255 .LASF3945
C:\Users\CYMR90~1\AppData\Local\Temp\ccSIna8B.s:26053  .debug_str:000000000000a294 .LASF3946
C:\Users\CYMR90~1\AppData\Local\Temp\ccSIna8B.s:27519  .debug_str:0000000000010129 .LASF3947
C:\Users\CYMR90~1\AppData\Local\Temp\ccSIna8B.s:29384  .debug_str:000000000001780b .LASF3948
C:\Users\CYMR90~1\AppData\Local\Temp\ccSIna8B.s:28829  .debug_str:000000000001535c .LASF3949
C:\Users\CYMR90~1\AppData\Local\Temp\ccSIna8B.s:28217  .debug_str:0000000000012d45 .LASF3950
C:\Users\CYMR90~1\AppData\Local\Temp\ccSIna8B.s:30578  .debug_str:000000000001c487 .LASF3951
C:\Users\CYMR90~1\AppData\Local\Temp\ccSIna8B.s:27143  .debug_str:000000000000e905 .LASF3952
C:\Users\CYMR90~1\AppData\Local\Temp\ccSIna8B.s:23701  .debug_str:0000000000000cb2 .LASF3953
C:\Users\CYMR90~1\AppData\Local\Temp\ccSIna8B.s:33846  .debug_str:0000000000029385 .LASF3954
C:\Users\CYMR90~1\AppData\Local\Temp\ccSIna8B.s:28281  .debug_str:0000000000013158 .LASF3955
C:\Users\CYMR90~1\AppData\Local\Temp\ccSIna8B.s:30910  .debug_str:000000000001daae .LASF3956
C:\Users\CYMR90~1\AppData\Local\Temp\ccSIna8B.s:24083  .debug_str:000000000000233e .LASF3957
C:\Users\CYMR90~1\AppData\Local\Temp\ccSIna8B.s:23993  .debug_str:0000000000001e3d .LASF3958
C:\Users\CYMR90~1\AppData\Local\Temp\ccSIna8B.s:32890  .debug_str:00000000000254d0 .LASF3959
C:\Users\CYMR90~1\AppData\Local\Temp\ccSIna8B.s:32654  .debug_str:000000000002450f .LASF3960
C:\Users\CYMR90~1\AppData\Local\Temp\ccSIna8B.s:29252  .debug_str:0000000000017042 .LASF3961
C:\Users\CYMR90~1\AppData\Local\Temp\ccSIna8B.s:28565  .debug_str:0000000000014355 .LASF3962
C:\Users\CYMR90~1\AppData\Local\Temp\ccSIna8B.s:33834  .debug_str:00000000000292cb .LASF3963
C:\Users\CYMR90~1\AppData\Local\Temp\ccSIna8B.s:30404  .debug_str:000000000001ba1b .LASF3964
C:\Users\CYMR90~1\AppData\Local\Temp\ccSIna8B.s:24219  .debug_str:0000000000002c64 .LASF3965
C:\Users\CYMR90~1\AppData\Local\Temp\ccSIna8B.s:34212  .debug_str:000000000002aa0c .LASF3966
C:\Users\CYMR90~1\AppData\Local\Temp\ccSIna8B.s:34526  .debug_str:000000000002bdaf .LASF3967
C:\Users\CYMR90~1\AppData\Local\Temp\ccSIna8B.s:26215  .debug_str:000000000000ac2e .LASF3968
C:\Users\CYMR90~1\AppData\Local\Temp\ccSIna8B.s:24721  .debug_str:0000000000004df1 .LASF3969
C:\Users\CYMR90~1\AppData\Local\Temp\ccSIna8B.s:34746  .debug_str:000000000002cc1c .LASF3970
C:\Users\CYMR90~1\AppData\Local\Temp\ccSIna8B.s:27981  .debug_str:0000000000011db6 .LASF3971
C:\Users\CYMR90~1\AppData\Local\Temp\ccSIna8B.s:24509  .debug_str:0000000000003f7d .LASF3972
C:\Users\CYMR90~1\AppData\Local\Temp\ccSIna8B.s:32516  .debug_str:0000000000023be5 .LASF3973
C:\Users\CYMR90~1\AppData\Local\Temp\ccSIna8B.s:29089  .debug_str:000000000001637e .LASF3974
C:\Users\CYMR90~1\AppData\Local\Temp\ccSIna8B.s:29318  .debug_str:0000000000017426 .LASF3975
C:\Users\CYMR90~1\AppData\Local\Temp\ccSIna8B.s:33684  .debug_str:0000000000028950 .LASF3976
C:\Users\CYMR90~1\AppData\Local\Temp\ccSIna8B.s:31664  .debug_str:000000000002088f .LASF3977
C:\Users\CYMR90~1\AppData\Local\Temp\ccSIna8B.s:25531  .debug_str:0000000000008186 .LASF3978
C:\Users\CYMR90~1\AppData\Local\Temp\ccSIna8B.s:33526  .debug_str:0000000000027e01 .LASF3979
C:\Users\CYMR90~1\AppData\Local\Temp\ccSIna8B.s:30124  .debug_str:000000000001a82a .LASF3980
C:\Users\CYMR90~1\AppData\Local\Temp\ccSIna8B.s:26703  .debug_str:000000000000cde2 .LASF3981
C:\Users\CYMR90~1\AppData\Local\Temp\ccSIna8B.s:34686  .debug_str:000000000002c8a8 .LASF3982
C:\Users\CYMR90~1\AppData\Local\Temp\ccSIna8B.s:24619  .debug_str:00000000000046e7 .LASF3983
C:\Users\CYMR90~1\AppData\Local\Temp\ccSIna8B.s:27853  .debug_str:000000000001153c .LASF3984
C:\Users\CYMR90~1\AppData\Local\Temp\ccSIna8B.s:30758  .debug_str:000000000001d083 .LASF3985
C:\Users\CYMR90~1\AppData\Local\Temp\ccSIna8B.s:32380  .debug_str:00000000000233a4 .LASF3986
C:\Users\CYMR90~1\AppData\Local\Temp\ccSIna8B.s:33764  .debug_str:0000000000028ea0 .LASF3987
C:\Users\CYMR90~1\AppData\Local\Temp\ccSIna8B.s:24223  .debug_str:0000000000002cbd .LASF3988
C:\Users\CYMR90~1\AppData\Local\Temp\ccSIna8B.s:29378  .debug_str:00000000000177a8 .LASF3989
C:\Users\CYMR90~1\AppData\Local\Temp\ccSIna8B.s:28799  .debug_str:00000000000151ba .LASF3990
C:\Users\CYMR90~1\AppData\Local\Temp\ccSIna8B.s:25379  .debug_str:00000000000076ef .LASF3991
C:\Users\CYMR90~1\AppData\Local\Temp\ccSIna8B.s:25507  .debug_str:0000000000007fcc .LASF3992
C:\Users\CYMR90~1\AppData\Local\Temp\ccSIna8B.s:25503  .debug_str:0000000000007f8b .LASF3993
C:\Users\CYMR90~1\AppData\Local\Temp\ccSIna8B.s:26549  .debug_str:000000000000c30d .LASF3994
C:\Users\CYMR90~1\AppData\Local\Temp\ccSIna8B.s:34552  .debug_str:000000000002bf38 .LASF3995
C:\Users\CYMR90~1\AppData\Local\Temp\ccSIna8B.s:24131  .debug_str:0000000000002640 .LASF3996
C:\Users\CYMR90~1\AppData\Local\Temp\ccSIna8B.s:32536  .debug_str:0000000000023d00 .LASF3997
C:\Users\CYMR90~1\AppData\Local\Temp\ccSIna8B.s:34488  .debug_str:000000000002bb19 .LASF3998
C:\Users\CYMR90~1\AppData\Local\Temp\ccSIna8B.s:30912  .debug_str:000000000001dad2 .LASF3999
C:\Users\CYMR90~1\AppData\Local\Temp\ccSIna8B.s:27557  .debug_str:0000000000010371 .LASF4000
C:\Users\CYMR90~1\AppData\Local\Temp\ccSIna8B.s:23937  .debug_str:0000000000001af1 .LASF4001
C:\Users\CYMR90~1\AppData\Local\Temp\ccSIna8B.s:32080  .debug_str:00000000000221fa .LASF4002
C:\Users\CYMR90~1\AppData\Local\Temp\ccSIna8B.s:28667  .debug_str:00000000000149a3 .LASF4003
C:\Users\CYMR90~1\AppData\Local\Temp\ccSIna8B.s:27353  .debug_str:000000000000f5df .LASF4004
C:\Users\CYMR90~1\AppData\Local\Temp\ccSIna8B.s:29954  .debug_str:0000000000019cc4 .LASF4005
C:\Users\CYMR90~1\AppData\Local\Temp\ccSIna8B.s:29834  .debug_str:0000000000019497 .LASF4006
C:\Users\CYMR90~1\AppData\Local\Temp\ccSIna8B.s:31212  .debug_str:000000000001eced .LASF4007
C:\Users\CYMR90~1\AppData\Local\Temp\ccSIna8B.s:33170  .debug_str:00000000000266fb .LASF4008
C:\Users\CYMR90~1\AppData\Local\Temp\ccSIna8B.s:31286  .debug_str:000000000001f168 .LASF4009
C:\Users\CYMR90~1\AppData\Local\Temp\ccSIna8B.s:25865  .debug_str:000000000000969a .LASF4010
C:\Users\CYMR90~1\AppData\Local\Temp\ccSIna8B.s:34332  .debug_str:000000000002b147 .LASF4011
C:\Users\CYMR90~1\AppData\Local\Temp\ccSIna8B.s:30794  .debug_str:000000000001d354 .LASF4012
C:\Users\CYMR90~1\AppData\Local\Temp\ccSIna8B.s:32016  .debug_str:0000000000021e1d .LASF4013
C:\Users\CYMR90~1\AppData\Local\Temp\ccSIna8B.s:23945  .debug_str:0000000000001b6e .LASF4014
C:\Users\CYMR90~1\AppData\Local\Temp\ccSIna8B.s:31932  .debug_str:00000000000218f0 .LASF4015
C:\Users\CYMR90~1\AppData\Local\Temp\ccSIna8B.s:28521  .debug_str:0000000000014087 .LASF4016
C:\Users\CYMR90~1\AppData\Local\Temp\ccSIna8B.s:34226  .debug_str:000000000002aae2 .LASF4017
C:\Users\CYMR90~1\AppData\Local\Temp\ccSIna8B.s:31870  .debug_str:000000000002149f .LASF4018
C:\Users\CYMR90~1\AppData\Local\Temp\ccSIna8B.s:28461  .debug_str:0000000000013cd6 .LASF4019
C:\Users\CYMR90~1\AppData\Local\Temp\ccSIna8B.s:33186  .debug_str:0000000000026825 .LASF4020
C:\Users\CYMR90~1\AppData\Local\Temp\ccSIna8B.s:33018  .debug_str:0000000000025dcd .LASF4021
C:\Users\CYMR90~1\AppData\Local\Temp\ccSIna8B.s:29606  .debug_str:000000000001858d .LASF4022
C:\Users\CYMR90~1\AppData\Local\Temp\ccSIna8B.s:34800  .debug_str:000000000002cf9a .LASF4023
C:\Users\CYMR90~1\AppData\Local\Temp\ccSIna8B.s:23903  .debug_str:00000000000018fc .LASF4024
C:\Users\CYMR90~1\AppData\Local\Temp\ccSIna8B.s:32086  .debug_str:0000000000022267 .LASF4025
C:\Users\CYMR90~1\AppData\Local\Temp\ccSIna8B.s:30930  .debug_str:000000000001dbe9 .LASF4026
C:\Users\CYMR90~1\AppData\Local\Temp\ccSIna8B.s:25291  .debug_str:000000000000710e .LASF4027
C:\Users\CYMR90~1\AppData\Local\Temp\ccSIna8B.s:25435  .debug_str:0000000000007a8a .LASF4028
C:\Users\CYMR90~1\AppData\Local\Temp\ccSIna8B.s:29488  .debug_str:0000000000017e7d .LASF4029
C:\Users\CYMR90~1\AppData\Local\Temp\ccSIna8B.s:33462  .debug_str:00000000000279b9 .LASF4030
C:\Users\CYMR90~1\AppData\Local\Temp\ccSIna8B.s:26029  .debug_str:000000000000a10d .LASF4031
C:\Users\CYMR90~1\AppData\Local\Temp\ccSIna8B.s:34622  .debug_str:000000000002c434 .LASF4032
C:\Users\CYMR90~1\AppData\Local\Temp\ccSIna8B.s:25547  .debug_str:000000000000831f .LASF4033
C:\Users\CYMR90~1\AppData\Local\Temp\ccSIna8B.s:27917  .debug_str:000000000001194d .LASF4034
C:\Users\CYMR90~1\AppData\Local\Temp\ccSIna8B.s:30456  .debug_str:000000000001bcdc .LASF4035
C:\Users\CYMR90~1\AppData\Local\Temp\ccSIna8B.s:34544  .debug_str:000000000002becd .LASF4036
C:\Users\CYMR90~1\AppData\Local\Temp\ccSIna8B.s:28605  .debug_str:00000000000145b2 .LASF4037
C:\Users\CYMR90~1\AppData\Local\Temp\ccSIna8B.s:34416  .debug_str:000000000002b67b .LASF4038
C:\Users\CYMR90~1\AppData\Local\Temp\ccSIna8B.s:33390  .debug_str:000000000002757c .LASF4039
C:\Users\CYMR90~1\AppData\Local\Temp\ccSIna8B.s:24367  .debug_str:0000000000003620 .LASF4040
C:\Users\CYMR90~1\AppData\Local\Temp\ccSIna8B.s:31762  .debug_str:0000000000020ea8 .LASF4041
C:\Users\CYMR90~1\AppData\Local\Temp\ccSIna8B.s:24277  .debug_str:0000000000003002 .LASF4042
C:\Users\CYMR90~1\AppData\Local\Temp\ccSIna8B.s:31396  .debug_str:000000000001f806 .LASF4043
C:\Users\CYMR90~1\AppData\Local\Temp\ccSIna8B.s:33800  .debug_str:0000000000029088 .LASF4044
C:\Users\CYMR90~1\AppData\Local\Temp\ccSIna8B.s:28235  .debug_str:0000000000012e3f .LASF4045
C:\Users\CYMR90~1\AppData\Local\Temp\ccSIna8B.s:27025  .debug_str:000000000000e22f .LASF4046
C:\Users\CYMR90~1\AppData\Local\Temp\ccSIna8B.s:24031  .debug_str:000000000000203b .LASF4047
C:\Users\CYMR90~1\AppData\Local\Temp\ccSIna8B.s:25571  .debug_str:0000000000008478 .LASF4048
C:\Users\CYMR90~1\AppData\Local\Temp\ccSIna8B.s:27941  .debug_str:0000000000011b73 .LASF4049
C:\Users\CYMR90~1\AppData\Local\Temp\ccSIna8B.s:29862  .debug_str:000000000001965f .LASF4050
C:\Users\CYMR90~1\AppData\Local\Temp\ccSIna8B.s:31400  .debug_str:000000000001f845 .LASF4051
C:\Users\CYMR90~1\AppData\Local\Temp\ccSIna8B.s:23583  .debug_str:000000000000058e .LASF4052
C:\Users\CYMR90~1\AppData\Local\Temp\ccSIna8B.s:30334  .debug_str:000000000001b5d7 .LASF4053
C:\Users\CYMR90~1\AppData\Local\Temp\ccSIna8B.s:29151  .debug_str:0000000000016779 .LASF4054
C:\Users\CYMR90~1\AppData\Local\Temp\ccSIna8B.s:26957  .debug_str:000000000000dde6 .LASF4055
C:\Users\CYMR90~1\AppData\Local\Temp\ccSIna8B.s:25957  .debug_str:0000000000009cb7 .LASF4056
C:\Users\CYMR90~1\AppData\Local\Temp\ccSIna8B.s:29900  .debug_str:0000000000019890 .LASF4057
C:\Users\CYMR90~1\AppData\Local\Temp\ccSIna8B.s:25831  .debug_str:00000000000094ac .LASF4058
C:\Users\CYMR90~1\AppData\Local\Temp\ccSIna8B.s:29796  .debug_str:0000000000019186 .LASF4059
C:\Users\CYMR90~1\AppData\Local\Temp\ccSIna8B.s:33754  .debug_str:0000000000028e0e .LASF4060
C:\Users\CYMR90~1\AppData\Local\Temp\ccSIna8B.s:31142  .debug_str:000000000001e922 .LASF4061
C:\Users\CYMR90~1\AppData\Local\Temp\ccSIna8B.s:30290  .debug_str:000000000001b2df .LASF4062
C:\Users\CYMR90~1\AppData\Local\Temp\ccSIna8B.s:34330  .debug_str:000000000002b121 .LASF4063
C:\Users\CYMR90~1\AppData\Local\Temp\ccSIna8B.s:26891  .debug_str:000000000000da26 .LASF4064
C:\Users\CYMR90~1\AppData\Local\Temp\ccSIna8B.s:26015  .debug_str:000000000000a016 .LASF4065
C:\Users\CYMR90~1\AppData\Local\Temp\ccSIna8B.s:28369  .debug_str:0000000000013749 .LASF4066
C:\Users\CYMR90~1\AppData\Local\Temp\ccSIna8B.s:31824  .debug_str:0000000000021205 .LASF4067
C:\Users\CYMR90~1\AppData\Local\Temp\ccSIna8B.s:33600  .debug_str:0000000000028322 .LASF4068
C:\Users\CYMR90~1\AppData\Local\Temp\ccSIna8B.s:30880  .debug_str:000000000001d8c3 .LASF4069
C:\Users\CYMR90~1\AppData\Local\Temp\ccSIna8B.s:26249  .debug_str:000000000000ae54 .LASF4070
C:\Users\CYMR90~1\AppData\Local\Temp\ccSIna8B.s:30228  .debug_str:000000000001aee6 .LASF4071
C:\Users\CYMR90~1\AppData\Local\Temp\ccSIna8B.s:34258  .debug_str:000000000002acd6 .LASF4072
C:\Users\CYMR90~1\AppData\Local\Temp\ccSIna8B.s:29958  .debug_str:0000000000019d0e .LASF4073
C:\Users\CYMR90~1\AppData\Local\Temp\ccSIna8B.s:28333  .debug_str:00000000000134bf .LASF4074
C:\Users\CYMR90~1\AppData\Local\Temp\ccSIna8B.s:34748  .debug_str:000000000002cc40 .LASF4075
C:\Users\CYMR90~1\AppData\Local\Temp\ccSIna8B.s:29824  .debug_str:0000000000019410 .LASF4076
C:\Users\CYMR90~1\AppData\Local\Temp\ccSIna8B.s:24313  .debug_str:000000000000329b .LASF4077
C:\Users\CYMR90~1\AppData\Local\Temp\ccSIna8B.s:33624  .debug_str:00000000000284bc .LASF4078
C:\Users\CYMR90~1\AppData\Local\Temp\ccSIna8B.s:34200  .debug_str:000000000002a95f .LASF4079
C:\Users\CYMR90~1\AppData\Local\Temp\ccSIna8B.s:25117  .debug_str:0000000000006603 .LASF4080
C:\Users\CYMR90~1\AppData\Local\Temp\ccSIna8B.s:34190  .debug_str:000000000002a888 .LASF4081
C:\Users\CYMR90~1\AppData\Local\Temp\ccSIna8B.s:26757  .debug_str:000000000000d0fa .LASF4082
C:\Users\CYMR90~1\AppData\Local\Temp\ccSIna8B.s:30696  .debug_str:000000000001cc10 .LASF4083
C:\Users\CYMR90~1\AppData\Local\Temp\ccSIna8B.s:34682  .debug_str:000000000002c85b .LASF4084
C:\Users\CYMR90~1\AppData\Local\Temp\ccSIna8B.s:24671  .debug_str:0000000000004add .LASF4085
C:\Users\CYMR90~1\AppData\Local\Temp\ccSIna8B.s:28721  .debug_str:0000000000014cc8 .LASF4086
C:\Users\CYMR90~1\AppData\Local\Temp\ccSIna8B.s:28249  .debug_str:0000000000012f46 .LASF4087
C:\Users\CYMR90~1\AppData\Local\Temp\ccSIna8B.s:26117  .debug_str:000000000000a673 .LASF4088
C:\Users\CYMR90~1\AppData\Local\Temp\ccSIna8B.s:30082  .debug_str:000000000001a446 .LASF4089
C:\Users\CYMR90~1\AppData\Local\Temp\ccSIna8B.s:27565  .debug_str:0000000000010407 .LASF4090
C:\Users\CYMR90~1\AppData\Local\Temp\ccSIna8B.s:30468  .debug_str:000000000001bdc4 .LASF4091
C:\Users\CYMR90~1\AppData\Local\Temp\ccSIna8B.s:30624  .debug_str:000000000001c6d2 .LASF4092
C:\Users\CYMR90~1\AppData\Local\Temp\ccSIna8B.s:31934  .debug_str:0000000000021914 .LASF4093
C:\Users\CYMR90~1\AppData\Local\Temp\ccSIna8B.s:27173  .debug_str:000000000000eaca .LASF4094
C:\Users\CYMR90~1\AppData\Local\Temp\ccSIna8B.s:31070  .debug_str:000000000001e4ed .LASF4095
C:\Users\CYMR90~1\AppData\Local\Temp\ccSIna8B.s:23677  .debug_str:0000000000000b50 .LASF4096
C:\Users\CYMR90~1\AppData\Local\Temp\ccSIna8B.s:30630  .debug_str:000000000001c730 .LASF4097
C:\Users\CYMR90~1\AppData\Local\Temp\ccSIna8B.s:32206  .debug_str:000000000002298b .LASF4098
C:\Users\CYMR90~1\AppData\Local\Temp\ccSIna8B.s:34062  .debug_str:000000000002a13b .LASF4099
C:\Users\CYMR90~1\AppData\Local\Temp\ccSIna8B.s:26617  .debug_str:000000000000c714 .LASF4100
C:\Users\CYMR90~1\AppData\Local\Temp\ccSIna8B.s:25121  .debug_str:0000000000006642 .LASF4101
C:\Users\CYMR90~1\AppData\Local\Temp\ccSIna8B.s:34556  .debug_str:000000000002bf74 .LASF4102
C:\Users\CYMR90~1\AppData\Local\Temp\ccSIna8B.s:31094  .debug_str:000000000001e61d .LASF4103
C:\Users\CYMR90~1\AppData\Local\Temp\ccSIna8B.s:31002  .debug_str:000000000001e0cf .LASF4104
C:\Users\CYMR90~1\AppData\Local\Temp\ccSIna8B.s:23615  .debug_str:0000000000000757 .LASF4105
C:\Users\CYMR90~1\AppData\Local\Temp\ccSIna8B.s:34734  .debug_str:000000000002cb34 .LASF4106
C:\Users\CYMR90~1\AppData\Local\Temp\ccSIna8B.s:24585  .debug_str:0000000000004497 .LASF4107
C:\Users\CYMR90~1\AppData\Local\Temp\ccSIna8B.s:33998  .debug_str:0000000000029d68 .LASF4108
C:\Users\CYMR90~1\AppData\Local\Temp\ccSIna8B.s:29964  .debug_str:0000000000019d66 .LASF4109
C:\Users\CYMR90~1\AppData\Local\Temp\ccSIna8B.s:32288  .debug_str:0000000000022ea8 .LASF4110
C:\Users\CYMR90~1\AppData\Local\Temp\ccSIna8B.s:34502  .debug_str:000000000002bc02 .LASF4111
C:\Users\CYMR90~1\AppData\Local\Temp\ccSIna8B.s:27047  .debug_str:000000000000e351 .LASF4112
C:\Users\CYMR90~1\AppData\Local\Temp\ccSIna8B.s:24883  .debug_str:00000000000057ad .LASF4113
C:\Users\CYMR90~1\AppData\Local\Temp\ccSIna8B.s:23543  .debug_str:0000000000000348 .LASF4114
C:\Users\CYMR90~1\AppData\Local\Temp\ccSIna8B.s:28119  .debug_str:0000000000012688 .LASF4115
C:\Users\CYMR90~1\AppData\Local\Temp\ccSIna8B.s:24461  .debug_str:0000000000003c2b .LASF4116
C:\Users\CYMR90~1\AppData\Local\Temp\ccSIna8B.s:28593  .debug_str:00000000000144ff .LASF4117
C:\Users\CYMR90~1\AppData\Local\Temp\ccSIna8B.s:26483  .debug_str:000000000000bed4 .LASF4118
C:\Users\CYMR90~1\AppData\Local\Temp\ccSIna8B.s:23835  .debug_str:00000000000014f3 .LASF4119
C:\Users\CYMR90~1\AppData\Local\Temp\ccSIna8B.s:34424  .debug_str:000000000002b71a .LASF4120
C:\Users\CYMR90~1\AppData\Local\Temp\ccSIna8B.s:31272  .debug_str:000000000001f085 .LASF4121
C:\Users\CYMR90~1\AppData\Local\Temp\ccSIna8B.s:31460  .debug_str:000000000001fbdc .LASF4122
C:\Users\CYMR90~1\AppData\Local\Temp\ccSIna8B.s:34898  .debug_str:000000000002d5a3 .LASF4123
C:\Users\CYMR90~1\AppData\Local\Temp\ccSIna8B.s:23829  .debug_str:0000000000001497 .LASF4124
C:\Users\CYMR90~1\AppData\Local\Temp\ccSIna8B.s:28045  .debug_str:0000000000012193 .LASF4125
C:\Users\CYMR90~1\AppData\Local\Temp\ccSIna8B.s:30388  .debug_str:000000000001b92b .LASF4126
C:\Users\CYMR90~1\AppData\Local\Temp\ccSIna8B.s:33076  .debug_str:0000000000026149 .LASF4127
C:\Users\CYMR90~1\AppData\Local\Temp\ccSIna8B.s:28769  .debug_str:0000000000014fc3 .LASF4128
C:\Users\CYMR90~1\AppData\Local\Temp\ccSIna8B.s:32012  .debug_str:0000000000021ddd .LASF4129
C:\Users\CYMR90~1\AppData\Local\Temp\ccSIna8B.s:24269  .debug_str:0000000000002f98 .LASF4130
C:\Users\CYMR90~1\AppData\Local\Temp\ccSIna8B.s:25613  .debug_str:000000000000872c .LASF4131
C:\Users\CYMR90~1\AppData\Local\Temp\ccSIna8B.s:29576  .debug_str:00000000000183b5 .LASF4132
C:\Users\CYMR90~1\AppData\Local\Temp\ccSIna8B.s:33544  .debug_str:0000000000027f33 .LASF4133
C:\Users\CYMR90~1\AppData\Local\Temp\ccSIna8B.s:33536  .debug_str:0000000000027ea9 .LASF4134
C:\Users\CYMR90~1\AppData\Local\Temp\ccSIna8B.s:34750  .debug_str:000000000002cc66 .LASF4135
C:\Users\CYMR90~1\AppData\Local\Temp\ccSIna8B.s:34110  .debug_str:000000000002a3d7 .LASF4136
C:\Users\CYMR90~1\AppData\Local\Temp\ccSIna8B.s:29782  .debug_str:00000000000190a8 .LASF4137
C:\Users\CYMR90~1\AppData\Local\Temp\ccSIna8B.s:24143  .debug_str:00000000000027b5 .LASF4138
C:\Users\CYMR90~1\AppData\Local\Temp\ccSIna8B.s:32984  .debug_str:0000000000025b9f .LASF4139
C:\Users\CYMR90~1\AppData\Local\Temp\ccSIna8B.s:25553  .debug_str:0000000000008363 .LASF4140
C:\Users\CYMR90~1\AppData\Local\Temp\ccSIna8B.s:29502  .debug_str:0000000000017f4d .LASF4141
C:\Users\CYMR90~1\AppData\Local\Temp\ccSIna8B.s:34322  .debug_str:000000000002b094 .LASF4142
C:\Users\CYMR90~1\AppData\Local\Temp\ccSIna8B.s:24483  .debug_str:0000000000003db2 .LASF4143
C:\Users\CYMR90~1\AppData\Local\Temp\ccSIna8B.s:30004  .debug_str:0000000000019fd2 .LASF4144
C:\Users\CYMR90~1\AppData\Local\Temp\ccSIna8B.s:34056  .debug_str:000000000002a0e1 .LASF4145
C:\Users\CYMR90~1\AppData\Local\Temp\ccSIna8B.s:32446  .debug_str:00000000000237b2 .LASF4146
C:\Users\CYMR90~1\AppData\Local\Temp\ccSIna8B.s:31492  .debug_str:000000000001fdf3 .LASF4147
C:\Users\CYMR90~1\AppData\Local\Temp\ccSIna8B.s:32804  .debug_str:0000000000024e99 .LASF4148
C:\Users\CYMR90~1\AppData\Local\Temp\ccSIna8B.s:34846  .debug_str:000000000002d2bf .LASF4149
C:\Users\CYMR90~1\AppData\Local\Temp\ccSIna8B.s:29440  .debug_str:0000000000017bac .LASF4150
C:\Users\CYMR90~1\AppData\Local\Temp\ccSIna8B.s:25707  .debug_str:0000000000008d15 .LASF4151
C:\Users\CYMR90~1\AppData\Local\Temp\ccSIna8B.s:30172  .debug_str:000000000001ab7d .LASF4152
C:\Users\CYMR90~1\AppData\Local\Temp\ccSIna8B.s:30410  .debug_str:000000000001ba85 .LASF4153
C:\Users\CYMR90~1\AppData\Local\Temp\ccSIna8B.s:33988  .debug_str:0000000000029cde .LASF4154
C:\Users\CYMR90~1\AppData\Local\Temp\ccSIna8B.s:26543  .debug_str:000000000000c2ba .LASF4155
C:\Users\CYMR90~1\AppData\Local\Temp\ccSIna8B.s:26971  .debug_str:000000000000de8d .LASF4156
C:\Users\CYMR90~1\AppData\Local\Temp\ccSIna8B.s:27431  .debug_str:000000000000fbb0 .LASF4157
C:\Users\CYMR90~1\AppData\Local\Temp\ccSIna8B.s:25409  .debug_str:00000000000078e5 .LASF4158
C:\Users\CYMR90~1\AppData\Local\Temp\ccSIna8B.s:29372  .debug_str:0000000000017753 .LASF4159
C:\Users\CYMR90~1\AppData\Local\Temp\ccSIna8B.s:32430  .debug_str:000000000002367d .LASF4160
C:\Users\CYMR90~1\AppData\Local\Temp\ccSIna8B.s:25893  .debug_str:0000000000009892 .LASF4161
C:\Users\CYMR90~1\AppData\Local\Temp\ccSIna8B.s:34806  .debug_str:000000000002cff2 .LASF4162
C:\Users\CYMR90~1\AppData\Local\Temp\ccSIna8B.s:33926  .debug_str:0000000000029918 .LASF4163
C:\Users\CYMR90~1\AppData\Local\Temp\ccSIna8B.s:26477  .debug_str:000000000000be5b .LASF4164
C:\Users\CYMR90~1\AppData\Local\Temp\ccSIna8B.s:30486  .debug_str:000000000001bedf .LASF4165
C:\Users\CYMR90~1\AppData\Local\Temp\ccSIna8B.s:32826  .debug_str:0000000000025027 .LASF4166
C:\Users\CYMR90~1\AppData\Local\Temp\ccSIna8B.s:28831  .debug_str:0000000000015380 .LASF4167
C:\Users\CYMR90~1\AppData\Local\Temp\ccSIna8B.s:29314  .debug_str:00000000000173dc .LASF4168
C:\Users\CYMR90~1\AppData\Local\Temp\ccSIna8B.s:31230  .debug_str:000000000001ee0d .LASF4169
C:\Users\CYMR90~1\AppData\Local\Temp\ccSIna8B.s:23727  .debug_str:0000000000000e2f .LASF4170
C:\Users\CYMR90~1\AppData\Local\Temp\ccSIna8B.s:29812  .debug_str:000000000001934a .LASF4171
C:\Users\CYMR90~1\AppData\Local\Temp\ccSIna8B.s:29320  .debug_str:000000000001744a .LASF4172
C:\Users\CYMR90~1\AppData\Local\Temp\ccSIna8B.s:31660  .debug_str:0000000000020852 .LASF4173
C:\Users\CYMR90~1\AppData\Local\Temp\ccSIna8B.s:34036  .debug_str:0000000000029fa6 .LASF4174
C:\Users\CYMR90~1\AppData\Local\Temp\ccSIna8B.s:34342  .debug_str:000000000002b1db .LASF4175
C:\Users\CYMR90~1\AppData\Local\Temp\ccSIna8B.s:27347  .debug_str:000000000000f56f .LASF4176
C:\Users\CYMR90~1\AppData\Local\Temp\ccSIna8B.s:34756  .debug_str:000000000002ccdf .LASF4177
C:\Users\CYMR90~1\AppData\Local\Temp\ccSIna8B.s:33208  .debug_str:0000000000026988 .LASF4178
C:\Users\CYMR90~1\AppData\Local\Temp\ccSIna8B.s:27297  .debug_str:000000000000f248 .LASF4179
C:\Users\CYMR90~1\AppData\Local\Temp\ccSIna8B.s:29744  .debug_str:0000000000018e51 .LASF4180
C:\Users\CYMR90~1\AppData\Local\Temp\ccSIna8B.s:33796  .debug_str:000000000002904e .LASF4181
C:\Users\CYMR90~1\AppData\Local\Temp\ccSIna8B.s:32668  .debug_str:0000000000024600 .LASF4182
C:\Users\CYMR90~1\AppData\Local\Temp\ccSIna8B.s:30318  .debug_str:000000000001b4e3 .LASF4183
C:\Users\CYMR90~1\AppData\Local\Temp\ccSIna8B.s:34272  .debug_str:000000000002ad83 .LASF4184
C:\Users\CYMR90~1\AppData\Local\Temp\ccSIna8B.s:26841  .debug_str:000000000000d6ef .LASF4185
C:\Users\CYMR90~1\AppData\Local\Temp\ccSIna8B.s:33210  .debug_str:00000000000269ae .LASF4186
C:\Users\CYMR90~1\AppData\Local\Temp\ccSIna8B.s:29213  .debug_str:0000000000016b9b .LASF4187
C:\Users\CYMR90~1\AppData\Local\Temp\ccSIna8B.s:25711  .debug_str:0000000000008d4f .LASF4188
C:\Users\CYMR90~1\AppData\Local\Temp\ccSIna8B.s:29670  .debug_str:0000000000018952 .LASF4189
C:\Users\CYMR90~1\AppData\Local\Temp\ccSIna8B.s:27705  .debug_str:0000000000010c1c .LASF4190
C:\Users\CYMR90~1\AppData\Local\Temp\ccSIna8B.s:26287  .debug_str:000000000000b183 .LASF4191
C:\Users\CYMR90~1\AppData\Local\Temp\ccSIna8B.s:29706  .debug_str:0000000000018b81 .LASF4192
C:\Users\CYMR90~1\AppData\Local\Temp\ccSIna8B.s:29924  .debug_str:0000000000019a78 .LASF4193
C:\Users\CYMR90~1\AppData\Local\Temp\ccSIna8B.s:34430  .debug_str:000000000002b770 .LASF4194
C:\Users\CYMR90~1\AppData\Local\Temp\ccSIna8B.s:25331  .debug_str:000000000000740a .LASF4195
C:\Users\CYMR90~1\AppData\Local\Temp\ccSIna8B.s:34698  .debug_str:000000000002c93c .LASF4196
C:\Users\CYMR90~1\AppData\Local\Temp\ccSIna8B.s:31710  .debug_str:0000000000020b59 .LASF4197
C:\Users\CYMR90~1\AppData\Local\Temp\ccSIna8B.s:25271  .debug_str:0000000000006fb8 .LASF4198
C:\Users\CYMR90~1\AppData\Local\Temp\ccSIna8B.s:33658  .debug_str:0000000000028776 .LASF4199
C:\Users\CYMR90~1\AppData\Local\Temp\ccSIna8B.s:26219  .debug_str:000000000000ac78 .LASF4200
C:\Users\CYMR90~1\AppData\Local\Temp\ccSIna8B.s:24873  .debug_str:00000000000056d5 .LASF4201
C:\Users\CYMR90~1\AppData\Local\Temp\ccSIna8B.s:25649  .debug_str:000000000000893f .LASF4202
C:\Users\CYMR90~1\AppData\Local\Temp\ccSIna8B.s:26711  .debug_str:000000000000ce5c .LASF4203
C:\Users\CYMR90~1\AppData\Local\Temp\ccSIna8B.s:30642  .debug_str:000000000001c7ee .LASF4204
C:\Users\CYMR90~1\AppData\Local\Temp\ccSIna8B.s:34632  .debug_str:000000000002c4bc .LASF4205
C:\Users\CYMR90~1\AppData\Local\Temp\ccSIna8B.s:27287  .debug_str:000000000000f1b3 .LASF4206
C:\Users\CYMR90~1\AppData\Local\Temp\ccSIna8B.s:31432  .debug_str:000000000001fa1d .LASF4207
C:\Users\CYMR90~1\AppData\Local\Temp\ccSIna8B.s:30562  .debug_str:000000000001c3a8 .LASF4208
C:\Users\CYMR90~1\AppData\Local\Temp\ccSIna8B.s:34458  .debug_str:000000000002b94d .LASF4209
C:\Users\CYMR90~1\AppData\Local\Temp\ccSIna8B.s:30130  .debug_str:000000000001a87f .LASF4210
C:\Users\CYMR90~1\AppData\Local\Temp\ccSIna8B.s:32782  .debug_str:0000000000024d2b .LASF4211
C:\Users\CYMR90~1\AppData\Local\Temp\ccSIna8B.s:30102  .debug_str:000000000001a72d .LASF4212
C:\Users\CYMR90~1\AppData\Local\Temp\ccSIna8B.s:30572  .debug_str:000000000001c433 .LASF4213
C:\Users\CYMR90~1\AppData\Local\Temp\ccSIna8B.s:23625  .debug_str:00000000000007d5 .LASF4214
C:\Users\CYMR90~1\AppData\Local\Temp\ccSIna8B.s:26631  .debug_str:000000000000c7dd .LASF4215
C:\Users\CYMR90~1\AppData\Local\Temp\ccSIna8B.s:26809  .debug_str:000000000000d4b0 .LASF4216
C:\Users\CYMR90~1\AppData\Local\Temp\ccSIna8B.s:24949  .debug_str:0000000000005c14 .LASF4217
C:\Users\CYMR90~1\AppData\Local\Temp\ccSIna8B.s:26089  .debug_str:000000000000a48e .LASF4218
C:\Users\CYMR90~1\AppData\Local\Temp\ccSIna8B.s:30048  .debug_str:000000000001a25c .LASF4219
C:\Users\CYMR90~1\AppData\Local\Temp\ccSIna8B.s:34010  .debug_str:0000000000029e25 .LASF4220
C:\Users\CYMR90~1\AppData\Local\Temp\ccSIna8B.s:26563  .debug_str:000000000000c3e5 .LASF4221
C:\Users\CYMR90~1\AppData\Local\Temp\ccSIna8B.s:30510  .debug_str:000000000001c088 .LASF4222
C:\Users\CYMR90~1\AppData\Local\Temp\ccSIna8B.s:30752  .debug_str:000000000001d032 .LASF4223
C:\Users\CYMR90~1\AppData\Local\Temp\ccSIna8B.s:30192  .debug_str:000000000001acbf .LASF4224
C:\Users\CYMR90~1\AppData\Local\Temp\ccSIna8B.s:31040  .debug_str:000000000001e302 .LASF4225
C:\Users\CYMR90~1\AppData\Local\Temp\ccSIna8B.s:34700  .debug_str:000000000002c962 .LASF4226
C:\Users\CYMR90~1\AppData\Local\Temp\ccSIna8B.s:26175  .debug_str:000000000000a9c7 .LASF4227
C:\Users\CYMR90~1\AppData\Local\Temp\ccSIna8B.s:24611  .debug_str:0000000000004664 .LASF4228
C:\Users\CYMR90~1\AppData\Local\Temp\ccSIna8B.s:28689  .debug_str:0000000000014ae3 .LASF4229
C:\Users\CYMR90~1\AppData\Local\Temp\ccSIna8B.s:32646  .debug_str:000000000002446c .LASF4230
C:\Users\CYMR90~1\AppData\Local\Temp\ccSIna8B.s:25195  .debug_str:0000000000006afc .LASF4231
C:\Users\CYMR90~1\AppData\Local\Temp\ccSIna8B.s:32148  .debug_str:00000000000225fb .LASF4232
C:\Users\CYMR90~1\AppData\Local\Temp\ccSIna8B.s:34540  .debug_str:000000000002be6c .LASF4233
C:\Users\CYMR90~1\AppData\Local\Temp\ccSIna8B.s:25179  .debug_str:00000000000069f1 .LASF4234
C:\Users\CYMR90~1\AppData\Local\Temp\ccSIna8B.s:29664  .debug_str:0000000000018906 .LASF4235
C:\Users\CYMR90~1\AppData\Local\Temp\ccSIna8B.s:33718  .debug_str:0000000000028bb6 .LASF4236
C:\Users\CYMR90~1\AppData\Local\Temp\ccSIna8B.s:33052  .debug_str:0000000000025fd2 .LASF4237
C:\Users\CYMR90~1\AppData\Local\Temp\ccSIna8B.s:28631  .debug_str:0000000000014712 .LASF4238
C:\Users\CYMR90~1\AppData\Local\Temp\ccSIna8B.s:32734  .debug_str:00000000000249c0 .LASF4239
C:\Users\CYMR90~1\AppData\Local\Temp\ccSIna8B.s:33342  .debug_str:00000000000271ee .LASF4240
C:\Users\CYMR90~1\AppData\Local\Temp\ccSIna8B.s:30846  .debug_str:000000000001d688 .LASF4241
C:\Users\CYMR90~1\AppData\Local\Temp\ccSIna8B.s:31588  .debug_str:0000000000020393 .LASF4242
C:\Users\CYMR90~1\AppData\Local\Temp\ccSIna8B.s:27687  .debug_str:0000000000010b12 .LASF4243
C:\Users\CYMR90~1\AppData\Local\Temp\ccSIna8B.s:31288  .debug_str:000000000001f18c .LASF4244
C:\Users\CYMR90~1\AppData\Local\Temp\ccSIna8B.s:26979  .debug_str:000000000000df14 .LASF4245
C:\Users\CYMR90~1\AppData\Local\Temp\ccSIna8B.s:25527  .debug_str:000000000000814b .LASF4246
C:\Users\CYMR90~1\AppData\Local\Temp\ccSIna8B.s:32940  .debug_str:00000000000257ff .LASF4247
C:\Users\CYMR90~1\AppData\Local\Temp\ccSIna8B.s:34558  .debug_str:000000000002bf9a .LASF4248
C:\Users\CYMR90~1\AppData\Local\Temp\ccSIna8B.s:25885  .debug_str:0000000000009819 .LASF4249
C:\Users\CYMR90~1\AppData\Local\Temp\ccSIna8B.s:29029  .debug_str:0000000000015f40 .LASF4250
C:\Users\CYMR90~1\AppData\Local\Temp\ccSIna8B.s:30216  .debug_str:000000000001ae22 .LASF4251
C:\Users\CYMR90~1\AppData\Local\Temp\ccSIna8B.s:28113  .debug_str:000000000001262d .LASF4252
C:\Users\CYMR90~1\AppData\Local\Temp\ccSIna8B.s:33496  .debug_str:0000000000027bd4 .LASF4253
C:\Users\CYMR90~1\AppData\Local\Temp\ccSIna8B.s:26741  .debug_str:000000000000cfe2 .LASF4254
C:\Users\CYMR90~1\AppData\Local\Temp\ccSIna8B.s:26147  .debug_str:000000000000a800 .LASF4255
C:\Users\CYMR90~1\AppData\Local\Temp\ccSIna8B.s:32732  .debug_str:000000000002499a .LASF4256
C:\Users\CYMR90~1\AppData\Local\Temp\ccSIna8B.s:27169  .debug_str:000000000000ea94 .LASF4257
C:\Users\CYMR90~1\AppData\Local\Temp\ccSIna8B.s:24993  .debug_str:0000000000005e6f .LASF4258
C:\Users\CYMR90~1\AppData\Local\Temp\ccSIna8B.s:31318  .debug_str:000000000001f360 .LASF4259
C:\Users\CYMR90~1\AppData\Local\Temp\ccSIna8B.s:32936  .debug_str:00000000000257ad .LASF4260
C:\Users\CYMR90~1\AppData\Local\Temp\ccSIna8B.s:32712  .debug_str:0000000000024856 .LASF4261
C:\Users\CYMR90~1\AppData\Local\Temp\ccSIna8B.s:24543  .debug_str:0000000000004226 .LASF4262
C:\Users\CYMR90~1\AppData\Local\Temp\ccSIna8B.s:30288  .debug_str:000000000001b2b9 .LASF4263
C:\Users\CYMR90~1\AppData\Local\Temp\ccSIna8B.s:27775  .debug_str:00000000000110a8 .LASF4264
C:\Users\CYMR90~1\AppData\Local\Temp\ccSIna8B.s:30040  .debug_str:000000000001a1d7 .LASF4265
C:\Users\CYMR90~1\AppData\Local\Temp\ccSIna8B.s:34004  .debug_str:0000000000029dbb .LASF4266
C:\Users\CYMR90~1\AppData\Local\Temp\ccSIna8B.s:33324  .debug_str:00000000000270c4 .LASF4267
C:\Users\CYMR90~1\AppData\Local\Temp\ccSIna8B.s:28905  .debug_str:000000000001577a .LASF4268
C:\Users\CYMR90~1\AppData\Local\Temp\ccSIna8B.s:34642  .debug_str:000000000002c589 .LASF4269
C:\Users\CYMR90~1\AppData\Local\Temp\ccSIna8B.s:25419  .debug_str:000000000000798d .LASF4270
C:\Users\CYMR90~1\AppData\Local\Temp\ccSIna8B.s:32874  .debug_str:0000000000025343 .LASF4271
C:\Users\CYMR90~1\AppData\Local\Temp\ccSIna8B.s:34892  .debug_str:000000000002d53f .LASF4272
C:\Users\CYMR90~1\AppData\Local\Temp\ccSIna8B.s:24707  .debug_str:0000000000004d19 .LASF4273
C:\Users\CYMR90~1\AppData\Local\Temp\ccSIna8B.s:27117  .debug_str:000000000000e739 .LASF4274
C:\Users\CYMR90~1\AppData\Local\Temp\ccSIna8B.s:24941  .debug_str:0000000000005b47 .LASF4275
C:\Users\CYMR90~1\AppData\Local\Temp\ccSIna8B.s:26489  .debug_str:000000000000bf32 .LASF4276
C:\Users\CYMR90~1\AppData\Local\Temp\ccSIna8B.s:27839  .debug_str:0000000000011463 .LASF4277
C:\Users\CYMR90~1\AppData\Local\Temp\ccSIna8B.s:27149  .debug_str:000000000000e96c .LASF4278
C:\Users\CYMR90~1\AppData\Local\Temp\ccSIna8B.s:33094  .debug_str:000000000002629d .LASF4279
C:\Users\CYMR90~1\AppData\Local\Temp\ccSIna8B.s:29412  .debug_str:00000000000179c5 .LASF4280
C:\Users\CYMR90~1\AppData\Local\Temp\ccSIna8B.s:30376  .debug_str:000000000001b852 .LASF4281
C:\Users\CYMR90~1\AppData\Local\Temp\ccSIna8B.s:30632  .debug_str:000000000001c756 .LASF4282
C:\Users\CYMR90~1\AppData\Local\Temp\ccSIna8B.s:29918  .debug_str:0000000000019a0a .LASF4283
C:\Users\CYMR90~1\AppData\Local\Temp\ccSIna8B.s:33880  .debug_str:00000000000295b9 .LASF4284
C:\Users\CYMR90~1\AppData\Local\Temp\ccSIna8B.s:23925  .debug_str:0000000000001a37 .LASF4285
C:\Users\CYMR90~1\AppData\Local\Temp\ccSIna8B.s:26299  .debug_str:000000000000b247 .LASF4286
C:\Users\CYMR90~1\AppData\Local\Temp\ccSIna8B.s:27461  .debug_str:000000000000fd9b .LASF4287
C:\Users\CYMR90~1\AppData\Local\Temp\ccSIna8B.s:25283  .debug_str:000000000000706d .LASF4288
C:\Users\CYMR90~1\AppData\Local\Temp\ccSIna8B.s:29348  .debug_str:00000000000175e6 .LASF4289
C:\Users\CYMR90~1\AppData\Local\Temp\ccSIna8B.s:33314  .debug_str:0000000000027019 .LASF4290
C:\Users\CYMR90~1\AppData\Local\Temp\ccSIna8B.s:31806  .debug_str:00000000000210fd .LASF4291
C:\Users\CYMR90~1\AppData\Local\Temp\ccSIna8B.s:29850  .debug_str:0000000000019588 .LASF4292
C:\Users\CYMR90~1\AppData\Local\Temp\ccSIna8B.s:25103  .debug_str:0000000000006549 .LASF4293
C:\Users\CYMR90~1\AppData\Local\Temp\ccSIna8B.s:26365  .debug_str:000000000000b692 .LASF4294
C:\Users\CYMR90~1\AppData\Local\Temp\ccSIna8B.s:29842  .debug_str:0000000000019512 .LASF4295
C:\Users\CYMR90~1\AppData\Local\Temp\ccSIna8B.s:28007  .debug_str:0000000000011f10 .LASF4296
C:\Users\CYMR90~1\AppData\Local\Temp\ccSIna8B.s:25023  .debug_str:000000000000604b .LASF4297
C:\Users\CYMR90~1\AppData\Local\Temp\ccSIna8B.s:29286  .debug_str:0000000000017257 .LASF4298
C:\Users\CYMR90~1\AppData\Local\Temp\ccSIna8B.s:33244  .debug_str:0000000000026bab .LASF4299
C:\Users\CYMR90~1\AppData\Local\Temp\ccSIna8B.s:25815  .debug_str:00000000000093b6 .LASF4300
C:\Users\CYMR90~1\AppData\Local\Temp\ccSIna8B.s:23887  .debug_str:00000000000017e6 .LASF4301
C:\Users\CYMR90~1\AppData\Local\Temp\ccSIna8B.s:29956  .debug_str:0000000000019ce8 .LASF4302
C:\Users\CYMR90~1\AppData\Local\Temp\ccSIna8B.s:30978  .debug_str:000000000001df3e .LASF4303
C:\Users\CYMR90~1\AppData\Local\Temp\ccSIna8B.s:30278  .debug_str:000000000001b23e .LASF4304
C:\Users\CYMR90~1\AppData\Local\Temp\ccSIna8B.s:24295  .debug_str:000000000000314b .LASF4305
C:\Users\CYMR90~1\AppData\Local\Temp\ccSIna8B.s:26877  .debug_str:000000000000d962 .LASF4306
C:\Users\CYMR90~1\AppData\Local\Temp\ccSIna8B.s:23893  .debug_str:000000000000184c .LASF4307
C:\Users\CYMR90~1\AppData\Local\Temp\ccSIna8B.s:33184  .debug_str:00000000000267ff .LASF4308
C:\Users\CYMR90~1\AppData\Local\Temp\ccSIna8B.s:27531  .debug_str:0000000000010216 .LASF4309
C:\Users\CYMR90~1\AppData\Local\Temp\ccSIna8B.s:30022  .debug_str:000000000001a0c4 .LASF4310
C:\Users\CYMR90~1\AppData\Local\Temp\ccSIna8B.s:32200  .debug_str:000000000002290d .LASF4311
C:\Users\CYMR90~1\AppData\Local\Temp\ccSIna8B.s:28425  .debug_str:0000000000013ad2 .LASF4312
C:\Users\CYMR90~1\AppData\Local\Temp\ccSIna8B.s:30218  .debug_str:000000000001ae48 .LASF4313
C:\Users\CYMR90~1\AppData\Local\Temp\ccSIna8B.s:34156  .debug_str:000000000002a668 .LASF4314
C:\Users\CYMR90~1\AppData\Local\Temp\ccSIna8B.s:31056  .debug_str:000000000001e416 .LASF4315
C:\Users\CYMR90~1\AppData\Local\Temp\ccSIna8B.s:27477  .debug_str:000000000000fe91 .LASF4316
C:\Users\CYMR90~1\AppData\Local\Temp\ccSIna8B.s:27825  .debug_str:0000000000011389 .LASF4317
C:\Users\CYMR90~1\AppData\Local\Temp\ccSIna8B.s:25679  .debug_str:0000000000008b63 .LASF4318
C:\Users\CYMR90~1\AppData\Local\Temp\ccSIna8B.s:25759  .debug_str:000000000000909a .LASF4319
C:\Users\CYMR90~1\AppData\Local\Temp\ccSIna8B.s:30782  .debug_str:000000000001d28f .LASF4320
C:\Users\CYMR90~1\AppData\Local\Temp\ccSIna8B.s:27803  .debug_str:0000000000011231 .LASF4321
C:\Users\CYMR90~1\AppData\Local\Temp\ccSIna8B.s:30146  .debug_str:000000000001a986 .LASF4322
C:\Users\CYMR90~1\AppData\Local\Temp\ccSIna8B.s:28515  .debug_str:0000000000014017 .LASF4323
C:\Users\CYMR90~1\AppData\Local\Temp\ccSIna8B.s:31098  .debug_str:000000000001e673 .LASF4324
C:\Users\CYMR90~1\AppData\Local\Temp\ccSIna8B.s:31872  .debug_str:00000000000214c3 .LASF4325
C:\Users\CYMR90~1\AppData\Local\Temp\ccSIna8B.s:27953  .debug_str:0000000000011c1f .LASF4326
C:\Users\CYMR90~1\AppData\Local\Temp\ccSIna8B.s:26217  .debug_str:000000000000ac52 .LASF4327
C:\Users\CYMR90~1\AppData\Local\Temp\ccSIna8B.s:24317  .debug_str:00000000000032d9 .LASF4328
C:\Users\CYMR90~1\AppData\Local\Temp\ccSIna8B.s:28307  .debug_str:0000000000013319 .LASF4329
C:\Users\CYMR90~1\AppData\Local\Temp\ccSIna8B.s:31906  .debug_str:0000000000021771 .LASF4330
C:\Users\CYMR90~1\AppData\Local\Temp\ccSIna8B.s:24777  .debug_str:000000000000514c .LASF4331
C:\Users\CYMR90~1\AppData\Local\Temp\ccSIna8B.s:28765  .debug_str:0000000000014f7b .LASF4332
C:\Users\CYMR90~1\AppData\Local\Temp\ccSIna8B.s:32722  .debug_str:00000000000248fe .LASF4333
C:\Users\CYMR90~1\AppData\Local\Temp\ccSIna8B.s:25275  .debug_str:000000000000700a .LASF4334
C:\Users\CYMR90~1\AppData\Local\Temp\ccSIna8B.s:27627  .debug_str:0000000000010779 .LASF4335
C:\Users\CYMR90~1\AppData\Local\Temp\ccSIna8B.s:33306  .debug_str:0000000000026f7e .LASF4336
C:\Users\CYMR90~1\AppData\Local\Temp\ccSIna8B.s:31510  .debug_str:000000000001fed9 .LASF4337
C:\Users\CYMR90~1\AppData\Local\Temp\ccSIna8B.s:28257  .debug_str:0000000000012fe1 .LASF4338
C:\Users\CYMR90~1\AppData\Local\Temp\ccSIna8B.s:32194  .debug_str:000000000002288e .LASF4339
C:\Users\CYMR90~1\AppData\Local\Temp\ccSIna8B.s:28099  .debug_str:0000000000012536 .LASF4340
C:\Users\CYMR90~1\AppData\Local\Temp\ccSIna8B.s:28809  .debug_str:000000000001525b .LASF4341
C:\Users\CYMR90~1\AppData\Local\Temp\ccSIna8B.s:34754  .debug_str:000000000002ccb9 .LASF4342
C:\Users\CYMR90~1\AppData\Local\Temp\ccSIna8B.s:33470  .debug_str:0000000000027a3e .LASF4343
C:\Users\CYMR90~1\AppData\Local\Temp\ccSIna8B.s:29179  .debug_str:000000000001692e .LASF4344
C:\Users\CYMR90~1\AppData\Local\Temp\ccSIna8B.s:27679  .debug_str:0000000000010a95 .LASF4345
C:\Users\CYMR90~1\AppData\Local\Temp\ccSIna8B.s:25807  .debug_str:0000000000009347 .LASF4346
C:\Users\CYMR90~1\AppData\Local\Temp\ccSIna8B.s:34270  .debug_str:000000000002ad5d .LASF4347
C:\Users\CYMR90~1\AppData\Local\Temp\ccSIna8B.s:32120  .debug_str:0000000000022475 .LASF4348
C:\Users\CYMR90~1\AppData\Local\Temp\ccSIna8B.s:29063  .debug_str:00000000000161e2 .LASF4349
C:\Users\CYMR90~1\AppData\Local\Temp\ccSIna8B.s:32296  .debug_str:0000000000022f30 .LASF4350
C:\Users\CYMR90~1\AppData\Local\Temp\ccSIna8B.s:27379  .debug_str:000000000000f74d .LASF4351
C:\Users\CYMR90~1\AppData\Local\Temp\ccSIna8B.s:25141  .debug_str:0000000000006746 .LASF4352
C:\Users\CYMR90~1\AppData\Local\Temp\ccSIna8B.s:29111  .debug_str:00000000000164bf .LASF4353
C:\Users\CYMR90~1\AppData\Local\Temp\ccSIna8B.s:33176  .debug_str:0000000000026767 .LASF4354
C:\Users\CYMR90~1\AppData\Local\Temp\ccSIna8B.s:25747  .debug_str:0000000000008fe8 .LASF4355
C:\Users\CYMR90~1\AppData\Local\Temp\ccSIna8B.s:29704  .debug_str:0000000000018b5b .LASF4356
C:\Users\CYMR90~1\AppData\Local\Temp\ccSIna8B.s:26769  .debug_str:000000000000d1c9 .LASF4357
C:\Users\CYMR90~1\AppData\Local\Temp\ccSIna8B.s:24589  .debug_str:00000000000044e1 .LASF4358
C:\Users\CYMR90~1\AppData\Local\Temp\ccSIna8B.s:27585  .debug_str:0000000000010516 .LASF4359
C:\Users\CYMR90~1\AppData\Local\Temp\ccSIna8B.s:26509  .debug_str:000000000000c0a0 .LASF4360
C:\Users\CYMR90~1\AppData\Local\Temp\ccSIna8B.s:25077  .debug_str:000000000000639f .LASF4361
C:\Users\CYMR90~1\AppData\Local\Temp\ccSIna8B.s:24199  .debug_str:0000000000002b32 .LASF4362
C:\Users\CYMR90~1\AppData\Local\Temp\ccSIna8B.s:34760  .debug_str:000000000002cd29 .LASF4363
C:\Users\CYMR90~1\AppData\Local\Temp\ccSIna8B.s:25695  .debug_str:0000000000008c4f .LASF4364
C:\Users\CYMR90~1\AppData\Local\Temp\ccSIna8B.s:29630  .debug_str:000000000001870f .LASF4365
C:\Users\CYMR90~1\AppData\Local\Temp\ccSIna8B.s:23959  .debug_str:0000000000001c35 .LASF4366
C:\Users\CYMR90~1\AppData\Local\Temp\ccSIna8B.s:23741  .debug_str:0000000000000f88 .LASF4367
C:\Users\CYMR90~1\AppData\Local\Temp\ccSIna8B.s:28511  .debug_str:0000000000013fd4 .LASF4368
C:\Users\CYMR90~1\AppData\Local\Temp\ccSIna8B.s:32466  .debug_str:00000000000238fe .LASF4369
C:\Users\CYMR90~1\AppData\Local\Temp\ccSIna8B.s:28915  .debug_str:000000000001582c .LASF4370
C:\Users\CYMR90~1\AppData\Local\Temp\ccSIna8B.s:33650  .debug_str:00000000000286f0 .LASF4371
C:\Users\CYMR90~1\AppData\Local\Temp\ccSIna8B.s:26899  .debug_str:000000000000daa4 .LASF4372
C:\Users\CYMR90~1\AppData\Local\Temp\ccSIna8B.s:25601  .debug_str:0000000000008684 .LASF4373
C:\Users\CYMR90~1\AppData\Local\Temp\ccSIna8B.s:31556  .debug_str:00000000000201df .LASF4374
C:\Users\CYMR90~1\AppData\Local\Temp\ccSIna8B.s:33532  .debug_str:0000000000027e61 .LASF4375
C:\Users\CYMR90~1\AppData\Local\Temp\ccSIna8B.s:26093  .debug_str:000000000000a4cc .LASF4376
C:\Users\CYMR90~1\AppData\Local\Temp\ccSIna8B.s:34568  .debug_str:000000000002c044 .LASF4377
C:\Users\CYMR90~1\AppData\Local\Temp\ccSIna8B.s:25383  .debug_str:0000000000007735 .LASF4378
C:\Users\CYMR90~1\AppData\Local\Temp\ccSIna8B.s:24937  .debug_str:0000000000005aef .LASF4379
C:\Users\CYMR90~1\AppData\Local\Temp\ccSIna8B.s:28079  .debug_str:0000000000012425 .LASF4380
C:\Users\CYMR90~1\AppData\Local\Temp\ccSIna8B.s:28963  .debug_str:0000000000015af9 .LASF4381
C:\Users\CYMR90~1\AppData\Local\Temp\ccSIna8B.s:25539  .debug_str:0000000000008290 .LASF4382
C:\Users\CYMR90~1\AppData\Local\Temp\ccSIna8B.s:29147  .debug_str:0000000000016735 .LASF4383
C:\Users\CYMR90~1\AppData\Local\Temp\ccSIna8B.s:26081  .debug_str:000000000000a407 .LASF4384
C:\Users\CYMR90~1\AppData\Local\Temp\ccSIna8B.s:24181  .debug_str:0000000000002a0c .LASF4385
C:\Users\CYMR90~1\AppData\Local\Temp\ccSIna8B.s:31530  .debug_str:000000000002006c .LASF4386
C:\Users\CYMR90~1\AppData\Local\Temp\ccSIna8B.s:25233  .debug_str:0000000000006d4f .LASF4387
C:\Users\CYMR90~1\AppData\Local\Temp\ccSIna8B.s:24867  .debug_str:0000000000005689 .LASF4388
C:\Users\CYMR90~1\AppData\Local\Temp\ccSIna8B.s:25491  .debug_str:0000000000007e35 .LASF4389
C:\Users\CYMR90~1\AppData\Local\Temp\ccSIna8B.s:33966  .debug_str:0000000000029bcc .LASF4390
C:\Users\CYMR90~1\AppData\Local\Temp\ccSIna8B.s:25459  .debug_str:0000000000007c58 .LASF4391
C:\Users\CYMR90~1\AppData\Local\Temp\ccSIna8B.s:25039  .debug_str:000000000000613e .LASF4392
C:\Users\CYMR90~1\AppData\Local\Temp\ccSIna8B.s:25823  .debug_str:000000000000943c .LASF4393
C:\Users\CYMR90~1\AppData\Local\Temp\ccSIna8B.s:32540  .debug_str:0000000000023d3a .LASF4394
C:\Users\CYMR90~1\AppData\Local\Temp\ccSIna8B.s:24637  .debug_str:0000000000004826 .LASF4395
C:\Users\CYMR90~1\AppData\Local\Temp\ccSIna8B.s:25229  .debug_str:0000000000006cfc .LASF4396
C:\Users\CYMR90~1\AppData\Local\Temp\ccSIna8B.s:34440  .debug_str:000000000002b824 .LASF4397
C:\Users\CYMR90~1\AppData\Local\Temp\ccSIna8B.s:24807  .debug_str:0000000000005315 .LASF4398
C:\Users\CYMR90~1\AppData\Local\Temp\ccSIna8B.s:26101  .debug_str:000000000000a57c .LASF4399
C:\Users\CYMR90~1\AppData\Local\Temp\ccSIna8B.s:25393  .debug_str:00000000000077eb .LASF4400
C:\Users\CYMR90~1\AppData\Local\Temp\ccSIna8B.s:30788  .debug_str:000000000001d2f4 .LASF4401
C:\Users\CYMR90~1\AppData\Local\Temp\ccSIna8B.s:33142  .debug_str:0000000000026544 .LASF4402
C:\Users\CYMR90~1\AppData\Local\Temp\ccSIna8B.s:30136  .debug_str:000000000001a8f1 .LASF4403
C:\Users\CYMR90~1\AppData\Local\Temp\ccSIna8B.s:26453  .debug_str:000000000000bc47 .LASF4404
C:\Users\CYMR90~1\AppData\Local\Temp\ccSIna8B.s:33912  .debug_str:000000000002981e .LASF4405
C:\Users\CYMR90~1\AppData\Local\Temp\ccSIna8B.s:26225  .debug_str:000000000000acf0 .LASF4406
C:\Users\CYMR90~1\AppData\Local\Temp\ccSIna8B.s:28061  .debug_str:00000000000122d0 .LASF4407
C:\Users\CYMR90~1\AppData\Local\Temp\ccSIna8B.s:32770  .debug_str:0000000000024c56 .LASF4408
C:\Users\CYMR90~1\AppData\Local\Temp\ccSIna8B.s:31964  .debug_str:0000000000021b02 .LASF4409
C:\Users\CYMR90~1\AppData\Local\Temp\ccSIna8B.s:29304  .debug_str:000000000001734f .LASF4410
C:\Users\CYMR90~1\AppData\Local\Temp\ccSIna8B.s:33260  .debug_str:0000000000026cd6 .LASF4411
C:\Users\CYMR90~1\AppData\Local\Temp\ccSIna8B.s:29438  .debug_str:0000000000017b86 .LASF4412
C:\Users\CYMR90~1\AppData\Local\Temp\ccSIna8B.s:30220  .debug_str:000000000001ae6e .LASF4413
C:\Users\CYMR90~1\AppData\Local\Temp\ccSIna8B.s:33222  .debug_str:0000000000026a6d .LASF4414
C:\Users\CYMR90~1\AppData\Local\Temp\ccSIna8B.s:26399  .debug_str:000000000000b8e6 .LASF4415
C:\Users\CYMR90~1\AppData\Local\Temp\ccSIna8B.s:30354  .debug_str:000000000001b70e .LASF4416
C:\Users\CYMR90~1\AppData\Local\Temp\ccSIna8B.s:32404  .debug_str:0000000000023504 .LASF4417
C:\Users\CYMR90~1\AppData\Local\Temp\ccSIna8B.s:25251  .debug_str:0000000000006e70 .LASF4418
C:\Users\CYMR90~1\AppData\Local\Temp\ccSIna8B.s:29227  .debug_str:0000000000016d08 .LASF4419
C:\Users\CYMR90~1\AppData\Local\Temp\ccSIna8B.s:33198  .debug_str:00000000000268cc .LASF4420
C:\Users\CYMR90~1\AppData\Local\Temp\ccSIna8B.s:29448  .debug_str:0000000000017c29 .LASF4421
C:\Users\CYMR90~1\AppData\Local\Temp\ccSIna8B.s:29746  .debug_str:0000000000018e77 .LASF4422
C:\Users\CYMR90~1\AppData\Local\Temp\ccSIna8B.s:28373  .debug_str:00000000000137a9 .LASF4423
C:\Users\CYMR90~1\AppData\Local\Temp\ccSIna8B.s:29079  .debug_str:00000000000162e5 .LASF4424
C:\Users\CYMR90~1\AppData\Local\Temp\ccSIna8B.s:30308  .debug_str:000000000001b450 .LASF4425
C:\Users\CYMR90~1\AppData\Local\Temp\ccSIna8B.s:28737  .debug_str:0000000000014da3 .LASF4426
C:\Users\CYMR90~1\AppData\Local\Temp\ccSIna8B.s:23715  .debug_str:0000000000000d7b .LASF4427
C:\Users\CYMR90~1\AppData\Local\Temp\ccSIna8B.s:33166  .debug_str:000000000002669e .LASF4428
C:\Users\CYMR90~1\AppData\Local\Temp\ccSIna8B.s:27919  .debug_str:0000000000011973 .LASF4429
C:\Users\CYMR90~1\AppData\Local\Temp\ccSIna8B.s:31848  .debug_str:000000000002135c .LASF4430
C:\Users\CYMR90~1\AppData\Local\Temp\ccSIna8B.s:24397  .debug_str:000000000000383e .LASF4431
C:\Users\CYMR90~1\AppData\Local\Temp\ccSIna8B.s:28391  .debug_str:00000000000138d4 .LASF4432
C:\Users\CYMR90~1\AppData\Local\Temp\ccSIna8B.s:31752  .debug_str:0000000000020dfe .LASF4433
C:\Users\CYMR90~1\AppData\Local\Temp\ccSIna8B.s:30610  .debug_str:000000000001c62a .LASF4434
C:\Users\CYMR90~1\AppData\Local\Temp\ccSIna8B.s:29766  .debug_str:0000000000018fcc .LASF4435
C:\Users\CYMR90~1\AppData\Local\Temp\ccSIna8B.s:31330  .debug_str:000000000001f414 .LASF4436
C:\Users\CYMR90~1\AppData\Local\Temp\ccSIna8B.s:24577  .debug_str:000000000000441f .LASF4437
C:\Users\CYMR90~1\AppData\Local\Temp\ccSIna8B.s:27863  .debug_str:00000000000115d9 .LASF4438
C:\Users\CYMR90~1\AppData\Local\Temp\ccSIna8B.s:31778  .debug_str:0000000000020f8c .LASF4439
C:\Users\CYMR90~1\AppData\Local\Temp\ccSIna8B.s:29730  .debug_str:0000000000018cc2 .LASF4440
C:\Users\CYMR90~1\AppData\Local\Temp\ccSIna8B.s:28423  .debug_str:0000000000013ab0 .LASF4441
C:\Users\CYMR90~1\AppData\Local\Temp\ccSIna8B.s:32290  .debug_str:0000000000022ece .LASF4442
C:\Users\CYMR90~1\AppData\Local\Temp\ccSIna8B.s:34868  .debug_str:000000000002d3dd .LASF4443
C:\Users\CYMR90~1\AppData\Local\Temp\ccSIna8B.s:26325  .debug_str:000000000000b3c1 .LASF4444
C:\Users\CYMR90~1\AppData\Local\Temp\ccSIna8B.s:30558  .debug_str:000000000001c35f .LASF4445
C:\Users\CYMR90~1\AppData\Local\Temp\ccSIna8B.s:27677  .debug_str:0000000000010a73 .LASF4446
C:\Users\CYMR90~1\AppData\Local\Temp\ccSIna8B.s:24121  .debug_str:00000000000025aa .LASF4447
C:\Users\CYMR90~1\AppData\Local\Temp\ccSIna8B.s:32318  .debug_str:000000000002306f .LASF4448
C:\Users\CYMR90~1\AppData\Local\Temp\ccSIna8B.s:24919  .debug_str:00000000000059f1 .LASF4449
C:\Users\CYMR90~1\AppData\Local\Temp\ccSIna8B.s:23683  .debug_str:0000000000000bcb .LASF4450
C:\Users\CYMR90~1\AppData\Local\Temp\ccSIna8B.s:24749  .debug_str:0000000000004f9c .LASF4451
C:\Users\CYMR90~1\AppData\Local\Temp\ccSIna8B.s:25399  .debug_str:000000000000783b .LASF4452
C:\Users\CYMR90~1\AppData\Local\Temp\ccSIna8B.s:33144  .debug_str:000000000002656a .LASF4453
C:\Users\CYMR90~1\AppData\Local\Temp\ccSIna8B.s:24037  .debug_str:0000000000002096 .LASF4454
C:\Users\CYMR90~1\AppData\Local\Temp\ccSIna8B.s:31862  .debug_str:0000000000021438 .LASF4455
C:\Users\CYMR90~1\AppData\Local\Temp\ccSIna8B.s:26401  .debug_str:000000000000b90c .LASF4456
C:\Users\CYMR90~1\AppData\Local\Temp\ccSIna8B.s:34186  .debug_str:000000000002a864 .LASF4457
C:\Users\CYMR90~1\AppData\Local\Temp\ccSIna8B.s:25755  .debug_str:000000000000906a .LASF4458
C:\Users\CYMR90~1\AppData\Local\Temp\ccSIna8B.s:31474  .debug_str:000000000001fcd3 .LASF4459
C:\Users\CYMR90~1\AppData\Local\Temp\ccSIna8B.s:32108  .debug_str:00000000000223b9 .LASF4460
C:\Users\CYMR90~1\AppData\Local\Temp\ccSIna8B.s:29652  .debug_str:0000000000018848 .LASF4461
C:\Users\CYMR90~1\AppData\Local\Temp\ccSIna8B.s:25543  .debug_str:00000000000082ce .LASF4462
C:\Users\CYMR90~1\AppData\Local\Temp\ccSIna8B.s:29117  .debug_str:0000000000016526 .LASF4463
C:\Users\CYMR90~1\AppData\Local\Temp\ccSIna8B.s:29021  .debug_str:0000000000015ed1 .LASF4464
C:\Users\CYMR90~1\AppData\Local\Temp\ccSIna8B.s:28607  .debug_str:00000000000145d8 .LASF4465
C:\Users\CYMR90~1\AppData\Local\Temp\ccSIna8B.s:31182  .debug_str:000000000001eb81 .LASF4466
C:\Users\CYMR90~1\AppData\Local\Temp\ccSIna8B.s:27851  .debug_str:0000000000011525 .LASF4467
C:\Users\CYMR90~1\AppData\Local\Temp\ccSIna8B.s:30906  .debug_str:000000000001da8f .LASF4468
C:\Users\CYMR90~1\AppData\Local\Temp\ccSIna8B.s:34848  .debug_str:000000000002d2e5 .LASF4469
C:\Users\CYMR90~1\AppData\Local\Temp\ccSIna8B.s:27111  .debug_str:000000000000e6dd .LASF4470
C:\Users\CYMR90~1\AppData\Local\Temp\ccSIna8B.s:29612  .debug_str:00000000000185ed .LASF4471
C:\Users\CYMR90~1\AppData\Local\Temp\ccSIna8B.s:23905  .debug_str:0000000000001920 .LASF4472
C:\Users\CYMR90~1\AppData\Local\Temp\ccSIna8B.s:24535  .debug_str:0000000000004121 .LASF4473
C:\Users\CYMR90~1\AppData\Local\Temp\ccSIna8B.s:24539  .debug_str:00000000000041f1 .LASF4474
C:\Users\CYMR90~1\AppData\Local\Temp\ccSIna8B.s:27759  .debug_str:0000000000010fda .LASF4475
C:\Users\CYMR90~1\AppData\Local\Temp\ccSIna8B.s:32586  .debug_str:0000000000023fc2 .LASF4476
C:\Users\CYMR90~1\AppData\Local\Temp\ccSIna8B.s:26427  .debug_str:000000000000baef .LASF4477
C:\Users\CYMR90~1\AppData\Local\Temp\ccSIna8B.s:26145  .debug_str:000000000000a7e8 .LASF4478
C:\Users\CYMR90~1\AppData\Local\Temp\ccSIna8B.s:31738  .debug_str:0000000000020d29 .LASF4479
C:\Users\CYMR90~1\AppData\Local\Temp\ccSIna8B.s:27819  .debug_str:0000000000011345 .LASF4480
C:\Users\CYMR90~1\AppData\Local\Temp\ccSIna8B.s:33024  .debug_str:0000000000025e1c .LASF4481
C:\Users\CYMR90~1\AppData\Local\Temp\ccSIna8B.s:32650  .debug_str:00000000000244c2 .LASF4482
C:\Users\CYMR90~1\AppData\Local\Temp\ccSIna8B.s:30920  .debug_str:000000000001db4f .LASF4483
C:\Users\CYMR90~1\AppData\Local\Temp\ccSIna8B.s:28903  .debug_str:0000000000015761 .LASF4484
C:\Users\CYMR90~1\AppData\Local\Temp\ccSIna8B.s:34460  .debug_str:000000000002b973 .LASF4485
C:\Users\CYMR90~1\AppData\Local\Temp\ccSIna8B.s:32700  .debug_str:00000000000247aa .LASF4486
C:\Users\CYMR90~1\AppData\Local\Temp\ccSIna8B.s:29904  .debug_str:00000000000198cd .LASF4487
C:\Users\CYMR90~1\AppData\Local\Temp\ccSIna8B.s:30932  .debug_str:000000000001dc0d .LASF4488
C:\Users\CYMR90~1\AppData\Local\Temp\ccSIna8B.s:29105  .debug_str:000000000001645d .LASF4489
C:\Users\CYMR90~1\AppData\Local\Temp\ccSIna8B.s:25767  .debug_str:000000000000911c .LASF4490
C:\Users\CYMR90~1\AppData\Local\Temp\ccSIna8B.s:27727  .debug_str:0000000000010d56 .LASF4491
C:\Users\CYMR90~1\AppData\Local\Temp\ccSIna8B.s:34566  .debug_str:000000000002c00a .LASF4492
C:\Users\CYMR90~1\AppData\Local\Temp\ccSIna8B.s:29364  .debug_str:00000000000176b5 .LASF4493
C:\Users\CYMR90~1\AppData\Local\Temp\ccSIna8B.s:29133  .debug_str:00000000000165ef .LASF4494
C:\Users\CYMR90~1\AppData\Local\Temp\ccSIna8B.s:24485  .debug_str:0000000000003dd8 .LASF4495
C:\Users\CYMR90~1\AppData\Local\Temp\ccSIna8B.s:33438  .debug_str:0000000000027875 .LASF4496
C:\Users\CYMR90~1\AppData\Local\Temp\ccSIna8B.s:27081  .debug_str:000000000000e541 .LASF4497
C:\Users\CYMR90~1\AppData\Local\Temp\ccSIna8B.s:24527  .debug_str:000000000000409e .LASF4498
C:\Users\CYMR90~1\AppData\Local\Temp\ccSIna8B.s:28741  .debug_str:0000000000014ded .LASF4499
C:\Users\CYMR90~1\AppData\Local\Temp\ccSIna8B.s:27075  .debug_str:000000000000e4fb .LASF4500
C:\Users\CYMR90~1\AppData\Local\Temp\ccSIna8B.s:24061  .debug_str:0000000000002200 .LASF4501
C:\Users\CYMR90~1\AppData\Local\Temp\ccSIna8B.s:34294  .debug_str:000000000002aeda .LASF4502
C:\Users\CYMR90~1\AppData\Local\Temp\ccSIna8B.s:25661  .debug_str:0000000000008a05 .LASF4503
C:\Users\CYMR90~1\AppData\Local\Temp\ccSIna8B.s:24241  .debug_str:0000000000002df6 .LASF4504
C:\Users\CYMR90~1\AppData\Local\Temp\ccSIna8B.s:28269  .debug_str:000000000001309e .LASF4505
C:\Users\CYMR90~1\AppData\Local\Temp\ccSIna8B.s:34026  .debug_str:0000000000029f07 .LASF4506
C:\Users\CYMR90~1\AppData\Local\Temp\ccSIna8B.s:30032  .debug_str:000000000001a147 .LASF4507
C:\Users\CYMR90~1\AppData\Local\Temp\ccSIna8B.s:25687  .debug_str:0000000000008bd9 .LASF4508
C:\Users\CYMR90~1\AppData\Local\Temp\ccSIna8B.s:32970  .debug_str:0000000000025a38 .LASF4509
C:\Users\CYMR90~1\AppData\Local\Temp\ccSIna8B.s:28839  .debug_str:000000000001541e .LASF4510
C:\Users\CYMR90~1\AppData\Local\Temp\ccSIna8B.s:34818  .debug_str:000000000002d080 .LASF4511
C:\Users\CYMR90~1\AppData\Local\Temp\ccSIna8B.s:32336  .debug_str:0000000000023175 .LASF4512
C:\Users\CYMR90~1\AppData\Local\Temp\ccSIna8B.s:32418  .debug_str:00000000000235c8 .LASF4513
C:\Users\CYMR90~1\AppData\Local\Temp\ccSIna8B.s:31214  .debug_str:000000000001ed11 .LASF4514
C:\Users\CYMR90~1\AppData\Local\Temp\ccSIna8B.s:27649  .debug_str:00000000000108e2 .LASF4515
C:\Users\CYMR90~1\AppData\Local\Temp\ccSIna8B.s:34702  .debug_str:000000000002c988 .LASF4516
C:\Users\CYMR90~1\AppData\Local\Temp\ccSIna8B.s:32834  .debug_str:000000000002509c .LASF4517
C:\Users\CYMR90~1\AppData\Local\Temp\ccSIna8B.s:32742  .debug_str:0000000000024a56 .LASF4518
C:\Users\CYMR90~1\AppData\Local\Temp\ccSIna8B.s:25269  .debug_str:0000000000006f96 .LASF4519
C:\Users\CYMR90~1\AppData\Local\Temp\ccSIna8B.s:29157  .debug_str:00000000000167ce .LASF4520
C:\Users\CYMR90~1\AppData\Local\Temp\ccSIna8B.s:33504  .debug_str:0000000000027c5b .LASF4521
C:\Users\CYMR90~1\AppData\Local\Temp\ccSIna8B.s:30722  .debug_str:000000000001cd98 .LASF4522
C:\Users\CYMR90~1\AppData\Local\Temp\ccSIna8B.s:25715  .debug_str:0000000000008d89 .LASF4523
C:\Users\CYMR90~1\AppData\Local\Temp\ccSIna8B.s:29474  .debug_str:0000000000017dc4 .LASF4524
C:\Users\CYMR90~1\AppData\Local\Temp\ccSIna8B.s:24229  .debug_str:0000000000002d16 .LASF4525
C:\Users\CYMR90~1\AppData\Local\Temp\ccSIna8B.s:33904  .debug_str:00000000000297af .LASF4526
C:\Users\CYMR90~1\AppData\Local\Temp\ccSIna8B.s:30708  .debug_str:000000000001ccb5 .LASF4527
C:\Users\CYMR90~1\AppData\Local\Temp\ccSIna8B.s:26191  .debug_str:000000000000aab9 .LASF4528
C:\Users\CYMR90~1\AppData\Local\Temp\ccSIna8B.s:25143  .debug_str:000000000000676c .LASF4529
C:\Users\CYMR90~1\AppData\Local\Temp\ccSIna8B.s:29149  .debug_str:000000000001675b .LASF4530
C:\Users\CYMR90~1\AppData\Local\Temp\ccSIna8B.s:30324  .debug_str:000000000001b541 .LASF4531
C:\Users\CYMR90~1\AppData\Local\Temp\ccSIna8B.s:24519  .debug_str:0000000000004024 .LASF4532
C:\Users\CYMR90~1\AppData\Local\Temp\ccSIna8B.s:33042  .debug_str:0000000000025f50 .LASF4533
C:\Users\CYMR90~1\AppData\Local\Temp\ccSIna8B.s:27163  .debug_str:000000000000ea31 .LASF4534
C:\Users\CYMR90~1\AppData\Local\Temp\ccSIna8B.s:31942  .debug_str:00000000000219b8 .LASF4535
C:\Users\CYMR90~1\AppData\Local\Temp\ccSIna8B.s:28643  .debug_str:00000000000147ed .LASF4536
C:\Users\CYMR90~1\AppData\Local\Temp\ccSIna8B.s:30292  .debug_str:000000000001b305 .LASF4537
C:\Users\CYMR90~1\AppData\Local\Temp\ccSIna8B.s:31754  .debug_str:0000000000020e24 .LASF4538
C:\Users\CYMR90~1\AppData\Local\Temp\ccSIna8B.s:33156  .debug_str:00000000000265fd .LASF4539
C:\Users\CYMR90~1\AppData\Local\Temp\ccSIna8B.s:31438  .debug_str:000000000001fa8b .LASF4540
C:\Users\CYMR90~1\AppData\Local\Temp\ccSIna8B.s:32050  .debug_str:000000000002203b .LASF4541
C:\Users\CYMR90~1\AppData\Local\Temp\ccSIna8B.s:30294  .debug_str:000000000001b330 .LASF4542
C:\Users\CYMR90~1\AppData\Local\Temp\ccSIna8B.s:31592  .debug_str:00000000000203ca .LASF4543
C:\Users\CYMR90~1\AppData\Local\Temp\ccSIna8B.s:33104  .debug_str:000000000002632d .LASF4544
C:\Users\CYMR90~1\AppData\Local\Temp\ccSIna8B.s:32570  .debug_str:0000000000023ed9 .LASF4545
C:\Users\CYMR90~1\AppData\Local\Temp\ccSIna8B.s:30818  .debug_str:000000000001d4b6 .LASF4546
C:\Users\CYMR90~1\AppData\Local\Temp\ccSIna8B.s:33414  .debug_str:0000000000027713 .LASF4547
C:\Users\CYMR90~1\AppData\Local\Temp\ccSIna8B.s:25139  .debug_str:0000000000006723 .LASF4548
C:\Users\CYMR90~1\AppData\Local\Temp\ccSIna8B.s:24769  .debug_str:00000000000050c0 .LASF4549
C:\Users\CYMR90~1\AppData\Local\Temp\ccSIna8B.s:32292  .debug_str:0000000000022ef0 .LASF4550
C:\Users\CYMR90~1\AppData\Local\Temp\ccSIna8B.s:32244  .debug_str:0000000000022bd1 .LASF4551
C:\Users\CYMR90~1\AppData\Local\Temp\ccSIna8B.s:32218  .debug_str:0000000000022a48 .LASF4552
C:\Users\CYMR90~1\AppData\Local\Temp\ccSIna8B.s:23667  .debug_str:0000000000000a71 .LASF4553
C:\Users\CYMR90~1\AppData\Local\Temp\ccSIna8B.s:28429  .debug_str:0000000000013b12 .LASF4554
C:\Users\CYMR90~1\AppData\Local\Temp\ccSIna8B.s:29562  .debug_str:00000000000182bc .LASF4555
C:\Users\CYMR90~1\AppData\Local\Temp\ccSIna8B.s:28331  .debug_str:000000000001349b .LASF4556
C:\Users\CYMR90~1\AppData\Local\Temp\ccSIna8B.s:30766  .debug_str:000000000001d11f .LASF4557
C:\Users\CYMR90~1\AppData\Local\Temp\ccSIna8B.s:28775  .debug_str:0000000000015041 .LASF4558
C:\Users\CYMR90~1\AppData\Local\Temp\ccSIna8B.s:24045  .debug_str:00000000000020ed .LASF4559
C:\Users\CYMR90~1\AppData\Local\Temp\ccSIna8B.s:25517  .debug_str:0000000000008088 .LASF4560
C:\Users\CYMR90~1\AppData\Local\Temp\ccSIna8B.s:26561  .debug_str:000000000000c3c0 .LASF4561
C:\Users\CYMR90~1\AppData\Local\Temp\ccSIna8B.s:28925  .debug_str:00000000000158b2 .LASF4562
C:\Users\CYMR90~1\AppData\Local\Temp\ccSIna8B.s:30452  .debug_str:000000000001bca6 .LASF4563
C:\Users\CYMR90~1\AppData\Local\Temp\ccSIna8B.s:24603  .debug_str:00000000000045c6 .LASF4564
C:\Users\CYMR90~1\AppData\Local\Temp\ccSIna8B.s:25637  .debug_str:0000000000008883 .LASF4565
C:\Users\CYMR90~1\AppData\Local\Temp\ccSIna8B.s:27289  .debug_str:000000000000f1d9 .LASF4566
C:\Users\CYMR90~1\AppData\Local\Temp\ccSIna8B.s:31026  .debug_str:000000000001e241 .LASF4567
C:\Users\CYMR90~1\AppData\Local\Temp\ccSIna8B.s:32666  .debug_str:00000000000245dd .LASF4568
C:\Users\CYMR90~1\AppData\Local\Temp\ccSIna8B.s:34198  .debug_str:000000000002a93b .LASF4569
C:\Users\CYMR90~1\AppData\Local\Temp\ccSIna8B.s:31746  .debug_str:0000000000020d9a .LASF4570
C:\Users\CYMR90~1\AppData\Local\Temp\ccSIna8B.s:32074  .debug_str:000000000002219f .LASF4571
C:\Users\CYMR90~1\AppData\Local\Temp\ccSIna8B.s:33636  .debug_str:0000000000028610 .LASF4572
C:\Users\CYMR90~1\AppData\Local\Temp\ccSIna8B.s:32454  .debug_str:000000000002381b .LASF4573
C:\Users\CYMR90~1\AppData\Local\Temp\ccSIna8B.s:33576  .debug_str:0000000000028155 .LASF4574
C:\Users\CYMR90~1\AppData\Local\Temp\ccSIna8B.s:34402  .debug_str:000000000002b538 .LASF4575
C:\Users\CYMR90~1\AppData\Local\Temp\ccSIna8B.s:26323  .debug_str:000000000000b398 .LASF4576
C:\Users\CYMR90~1\AppData\Local\Temp\ccSIna8B.s:33902  .debug_str:0000000000029786 .LASF4577
C:\Users\CYMR90~1\AppData\Local\Temp\ccSIna8B.s:28877  .debug_str:0000000000015626 .LASF4578
C:\Users\CYMR90~1\AppData\Local\Temp\ccSIna8B.s:25665  .debug_str:0000000000008a74 .LASF4579
C:\Users\CYMR90~1\AppData\Local\Temp\ccSIna8B.s:34304  .debug_str:000000000002af78 .LASF4580
C:\Users\CYMR90~1\AppData\Local\Temp\ccSIna8B.s:23639  .debug_str:00000000000008ad .LASF4581
C:\Users\CYMR90~1\AppData\Local\Temp\ccSIna8B.s:29418  .debug_str:0000000000017a2b .LASF4582
C:\Users\CYMR90~1\AppData\Local\Temp\ccSIna8B.s:31232  .debug_str:000000000001ee33 .LASF4583
C:\Users\CYMR90~1\AppData\Local\Temp\ccSIna8B.s:26067  .debug_str:000000000000a356 .LASF4584
C:\Users\CYMR90~1\AppData\Local\Temp\ccSIna8B.s:24879  .debug_str:0000000000005761 .LASF4585
C:\Users\CYMR90~1\AppData\Local\Temp\ccSIna8B.s:27419  .debug_str:000000000000fae4 .LASF4586
C:\Users\CYMR90~1\AppData\Local\Temp\ccSIna8B.s:29700  .debug_str:0000000000018b0f .LASF4587
C:\Users\CYMR90~1\AppData\Local\Temp\ccSIna8B.s:24139  .debug_str:00000000000026e6 .LASF4588
C:\Users\CYMR90~1\AppData\Local\Temp\ccSIna8B.s:29946  .debug_str:0000000000019c4d .LASF4589
C:\Users\CYMR90~1\AppData\Local\Temp\ccSIna8B.s:31292  .debug_str:000000000001f1cf .LASF4590
C:\Users\CYMR90~1\AppData\Local\Temp\ccSIna8B.s:23675  .debug_str:0000000000000b37 .LASF4591
C:\Users\CYMR90~1\AppData\Local\Temp\ccSIna8B.s:25119  .debug_str:0000000000006629 .LASF4592
C:\Users\CYMR90~1\AppData\Local\Temp\ccSIna8B.s:28181  .debug_str:0000000000012ad8 .LASF4593
C:\Users\CYMR90~1\AppData\Local\Temp\ccSIna8B.s:30568  .debug_str:000000000001c405 .LASF4594
C:\Users\CYMR90~1\AppData\Local\Temp\ccSIna8B.s:30780  .debug_str:000000000001d278 .LASF4595
C:\Users\CYMR90~1\AppData\Local\Temp\ccSIna8B.s:29354  .debug_str:0000000000017640 .LASF4596
C:\Users\CYMR90~1\AppData\Local\Temp\ccSIna8B.s:26479  .debug_str:000000000000be81 .LASF4597
C:\Users\CYMR90~1\AppData\Local\Temp\ccSIna8B.s:29528  .debug_str:0000000000018108 .LASF4598
C:\Users\CYMR90~1\AppData\Local\Temp\ccSIna8B.s:29988  .debug_str:0000000000019ecd .LASF4599
C:\Users\CYMR90~1\AppData\Local\Temp\ccSIna8B.s:31172  .debug_str:000000000001eaff .LASF4600
C:\Users\CYMR90~1\AppData\Local\Temp\ccSIna8B.s:31740  .debug_str:0000000000020d3f .LASF4601
C:\Users\CYMR90~1\AppData\Local\Temp\ccSIna8B.s:31744  .debug_str:0000000000020d78 .LASF4602
C:\Users\CYMR90~1\AppData\Local\Temp\ccSIna8B.s:24263  .debug_str:0000000000002f35 .LASF4603
C:\Users\CYMR90~1\AppData\Local\Temp\ccSIna8B.s:27591  .debug_str:0000000000010572 .LASF4604
C:\Users\CYMR90~1\AppData\Local\Temp\ccSIna8B.s:28229  .debug_str:0000000000012dee .LASF4605
C:\Users\CYMR90~1\AppData\Local\Temp\ccSIna8B.s:25673  .debug_str:0000000000008af6 .LASF4606
C:\Users\CYMR90~1\AppData\Local\Temp\ccSIna8B.s:27459  .debug_str:000000000000fd79 .LASF4607
C:\Users\CYMR90~1\AppData\Local\Temp\ccSIna8B.s:24203  .debug_str:0000000000002b77 .LASF4608
C:\Users\CYMR90~1\AppData\Local\Temp\ccSIna8B.s:27487  .debug_str:000000000000ff4a .LASF4609
C:\Users\CYMR90~1\AppData\Local\Temp\ccSIna8B.s:33304  .debug_str:0000000000026f5c .LASF4610
C:\Users\CYMR90~1\AppData\Local\Temp\ccSIna8B.s:26937  .debug_str:000000000000dccf .LASF4611
C:\Users\CYMR90~1\AppData\Local\Temp\ccSIna8B.s:29402  .debug_str:0000000000017926 .LASF4612
C:\Users\CYMR90~1\AppData\Local\Temp\ccSIna8B.s:25951  .debug_str:0000000000009c68 .LASF4613
C:\Users\CYMR90~1\AppData\Local\Temp\ccSIna8B.s:28789  .debug_str:0000000000015133 .LASF4614
C:\Users\CYMR90~1\AppData\Local\Temp\ccSIna8B.s:25697  .debug_str:0000000000008c75 .LASF4615
C:\Users\CYMR90~1\AppData\Local\Temp\ccSIna8B.s:24553  .debug_str:00000000000042b3 .LASF4616
C:\Users\CYMR90~1\AppData\Local\Temp\ccSIna8B.s:34350  .debug_str:000000000002b249 .LASF4617
C:\Users\CYMR90~1\AppData\Local\Temp\ccSIna8B.s:32624  .debug_str:00000000000242c4 .LASF4618
C:\Users\CYMR90~1\AppData\Local\Temp\ccSIna8B.s:34336  .debug_str:000000000002b17e .LASF4619
C:\Users\CYMR90~1\AppData\Local\Temp\ccSIna8B.s:29594  .debug_str:00000000000184c6 .LASF4620
C:\Users\CYMR90~1\AppData\Local\Temp\ccSIna8B.s:33830  .debug_str:0000000000029290 .LASF4621
C:\Users\CYMR90~1\AppData\Local\Temp\ccSIna8B.s:33502  .debug_str:0000000000027c39 .LASF4622
C:\Users\CYMR90~1\AppData\Local\Temp\ccSIna8B.s:25929  .debug_str:0000000000009aef .LASF4623
C:\Users\CYMR90~1\AppData\Local\Temp\ccSIna8B.s:33242  .debug_str:0000000000026b89 .LASF4624
C:\Users\CYMR90~1\AppData\Local\Temp\ccSIna8B.s:29578  .debug_str:00000000000183db .LASF4625
C:\Users\CYMR90~1\AppData\Local\Temp\ccSIna8B.s:29482  .debug_str:0000000000017e25 .LASF4626
C:\Users\CYMR90~1\AppData\Local\Temp\ccSIna8B.s:33372  .debug_str:000000000002738b .LASF4627
C:\Users\CYMR90~1\AppData\Local\Temp\ccSIna8B.s:27345  .debug_str:000000000000f544 .LASF4628
C:\Users\CYMR90~1\AppData\Local\Temp\ccSIna8B.s:30744  .debug_str:000000000001cf18 .LASF4629
C:\Users\CYMR90~1\AppData\Local\Temp\ccSIna8B.s:25479  .debug_str:0000000000007d6d .LASF4630
C:\Users\CYMR90~1\AppData\Local\Temp\ccSIna8B.s:26645  .debug_str:000000000000c919 .LASF4631
C:\Users\CYMR90~1\AppData\Local\Temp\ccSIna8B.s:34218  .debug_str:000000000002aa76 .LASF4632
C:\Users\CYMR90~1\AppData\Local\Temp\ccSIna8B.s:26059  .debug_str:000000000000a2e0 .LASF4633
C:\Users\CYMR90~1\AppData\Local\Temp\ccSIna8B.s:32708  .debug_str:000000000002480f .LASF4634
C:\Users\CYMR90~1\AppData\Local\Temp\ccSIna8B.s:30506  .debug_str:000000000001c045 .LASF4635
C:\Users\CYMR90~1\AppData\Local\Temp\ccSIna8B.s:26787  .debug_str:000000000000d2f4 .LASF4636
C:\Users\CYMR90~1\AppData\Local\Temp\ccSIna8B.s:27665  .debug_str:00000000000109dd .LASF4637
C:\Users\CYMR90~1\AppData\Local\Temp\ccSIna8B.s:23987  .debug_str:0000000000001ddc .LASF4638
C:\Users\CYMR90~1\AppData\Local\Temp\ccSIna8B.s:29270  .debug_str:0000000000017168 .LASF4639
C:\Users\CYMR90~1\AppData\Local\Temp\ccSIna8B.s:30588  .debug_str:000000000001c4f9 .LASF4640
C:\Users\CYMR90~1\AppData\Local\Temp\ccSIna8B.s:28685  .debug_str:0000000000014aa1 .LASF4641
C:\Users\CYMR90~1\AppData\Local\Temp\ccSIna8B.s:24595  .debug_str:0000000000004545 .LASF4642
C:\Users\CYMR90~1\AppData\Local\Temp\ccSIna8B.s:30226  .debug_str:000000000001aeba .LASF4643
C:\Users\CYMR90~1\AppData\Local\Temp\ccSIna8B.s:32994  .debug_str:0000000000025c2c .LASF4644
C:\Users\CYMR90~1\AppData\Local\Temp\ccSIna8B.s:34874  .debug_str:000000000002d45c .LASF4645
C:\Users\CYMR90~1\AppData\Local\Temp\ccSIna8B.s:28453  .debug_str:0000000000013c4e .LASF4646
C:\Users\CYMR90~1\AppData\Local\Temp\ccSIna8B.s:23497  .debug_str:000000000000006a .LASF4647
C:\Users\CYMR90~1\AppData\Local\Temp\ccSIna8B.s:33818  .debug_str:00000000000291da .LASF4648
C:\Users\CYMR90~1\AppData\Local\Temp\ccSIna8B.s:34536  .debug_str:000000000002be31 .LASF4649
C:\Users\CYMR90~1\AppData\Local\Temp\ccSIna8B.s:25351  .debug_str:0000000000007548 .LASF4650
C:\Users\CYMR90~1\AppData\Local\Temp\ccSIna8B.s:28931  .debug_str:0000000000015905 .LASF4651
C:\Users\CYMR90~1\AppData\Local\Temp\ccSIna8B.s:26435  .debug_str:000000000000bb4f .LASF4652
C:\Users\CYMR90~1\AppData\Local\Temp\ccSIna8B.s:28779  .debug_str:0000000000015088 .LASF4653
C:\Users\CYMR90~1\AppData\Local\Temp\ccSIna8B.s:26389  .debug_str:000000000000b841 .LASF4654
C:\Users\CYMR90~1\AppData\Local\Temp\ccSIna8B.s:28977  .debug_str:0000000000015bcf .LASF4655
C:\Users\CYMR90~1\AppData\Local\Temp\ccSIna8B.s:27829  .debug_str:00000000000113ca .LASF4656
C:\Users\CYMR90~1\AppData\Local\Temp\ccSIna8B.s:27795  .debug_str:00000000000111e1 .LASF4657
C:\Users\CYMR90~1\AppData\Local\Temp\ccSIna8B.s:28109  .debug_str:00000000000125fc .LASF4658
C:\Users\CYMR90~1\AppData\Local\Temp\ccSIna8B.s:28847  .debug_str:0000000000015490 .LASF4659
C:\Users\CYMR90~1\AppData\Local\Temp\ccSIna8B.s:33690  .debug_str:00000000000289da .LASF4660
C:\Users\CYMR90~1\AppData\Local\Temp\ccSIna8B.s:33694  .debug_str:0000000000028a22 .LASF4661
C:\Users\CYMR90~1\AppData\Local\Temp\ccSIna8B.s:25401  .debug_str:000000000000785d .LASF4662
C:\Users\CYMR90~1\AppData\Local\Temp\ccSIna8B.s:34598  .debug_str:000000000002c233 .LASF4663
C:\Users\CYMR90~1\AppData\Local\Temp\ccSIna8B.s:34614  .debug_str:000000000002c3c3 .LASF4664
C:\Users\CYMR90~1\AppData\Local\Temp\ccSIna8B.s:31768  .debug_str:0000000000020f0b .LASF4665
C:\Users\CYMR90~1\AppData\Local\Temp\ccSIna8B.s:23697  .debug_str:0000000000000c7a .LASF4666
C:\Users\CYMR90~1\AppData\Local\Temp\ccSIna8B.s:33216  .debug_str:0000000000026a19 .LASF4667
C:\Users\CYMR90~1\AppData\Local\Temp\ccSIna8B.s:31210  .debug_str:000000000001ecd5 .LASF4668
C:\Users\CYMR90~1\AppData\Local\Temp\ccSIna8B.s:25129  .debug_str:00000000000066ba .LASF4669
C:\Users\CYMR90~1\AppData\Local\Temp\ccSIna8B.s:25597  .debug_str:000000000000864a .LASF4670
C:\Users\CYMR90~1\AppData\Local\Temp\ccSIna8B.s:28291  .debug_str:0000000000013218 .LASF4671
C:\Users\CYMR90~1\AppData\Local\Temp\ccSIna8B.s:27711  .debug_str:0000000000010c83 .LASF4672
C:\Users\CYMR90~1\AppData\Local\Temp\ccSIna8B.s:32062  .debug_str:0000000000022108 .LASF4673
C:\Users\CYMR90~1\AppData\Local\Temp\ccSIna8B.s:28283  .debug_str:000000000001317c .LASF4674
C:\Users\CYMR90~1\AppData\Local\Temp\ccSIna8B.s:24797  .debug_str:000000000000527f .LASF4675
C:\Users\CYMR90~1\AppData\Local\Temp\ccSIna8B.s:31896  .debug_str:00000000000216dc .LASF4676
C:\Users\CYMR90~1\AppData\Local\Temp\ccSIna8B.s:30656  .debug_str:000000000001c8e3 .LASF4677
C:\Users\CYMR90~1\AppData\Local\Temp\ccSIna8B.s:25041  .debug_str:0000000000006164 .LASF4678
C:\Users\CYMR90~1\AppData\Local\Temp\ccSIna8B.s:32424  .debug_str:000000000002362a .LASF4679
C:\Users\CYMR90~1\AppData\Local\Temp\ccSIna8B.s:31276  .debug_str:000000000001f0c2 .LASF4680
C:\Users\CYMR90~1\AppData\Local\Temp\ccSIna8B.s:31538  .debug_str:00000000000200e6 .LASF4681
C:\Users\CYMR90~1\AppData\Local\Temp\ccSIna8B.s:33726  .debug_str:0000000000028c2e .LASF4682
C:\Users\CYMR90~1\AppData\Local\Temp\ccSIna8B.s:28513  .debug_str:0000000000013ffa .LASF4683
C:\Users\CYMR90~1\AppData\Local\Temp\ccSIna8B.s:29680  .debug_str:00000000000189f9 .LASF4684
C:\Users\CYMR90~1\AppData\Local\Temp\ccSIna8B.s:24095  .debug_str:0000000000002412 .LASF4685
C:\Users\CYMR90~1\AppData\Local\Temp\ccSIna8B.s:31140  .debug_str:000000000001e904 .LASF4686
C:\Users\CYMR90~1\AppData\Local\Temp\ccSIna8B.s:30606  .debug_str:000000000001c5fc .LASF4687
C:\Users\CYMR90~1\AppData\Local\Temp\ccSIna8B.s:32948  .debug_str:00000000000258b1 .LASF4688
C:\Users\CYMR90~1\AppData\Local\Temp\ccSIna8B.s:25181  .debug_str:0000000000006a17 .LASF4689
C:\Users\CYMR90~1\AppData\Local\Temp\ccSIna8B.s:28207  .debug_str:0000000000012cb6 .LASF4690
C:\Users\CYMR90~1\AppData\Local\Temp\ccSIna8B.s:25787  .debug_str:000000000000922a .LASF4691
C:\Users\CYMR90~1\AppData\Local\Temp\ccSIna8B.s:25953  .debug_str:0000000000009c8b .LASF4692
C:\Users\CYMR90~1\AppData\Local\Temp\ccSIna8B.s:34108  .debug_str:000000000002a3bf .LASF4693
C:\Users\CYMR90~1\AppData\Local\Temp\ccSIna8B.s:34638  .debug_str:000000000002c533 .LASF4694
C:\Users\CYMR90~1\AppData\Local\Temp\ccSIna8B.s:28729  .debug_str:0000000000014d31 .LASF4695
C:\Users\CYMR90~1\AppData\Local\Temp\ccSIna8B.s:26429  .debug_str:000000000000bb07 .LASF4696
C:\Users\CYMR90~1\AppData\Local\Temp\ccSIna8B.s:28227  .debug_str:0000000000012dd6 .LASF4697
C:\Users\CYMR90~1\AppData\Local\Temp\ccSIna8B.s:26275  .debug_str:000000000000b0d2 .LASF4698
C:\Users\CYMR90~1\AppData\Local\Temp\ccSIna8B.s:28793  .debug_str:0000000000015178 .LASF4699
C:\Users\CYMR90~1\AppData\Local\Temp\ccSIna8B.s:25323  .debug_str:0000000000007345 .LASF4700
C:\Users\CYMR90~1\AppData\Local\Temp\ccSIna8B.s:29574  .debug_str:000000000001839e .LASF4701
C:\Users\CYMR90~1\AppData\Local\Temp\ccSIna8B.s:27443  .debug_str:000000000000fc58 .LASF4702
C:\Users\CYMR90~1\AppData\Local\Temp\ccSIna8B.s:28961  .debug_str:0000000000015ae1 .LASF4703
C:\Users\CYMR90~1\AppData\Local\Temp\ccSIna8B.s:25469  .debug_str:0000000000007cc6 .LASF4704
C:\Users\CYMR90~1\AppData\Local\Temp\ccSIna8B.s:30246  .debug_str:000000000001afef .LASF4705
C:\Users\CYMR90~1\AppData\Local\Temp\ccSIna8B.s:34896  .debug_str:000000000002d58b .LASF4706
C:\Users\CYMR90~1\AppData\Local\Temp\ccSIna8B.s:24389  .debug_str:00000000000037ac .LASF4707
C:\Users\CYMR90~1\AppData\Local\Temp\ccSIna8B.s:28091  .debug_str:00000000000124c0 .LASF4708
C:\Users\CYMR90~1\AppData\Local\Temp\ccSIna8B.s:25375  .debug_str:00000000000076b7 .LASF4709
C:\Users\CYMR90~1\AppData\Local\Temp\ccSIna8B.s:24753  .debug_str:0000000000004fda .LASF4710
C:\Users\CYMR90~1\AppData\Local\Temp\ccSIna8B.s:23967  .debug_str:0000000000001cce .LASF4711
C:\Users\CYMR90~1\AppData\Local\Temp\ccSIna8B.s:27227  .debug_str:000000000000ee3d .LASF4712
C:\Users\CYMR90~1\AppData\Local\Temp\ccSIna8B.s:26851  .debug_str:000000000000d7a4 .LASF4713
C:\Users\CYMR90~1\AppData\Local\Temp\ccSIna8B.s:33920  .debug_str:00000000000298a5 .LASF4714
C:\Users\CYMR90~1\AppData\Local\Temp\ccSIna8B.s:33564  .debug_str:000000000002809f .LASF4715
C:\Users\CYMR90~1\AppData\Local\Temp\ccSIna8B.s:31658  .debug_str:0000000000020833 .LASF4716
C:\Users\CYMR90~1\AppData\Local\Temp\ccSIna8B.s:33382  .debug_str:0000000000027469 .LASF4717
C:\Users\CYMR90~1\AppData\Local\Temp\ccSIna8B.s:23913  .debug_str:0000000000001982 .LASF4718
C:\Users\CYMR90~1\AppData\Local\Temp\ccSIna8B.s:27467  .debug_str:000000000000fe00 .LASF4719
C:\Users\CYMR90~1\AppData\Local\Temp\ccSIna8B.s:25835  .debug_str:00000000000094e2 .LASF4720
C:\Users\CYMR90~1\AppData\Local\Temp\ccSIna8B.s:32828  .debug_str:000000000002504d .LASF4721
C:\Users\CYMR90~1\AppData\Local\Temp\ccSIna8B.s:34318  .debug_str:000000000002b05a .LASF4722
C:\Users\CYMR90~1\AppData\Local\Temp\ccSIna8B.s:29290  .debug_str:00000000000172b3 .LASF4723
C:\Users\CYMR90~1\AppData\Local\Temp\ccSIna8B.s:29406  .debug_str:000000000001796d .LASF4724
C:\Users\CYMR90~1\AppData\Local\Temp\ccSIna8B.s:26609  .debug_str:000000000000c67b .LASF4725
C:\Users\CYMR90~1\AppData\Local\Temp\ccSIna8B.s:26077  .debug_str:000000000000a3d6 .LASF4726
C:\Users\CYMR90~1\AppData\Local\Temp\ccSIna8B.s:31404  .debug_str:000000000001f884 .LASF4727
C:\Users\CYMR90~1\AppData\Local\Temp\ccSIna8B.s:32584  .debug_str:0000000000023fa5 .LASF4728
C:\Users\CYMR90~1\AppData\Local\Temp\ccSIna8B.s:28219  .debug_str:0000000000012d69 .LASF4729
C:\Users\CYMR90~1\AppData\Local\Temp\ccSIna8B.s:24393  .debug_str:00000000000037e5 .LASF4730
C:\Users\CYMR90~1\AppData\Local\Temp\ccSIna8B.s:24575  .debug_str:00000000000043fc .LASF4731
C:\Users\CYMR90~1\AppData\Local\Temp\ccSIna8B.s:33540  .debug_str:0000000000027efd .LASF4732
C:\Users\CYMR90~1\AppData\Local\Temp\ccSIna8B.s:27887  .debug_str:000000000001173c .LASF4733
C:\Users\CYMR90~1\AppData\Local\Temp\ccSIna8B.s:26443  .debug_str:000000000000bbb6 .LASF4734
C:\Users\CYMR90~1\AppData\Local\Temp\ccSIna8B.s:32576  .debug_str:0000000000023f28 .LASF4735
C:\Users\CYMR90~1\AppData\Local\Temp\ccSIna8B.s:32682  .debug_str:00000000000246a6 .LASF4736
C:\Users\CYMR90~1\AppData\Local\Temp\ccSIna8B.s:28933  .debug_str:000000000001591b .LASF4737
C:\Users\CYMR90~1\AppData\Local\Temp\ccSIna8B.s:24417  .debug_str:0000000000003978 .LASF4738
C:\Users\CYMR90~1\AppData\Local\Temp\ccSIna8B.s:29272  .debug_str:0000000000017192 .LASF4739
C:\Users\CYMR90~1\AppData\Local\Temp\ccSIna8B.s:24359  .debug_str:00000000000035bb .LASF4740
C:\Users\CYMR90~1\AppData\Local\Temp\ccSIna8B.s:24863  .debug_str:0000000000005656 .LASF4741
C:\Users\CYMR90~1\AppData\Local\Temp\ccSIna8B.s:25091  .debug_str:0000000000006472 .LASF4742
C:\Users\CYMR90~1\AppData\Local\Temp\ccSIna8B.s:33178  .debug_str:000000000002678d .LASF4743
C:\Users\CYMR90~1\AppData\Local\Temp\ccSIna8B.s:29868  .debug_str:00000000000196b9 .LASF4744
C:\Users\CYMR90~1\AppData\Local\Temp\ccSIna8B.s:23609  .debug_str:00000000000006f2 .LASF4745
C:\Users\CYMR90~1\AppData\Local\Temp\ccSIna8B.s:30162  .debug_str:000000000001aaf0 .LASF4746
C:\Users\CYMR90~1\AppData\Local\Temp\ccSIna8B.s:34578  .debug_str:000000000002c114 .LASF4747
C:\Users\CYMR90~1\AppData\Local\Temp\ccSIna8B.s:26261  .debug_str:000000000000af5b .LASF4748
C:\Users\CYMR90~1\AppData\Local\Temp\ccSIna8B.s:25175  .debug_str:00000000000069bf .LASF4749
C:\Users\CYMR90~1\AppData\Local\Temp\ccSIna8B.s:33486  .debug_str:0000000000027b1f .LASF4750
C:\Users\CYMR90~1\AppData\Local\Temp\ccSIna8B.s:30186  .debug_str:000000000001ac3f .LASF4751
C:\Users\CYMR90~1\AppData\Local\Temp\ccSIna8B.s:31308  .debug_str:000000000001f2d8 .LASF4752
C:\Users\CYMR90~1\AppData\Local\Temp\ccSIna8B.s:30444  .debug_str:000000000001bc41 .LASF4753
C:\Users\CYMR90~1\AppData\Local\Temp\ccSIna8B.s:24877  .debug_str:0000000000005748 .LASF4754
C:\Users\CYMR90~1\AppData\Local\Temp\ccSIna8B.s:32350  .debug_str:000000000002323d .LASF4755
C:\Users\CYMR90~1\AppData\Local\Temp\ccSIna8B.s:32368  .debug_str:000000000002330c .LASF4756
C:\Users\CYMR90~1\AppData\Local\Temp\ccSIna8B.s:32862  .debug_str:0000000000025212 .LASF4757
C:\Users\CYMR90~1\AppData\Local\Temp\ccSIna8B.s:33806  .debug_str:00000000000290e9 .LASF4758
C:\Users\CYMR90~1\AppData\Local\Temp\ccSIna8B.s:32410  .debug_str:000000000002355b .LASF4759
C:\Users\CYMR90~1\AppData\Local\Temp\ccSIna8B.s:33928  .debug_str:000000000002993e .LASF4760
C:\Users\CYMR90~1\AppData\Local\Temp\ccSIna8B.s:28297  .debug_str:0000000000013276 .LASF4761
C:\Users\CYMR90~1\AppData\Local\Temp\ccSIna8B.s:34094  .debug_str:000000000002a2f7 .LASF4762
C:\Users\CYMR90~1\AppData\Local\Temp\ccSIna8B.s:31936  .debug_str:000000000002193a .LASF4763
C:\Users\CYMR90~1\AppData\Local\Temp\ccSIna8B.s:34866  .debug_str:000000000002d3bd .LASF4764
C:\Users\CYMR90~1\AppData\Local\Temp\ccSIna8B.s:28301  .debug_str:00000000000132ba .LASF4765
C:\Users\CYMR90~1\AppData\Local\Temp\ccSIna8B.s:29486  .debug_str:0000000000017e62 .LASF4766
C:\Users\CYMR90~1\AppData\Local\Temp\ccSIna8B.s:32230  .debug_str:0000000000022aef .LASF4767
C:\Users\CYMR90~1\AppData\Local\Temp\ccSIna8B.s:31920  .debug_str:0000000000021843 .LASF4768
C:\Users\CYMR90~1\AppData\Local\Temp\ccSIna8B.s:29326  .debug_str:00000000000174a6 .LASF4769
C:\Users\CYMR90~1\AppData\Local\Temp\ccSIna8B.s:24261  .debug_str:0000000000002f1c .LASF4770
C:\Users\CYMR90~1\AppData\Local\Temp\ccSIna8B.s:31204  .debug_str:000000000001eca4 .LASF4771
C:\Users\CYMR90~1\AppData\Local\Temp\ccSIna8B.s:32164  .debug_str:00000000000226c2 .LASF4772
C:\Users\CYMR90~1\AppData\Local\Temp\ccSIna8B.s:25047  .debug_str:00000000000061d6 .LASF4773
C:\Users\CYMR90~1\AppData\Local\Temp\ccSIna8B.s:29968  .debug_str:0000000000019da9 .LASF4774
C:\Users\CYMR90~1\AppData\Local\Temp\ccSIna8B.s:30842  .debug_str:000000000001d62c .LASF4775
C:\Users\CYMR90~1\AppData\Local\Temp\ccSIna8B.s:30824  .debug_str:000000000001d513 .LASF4776
C:\Users\CYMR90~1\AppData\Local\Temp\ccSIna8B.s:28751  .debug_str:0000000000014e95 .LASF4777
C:\Users\CYMR90~1\AppData\Local\Temp\ccSIna8B.s:28175  .debug_str:0000000000012a6a .LASF4778
C:\Users\CYMR90~1\AppData\Local\Temp\ccSIna8B.s:29590  .debug_str:000000000001848a .LASF4779
C:\Users\CYMR90~1\AppData\Local\Temp\ccSIna8B.s:31476  .debug_str:000000000001fce9 .LASF4780
C:\Users\CYMR90~1\AppData\Local\Temp\ccSIna8B.s:30168  .debug_str:000000000001ab3a .LASF4781
C:\Users\CYMR90~1\AppData\Local\Temp\ccSIna8B.s:34046  .debug_str:000000000002a056 .LASF4782
C:\Users\CYMR90~1\AppData\Local\Temp\ccSIna8B.s:26625  .debug_str:000000000000c788 .LASF4783
C:\Users\CYMR90~1\AppData\Local\Temp\ccSIna8B.s:26245  .debug_str:000000000000ae1e .LASF4784
C:\Users\CYMR90~1\AppData\Local\Temp\ccSIna8B.s:27279  .debug_str:000000000000f12b .LASF4785
C:\Users\CYMR90~1\AppData\Local\Temp\ccSIna8B.s:25215  .debug_str:0000000000006c3c .LASF4786
C:\Users\CYMR90~1\AppData\Local\Temp\ccSIna8B.s:34880  .debug_str:000000000002d4b4 .LASF4787
C:\Users\CYMR90~1\AppData\Local\Temp\ccSIna8B.s:24099  .debug_str:0000000000002448 .LASF4788
C:\Users\CYMR90~1\AppData\Local\Temp\ccSIna8B.s:32398  .debug_str:0000000000023493 .LASF4789
C:\Users\CYMR90~1\AppData\Local\Temp\ccSIna8B.s:29191  .debug_str:00000000000169f2 .LASF4790
C:\Users\CYMR90~1\AppData\Local\Temp\ccSIna8B.s:34274  .debug_str:000000000002ada9 .LASF4791
C:\Users\CYMR90~1\AppData\Local\Temp\ccSIna8B.s:27465  .debug_str:000000000000fde0 .LASF4792
C:\Users\CYMR90~1\AppData\Local\Temp\ccSIna8B.s:33586  .debug_str:0000000000028205 .LASF4793
C:\Users\CYMR90~1\AppData\Local\Temp\ccSIna8B.s:25425  .debug_str:00000000000079f1 .LASF4794
C:\Users\CYMR90~1\AppData\Local\Temp\ccSIna8B.s:26869  .debug_str:000000000000d902 .LASF4795
C:\Users\CYMR90~1\AppData\Local\Temp\ccSIna8B.s:34772  .debug_str:000000000002cdcb .LASF4796
C:\Users\CYMR90~1\AppData\Local\Temp\ccSIna8B.s:26485  .debug_str:000000000000befa .LASF4797
C:\Users\CYMR90~1\AppData\Local\Temp\ccSIna8B.s:26051  .debug_str:000000000000a273 .LASF4798
C:\Users\CYMR90~1\AppData\Local\Temp\ccSIna8B.s:33490  .debug_str:0000000000027b77 .LASF4799
C:\Users\CYMR90~1\AppData\Local\Temp\ccSIna8B.s:27925  .debug_str:00000000000119bf .LASF4800
C:\Users\CYMR90~1\AppData\Local\Temp\ccSIna8B.s:24661  .debug_str:0000000000004a3e .LASF4801
C:\Users\CYMR90~1\AppData\Local\Temp\ccSIna8B.s:30380  .debug_str:000000000001b89a .LASF4802
C:\Users\CYMR90~1\AppData\Local\Temp\ccSIna8B.s:29814  .debug_str:0000000000019370 .LASF4803
C:\Users\CYMR90~1\AppData\Local\Temp\ccSIna8B.s:30786  .debug_str:000000000001d2d0 .LASF4804
C:\Users\CYMR90~1\AppData\Local\Temp\ccSIna8B.s:24049  .debug_str:0000000000002134 .LASF4805
C:\Users\CYMR90~1\AppData\Local\Temp\ccSIna8B.s:26707  .debug_str:000000000000ce21 .LASF4806
C:\Users\CYMR90~1\AppData\Local\Temp\ccSIna8B.s:28989  .debug_str:0000000000015c74 .LASF4807
C:\Users\CYMR90~1\AppData\Local\Temp\ccSIna8B.s:27113  .debug_str:000000000000e6f2 .LASF4808
C:\Users\CYMR90~1\AppData\Local\Temp\ccSIna8B.s:29990  .debug_str:0000000000019ef0 .LASF4809
C:\Users\CYMR90~1\AppData\Local\Temp\ccSIna8B.s:34410  .debug_str:000000000002b5fa .LASF4810
C:\Users\CYMR90~1\AppData\Local\Temp\ccSIna8B.s:25965  .debug_str:0000000000009d51 .LASF4811
C:\Users\CYMR90~1\AppData\Local\Temp\ccSIna8B.s:24623  .debug_str:0000000000004730 .LASF4812
C:\Users\CYMR90~1\AppData\Local\Temp\ccSIna8B.s:23681  .debug_str:0000000000000b9a .LASF4813
C:\Users\CYMR90~1\AppData\Local\Temp\ccSIna8B.s:28013  .debug_str:0000000000011f67 .LASF4814
C:\Users\CYMR90~1\AppData\Local\Temp\ccSIna8B.s:29288  .debug_str:000000000001727d .LASF4815
C:\Users\CYMR90~1\AppData\Local\Temp\ccSIna8B.s:34640  .debug_str:000000000002c54b .LASF4816
C:\Users\CYMR90~1\AppData\Local\Temp\ccSIna8B.s:25577  .debug_str:00000000000084e4 .LASF4817
C:\Users\CYMR90~1\AppData\Local\Temp\ccSIna8B.s:26139  .debug_str:000000000000a78d .LASF4818
C:\Users\CYMR90~1\AppData\Local\Temp\ccSIna8B.s:29820  .debug_str:00000000000193d2 .LASF4819
C:\Users\CYMR90~1\AppData\Local\Temp\ccSIna8B.s:27049  .debug_str:000000000000e377 .LASF4820
C:\Users\CYMR90~1\AppData\Local\Temp\ccSIna8B.s:34688  .debug_str:000000000002c8cc .LASF4821
C:\Users\CYMR90~1\AppData\Local\Temp\ccSIna8B.s:23917  .debug_str:00000000000019c0 .LASF4822
C:\Users\CYMR90~1\AppData\Local\Temp\ccSIna8B.s:31586  .debug_str:0000000000020369 .LASF4823
C:\Users\CYMR90~1\AppData\Local\Temp\ccSIna8B.s:30900  .debug_str:000000000001da34 .LASF4824
C:\Users\CYMR90~1\AppData\Local\Temp\ccSIna8B.s:29248  .debug_str:0000000000016ff1 .LASF4825
C:\Users\CYMR90~1\AppData\Local\Temp\ccSIna8B.s:26099  .debug_str:000000000000a555 .LASF4826
C:\Users\CYMR90~1\AppData\Local\Temp\ccSIna8B.s:28859  .debug_str:0000000000015511 .LASF4827
C:\Users\CYMR90~1\AppData\Local\Temp\ccSIna8B.s:26123  .debug_str:000000000000a6c1 .LASF4828
C:\Users\CYMR90~1\AppData\Local\Temp\ccSIna8B.s:29718  .debug_str:0000000000018c26 .LASF4829
C:\Users\CYMR90~1\AppData\Local\Temp\ccSIna8B.s:28403  .debug_str:0000000000013977 .LASF4830
C:\Users\CYMR90~1\AppData\Local\Temp\ccSIna8B.s:25173  .debug_str:0000000000006995 .LASF4831
C:\Users\CYMR90~1\AppData\Local\Temp\ccSIna8B.s:33180  .debug_str:00000000000267a8 .LASF4832
C:\Users\CYMR90~1\AppData\Local\Temp\ccSIna8B.s:24157  .debug_str:0000000000002894 .LASF4833
C:\Users\CYMR90~1\AppData\Local\Temp\ccSIna8B.s:31058  .debug_str:000000000001e43c .LASF4834
C:\Users\CYMR90~1\AppData\Local\Temp\ccSIna8B.s:31536  .debug_str:00000000000200bb .LASF4835
C:\Users\CYMR90~1\AppData\Local\Temp\ccSIna8B.s:24307  .debug_str:0000000000003237 .LASF4836
C:\Users\CYMR90~1\AppData\Local\Temp\ccSIna8B.s:31468  .debug_str:000000000001fc5c .LASF4837
C:\Users\CYMR90~1\AppData\Local\Temp\ccSIna8B.s:28389  .debug_str:00000000000138a7 .LASF4838
C:\Users\CYMR90~1\AppData\Local\Temp\ccSIna8B.s:33922  .debug_str:00000000000298c2 .LASF4839
C:\Users\CYMR90~1\AppData\Local\Temp\ccSIna8B.s:26083  .debug_str:000000000000a42d .LASF4840
C:\Users\CYMR90~1\AppData\Local\Temp\ccSIna8B.s:29810  .debug_str:000000000001931d .LASF4841
C:\Users\CYMR90~1\AppData\Local\Temp\ccSIna8B.s:34172  .debug_str:000000000002a75b .LASF4842
C:\Users\CYMR90~1\AppData\Local\Temp\ccSIna8B.s:32802  .debug_str:0000000000024e6c .LASF4843
C:\Users\CYMR90~1\AppData\Local\Temp\ccSIna8B.s:34164  .debug_str:000000000002a6e5 .LASF4844
C:\Users\CYMR90~1\AppData\Local\Temp\ccSIna8B.s:24239  .debug_str:0000000000002dc9 .LASF4845
C:\Users\CYMR90~1\AppData\Local\Temp\ccSIna8B.s:28529  .debug_str:0000000000014105 .LASF4846
C:\Users\CYMR90~1\AppData\Local\Temp\ccSIna8B.s:32616  .debug_str:0000000000024161 .LASF4847
C:\Users\CYMR90~1\AppData\Local\Temp\ccSIna8B.s:28569  .debug_str:00000000000143a5 .LASF4848
C:\Users\CYMR90~1\AppData\Local\Temp\ccSIna8B.s:33812  .debug_str:000000000002914f .LASF4849
C:\Users\CYMR90~1\AppData\Local\Temp\ccSIna8B.s:25805  .debug_str:0000000000009318 .LASF4850
C:\Users\CYMR90~1\AppData\Local\Temp\ccSIna8B.s:30762  .debug_str:000000000001d0c3 .LASF4851
C:\Users\CYMR90~1\AppData\Local\Temp\ccSIna8B.s:34214  .debug_str:000000000002aa30 .LASF4852
C:\Users\CYMR90~1\AppData\Local\Temp\ccSIna8B.s:24617  .debug_str:00000000000046b8 .LASF4853
C:\Users\CYMR90~1\AppData\Local\Temp\ccSIna8B.s:32952  .debug_str:00000000000258f8 .LASF4854
C:\Users\CYMR90~1\AppData\Local\Temp\ccSIna8B.s:31426  .debug_str:000000000001f9a1 .LASF4855
C:\Users\CYMR90~1\AppData\Local\Temp\ccSIna8B.s:24513  .debug_str:0000000000003fc7 .LASF4856
C:\Users\CYMR90~1\AppData\Local\Temp\ccSIna8B.s:31560  .debug_str:0000000000020218 .LASF4857
C:\Users\CYMR90~1\AppData\Local\Temp\ccSIna8B.s:34844  .debug_str:000000000002d296 .LASF4858
C:\Users\CYMR90~1\AppData\Local\Temp\ccSIna8B.s:24363  .debug_str:00000000000035ea .LASF4859
C:\Users\CYMR90~1\AppData\Local\Temp\ccSIna8B.s:31162  .debug_str:000000000001ea72 .LASF4860
C:\Users\CYMR90~1\AppData\Local\Temp\ccSIna8B.s:31954  .debug_str:0000000000021a74 .LASF4861
C:\Users\CYMR90~1\AppData\Local\Temp\ccSIna8B.s:23939  .debug_str:0000000000001b15 .LASF4862
C:\Users\CYMR90~1\AppData\Local\Temp\ccSIna8B.s:28215  .debug_str:0000000000012d1c .LASF4863
C:\Users\CYMR90~1\AppData\Local\Temp\ccSIna8B.s:29516  .debug_str:000000000001802c .LASF4864
C:\Users\CYMR90~1\AppData\Local\Temp\ccSIna8B.s:27719  .debug_str:0000000000010cd3 .LASF4865
C:\Users\CYMR90~1\AppData\Local\Temp\ccSIna8B.s:29624  .debug_str:000000000001868a .LASF4866
C:\Users\CYMR90~1\AppData\Local\Temp\ccSIna8B.s:30208  .debug_str:000000000001adbf .LASF4867
C:\Users\CYMR90~1\AppData\Local\Temp\ccSIna8B.s:31566  .debug_str:0000000000020279 .LASF4868
C:\Users\CYMR90~1\AppData\Local\Temp\ccSIna8B.s:23805  .debug_str:0000000000001315 .LASF4869
C:\Users\CYMR90~1\AppData\Local\Temp\ccSIna8B.s:28679  .debug_str:0000000000014a3c .LASF4870
C:\Users\CYMR90~1\AppData\Local\Temp\ccSIna8B.s:30060  .debug_str:000000000001a30b .LASF4871
C:\Users\CYMR90~1\AppData\Local\Temp\ccSIna8B.s:24837  .debug_str:00000000000054db .LASF4872
C:\Users\CYMR90~1\AppData\Local\Temp\ccSIna8B.s:24233  .debug_str:0000000000002d4a .LASF4873
C:\Users\CYMR90~1\AppData\Local\Temp\ccSIna8B.s:33580  .debug_str:0000000000028197 .LASF4874
C:\Users\CYMR90~1\AppData\Local\Temp\ccSIna8B.s:25445  .debug_str:0000000000007b33 .LASF4875
C:\Users\CYMR90~1\AppData\Local\Temp\ccSIna8B.s:34648  .debug_str:000000000002c5f2 .LASF4876
C:\Users\CYMR90~1\AppData\Local\Temp\ccSIna8B.s:27233  .debug_str:000000000000eed5 .LASF4877
C:\Users\CYMR90~1\AppData\Local\Temp\ccSIna8B.s:33174  .debug_str:0000000000026736 .LASF4878
C:\Users\CYMR90~1\AppData\Local\Temp\ccSIna8B.s:25557  .debug_str:0000000000008392 .LASF4879
C:\Users\CYMR90~1\AppData\Local\Temp\ccSIna8B.s:25145  .debug_str:000000000000678e .LASF4880
C:\Users\CYMR90~1\AppData\Local\Temp\ccSIna8B.s:24737  .debug_str:0000000000004eda .LASF4881
C:\Users\CYMR90~1\AppData\Local\Temp\ccSIna8B.s:33392  .debug_str:00000000000275a2 .LASF4882
C:\Users\CYMR90~1\AppData\Local\Temp\ccSIna8B.s:29566  .debug_str:0000000000018306 .LASF4883
C:\Users\CYMR90~1\AppData\Local\Temp\ccSIna8B.s:25627  .debug_str:00000000000087e0 .LASF4884
C:\Users\CYMR90~1\AppData\Local\Temp\ccSIna8B.s:26653  .debug_str:000000000000c9ab .LASF4885
C:\Users\CYMR90~1\AppData\Local\Temp\ccSIna8B.s:31144  .debug_str:000000000001e948 .LASF4886
C:\Users\CYMR90~1\AppData\Local\Temp\ccSIna8B.s:25803  .debug_str:00000000000092e7 .LASF4887
C:\Users\CYMR90~1\AppData\Local\Temp\ccSIna8B.s:34378  .debug_str:000000000002b3d6 .LASF4888
C:\Users\CYMR90~1\AppData\Local\Temp\ccSIna8B.s:31134  .debug_str:000000000001e870 .LASF4889
C:\Users\CYMR90~1\AppData\Local\Temp\ccSIna8B.s:25647  .debug_str:000000000000891e .LASF4890
C:\Users\CYMR90~1\AppData\Local\Temp\ccSIna8B.s:33482  .debug_str:0000000000027ae7 .LASF4891
C:\Users\CYMR90~1\AppData\Local\Temp\ccSIna8B.s:34888  .debug_str:000000000002d509 .LASF4892
C:\Users\CYMR90~1\AppData\Local\Temp\ccSIna8B.s:31478  .debug_str:000000000001fd0c .LASF4893
C:\Users\CYMR90~1\AppData\Local\Temp\ccSIna8B.s:33778  .debug_str:0000000000028f5c .LASF4894
C:\Users\CYMR90~1\AppData\Local\Temp\ccSIna8B.s:24719  .debug_str:0000000000004dc9 .LASF4895
C:\Users\CYMR90~1\AppData\Local\Temp\ccSIna8B.s:25067  .debug_str:0000000000006311 .LASF4896
C:\Users\CYMR90~1\AppData\Local\Temp\ccSIna8B.s:30080  .debug_str:000000000001a427 .LASF4897
C:\Users\CYMR90~1\AppData\Local\Temp\ccSIna8B.s:28761  .debug_str:0000000000014f48 .LASF4898
C:\Users\CYMR90~1\AppData\Local\Temp\ccSIna8B.s:27513  .debug_str:00000000000100e0 .LASF4899
C:\Users\CYMR90~1\AppData\Local\Temp\ccSIna8B.s:34234  .debug_str:000000000002ab60 .LASF4900
C:\Users\CYMR90~1\AppData\Local\Temp\ccSIna8B.s:30522  .debug_str:000000000001c145 .LASF4901
C:\Users\CYMR90~1\AppData\Local\Temp\ccSIna8B.s:32020  .debug_str:0000000000021e6d .LASF4902
C:\Users\CYMR90~1\AppData\Local\Temp\ccSIna8B.s:31820  .debug_str:00000000000211c6 .LASF4903
C:\Users\CYMR90~1\AppData\Local\Temp\ccSIna8B.s:25853  .debug_str:00000000000095db .LASF4904
C:\Users\CYMR90~1\AppData\Local\Temp\ccSIna8B.s:23551  .debug_str:00000000000003c2 .LASF4905
C:\Users\CYMR90~1\AppData\Local\Temp\ccSIna8B.s:27943  .debug_str:0000000000011b99 .LASF4906
C:\Users\CYMR90~1\AppData\Local\Temp\ccSIna8B.s:30442  .debug_str:000000000001bc16 .LASF4907
C:\Users\CYMR90~1\AppData\Local\Temp\ccSIna8B.s:31192  .debug_str:000000000001ec05 .LASF4908
C:\Users\CYMR90~1\AppData\Local\Temp\ccSIna8B.s:28783  .debug_str:00000000000150dd .LASF4909
C:\Users\CYMR90~1\AppData\Local\Temp\ccSIna8B.s:23493  .debug_str:0000000000000000 .LASF4910
C:\Users\CYMR90~1\AppData\Local\Temp\ccSIna8B.s:29414  .debug_str:00000000000179eb .LASF4911
C:\Users\CYMR90~1\AppData\Local\Temp\ccSIna8B.s:33924  .debug_str:00000000000298ef .LASF4912
C:\Users\CYMR90~1\AppData\Local\Temp\ccSIna8B.s:24699  .debug_str:0000000000004cac .LASF4913
C:\Users\CYMR90~1\AppData\Local\Temp\ccSIna8B.s:33548  .debug_str:0000000000027f6a .LASF4914
C:\Users\CYMR90~1\AppData\Local\Temp\ccSIna8B.s:24841  .debug_str:0000000000005525 .LASF4915
C:\Users\CYMR90~1\AppData\Local\Temp\ccSIna8B.s:29217  .debug_str:0000000000016be5 .LASF4916
C:\Users\CYMR90~1\AppData\Local\Temp\ccSIna8B.s:31514  .debug_str:000000000001ff41 .LASF4917
C:\Users\CYMR90~1\AppData\Local\Temp\ccSIna8B.s:30174  .debug_str:000000000001aba3 .LASF4918
C:\Users\CYMR90~1\AppData\Local\Temp\ccSIna8B.s:34870  .debug_str:000000000002d3ff .LASF4919
C:\Users\CYMR90~1\AppData\Local\Temp\ccSIna8B.s:29346  .debug_str:00000000000175bb .LASF4920
C:\Users\CYMR90~1\AppData\Local\Temp\ccSIna8B.s:25035  .debug_str:00000000000060fd .LASF4921
C:\Users\CYMR90~1\AppData\Local\Temp\ccSIna8B.s:28499  .debug_str:0000000000013f2d .LASF4922
C:\Users\CYMR90~1\AppData\Local\Temp\ccSIna8B.s:28049  .debug_str:00000000000121f8 .LASF4923
C:\Users\CYMR90~1\AppData\Local\Temp\ccSIna8B.s:32126  .debug_str:00000000000224e4 .LASF4924
C:\Users\CYMR90~1\AppData\Local\Temp\ccSIna8B.s:32034  .debug_str:0000000000021f1e .LASF4925
C:\Users\CYMR90~1\AppData\Local\Temp\ccSIna8B.s:32938  .debug_str:00000000000257d3 .LASF4926
C:\Users\CYMR90~1\AppData\Local\Temp\ccSIna8B.s:33730  .debug_str:0000000000028c63 .LASF4927
C:\Users\CYMR90~1\AppData\Local\Temp\ccSIna8B.s:33182  .debug_str:00000000000267d2 .LASF4928
C:\Users\CYMR90~1\AppData\Local\Temp\ccSIna8B.s:27855  .debug_str:0000000000011560 .LASF4929
C:\Users\CYMR90~1\AppData\Local\Temp\ccSIna8B.s:26749  .debug_str:000000000000d05a .LASF4930
C:\Users\CYMR90~1\AppData\Local\Temp\ccSIna8B.s:31678  .debug_str:0000000000020944 .LASF4931
C:\Users\CYMR90~1\AppData\Local\Temp\ccSIna8B.s:27409  .debug_str:000000000000fa27 .LASF4932
C:\Users\CYMR90~1\AppData\Local\Temp\ccSIna8B.s:26713  .debug_str:000000000000ce82 .LASF4933
C:\Users\CYMR90~1\AppData\Local\Temp\ccSIna8B.s:33158  .debug_str:0000000000026627 .LASF4934
C:\Users\CYMR90~1\AppData\Local\Temp\ccSIna8B.s:34238  .debug_str:000000000002abbd .LASF4935
C:\Users\CYMR90~1\AppData\Local\Temp\ccSIna8B.s:26517  .debug_str:000000000000c110 .LASF4936
C:\Users\CYMR90~1\AppData\Local\Temp\ccSIna8B.s:24405  .debug_str:00000000000038c9 .LASF4937
C:\Users\CYMR90~1\AppData\Local\Temp\ccSIna8B.s:25339  .debug_str:0000000000007485 .LASF4938
C:\Users\CYMR90~1\AppData\Local\Temp\ccSIna8B.s:27413  .debug_str:000000000000fa76 .LASF4939
C:\Users\CYMR90~1\AppData\Local\Temp\ccSIna8B.s:24907  .debug_str:000000000000591b .LASF4940
C:\Users\CYMR90~1\AppData\Local\Temp\ccSIna8B.s:33612  .debug_str:0000000000028400 .LASF4941
C:\Users\CYMR90~1\AppData\Local\Temp\ccSIna8B.s:28107  .debug_str:00000000000125da .LASF4942
C:\Users\CYMR90~1\AppData\Local\Temp\ccSIna8B.s:31380  .debug_str:000000000001f71c .LASF4943
C:\Users\CYMR90~1\AppData\Local\Temp\ccSIna8B.s:33016  .debug_str:0000000000025da8 .LASF4944
C:\Users\CYMR90~1\AppData\Local\Temp\ccSIna8B.s:33404  .debug_str:0000000000027677 .LASF4945
C:\Users\CYMR90~1\AppData\Local\Temp\ccSIna8B.s:27873  .debug_str:000000000001166c .LASF4946
C:\Users\CYMR90~1\AppData\Local\Temp\ccSIna8B.s:29049  .debug_str:00000000000160cd .LASF4947
C:\Users\CYMR90~1\AppData\Local\Temp\ccSIna8B.s:32402  .debug_str:00000000000234cc .LASF4948
C:\Users\CYMR90~1\AppData\Local\Temp\ccSIna8B.s:31126  .debug_str:000000000001e7f0 .LASF4949
C:\Users\CYMR90~1\AppData\Local\Temp\ccSIna8B.s:32052  .debug_str:0000000000022063 .LASF4950
C:\Users\CYMR90~1\AppData\Local\Temp\ccSIna8B.s:34894  .debug_str:000000000002d565 .LASF4951
C:\Users\CYMR90~1\AppData\Local\Temp\ccSIna8B.s:29165  .debug_str:000000000001684c .LASF4952
C:\Users\CYMR90~1\AppData\Local\Temp\ccSIna8B.s:25483  .debug_str:0000000000007db0 .LASF4953
C:\Users\CYMR90~1\AppData\Local\Temp\ccSIna8B.s:25429  .debug_str:0000000000007a27 .LASF4954
C:\Users\CYMR90~1\AppData\Local\Temp\ccSIna8B.s:24773  .debug_str:0000000000005107 .LASF4955
C:\Users\CYMR90~1\AppData\Local\Temp\ccSIna8B.s:32260  .debug_str:0000000000022ca8 .LASF4956
C:\Users\CYMR90~1\AppData\Local\Temp\ccSIna8B.s:28165  .debug_str:00000000000129bf .LASF4957
C:\Users\CYMR90~1\AppData\Local\Temp\ccSIna8B.s:32730  .debug_str:0000000000024972 .LASF4958
C:\Users\CYMR90~1\AppData\Local\Temp\ccSIna8B.s:34064  .debug_str:000000000002a161 .LASF4959
C:\Users\CYMR90~1\AppData\Local\Temp\ccSIna8B.s:32314  .debug_str:0000000000023031 .LASF4960
C:\Users\CYMR90~1\AppData\Local\Temp\ccSIna8B.s:32982  .debug_str:0000000000025b76 .LASF4961
C:\Users\CYMR90~1\AppData\Local\Temp\ccSIna8B.s:27137  .debug_str:000000000000e874 .LASF4962
C:\Users\CYMR90~1\AppData\Local\Temp\ccSIna8B.s:31794  .debug_str:000000000002107a .LASF4963
C:\Users\CYMR90~1\AppData\Local\Temp\ccSIna8B.s:33776  .debug_str:0000000000028f39 .LASF4964
C:\Users\CYMR90~1\AppData\Local\Temp\ccSIna8B.s:27685  .debug_str:0000000000010aee .LASF4965
C:\Users\CYMR90~1\AppData\Local\Temp\ccSIna8B.s:26419  .debug_str:000000000000ba09 .LASF4966
C:\Users\CYMR90~1\AppData\Local\Temp\ccSIna8B.s:26199  .debug_str:000000000000ab2f .LASF4967
C:\Users\CYMR90~1\AppData\Local\Temp\ccSIna8B.s:27721  .debug_str:0000000000010cf2 .LASF4968
C:\Users\CYMR90~1\AppData\Local\Temp\ccSIna8B.s:34324  .debug_str:000000000002b0ba .LASF4969
C:\Users\CYMR90~1\AppData\Local\Temp\ccSIna8B.s:25723  .debug_str:0000000000008e06 .LASF4970
C:\Users\CYMR90~1\AppData\Local\Temp\ccSIna8B.s:26303  .debug_str:000000000000b284 .LASF4971
C:\Users\CYMR90~1\AppData\Local\Temp\ccSIna8B.s:24549  .debug_str:0000000000004280 .LASF4972
C:\Users\CYMR90~1\AppData\Local\Temp\ccSIna8B.s:23777  .debug_str:00000000000011ae .LASF4973
C:\Users\CYMR90~1\AppData\Local\Temp\ccSIna8B.s:29127  .debug_str:0000000000016599 .LASF4974
C:\Users\CYMR90~1\AppData\Local\Temp\ccSIna8B.s:31206  .debug_str:000000000001ecbc .LASF4975
C:\Users\CYMR90~1\AppData\Local\Temp\ccSIna8B.s:33534  .debug_str:0000000000027e87 .LASF4976
C:\Users\CYMR90~1\AppData\Local\Temp\ccSIna8B.s:27179  .debug_str:000000000000eb0e .LASF4977
C:\Users\CYMR90~1\AppData\Local\Temp\ccSIna8B.s:33566  .debug_str:00000000000280be .LASF4978
C:\Users\CYMR90~1\AppData\Local\Temp\ccSIna8B.s:31148  .debug_str:000000000001e99c .LASF4979
C:\Users\CYMR90~1\AppData\Local\Temp\ccSIna8B.s:27927  .debug_str:00000000000119e3 .LASF4980
C:\Users\CYMR90~1\AppData\Local\Temp\ccSIna8B.s:31466  .debug_str:000000000001fc2b .LASF4981
C:\Users\CYMR90~1\AppData\Local\Temp\ccSIna8B.s:24755  .debug_str:0000000000004ff8 .LASF4982
C:\Users\CYMR90~1\AppData\Local\Temp\ccSIna8B.s:28459  .debug_str:0000000000013ca7 .LASF4983
C:\Users\CYMR90~1\AppData\Local\Temp\ccSIna8B.s:34328  .debug_str:000000000002b0f2 .LASF4984
C:\Users\CYMR90~1\AppData\Local\Temp\ccSIna8B.s:27033  .debug_str:000000000000e2a1 .LASF4985
C:\Users\CYMR90~1\AppData\Local\Temp\ccSIna8B.s:30724  .debug_str:000000000001cdbe .LASF4986
C:\Users\CYMR90~1\AppData\Local\Temp\ccSIna8B.s:31048  .debug_str:000000000001e39e .LASF4987
C:\Users\CYMR90~1\AppData\Local\Temp\ccSIna8B.s:33958  .debug_str:0000000000029b20 .LASF4988
C:\Users\CYMR90~1\AppData\Local\Temp\ccSIna8B.s:34730  .debug_str:000000000002cae7 .LASF4989
C:\Users\CYMR90~1\AppData\Local\Temp\ccSIna8B.s:27189  .debug_str:000000000000eb92 .LASF4990
C:\Users\CYMR90~1\AppData\Local\Temp\ccSIna8B.s:23859  .debug_str:000000000000161e .LASF4991
C:\Users\CYMR90~1\AppData\Local\Temp\ccSIna8B.s:32664  .debug_str:00000000000245c7 .LASF4992
C:\Users\CYMR90~1\AppData\Local\Temp\ccSIna8B.s:33358  .debug_str:00000000000272cf .LASF4993
C:\Users\CYMR90~1\AppData\Local\Temp\ccSIna8B.s:33092  .debug_str:0000000000026287 .LASF4994
C:\Users\CYMR90~1\AppData\Local\Temp\ccSIna8B.s:31202  .debug_str:000000000001ec8e .LASF4995
C:\Users\CYMR90~1\AppData\Local\Temp\ccSIna8B.s:23703  .debug_str:0000000000000cd6 .LASF4996
C:\Users\CYMR90~1\AppData\Local\Temp\ccSIna8B.s:31812  .debug_str:0000000000021157 .LASF4997
C:\Users\CYMR90~1\AppData\Local\Temp\ccSIna8B.s:26657  .debug_str:000000000000ca1f .LASF4998
C:\Users\CYMR90~1\AppData\Local\Temp\ccSIna8B.s:28997  .debug_str:0000000000015d0c .LASF4999
C:\Users\CYMR90~1\AppData\Local\Temp\ccSIna8B.s:31984  .debug_str:0000000000021c0a .LASF5000
C:\Users\CYMR90~1\AppData\Local\Temp\ccSIna8B.s:29620  .debug_str:000000000001865a .LASF5001
C:\Users\CYMR90~1\AppData\Local\Temp\ccSIna8B.s:34224  .debug_str:000000000002aaca .LASF5002
C:\Users\CYMR90~1\AppData\Local\Temp\ccSIna8B.s:28385  .debug_str:000000000001386a .LASF5003
C:\Users\CYMR90~1\AppData\Local\Temp\ccSIna8B.s:31394  .debug_str:000000000001f7f0 .LASF5004
C:\Users\CYMR90~1\AppData\Local\Temp\ccSIna8B.s:25405  .debug_str:00000000000078b6 .LASF5005
C:\Users\CYMR90~1\AppData\Local\Temp\ccSIna8B.s:32894  .debug_str:00000000000254fc .LASF5006
C:\Users\CYMR90~1\AppData\Local\Temp\ccSIna8B.s:25279  .debug_str:000000000000703a .LASF5007
C:\Users\CYMR90~1\AppData\Local\Temp\ccSIna8B.s:33440  .debug_str:000000000002789a .LASF5008
C:\Users\CYMR90~1\AppData\Local\Temp\ccSIna8B.s:24043  .debug_str:00000000000020d2 .LASF5009
C:\Users\CYMR90~1\AppData\Local\Temp\ccSIna8B.s:32150  .debug_str:0000000000022621 .LASF5010
C:\Users\CYMR90~1\AppData\Local\Temp\ccSIna8B.s:28907  .debug_str:00000000000157a0 .LASF5011
C:\Users\CYMR90~1\AppData\Local\Temp\ccSIna8B.s:25729  .debug_str:0000000000008e4d .LASF5012
C:\Users\CYMR90~1\AppData\Local\Temp\ccSIna8B.s:24315  .debug_str:00000000000032c1 .LASF5013
C:\Users\CYMR90~1\AppData\Local\Temp\ccSIna8B.s:34636  .debug_str:000000000002c51b .LASF5014
C:\Users\CYMR90~1\AppData\Local\Temp\ccSIna8B.s:25915  .debug_str:00000000000099de .LASF5015
C:\Users\CYMR90~1\AppData\Local\Temp\ccSIna8B.s:25733  .debug_str:0000000000008e74 .LASF5016
C:\Users\CYMR90~1\AppData\Local\Temp\ccSIna8B.s:27717  .debug_str:0000000000010cbc .LASF5017
C:\Users\CYMR90~1\AppData\Local\Temp\ccSIna8B.s:23865  .debug_str:000000000000169f .LASF5018
C:\Users\CYMR90~1\AppData\Local\Temp\ccSIna8B.s:33824  .debug_str:0000000000029242 .LASF5019
C:\Users\CYMR90~1\AppData\Local\Temp\ccSIna8B.s:25851  .debug_str:00000000000095c3 .LASF5020
C:\Users\CYMR90~1\AppData\Local\Temp\ccSIna8B.s:25247  .debug_str:0000000000006e39 .LASF5021
C:\Users\CYMR90~1\AppData\Local\Temp\ccSIna8B.s:34530  .debug_str:000000000002bdea .LASF5022
C:\Users\CYMR90~1\AppData\Local\Temp\ccSIna8B.s:27417  .debug_str:000000000000facc .LASF5023
C:\Users\CYMR90~1\AppData\Local\Temp\ccSIna8B.s:24601  .debug_str:00000000000045ae .LASF5024
C:\Users\CYMR90~1\AppData\Local\Temp\ccSIna8B.s:30176  .debug_str:000000000001abca .LASF5025
C:\Users\CYMR90~1\AppData\Local\Temp\ccSIna8B.s:32850  .debug_str:0000000000025185 .LASF5026
C:\Users\CYMR90~1\AppData\Local\Temp\ccSIna8B.s:27359  .debug_str:000000000000f642 .LASF5027
C:\Users\CYMR90~1\AppData\Local\Temp\ccSIna8B.s:23607  .debug_str:00000000000006da .LASF5028
C:\Users\CYMR90~1\AppData\Local\Temp\ccSIna8B.s:23553  .debug_str:00000000000003ec .LASF5029
C:\Users\CYMR90~1\AppData\Local\Temp\ccSIna8B.s:23909  .debug_str:0000000000001949 .LASF5030
C:\Users\CYMR90~1\AppData\Local\Temp\ccSIna8B.s:32482  .debug_str:0000000000023a03 .LASF5031
C:\Users\CYMR90~1\AppData\Local\Temp\ccSIna8B.s:33154  .debug_str:00000000000265e6 .LASF5032
C:\Users\CYMR90~1\AppData\Local\Temp\ccSIna8B.s:28265  .debug_str:0000000000013050 .LASF5033
C:\Users\CYMR90~1\AppData\Local\Temp\ccSIna8B.s:30210  .debug_str:000000000001ade3 .LASF5034
C:\Users\CYMR90~1\AppData\Local\Temp\ccSIna8B.s:24187  .debug_str:0000000000002a66 .LASF5035
C:\Users\CYMR90~1\AppData\Local\Temp\ccSIna8B.s:29003  .debug_str:0000000000015da5 .LASF5036
C:\Users\CYMR90~1\AppData\Local\Temp\ccSIna8B.s:31594  .debug_str:00000000000203f7 .LASF5037
C:\Users\CYMR90~1\AppData\Local\Temp\ccSIna8B.s:30902  .debug_str:000000000001da5e .LASF5038
C:\Users\CYMR90~1\AppData\Local\Temp\ccSIna8B.s:25635  .debug_str:000000000000886c .LASF5039
C:\Users\CYMR90~1\AppData\Local\Temp\ccSIna8B.s:32286  .debug_str:0000000000022e90 .LASF5040
C:\Users\CYMR90~1\AppData\Local\Temp\ccSIna8B.s:31572  .debug_str:00000000000202c5 .LASF5041
C:\Users\CYMR90~1\AppData\Local\Temp\ccSIna8B.s:26603  .debug_str:000000000000c632 .LASF5042
C:\Users\CYMR90~1\AppData\Local\Temp\ccSIna8B.s:32856  .debug_str:00000000000251d0 .LASF5043
C:\Users\CYMR90~1\AppData\Local\Temp\ccSIna8B.s:32242  .debug_str:0000000000022bb2 .LASF5044
C:\Users\CYMR90~1\AppData\Local\Temp\ccSIna8B.s:34012  .debug_str:0000000000029e4b .LASF5045
C:\Users\CYMR90~1\AppData\Local\Temp\ccSIna8B.s:29798  .debug_str:00000000000191ac .LASF5046
C:\Users\CYMR90~1\AppData\Local\Temp\ccSIna8B.s:28929  .debug_str:00000000000158e9 .LASF5047
C:\Users\CYMR90~1\AppData\Local\Temp\ccSIna8B.s:31290  .debug_str:000000000001f1b2 .LASF5048
C:\Users\CYMR90~1\AppData\Local\Temp\ccSIna8B.s:28139  .debug_str:000000000001283a .LASF5049
C:\Users\CYMR90~1\AppData\Local\Temp\ccSIna8B.s:31684  .debug_str:00000000000209b9 .LASF5050
C:\Users\CYMR90~1\AppData\Local\Temp\ccSIna8B.s:28463  .debug_str:0000000000013cfa .LASF5051
C:\Users\CYMR90~1\AppData\Local\Temp\ccSIna8B.s:34370  .debug_str:000000000002b374 .LASF5052
C:\Users\CYMR90~1\AppData\Local\Temp\ccSIna8B.s:27601  .debug_str:0000000000010606 .LASF5053
C:\Users\CYMR90~1\AppData\Local\Temp\ccSIna8B.s:26819  .debug_str:000000000000d54d .LASF5054
C:\Users\CYMR90~1\AppData\Local\Temp\ccSIna8B.s:31300  .debug_str:000000000001f26b .LASF5055
C:\Users\CYMR90~1\AppData\Local\Temp\ccSIna8B.s:34554  .debug_str:000000000002bf5c .LASF5056
C:\Users\CYMR90~1\AppData\Local\Temp\ccSIna8B.s:29187  .debug_str:000000000001699b .LASF5057
C:\Users\CYMR90~1\AppData\Local\Temp\ccSIna8B.s:32414  .debug_str:000000000002359a .LASF5058
C:\Users\CYMR90~1\AppData\Local\Temp\ccSIna8B.s:26347  .debug_str:000000000000b4db .LASF5059
C:\Users\CYMR90~1\AppData\Local\Temp\ccSIna8B.s:32534  .debug_str:0000000000023ce8 .LASF5060
C:\Users\CYMR90~1\AppData\Local\Temp\ccSIna8B.s:32154  .debug_str:0000000000022652 .LASF5061
C:\Users\CYMR90~1\AppData\Local\Temp\ccSIna8B.s:29037  .debug_str:0000000000015ff7 .LASF5062
C:\Users\CYMR90~1\AppData\Local\Temp\ccSIna8B.s:29580  .debug_str:00000000000183fd .LASF5063
C:\Users\CYMR90~1\AppData\Local\Temp\ccSIna8B.s:32022  .debug_str:0000000000021e93 .LASF5064
C:\Users\CYMR90~1\AppData\Local\Temp\ccSIna8B.s:34528  .debug_str:000000000002bdd3 .LASF5065
C:\Users\CYMR90~1\AppData\Local\Temp\ccSIna8B.s:25481  .debug_str:0000000000007d99 .LASF5066
C:\Users\CYMR90~1\AppData\Local\Temp\ccSIna8B.s:24917  .debug_str:00000000000059da .LASF5067
C:\Users\CYMR90~1\AppData\Local\Temp\ccSIna8B.s:25225  .debug_str:0000000000006ccf .LASF5068
C:\Users\CYMR90~1\AppData\Local\Temp\ccSIna8B.s:26701  .debug_str:000000000000cdcb .LASF5069
C:\Users\CYMR90~1\AppData\Local\Temp\ccSIna8B.s:28073  .debug_str:00000000000123c4 .LASF5070
C:\Users\CYMR90~1\AppData\Local\Temp\ccSIna8B.s:26445  .debug_str:000000000000bbd7 .LASF5071
C:\Users\CYMR90~1\AppData\Local\Temp\ccSIna8B.s:33556  .debug_str:0000000000028034 .LASF5072
C:\Users\CYMR90~1\AppData\Local\Temp\ccSIna8B.s:33138  .debug_str:000000000002650c .LASF5073
C:\Users\CYMR90~1\AppData\Local\Temp\ccSIna8B.s:28813  .debug_str:0000000000015297 .LASF5074
C:\Users\CYMR90~1\AppData\Local\Temp\ccSIna8B.s:33620  .debug_str:000000000002848e .LASF5075
C:\Users\CYMR90~1\AppData\Local\Temp\ccSIna8B.s:28375  .debug_str:00000000000137cf .LASF5076
C:\Users\CYMR90~1\AppData\Local\Temp\ccSIna8B.s:34706  .debug_str:000000000002c9b8 .LASF5077
C:\Users\CYMR90~1\AppData\Local\Temp\ccSIna8B.s:30946  .debug_str:000000000001dcd3 .LASF5078
C:\Users\CYMR90~1\AppData\Local\Temp\ccSIna8B.s:33644  .debug_str:0000000000028694 .LASF5079
C:\Users\CYMR90~1\AppData\Local\Temp\ccSIna8B.s:31864  .debug_str:000000000002144f .LASF5080
C:\Users\CYMR90~1\AppData\Local\Temp\ccSIna8B.s:26149  .debug_str:000000000000a826 .LASF5081
C:\Users\CYMR90~1\AppData\Local\Temp\ccSIna8B.s:33952  .debug_str:0000000000029acd .LASF5082
C:\Users\CYMR90~1\AppData\Local\Temp\ccSIna8B.s:29462  .debug_str:0000000000017d0a .LASF5083
C:\Users\CYMR90~1\AppData\Local\Temp\ccSIna8B.s:28623  .debug_str:00000000000146ab .LASF5084
C:\Users\CYMR90~1\AppData\Local\Temp\ccSIna8B.s:24257  .debug_str:0000000000002ede .LASF5085
C:\Users\CYMR90~1\AppData\Local\Temp\ccSIna8B.s:30250  .debug_str:000000000001b01f .LASF5086
C:\Users\CYMR90~1\AppData\Local\Temp\ccSIna8B.s:26847  .debug_str:000000000000d77d .LASF5087
C:\Users\CYMR90~1\AppData\Local\Temp\ccSIna8B.s:28493  .debug_str:0000000000013eeb .LASF5088
C:\Users\CYMR90~1\AppData\Local\Temp\ccSIna8B.s:24185  .debug_str:0000000000002a4a .LASF5089
C:\Users\CYMR90~1\AppData\Local\Temp\ccSIna8B.s:26033  .debug_str:000000000000a15d .LASF5090
C:\Users\CYMR90~1\AppData\Local\Temp\ccSIna8B.s:32872  .debug_str:000000000002532e .LASF5091
C:\Users\CYMR90~1\AppData\Local\Temp\ccSIna8B.s:33956  .debug_str:0000000000029b09 .LASF5092
C:\Users\CYMR90~1\AppData\Local\Temp\ccSIna8B.s:34792  .debug_str:000000000002cf39 .LASF5093
C:\Users\CYMR90~1\AppData\Local\Temp\ccSIna8B.s:34126  .debug_str:000000000002a4df .LASF5094
C:\Users\CYMR90~1\AppData\Local\Temp\ccSIna8B.s:26065  .debug_str:000000000000a33e .LASF5095
C:\Users\CYMR90~1\AppData\Local\Temp\ccSIna8B.s:26883  .debug_str:000000000000d9b9 .LASF5096
C:\Users\CYMR90~1\AppData\Local\Temp\ccSIna8B.s:31580  .debug_str:000000000002031d .LASF5097
C:\Users\CYMR90~1\AppData\Local\Temp\ccSIna8B.s:32976  .debug_str:0000000000025b05 .LASF5098
C:\Users\CYMR90~1\AppData\Local\Temp\ccSIna8B.s:23597  .debug_str:000000000000062d .LASF5099
C:\Users\CYMR90~1\AppData\Local\Temp\ccSIna8B.s:26095  .debug_str:000000000000a4f2 .LASF5100
C:\Users\CYMR90~1\AppData\Local\Temp\ccSIna8B.s:30264  .debug_str:000000000001b12c .LASF5101
C:\Users\CYMR90~1\AppData\Local\Temp\ccSIna8B.s:27497  .debug_str:000000000000ffd5 .LASF5102
C:\Users\CYMR90~1\AppData\Local\Temp\ccSIna8B.s:29738  .debug_str:0000000000018d4a .LASF5103
C:\Users\CYMR90~1\AppData\Local\Temp\ccSIna8B.s:26643  .debug_str:000000000000c8cc .LASF5104
C:\Users\CYMR90~1\AppData\Local\Temp\ccSIna8B.s:26781  .debug_str:000000000000d280 .LASF5105
C:\Users\CYMR90~1\AppData\Local\Temp\ccSIna8B.s:27877  .debug_str:00000000000116b0 .LASF5106
C:\Users\CYMR90~1\AppData\Local\Temp\ccSIna8B.s:30940  .debug_str:000000000001dc72 .LASF5107
C:\Users\CYMR90~1\AppData\Local\Temp\ccSIna8B.s:25819  .debug_str:00000000000093ff .LASF5108
C:\Users\CYMR90~1\AppData\Local\Temp\ccSIna8B.s:25887  .debug_str:000000000000983f .LASF5109
C:\Users\CYMR90~1\AppData\Local\Temp\ccSIna8B.s:30828  .debug_str:000000000001d553 .LASF5110
C:\Users\CYMR90~1\AppData\Local\Temp\ccSIna8B.s:29396  .debug_str:00000000000178ac .LASF5111
C:\Users\CYMR90~1\AppData\Local\Temp\ccSIna8B.s:32172  .debug_str:0000000000022720 .LASF5112
C:\Users\CYMR90~1\AppData\Local\Temp\ccSIna8B.s:23501  .debug_str:00000000000000a6 .LASF5113
C:\Users\CYMR90~1\AppData\Local\Temp\ccSIna8B.s:31546  .debug_str:0000000000020149 .LASF5114
C:\Users\CYMR90~1\AppData\Local\Temp\ccSIna8B.s:34872  .debug_str:000000000002d426 .LASF5115
C:\Users\CYMR90~1\AppData\Local\Temp\ccSIna8B.s:30968  .debug_str:000000000001dea0 .LASF5116
C:\Users\CYMR90~1\AppData\Local\Temp\ccSIna8B.s:24973  .debug_str:0000000000005d66 .LASF5117
C:\Users\CYMR90~1\AppData\Local\Temp\ccSIna8B.s:33256  .debug_str:0000000000026c6e .LASF5118
C:\Users\CYMR90~1\AppData\Local\Temp\ccSIna8B.s:31784  .debug_str:0000000000020fdd .LASF5119
C:\Users\CYMR90~1\AppData\Local\Temp\ccSIna8B.s:30050  .debug_str:000000000001a282 .LASF5120
C:\Users\CYMR90~1\AppData\Local\Temp\ccSIna8B.s:33352  .debug_str:000000000002728c .LASF5121
C:\Users\CYMR90~1\AppData\Local\Temp\ccSIna8B.s:28101  .debug_str:000000000001255c .LASF5122
C:\Users\CYMR90~1\AppData\Local\Temp\ccSIna8B.s:28523  .debug_str:00000000000140ab .LASF5123
C:\Users\CYMR90~1\AppData\Local\Temp\ccSIna8B.s:28071  .debug_str:00000000000123ab .LASF5124
C:\Users\CYMR90~1\AppData\Local\Temp\ccSIna8B.s:25095  .debug_str:00000000000064bd .LASF5125
C:\Users\CYMR90~1\AppData\Local\Temp\ccSIna8B.s:31278  .debug_str:000000000001f0de .LASF5126
C:\Users\CYMR90~1\AppData\Local\Temp\ccSIna8B.s:29410  .debug_str:00000000000179ac .LASF5127
C:\Users\CYMR90~1\AppData\Local\Temp\ccSIna8B.s:23863  .debug_str:0000000000001664 .LASF5128
C:\Users\CYMR90~1\AppData\Local\Temp\ccSIna8B.s:31500  .debug_str:000000000001fe5b .LASF5129
C:\Users\CYMR90~1\AppData\Local\Temp\ccSIna8B.s:24201  .debug_str:0000000000002b58 .LASF5130
C:\Users\CYMR90~1\AppData\Local\Temp\ccSIna8B.s:28561  .debug_str:0000000000014304 .LASF5131
C:\Users\CYMR90~1\AppData\Local\Temp\ccSIna8B.s:23819  .debug_str:00000000000013f3 .LASF5132
C:\Users\CYMR90~1\AppData\Local\Temp\ccSIna8B.s:33296  .debug_str:0000000000026eca .LASF5133
C:\Users\CYMR90~1\AppData\Local\Temp\ccSIna8B.s:29059  .debug_str:0000000000016183 .LASF5134
C:\Users\CYMR90~1\AppData\Local\Temp\ccSIna8B.s:24425  .debug_str:0000000000003a09 .LASF5135
C:\Users\CYMR90~1\AppData\Local\Temp\ccSIna8B.s:26311  .debug_str:000000000000b2f0 .LASF5136
C:\Users\CYMR90~1\AppData\Local\Temp\ccSIna8B.s:32582  .debug_str:0000000000023f6e .LASF5137
C:\Users\CYMR90~1\AppData\Local\Temp\ccSIna8B.s:31504  .debug_str:000000000001fe92 .LASF5138
C:\Users\CYMR90~1\AppData\Local\Temp\ccSIna8B.s:33450  .debug_str:000000000002792b .LASF5139
C:\Users\CYMR90~1\AppData\Local\Temp\ccSIna8B.s:25579  .debug_str:000000000000850c .LASF5140
C:\Users\CYMR90~1\AppData\Local\Temp\ccSIna8B.s:34428  .debug_str:000000000002b756 .LASF5141
C:\Users\CYMR90~1\AppData\Local\Temp\ccSIna8B.s:31576  .debug_str:00000000000202f0 .LASF5142
C:\Users\CYMR90~1\AppData\Local\Temp\ccSIna8B.s:29894  .debug_str:0000000000019825 .LASF5143
C:\Users\CYMR90~1\AppData\Local\Temp\ccSIna8B.s:23737  .debug_str:0000000000000f4c .LASF5144
C:\Users\CYMR90~1\AppData\Local\Temp\ccSIna8B.s:31408  .debug_str:000000000001f8bf .LASF5145
C:\Users\CYMR90~1\AppData\Local\Temp\ccSIna8B.s:24947  .debug_str:0000000000005bd8 .LASF5146
C:\Users\CYMR90~1\AppData\Local\Temp\ccSIna8B.s:34394  .debug_str:000000000002b4cc .LASF5147
C:\Users\CYMR90~1\AppData\Local\Temp\ccSIna8B.s:29125  .debug_str:000000000001657c .LASF5148
C:\Users\CYMR90~1\AppData\Local\Temp\ccSIna8B.s:28927  .debug_str:00000000000158ce .LASF5149
C:\Users\CYMR90~1\AppData\Local\Temp\ccSIna8B.s:29966  .debug_str:0000000000019d8c .LASF5150
C:\Users\CYMR90~1\AppData\Local\Temp\ccSIna8B.s:26373  .debug_str:000000000000b70d .LASF5151
C:\Users\CYMR90~1\AppData\Local\Temp\ccSIna8B.s:32754  .debug_str:0000000000024b8c .LASF5152
C:\Users\CYMR90~1\AppData\Local\Temp\ccSIna8B.s:34372  .debug_str:000000000002b38c .LASF5153
C:\Users\CYMR90~1\AppData\Local\Temp\ccSIna8B.s:24475  .debug_str:0000000000003d1a .LASF5154
C:\Users\CYMR90~1\AppData\Local\Temp\ccSIna8B.s:31194  .debug_str:000000000001ec31 .LASF5155
C:\Users\CYMR90~1\AppData\Local\Temp\ccSIna8B.s:30476  .debug_str:000000000001be53 .LASF5156
C:\Users\CYMR90~1\AppData\Local\Temp\ccSIna8B.s:28289  .debug_str:00000000000131e1 .LASF5157
C:\Users\CYMR90~1\AppData\Local\Temp\ccSIna8B.s:34118  .debug_str:000000000002a470 .LASF5158
C:\Users\CYMR90~1\AppData\Local\Temp\ccSIna8B.s:31994  .debug_str:0000000000021cc0 .LASF5159
C:\Users\CYMR90~1\AppData\Local\Temp\ccSIna8B.s:25909  .debug_str:0000000000009973 .LASF5160
C:\Users\CYMR90~1\AppData\Local\Temp\ccSIna8B.s:34776  .debug_str:000000000002ce1c .LASF5161
C:\Users\CYMR90~1\AppData\Local\Temp\ccSIna8B.s:33832  .debug_str:00000000000292a3 .LASF5162
C:\Users\CYMR90~1\AppData\Local\Temp\ccSIna8B.s:24303  .debug_str:00000000000031e7 .LASF5163
C:\Users\CYMR90~1\AppData\Local\Temp\ccSIna8B.s:31946  .debug_str:0000000000021a20 .LASF5164
C:\Users\CYMR90~1\AppData\Local\Temp\ccSIna8B.s:34742  .debug_str:000000000002cbbf .LASF5165
C:\Users\CYMR90~1\AppData\Local\Temp\ccSIna8B.s:31700  .debug_str:0000000000020a92 .LASF5166
C:\Users\CYMR90~1\AppData\Local\Temp\ccSIna8B.s:34082  .debug_str:000000000002a26d .LASF5167
C:\Users\CYMR90~1\AppData\Local\Temp\ccSIna8B.s:29001  .debug_str:0000000000015d85 .LASF5168
C:\Users\CYMR90~1\AppData\Local\Temp\ccSIna8B.s:31104  .debug_str:000000000001e6c1 .LASF5169
C:\Users\CYMR90~1\AppData\Local\Temp\ccSIna8B.s:27389  .debug_str:000000000000f87b .LASF5170
C:\Users\CYMR90~1\AppData\Local\Temp\ccSIna8B.s:27377  .debug_str:000000000000f732 .LASF5171
C:\Users\CYMR90~1\AppData\Local\Temp\ccSIna8B.s:31480  .debug_str:000000000001fd2b .LASF5172
C:\Users\CYMR90~1\AppData\Local\Temp\ccSIna8B.s:33192  .debug_str:0000000000026878 .LASF5173
C:\Users\CYMR90~1\AppData\Local\Temp\ccSIna8B.s:23891  .debug_str:0000000000001832 .LASF5174
C:\Users\CYMR90~1\AppData\Local\Temp\ccSIna8B.s:29908  .debug_str:0000000000019915 .LASF5175
C:\Users\CYMR90~1\AppData\Local\Temp\ccSIna8B.s:24745  .debug_str:0000000000004f65 .LASF5176
C:\Users\CYMR90~1\AppData\Local\Temp\ccSIna8B.s:28535  .debug_str:0000000000014179 .LASF5177
C:\Users\CYMR90~1\AppData\Local\Temp\ccSIna8B.s:24003  .debug_str:0000000000001ebf .LASF5178
C:\Users\CYMR90~1\AppData\Local\Temp\ccSIna8B.s:24325  .debug_str:0000000000003370 .LASF5179
C:\Users\CYMR90~1\AppData\Local\Temp\ccSIna8B.s:27135  .debug_str:000000000000e85a .LASF5180
C:\Users\CYMR90~1\AppData\Local\Temp\ccSIna8B.s:27879  .debug_str:00000000000116d2 .LASF5181
C:\Users\CYMR90~1\AppData\Local\Temp\ccSIna8B.s:26247  .debug_str:000000000000ae41 .LASF5182
C:\Users\CYMR90~1\AppData\Local\Temp\ccSIna8B.s:32882  .debug_str:00000000000253bb .LASF5183
C:\Users\CYMR90~1\AppData\Local\Temp\ccSIna8B.s:34486  .debug_str:000000000002baf2 .LASF5184
C:\Users\CYMR90~1\AppData\Local\Temp\ccSIna8B.s:26073  .debug_str:000000000000a399 .LASF5185
C:\Users\CYMR90~1\AppData\Local\Temp\ccSIna8B.s:31728  .debug_str:0000000000020c55 .LASF5186
C:\Users\CYMR90~1\AppData\Local\Temp\ccSIna8B.s:31800  .debug_str:00000000000210bc .LASF5187
C:\Users\CYMR90~1\AppData\Local\Temp\ccSIna8B.s:34522  .debug_str:000000000002bd82 .LASF5188
C:\Users\CYMR90~1\AppData\Local\Temp\ccSIna8B.s:23799  .debug_str:00000000000012d2 .LASF5189
C:\Users\CYMR90~1\AppData\Local\Temp\ccSIna8B.s:33102  .debug_str:0000000000026315 .LASF5190
C:\Users\CYMR90~1\AppData\Local\Temp\ccSIna8B.s:32064  .debug_str:0000000000022120 .LASF5191
C:\Users\CYMR90~1\AppData\Local\Temp\ccSIna8B.s:30970  .debug_str:000000000001dec2 .LASF5192
C:\Users\CYMR90~1\AppData\Local\Temp\ccSIna8B.s:34316  .debug_str:000000000002b021 .LASF5193
C:\Users\CYMR90~1\AppData\Local\Temp\ccSIna8B.s:23973  .debug_str:0000000000001d14 .LASF5194
C:\Users\CYMR90~1\AppData\Local\Temp\ccSIna8B.s:30244  .debug_str:000000000001afc5 .LASF5195
C:\Users\CYMR90~1\AppData\Local\Temp\ccSIna8B.s:27009  .debug_str:000000000000e14b .LASF5196
C:\Users\CYMR90~1\AppData\Local\Temp\ccSIna8B.s:25519  .debug_str:00000000000080ac .LASF5197
C:\Users\CYMR90~1\AppData\Local\Temp\ccSIna8B.s:33688  .debug_str:00000000000289a1 .LASF5198
C:\Users\CYMR90~1\AppData\Local\Temp\ccSIna8B.s:34634  .debug_str:000000000002c4e2 .LASF5199
C:\Users\CYMR90~1\AppData\Local\Temp\ccSIna8B.s:26875  .debug_str:000000000000d955 .LASF5200
C:\Users\CYMR90~1\AppData\Local\Temp\ccSIna8B.s:24991  .debug_str:0000000000005e4b .LASF5201
C:\Users\CYMR90~1\AppData\Local\Temp\ccSIna8B.s:30956  .debug_str:000000000001dd65 .LASF5202
C:\Users\CYMR90~1\AppData\Local\Temp\ccSIna8B.s:23575  .debug_str:0000000000000524 .LASF5203
C:\Users\CYMR90~1\AppData\Local\Temp\ccSIna8B.s:24627  .debug_str:0000000000004777 .LASF5204
C:\Users\CYMR90~1\AppData\Local\Temp\ccSIna8B.s:27061  .debug_str:000000000000e41d .LASF5205
C:\Users\CYMR90~1\AppData\Local\Temp\ccSIna8B.s:25201  .debug_str:0000000000006b56 .LASF5206
C:\Users\CYMR90~1\AppData\Local\Temp\ccSIna8B.s:28447  .debug_str:0000000000013c01 .LASF5207
C:\Users\CYMR90~1\AppData\Local\Temp\ccSIna8B.s:28077  .debug_str:00000000000123fe .LASF5208
C:\Users\CYMR90~1\AppData\Local\Temp\ccSIna8B.s:24259  .debug_str:0000000000002ef5 .LASF5209
C:\Users\CYMR90~1\AppData\Local\Temp\ccSIna8B.s:24831  .debug_str:000000000000546b .LASF5210
C:\Users\CYMR90~1\AppData\Local\Temp\ccSIna8B.s:24349  .debug_str:0000000000003508 .LASF5211
C:\Users\CYMR90~1\AppData\Local\Temp\ccSIna8B.s:23535  .debug_str:000000000000029c .LASF5212
C:\Users\CYMR90~1\AppData\Local\Temp\ccSIna8B.s:25817  .debug_str:00000000000093dc .LASF5213
C:\Users\CYMR90~1\AppData\Local\Temp\ccSIna8B.s:29201  .debug_str:0000000000016ae9 .LASF5214
C:\Users\CYMR90~1\AppData\Local\Temp\ccSIna8B.s:24249  .debug_str:0000000000002e6a .LASF5215
C:\Users\CYMR90~1\AppData\Local\Temp\ccSIna8B.s:33280  .debug_str:0000000000026dfb .LASF5216
C:\Users\CYMR90~1\AppData\Local\Temp\ccSIna8B.s:29067  .debug_str:0000000000016223 .LASF5217
C:\Users\CYMR90~1\AppData\Local\Temp\ccSIna8B.s:29740  .debug_str:0000000000018dea .LASF5218
C:\Users\CYMR90~1\AppData\Local\Temp\ccSIna8B.s:32432  .debug_str:00000000000236a3 .LASF5219
C:\Users\CYMR90~1\AppData\Local\Temp\ccSIna8B.s:28703  .debug_str:0000000000014b87 .LASF5220
C:\Users\CYMR90~1\AppData\Local\Temp\ccSIna8B.s:28275  .debug_str:00000000000130f5 .LASF5221
C:\Users\CYMR90~1\AppData\Local\Temp\ccSIna8B.s:33960  .debug_str:0000000000029b52 .LASF5222
C:\Users\CYMR90~1\AppData\Local\Temp\ccSIna8B.s:29838  .debug_str:00000000000194d2 .LASF5223
C:\Users\CYMR90~1\AppData\Local\Temp\ccSIna8B.s:30854  .debug_str:000000000001d705 .LASF5224
C:\Users\CYMR90~1\AppData\Local\Temp\ccSIna8B.s:33048  .debug_str:0000000000025f95 .LASF5225
C:\Users\CYMR90~1\AppData\Local\Temp\ccSIna8B.s:27811  .debug_str:00000000000112b8 .LASF5226
C:\Users\CYMR90~1\AppData\Local\Temp\ccSIna8B.s:31004  .debug_str:000000000001e0f5 .LASF5227
C:\Users\CYMR90~1\AppData\Local\Temp\ccSIna8B.s:25991  .debug_str:0000000000009ec3 .LASF5228
C:\Users\CYMR90~1\AppData\Local\Temp\ccSIna8B.s:30274  .debug_str:000000000001b207 .LASF5229
C:\Users\CYMR90~1\AppData\Local\Temp\ccSIna8B.s:30852  .debug_str:000000000001d6e0 .LASF5230
C:\Users\CYMR90~1\AppData\Local\Temp\ccSIna8B.s:26377  .debug_str:000000000000b753 .LASF5231
C:\Users\CYMR90~1\AppData\Local\Temp\ccSIna8B.s:31452  .debug_str:000000000001fb52 .LASF5232
C:\Users\CYMR90~1\AppData\Local\Temp\ccSIna8B.s:28611  .debug_str:0000000000014613 .LASF5233
C:\Users\CYMR90~1\AppData\Local\Temp\ccSIna8B.s:34472  .debug_str:000000000002ba30 .LASF5234
C:\Users\CYMR90~1\AppData\Local\Temp\ccSIna8B.s:31734  .debug_str:0000000000020cca .LASF5235
C:\Users\CYMR90~1\AppData\Local\Temp\ccSIna8B.s:26309  .debug_str:000000000000b2cb .LASF5236
C:\Users\CYMR90~1\AppData\Local\Temp\ccSIna8B.s:23929  .debug_str:0000000000001a71 .LASF5237
C:\Users\CYMR90~1\AppData\Local\Temp\ccSIna8B.s:28913  .debug_str:0000000000015807 .LASF5238
C:\Users\CYMR90~1\AppData\Local\Temp\ccSIna8B.s:28255  .debug_str:0000000000012fbc .LASF5239
C:\Users\CYMR90~1\AppData\Local\Temp\ccSIna8B.s:26363  .debug_str:000000000000b67b .LASF5240
C:\Users\CYMR90~1\AppData\Local\Temp\ccSIna8B.s:26605  .debug_str:000000000000c649 .LASF5241
C:\Users\CYMR90~1\AppData\Local\Temp\ccSIna8B.s:25763  .debug_str:00000000000090e8 .LASF5242
C:\Users\CYMR90~1\AppData\Local\Temp\ccSIna8B.s:30876  .debug_str:000000000001d8a2 .LASF5243
C:\Users\CYMR90~1\AppData\Local\Temp\ccSIna8B.s:30694  .debug_str:000000000001cbf7 .LASF5244
C:\Users\CYMR90~1\AppData\Local\Temp\ccSIna8B.s:24865  .debug_str:0000000000005670 .LASF5245
C:\Users\CYMR90~1\AppData\Local\Temp\ccSIna8B.s:26541  .debug_str:000000000000c2a6 .LASF5246
C:\Users\CYMR90~1\AppData\Local\Temp\ccSIna8B.s:31188  .debug_str:000000000001ebca .LASF5247
C:\Users\CYMR90~1\AppData\Local\Temp\ccSIna8B.s:31922  .debug_str:000000000002185a .LASF5248
C:\Users\CYMR90~1\AppData\Local\Temp\ccSIna8B.s:34128  .debug_str:000000000002a4f6 .LASF5249
C:\Users\CYMR90~1\AppData\Local\Temp\ccSIna8B.s:27933  .debug_str:0000000000011a44 .LASF5250
C:\Users\CYMR90~1\AppData\Local\Temp\ccSIna8B.s:33788  .debug_str:0000000000028fed .LASF5251
C:\Users\CYMR90~1\AppData\Local\Temp\ccSIna8B.s:26559  .debug_str:000000000000c3a7 .LASF5252
C:\Users\CYMR90~1\AppData\Local\Temp\ccSIna8B.s:26273  .debug_str:000000000000b0b9 .LASF5253
C:\Users\CYMR90~1\AppData\Local\Temp\ccSIna8B.s:31268  .debug_str:000000000001f042 .LASF5254
C:\Users\CYMR90~1\AppData\Local\Temp\ccSIna8B.s:25709  .debug_str:0000000000008d3b .LASF5255
C:\Users\CYMR90~1\AppData\Local\Temp\ccSIna8B.s:34254  .debug_str:000000000002aca6 .LASF5256
C:\Users\CYMR90~1\AppData\Local\Temp\ccSIna8B.s:32512  .debug_str:0000000000023bb6 .LASF5257
C:\Users\CYMR90~1\AppData\Local\Temp\ccSIna8B.s:29077  .debug_str:00000000000162d3 .LASF5258
C:\Users\CYMR90~1\AppData\Local\Temp\ccSIna8B.s:28735  .debug_str:0000000000014d8f .LASF5259
C:\Users\CYMR90~1\AppData\Local\Temp\ccSIna8B.s:31092  .debug_str:000000000001e606 .LASF5260
C:\Users\CYMR90~1\AppData\Local\Temp\ccSIna8B.s:26691  .debug_str:000000000000cd30 .LASF5261
C:\Users\CYMR90~1\AppData\Local\Temp\ccSIna8B.s:28517  .debug_str:000000000001403d .LASF5262
C:\Users\CYMR90~1\AppData\Local\Temp\ccSIna8B.s:30924  .debug_str:000000000001db91 .LASF5263
C:\Users\CYMR90~1\AppData\Local\Temp\ccSIna8B.s:30248  .debug_str:000000000001b007 .LASF5264
C:\Users\CYMR90~1\AppData\Local\Temp\ccSIna8B.s:31766  .debug_str:0000000000020ef3 .LASF5265
C:\Users\CYMR90~1\AppData\Local\Temp\ccSIna8B.s:27259  .debug_str:000000000000f039 .LASF5266
C:\Users\CYMR90~1\AppData\Local\Temp\ccSIna8B.s:30874  .debug_str:000000000001d88d .LASF5267
C:\Users\CYMR90~1\AppData\Local\Temp\ccSIna8B.s:24635  .debug_str:0000000000004812 .LASF5268
C:\Users\CYMR90~1\AppData\Local\Temp\ccSIna8B.s:24009  .debug_str:0000000000001f31 .LASF5269
C:\Users\CYMR90~1\AppData\Local\Temp\ccSIna8B.s:30600  .debug_str:000000000001c5b4 .LASF5270
C:\Users\CYMR90~1\AppData\Local\Temp\ccSIna8B.s:25621  .debug_str:0000000000008799 .LASF5271
C:\Users\CYMR90~1\AppData\Local\Temp\ccSIna8B.s:34262  .debug_str:000000000002ad0d .LASF5272
C:\Users\CYMR90~1\AppData\Local\Temp\ccSIna8B.s:25473  .debug_str:0000000000007d13 .LASF5273
C:\Users\CYMR90~1\AppData\Local\Temp\ccSIna8B.s:23589  .debug_str:00000000000005df .LASF5274
C:\Users\CYMR90~1\AppData\Local\Temp\ccSIna8B.s:32762  .debug_str:0000000000024bed .LASF5275
C:\Users\CYMR90~1\AppData\Local\Temp\ccSIna8B.s:29648  .debug_str:000000000001880c .LASF5276
C:\Users\CYMR90~1\AppData\Local\Temp\ccSIna8B.s:27361  .debug_str:000000000000f65e .LASF5277
C:\Users\CYMR90~1\AppData\Local\Temp\ccSIna8B.s:32362  .debug_str:00000000000232ce .LASF5278
C:\Users\CYMR90~1\AppData\Local\Temp\ccSIna8B.s:34084  .debug_str:000000000002a28c .LASF5279
C:\Users\CYMR90~1\AppData\Local\Temp\ccSIna8B.s:26539  .debug_str:000000000000c292 .LASF5280
C:\Users\CYMR90~1\AppData\Local\Temp\ccSIna8B.s:25061  .debug_str:00000000000062c7 .LASF5281
C:\Users\CYMR90~1\AppData\Local\Temp\ccSIna8B.s:24687  .debug_str:0000000000004bcb .LASF5282
C:\Users\CYMR90~1\AppData\Local\Temp\ccSIna8B.s:33120  .debug_str:0000000000026437 .LASF5283
C:\Users\CYMR90~1\AppData\Local\Temp\ccSIna8B.s:26955  .debug_str:000000000000ddcf .LASF5284
C:\Users\CYMR90~1\AppData\Local\Temp\ccSIna8B.s:28365  .debug_str:0000000000013713 .LASF5285
C:\Users\CYMR90~1\AppData\Local\Temp\ccSIna8B.s:25685  .debug_str:0000000000008bc4 .LASF5286
C:\Users\CYMR90~1\AppData\Local\Temp\ccSIna8B.s:28921  .debug_str:000000000001587d .LASF5287
C:\Users\CYMR90~1\AppData\Local\Temp\ccSIna8B.s:32904  .debug_str:0000000000025594 .LASF5288
C:\Users\CYMR90~1\AppData\Local\Temp\ccSIna8B.s:24111  .debug_str:00000000000024f0 .LASF5289
C:\Users\CYMR90~1\AppData\Local\Temp\ccSIna8B.s:27303  .debug_str:000000000000f2b5 .LASF5290
C:\Users\CYMR90~1\AppData\Local\Temp\ccSIna8B.s:23729  .debug_str:0000000000000e55 .LASF5291
C:\Users\CYMR90~1\AppData\Local\Temp\ccSIna8B.s:27761  .debug_str:0000000000010fee .LASF5292
C:\Users\CYMR90~1\AppData\Local\Temp\ccSIna8B.s:23747  .debug_str:0000000000000fd4 .LASF5293
C:\Users\CYMR90~1\AppData\Local\Temp\ccSIna8B.s:31462  .debug_str:000000000001fc02 .LASF5294
C:\Users\CYMR90~1\AppData\Local\Temp\ccSIna8B.s:30428  .debug_str:000000000001bb5b .LASF5295
C:\Users\CYMR90~1\AppData\Local\Temp\ccSIna8B.s:28173  .debug_str:0000000000012a55 .LASF5296
C:\Users\CYMR90~1\AppData\Local\Temp\ccSIna8B.s:24105  .debug_str:00000000000024a3 .LASF5297
C:\Users\CYMR90~1\AppData\Local\Temp\ccSIna8B.s:32922  .debug_str:00000000000256db .LASF5298
C:\Users\CYMR90~1\AppData\Local\Temp\ccSIna8B.s:26665  .debug_str:000000000000cabd .LASF5299
C:\Users\CYMR90~1\AppData\Local\Temp\ccSIna8B.s:34246  .debug_str:000000000002ac30 .LASF5300
C:\Users\CYMR90~1\AppData\Local\Temp\ccSIna8B.s:30104  .debug_str:000000000001a753 .LASF5301
C:\Users\CYMR90~1\AppData\Local\Temp\ccSIna8B.s:32330  .debug_str:000000000002310e .LASF5302
C:\Users\CYMR90~1\AppData\Local\Temp\ccSIna8B.s:29260  .debug_str:00000000000170b7 .LASF5303
C:\Users\CYMR90~1\AppData\Local\Temp\ccSIna8B.s:26163  .debug_str:000000000000a8de .LASF5304
C:\Users\CYMR90~1\AppData\Local\Temp\ccSIna8B.s:29836  .debug_str:00000000000194bb .LASF5305
C:\Users\CYMR90~1\AppData\Local\Temp\ccSIna8B.s:33554  .debug_str:000000000002801b .LASF5306
C:\Users\CYMR90~1\AppData\Local\Temp\ccSIna8B.s:34058  .debug_str:000000000002a107 .LASF5307
C:\Users\CYMR90~1\AppData\Local\Temp\ccSIna8B.s:27539  .debug_str:0000000000010280 .LASF5308
C:\Users\CYMR90~1\AppData\Local\Temp\ccSIna8B.s:30734  .debug_str:000000000001ce7a .LASF5309
C:\Users\CYMR90~1\AppData\Local\Temp\ccSIna8B.s:32046  .debug_str:0000000000021ffe .LASF5310
C:\Users\CYMR90~1\AppData\Local\Temp\ccSIna8B.s:26911  .debug_str:000000000000db62 .LASF5311
C:\Users\CYMR90~1\AppData\Local\Temp\ccSIna8B.s:29360  .debug_str:0000000000017684 .LASF5312
C:\Users\CYMR90~1\AppData\Local\Temp\ccSIna8B.s:26441  .debug_str:000000000000bb9a .LASF5313
C:\Users\CYMR90~1\AppData\Local\Temp\ccSIna8B.s:31646  .debug_str:000000000002078c .LASF5314
C:\Users\CYMR90~1\AppData\Local\Temp\ccSIna8B.s:29027  .debug_str:0000000000015f2a .LASF5315
C:\Users\CYMR90~1\AppData\Local\Temp\ccSIna8B.s:32500  .debug_str:0000000000023ae9 .LASF5316
C:\Users\CYMR90~1\AppData\Local\Temp\ccSIna8B.s:34380  .debug_str:000000000002b400 .LASF5317
C:\Users\CYMR90~1\AppData\Local\Temp\ccSIna8B.s:31844  .debug_str:0000000000021319 .LASF5318
C:\Users\CYMR90~1\AppData\Local\Temp\ccSIna8B.s:32192  .debug_str:0000000000022876 .LASF5319
C:\Users\CYMR90~1\AppData\Local\Temp\ccSIna8B.s:29153  .debug_str:000000000001679f .LASF5320
C:\Users\CYMR90~1\AppData\Local\Temp\ccSIna8B.s:25289  .debug_str:00000000000070fb .LASF5321
C:\Users\CYMR90~1\AppData\Local\Temp\ccSIna8B.s:32946  .debug_str:000000000002589a .LASF5322
C:\Users\CYMR90~1\AppData\Local\Temp\ccSIna8B.s:30158  .debug_str:000000000001aac2 .LASF5323
C:\Users\CYMR90~1\AppData\Local\Temp\ccSIna8B.s:23725  .debug_str:0000000000000e17 .LASF5324
C:\Users\CYMR90~1\AppData\Local\Temp\ccSIna8B.s:32166  .debug_str:00000000000226da .LASF5325
C:\Users\CYMR90~1\AppData\Local\Temp\ccSIna8B.s:28827  .debug_str:0000000000015344 .LASF5326
C:\Users\CYMR90~1\AppData\Local\Temp\ccSIna8B.s:24189  .debug_str:0000000000002a7d .LASF5327
C:\Users\CYMR90~1\AppData\Local\Temp\ccSIna8B.s:27237  .debug_str:000000000000ef1b .LASF5328
C:\Users\CYMR90~1\AppData\Local\Temp\ccSIna8B.s:31166  .debug_str:000000000001eab4 .LASF5329
C:\Users\CYMR90~1\AppData\Local\Temp\ccSIna8B.s:26699  .debug_str:000000000000cdb4 .LASF5330
C:\Users\CYMR90~1\AppData\Local\Temp\ccSIna8B.s:28491  .debug_str:0000000000013ed4 .LASF5331
C:\Users\CYMR90~1\AppData\Local\Temp\ccSIna8B.s:32852  .debug_str:000000000002519d .LASF5332
C:\Users\CYMR90~1\AppData\Local\Temp\ccSIna8B.s:33868  .debug_str:000000000002950d .LASF5333
C:\Users\CYMR90~1\AppData\Local\Temp\ccSIna8B.s:28497  .debug_str:0000000000013f18 .LASF5334
C:\Users\CYMR90~1\AppData\Local\Temp\ccSIna8B.s:24989  .debug_str:0000000000005e35 .LASF5335
C:\Users\CYMR90~1\AppData\Local\Temp\ccSIna8B.s:24569  .debug_str:000000000000438b .LASF5336
C:\Users\CYMR90~1\AppData\Local\Temp\ccSIna8B.s:31960  .debug_str:0000000000021ad0 .LASF5337
C:\Users\CYMR90~1\AppData\Local\Temp\ccSIna8B.s:27669  .debug_str:0000000000010a16 .LASF5338
C:\Users\CYMR90~1\AppData\Local\Temp\ccSIna8B.s:24655  .debug_str:00000000000049de .LASF5339
C:\Users\CYMR90~1\AppData\Local\Temp\ccSIna8B.s:31186  .debug_str:000000000001ebb0 .LASF5340
C:\Users\CYMR90~1\AppData\Local\Temp\ccSIna8B.s:23601  .debug_str:000000000000066b .LASF5341
C:\Users\CYMR90~1\AppData\Local\Temp\ccSIna8B.s:34366  .debug_str:000000000002b33e .LASF5342
C:\Users\CYMR90~1\AppData\Local\Temp\ccSIna8B.s:28857  .debug_str:00000000000154f8 .LASF5343
C:\Users\CYMR90~1\AppData\Local\Temp\ccSIna8B.s:23877  .debug_str:000000000000174d .LASF5344
C:\Users\CYMR90~1\AppData\Local\Temp\ccSIna8B.s:27597  .debug_str:00000000000105d6 .LASF5345
C:\Users\CYMR90~1\AppData\Local\Temp\ccSIna8B.s:33396  .debug_str:00000000000275ec .LASF5346
C:\Users\CYMR90~1\AppData\Local\Temp\ccSIna8B.s:34838  .debug_str:000000000002d242 .LASF5347
C:\Users\CYMR90~1\AppData\Local\Temp\ccSIna8B.s:34718  .debug_str:000000000002ca53 .LASF5348
C:\Users\CYMR90~1\AppData\Local\Temp\ccSIna8B.s:34072  .debug_str:000000000002a1e8 .LASF5349
C:\Users\CYMR90~1\AppData\Local\Temp\ccSIna8B.s:31682  .debug_str:00000000000209a0 .LASF5350
C:\Users\CYMR90~1\AppData\Local\Temp\ccSIna8B.s:24329  .debug_str:00000000000033bd .LASF5351
C:\Users\CYMR90~1\AppData\Local\Temp\ccSIna8B.s:33736  .debug_str:0000000000028cf5 .LASF5352
C:\Users\CYMR90~1\AppData\Local\Temp\ccSIna8B.s:30614  .debug_str:000000000001c673 .LASF5353
C:\Users\CYMR90~1\AppData\Local\Temp\ccSIna8B.s:33230  .debug_str:0000000000026aeb .LASF5354
C:\Users\CYMR90~1\AppData\Local\Temp\ccSIna8B.s:31884  .debug_str:000000000002161d .LASF5355
C:\Users\CYMR90~1\AppData\Local\Temp\ccSIna8B.s:27433  .debug_str:000000000000fbd6 .LASF5356
C:\Users\CYMR90~1\AppData\Local\Temp\ccSIna8B.s:31158  .debug_str:000000000001ea40 .LASF5357
C:\Users\CYMR90~1\AppData\Local\Temp\ccSIna8B.s:31630  .debug_str:000000000002060f .LASF5358
C:\Users\CYMR90~1\AppData\Local\Temp\ccSIna8B.s:25921  .debug_str:0000000000009a2f .LASF5359
C:\Users\CYMR90~1\AppData\Local\Temp\ccSIna8B.s:29768  .debug_str:0000000000018ff2 .LASF5360
C:\Users\CYMR90~1\AppData\Local\Temp\ccSIna8B.s:24073  .debug_str:00000000000022a8 .LASF5361
C:\Users\CYMR90~1\AppData\Local\Temp\ccSIna8B.s:24279  .debug_str:0000000000003028 .LASF5362
C:\Users\CYMR90~1\AppData\Local\Temp\ccSIna8B.s:26813  .debug_str:000000000000d501 .LASF5363
C:\Users\CYMR90~1\AppData\Local\Temp\ccSIna8B.s:26177  .debug_str:000000000000a9ed .LASF5364
C:\Users\CYMR90~1\AppData\Local\Temp\ccSIna8B.s:34876  .debug_str:000000000002d487 .LASF5365
C:\Users\CYMR90~1\AppData\Local\Temp\ccSIna8B.s:25793  .debug_str:0000000000009269 .LASF5366
C:\Users\CYMR90~1\AppData\Local\Temp\ccSIna8B.s:33656  .debug_str:000000000002875c .LASF5367
C:\Users\CYMR90~1\AppData\Local\Temp\ccSIna8B.s:24943  .debug_str:0000000000005b6d .LASF5368
C:\Users\CYMR90~1\AppData\Local\Temp\ccSIna8B.s:30988  .debug_str:000000000001dfe8 .LASF5369
C:\Users\CYMR90~1\AppData\Local\Temp\ccSIna8B.s:25239  .debug_str:0000000000006da3 .LASF5370
C:\Users\CYMR90~1\AppData\Local\Temp\ccSIna8B.s:24581  .debug_str:0000000000004459 .LASF5371
C:\Users\CYMR90~1\AppData\Local\Temp\ccSIna8B.s:29278  .debug_str:00000000000171d4 .LASF5372
C:\Users\CYMR90~1\AppData\Local\Temp\ccSIna8B.s:34512  .debug_str:000000000002bcec .LASF5373
C:\Users\CYMR90~1\AppData\Local\Temp\ccSIna8B.s:28305  .debug_str:00000000000132fa .LASF5374
C:\Users\CYMR90~1\AppData\Local\Temp\ccSIna8B.s:34130  .debug_str:000000000002a50f .LASF5375
C:\Users\CYMR90~1\AppData\Local\Temp\ccSIna8B.s:33204  .debug_str:0000000000026934 .LASF5376
C:\Users\CYMR90~1\AppData\Local\Temp\ccSIna8B.s:33420  .debug_str:0000000000027760 .LASF5377
C:\Users\CYMR90~1\AppData\Local\Temp\ccSIna8B.s:33964  .debug_str:0000000000029b91 .LASF5378
C:\Users\CYMR90~1\AppData\Local\Temp\ccSIna8B.s:30518  .debug_str:000000000001c108 .LASF5379
C:\Users\CYMR90~1\AppData\Local\Temp\ccSIna8B.s:32372  .debug_str:000000000002333a .LASF5380
C:\Users\CYMR90~1\AppData\Local\Temp\ccSIna8B.s:25537  .debug_str:0000000000008277 .LASF5381
C:\Users\CYMR90~1\AppData\Local\Temp\ccSIna8B.s:30702  .debug_str:000000000001cc62 .LASF5382
C:\Users\CYMR90~1\AppData\Local\Temp\ccSIna8B.s:27425  .debug_str:000000000000fb4b .LASF5383
C:\Users\CYMR90~1\AppData\Local\Temp\ccSIna8B.s:26565  .debug_str:000000000000c40b .LASF5384
C:\Users\CYMR90~1\AppData\Local\Temp\ccSIna8B.s:33160  .debug_str:000000000002664d .LASF5385
C:\Users\CYMR90~1\AppData\Local\Temp\ccSIna8B.s:23985  .debug_str:0000000000001dc3 .LASF5386
C:\Users\CYMR90~1\AppData\Local\Temp\ccSIna8B.s:29101  .debug_str:0000000000016411 .LASF5387
C:\Users\CYMR90~1\AppData\Local\Temp\ccSIna8B.s:24291  .debug_str:0000000000003122 .LASF5388
C:\Users\CYMR90~1\AppData\Local\Temp\ccSIna8B.s:26505  .debug_str:000000000000c06b .LASF5389
C:\Users\CYMR90~1\AppData\Local\Temp\ccSIna8B.s:31170  .debug_str:000000000001eae6 .LASF5390
C:\Users\CYMR90~1\AppData\Local\Temp\ccSIna8B.s:23785  .debug_str:000000000000122a .LASF5391
C:\Users\CYMR90~1\AppData\Local\Temp\ccSIna8B.s:32884  .debug_str:00000000000253cc .LASF5392
C:\Users\CYMR90~1\AppData\Local\Temp\ccSIna8B.s:25643  .debug_str:00000000000088cb .LASF5393
C:\Users\CYMR90~1\AppData\Local\Temp\ccSIna8B.s:30800  .debug_str:000000000001d3af .LASF5394
C:\Users\CYMR90~1\AppData\Local\Temp\ccSIna8B.s:34142  .debug_str:000000000002a5bd .LASF5395
C:\Users\CYMR90~1\AppData\Local\Temp\ccSIna8B.s:31788  .debug_str:000000000002101a .LASF5396
C:\Users\CYMR90~1\AppData\Local\Temp\ccSIna8B.s:30232  .debug_str:000000000001af27 .LASF5397
C:\Users\CYMR90~1\AppData\Local\Temp\ccSIna8B.s:24959  .debug_str:0000000000005ca7 .LASF5398
C:\Users\CYMR90~1\AppData\Local\Temp\ccSIna8B.s:27865  .debug_str:00000000000115ff .LASF5399
C:\Users\CYMR90~1\AppData\Local\Temp\ccSIna8B.s:32506  .debug_str:0000000000023b65 .LASF5400
C:\Users\CYMR90~1\AppData\Local\Temp\ccSIna8B.s:28817  .debug_str:00000000000152c7 .LASF5401
C:\Users\CYMR90~1\AppData\Local\Temp\ccSIna8B.s:30926  .debug_str:000000000001dba6 .LASF5402
C:\Users\CYMR90~1\AppData\Local\Temp\ccSIna8B.s:24255  .debug_str:0000000000002eb9 .LASF5403
C:\Users\CYMR90~1\AppData\Local\Temp\ccSIna8B.s:23521  .debug_str:00000000000001ef .LASF5404
C:\Users\CYMR90~1\AppData\Local\Temp\ccSIna8B.s:29940  .debug_str:0000000000019bbf .LASF5405
C:\Users\CYMR90~1\AppData\Local\Temp\ccSIna8B.s:27709  .debug_str:0000000000010c6a .LASF5406
C:\Users\CYMR90~1\AppData\Local\Temp\ccSIna8B.s:24567  .debug_str:0000000000004373 .LASF5407
C:\Users\CYMR90~1\AppData\Local\Temp\ccSIna8B.s:29874  .debug_str:0000000000019723 .LASF5408
C:\Users\CYMR90~1\AppData\Local\Temp\ccSIna8B.s:26525  .debug_str:000000000000c192 .LASF5409
C:\Users\CYMR90~1\AppData\Local\Temp\ccSIna8B.s:23547  .debug_str:0000000000000387 .LASF5410
C:\Users\CYMR90~1\AppData\Local\Temp\ccSIna8B.s:33748  .debug_str:0000000000028d9f .LASF5411
C:\Users\CYMR90~1\AppData\Local\Temp\ccSIna8B.s:33886  .debug_str:0000000000029620 .LASF5412
C:\Users\CYMR90~1\AppData\Local\Temp\ccSIna8B.s:24597  .debug_str:0000000000004571 .LASF5413
C:\Users\CYMR90~1\AppData\Local\Temp\ccSIna8B.s:32614  .debug_str:0000000000024143 .LASF5414
C:\Users\CYMR90~1\AppData\Local\Temp\ccSIna8B.s:23567  .debug_str:00000000000004c3 .LASF5415
C:\Users\CYMR90~1\AppData\Local\Temp\ccSIna8B.s:31146  .debug_str:000000000001e97e .LASF5416
C:\Users\CYMR90~1\AppData\Local\Temp\ccSIna8B.s:32462  .debug_str:00000000000238b1 .LASF5417
C:\Users\CYMR90~1\AppData\Local\Temp\ccSIna8B.s:24123  .debug_str:00000000000025cc .LASF5418
C:\Users\CYMR90~1\AppData\Local\Temp\ccSIna8B.s:33322  .debug_str:00000000000270ae .LASF5419
C:\Users\CYMR90~1\AppData\Local\Temp\ccSIna8B.s:34670  .debug_str:000000000002c772 .LASF5420
C:\Users\CYMR90~1\AppData\Local\Temp\ccSIna8B.s:31610  .debug_str:00000000000204bf .LASF5421
C:\Users\CYMR90~1\AppData\Local\Temp\ccSIna8B.s:23769  .debug_str:00000000000010ed .LASF5422
C:\Users\CYMR90~1\AppData\Local\Temp\ccSIna8B.s:32236  .debug_str:0000000000022b39 .LASF5423
C:\Users\CYMR90~1\AppData\Local\Temp\ccSIna8B.s:26501  .debug_str:000000000000c007 .LASF5424
C:\Users\CYMR90~1\AppData\Local\Temp\ccSIna8B.s:32228  .debug_str:0000000000022ad1 .LASF5425
C:\Users\CYMR90~1\AppData\Local\Temp\ccSIna8B.s:29530  .debug_str:000000000001812b .LASF5426
C:\Users\CYMR90~1\AppData\Local\Temp\ccSIna8B.s:25005  .debug_str:0000000000005f4a .LASF5427
C:\Users\CYMR90~1\AppData\Local\Temp\ccSIna8B.s:26947  .debug_str:000000000000dd62 .LASF5428
C:\Users\CYMR90~1\AppData\Local\Temp\ccSIna8B.s:26999  .debug_str:000000000000e077 .LASF5429
C:\Users\CYMR90~1\AppData\Local\Temp\ccSIna8B.s:24649  .debug_str:000000000000497d .LASF5430
C:\Users\CYMR90~1\AppData\Local\Temp\ccSIna8B.s:25941  .debug_str:0000000000009baa .LASF5431
C:\Users\CYMR90~1\AppData\Local\Temp\ccSIna8B.s:28487  .debug_str:0000000000013e74 .LASF5432
C:\Users\CYMR90~1\AppData\Local\Temp\ccSIna8B.s:24471  .debug_str:0000000000003cc9 .LASF5433
C:\Users\CYMR90~1\AppData\Local\Temp\ccSIna8B.s:25231  .debug_str:0000000000006d22 .LASF5434
C:\Users\CYMR90~1\AppData\Local\Temp\ccSIna8B.s:23495  .debug_str:000000000000002e .LASF5435
C:\Users\CYMR90~1\AppData\Local\Temp\ccSIna8B.s:27813  .debug_str:00000000000112dc .LASF5436
C:\Users\CYMR90~1\AppData\Local\Temp\ccSIna8B.s:30190  .debug_str:000000000001ac81 .LASF5437
C:\Users\CYMR90~1\AppData\Local\Temp\ccSIna8B.s:29229  .debug_str:0000000000016d2e .LASF5438
C:\Users\CYMR90~1\AppData\Local\Temp\ccSIna8B.s:34610  .debug_str:000000000002c36b .LASF5439
C:\Users\CYMR90~1\AppData\Local\Temp\ccSIna8B.s:32648  .debug_str:0000000000024492 .LASF5440
C:\Users\CYMR90~1\AppData\Local\Temp\ccSIna8B.s:27101  .debug_str:000000000000e650 .LASF5441
C:\Users\CYMR90~1\AppData\Local\Temp\ccSIna8B.s:24283  .debug_str:00000000000030a5 .LASF5442
C:\Users\CYMR90~1\AppData\Local\Temp\ccSIna8B.s:30688  .debug_str:000000000001cb91 .LASF5443
C:\Users\CYMR90~1\AppData\Local\Temp\ccSIna8B.s:24013  .debug_str:0000000000001f5b .LASF5444
C:\Users\CYMR90~1\AppData\Local\Temp\ccSIna8B.s:29792  .debug_str:000000000001911e .LASF5445
C:\Users\CYMR90~1\AppData\Local\Temp\ccSIna8B.s:27457  .debug_str:000000000000fd20 .LASF5446
C:\Users\CYMR90~1\AppData\Local\Temp\ccSIna8B.s:24117  .debug_str:0000000000002536 .LASF5447
C:\Users\CYMR90~1\AppData\Local\Temp\ccSIna8B.s:31254  .debug_str:000000000001ef79 .LASF5448
C:\Users\CYMR90~1\AppData\Local\Temp\ccSIna8B.s:26115  .debug_str:000000000000a63a .LASF5449
C:\Users\CYMR90~1\AppData\Local\Temp\ccSIna8B.s:23629  .debug_str:0000000000000816 .LASF5450
C:\Users\CYMR90~1\AppData\Local\Temp\ccSIna8B.s:30206  .debug_str:000000000001ad80 .LASF5451
C:\Users\CYMR90~1\AppData\Local\Temp\ccSIna8B.s:33538  .debug_str:0000000000027ecf .LASF5452
C:\Users\CYMR90~1\AppData\Local\Temp\ccSIna8B.s:24895  .debug_str:000000000000587e .LASF5453
C:\Users\CYMR90~1\AppData\Local\Temp\ccSIna8B.s:29858  .debug_str:00000000000195ec .LASF5454
C:\Users\CYMR90~1\AppData\Local\Temp\ccSIna8B.s:26493  .debug_str:000000000000bf7f .LASF5455
C:\Users\CYMR90~1\AppData\Local\Temp\ccSIna8B.s:29916  .debug_str:00000000000199d1 .LASF5456
C:\Users\CYMR90~1\AppData\Local\Temp\ccSIna8B.s:31846  .debug_str:0000000000021331 .LASF5457
C:\Users\CYMR90~1\AppData\Local\Temp\ccSIna8B.s:29942  .debug_str:0000000000019bfa .LASF5458
C:\Users\CYMR90~1\AppData\Local\Temp\ccSIna8B.s:32968  .debug_str:0000000000025a0c .LASF5459
C:\Users\CYMR90~1\AppData\Local\Temp\ccSIna8B.s:32738  .debug_str:0000000000024a08 .LASF5460
C:\Users\CYMR90~1\AppData\Local\Temp\ccSIna8B.s:26863  .debug_str:000000000000d88f .LASF5461
C:\Users\CYMR90~1\AppData\Local\Temp\ccSIna8B.s:27427  .debug_str:000000000000fb64 .LASF5462
C:\Users\CYMR90~1\AppData\Local\Temp\ccSIna8B.s:31270  .debug_str:000000000001f059 .LASF5463
C:\Users\CYMR90~1\AppData\Local\Temp\ccSIna8B.s:26997  .debug_str:000000000000e03b .LASF5464
C:\Users\CYMR90~1\AppData\Local\Temp\ccSIna8B.s:30310  .debug_str:000000000001b476 .LASF5465
C:\Users\CYMR90~1\AppData\Local\Temp\ccSIna8B.s:34182  .debug_str:000000000002a811 .LASF5466
C:\Users\CYMR90~1\AppData\Local\Temp\ccSIna8B.s:27729  .debug_str:0000000000010d7c .LASF5467
C:\Users\CYMR90~1\AppData\Local\Temp\ccSIna8B.s:33316  .debug_str:000000000002703f .LASF5468
C:\Users\CYMR90~1\AppData\Local\Temp\ccSIna8B.s:32622  .debug_str:0000000000024299 .LASF5469
C:\Users\CYMR90~1\AppData\Local\Temp\ccSIna8B.s:34288  .debug_str:000000000002ae76 .LASF5470
C:\Users\CYMR90~1\AppData\Local\Temp\ccSIna8B.s:27507  .debug_str:0000000000010080 .LASF5471
C:\Users\CYMR90~1\AppData\Local\Temp\ccSIna8B.s:32196  .debug_str:00000000000228b4 .LASF5472
C:\Users\CYMR90~1\AppData\Local\Temp\ccSIna8B.s:31042  .debug_str:000000000001e328 .LASF5473
C:\Users\CYMR90~1\AppData\Local\Temp\ccSIna8B.s:32692  .debug_str:000000000002471f .LASF5474
C:\Users\CYMR90~1\AppData\Local\Temp\ccSIna8B.s:29169  .debug_str:0000000000016893 .LASF5475
C:\Users\CYMR90~1\AppData\Local\Temp\ccSIna8B.s:30664  .debug_str:000000000001c9fa .LASF5476
C:\Users\CYMR90~1\AppData\Local\Temp\ccSIna8B.s:28481  .debug_str:0000000000013e14 .LASF5477
C:\Users\CYMR90~1\AppData\Local\Temp\ccSIna8B.s:27645  .debug_str:000000000001088c .LASF5478
C:\Users\CYMR90~1\AppData\Local\Temp\ccSIna8B.s:28087  .debug_str:0000000000012490 .LASF5479
C:\Users\CYMR90~1\AppData\Local\Temp\ccSIna8B.s:24351  .debug_str:000000000000352a .LASF5480
C:\Users\CYMR90~1\AppData\Local\Temp\ccSIna8B.s:25223  .debug_str:0000000000006cb6 .LASF5481
C:\Users\CYMR90~1\AppData\Local\Temp\ccSIna8B.s:28141  .debug_str:0000000000012851 .LASF5482
C:\Users\CYMR90~1\AppData\Local\Temp\ccSIna8B.s:28051  .debug_str:0000000000012221 .LASF5483
C:\Users\CYMR90~1\AppData\Local\Temp\ccSIna8B.s:27121  .debug_str:000000000000e785 .LASF5484
C:\Users\CYMR90~1\AppData\Local\Temp\ccSIna8B.s:30066  .debug_str:000000000001a366 .LASF5485
C:\Users\CYMR90~1\AppData\Local\Temp\ccSIna8B.s:24499  .debug_str:0000000000003e95 .LASF5486
C:\Users\CYMR90~1\AppData\Local\Temp\ccSIna8B.s:33542  .debug_str:0000000000027f1c .LASF5487
C:\Users\CYMR90~1\AppData\Local\Temp\ccSIna8B.s:34784  .debug_str:000000000002cea1 .LASF5488
C:\Users\CYMR90~1\AppData\Local\Temp\ccSIna8B.s:26897  .debug_str:000000000000da85 .LASF5489
C:\Users\CYMR90~1\AppData\Local\Temp\ccSIna8B.s:29584  .debug_str:0000000000018444 .LASF5490
C:\Users\CYMR90~1\AppData\Local\Temp\ccSIna8B.s:23867  .debug_str:00000000000016b7 .LASF5491
C:\Users\CYMR90~1\AppData\Local\Temp\ccSIna8B.s:29129  .debug_str:00000000000165b6 .LASF5492
C:\Users\CYMR90~1\AppData\Local\Temp\ccSIna8B.s:26835  .debug_str:000000000000d6a7 .LASF5493
C:\Users\CYMR90~1\AppData\Local\Temp\ccSIna8B.s:34252  .debug_str:000000000002ac88 .LASF5494
C:\Users\CYMR90~1\AppData\Local\Temp\ccSIna8B.s:33190  .debug_str:000000000002685b .LASF5495
C:\Users\CYMR90~1\AppData\Local\Temp\ccSIna8B.s:27881  .debug_str:00000000000116ea .LASF5496
C:\Users\CYMR90~1\AppData\Local\Temp\ccSIna8B.s:30602  .debug_str:000000000001c5c8 .LASF5497
C:\Users\CYMR90~1\AppData\Local\Temp\ccSIna8B.s:23815  .debug_str:00000000000013be .LASF5498
C:\Users\CYMR90~1\AppData\Local\Temp\ccSIna8B.s:32964  .debug_str:00000000000259be .LASF5499
C:\Users\CYMR90~1\AppData\Local\Temp\ccSIna8B.s:30502  .debug_str:000000000001bffb .LASF5500
C:\Users\CYMR90~1\AppData\Local\Temp\ccSIna8B.s:24999  .debug_str:0000000000005ecd .LASF5501
C:\Users\CYMR90~1\AppData\Local\Temp\ccSIna8B.s:27127  .debug_str:000000000000e7d3 .LASF5502
C:\Users\CYMR90~1\AppData\Local\Temp\ccSIna8B.s:27903  .debug_str:0000000000011861 .LASF5503
C:\Users\CYMR90~1\AppData\Local\Temp\ccSIna8B.s:28271  .debug_str:00000000000130b4 .LASF5504
C:\Users\CYMR90~1\AppData\Local\Temp\ccSIna8B.s:33334  .debug_str:0000000000027192 .LASF5505
C:\Users\CYMR90~1\AppData\Local\Temp\ccSIna8B.s:28803  .debug_str:00000000000151f2 .LASF5506
C:\Users\CYMR90~1\AppData\Local\Temp\ccSIna8B.s:26673  .debug_str:000000000000cb1a .LASF5507
C:\Users\CYMR90~1\AppData\Local\Temp\ccSIna8B.s:26593  .debug_str:000000000000c593 .LASF5508
C:\Users\CYMR90~1\AppData\Local\Temp\ccSIna8B.s:31488  .debug_str:000000000001fdb9 .LASF5509
C:\Users\CYMR90~1\AppData\Local\Temp\ccSIna8B.s:29256  .debug_str:000000000001707d .LASF5510
C:\Users\CYMR90~1\AppData\Local\Temp\ccSIna8B.s:24905  .debug_str:00000000000058f9 .LASF5511
C:\Users\CYMR90~1\AppData\Local\Temp\ccSIna8B.s:26695  .debug_str:000000000000cd62 .LASF5512
C:\Users\CYMR90~1\AppData\Local\Temp\ccSIna8B.s:33774  .debug_str:0000000000028f17 .LASF5513
C:\Users\CYMR90~1\AppData\Local\Temp\ccSIna8B.s:34606  .debug_str:000000000002c336 .LASF5514
C:\Users\CYMR90~1\AppData\Local\Temp\ccSIna8B.s:27421  .debug_str:000000000000fb0e .LASF5515
C:\Users\CYMR90~1\AppData\Local\Temp\ccSIna8B.s:25827  .debug_str:0000000000009479 .LASF5516
C:\Users\CYMR90~1\AppData\Local\Temp\ccSIna8B.s:34286  .debug_str:000000000002ae54 .LASF5517
C:\Users\CYMR90~1\AppData\Local\Temp\ccSIna8B.s:31894  .debug_str:00000000000216b8 .LASF5518
C:\Users\CYMR90~1\AppData\Local\Temp\ccSIna8B.s:33746  .debug_str:0000000000028d7b .LASF5519
C:\Users\CYMR90~1\AppData\Local\Temp\ccSIna8B.s:25213  .debug_str:0000000000006c18 .LASF5520
C:\Users\CYMR90~1\AppData\Local\Temp\ccSIna8B.s:32048  .debug_str:0000000000022017 .LASF5521
C:\Users\CYMR90~1\AppData\Local\Temp\ccSIna8B.s:33916  .debug_str:000000000002985b .LASF5522
C:\Users\CYMR90~1\AppData\Local\Temp\ccSIna8B.s:29920  .debug_str:0000000000019a30 .LASF5523
C:\Users\CYMR90~1\AppData\Local\Temp\ccSIna8B.s:32928  .debug_str:000000000002572a .LASF5524
C:\Users\CYMR90~1\AppData\Local\Temp\ccSIna8B.s:28867  .debug_str:000000000001558c .LASF5525
C:\Users\CYMR90~1\AppData\Local\Temp\ccSIna8B.s:26001  .debug_str:0000000000009f59 .LASF5526
C:\Users\CYMR90~1\AppData\Local\Temp\ccSIna8B.s:27423  .debug_str:000000000000fb30 .LASF5527
C:\Users\CYMR90~1\AppData\Local\Temp\ccSIna8B.s:24077  .debug_str:00000000000022db .LASF5528
C:\Users\CYMR90~1\AppData\Local\Temp\ccSIna8B.s:33724  .debug_str:0000000000028c0d .LASF5529
C:\Users\CYMR90~1\AppData\Local\Temp\ccSIna8B.s:31114  .debug_str:000000000001e75c .LASF5530
C:\Users\CYMR90~1\AppData\Local\Temp\ccSIna8B.s:28653  .debug_str:00000000000148df .LASF5531
C:\Users\CYMR90~1\AppData\Local\Temp\ccSIna8B.s:26811  .debug_str:000000000000d4d6 .LASF5532
C:\Users\CYMR90~1\AppData\Local\Temp\ccSIna8B.s:34658  .debug_str:000000000002c65e .LASF5533
C:\Users\CYMR90~1\AppData\Local\Temp\ccSIna8B.s:25753  .debug_str:0000000000009043 .LASF5534
C:\Users\CYMR90~1\AppData\Local\Temp\ccSIna8B.s:26889  .debug_str:000000000000da00 .LASF5535
C:\Users\CYMR90~1\AppData\Local\Temp\ccSIna8B.s:34352  .debug_str:000000000002b26e .LASF5536
C:\Users\CYMR90~1\AppData\Local\Temp\ccSIna8B.s:31360  .debug_str:000000000001f61b .LASF5537
C:\Users\CYMR90~1\AppData\Local\Temp\ccSIna8B.s:29197  .debug_str:0000000000016a91 .LASF5538
C:\Users\CYMR90~1\AppData\Local\Temp\ccSIna8B.s:23699  .debug_str:0000000000000c92 .LASF5539
C:\Users\CYMR90~1\AppData\Local\Temp\ccSIna8B.s:29023  .debug_str:0000000000015ee8 .LASF5540
C:\Users\CYMR90~1\AppData\Local\Temp\ccSIna8B.s:31022  .debug_str:000000000001e1ed .LASF5541
C:\Users\CYMR90~1\AppData\Local\Temp\ccSIna8B.s:30026  .debug_str:000000000001a0fb .LASF5542
C:\Users\CYMR90~1\AppData\Local\Temp\ccSIna8B.s:30088  .debug_str:000000000001a4ae .LASF5543
C:\Users\CYMR90~1\AppData\Local\Temp\ccSIna8B.s:29386  .debug_str:000000000001782f .LASF5544
C:\Users\CYMR90~1\AppData\Local\Temp\ccSIna8B.s:29205  .debug_str:0000000000016b1c .LASF5545
C:\Users\CYMR90~1\AppData\Local\Temp\ccSIna8B.s:26715  .debug_str:000000000000cead .LASF5546
C:\Users\CYMR90~1\AppData\Local\Temp\ccSIna8B.s:33474  .debug_str:0000000000027a7e .LASF5547
C:\Users\CYMR90~1\AppData\Local\Temp\ccSIna8B.s:26789  .debug_str:000000000000d321 .LASF5548
C:\Users\CYMR90~1\AppData\Local\Temp\ccSIna8B.s:30740  .debug_str:000000000001ced4 .LASF5549
C:\Users\CYMR90~1\AppData\Local\Temp\ccSIna8B.s:30866  .debug_str:000000000001d7a4 .LASF5550
C:\Users\CYMR90~1\AppData\Local\Temp\ccSIna8B.s:24033  .debug_str:0000000000002061 .LASF5551
C:\Users\CYMR90~1\AppData\Local\Temp\ccSIna8B.s:27451  .debug_str:000000000000fcca .LASF5552
C:\Users\CYMR90~1\AppData\Local\Temp\ccSIna8B.s:34070  .debug_str:000000000002a1c9 .LASF5553
C:\Users\CYMR90~1\AppData\Local\Temp\ccSIna8B.s:27269  .debug_str:000000000000f0aa .LASF5554
C:\Users\CYMR90~1\AppData\Local\Temp\ccSIna8B.s:28869  .debug_str:00000000000155ab .LASF5555
                           .group:0000000000000000 wm4.0.10abbef32179bc1260444192115bdf5e
                           .group:0000000000000000 wm4.stddef.h.39.144cf5ddcd53cbfdac30259dc1a6c87f
                           .group:0000000000000000 wm4._newlib_version.h.4.bfdf54b0af045d4a71376ae00f63a22c
                           .group:0000000000000000 wm4.newlib.h.18.08a2ecba46890ca2aa56bbe21686e6c3
                           .group:0000000000000000 wm4.ieeefp.h.202.4f2759f5758fd82153cfbf98692f2ced
                           .group:0000000000000000 wm4.features.h.22.fad1cec3bc7ff06488171438dbdcfd02
                           .group:0000000000000000 wm4.config.h.83.13bbc8852bfac55b724c9822481355b5
                           .group:0000000000000000 wm4._ansi.h.31.de524f58584151836e90d8620a16f8e8
                           .group:0000000000000000 wm4.stdio.h.31.7c0e28c411445f3f9c5b11accf882760
                           .group:0000000000000000 wm4._default_types.h.6.959254cf5f09734ea7516c89e8bb21bd
                           .group:0000000000000000 wm4.stddef.h.155.ba788add86a0e365f264484f110c3c29
                           .group:0000000000000000 wm4.cdefs.h.49.39045112216f6a021dbdffe3bf5accce
                           .group:0000000000000000 wm4.stdarg.h.34.3a23a216c0c293b3d2ea2e89281481e6
                           .group:0000000000000000 wm4._types.h.20.dd0d04dca3800a0d2a6129b87f3adbb2
                           .group:0000000000000000 wm4.stddef.h.155.3588ebfdd1e8c7ede80509bb9c3b8009
                           .group:0000000000000000 wm4._types.h.127.34941de1b2539d59d5cac00e0dd27a45
                           .group:0000000000000000 wm4.reent.h.17.e292bf8b0bec6c96e131a54347145a30
                           .group:0000000000000000 wm4.lock.h.2.c0958401bd0ce484d507ee19aacab817
                           .group:0000000000000000 wm4.reent.h.77.dcd6129ff07fe81bd5636db29abe53b2
                           .group:0000000000000000 wm4.types.h.40.8b6acba56cefbb11746718204edc8f5e
                           .group:0000000000000000 wm4._stdint.h.10.c24fa3af3bc1706662bb5593a907e841
                           .group:0000000000000000 wm4._endian.h.18.1bf9649e8e5bbc91042012680270b9ed
                           .group:0000000000000000 wm4.endian.h.9.49f3a4695c1b61e8a0808de3c4a106cb
                           .group:0000000000000000 wm4._timeval.h.32.bec3221fa7a9bb0bdde696c9c57e47d2
                           .group:0000000000000000 wm4.timespec.h.41.d855182eb0e690443ab8651bcedca6e1
                           .group:0000000000000000 wm4.select.h.19.40cd3f2bfc456b193b790c2754690ebf
                           .group:0000000000000000 wm4.types.h.51.5571ec98f267d17d3c670b7a3ba33afa
                           .group:0000000000000000 wm4.sched.h.22.c60982713a5c428609783c78f9c78d95
                           .group:0000000000000000 wm4._pthreadtypes.h.36.fcee9961c35163dde6267ef772ad1972
                           .group:0000000000000000 wm4.stdio.h.2.4aa87247282eca6c8f36f9de33d8df1a
                           .group:0000000000000000 wm4.stdio.h.81.932d0c162786b883f622b8d05c120c78
                           .group:0000000000000000 wm4.gd32vw55x.h.47.379378190858578060a317909b2c8d8a
                           .group:0000000000000000 wm4._intsup.h.10.48bafbb683905c4daa4565a85aeeb264
                           .group:0000000000000000 wm4.stdint.h.23.d53047a68f4a85177f80b422d52785ed
                           .group:0000000000000000 wm4.nmsis_version.h.19.ffa173da8efb17b1050904994d6f500e
                           .group:0000000000000000 wm4.riscv_bits.h.19.ee94eb3d39937793d4cd0a62363e5d00
                           .group:0000000000000000 wm4.riscv_encoding.h.35.f5d37fad7abbab8278b4bb6f1e32fa65
                           .group:0000000000000000 wm4.nmsis_gcc.h.61.5d70d7598ffc79c3c991d847a574cf23
                           .group:0000000000000000 wm4.core_feature_base.h.20.e99d3e75c26a8f3341d35bf20d0e1d20
                           .group:0000000000000000 wm4.core_feature_fpu.h.19.695f2200274659b530cb97cda749ff4f
                           .group:0000000000000000 wm4.core_feature_dsp.h.19.e8f8d7aa42f197807aefedb6584486cd
                           .group:0000000000000000 wm4.core_compatiable.h.19.5b8282d61b1f6889a82895616b730084
                           .group:0000000000000000 wm4.core_feature_eclic.h.19.e0c091d0cbda79e8b3b031b979ebd5a1
                           .group:0000000000000000 wm4.core_feature_timer.h.19.21a5151282de34c37dfa6d84e262aa54
                           .group:0000000000000000 wm4.system_gd32vw55x.h.32.f1fcb1212d387c35ac955b0e96ada468
                           .group:0000000000000000 wm4.gd32vw55x.h.231.3529c650aff38c9372f7e03177fd2c8a
                           .group:0000000000000000 wm4.gd32vw55x_adc.h.42.ae73acec1704ef509ccecb41a875b50e
                           .group:0000000000000000 wm4.gd32vw55x_cau.h.36.c98428fe1eae7edb4721da5c8078c974
                           .group:0000000000000000 wm4.gd32vw55x_crc.h.37.c58f296814c2300a4b067c08bd88d54e
                           .group:0000000000000000 wm4.gd32vw55x_dbg.h.36.311650c8545549d482ceca8befc5a232
                           .group:0000000000000000 wm4.gd32vw55x_dma.h.36.f4adc751172b2a7b1533dda72e948737
                           .group:0000000000000000 wm4.gd32vw55x_eclic.h.36.0411499f2b2493c67246e32ccae096c1
                           .group:0000000000000000 wm4.gd32vw55x_efuse.h.36.091404cecbab70359dfd93faec5fdb62
                           .group:0000000000000000 wm4.gd32vw55x_exti.h.36.de7508334dd12f1a6a673521a1a835f5
                           .group:0000000000000000 wm4.gd32vw55x_fmc.h.36.a4b0b94c47ffe23a2fa09260c5ed4850
                           .group:0000000000000000 wm4.gd32vw55x_fwdgt.h.36.4846b6900fd24b5bfce4986c9a8ce677
                           .group:0000000000000000 wm4.gd32vw55x_gpio.h.36.adfee1371bb58d3d9043c47bdb25a90f
                           .group:0000000000000000 wm4.gd32vw55x_hau.h.36.f3cbcbd7b67c9e5bdc7a1100b1bf3458
                           .group:0000000000000000 wm4.gd32vw55x_i2c.h.36.3848990933925e084eb427083790c53f
                           .group:0000000000000000 wm4.gd32vw55x_pkcau.h.36.bb2235f4cf4967063a51bfa9aca5ef27
                           .group:0000000000000000 wm4.gd32vw55x_pmu.h.36.4c76091f1415551526d489ccf2c42052
                           .group:0000000000000000 wm4.gd32vw55x_qspi.h.36.2d2c181cfe19b935a9641008fc786613
                           .group:0000000000000000 wm4.gd32vw55x_rcu.h.36.780a8a45c00d563711cceb445027ef47
                           .group:0000000000000000 wm4.gd32vw55x_spi.h.36.9fa1be2b09fb73e4b5886e97f0e96d58
                           .group:0000000000000000 wm4.gd32vw55x_syscfg.h.36.010551f05591f5e34051d2e15df0352b
                           .group:0000000000000000 wm4.gd32vw55x_timer.h.38.2cbee78ea60d47145be361b2d2c55070
                           .group:0000000000000000 wm4.gd32vw55x_trng.h.36.c9e7807af1b1ab68d3bbb54f4ed5cd73
                           .group:0000000000000000 wm4.gd32vw55x_usart.h.36.f5c497cca17945a34f154b0e17017d02
                           .group:0000000000000000 wm4.gd32vw55x_wwdgt.h.36.f7a443b7302efc0e5c335888582ee197
                           .group:0000000000000000 wm4.gd32vw55x_rtc.h.41.0b7e4b954d695b167da0d20a40ce8b78

NO UNDEFINED SYMBOLS
