   1              		.file	"gd32vw55x_exti.c"
   2              		.option nopic
   3              		.attribute arch, "rv32i2p0_m2p0_a2p0_c2p0"
   4              		.attribute unaligned_access, 0
   5              		.attribute stack_align, 16
   6              		.text
   7              	.Ltext0:
   8              		.cfi_sections	.debug_frame
   9              		.section	.text.exti_deinit,"ax",@progbits
  10              		.align	1
  11              		.globl	exti_deinit
  13              	exti_deinit:
  14              	.LFB347:
  15              		.file 1 "../Firmware/GD32VW55x_standard_peripheral/Source/gd32vw55x_exti.c"
   1:../Firmware/GD32VW55x_standard_peripheral/Source/gd32vw55x_exti.c **** /*!
   2:../Firmware/GD32VW55x_standard_peripheral/Source/gd32vw55x_exti.c ****     \file    gd32vw55x_exti.c
   3:../Firmware/GD32VW55x_standard_peripheral/Source/gd32vw55x_exti.c ****     \brief   EXTI driver
   4:../Firmware/GD32VW55x_standard_peripheral/Source/gd32vw55x_exti.c **** 
   5:../Firmware/GD32VW55x_standard_peripheral/Source/gd32vw55x_exti.c ****     \version 2025-01-16, V1.4.0, firmware for GD32VW55x
   6:../Firmware/GD32VW55x_standard_peripheral/Source/gd32vw55x_exti.c **** */
   7:../Firmware/GD32VW55x_standard_peripheral/Source/gd32vw55x_exti.c **** 
   8:../Firmware/GD32VW55x_standard_peripheral/Source/gd32vw55x_exti.c **** /*
   9:../Firmware/GD32VW55x_standard_peripheral/Source/gd32vw55x_exti.c ****     Copyright (c) 2025, GigaDevice Semiconductor Inc.
  10:../Firmware/GD32VW55x_standard_peripheral/Source/gd32vw55x_exti.c **** 
  11:../Firmware/GD32VW55x_standard_peripheral/Source/gd32vw55x_exti.c ****     Redistribution and use in source and binary forms, with or without modification,
  12:../Firmware/GD32VW55x_standard_peripheral/Source/gd32vw55x_exti.c **** are permitted provided that the following conditions are met:
  13:../Firmware/GD32VW55x_standard_peripheral/Source/gd32vw55x_exti.c **** 
  14:../Firmware/GD32VW55x_standard_peripheral/Source/gd32vw55x_exti.c ****     1. Redistributions of source code must retain the above copyright notice, this
  15:../Firmware/GD32VW55x_standard_peripheral/Source/gd32vw55x_exti.c ****        list of conditions and the following disclaimer.
  16:../Firmware/GD32VW55x_standard_peripheral/Source/gd32vw55x_exti.c ****     2. Redistributions in binary form must reproduce the above copyright notice,
  17:../Firmware/GD32VW55x_standard_peripheral/Source/gd32vw55x_exti.c ****        this list of conditions and the following disclaimer in the documentation
  18:../Firmware/GD32VW55x_standard_peripheral/Source/gd32vw55x_exti.c ****        and/or other materials provided with the distribution.
  19:../Firmware/GD32VW55x_standard_peripheral/Source/gd32vw55x_exti.c ****     3. Neither the name of the copyright holder nor the names of its contributors
  20:../Firmware/GD32VW55x_standard_peripheral/Source/gd32vw55x_exti.c ****        may be used to endorse or promote products derived from this software without
  21:../Firmware/GD32VW55x_standard_peripheral/Source/gd32vw55x_exti.c ****        specific prior written permission.
  22:../Firmware/GD32VW55x_standard_peripheral/Source/gd32vw55x_exti.c **** 
  23:../Firmware/GD32VW55x_standard_peripheral/Source/gd32vw55x_exti.c ****     THIS SOFTWARE IS PROVIDED BY THE COPYRIGHT HOLDERS AND CONTRIBUTORS "AS IS"
  24:../Firmware/GD32VW55x_standard_peripheral/Source/gd32vw55x_exti.c **** AND ANY EXPRESS OR IMPLIED WARRANTIES, INCLUDING, BUT NOT LIMITED TO, THE IMPLIED
  25:../Firmware/GD32VW55x_standard_peripheral/Source/gd32vw55x_exti.c **** WARRANTIES OF MERCHANTABILITY AND FITNESS FOR A PARTICULAR PURPOSE ARE DISCLAIMED.
  26:../Firmware/GD32VW55x_standard_peripheral/Source/gd32vw55x_exti.c **** IN NO EVENT SHALL THE COPYRIGHT HOLDER OR CONTRIBUTORS BE LIABLE FOR ANY DIRECT,
  27:../Firmware/GD32VW55x_standard_peripheral/Source/gd32vw55x_exti.c **** INDIRECT, INCIDENTAL, SPECIAL, EXEMPLARY, OR CONSEQUENTIAL DAMAGES (INCLUDING, BUT
  28:../Firmware/GD32VW55x_standard_peripheral/Source/gd32vw55x_exti.c **** NOT LIMITED TO, PROCUREMENT OF SUBSTITUTE GOODS OR SERVICES; LOSS OF USE, DATA, OR
  29:../Firmware/GD32VW55x_standard_peripheral/Source/gd32vw55x_exti.c **** PROFITS; OR BUSINESS INTERRUPTION) HOWEVER CAUSED AND ON ANY THEORY OF LIABILITY,
  30:../Firmware/GD32VW55x_standard_peripheral/Source/gd32vw55x_exti.c **** WHETHER IN CONTRACT, STRICT LIABILITY, OR TORT (INCLUDING NEGLIGENCE OR OTHERWISE)
  31:../Firmware/GD32VW55x_standard_peripheral/Source/gd32vw55x_exti.c **** ARISING IN ANY WAY OUT OF THE USE OF THIS SOFTWARE, EVEN IF ADVISED OF THE POSSIBILITY
  32:../Firmware/GD32VW55x_standard_peripheral/Source/gd32vw55x_exti.c **** OF SUCH DAMAGE.
  33:../Firmware/GD32VW55x_standard_peripheral/Source/gd32vw55x_exti.c **** */
  34:../Firmware/GD32VW55x_standard_peripheral/Source/gd32vw55x_exti.c **** 
  35:../Firmware/GD32VW55x_standard_peripheral/Source/gd32vw55x_exti.c **** #include "gd32vw55x_exti.h"
  36:../Firmware/GD32VW55x_standard_peripheral/Source/gd32vw55x_exti.c **** 
  37:../Firmware/GD32VW55x_standard_peripheral/Source/gd32vw55x_exti.c **** #define EXTI_REG_RESET_VALUE            ((uint32_t)0x00000000U)
  38:../Firmware/GD32VW55x_standard_peripheral/Source/gd32vw55x_exti.c **** 
  39:../Firmware/GD32VW55x_standard_peripheral/Source/gd32vw55x_exti.c **** /*!
  40:../Firmware/GD32VW55x_standard_peripheral/Source/gd32vw55x_exti.c ****     \brief      deinitialize the EXTI
  41:../Firmware/GD32VW55x_standard_peripheral/Source/gd32vw55x_exti.c ****     \param[in]  none
  42:../Firmware/GD32VW55x_standard_peripheral/Source/gd32vw55x_exti.c ****     \param[out] none
  43:../Firmware/GD32VW55x_standard_peripheral/Source/gd32vw55x_exti.c ****     \retval     none
  44:../Firmware/GD32VW55x_standard_peripheral/Source/gd32vw55x_exti.c **** */
  45:../Firmware/GD32VW55x_standard_peripheral/Source/gd32vw55x_exti.c **** void exti_deinit(void)
  46:../Firmware/GD32VW55x_standard_peripheral/Source/gd32vw55x_exti.c **** {
  16              		.loc 1 46 1
  17              		.cfi_startproc
  18 0000 4111     		addi	sp,sp,-16
  19              		.cfi_def_cfa_offset 16
  20 0002 22C6     		sw	s0,12(sp)
  21              		.cfi_offset 8, -4
  22 0004 0008     		addi	s0,sp,16
  23              		.cfi_def_cfa 8, 0
  47:../Firmware/GD32VW55x_standard_peripheral/Source/gd32vw55x_exti.c ****     /* reset the value of all the EXTI registers */
  48:../Firmware/GD32VW55x_standard_peripheral/Source/gd32vw55x_exti.c ****     EXTI_INTEN   = EXTI_REG_RESET_VALUE;
  24              		.loc 1 48 5
  25 0006 B7470140 		li	a5,1073823744
  26 000a 938707C0 		addi	a5,a5,-1024
  27              		.loc 1 48 18
  28 000e 23A00700 		sw	zero,0(a5)
  49:../Firmware/GD32VW55x_standard_peripheral/Source/gd32vw55x_exti.c ****     EXTI_EVEN    = EXTI_REG_RESET_VALUE;
  29              		.loc 1 49 5
  30 0012 B7470140 		li	a5,1073823744
  31 0016 938747C0 		addi	a5,a5,-1020
  32              		.loc 1 49 18
  33 001a 23A00700 		sw	zero,0(a5)
  50:../Firmware/GD32VW55x_standard_peripheral/Source/gd32vw55x_exti.c ****     EXTI_RTEN    = EXTI_REG_RESET_VALUE;
  34              		.loc 1 50 5
  35 001e B7470140 		li	a5,1073823744
  36 0022 938787C0 		addi	a5,a5,-1016
  37              		.loc 1 50 18
  38 0026 23A00700 		sw	zero,0(a5)
  51:../Firmware/GD32VW55x_standard_peripheral/Source/gd32vw55x_exti.c ****     EXTI_FTEN    = EXTI_REG_RESET_VALUE;
  39              		.loc 1 51 5
  40 002a B7470140 		li	a5,1073823744
  41 002e 9387C7C0 		addi	a5,a5,-1012
  42              		.loc 1 51 18
  43 0032 23A00700 		sw	zero,0(a5)
  52:../Firmware/GD32VW55x_standard_peripheral/Source/gd32vw55x_exti.c ****     EXTI_SWIEV   = EXTI_REG_RESET_VALUE;
  44              		.loc 1 52 5
  45 0036 B7470140 		li	a5,1073823744
  46 003a 938707C1 		addi	a5,a5,-1008
  47              		.loc 1 52 18
  48 003e 23A00700 		sw	zero,0(a5)
  53:../Firmware/GD32VW55x_standard_peripheral/Source/gd32vw55x_exti.c **** }
  49              		.loc 1 53 1
  50 0042 0100     		nop
  51 0044 3244     		lw	s0,12(sp)
  52              		.cfi_restore 8
  53              		.cfi_def_cfa 2, 16
  54 0046 4101     		addi	sp,sp,16
  55              		.cfi_def_cfa_offset 0
  56 0048 8280     		jr	ra
  57              		.cfi_endproc
  58              	.LFE347:
  60              		.section	.text.exti_init,"ax",@progbits
  61              		.align	1
  62              		.globl	exti_init
  64              	exti_init:
  65              	.LFB348:
  54:../Firmware/GD32VW55x_standard_peripheral/Source/gd32vw55x_exti.c **** 
  55:../Firmware/GD32VW55x_standard_peripheral/Source/gd32vw55x_exti.c **** /*!
  56:../Firmware/GD32VW55x_standard_peripheral/Source/gd32vw55x_exti.c ****     \brief      initialize the EXTI line x
  57:../Firmware/GD32VW55x_standard_peripheral/Source/gd32vw55x_exti.c ****     \param[in]  linex: EXTI line number, refer to exti_line_enum
  58:../Firmware/GD32VW55x_standard_peripheral/Source/gd32vw55x_exti.c ****                 only one parameter can be selected which is shown as below:
  59:../Firmware/GD32VW55x_standard_peripheral/Source/gd32vw55x_exti.c ****       \arg        EXTI_x (x=0..17,19..25): EXTI line x
  60:../Firmware/GD32VW55x_standard_peripheral/Source/gd32vw55x_exti.c ****     \param[in]  mode: interrupt or event mode, refer to exti_mode_enum
  61:../Firmware/GD32VW55x_standard_peripheral/Source/gd32vw55x_exti.c ****                 only one parameter can be selected which is shown as below:
  62:../Firmware/GD32VW55x_standard_peripheral/Source/gd32vw55x_exti.c ****       \arg        EXTI_INTERRUPT: interrupt mode
  63:../Firmware/GD32VW55x_standard_peripheral/Source/gd32vw55x_exti.c ****       \arg        EXTI_EVENT: event mode
  64:../Firmware/GD32VW55x_standard_peripheral/Source/gd32vw55x_exti.c ****     \param[in]  trig_type: interrupt trigger type, refer to exti_trig_type_enum
  65:../Firmware/GD32VW55x_standard_peripheral/Source/gd32vw55x_exti.c ****                 only one parameter can be selected which is shown as below:
  66:../Firmware/GD32VW55x_standard_peripheral/Source/gd32vw55x_exti.c ****       \arg        EXTI_TRIG_RISING: rising edge trigger
  67:../Firmware/GD32VW55x_standard_peripheral/Source/gd32vw55x_exti.c ****       \arg        EXTI_TRIG_FALLING: falling edge trigger
  68:../Firmware/GD32VW55x_standard_peripheral/Source/gd32vw55x_exti.c ****       \arg        EXTI_TRIG_BOTH: rising and falling edge trigger
  69:../Firmware/GD32VW55x_standard_peripheral/Source/gd32vw55x_exti.c ****       \arg        EXTI_TRIG_NONE: without rising edge or falling edge trigger
  70:../Firmware/GD32VW55x_standard_peripheral/Source/gd32vw55x_exti.c ****     \param[out] none
  71:../Firmware/GD32VW55x_standard_peripheral/Source/gd32vw55x_exti.c ****     \retval     none
  72:../Firmware/GD32VW55x_standard_peripheral/Source/gd32vw55x_exti.c **** */
  73:../Firmware/GD32VW55x_standard_peripheral/Source/gd32vw55x_exti.c **** void exti_init(exti_line_enum linex, exti_mode_enum mode, exti_trig_type_enum trig_type)
  74:../Firmware/GD32VW55x_standard_peripheral/Source/gd32vw55x_exti.c **** {
  66              		.loc 1 74 1
  67              		.cfi_startproc
  68 0000 0111     		addi	sp,sp,-32
  69              		.cfi_def_cfa_offset 32
  70 0002 22CE     		sw	s0,28(sp)
  71              		.cfi_offset 8, -4
  72 0004 0010     		addi	s0,sp,32
  73              		.cfi_def_cfa 8, 0
  74 0006 2326A4FE 		sw	a0,-20(s0)
  75 000a 2324B4FE 		sw	a1,-24(s0)
  76 000e 2322C4FE 		sw	a2,-28(s0)
  75:../Firmware/GD32VW55x_standard_peripheral/Source/gd32vw55x_exti.c ****     /* reset the EXTI line x */
  76:../Firmware/GD32VW55x_standard_peripheral/Source/gd32vw55x_exti.c ****     EXTI_INTEN &= ~(uint32_t)linex;
  77              		.loc 1 76 16
  78 0012 B7470140 		li	a5,1073823744
  79 0016 938707C0 		addi	a5,a5,-1024
  80 001a 9443     		lw	a3,0(a5)
  81              		.loc 1 76 19
  82 001c 8327C4FE 		lw	a5,-20(s0)
  83 0020 13C7F7FF 		not	a4,a5
  84              		.loc 1 76 16
  85 0024 B7470140 		li	a5,1073823744
  86 0028 938707C0 		addi	a5,a5,-1024
  87 002c 758F     		and	a4,a3,a4
  88 002e 98C3     		sw	a4,0(a5)
  77:../Firmware/GD32VW55x_standard_peripheral/Source/gd32vw55x_exti.c ****     EXTI_EVEN &= ~(uint32_t)linex;
  89              		.loc 1 77 15
  90 0030 B7470140 		li	a5,1073823744
  91 0034 938747C0 		addi	a5,a5,-1020
  92 0038 9443     		lw	a3,0(a5)
  93              		.loc 1 77 18
  94 003a 8327C4FE 		lw	a5,-20(s0)
  95 003e 13C7F7FF 		not	a4,a5
  96              		.loc 1 77 15
  97 0042 B7470140 		li	a5,1073823744
  98 0046 938747C0 		addi	a5,a5,-1020
  99 004a 758F     		and	a4,a3,a4
 100 004c 98C3     		sw	a4,0(a5)
  78:../Firmware/GD32VW55x_standard_peripheral/Source/gd32vw55x_exti.c ****     EXTI_RTEN &= ~(uint32_t)linex;
 101              		.loc 1 78 15
 102 004e B7470140 		li	a5,1073823744
 103 0052 938787C0 		addi	a5,a5,-1016
 104 0056 9443     		lw	a3,0(a5)
 105              		.loc 1 78 18
 106 0058 8327C4FE 		lw	a5,-20(s0)
 107 005c 13C7F7FF 		not	a4,a5
 108              		.loc 1 78 15
 109 0060 B7470140 		li	a5,1073823744
 110 0064 938787C0 		addi	a5,a5,-1016
 111 0068 758F     		and	a4,a3,a4
 112 006a 98C3     		sw	a4,0(a5)
  79:../Firmware/GD32VW55x_standard_peripheral/Source/gd32vw55x_exti.c ****     EXTI_FTEN &= ~(uint32_t)linex;
 113              		.loc 1 79 15
 114 006c B7470140 		li	a5,1073823744
 115 0070 9387C7C0 		addi	a5,a5,-1012
 116 0074 9443     		lw	a3,0(a5)
 117              		.loc 1 79 18
 118 0076 8327C4FE 		lw	a5,-20(s0)
 119 007a 13C7F7FF 		not	a4,a5
 120              		.loc 1 79 15
 121 007e B7470140 		li	a5,1073823744
 122 0082 9387C7C0 		addi	a5,a5,-1012
 123 0086 758F     		and	a4,a3,a4
 124 0088 98C3     		sw	a4,0(a5)
  80:../Firmware/GD32VW55x_standard_peripheral/Source/gd32vw55x_exti.c **** 
  81:../Firmware/GD32VW55x_standard_peripheral/Source/gd32vw55x_exti.c ****     /* set the EXTI mode and enable the interrupts or events from EXTI line x */
  82:../Firmware/GD32VW55x_standard_peripheral/Source/gd32vw55x_exti.c ****     switch(mode) {
 125              		.loc 1 82 5
 126 008a 832784FE 		lw	a5,-24(s0)
 127 008e 99C7     		beq	a5,zero,.L3
 128 0090 032784FE 		lw	a4,-24(s0)
 129 0094 8547     		li	a5,1
 130 0096 6301F702 		beq	a4,a5,.L4
  83:../Firmware/GD32VW55x_standard_peripheral/Source/gd32vw55x_exti.c ****     case EXTI_INTERRUPT:
  84:../Firmware/GD32VW55x_standard_peripheral/Source/gd32vw55x_exti.c ****         EXTI_INTEN |= (uint32_t)linex;
  85:../Firmware/GD32VW55x_standard_peripheral/Source/gd32vw55x_exti.c ****         break;
  86:../Firmware/GD32VW55x_standard_peripheral/Source/gd32vw55x_exti.c ****     case EXTI_EVENT:
  87:../Firmware/GD32VW55x_standard_peripheral/Source/gd32vw55x_exti.c ****         EXTI_EVEN |= (uint32_t)linex;
  88:../Firmware/GD32VW55x_standard_peripheral/Source/gd32vw55x_exti.c ****         break;
  89:../Firmware/GD32VW55x_standard_peripheral/Source/gd32vw55x_exti.c ****     default:
  90:../Firmware/GD32VW55x_standard_peripheral/Source/gd32vw55x_exti.c ****         break;
 131              		.loc 1 90 9
 132 009a 2DA8     		j	.L6
 133              	.L3:
  84:../Firmware/GD32VW55x_standard_peripheral/Source/gd32vw55x_exti.c ****         break;
 134              		.loc 1 84 20
 135 009c B7470140 		li	a5,1073823744
 136 00a0 938707C0 		addi	a5,a5,-1024
 137 00a4 9443     		lw	a3,0(a5)
 138 00a6 B7470140 		li	a5,1073823744
 139 00aa 938707C0 		addi	a5,a5,-1024
 140 00ae 0327C4FE 		lw	a4,-20(s0)
 141 00b2 558F     		or	a4,a3,a4
 142 00b4 98C3     		sw	a4,0(a5)
  85:../Firmware/GD32VW55x_standard_peripheral/Source/gd32vw55x_exti.c ****     case EXTI_EVENT:
 143              		.loc 1 85 9
 144 00b6 39A8     		j	.L6
 145              	.L4:
  87:../Firmware/GD32VW55x_standard_peripheral/Source/gd32vw55x_exti.c ****         break;
 146              		.loc 1 87 19
 147 00b8 B7470140 		li	a5,1073823744
 148 00bc 938747C0 		addi	a5,a5,-1020
 149 00c0 9443     		lw	a3,0(a5)
 150 00c2 B7470140 		li	a5,1073823744
 151 00c6 938747C0 		addi	a5,a5,-1020
 152 00ca 0327C4FE 		lw	a4,-20(s0)
 153 00ce 558F     		or	a4,a3,a4
 154 00d0 98C3     		sw	a4,0(a5)
  88:../Firmware/GD32VW55x_standard_peripheral/Source/gd32vw55x_exti.c ****     default:
 155              		.loc 1 88 9
 156 00d2 0100     		nop
 157              	.L6:
  91:../Firmware/GD32VW55x_standard_peripheral/Source/gd32vw55x_exti.c ****     }
  92:../Firmware/GD32VW55x_standard_peripheral/Source/gd32vw55x_exti.c **** 
  93:../Firmware/GD32VW55x_standard_peripheral/Source/gd32vw55x_exti.c ****     /* set the EXTI trigger type */
  94:../Firmware/GD32VW55x_standard_peripheral/Source/gd32vw55x_exti.c ****     switch(trig_type) {
 158              		.loc 1 94 5
 159 00d4 032744FE 		lw	a4,-28(s0)
 160 00d8 8947     		li	a5,2
 161 00da 630AF708 		beq	a4,a5,.L7
 162 00de 032744FE 		lw	a4,-28(s0)
 163 00e2 8947     		li	a5,2
 164 00e4 63E0E70C 		bgtu	a4,a5,.L12
 165 00e8 832744FE 		lw	a5,-28(s0)
 166 00ec 99C7     		beq	a5,zero,.L9
 167 00ee 032744FE 		lw	a4,-28(s0)
 168 00f2 8547     		li	a5,1
 169 00f4 6300F704 		beq	a4,a5,.L10
  95:../Firmware/GD32VW55x_standard_peripheral/Source/gd32vw55x_exti.c ****     case EXTI_TRIG_RISING:
  96:../Firmware/GD32VW55x_standard_peripheral/Source/gd32vw55x_exti.c ****         EXTI_RTEN |= (uint32_t)linex;
  97:../Firmware/GD32VW55x_standard_peripheral/Source/gd32vw55x_exti.c ****         EXTI_FTEN &= ~(uint32_t)linex;
  98:../Firmware/GD32VW55x_standard_peripheral/Source/gd32vw55x_exti.c ****         break;
  99:../Firmware/GD32VW55x_standard_peripheral/Source/gd32vw55x_exti.c ****     case EXTI_TRIG_FALLING:
 100:../Firmware/GD32VW55x_standard_peripheral/Source/gd32vw55x_exti.c ****         EXTI_RTEN &= ~(uint32_t)linex;
 101:../Firmware/GD32VW55x_standard_peripheral/Source/gd32vw55x_exti.c ****         EXTI_FTEN |= (uint32_t)linex;
 102:../Firmware/GD32VW55x_standard_peripheral/Source/gd32vw55x_exti.c ****         break;
 103:../Firmware/GD32VW55x_standard_peripheral/Source/gd32vw55x_exti.c ****     case EXTI_TRIG_BOTH:
 104:../Firmware/GD32VW55x_standard_peripheral/Source/gd32vw55x_exti.c ****         EXTI_RTEN |= (uint32_t)linex;
 105:../Firmware/GD32VW55x_standard_peripheral/Source/gd32vw55x_exti.c ****         EXTI_FTEN |= (uint32_t)linex;
 106:../Firmware/GD32VW55x_standard_peripheral/Source/gd32vw55x_exti.c ****         break;
 107:../Firmware/GD32VW55x_standard_peripheral/Source/gd32vw55x_exti.c ****     case EXTI_TRIG_NONE:
 108:../Firmware/GD32VW55x_standard_peripheral/Source/gd32vw55x_exti.c ****     default:
 109:../Firmware/GD32VW55x_standard_peripheral/Source/gd32vw55x_exti.c ****         break;
 170              		.loc 1 109 9
 171 00f8 75A0     		j	.L12
 172              	.L9:
  96:../Firmware/GD32VW55x_standard_peripheral/Source/gd32vw55x_exti.c ****         EXTI_FTEN &= ~(uint32_t)linex;
 173              		.loc 1 96 19
 174 00fa B7470140 		li	a5,1073823744
 175 00fe 938787C0 		addi	a5,a5,-1016
 176 0102 9443     		lw	a3,0(a5)
 177 0104 B7470140 		li	a5,1073823744
 178 0108 938787C0 		addi	a5,a5,-1016
 179 010c 0327C4FE 		lw	a4,-20(s0)
 180 0110 558F     		or	a4,a3,a4
 181 0112 98C3     		sw	a4,0(a5)
  97:../Firmware/GD32VW55x_standard_peripheral/Source/gd32vw55x_exti.c ****         break;
 182              		.loc 1 97 19
 183 0114 B7470140 		li	a5,1073823744
 184 0118 9387C7C0 		addi	a5,a5,-1012
 185 011c 9443     		lw	a3,0(a5)
  97:../Firmware/GD32VW55x_standard_peripheral/Source/gd32vw55x_exti.c ****         break;
 186              		.loc 1 97 22
 187 011e 8327C4FE 		lw	a5,-20(s0)
 188 0122 13C7F7FF 		not	a4,a5
  97:../Firmware/GD32VW55x_standard_peripheral/Source/gd32vw55x_exti.c ****         break;
 189              		.loc 1 97 19
 190 0126 B7470140 		li	a5,1073823744
 191 012a 9387C7C0 		addi	a5,a5,-1012
 192 012e 758F     		and	a4,a3,a4
 193 0130 98C3     		sw	a4,0(a5)
  98:../Firmware/GD32VW55x_standard_peripheral/Source/gd32vw55x_exti.c ****     case EXTI_TRIG_FALLING:
 194              		.loc 1 98 9
 195 0132 95A8     		j	.L11
 196              	.L10:
 100:../Firmware/GD32VW55x_standard_peripheral/Source/gd32vw55x_exti.c ****         EXTI_FTEN |= (uint32_t)linex;
 197              		.loc 1 100 19
 198 0134 B7470140 		li	a5,1073823744
 199 0138 938787C0 		addi	a5,a5,-1016
 200 013c 9443     		lw	a3,0(a5)
 100:../Firmware/GD32VW55x_standard_peripheral/Source/gd32vw55x_exti.c ****         EXTI_FTEN |= (uint32_t)linex;
 201              		.loc 1 100 22
 202 013e 8327C4FE 		lw	a5,-20(s0)
 203 0142 13C7F7FF 		not	a4,a5
 100:../Firmware/GD32VW55x_standard_peripheral/Source/gd32vw55x_exti.c ****         EXTI_FTEN |= (uint32_t)linex;
 204              		.loc 1 100 19
 205 0146 B7470140 		li	a5,1073823744
 206 014a 938787C0 		addi	a5,a5,-1016
 207 014e 758F     		and	a4,a3,a4
 208 0150 98C3     		sw	a4,0(a5)
 101:../Firmware/GD32VW55x_standard_peripheral/Source/gd32vw55x_exti.c ****         break;
 209              		.loc 1 101 19
 210 0152 B7470140 		li	a5,1073823744
 211 0156 9387C7C0 		addi	a5,a5,-1012
 212 015a 9443     		lw	a3,0(a5)
 213 015c B7470140 		li	a5,1073823744
 214 0160 9387C7C0 		addi	a5,a5,-1012
 215 0164 0327C4FE 		lw	a4,-20(s0)
 216 0168 558F     		or	a4,a3,a4
 217 016a 98C3     		sw	a4,0(a5)
 102:../Firmware/GD32VW55x_standard_peripheral/Source/gd32vw55x_exti.c ****     case EXTI_TRIG_BOTH:
 218              		.loc 1 102 9
 219 016c 2DA8     		j	.L11
 220              	.L7:
 104:../Firmware/GD32VW55x_standard_peripheral/Source/gd32vw55x_exti.c ****         EXTI_FTEN |= (uint32_t)linex;
 221              		.loc 1 104 19
 222 016e B7470140 		li	a5,1073823744
 223 0172 938787C0 		addi	a5,a5,-1016
 224 0176 9443     		lw	a3,0(a5)
 225 0178 B7470140 		li	a5,1073823744
 226 017c 938787C0 		addi	a5,a5,-1016
 227 0180 0327C4FE 		lw	a4,-20(s0)
 228 0184 558F     		or	a4,a3,a4
 229 0186 98C3     		sw	a4,0(a5)
 105:../Firmware/GD32VW55x_standard_peripheral/Source/gd32vw55x_exti.c ****         break;
 230              		.loc 1 105 19
 231 0188 B7470140 		li	a5,1073823744
 232 018c 9387C7C0 		addi	a5,a5,-1012
 233 0190 9443     		lw	a3,0(a5)
 234 0192 B7470140 		li	a5,1073823744
 235 0196 9387C7C0 		addi	a5,a5,-1012
 236 019a 0327C4FE 		lw	a4,-20(s0)
 237 019e 558F     		or	a4,a3,a4
 238 01a0 98C3     		sw	a4,0(a5)
 106:../Firmware/GD32VW55x_standard_peripheral/Source/gd32vw55x_exti.c ****     case EXTI_TRIG_NONE:
 239              		.loc 1 106 9
 240 01a2 11A0     		j	.L11
 241              	.L12:
 242              		.loc 1 109 9
 243 01a4 0100     		nop
 244              	.L11:
 110:../Firmware/GD32VW55x_standard_peripheral/Source/gd32vw55x_exti.c ****     }
 111:../Firmware/GD32VW55x_standard_peripheral/Source/gd32vw55x_exti.c **** }
 245              		.loc 1 111 1
 246 01a6 0100     		nop
 247 01a8 7244     		lw	s0,28(sp)
 248              		.cfi_restore 8
 249              		.cfi_def_cfa 2, 32
 250 01aa 0561     		addi	sp,sp,32
 251              		.cfi_def_cfa_offset 0
 252 01ac 8280     		jr	ra
 253              		.cfi_endproc
 254              	.LFE348:
 256              		.section	.text.exti_interrupt_enable,"ax",@progbits
 257              		.align	1
 258              		.globl	exti_interrupt_enable
 260              	exti_interrupt_enable:
 261              	.LFB349:
 112:../Firmware/GD32VW55x_standard_peripheral/Source/gd32vw55x_exti.c **** 
 113:../Firmware/GD32VW55x_standard_peripheral/Source/gd32vw55x_exti.c **** /*!
 114:../Firmware/GD32VW55x_standard_peripheral/Source/gd32vw55x_exti.c ****     \brief      enable the interrupts from EXTI line x
 115:../Firmware/GD32VW55x_standard_peripheral/Source/gd32vw55x_exti.c ****     \param[in]  linex: EXTI line number, refer to exti_line_enum
 116:../Firmware/GD32VW55x_standard_peripheral/Source/gd32vw55x_exti.c ****                 only one parameter can be selected which is shown as below:
 117:../Firmware/GD32VW55x_standard_peripheral/Source/gd32vw55x_exti.c ****       \arg        EXTI_x (x=0..17,19..25): EXTI line x
 118:../Firmware/GD32VW55x_standard_peripheral/Source/gd32vw55x_exti.c ****     \param[out] none
 119:../Firmware/GD32VW55x_standard_peripheral/Source/gd32vw55x_exti.c ****     \retval     none
 120:../Firmware/GD32VW55x_standard_peripheral/Source/gd32vw55x_exti.c **** */
 121:../Firmware/GD32VW55x_standard_peripheral/Source/gd32vw55x_exti.c **** void exti_interrupt_enable(exti_line_enum linex)
 122:../Firmware/GD32VW55x_standard_peripheral/Source/gd32vw55x_exti.c **** {
 262              		.loc 1 122 1
 263              		.cfi_startproc
 264 0000 0111     		addi	sp,sp,-32
 265              		.cfi_def_cfa_offset 32
 266 0002 22CE     		sw	s0,28(sp)
 267              		.cfi_offset 8, -4
 268 0004 0010     		addi	s0,sp,32
 269              		.cfi_def_cfa 8, 0
 270 0006 2326A4FE 		sw	a0,-20(s0)
 123:../Firmware/GD32VW55x_standard_peripheral/Source/gd32vw55x_exti.c ****     EXTI_INTEN |= (uint32_t)linex;
 271              		.loc 1 123 16
 272 000a B7470140 		li	a5,1073823744
 273 000e 938707C0 		addi	a5,a5,-1024
 274 0012 9443     		lw	a3,0(a5)
 275 0014 B7470140 		li	a5,1073823744
 276 0018 938707C0 		addi	a5,a5,-1024
 277 001c 0327C4FE 		lw	a4,-20(s0)
 278 0020 558F     		or	a4,a3,a4
 279 0022 98C3     		sw	a4,0(a5)
 124:../Firmware/GD32VW55x_standard_peripheral/Source/gd32vw55x_exti.c **** }
 280              		.loc 1 124 1
 281 0024 0100     		nop
 282 0026 7244     		lw	s0,28(sp)
 283              		.cfi_restore 8
 284              		.cfi_def_cfa 2, 32
 285 0028 0561     		addi	sp,sp,32
 286              		.cfi_def_cfa_offset 0
 287 002a 8280     		jr	ra
 288              		.cfi_endproc
 289              	.LFE349:
 291              		.section	.text.exti_interrupt_disable,"ax",@progbits
 292              		.align	1
 293              		.globl	exti_interrupt_disable
 295              	exti_interrupt_disable:
 296              	.LFB350:
 125:../Firmware/GD32VW55x_standard_peripheral/Source/gd32vw55x_exti.c **** 
 126:../Firmware/GD32VW55x_standard_peripheral/Source/gd32vw55x_exti.c **** /*!
 127:../Firmware/GD32VW55x_standard_peripheral/Source/gd32vw55x_exti.c ****     \brief      disable the interrupt from EXTI line x
 128:../Firmware/GD32VW55x_standard_peripheral/Source/gd32vw55x_exti.c ****     \param[in]  linex: EXTI line number, refer to exti_line_enum
 129:../Firmware/GD32VW55x_standard_peripheral/Source/gd32vw55x_exti.c ****                 only one parameter can be selected which is shown as below:
 130:../Firmware/GD32VW55x_standard_peripheral/Source/gd32vw55x_exti.c ****       \arg        EXTI_x (x=0..17,19..25): EXTI line x
 131:../Firmware/GD32VW55x_standard_peripheral/Source/gd32vw55x_exti.c ****     \param[out] none
 132:../Firmware/GD32VW55x_standard_peripheral/Source/gd32vw55x_exti.c ****     \retval     none
 133:../Firmware/GD32VW55x_standard_peripheral/Source/gd32vw55x_exti.c **** */
 134:../Firmware/GD32VW55x_standard_peripheral/Source/gd32vw55x_exti.c **** void exti_interrupt_disable(exti_line_enum linex)
 135:../Firmware/GD32VW55x_standard_peripheral/Source/gd32vw55x_exti.c **** {
 297              		.loc 1 135 1
 298              		.cfi_startproc
 299 0000 0111     		addi	sp,sp,-32
 300              		.cfi_def_cfa_offset 32
 301 0002 22CE     		sw	s0,28(sp)
 302              		.cfi_offset 8, -4
 303 0004 0010     		addi	s0,sp,32
 304              		.cfi_def_cfa 8, 0
 305 0006 2326A4FE 		sw	a0,-20(s0)
 136:../Firmware/GD32VW55x_standard_peripheral/Source/gd32vw55x_exti.c ****     EXTI_INTEN &= ~(uint32_t)linex;
 306              		.loc 1 136 16
 307 000a B7470140 		li	a5,1073823744
 308 000e 938707C0 		addi	a5,a5,-1024
 309 0012 9443     		lw	a3,0(a5)
 310              		.loc 1 136 19
 311 0014 8327C4FE 		lw	a5,-20(s0)
 312 0018 13C7F7FF 		not	a4,a5
 313              		.loc 1 136 16
 314 001c B7470140 		li	a5,1073823744
 315 0020 938707C0 		addi	a5,a5,-1024
 316 0024 758F     		and	a4,a3,a4
 317 0026 98C3     		sw	a4,0(a5)
 137:../Firmware/GD32VW55x_standard_peripheral/Source/gd32vw55x_exti.c **** }
 318              		.loc 1 137 1
 319 0028 0100     		nop
 320 002a 7244     		lw	s0,28(sp)
 321              		.cfi_restore 8
 322              		.cfi_def_cfa 2, 32
 323 002c 0561     		addi	sp,sp,32
 324              		.cfi_def_cfa_offset 0
 325 002e 8280     		jr	ra
 326              		.cfi_endproc
 327              	.LFE350:
 329              		.section	.text.exti_event_enable,"ax",@progbits
 330              		.align	1
 331              		.globl	exti_event_enable
 333              	exti_event_enable:
 334              	.LFB351:
 138:../Firmware/GD32VW55x_standard_peripheral/Source/gd32vw55x_exti.c **** 
 139:../Firmware/GD32VW55x_standard_peripheral/Source/gd32vw55x_exti.c **** /*!
 140:../Firmware/GD32VW55x_standard_peripheral/Source/gd32vw55x_exti.c ****     \brief      enable the events from EXTI line x
 141:../Firmware/GD32VW55x_standard_peripheral/Source/gd32vw55x_exti.c ****     \param[in]  linex: EXTI line number, refer to exti_line_enum
 142:../Firmware/GD32VW55x_standard_peripheral/Source/gd32vw55x_exti.c ****                 only one parameter can be selected which is shown as below:
 143:../Firmware/GD32VW55x_standard_peripheral/Source/gd32vw55x_exti.c ****       \arg        EXTI_x (x=0..17,19..25): EXTI line x
 144:../Firmware/GD32VW55x_standard_peripheral/Source/gd32vw55x_exti.c ****     \param[out] none
 145:../Firmware/GD32VW55x_standard_peripheral/Source/gd32vw55x_exti.c ****     \retval     none
 146:../Firmware/GD32VW55x_standard_peripheral/Source/gd32vw55x_exti.c **** */
 147:../Firmware/GD32VW55x_standard_peripheral/Source/gd32vw55x_exti.c **** void exti_event_enable(exti_line_enum linex)
 148:../Firmware/GD32VW55x_standard_peripheral/Source/gd32vw55x_exti.c **** {
 335              		.loc 1 148 1
 336              		.cfi_startproc
 337 0000 0111     		addi	sp,sp,-32
 338              		.cfi_def_cfa_offset 32
 339 0002 22CE     		sw	s0,28(sp)
 340              		.cfi_offset 8, -4
 341 0004 0010     		addi	s0,sp,32
 342              		.cfi_def_cfa 8, 0
 343 0006 2326A4FE 		sw	a0,-20(s0)
 149:../Firmware/GD32VW55x_standard_peripheral/Source/gd32vw55x_exti.c ****     EXTI_EVEN |= (uint32_t)linex;
 344              		.loc 1 149 15
 345 000a B7470140 		li	a5,1073823744
 346 000e 938747C0 		addi	a5,a5,-1020
 347 0012 9443     		lw	a3,0(a5)
 348 0014 B7470140 		li	a5,1073823744
 349 0018 938747C0 		addi	a5,a5,-1020
 350 001c 0327C4FE 		lw	a4,-20(s0)
 351 0020 558F     		or	a4,a3,a4
 352 0022 98C3     		sw	a4,0(a5)
 150:../Firmware/GD32VW55x_standard_peripheral/Source/gd32vw55x_exti.c **** }
 353              		.loc 1 150 1
 354 0024 0100     		nop
 355 0026 7244     		lw	s0,28(sp)
 356              		.cfi_restore 8
 357              		.cfi_def_cfa 2, 32
 358 0028 0561     		addi	sp,sp,32
 359              		.cfi_def_cfa_offset 0
 360 002a 8280     		jr	ra
 361              		.cfi_endproc
 362              	.LFE351:
 364              		.section	.text.exti_event_disable,"ax",@progbits
 365              		.align	1
 366              		.globl	exti_event_disable
 368              	exti_event_disable:
 369              	.LFB352:
 151:../Firmware/GD32VW55x_standard_peripheral/Source/gd32vw55x_exti.c **** 
 152:../Firmware/GD32VW55x_standard_peripheral/Source/gd32vw55x_exti.c **** /*!
 153:../Firmware/GD32VW55x_standard_peripheral/Source/gd32vw55x_exti.c ****     \brief      disable the events from EXTI line x
 154:../Firmware/GD32VW55x_standard_peripheral/Source/gd32vw55x_exti.c ****     \param[in]  linex: EXTI line number, refer to exti_line_enum
 155:../Firmware/GD32VW55x_standard_peripheral/Source/gd32vw55x_exti.c ****                 only one parameter can be selected which is shown as below:
 156:../Firmware/GD32VW55x_standard_peripheral/Source/gd32vw55x_exti.c ****       \arg        EXTI_x (x=0..17,19..25): EXTI line x
 157:../Firmware/GD32VW55x_standard_peripheral/Source/gd32vw55x_exti.c ****     \param[out] none
 158:../Firmware/GD32VW55x_standard_peripheral/Source/gd32vw55x_exti.c ****     \retval     none
 159:../Firmware/GD32VW55x_standard_peripheral/Source/gd32vw55x_exti.c **** */
 160:../Firmware/GD32VW55x_standard_peripheral/Source/gd32vw55x_exti.c **** void exti_event_disable(exti_line_enum linex)
 161:../Firmware/GD32VW55x_standard_peripheral/Source/gd32vw55x_exti.c **** {
 370              		.loc 1 161 1
 371              		.cfi_startproc
 372 0000 0111     		addi	sp,sp,-32
 373              		.cfi_def_cfa_offset 32
 374 0002 22CE     		sw	s0,28(sp)
 375              		.cfi_offset 8, -4
 376 0004 0010     		addi	s0,sp,32
 377              		.cfi_def_cfa 8, 0
 378 0006 2326A4FE 		sw	a0,-20(s0)
 162:../Firmware/GD32VW55x_standard_peripheral/Source/gd32vw55x_exti.c ****     EXTI_EVEN &= ~(uint32_t)linex;
 379              		.loc 1 162 15
 380 000a B7470140 		li	a5,1073823744
 381 000e 938747C0 		addi	a5,a5,-1020
 382 0012 9443     		lw	a3,0(a5)
 383              		.loc 1 162 18
 384 0014 8327C4FE 		lw	a5,-20(s0)
 385 0018 13C7F7FF 		not	a4,a5
 386              		.loc 1 162 15
 387 001c B7470140 		li	a5,1073823744
 388 0020 938747C0 		addi	a5,a5,-1020
 389 0024 758F     		and	a4,a3,a4
 390 0026 98C3     		sw	a4,0(a5)
 163:../Firmware/GD32VW55x_standard_peripheral/Source/gd32vw55x_exti.c **** }
 391              		.loc 1 163 1
 392 0028 0100     		nop
 393 002a 7244     		lw	s0,28(sp)
 394              		.cfi_restore 8
 395              		.cfi_def_cfa 2, 32
 396 002c 0561     		addi	sp,sp,32
 397              		.cfi_def_cfa_offset 0
 398 002e 8280     		jr	ra
 399              		.cfi_endproc
 400              	.LFE352:
 402              		.section	.text.exti_software_interrupt_enable,"ax",@progbits
 403              		.align	1
 404              		.globl	exti_software_interrupt_enable
 406              	exti_software_interrupt_enable:
 407              	.LFB353:
 164:../Firmware/GD32VW55x_standard_peripheral/Source/gd32vw55x_exti.c **** 
 165:../Firmware/GD32VW55x_standard_peripheral/Source/gd32vw55x_exti.c **** /*!
 166:../Firmware/GD32VW55x_standard_peripheral/Source/gd32vw55x_exti.c ****     \brief      enable the software interrupt event from EXTI line x
 167:../Firmware/GD32VW55x_standard_peripheral/Source/gd32vw55x_exti.c ****     \param[in]  linex: EXTI line number, refer to exti_line_enum
 168:../Firmware/GD32VW55x_standard_peripheral/Source/gd32vw55x_exti.c ****                 only one parameter can be selected which is shown as below:
 169:../Firmware/GD32VW55x_standard_peripheral/Source/gd32vw55x_exti.c ****       \arg        EXTI_x (x=0..17,19..25): EXTI line x
 170:../Firmware/GD32VW55x_standard_peripheral/Source/gd32vw55x_exti.c ****     \param[out] none
 171:../Firmware/GD32VW55x_standard_peripheral/Source/gd32vw55x_exti.c ****     \retval     none
 172:../Firmware/GD32VW55x_standard_peripheral/Source/gd32vw55x_exti.c **** */
 173:../Firmware/GD32VW55x_standard_peripheral/Source/gd32vw55x_exti.c **** void exti_software_interrupt_enable(exti_line_enum linex)
 174:../Firmware/GD32VW55x_standard_peripheral/Source/gd32vw55x_exti.c **** {
 408              		.loc 1 174 1
 409              		.cfi_startproc
 410 0000 0111     		addi	sp,sp,-32
 411              		.cfi_def_cfa_offset 32
 412 0002 22CE     		sw	s0,28(sp)
 413              		.cfi_offset 8, -4
 414 0004 0010     		addi	s0,sp,32
 415              		.cfi_def_cfa 8, 0
 416 0006 2326A4FE 		sw	a0,-20(s0)
 175:../Firmware/GD32VW55x_standard_peripheral/Source/gd32vw55x_exti.c ****     EXTI_SWIEV |= (uint32_t)linex;
 417              		.loc 1 175 16
 418 000a B7470140 		li	a5,1073823744
 419 000e 938707C1 		addi	a5,a5,-1008
 420 0012 9443     		lw	a3,0(a5)
 421 0014 B7470140 		li	a5,1073823744
 422 0018 938707C1 		addi	a5,a5,-1008
 423 001c 0327C4FE 		lw	a4,-20(s0)
 424 0020 558F     		or	a4,a3,a4
 425 0022 98C3     		sw	a4,0(a5)
 176:../Firmware/GD32VW55x_standard_peripheral/Source/gd32vw55x_exti.c **** }
 426              		.loc 1 176 1
 427 0024 0100     		nop
 428 0026 7244     		lw	s0,28(sp)
 429              		.cfi_restore 8
 430              		.cfi_def_cfa 2, 32
 431 0028 0561     		addi	sp,sp,32
 432              		.cfi_def_cfa_offset 0
 433 002a 8280     		jr	ra
 434              		.cfi_endproc
 435              	.LFE353:
 437              		.section	.text.exti_software_interrupt_disable,"ax",@progbits
 438              		.align	1
 439              		.globl	exti_software_interrupt_disable
 441              	exti_software_interrupt_disable:
 442              	.LFB354:
 177:../Firmware/GD32VW55x_standard_peripheral/Source/gd32vw55x_exti.c **** 
 178:../Firmware/GD32VW55x_standard_peripheral/Source/gd32vw55x_exti.c **** /*!
 179:../Firmware/GD32VW55x_standard_peripheral/Source/gd32vw55x_exti.c ****     \brief      disable the software interrupt event from EXTI line x
 180:../Firmware/GD32VW55x_standard_peripheral/Source/gd32vw55x_exti.c ****     \param[in]  linex: EXTI line number, refer to exti_line_enum
 181:../Firmware/GD32VW55x_standard_peripheral/Source/gd32vw55x_exti.c ****                 only one parameter can be selected which is shown as below:
 182:../Firmware/GD32VW55x_standard_peripheral/Source/gd32vw55x_exti.c ****       \arg        EXTI_x (x=0..17,19..25): EXTI line x
 183:../Firmware/GD32VW55x_standard_peripheral/Source/gd32vw55x_exti.c ****     \param[out] none
 184:../Firmware/GD32VW55x_standard_peripheral/Source/gd32vw55x_exti.c ****     \retval     none
 185:../Firmware/GD32VW55x_standard_peripheral/Source/gd32vw55x_exti.c **** */
 186:../Firmware/GD32VW55x_standard_peripheral/Source/gd32vw55x_exti.c **** void exti_software_interrupt_disable(exti_line_enum linex)
 187:../Firmware/GD32VW55x_standard_peripheral/Source/gd32vw55x_exti.c **** {
 443              		.loc 1 187 1
 444              		.cfi_startproc
 445 0000 0111     		addi	sp,sp,-32
 446              		.cfi_def_cfa_offset 32
 447 0002 22CE     		sw	s0,28(sp)
 448              		.cfi_offset 8, -4
 449 0004 0010     		addi	s0,sp,32
 450              		.cfi_def_cfa 8, 0
 451 0006 2326A4FE 		sw	a0,-20(s0)
 188:../Firmware/GD32VW55x_standard_peripheral/Source/gd32vw55x_exti.c ****     EXTI_SWIEV &= ~(uint32_t)linex;
 452              		.loc 1 188 16
 453 000a B7470140 		li	a5,1073823744
 454 000e 938707C1 		addi	a5,a5,-1008
 455 0012 9443     		lw	a3,0(a5)
 456              		.loc 1 188 19
 457 0014 8327C4FE 		lw	a5,-20(s0)
 458 0018 13C7F7FF 		not	a4,a5
 459              		.loc 1 188 16
 460 001c B7470140 		li	a5,1073823744
 461 0020 938707C1 		addi	a5,a5,-1008
 462 0024 758F     		and	a4,a3,a4
 463 0026 98C3     		sw	a4,0(a5)
 189:../Firmware/GD32VW55x_standard_peripheral/Source/gd32vw55x_exti.c **** }
 464              		.loc 1 189 1
 465 0028 0100     		nop
 466 002a 7244     		lw	s0,28(sp)
 467              		.cfi_restore 8
 468              		.cfi_def_cfa 2, 32
 469 002c 0561     		addi	sp,sp,32
 470              		.cfi_def_cfa_offset 0
 471 002e 8280     		jr	ra
 472              		.cfi_endproc
 473              	.LFE354:
 475              		.section	.text.exti_flag_get,"ax",@progbits
 476              		.align	1
 477              		.globl	exti_flag_get
 479              	exti_flag_get:
 480              	.LFB355:
 190:../Firmware/GD32VW55x_standard_peripheral/Source/gd32vw55x_exti.c **** 
 191:../Firmware/GD32VW55x_standard_peripheral/Source/gd32vw55x_exti.c **** /*!
 192:../Firmware/GD32VW55x_standard_peripheral/Source/gd32vw55x_exti.c ****     \brief      get EXTI line x interrupt pending flag
 193:../Firmware/GD32VW55x_standard_peripheral/Source/gd32vw55x_exti.c ****     \param[in]  linex: EXTI line number, refer to exti_line_enum
 194:../Firmware/GD32VW55x_standard_peripheral/Source/gd32vw55x_exti.c ****                 only one parameter can be selected which is shown as below:
 195:../Firmware/GD32VW55x_standard_peripheral/Source/gd32vw55x_exti.c ****       \arg        EXTI_x (x=0..17,19..25): EXTI line x
 196:../Firmware/GD32VW55x_standard_peripheral/Source/gd32vw55x_exti.c ****     \param[out] none
 197:../Firmware/GD32VW55x_standard_peripheral/Source/gd32vw55x_exti.c ****     \retval     FlagStatus: status of flag (RESET or SET)
 198:../Firmware/GD32VW55x_standard_peripheral/Source/gd32vw55x_exti.c **** */
 199:../Firmware/GD32VW55x_standard_peripheral/Source/gd32vw55x_exti.c **** FlagStatus exti_flag_get(exti_line_enum linex)
 200:../Firmware/GD32VW55x_standard_peripheral/Source/gd32vw55x_exti.c **** {
 481              		.loc 1 200 1
 482              		.cfi_startproc
 483 0000 0111     		addi	sp,sp,-32
 484              		.cfi_def_cfa_offset 32
 485 0002 22CE     		sw	s0,28(sp)
 486              		.cfi_offset 8, -4
 487 0004 0010     		addi	s0,sp,32
 488              		.cfi_def_cfa 8, 0
 489 0006 2326A4FE 		sw	a0,-20(s0)
 201:../Firmware/GD32VW55x_standard_peripheral/Source/gd32vw55x_exti.c ****     if(RESET != (EXTI_PD & (uint32_t)linex)) {
 490              		.loc 1 201 18
 491 000a B7470140 		li	a5,1073823744
 492 000e 938747C1 		addi	a5,a5,-1004
 493 0012 9843     		lw	a4,0(a5)
 494              		.loc 1 201 26
 495 0014 8327C4FE 		lw	a5,-20(s0)
 496 0018 F98F     		and	a5,a4,a5
 497              		.loc 1 201 7
 498 001a 99C3     		beq	a5,zero,.L20
 202:../Firmware/GD32VW55x_standard_peripheral/Source/gd32vw55x_exti.c ****         return SET;
 499              		.loc 1 202 16
 500 001c 8547     		li	a5,1
 501 001e 11A0     		j	.L21
 502              	.L20:
 203:../Firmware/GD32VW55x_standard_peripheral/Source/gd32vw55x_exti.c ****     } else {
 204:../Firmware/GD32VW55x_standard_peripheral/Source/gd32vw55x_exti.c ****         return RESET;
 503              		.loc 1 204 16
 504 0020 8147     		li	a5,0
 505              	.L21:
 205:../Firmware/GD32VW55x_standard_peripheral/Source/gd32vw55x_exti.c ****     }
 206:../Firmware/GD32VW55x_standard_peripheral/Source/gd32vw55x_exti.c **** }
 506              		.loc 1 206 1
 507 0022 3E85     		mv	a0,a5
 508 0024 7244     		lw	s0,28(sp)
 509              		.cfi_restore 8
 510              		.cfi_def_cfa 2, 32
 511 0026 0561     		addi	sp,sp,32
 512              		.cfi_def_cfa_offset 0
 513 0028 8280     		jr	ra
 514              		.cfi_endproc
 515              	.LFE355:
 517              		.section	.text.exti_flag_clear,"ax",@progbits
 518              		.align	1
 519              		.globl	exti_flag_clear
 521              	exti_flag_clear:
 522              	.LFB356:
 207:../Firmware/GD32VW55x_standard_peripheral/Source/gd32vw55x_exti.c **** 
 208:../Firmware/GD32VW55x_standard_peripheral/Source/gd32vw55x_exti.c **** /*!
 209:../Firmware/GD32VW55x_standard_peripheral/Source/gd32vw55x_exti.c ****     \brief      clear EXTI line x interrupt pending flag
 210:../Firmware/GD32VW55x_standard_peripheral/Source/gd32vw55x_exti.c ****     \param[in]  linex: EXTI line number, refer to exti_line_enum
 211:../Firmware/GD32VW55x_standard_peripheral/Source/gd32vw55x_exti.c ****                 only one parameter can be selected which is shown as below:
 212:../Firmware/GD32VW55x_standard_peripheral/Source/gd32vw55x_exti.c ****       \arg        EXTI_x (x=0..17,19..25): EXTI line x
 213:../Firmware/GD32VW55x_standard_peripheral/Source/gd32vw55x_exti.c ****     \param[out] none
 214:../Firmware/GD32VW55x_standard_peripheral/Source/gd32vw55x_exti.c ****     \retval     none
 215:../Firmware/GD32VW55x_standard_peripheral/Source/gd32vw55x_exti.c **** */
 216:../Firmware/GD32VW55x_standard_peripheral/Source/gd32vw55x_exti.c **** void exti_flag_clear(exti_line_enum linex)
 217:../Firmware/GD32VW55x_standard_peripheral/Source/gd32vw55x_exti.c **** {
 523              		.loc 1 217 1
 524              		.cfi_startproc
 525 0000 0111     		addi	sp,sp,-32
 526              		.cfi_def_cfa_offset 32
 527 0002 22CE     		sw	s0,28(sp)
 528              		.cfi_offset 8, -4
 529 0004 0010     		addi	s0,sp,32
 530              		.cfi_def_cfa 8, 0
 531 0006 2326A4FE 		sw	a0,-20(s0)
 218:../Firmware/GD32VW55x_standard_peripheral/Source/gd32vw55x_exti.c ****     EXTI_PD = (uint32_t)linex;
 532              		.loc 1 218 5
 533 000a B7470140 		li	a5,1073823744
 534 000e 938747C1 		addi	a5,a5,-1004
 535              		.loc 1 218 13
 536 0012 0327C4FE 		lw	a4,-20(s0)
 537 0016 98C3     		sw	a4,0(a5)
 219:../Firmware/GD32VW55x_standard_peripheral/Source/gd32vw55x_exti.c **** }
 538              		.loc 1 219 1
 539 0018 0100     		nop
 540 001a 7244     		lw	s0,28(sp)
 541              		.cfi_restore 8
 542              		.cfi_def_cfa 2, 32
 543 001c 0561     		addi	sp,sp,32
 544              		.cfi_def_cfa_offset 0
 545 001e 8280     		jr	ra
 546              		.cfi_endproc
 547              	.LFE356:
 549              		.section	.text.exti_interrupt_flag_get,"ax",@progbits
 550              		.align	1
 551              		.globl	exti_interrupt_flag_get
 553              	exti_interrupt_flag_get:
 554              	.LFB357:
 220:../Firmware/GD32VW55x_standard_peripheral/Source/gd32vw55x_exti.c **** 
 221:../Firmware/GD32VW55x_standard_peripheral/Source/gd32vw55x_exti.c **** /*!
 222:../Firmware/GD32VW55x_standard_peripheral/Source/gd32vw55x_exti.c ****     \brief      get EXTI line x interrupt pending flag
 223:../Firmware/GD32VW55x_standard_peripheral/Source/gd32vw55x_exti.c ****     \param[in]  linex: EXTI line number, refer to exti_line_enum
 224:../Firmware/GD32VW55x_standard_peripheral/Source/gd32vw55x_exti.c ****                 only one parameter can be selected which is shown as below:
 225:../Firmware/GD32VW55x_standard_peripheral/Source/gd32vw55x_exti.c ****       \arg        EXTI_x (x=0..17,19..25): EXTI line x
 226:../Firmware/GD32VW55x_standard_peripheral/Source/gd32vw55x_exti.c ****     \param[out] none
 227:../Firmware/GD32VW55x_standard_peripheral/Source/gd32vw55x_exti.c ****     \retval     FlagStatus: status of flag (RESET or SET)
 228:../Firmware/GD32VW55x_standard_peripheral/Source/gd32vw55x_exti.c **** */
 229:../Firmware/GD32VW55x_standard_peripheral/Source/gd32vw55x_exti.c **** FlagStatus exti_interrupt_flag_get(exti_line_enum linex)
 230:../Firmware/GD32VW55x_standard_peripheral/Source/gd32vw55x_exti.c **** {
 555              		.loc 1 230 1
 556              		.cfi_startproc
 557 0000 0111     		addi	sp,sp,-32
 558              		.cfi_def_cfa_offset 32
 559 0002 22CE     		sw	s0,28(sp)
 560              		.cfi_offset 8, -4
 561 0004 0010     		addi	s0,sp,32
 562              		.cfi_def_cfa 8, 0
 563 0006 2326A4FE 		sw	a0,-20(s0)
 231:../Firmware/GD32VW55x_standard_peripheral/Source/gd32vw55x_exti.c ****     if(RESET != (EXTI_PD & (uint32_t)linex)) {
 564              		.loc 1 231 18
 565 000a B7470140 		li	a5,1073823744
 566 000e 938747C1 		addi	a5,a5,-1004
 567 0012 9843     		lw	a4,0(a5)
 568              		.loc 1 231 26
 569 0014 8327C4FE 		lw	a5,-20(s0)
 570 0018 F98F     		and	a5,a4,a5
 571              		.loc 1 231 7
 572 001a 99C3     		beq	a5,zero,.L24
 232:../Firmware/GD32VW55x_standard_peripheral/Source/gd32vw55x_exti.c ****         return SET;
 573              		.loc 1 232 16
 574 001c 8547     		li	a5,1
 575 001e 11A0     		j	.L25
 576              	.L24:
 233:../Firmware/GD32VW55x_standard_peripheral/Source/gd32vw55x_exti.c ****     } else {
 234:../Firmware/GD32VW55x_standard_peripheral/Source/gd32vw55x_exti.c ****         return RESET;
 577              		.loc 1 234 16
 578 0020 8147     		li	a5,0
 579              	.L25:
 235:../Firmware/GD32VW55x_standard_peripheral/Source/gd32vw55x_exti.c ****     }
 236:../Firmware/GD32VW55x_standard_peripheral/Source/gd32vw55x_exti.c **** }
 580              		.loc 1 236 1
 581 0022 3E85     		mv	a0,a5
 582 0024 7244     		lw	s0,28(sp)
 583              		.cfi_restore 8
 584              		.cfi_def_cfa 2, 32
 585 0026 0561     		addi	sp,sp,32
 586              		.cfi_def_cfa_offset 0
 587 0028 8280     		jr	ra
 588              		.cfi_endproc
 589              	.LFE357:
 591              		.section	.text.exti_interrupt_flag_clear,"ax",@progbits
 592              		.align	1
 593              		.globl	exti_interrupt_flag_clear
 595              	exti_interrupt_flag_clear:
 596              	.LFB358:
 237:../Firmware/GD32VW55x_standard_peripheral/Source/gd32vw55x_exti.c **** 
 238:../Firmware/GD32VW55x_standard_peripheral/Source/gd32vw55x_exti.c **** /*!
 239:../Firmware/GD32VW55x_standard_peripheral/Source/gd32vw55x_exti.c ****     \brief      clear EXTI line x interrupt pending flag
 240:../Firmware/GD32VW55x_standard_peripheral/Source/gd32vw55x_exti.c ****     \param[in]  linex: EXTI line number, refer to exti_line_enum
 241:../Firmware/GD32VW55x_standard_peripheral/Source/gd32vw55x_exti.c ****                 only one parameter can be selected which is shown as below:
 242:../Firmware/GD32VW55x_standard_peripheral/Source/gd32vw55x_exti.c ****       \arg        EXTI_x (x=0..17,19..25): EXTI line x
 243:../Firmware/GD32VW55x_standard_peripheral/Source/gd32vw55x_exti.c ****     \param[out] none
 244:../Firmware/GD32VW55x_standard_peripheral/Source/gd32vw55x_exti.c ****     \retval     none
 245:../Firmware/GD32VW55x_standard_peripheral/Source/gd32vw55x_exti.c **** */
 246:../Firmware/GD32VW55x_standard_peripheral/Source/gd32vw55x_exti.c **** void exti_interrupt_flag_clear(exti_line_enum linex)
 247:../Firmware/GD32VW55x_standard_peripheral/Source/gd32vw55x_exti.c **** {
 597              		.loc 1 247 1
 598              		.cfi_startproc
 599 0000 0111     		addi	sp,sp,-32
 600              		.cfi_def_cfa_offset 32
 601 0002 22CE     		sw	s0,28(sp)
 602              		.cfi_offset 8, -4
 603 0004 0010     		addi	s0,sp,32
 604              		.cfi_def_cfa 8, 0
 605 0006 2326A4FE 		sw	a0,-20(s0)
 248:../Firmware/GD32VW55x_standard_peripheral/Source/gd32vw55x_exti.c ****     EXTI_PD = (uint32_t)linex;
 606              		.loc 1 248 5
 607 000a B7470140 		li	a5,1073823744
 608 000e 938747C1 		addi	a5,a5,-1004
 609              		.loc 1 248 13
 610 0012 0327C4FE 		lw	a4,-20(s0)
 611 0016 98C3     		sw	a4,0(a5)
 249:../Firmware/GD32VW55x_standard_peripheral/Source/gd32vw55x_exti.c **** }
 612              		.loc 1 249 1
 613 0018 0100     		nop
 614 001a 7244     		lw	s0,28(sp)
 615              		.cfi_restore 8
 616              		.cfi_def_cfa 2, 32
 617 001c 0561     		addi	sp,sp,32
 618              		.cfi_def_cfa_offset 0
 619 001e 8280     		jr	ra
 620              		.cfi_endproc
 621              	.LFE358:
 623              		.text
 624              	.Letext0:
 625              		.file 2 "e:\\gd32\\gd32embeddedbuilder_v1.5.2.30854\\tools\\nuclei_riscv_newlibc_prebuilt_win32_20
 626              		.file 3 "e:\\gd32\\gd32embeddedbuilder_v1.5.2.30854\\tools\\nuclei_riscv_newlibc_prebuilt_win32_20
 627              		.file 4 "../Firmware/GD32VW55x_standard_peripheral/gd32vw55x.h"
 628              		.file 5 "../Firmware/GD32VW55x_standard_peripheral/Include/gd32vw55x_exti.h"
DEFINED SYMBOLS
                            *ABS*:0000000000000000 gd32vw55x_exti.c
C:\Users\CYMR90~1\AppData\Local\Temp\ccLzUcmd.s:13     .text.exti_deinit:0000000000000000 exti_deinit
C:\Users\CYMR90~1\AppData\Local\Temp\ccLzUcmd.s:17     .text.exti_deinit:0000000000000000 .L0 
C:\Users\CYMR90~1\AppData\Local\Temp\ccLzUcmd.s:18     .text.exti_deinit:0000000000000000 .L0 
C:\Users\CYMR90~1\AppData\Local\Temp\ccLzUcmd.s:19     .text.exti_deinit:0000000000000002 .L0 
C:\Users\CYMR90~1\AppData\Local\Temp\ccLzUcmd.s:21     .text.exti_deinit:0000000000000004 .L0 
C:\Users\CYMR90~1\AppData\Local\Temp\ccLzUcmd.s:23     .text.exti_deinit:0000000000000006 .L0 
C:\Users\CYMR90~1\AppData\Local\Temp\ccLzUcmd.s:25     .text.exti_deinit:0000000000000006 .L0 
C:\Users\CYMR90~1\AppData\Local\Temp\ccLzUcmd.s:28     .text.exti_deinit:000000000000000e .L0 
C:\Users\CYMR90~1\AppData\Local\Temp\ccLzUcmd.s:30     .text.exti_deinit:0000000000000012 .L0 
C:\Users\CYMR90~1\AppData\Local\Temp\ccLzUcmd.s:33     .text.exti_deinit:000000000000001a .L0 
C:\Users\CYMR90~1\AppData\Local\Temp\ccLzUcmd.s:35     .text.exti_deinit:000000000000001e .L0 
C:\Users\CYMR90~1\AppData\Local\Temp\ccLzUcmd.s:38     .text.exti_deinit:0000000000000026 .L0 
C:\Users\CYMR90~1\AppData\Local\Temp\ccLzUcmd.s:40     .text.exti_deinit:000000000000002a .L0 
C:\Users\CYMR90~1\AppData\Local\Temp\ccLzUcmd.s:43     .text.exti_deinit:0000000000000032 .L0 
C:\Users\CYMR90~1\AppData\Local\Temp\ccLzUcmd.s:45     .text.exti_deinit:0000000000000036 .L0 
C:\Users\CYMR90~1\AppData\Local\Temp\ccLzUcmd.s:48     .text.exti_deinit:000000000000003e .L0 
C:\Users\CYMR90~1\AppData\Local\Temp\ccLzUcmd.s:50     .text.exti_deinit:0000000000000042 .L0 
C:\Users\CYMR90~1\AppData\Local\Temp\ccLzUcmd.s:52     .text.exti_deinit:0000000000000046 .L0 
C:\Users\CYMR90~1\AppData\Local\Temp\ccLzUcmd.s:53     .text.exti_deinit:0000000000000046 .L0 
C:\Users\CYMR90~1\AppData\Local\Temp\ccLzUcmd.s:55     .text.exti_deinit:0000000000000048 .L0 
C:\Users\CYMR90~1\AppData\Local\Temp\ccLzUcmd.s:57     .text.exti_deinit:000000000000004a .L0 
C:\Users\CYMR90~1\AppData\Local\Temp\ccLzUcmd.s:64     .text.exti_init:0000000000000000 exti_init
C:\Users\CYMR90~1\AppData\Local\Temp\ccLzUcmd.s:67     .text.exti_init:0000000000000000 .L0 
C:\Users\CYMR90~1\AppData\Local\Temp\ccLzUcmd.s:68     .text.exti_init:0000000000000000 .L0 
C:\Users\CYMR90~1\AppData\Local\Temp\ccLzUcmd.s:69     .text.exti_init:0000000000000002 .L0 
C:\Users\CYMR90~1\AppData\Local\Temp\ccLzUcmd.s:71     .text.exti_init:0000000000000004 .L0 
C:\Users\CYMR90~1\AppData\Local\Temp\ccLzUcmd.s:73     .text.exti_init:0000000000000006 .L0 
C:\Users\CYMR90~1\AppData\Local\Temp\ccLzUcmd.s:78     .text.exti_init:0000000000000012 .L0 
C:\Users\CYMR90~1\AppData\Local\Temp\ccLzUcmd.s:82     .text.exti_init:000000000000001c .L0 
C:\Users\CYMR90~1\AppData\Local\Temp\ccLzUcmd.s:85     .text.exti_init:0000000000000024 .L0 
C:\Users\CYMR90~1\AppData\Local\Temp\ccLzUcmd.s:90     .text.exti_init:0000000000000030 .L0 
C:\Users\CYMR90~1\AppData\Local\Temp\ccLzUcmd.s:94     .text.exti_init:000000000000003a .L0 
C:\Users\CYMR90~1\AppData\Local\Temp\ccLzUcmd.s:97     .text.exti_init:0000000000000042 .L0 
C:\Users\CYMR90~1\AppData\Local\Temp\ccLzUcmd.s:102    .text.exti_init:000000000000004e .L0 
C:\Users\CYMR90~1\AppData\Local\Temp\ccLzUcmd.s:106    .text.exti_init:0000000000000058 .L0 
C:\Users\CYMR90~1\AppData\Local\Temp\ccLzUcmd.s:109    .text.exti_init:0000000000000060 .L0 
C:\Users\CYMR90~1\AppData\Local\Temp\ccLzUcmd.s:114    .text.exti_init:000000000000006c .L0 
C:\Users\CYMR90~1\AppData\Local\Temp\ccLzUcmd.s:118    .text.exti_init:0000000000000076 .L0 
C:\Users\CYMR90~1\AppData\Local\Temp\ccLzUcmd.s:121    .text.exti_init:000000000000007e .L0 
C:\Users\CYMR90~1\AppData\Local\Temp\ccLzUcmd.s:126    .text.exti_init:000000000000008a .L0 
C:\Users\CYMR90~1\AppData\Local\Temp\ccLzUcmd.s:132    .text.exti_init:000000000000009a .L0 
C:\Users\CYMR90~1\AppData\Local\Temp\ccLzUcmd.s:135    .text.exti_init:000000000000009c .L0 
C:\Users\CYMR90~1\AppData\Local\Temp\ccLzUcmd.s:144    .text.exti_init:00000000000000b6 .L0 
C:\Users\CYMR90~1\AppData\Local\Temp\ccLzUcmd.s:147    .text.exti_init:00000000000000b8 .L0 
C:\Users\CYMR90~1\AppData\Local\Temp\ccLzUcmd.s:156    .text.exti_init:00000000000000d2 .L0 
C:\Users\CYMR90~1\AppData\Local\Temp\ccLzUcmd.s:159    .text.exti_init:00000000000000d4 .L0 
C:\Users\CYMR90~1\AppData\Local\Temp\ccLzUcmd.s:171    .text.exti_init:00000000000000f8 .L0 
C:\Users\CYMR90~1\AppData\Local\Temp\ccLzUcmd.s:174    .text.exti_init:00000000000000fa .L0 
C:\Users\CYMR90~1\AppData\Local\Temp\ccLzUcmd.s:183    .text.exti_init:0000000000000114 .L0 
C:\Users\CYMR90~1\AppData\Local\Temp\ccLzUcmd.s:187    .text.exti_init:000000000000011e .L0 
C:\Users\CYMR90~1\AppData\Local\Temp\ccLzUcmd.s:190    .text.exti_init:0000000000000126 .L0 
C:\Users\CYMR90~1\AppData\Local\Temp\ccLzUcmd.s:195    .text.exti_init:0000000000000132 .L0 
C:\Users\CYMR90~1\AppData\Local\Temp\ccLzUcmd.s:198    .text.exti_init:0000000000000134 .L0 
C:\Users\CYMR90~1\AppData\Local\Temp\ccLzUcmd.s:202    .text.exti_init:000000000000013e .L0 
C:\Users\CYMR90~1\AppData\Local\Temp\ccLzUcmd.s:205    .text.exti_init:0000000000000146 .L0 
C:\Users\CYMR90~1\AppData\Local\Temp\ccLzUcmd.s:210    .text.exti_init:0000000000000152 .L0 
C:\Users\CYMR90~1\AppData\Local\Temp\ccLzUcmd.s:219    .text.exti_init:000000000000016c .L0 
C:\Users\CYMR90~1\AppData\Local\Temp\ccLzUcmd.s:222    .text.exti_init:000000000000016e .L0 
C:\Users\CYMR90~1\AppData\Local\Temp\ccLzUcmd.s:231    .text.exti_init:0000000000000188 .L0 
C:\Users\CYMR90~1\AppData\Local\Temp\ccLzUcmd.s:240    .text.exti_init:00000000000001a2 .L0 
C:\Users\CYMR90~1\AppData\Local\Temp\ccLzUcmd.s:243    .text.exti_init:00000000000001a4 .L0 
C:\Users\CYMR90~1\AppData\Local\Temp\ccLzUcmd.s:246    .text.exti_init:00000000000001a6 .L0 
C:\Users\CYMR90~1\AppData\Local\Temp\ccLzUcmd.s:248    .text.exti_init:00000000000001aa .L0 
C:\Users\CYMR90~1\AppData\Local\Temp\ccLzUcmd.s:249    .text.exti_init:00000000000001aa .L0 
C:\Users\CYMR90~1\AppData\Local\Temp\ccLzUcmd.s:251    .text.exti_init:00000000000001ac .L0 
C:\Users\CYMR90~1\AppData\Local\Temp\ccLzUcmd.s:253    .text.exti_init:00000000000001ae .L0 
C:\Users\CYMR90~1\AppData\Local\Temp\ccLzUcmd.s:260    .text.exti_interrupt_enable:0000000000000000 exti_interrupt_enable
C:\Users\CYMR90~1\AppData\Local\Temp\ccLzUcmd.s:263    .text.exti_interrupt_enable:0000000000000000 .L0 
C:\Users\CYMR90~1\AppData\Local\Temp\ccLzUcmd.s:264    .text.exti_interrupt_enable:0000000000000000 .L0 
C:\Users\CYMR90~1\AppData\Local\Temp\ccLzUcmd.s:265    .text.exti_interrupt_enable:0000000000000002 .L0 
C:\Users\CYMR90~1\AppData\Local\Temp\ccLzUcmd.s:267    .text.exti_interrupt_enable:0000000000000004 .L0 
C:\Users\CYMR90~1\AppData\Local\Temp\ccLzUcmd.s:269    .text.exti_interrupt_enable:0000000000000006 .L0 
C:\Users\CYMR90~1\AppData\Local\Temp\ccLzUcmd.s:272    .text.exti_interrupt_enable:000000000000000a .L0 
C:\Users\CYMR90~1\AppData\Local\Temp\ccLzUcmd.s:281    .text.exti_interrupt_enable:0000000000000024 .L0 
C:\Users\CYMR90~1\AppData\Local\Temp\ccLzUcmd.s:283    .text.exti_interrupt_enable:0000000000000028 .L0 
C:\Users\CYMR90~1\AppData\Local\Temp\ccLzUcmd.s:284    .text.exti_interrupt_enable:0000000000000028 .L0 
C:\Users\CYMR90~1\AppData\Local\Temp\ccLzUcmd.s:286    .text.exti_interrupt_enable:000000000000002a .L0 
C:\Users\CYMR90~1\AppData\Local\Temp\ccLzUcmd.s:288    .text.exti_interrupt_enable:000000000000002c .L0 
C:\Users\CYMR90~1\AppData\Local\Temp\ccLzUcmd.s:295    .text.exti_interrupt_disable:0000000000000000 exti_interrupt_disable
C:\Users\CYMR90~1\AppData\Local\Temp\ccLzUcmd.s:298    .text.exti_interrupt_disable:0000000000000000 .L0 
C:\Users\CYMR90~1\AppData\Local\Temp\ccLzUcmd.s:299    .text.exti_interrupt_disable:0000000000000000 .L0 
C:\Users\CYMR90~1\AppData\Local\Temp\ccLzUcmd.s:300    .text.exti_interrupt_disable:0000000000000002 .L0 
C:\Users\CYMR90~1\AppData\Local\Temp\ccLzUcmd.s:302    .text.exti_interrupt_disable:0000000000000004 .L0 
C:\Users\CYMR90~1\AppData\Local\Temp\ccLzUcmd.s:304    .text.exti_interrupt_disable:0000000000000006 .L0 
C:\Users\CYMR90~1\AppData\Local\Temp\ccLzUcmd.s:307    .text.exti_interrupt_disable:000000000000000a .L0 
C:\Users\CYMR90~1\AppData\Local\Temp\ccLzUcmd.s:311    .text.exti_interrupt_disable:0000000000000014 .L0 
C:\Users\CYMR90~1\AppData\Local\Temp\ccLzUcmd.s:314    .text.exti_interrupt_disable:000000000000001c .L0 
C:\Users\CYMR90~1\AppData\Local\Temp\ccLzUcmd.s:319    .text.exti_interrupt_disable:0000000000000028 .L0 
C:\Users\CYMR90~1\AppData\Local\Temp\ccLzUcmd.s:321    .text.exti_interrupt_disable:000000000000002c .L0 
C:\Users\CYMR90~1\AppData\Local\Temp\ccLzUcmd.s:322    .text.exti_interrupt_disable:000000000000002c .L0 
C:\Users\CYMR90~1\AppData\Local\Temp\ccLzUcmd.s:324    .text.exti_interrupt_disable:000000000000002e .L0 
C:\Users\CYMR90~1\AppData\Local\Temp\ccLzUcmd.s:326    .text.exti_interrupt_disable:0000000000000030 .L0 
C:\Users\CYMR90~1\AppData\Local\Temp\ccLzUcmd.s:333    .text.exti_event_enable:0000000000000000 exti_event_enable
C:\Users\CYMR90~1\AppData\Local\Temp\ccLzUcmd.s:336    .text.exti_event_enable:0000000000000000 .L0 
C:\Users\CYMR90~1\AppData\Local\Temp\ccLzUcmd.s:337    .text.exti_event_enable:0000000000000000 .L0 
C:\Users\CYMR90~1\AppData\Local\Temp\ccLzUcmd.s:338    .text.exti_event_enable:0000000000000002 .L0 
C:\Users\CYMR90~1\AppData\Local\Temp\ccLzUcmd.s:340    .text.exti_event_enable:0000000000000004 .L0 
C:\Users\CYMR90~1\AppData\Local\Temp\ccLzUcmd.s:342    .text.exti_event_enable:0000000000000006 .L0 
C:\Users\CYMR90~1\AppData\Local\Temp\ccLzUcmd.s:345    .text.exti_event_enable:000000000000000a .L0 
C:\Users\CYMR90~1\AppData\Local\Temp\ccLzUcmd.s:354    .text.exti_event_enable:0000000000000024 .L0 
C:\Users\CYMR90~1\AppData\Local\Temp\ccLzUcmd.s:356    .text.exti_event_enable:0000000000000028 .L0 
C:\Users\CYMR90~1\AppData\Local\Temp\ccLzUcmd.s:357    .text.exti_event_enable:0000000000000028 .L0 
C:\Users\CYMR90~1\AppData\Local\Temp\ccLzUcmd.s:359    .text.exti_event_enable:000000000000002a .L0 
C:\Users\CYMR90~1\AppData\Local\Temp\ccLzUcmd.s:361    .text.exti_event_enable:000000000000002c .L0 
C:\Users\CYMR90~1\AppData\Local\Temp\ccLzUcmd.s:368    .text.exti_event_disable:0000000000000000 exti_event_disable
C:\Users\CYMR90~1\AppData\Local\Temp\ccLzUcmd.s:371    .text.exti_event_disable:0000000000000000 .L0 
C:\Users\CYMR90~1\AppData\Local\Temp\ccLzUcmd.s:372    .text.exti_event_disable:0000000000000000 .L0 
C:\Users\CYMR90~1\AppData\Local\Temp\ccLzUcmd.s:373    .text.exti_event_disable:0000000000000002 .L0 
C:\Users\CYMR90~1\AppData\Local\Temp\ccLzUcmd.s:375    .text.exti_event_disable:0000000000000004 .L0 
C:\Users\CYMR90~1\AppData\Local\Temp\ccLzUcmd.s:377    .text.exti_event_disable:0000000000000006 .L0 
C:\Users\CYMR90~1\AppData\Local\Temp\ccLzUcmd.s:380    .text.exti_event_disable:000000000000000a .L0 
C:\Users\CYMR90~1\AppData\Local\Temp\ccLzUcmd.s:384    .text.exti_event_disable:0000000000000014 .L0 
C:\Users\CYMR90~1\AppData\Local\Temp\ccLzUcmd.s:387    .text.exti_event_disable:000000000000001c .L0 
C:\Users\CYMR90~1\AppData\Local\Temp\ccLzUcmd.s:392    .text.exti_event_disable:0000000000000028 .L0 
C:\Users\CYMR90~1\AppData\Local\Temp\ccLzUcmd.s:394    .text.exti_event_disable:000000000000002c .L0 
C:\Users\CYMR90~1\AppData\Local\Temp\ccLzUcmd.s:395    .text.exti_event_disable:000000000000002c .L0 
C:\Users\CYMR90~1\AppData\Local\Temp\ccLzUcmd.s:397    .text.exti_event_disable:000000000000002e .L0 
C:\Users\CYMR90~1\AppData\Local\Temp\ccLzUcmd.s:399    .text.exti_event_disable:0000000000000030 .L0 
C:\Users\CYMR90~1\AppData\Local\Temp\ccLzUcmd.s:406    .text.exti_software_interrupt_enable:0000000000000000 exti_software_interrupt_enable
C:\Users\CYMR90~1\AppData\Local\Temp\ccLzUcmd.s:409    .text.exti_software_interrupt_enable:0000000000000000 .L0 
C:\Users\CYMR90~1\AppData\Local\Temp\ccLzUcmd.s:410    .text.exti_software_interrupt_enable:0000000000000000 .L0 
C:\Users\CYMR90~1\AppData\Local\Temp\ccLzUcmd.s:411    .text.exti_software_interrupt_enable:0000000000000002 .L0 
C:\Users\CYMR90~1\AppData\Local\Temp\ccLzUcmd.s:413    .text.exti_software_interrupt_enable:0000000000000004 .L0 
C:\Users\CYMR90~1\AppData\Local\Temp\ccLzUcmd.s:415    .text.exti_software_interrupt_enable:0000000000000006 .L0 
C:\Users\CYMR90~1\AppData\Local\Temp\ccLzUcmd.s:418    .text.exti_software_interrupt_enable:000000000000000a .L0 
C:\Users\CYMR90~1\AppData\Local\Temp\ccLzUcmd.s:427    .text.exti_software_interrupt_enable:0000000000000024 .L0 
C:\Users\CYMR90~1\AppData\Local\Temp\ccLzUcmd.s:429    .text.exti_software_interrupt_enable:0000000000000028 .L0 
C:\Users\CYMR90~1\AppData\Local\Temp\ccLzUcmd.s:430    .text.exti_software_interrupt_enable:0000000000000028 .L0 
C:\Users\CYMR90~1\AppData\Local\Temp\ccLzUcmd.s:432    .text.exti_software_interrupt_enable:000000000000002a .L0 
C:\Users\CYMR90~1\AppData\Local\Temp\ccLzUcmd.s:434    .text.exti_software_interrupt_enable:000000000000002c .L0 
C:\Users\CYMR90~1\AppData\Local\Temp\ccLzUcmd.s:441    .text.exti_software_interrupt_disable:0000000000000000 exti_software_interrupt_disable
C:\Users\CYMR90~1\AppData\Local\Temp\ccLzUcmd.s:444    .text.exti_software_interrupt_disable:0000000000000000 .L0 
C:\Users\CYMR90~1\AppData\Local\Temp\ccLzUcmd.s:445    .text.exti_software_interrupt_disable:0000000000000000 .L0 
C:\Users\CYMR90~1\AppData\Local\Temp\ccLzUcmd.s:446    .text.exti_software_interrupt_disable:0000000000000002 .L0 
C:\Users\CYMR90~1\AppData\Local\Temp\ccLzUcmd.s:448    .text.exti_software_interrupt_disable:0000000000000004 .L0 
C:\Users\CYMR90~1\AppData\Local\Temp\ccLzUcmd.s:450    .text.exti_software_interrupt_disable:0000000000000006 .L0 
C:\Users\CYMR90~1\AppData\Local\Temp\ccLzUcmd.s:453    .text.exti_software_interrupt_disable:000000000000000a .L0 
C:\Users\CYMR90~1\AppData\Local\Temp\ccLzUcmd.s:457    .text.exti_software_interrupt_disable:0000000000000014 .L0 
C:\Users\CYMR90~1\AppData\Local\Temp\ccLzUcmd.s:460    .text.exti_software_interrupt_disable:000000000000001c .L0 
C:\Users\CYMR90~1\AppData\Local\Temp\ccLzUcmd.s:465    .text.exti_software_interrupt_disable:0000000000000028 .L0 
C:\Users\CYMR90~1\AppData\Local\Temp\ccLzUcmd.s:467    .text.exti_software_interrupt_disable:000000000000002c .L0 
C:\Users\CYMR90~1\AppData\Local\Temp\ccLzUcmd.s:468    .text.exti_software_interrupt_disable:000000000000002c .L0 
C:\Users\CYMR90~1\AppData\Local\Temp\ccLzUcmd.s:470    .text.exti_software_interrupt_disable:000000000000002e .L0 
C:\Users\CYMR90~1\AppData\Local\Temp\ccLzUcmd.s:472    .text.exti_software_interrupt_disable:0000000000000030 .L0 
C:\Users\CYMR90~1\AppData\Local\Temp\ccLzUcmd.s:479    .text.exti_flag_get:0000000000000000 exti_flag_get
C:\Users\CYMR90~1\AppData\Local\Temp\ccLzUcmd.s:482    .text.exti_flag_get:0000000000000000 .L0 
C:\Users\CYMR90~1\AppData\Local\Temp\ccLzUcmd.s:483    .text.exti_flag_get:0000000000000000 .L0 
C:\Users\CYMR90~1\AppData\Local\Temp\ccLzUcmd.s:484    .text.exti_flag_get:0000000000000002 .L0 
C:\Users\CYMR90~1\AppData\Local\Temp\ccLzUcmd.s:486    .text.exti_flag_get:0000000000000004 .L0 
C:\Users\CYMR90~1\AppData\Local\Temp\ccLzUcmd.s:488    .text.exti_flag_get:0000000000000006 .L0 
C:\Users\CYMR90~1\AppData\Local\Temp\ccLzUcmd.s:491    .text.exti_flag_get:000000000000000a .L0 
C:\Users\CYMR90~1\AppData\Local\Temp\ccLzUcmd.s:495    .text.exti_flag_get:0000000000000014 .L0 
C:\Users\CYMR90~1\AppData\Local\Temp\ccLzUcmd.s:498    .text.exti_flag_get:000000000000001a .L0 
C:\Users\CYMR90~1\AppData\Local\Temp\ccLzUcmd.s:500    .text.exti_flag_get:000000000000001c .L0 
C:\Users\CYMR90~1\AppData\Local\Temp\ccLzUcmd.s:504    .text.exti_flag_get:0000000000000020 .L0 
C:\Users\CYMR90~1\AppData\Local\Temp\ccLzUcmd.s:507    .text.exti_flag_get:0000000000000022 .L0 
C:\Users\CYMR90~1\AppData\Local\Temp\ccLzUcmd.s:509    .text.exti_flag_get:0000000000000026 .L0 
C:\Users\CYMR90~1\AppData\Local\Temp\ccLzUcmd.s:510    .text.exti_flag_get:0000000000000026 .L0 
C:\Users\CYMR90~1\AppData\Local\Temp\ccLzUcmd.s:512    .text.exti_flag_get:0000000000000028 .L0 
C:\Users\CYMR90~1\AppData\Local\Temp\ccLzUcmd.s:514    .text.exti_flag_get:000000000000002a .L0 
C:\Users\CYMR90~1\AppData\Local\Temp\ccLzUcmd.s:521    .text.exti_flag_clear:0000000000000000 exti_flag_clear
C:\Users\CYMR90~1\AppData\Local\Temp\ccLzUcmd.s:524    .text.exti_flag_clear:0000000000000000 .L0 
C:\Users\CYMR90~1\AppData\Local\Temp\ccLzUcmd.s:525    .text.exti_flag_clear:0000000000000000 .L0 
C:\Users\CYMR90~1\AppData\Local\Temp\ccLzUcmd.s:526    .text.exti_flag_clear:0000000000000002 .L0 
C:\Users\CYMR90~1\AppData\Local\Temp\ccLzUcmd.s:528    .text.exti_flag_clear:0000000000000004 .L0 
C:\Users\CYMR90~1\AppData\Local\Temp\ccLzUcmd.s:530    .text.exti_flag_clear:0000000000000006 .L0 
C:\Users\CYMR90~1\AppData\Local\Temp\ccLzUcmd.s:533    .text.exti_flag_clear:000000000000000a .L0 
C:\Users\CYMR90~1\AppData\Local\Temp\ccLzUcmd.s:536    .text.exti_flag_clear:0000000000000012 .L0 
C:\Users\CYMR90~1\AppData\Local\Temp\ccLzUcmd.s:539    .text.exti_flag_clear:0000000000000018 .L0 
C:\Users\CYMR90~1\AppData\Local\Temp\ccLzUcmd.s:541    .text.exti_flag_clear:000000000000001c .L0 
C:\Users\CYMR90~1\AppData\Local\Temp\ccLzUcmd.s:542    .text.exti_flag_clear:000000000000001c .L0 
C:\Users\CYMR90~1\AppData\Local\Temp\ccLzUcmd.s:544    .text.exti_flag_clear:000000000000001e .L0 
C:\Users\CYMR90~1\AppData\Local\Temp\ccLzUcmd.s:546    .text.exti_flag_clear:0000000000000020 .L0 
C:\Users\CYMR90~1\AppData\Local\Temp\ccLzUcmd.s:553    .text.exti_interrupt_flag_get:0000000000000000 exti_interrupt_flag_get
C:\Users\CYMR90~1\AppData\Local\Temp\ccLzUcmd.s:556    .text.exti_interrupt_flag_get:0000000000000000 .L0 
C:\Users\CYMR90~1\AppData\Local\Temp\ccLzUcmd.s:557    .text.exti_interrupt_flag_get:0000000000000000 .L0 
C:\Users\CYMR90~1\AppData\Local\Temp\ccLzUcmd.s:558    .text.exti_interrupt_flag_get:0000000000000002 .L0 
C:\Users\CYMR90~1\AppData\Local\Temp\ccLzUcmd.s:560    .text.exti_interrupt_flag_get:0000000000000004 .L0 
C:\Users\CYMR90~1\AppData\Local\Temp\ccLzUcmd.s:562    .text.exti_interrupt_flag_get:0000000000000006 .L0 
C:\Users\CYMR90~1\AppData\Local\Temp\ccLzUcmd.s:565    .text.exti_interrupt_flag_get:000000000000000a .L0 
C:\Users\CYMR90~1\AppData\Local\Temp\ccLzUcmd.s:569    .text.exti_interrupt_flag_get:0000000000000014 .L0 
C:\Users\CYMR90~1\AppData\Local\Temp\ccLzUcmd.s:572    .text.exti_interrupt_flag_get:000000000000001a .L0 
C:\Users\CYMR90~1\AppData\Local\Temp\ccLzUcmd.s:574    .text.exti_interrupt_flag_get:000000000000001c .L0 
C:\Users\CYMR90~1\AppData\Local\Temp\ccLzUcmd.s:578    .text.exti_interrupt_flag_get:0000000000000020 .L0 
C:\Users\CYMR90~1\AppData\Local\Temp\ccLzUcmd.s:581    .text.exti_interrupt_flag_get:0000000000000022 .L0 
C:\Users\CYMR90~1\AppData\Local\Temp\ccLzUcmd.s:583    .text.exti_interrupt_flag_get:0000000000000026 .L0 
C:\Users\CYMR90~1\AppData\Local\Temp\ccLzUcmd.s:584    .text.exti_interrupt_flag_get:0000000000000026 .L0 
C:\Users\CYMR90~1\AppData\Local\Temp\ccLzUcmd.s:586    .text.exti_interrupt_flag_get:0000000000000028 .L0 
C:\Users\CYMR90~1\AppData\Local\Temp\ccLzUcmd.s:588    .text.exti_interrupt_flag_get:000000000000002a .L0 
C:\Users\CYMR90~1\AppData\Local\Temp\ccLzUcmd.s:595    .text.exti_interrupt_flag_clear:0000000000000000 exti_interrupt_flag_clear
C:\Users\CYMR90~1\AppData\Local\Temp\ccLzUcmd.s:598    .text.exti_interrupt_flag_clear:0000000000000000 .L0 
C:\Users\CYMR90~1\AppData\Local\Temp\ccLzUcmd.s:599    .text.exti_interrupt_flag_clear:0000000000000000 .L0 
C:\Users\CYMR90~1\AppData\Local\Temp\ccLzUcmd.s:600    .text.exti_interrupt_flag_clear:0000000000000002 .L0 
C:\Users\CYMR90~1\AppData\Local\Temp\ccLzUcmd.s:602    .text.exti_interrupt_flag_clear:0000000000000004 .L0 
C:\Users\CYMR90~1\AppData\Local\Temp\ccLzUcmd.s:604    .text.exti_interrupt_flag_clear:0000000000000006 .L0 
C:\Users\CYMR90~1\AppData\Local\Temp\ccLzUcmd.s:607    .text.exti_interrupt_flag_clear:000000000000000a .L0 
C:\Users\CYMR90~1\AppData\Local\Temp\ccLzUcmd.s:610    .text.exti_interrupt_flag_clear:0000000000000012 .L0 
C:\Users\CYMR90~1\AppData\Local\Temp\ccLzUcmd.s:613    .text.exti_interrupt_flag_clear:0000000000000018 .L0 
C:\Users\CYMR90~1\AppData\Local\Temp\ccLzUcmd.s:615    .text.exti_interrupt_flag_clear:000000000000001c .L0 
C:\Users\CYMR90~1\AppData\Local\Temp\ccLzUcmd.s:616    .text.exti_interrupt_flag_clear:000000000000001c .L0 
C:\Users\CYMR90~1\AppData\Local\Temp\ccLzUcmd.s:618    .text.exti_interrupt_flag_clear:000000000000001e .L0 
C:\Users\CYMR90~1\AppData\Local\Temp\ccLzUcmd.s:620    .text.exti_interrupt_flag_clear:0000000000000020 .L0 
C:\Users\CYMR90~1\AppData\Local\Temp\ccLzUcmd.s:60     .text.exti_deinit:000000000000004a .L0 
C:\Users\CYMR90~1\AppData\Local\Temp\ccLzUcmd.s:256    .text.exti_init:00000000000001ae .L0 
C:\Users\CYMR90~1\AppData\Local\Temp\ccLzUcmd.s:291    .text.exti_interrupt_enable:000000000000002c .L0 
C:\Users\CYMR90~1\AppData\Local\Temp\ccLzUcmd.s:329    .text.exti_interrupt_disable:0000000000000030 .L0 
C:\Users\CYMR90~1\AppData\Local\Temp\ccLzUcmd.s:364    .text.exti_event_enable:000000000000002c .L0 
C:\Users\CYMR90~1\AppData\Local\Temp\ccLzUcmd.s:402    .text.exti_event_disable:0000000000000030 .L0 
C:\Users\CYMR90~1\AppData\Local\Temp\ccLzUcmd.s:437    .text.exti_software_interrupt_enable:000000000000002c .L0 
C:\Users\CYMR90~1\AppData\Local\Temp\ccLzUcmd.s:475    .text.exti_software_interrupt_disable:0000000000000030 .L0 
C:\Users\CYMR90~1\AppData\Local\Temp\ccLzUcmd.s:517    .text.exti_flag_get:000000000000002a .L0 
C:\Users\CYMR90~1\AppData\Local\Temp\ccLzUcmd.s:549    .text.exti_flag_clear:0000000000000020 .L0 
C:\Users\CYMR90~1\AppData\Local\Temp\ccLzUcmd.s:591    .text.exti_interrupt_flag_get:000000000000002a .L0 
C:\Users\CYMR90~1\AppData\Local\Temp\ccLzUcmd.s:623    .text.exti_interrupt_flag_clear:0000000000000020 .L0 
                     .debug_frame:0000000000000000 .L0 
C:\Users\CYMR90~1\AppData\Local\Temp\ccLzUcmd.s:133    .text.exti_init:000000000000009c .L3
C:\Users\CYMR90~1\AppData\Local\Temp\ccLzUcmd.s:145    .text.exti_init:00000000000000b8 .L4
C:\Users\CYMR90~1\AppData\Local\Temp\ccLzUcmd.s:157    .text.exti_init:00000000000000d4 .L6
C:\Users\CYMR90~1\AppData\Local\Temp\ccLzUcmd.s:220    .text.exti_init:000000000000016e .L7
C:\Users\CYMR90~1\AppData\Local\Temp\ccLzUcmd.s:241    .text.exti_init:00000000000001a4 .L12
C:\Users\CYMR90~1\AppData\Local\Temp\ccLzUcmd.s:172    .text.exti_init:00000000000000fa .L9
C:\Users\CYMR90~1\AppData\Local\Temp\ccLzUcmd.s:196    .text.exti_init:0000000000000134 .L10
C:\Users\CYMR90~1\AppData\Local\Temp\ccLzUcmd.s:244    .text.exti_init:00000000000001a6 .L11
C:\Users\CYMR90~1\AppData\Local\Temp\ccLzUcmd.s:502    .text.exti_flag_get:0000000000000020 .L20
C:\Users\CYMR90~1\AppData\Local\Temp\ccLzUcmd.s:505    .text.exti_flag_get:0000000000000022 .L21
C:\Users\CYMR90~1\AppData\Local\Temp\ccLzUcmd.s:576    .text.exti_interrupt_flag_get:0000000000000020 .L24
C:\Users\CYMR90~1\AppData\Local\Temp\ccLzUcmd.s:579    .text.exti_interrupt_flag_get:0000000000000022 .L25
C:\Users\CYMR90~1\AppData\Local\Temp\ccLzUcmd.s:1114   .debug_abbrev:0000000000000000 .Ldebug_abbrev0
C:\Users\CYMR90~1\AppData\Local\Temp\ccLzUcmd.s:21794  .debug_str:000000000000ae38 .LASF5619
C:\Users\CYMR90~1\AppData\Local\Temp\ccLzUcmd.s:27463  .debug_str:0000000000021a29 .LASF5620
C:\Users\CYMR90~1\AppData\Local\Temp\ccLzUcmd.s:24728  .debug_str:0000000000016922 .LASF5621
C:\Users\CYMR90~1\AppData\Local\Temp\ccLzUcmd.s:1377   .debug_ranges:0000000000000000 .Ldebug_ranges0
C:\Users\CYMR90~1\AppData\Local\Temp\ccLzUcmd.s:19044  .debug_line:0000000000000000 .Ldebug_line0
C:\Users\CYMR90~1\AppData\Local\Temp\ccLzUcmd.s:1405   .debug_macro:0000000000000000 .Ldebug_macro0
C:\Users\CYMR90~1\AppData\Local\Temp\ccLzUcmd.s:30253  .debug_str:000000000002cd9a .LASF5557
C:\Users\CYMR90~1\AppData\Local\Temp\ccLzUcmd.s:19062  .debug_str:000000000000011c .LASF5558
C:\Users\CYMR90~1\AppData\Local\Temp\ccLzUcmd.s:19988  .debug_str:0000000000003aae .LASF5559
C:\Users\CYMR90~1\AppData\Local\Temp\ccLzUcmd.s:22352  .debug_str:000000000000d45f .LASF5560
C:\Users\CYMR90~1\AppData\Local\Temp\ccLzUcmd.s:24638  .debug_str:00000000000163b9 .LASF5561
C:\Users\CYMR90~1\AppData\Local\Temp\ccLzUcmd.s:26507  .debug_str:000000000001dfb8 .LASF5562
C:\Users\CYMR90~1\AppData\Local\Temp\ccLzUcmd.s:28095  .debug_str:000000000002409a .LASF5563
C:\Users\CYMR90~1\AppData\Local\Temp\ccLzUcmd.s:26907  .debug_str:000000000001f7ef .LASF5564
C:\Users\CYMR90~1\AppData\Local\Temp\ccLzUcmd.s:25405  .debug_str:00000000000195b1 .LASF5567
C:\Users\CYMR90~1\AppData\Local\Temp\ccLzUcmd.s:19180  .debug_str:0000000000000801 .LASF5565
C:\Users\CYMR90~1\AppData\Local\Temp\ccLzUcmd.s:28437  .debug_str:000000000002589c .LASF5566
C:\Users\CYMR90~1\AppData\Local\Temp\ccLzUcmd.s:26929  .debug_str:000000000001f959 .LASF855
C:\Users\CYMR90~1\AppData\Local\Temp\ccLzUcmd.s:28547  .debug_str:0000000000025f79 .LASF5568
C:\Users\CYMR90~1\AppData\Local\Temp\ccLzUcmd.s:28135  .debug_str:0000000000024382 .LASF5569
C:\Users\CYMR90~1\AppData\Local\Temp\ccLzUcmd.s:21644  .debug_str:000000000000a4fd .LASF5570
C:\Users\CYMR90~1\AppData\Local\Temp\ccLzUcmd.s:22416  .debug_str:000000000000d814 .LASF5571
C:\Users\CYMR90~1\AppData\Local\Temp\ccLzUcmd.s:24662  .debug_str:0000000000016583 .LASF5572
C:\Users\CYMR90~1\AppData\Local\Temp\ccLzUcmd.s:24664  .debug_str:000000000001658a .LASF5573
C:\Users\CYMR90~1\AppData\Local\Temp\ccLzUcmd.s:24666  .debug_str:0000000000016591 .LASF5574
C:\Users\CYMR90~1\AppData\Local\Temp\ccLzUcmd.s:24668  .debug_str:0000000000016598 .LASF5575
C:\Users\CYMR90~1\AppData\Local\Temp\ccLzUcmd.s:24670  .debug_str:000000000001659f .LASF5576
C:\Users\CYMR90~1\AppData\Local\Temp\ccLzUcmd.s:24672  .debug_str:00000000000165a6 .LASF5577
C:\Users\CYMR90~1\AppData\Local\Temp\ccLzUcmd.s:20146  .debug_str:0000000000004548 .LASF5578
C:\Users\CYMR90~1\AppData\Local\Temp\ccLzUcmd.s:24676  .debug_str:00000000000165c4 .LASF5579
C:\Users\CYMR90~1\AppData\Local\Temp\ccLzUcmd.s:22440  .debug_str:000000000000d950 .LASF5580
C:\Users\CYMR90~1\AppData\Local\Temp\ccLzUcmd.s:22998  .debug_str:000000000000fbeb .LASF5581
C:\Users\CYMR90~1\AppData\Local\Temp\ccLzUcmd.s:23000  .debug_str:000000000000fbf3 .LASF5582
C:\Users\CYMR90~1\AppData\Local\Temp\ccLzUcmd.s:23002  .debug_str:000000000000fbfb .LASF5583
C:\Users\CYMR90~1\AppData\Local\Temp\ccLzUcmd.s:23004  .debug_str:000000000000fc03 .LASF5584
C:\Users\CYMR90~1\AppData\Local\Temp\ccLzUcmd.s:23006  .debug_str:000000000000fc0b .LASF5585
C:\Users\CYMR90~1\AppData\Local\Temp\ccLzUcmd.s:23008  .debug_str:000000000000fc13 .LASF5586
C:\Users\CYMR90~1\AppData\Local\Temp\ccLzUcmd.s:23010  .debug_str:000000000000fc1b .LASF5587
C:\Users\CYMR90~1\AppData\Local\Temp\ccLzUcmd.s:23012  .debug_str:000000000000fc23 .LASF5588
C:\Users\CYMR90~1\AppData\Local\Temp\ccLzUcmd.s:23014  .debug_str:000000000000fc2b .LASF5589
C:\Users\CYMR90~1\AppData\Local\Temp\ccLzUcmd.s:23100  .debug_str:00000000000101b6 .LASF5590
C:\Users\CYMR90~1\AppData\Local\Temp\ccLzUcmd.s:23102  .debug_str:00000000000101be .LASF5591
C:\Users\CYMR90~1\AppData\Local\Temp\ccLzUcmd.s:23104  .debug_str:00000000000101c6 .LASF5592
C:\Users\CYMR90~1\AppData\Local\Temp\ccLzUcmd.s:23106  .debug_str:00000000000101ce .LASF5593
C:\Users\CYMR90~1\AppData\Local\Temp\ccLzUcmd.s:23108  .debug_str:00000000000101d6 .LASF5594
C:\Users\CYMR90~1\AppData\Local\Temp\ccLzUcmd.s:23110  .debug_str:00000000000101de .LASF5595
C:\Users\CYMR90~1\AppData\Local\Temp\ccLzUcmd.s:19530  .debug_str:0000000000001e07 .LASF5596
C:\Users\CYMR90~1\AppData\Local\Temp\ccLzUcmd.s:23946  .debug_str:000000000001388c .LASF5597
C:\Users\CYMR90~1\AppData\Local\Temp\ccLzUcmd.s:23526  .debug_str:0000000000011ca2 .LASF5598
C:\Users\CYMR90~1\AppData\Local\Temp\ccLzUcmd.s:23240  .debug_str:00000000000109b5 .LASF5599
C:\Users\CYMR90~1\AppData\Local\Temp\ccLzUcmd.s:26469  .debug_str:000000000001dcba .LASF5600
C:\Users\CYMR90~1\AppData\Local\Temp\ccLzUcmd.s:27857  .debug_str:000000000002313a .LASF5601
C:\Users\CYMR90~1\AppData\Local\Temp\ccLzUcmd.s:28331  .debug_str:000000000002507f .LASF5602
C:\Users\CYMR90~1\AppData\Local\Temp\ccLzUcmd.s:23566  .debug_str:0000000000011f43 .LASF5603
C:\Users\CYMR90~1\AppData\Local\Temp\ccLzUcmd.s:28787  .debug_str:0000000000026dfb .LASF5604
C:\Users\CYMR90~1\AppData\Local\Temp\ccLzUcmd.s:19482  .debug_str:0000000000001b0f .LASF5606
C:\Users\CYMR90~1\AppData\Local\Temp\ccLzUcmd.s:596    .text.exti_interrupt_flag_clear:0000000000000000 .LFB358
C:\Users\CYMR90~1\AppData\Local\Temp\ccLzUcmd.s:621    .text.exti_interrupt_flag_clear:0000000000000020 .LFE358
C:\Users\CYMR90~1\AppData\Local\Temp\ccLzUcmd.s:27449  .debug_str:0000000000021932 .LASF5605
C:\Users\CYMR90~1\AppData\Local\Temp\ccLzUcmd.s:20728  .debug_str:000000000000698d .LASF5608
C:\Users\CYMR90~1\AppData\Local\Temp\ccLzUcmd.s:554    .text.exti_interrupt_flag_get:0000000000000000 .LFB357
C:\Users\CYMR90~1\AppData\Local\Temp\ccLzUcmd.s:589    .text.exti_interrupt_flag_get:000000000000002a .LFE357
C:\Users\CYMR90~1\AppData\Local\Temp\ccLzUcmd.s:29991  .debug_str:000000000002bb80 .LASF5607
C:\Users\CYMR90~1\AppData\Local\Temp\ccLzUcmd.s:522    .text.exti_flag_clear:0000000000000000 .LFB356
C:\Users\CYMR90~1\AppData\Local\Temp\ccLzUcmd.s:547    .text.exti_flag_clear:0000000000000020 .LFE356
C:\Users\CYMR90~1\AppData\Local\Temp\ccLzUcmd.s:22114  .debug_str:000000000000c3ab .LASF5609
C:\Users\CYMR90~1\AppData\Local\Temp\ccLzUcmd.s:480    .text.exti_flag_get:0000000000000000 .LFB355
C:\Users\CYMR90~1\AppData\Local\Temp\ccLzUcmd.s:515    .text.exti_flag_get:000000000000002a .LFE355
C:\Users\CYMR90~1\AppData\Local\Temp\ccLzUcmd.s:22808  .debug_str:000000000000efd3 .LASF5610
C:\Users\CYMR90~1\AppData\Local\Temp\ccLzUcmd.s:442    .text.exti_software_interrupt_disable:0000000000000000 .LFB354
C:\Users\CYMR90~1\AppData\Local\Temp\ccLzUcmd.s:473    .text.exti_software_interrupt_disable:0000000000000030 .LFE354
C:\Users\CYMR90~1\AppData\Local\Temp\ccLzUcmd.s:19262  .debug_str:0000000000000d2e .LASF5611
C:\Users\CYMR90~1\AppData\Local\Temp\ccLzUcmd.s:407    .text.exti_software_interrupt_enable:0000000000000000 .LFB353
C:\Users\CYMR90~1\AppData\Local\Temp\ccLzUcmd.s:435    .text.exti_software_interrupt_enable:000000000000002c .LFE353
C:\Users\CYMR90~1\AppData\Local\Temp\ccLzUcmd.s:26997  .debug_str:000000000001fd56 .LASF5612
C:\Users\CYMR90~1\AppData\Local\Temp\ccLzUcmd.s:369    .text.exti_event_disable:0000000000000000 .LFB352
C:\Users\CYMR90~1\AppData\Local\Temp\ccLzUcmd.s:400    .text.exti_event_disable:0000000000000030 .LFE352
C:\Users\CYMR90~1\AppData\Local\Temp\ccLzUcmd.s:29323  .debug_str:000000000002914c .LASF5613
C:\Users\CYMR90~1\AppData\Local\Temp\ccLzUcmd.s:334    .text.exti_event_enable:0000000000000000 .LFB351
C:\Users\CYMR90~1\AppData\Local\Temp\ccLzUcmd.s:362    .text.exti_event_enable:000000000000002c .LFE351
C:\Users\CYMR90~1\AppData\Local\Temp\ccLzUcmd.s:19976  .debug_str:00000000000039bd .LASF5614
C:\Users\CYMR90~1\AppData\Local\Temp\ccLzUcmd.s:296    .text.exti_interrupt_disable:0000000000000000 .LFB350
C:\Users\CYMR90~1\AppData\Local\Temp\ccLzUcmd.s:327    .text.exti_interrupt_disable:0000000000000030 .LFE350
C:\Users\CYMR90~1\AppData\Local\Temp\ccLzUcmd.s:25197  .debug_str:000000000001875f .LASF5615
C:\Users\CYMR90~1\AppData\Local\Temp\ccLzUcmd.s:261    .text.exti_interrupt_enable:0000000000000000 .LFB349
C:\Users\CYMR90~1\AppData\Local\Temp\ccLzUcmd.s:289    .text.exti_interrupt_enable:000000000000002c .LFE349
C:\Users\CYMR90~1\AppData\Local\Temp\ccLzUcmd.s:29043  .debug_str:0000000000027f15 .LASF5616
C:\Users\CYMR90~1\AppData\Local\Temp\ccLzUcmd.s:65     .text.exti_init:0000000000000000 .LFB348
C:\Users\CYMR90~1\AppData\Local\Temp\ccLzUcmd.s:254    .text.exti_init:00000000000001ae .LFE348
C:\Users\CYMR90~1\AppData\Local\Temp\ccLzUcmd.s:29513  .debug_str:0000000000029d7d .LASF5617
C:\Users\CYMR90~1\AppData\Local\Temp\ccLzUcmd.s:28295  .debug_str:0000000000024e12 .LASF5618
C:\Users\CYMR90~1\AppData\Local\Temp\ccLzUcmd.s:24999  .debug_str:0000000000017b9e .LASF5622
C:\Users\CYMR90~1\AppData\Local\Temp\ccLzUcmd.s:14     .text.exti_deinit:0000000000000000 .LFB347
C:\Users\CYMR90~1\AppData\Local\Temp\ccLzUcmd.s:58     .text.exti_deinit:000000000000004a .LFE347
C:\Users\CYMR90~1\AppData\Local\Temp\ccLzUcmd.s:630    .debug_info:0000000000000000 .Ldebug_info0
C:\Users\CYMR90~1\AppData\Local\Temp\ccLzUcmd.s:2029   .debug_macro:0000000000000000 .Ldebug_macro2
C:\Users\CYMR90~1\AppData\Local\Temp\ccLzUcmd.s:28885  .debug_str:0000000000027487 .LASF314
C:\Users\CYMR90~1\AppData\Local\Temp\ccLzUcmd.s:24811  .debug_str:0000000000017019 .LASF315
C:\Users\CYMR90~1\AppData\Local\Temp\ccLzUcmd.s:2976   .debug_macro:0000000000000000 .Ldebug_macro3
C:\Users\CYMR90~1\AppData\Local\Temp\ccLzUcmd.s:21232  .debug_str:0000000000008af0 .LASF369
C:\Users\CYMR90~1\AppData\Local\Temp\ccLzUcmd.s:20790  .debug_str:0000000000006d56 .LASF370
C:\Users\CYMR90~1\AppData\Local\Temp\ccLzUcmd.s:25069  .debug_str:0000000000017fc3 .LASF371
C:\Users\CYMR90~1\AppData\Local\Temp\ccLzUcmd.s:3140   .debug_macro:0000000000000000 .Ldebug_macro4
C:\Users\CYMR90~1\AppData\Local\Temp\ccLzUcmd.s:3160   .debug_macro:0000000000000000 .Ldebug_macro5
C:\Users\CYMR90~1\AppData\Local\Temp\ccLzUcmd.s:23700  .debug_str:00000000000127f1 .LASF390
C:\Users\CYMR90~1\AppData\Local\Temp\ccLzUcmd.s:3204   .debug_macro:0000000000000000 .Ldebug_macro6
C:\Users\CYMR90~1\AppData\Local\Temp\ccLzUcmd.s:3218   .debug_macro:0000000000000000 .Ldebug_macro7
C:\Users\CYMR90~1\AppData\Local\Temp\ccLzUcmd.s:3286   .debug_macro:0000000000000000 .Ldebug_macro8
C:\Users\CYMR90~1\AppData\Local\Temp\ccLzUcmd.s:3312   .debug_macro:0000000000000000 .Ldebug_macro9
C:\Users\CYMR90~1\AppData\Local\Temp\ccLzUcmd.s:3341   .debug_macro:0000000000000000 .Ldebug_macro10
C:\Users\CYMR90~1\AppData\Local\Temp\ccLzUcmd.s:25209  .debug_str:0000000000018856 .LASF433
C:\Users\CYMR90~1\AppData\Local\Temp\ccLzUcmd.s:3355   .debug_macro:0000000000000000 .Ldebug_macro11
C:\Users\CYMR90~1\AppData\Local\Temp\ccLzUcmd.s:3399   .debug_macro:0000000000000000 .Ldebug_macro12
C:\Users\CYMR90~1\AppData\Local\Temp\ccLzUcmd.s:3425   .debug_macro:0000000000000000 .Ldebug_macro13
C:\Users\CYMR90~1\AppData\Local\Temp\ccLzUcmd.s:28705  .debug_str:000000000002690a .LASF569
C:\Users\CYMR90~1\AppData\Local\Temp\ccLzUcmd.s:3796   .debug_macro:0000000000000000 .Ldebug_macro14
C:\Users\CYMR90~1\AppData\Local\Temp\ccLzUcmd.s:23226  .debug_str:000000000001089e .LASF572
C:\Users\CYMR90~1\AppData\Local\Temp\ccLzUcmd.s:28059  .debug_str:0000000000023d9a .LASF573
C:\Users\CYMR90~1\AppData\Local\Temp\ccLzUcmd.s:3807   .debug_macro:0000000000000000 .Ldebug_macro15
C:\Users\CYMR90~1\AppData\Local\Temp\ccLzUcmd.s:3821   .debug_macro:0000000000000000 .Ldebug_macro16
C:\Users\CYMR90~1\AppData\Local\Temp\ccLzUcmd.s:19752  .debug_str:0000000000002b6d .LASF578
C:\Users\CYMR90~1\AppData\Local\Temp\ccLzUcmd.s:3853   .debug_macro:0000000000000000 .Ldebug_macro17
C:\Users\CYMR90~1\AppData\Local\Temp\ccLzUcmd.s:3879   .debug_macro:0000000000000000 .Ldebug_macro18
C:\Users\CYMR90~1\AppData\Local\Temp\ccLzUcmd.s:3890   .debug_macro:0000000000000000 .Ldebug_macro19
C:\Users\CYMR90~1\AppData\Local\Temp\ccLzUcmd.s:3934   .debug_macro:0000000000000000 .Ldebug_macro20
C:\Users\CYMR90~1\AppData\Local\Temp\ccLzUcmd.s:4104   .debug_macro:0000000000000000 .Ldebug_macro21
C:\Users\CYMR90~1\AppData\Local\Temp\ccLzUcmd.s:4115   .debug_macro:0000000000000000 .Ldebug_macro22
C:\Users\CYMR90~1\AppData\Local\Temp\ccLzUcmd.s:23952  .debug_str:00000000000138cc .LASF675
C:\Users\CYMR90~1\AppData\Local\Temp\ccLzUcmd.s:4171   .debug_macro:0000000000000000 .Ldebug_macro23
C:\Users\CYMR90~1\AppData\Local\Temp\ccLzUcmd.s:4188   .debug_macro:0000000000000000 .Ldebug_macro24
C:\Users\CYMR90~1\AppData\Local\Temp\ccLzUcmd.s:26899  .debug_str:000000000001f77f .LASF693
C:\Users\CYMR90~1\AppData\Local\Temp\ccLzUcmd.s:25075  .debug_str:0000000000017ff4 .LASF694
C:\Users\CYMR90~1\AppData\Local\Temp\ccLzUcmd.s:4232   .debug_macro:0000000000000000 .Ldebug_macro25
C:\Users\CYMR90~1\AppData\Local\Temp\ccLzUcmd.s:20246  .debug_str:0000000000004c45 .LASF700
C:\Users\CYMR90~1\AppData\Local\Temp\ccLzUcmd.s:21370  .debug_str:0000000000009365 .LASF701
C:\Users\CYMR90~1\AppData\Local\Temp\ccLzUcmd.s:4252   .debug_macro:0000000000000000 .Ldebug_macro26
C:\Users\CYMR90~1\AppData\Local\Temp\ccLzUcmd.s:4263   .debug_macro:0000000000000000 .Ldebug_macro27
C:\Users\CYMR90~1\AppData\Local\Temp\ccLzUcmd.s:4307   .debug_macro:0000000000000000 .Ldebug_macro28
C:\Users\CYMR90~1\AppData\Local\Temp\ccLzUcmd.s:27495  .debug_str:0000000000021c41 .LASF749
C:\Users\CYMR90~1\AppData\Local\Temp\ccLzUcmd.s:4408   .debug_macro:0000000000000000 .Ldebug_macro29
C:\Users\CYMR90~1\AppData\Local\Temp\ccLzUcmd.s:4425   .debug_macro:0000000000000000 .Ldebug_macro30
C:\Users\CYMR90~1\AppData\Local\Temp\ccLzUcmd.s:19110  .debug_str:0000000000000402 .LASF763
C:\Users\CYMR90~1\AppData\Local\Temp\ccLzUcmd.s:20426  .debug_str:000000000000572a .LASF764
C:\Users\CYMR90~1\AppData\Local\Temp\ccLzUcmd.s:4457   .debug_macro:0000000000000000 .Ldebug_macro31
C:\Users\CYMR90~1\AppData\Local\Temp\ccLzUcmd.s:4471   .debug_macro:0000000000000000 .Ldebug_macro32
C:\Users\CYMR90~1\AppData\Local\Temp\ccLzUcmd.s:4641   .debug_macro:0000000000000000 .Ldebug_macro33
C:\Users\CYMR90~1\AppData\Local\Temp\ccLzUcmd.s:22878  .debug_str:000000000000f430 .LASF850
C:\Users\CYMR90~1\AppData\Local\Temp\ccLzUcmd.s:25295  .debug_str:0000000000018e62 .LASF851
C:\Users\CYMR90~1\AppData\Local\Temp\ccLzUcmd.s:4727   .debug_macro:0000000000000000 .Ldebug_macro34
C:\Users\CYMR90~1\AppData\Local\Temp\ccLzUcmd.s:4852   .debug_macro:0000000000000000 .Ldebug_macro35
C:\Users\CYMR90~1\AppData\Local\Temp\ccLzUcmd.s:19396  .debug_str:000000000000154d .LASF951
C:\Users\CYMR90~1\AppData\Local\Temp\ccLzUcmd.s:5064   .debug_macro:0000000000000000 .Ldebug_macro36
C:\Users\CYMR90~1\AppData\Local\Temp\ccLzUcmd.s:21120  .debug_str:0000000000008453 .LASF957
C:\Users\CYMR90~1\AppData\Local\Temp\ccLzUcmd.s:20666  .debug_str:000000000000657c .LASF958
C:\Users\CYMR90~1\AppData\Local\Temp\ccLzUcmd.s:19568  .debug_str:0000000000002048 .LASF959
C:\Users\CYMR90~1\AppData\Local\Temp\ccLzUcmd.s:5084   .debug_macro:0000000000000000 .Ldebug_macro37
C:\Users\CYMR90~1\AppData\Local\Temp\ccLzUcmd.s:5176   .debug_macro:0000000000000000 .Ldebug_macro38
C:\Users\CYMR90~1\AppData\Local\Temp\ccLzUcmd.s:6822   .debug_macro:0000000000000000 .Ldebug_macro39
C:\Users\CYMR90~1\AppData\Local\Temp\ccLzUcmd.s:6914   .debug_macro:0000000000000000 .Ldebug_macro40
C:\Users\CYMR90~1\AppData\Local\Temp\ccLzUcmd.s:6970   .debug_macro:0000000000000000 .Ldebug_macro41
C:\Users\CYMR90~1\AppData\Local\Temp\ccLzUcmd.s:6984   .debug_macro:0000000000000000 .Ldebug_macro42
C:\Users\CYMR90~1\AppData\Local\Temp\ccLzUcmd.s:24600  .debug_str:000000000001618d .LASF1655
C:\Users\CYMR90~1\AppData\Local\Temp\ccLzUcmd.s:21492  .debug_str:0000000000009b56 .LASF1656
C:\Users\CYMR90~1\AppData\Local\Temp\ccLzUcmd.s:7208   .debug_macro:0000000000000000 .Ldebug_macro43
C:\Users\CYMR90~1\AppData\Local\Temp\ccLzUcmd.s:7255   .debug_macro:0000000000000000 .Ldebug_macro44
C:\Users\CYMR90~1\AppData\Local\Temp\ccLzUcmd.s:7410   .debug_macro:0000000000000000 .Ldebug_macro45
C:\Users\CYMR90~1\AppData\Local\Temp\ccLzUcmd.s:7466   .debug_macro:0000000000000000 .Ldebug_macro46
C:\Users\CYMR90~1\AppData\Local\Temp\ccLzUcmd.s:7477   .debug_macro:0000000000000000 .Ldebug_macro47
C:\Users\CYMR90~1\AppData\Local\Temp\ccLzUcmd.s:29495  .debug_str:0000000000029ca1 .LASF1782
C:\Users\CYMR90~1\AppData\Local\Temp\ccLzUcmd.s:24366  .debug_str:0000000000015308 .LASF1783
C:\Users\CYMR90~1\AppData\Local\Temp\ccLzUcmd.s:7608   .debug_macro:0000000000000000 .Ldebug_macro48
C:\Users\CYMR90~1\AppData\Local\Temp\ccLzUcmd.s:8180   .debug_macro:0000000000000000 .Ldebug_macro49
C:\Users\CYMR90~1\AppData\Local\Temp\ccLzUcmd.s:8467   .debug_macro:0000000000000000 .Ldebug_macro50
C:\Users\CYMR90~1\AppData\Local\Temp\ccLzUcmd.s:8496   .debug_macro:0000000000000000 .Ldebug_macro51
C:\Users\CYMR90~1\AppData\Local\Temp\ccLzUcmd.s:8573   .debug_macro:0000000000000000 .Ldebug_macro52
C:\Users\CYMR90~1\AppData\Local\Temp\ccLzUcmd.s:9106   .debug_macro:0000000000000000 .Ldebug_macro53
C:\Users\CYMR90~1\AppData\Local\Temp\ccLzUcmd.s:9129   .debug_macro:0000000000000000 .Ldebug_macro54
C:\Users\CYMR90~1\AppData\Local\Temp\ccLzUcmd.s:9395   .debug_macro:0000000000000000 .Ldebug_macro55
C:\Users\CYMR90~1\AppData\Local\Temp\ccLzUcmd.s:9724   .debug_macro:0000000000000000 .Ldebug_macro56
C:\Users\CYMR90~1\AppData\Local\Temp\ccLzUcmd.s:9813   .debug_macro:0000000000000000 .Ldebug_macro57
C:\Users\CYMR90~1\AppData\Local\Temp\ccLzUcmd.s:10628  .debug_macro:0000000000000000 .Ldebug_macro58
C:\Users\CYMR90~1\AppData\Local\Temp\ccLzUcmd.s:10819  .debug_macro:0000000000000000 .Ldebug_macro59
C:\Users\CYMR90~1\AppData\Local\Temp\ccLzUcmd.s:11322  .debug_macro:0000000000000000 .Ldebug_macro60
C:\Users\CYMR90~1\AppData\Local\Temp\ccLzUcmd.s:11468  .debug_macro:0000000000000000 .Ldebug_macro61
C:\Users\CYMR90~1\AppData\Local\Temp\ccLzUcmd.s:11998  .debug_macro:0000000000000000 .Ldebug_macro62
C:\Users\CYMR90~1\AppData\Local\Temp\ccLzUcmd.s:12420  .debug_macro:0000000000000000 .Ldebug_macro63
C:\Users\CYMR90~1\AppData\Local\Temp\ccLzUcmd.s:15194  .debug_macro:0000000000000000 .Ldebug_macro64
C:\Users\CYMR90~1\AppData\Local\Temp\ccLzUcmd.s:16270  .debug_macro:0000000000000000 .Ldebug_macro65
C:\Users\CYMR90~1\AppData\Local\Temp\ccLzUcmd.s:16539  .debug_macro:0000000000000000 .Ldebug_macro66
C:\Users\CYMR90~1\AppData\Local\Temp\ccLzUcmd.s:16811  .debug_macro:0000000000000000 .Ldebug_macro67
C:\Users\CYMR90~1\AppData\Local\Temp\ccLzUcmd.s:17839  .debug_macro:0000000000000000 .Ldebug_macro68
C:\Users\CYMR90~1\AppData\Local\Temp\ccLzUcmd.s:17883  .debug_macro:0000000000000000 .Ldebug_macro69
C:\Users\CYMR90~1\AppData\Local\Temp\ccLzUcmd.s:18509  .debug_macro:0000000000000000 .Ldebug_macro70
C:\Users\CYMR90~1\AppData\Local\Temp\ccLzUcmd.s:18568  .debug_macro:0000000000000000 .Ldebug_macro71
C:\Users\CYMR90~1\AppData\Local\Temp\ccLzUcmd.s:28793  .debug_str:0000000000026e47 .LASF5556
C:\Users\CYMR90~1\AppData\Local\Temp\ccLzUcmd.s:20408  .debug_str:00000000000055ef .LASF0
C:\Users\CYMR90~1\AppData\Local\Temp\ccLzUcmd.s:29111  .debug_str:000000000002840c .LASF1
C:\Users\CYMR90~1\AppData\Local\Temp\ccLzUcmd.s:23046  .debug_str:000000000000fe52 .LASF2
C:\Users\CYMR90~1\AppData\Local\Temp\ccLzUcmd.s:23112  .debug_str:00000000000101e6 .LASF3
C:\Users\CYMR90~1\AppData\Local\Temp\ccLzUcmd.s:24412  .debug_str:000000000001557a .LASF4
C:\Users\CYMR90~1\AppData\Local\Temp\ccLzUcmd.s:29891  .debug_str:000000000002b4ec .LASF5
C:\Users\CYMR90~1\AppData\Local\Temp\ccLzUcmd.s:20642  .debug_str:0000000000006431 .LASF6
C:\Users\CYMR90~1\AppData\Local\Temp\ccLzUcmd.s:29215  .debug_str:0000000000028acf .LASF7
C:\Users\CYMR90~1\AppData\Local\Temp\ccLzUcmd.s:28175  .debug_str:0000000000024610 .LASF8
C:\Users\CYMR90~1\AppData\Local\Temp\ccLzUcmd.s:26129  .debug_str:000000000001c5b9 .LASF9
C:\Users\CYMR90~1\AppData\Local\Temp\ccLzUcmd.s:25485  .debug_str:0000000000019bd0 .LASF10
C:\Users\CYMR90~1\AppData\Local\Temp\ccLzUcmd.s:25349  .debug_str:0000000000019258 .LASF11
C:\Users\CYMR90~1\AppData\Local\Temp\ccLzUcmd.s:29729  .debug_str:000000000002aa72 .LASF12
C:\Users\CYMR90~1\AppData\Local\Temp\ccLzUcmd.s:25361  .debug_str:000000000001930c .LASF13
C:\Users\CYMR90~1\AppData\Local\Temp\ccLzUcmd.s:21648  .debug_str:000000000000a527 .LASF14
C:\Users\CYMR90~1\AppData\Local\Temp\ccLzUcmd.s:26699  .debug_str:000000000001eb3f .LASF15
C:\Users\CYMR90~1\AppData\Local\Temp\ccLzUcmd.s:27431  .debug_str:0000000000021853 .LASF16
C:\Users\CYMR90~1\AppData\Local\Temp\ccLzUcmd.s:21694  .debug_str:000000000000a7eb .LASF17
C:\Users\CYMR90~1\AppData\Local\Temp\ccLzUcmd.s:28451  .debug_str:0000000000025979 .LASF18
C:\Users\CYMR90~1\AppData\Local\Temp\ccLzUcmd.s:22654  .debug_str:000000000000e684 .LASF19
C:\Users\CYMR90~1\AppData\Local\Temp\ccLzUcmd.s:19738  .debug_str:0000000000002a9a .LASF20
C:\Users\CYMR90~1\AppData\Local\Temp\ccLzUcmd.s:25163  .debug_str:0000000000018586 .LASF21
C:\Users\CYMR90~1\AppData\Local\Temp\ccLzUcmd.s:25161  .debug_str:000000000001856c .LASF22
C:\Users\CYMR90~1\AppData\Local\Temp\ccLzUcmd.s:27735  .debug_str:0000000000022a81 .LASF23
C:\Users\CYMR90~1\AppData\Local\Temp\ccLzUcmd.s:26081  .debug_str:000000000001c31e .LASF24
C:\Users\CYMR90~1\AppData\Local\Temp\ccLzUcmd.s:19964  .debug_str:000000000000390f .LASF25
C:\Users\CYMR90~1\AppData\Local\Temp\ccLzUcmd.s:24534  .debug_str:0000000000015d0a .LASF26
C:\Users\CYMR90~1\AppData\Local\Temp\ccLzUcmd.s:27739  .debug_str:0000000000022ab7 .LASF27
C:\Users\CYMR90~1\AppData\Local\Temp\ccLzUcmd.s:27439  .debug_str:00000000000218b0 .LASF28
C:\Users\CYMR90~1\AppData\Local\Temp\ccLzUcmd.s:20358  .debug_str:0000000000005306 .LASF29
C:\Users\CYMR90~1\AppData\Local\Temp\ccLzUcmd.s:26483  .debug_str:000000000001de10 .LASF30
C:\Users\CYMR90~1\AppData\Local\Temp\ccLzUcmd.s:19344  .debug_str:000000000000126a .LASF31
C:\Users\CYMR90~1\AppData\Local\Temp\ccLzUcmd.s:26933  .debug_str:000000000001f978 .LASF32
C:\Users\CYMR90~1\AppData\Local\Temp\ccLzUcmd.s:21534  .debug_str:0000000000009dc1 .LASF33
C:\Users\CYMR90~1\AppData\Local\Temp\ccLzUcmd.s:21384  .debug_str:0000000000009425 .LASF34
C:\Users\CYMR90~1\AppData\Local\Temp\ccLzUcmd.s:22684  .debug_str:000000000000e84f .LASF35
C:\Users\CYMR90~1\AppData\Local\Temp\ccLzUcmd.s:25593  .debug_str:000000000001a210 .LASF36
C:\Users\CYMR90~1\AppData\Local\Temp\ccLzUcmd.s:20888  .debug_str:0000000000007409 .LASF37
C:\Users\CYMR90~1\AppData\Local\Temp\ccLzUcmd.s:23044  .debug_str:000000000000fe2f .LASF38
C:\Users\CYMR90~1\AppData\Local\Temp\ccLzUcmd.s:19926  .debug_str:0000000000003659 .LASF39
C:\Users\CYMR90~1\AppData\Local\Temp\ccLzUcmd.s:19730  .debug_str:0000000000002a08 .LASF40
C:\Users\CYMR90~1\AppData\Local\Temp\ccLzUcmd.s:23216  .debug_str:0000000000010811 .LASF41
C:\Users\CYMR90~1\AppData\Local\Temp\ccLzUcmd.s:23638  .debug_str:00000000000123bb .LASF42
C:\Users\CYMR90~1\AppData\Local\Temp\ccLzUcmd.s:23904  .debug_str:0000000000013616 .LASF43
C:\Users\CYMR90~1\AppData\Local\Temp\ccLzUcmd.s:25583  .debug_str:000000000001a17e .LASF44
C:\Users\CYMR90~1\AppData\Local\Temp\ccLzUcmd.s:23496  .debug_str:0000000000011ab1 .LASF45
C:\Users\CYMR90~1\AppData\Local\Temp\ccLzUcmd.s:20190  .debug_str:0000000000004830 .LASF46
C:\Users\CYMR90~1\AppData\Local\Temp\ccLzUcmd.s:26487  .debug_str:000000000001de4f .LASF47
C:\Users\CYMR90~1\AppData\Local\Temp\ccLzUcmd.s:28177  .debug_str:0000000000024625 .LASF48
C:\Users\CYMR90~1\AppData\Local\Temp\ccLzUcmd.s:22434  .debug_str:000000000000d8eb .LASF49
C:\Users\CYMR90~1\AppData\Local\Temp\ccLzUcmd.s:19564  .debug_str:0000000000002015 .LASF50
C:\Users\CYMR90~1\AppData\Local\Temp\ccLzUcmd.s:19064  .debug_str:000000000000012a .LASF51
C:\Users\CYMR90~1\AppData\Local\Temp\ccLzUcmd.s:29505  .debug_str:0000000000029d1c .LASF52
C:\Users\CYMR90~1\AppData\Local\Temp\ccLzUcmd.s:22246  .debug_str:000000000000cd1b .LASF53
C:\Users\CYMR90~1\AppData\Local\Temp\ccLzUcmd.s:23984  .debug_str:0000000000013abe .LASF54
C:\Users\CYMR90~1\AppData\Local\Temp\ccLzUcmd.s:20252  .debug_str:0000000000004c96 .LASF55
C:\Users\CYMR90~1\AppData\Local\Temp\ccLzUcmd.s:20978  .debug_str:00000000000079b1 .LASF56
C:\Users\CYMR90~1\AppData\Local\Temp\ccLzUcmd.s:24390  .debug_str:0000000000015449 .LASF57
C:\Users\CYMR90~1\AppData\Local\Temp\ccLzUcmd.s:19296  .debug_str:0000000000000fb0 .LASF58
C:\Users\CYMR90~1\AppData\Local\Temp\ccLzUcmd.s:28455  .debug_str:00000000000259b9 .LASF59
C:\Users\CYMR90~1\AppData\Local\Temp\ccLzUcmd.s:23912  .debug_str:0000000000013671 .LASF60
C:\Users\CYMR90~1\AppData\Local\Temp\ccLzUcmd.s:25863  .debug_str:000000000001b5bf .LASF61
C:\Users\CYMR90~1\AppData\Local\Temp\ccLzUcmd.s:19792  .debug_str:0000000000002ddc .LASF62
C:\Users\CYMR90~1\AppData\Local\Temp\ccLzUcmd.s:22428  .debug_str:000000000000d8a7 .LASF63
C:\Users\CYMR90~1\AppData\Local\Temp\ccLzUcmd.s:22162  .debug_str:000000000000c6aa .LASF64
C:\Users\CYMR90~1\AppData\Local\Temp\ccLzUcmd.s:25569  .debug_str:000000000001a0b5 .LASF65
C:\Users\CYMR90~1\AppData\Local\Temp\ccLzUcmd.s:24218  .debug_str:0000000000014942 .LASF66
C:\Users\CYMR90~1\AppData\Local\Temp\ccLzUcmd.s:29289  .debug_str:0000000000028f53 .LASF67
C:\Users\CYMR90~1\AppData\Local\Temp\ccLzUcmd.s:29731  .debug_str:000000000002aa85 .LASF68
C:\Users\CYMR90~1\AppData\Local\Temp\ccLzUcmd.s:23448  .debug_str:0000000000011732 .LASF69
C:\Users\CYMR90~1\AppData\Local\Temp\ccLzUcmd.s:22584  .debug_str:000000000000e1fc .LASF70
C:\Users\CYMR90~1\AppData\Local\Temp\ccLzUcmd.s:20202  .debug_str:0000000000004983 .LASF71
C:\Users\CYMR90~1\AppData\Local\Temp\ccLzUcmd.s:23484  .debug_str:00000000000119ee .LASF72
C:\Users\CYMR90~1\AppData\Local\Temp\ccLzUcmd.s:23120  .debug_str:0000000000010257 .LASF73
C:\Users\CYMR90~1\AppData\Local\Temp\ccLzUcmd.s:23718  .debug_str:0000000000012947 .LASF74
C:\Users\CYMR90~1\AppData\Local\Temp\ccLzUcmd.s:23558  .debug_str:0000000000011ec6 .LASF75
C:\Users\CYMR90~1\AppData\Local\Temp\ccLzUcmd.s:23658  .debug_str:0000000000012526 .LASF76
C:\Users\CYMR90~1\AppData\Local\Temp\ccLzUcmd.s:28093  .debug_str:000000000002407f .LASF77
C:\Users\CYMR90~1\AppData\Local\Temp\ccLzUcmd.s:26055  .debug_str:000000000001c19b .LASF78
C:\Users\CYMR90~1\AppData\Local\Temp\ccLzUcmd.s:26453  .debug_str:000000000001dbb7 .LASF79
C:\Users\CYMR90~1\AppData\Local\Temp\ccLzUcmd.s:29269  .debug_str:0000000000028e04 .LASF80
C:\Users\CYMR90~1\AppData\Local\Temp\ccLzUcmd.s:21486  .debug_str:0000000000009ae2 .LASF81
C:\Users\CYMR90~1\AppData\Local\Temp\ccLzUcmd.s:21680  .debug_str:000000000000a6bf .LASF82
C:\Users\CYMR90~1\AppData\Local\Temp\ccLzUcmd.s:29397  .debug_str:00000000000296c8 .LASF83
C:\Users\CYMR90~1\AppData\Local\Temp\ccLzUcmd.s:21426  .debug_str:00000000000096da .LASF84
C:\Users\CYMR90~1\AppData\Local\Temp\ccLzUcmd.s:20700  .debug_str:00000000000067c1 .LASF85
C:\Users\CYMR90~1\AppData\Local\Temp\ccLzUcmd.s:25765  .debug_str:000000000001aebe .LASF86
C:\Users\CYMR90~1\AppData\Local\Temp\ccLzUcmd.s:29431  .debug_str:00000000000298aa .LASF87
C:\Users\CYMR90~1\AppData\Local\Temp\ccLzUcmd.s:26875  .debug_str:000000000001f610 .LASF88
C:\Users\CYMR90~1\AppData\Local\Temp\ccLzUcmd.s:25679  .debug_str:000000000001a943 .LASF89
C:\Users\CYMR90~1\AppData\Local\Temp\ccLzUcmd.s:26903  .debug_str:000000000001f7b2 .LASF90
C:\Users\CYMR90~1\AppData\Local\Temp\ccLzUcmd.s:29635  .debug_str:000000000002a4ad .LASF91
C:\Users\CYMR90~1\AppData\Local\Temp\ccLzUcmd.s:28463  .debug_str:0000000000025a31 .LASF92
C:\Users\CYMR90~1\AppData\Local\Temp\ccLzUcmd.s:21562  .debug_str:0000000000009f9a .LASF93
C:\Users\CYMR90~1\AppData\Local\Temp\ccLzUcmd.s:26335  .debug_str:000000000001d45a .LASF94
C:\Users\CYMR90~1\AppData\Local\Temp\ccLzUcmd.s:23940  .debug_str:000000000001382a .LASF95
C:\Users\CYMR90~1\AppData\Local\Temp\ccLzUcmd.s:23924  .debug_str:000000000001373a .LASF96
C:\Users\CYMR90~1\AppData\Local\Temp\ccLzUcmd.s:29939  .debug_str:000000000002b813 .LASF97
C:\Users\CYMR90~1\AppData\Local\Temp\ccLzUcmd.s:23572  .debug_str:0000000000011fb2 .LASF98
C:\Users\CYMR90~1\AppData\Local\Temp\ccLzUcmd.s:27457  .debug_str:00000000000219b2 .LASF99
C:\Users\CYMR90~1\AppData\Local\Temp\ccLzUcmd.s:20924  .debug_str:0000000000007639 .LASF100
C:\Users\CYMR90~1\AppData\Local\Temp\ccLzUcmd.s:23060  .debug_str:000000000000ff03 .LASF101
C:\Users\CYMR90~1\AppData\Local\Temp\ccLzUcmd.s:24452  .debug_str:00000000000157b3 .LASF102
C:\Users\CYMR90~1\AppData\Local\Temp\ccLzUcmd.s:23342  .debug_str:0000000000010fe1 .LASF103
C:\Users\CYMR90~1\AppData\Local\Temp\ccLzUcmd.s:22346  .debug_str:000000000000d369 .LASF104
C:\Users\CYMR90~1\AppData\Local\Temp\ccLzUcmd.s:23506  .debug_str:0000000000011b48 .LASF105
C:\Users\CYMR90~1\AppData\Local\Temp\ccLzUcmd.s:20238  .debug_str:0000000000004bd0 .LASF106
C:\Users\CYMR90~1\AppData\Local\Temp\ccLzUcmd.s:23336  .debug_str:0000000000010f7c .LASF107
C:\Users\CYMR90~1\AppData\Local\Temp\ccLzUcmd.s:22342  .debug_str:000000000000d345 .LASF108
C:\Users\CYMR90~1\AppData\Local\Temp\ccLzUcmd.s:23774  .debug_str:0000000000012cc7 .LASF109
C:\Users\CYMR90~1\AppData\Local\Temp\ccLzUcmd.s:22708  .debug_str:000000000000e9e9 .LASF110
C:\Users\CYMR90~1\AppData\Local\Temp\ccLzUcmd.s:25215  .debug_str:0000000000018896 .LASF111
C:\Users\CYMR90~1\AppData\Local\Temp\ccLzUcmd.s:21822  .debug_str:000000000000b08e .LASF112
C:\Users\CYMR90~1\AppData\Local\Temp\ccLzUcmd.s:21560  .debug_str:0000000000009f71 .LASF113
C:\Users\CYMR90~1\AppData\Local\Temp\ccLzUcmd.s:24484  .debug_str:00000000000159b3 .LASF114
C:\Users\CYMR90~1\AppData\Local\Temp\ccLzUcmd.s:29329  .debug_str:0000000000029230 .LASF115
C:\Users\CYMR90~1\AppData\Local\Temp\ccLzUcmd.s:27979  .debug_str:00000000000238f0 .LASF116
C:\Users\CYMR90~1\AppData\Local\Temp\ccLzUcmd.s:21318  .debug_str:0000000000009069 .LASF117
C:\Users\CYMR90~1\AppData\Local\Temp\ccLzUcmd.s:25923  .debug_str:000000000001b96c .LASF118
C:\Users\CYMR90~1\AppData\Local\Temp\ccLzUcmd.s:30049  .debug_str:000000000002bfd0 .LASF119
C:\Users\CYMR90~1\AppData\Local\Temp\ccLzUcmd.s:22630  .debug_str:000000000000e4b6 .LASF120
C:\Users\CYMR90~1\AppData\Local\Temp\ccLzUcmd.s:28077  .debug_str:0000000000023ea4 .LASF121
C:\Users\CYMR90~1\AppData\Local\Temp\ccLzUcmd.s:22124  .debug_str:000000000000c439 .LASF122
C:\Users\CYMR90~1\AppData\Local\Temp\ccLzUcmd.s:22234  .debug_str:000000000000cc99 .LASF123
C:\Users\CYMR90~1\AppData\Local\Temp\ccLzUcmd.s:19894  .debug_str:0000000000003479 .LASF124
C:\Users\CYMR90~1\AppData\Local\Temp\ccLzUcmd.s:20166  .debug_str:0000000000004674 .LASF125
C:\Users\CYMR90~1\AppData\Local\Temp\ccLzUcmd.s:29009  .debug_str:0000000000027c93 .LASF126
C:\Users\CYMR90~1\AppData\Local\Temp\ccLzUcmd.s:23512  .debug_str:0000000000011b86 .LASF127
C:\Users\CYMR90~1\AppData\Local\Temp\ccLzUcmd.s:26311  .debug_str:000000000001d2fc .LASF128
C:\Users\CYMR90~1\AppData\Local\Temp\ccLzUcmd.s:21394  .debug_str:00000000000094b0 .LASF129
C:\Users\CYMR90~1\AppData\Local\Temp\ccLzUcmd.s:28571  .debug_str:00000000000260b1 .LASF130
C:\Users\CYMR90~1\AppData\Local\Temp\ccLzUcmd.s:28883  .debug_str:000000000002746f .LASF131
C:\Users\CYMR90~1\AppData\Local\Temp\ccLzUcmd.s:28685  .debug_str:00000000000267c0 .LASF132
C:\Users\CYMR90~1\AppData\Local\Temp\ccLzUcmd.s:22606  .debug_str:000000000000e345 .LASF133
C:\Users\CYMR90~1\AppData\Local\Temp\ccLzUcmd.s:27997  .debug_str:00000000000239ed .LASF134
C:\Users\CYMR90~1\AppData\Local\Temp\ccLzUcmd.s:20158  .debug_str:00000000000045f5 .LASF135
C:\Users\CYMR90~1\AppData\Local\Temp\ccLzUcmd.s:21022  .debug_str:0000000000007c87 .LASF136
C:\Users\CYMR90~1\AppData\Local\Temp\ccLzUcmd.s:26065  .debug_str:000000000001c24f .LASF137
C:\Users\CYMR90~1\AppData\Local\Temp\ccLzUcmd.s:23770  .debug_str:0000000000012c97 .LASF138
C:\Users\CYMR90~1\AppData\Local\Temp\ccLzUcmd.s:29213  .debug_str:0000000000028abf .LASF139
C:\Users\CYMR90~1\AppData\Local\Temp\ccLzUcmd.s:28349  .debug_str:000000000002523d .LASF140
C:\Users\CYMR90~1\AppData\Local\Temp\ccLzUcmd.s:26013  .debug_str:000000000001bef6 .LASF141
C:\Users\CYMR90~1\AppData\Local\Temp\ccLzUcmd.s:21522  .debug_str:0000000000009d02 .LASF142
C:\Users\CYMR90~1\AppData\Local\Temp\ccLzUcmd.s:29797  .debug_str:000000000002ae70 .LASF143
C:\Users\CYMR90~1\AppData\Local\Temp\ccLzUcmd.s:25185  .debug_str:000000000001869e .LASF144
C:\Users\CYMR90~1\AppData\Local\Temp\ccLzUcmd.s:24230  .debug_str:0000000000014a27 .LASF145
C:\Users\CYMR90~1\AppData\Local\Temp\ccLzUcmd.s:22196  .debug_str:000000000000c986 .LASF146
C:\Users\CYMR90~1\AppData\Local\Temp\ccLzUcmd.s:20200  .debug_str:000000000000496c .LASF147
C:\Users\CYMR90~1\AppData\Local\Temp\ccLzUcmd.s:22748  .debug_str:000000000000ec80 .LASF148
C:\Users\CYMR90~1\AppData\Local\Temp\ccLzUcmd.s:25165  .debug_str:000000000001859a .LASF149
C:\Users\CYMR90~1\AppData\Local\Temp\ccLzUcmd.s:19138  .debug_str:0000000000000586 .LASF150
C:\Users\CYMR90~1\AppData\Local\Temp\ccLzUcmd.s:30261  .debug_str:000000000002cdf5 .LASF151
C:\Users\CYMR90~1\AppData\Local\Temp\ccLzUcmd.s:23764  .debug_str:0000000000012c15 .LASF152
C:\Users\CYMR90~1\AppData\Local\Temp\ccLzUcmd.s:28355  .debug_str:0000000000025290 .LASF153
C:\Users\CYMR90~1\AppData\Local\Temp\ccLzUcmd.s:26215  .debug_str:000000000001cba4 .LASF154
C:\Users\CYMR90~1\AppData\Local\Temp\ccLzUcmd.s:23176  .debug_str:00000000000105b6 .LASF155
C:\Users\CYMR90~1\AppData\Local\Temp\ccLzUcmd.s:26227  .debug_str:000000000001cc8a .LASF156
C:\Users\CYMR90~1\AppData\Local\Temp\ccLzUcmd.s:26341  .debug_str:000000000001d4c2 .LASF157
C:\Users\CYMR90~1\AppData\Local\Temp\ccLzUcmd.s:22048  .debug_str:000000000000bfb4 .LASF158
C:\Users\CYMR90~1\AppData\Local\Temp\ccLzUcmd.s:21124  .debug_str:0000000000008475 .LASF159
C:\Users\CYMR90~1\AppData\Local\Temp\ccLzUcmd.s:25869  .debug_str:000000000001b613 .LASF160
C:\Users\CYMR90~1\AppData\Local\Temp\ccLzUcmd.s:27269  .debug_str:0000000000020e37 .LASF161
C:\Users\CYMR90~1\AppData\Local\Temp\ccLzUcmd.s:25477  .debug_str:0000000000019b3e .LASF162
C:\Users\CYMR90~1\AppData\Local\Temp\ccLzUcmd.s:27989  .debug_str:000000000002397b .LASF163
C:\Users\CYMR90~1\AppData\Local\Temp\ccLzUcmd.s:29621  .debug_str:000000000002a3df .LASF164
C:\Users\CYMR90~1\AppData\Local\Temp\ccLzUcmd.s:20878  .debug_str:0000000000007385 .LASF165
C:\Users\CYMR90~1\AppData\Local\Temp\ccLzUcmd.s:29317  .debug_str:0000000000029114 .LASF166
C:\Users\CYMR90~1\AppData\Local\Temp\ccLzUcmd.s:29141  .debug_str:0000000000028630 .LASF167
C:\Users\CYMR90~1\AppData\Local\Temp\ccLzUcmd.s:27907  .debug_str:0000000000023459 .LASF168
C:\Users\CYMR90~1\AppData\Local\Temp\ccLzUcmd.s:24943  .debug_str:0000000000017811 .LASF169
C:\Users\CYMR90~1\AppData\Local\Temp\ccLzUcmd.s:28745  .debug_str:0000000000026b50 .LASF170
C:\Users\CYMR90~1\AppData\Local\Temp\ccLzUcmd.s:24562  .debug_str:0000000000015ec9 .LASF171
C:\Users\CYMR90~1\AppData\Local\Temp\ccLzUcmd.s:26135  .debug_str:000000000001c618 .LASF172
C:\Users\CYMR90~1\AppData\Local\Temp\ccLzUcmd.s:21514  .debug_str:0000000000009c8e .LASF173
C:\Users\CYMR90~1\AppData\Local\Temp\ccLzUcmd.s:27799  .debug_str:0000000000022e30 .LASF174
C:\Users\CYMR90~1\AppData\Local\Temp\ccLzUcmd.s:20534  .debug_str:0000000000005d93 .LASF175
C:\Users\CYMR90~1\AppData\Local\Temp\ccLzUcmd.s:21362  .debug_str:00000000000092fc .LASF176
C:\Users\CYMR90~1\AppData\Local\Temp\ccLzUcmd.s:20036  .debug_str:0000000000003db0 .LASF177
C:\Users\CYMR90~1\AppData\Local\Temp\ccLzUcmd.s:25357  .debug_str:00000000000192ca .LASF178
C:\Users\CYMR90~1\AppData\Local\Temp\ccLzUcmd.s:22284  .debug_str:000000000000cf8c .LASF179
C:\Users\CYMR90~1\AppData\Local\Temp\ccLzUcmd.s:19558  .debug_str:0000000000001fa9 .LASF180
C:\Users\CYMR90~1\AppData\Local\Temp\ccLzUcmd.s:29935  .debug_str:000000000002b7e8 .LASF181
C:\Users\CYMR90~1\AppData\Local\Temp\ccLzUcmd.s:19330  .debug_str:00000000000011bf .LASF182
C:\Users\CYMR90~1\AppData\Local\Temp\ccLzUcmd.s:23882  .debug_str:0000000000013484 .LASF183
C:\Users\CYMR90~1\AppData\Local\Temp\ccLzUcmd.s:24296  .debug_str:0000000000014e66 .LASF184
C:\Users\CYMR90~1\AppData\Local\Temp\ccLzUcmd.s:29151  .debug_str:00000000000286df .LASF185
C:\Users\CYMR90~1\AppData\Local\Temp\ccLzUcmd.s:22384  .debug_str:000000000000d646 .LASF186
C:\Users\CYMR90~1\AppData\Local\Temp\ccLzUcmd.s:20862  .debug_str:0000000000007225 .LASF187
C:\Users\CYMR90~1\AppData\Local\Temp\ccLzUcmd.s:26853  .debug_str:000000000001f4bf .LASF188
C:\Users\CYMR90~1\AppData\Local\Temp\ccLzUcmd.s:22650  .debug_str:000000000000e647 .LASF189
C:\Users\CYMR90~1\AppData\Local\Temp\ccLzUcmd.s:23990  .debug_str:0000000000013b1d .LASF190
C:\Users\CYMR90~1\AppData\Local\Temp\ccLzUcmd.s:27327  .debug_str:0000000000021168 .LASF191
C:\Users\CYMR90~1\AppData\Local\Temp\ccLzUcmd.s:24722  .debug_str:00000000000168e4 .LASF192
C:\Users\CYMR90~1\AppData\Local\Temp\ccLzUcmd.s:27557  .debug_str:0000000000021feb .LASF193
C:\Users\CYMR90~1\AppData\Local\Temp\ccLzUcmd.s:20486  .debug_str:0000000000005acf .LASF194
C:\Users\CYMR90~1\AppData\Local\Temp\ccLzUcmd.s:19864  .debug_str:0000000000003273 .LASF195
C:\Users\CYMR90~1\AppData\Local\Temp\ccLzUcmd.s:22480  .debug_str:000000000000db6d .LASF196
C:\Users\CYMR90~1\AppData\Local\Temp\ccLzUcmd.s:23400  .debug_str:0000000000011372 .LASF197
C:\Users\CYMR90~1\AppData\Local\Temp\ccLzUcmd.s:20344  .debug_str:0000000000005226 .LASF198
C:\Users\CYMR90~1\AppData\Local\Temp\ccLzUcmd.s:29041  .debug_str:0000000000027ed6 .LASF199
C:\Users\CYMR90~1\AppData\Local\Temp\ccLzUcmd.s:27217  .debug_str:0000000000020b02 .LASF200
C:\Users\CYMR90~1\AppData\Local\Temp\ccLzUcmd.s:26349  .debug_str:000000000001d520 .LASF201
C:\Users\CYMR90~1\AppData\Local\Temp\ccLzUcmd.s:21490  .debug_str:0000000000009b15 .LASF202
C:\Users\CYMR90~1\AppData\Local\Temp\ccLzUcmd.s:29487  .debug_str:0000000000029c10 .LASF203
C:\Users\CYMR90~1\AppData\Local\Temp\ccLzUcmd.s:21962  .debug_str:000000000000b9dd .LASF204
C:\Users\CYMR90~1\AppData\Local\Temp\ccLzUcmd.s:22884  .debug_str:000000000000f498 .LASF205
C:\Users\CYMR90~1\AppData\Local\Temp\ccLzUcmd.s:29223  .debug_str:0000000000028b2b .LASF206
C:\Users\CYMR90~1\AppData\Local\Temp\ccLzUcmd.s:24110  .debug_str:00000000000142a5 .LASF207
C:\Users\CYMR90~1\AppData\Local\Temp\ccLzUcmd.s:26891  .debug_str:000000000001f710 .LASF208
C:\Users\CYMR90~1\AppData\Local\Temp\ccLzUcmd.s:22120  .debug_str:000000000000c40a .LASF209
C:\Users\CYMR90~1\AppData\Local\Temp\ccLzUcmd.s:30143  .debug_str:000000000002c603 .LASF210
C:\Users\CYMR90~1\AppData\Local\Temp\ccLzUcmd.s:24080  .debug_str:00000000000140cf .LASF211
C:\Users\CYMR90~1\AppData\Local\Temp\ccLzUcmd.s:26735  .debug_str:000000000001ed40 .LASF212
C:\Users\CYMR90~1\AppData\Local\Temp\ccLzUcmd.s:25377  .debug_str:00000000000193f8 .LASF213
C:\Users\CYMR90~1\AppData\Local\Temp\ccLzUcmd.s:20576  .debug_str:0000000000005ffc .LASF214
C:\Users\CYMR90~1\AppData\Local\Temp\ccLzUcmd.s:24088  .debug_str:000000000001413f .LASF215
C:\Users\CYMR90~1\AppData\Local\Temp\ccLzUcmd.s:26051  .debug_str:000000000001c14b .LASF216
C:\Users\CYMR90~1\AppData\Local\Temp\ccLzUcmd.s:26999  .debug_str:000000000001fd69 .LASF217
C:\Users\CYMR90~1\AppData\Local\Temp\ccLzUcmd.s:22956  .debug_str:000000000000f954 .LASF218
C:\Users\CYMR90~1\AppData\Local\Temp\ccLzUcmd.s:28357  .debug_str:00000000000252cc .LASF219
C:\Users\CYMR90~1\AppData\Local\Temp\ccLzUcmd.s:28169  .debug_str:00000000000245b7 .LASF220
C:\Users\CYMR90~1\AppData\Local\Temp\ccLzUcmd.s:27699  .debug_str:00000000000227f5 .LASF221
C:\Users\CYMR90~1\AppData\Local\Temp\ccLzUcmd.s:24376  .debug_str:0000000000015398 .LASF222
C:\Users\CYMR90~1\AppData\Local\Temp\ccLzUcmd.s:20546  .debug_str:0000000000005e2e .LASF223
C:\Users\CYMR90~1\AppData\Local\Temp\ccLzUcmd.s:21224  .debug_str:0000000000008a67 .LASF224
C:\Users\CYMR90~1\AppData\Local\Temp\ccLzUcmd.s:29807  .debug_str:000000000002aef4 .LASF225
C:\Users\CYMR90~1\AppData\Local\Temp\ccLzUcmd.s:22546  .debug_str:000000000000dfb5 .LASF226
C:\Users\CYMR90~1\AppData\Local\Temp\ccLzUcmd.s:26211  .debug_str:000000000001cb76 .LASF227
C:\Users\CYMR90~1\AppData\Local\Temp\ccLzUcmd.s:26061  .debug_str:000000000001c1f1 .LASF228
C:\Users\CYMR90~1\AppData\Local\Temp\ccLzUcmd.s:22490  .debug_str:000000000000dc13 .LASF229
C:\Users\CYMR90~1\AppData\Local\Temp\ccLzUcmd.s:26777  .debug_str:000000000001efd7 .LASF230
C:\Users\CYMR90~1\AppData\Local\Temp\ccLzUcmd.s:21276  .debug_str:0000000000008dc0 .LASF231
C:\Users\CYMR90~1\AppData\Local\Temp\ccLzUcmd.s:20588  .debug_str:00000000000060c3 .LASF232
C:\Users\CYMR90~1\AppData\Local\Temp\ccLzUcmd.s:21176  .debug_str:000000000000875e .LASF233
C:\Users\CYMR90~1\AppData\Local\Temp\ccLzUcmd.s:23166  .debug_str:0000000000010509 .LASF234
C:\Users\CYMR90~1\AppData\Local\Temp\ccLzUcmd.s:25711  .debug_str:000000000001ab4e .LASF235
C:\Users\CYMR90~1\AppData\Local\Temp\ccLzUcmd.s:27915  .debug_str:0000000000023505 .LASF236
C:\Users\CYMR90~1\AppData\Local\Temp\ccLzUcmd.s:22900  .debug_str:000000000000f581 .LASF237
C:\Users\CYMR90~1\AppData\Local\Temp\ccLzUcmd.s:28567  .debug_str:0000000000026075 .LASF238
C:\Users\CYMR90~1\AppData\Local\Temp\ccLzUcmd.s:27899  .debug_str:00000000000233da .LASF239
C:\Users\CYMR90~1\AppData\Local\Temp\ccLzUcmd.s:28133  .debug_str:0000000000024369 .LASF240
C:\Users\CYMR90~1\AppData\Local\Temp\ccLzUcmd.s:20990  .debug_str:0000000000007abc .LASF241
C:\Users\CYMR90~1\AppData\Local\Temp\ccLzUcmd.s:22568  .debug_str:000000000000e102 .LASF242
C:\Users\CYMR90~1\AppData\Local\Temp\ccLzUcmd.s:23554  .debug_str:0000000000011e5e .LASF243
C:\Users\CYMR90~1\AppData\Local\Temp\ccLzUcmd.s:27925  .debug_str:000000000002357d .LASF244
C:\Users\CYMR90~1\AppData\Local\Temp\ccLzUcmd.s:23748  .debug_str:0000000000012af5 .LASF245
C:\Users\CYMR90~1\AppData\Local\Temp\ccLzUcmd.s:26787  .debug_str:000000000001f096 .LASF246
C:\Users\CYMR90~1\AppData\Local\Temp\ccLzUcmd.s:25149  .debug_str:000000000001847a .LASF247
C:\Users\CYMR90~1\AppData\Local\Temp\ccLzUcmd.s:24650  .debug_str:000000000001645d .LASF248
C:\Users\CYMR90~1\AppData\Local\Temp\ccLzUcmd.s:26149  .debug_str:000000000001c714 .LASF249
C:\Users\CYMR90~1\AppData\Local\Temp\ccLzUcmd.s:25533  .debug_str:0000000000019e97 .LASF250
C:\Users\CYMR90~1\AppData\Local\Temp\ccLzUcmd.s:26083  .debug_str:000000000001c32d .LASF251
C:\Users\CYMR90~1\AppData\Local\Temp\ccLzUcmd.s:27747  .debug_str:0000000000022b4b .LASF252
C:\Users\CYMR90~1\AppData\Local\Temp\ccLzUcmd.s:22464  .debug_str:000000000000daab .LASF253
C:\Users\CYMR90~1\AppData\Local\Temp\ccLzUcmd.s:28427  .debug_str:0000000000025809 .LASF254
C:\Users\CYMR90~1\AppData\Local\Temp\ccLzUcmd.s:22328  .debug_str:000000000000d23b .LASF255
C:\Users\CYMR90~1\AppData\Local\Temp\ccLzUcmd.s:25445  .debug_str:00000000000198f0 .LASF256
C:\Users\CYMR90~1\AppData\Local\Temp\ccLzUcmd.s:22564  .debug_str:000000000000e0bb .LASF257
C:\Users\CYMR90~1\AppData\Local\Temp\ccLzUcmd.s:26725  .debug_str:000000000001ec96 .LASF258
C:\Users\CYMR90~1\AppData\Local\Temp\ccLzUcmd.s:21782  .debug_str:000000000000ad39 .LASF259
C:\Users\CYMR90~1\AppData\Local\Temp\ccLzUcmd.s:19216  .debug_str:0000000000000a39 .LASF260
C:\Users\CYMR90~1\AppData\Local\Temp\ccLzUcmd.s:27741  .debug_str:0000000000022ad1 .LASF261
C:\Users\CYMR90~1\AppData\Local\Temp\ccLzUcmd.s:29021  .debug_str:0000000000027d35 .LASF262
C:\Users\CYMR90~1\AppData\Local\Temp\ccLzUcmd.s:24058  .debug_str:0000000000013f2c .LASF263
C:\Users\CYMR90~1\AppData\Local\Temp\ccLzUcmd.s:26035  .debug_str:000000000001c05c .LASF264
C:\Users\CYMR90~1\AppData\Local\Temp\ccLzUcmd.s:21174  .debug_str:0000000000008743 .LASF265
C:\Users\CYMR90~1\AppData\Local\Temp\ccLzUcmd.s:22492  .debug_str:000000000000dc54 .LASF266
C:\Users\CYMR90~1\AppData\Local\Temp\ccLzUcmd.s:21834  .debug_str:000000000000b162 .LASF267
C:\Users\CYMR90~1\AppData\Local\Temp\ccLzUcmd.s:26137  .debug_str:000000000001c62d .LASF268
C:\Users\CYMR90~1\AppData\Local\Temp\ccLzUcmd.s:22142  .debug_str:000000000000c585 .LASF269
C:\Users\CYMR90~1\AppData\Local\Temp\ccLzUcmd.s:23080  .debug_str:0000000000010074 .LASF270
C:\Users\CYMR90~1\AppData\Local\Temp\ccLzUcmd.s:23852  .debug_str:0000000000013238 .LASF271
C:\Users\CYMR90~1\AppData\Local\Temp\ccLzUcmd.s:28669  .debug_str:00000000000266db .LASF272
C:\Users\CYMR90~1\AppData\Local\Temp\ccLzUcmd.s:20744  .debug_str:0000000000006a55 .LASF273
C:\Users\CYMR90~1\AppData\Local\Temp\ccLzUcmd.s:19680  .debug_str:0000000000002681 .LASF274
C:\Users\CYMR90~1\AppData\Local\Temp\ccLzUcmd.s:20846  .debug_str:00000000000070fb .LASF275
C:\Users\CYMR90~1\AppData\Local\Temp\ccLzUcmd.s:19932  .debug_str:00000000000036ac .LASF276
C:\Users\CYMR90~1\AppData\Local\Temp\ccLzUcmd.s:22030  .debug_str:000000000000be97 .LASF277
C:\Users\CYMR90~1\AppData\Local\Temp\ccLzUcmd.s:19354  .debug_str:00000000000012de .LASF278
C:\Users\CYMR90~1\AppData\Local\Temp\ccLzUcmd.s:20670  .debug_str:00000000000065a6 .LASF279
C:\Users\CYMR90~1\AppData\Local\Temp\ccLzUcmd.s:29339  .debug_str:00000000000292d2 .LASF280
C:\Users\CYMR90~1\AppData\Local\Temp\ccLzUcmd.s:21538  .debug_str:0000000000009df9 .LASF281
C:\Users\CYMR90~1\AppData\Local\Temp\ccLzUcmd.s:20638  .debug_str:00000000000063f4 .LASF282
C:\Users\CYMR90~1\AppData\Local\Temp\ccLzUcmd.s:20538  .debug_str:0000000000005dc3 .LASF283
C:\Users\CYMR90~1\AppData\Local\Temp\ccLzUcmd.s:20300  .debug_str:0000000000004fae .LASF284
C:\Users\CYMR90~1\AppData\Local\Temp\ccLzUcmd.s:28235  .debug_str:0000000000024a3a .LASF285
C:\Users\CYMR90~1\AppData\Local\Temp\ccLzUcmd.s:29053  .debug_str:0000000000027fb9 .LASF286
C:\Users\CYMR90~1\AppData\Local\Temp\ccLzUcmd.s:29325  .debug_str:000000000002915e .LASF287
C:\Users\CYMR90~1\AppData\Local\Temp\ccLzUcmd.s:29237  .debug_str:0000000000028bfc .LASF288
C:\Users\CYMR90~1\AppData\Local\Temp\ccLzUcmd.s:30077  .debug_str:000000000002c18d .LASF289
C:\Users\CYMR90~1\AppData\Local\Temp\ccLzUcmd.s:25091  .debug_str:0000000000018109 .LASF290
C:\Users\CYMR90~1\AppData\Local\Temp\ccLzUcmd.s:24114  .debug_str:00000000000142cb .LASF291
C:\Users\CYMR90~1\AppData\Local\Temp\ccLzUcmd.s:28271  .debug_str:0000000000024ca5 .LASF292
C:\Users\CYMR90~1\AppData\Local\Temp\ccLzUcmd.s:19958  .debug_str:00000000000038a7 .LASF293
C:\Users\CYMR90~1\AppData\Local\Temp\ccLzUcmd.s:29167  .debug_str:00000000000287df .LASF294
C:\Users\CYMR90~1\AppData\Local\Temp\ccLzUcmd.s:20222  .debug_str:0000000000004ab5 .LASF295
C:\Users\CYMR90~1\AppData\Local\Temp\ccLzUcmd.s:29665  .debug_str:000000000002a69e .LASF296
C:\Users\CYMR90~1\AppData\Local\Temp\ccLzUcmd.s:29857  .debug_str:000000000002b26f .LASF297
C:\Users\CYMR90~1\AppData\Local\Temp\ccLzUcmd.s:24963  .debug_str:000000000001798a .LASF298
C:\Users\CYMR90~1\AppData\Local\Temp\ccLzUcmd.s:19200  .debug_str:0000000000000933 .LASF299
C:\Users\CYMR90~1\AppData\Local\Temp\ccLzUcmd.s:22976  .debug_str:000000000000fa95 .LASF300
C:\Users\CYMR90~1\AppData\Local\Temp\ccLzUcmd.s:25703  .debug_str:000000000001aabb .LASF301
C:\Users\CYMR90~1\AppData\Local\Temp\ccLzUcmd.s:24224  .debug_str:0000000000014999 .LASF302
C:\Users\CYMR90~1\AppData\Local\Temp\ccLzUcmd.s:23694  .debug_str:000000000001278d .LASF303
C:\Users\CYMR90~1\AppData\Local\Temp\ccLzUcmd.s:19598  .debug_str:00000000000021ad .LASF304
C:\Users\CYMR90~1\AppData\Local\Temp\ccLzUcmd.s:22150  .debug_str:000000000000c609 .LASF305
C:\Users\CYMR90~1\AppData\Local\Temp\ccLzUcmd.s:27425  .debug_str:000000000002180e .LASF306
C:\Users\CYMR90~1\AppData\Local\Temp\ccLzUcmd.s:22992  .debug_str:000000000000fb9c .LASF307
C:\Users\CYMR90~1\AppData\Local\Temp\ccLzUcmd.s:28255  .debug_str:0000000000024b90 .LASF308
C:\Users\CYMR90~1\AppData\Local\Temp\ccLzUcmd.s:27867  .debug_str:00000000000231e3 .LASF309
C:\Users\CYMR90~1\AppData\Local\Temp\ccLzUcmd.s:22548  .debug_str:000000000000dfce .LASF310
C:\Users\CYMR90~1\AppData\Local\Temp\ccLzUcmd.s:28563  .debug_str:000000000002604a .LASF311
C:\Users\CYMR90~1\AppData\Local\Temp\ccLzUcmd.s:28087  .debug_str:0000000000024018 .LASF312
C:\Users\CYMR90~1\AppData\Local\Temp\ccLzUcmd.s:22266  .debug_str:000000000000ce33 .LASF313
C:\Users\CYMR90~1\AppData\Local\Temp\ccLzUcmd.s:25235  .debug_str:00000000000189f0 .LASF316
C:\Users\CYMR90~1\AppData\Local\Temp\ccLzUcmd.s:25585  .debug_str:000000000001a19b .LASF317
C:\Users\CYMR90~1\AppData\Local\Temp\ccLzUcmd.s:25929  .debug_str:000000000001b9aa .LASF318
C:\Users\CYMR90~1\AppData\Local\Temp\ccLzUcmd.s:22982  .debug_str:000000000000fb0c .LASF319
C:\Users\CYMR90~1\AppData\Local\Temp\ccLzUcmd.s:21902  .debug_str:000000000000b5d3 .LASF320
C:\Users\CYMR90~1\AppData\Local\Temp\ccLzUcmd.s:29287  .debug_str:0000000000028f47 .LASF321
C:\Users\CYMR90~1\AppData\Local\Temp\ccLzUcmd.s:22462  .debug_str:000000000000da9e .LASF322
C:\Users\CYMR90~1\AppData\Local\Temp\ccLzUcmd.s:28515  .debug_str:0000000000025d41 .LASF323
C:\Users\CYMR90~1\AppData\Local\Temp\ccLzUcmd.s:19080  .debug_str:0000000000000229 .LASF324
C:\Users\CYMR90~1\AppData\Local\Temp\ccLzUcmd.s:29687  .debug_str:000000000002a7d3 .LASF325
C:\Users\CYMR90~1\AppData\Local\Temp\ccLzUcmd.s:20008  .debug_str:0000000000003bc1 .LASF326
C:\Users\CYMR90~1\AppData\Local\Temp\ccLzUcmd.s:24046  .debug_str:0000000000013e6f .LASF327
C:\Users\CYMR90~1\AppData\Local\Temp\ccLzUcmd.s:23696  .debug_str:00000000000127a2 .LASF328
C:\Users\CYMR90~1\AppData\Local\Temp\ccLzUcmd.s:26579  .debug_str:000000000001e3bb .LASF329
C:\Users\CYMR90~1\AppData\Local\Temp\ccLzUcmd.s:26571  .debug_str:000000000001e36a .LASF330
C:\Users\CYMR90~1\AppData\Local\Temp\ccLzUcmd.s:28707  .debug_str:000000000002691c .LASF331
C:\Users\CYMR90~1\AppData\Local\Temp\ccLzUcmd.s:29267  .debug_str:0000000000028df5 .LASF332
C:\Users\CYMR90~1\AppData\Local\Temp\ccLzUcmd.s:29453  .debug_str:00000000000299fe .LASF333
C:\Users\CYMR90~1\AppData\Local\Temp\ccLzUcmd.s:25559  .debug_str:000000000001a020 .LASF334
C:\Users\CYMR90~1\AppData\Local\Temp\ccLzUcmd.s:25013  .debug_str:0000000000017c63 .LASF335
C:\Users\CYMR90~1\AppData\Local\Temp\ccLzUcmd.s:29307  .debug_str:0000000000029085 .LASF336
C:\Users\CYMR90~1\AppData\Local\Temp\ccLzUcmd.s:23620  .debug_str:00000000000122af .LASF337
C:\Users\CYMR90~1\AppData\Local\Temp\ccLzUcmd.s:27277  .debug_str:0000000000020ea3 .LASF338
C:\Users\CYMR90~1\AppData\Local\Temp\ccLzUcmd.s:21652  .debug_str:000000000000a550 .LASF339
C:\Users\CYMR90~1\AppData\Local\Temp\ccLzUcmd.s:23834  .debug_str:00000000000130f5 .LASF340
C:\Users\CYMR90~1\AppData\Local\Temp\ccLzUcmd.s:25757  .debug_str:000000000001ae0c .LASF341
C:\Users\CYMR90~1\AppData\Local\Temp\ccLzUcmd.s:21966  .debug_str:000000000000ba1a .LASF342
C:\Users\CYMR90~1\AppData\Local\Temp\ccLzUcmd.s:19336  .debug_str:000000000000120a .LASF343
C:\Users\CYMR90~1\AppData\Local\Temp\ccLzUcmd.s:29421  .debug_str:0000000000029819 .LASF344
C:\Users\CYMR90~1\AppData\Local\Temp\ccLzUcmd.s:30019  .debug_str:000000000002bd7b .LASF345
C:\Users\CYMR90~1\AppData\Local\Temp\ccLzUcmd.s:22870  .debug_str:000000000000f3ba .LASF346
C:\Users\CYMR90~1\AppData\Local\Temp\ccLzUcmd.s:19188  .debug_str:000000000000087c .LASF347
C:\Users\CYMR90~1\AppData\Local\Temp\ccLzUcmd.s:27081  .debug_str:0000000000020277 .LASF348
C:\Users\CYMR90~1\AppData\Local\Temp\ccLzUcmd.s:29031  .debug_str:0000000000027e04 .LASF349
C:\Users\CYMR90~1\AppData\Local\Temp\ccLzUcmd.s:26573  .debug_str:000000000001e376 .LASF350
C:\Users\CYMR90~1\AppData\Local\Temp\ccLzUcmd.s:19118  .debug_str:0000000000000496 .LASF351
C:\Users\CYMR90~1\AppData\Local\Temp\ccLzUcmd.s:28653  .debug_str:00000000000265fe .LASF352
C:\Users\CYMR90~1\AppData\Local\Temp\ccLzUcmd.s:28509  .debug_str:0000000000025cfd .LASF353
C:\Users\CYMR90~1\AppData\Local\Temp\ccLzUcmd.s:26197  .debug_str:000000000001cac4 .LASF354
C:\Users\CYMR90~1\AppData\Local\Temp\ccLzUcmd.s:26363  .debug_str:000000000001d616 .LASF355
C:\Users\CYMR90~1\AppData\Local\Temp\ccLzUcmd.s:28395  .debug_str:0000000000025585 .LASF356
C:\Users\CYMR90~1\AppData\Local\Temp\ccLzUcmd.s:23304  .debug_str:0000000000010da3 .LASF357
C:\Users\CYMR90~1\AppData\Local\Temp\ccLzUcmd.s:28943  .debug_str:0000000000027836 .LASF358
C:\Users\CYMR90~1\AppData\Local\Temp\ccLzUcmd.s:23686  .debug_str:00000000000126e2 .LASF359
C:\Users\CYMR90~1\AppData\Local\Temp\ccLzUcmd.s:21752  .debug_str:000000000000ab7e .LASF360
C:\Users\CYMR90~1\AppData\Local\Temp\ccLzUcmd.s:26737  .debug_str:000000000001ed58 .LASF361
C:\Users\CYMR90~1\AppData\Local\Temp\ccLzUcmd.s:23422  .debug_str:00000000000114f7 .LASF362
C:\Users\CYMR90~1\AppData\Local\Temp\ccLzUcmd.s:29205  .debug_str:0000000000028a3f .LASF363
C:\Users\CYMR90~1\AppData\Local\Temp\ccLzUcmd.s:21302  .debug_str:0000000000008f95 .LASF364
C:\Users\CYMR90~1\AppData\Local\Temp\ccLzUcmd.s:29103  .debug_str:000000000002836b .LASF365
C:\Users\CYMR90~1\AppData\Local\Temp\ccLzUcmd.s:20704  .debug_str:0000000000006826 .LASF366
C:\Users\CYMR90~1\AppData\Local\Temp\ccLzUcmd.s:23824  .debug_str:0000000000013031 .LASF367
C:\Users\CYMR90~1\AppData\Local\Temp\ccLzUcmd.s:20998  .debug_str:0000000000007b3a .LASF368
C:\Users\CYMR90~1\AppData\Local\Temp\ccLzUcmd.s:25057  .debug_str:0000000000017f10 .LASF372
C:\Users\CYMR90~1\AppData\Local\Temp\ccLzUcmd.s:28747  .debug_str:0000000000026b95 .LASF373
C:\Users\CYMR90~1\AppData\Local\Temp\ccLzUcmd.s:21730  .debug_str:000000000000aa1d .LASF374
C:\Users\CYMR90~1\AppData\Local\Temp\ccLzUcmd.s:24837  .debug_str:00000000000171b3 .LASF375
C:\Users\CYMR90~1\AppData\Local\Temp\ccLzUcmd.s:25045  .debug_str:0000000000017e60 .LASF376
C:\Users\CYMR90~1\AppData\Local\Temp\ccLzUcmd.s:27523  .debug_str:0000000000021e0f .LASF377
C:\Users\CYMR90~1\AppData\Local\Temp\ccLzUcmd.s:26213  .debug_str:000000000001cb8f .LASF378
C:\Users\CYMR90~1\AppData\Local\Temp\ccLzUcmd.s:29849  .debug_str:000000000002b1fc .LASF379
C:\Users\CYMR90~1\AppData\Local\Temp\ccLzUcmd.s:26657  .debug_str:000000000001e8c6 .LASF380
C:\Users\CYMR90~1\AppData\Local\Temp\ccLzUcmd.s:29789  .debug_str:000000000002ae08 .LASF381
C:\Users\CYMR90~1\AppData\Local\Temp\ccLzUcmd.s:25937  .debug_str:000000000001ba0e .LASF382
C:\Users\CYMR90~1\AppData\Local\Temp\ccLzUcmd.s:20760  .debug_str:0000000000006b62 .LASF383
C:\Users\CYMR90~1\AppData\Local\Temp\ccLzUcmd.s:22122  .debug_str:000000000000c425 .LASF384
C:\Users\CYMR90~1\AppData\Local\Temp\ccLzUcmd.s:25461  .debug_str:0000000000019a3a .LASF385
C:\Users\CYMR90~1\AppData\Local\Temp\ccLzUcmd.s:23116  .debug_str:0000000000010228 .LASF386
C:\Users\CYMR90~1\AppData\Local\Temp\ccLzUcmd.s:19626  .debug_str:0000000000002370 .LASF387
C:\Users\CYMR90~1\AppData\Local\Temp\ccLzUcmd.s:22710  .debug_str:000000000000ea09 .LASF388
C:\Users\CYMR90~1\AppData\Local\Temp\ccLzUcmd.s:21274  .debug_str:0000000000008dac .LASF389
C:\Users\CYMR90~1\AppData\Local\Temp\ccLzUcmd.s:20096  .debug_str:0000000000004220 .LASF391
C:\Users\CYMR90~1\AppData\Local\Temp\ccLzUcmd.s:23124  .debug_str:0000000000010294 .LASF392
C:\Users\CYMR90~1\AppData\Local\Temp\ccLzUcmd.s:27179  .debug_str:00000000000208ab .LASF393
C:\Users\CYMR90~1\AppData\Local\Temp\ccLzUcmd.s:28897  .debug_str:0000000000027546 .LASF394
C:\Users\CYMR90~1\AppData\Local\Temp\ccLzUcmd.s:19654  .debug_str:00000000000024f4 .LASF395
C:\Users\CYMR90~1\AppData\Local\Temp\ccLzUcmd.s:21776  .debug_str:000000000000acd5 .LASF396
C:\Users\CYMR90~1\AppData\Local\Temp\ccLzUcmd.s:25565  .debug_str:000000000001a080 .LASF397
C:\Users\CYMR90~1\AppData\Local\Temp\ccLzUcmd.s:29663  .debug_str:000000000002a68c .LASF398
C:\Users\CYMR90~1\AppData\Local\Temp\ccLzUcmd.s:24402  .debug_str:0000000000015512 .LASF399
C:\Users\CYMR90~1\AppData\Local\Temp\ccLzUcmd.s:26817  .debug_str:000000000001f268 .LASF400
C:\Users\CYMR90~1\AppData\Local\Temp\ccLzUcmd.s:21264  .debug_str:0000000000008cb7 .LASF401
C:\Users\CYMR90~1\AppData\Local\Temp\ccLzUcmd.s:24893  .debug_str:00000000000174e8 .LASF402
C:\Users\CYMR90~1\AppData\Local\Temp\ccLzUcmd.s:20604  .debug_str:00000000000061c4 .LASF403
C:\Users\CYMR90~1\AppData\Local\Temp\ccLzUcmd.s:21708  .debug_str:000000000000a89c .LASF404
C:\Users\CYMR90~1\AppData\Local\Temp\ccLzUcmd.s:22764  .debug_str:000000000000ed4f .LASF405
C:\Users\CYMR90~1\AppData\Local\Temp\ccLzUcmd.s:26121  .debug_str:000000000001c54d .LASF406
C:\Users\CYMR90~1\AppData\Local\Temp\ccLzUcmd.s:24320  .debug_str:0000000000015013 .LASF407
C:\Users\CYMR90~1\AppData\Local\Temp\ccLzUcmd.s:25311  .debug_str:0000000000018f22 .LASF408
C:\Users\CYMR90~1\AppData\Local\Temp\ccLzUcmd.s:27467  .debug_str:0000000000021a92 .LASF409
C:\Users\CYMR90~1\AppData\Local\Temp\ccLzUcmd.s:20558  .debug_str:0000000000005ee9 .LASF410
C:\Users\CYMR90~1\AppData\Local\Temp\ccLzUcmd.s:24510  .debug_str:0000000000015b50 .LASF411
C:\Users\CYMR90~1\AppData\Local\Temp\ccLzUcmd.s:27589  .debug_str:00000000000221e9 .LASF412
C:\Users\CYMR90~1\AppData\Local\Temp\ccLzUcmd.s:20736  .debug_str:00000000000069fc .LASF413
C:\Users\CYMR90~1\AppData\Local\Temp\ccLzUcmd.s:29301  .debug_str:000000000002901e .LASF414
C:\Users\CYMR90~1\AppData\Local\Temp\ccLzUcmd.s:22872  .debug_str:000000000000f3c8 .LASF415
C:\Users\CYMR90~1\AppData\Local\Temp\ccLzUcmd.s:28623  .debug_str:00000000000263f5 .LASF416
C:\Users\CYMR90~1\AppData\Local\Temp\ccLzUcmd.s:30141  .debug_str:000000000002c5f8 .LASF417
C:\Users\CYMR90~1\AppData\Local\Temp\ccLzUcmd.s:21194  .debug_str:0000000000008880 .LASF418
C:\Users\CYMR90~1\AppData\Local\Temp\ccLzUcmd.s:29511  .debug_str:0000000000029d73 .LASF419
C:\Users\CYMR90~1\AppData\Local\Temp\ccLzUcmd.s:20812  .debug_str:0000000000006ecf .LASF420
C:\Users\CYMR90~1\AppData\Local\Temp\ccLzUcmd.s:29707  .debug_str:000000000002a8ee .LASF421
C:\Users\CYMR90~1\AppData\Local\Temp\ccLzUcmd.s:22042  .debug_str:000000000000bf64 .LASF422
C:\Users\CYMR90~1\AppData\Local\Temp\ccLzUcmd.s:22244  .debug_str:000000000000cd0f .LASF423
C:\Users\CYMR90~1\AppData\Local\Temp\ccLzUcmd.s:26719  .debug_str:000000000001ec57 .LASF424
C:\Users\CYMR90~1\AppData\Local\Temp\ccLzUcmd.s:25347  .debug_str:000000000001923f .LASF425
C:\Users\CYMR90~1\AppData\Local\Temp\ccLzUcmd.s:19090  .debug_str:00000000000002d7 .LASF426
C:\Users\CYMR90~1\AppData\Local\Temp\ccLzUcmd.s:29211  .debug_str:0000000000028a9c .LASF427
C:\Users\CYMR90~1\AppData\Local\Temp\ccLzUcmd.s:24592  .debug_str:0000000000016109 .LASF428
C:\Users\CYMR90~1\AppData\Local\Temp\ccLzUcmd.s:26499  .debug_str:000000000001df3c .LASF429
C:\Users\CYMR90~1\AppData\Local\Temp\ccLzUcmd.s:23058  .debug_str:000000000000fefa .LASF430
C:\Users\CYMR90~1\AppData\Local\Temp\ccLzUcmd.s:24789  .debug_str:0000000000016ed0 .LASF431
C:\Users\CYMR90~1\AppData\Local\Temp\ccLzUcmd.s:27545  .debug_str:0000000000021f3d .LASF432
C:\Users\CYMR90~1\AppData\Local\Temp\ccLzUcmd.s:22230  .debug_str:000000000000cc5a .LASF434
C:\Users\CYMR90~1\AppData\Local\Temp\ccLzUcmd.s:20272  .debug_str:0000000000004dec .LASF435
C:\Users\CYMR90~1\AppData\Local\Temp\ccLzUcmd.s:24983  .debug_str:0000000000017ab9 .LASF436
C:\Users\CYMR90~1\AppData\Local\Temp\ccLzUcmd.s:20832  .debug_str:000000000000700b .LASF437
C:\Users\CYMR90~1\AppData\Local\Temp\ccLzUcmd.s:29227  .debug_str:0000000000028b67 .LASF438
C:\Users\CYMR90~1\AppData\Local\Temp\ccLzUcmd.s:19056  .debug_str:00000000000000c7 .LASF439
C:\Users\CYMR90~1\AppData\Local\Temp\ccLzUcmd.s:26755  .debug_str:000000000001ee85 .LASF440
C:\Users\CYMR90~1\AppData\Local\Temp\ccLzUcmd.s:22470  .debug_str:000000000000db03 .LASF441
C:\Users\CYMR90~1\AppData\Local\Temp\ccLzUcmd.s:27775  .debug_str:0000000000022cd9 .LASF442
C:\Users\CYMR90~1\AppData\Local\Temp\ccLzUcmd.s:23356  .debug_str:00000000000110ba .LASF443
C:\Users\CYMR90~1\AppData\Local\Temp\ccLzUcmd.s:23198  .debug_str:00000000000106fd .LASF444
C:\Users\CYMR90~1\AppData\Local\Temp\ccLzUcmd.s:30135  .debug_str:000000000002c5ac .LASF445
C:\Users\CYMR90~1\AppData\Local\Temp\ccLzUcmd.s:30075  .debug_str:000000000002c187 .LASF446
C:\Users\CYMR90~1\AppData\Local\Temp\ccLzUcmd.s:23540  .debug_str:0000000000011d4b .LASF447
C:\Users\CYMR90~1\AppData\Local\Temp\ccLzUcmd.s:27749  .debug_str:0000000000022b5d .LASF448
C:\Users\CYMR90~1\AppData\Local\Temp\ccLzUcmd.s:20108  .debug_str:00000000000042d8 .LASF449
C:\Users\CYMR90~1\AppData\Local\Temp\ccLzUcmd.s:20854  .debug_str:0000000000007189 .LASF450
C:\Users\CYMR90~1\AppData\Local\Temp\ccLzUcmd.s:19580  .debug_str:00000000000020d1 .LASF451
C:\Users\CYMR90~1\AppData\Local\Temp\ccLzUcmd.s:24232  .debug_str:0000000000014a3b .LASF452
C:\Users\CYMR90~1\AppData\Local\Temp\ccLzUcmd.s:19570  .debug_str:000000000000205e .LASF453
C:\Users\CYMR90~1\AppData\Local\Temp\ccLzUcmd.s:30081  .debug_str:000000000002c1cd .LASF454
C:\Users\CYMR90~1\AppData\Local\Temp\ccLzUcmd.s:22636  .debug_str:000000000000e51d .LASF455
C:\Users\CYMR90~1\AppData\Local\Temp\ccLzUcmd.s:27371  .debug_str:00000000000214b7 .LASF456
C:\Users\CYMR90~1\AppData\Local\Temp\ccLzUcmd.s:22324  .debug_str:000000000000d219 .LASF457
C:\Users\CYMR90~1\AppData\Local\Temp\ccLzUcmd.s:20616  .debug_str:0000000000006287 .LASF458
C:\Users\CYMR90~1\AppData\Local\Temp\ccLzUcmd.s:23262  .debug_str:0000000000010b83 .LASF459
C:\Users\CYMR90~1\AppData\Local\Temp\ccLzUcmd.s:27131  .debug_str:00000000000205d6 .LASF460
C:\Users\CYMR90~1\AppData\Local\Temp\ccLzUcmd.s:28259  .debug_str:0000000000024bc6 .LASF461
C:\Users\CYMR90~1\AppData\Local\Temp\ccLzUcmd.s:24752  .debug_str:0000000000016ab2 .LASF462
C:\Users\CYMR90~1\AppData\Local\Temp\ccLzUcmd.s:25615  .debug_str:000000000001a4f7 .LASF463
C:\Users\CYMR90~1\AppData\Local\Temp\ccLzUcmd.s:24332  .debug_str:00000000000150de .LASF464
C:\Users\CYMR90~1\AppData\Local\Temp\ccLzUcmd.s:23632  .debug_str:0000000000012360 .LASF465
C:\Users\CYMR90~1\AppData\Local\Temp\ccLzUcmd.s:20754  .debug_str:0000000000006b1c .LASF466
C:\Users\CYMR90~1\AppData\Local\Temp\ccLzUcmd.s:21320  .debug_str:0000000000009078 .LASF467
C:\Users\CYMR90~1\AppData\Local\Temp\ccLzUcmd.s:23398  .debug_str:000000000001135b .LASF468
C:\Users\CYMR90~1\AppData\Local\Temp\ccLzUcmd.s:19908  .debug_str:0000000000003566 .LASF469
C:\Users\CYMR90~1\AppData\Local\Temp\ccLzUcmd.s:23158  .debug_str:0000000000010484 .LASF470
C:\Users\CYMR90~1\AppData\Local\Temp\ccLzUcmd.s:23032  .debug_str:000000000000fd49 .LASF471
C:\Users\CYMR90~1\AppData\Local\Temp\ccLzUcmd.s:22610  .debug_str:000000000000e391 .LASF472
C:\Users\CYMR90~1\AppData\Local\Temp\ccLzUcmd.s:19274  .debug_str:0000000000000df8 .LASF473
C:\Users\CYMR90~1\AppData\Local\Temp\ccLzUcmd.s:20880  .debug_str:000000000000739c .LASF474
C:\Users\CYMR90~1\AppData\Local\Temp\ccLzUcmd.s:19218  .debug_str:0000000000000a77 .LASF475
C:\Users\CYMR90~1\AppData\Local\Temp\ccLzUcmd.s:20074  .debug_str:0000000000004036 .LASF476
C:\Users\CYMR90~1\AppData\Local\Temp\ccLzUcmd.s:19446  .debug_str:0000000000001912 .LASF477
C:\Users\CYMR90~1\AppData\Local\Temp\ccLzUcmd.s:24536  .debug_str:0000000000015d27 .LASF478
C:\Users\CYMR90~1\AppData\Local\Temp\ccLzUcmd.s:21920  .debug_str:000000000000b737 .LASF479
C:\Users\CYMR90~1\AppData\Local\Temp\ccLzUcmd.s:29703  .debug_str:000000000002a8bd .LASF480
C:\Users\CYMR90~1\AppData\Local\Temp\ccLzUcmd.s:25143  .debug_str:0000000000018420 .LASF481
C:\Users\CYMR90~1\AppData\Local\Temp\ccLzUcmd.s:21844  .debug_str:000000000000b1f7 .LASF482
C:\Users\CYMR90~1\AppData\Local\Temp\ccLzUcmd.s:20658  .debug_str:0000000000006513 .LASF483
C:\Users\CYMR90~1\AppData\Local\Temp\ccLzUcmd.s:19184  .debug_str:0000000000000835 .LASF484
C:\Users\CYMR90~1\AppData\Local\Temp\ccLzUcmd.s:25089  .debug_str:00000000000180e6 .LASF485
C:\Users\CYMR90~1\AppData\Local\Temp\ccLzUcmd.s:20286  .debug_str:0000000000004ecb .LASF486
C:\Users\CYMR90~1\AppData\Local\Temp\ccLzUcmd.s:23988  .debug_str:0000000000013b07 .LASF487
C:\Users\CYMR90~1\AppData\Local\Temp\ccLzUcmd.s:23184  .debug_str:0000000000010640 .LASF488
C:\Users\CYMR90~1\AppData\Local\Temp\ccLzUcmd.s:23752  .debug_str:0000000000012b57 .LASF489
C:\Users\CYMR90~1\AppData\Local\Temp\ccLzUcmd.s:22204  .debug_str:000000000000cac9 .LASF490
C:\Users\CYMR90~1\AppData\Local\Temp\ccLzUcmd.s:21192  .debug_str:0000000000008872 .LASF491
C:\Users\CYMR90~1\AppData\Local\Temp\ccLzUcmd.s:22828  .debug_str:000000000000f120 .LASF492
C:\Users\CYMR90~1\AppData\Local\Temp\ccLzUcmd.s:21200  .debug_str:00000000000088f7 .LASF493
C:\Users\CYMR90~1\AppData\Local\Temp\ccLzUcmd.s:23038  .debug_str:000000000000fdbd .LASF494
C:\Users\CYMR90~1\AppData\Local\Temp\ccLzUcmd.s:25339  .debug_str:00000000000191ca .LASF495
C:\Users\CYMR90~1\AppData\Local\Temp\ccLzUcmd.s:30157  .debug_str:000000000002c6d3 .LASF496
C:\Users\CYMR90~1\AppData\Local\Temp\ccLzUcmd.s:22068  .debug_str:000000000000c108 .LASF497
C:\Users\CYMR90~1\AppData\Local\Temp\ccLzUcmd.s:22876  .debug_str:000000000000f40f .LASF498
C:\Users\CYMR90~1\AppData\Local\Temp\ccLzUcmd.s:29545  .debug_str:0000000000029f60 .LASF499
C:\Users\CYMR90~1\AppData\Local\Temp\ccLzUcmd.s:29425  .debug_str:000000000002983c .LASF500
C:\Users\CYMR90~1\AppData\Local\Temp\ccLzUcmd.s:24192  .debug_str:00000000000147c0 .LASF501
C:\Users\CYMR90~1\AppData\Local\Temp\ccLzUcmd.s:29375  .debug_str:0000000000029549 .LASF502
C:\Users\CYMR90~1\AppData\Local\Temp\ccLzUcmd.s:24142  .debug_str:000000000001444b .LASF503
C:\Users\CYMR90~1\AppData\Local\Temp\ccLzUcmd.s:19778  .debug_str:0000000000002cf5 .LASF504
C:\Users\CYMR90~1\AppData\Local\Temp\ccLzUcmd.s:28025  .debug_str:0000000000023b5c .LASF505
C:\Users\CYMR90~1\AppData\Local\Temp\ccLzUcmd.s:28893  .debug_str:000000000002750b .LASF506
C:\Users\CYMR90~1\AppData\Local\Temp\ccLzUcmd.s:23170  .debug_str:000000000001053d .LASF507
C:\Users\CYMR90~1\AppData\Local\Temp\ccLzUcmd.s:25257  .debug_str:0000000000018b52 .LASF508
C:\Users\CYMR90~1\AppData\Local\Temp\ccLzUcmd.s:27455  .debug_str:0000000000021974 .LASF509
C:\Users\CYMR90~1\AppData\Local\Temp\ccLzUcmd.s:29123  .debug_str:00000000000284d3 .LASF510
C:\Users\CYMR90~1\AppData\Local\Temp\ccLzUcmd.s:25031  .debug_str:0000000000017d55 .LASF511
C:\Users\CYMR90~1\AppData\Local\Temp\ccLzUcmd.s:28735  .debug_str:0000000000026aa0 .LASF512
C:\Users\CYMR90~1\AppData\Local\Temp\ccLzUcmd.s:28865  .debug_str:0000000000027379 .LASF513
C:\Users\CYMR90~1\AppData\Local\Temp\ccLzUcmd.s:29305  .debug_str:000000000002904a .LASF514
C:\Users\CYMR90~1\AppData\Local\Temp\ccLzUcmd.s:23916  .debug_str:00000000000136bd .LASF515
C:\Users\CYMR90~1\AppData\Local\Temp\ccLzUcmd.s:29181  .debug_str:00000000000288d5 .LASF516
C:\Users\CYMR90~1\AppData\Local\Temp\ccLzUcmd.s:25403  .debug_str:000000000001959d .LASF517
C:\Users\CYMR90~1\AppData\Local\Temp\ccLzUcmd.s:29131  .debug_str:0000000000028587 .LASF518
C:\Users\CYMR90~1\AppData\Local\Temp\ccLzUcmd.s:26043  .debug_str:000000000001c0c6 .LASF519
C:\Users\CYMR90~1\AppData\Local\Temp\ccLzUcmd.s:30069  .debug_str:000000000002c125 .LASF520
C:\Users\CYMR90~1\AppData\Local\Temp\ccLzUcmd.s:26307  .debug_str:000000000001d2b3 .LASF521
C:\Users\CYMR90~1\AppData\Local\Temp\ccLzUcmd.s:28377  .debug_str:000000000002541e .LASF522
C:\Users\CYMR90~1\AppData\Local\Temp\ccLzUcmd.s:23796  .debug_str:0000000000012e49 .LASF523
C:\Users\CYMR90~1\AppData\Local\Temp\ccLzUcmd.s:27937  .debug_str:0000000000023673 .LASF524
C:\Users\CYMR90~1\AppData\Local\Temp\ccLzUcmd.s:21402  .debug_str:000000000000951c .LASF525
C:\Users\CYMR90~1\AppData\Local\Temp\ccLzUcmd.s:30089  .debug_str:000000000002c23b .LASF526
C:\Users\CYMR90~1\AppData\Local\Temp\ccLzUcmd.s:22644  .debug_str:000000000000e59b .LASF527
C:\Users\CYMR90~1\AppData\Local\Temp\ccLzUcmd.s:23656  .debug_str:00000000000124e8 .LASF528
C:\Users\CYMR90~1\AppData\Local\Temp\ccLzUcmd.s:24514  .debug_str:0000000000015b7f .LASF529
C:\Users\CYMR90~1\AppData\Local\Temp\ccLzUcmd.s:24548  .debug_str:0000000000015dd4 .LASF530
C:\Users\CYMR90~1\AppData\Local\Temp\ccLzUcmd.s:23580  .debug_str:0000000000012037 .LASF531
C:\Users\CYMR90~1\AppData\Local\Temp\ccLzUcmd.s:19838  .debug_str:000000000000309b .LASF532
C:\Users\CYMR90~1\AppData\Local\Temp\ccLzUcmd.s:22330  .debug_str:000000000000d253 .LASF533
C:\Users\CYMR90~1\AppData\Local\Temp\ccLzUcmd.s:29929  .debug_str:000000000002b72b .LASF534
C:\Users\CYMR90~1\AppData\Local\Temp\ccLzUcmd.s:22826  .debug_str:000000000000f0d4 .LASF535
C:\Users\CYMR90~1\AppData\Local\Temp\ccLzUcmd.s:28121  .debug_str:000000000002427c .LASF536
C:\Users\CYMR90~1\AppData\Local\Temp\ccLzUcmd.s:29579  .debug_str:000000000002a12e .LASF537
C:\Users\CYMR90~1\AppData\Local\Temp\ccLzUcmd.s:23412  .debug_str:000000000001143e .LASF538
C:\Users\CYMR90~1\AppData\Local\Temp\ccLzUcmd.s:23992  .debug_str:0000000000013b36 .LASF539
C:\Users\CYMR90~1\AppData\Local\Temp\ccLzUcmd.s:26101  .debug_str:000000000001c43b .LASF540
C:\Users\CYMR90~1\AppData\Local\Temp\ccLzUcmd.s:22422  .debug_str:000000000000d85e .LASF541
C:\Users\CYMR90~1\AppData\Local\Temp\ccLzUcmd.s:26395  .debug_str:000000000001d829 .LASF542
C:\Users\CYMR90~1\AppData\Local\Temp\ccLzUcmd.s:20180  .debug_str:000000000000476e .LASF543
C:\Users\CYMR90~1\AppData\Local\Temp\ccLzUcmd.s:22576  .debug_str:000000000000e16a .LASF544
C:\Users\CYMR90~1\AppData\Local\Temp\ccLzUcmd.s:29363  .debug_str:000000000002946e .LASF545
C:\Users\CYMR90~1\AppData\Local\Temp\ccLzUcmd.s:23926  .debug_str:000000000001374c .LASF546
C:\Users\CYMR90~1\AppData\Local\Temp\ccLzUcmd.s:27641  .debug_str:0000000000022495 .LASF547
C:\Users\CYMR90~1\AppData\Local\Temp\ccLzUcmd.s:29845  .debug_str:000000000002b1bb .LASF548
C:\Users\CYMR90~1\AppData\Local\Temp\ccLzUcmd.s:19882  .debug_str:00000000000033a2 .LASF549
C:\Users\CYMR90~1\AppData\Local\Temp\ccLzUcmd.s:21026  .debug_str:0000000000007cc7 .LASF550
C:\Users\CYMR90~1\AppData\Local\Temp\ccLzUcmd.s:28631  .debug_str:0000000000026458 .LASF551
C:\Users\CYMR90~1\AppData\Local\Temp\ccLzUcmd.s:20584  .debug_str:0000000000006088 .LASF552
C:\Users\CYMR90~1\AppData\Local\Temp\ccLzUcmd.s:29597  .debug_str:000000000002a22a .LASF553
C:\Users\CYMR90~1\AppData\Local\Temp\ccLzUcmd.s:21994  .debug_str:000000000000bbe2 .LASF554
C:\Users\CYMR90~1\AppData\Local\Temp\ccLzUcmd.s:22182  .debug_str:000000000000c867 .LASF555
C:\Users\CYMR90~1\AppData\Local\Temp\ccLzUcmd.s:20702  .debug_str:00000000000067d3 .LASF556
C:\Users\CYMR90~1\AppData\Local\Temp\ccLzUcmd.s:20414  .debug_str:000000000000563b .LASF557
C:\Users\CYMR90~1\AppData\Local\Temp\ccLzUcmd.s:23524  .debug_str:0000000000011c65 .LASF558
C:\Users\CYMR90~1\AppData\Local\Temp\ccLzUcmd.s:25285  .debug_str:0000000000018da8 .LASF559
C:\Users\CYMR90~1\AppData\Local\Temp\ccLzUcmd.s:29171  .debug_str:000000000002882d .LASF560
C:\Users\CYMR90~1\AppData\Local\Temp\ccLzUcmd.s:21990  .debug_str:000000000000bb7e .LASF561
C:\Users\CYMR90~1\AppData\Local\Temp\ccLzUcmd.s:22980  .debug_str:000000000000fac1 .LASF562
C:\Users\CYMR90~1\AppData\Local\Temp\ccLzUcmd.s:25447  .debug_str:000000000001990a .LASF563
C:\Users\CYMR90~1\AppData\Local\Temp\ccLzUcmd.s:21690  .debug_str:000000000000a76e .LASF564
C:\Users\CYMR90~1\AppData\Local\Temp\ccLzUcmd.s:27397  .debug_str:000000000002162d .LASF565
C:\Users\CYMR90~1\AppData\Local\Temp\ccLzUcmd.s:26637  .debug_str:000000000001e73a .LASF566
C:\Users\CYMR90~1\AppData\Local\Temp\ccLzUcmd.s:23520  .debug_str:0000000000011c1d .LASF567
C:\Users\CYMR90~1\AppData\Local\Temp\ccLzUcmd.s:28467  .debug_str:0000000000025a5e .LASF568
C:\Users\CYMR90~1\AppData\Local\Temp\ccLzUcmd.s:19244  .debug_str:0000000000000c3d .LASF570
C:\Users\CYMR90~1\AppData\Local\Temp\ccLzUcmd.s:24909  .debug_str:00000000000175d9 .LASF571
C:\Users\CYMR90~1\AppData\Local\Temp\ccLzUcmd.s:26039  .debug_str:000000000001c0a0 .LASF574
C:\Users\CYMR90~1\AppData\Local\Temp\ccLzUcmd.s:20152  .debug_str:00000000000045a9 .LASF575
C:\Users\CYMR90~1\AppData\Local\Temp\ccLzUcmd.s:24148  .debug_str:00000000000144d5 .LASF576
C:\Users\CYMR90~1\AppData\Local\Temp\ccLzUcmd.s:21122  .debug_str:0000000000008467 .LASF577
C:\Users\CYMR90~1\AppData\Local\Temp\ccLzUcmd.s:27299  .debug_str:0000000000020fd4 .LASF579
C:\Users\CYMR90~1\AppData\Local\Temp\ccLzUcmd.s:26515  .debug_str:000000000001e023 .LASF580
C:\Users\CYMR90~1\AppData\Local\Temp\ccLzUcmd.s:28023  .debug_str:0000000000023b53 .LASF581
C:\Users\CYMR90~1\AppData\Local\Temp\ccLzUcmd.s:20542  .debug_str:0000000000005df3 .LASF582
C:\Users\CYMR90~1\AppData\Local\Temp\ccLzUcmd.s:23142  .debug_str:0000000000010390 .LASF583
C:\Users\CYMR90~1\AppData\Local\Temp\ccLzUcmd.s:19736  .debug_str:0000000000002a80 .LASF584
C:\Users\CYMR90~1\AppData\Local\Temp\ccLzUcmd.s:29459  .debug_str:0000000000029a5d .LASF585
C:\Users\CYMR90~1\AppData\Local\Temp\ccLzUcmd.s:27689  .debug_str:0000000000022776 .LASF586
C:\Users\CYMR90~1\AppData\Local\Temp\ccLzUcmd.s:25925  .debug_str:000000000001b988 .LASF587
C:\Users\CYMR90~1\AppData\Local\Temp\ccLzUcmd.s:21688  .debug_str:000000000000a75e .LASF588
C:\Users\CYMR90~1\AppData\Local\Temp\ccLzUcmd.s:25195  .debug_str:0000000000018732 .LASF589
C:\Users\CYMR90~1\AppData\Local\Temp\ccLzUcmd.s:25561  .debug_str:000000000001a029 .LASF590
C:\Users\CYMR90~1\AppData\Local\Temp\ccLzUcmd.s:26387  .debug_str:000000000001d7bd .LASF591
C:\Users\CYMR90~1\AppData\Local\Temp\ccLzUcmd.s:26177  .debug_str:000000000001c97e .LASF592
C:\Users\CYMR90~1\AppData\Local\Temp\ccLzUcmd.s:28013  .debug_str:0000000000023acb .LASF593
C:\Users\CYMR90~1\AppData\Local\Temp\ccLzUcmd.s:27659  .debug_str:00000000000225ba .LASF594
C:\Users\CYMR90~1\AppData\Local\Temp\ccLzUcmd.s:23986  .debug_str:0000000000013ae7 .LASF595
C:\Users\CYMR90~1\AppData\Local\Temp\ccLzUcmd.s:23710  .debug_str:000000000001288e .LASF596
C:\Users\CYMR90~1\AppData\Local\Temp\ccLzUcmd.s:20882  .debug_str:00000000000073bb .LASF597
C:\Users\CYMR90~1\AppData\Local\Temp\ccLzUcmd.s:28989  .debug_str:0000000000027b60 .LASF598
C:\Users\CYMR90~1\AppData\Local\Temp\ccLzUcmd.s:23874  .debug_str:0000000000013408 .LASF599
C:\Users\CYMR90~1\AppData\Local\Temp\ccLzUcmd.s:26837  .debug_str:000000000001f399 .LASF600
C:\Users\CYMR90~1\AppData\Local\Temp\ccLzUcmd.s:26109  .debug_str:000000000001c4a7 .LASF601
C:\Users\CYMR90~1\AppData\Local\Temp\ccLzUcmd.s:28473  .debug_str:0000000000025abc .LASF602
C:\Users\CYMR90~1\AppData\Local\Temp\ccLzUcmd.s:29187  .debug_str:0000000000028937 .LASF603
C:\Users\CYMR90~1\AppData\Local\Temp\ccLzUcmd.s:29079  .debug_str:00000000000281f0 .LASF604
C:\Users\CYMR90~1\AppData\Local\Temp\ccLzUcmd.s:23822  .debug_str:0000000000013019 .LASF605
C:\Users\CYMR90~1\AppData\Local\Temp\ccLzUcmd.s:24847  .debug_str:0000000000017245 .LASF606
C:\Users\CYMR90~1\AppData\Local\Temp\ccLzUcmd.s:21470  .debug_str:00000000000099e0 .LASF607
C:\Users\CYMR90~1\AppData\Local\Temp\ccLzUcmd.s:20982  .debug_str:00000000000079fa .LASF608
C:\Users\CYMR90~1\AppData\Local\Temp\ccLzUcmd.s:21754  .debug_str:000000000000ab8c .LASF609
C:\Users\CYMR90~1\AppData\Local\Temp\ccLzUcmd.s:25961  .debug_str:000000000001bb60 .LASF610
C:\Users\CYMR90~1\AppData\Local\Temp\ccLzUcmd.s:20506  .debug_str:0000000000005bfa .LASF611
C:\Users\CYMR90~1\AppData\Local\Temp\ccLzUcmd.s:27613  .debug_str:0000000000022332 .LASF612
C:\Users\CYMR90~1\AppData\Local\Temp\ccLzUcmd.s:24384  .debug_str:00000000000153f1 .LASF613
C:\Users\CYMR90~1\AppData\Local\Temp\ccLzUcmd.s:21046  .debug_str:0000000000007ec1 .LASF614
C:\Users\CYMR90~1\AppData\Local\Temp\ccLzUcmd.s:19142  .debug_str:00000000000005b3 .LASF615
C:\Users\CYMR90~1\AppData\Local\Temp\ccLzUcmd.s:24620  .debug_str:000000000001628e .LASF616
C:\Users\CYMR90~1\AppData\Local\Temp\ccLzUcmd.s:25597  .debug_str:000000000001a257 .LASF617
C:\Users\CYMR90~1\AppData\Local\Temp\ccLzUcmd.s:24754  .debug_str:0000000000016ac1 .LASF618
C:\Users\CYMR90~1\AppData\Local\Temp\ccLzUcmd.s:27697  .debug_str:00000000000227db .LASF619
C:\Users\CYMR90~1\AppData\Local\Temp\ccLzUcmd.s:22008  .debug_str:000000000000bd25 .LASF620
C:\Users\CYMR90~1\AppData\Local\Temp\ccLzUcmd.s:20788  .debug_str:0000000000006d40 .LASF621
C:\Users\CYMR90~1\AppData\Local\Temp\ccLzUcmd.s:27887  .debug_str:0000000000023307 .LASF622
C:\Users\CYMR90~1\AppData\Local\Temp\ccLzUcmd.s:27011  .debug_str:000000000001fe7a .LASF623
C:\Users\CYMR90~1\AppData\Local\Temp\ccLzUcmd.s:28951  .debug_str:00000000000278ab .LASF624
C:\Users\CYMR90~1\AppData\Local\Temp\ccLzUcmd.s:29553  .debug_str:0000000000029fc9 .LASF625
C:\Users\CYMR90~1\AppData\Local\Temp\ccLzUcmd.s:24054  .debug_str:0000000000013ecb .LASF626
C:\Users\CYMR90~1\AppData\Local\Temp\ccLzUcmd.s:29809  .debug_str:000000000002af0b .LASF627
C:\Users\CYMR90~1\AppData\Local\Temp\ccLzUcmd.s:24472  .debug_str:00000000000158f8 .LASF628
C:\Users\CYMR90~1\AppData\Local\Temp\ccLzUcmd.s:29293  .debug_str:0000000000028f7f .LASF629
C:\Users\CYMR90~1\AppData\Local\Temp\ccLzUcmd.s:23092  .debug_str:0000000000010128 .LASF630
C:\Users\CYMR90~1\AppData\Local\Temp\ccLzUcmd.s:22408  .debug_str:000000000000d78f .LASF631
C:\Users\CYMR90~1\AppData\Local\Temp\ccLzUcmd.s:27603  .debug_str:0000000000022292 .LASF632
C:\Users\CYMR90~1\AppData\Local\Temp\ccLzUcmd.s:22126  .debug_str:000000000000c464 .LASF633
C:\Users\CYMR90~1\AppData\Local\Temp\ccLzUcmd.s:19234  .debug_str:0000000000000baa .LASF634
C:\Users\CYMR90~1\AppData\Local\Temp\ccLzUcmd.s:25507  .debug_str:0000000000019d12 .LASF635
C:\Users\CYMR90~1\AppData\Local\Temp\ccLzUcmd.s:24678  .debug_str:00000000000165cb .LASF636
C:\Users\CYMR90~1\AppData\Local\Temp\ccLzUcmd.s:26277  .debug_str:000000000001d0e7 .LASF637
C:\Users\CYMR90~1\AppData\Local\Temp\ccLzUcmd.s:19950  .debug_str:0000000000003800 .LASF638
C:\Users\CYMR90~1\AppData\Local\Temp\ccLzUcmd.s:23472  .debug_str:0000000000011940 .LASF639
C:\Users\CYMR90~1\AppData\Local\Temp\ccLzUcmd.s:21058  .debug_str:0000000000007f79 .LASF640
C:\Users\CYMR90~1\AppData\Local\Temp\ccLzUcmd.s:23692  .debug_str:0000000000012751 .LASF641
C:\Users\CYMR90~1\AppData\Local\Temp\ccLzUcmd.s:21910  .debug_str:000000000000b64d .LASF642
C:\Users\CYMR90~1\AppData\Local\Temp\ccLzUcmd.s:28931  .debug_str:000000000002772e .LASF643
C:\Users\CYMR90~1\AppData\Local\Temp\ccLzUcmd.s:26857  .debug_str:000000000001f4ef .LASF644
C:\Users\CYMR90~1\AppData\Local\Temp\ccLzUcmd.s:20122  .debug_str:0000000000004396 .LASF645
C:\Users\CYMR90~1\AppData\Local\Temp\ccLzUcmd.s:20942  .debug_str:0000000000007752 .LASF646
C:\Users\CYMR90~1\AppData\Local\Temp\ccLzUcmd.s:19874  .debug_str:0000000000003310 .LASF647
C:\Users\CYMR90~1\AppData\Local\Temp\ccLzUcmd.s:20230  .debug_str:0000000000004b27 .LASF648
C:\Users\CYMR90~1\AppData\Local\Temp\ccLzUcmd.s:29457  .debug_str:0000000000029a1e .LASF649
C:\Users\CYMR90~1\AppData\Local\Temp\ccLzUcmd.s:23394  .debug_str:00000000000112e8 .LASF650
C:\Users\CYMR90~1\AppData\Local\Temp\ccLzUcmd.s:29569  .debug_str:000000000002a0a5 .LASF651
C:\Users\CYMR90~1\AppData\Local\Temp\ccLzUcmd.s:22990  .debug_str:000000000000fb82 .LASF652
C:\Users\CYMR90~1\AppData\Local\Temp\ccLzUcmd.s:19122  .debug_str:00000000000004b6 .LASF653
C:\Users\CYMR90~1\AppData\Local\Temp\ccLzUcmd.s:29793  .debug_str:000000000002ae33 .LASF654
C:\Users\CYMR90~1\AppData\Local\Temp\ccLzUcmd.s:21290  .debug_str:0000000000008ee6 .LASF655
C:\Users\CYMR90~1\AppData\Local\Temp\ccLzUcmd.s:29007  .debug_str:0000000000027c7b .LASF656
C:\Users\CYMR90~1\AppData\Local\Temp\ccLzUcmd.s:19178  .debug_str:00000000000007f3 .LASF657
C:\Users\CYMR90~1\AppData\Local\Temp\ccLzUcmd.s:29617  .debug_str:000000000002a367 .LASF658
C:\Users\CYMR90~1\AppData\Local\Temp\ccLzUcmd.s:23790  .debug_str:0000000000012dfb .LASF659
C:\Users\CYMR90~1\AppData\Local\Temp\ccLzUcmd.s:26209  .debug_str:000000000001cb63 .LASF660
C:\Users\CYMR90~1\AppData\Local\Temp\ccLzUcmd.s:22676  .debug_str:000000000000e7e6 .LASF661
C:\Users\CYMR90~1\AppData\Local\Temp\ccLzUcmd.s:26863  .debug_str:000000000001f571 .LASF662
C:\Users\CYMR90~1\AppData\Local\Temp\ccLzUcmd.s:28777  .debug_str:0000000000026d6b .LASF663
C:\Users\CYMR90~1\AppData\Local\Temp\ccLzUcmd.s:23374  .debug_str:00000000000111c0 .LASF664
C:\Users\CYMR90~1\AppData\Local\Temp\ccLzUcmd.s:23366  .debug_str:0000000000011162 .LASF665
C:\Users\CYMR90~1\AppData\Local\Temp\ccLzUcmd.s:25293  .debug_str:0000000000018e4e .LASF666
C:\Users\CYMR90~1\AppData\Local\Temp\ccLzUcmd.s:20518  .debug_str:0000000000005c92 .LASF667
C:\Users\CYMR90~1\AppData\Local\Temp\ccLzUcmd.s:30275  .debug_str:000000000002cedd .LASF668
C:\Users\CYMR90~1\AppData\Local\Temp\ccLzUcmd.s:20908  .debug_str:0000000000007535 .LASF669
C:\Users\CYMR90~1\AppData\Local\Temp\ccLzUcmd.s:27491  .debug_str:0000000000021bfb .LASF670
C:\Users\CYMR90~1\AppData\Local\Temp\ccLzUcmd.s:23772  .debug_str:0000000000012cb3 .LASF671
C:\Users\CYMR90~1\AppData\Local\Temp\ccLzUcmd.s:26913  .debug_str:000000000001f831 .LASF672
C:\Users\CYMR90~1\AppData\Local\Temp\ccLzUcmd.s:27617  .debug_str:0000000000022363 .LASF673
C:\Users\CYMR90~1\AppData\Local\Temp\ccLzUcmd.s:19516  .debug_str:0000000000001d3f .LASF674
C:\Users\CYMR90~1\AppData\Local\Temp\ccLzUcmd.s:24458  .debug_str:0000000000015819 .LASF676
C:\Users\CYMR90~1\AppData\Local\Temp\ccLzUcmd.s:28041  .debug_str:0000000000023c73 .LASF677
C:\Users\CYMR90~1\AppData\Local\Temp\ccLzUcmd.s:25519  .debug_str:0000000000019dd1 .LASF678
C:\Users\CYMR90~1\AppData\Local\Temp\ccLzUcmd.s:28141  .debug_str:00000000000243f4 .LASF679
C:\Users\CYMR90~1\AppData\Local\Temp\ccLzUcmd.s:26633  .debug_str:000000000001e70a .LASF680
C:\Users\CYMR90~1\AppData\Local\Temp\ccLzUcmd.s:29471  .debug_str:0000000000029b1b .LASF681
C:\Users\CYMR90~1\AppData\Local\Temp\ccLzUcmd.s:20124  .debug_str:00000000000043d4 .LASF682
C:\Users\CYMR90~1\AppData\Local\Temp\ccLzUcmd.s:20044  .debug_str:0000000000003e33 .LASF683
C:\Users\CYMR90~1\AppData\Local\Temp\ccLzUcmd.s:21428  .debug_str:00000000000096ed .LASF684
C:\Users\CYMR90~1\AppData\Local\Temp\ccLzUcmd.s:25965  .debug_str:000000000001bb8d .LASF685
C:\Users\CYMR90~1\AppData\Local\Temp\ccLzUcmd.s:27355  .debug_str:00000000000213af .LASF686
C:\Users\CYMR90~1\AppData\Local\Temp\ccLzUcmd.s:24732  .debug_str:000000000001697f .LASF687
C:\Users\CYMR90~1\AppData\Local\Temp\ccLzUcmd.s:23298  .debug_str:0000000000010d54 .LASF688
C:\Users\CYMR90~1\AppData\Local\Temp\ccLzUcmd.s:19930  .debug_str:0000000000003692 .LASF689
C:\Users\CYMR90~1\AppData\Local\Temp\ccLzUcmd.s:20796  .debug_str:0000000000006de3 .LASF690
C:\Users\CYMR90~1\AppData\Local\Temp\ccLzUcmd.s:23640  .debug_str:00000000000123d4 .LASF691
C:\Users\CYMR90~1\AppData\Local\Temp\ccLzUcmd.s:24498  .debug_str:0000000000015a88 .LASF692
C:\Users\CYMR90~1\AppData\Local\Temp\ccLzUcmd.s:20484  .debug_str:0000000000005abd .LASF695
C:\Users\CYMR90~1\AppData\Local\Temp\ccLzUcmd.s:24907  .debug_str:00000000000175c2 .LASF696
C:\Users\CYMR90~1\AppData\Local\Temp\ccLzUcmd.s:22314  .debug_str:000000000000d151 .LASF697
C:\Users\CYMR90~1\AppData\Local\Temp\ccLzUcmd.s:25935  .debug_str:000000000001b9fc .LASF698
C:\Users\CYMR90~1\AppData\Local\Temp\ccLzUcmd.s:28081  .debug_str:0000000000023ed7 .LASF699
C:\Users\CYMR90~1\AppData\Local\Temp\ccLzUcmd.s:24228  .debug_str:00000000000149b8 .LASF702
C:\Users\CYMR90~1\AppData\Local\Temp\ccLzUcmd.s:21448  .debug_str:000000000000980d .LASF703
C:\Users\CYMR90~1\AppData\Local\Temp\ccLzUcmd.s:26807  .debug_str:000000000001f1d8 .LASF704
C:\Users\CYMR90~1\AppData\Local\Temp\ccLzUcmd.s:20308  .debug_str:000000000000500b .LASF705
C:\Users\CYMR90~1\AppData\Local\Temp\ccLzUcmd.s:24560  .debug_str:0000000000015ebb .LASF706
C:\Users\CYMR90~1\AppData\Local\Temp\ccLzUcmd.s:22874  .debug_str:000000000000f3e9 .LASF707
C:\Users\CYMR90~1\AppData\Local\Temp\ccLzUcmd.s:29201  .debug_str:0000000000028a13 .LASF708
C:\Users\CYMR90~1\AppData\Local\Temp\ccLzUcmd.s:28445  .debug_str:000000000002590e .LASF709
C:\Users\CYMR90~1\AppData\Local\Temp\ccLzUcmd.s:22518  .debug_str:000000000000de12 .LASF710
C:\Users\CYMR90~1\AppData\Local\Temp\ccLzUcmd.s:23036  .debug_str:000000000000fd8a .LASF711
C:\Users\CYMR90~1\AppData\Local\Temp\ccLzUcmd.s:24708  .debug_str:000000000001678a .LASF712
C:\Users\CYMR90~1\AppData\Local\Temp\ccLzUcmd.s:21684  .debug_str:000000000000a704 .LASF713
C:\Users\CYMR90~1\AppData\Local\Temp\ccLzUcmd.s:30013  .debug_str:000000000002bcfc .LASF714
C:\Users\CYMR90~1\AppData\Local\Temp\ccLzUcmd.s:21042  .debug_str:0000000000007e5c .LASF715
C:\Users\CYMR90~1\AppData\Local\Temp\ccLzUcmd.s:21950  .debug_str:000000000000b8d4 .LASF716
C:\Users\CYMR90~1\AppData\Local\Temp\ccLzUcmd.s:27029  .debug_str:000000000001ffbe .LASF717
C:\Users\CYMR90~1\AppData\Local\Temp\ccLzUcmd.s:28403  .debug_str:000000000002560a .LASF718
C:\Users\CYMR90~1\AppData\Local\Temp\ccLzUcmd.s:28185  .debug_str:00000000000246a9 .LASF719
C:\Users\CYMR90~1\AppData\Local\Temp\ccLzUcmd.s:25229  .debug_str:000000000001899e .LASF720
C:\Users\CYMR90~1\AppData\Local\Temp\ccLzUcmd.s:19574  .debug_str:0000000000002093 .LASF721
C:\Users\CYMR90~1\AppData\Local\Temp\ccLzUcmd.s:27135  .debug_str:000000000002060a .LASF722
C:\Users\CYMR90~1\AppData\Local\Temp\ccLzUcmd.s:26123  .debug_str:000000000001c55d .LASF723
C:\Users\CYMR90~1\AppData\Local\Temp\ccLzUcmd.s:26685  .debug_str:000000000001ea7f .LASF724
C:\Users\CYMR90~1\AppData\Local\Temp\ccLzUcmd.s:27595  .debug_str:0000000000022240 .LASF725
C:\Users\CYMR90~1\AppData\Local\Temp\ccLzUcmd.s:23890  .debug_str:000000000001351b .LASF726
C:\Users\CYMR90~1\AppData\Local\Temp\ccLzUcmd.s:21678  .debug_str:000000000000a6aa .LASF727
C:\Users\CYMR90~1\AppData\Local\Temp\ccLzUcmd.s:28533  .debug_str:0000000000025e93 .LASF728
C:\Users\CYMR90~1\AppData\Local\Temp\ccLzUcmd.s:19478  .debug_str:0000000000001aeb .LASF729
C:\Users\CYMR90~1\AppData\Local\Temp\ccLzUcmd.s:29069  .debug_str:0000000000028155 .LASF730
C:\Users\CYMR90~1\AppData\Local\Temp\ccLzUcmd.s:23862  .debug_str:0000000000013340 .LASF731
C:\Users\CYMR90~1\AppData\Local\Temp\ccLzUcmd.s:28475  .debug_str:0000000000025af7 .LASF732
C:\Users\CYMR90~1\AppData\Local\Temp\ccLzUcmd.s:30211  .debug_str:000000000002ca8b .LASF733
C:\Users\CYMR90~1\AppData\Local\Temp\ccLzUcmd.s:23350  .debug_str:000000000001105c .LASF734
C:\Users\CYMR90~1\AppData\Local\Temp\ccLzUcmd.s:23274  .debug_str:0000000000010c11 .LASF735
C:\Users\CYMR90~1\AppData\Local\Temp\ccLzUcmd.s:30145  .debug_str:000000000002c619 .LASF736
C:\Users\CYMR90~1\AppData\Local\Temp\ccLzUcmd.s:22252  .debug_str:000000000000cd6e .LASF737
C:\Users\CYMR90~1\AppData\Local\Temp\ccLzUcmd.s:26275  .debug_str:000000000001d0d6 .LASF738
C:\Users\CYMR90~1\AppData\Local\Temp\ccLzUcmd.s:29899  .debug_str:000000000002b553 .LASF739
C:\Users\CYMR90~1\AppData\Local\Temp\ccLzUcmd.s:19480  .debug_str:0000000000001afe .LASF740
C:\Users\CYMR90~1\AppData\Local\Temp\ccLzUcmd.s:22188  .debug_str:000000000000c8d7 .LASF741
C:\Users\CYMR90~1\AppData\Local\Temp\ccLzUcmd.s:19456  .debug_str:00000000000019b3 .LASF742
C:\Users\CYMR90~1\AppData\Local\Temp\ccLzUcmd.s:23306  .debug_str:0000000000010daf .LASF743
C:\Users\CYMR90~1\AppData\Local\Temp\ccLzUcmd.s:19912  .debug_str:00000000000035a3 .LASF744
C:\Users\CYMR90~1\AppData\Local\Temp\ccLzUcmd.s:21300  .debug_str:0000000000008f80 .LASF745
C:\Users\CYMR90~1\AppData\Local\Temp\ccLzUcmd.s:27607  .debug_str:00000000000222e1 .LASF746
C:\Users\CYMR90~1\AppData\Local\Temp\ccLzUcmd.s:19350  .debug_str:00000000000012af .LASF747
C:\Users\CYMR90~1\AppData\Local\Temp\ccLzUcmd.s:19340  .debug_str:000000000000122d .LASF748
C:\Users\CYMR90~1\AppData\Local\Temp\ccLzUcmd.s:20464  .debug_str:000000000000594f .LASF750
C:\Users\CYMR90~1\AppData\Local\Temp\ccLzUcmd.s:23228  .debug_str:00000000000108b0 .LASF751
C:\Users\CYMR90~1\AppData\Local\Temp\ccLzUcmd.s:29359  .debug_str:000000000002942c .LASF752
C:\Users\CYMR90~1\AppData\Local\Temp\ccLzUcmd.s:23164  .debug_str:00000000000104fe .LASF753
C:\Users\CYMR90~1\AppData\Local\Temp\ccLzUcmd.s:20350  .debug_str:0000000000005298 .LASF754
C:\Users\CYMR90~1\AppData\Local\Temp\ccLzUcmd.s:21932  .debug_str:000000000000b7db .LASF755
C:\Users\CYMR90~1\AppData\Local\Temp\ccLzUcmd.s:25483  .debug_str:0000000000019bb8 .LASF756
C:\Users\CYMR90~1\AppData\Local\Temp\ccLzUcmd.s:21436  .debug_str:0000000000009765 .LASF757
C:\Users\CYMR90~1\AppData\Local\Temp\ccLzUcmd.s:28429  .debug_str:0000000000025826 .LASF758
C:\Users\CYMR90~1\AppData\Local\Temp\ccLzUcmd.s:30243  .debug_str:000000000002ccf9 .LASF759
C:\Users\CYMR90~1\AppData\Local\Temp\ccLzUcmd.s:25849  .debug_str:000000000001b4d3 .LASF760
C:\Users\CYMR90~1\AppData\Local\Temp\ccLzUcmd.s:29995  .debug_str:000000000002bbb6 .LASF761
C:\Users\CYMR90~1\AppData\Local\Temp\ccLzUcmd.s:21862  .debug_str:000000000000b2df .LASF762
C:\Users\CYMR90~1\AppData\Local\Temp\ccLzUcmd.s:25857  .debug_str:000000000001b567 .LASF765
C:\Users\CYMR90~1\AppData\Local\Temp\ccLzUcmd.s:24530  .debug_str:0000000000015c88 .LASF766
C:\Users\CYMR90~1\AppData\Local\Temp\ccLzUcmd.s:27501  .debug_str:0000000000021c91 .LASF767
C:\Users\CYMR90~1\AppData\Local\Temp\ccLzUcmd.s:24520  .debug_str:0000000000015c18 .LASF768
C:\Users\CYMR90~1\AppData\Local\Temp\ccLzUcmd.s:19724  .debug_str:00000000000029bf .LASF769
C:\Users\CYMR90~1\AppData\Local\Temp\ccLzUcmd.s:25981  .debug_str:000000000001bcd0 .LASF770
C:\Users\CYMR90~1\AppData\Local\Temp\ccLzUcmd.s:24616  .debug_str:0000000000016268 .LASF771
C:\Users\CYMR90~1\AppData\Local\Temp\ccLzUcmd.s:28149  .debug_str:0000000000024462 .LASF772
C:\Users\CYMR90~1\AppData\Local\Temp\ccLzUcmd.s:27785  .debug_str:0000000000022d54 .LASF773
C:\Users\CYMR90~1\AppData\Local\Temp\ccLzUcmd.s:22600  .debug_str:000000000000e307 .LASF774
C:\Users\CYMR90~1\AppData\Local\Temp\ccLzUcmd.s:28477  .debug_str:0000000000025b0d .LASF775
C:\Users\CYMR90~1\AppData\Local\Temp\ccLzUcmd.s:21580  .debug_str:000000000000a0ba .LASF776
C:\Users\CYMR90~1\AppData\Local\Temp\ccLzUcmd.s:21596  .debug_str:000000000000a1be .LASF777
C:\Users\CYMR90~1\AppData\Local\Temp\ccLzUcmd.s:26623  .debug_str:000000000001e669 .LASF778
C:\Users\CYMR90~1\AppData\Local\Temp\ccLzUcmd.s:27221  .debug_str:0000000000020b52 .LASF779
C:\Users\CYMR90~1\AppData\Local\Temp\ccLzUcmd.s:26871  .debug_str:000000000001f5e6 .LASF780
C:\Users\CYMR90~1\AppData\Local\Temp\ccLzUcmd.s:27497  .debug_str:0000000000021c58 .LASF781
C:\Users\CYMR90~1\AppData\Local\Temp\ccLzUcmd.s:23590  .debug_str:00000000000120de .LASF782
C:\Users\CYMR90~1\AppData\Local\Temp\ccLzUcmd.s:24740  .debug_str:0000000000016a15 .LASF783
C:\Users\CYMR90~1\AppData\Local\Temp\ccLzUcmd.s:23488  .debug_str:0000000000011a3e .LASF784
C:\Users\CYMR90~1\AppData\Local\Temp\ccLzUcmd.s:22774  .debug_str:000000000000ede8 .LASF785
C:\Users\CYMR90~1\AppData\Local\Temp\ccLzUcmd.s:27855  .debug_str:0000000000023131 .LASF786
C:\Users\CYMR90~1\AppData\Local\Temp\ccLzUcmd.s:24242  .debug_str:0000000000014add .LASF787
C:\Users\CYMR90~1\AppData\Local\Temp\ccLzUcmd.s:26559  .debug_str:000000000001e2b1 .LASF788
C:\Users\CYMR90~1\AppData\Local\Temp\ccLzUcmd.s:22950  .debug_str:000000000000f902 .LASF789
C:\Users\CYMR90~1\AppData\Local\Temp\ccLzUcmd.s:20400  .debug_str:000000000000558a .LASF790
C:\Users\CYMR90~1\AppData\Local\Temp\ccLzUcmd.s:28827  .debug_str:0000000000027125 .LASF791
C:\Users\CYMR90~1\AppData\Local\Temp\ccLzUcmd.s:21164  .debug_str:00000000000086b1 .LASF792
C:\Users\CYMR90~1\AppData\Local\Temp\ccLzUcmd.s:30217  .debug_str:000000000002cad9 .LASF793
C:\Users\CYMR90~1\AppData\Local\Temp\ccLzUcmd.s:20952  .debug_str:0000000000007826 .LASF794
C:\Users\CYMR90~1\AppData\Local\Temp\ccLzUcmd.s:29085  .debug_str:000000000002824f .LASF795
C:\Users\CYMR90~1\AppData\Local\Temp\ccLzUcmd.s:27109  .debug_str:0000000000020416 .LASF796
C:\Users\CYMR90~1\AppData\Local\Temp\ccLzUcmd.s:29785  .debug_str:000000000002ade2 .LASF797
C:\Users\CYMR90~1\AppData\Local\Temp\ccLzUcmd.s:20774  .debug_str:0000000000006c6a .LASF798
C:\Users\CYMR90~1\AppData\Local\Temp\ccLzUcmd.s:29147  .debug_str:00000000000286af .LASF799
C:\Users\CYMR90~1\AppData\Local\Temp\ccLzUcmd.s:20364  .debug_str:0000000000005364 .LASF800
C:\Users\CYMR90~1\AppData\Local\Temp\ccLzUcmd.s:25617  .debug_str:000000000001a504 .LASF801
C:\Users\CYMR90~1\AppData\Local\Temp\ccLzUcmd.s:25643  .debug_str:000000000001a693 .LASF802
C:\Users\CYMR90~1\AppData\Local\Temp\ccLzUcmd.s:21500  .debug_str:0000000000009bca .LASF803
C:\Users\CYMR90~1\AppData\Local\Temp\ccLzUcmd.s:23994  .debug_str:0000000000013b56 .LASF804
C:\Users\CYMR90~1\AppData\Local\Temp\ccLzUcmd.s:20792  .debug_str:0000000000006d64 .LASF805
C:\Users\CYMR90~1\AppData\Local\Temp\ccLzUcmd.s:23440  .debug_str:0000000000011683 .LASF806
C:\Users\CYMR90~1\AppData\Local\Temp\ccLzUcmd.s:26581  .debug_str:000000000001e3c7 .LASF807
C:\Users\CYMR90~1\AppData\Local\Temp\ccLzUcmd.s:26173  .debug_str:000000000001c92e .LASF808
C:\Users\CYMR90~1\AppData\Local\Temp\ccLzUcmd.s:28543  .debug_str:0000000000025f27 .LASF809
C:\Users\CYMR90~1\AppData\Local\Temp\ccLzUcmd.s:29999  .debug_str:000000000002bc0b .LASF810
C:\Users\CYMR90~1\AppData\Local\Temp\ccLzUcmd.s:21190  .debug_str:0000000000008839 .LASF811
C:\Users\CYMR90~1\AppData\Local\Temp\ccLzUcmd.s:20104  .debug_str:0000000000004298 .LASF812
C:\Users\CYMR90~1\AppData\Local\Temp\ccLzUcmd.s:30033  .debug_str:000000000002bebf .LASF813
C:\Users\CYMR90~1\AppData\Local\Temp\ccLzUcmd.s:20460  .debug_str:0000000000005928 .LASF814
C:\Users\CYMR90~1\AppData\Local\Temp\ccLzUcmd.s:20684  .debug_str:0000000000006698 .LASF815
C:\Users\CYMR90~1\AppData\Local\Temp\ccLzUcmd.s:25949  .debug_str:000000000001baba .LASF816
C:\Users\CYMR90~1\AppData\Local\Temp\ccLzUcmd.s:21366  .debug_str:000000000000932d .LASF817
C:\Users\CYMR90~1\AppData\Local\Temp\ccLzUcmd.s:26089  .debug_str:000000000001c397 .LASF818
C:\Users\CYMR90~1\AppData\Local\Temp\ccLzUcmd.s:25985  .debug_str:000000000001bce8 .LASF819
C:\Users\CYMR90~1\AppData\Local\Temp\ccLzUcmd.s:19220  .debug_str:0000000000000ab0 .LASF820
C:\Users\CYMR90~1\AppData\Local\Temp\ccLzUcmd.s:29619  .debug_str:000000000002a377 .LASF821
C:\Users\CYMR90~1\AppData\Local\Temp\ccLzUcmd.s:28145  .debug_str:0000000000024432 .LASF822
C:\Users\CYMR90~1\AppData\Local\Temp\ccLzUcmd.s:21332  .debug_str:000000000000910f .LASF823
C:\Users\CYMR90~1\AppData\Local\Temp\ccLzUcmd.s:20312  .debug_str:0000000000005045 .LASF824
C:\Users\CYMR90~1\AppData\Local\Temp\ccLzUcmd.s:26279  .debug_str:000000000001d111 .LASF825
C:\Users\CYMR90~1\AppData\Local\Temp\ccLzUcmd.s:24456  .debug_str:00000000000157f8 .LASF826
C:\Users\CYMR90~1\AppData\Local\Temp\ccLzUcmd.s:19994  .debug_str:0000000000003af3 .LASF827
C:\Users\CYMR90~1\AppData\Local\Temp\ccLzUcmd.s:22752  .debug_str:000000000000ecb3 .LASF828
C:\Users\CYMR90~1\AppData\Local\Temp\ccLzUcmd.s:28253  .debug_str:0000000000024b65 .LASF829
C:\Users\CYMR90~1\AppData\Local\Temp\ccLzUcmd.s:28419  .debug_str:0000000000025766 .LASF830
C:\Users\CYMR90~1\AppData\Local\Temp\ccLzUcmd.s:21938  .debug_str:000000000000b836 .LASF831
C:\Users\CYMR90~1\AppData\Local\Temp\ccLzUcmd.s:22700  .debug_str:000000000000e970 .LASF832
C:\Users\CYMR90~1\AppData\Local\Temp\ccLzUcmd.s:20550  .debug_str:0000000000005e5f .LASF833
C:\Users\CYMR90~1\AppData\Local\Temp\ccLzUcmd.s:23352  .debug_str:000000000001106d .LASF834
C:\Users\CYMR90~1\AppData\Local\Temp\ccLzUcmd.s:25153  .debug_str:00000000000184e6 .LASF835
C:\Users\CYMR90~1\AppData\Local\Temp\ccLzUcmd.s:23256  .debug_str:0000000000010a9e .LASF836
C:\Users\CYMR90~1\AppData\Local\Temp\ccLzUcmd.s:27021  .debug_str:000000000001ff42 .LASF837
C:\Users\CYMR90~1\AppData\Local\Temp\ccLzUcmd.s:21236  .debug_str:0000000000008b3e .LASF838
C:\Users\CYMR90~1\AppData\Local\Temp\ccLzUcmd.s:20388  .debug_str:00000000000054e9 .LASF839
C:\Users\CYMR90~1\AppData\Local\Temp\ccLzUcmd.s:23154  .debug_str:000000000001044d .LASF840
C:\Users\CYMR90~1\AppData\Local\Temp\ccLzUcmd.s:22072  .debug_str:000000000000c145 .LASF841
C:\Users\CYMR90~1\AppData\Local\Temp\ccLzUcmd.s:26191  .debug_str:000000000001ca5d .LASF842
C:\Users\CYMR90~1\AppData\Local\Temp\ccLzUcmd.s:19292  .debug_str:0000000000000f8b .LASF843
C:\Users\CYMR90~1\AppData\Local\Temp\ccLzUcmd.s:19662  .debug_str:000000000000259e .LASF844
C:\Users\CYMR90~1\AppData\Local\Temp\ccLzUcmd.s:28005  .debug_str:0000000000023a61 .LASF845
C:\Users\CYMR90~1\AppData\Local\Temp\ccLzUcmd.s:19052  .debug_str:0000000000000096 .LASF846
C:\Users\CYMR90~1\AppData\Local\Temp\ccLzUcmd.s:21032  .debug_str:0000000000007dcf .LASF847
C:\Users\CYMR90~1\AppData\Local\Temp\ccLzUcmd.s:26877  .debug_str:000000000001f634 .LASF848
C:\Users\CYMR90~1\AppData\Local\Temp\ccLzUcmd.s:21000  .debug_str:0000000000007b4c .LASF849
C:\Users\CYMR90~1\AppData\Local\Temp\ccLzUcmd.s:22370  .debug_str:000000000000d566 .LASF852
C:\Users\CYMR90~1\AppData\Local\Temp\ccLzUcmd.s:29195  .debug_str:00000000000289bb .LASF853
C:\Users\CYMR90~1\AppData\Local\Temp\ccLzUcmd.s:24302  .debug_str:0000000000014ef4 .LASF854
C:\Users\CYMR90~1\AppData\Local\Temp\ccLzUcmd.s:27507  .debug_str:0000000000021d26 .LASF856
C:\Users\CYMR90~1\AppData\Local\Temp\ccLzUcmd.s:26413  .debug_str:000000000001d97a .LASF857
C:\Users\CYMR90~1\AppData\Local\Temp\ccLzUcmd.s:29019  .debug_str:0000000000027d2b .LASF858
C:\Users\CYMR90~1\AppData\Local\Temp\ccLzUcmd.s:22356  .debug_str:000000000000d482 .LASF859
C:\Users\CYMR90~1\AppData\Local\Temp\ccLzUcmd.s:24248  .debug_str:0000000000014b24 .LASF860
C:\Users\CYMR90~1\AppData\Local\Temp\ccLzUcmd.s:27435  .debug_str:0000000000021881 .LASF861
C:\Users\CYMR90~1\AppData\Local\Temp\ccLzUcmd.s:26615  .debug_str:000000000001e619 .LASF862
C:\Users\CYMR90~1\AppData\Local\Temp\ccLzUcmd.s:19390  .debug_str:000000000000150c .LASF863
C:\Users\CYMR90~1\AppData\Local\Temp\ccLzUcmd.s:20050  .debug_str:0000000000003e78 .LASF864
C:\Users\CYMR90~1\AppData\Local\Temp\ccLzUcmd.s:20434  .debug_str:00000000000057aa .LASF865
C:\Users\CYMR90~1\AppData\Local\Temp\ccLzUcmd.s:21628  .debug_str:000000000000a3d5 .LASF866
C:\Users\CYMR90~1\AppData\Local\Temp\ccLzUcmd.s:21102  .debug_str:0000000000008308 .LASF867
C:\Users\CYMR90~1\AppData\Local\Temp\ccLzUcmd.s:26345  .debug_str:000000000001d4f2 .LASF868
C:\Users\CYMR90~1\AppData\Local\Temp\ccLzUcmd.s:26959  .debug_str:000000000001fb37 .LASF869
C:\Users\CYMR90~1\AppData\Local\Temp\ccLzUcmd.s:28017  .debug_str:0000000000023b0e .LASF870
C:\Users\CYMR90~1\AppData\Local\Temp\ccLzUcmd.s:21272  .debug_str:0000000000008da0 .LASF871
C:\Users\CYMR90~1\AppData\Local\Temp\ccLzUcmd.s:21704  .debug_str:000000000000a87a .LASF872
C:\Users\CYMR90~1\AppData\Local\Temp\ccLzUcmd.s:26181  .debug_str:000000000001c9d2 .LASF873
C:\Users\CYMR90~1\AppData\Local\Temp\ccLzUcmd.s:28709  .debug_str:0000000000026925 .LASF874
C:\Users\CYMR90~1\AppData\Local\Temp\ccLzUcmd.s:23508  .debug_str:0000000000011b56 .LASF875
C:\Users\CYMR90~1\AppData\Local\Temp\ccLzUcmd.s:24206  .debug_str:00000000000148b3 .LASF876
C:\Users\CYMR90~1\AppData\Local\Temp\ccLzUcmd.s:21506  .debug_str:0000000000009c1f .LASF877
C:\Users\CYMR90~1\AppData\Local\Temp\ccLzUcmd.s:25887  .debug_str:000000000001b73a .LASF878
C:\Users\CYMR90~1\AppData\Local\Temp\ccLzUcmd.s:24408  .debug_str:0000000000015556 .LASF879
C:\Users\CYMR90~1\AppData\Local\Temp\ccLzUcmd.s:24851  .debug_str:0000000000017282 .LASF880
C:\Users\CYMR90~1\AppData\Local\Temp\ccLzUcmd.s:20366  .debug_str:000000000000537d .LASF881
C:\Users\CYMR90~1\AppData\Local\Temp\ccLzUcmd.s:23732  .debug_str:0000000000012a2a .LASF882
C:\Users\CYMR90~1\AppData\Local\Temp\ccLzUcmd.s:26849  .debug_str:000000000001f481 .LASF883
C:\Users\CYMR90~1\AppData\Local\Temp\ccLzUcmd.s:27033  .debug_str:000000000001ffeb .LASF884
C:\Users\CYMR90~1\AppData\Local\Temp\ccLzUcmd.s:30263  .debug_str:000000000002ce0b .LASF885
C:\Users\CYMR90~1\AppData\Local\Temp\ccLzUcmd.s:25897  .debug_str:000000000001b7c4 .LASF886
C:\Users\CYMR90~1\AppData\Local\Temp\ccLzUcmd.s:21378  .debug_str:00000000000093d4 .LASF887
C:\Users\CYMR90~1\AppData\Local\Temp\ccLzUcmd.s:27969  .debug_str:0000000000023870 .LASF888
C:\Users\CYMR90~1\AppData\Local\Temp\ccLzUcmd.s:23668  .debug_str:00000000000125cf .LASF889
C:\Users\CYMR90~1\AppData\Local\Temp\ccLzUcmd.s:27903  .debug_str:0000000000023411 .LASF890
C:\Users\CYMR90~1\AppData\Local\Temp\ccLzUcmd.s:20196  .debug_str:000000000000491f .LASF891
C:\Users\CYMR90~1\AppData\Local\Temp\ccLzUcmd.s:21020  .debug_str:0000000000007c69 .LASF892
C:\Users\CYMR90~1\AppData\Local\Temp\ccLzUcmd.s:28657  .debug_str:0000000000026627 .LASF893
C:\Users\CYMR90~1\AppData\Local\Temp\ccLzUcmd.s:28061  .debug_str:0000000000023da9 .LASF894
C:\Users\CYMR90~1\AppData\Local\Temp\ccLzUcmd.s:19362  .debug_str:0000000000001359 .LASF895
C:\Users\CYMR90~1\AppData\Local\Temp\ccLzUcmd.s:24056  .debug_str:0000000000013f03 .LASF896
C:\Users\CYMR90~1\AppData\Local\Temp\ccLzUcmd.s:20276  .debug_str:0000000000004e17 .LASF897
C:\Users\CYMR90~1\AppData\Local\Temp\ccLzUcmd.s:21496  .debug_str:0000000000009b8b .LASF898
C:\Users\CYMR90~1\AppData\Local\Temp\ccLzUcmd.s:28963  .debug_str:00000000000279bb .LASF899
C:\Users\CYMR90~1\AppData\Local\Temp\ccLzUcmd.s:21820  .debug_str:000000000000b074 .LASF900
C:\Users\CYMR90~1\AppData\Local\Temp\ccLzUcmd.s:25941  .debug_str:000000000001ba32 .LASF901
C:\Users\CYMR90~1\AppData\Local\Temp\ccLzUcmd.s:29493  .debug_str:0000000000029c76 .LASF902
C:\Users\CYMR90~1\AppData\Local\Temp\ccLzUcmd.s:28251  .debug_str:0000000000024b3f .LASF903
C:\Users\CYMR90~1\AppData\Local\Temp\ccLzUcmd.s:29107  .debug_str:00000000000283b8 .LASF904
C:\Users\CYMR90~1\AppData\Local\Temp\ccLzUcmd.s:26635  .debug_str:000000000001e71b .LASF905
C:\Users\CYMR90~1\AppData\Local\Temp\ccLzUcmd.s:21152  .debug_str:0000000000008616 .LASF906
C:\Users\CYMR90~1\AppData\Local\Temp\ccLzUcmd.s:29661  .debug_str:000000000002a670 .LASF907
C:\Users\CYMR90~1\AppData\Local\Temp\ccLzUcmd.s:22648  .debug_str:000000000000e61c .LASF908
C:\Users\CYMR90~1\AppData\Local\Temp\ccLzUcmd.s:28935  .debug_str:000000000002778e .LASF909
C:\Users\CYMR90~1\AppData\Local\Temp\ccLzUcmd.s:23276  .debug_str:0000000000010c22 .LASF910
C:\Users\CYMR90~1\AppData\Local\Temp\ccLzUcmd.s:19754  .debug_str:0000000000002b80 .LASF911
C:\Users\CYMR90~1\AppData\Local\Temp\ccLzUcmd.s:19334  .debug_str:00000000000011f0 .LASF912
C:\Users\CYMR90~1\AppData\Local\Temp\ccLzUcmd.s:27357  .debug_str:00000000000213d3 .LASF913
C:\Users\CYMR90~1\AppData\Local\Temp\ccLzUcmd.s:28233  .debug_str:0000000000024a0f .LASF914
C:\Users\CYMR90~1\AppData\Local\Temp\ccLzUcmd.s:22200  .debug_str:000000000000c9a9 .LASF915
C:\Users\CYMR90~1\AppData\Local\Temp\ccLzUcmd.s:24823  .debug_str:00000000000170b2 .LASF916
C:\Users\CYMR90~1\AppData\Local\Temp\ccLzUcmd.s:23084  .debug_str:000000000001009e .LASF917
C:\Users\CYMR90~1\AppData\Local\Temp\ccLzUcmd.s:29735  .debug_str:000000000002aaae .LASF918
C:\Users\CYMR90~1\AppData\Local\Temp\ccLzUcmd.s:19320  .debug_str:00000000000010fc .LASF919
C:\Users\CYMR90~1\AppData\Local\Temp\ccLzUcmd.s:21804  .debug_str:000000000000af70 .LASF920
C:\Users\CYMR90~1\AppData\Local\Temp\ccLzUcmd.s:28189  .debug_str:00000000000246d9 .LASF921
C:\Users\CYMR90~1\AppData\Local\Temp\ccLzUcmd.s:25639  .debug_str:000000000001a647 .LASF922
C:\Users\CYMR90~1\AppData\Local\Temp\ccLzUcmd.s:28689  .debug_str:0000000000026807 .LASF923
C:\Users\CYMR90~1\AppData\Local\Temp\ccLzUcmd.s:24779  .debug_str:0000000000016e36 .LASF924
C:\Users\CYMR90~1\AppData\Local\Temp\ccLzUcmd.s:19716  .debug_str:000000000000292c .LASF925
C:\Users\CYMR90~1\AppData\Local\Temp\ccLzUcmd.s:25851  .debug_str:000000000001b50d .LASF926
C:\Users\CYMR90~1\AppData\Local\Temp\ccLzUcmd.s:19434  .debug_str:0000000000001841 .LASF927
C:\Users\CYMR90~1\AppData\Local\Temp\ccLzUcmd.s:24234  .debug_str:0000000000014a57 .LASF928
C:\Users\CYMR90~1\AppData\Local\Temp\ccLzUcmd.s:26909  .debug_str:000000000001f7f8 .LASF929
C:\Users\CYMR90~1\AppData\Local\Temp\ccLzUcmd.s:29997  .debug_str:000000000002bbee .LASF930
C:\Users\CYMR90~1\AppData\Local\Temp\ccLzUcmd.s:30209  .debug_str:000000000002ca6d .LASF931
C:\Users\CYMR90~1\AppData\Local\Temp\ccLzUcmd.s:26809  .debug_str:000000000001f1ec .LASF932
C:\Users\CYMR90~1\AppData\Local\Temp\ccLzUcmd.s:29473  .debug_str:0000000000029b2b .LASF933
C:\Users\CYMR90~1\AppData\Local\Temp\ccLzUcmd.s:24580  .debug_str:0000000000016043 .LASF934
C:\Users\CYMR90~1\AppData\Local\Temp\ccLzUcmd.s:25421  .debug_str:00000000000196b9 .LASF935
C:\Users\CYMR90~1\AppData\Local\Temp\ccLzUcmd.s:24460  .debug_str:000000000001582d .LASF936
C:\Users\CYMR90~1\AppData\Local\Temp\ccLzUcmd.s:28319  .debug_str:0000000000024fd8 .LASF937
C:\Users\CYMR90~1\AppData\Local\Temp\ccLzUcmd.s:19238  .debug_str:0000000000000be3 .LASF938
C:\Users\CYMR90~1\AppData\Local\Temp\ccLzUcmd.s:27175  .debug_str:000000000002087c .LASF939
C:\Users\CYMR90~1\AppData\Local\Temp\ccLzUcmd.s:28405  .debug_str:0000000000025616 .LASF940
C:\Users\CYMR90~1\AppData\Local\Temp\ccLzUcmd.s:21940  .debug_str:000000000000b854 .LASF941
C:\Users\CYMR90~1\AppData\Local\Temp\ccLzUcmd.s:25627  .debug_str:000000000001a588 .LASF942
C:\Users\CYMR90~1\AppData\Local\Temp\ccLzUcmd.s:22688  .debug_str:000000000000e87e .LASF943
C:\Users\CYMR90~1\AppData\Local\Temp\ccLzUcmd.s:28347  .debug_str:0000000000025223 .LASF944
C:\Users\CYMR90~1\AppData\Local\Temp\ccLzUcmd.s:26033  .debug_str:000000000001c044 .LASF945
C:\Users\CYMR90~1\AppData\Local\Temp\ccLzUcmd.s:22894  .debug_str:000000000000f525 .LASF946
C:\Users\CYMR90~1\AppData\Local\Temp\ccLzUcmd.s:24935  .debug_str:000000000001778f .LASF947
C:\Users\CYMR90~1\AppData\Local\Temp\ccLzUcmd.s:26543  .debug_str:000000000001e1cb .LASF948
C:\Users\CYMR90~1\AppData\Local\Temp\ccLzUcmd.s:23252  .debug_str:0000000000010a60 .LASF949
C:\Users\CYMR90~1\AppData\Local\Temp\ccLzUcmd.s:22260  .debug_str:000000000000cdd9 .LASF950
C:\Users\CYMR90~1\AppData\Local\Temp\ccLzUcmd.s:30133  .debug_str:000000000002c599 .LASF952
C:\Users\CYMR90~1\AppData\Local\Temp\ccLzUcmd.s:24386  .debug_str:0000000000015408 .LASF953
C:\Users\CYMR90~1\AppData\Local\Temp\ccLzUcmd.s:22292  .debug_str:000000000000d002 .LASF954
C:\Users\CYMR90~1\AppData\Local\Temp\ccLzUcmd.s:30201  .debug_str:000000000002c9f8 .LASF955
C:\Users\CYMR90~1\AppData\Local\Temp\ccLzUcmd.s:29371  .debug_str:00000000000294cc .LASF956
C:\Users\CYMR90~1\AppData\Local\Temp\ccLzUcmd.s:29463  .debug_str:0000000000029a95 .LASF960
C:\Users\CYMR90~1\AppData\Local\Temp\ccLzUcmd.s:21404  .debug_str:00000000000095a8 .LASF961
C:\Users\CYMR90~1\AppData\Local\Temp\ccLzUcmd.s:28717  .debug_str:00000000000269b0 .LASF962
C:\Users\CYMR90~1\AppData\Local\Temp\ccLzUcmd.s:23480  .debug_str:00000000000119c2 .LASF963
C:\Users\CYMR90~1\AppData\Local\Temp\ccLzUcmd.s:20884  .debug_str:00000000000073df .LASF964
C:\Users\CYMR90~1\AppData\Local\Temp\ccLzUcmd.s:27539  .debug_str:0000000000021ef3 .LASF965
C:\Users\CYMR90~1\AppData\Local\Temp\ccLzUcmd.s:25845  .debug_str:000000000001b4a1 .LASF966
C:\Users\CYMR90~1\AppData\Local\Temp\ccLzUcmd.s:28663  .debug_str:0000000000026683 .LASF967
C:\Users\CYMR90~1\AppData\Local\Temp\ccLzUcmd.s:29779  .debug_str:000000000002ad74 .LASF968
C:\Users\CYMR90~1\AppData\Local\Temp\ccLzUcmd.s:20608  .debug_str:00000000000061f3 .LASF969
C:\Users\CYMR90~1\AppData\Local\Temp\ccLzUcmd.s:24098  .debug_str:00000000000141da .LASF970
C:\Users\CYMR90~1\AppData\Local\Temp\ccLzUcmd.s:29869  .debug_str:000000000002b34b .LASF971
C:\Users\CYMR90~1\AppData\Local\Temp\ccLzUcmd.s:22698  .debug_str:000000000000e94a .LASF972
C:\Users\CYMR90~1\AppData\Local\Temp\ccLzUcmd.s:24160  .debug_str:00000000000145ca .LASF973
C:\Users\CYMR90~1\AppData\Local\Temp\ccLzUcmd.s:22320  .debug_str:000000000000d1aa .LASF974
C:\Users\CYMR90~1\AppData\Local\Temp\ccLzUcmd.s:24714  .debug_str:0000000000016804 .LASF975
C:\Users\CYMR90~1\AppData\Local\Temp\ccLzUcmd.s:30231  .debug_str:000000000002cb81 .LASF976
C:\Users\CYMR90~1\AppData\Local\Temp\ccLzUcmd.s:22254  .debug_str:000000000000cd7f .LASF977
C:\Users\CYMR90~1\AppData\Local\Temp\ccLzUcmd.s:30251  .debug_str:000000000002cd88 .LASF978
C:\Users\CYMR90~1\AppData\Local\Temp\ccLzUcmd.s:28505  .debug_str:0000000000025cc1 .LASF979
C:\Users\CYMR90~1\AppData\Local\Temp\ccLzUcmd.s:28561  .debug_str:0000000000026034 .LASF980
C:\Users\CYMR90~1\AppData\Local\Temp\ccLzUcmd.s:22750  .debug_str:000000000000ec99 .LASF981
C:\Users\CYMR90~1\AppData\Local\Temp\ccLzUcmd.s:20318  .debug_str:000000000000509e .LASF982
C:\Users\CYMR90~1\AppData\Local\Temp\ccLzUcmd.s:23504  .debug_str:0000000000011b39 .LASF983
C:\Users\CYMR90~1\AppData\Local\Temp\ccLzUcmd.s:26255  .debug_str:000000000001cf07 .LASF984
C:\Users\CYMR90~1\AppData\Local\Temp\ccLzUcmd.s:26269  .debug_str:000000000001cfee .LASF985
C:\Users\CYMR90~1\AppData\Local\Temp\ccLzUcmd.s:27817  .debug_str:0000000000022f1d .LASF986
C:\Users\CYMR90~1\AppData\Local\Temp\ccLzUcmd.s:24526  .debug_str:0000000000015c64 .LASF987
C:\Users\CYMR90~1\AppData\Local\Temp\ccLzUcmd.s:19772  .debug_str:0000000000002c94 .LASF988
C:\Users\CYMR90~1\AppData\Local\Temp\ccLzUcmd.s:27733  .debug_str:0000000000022a6a .LASF989
C:\Users\CYMR90~1\AppData\Local\Temp\ccLzUcmd.s:25243  .debug_str:0000000000018a68 .LASF990
C:\Users\CYMR90~1\AppData\Local\Temp\ccLzUcmd.s:22250  .debug_str:000000000000cd57 .LASF991
C:\Users\CYMR90~1\AppData\Local\Temp\ccLzUcmd.s:28665  .debug_str:00000000000266ab .LASF992
C:\Users\CYMR90~1\AppData\Local\Temp\ccLzUcmd.s:20904  .debug_str:00000000000074fc .LASF993
C:\Users\CYMR90~1\AppData\Local\Temp\ccLzUcmd.s:28485  .debug_str:0000000000025b76 .LASF994
C:\Users\CYMR90~1\AppData\Local\Temp\ccLzUcmd.s:25327  .debug_str:0000000000019109 .LASF995
C:\Users\CYMR90~1\AppData\Local\Temp\ccLzUcmd.s:29281  .debug_str:0000000000028ef2 .LASF996
C:\Users\CYMR90~1\AppData\Local\Temp\ccLzUcmd.s:26455  .debug_str:000000000001dbc9 .LASF997
C:\Users\CYMR90~1\AppData\Local\Temp\ccLzUcmd.s:26525  .debug_str:000000000001e0a4 .LASF998
C:\Users\CYMR90~1\AppData\Local\Temp\ccLzUcmd.s:19674  .debug_str:0000000000002632 .LASF999
C:\Users\CYMR90~1\AppData\Local\Temp\ccLzUcmd.s:20000  .debug_str:0000000000003b4b .LASF1000
C:\Users\CYMR90~1\AppData\Local\Temp\ccLzUcmd.s:24252  .debug_str:0000000000014b54 .LASF1001
C:\Users\CYMR90~1\AppData\Local\Temp\ccLzUcmd.s:23094  .debug_str:000000000001015e .LASF1002
C:\Users\CYMR90~1\AppData\Local\Temp\ccLzUcmd.s:20268  .debug_str:0000000000004dbe .LASF1003
C:\Users\CYMR90~1\AppData\Local\Temp\ccLzUcmd.s:26075  .debug_str:000000000001c2cc .LASF1004
C:\Users\CYMR90~1\AppData\Local\Temp\ccLzUcmd.s:23456  .debug_str:00000000000117bb .LASF1005
C:\Users\CYMR90~1\AppData\Local\Temp\ccLzUcmd.s:22214  .debug_str:000000000000cb8d .LASF1006
C:\Users\CYMR90~1\AppData\Local\Temp\ccLzUcmd.s:20582  .debug_str:000000000000606a .LASF1007
C:\Users\CYMR90~1\AppData\Local\Temp\ccLzUcmd.s:27535  .debug_str:0000000000021ebb .LASF1008
C:\Users\CYMR90~1\AppData\Local\Temp\ccLzUcmd.s:25017  .debug_str:0000000000017c85 .LASF1009
C:\Users\CYMR90~1\AppData\Local\Temp\ccLzUcmd.s:25177  .debug_str:000000000001863e .LASF1010
C:\Users\CYMR90~1\AppData\Local\Temp\ccLzUcmd.s:22524  .debug_str:000000000000de60 .LASF1011
C:\Users\CYMR90~1\AppData\Local\Temp\ccLzUcmd.s:26315  .debug_str:000000000001d331 .LASF1012
C:\Users\CYMR90~1\AppData\Local\Temp\ccLzUcmd.s:22714  .debug_str:000000000000ea3d .LASF1013
C:\Users\CYMR90~1\AppData\Local\Temp\ccLzUcmd.s:25437  .debug_str:000000000001981d .LASF1014
C:\Users\CYMR90~1\AppData\Local\Temp\ccLzUcmd.s:19998  .debug_str:0000000000003b35 .LASF1015
C:\Users\CYMR90~1\AppData\Local\Temp\ccLzUcmd.s:20468  .debug_str:000000000000597a .LASF1016
C:\Users\CYMR90~1\AppData\Local\Temp\ccLzUcmd.s:20424  .debug_str:0000000000005713 .LASF1017
C:\Users\CYMR90~1\AppData\Local\Temp\ccLzUcmd.s:28817  .debug_str:0000000000026fe5 .LASF1018
C:\Users\CYMR90~1\AppData\Local\Temp\ccLzUcmd.s:22760  .debug_str:000000000000ed1b .LASF1019
C:\Users\CYMR90~1\AppData\Local\Temp\ccLzUcmd.s:19668  .debug_str:00000000000025e9 .LASF1020
C:\Users\CYMR90~1\AppData\Local\Temp\ccLzUcmd.s:25055  .debug_str:0000000000017ef3 .LASF1021
C:\Users\CYMR90~1\AppData\Local\Temp\ccLzUcmd.s:22070  .debug_str:000000000000c12d .LASF1022
C:\Users\CYMR90~1\AppData\Local\Temp\ccLzUcmd.s:28737  .debug_str:0000000000026acb .LASF1023
C:\Users\CYMR90~1\AppData\Local\Temp\ccLzUcmd.s:21312  .debug_str:0000000000009023 .LASF1024
C:\Users\CYMR90~1\AppData\Local\Temp\ccLzUcmd.s:23782  .debug_str:0000000000012d5a .LASF1025
C:\Users\CYMR90~1\AppData\Local\Temp\ccLzUcmd.s:23280  .debug_str:0000000000010c63 .LASF1026
C:\Users\CYMR90~1\AppData\Local\Temp\ccLzUcmd.s:24226  .debug_str:00000000000149a3 .LASF1027
C:\Users\CYMR90~1\AppData\Local\Temp\ccLzUcmd.s:26393  .debug_str:000000000001d814 .LASF1028
C:\Users\CYMR90~1\AppData\Local\Temp\ccLzUcmd.s:26769  .debug_str:000000000001ef65 .LASF1029
C:\Users\CYMR90~1\AppData\Local\Temp\ccLzUcmd.s:28035  .debug_str:0000000000023c21 .LASF1030
C:\Users\CYMR90~1\AppData\Local\Temp\ccLzUcmd.s:27129  .debug_str:00000000000205c4 .LASF1031
C:\Users\CYMR90~1\AppData\Local\Temp\ccLzUcmd.s:29373  .debug_str:0000000000029534 .LASF1032
C:\Users\CYMR90~1\AppData\Local\Temp\ccLzUcmd.s:21458  .debug_str:0000000000009908 .LASF1033
C:\Users\CYMR90~1\AppData\Local\Temp\ccLzUcmd.s:20326  .debug_str:0000000000005120 .LASF1034
C:\Users\CYMR90~1\AppData\Local\Temp\ccLzUcmd.s:25369  .debug_str:0000000000019382 .LASF1035
C:\Users\CYMR90~1\AppData\Local\Temp\ccLzUcmd.s:25619  .debug_str:000000000001a51e .LASF1036
C:\Users\CYMR90~1\AppData\Local\Temp\ccLzUcmd.s:27831  .debug_str:0000000000022fd1 .LASF1037
C:\Users\CYMR90~1\AppData\Local\Temp\ccLzUcmd.s:22936  .debug_str:000000000000f855 .LASF1038
C:\Users\CYMR90~1\AppData\Local\Temp\ccLzUcmd.s:26495  .debug_str:000000000001deec .LASF1039
C:\Users\CYMR90~1\AppData\Local\Temp\ccLzUcmd.s:24400  .debug_str:0000000000015500 .LASF1040
C:\Users\CYMR90~1\AppData\Local\Temp\ccLzUcmd.s:22842  .debug_str:000000000000f1fb .LASF1041
C:\Users\CYMR90~1\AppData\Local\Temp\ccLzUcmd.s:28553  .debug_str:0000000000025fc4 .LASF1042
C:\Users\CYMR90~1\AppData\Local\Temp\ccLzUcmd.s:23096  .debug_str:0000000000010175 .LASF1043
C:\Users\CYMR90~1\AppData\Local\Temp\ccLzUcmd.s:19070  .debug_str:0000000000000193 .LASF1044
C:\Users\CYMR90~1\AppData\Local\Temp\ccLzUcmd.s:21324  .debug_str:00000000000090aa .LASF1045
C:\Users\CYMR90~1\AppData\Local\Temp\ccLzUcmd.s:25839  .debug_str:000000000001b3ab .LASF1046
C:\Users\CYMR90~1\AppData\Local\Temp\ccLzUcmd.s:24646  .debug_str:0000000000016417 .LASF1047
C:\Users\CYMR90~1\AppData\Local\Temp\ccLzUcmd.s:27877  .debug_str:000000000002326a .LASF1048
C:\Users\CYMR90~1\AppData\Local\Temp\ccLzUcmd.s:26733  .debug_str:000000000001ed28 .LASF1049
C:\Users\CYMR90~1\AppData\Local\Temp\ccLzUcmd.s:19844  .debug_str:000000000000314d .LASF1050
C:\Users\CYMR90~1\AppData\Local\Temp\ccLzUcmd.s:26745  .debug_str:000000000001eddf .LASF1051
C:\Users\CYMR90~1\AppData\Local\Temp\ccLzUcmd.s:26941  .debug_str:000000000001fa12 .LASF1052
C:\Users\CYMR90~1\AppData\Local\Temp\ccLzUcmd.s:21818  .debug_str:000000000000b062 .LASF1053
C:\Users\CYMR90~1\AppData\Local\Temp\ccLzUcmd.s:27777  .debug_str:0000000000022cf3 .LASF1054
C:\Users\CYMR90~1\AppData\Local\Temp\ccLzUcmd.s:23758  .debug_str:0000000000012bc0 .LASF1055
C:\Users\CYMR90~1\AppData\Local\Temp\ccLzUcmd.s:22694  .debug_str:000000000000e8f8 .LASF1056
C:\Users\CYMR90~1\AppData\Local\Temp\ccLzUcmd.s:28997  .debug_str:0000000000027be2 .LASF1057
C:\Users\CYMR90~1\AppData\Local\Temp\ccLzUcmd.s:29583  .debug_str:000000000002a153 .LASF1058
C:\Users\CYMR90~1\AppData\Local\Temp\ccLzUcmd.s:28317  .debug_str:0000000000024fb6 .LASF1059
C:\Users\CYMR90~1\AppData\Local\Temp\ccLzUcmd.s:19524  .debug_str:0000000000001dc2 .LASF1060
C:\Users\CYMR90~1\AppData\Local\Temp\ccLzUcmd.s:21134  .debug_str:0000000000008513 .LASF1061
C:\Users\CYMR90~1\AppData\Local\Temp\ccLzUcmd.s:19202  .debug_str:0000000000000948 .LASF1062
C:\Users\CYMR90~1\AppData\Local\Temp\ccLzUcmd.s:24136  .debug_str:00000000000143ed .LASF1063
C:\Users\CYMR90~1\AppData\Local\Temp\ccLzUcmd.s:20046  .debug_str:0000000000003e4a .LASF1064
C:\Users\CYMR90~1\AppData\Local\Temp\ccLzUcmd.s:19140  .debug_str:000000000000059c .LASF1065
C:\Users\CYMR90~1\AppData\Local\Temp\ccLzUcmd.s:30257  .debug_str:000000000002cdd1 .LASF1066
C:\Users\CYMR90~1\AppData\Local\Temp\ccLzUcmd.s:21326  .debug_str:00000000000090c2 .LASF1067
C:\Users\CYMR90~1\AppData\Local\Temp\ccLzUcmd.s:24712  .debug_str:00000000000167ea .LASF1068
C:\Users\CYMR90~1\AppData\Local\Temp\ccLzUcmd.s:26287  .debug_str:000000000001d16b .LASF1069
C:\Users\CYMR90~1\AppData\Local\Temp\ccLzUcmd.s:19256  .debug_str:0000000000000cd5 .LASF1070
C:\Users\CYMR90~1\AppData\Local\Temp\ccLzUcmd.s:21586  .debug_str:000000000000a10e .LASF1071
C:\Users\CYMR90~1\AppData\Local\Temp\ccLzUcmd.s:27685  .debug_str:0000000000022745 .LASF1072
C:\Users\CYMR90~1\AppData\Local\Temp\ccLzUcmd.s:26251  .debug_str:000000000001cec5 .LASF1073
C:\Users\CYMR90~1\AppData\Local\Temp\ccLzUcmd.s:29243  .debug_str:0000000000028c71 .LASF1074
C:\Users\CYMR90~1\AppData\Local\Temp\ccLzUcmd.s:24859  .debug_str:00000000000172e3 .LASF1075
C:\Users\CYMR90~1\AppData\Local\Temp\ccLzUcmd.s:19710  .debug_str:00000000000028dc .LASF1076
C:\Users\CYMR90~1\AppData\Local\Temp\ccLzUcmd.s:29667  .debug_str:000000000002a6bf .LASF1077
C:\Users\CYMR90~1\AppData\Local\Temp\ccLzUcmd.s:20646  .debug_str:0000000000006469 .LASF1078
C:\Users\CYMR90~1\AppData\Local\Temp\ccLzUcmd.s:27173  .debug_str:000000000002086a .LASF1079
C:\Users\CYMR90~1\AppData\Local\Temp\ccLzUcmd.s:22538  .debug_str:000000000000df36 .LASF1080
C:\Users\CYMR90~1\AppData\Local\Temp\ccLzUcmd.s:26053  .debug_str:000000000001c189 .LASF1081
C:\Users\CYMR90~1\AppData\Local\Temp\ccLzUcmd.s:28851  .debug_str:00000000000272a0 .LASF1082
C:\Users\CYMR90~1\AppData\Local\Temp\ccLzUcmd.s:24336  .debug_str:000000000001512b .LASF1083
C:\Users\CYMR90~1\AppData\Local\Temp\ccLzUcmd.s:27379  .debug_str:0000000000021539 .LASF1084
C:\Users\CYMR90~1\AppData\Local\Temp\ccLzUcmd.s:20346  .debug_str:0000000000005260 .LASF1085
C:\Users\CYMR90~1\AppData\Local\Temp\ccLzUcmd.s:19468  .debug_str:0000000000001a65 .LASF1086
C:\Users\CYMR90~1\AppData\Local\Temp\ccLzUcmd.s:22572  .debug_str:000000000000e13f .LASF1087
C:\Users\CYMR90~1\AppData\Local\Temp\ccLzUcmd.s:28559  .debug_str:0000000000026025 .LASF1088
C:\Users\CYMR90~1\AppData\Local\Temp\ccLzUcmd.s:27677  .debug_str:00000000000226d0 .LASF1089
C:\Users\CYMR90~1\AppData\Local\Temp\ccLzUcmd.s:19312  .debug_str:0000000000001086 .LASF1090
C:\Users\CYMR90~1\AppData\Local\Temp\ccLzUcmd.s:30197  .debug_str:000000000002c9a0 .LASF1091
C:\Users\CYMR90~1\AppData\Local\Temp\ccLzUcmd.s:28961  .debug_str:00000000000279a3 .LASF1092
C:\Users\CYMR90~1\AppData\Local\Temp\ccLzUcmd.s:22914  .debug_str:000000000000f644 .LASF1093
C:\Users\CYMR90~1\AppData\Local\Temp\ccLzUcmd.s:28603  .debug_str:000000000002628a .LASF1094
C:\Users\CYMR90~1\AppData\Local\Temp\ccLzUcmd.s:24416  .debug_str:00000000000155b1 .LASF1095
C:\Users\CYMR90~1\AppData\Local\Temp\ccLzUcmd.s:25867  .debug_str:000000000001b5f3 .LASF1096
C:\Users\CYMR90~1\AppData\Local\Temp\ccLzUcmd.s:26397  .debug_str:000000000001d866 .LASF1097
C:\Users\CYMR90~1\AppData\Local\Temp\ccLzUcmd.s:20634  .debug_str:00000000000063b6 .LASF1098
C:\Users\CYMR90~1\AppData\Local\Temp\ccLzUcmd.s:23778  .debug_str:0000000000012cf7 .LASF1099
C:\Users\CYMR90~1\AppData\Local\Temp\ccLzUcmd.s:23088  .debug_str:00000000000100f5 .LASF1100
C:\Users\CYMR90~1\AppData\Local\Temp\ccLzUcmd.s:27951  .debug_str:0000000000023759 .LASF1101
C:\Users\CYMR90~1\AppData\Local\Temp\ccLzUcmd.s:26247  .debug_str:000000000001ce94 .LASF1102
C:\Users\CYMR90~1\AppData\Local\Temp\ccLzUcmd.s:27623  .debug_str:00000000000223a4 .LASF1103
C:\Users\CYMR90~1\AppData\Local\Temp\ccLzUcmd.s:29191  .debug_str:0000000000028985 .LASF1104
C:\Users\CYMR90~1\AppData\Local\Temp\ccLzUcmd.s:27067  .debug_str:00000000000201c8 .LASF1105
C:\Users\CYMR90~1\AppData\Local\Temp\ccLzUcmd.s:23962  .debug_str:000000000001394e .LASF1106
C:\Users\CYMR90~1\AppData\Local\Temp\ccLzUcmd.s:27873  .debug_str:0000000000023234 .LASF1107
C:\Users\CYMR90~1\AppData\Local\Temp\ccLzUcmd.s:25785  .debug_str:000000000001b022 .LASF1108
C:\Users\CYMR90~1\AppData\Local\Temp\ccLzUcmd.s:20650  .debug_str:00000000000064a5 .LASF1109
C:\Users\CYMR90~1\AppData\Local\Temp\ccLzUcmd.s:21616  .debug_str:000000000000a2e7 .LASF1110
C:\Users\CYMR90~1\AppData\Local\Temp\ccLzUcmd.s:19536  .debug_str:0000000000001e72 .LASF1111
C:\Users\CYMR90~1\AppData\Local\Temp\ccLzUcmd.s:20730  .debug_str:00000000000069a5 .LASF1112
C:\Users\CYMR90~1\AppData\Local\Temp\ccLzUcmd.s:21842  .debug_str:000000000000b1d6 .LASF1113
C:\Users\CYMR90~1\AppData\Local\Temp\ccLzUcmd.s:25077  .debug_str:0000000000018005 .LASF1114
C:\Users\CYMR90~1\AppData\Local\Temp\ccLzUcmd.s:21408  .debug_str:00000000000095cf .LASF1115
C:\Users\CYMR90~1\AppData\Local\Temp\ccLzUcmd.s:29039  .debug_str:0000000000027ebd .LASF1116
C:\Users\CYMR90~1\AppData\Local\Temp\ccLzUcmd.s:29533  .debug_str:0000000000029e8e .LASF1117
C:\Users\CYMR90~1\AppData\Local\Temp\ccLzUcmd.s:20552  .debug_str:0000000000005e89 .LASF1118
C:\Users\CYMR90~1\AppData\Local\Temp\ccLzUcmd.s:25033  .debug_str:0000000000017d81 .LASF1119
C:\Users\CYMR90~1\AppData\Local\Temp\ccLzUcmd.s:21100  .debug_str:00000000000082eb .LASF1120
C:\Users\CYMR90~1\AppData\Local\Temp\ccLzUcmd.s:21306  .debug_str:0000000000008fc2 .LASF1121
C:\Users\CYMR90~1\AppData\Local\Temp\ccLzUcmd.s:23894  .debug_str:000000000001354a .LASF1122
C:\Users\CYMR90~1\AppData\Local\Temp\ccLzUcmd.s:23532  .debug_str:0000000000011cda .LASF1123
C:\Users\CYMR90~1\AppData\Local\Temp\ccLzUcmd.s:27147  .debug_str:00000000000206cc .LASF1124
C:\Users\CYMR90~1\AppData\Local\Temp\ccLzUcmd.s:24340  .debug_str:0000000000015154 .LASF1125
C:\Users\CYMR90~1\AppData\Local\Temp\ccLzUcmd.s:24438  .debug_str:0000000000015703 .LASF1126
C:\Users\CYMR90~1\AppData\Local\Temp\ccLzUcmd.s:27767  .debug_str:0000000000022c55 .LASF1127
C:\Users\CYMR90~1\AppData\Local\Temp\ccLzUcmd.s:28847  .debug_str:0000000000027272 .LASF1128
C:\Users\CYMR90~1\AppData\Local\Temp\ccLzUcmd.s:20436  .debug_str:00000000000057b7 .LASF1129
C:\Users\CYMR90~1\AppData\Local\Temp\ccLzUcmd.s:24436  .debug_str:00000000000156ee .LASF1130
C:\Users\CYMR90~1\AppData\Local\Temp\ccLzUcmd.s:29221  .debug_str:0000000000028b16 .LASF1131
C:\Users\CYMR90~1\AppData\Local\Temp\ccLzUcmd.s:29769  .debug_str:000000000002acdb .LASF1132
C:\Users\CYMR90~1\AppData\Local\Temp\ccLzUcmd.s:25147  .debug_str:0000000000018461 .LASF1133
C:\Users\CYMR90~1\AppData\Local\Temp\ccLzUcmd.s:27923  .debug_str:0000000000023567 .LASF1134
C:\Users\CYMR90~1\AppData\Local\Temp\ccLzUcmd.s:20988  .debug_str:0000000000007aa6 .LASF1135
C:\Users\CYMR90~1\AppData\Local\Temp\ccLzUcmd.s:20216  .debug_str:0000000000004a51 .LASF1136
C:\Users\CYMR90~1\AppData\Local\Temp\ccLzUcmd.s:20052  .debug_str:0000000000003e83 .LASF1137
C:\Users\CYMR90~1\AppData\Local\Temp\ccLzUcmd.s:29379  .debug_str:0000000000029593 .LASF1138
C:\Users\CYMR90~1\AppData\Local\Temp\ccLzUcmd.s:26529  .debug_str:000000000001e0dd .LASF1139
C:\Users\CYMR90~1\AppData\Local\Temp\ccLzUcmd.s:26431  .debug_str:000000000001da89 .LASF1140
C:\Users\CYMR90~1\AppData\Local\Temp\ccLzUcmd.s:19114  .debug_str:0000000000000452 .LASF1141
C:\Users\CYMR90~1\AppData\Local\Temp\ccLzUcmd.s:23328  .debug_str:0000000000010f11 .LASF1142
C:\Users\CYMR90~1\AppData\Local\Temp\ccLzUcmd.s:22580  .debug_str:000000000000e1cb .LASF1143
C:\Users\CYMR90~1\AppData\Local\Temp\ccLzUcmd.s:28905  .debug_str:00000000000275a6 .LASF1144
C:\Users\CYMR90~1\AppData\Local\Temp\ccLzUcmd.s:27107  .debug_str:00000000000203fc .LASF1145
C:\Users\CYMR90~1\AppData\Local\Temp\ccLzUcmd.s:22108  .debug_str:000000000000c366 .LASF1146
C:\Users\CYMR90~1\AppData\Local\Temp\ccLzUcmd.s:30193  .debug_str:000000000002c95e .LASF1147
C:\Users\CYMR90~1\AppData\Local\Temp\ccLzUcmd.s:24887  .debug_str:0000000000017470 .LASF1148
C:\Users\CYMR90~1\AppData\Local\Temp\ccLzUcmd.s:25155  .debug_str:000000000001850e .LASF1149
C:\Users\CYMR90~1\AppData\Local\Temp\ccLzUcmd.s:25885  .debug_str:000000000001b6ff .LASF1150
C:\Users\CYMR90~1\AppData\Local\Temp\ccLzUcmd.s:19538  .debug_str:0000000000001e90 .LASF1151
C:\Users\CYMR90~1\AppData\Local\Temp\ccLzUcmd.s:26305  .debug_str:000000000001d29c .LASF1152
C:\Users\CYMR90~1\AppData\Local\Temp\ccLzUcmd.s:21432  .debug_str:000000000000970e .LASF1153
C:\Users\CYMR90~1\AppData\Local\Temp\ccLzUcmd.s:27393  .debug_str:00000000000215eb .LASF1154
C:\Users\CYMR90~1\AppData\Local\Temp\ccLzUcmd.s:26655  .debug_str:000000000001e8af .LASF1155
C:\Users\CYMR90~1\AppData\Local\Temp\ccLzUcmd.s:24256  .debug_str:0000000000014b9b .LASF1156
C:\Users\CYMR90~1\AppData\Local\Temp\ccLzUcmd.s:26489  .debug_str:000000000001de71 .LASF1157
C:\Users\CYMR90~1\AppData\Local\Temp\ccLzUcmd.s:21860  .debug_str:000000000000b2cd .LASF1158
C:\Users\CYMR90~1\AppData\Local\Temp\ccLzUcmd.s:29551  .debug_str:0000000000029fb7 .LASF1159
C:\Users\CYMR90~1\AppData\Local\Temp\ccLzUcmd.s:19418  .debug_str:00000000000016ab .LASF1160
C:\Users\CYMR90~1\AppData\Local\Temp\ccLzUcmd.s:29629  .debug_str:000000000002a456 .LASF1161
C:\Users\CYMR90~1\AppData\Local\Temp\ccLzUcmd.s:29321  .debug_str:0000000000029144 .LASF1162
C:\Users\CYMR90~1\AppData\Local\Temp\ccLzUcmd.s:26383  .debug_str:000000000001d791 .LASF1163
C:\Users\CYMR90~1\AppData\Local\Temp\ccLzUcmd.s:25521  .debug_str:0000000000019de2 .LASF1164
C:\Users\CYMR90~1\AppData\Local\Temp\ccLzUcmd.s:22398  .debug_str:000000000000d714 .LASF1165
C:\Users\CYMR90~1\AppData\Local\Temp\ccLzUcmd.s:27037  .debug_str:0000000000020027 .LASF1166
C:\Users\CYMR90~1\AppData\Local\Temp\ccLzUcmd.s:23288  .debug_str:0000000000010ccc .LASF1167
C:\Users\CYMR90~1\AppData\Local\Temp\ccLzUcmd.s:21430  .debug_str:0000000000009704 .LASF1168
C:\Users\CYMR90~1\AppData\Local\Temp\ccLzUcmd.s:24378  .debug_str:00000000000153a9 .LASF1169
C:\Users\CYMR90~1\AppData\Local\Temp\ccLzUcmd.s:25725  .debug_str:000000000001ac09 .LASF1170
C:\Users\CYMR90~1\AppData\Local\Temp\ccLzUcmd.s:25439  .debug_str:0000000000019834 .LASF1171
C:\Users\CYMR90~1\AppData\Local\Temp\ccLzUcmd.s:29577  .debug_str:000000000002a121 .LASF1172
C:\Users\CYMR90~1\AppData\Local\Temp\ccLzUcmd.s:24656  .debug_str:00000000000164a0 .LASF1173
C:\Users\CYMR90~1\AppData\Local\Temp\ccLzUcmd.s:19236  .debug_str:0000000000000bd5 .LASF1174
C:\Users\CYMR90~1\AppData\Local\Temp\ccLzUcmd.s:19648  .debug_str:00000000000024aa .LASF1175
C:\Users\CYMR90~1\AppData\Local\Temp\ccLzUcmd.s:23866  .debug_str:0000000000013393 .LASF1176
C:\Users\CYMR90~1\AppData\Local\Temp\ccLzUcmd.s:22210  .debug_str:000000000000cb5d .LASF1177
C:\Users\CYMR90~1\AppData\Local\Temp\ccLzUcmd.s:26441  .debug_str:000000000001db22 .LASF1178
C:\Users\CYMR90~1\AppData\Local\Temp\ccLzUcmd.s:22810  .debug_str:000000000000eff3 .LASF1179
C:\Users\CYMR90~1\AppData\Local\Temp\ccLzUcmd.s:22386  .debug_str:000000000000d682 .LASF1180
C:\Users\CYMR90~1\AppData\Local\Temp\ccLzUcmd.s:28125  .debug_str:00000000000242f0 .LASF1181
C:\Users\CYMR90~1\AppData\Local\Temp\ccLzUcmd.s:21246  .debug_str:0000000000008bcd .LASF1182
C:\Users\CYMR90~1\AppData\Local\Temp\ccLzUcmd.s:19810  .debug_str:0000000000002eef .LASF1183
C:\Users\CYMR90~1\AppData\Local\Temp\ccLzUcmd.s:26757  .debug_str:000000000001ee9a .LASF1184
C:\Users\CYMR90~1\AppData\Local\Temp\ccLzUcmd.s:27203  .debug_str:0000000000020a1c .LASF1185
C:\Users\CYMR90~1\AppData\Local\Temp\ccLzUcmd.s:28359  .debug_str:00000000000252e5 .LASF1186
C:\Users\CYMR90~1\AppData\Local\Temp\ccLzUcmd.s:19540  .debug_str:0000000000001ea9 .LASF1187
C:\Users\CYMR90~1\AppData\Local\Temp\ccLzUcmd.s:20446  .debug_str:0000000000005847 .LASF1188
C:\Users\CYMR90~1\AppData\Local\Temp\ccLzUcmd.s:27667  .debug_str:0000000000022633 .LASF1189
C:\Users\CYMR90~1\AppData\Local\Temp\ccLzUcmd.s:20992  .debug_str:0000000000007ad7 .LASF1190
C:\Users\CYMR90~1\AppData\Local\Temp\ccLzUcmd.s:27713  .debug_str:00000000000228dc .LASF1191
C:\Users\CYMR90~1\AppData\Local\Temp\ccLzUcmd.s:22186  .debug_str:000000000000c8c5 .LASF1192
C:\Users\CYMR90~1\AppData\Local\Temp\ccLzUcmd.s:27381  .debug_str:000000000002154b .LASF1193
C:\Users\CYMR90~1\AppData\Local\Temp\ccLzUcmd.s:22430  .debug_str:000000000000d8c9 .LASF1194
C:\Users\CYMR90~1\AppData\Local\Temp\ccLzUcmd.s:25983  .debug_str:000000000001bcdd .LASF1195
C:\Users\CYMR90~1\AppData\Local\Temp\ccLzUcmd.s:24012  .debug_str:0000000000013c6a .LASF1196
C:\Users\CYMR90~1\AppData\Local\Temp\ccLzUcmd.s:27415  .debug_str:0000000000021766 .LASF1197
C:\Users\CYMR90~1\AppData\Local\Temp\ccLzUcmd.s:29575  .debug_str:000000000002a112 .LASF1198
C:\Users\CYMR90~1\AppData\Local\Temp\ccLzUcmd.s:24682  .debug_str:0000000000016615 .LASF1199
C:\Users\CYMR90~1\AppData\Local\Temp\ccLzUcmd.s:29581  .debug_str:000000000002a148 .LASF1200
C:\Users\CYMR90~1\AppData\Local\Temp\ccLzUcmd.s:21676  .debug_str:000000000000a69e .LASF1201
C:\Users\CYMR90~1\AppData\Local\Temp\ccLzUcmd.s:21342  .debug_str:00000000000091ce .LASF1202
C:\Users\CYMR90~1\AppData\Local\Temp\ccLzUcmd.s:24875  .debug_str:00000000000173ce .LASF1203
C:\Users\CYMR90~1\AppData\Local\Temp\ccLzUcmd.s:28677  .debug_str:0000000000026754 .LASF1204
C:\Users\CYMR90~1\AppData\Local\Temp\ccLzUcmd.s:23920  .debug_str:000000000001370a .LASF1205
C:\Users\CYMR90~1\AppData\Local\Temp\ccLzUcmd.s:22974  .debug_str:000000000000fa89 .LASF1206
C:\Users\CYMR90~1\AppData\Local\Temp\ccLzUcmd.s:29547  .debug_str:0000000000029f85 .LASF1207
C:\Users\CYMR90~1\AppData\Local\Temp\ccLzUcmd.s:28215  .debug_str:00000000000248ed .LASF1208
C:\Users\CYMR90~1\AppData\Local\Temp\ccLzUcmd.s:22906  .debug_str:000000000000f5e7 .LASF1209
C:\Users\CYMR90~1\AppData\Local\Temp\ccLzUcmd.s:20340  .debug_str:00000000000051f8 .LASF1210
C:\Users\CYMR90~1\AppData\Local\Temp\ccLzUcmd.s:20438  .debug_str:00000000000057cd .LASF1211
C:\Users\CYMR90~1\AppData\Local\Temp\ccLzUcmd.s:21138  .debug_str:0000000000008557 .LASF1212
C:\Users\CYMR90~1\AppData\Local\Temp\ccLzUcmd.s:20724  .debug_str:0000000000006933 .LASF1213
C:\Users\CYMR90~1\AppData\Local\Temp\ccLzUcmd.s:19658  .debug_str:0000000000002566 .LASF1214
C:\Users\CYMR90~1\AppData\Local\Temp\ccLzUcmd.s:21474  .debug_str:0000000000009a22 .LASF1215
C:\Users\CYMR90~1\AppData\Local\Temp\ccLzUcmd.s:19596  .debug_str:0000000000002197 .LASF1216
C:\Users\CYMR90~1\AppData\Local\Temp\ccLzUcmd.s:27827  .debug_str:0000000000022fa4 .LASF1217
C:\Users\CYMR90~1\AppData\Local\Temp\ccLzUcmd.s:27843  .debug_str:0000000000023073 .LASF1218
C:\Users\CYMR90~1\AppData\Local\Temp\ccLzUcmd.s:28269  .debug_str:0000000000024c95 .LASF1219
C:\Users\CYMR90~1\AppData\Local\Temp\ccLzUcmd.s:25871  .debug_str:000000000001b627 .LASF1220
C:\Users\CYMR90~1\AppData\Local\Temp\ccLzUcmd.s:22472  .debug_str:000000000000db18 .LASF1221
C:\Users\CYMR90~1\AppData\Local\Temp\ccLzUcmd.s:24186  .debug_str:000000000001476e .LASF1222
C:\Users\CYMR90~1\AppData\Local\Temp\ccLzUcmd.s:19830  .debug_str:0000000000003030 .LASF1223
C:\Users\CYMR90~1\AppData\Local\Temp\ccLzUcmd.s:25613  .debug_str:000000000001a4e8 .LASF1224
C:\Users\CYMR90~1\AppData\Local\Temp\ccLzUcmd.s:28869  .debug_str:00000000000273bb .LASF1225
C:\Users\CYMR90~1\AppData\Local\Temp\ccLzUcmd.s:21946  .debug_str:000000000000b8a1 .LASF1226
C:\Users\CYMR90~1\AppData\Local\Temp\ccLzUcmd.s:20874  .debug_str:0000000000007335 .LASF1227
C:\Users\CYMR90~1\AppData\Local\Temp\ccLzUcmd.s:19922  .debug_str:000000000000362b .LASF1228
C:\Users\CYMR90~1\AppData\Local\Temp\ccLzUcmd.s:30245  .debug_str:000000000002cd13 .LASF1229
C:\Users\CYMR90~1\AppData\Local\Temp\ccLzUcmd.s:29303  .debug_str:0000000000029034 .LASF1230
C:\Users\CYMR90~1\AppData\Local\Temp\ccLzUcmd.s:28325  .debug_str:000000000002502d .LASF1231
C:\Users\CYMR90~1\AppData\Local\Temp\ccLzUcmd.s:27369  .debug_str:00000000000214a1 .LASF1232
C:\Users\CYMR90~1\AppData\Local\Temp\ccLzUcmd.s:27259  .debug_str:0000000000020d9c .LASF1233
C:\Users\CYMR90~1\AppData\Local\Temp\ccLzUcmd.s:26323  .debug_str:000000000001d394 .LASF1234
C:\Users\CYMR90~1\AppData\Local\Temp\ccLzUcmd.s:25397  .debug_str:0000000000019557 .LASF1235
C:\Users\CYMR90~1\AppData\Local\Temp\ccLzUcmd.s:24082  .debug_str:00000000000140e7 .LASF1236
C:\Users\CYMR90~1\AppData\Local\Temp\ccLzUcmd.s:23446  .debug_str:000000000001171b .LASF1237
C:\Users\CYMR90~1\AppData\Local\Temp\ccLzUcmd.s:24771  .debug_str:0000000000016db1 .LASF1238
C:\Users\CYMR90~1\AppData\Local\Temp\ccLzUcmd.s:21546  .debug_str:0000000000009e6d .LASF1239
C:\Users\CYMR90~1\AppData\Local\Temp\ccLzUcmd.s:20548  .debug_str:0000000000005e48 .LASF1240
C:\Users\CYMR90~1\AppData\Local\Temp\ccLzUcmd.s:19614  .debug_str:000000000000229c .LASF1241
C:\Users\CYMR90~1\AppData\Local\Temp\ccLzUcmd.s:29967  .debug_str:000000000002b9f6 .LASF1242
C:\Users\CYMR90~1\AppData\Local\Temp\ccLzUcmd.s:19128  .debug_str:0000000000000506 .LASF1243
C:\Users\CYMR90~1\AppData\Local\Temp\ccLzUcmd.s:29447  .debug_str:00000000000299aa .LASF1244
C:\Users\CYMR90~1\AppData\Local\Temp\ccLzUcmd.s:28469  .debug_str:0000000000025a93 .LASF1245
C:\Users\CYMR90~1\AppData\Local\Temp\ccLzUcmd.s:27525  .debug_str:0000000000021e26 .LASF1246
C:\Users\CYMR90~1\AppData\Local\Temp\ccLzUcmd.s:26565  .debug_str:000000000001e2f9 .LASF1247
C:\Users\CYMR90~1\AppData\Local\Temp\ccLzUcmd.s:25665  .debug_str:000000000001a85d .LASF1248
C:\Users\CYMR90~1\AppData\Local\Temp\ccLzUcmd.s:24724  .debug_str:00000000000168f4 .LASF1249
C:\Users\CYMR90~1\AppData\Local\Temp\ccLzUcmd.s:24891  .debug_str:00000000000174d1 .LASF1250
C:\Users\CYMR90~1\AppData\Local\Temp\ccLzUcmd.s:22816  .debug_str:000000000000f03f .LASF1251
C:\Users\CYMR90~1\AppData\Local\Temp\ccLzUcmd.s:24995  .debug_str:0000000000017b74 .LASF1252
C:\Users\CYMR90~1\AppData\Local\Temp\ccLzUcmd.s:22326  .debug_str:000000000000d224 .LASF1253
C:\Users\CYMR90~1\AppData\Local\Temp\ccLzUcmd.s:21356  .debug_str:000000000000929d .LASF1254
C:\Users\CYMR90~1\AppData\Local\Temp\ccLzUcmd.s:19374  .debug_str:0000000000001425 .LASF1255
C:\Users\CYMR90~1\AppData\Local\Temp\ccLzUcmd.s:22242  .debug_str:000000000000cd01 .LASF1256
C:\Users\CYMR90~1\AppData\Local\Temp\ccLzUcmd.s:20500  .debug_str:0000000000005baf .LASF1257
C:\Users\CYMR90~1\AppData\Local\Temp\ccLzUcmd.s:25271  .debug_str:0000000000018ce7 .LASF1258
C:\Users\CYMR90~1\AppData\Local\Temp\ccLzUcmd.s:25273  .debug_str:0000000000018cfa .LASF1259
C:\Users\CYMR90~1\AppData\Local\Temp\ccLzUcmd.s:27717  .debug_str:000000000002290c .LASF1260
C:\Users\CYMR90~1\AppData\Local\Temp\ccLzUcmd.s:25865  .debug_str:000000000001b5e0 .LASF1261
C:\Users\CYMR90~1\AppData\Local\Temp\ccLzUcmd.s:23258  .debug_str:0000000000010b64 .LASF1262
C:\Users\CYMR90~1\AppData\Local\Temp\ccLzUcmd.s:20396  .debug_str:0000000000005556 .LASF1263
C:\Users\CYMR90~1\AppData\Local\Temp\ccLzUcmd.s:22554  .debug_str:000000000000e01c .LASF1264
C:\Users\CYMR90~1\AppData\Local\Temp\ccLzUcmd.s:24748  .debug_str:0000000000016a8e .LASF1265
C:\Users\CYMR90~1\AppData\Local\Temp\ccLzUcmd.s:22604  .debug_str:000000000000e333 .LASF1266
C:\Users\CYMR90~1\AppData\Local\Temp\ccLzUcmd.s:27743  .debug_str:0000000000022b12 .LASF1267
C:\Users\CYMR90~1\AppData\Local\Temp\ccLzUcmd.s:27917  .debug_str:000000000002351d .LASF1268
C:\Users\CYMR90~1\AppData\Local\Temp\ccLzUcmd.s:23390  .debug_str:00000000000112b7 .LASF1269
C:\Users\CYMR90~1\AppData\Local\Temp\ccLzUcmd.s:30021  .debug_str:000000000002bd85 .LASF1270
C:\Users\CYMR90~1\AppData\Local\Temp\ccLzUcmd.s:24997  .debug_str:0000000000017b8b .LASF1271
C:\Users\CYMR90~1\AppData\Local\Temp\ccLzUcmd.s:29407  .debug_str:000000000002973b .LASF1272
C:\Users\CYMR90~1\AppData\Local\Temp\ccLzUcmd.s:26443  .debug_str:000000000001db2f .LASF1273
C:\Users\CYMR90~1\AppData\Local\Temp\ccLzUcmd.s:19192  .debug_str:00000000000008ba .LASF1274
C:\Users\CYMR90~1\AppData\Local\Temp\ccLzUcmd.s:25281  .debug_str:0000000000018d7d .LASF1275
C:\Users\CYMR90~1\AppData\Local\Temp\ccLzUcmd.s:19302  .debug_str:0000000000001002 .LASF1276
C:\Users\CYMR90~1\AppData\Local\Temp\ccLzUcmd.s:21568  .debug_str:0000000000009fea .LASF1277
C:\Users\CYMR90~1\AppData\Local\Temp\ccLzUcmd.s:20566  .debug_str:0000000000005f63 .LASF1278
C:\Users\CYMR90~1\AppData\Local\Temp\ccLzUcmd.s:19646  .debug_str:0000000000002498 .LASF1279
C:\Users\CYMR90~1\AppData\Local\Temp\ccLzUcmd.s:29987  .debug_str:000000000002bb57 .LASF1280
C:\Users\CYMR90~1\AppData\Local\Temp\ccLzUcmd.s:20456  .debug_str:00000000000058e9 .LASF1281
C:\Users\CYMR90~1\AppData\Local\Temp\ccLzUcmd.s:19526  .debug_str:0000000000001ddf .LASF1282
C:\Users\CYMR90~1\AppData\Local\Temp\ccLzUcmd.s:26605  .debug_str:000000000001e573 .LASF1283
C:\Users\CYMR90~1\AppData\Local\Temp\ccLzUcmd.s:19264  .debug_str:0000000000000d4d .LASF1284
C:\Users\CYMR90~1\AppData\Local\Temp\ccLzUcmd.s:27941  .debug_str:00000000000236d3 .LASF1285
C:\Users\CYMR90~1\AppData\Local\Temp\ccLzUcmd.s:26983  .debug_str:000000000001fc96 .LASF1286
C:\Users\CYMR90~1\AppData\Local\Temp\ccLzUcmd.s:26047  .debug_str:000000000001c10a .LASF1287
C:\Users\CYMR90~1\AppData\Local\Temp\ccLzUcmd.s:25107  .debug_str:0000000000018203 .LASF1288
C:\Users\CYMR90~1\AppData\Local\Temp\ccLzUcmd.s:24124  .debug_str:000000000001435f .LASF1289
C:\Users\CYMR90~1\AppData\Local\Temp\ccLzUcmd.s:23188  .debug_str:0000000000010671 .LASF1290
C:\Users\CYMR90~1\AppData\Local\Temp\ccLzUcmd.s:27471  .debug_str:0000000000021acf .LASF1291
C:\Users\CYMR90~1\AppData\Local\Temp\ccLzUcmd.s:26517  .debug_str:000000000001e033 .LASF1292
C:\Users\CYMR90~1\AppData\Local\Temp\ccLzUcmd.s:25611  .debug_str:000000000001a4d4 .LASF1293
C:\Users\CYMR90~1\AppData\Local\Temp\ccLzUcmd.s:24612  .debug_str:000000000001623c .LASF1294
C:\Users\CYMR90~1\AppData\Local\Temp\ccLzUcmd.s:23676  .debug_str:0000000000012653 .LASF1295
C:\Users\CYMR90~1\AppData\Local\Temp\ccLzUcmd.s:22706  .debug_str:000000000000e9d5 .LASF1296
C:\Users\CYMR90~1\AppData\Local\Temp\ccLzUcmd.s:22084  .debug_str:000000000000c215 .LASF1297
C:\Users\CYMR90~1\AppData\Local\Temp\ccLzUcmd.s:26951  .debug_str:000000000001fa9d .LASF1298
C:\Users\CYMR90~1\AppData\Local\Temp\ccLzUcmd.s:26021  .debug_str:000000000001bf7b .LASF1299
C:\Users\CYMR90~1\AppData\Local\Temp\ccLzUcmd.s:25073  .debug_str:0000000000017fe3 .LASF1300
C:\Users\CYMR90~1\AppData\Local\Temp\ccLzUcmd.s:25995  .debug_str:000000000001bdb1 .LASF1301
C:\Users\CYMR90~1\AppData\Local\Temp\ccLzUcmd.s:27199  .debug_str:00000000000209f9 .LASF1302
C:\Users\CYMR90~1\AppData\Local\Temp\ccLzUcmd.s:24654  .debug_str:000000000001648d .LASF1303
C:\Users\CYMR90~1\AppData\Local\Temp\ccLzUcmd.s:25531  .debug_str:0000000000019e86 .LASF1304
C:\Users\CYMR90~1\AppData\Local\Temp\ccLzUcmd.s:25503  .debug_str:0000000000019ce3 .LASF1305
C:\Users\CYMR90~1\AppData\Local\Temp\ccLzUcmd.s:21250  .debug_str:0000000000008c01 .LASF1306
C:\Users\CYMR90~1\AppData\Local\Temp\ccLzUcmd.s:20242  .debug_str:0000000000004c13 .LASF1307
C:\Users\CYMR90~1\AppData\Local\Temp\ccLzUcmd.s:19314  .debug_str:0000000000001098 .LASF1308
C:\Users\CYMR90~1\AppData\Local\Temp\ccLzUcmd.s:29645  .debug_str:000000000002a555 .LASF1309
C:\Users\CYMR90~1\AppData\Local\Temp\ccLzUcmd.s:28673  .debug_str:0000000000026719 .LASF1310
C:\Users\CYMR90~1\AppData\Local\Temp\ccLzUcmd.s:27719  .debug_str:000000000002291d .LASF1311
C:\Users\CYMR90~1\AppData\Local\Temp\ccLzUcmd.s:21204  .debug_str:0000000000008932 .LASF1312
C:\Users\CYMR90~1\AppData\Local\Temp\ccLzUcmd.s:27157  .debug_str:0000000000020744 .LASF1313
C:\Users\CYMR90~1\AppData\Local\Temp\ccLzUcmd.s:23838  .debug_str:0000000000013124 .LASF1314
C:\Users\CYMR90~1\AppData\Local\Temp\ccLzUcmd.s:29867  .debug_str:000000000002b333 .LASF1315
C:\Users\CYMR90~1\AppData\Local\Temp\ccLzUcmd.s:28399  .debug_str:00000000000255bb .LASF1316
C:\Users\CYMR90~1\AppData\Local\Temp\ccLzUcmd.s:27933  .debug_str:0000000000023637 .LASF1317
C:\Users\CYMR90~1\AppData\Local\Temp\ccLzUcmd.s:26975  .debug_str:000000000001fc29 .LASF1318
C:\Users\CYMR90~1\AppData\Local\Temp\ccLzUcmd.s:26057  .debug_str:000000000001c1b4 .LASF1319
C:\Users\CYMR90~1\AppData\Local\Temp\ccLzUcmd.s:25117  .debug_str:00000000000182bc .LASF1320
C:\Users\CYMR90~1\AppData\Local\Temp\ccLzUcmd.s:24134  .debug_str:00000000000143d5 .LASF1321
C:\Users\CYMR90~1\AppData\Local\Temp\ccLzUcmd.s:23196  .debug_str:00000000000106e5 .LASF1322
C:\Users\CYMR90~1\AppData\Local\Temp\ccLzUcmd.s:23650  .debug_str:0000000000012491 .LASF1323
C:\Users\CYMR90~1\AppData\Local\Temp\ccLzUcmd.s:22088  .debug_str:000000000000c23a .LASF1324
C:\Users\CYMR90~1\AppData\Local\Temp\ccLzUcmd.s:21726  .debug_str:000000000000a9d0 .LASF1325
C:\Users\CYMR90~1\AppData\Local\Temp\ccLzUcmd.s:20732  .debug_str:00000000000069c1 .LASF1326
C:\Users\CYMR90~1\AppData\Local\Temp\ccLzUcmd.s:19788  .debug_str:0000000000002d9f .LASF1327
C:\Users\CYMR90~1\AppData\Local\Temp\ccLzUcmd.s:30137  .debug_str:000000000002c5c7 .LASF1328
C:\Users\CYMR90~1\AppData\Local\Temp\ccLzUcmd.s:29219  .debug_str:0000000000028afe .LASF1329
C:\Users\CYMR90~1\AppData\Local\Temp\ccLzUcmd.s:28249  .debug_str:0000000000024b27 .LASF1330
C:\Users\CYMR90~1\AppData\Local\Temp\ccLzUcmd.s:27293  .debug_str:0000000000020f7e .LASF1331
C:\Users\CYMR90~1\AppData\Local\Temp\ccLzUcmd.s:26355  .debug_str:000000000001d59e .LASF1332
C:\Users\CYMR90~1\AppData\Local\Temp\ccLzUcmd.s:26779  .debug_str:000000000001f013 .LASF1333
C:\Users\CYMR90~1\AppData\Local\Temp\ccLzUcmd.s:25879  .debug_str:000000000001b6a3 .LASF1334
C:\Users\CYMR90~1\AppData\Local\Temp\ccLzUcmd.s:24574  .debug_str:0000000000015fd9 .LASF1335
C:\Users\CYMR90~1\AppData\Local\Temp\ccLzUcmd.s:22238  .debug_str:000000000000ccd6 .LASF1336
C:\Users\CYMR90~1\AppData\Local\Temp\ccLzUcmd.s:26993  .debug_str:000000000001fd12 .LASF1337
C:\Users\CYMR90~1\AppData\Local\Temp\ccLzUcmd.s:23530  .debug_str:0000000000011cc5 .LASF1338
C:\Users\CYMR90~1\AppData\Local\Temp\ccLzUcmd.s:19422  .debug_str:00000000000016e3 .LASF1339
C:\Users\CYMR90~1\AppData\Local\Temp\ccLzUcmd.s:21518  .debug_str:0000000000009cc9 .LASF1340
C:\Users\CYMR90~1\AppData\Local\Temp\ccLzUcmd.s:20516  .debug_str:0000000000005c7d .LASF1341
C:\Users\CYMR90~1\AppData\Local\Temp\ccLzUcmd.s:19582  .debug_str:00000000000020e0 .LASF1342
C:\Users\CYMR90~1\AppData\Local\Temp\ccLzUcmd.s:29945  .debug_str:000000000002b869 .LASF1343
C:\Users\CYMR90~1\AppData\Local\Temp\ccLzUcmd.s:29733  .debug_str:000000000002aa98 .LASF1344
C:\Users\CYMR90~1\AppData\Local\Temp\ccLzUcmd.s:28753  .debug_str:0000000000026bf9 .LASF1345
C:\Users\CYMR90~1\AppData\Local\Temp\ccLzUcmd.s:27807  .debug_str:0000000000022e90 .LASF1346
C:\Users\CYMR90~1\AppData\Local\Temp\ccLzUcmd.s:29175  .debug_str:0000000000028890 .LASF1347
C:\Users\CYMR90~1\AppData\Local\Temp\ccLzUcmd.s:25927  .debug_str:000000000001b994 .LASF1348
C:\Users\CYMR90~1\AppData\Local\Temp\ccLzUcmd.s:26433  .debug_str:000000000001daa1 .LASF1349
C:\Users\CYMR90~1\AppData\Local\Temp\ccLzUcmd.s:24004  .debug_str:0000000000013bfc .LASF1350
C:\Users\CYMR90~1\AppData\Local\Temp\ccLzUcmd.s:27133  .debug_str:00000000000205f4 .LASF1351
C:\Users\CYMR90~1\AppData\Local\Temp\ccLzUcmd.s:22104  .debug_str:000000000000c33b .LASF1352
C:\Users\CYMR90~1\AppData\Local\Temp\ccLzUcmd.s:21034  .debug_str:0000000000007de1 .LASF1353
C:\Users\CYMR90~1\AppData\Local\Temp\ccLzUcmd.s:21600  .debug_str:000000000000a1f3 .LASF1354
C:\Users\CYMR90~1\AppData\Local\Temp\ccLzUcmd.s:20598  .debug_str:0000000000006177 .LASF1355
C:\Users\CYMR90~1\AppData\Local\Temp\ccLzUcmd.s:19670  .debug_str:0000000000002606 .LASF1356
C:\Users\CYMR90~1\AppData\Local\Temp\ccLzUcmd.s:30017  .debug_str:000000000002bd65 .LASF1357
C:\Users\CYMR90~1\AppData\Local\Temp\ccLzUcmd.s:24094  .debug_str:00000000000141af .LASF1358
C:\Users\CYMR90~1\AppData\Local\Temp\ccLzUcmd.s:20726  .debug_str:0000000000006977 .LASF1359
C:\Users\CYMR90~1\AppData\Local\Temp\ccLzUcmd.s:27181  .debug_str:00000000000208d3 .LASF1360
C:\Users\CYMR90~1\AppData\Local\Temp\ccLzUcmd.s:26151  .debug_str:000000000001c72e .LASF1361
C:\Users\CYMR90~1\AppData\Local\Temp\ccLzUcmd.s:25213  .debug_str:0000000000018880 .LASF1362
C:\Users\CYMR90~1\AppData\Local\Temp\ccLzUcmd.s:29185  .debug_str:0000000000028921 .LASF1363
C:\Users\CYMR90~1\AppData\Local\Temp\ccLzUcmd.s:24500  .debug_str:0000000000015aa2 .LASF1364
C:\Users\CYMR90~1\AppData\Local\Temp\ccLzUcmd.s:21154  .debug_str:0000000000008630 .LASF1365
C:\Users\CYMR90~1\AppData\Local\Temp\ccLzUcmd.s:28783  .debug_str:0000000000026dc4 .LASF1366
C:\Users\CYMR90~1\AppData\Local\Temp\ccLzUcmd.s:22222  .debug_str:000000000000cbf6 .LASF1367
C:\Users\CYMR90~1\AppData\Local\Temp\ccLzUcmd.s:27075  .debug_str:0000000000020237 .LASF1368
C:\Users\CYMR90~1\AppData\Local\Temp\ccLzUcmd.s:25373  .debug_str:00000000000193ae .LASF1369
C:\Users\CYMR90~1\AppData\Local\Temp\ccLzUcmd.s:29907  .debug_str:000000000002b5c9 .LASF1370
C:\Users\CYMR90~1\AppData\Local\Temp\ccLzUcmd.s:26365  .debug_str:000000000001d629 .LASF1371
C:\Users\CYMR90~1\AppData\Local\Temp\ccLzUcmd.s:19714  .debug_str:0000000000002919 .LASF1372
C:\Users\CYMR90~1\AppData\Local\Temp\ccLzUcmd.s:22280  .debug_str:000000000000cf4d .LASF1373
C:\Users\CYMR90~1\AppData\Local\Temp\ccLzUcmd.s:25417  .debug_str:0000000000019678 .LASF1374
C:\Users\CYMR90~1\AppData\Local\Temp\ccLzUcmd.s:28461  .debug_str:0000000000025a1a .LASF1375
C:\Users\CYMR90~1\AppData\Local\Temp\ccLzUcmd.s:20270  .debug_str:0000000000004dd5 .LASF1376
C:\Users\CYMR90~1\AppData\Local\Temp\ccLzUcmd.s:23432  .debug_str:0000000000011598 .LASF1377
C:\Users\CYMR90~1\AppData\Local\Temp\ccLzUcmd.s:26523  .debug_str:000000000001e08d .LASF1378
C:\Users\CYMR90~1\AppData\Local\Temp\ccLzUcmd.s:29641  .debug_str:000000000002a518 .LASF1379
C:\Users\CYMR90~1\AppData\Local\Temp\ccLzUcmd.s:29609  .debug_str:000000000002a2f7 .LASF1380
C:\Users\CYMR90~1\AppData\Local\Temp\ccLzUcmd.s:21368  .debug_str:000000000000934d .LASF1381
C:\Users\CYMR90~1\AppData\Local\Temp\ccLzUcmd.s:24470  .debug_str:00000000000158e0 .LASF1382
C:\Users\CYMR90~1\AppData\Local\Temp\ccLzUcmd.s:27569  .debug_str:00000000000220ae .LASF1383
C:\Users\CYMR90~1\AppData\Local\Temp\ccLzUcmd.s:19392  .debug_str:0000000000001515 .LASF1384
C:\Users\CYMR90~1\AppData\Local\Temp\ccLzUcmd.s:23906  .debug_str:000000000001362e .LASF1385
C:\Users\CYMR90~1\AppData\Local\Temp\ccLzUcmd.s:25699  .debug_str:000000000001aa87 .LASF1386
C:\Users\CYMR90~1\AppData\Local\Temp\ccLzUcmd.s:28743  .debug_str:0000000000026b38 .LASF1387
C:\Users\CYMR90~1\AppData\Local\Temp\ccLzUcmd.s:20554  .debug_str:0000000000005eab .LASF1388
C:\Users\CYMR90~1\AppData\Local\Temp\ccLzUcmd.s:23634  .debug_str:0000000000012383 .LASF1389
C:\Users\CYMR90~1\AppData\Local\Temp\ccLzUcmd.s:22978  .debug_str:000000000000faa9 .LASF1390
C:\Users\CYMR90~1\AppData\Local\Temp\ccLzUcmd.s:26005  .debug_str:000000000001be67 .LASF1391
C:\Users\CYMR90~1\AppData\Local\Temp\ccLzUcmd.s:29093  .debug_str:00000000000282d4 .LASF1392
C:\Users\CYMR90~1\AppData\Local\Temp\ccLzUcmd.s:20912  .debug_str:0000000000007575 .LASF1393
C:\Users\CYMR90~1\AppData\Local\Temp\ccLzUcmd.s:24030  .debug_str:0000000000013d75 .LASF1394
C:\Users\CYMR90~1\AppData\Local\Temp\ccLzUcmd.s:24184  .debug_str:0000000000014756 .LASF1395
C:\Users\CYMR90~1\AppData\Local\Temp\ccLzUcmd.s:30297  .debug_str:000000000002d028 .LASF1396
C:\Users\CYMR90~1\AppData\Local\Temp\ccLzUcmd.s:22160  .debug_str:000000000000c692 .LASF1397
C:\Users\CYMR90~1\AppData\Local\Temp\ccLzUcmd.s:25297  .debug_str:0000000000018e6d .LASF1398
C:\Users\CYMR90~1\AppData\Local\Temp\ccLzUcmd.s:23344  .debug_str:0000000000011006 .LASF1399
C:\Users\CYMR90~1\AppData\Local\Temp\ccLzUcmd.s:24636  .debug_str:00000000000163a1 .LASF1400
C:\Users\CYMR90~1\AppData\Local\Temp\ccLzUcmd.s:19348  .debug_str:0000000000001297 .LASF1401
C:\Users\CYMR90~1\AppData\Local\Temp\ccLzUcmd.s:27059  .debug_str:0000000000020171 .LASF1402
C:\Users\CYMR90~1\AppData\Local\Temp\ccLzUcmd.s:21984  .debug_str:000000000000bb30 .LASF1403
C:\Users\CYMR90~1\AppData\Local\Temp\ccLzUcmd.s:26827  .debug_str:000000000001f311 .LASF1404
C:\Users\CYMR90~1\AppData\Local\Temp\ccLzUcmd.s:20066  .debug_str:0000000000003fd6 .LASF1405
C:\Users\CYMR90~1\AppData\Local\Temp\ccLzUcmd.s:29571  .debug_str:000000000002a0c2 .LASF1406
C:\Users\CYMR90~1\AppData\Local\Temp\ccLzUcmd.s:27765  .debug_str:0000000000022c3d .LASF1407
C:\Users\CYMR90~1\AppData\Local\Temp\ccLzUcmd.s:27921  .debug_str:000000000002354f .LASF1408
C:\Users\CYMR90~1\AppData\Local\Temp\ccLzUcmd.s:19744  .debug_str:0000000000002ae8 .LASF1409
C:\Users\CYMR90~1\AppData\Local\Temp\ccLzUcmd.s:22890  .debug_str:000000000000f4f3 .LASF1410
C:\Users\CYMR90~1\AppData\Local\Temp\ccLzUcmd.s:29319  .debug_str:000000000002912b .LASF1411
C:\Users\CYMR90~1\AppData\Local\Temp\ccLzUcmd.s:21144  .debug_str:00000000000085ac .LASF1412
C:\Users\CYMR90~1\AppData\Local\Temp\ccLzUcmd.s:26705  .debug_str:000000000001eb85 .LASF1413
C:\Users\CYMR90~1\AppData\Local\Temp\ccLzUcmd.s:27351  .debug_str:0000000000021378 .LASF1414
C:\Users\CYMR90~1\AppData\Local\Temp\ccLzUcmd.s:19194  .debug_str:00000000000008cd .LASF1415
C:\Users\CYMR90~1\AppData\Local\Temp\ccLzUcmd.s:22248  .debug_str:000000000000cd3e .LASF1416
C:\Users\CYMR90~1\AppData\Local\Temp\ccLzUcmd.s:28695  .debug_str:0000000000026874 .LASF1417
C:\Users\CYMR90~1\AppData\Local\Temp\ccLzUcmd.s:26887  .debug_str:000000000001f6d1 .LASF1418
C:\Users\CYMR90~1\AppData\Local\Temp\ccLzUcmd.s:20250  .debug_str:0000000000004c7d .LASF1419
C:\Users\CYMR90~1\AppData\Local\Temp\ccLzUcmd.s:23330  .debug_str:0000000000010f27 .LASF1420
C:\Users\CYMR90~1\AppData\Local\Temp\ccLzUcmd.s:22664  .debug_str:000000000000e727 .LASF1421
C:\Users\CYMR90~1\AppData\Local\Temp\ccLzUcmd.s:25817  .debug_str:000000000001b26d .LASF1422
C:\Users\CYMR90~1\AppData\Local\Temp\ccLzUcmd.s:28867  .debug_str:00000000000273a2 .LASF1423
C:\Users\CYMR90~1\AppData\Local\Temp\ccLzUcmd.s:20680  .debug_str:000000000000665b .LASF1424
C:\Users\CYMR90~1\AppData\Local\Temp\ccLzUcmd.s:23842  .debug_str:0000000000013152 .LASF1425
C:\Users\CYMR90~1\AppData\Local\Temp\ccLzUcmd.s:26819  .debug_str:000000000001f278 .LASF1426
C:\Users\CYMR90~1\AppData\Local\Temp\ccLzUcmd.s:30027  .debug_str:000000000002be58 .LASF1427
C:\Users\CYMR90~1\AppData\Local\Temp\ccLzUcmd.s:21858  .debug_str:000000000000b2b4 .LASF1428
C:\Users\CYMR90~1\AppData\Local\Temp\ccLzUcmd.s:24971  .debug_str:0000000000017a16 .LASF1429
C:\Users\CYMR90~1\AppData\Local\Temp\ccLzUcmd.s:28053  .debug_str:0000000000023d38 .LASF1430
C:\Users\CYMR90~1\AppData\Local\Temp\ccLzUcmd.s:26829  .debug_str:000000000001f329 .LASF1431
C:\Users\CYMR90~1\AppData\Local\Temp\ccLzUcmd.s:19154  .debug_str:000000000000066b .LASF1432
C:\Users\CYMR90~1\AppData\Local\Temp\ccLzUcmd.s:23372  .debug_str:00000000000111ad .LASF1433
C:\Users\CYMR90~1\AppData\Local\Temp\ccLzUcmd.s:27063  .debug_str:000000000002019b .LASF1434
C:\Users\CYMR90~1\AppData\Local\Temp\ccLzUcmd.s:26117  .debug_str:000000000001c519 .LASF1435
C:\Users\CYMR90~1\AppData\Local\Temp\ccLzUcmd.s:25181  .debug_str:0000000000018665 .LASF1436
C:\Users\CYMR90~1\AppData\Local\Temp\ccLzUcmd.s:24596  .debug_str:000000000001615b .LASF1437
C:\Users\CYMR90~1\AppData\Local\Temp\ccLzUcmd.s:28899  .debug_str:0000000000027557 .LASF1438
C:\Users\CYMR90~1\AppData\Local\Temp\ccLzUcmd.s:27939  .debug_str:00000000000236bf .LASF1439
C:\Users\CYMR90~1\AppData\Local\Temp\ccLzUcmd.s:26981  .debug_str:000000000001fc82 .LASF1440
C:\Users\CYMR90~1\AppData\Local\Temp\ccLzUcmd.s:26045  .debug_str:000000000001c0f6 .LASF1441
C:\Users\CYMR90~1\AppData\Local\Temp\ccLzUcmd.s:25105  .debug_str:00000000000181ef .LASF1442
C:\Users\CYMR90~1\AppData\Local\Temp\ccLzUcmd.s:24122  .debug_str:000000000001434b .LASF1443
C:\Users\CYMR90~1\AppData\Local\Temp\ccLzUcmd.s:23186  .debug_str:000000000001065d .LASF1444
C:\Users\CYMR90~1\AppData\Local\Temp\ccLzUcmd.s:29983  .debug_str:000000000002baeb .LASF1445
C:\Users\CYMR90~1\AppData\Local\Temp\ccLzUcmd.s:21258  .debug_str:0000000000008c6f .LASF1446
C:\Users\CYMR90~1\AppData\Local\Temp\ccLzUcmd.s:22798  .debug_str:000000000000ef3b .LASF1447
C:\Users\CYMR90~1\AppData\Local\Temp\ccLzUcmd.s:28285  .debug_str:0000000000024d8e .LASF1448
C:\Users\CYMR90~1\AppData\Local\Temp\ccLzUcmd.s:27329  .debug_str:000000000002117e .LASF1449
C:\Users\CYMR90~1\AppData\Local\Temp\ccLzUcmd.s:26375  .debug_str:000000000001d728 .LASF1450
C:\Users\CYMR90~1\AppData\Local\Temp\ccLzUcmd.s:25459  .debug_str:0000000000019a25 .LASF1451
C:\Users\CYMR90~1\AppData\Local\Temp\ccLzUcmd.s:24468  .debug_str:00000000000158cb .LASF1452
C:\Users\CYMR90~1\AppData\Local\Temp\ccLzUcmd.s:21856  .debug_str:000000000000b2a1 .LASF1453
C:\Users\CYMR90~1\AppData\Local\Temp\ccLzUcmd.s:20462  .debug_str:000000000000593f .LASF1454
C:\Users\CYMR90~1\AppData\Local\Temp\ccLzUcmd.s:21658  .debug_str:000000000000a5a0 .LASF1455
C:\Users\CYMR90~1\AppData\Local\Temp\ccLzUcmd.s:26731  .debug_str:000000000001ed15 .LASF1456
C:\Users\CYMR90~1\AppData\Local\Temp\ccLzUcmd.s:28335  .debug_str:00000000000250cb .LASF1457
C:\Users\CYMR90~1\AppData\Local\Temp\ccLzUcmd.s:20432  .debug_str:000000000000579a .LASF1458
C:\Users\CYMR90~1\AppData\Local\Temp\ccLzUcmd.s:26813  .debug_str:000000000001f22a .LASF1459
C:\Users\CYMR90~1\AppData\Local\Temp\ccLzUcmd.s:23654  .debug_str:00000000000124d2 .LASF1460
C:\Users\CYMR90~1\AppData\Local\Temp\ccLzUcmd.s:21766  .debug_str:000000000000ac40 .LASF1461
C:\Users\CYMR90~1\AppData\Local\Temp\ccLzUcmd.s:22942  .debug_str:000000000000f89d .LASF1462
C:\Users\CYMR90~1\AppData\Local\Temp\ccLzUcmd.s:23438  .debug_str:0000000000011673 .LASF1463
C:\Users\CYMR90~1\AppData\Local\Temp\ccLzUcmd.s:24528  .debug_str:0000000000015c70 .LASF1464
C:\Users\CYMR90~1\AppData\Local\Temp\ccLzUcmd.s:29759  .debug_str:000000000002ac45 .LASF1465
C:\Users\CYMR90~1\AppData\Local\Temp\ccLzUcmd.s:25715  .debug_str:000000000001ab7f .LASF1466
C:\Users\CYMR90~1\AppData\Local\Temp\ccLzUcmd.s:24126  .debug_str:0000000000014372 .LASF1467
C:\Users\CYMR90~1\AppData\Local\Temp\ccLzUcmd.s:28773  .debug_str:0000000000026d35 .LASF1468
C:\Users\CYMR90~1\AppData\Local\Temp\ccLzUcmd.s:23128  .debug_str:00000000000102c8 .LASF1469
C:\Users\CYMR90~1\AppData\Local\Temp\ccLzUcmd.s:21218  .debug_str:0000000000008a0d .LASF1470
C:\Users\CYMR90~1\AppData\Local\Temp\ccLzUcmd.s:23416  .debug_str:0000000000011496 .LASF1471
C:\Users\CYMR90~1\AppData\Local\Temp\ccLzUcmd.s:25001  .debug_str:0000000000017baa .LASF1472
C:\Users\CYMR90~1\AppData\Local\Temp\ccLzUcmd.s:28239  .debug_str:0000000000024a85 .LASF1473
C:\Users\CYMR90~1\AppData\Local\Temp\ccLzUcmd.s:28871  .debug_str:00000000000273cd .LASF1474
C:\Users\CYMR90~1\AppData\Local\Temp\ccLzUcmd.s:19246  .debug_str:0000000000000c4e .LASF1475
C:\Users\CYMR90~1\AppData\Local\Temp\ccLzUcmd.s:21146  .debug_str:00000000000085c5 .LASF1476
C:\Users\CYMR90~1\AppData\Local\Temp\ccLzUcmd.s:24640  .debug_str:00000000000163c7 .LASF1477
C:\Users\CYMR90~1\AppData\Local\Temp\ccLzUcmd.s:29059  .debug_str:000000000002801f .LASF1478
C:\Users\CYMR90~1\AppData\Local\Temp\ccLzUcmd.s:28089  .debug_str:0000000000024029 .LASF1479
C:\Users\CYMR90~1\AppData\Local\Temp\ccLzUcmd.s:19886  .debug_str:00000000000033e7 .LASF1480
C:\Users\CYMR90~1\AppData\Local\Temp\ccLzUcmd.s:22112  .debug_str:000000000000c397 .LASF1481
C:\Users\CYMR90~1\AppData\Local\Temp\ccLzUcmd.s:28207  .debug_str:0000000000024884 .LASF1482
C:\Users\CYMR90~1\AppData\Local\Temp\ccLzUcmd.s:21450  .debug_str:000000000000987c .LASF1483
C:\Users\CYMR90~1\AppData\Local\Temp\ccLzUcmd.s:20256  .debug_str:0000000000004ce2 .LASF1484
C:\Users\CYMR90~1\AppData\Local\Temp\ccLzUcmd.s:22672  .debug_str:000000000000e7b0 .LASF1485
C:\Users\CYMR90~1\AppData\Local\Temp\ccLzUcmd.s:24092  .debug_str:000000000001419c .LASF1486
C:\Users\CYMR90~1\AppData\Local\Temp\ccLzUcmd.s:25695  .debug_str:000000000001aa58 .LASF1487
C:\Users\CYMR90~1\AppData\Local\Temp\ccLzUcmd.s:19078  .debug_str:0000000000000216 .LASF1488
C:\Users\CYMR90~1\AppData\Local\Temp\ccLzUcmd.s:24486  .debug_str:00000000000159c8 .LASF1489
C:\Users\CYMR90~1\AppData\Local\Temp\ccLzUcmd.s:22478  .debug_str:000000000000db56 .LASF1490
C:\Users\CYMR90~1\AppData\Local\Temp\ccLzUcmd.s:29285  .debug_str:0000000000028f30 .LASF1491
C:\Users\CYMR90~1\AppData\Local\Temp\ccLzUcmd.s:19740  .debug_str:0000000000002aad .LASF1492
C:\Users\CYMR90~1\AppData\Local\Temp\ccLzUcmd.s:27283  .debug_str:0000000000020eff .LASF1493
C:\Users\CYMR90~1\AppData\Local\Temp\ccLzUcmd.s:29499  .debug_str:0000000000029cd4 .LASF1494
C:\Users\CYMR90~1\AppData\Local\Temp\ccLzUcmd.s:20898  .debug_str:00000000000074bd .LASF1495
C:\Users\CYMR90~1\AppData\Local\Temp\ccLzUcmd.s:28549  .debug_str:0000000000025f82 .LASF1496
C:\Users\CYMR90~1\AppData\Local\Temp\ccLzUcmd.s:29255  .debug_str:0000000000028d4c .LASF1497
C:\Users\CYMR90~1\AppData\Local\Temp\ccLzUcmd.s:20686  .debug_str:00000000000066b3 .LASF1498
C:\Users\CYMR90~1\AppData\Local\Temp\ccLzUcmd.s:21542  .debug_str:0000000000009e34 .LASF1499
C:\Users\CYMR90~1\AppData\Local\Temp\ccLzUcmd.s:30181  .debug_str:000000000002c895 .LASF1500
C:\Users\CYMR90~1\AppData\Local\Temp\ccLzUcmd.s:29419  .debug_str:0000000000029805 .LASF1501
C:\Users\CYMR90~1\AppData\Local\Temp\ccLzUcmd.s:27191  .debug_str:0000000000020989 .LASF1502
C:\Users\CYMR90~1\AppData\Local\Temp\ccLzUcmd.s:20668  .debug_str:000000000000658d .LASF1503
C:\Users\CYMR90~1\AppData\Local\Temp\ccLzUcmd.s:22220  .debug_str:000000000000cbdf .LASF1504
C:\Users\CYMR90~1\AppData\Local\Temp\ccLzUcmd.s:26577  .debug_str:000000000001e3a7 .LASF1505
C:\Users\CYMR90~1\AppData\Local\Temp\ccLzUcmd.s:25905  .debug_str:000000000001b83a .LASF1506
C:\Users\CYMR90~1\AppData\Local\Temp\ccLzUcmd.s:22792  .debug_str:000000000000eeec .LASF1507
C:\Users\CYMR90~1\AppData\Local\Temp\ccLzUcmd.s:27383  .debug_str:0000000000021556 .LASF1508
C:\Users\CYMR90~1\AppData\Local\Temp\ccLzUcmd.s:23598  .debug_str:0000000000012134 .LASF1509
C:\Users\CYMR90~1\AppData\Local\Temp\ccLzUcmd.s:29161  .debug_str:0000000000028792 .LASF1510
C:\Users\CYMR90~1\AppData\Local\Temp\ccLzUcmd.s:27953  .debug_str:0000000000023779 .LASF1511
C:\Users\CYMR90~1\AppData\Local\Temp\ccLzUcmd.s:19934  .debug_str:00000000000036ed .LASF1512
C:\Users\CYMR90~1\AppData\Local\Temp\ccLzUcmd.s:24550  .debug_str:0000000000015e37 .LASF1513
C:\Users\CYMR90~1\AppData\Local\Temp\ccLzUcmd.s:28361  .debug_str:00000000000252f9 .LASF1514
C:\Users\CYMR90~1\AppData\Local\Temp\ccLzUcmd.s:26789  .debug_str:000000000001f0d7 .LASF1515
C:\Users\CYMR90~1\AppData\Local\Temp\ccLzUcmd.s:29925  .debug_str:000000000002b6f1 .LASF1516
C:\Users\CYMR90~1\AppData\Local\Temp\ccLzUcmd.s:26625  .debug_str:000000000001e677 .LASF1517
C:\Users\CYMR90~1\AppData\Local\Temp\ccLzUcmd.s:28583  .debug_str:0000000000026164 .LASF1518
C:\Users\CYMR90~1\AppData\Local\Temp\ccLzUcmd.s:23588  .debug_str:00000000000120c3 .LASF1519
C:\Users\CYMR90~1\AppData\Local\Temp\ccLzUcmd.s:27009  .debug_str:000000000001fe5f .LASF1520
C:\Users\CYMR90~1\AppData\Local\Temp\ccLzUcmd.s:26077  .debug_str:000000000001c2e2 .LASF1521
C:\Users\CYMR90~1\AppData\Local\Temp\ccLzUcmd.s:27321  .debug_str:000000000002110f .LASF1522
C:\Users\CYMR90~1\AppData\Local\Temp\ccLzUcmd.s:25371  .debug_str:0000000000019392 .LASF1523
C:\Users\CYMR90~1\AppData\Local\Temp\ccLzUcmd.s:27955  .debug_str:000000000002378f .LASF1524
C:\Users\CYMR90~1\AppData\Local\Temp\ccLzUcmd.s:20330  .debug_str:000000000000514c .LASF1525
C:\Users\CYMR90~1\AppData\Local\Temp\ccLzUcmd.s:26019  .debug_str:000000000001bf60 .LASF1526
C:\Users\CYMR90~1\AppData\Local\Temp\ccLzUcmd.s:22134  .debug_str:000000000000c4e5 .LASF1527
C:\Users\CYMR90~1\AppData\Local\Temp\ccLzUcmd.s:27715  .debug_str:00000000000228f0 .LASF1528
C:\Users\CYMR90~1\AppData\Local\Temp\ccLzUcmd.s:28957  .debug_str:0000000000027913 .LASF1529
C:\Users\CYMR90~1\AppData\Local\Temp\ccLzUcmd.s:28199  .debug_str:000000000002477f .LASF1530
C:\Users\CYMR90~1\AppData\Local\Temp\ccLzUcmd.s:28263  .debug_str:0000000000024c09 .LASF1531
C:\Users\CYMR90~1\AppData\Local\Temp\ccLzUcmd.s:20086  .debug_str:00000000000040ed .LASF1532
C:\Users\CYMR90~1\AppData\Local\Temp\ccLzUcmd.s:25323  .debug_str:0000000000018ff5 .LASF1533
C:\Users\CYMR90~1\AppData\Local\Temp\ccLzUcmd.s:28083  .debug_str:0000000000023ee9 .LASF1534
C:\Users\CYMR90~1\AppData\Local\Temp\ccLzUcmd.s:22202  .debug_str:000000000000c9cf .LASF1535
C:\Users\CYMR90~1\AppData\Local\Temp\ccLzUcmd.s:28267  .debug_str:0000000000024c89 .LASF1536
C:\Users\CYMR90~1\AppData\Local\Temp\ccLzUcmd.s:27621  .debug_str:0000000000022394 .LASF1537
C:\Users\CYMR90~1\AppData\Local\Temp\ccLzUcmd.s:28823  .debug_str:0000000000027047 .LASF1538
C:\Users\CYMR90~1\AppData\Local\Temp\ccLzUcmd.s:28711  .debug_str:000000000002692e .LASF1539
C:\Users\CYMR90~1\AppData\Local\Temp\ccLzUcmd.s:23466  .debug_str:00000000000118d9 .LASF1540
C:\Users\CYMR90~1\AppData\Local\Temp\ccLzUcmd.s:29445  .debug_str:000000000002998d .LASF1541
C:\Users\CYMR90~1\AppData\Local\Temp\ccLzUcmd.s:22456  .debug_str:000000000000da42 .LASF1542
C:\Users\CYMR90~1\AppData\Local\Temp\ccLzUcmd.s:19854  .debug_str:00000000000031bf .LASF1543
C:\Users\CYMR90~1\AppData\Local\Temp\ccLzUcmd.s:23030  .debug_str:000000000000fd1c .LASF1544
C:\Users\CYMR90~1\AppData\Local\Temp\ccLzUcmd.s:21078  .debug_str:0000000000008155 .LASF1545
C:\Users\CYMR90~1\AppData\Local\Temp\ccLzUcmd.s:21550  .debug_str:0000000000009ea7 .LASF1546
C:\Users\CYMR90~1\AppData\Local\Temp\ccLzUcmd.s:22190  .debug_str:000000000000c8ea .LASF1547
C:\Users\CYMR90~1\AppData\Local\Temp\ccLzUcmd.s:29035  .debug_str:0000000000027e3f .LASF1548
C:\Users\CYMR90~1\AppData\Local\Temp\ccLzUcmd.s:28519  .debug_str:0000000000025d72 .LASF1549
C:\Users\CYMR90~1\AppData\Local\Temp\ccLzUcmd.s:25969  .debug_str:000000000001bbca .LASF1550
C:\Users\CYMR90~1\AppData\Local\Temp\ccLzUcmd.s:23340  .debug_str:0000000000010fb8 .LASF1551
C:\Users\CYMR90~1\AppData\Local\Temp\ccLzUcmd.s:25939  .debug_str:000000000001ba1c .LASF1552
C:\Users\CYMR90~1\AppData\Local\Temp\ccLzUcmd.s:19316  .debug_str:00000000000010af .LASF1553
C:\Users\CYMR90~1\AppData\Local\Temp\ccLzUcmd.s:19640  .debug_str:000000000000242d .LASF1554
C:\Users\CYMR90~1\AppData\Local\Temp\ccLzUcmd.s:26661  .debug_str:000000000001e8f9 .LASF1555
C:\Users\CYMR90~1\AppData\Local\Temp\ccLzUcmd.s:25275  .debug_str:0000000000018d09 .LASF1556
C:\Users\CYMR90~1\AppData\Local\Temp\ccLzUcmd.s:25299  .debug_str:0000000000018e85 .LASF1557
C:\Users\CYMR90~1\AppData\Local\Temp\ccLzUcmd.s:29527  .debug_str:0000000000029e3f .LASF1558
C:\Users\CYMR90~1\AppData\Local\Temp\ccLzUcmd.s:23182  .debug_str:0000000000010631 .LASF1559
C:\Users\CYMR90~1\AppData\Local\Temp\ccLzUcmd.s:27965  .debug_str:0000000000023808 .LASF1560
C:\Users\CYMR90~1\AppData\Local\Temp\ccLzUcmd.s:28387  .debug_str:00000000000254da .LASF1561
C:\Users\CYMR90~1\AppData\Local\Temp\ccLzUcmd.s:23292  .debug_str:0000000000010cfa .LASF1562
C:\Users\CYMR90~1\AppData\Local\Temp\ccLzUcmd.s:20510  .debug_str:0000000000005c2d .LASF1563
C:\Users\CYMR90~1\AppData\Local\Temp\ccLzUcmd.s:30025  .debug_str:000000000002bdb2 .LASF1564
C:\Users\CYMR90~1\AppData\Local\Temp\ccLzUcmd.s:20694  .debug_str:000000000000671c .LASF1565
C:\Users\CYMR90~1\AppData\Local\Temp\ccLzUcmd.s:26373  .debug_str:000000000001d69a .LASF1566
C:\Users\CYMR90~1\AppData\Local\Temp\ccLzUcmd.s:25651  .debug_str:000000000001a71f .LASF1567
C:\Users\CYMR90~1\AppData\Local\Temp\ccLzUcmd.s:27125  .debug_str:000000000002051f .LASF1568
C:\Users\CYMR90~1\AppData\Local\Temp\ccLzUcmd.s:23464  .debug_str:0000000000011832 .LASF1569
C:\Users\CYMR90~1\AppData\Local\Temp\ccLzUcmd.s:28413  .debug_str:0000000000025693 .LASF1570
C:\Users\CYMR90~1\AppData\Local\Temp\ccLzUcmd.s:23864  .debug_str:0000000000013353 .LASF1571
C:\Users\CYMR90~1\AppData\Local\Temp\ccLzUcmd.s:20380  .debug_str:000000000000545d .LASF1572
C:\Users\CYMR90~1\AppData\Local\Temp\ccLzUcmd.s:24288  .debug_str:0000000000014df2 .LASF1573
C:\Users\CYMR90~1\AppData\Local\Temp\ccLzUcmd.s:29149  .debug_str:00000000000286c8 .LASF1574
C:\Users\CYMR90~1\AppData\Local\Temp\ccLzUcmd.s:24761  .debug_str:0000000000016ceb .LASF1575
C:\Users\CYMR90~1\AppData\Local\Temp\ccLzUcmd.s:22830  .debug_str:000000000000f130 .LASF1576
C:\Users\CYMR90~1\AppData\Local\Temp\ccLzUcmd.s:26665  .debug_str:000000000001e93b .LASF1577
C:\Users\CYMR90~1\AppData\Local\Temp\ccLzUcmd.s:29633  .debug_str:000000000002a47c .LASF1578
C:\Users\CYMR90~1\AppData\Local\Temp\ccLzUcmd.s:19650  .debug_str:00000000000024b8 .LASF1579
C:\Users\CYMR90~1\AppData\Local\Temp\ccLzUcmd.s:26219  .debug_str:000000000001cc12 .LASF1580
C:\Users\CYMR90~1\AppData\Local\Temp\ccLzUcmd.s:23594  .debug_str:0000000000012105 .LASF1581
C:\Users\CYMR90~1\AppData\Local\Temp\ccLzUcmd.s:22374  .debug_str:000000000000d594 .LASF1582
C:\Users\CYMR90~1\AppData\Local\Temp\ccLzUcmd.s:21068  .debug_str:0000000000008029 .LASF1583
C:\Users\CYMR90~1\AppData\Local\Temp\ccLzUcmd.s:28825  .debug_str:0000000000027065 .LASF1584
C:\Users\CYMR90~1\AppData\Local\Temp\ccLzUcmd.s:26473  .debug_str:000000000001dcf0 .LASF1585
C:\Users\CYMR90~1\AppData\Local\Temp\ccLzUcmd.s:30233  .debug_str:000000000002cb93 .LASF1586
C:\Users\CYMR90~1\AppData\Local\Temp\ccLzUcmd.s:22348  .debug_str:000000000000d381 .LASF1587
C:\Users\CYMR90~1\AppData\Local\Temp\ccLzUcmd.s:21028  .debug_str:0000000000007cf6 .LASF1588
C:\Users\CYMR90~1\AppData\Local\Temp\ccLzUcmd.s:25843  .debug_str:000000000001b3e9 .LASF1589
C:\Users\CYMR90~1\AppData\Local\Temp\ccLzUcmd.s:21884  .debug_str:000000000000b442 .LASF1590
C:\Users\CYMR90~1\AppData\Local\Temp\ccLzUcmd.s:24660  .debug_str:00000000000164cf .LASF1591
C:\Users\CYMR90~1\AppData\Local\Temp\ccLzUcmd.s:21268  .debug_str:0000000000008cdd .LASF1592
C:\Users\CYMR90~1\AppData\Local\Temp\ccLzUcmd.s:23856  .debug_str:000000000001326e .LASF1593
C:\Users\CYMR90~1\AppData\Local\Temp\ccLzUcmd.s:29327  .debug_str:000000000002917c .LASF1594
C:\Users\CYMR90~1\AppData\Local\Temp\ccLzUcmd.s:29067  .debug_str:000000000002809d .LASF1595
C:\Users\CYMR90~1\AppData\Local\Temp\ccLzUcmd.s:19282  .debug_str:0000000000000e69 .LASF1596
C:\Users\CYMR90~1\AppData\Local\Temp\ccLzUcmd.s:26245  .debug_str:000000000001cdda .LASF1597
C:\Users\CYMR90~1\AppData\Local\Temp\ccLzUcmd.s:20194  .debug_str:000000000000486b .LASF1598
C:\Users\CYMR90~1\AppData\Local\Temp\ccLzUcmd.s:28337  .debug_str:00000000000250da .LASF1599
C:\Users\CYMR90~1\AppData\Local\Temp\ccLzUcmd.s:19428  .debug_str:000000000000173d .LASF1600
C:\Users\CYMR90~1\AppData\Local\Temp\ccLzUcmd.s:22916  .debug_str:000000000000f65c .LASF1601
C:\Users\CYMR90~1\AppData\Local\Temp\ccLzUcmd.s:27345  .debug_str:000000000002127b .LASF1602
C:\Users\CYMR90~1\AppData\Local\Temp\ccLzUcmd.s:26271  .debug_str:000000000001cffd .LASF1603
C:\Users\CYMR90~1\AppData\Local\Temp\ccLzUcmd.s:26163  .debug_str:000000000001c7e9 .LASF1604
C:\Users\CYMR90~1\AppData\Local\Temp\ccLzUcmd.s:28315  .debug_str:0000000000024f0a .LASF1605
C:\Users\CYMR90~1\AppData\Local\Temp\ccLzUcmd.s:28241  .debug_str:0000000000024a9b .LASF1606
C:\Users\CYMR90~1\AppData\Local\Temp\ccLzUcmd.s:28193  .debug_str:0000000000024725 .LASF1607
C:\Users\CYMR90~1\AppData\Local\Temp\ccLzUcmd.s:25219  .debug_str:00000000000188d2 .LASF1608
C:\Users\CYMR90~1\AppData\Local\Temp\ccLzUcmd.s:20172  .debug_str:00000000000046de .LASF1609
C:\Users\CYMR90~1\AppData\Local\Temp\ccLzUcmd.s:27553  .debug_str:0000000000021faf .LASF1610
C:\Users\CYMR90~1\AppData\Local\Temp\ccLzUcmd.s:30147  .debug_str:000000000002c62a .LASF1611
C:\Users\CYMR90~1\AppData\Local\Temp\ccLzUcmd.s:26113  .debug_str:000000000001c4dd .LASF1612
C:\Users\CYMR90~1\AppData\Local\Temp\ccLzUcmd.s:24170  .debug_str:0000000000014686 .LASF1613
C:\Users\CYMR90~1\AppData\Local\Temp\ccLzUcmd.s:21536  .debug_str:0000000000009dd6 .LASF1614
C:\Users\CYMR90~1\AppData\Local\Temp\ccLzUcmd.s:25801  .debug_str:000000000001b127 .LASF1615
C:\Users\CYMR90~1\AppData\Local\Temp\ccLzUcmd.s:27437  .debug_str:000000000002188d .LASF1616
C:\Users\CYMR90~1\AppData\Local\Temp\ccLzUcmd.s:24262  .debug_str:0000000000014bf9 .LASF1617
C:\Users\CYMR90~1\AppData\Local\Temp\ccLzUcmd.s:26175  .debug_str:000000000001c95d .LASF1618
C:\Users\CYMR90~1\AppData\Local\Temp\ccLzUcmd.s:20214  .debug_str:0000000000004a33 .LASF1619
C:\Users\CYMR90~1\AppData\Local\Temp\ccLzUcmd.s:21918  .debug_str:000000000000b6f1 .LASF1620
C:\Users\CYMR90~1\AppData\Local\Temp\ccLzUcmd.s:22744  .debug_str:000000000000ec4b .LASF1621
C:\Users\CYMR90~1\AppData\Local\Temp\ccLzUcmd.s:19794  .debug_str:0000000000002dfe .LASF1622
C:\Users\CYMR90~1\AppData\Local\Temp\ccLzUcmd.s:27155  .debug_str:000000000002072d .LASF1623
C:\Users\CYMR90~1\AppData\Local\Temp\ccLzUcmd.s:23858  .debug_str:0000000000013309 .LASF1624
C:\Users\CYMR90~1\AppData\Local\Temp\ccLzUcmd.s:22014  .debug_str:000000000000bd82 .LASF1625
C:\Users\CYMR90~1\AppData\Local\Temp\ccLzUcmd.s:27837  .debug_str:000000000002301b .LASF1626
C:\Users\CYMR90~1\AppData\Local\Temp\ccLzUcmd.s:20690  .debug_str:00000000000066ee .LASF1627
C:\Users\CYMR90~1\AppData\Local\Temp\ccLzUcmd.s:26905  .debug_str:000000000001f7d8 .LASF1628
C:\Users\CYMR90~1\AppData\Local\Temp\ccLzUcmd.s:21778  .debug_str:000000000000ad02 .LASF1629
C:\Users\CYMR90~1\AppData\Local\Temp\ccLzUcmd.s:27631  .debug_str:0000000000022400 .LASF1630
C:\Users\CYMR90~1\AppData\Local\Temp\ccLzUcmd.s:21252  .debug_str:0000000000008c18 .LASF1631
C:\Users\CYMR90~1\AppData\Local\Temp\ccLzUcmd.s:19380  .debug_str:0000000000001481 .LASF1632
C:\Users\CYMR90~1\AppData\Local\Temp\ccLzUcmd.s:25917  .debug_str:000000000001b921 .LASF1633
C:\Users\CYMR90~1\AppData\Local\Temp\ccLzUcmd.s:24903  .debug_str:0000000000017587 .LASF1634
C:\Users\CYMR90~1\AppData\Local\Temp\ccLzUcmd.s:21998  .debug_str:000000000000bc48 .LASF1635
C:\Users\CYMR90~1\AppData\Local\Temp\ccLzUcmd.s:22106  .debug_str:000000000000c351 .LASF1636
C:\Users\CYMR90~1\AppData\Local\Temp\ccLzUcmd.s:25771  .debug_str:000000000001af5a .LASF1637
C:\Users\CYMR90~1\AppData\Local\Temp\ccLzUcmd.s:22174  .debug_str:000000000000c7d7 .LASF1638
C:\Users\CYMR90~1\AppData\Local\Temp\ccLzUcmd.s:21894  .debug_str:000000000000b567 .LASF1639
C:\Users\CYMR90~1\AppData\Local\Temp\ccLzUcmd.s:25123  .debug_str:0000000000018306 .LASF1640
C:\Users\CYMR90~1\AppData\Local\Temp\ccLzUcmd.s:23134  .debug_str:000000000001031b .LASF1641
C:\Users\CYMR90~1\AppData\Local\Temp\ccLzUcmd.s:28183  .debug_str:0000000000024694 .LASF1642
C:\Users\CYMR90~1\AppData\Local\Temp\ccLzUcmd.s:23474  .debug_str:000000000001197a .LASF1643
C:\Users\CYMR90~1\AppData\Local\Temp\ccLzUcmd.s:27047  .debug_str:00000000000200c3 .LASF1644
C:\Users\CYMR90~1\AppData\Local\Temp\ccLzUcmd.s:30115  .debug_str:000000000002c48d .LASF1645
C:\Users\CYMR90~1\AppData\Local\Temp\ccLzUcmd.s:19784  .debug_str:0000000000002d6e .LASF1646
C:\Users\CYMR90~1\AppData\Local\Temp\ccLzUcmd.s:24700  .debug_str:000000000001671b .LASF1647
C:\Users\CYMR90~1\AppData\Local\Temp\ccLzUcmd.s:24805  .debug_str:0000000000016fd8 .LASF1648
C:\Users\CYMR90~1\AppData\Local\Temp\ccLzUcmd.s:19586  .debug_str:0000000000002114 .LASF1649
C:\Users\CYMR90~1\AppData\Local\Temp\ccLzUcmd.s:21094  .debug_str:000000000000828c .LASF1650
C:\Users\CYMR90~1\AppData\Local\Temp\ccLzUcmd.s:27853  .debug_str:000000000002311b .LASF1651
C:\Users\CYMR90~1\AppData\Local\Temp\ccLzUcmd.s:23230  .debug_str:00000000000108be .LASF1652
C:\Users\CYMR90~1\AppData\Local\Temp\ccLzUcmd.s:20986  .debug_str:0000000000007a31 .LASF1653
C:\Users\CYMR90~1\AppData\Local\Temp\ccLzUcmd.s:19322  .debug_str:0000000000001120 .LASF1654
C:\Users\CYMR90~1\AppData\Local\Temp\ccLzUcmd.s:25015  .debug_str:0000000000017c6d .LASF1657
C:\Users\CYMR90~1\AppData\Local\Temp\ccLzUcmd.s:29683  .debug_str:000000000002a7ad .LASF1658
C:\Users\CYMR90~1\AppData\Local\Temp\ccLzUcmd.s:23260  .debug_str:0000000000010b72 .LASF1659
C:\Users\CYMR90~1\AppData\Local\Temp\ccLzUcmd.s:25345  .debug_str:000000000001922e .LASF1660
C:\Users\CYMR90~1\AppData\Local\Temp\ccLzUcmd.s:29921  .debug_str:000000000002b6b2 .LASF1661
C:\Users\CYMR90~1\AppData\Local\Temp\ccLzUcmd.s:29955  .debug_str:000000000002b91b .LASF1662
C:\Users\CYMR90~1\AppData\Local\Temp\ccLzUcmd.s:27239  .debug_str:0000000000020c66 .LASF1663
C:\Users\CYMR90~1\AppData\Local\Temp\ccLzUcmd.s:24222  .debug_str:0000000000014975 .LASF1664
C:\Users\CYMR90~1\AppData\Local\Temp\ccLzUcmd.s:26419  .debug_str:000000000001d9ca .LASF1665
C:\Users\CYMR90~1\AppData\Local\Temp\ccLzUcmd.s:27323  .debug_str:000000000002112a .LASF1666
C:\Users\CYMR90~1\AppData\Local\Temp\ccLzUcmd.s:22952  .debug_str:000000000000f90e .LASF1667
C:\Users\CYMR90~1\AppData\Local\Temp\ccLzUcmd.s:22658  .debug_str:000000000000e6b1 .LASF1668
C:\Users\CYMR90~1\AppData\Local\Temp\ccLzUcmd.s:20014  .debug_str:0000000000003c22 .LASF1669
C:\Users\CYMR90~1\AppData\Local\Temp\ccLzUcmd.s:21288  .debug_str:0000000000008ec9 .LASF1670
C:\Users\CYMR90~1\AppData\Local\Temp\ccLzUcmd.s:20164  .debug_str:000000000000465c .LASF1671
C:\Users\CYMR90~1\AppData\Local\Temp\ccLzUcmd.s:19126  .debug_str:00000000000004ec .LASF1672
C:\Users\CYMR90~1\AppData\Local\Temp\ccLzUcmd.s:24146  .debug_str:000000000001449c .LASF1673
C:\Users\CYMR90~1\AppData\Local\Temp\ccLzUcmd.s:23548  .debug_str:0000000000011de8 .LASF1674
C:\Users\CYMR90~1\AppData\Local\Temp\ccLzUcmd.s:22696  .debug_str:000000000000e90d .LASF1675
C:\Users\CYMR90~1\AppData\Local\Temp\ccLzUcmd.s:28205  .debug_str:000000000002486a .LASF1676
C:\Users\CYMR90~1\AppData\Local\Temp\ccLzUcmd.s:23680  .debug_str:000000000001267c .LASF1677
C:\Users\CYMR90~1\AppData\Local\Temp\ccLzUcmd.s:30117  .debug_str:000000000002c4a2 .LASF1678
C:\Users\CYMR90~1\AppData\Local\Temp\ccLzUcmd.s:19696  .debug_str:00000000000027b8 .LASF1679
C:\Users\CYMR90~1\AppData\Local\Temp\ccLzUcmd.s:23212  .debug_str:00000000000107e5 .LASF1680
C:\Users\CYMR90~1\AppData\Local\Temp\ccLzUcmd.s:24398  .debug_str:00000000000154d1 .LASF1681
C:\Users\CYMR90~1\AppData\Local\Temp\ccLzUcmd.s:23050  .debug_str:000000000000fe81 .LASF1682
C:\Users\CYMR90~1\AppData\Local\Temp\ccLzUcmd.s:25755  .debug_str:000000000001addd .LASF1683
C:\Users\CYMR90~1\AppData\Local\Temp\ccLzUcmd.s:27801  .debug_str:0000000000022e48 .LASF1684
C:\Users\CYMR90~1\AppData\Local\Temp\ccLzUcmd.s:28703  .debug_str:00000000000268d3 .LASF1685
C:\Users\CYMR90~1\AppData\Local\Temp\ccLzUcmd.s:23210  .debug_str:00000000000107cd .LASF1686
C:\Users\CYMR90~1\AppData\Local\Temp\ccLzUcmd.s:24322  .debug_str:0000000000015023 .LASF1687
C:\Users\CYMR90~1\AppData\Local\Temp\ccLzUcmd.s:29435  .debug_str:00000000000298e2 .LASF1688
C:\Users\CYMR90~1\AppData\Local\Temp\ccLzUcmd.s:27983  .debug_str:000000000002392d .LASF1689
C:\Users\CYMR90~1\AppData\Local\Temp\ccLzUcmd.s:25875  .debug_str:000000000001b655 .LASF1690
C:\Users\CYMR90~1\AppData\Local\Temp\ccLzUcmd.s:23944  .debug_str:0000000000013871 .LASF1691
C:\Users\CYMR90~1\AppData\Local\Temp\ccLzUcmd.s:27537  .debug_str:0000000000021ed7 .LASF1692
C:\Users\CYMR90~1\AppData\Local\Temp\ccLzUcmd.s:25207  .debug_str:0000000000018835 .LASF1693
C:\Users\CYMR90~1\AppData\Local\Temp\ccLzUcmd.s:21088  .debug_str:0000000000008218 .LASF1694
C:\Users\CYMR90~1\AppData\Local\Temp\ccLzUcmd.s:23130  .debug_str:00000000000102d8 .LASF1695
C:\Users\CYMR90~1\AppData\Local\Temp\ccLzUcmd.s:24981  .debug_str:0000000000017a95 .LASF1696
C:\Users\CYMR90~1\AppData\Local\Temp\ccLzUcmd.s:24270  .debug_str:0000000000014c8c .LASF1697
C:\Users\CYMR90~1\AppData\Local\Temp\ccLzUcmd.s:26803  .debug_str:000000000001f197 .LASF1698
C:\Users\CYMR90~1\AppData\Local\Temp\ccLzUcmd.s:25381  .debug_str:0000000000019459 .LASF1699
C:\Users\CYMR90~1\AppData\Local\Temp\ccLzUcmd.s:27251  .debug_str:0000000000020d1a .LASF1700
C:\Users\CYMR90~1\AppData\Local\Temp\ccLzUcmd.s:26799  .debug_str:000000000001f15a .LASF1701
C:\Users\CYMR90~1\AppData\Local\Temp\ccLzUcmd.s:28027  .debug_str:0000000000023b99 .LASF1702
C:\Users\CYMR90~1\AppData\Local\Temp\ccLzUcmd.s:27991  .debug_str:0000000000023995 .LASF1703
C:\Users\CYMR90~1\AppData\Local\Temp\ccLzUcmd.s:27527  .debug_str:0000000000021e3d .LASF1704
C:\Users\CYMR90~1\AppData\Local\Temp\ccLzUcmd.s:26001  .debug_str:000000000001be0c .LASF1705
C:\Users\CYMR90~1\AppData\Local\Temp\ccLzUcmd.s:27385  .debug_str:000000000002156a .LASF1706
C:\Users\CYMR90~1\AppData\Local\Temp\ccLzUcmd.s:24885  .debug_str:000000000001744c .LASF1707
C:\Users\CYMR90~1\AppData\Local\Temp\ccLzUcmd.s:23860  .debug_str:000000000001331c .LASF1708
C:\Users\CYMR90~1\AppData\Local\Temp\ccLzUcmd.s:26557  .debug_str:000000000001e28f .LASF1709
C:\Users\CYMR90~1\AppData\Local\Temp\ccLzUcmd.s:25125  .debug_str:000000000001831b .LASF1710
C:\Users\CYMR90~1\AppData\Local\Temp\ccLzUcmd.s:22000  .debug_str:000000000000bc5d .LASF1711
C:\Users\CYMR90~1\AppData\Local\Temp\ccLzUcmd.s:23494  .debug_str:0000000000011a8d .LASF1712
C:\Users\CYMR90~1\AppData\Local\Temp\ccLzUcmd.s:20620  .debug_str:00000000000062bb .LASF1713
C:\Users\CYMR90~1\AppData\Local\Temp\ccLzUcmd.s:22958  .debug_str:000000000000f96b .LASF1714
C:\Users\CYMR90~1\AppData\Local\Temp\ccLzUcmd.s:19906  .debug_str:000000000000353a .LASF1715
C:\Users\CYMR90~1\AppData\Local\Temp\ccLzUcmd.s:23208  .debug_str:00000000000107a1 .LASF1716
C:\Users\CYMR90~1\AppData\Local\Temp\ccLzUcmd.s:26527  .debug_str:000000000001e0bb .LASF1717
C:\Users\CYMR90~1\AppData\Local\Temp\ccLzUcmd.s:25087  .debug_str:00000000000180c4 .LASF1718
C:\Users\CYMR90~1\AppData\Local\Temp\ccLzUcmd.s:23436  .debug_str:00000000000115c5 .LASF1719
C:\Users\CYMR90~1\AppData\Local\Temp\ccLzUcmd.s:25441  .debug_str:0000000000019841 .LASF1720
C:\Users\CYMR90~1\AppData\Local\Temp\ccLzUcmd.s:23936  .debug_str:00000000000137ee .LASF1721
C:\Users\CYMR90~1\AppData\Local\Temp\ccLzUcmd.s:19624  .debug_str:000000000000234e .LASF1722
C:\Users\CYMR90~1\AppData\Local\Temp\ccLzUcmd.s:25763  .debug_str:000000000001ae77 .LASF1723
C:\Users\CYMR90~1\AppData\Local\Temp\ccLzUcmd.s:19690  .debug_str:0000000000002759 .LASF1724
C:\Users\CYMR90~1\AppData\Local\Temp\ccLzUcmd.s:24464  .debug_str:000000000001586e .LASF1725
C:\Users\CYMR90~1\AppData\Local\Temp\ccLzUcmd.s:29231  .debug_str:0000000000028ba1 .LASF1726
C:\Users\CYMR90~1\AppData\Local\Temp\ccLzUcmd.s:23542  .debug_str:0000000000011d5c .LASF1727
C:\Users\CYMR90~1\AppData\Local\Temp\ccLzUcmd.s:28873  .debug_str:00000000000273e1 .LASF1728
C:\Users\CYMR90~1\AppData\Local\Temp\ccLzUcmd.s:26217  .debug_str:000000000001cbdb .LASF1729
C:\Users\CYMR90~1\AppData\Local\Temp\ccLzUcmd.s:30029  .debug_str:000000000002be71 .LASF1730
C:\Users\CYMR90~1\AppData\Local\Temp\ccLzUcmd.s:28163  .debug_str:000000000002453d .LASF1731
C:\Users\CYMR90~1\AppData\Local\Temp\ccLzUcmd.s:23378  .debug_str:00000000000111ef .LASF1732
C:\Users\CYMR90~1\AppData\Local\Temp\ccLzUcmd.s:21398  .debug_str:00000000000094d7 .LASF1733
C:\Users\CYMR90~1\AppData\Local\Temp\ccLzUcmd.s:19386  .debug_str:00000000000014d3 .LASF1734
C:\Users\CYMR90~1\AppData\Local\Temp\ccLzUcmd.s:24839  .debug_str:00000000000171c6 .LASF1735
C:\Users\CYMR90~1\AppData\Local\Temp\ccLzUcmd.s:26969  .debug_str:000000000001fbcd .LASF1736
C:\Users\CYMR90~1\AppData\Local\Temp\ccLzUcmd.s:21388  .debug_str:000000000000944e .LASF1737
C:\Users\CYMR90~1\AppData\Local\Temp\ccLzUcmd.s:21108  .debug_str:0000000000008368 .LASF1738
C:\Users\CYMR90~1\AppData\Local\Temp\ccLzUcmd.s:28699  .debug_str:00000000000268a4 .LASF1739
C:\Users\CYMR90~1\AppData\Local\Temp\ccLzUcmd.s:22720  .debug_str:000000000000ead6 .LASF1740
C:\Users\CYMR90~1\AppData\Local\Temp\ccLzUcmd.s:21728  .debug_str:000000000000a9e8 .LASF1741
C:\Users\CYMR90~1\AppData\Local\Temp\ccLzUcmd.s:26825  .debug_str:000000000001f2de .LASF1742
C:\Users\CYMR90~1\AppData\Local\Temp\ccLzUcmd.s:26481  .debug_str:000000000001dde0 .LASF1743
C:\Users\CYMR90~1\AppData\Local\Temp\ccLzUcmd.s:29985  .debug_str:000000000002baff .LASF1744
C:\Users\CYMR90~1\AppData\Local\Temp\ccLzUcmd.s:21116  .debug_str:00000000000083ef .LASF1745
C:\Users\CYMR90~1\AppData\Local\Temp\ccLzUcmd.s:23022  .debug_str:000000000000fc93 .LASF1746
C:\Users\CYMR90~1\AppData\Local\Temp\ccLzUcmd.s:28031  .debug_str:0000000000023bdf .LASF1747
C:\Users\CYMR90~1\AppData\Local\Temp\ccLzUcmd.s:27637  .debug_str:0000000000022450 .LASF1748
C:\Users\CYMR90~1\AppData\Local\Temp\ccLzUcmd.s:23206  .debug_str:000000000001077e .LASF1749
C:\Users\CYMR90~1\AppData\Local\Temp\ccLzUcmd.s:21890  .debug_str:000000000000b51e .LASF1750
C:\Users\CYMR90~1\AppData\Local\Temp\ccLzUcmd.s:25019  .debug_str:0000000000017ca1 .LASF1751
C:\Users\CYMR90~1\AppData\Local\Temp\ccLzUcmd.s:20258  .debug_str:0000000000004cf6 .LASF1752
C:\Users\CYMR90~1\AppData\Local\Temp\ccLzUcmd.s:25739  .debug_str:000000000001acdf .LASF1753
C:\Users\CYMR90~1\AppData\Local\Temp\ccLzUcmd.s:25637  .debug_str:000000000001a621 .LASF1754
C:\Users\CYMR90~1\AppData\Local\Temp\ccLzUcmd.s:22164  .debug_str:000000000000c6d6 .LASF1755
C:\Users\CYMR90~1\AppData\Local\Temp\ccLzUcmd.s:23750  .debug_str:0000000000012b34 .LASF1756
C:\Users\CYMR90~1\AppData\Local\Temp\ccLzUcmd.s:25831  .debug_str:000000000001b339 .LASF1757
C:\Users\CYMR90~1\AppData\Local\Temp\ccLzUcmd.s:22818  .debug_str:000000000000f056 .LASF1758
C:\Users\CYMR90~1\AppData\Local\Temp\ccLzUcmd.s:20930  .debug_str:00000000000076a0 .LASF1759
C:\Users\CYMR90~1\AppData\Local\Temp\ccLzUcmd.s:25581  .debug_str:000000000001a155 .LASF1760
C:\Users\CYMR90~1\AppData\Local\Temp\ccLzUcmd.s:21220  .debug_str:0000000000008a1f .LASF1761
C:\Users\CYMR90~1\AppData\Local\Temp\ccLzUcmd.s:19450  .debug_str:000000000000195a .LASF1762
C:\Users\CYMR90~1\AppData\Local\Temp\ccLzUcmd.s:28221  .debug_str:0000000000024939 .LASF1763
C:\Users\CYMR90~1\AppData\Local\Temp\ccLzUcmd.s:20958  .debug_str:000000000000787b .LASF1764
C:\Users\CYMR90~1\AppData\Local\Temp\ccLzUcmd.s:20636  .debug_str:00000000000063cd .LASF1765
C:\Users\CYMR90~1\AppData\Local\Temp\ccLzUcmd.s:19430  .debug_str:00000000000017f3 .LASF1766
C:\Users\CYMR90~1\AppData\Local\Temp\ccLzUcmd.s:25945  .debug_str:000000000001ba75 .LASF1767
C:\Users\CYMR90~1\AppData\Local\Temp\ccLzUcmd.s:19492  .debug_str:0000000000001bca .LASF1768
C:\Users\CYMR90~1\AppData\Local\Temp\ccLzUcmd.s:28415  .debug_str:0000000000025721 .LASF1769
C:\Users\CYMR90~1\AppData\Local\Temp\ccLzUcmd.s:30101  .debug_str:000000000002c38e .LASF1770
C:\Users\CYMR90~1\AppData\Local\Temp\ccLzUcmd.s:22050  .debug_str:000000000000bfcb .LASF1771
C:\Users\CYMR90~1\AppData\Local\Temp\ccLzUcmd.s:20644  .debug_str:0000000000006442 .LASF1772
C:\Users\CYMR90~1\AppData\Local\Temp\ccLzUcmd.s:19160  .debug_str:00000000000006b6 .LASF1773
C:\Users\CYMR90~1\AppData\Local\Temp\ccLzUcmd.s:19210  .debug_str:00000000000009b7 .LASF1774
C:\Users\CYMR90~1\AppData\Local\Temp\ccLzUcmd.s:29139  .debug_str:0000000000028609 .LASF1775
C:\Users\CYMR90~1\AppData\Local\Temp\ccLzUcmd.s:24162  .debug_str:00000000000145f2 .LASF1776
C:\Users\CYMR90~1\AppData\Local\Temp\ccLzUcmd.s:22898  .debug_str:000000000000f55a .LASF1777
C:\Users\CYMR90~1\AppData\Local\Temp\ccLzUcmd.s:25011  .debug_str:0000000000017c3c .LASF1778
C:\Users\CYMR90~1\AppData\Local\Temp\ccLzUcmd.s:20354  .debug_str:00000000000052c9 .LASF1779
C:\Users\CYMR90~1\AppData\Local\Temp\ccLzUcmd.s:28453  .debug_str:0000000000025990 .LASF1780
C:\Users\CYMR90~1\AppData\Local\Temp\ccLzUcmd.s:27671  .debug_str:000000000002266d .LASF1781
C:\Users\CYMR90~1\AppData\Local\Temp\ccLzUcmd.s:26225  .debug_str:000000000001cc7d .LASF1784
C:\Users\CYMR90~1\AppData\Local\Temp\ccLzUcmd.s:25391  .debug_str:00000000000194f4 .LASF1785
C:\Users\CYMR90~1\AppData\Local\Temp\ccLzUcmd.s:25241  .debug_str:0000000000018a46 .LASF1786
C:\Users\CYMR90~1\AppData\Local\Temp\ccLzUcmd.s:24208  .debug_str:00000000000148bd .LASF1787
C:\Users\CYMR90~1\AppData\Local\Temp\ccLzUcmd.s:29563  .debug_str:000000000002a043 .LASF1788
C:\Users\CYMR90~1\AppData\Local\Temp\ccLzUcmd.s:29871  .debug_str:000000000002b371 .LASF1789
C:\Users\CYMR90~1\AppData\Local\Temp\ccLzUcmd.s:19956  .debug_str:0000000000003884 .LASF1790
C:\Users\CYMR90~1\AppData\Local\Temp\ccLzUcmd.s:19074  .debug_str:00000000000001e0 .LASF1791
C:\Users\CYMR90~1\AppData\Local\Temp\ccLzUcmd.s:28785  .debug_str:0000000000026dd8 .LASF1792
C:\Users\CYMR90~1\AppData\Local\Temp\ccLzUcmd.s:27883  .debug_str:00000000000232c0 .LASF1793
C:\Users\CYMR90~1\AppData\Local\Temp\ccLzUcmd.s:29749  .debug_str:000000000002ab8c .LASF1794
C:\Users\CYMR90~1\AppData\Local\Temp\ccLzUcmd.s:29071  .debug_str:0000000000028168 .LASF1795
C:\Users\CYMR90~1\AppData\Local\Temp\ccLzUcmd.s:23872  .debug_str:00000000000133e6 .LASF1796
C:\Users\CYMR90~1\AppData\Local\Temp\ccLzUcmd.s:24150  .debug_str:00000000000144de .LASF1797
C:\Users\CYMR90~1\AppData\Local\Temp\ccLzUcmd.s:23264  .debug_str:0000000000010b8f .LASF1798
C:\Users\CYMR90~1\AppData\Local\Temp\ccLzUcmd.s:22078  .debug_str:000000000000c1ae .LASF1799
C:\Users\CYMR90~1\AppData\Local\Temp\ccLzUcmd.s:20794  .debug_str:0000000000006dbf .LASF1800
C:\Users\CYMR90~1\AppData\Local\Temp\ccLzUcmd.s:25233  .debug_str:00000000000189cc .LASF1801
C:\Users\CYMR90~1\AppData\Local\Temp\ccLzUcmd.s:24292  .debug_str:0000000000014e2c .LASF1802
C:\Users\CYMR90~1\AppData\Local\Temp\ccLzUcmd.s:23324  .debug_str:0000000000010ed6 .LASF1803
C:\Users\CYMR90~1\AppData\Local\Temp\ccLzUcmd.s:22794  .debug_str:000000000000ef03 .LASF1804
C:\Users\CYMR90~1\AppData\Local\Temp\ccLzUcmd.s:27469  .debug_str:0000000000021aa8 .LASF1805
C:\Users\CYMR90~1\AppData\Local\Temp\ccLzUcmd.s:24172  .debug_str:00000000000146aa .LASF1806
C:\Users\CYMR90~1\AppData\Local\Temp\ccLzUcmd.s:27085  .debug_str:000000000002029e .LASF1807
C:\Users\CYMR90~1\AppData\Local\Temp\ccLzUcmd.s:24316  .debug_str:0000000000014fc2 .LASF1808
C:\Users\CYMR90~1\AppData\Local\Temp\ccLzUcmd.s:29063  .debug_str:000000000002805c .LASF1809
C:\Users\CYMR90~1\AppData\Local\Temp\ccLzUcmd.s:26319  .debug_str:000000000001d363 .LASF1810
C:\Users\CYMR90~1\AppData\Local\Temp\ccLzUcmd.s:25025  .debug_str:0000000000017d16 .LASF1811
C:\Users\CYMR90~1\AppData\Local\Temp\ccLzUcmd.s:19408  .debug_str:000000000000160b .LASF1812
C:\Users\CYMR90~1\AppData\Local\Temp\ccLzUcmd.s:23218  .debug_str:000000000001082b .LASF1813
C:\Users\CYMR90~1\AppData\Local\Temp\ccLzUcmd.s:23478  .debug_str:00000000000119ac .LASF1814
C:\Users\CYMR90~1\AppData\Local\Temp\ccLzUcmd.s:26301  .debug_str:000000000001d26b .LASF1815
C:\Users\CYMR90~1\AppData\Local\Temp\ccLzUcmd.s:24987  .debug_str:0000000000017b07 .LASF1816
C:\Users\CYMR90~1\AppData\Local\Temp\ccLzUcmd.s:26309  .debug_str:000000000001d2e9 .LASF1817
C:\Users\CYMR90~1\AppData\Local\Temp\ccLzUcmd.s:26749  .debug_str:000000000001ee2d .LASF1818
C:\Users\CYMR90~1\AppData\Local\Temp\ccLzUcmd.s:23018  .debug_str:000000000000fc5b .LASF1819
C:\Users\CYMR90~1\AppData\Local\Temp\ccLzUcmd.s:27223  .debug_str:0000000000020b60 .LASF1820
C:\Users\CYMR90~1\AppData\Local\Temp\ccLzUcmd.s:20662  .debug_str:000000000000654e .LASF1821
C:\Users\CYMR90~1\AppData\Local\Temp\ccLzUcmd.s:21048  .debug_str:0000000000007ed7 .LASF1822
C:\Users\CYMR90~1\AppData\Local\Temp\ccLzUcmd.s:26683  .debug_str:000000000001ea68 .LASF1823
C:\Users\CYMR90~1\AppData\Local\Temp\ccLzUcmd.s:29343  .debug_str:0000000000029313 .LASF1824
C:\Users\CYMR90~1\AppData\Local\Temp\ccLzUcmd.s:21954  .debug_str:000000000000b97c .LASF1825
C:\Users\CYMR90~1\AppData\Local\Temp\ccLzUcmd.s:27311  .debug_str:0000000000021078 .LASF1826
C:\Users\CYMR90~1\AppData\Local\Temp\ccLzUcmd.s:29689  .debug_str:000000000002a7e7 .LASF1827
C:\Users\CYMR90~1\AppData\Local\Temp\ccLzUcmd.s:22762  .debug_str:000000000000ed3b .LASF1828
C:\Users\CYMR90~1\AppData\Local\Temp\ccLzUcmd.s:22838  .debug_str:000000000000f1bf .LASF1829
C:\Users\CYMR90~1\AppData\Local\Temp\ccLzUcmd.s:23626  .debug_str:00000000000122f8 .LASF1830
C:\Users\CYMR90~1\AppData\Local\Temp\ccLzUcmd.s:21418  .debug_str:000000000000966e .LASF1831
C:\Users\CYMR90~1\AppData\Local\Temp\ccLzUcmd.s:28727  .debug_str:0000000000026a22 .LASF1832
C:\Users\CYMR90~1\AppData\Local\Temp\ccLzUcmd.s:22218  .debug_str:000000000000cbc4 .LASF1833
C:\Users\CYMR90~1\AppData\Local\Temp\ccLzUcmd.s:20870  .debug_str:00000000000072f6 .LASF1834
C:\Users\CYMR90~1\AppData\Local\Temp\ccLzUcmd.s:24614  .debug_str:0000000000016250 .LASF1835
C:\Users\CYMR90~1\AppData\Local\Temp\ccLzUcmd.s:28597  .debug_str:0000000000026233 .LASF1836
C:\Users\CYMR90~1\AppData\Local\Temp\ccLzUcmd.s:24584  .debug_str:0000000000016090 .LASF1837
C:\Users\CYMR90~1\AppData\Local\Temp\ccLzUcmd.s:25321  .debug_str:0000000000018fdd .LASF1838
C:\Users\CYMR90~1\AppData\Local\Temp\ccLzUcmd.s:23268  .debug_str:0000000000010bc7 .LASF1839
C:\Users\CYMR90~1\AppData\Local\Temp\ccLzUcmd.s:26257  .debug_str:000000000001cf18 .LASF1840
C:\Users\CYMR90~1\AppData\Local\Temp\ccLzUcmd.s:25543  .debug_str:0000000000019f37 .LASF1841
C:\Users\CYMR90~1\AppData\Local\Temp\ccLzUcmd.s:28297  .debug_str:0000000000024e1c .LASF1842
C:\Users\CYMR90~1\AppData\Local\Temp\ccLzUcmd.s:28683  .debug_str:00000000000267a8 .LASF1843
C:\Users\CYMR90~1\AppData\Local\Temp\ccLzUcmd.s:29889  .debug_str:000000000002b4d4 .LASF1844
C:\Users\CYMR90~1\AppData\Local\Temp\ccLzUcmd.s:29743  .debug_str:000000000002ab39 .LASF1845
C:\Users\CYMR90~1\AppData\Local\Temp\ccLzUcmd.s:21150  .debug_str:00000000000085ff .LASF1846
C:\Users\CYMR90~1\AppData\Local\Temp\ccLzUcmd.s:26457  .debug_str:000000000001dbe0 .LASF1847
C:\Users\CYMR90~1\AppData\Local\Temp\ccLzUcmd.s:27579  .debug_str:000000000002214a .LASF1848
C:\Users\CYMR90~1\AppData\Local\Temp\ccLzUcmd.s:27591  .debug_str:00000000000221fa .LASF1849
C:\Users\CYMR90~1\AppData\Local\Temp\ccLzUcmd.s:26835  .debug_str:000000000001f37c .LASF1850
C:\Users\CYMR90~1\AppData\Local\Temp\ccLzUcmd.s:21212  .debug_str:000000000000899c .LASF1851
C:\Users\CYMR90~1\AppData\Local\Temp\ccLzUcmd.s:28639  .debug_str:00000000000264ff .LASF1852
C:\Users\CYMR90~1\AppData\Local\Temp\ccLzUcmd.s:22458  .debug_str:000000000000da5f .LASF1853
C:\Users\CYMR90~1\AppData\Local\Temp\ccLzUcmd.s:19858  .debug_str:000000000000320c .LASF1854
C:\Users\CYMR90~1\AppData\Local\Temp\ccLzUcmd.s:26339  .debug_str:000000000001d4a8 .LASF1855
C:\Users\CYMR90~1\AppData\Local\Temp\ccLzUcmd.s:28913  .debug_str:000000000002762d .LASF1856
C:\Users\CYMR90~1\AppData\Local\Temp\ccLzUcmd.s:21292  .debug_str:0000000000008f0e .LASF1857
C:\Users\CYMR90~1\AppData\Local\Temp\ccLzUcmd.s:22146  .debug_str:000000000000c5c9 .LASF1858
C:\Users\CYMR90~1\AppData\Local\Temp\ccLzUcmd.s:29011  .debug_str:0000000000027cb1 .LASF1859
C:\Users\CYMR90~1\AppData\Local\Temp\ccLzUcmd.s:24324  .debug_str:0000000000015058 .LASF1860
C:\Users\CYMR90~1\AppData\Local\Temp\ccLzUcmd.s:25263  .debug_str:0000000000018c3a .LASF1861
C:\Users\CYMR90~1\AppData\Local\Temp\ccLzUcmd.s:23070  .debug_str:000000000000ffa3 .LASF1862
C:\Users\CYMR90~1\AppData\Local\Temp\ccLzUcmd.s:20820  .debug_str:0000000000006f32 .LASF1863
C:\Users\CYMR90~1\AppData\Local\Temp\ccLzUcmd.s:25175  .debug_str:000000000001861d .LASF1864
C:\Users\CYMR90~1\AppData\Local\Temp\ccLzUcmd.s:20458  .debug_str:00000000000058fc .LASF1865
C:\Users\CYMR90~1\AppData\Local\Temp\ccLzUcmd.s:27773  .debug_str:0000000000022cb9 .LASF1866
C:\Users\CYMR90~1\AppData\Local\Temp\ccLzUcmd.s:27017  .debug_str:000000000001feeb .LASF1867
C:\Users\CYMR90~1\AppData\Local\Temp\ccLzUcmd.s:22076  .debug_str:000000000000c17e .LASF1868
C:\Users\CYMR90~1\AppData\Local\Temp\ccLzUcmd.s:19190  .debug_str:0000000000000889 .LASF1869
C:\Users\CYMR90~1\AppData\Local\Temp\ccLzUcmd.s:19562  .debug_str:0000000000001fdd .LASF1870
C:\Users\CYMR90~1\AppData\Local\Temp\ccLzUcmd.s:19270  .debug_str:0000000000000da6 .LASF1871
C:\Users\CYMR90~1\AppData\Local\Temp\ccLzUcmd.s:28393  .debug_str:000000000002555c .LASF1872
C:\Users\CYMR90~1\AppData\Local\Temp\ccLzUcmd.s:24454  .debug_str:00000000000157cf .LASF1873
C:\Users\CYMR90~1\AppData\Local\Temp\ccLzUcmd.s:20994  .debug_str:0000000000007aeb .LASF1874
C:\Users\CYMR90~1\AppData\Local\Temp\ccLzUcmd.s:21868  .debug_str:000000000000b337 .LASF1875
C:\Users\CYMR90~1\AppData\Local\Temp\ccLzUcmd.s:29469  .debug_str:0000000000029af2 .LASF1876
C:\Users\CYMR90~1\AppData\Local\Temp\ccLzUcmd.s:25773  .debug_str:000000000001af6f .LASF1877
C:\Users\CYMR90~1\AppData\Local\Temp\ccLzUcmd.s:26519  .debug_str:000000000001e047 .LASF1878
C:\Users\CYMR90~1\AppData\Local\Temp\ccLzUcmd.s:22902  .debug_str:000000000000f593 .LASF1879
C:\Users\CYMR90~1\AppData\Local\Temp\ccLzUcmd.s:21254  .debug_str:0000000000008c2f .LASF1880
C:\Users\CYMR90~1\AppData\Local\Temp\ccLzUcmd.s:26815  .debug_str:000000000001f23f .LASF1881
C:\Users\CYMR90~1\AppData\Local\Temp\ccLzUcmd.s:19304  .debug_str:0000000000001010 .LASF1882
C:\Users\CYMR90~1\AppData\Local\Temp\ccLzUcmd.s:27213  .debug_str:0000000000020ab2 .LASF1883
C:\Users\CYMR90~1\AppData\Local\Temp\ccLzUcmd.s:29885  .debug_str:000000000002b48c .LASF1884
C:\Users\CYMR90~1\AppData\Local\Temp\ccLzUcmd.s:26923  .debug_str:000000000001f8e9 .LASF1885
C:\Users\CYMR90~1\AppData\Local\Temp\ccLzUcmd.s:29027  .debug_str:0000000000027dad .LASF1886
C:\Users\CYMR90~1\AppData\Local\Temp\ccLzUcmd.s:21472  .debug_str:00000000000099f8 .LASF1887
C:\Users\CYMR90~1\AppData\Local\Temp\ccLzUcmd.s:21284  .debug_str:0000000000008e8b .LASF1888
C:\Users\CYMR90~1\AppData\Local\Temp\ccLzUcmd.s:29917  .debug_str:000000000002b670 .LASF1889
C:\Users\CYMR90~1\AppData\Local\Temp\ccLzUcmd.s:25407  .debug_str:00000000000195bc .LASF1890
C:\Users\CYMR90~1\AppData\Local\Temp\ccLzUcmd.s:21464  .debug_str:0000000000009952 .LASF1891
C:\Users\CYMR90~1\AppData\Local\Temp\ccLzUcmd.s:21556  .debug_str:0000000000009f2b .LASF1892
C:\Users\CYMR90~1\AppData\Local\Temp\ccLzUcmd.s:20766  .debug_str:0000000000006bcb .LASF1893
C:\Users\CYMR90~1\AppData\Local\Temp\ccLzUcmd.s:21278  .debug_str:0000000000008dff .LASF1894
C:\Users\CYMR90~1\AppData\Local\Temp\ccLzUcmd.s:22520  .debug_str:000000000000de26 .LASF1895
C:\Users\CYMR90~1\AppData\Local\Temp\ccLzUcmd.s:24849  .debug_str:000000000001725d .LASF1896
C:\Users\CYMR90~1\AppData\Local\Temp\ccLzUcmd.s:19512  .debug_str:0000000000001cf3 .LASF1897
C:\Users\CYMR90~1\AppData\Local\Temp\ccLzUcmd.s:28751  .debug_str:0000000000026bd3 .LASF1898
C:\Users\CYMR90~1\AppData\Local\Temp\ccLzUcmd.s:25641  .debug_str:000000000001a66d .LASF1899
C:\Users\CYMR90~1\AppData\Local\Temp\ccLzUcmd.s:22350  .debug_str:000000000000d439 .LASF1900
C:\Users\CYMR90~1\AppData\Local\Temp\ccLzUcmd.s:19108  .debug_str:00000000000003db .LASF1901
C:\Users\CYMR90~1\AppData\Local\Temp\ccLzUcmd.s:19940  .debug_str:000000000000375c .LASF1902
C:\Users\CYMR90~1\AppData\Local\Temp\ccLzUcmd.s:21978  .debug_str:000000000000bab1 .LASF1903
C:\Users\CYMR90~1\AppData\Local\Temp\ccLzUcmd.s:30161  .debug_str:000000000002c716 .LASF1904
C:\Users\CYMR90~1\AppData\Local\Temp\ccLzUcmd.s:24718  .debug_str:0000000000016885 .LASF1905
C:\Users\CYMR90~1\AppData\Local\Temp\ccLzUcmd.s:21434  .debug_str:0000000000009729 .LASF1906
C:\Users\CYMR90~1\AppData\Local\Temp\ccLzUcmd.s:29105  .debug_str:000000000002837c .LASF1907
C:\Users\CYMR90~1\AppData\Local\Temp\ccLzUcmd.s:26183  .debug_str:000000000001c9df .LASF1908
C:\Users\CYMR90~1\AppData\Local\Temp\ccLzUcmd.s:20448  .debug_str:000000000000585b .LASF1909
C:\Users\CYMR90~1\AppData\Local\Temp\ccLzUcmd.s:29461  .debug_str:0000000000029a75 .LASF1910
C:\Users\CYMR90~1\AppData\Local\Temp\ccLzUcmd.s:25819  .debug_str:000000000001b286 .LASF1911
C:\Users\CYMR90~1\AppData\Local\Temp\ccLzUcmd.s:25501  .debug_str:0000000000019cc4 .LASF1912
C:\Users\CYMR90~1\AppData\Local\Temp\ccLzUcmd.s:21888  .debug_str:000000000000b4ff .LASF1913
C:\Users\CYMR90~1\AppData\Local\Temp\ccLzUcmd.s:21724  .debug_str:000000000000a990 .LASF1914
C:\Users\CYMR90~1\AppData\Local\Temp\ccLzUcmd.s:27115  .debug_str:0000000000020466 .LASF1915
C:\Users\CYMR90~1\AppData\Local\Temp\ccLzUcmd.s:28369  .debug_str:00000000000253a2 .LASF1916
C:\Users\CYMR90~1\AppData\Local\Temp\ccLzUcmd.s:25023  .debug_str:0000000000017cea .LASF1917
C:\Users\CYMR90~1\AppData\Local\Temp\ccLzUcmd.s:21630  .debug_str:000000000000a3dc .LASF1918
C:\Users\CYMR90~1\AppData\Local\Temp\ccLzUcmd.s:29515  .debug_str:0000000000029d82 .LASF1919
C:\Users\CYMR90~1\AppData\Local\Temp\ccLzUcmd.s:26155  .debug_str:000000000001c75f .LASF1920
C:\Users\CYMR90~1\AppData\Local\Temp\ccLzUcmd.s:21926  .debug_str:000000000000b77b .LASF1921
C:\Users\CYMR90~1\AppData\Local\Temp\ccLzUcmd.s:20844  .debug_str:00000000000070cf .LASF1922
C:\Users\CYMR90~1\AppData\Local\Temp\ccLzUcmd.s:27185  .debug_str:000000000002090d .LASF1923
C:\Users\CYMR90~1\AppData\Local\Temp\ccLzUcmd.s:29245  .debug_str:0000000000028c8d .LASF1924
C:\Users\CYMR90~1\AppData\Local\Temp\ccLzUcmd.s:21748  .debug_str:000000000000ab2a .LASF1925
C:\Users\CYMR90~1\AppData\Local\Temp\ccLzUcmd.s:27013  .debug_str:000000000001fe97 .LASF1926
C:\Users\CYMR90~1\AppData\Local\Temp\ccLzUcmd.s:26049  .debug_str:000000000001c11d .LASF1927
C:\Users\CYMR90~1\AppData\Local\Temp\ccLzUcmd.s:23404  .debug_str:00000000000113ac .LASF1928
C:\Users\CYMR90~1\AppData\Local\Temp\ccLzUcmd.s:20894  .debug_str:0000000000007461 .LASF1929
C:\Users\CYMR90~1\AppData\Local\Temp\ccLzUcmd.s:26939  .debug_str:000000000001f9e3 .LASF1930
C:\Users\CYMR90~1\AppData\Local\Temp\ccLzUcmd.s:30189  .debug_str:000000000002c907 .LASF1931
C:\Users\CYMR90~1\AppData\Local\Temp\ccLzUcmd.s:29877  .debug_str:000000000002b3df .LASF1932
C:\Users\CYMR90~1\AppData\Local\Temp\ccLzUcmd.s:21006  .debug_str:0000000000007b95 .LASF1933
C:\Users\CYMR90~1\AppData\Local\Temp\ccLzUcmd.s:22056  .debug_str:000000000000c03e .LASF1934
C:\Users\CYMR90~1\AppData\Local\Temp\ccLzUcmd.s:26127  .debug_str:000000000001c594 .LASF1935
C:\Users\CYMR90~1\AppData\Local\Temp\ccLzUcmd.s:20488  .debug_str:0000000000005ae9 .LASF1936
C:\Users\CYMR90~1\AppData\Local\Temp\ccLzUcmd.s:25987  .debug_str:000000000001bd0f .LASF1937
C:\Users\CYMR90~1\AppData\Local\Temp\ccLzUcmd.s:24969  .debug_str:00000000000179ea .LASF1938
C:\Users\CYMR90~1\AppData\Local\Temp\ccLzUcmd.s:24272  .debug_str:0000000000014cb8 .LASF1939
C:\Users\CYMR90~1\AppData\Local\Temp\ccLzUcmd.s:21196  .debug_str:0000000000008896 .LASF1940
C:\Users\CYMR90~1\AppData\Local\Temp\ccLzUcmd.s:29311  .debug_str:00000000000290b5 .LASF1941
C:\Users\CYMR90~1\AppData\Local\Temp\ccLzUcmd.s:26237  .debug_str:000000000001cd43 .LASF1942
C:\Users\CYMR90~1\AppData\Local\Temp\ccLzUcmd.s:22118  .debug_str:000000000000c3eb .LASF1943
C:\Users\CYMR90~1\AppData\Local\Temp\ccLzUcmd.s:23250  .debug_str:0000000000010a41 .LASF1944
C:\Users\CYMR90~1\AppData\Local\Temp\ccLzUcmd.s:27051  .debug_str:00000000000200ff .LASF1945
C:\Users\CYMR90~1\AppData\Local\Temp\ccLzUcmd.s:23982  .debug_str:0000000000013a9f .LASF1946
C:\Users\CYMR90~1\AppData\Local\Temp\ccLzUcmd.s:20782  .debug_str:0000000000006ce0 .LASF1947
C:\Users\CYMR90~1\AppData\Local\Temp\ccLzUcmd.s:19720  .debug_str:0000000000002976 .LASF1948
C:\Users\CYMR90~1\AppData\Local\Temp\ccLzUcmd.s:25873  .debug_str:000000000001b636 .LASF1949
C:\Users\CYMR90~1\AppData\Local\Temp\ccLzUcmd.s:22782  .debug_str:000000000000ee46 .LASF1950
C:\Users\CYMR90~1\AppData\Local\Temp\ccLzUcmd.s:19584  .debug_str:00000000000020f5 .LASF1951
C:\Users\CYMR90~1\AppData\Local\Temp\ccLzUcmd.s:27787  .debug_str:0000000000022d62 .LASF1952
C:\Users\CYMR90~1\AppData\Local\Temp\ccLzUcmd.s:28497  .debug_str:0000000000025c3d .LASF1953
C:\Users\CYMR90~1\AppData\Local\Temp\ccLzUcmd.s:24108  .debug_str:000000000001428a .LASF1954
C:\Users\CYMR90~1\AppData\Local\Temp\ccLzUcmd.s:27325  .debug_str:000000000002114d .LASF1955
C:\Users\CYMR90~1\AppData\Local\Temp\ccLzUcmd.s:27987  .debug_str:000000000002395e .LASF1956
C:\Users\CYMR90~1\AppData\Local\Temp\ccLzUcmd.s:19642  .debug_str:0000000000002457 .LASF1957
C:\Users\CYMR90~1\AppData\Local\Temp\ccLzUcmd.s:29715  .debug_str:000000000002a973 .LASF1958
C:\Users\CYMR90~1\AppData\Local\Temp\ccLzUcmd.s:21012  .debug_str:0000000000007c06 .LASF1959
C:\Users\CYMR90~1\AppData\Local\Temp\ccLzUcmd.s:29295  .debug_str:0000000000028fb7 .LASF1960
C:\Users\CYMR90~1\AppData\Local\Temp\ccLzUcmd.s:26193  .debug_str:000000000001ca7e .LASF1961
C:\Users\CYMR90~1\AppData\Local\Temp\ccLzUcmd.s:19150  .debug_str:0000000000000615 .LASF1962
C:\Users\CYMR90~1\AppData\Local\Temp\ccLzUcmd.s:24502  .debug_str:0000000000015ab8 .LASF1963
C:\Users\CYMR90~1\AppData\Local\Temp\ccLzUcmd.s:28351  .debug_str:0000000000025255 .LASF1964
C:\Users\CYMR90~1\AppData\Local\Temp\ccLzUcmd.s:20848  .debug_str:000000000000713a .LASF1965
C:\Users\CYMR90~1\AppData\Local\Temp\ccLzUcmd.s:26329  .debug_str:000000000001d3ec .LASF1966
C:\Users\CYMR90~1\AppData\Local\Temp\ccLzUcmd.s:29815  .debug_str:000000000002af72 .LASF1967
C:\Users\CYMR90~1\AppData\Local\Temp\ccLzUcmd.s:26169  .debug_str:000000000001c8ee .LASF1968
C:\Users\CYMR90~1\AppData\Local\Temp\ccLzUcmd.s:27675  .debug_str:00000000000226ad .LASF1969
C:\Users\CYMR90~1\AppData\Local\Temp\ccLzUcmd.s:20830  .debug_str:0000000000006fe8 .LASF1970
C:\Users\CYMR90~1\AppData\Local\Temp\ccLzUcmd.s:27681  .debug_str:00000000000226fb .LASF1971
C:\Users\CYMR90~1\AppData\Local\Temp\ccLzUcmd.s:28385  .debug_str:00000000000254b2 .LASF1972
C:\Users\CYMR90~1\AppData\Local\Temp\ccLzUcmd.s:25489  .debug_str:0000000000019c09 .LASF1973
C:\Users\CYMR90~1\AppData\Local\Temp\ccLzUcmd.s:25305  .debug_str:0000000000018ee7 .LASF1974
C:\Users\CYMR90~1\AppData\Local\Temp\ccLzUcmd.s:29765  .debug_str:000000000002ac94 .LASF1975
C:\Users\CYMR90~1\AppData\Local\Temp\ccLzUcmd.s:21030  .debug_str:0000000000007dac .LASF1976
C:\Users\CYMR90~1\AppData\Local\Temp\ccLzUcmd.s:21382  .debug_str:0000000000009405 .LASF1977
C:\Users\CYMR90~1\AppData\Local\Temp\ccLzUcmd.s:29535  .debug_str:0000000000029eab .LASF1978
C:\Users\CYMR90~1\AppData\Local\Temp\ccLzUcmd.s:20314  .debug_str:0000000000005052 .LASF1979
C:\Users\CYMR90~1\AppData\Local\Temp\ccLzUcmd.s:28287  .debug_str:0000000000024da3 .LASF1980
C:\Users\CYMR90~1\AppData\Local\Temp\ccLzUcmd.s:28147  .debug_str:000000000002443f .LASF1981
C:\Users\CYMR90~1\AppData\Local\Temp\ccLzUcmd.s:27993  .debug_str:00000000000239b9 .LASF1982
C:\Users\CYMR90~1\AppData\Local\Temp\ccLzUcmd.s:28805  .debug_str:0000000000026ef2 .LASF1983
C:\Users\CYMR90~1\AppData\Local\Temp\ccLzUcmd.s:29719  .debug_str:000000000002a9c9 .LASF1984
C:\Users\CYMR90~1\AppData\Local\Temp\ccLzUcmd.s:26711  .debug_str:000000000001ebc9 .LASF1985
C:\Users\CYMR90~1\AppData\Local\Temp\ccLzUcmd.s:25907  .debug_str:000000000001b853 .LASF1986
C:\Users\CYMR90~1\AppData\Local\Temp\ccLzUcmd.s:24182  .debug_str:0000000000014733 .LASF1987
C:\Users\CYMR90~1\AppData\Local\Temp\ccLzUcmd.s:25203  .debug_str:00000000000187c3 .LASF1988
C:\Users\CYMR90~1\AppData\Local\Temp\ccLzUcmd.s:22212  .debug_str:000000000000cb6a .LASF1989
C:\Users\CYMR90~1\AppData\Local\Temp\ccLzUcmd.s:20070  .debug_str:0000000000004002 .LASF1990
C:\Users\CYMR90~1\AppData\Local\Temp\ccLzUcmd.s:22272  .debug_str:000000000000ce9a .LASF1991
C:\Users\CYMR90~1\AppData\Local\Temp\ccLzUcmd.s:23174  .debug_str:0000000000010594 .LASF1992
C:\Users\CYMR90~1\AppData\Local\Temp\ccLzUcmd.s:20220  .debug_str:0000000000004a93 .LASF1993
C:\Users\CYMR90~1\AppData\Local\Temp\ccLzUcmd.s:19300  .debug_str:0000000000000fe0 .LASF1994
C:\Users\CYMR90~1\AppData\Local\Temp\ccLzUcmd.s:28401  .debug_str:00000000000255d3 .LASF1995
C:\Users\CYMR90~1\AppData\Local\Temp\ccLzUcmd.s:19938  .debug_str:0000000000003728 .LASF1996
C:\Users\CYMR90~1\AppData\Local\Temp\ccLzUcmd.s:28861  .debug_str:0000000000027337 .LASF1997
C:\Users\CYMR90~1\AppData\Local\Temp\ccLzUcmd.s:21166  .debug_str:00000000000086c7 .LASF1998
C:\Users\CYMR90~1\AppData\Local\Temp\ccLzUcmd.s:25131  .debug_str:0000000000018385 .LASF1999
C:\Users\CYMR90~1\AppData\Local\Temp\ccLzUcmd.s:24602  .debug_str:00000000000161a5 .LASF2000
C:\Users\CYMR90~1\AppData\Local\Temp\ccLzUcmd.s:23410  .debug_str:0000000000011427 .LASF2001
C:\Users\CYMR90~1\AppData\Local\Temp\ccLzUcmd.s:27687  .debug_str:0000000000022760 .LASF2002
C:\Users\CYMR90~1\AppData\Local\Temp\ccLzUcmd.s:29083  .debug_str:0000000000028231 .LASF2003
C:\Users\CYMR90~1\AppData\Local\Temp\ccLzUcmd.s:24138  .debug_str:000000000001440a .LASF2004
C:\Users\CYMR90~1\AppData\Local\Temp\ccLzUcmd.s:27581  .debug_str:0000000000022165 .LASF2005
C:\Users\CYMR90~1\AppData\Local\Temp\ccLzUcmd.s:24807  .debug_str:0000000000016fec .LASF2006
C:\Users\CYMR90~1\AppData\Local\Temp\ccLzUcmd.s:29969  .debug_str:000000000002ba0d .LASF2007
C:\Users\CYMR90~1\AppData\Local\Temp\ccLzUcmd.s:20356  .debug_str:00000000000052f1 .LASF2008
C:\Users\CYMR90~1\AppData\Local\Temp\ccLzUcmd.s:23908  .debug_str:0000000000013646 .LASF2009
C:\Users\CYMR90~1\AppData\Local\Temp\ccLzUcmd.s:26607  .debug_str:000000000001e586 .LASF2010
C:\Users\CYMR90~1\AppData\Local\Temp\ccLzUcmd.s:22240  .debug_str:000000000000ccec .LASF2011
C:\Users\CYMR90~1\AppData\Local\Temp\ccLzUcmd.s:19494  .debug_str:0000000000001bf5 .LASF2012
C:\Users\CYMR90~1\AppData\Local\Temp\ccLzUcmd.s:27869  .debug_str:00000000000231fc .LASF2013
C:\Users\CYMR90~1\AppData\Local\Temp\ccLzUcmd.s:27629  .debug_str:00000000000223e8 .LASF2014
C:\Users\CYMR90~1\AppData\Local\Temp\ccLzUcmd.s:25621  .debug_str:000000000001a530 .LASF2015
C:\Users\CYMR90~1\AppData\Local\Temp\ccLzUcmd.s:29449  .debug_str:00000000000299c1 .LASF2016
C:\Users\CYMR90~1\AppData\Local\Temp\ccLzUcmd.s:27779  .debug_str:0000000000022d0b .LASF2017
C:\Users\CYMR90~1\AppData\Local\Temp\ccLzUcmd.s:27411  .debug_str:0000000000021731 .LASF2018
C:\Users\CYMR90~1\AppData\Local\Temp\ccLzUcmd.s:26369  .debug_str:000000000001d664 .LASF2019
C:\Users\CYMR90~1\AppData\Local\Temp\ccLzUcmd.s:26153  .debug_str:000000000001c744 .LASF2020
C:\Users\CYMR90~1\AppData\Local\Temp\ccLzUcmd.s:27821  .debug_str:0000000000022f4e .LASF2021
C:\Users\CYMR90~1\AppData\Local\Temp\ccLzUcmd.s:28795  .debug_str:0000000000026e74 .LASF2022
C:\Users\CYMR90~1\AppData\Local\Temp\ccLzUcmd.s:25041  .debug_str:0000000000017e29 .LASF2023
C:\Users\CYMR90~1\AppData\Local\Temp\ccLzUcmd.s:28729  .debug_str:0000000000026a37 .LASF2024
C:\Users\CYMR90~1\AppData\Local\Temp\ccLzUcmd.s:21952  .debug_str:000000000000b961 .LASF2025
C:\Users\CYMR90~1\AppData\Local\Temp\ccLzUcmd.s:29829  .debug_str:000000000002b050 .LASF2026
C:\Users\CYMR90~1\AppData\Local\Temp\ccLzUcmd.s:19898  .debug_str:00000000000034b8 .LASF2027
C:\Users\CYMR90~1\AppData\Local\Temp\ccLzUcmd.s:27881  .debug_str:00000000000232a2 .LASF2028
C:\Users\CYMR90~1\AppData\Local\Temp\ccLzUcmd.s:26911  .debug_str:000000000001f814 .LASF2029
C:\Users\CYMR90~1\AppData\Local\Temp\ccLzUcmd.s:19060  .debug_str:00000000000000ff .LASF2030
C:\Users\CYMR90~1\AppData\Local\Temp\ccLzUcmd.s:25027  .debug_str:0000000000017d2b .LASF2031
C:\Users\CYMR90~1\AppData\Local\Temp\ccLzUcmd.s:21718  .debug_str:000000000000a94b .LASF2032
C:\Users\CYMR90~1\AppData\Local\Temp\ccLzUcmd.s:22920  .debug_str:000000000000f748 .LASF2033
C:\Users\CYMR90~1\AppData\Local\Temp\ccLzUcmd.s:21930  .debug_str:000000000000b7be .LASF2034
C:\Users\CYMR90~1\AppData\Local\Temp\ccLzUcmd.s:23476  .debug_str:000000000001198f .LASF2035
C:\Users\CYMR90~1\AppData\Local\Temp\ccLzUcmd.s:27359  .debug_str:00000000000213ef .LASF2036
C:\Users\CYMR90~1\AppData\Local\Temp\ccLzUcmd.s:27759  .debug_str:0000000000022bec .LASF2037
C:\Users\CYMR90~1\AppData\Local\Temp\ccLzUcmd.s:28329  .debug_str:0000000000025061 .LASF2038
C:\Users\CYMR90~1\AppData\Local\Temp\ccLzUcmd.s:23574  .debug_str:0000000000011fcc .LASF2039
C:\Users\CYMR90~1\AppData\Local\Temp\ccLzUcmd.s:25563  .debug_str:000000000001a060 .LASF2040
C:\Users\CYMR90~1\AppData\Local\Temp\ccLzUcmd.s:22268  .debug_str:000000000000ce4a .LASF2041
C:\Users\CYMR90~1\AppData\Local\Temp\ccLzUcmd.s:19728  .debug_str:00000000000029e9 .LASF2042
C:\Users\CYMR90~1\AppData\Local\Temp\ccLzUcmd.s:20450  .debug_str:0000000000005899 .LASF2043
C:\Users\CYMR90~1\AppData\Local\Temp\ccLzUcmd.s:30235  .debug_str:000000000002cc49 .LASF2044
C:\Users\CYMR90~1\AppData\Local\Temp\ccLzUcmd.s:23878  .debug_str:000000000001343f .LASF2045
C:\Users\CYMR90~1\AppData\Local\Temp\ccLzUcmd.s:27643  .debug_str:00000000000224a8 .LASF2046
C:\Users\CYMR90~1\AppData\Local\Temp\ccLzUcmd.s:29257  .debug_str:0000000000028d60 .LASF2047
C:\Users\CYMR90~1\AppData\Local\Temp\ccLzUcmd.s:26031  .debug_str:000000000001c002 .LASF2048
C:\Users\CYMR90~1\AppData\Local\Temp\ccLzUcmd.s:26567  .debug_str:000000000001e310 .LASF2049
C:\Users\CYMR90~1\AppData\Local\Temp\ccLzUcmd.s:20512  .debug_str:0000000000005c47 .LASF2050
C:\Users\CYMR90~1\AppData\Local\Temp\ccLzUcmd.s:19884  .debug_str:00000000000033bc .LASF2051
C:\Users\CYMR90~1\AppData\Local\Temp\ccLzUcmd.s:21836  .debug_str:000000000000b174 .LASF2052
C:\Users\CYMR90~1\AppData\Local\Temp\ccLzUcmd.s:28367  .debug_str:000000000002535b .LASF2053
C:\Users\CYMR90~1\AppData\Local\Temp\ccLzUcmd.s:29673  .debug_str:000000000002a70d .LASF2054
C:\Users\CYMR90~1\AppData\Local\Temp\ccLzUcmd.s:20324  .debug_str:00000000000050fa .LASF2055
C:\Users\CYMR90~1\AppData\Local\Temp\ccLzUcmd.s:28687  .debug_str:00000000000267df .LASF2056
C:\Users\CYMR90~1\AppData\Local\Temp\ccLzUcmd.s:26727  .debug_str:000000000001ecd4 .LASF2057
C:\Users\CYMR90~1\AppData\Local\Temp\ccLzUcmd.s:24871  .debug_str:0000000000017393 .LASF2058
C:\Users\CYMR90~1\AppData\Local\Temp\ccLzUcmd.s:21710  .debug_str:000000000000a8ad .LASF2059
C:\Users\CYMR90~1\AppData\Local\Temp\ccLzUcmd.s:22512  .debug_str:000000000000dda6 .LASF2060
C:\Users\CYMR90~1\AppData\Local\Temp\ccLzUcmd.s:27171  .debug_str:000000000002084a .LASF2061
C:\Users\CYMR90~1\AppData\Local\Temp\ccLzUcmd.s:24010  .debug_str:0000000000013c49 .LASF2062
C:\Users\CYMR90~1\AppData\Local\Temp\ccLzUcmd.s:19698  .debug_str:00000000000027f1 .LASF2063
C:\Users\CYMR90~1\AppData\Local\Temp\ccLzUcmd.s:23294  .debug_str:0000000000010d11 .LASF2064
C:\Users\CYMR90~1\AppData\Local\Temp\ccLzUcmd.s:26693  .debug_str:000000000001ead4 .LASF2065
C:\Users\CYMR90~1\AppData\Local\Temp\ccLzUcmd.s:21400  .debug_str:00000000000094f8 .LASF2066
C:\Users\CYMR90~1\AppData\Local\Temp\ccLzUcmd.s:21864  .debug_str:000000000000b2fb .LASF2067
C:\Users\CYMR90~1\AppData\Local\Temp\ccLzUcmd.s:24975  .debug_str:0000000000017a4b .LASF2068
C:\Users\CYMR90~1\AppData\Local\Temp\ccLzUcmd.s:24576  .debug_str:0000000000015fef .LASF2069
C:\Users\CYMR90~1\AppData\Local\Temp\ccLzUcmd.s:22404  .debug_str:000000000000d74c .LASF2070
C:\Users\CYMR90~1\AppData\Local\Temp\ccLzUcmd.s:20482  .debug_str:0000000000005aa2 .LASF2071
C:\Users\CYMR90~1\AppData\Local\Temp\ccLzUcmd.s:23734  .debug_str:0000000000012a43 .LASF2072
C:\Users\CYMR90~1\AppData\Local\Temp\ccLzUcmd.s:22740  .debug_str:000000000000ec1e .LASF2073
C:\Users\CYMR90~1\AppData\Local\Temp\ccLzUcmd.s:21992  .debug_str:000000000000bbcf .LASF2074
C:\Users\CYMR90~1\AppData\Local\Temp\ccLzUcmd.s:30051  .debug_str:000000000002bfe0 .LASF2075
C:\Users\CYMR90~1\AppData\Local\Temp\ccLzUcmd.s:21270  .debug_str:0000000000008d93 .LASF2076
C:\Users\CYMR90~1\AppData\Local\Temp\ccLzUcmd.s:29335  .debug_str:0000000000029298 .LASF2077
C:\Users\CYMR90~1\AppData\Local\Temp\ccLzUcmd.s:20336  .debug_str:00000000000051ba .LASF2078
C:\Users\CYMR90~1\AppData\Local\Temp\ccLzUcmd.s:19460  .debug_str:00000000000019dc .LASF2079
C:\Users\CYMR90~1\AppData\Local\Temp\ccLzUcmd.s:27909  .debug_str:00000000000234a0 .LASF2080
C:\Users\CYMR90~1\AppData\Local\Temp\ccLzUcmd.s:27335  .debug_str:00000000000211dc .LASF2081
C:\Users\CYMR90~1\AppData\Local\Temp\ccLzUcmd.s:29313  .debug_str:00000000000290dd .LASF2082
C:\Users\CYMR90~1\AppData\Local\Temp\ccLzUcmd.s:23600  .debug_str:0000000000012148 .LASF2083
C:\Users\CYMR90~1\AppData\Local\Temp\ccLzUcmd.s:29555  .debug_str:0000000000029fe7 .LASF2084
C:\Users\CYMR90~1\AppData\Local\Temp\ccLzUcmd.s:27793  .debug_str:0000000000022dc0 .LASF2085
C:\Users\CYMR90~1\AppData\Local\Temp\ccLzUcmd.s:19352  .debug_str:00000000000012c2 .LASF2086
C:\Users\CYMR90~1\AppData\Local\Temp\ccLzUcmd.s:19204  .debug_str:0000000000000965 .LASF2087
C:\Users\CYMR90~1\AppData\Local\Temp\ccLzUcmd.s:25823  .debug_str:000000000001b2cc .LASF2088
C:\Users\CYMR90~1\AppData\Local\Temp\ccLzUcmd.s:26881  .debug_str:000000000001f679 .LASF2089
C:\Users\CYMR90~1\AppData\Local\Temp\ccLzUcmd.s:24795  .debug_str:0000000000016f33 .LASF2090
C:\Users\CYMR90~1\AppData\Local\Temp\ccLzUcmd.s:23534  .debug_str:0000000000011cef .LASF2091
C:\Users\CYMR90~1\AppData\Local\Temp\ccLzUcmd.s:24899  .debug_str:0000000000017548 .LASF2092
C:\Users\CYMR90~1\AppData\Local\Temp\ccLzUcmd.s:24038  .debug_str:0000000000013dfa .LASF2093
C:\Users\CYMR90~1\AppData\Local\Temp\ccLzUcmd.s:19878  .debug_str:000000000000336c .LASF2094
C:\Users\CYMR90~1\AppData\Local\Temp\ccLzUcmd.s:20094  .debug_str:0000000000004202 .LASF2095
C:\Users\CYMR90~1\AppData\Local\Temp\ccLzUcmd.s:21510  .debug_str:0000000000009c42 .LASF2096
C:\Users\CYMR90~1\AppData\Local\Temp\ccLzUcmd.s:29055  .debug_str:0000000000027fd7 .LASF2097
C:\Users\CYMR90~1\AppData\Local\Temp\ccLzUcmd.s:28507  .debug_str:0000000000025cd5 .LASF2098
C:\Users\CYMR90~1\AppData\Local\Temp\ccLzUcmd.s:23082  .debug_str:000000000001008d .LASF2099
C:\Users\CYMR90~1\AppData\Local\Temp\ccLzUcmd.s:21870  .debug_str:000000000000b360 .LASF2100
C:\Users\CYMR90~1\AppData\Local\Temp\ccLzUcmd.s:20660  .debug_str:000000000000652b .LASF2101
C:\Users\CYMR90~1\AppData\Local\Temp\ccLzUcmd.s:19774  .debug_str:0000000000002caa .LASF2102
C:\Users\CYMR90~1\AppData\Local\Temp\ccLzUcmd.s:21548  .debug_str:0000000000009e84 .LASF2103
C:\Users\CYMR90~1\AppData\Local\Temp\ccLzUcmd.s:30001  .debug_str:000000000002bc3d .LASF2104
C:\Users\CYMR90~1\AppData\Local\Temp\ccLzUcmd.s:24897  .debug_str:0000000000017524 .LASF2105
C:\Users\CYMR90~1\AppData\Local\Temp\ccLzUcmd.s:19872  .debug_str:00000000000032ec .LASF2106
C:\Users\CYMR90~1\AppData\Local\Temp\ccLzUcmd.s:29283  .debug_str:0000000000028f0a .LASF2107
C:\Users\CYMR90~1\AppData\Local\Temp\ccLzUcmd.s:23568  .debug_str:0000000000011f52 .LASF2108
C:\Users\CYMR90~1\AppData\Local\Temp\ccLzUcmd.s:20866  .debug_str:00000000000072a9 .LASF2109
C:\Users\CYMR90~1\AppData\Local\Temp\ccLzUcmd.s:22316  .debug_str:000000000000d163 .LASF2110
C:\Users\CYMR90~1\AppData\Local\Temp\ccLzUcmd.s:24843  .debug_str:0000000000017200 .LASF2111
C:\Users\CYMR90~1\AppData\Local\Temp\ccLzUcmd.s:26901  .debug_str:000000000001f78e .LASF2112
C:\Users\CYMR90~1\AppData\Local\Temp\ccLzUcmd.s:29443  .debug_str:0000000000029967 .LASF2113
C:\Users\CYMR90~1\AppData\Local\Temp\ccLzUcmd.s:28841  .debug_str:00000000000271ff .LASF2114
C:\Users\CYMR90~1\AppData\Local\Temp\ccLzUcmd.s:23930  .debug_str:000000000001377e .LASF2115
C:\Users\CYMR90~1\AppData\Local\Temp\ccLzUcmd.s:25807  .debug_str:000000000001b1ab .LASF2116
C:\Users\CYMR90~1\AppData\Local\Temp\ccLzUcmd.s:24120  .debug_str:0000000000014327 .LASF2117
C:\Users\CYMR90~1\AppData\Local\Temp\ccLzUcmd.s:28139  .debug_str:00000000000243d0 .LASF2118
C:\Users\CYMR90~1\AppData\Local\Temp\ccLzUcmd.s:26845  .debug_str:000000000001f41b .LASF2119
C:\Users\CYMR90~1\AppData\Local\Temp\ccLzUcmd.s:19732  .debug_str:0000000000002a20 .LASF2120
C:\Users\CYMR90~1\AppData\Local\Temp\ccLzUcmd.s:27267  .debug_str:0000000000020e10 .LASF2121
C:\Users\CYMR90~1\AppData\Local\Temp\ccLzUcmd.s:21126  .debug_str:000000000000848d .LASF2122
C:\Users\CYMR90~1\AppData\Local\Temp\ccLzUcmd.s:23980  .debug_str:0000000000013a7b .LASF2123
C:\Users\CYMR90~1\AppData\Local\Temp\ccLzUcmd.s:26593  .debug_str:000000000001e4a4 .LASF2124
C:\Users\CYMR90~1\AppData\Local\Temp\ccLzUcmd.s:23830  .debug_str:00000000000130ab .LASF2125
C:\Users\CYMR90~1\AppData\Local\Temp\ccLzUcmd.s:24967  .debug_str:00000000000179c3 .LASF2126
C:\Users\CYMR90~1\AppData\Local\Temp\ccLzUcmd.s:28819  .debug_str:0000000000026ffd .LASF2127
C:\Users\CYMR90~1\AppData\Local\Temp\ccLzUcmd.s:27373  .debug_str:00000000000214c5 .LASF2128
C:\Users\CYMR90~1\AppData\Local\Temp\ccLzUcmd.s:23290  .debug_str:0000000000010cd6 .LASF2129
C:\Users\CYMR90~1\AppData\Local\Temp\ccLzUcmd.s:27281  .debug_str:0000000000020edb .LASF2130
C:\Users\CYMR90~1\AppData\Local\Temp\ccLzUcmd.s:25193  .debug_str:000000000001870c .LASF2131
C:\Users\CYMR90~1\AppData\Local\Temp\ccLzUcmd.s:27111  .debug_str:0000000000020421 .LASF2132
C:\Users\CYMR90~1\AppData\Local\Temp\ccLzUcmd.s:23470  .debug_str:0000000000011919 .LASF2133
C:\Users\CYMR90~1\AppData\Local\Temp\ccLzUcmd.s:19862  .debug_str:000000000000324e .LASF2134
C:\Users\CYMR90~1\AppData\Local\Temp\ccLzUcmd.s:19610  .debug_str:000000000000225d .LASF2135
C:\Users\CYMR90~1\AppData\Local\Temp\ccLzUcmd.s:25351  .debug_str:000000000001926b .LASF2136
C:\Users\CYMR90~1\AppData\Local\Temp\ccLzUcmd.s:29543  .debug_str:0000000000029f3a .LASF2137
C:\Users\CYMR90~1\AppData\Local\Temp\ccLzUcmd.s:21128  .debug_str:00000000000084b2 .LASF2138
C:\Users\CYMR90~1\AppData\Local\Temp\ccLzUcmd.s:27465  .debug_str:0000000000021a6b .LASF2139
C:\Users\CYMR90~1\AppData\Local\Temp\ccLzUcmd.s:23388  .debug_str:0000000000011292 .LASF2140
C:\Users\CYMR90~1\AppData\Local\Temp\ccLzUcmd.s:22864  .debug_str:000000000000f362 .LASF2141
C:\Users\CYMR90~1\AppData\Local\Temp\ccLzUcmd.s:26861  .debug_str:000000000001f54d .LASF2142
C:\Users\CYMR90~1\AppData\Local\Temp\ccLzUcmd.s:27395  .debug_str:0000000000021607 .LASF2143
C:\Users\CYMR90~1\AppData\Local\Temp\ccLzUcmd.s:23666  .debug_str:00000000000125a8 .LASF2144
C:\Users\CYMR90~1\AppData\Local\Temp\ccLzUcmd.s:19890  .debug_str:0000000000003423 .LASF2145
C:\Users\CYMR90~1\AppData\Local\Temp\ccLzUcmd.s:19066  .debug_str:0000000000000148 .LASF2146
C:\Users\CYMR90~1\AppData\Local\Temp\ccLzUcmd.s:19486  .debug_str:0000000000001b59 .LASF2147
C:\Users\CYMR90~1\AppData\Local\Temp\ccLzUcmd.s:24905  .debug_str:000000000001759e .LASF2148
C:\Users\CYMR90~1\AppData\Local\Temp\ccLzUcmd.s:29247  .debug_str:0000000000028ccd .LASF2149
C:\Users\CYMR90~1\AppData\Local\Temp\ccLzUcmd.s:28843  .debug_str:0000000000027226 .LASF2150
C:\Users\CYMR90~1\AppData\Local\Temp\ccLzUcmd.s:23932  .debug_str:00000000000137a5 .LASF2151
C:\Users\CYMR90~1\AppData\Local\Temp\ccLzUcmd.s:22484  .debug_str:000000000000dbaa .LASF2152
C:\Users\CYMR90~1\AppData\Local\Temp\ccLzUcmd.s:20494  .debug_str:0000000000005b54 .LASF2153
C:\Users\CYMR90~1\AppData\Local\Temp\ccLzUcmd.s:24680  .debug_str:00000000000165ff .LASF2154
C:\Users\CYMR90~1\AppData\Local\Temp\ccLzUcmd.s:19412  .debug_str:000000000000165b .LASF2155
C:\Users\CYMR90~1\AppData\Local\Temp\ccLzUcmd.s:19966  .debug_str:0000000000003928 .LASF2156
C:\Users\CYMR90~1\AppData\Local\Temp\ccLzUcmd.s:28807  .debug_str:0000000000026f15 .LASF2157
C:\Users\CYMR90~1\AppData\Local\Temp\ccLzUcmd.s:23326  .debug_str:0000000000010efa .LASF2158
C:\Users\CYMR90~1\AppData\Local\Temp\ccLzUcmd.s:25255  .debug_str:0000000000018b3b .LASF2159
C:\Users\CYMR90~1\AppData\Local\Temp\ccLzUcmd.s:28607  .debug_str:00000000000262e5 .LASF2160
C:\Users\CYMR90~1\AppData\Local\Temp\ccLzUcmd.s:21296  .debug_str:0000000000008f50 .LASF2161
C:\Users\CYMR90~1\AppData\Local\Temp\ccLzUcmd.s:29525  .debug_str:0000000000029e28 .LASF2162
C:\Users\CYMR90~1\AppData\Local\Temp\ccLzUcmd.s:30227  .debug_str:000000000002cb52 .LASF2163
C:\Users\CYMR90~1\AppData\Local\Temp\ccLzUcmd.s:19996  .debug_str:0000000000003b1d .LASF2164
C:\Users\CYMR90~1\AppData\Local\Temp\ccLzUcmd.s:27891  .debug_str:000000000002333e .LASF2165
C:\Users\CYMR90~1\AppData\Local\Temp\ccLzUcmd.s:25337  .debug_str:00000000000191b2 .LASF2166
C:\Users\CYMR90~1\AppData\Local\Temp\ccLzUcmd.s:22858  .debug_str:000000000000f30b .LASF2167
C:\Users\CYMR90~1\AppData\Local\Temp\ccLzUcmd.s:21830  .debug_str:000000000000b135 .LASF2168
C:\Users\CYMR90~1\AppData\Local\Temp\ccLzUcmd.s:24877  .debug_str:00000000000173da .LASF2169
C:\Users\CYMR90~1\AppData\Local\Temp\ccLzUcmd.s:24624  .debug_str:00000000000162f2 .LASF2170
C:\Users\CYMR90~1\AppData\Local\Temp\ccLzUcmd.s:22634  .debug_str:000000000000e505 .LASF2171
C:\Users\CYMR90~1\AppData\Local\Temp\ccLzUcmd.s:22768  .debug_str:000000000000ed7d .LASF2172
C:\Users\CYMR90~1\AppData\Local\Temp\ccLzUcmd.s:26865  .debug_str:000000000001f584 .LASF2173
C:\Users\CYMR90~1\AppData\Local\Temp\ccLzUcmd.s:24564  .debug_str:0000000000015f12 .LASF2174
C:\Users\CYMR90~1\AppData\Local\Temp\ccLzUcmd.s:23528  .debug_str:0000000000011cad .LASF2175
C:\Users\CYMR90~1\AppData\Local\Temp\ccLzUcmd.s:26659  .debug_str:000000000001e8dd .LASF2176
C:\Users\CYMR90~1\AppData\Local\Temp\ccLzUcmd.s:21874  .debug_str:000000000000b388 .LASF2177
C:\Users\CYMR90~1\AppData\Local\Temp\ccLzUcmd.s:27543  .debug_str:0000000000021f26 .LASF2178
C:\Users\CYMR90~1\AppData\Local\Temp\ccLzUcmd.s:22496  .debug_str:000000000000dc85 .LASF2179
C:\Users\CYMR90~1\AppData\Local\Temp\ccLzUcmd.s:21002  .debug_str:0000000000007b5f .LASF2180
C:\Users\CYMR90~1\AppData\Local\Temp\ccLzUcmd.s:28525  .debug_str:0000000000025e12 .LASF2181
C:\Users\CYMR90~1\AppData\Local\Temp\ccLzUcmd.s:22662  .debug_str:000000000000e70d .LASF2182
C:\Users\CYMR90~1\AppData\Local\Temp\ccLzUcmd.s:24598  .debug_str:000000000001616f .LASF2183
C:\Users\CYMR90~1\AppData\Local\Temp\ccLzUcmd.s:20116  .debug_str:0000000000004348 .LASF2184
C:\Users\CYMR90~1\AppData\Local\Temp\ccLzUcmd.s:22946  .debug_str:000000000000f8ca .LASF2185
C:\Users\CYMR90~1\AppData\Local\Temp\ccLzUcmd.s:29787  .debug_str:000000000002aded .LASF2186
C:\Users\CYMR90~1\AppData\Local\Temp\ccLzUcmd.s:26669  .debug_str:000000000001e97d .LASF2187
C:\Users\CYMR90~1\AppData\Local\Temp\ccLzUcmd.s:21494  .debug_str:0000000000009b70 .LASF2188
C:\Users\CYMR90~1\AppData\Local\Temp\ccLzUcmd.s:25655  .debug_str:000000000001a7d9 .LASF2189
C:\Users\CYMR90~1\AppData\Local\Temp\ccLzUcmd.s:20054  .debug_str:0000000000003e9a .LASF2190
C:\Users\CYMR90~1\AppData\Local\Temp\ccLzUcmd.s:21594  .debug_str:000000000000a182 .LASF2191
C:\Users\CYMR90~1\AppData\Local\Temp\ccLzUcmd.s:26747  .debug_str:000000000001edf1 .LASF2192
C:\Users\CYMR90~1\AppData\Local\Temp\ccLzUcmd.s:19980  .debug_str:00000000000039f2 .LASF2193
C:\Users\CYMR90~1\AppData\Local\Temp\ccLzUcmd.s:23414  .debug_str:0000000000011457 .LASF2194
C:\Users\CYMR90~1\AppData\Local\Temp\ccLzUcmd.s:28091  .debug_str:0000000000024040 .LASF2195
C:\Users\CYMR90~1\AppData\Local\Temp\ccLzUcmd.s:20950  .debug_str:00000000000077e9 .LASF2196
C:\Users\CYMR90~1\AppData\Local\Temp\ccLzUcmd.s:24286  .debug_str:0000000000014db1 .LASF2197
C:\Users\CYMR90~1\AppData\Local\Temp\ccLzUcmd.s:21226  .debug_str:0000000000008a83 .LASF2198
C:\Users\CYMR90~1\AppData\Local\Temp\ccLzUcmd.s:27105  .debug_str:00000000000203d8 .LASF2199
C:\Users\CYMR90~1\AppData\Local\Temp\ccLzUcmd.s:21732  .debug_str:000000000000aa2a .LASF2200
C:\Users\CYMR90~1\AppData\Local\Temp\ccLzUcmd.s:27605  .debug_str:00000000000222bd .LASF2201
C:\Users\CYMR90~1\AppData\Local\Temp\ccLzUcmd.s:26943  .debug_str:000000000001fa24 .LASF2202
C:\Users\CYMR90~1\AppData\Local\Temp\ccLzUcmd.s:28107  .debug_str:0000000000024178 .LASF2203
C:\Users\CYMR90~1\AppData\Local\Temp\ccLzUcmd.s:28675  .debug_str:0000000000026730 .LASF2204
C:\Users\CYMR90~1\AppData\Local\Temp\ccLzUcmd.s:28511  .debug_str:0000000000025d08 .LASF2205
C:\Users\CYMR90~1\AppData\Local\Temp\ccLzUcmd.s:28155  .debug_str:00000000000244a6 .LASF2206
C:\Users\CYMR90~1\AppData\Local\Temp\ccLzUcmd.s:27235  .debug_str:0000000000020c25 .LASF2207
C:\Users\CYMR90~1\AppData\Local\Temp\ccLzUcmd.s:23136  .debug_str:0000000000010330 .LASF2208
C:\Users\CYMR90~1\AppData\Local\Temp\ccLzUcmd.s:25301  .debug_str:0000000000018e99 .LASF2209
C:\Users\CYMR90~1\AppData\Local\Temp\ccLzUcmd.s:27087  .debug_str:00000000000202b2 .LASF2210
C:\Users\CYMR90~1\AppData\Local\Temp\ccLzUcmd.s:22002  .debug_str:000000000000bc81 .LASF2211
C:\Users\CYMR90~1\AppData\Local\Temp\ccLzUcmd.s:20716  .debug_str:00000000000068bc .LASF2212
C:\Users\CYMR90~1\AppData\Local\Temp\ccLzUcmd.s:29973  .debug_str:000000000002ba3b .LASF2213
C:\Users\CYMR90~1\AppData\Local\Temp\ccLzUcmd.s:30053  .debug_str:000000000002bff1 .LASF2214
C:\Users\CYMR90~1\AppData\Local\Temp\ccLzUcmd.s:24024  .debug_str:0000000000013d0f .LASF2215
C:\Users\CYMR90~1\AppData\Local\Temp\ccLzUcmd.s:21692  .debug_str:000000000000a7ac .LASF2216
C:\Users\CYMR90~1\AppData\Local\Temp\ccLzUcmd.s:25903  .debug_str:000000000001b81b .LASF2217
C:\Users\CYMR90~1\AppData\Local\Temp\ccLzUcmd.s:25227  .debug_str:000000000001897c .LASF2218
C:\Users\CYMR90~1\AppData\Local\Temp\ccLzUcmd.s:29819  .debug_str:000000000002afaf .LASF2219
C:\Users\CYMR90~1\AppData\Local\Temp\ccLzUcmd.s:26447  .debug_str:000000000001db62 .LASF2220
C:\Users\CYMR90~1\AppData\Local\Temp\ccLzUcmd.s:25315  .debug_str:0000000000018f5e .LASF2221
C:\Users\CYMR90~1\AppData\Local\Temp\ccLzUcmd.s:23702  .debug_str:0000000000012803 .LASF2222
C:\Users\CYMR90~1\AppData\Local\Temp\ccLzUcmd.s:25943  .debug_str:000000000001ba4e .LASF2223
C:\Users\CYMR90~1\AppData\Local\Temp\ccLzUcmd.s:20654  .debug_str:00000000000064d3 .LASF2224
C:\Users\CYMR90~1\AppData\Local\Temp\ccLzUcmd.s:19086  .debug_str:000000000000027b .LASF2225
C:\Users\CYMR90~1\AppData\Local\Temp\ccLzUcmd.s:20188  .debug_str:000000000000480a .LASF2226
C:\Users\CYMR90~1\AppData\Local\Temp\ccLzUcmd.s:25491  .debug_str:0000000000019c1a .LASF2227
C:\Users\CYMR90~1\AppData\Local\Temp\ccLzUcmd.s:24767  .debug_str:0000000000016d66 .LASF2228
C:\Users\CYMR90~1\AppData\Local\Temp\ccLzUcmd.s:26497  .debug_str:000000000001df02 .LASF2229
C:\Users\CYMR90~1\AppData\Local\Temp\ccLzUcmd.s:20156  .debug_str:00000000000045d4 .LASF2230
C:\Users\CYMR90~1\AppData\Local\Temp\ccLzUcmd.s:26721  .debug_str:000000000001ec61 .LASF2231
C:\Users\CYMR90~1\AppData\Local\Temp\ccLzUcmd.s:19470  .debug_str:0000000000001a77 .LASF2232
C:\Users\CYMR90~1\AppData\Local\Temp\ccLzUcmd.s:25479  .debug_str:0000000000019b56 .LASF2233
C:\Users\CYMR90~1\AppData\Local\Temp\ccLzUcmd.s:22178  .debug_str:000000000000c81b .LASF2234
C:\Users\CYMR90~1\AppData\Local\Temp\ccLzUcmd.s:20386  .debug_str:00000000000054ca .LASF2235
C:\Users\CYMR90~1\AppData\Local\Temp\ccLzUcmd.s:30007  .debug_str:000000000002bc9a .LASF2236
C:\Users\CYMR90~1\AppData\Local\Temp\ccLzUcmd.s:22638  .debug_str:000000000000e540 .LASF2237
C:\Users\CYMR90~1\AppData\Local\Temp\ccLzUcmd.s:27349  .debug_str:0000000000021353 .LASF2238
C:\Users\CYMR90~1\AppData\Local\Temp\ccLzUcmd.s:26401  .debug_str:000000000001d8a3 .LASF2239
C:\Users\CYMR90~1\AppData\Local\Temp\ccLzUcmd.s:26333  .debug_str:000000000001d429 .LASF2240
C:\Users\CYMR90~1\AppData\Local\Temp\ccLzUcmd.s:19534  .debug_str:0000000000001e40 .LASF2241
C:\Users\CYMR90~1\AppData\Local\Temp\ccLzUcmd.s:27367  .debug_str:0000000000021471 .LASF2242
C:\Users\CYMR90~1\AppData\Local\Temp\ccLzUcmd.s:28889  .debug_str:00000000000274bf .LASF2243
C:\Users\CYMR90~1\AppData\Local\Temp\ccLzUcmd.s:23550  .debug_str:0000000000011e05 .LASF2244
C:\Users\CYMR90~1\AppData\Local\Temp\ccLzUcmd.s:24777  .debug_str:0000000000016e02 .LASF2245
C:\Users\CYMR90~1\AppData\Local\Temp\ccLzUcmd.s:21682  .debug_str:000000000000a6d1 .LASF2246
C:\Users\CYMR90~1\AppData\Local\Temp\ccLzUcmd.s:24356  .debug_str:0000000000015243 .LASF2247
C:\Users\CYMR90~1\AppData\Local\Temp\ccLzUcmd.s:19892  .debug_str:000000000000344a .LASF2248
C:\Users\CYMR90~1\AppData\Local\Temp\ccLzUcmd.s:26739  .debug_str:000000000001ed6b .LASF2249
C:\Users\CYMR90~1\AppData\Local\Temp\ccLzUcmd.s:25877  .debug_str:000000000001b674 .LASF2250
C:\Users\CYMR90~1\AppData\Local\Temp\ccLzUcmd.s:24941  .debug_str:00000000000177e2 .LASF2251
C:\Users\CYMR90~1\AppData\Local\Temp\ccLzUcmd.s:28115  .debug_str:0000000000024211 .LASF2252
C:\Users\CYMR90~1\AppData\Local\Temp\ccLzUcmd.s:23708  .debug_str:0000000000012861 .LASF2253
C:\Users\CYMR90~1\AppData\Local\Temp\ccLzUcmd.s:22448  .debug_str:000000000000d9b9 .LASF2254
C:\Users\CYMR90~1\AppData\Local\Temp\ccLzUcmd.s:21214  .debug_str:00000000000089b9 .LASF2255
C:\Users\CYMR90~1\AppData\Local\Temp\ccLzUcmd.s:23114  .debug_str:00000000000101f8 .LASF2256
C:\Users\CYMR90~1\AppData\Local\Temp\ccLzUcmd.s:26147  .debug_str:000000000001c6e4 .LASF2257
C:\Users\CYMR90~1\AppData\Local\Temp\ccLzUcmd.s:23406  .debug_str:00000000000113db .LASF2258
C:\Users\CYMR90~1\AppData\Local\Temp\ccLzUcmd.s:23628  .debug_str:000000000001230c .LASF2259
C:\Users\CYMR90~1\AppData\Local\Temp\ccLzUcmd.s:23308  .debug_str:0000000000010dc2 .LASF2260
C:\Users\CYMR90~1\AppData\Local\Temp\ccLzUcmd.s:24406  .debug_str:000000000001553a .LASF2261
C:\Users\CYMR90~1\AppData\Local\Temp\ccLzUcmd.s:19592  .debug_str:0000000000002166 .LASF2262
C:\Users\CYMR90~1\AppData\Local\Temp\ccLzUcmd.s:22682  .debug_str:000000000000e833 .LASF2263
C:\Users\CYMR90~1\AppData\Local\Temp\ccLzUcmd.s:26521  .debug_str:000000000001e071 .LASF2264
C:\Users\CYMR90~1\AppData\Local\Temp\ccLzUcmd.s:25577  .debug_str:000000000001a119 .LASF2265
C:\Users\CYMR90~1\AppData\Local\Temp\ccLzUcmd.s:22530  .debug_str:000000000000deae .LASF2266
C:\Users\CYMR90~1\AppData\Local\Temp\ccLzUcmd.s:21886  .debug_str:000000000000b4df .LASF2267
C:\Users\CYMR90~1\AppData\Local\Temp\ccLzUcmd.s:24949  .debug_str:000000000001789c .LASF2268
C:\Users\CYMR90~1\AppData\Local\Temp\ccLzUcmd.s:29737  .debug_str:000000000002aad0 .LASF2269
C:\Users\CYMR90~1\AppData\Local\Temp\ccLzUcmd.s:20208  .debug_str:00000000000049d7 .LASF2270
C:\Users\CYMR90~1\AppData\Local\Temp\ccLzUcmd.s:26027  .debug_str:000000000001bfc2 .LASF2271
C:\Users\CYMR90~1\AppData\Local\Temp\ccLzUcmd.s:26423  .debug_str:000000000001da15 .LASF2272
C:\Users\CYMR90~1\AppData\Local\Temp\ccLzUcmd.s:24240  .debug_str:0000000000014ac0 .LASF2273
C:\Users\CYMR90~1\AppData\Local\Temp\ccLzUcmd.s:29099  .debug_str:000000000002832c .LASF2274
C:\Users\CYMR90~1\AppData\Local\Temp\ccLzUcmd.s:25781  .debug_str:000000000001afe9 .LASF2275
C:\Users\CYMR90~1\AppData\Local\Temp\ccLzUcmd.s:22454  .debug_str:000000000000da24 .LASF2276
C:\Users\CYMR90~1\AppData\Local\Temp\ccLzUcmd.s:20392  .debug_str:0000000000005511 .LASF2277
C:\Users\CYMR90~1\AppData\Local\Temp\ccLzUcmd.s:19260  .debug_str:0000000000000d10 .LASF2278
C:\Users\CYMR90~1\AppData\Local\Temp\ccLzUcmd.s:28955  .debug_str:00000000000278f5 .LASF2279
C:\Users\CYMR90~1\AppData\Local\Temp\ccLzUcmd.s:27353  .debug_str:0000000000021391 .LASF2280
C:\Users\CYMR90~1\AppData\Local\Temp\ccLzUcmd.s:20390  .debug_str:00000000000054fe .LASF2281
C:\Users\CYMR90~1\AppData\Local\Temp\ccLzUcmd.s:25513  .debug_str:0000000000019d85 .LASF2282
C:\Users\CYMR90~1\AppData\Local\Temp\ccLzUcmd.s:24831  .debug_str:0000000000017147 .LASF2283
C:\Users\CYMR90~1\AppData\Local\Temp\ccLzUcmd.s:26205  .debug_str:000000000001cb1d .LASF2284
C:\Users\CYMR90~1\AppData\Local\Temp\ccLzUcmd.s:25737  .debug_str:000000000001acb9 .LASF2285
C:\Users\CYMR90~1\AppData\Local\Temp\ccLzUcmd.s:28907  .debug_str:00000000000275bd .LASF2286
C:\Users\CYMR90~1\AppData\Local\Temp\ccLzUcmd.s:23314  .debug_str:0000000000010e1c .LASF2287
C:\Users\CYMR90~1\AppData\Local\Temp\ccLzUcmd.s:27505  .debug_str:0000000000021cfd .LASF2288
C:\Users\CYMR90~1\AppData\Local\Temp\ccLzUcmd.s:29409  .debug_str:000000000002974a .LASF2289
C:\Users\CYMR90~1\AppData\Local\Temp\ccLzUcmd.s:23518  .debug_str:0000000000011bf7 .LASF2290
C:\Users\CYMR90~1\AppData\Local\Temp\ccLzUcmd.s:29873  .debug_str:000000000002b395 .LASF2291
C:\Users\CYMR90~1\AppData\Local\Temp\ccLzUcmd.s:26611  .debug_str:000000000001e5d3 .LASF2292
C:\Users\CYMR90~1\AppData\Local\Temp\ccLzUcmd.s:20288  .debug_str:0000000000004ede .LASF2293
C:\Users\CYMR90~1\AppData\Local\Temp\ccLzUcmd.s:29273  .debug_str:0000000000028e48 .LASF2294
C:\Users\CYMR90~1\AppData\Local\Temp\ccLzUcmd.s:29837  .debug_str:000000000002b10d .LASF2295
C:\Users\CYMR90~1\AppData\Local\Temp\ccLzUcmd.s:20916  .debug_str:00000000000075aa .LASF2296
C:\Users\CYMR90~1\AppData\Local\Temp\ccLzUcmd.s:22486  .debug_str:000000000000dbcf .LASF2297
C:\Users\CYMR90~1\AppData\Local\Temp\ccLzUcmd.s:21866  .debug_str:000000000000b30c .LASF2298
C:\Users\CYMR90~1\AppData\Local\Temp\ccLzUcmd.s:24036  .debug_str:0000000000013dcf .LASF2299
C:\Users\CYMR90~1\AppData\Local\Temp\ccLzUcmd.s:29113  .debug_str:0000000000028425 .LASF2300
C:\Users\CYMR90~1\AppData\Local\Temp\ccLzUcmd.s:22834  .debug_str:000000000000f16c .LASF2301
C:\Users\CYMR90~1\AppData\Local\Temp\ccLzUcmd.s:25975  .debug_str:000000000001bc6a .LASF2302
C:\Users\CYMR90~1\AppData\Local\Temp\ccLzUcmd.s:28245  .debug_str:0000000000024adf .LASF2303
C:\Users\CYMR90~1\AppData\Local\Temp\ccLzUcmd.s:22446  .debug_str:000000000000d992 .LASF2304
C:\Users\CYMR90~1\AppData\Local\Temp\ccLzUcmd.s:27399  .debug_str:0000000000021642 .LASF2305
C:\Users\CYMR90~1\AppData\Local\Temp\ccLzUcmd.s:19342  .debug_str:0000000000001243 .LASF2306
C:\Users\CYMR90~1\AppData\Local\Temp\ccLzUcmd.s:25677  .debug_str:000000000001a91c .LASF2307
C:\Users\CYMR90~1\AppData\Local\Temp\ccLzUcmd.s:26167  .debug_str:000000000001c8c5 .LASF2308
C:\Users\CYMR90~1\AppData\Local\Temp\ccLzUcmd.s:19842  .debug_str:0000000000003124 .LASF2309
C:\Users\CYMR90~1\AppData\Local\Temp\ccLzUcmd.s:28523  .debug_str:0000000000025de9 .LASF2310
C:\Users\CYMR90~1\AppData\Local\Temp\ccLzUcmd.s:29347  .debug_str:000000000002934b .LASF2311
C:\Users\CYMR90~1\AppData\Local\Temp\ccLzUcmd.s:24076  .debug_str:0000000000014074 .LASF2312
C:\Users\CYMR90~1\AppData\Local\Temp\ccLzUcmd.s:29065  .debug_str:0000000000028071 .LASF2313
C:\Users\CYMR90~1\AppData\Local\Temp\ccLzUcmd.s:20910  .debug_str:0000000000007549 .LASF2314
C:\Users\CYMR90~1\AppData\Local\Temp\ccLzUcmd.s:27189  .debug_str:000000000002095d .LASF2315
C:\Users\CYMR90~1\AppData\Local\Temp\ccLzUcmd.s:20972  .debug_str:000000000000793d .LASF2316
C:\Users\CYMR90~1\AppData\Local\Temp\ccLzUcmd.s:25993  .debug_str:000000000001bd85 .LASF2317
C:\Users\CYMR90~1\AppData\Local\Temp\ccLzUcmd.s:29109  .debug_str:00000000000283e0 .LASF2318
C:\Users\CYMR90~1\AppData\Local\Temp\ccLzUcmd.s:22718  .debug_str:000000000000eaaa .LASF2319
C:\Users\CYMR90~1\AppData\Local\Temp\ccLzUcmd.s:20218  .debug_str:0000000000004a69 .LASF2320
C:\Users\CYMR90~1\AppData\Local\Temp\ccLzUcmd.s:19766  .debug_str:0000000000002c4d .LASF2321
C:\Users\CYMR90~1\AppData\Local\Temp\ccLzUcmd.s:30299  .debug_str:000000000002d040 .LASF2322
C:\Users\CYMR90~1\AppData\Local\Temp\ccLzUcmd.s:20578  .debug_str:000000000000603c .LASF2323
C:\Users\CYMR90~1\AppData\Local\Temp\ccLzUcmd.s:24198  .debug_str:000000000001483e .LASF2324
C:\Users\CYMR90~1\AppData\Local\Temp\ccLzUcmd.s:29901  .debug_str:000000000002b564 .LASF2325
C:\Users\CYMR90~1\AppData\Local\Temp\ccLzUcmd.s:21660  .debug_str:000000000000a5b5 .LASF2326
C:\Users\CYMR90~1\AppData\Local\Temp\ccLzUcmd.s:25187  .debug_str:00000000000186ae .LASF2327
C:\Users\CYMR90~1\AppData\Local\Temp\ccLzUcmd.s:19628  .debug_str:0000000000002386 .LASF2328
C:\Users\CYMR90~1\AppData\Local\Temp\ccLzUcmd.s:24112  .debug_str:00000000000142b5 .LASF2329
C:\Users\CYMR90~1\AppData\Local\Temp\ccLzUcmd.s:20964  .debug_str:00000000000078d9 .LASF2330
C:\Users\CYMR90~1\AppData\Local\Temp\ccLzUcmd.s:22110  .debug_str:000000000000c37e .LASF2331
C:\Users\CYMR90~1\AppData\Local\Temp\ccLzUcmd.s:23156  .debug_str:0000000000010468 .LASF2332
C:\Users\CYMR90~1\AppData\Local\Temp\ccLzUcmd.s:27309  .debug_str:000000000002105b .LASF2333
C:\Users\CYMR90~1\AppData\Local\Temp\ccLzUcmd.s:28697  .debug_str:000000000002688d .LASF2334
C:\Users\CYMR90~1\AppData\Local\Temp\ccLzUcmd.s:23168  .debug_str:0000000000010522 .LASF2335
C:\Users\CYMR90~1\AppData\Local\Temp\ccLzUcmd.s:23560  .debug_str:0000000000011edf .LASF2336
C:\Users\CYMR90~1\AppData\Local\Temp\ccLzUcmd.s:22614  .debug_str:000000000000e3d2 .LASF2337
C:\Users\CYMR90~1\AppData\Local\Temp\ccLzUcmd.s:20592  .debug_str:0000000000006129 .LASF2338
C:\Users\CYMR90~1\AppData\Local\Temp\ccLzUcmd.s:19676  .debug_str:0000000000002648 .LASF2339
C:\Users\CYMR90~1\AppData\Local\Temp\ccLzUcmd.s:26389  .debug_str:000000000001d7da .LASF2340
C:\Users\CYMR90~1\AppData\Local\Temp\ccLzUcmd.s:28581  .debug_str:000000000002614c .LASF2341
C:\Users\CYMR90~1\AppData\Local\Temp\ccLzUcmd.s:26971  .debug_str:000000000001fbef .LASF2342
C:\Users\CYMR90~1\AppData\Local\Temp\ccLzUcmd.s:26987  .debug_str:000000000001fcc7 .LASF2343
C:\Users\CYMR90~1\AppData\Local\Temp\ccLzUcmd.s:28011  .debug_str:0000000000023ab2 .LASF2344
C:\Users\CYMR90~1\AppData\Local\Temp\ccLzUcmd.s:28809  .debug_str:0000000000026f2b .LASF2345
C:\Users\CYMR90~1\AppData\Local\Temp\ccLzUcmd.s:26091  .debug_str:000000000001c3bb .LASF2346
C:\Users\CYMR90~1\AppData\Local\Temp\ccLzUcmd.s:26261  .debug_str:000000000001cf56 .LASF2347
C:\Users\CYMR90~1\AppData\Local\Temp\ccLzUcmd.s:23132  .debug_str:0000000000010300 .LASF2348
C:\Users\CYMR90~1\AppData\Local\Temp\ccLzUcmd.s:23918  .debug_str:00000000000136f0 .LASF2349
C:\Users\CYMR90~1\AppData\Local\Temp\ccLzUcmd.s:27447  .debug_str:0000000000021919 .LASF2350
C:\Users\CYMR90~1\AppData\Local\Temp\ccLzUcmd.s:29701  .debug_str:000000000002a89e .LASF2351
C:\Users\CYMR90~1\AppData\Local\Temp\ccLzUcmd.s:28231  .debug_str:00000000000249f0 .LASF2352
C:\Users\CYMR90~1\AppData\Local\Temp\ccLzUcmd.s:20742  .debug_str:0000000000006a3b .LASF2353
C:\Users\CYMR90~1\AppData\Local\Temp\ccLzUcmd.s:23062  .debug_str:000000000000ff19 .LASF2354
C:\Users\CYMR90~1\AppData\Local\Temp\ccLzUcmd.s:20688  .debug_str:00000000000066ca .LASF2355
C:\Users\CYMR90~1\AppData\Local\Temp\ccLzUcmd.s:30109  .debug_str:000000000002c41a .LASF2356
C:\Users\CYMR90~1\AppData\Local\Temp\ccLzUcmd.s:29529  .debug_str:0000000000029e4d .LASF2357
C:\Users\CYMR90~1\AppData\Local\Temp\ccLzUcmd.s:22364  .debug_str:000000000000d512 .LASF2358
C:\Users\CYMR90~1\AppData\Local\Temp\ccLzUcmd.s:21410  .debug_str:00000000000095eb .LASF2359
C:\Users\CYMR90~1\AppData\Local\Temp\ccLzUcmd.s:19986  .debug_str:0000000000003a88 .LASF2360
C:\Users\CYMR90~1\AppData\Local\Temp\ccLzUcmd.s:23074  .debug_str:000000000000fff6 .LASF2361
C:\Users\CYMR90~1\AppData\Local\Temp\ccLzUcmd.s:21846  .debug_str:000000000000b210 .LASF2362
C:\Users\CYMR90~1\AppData\Local\Temp\ccLzUcmd.s:20622  .debug_str:00000000000062e1 .LASF2363
C:\Users\CYMR90~1\AppData\Local\Temp\ccLzUcmd.s:28015  .debug_str:0000000000023ae9 .LASF2364
C:\Users\CYMR90~1\AppData\Local\Temp\ccLzUcmd.s:27197  .debug_str:00000000000209d8 .LASF2365
C:\Users\CYMR90~1\AppData\Local\Temp\ccLzUcmd.s:23622  .debug_str:00000000000122bd .LASF2366
C:\Users\CYMR90~1\AppData\Local\Temp\ccLzUcmd.s:28265  .debug_str:0000000000024c68 .LASF2367
C:\Users\CYMR90~1\AppData\Local\Temp\ccLzUcmd.s:23744  .debug_str:0000000000012abe .LASF2368
C:\Users\CYMR90~1\AppData\Local\Temp\ccLzUcmd.s:19916  .debug_str:00000000000035e1 .LASF2369
C:\Users\CYMR90~1\AppData\Local\Temp\ccLzUcmd.s:25137  .debug_str:00000000000183c9 .LASF2370
C:\Users\CYMR90~1\AppData\Local\Temp\ccLzUcmd.s:21468  .debug_str:00000000000099bd .LASF2371
C:\Users\CYMR90~1\AppData\Local\Temp\ccLzUcmd.s:29895  .debug_str:000000000002b51b .LASF2372
C:\Users\CYMR90~1\AppData\Local\Temp\ccLzUcmd.s:28499  .debug_str:0000000000025c5d .LASF2373
C:\Users\CYMR90~1\AppData\Local\Temp\ccLzUcmd.s:24540  .debug_str:0000000000015d5a .LASF2374
C:\Users\CYMR90~1\AppData\Local\Temp\ccLzUcmd.s:24300  .debug_str:0000000000014ed0 .LASF2375
C:\Users\CYMR90~1\AppData\Local\Temp\ccLzUcmd.s:24686  .debug_str:0000000000016642 .LASF2376
C:\Users\CYMR90~1\AppData\Local\Temp\ccLzUcmd.s:21532  .debug_str:0000000000009d9d .LASF2377
C:\Users\CYMR90~1\AppData\Local\Temp\ccLzUcmd.s:20770  .debug_str:0000000000006c0c .LASF2378
C:\Users\CYMR90~1\AppData\Local\Temp\ccLzUcmd.s:29239  .debug_str:0000000000028c1e .LASF2379
C:\Users\CYMR90~1\AppData\Local\Temp\ccLzUcmd.s:19162  .debug_str:00000000000006dd .LASF2380
C:\Users\CYMR90~1\AppData\Local\Temp\ccLzUcmd.s:20954  .debug_str:0000000000007831 .LASF2381
C:\Users\CYMR90~1\AppData\Local\Temp\ccLzUcmd.s:19962  .debug_str:00000000000038eb .LASF2382
C:\Users\CYMR90~1\AppData\Local\Temp\ccLzUcmd.s:28397  .debug_str:0000000000025597 .LASF2383
C:\Users\CYMR90~1\AppData\Local\Temp\ccLzUcmd.s:23544  .debug_str:0000000000011d9f .LASF2384
C:\Users\CYMR90~1\AppData\Local\Temp\ccLzUcmd.s:22318  .debug_str:000000000000d188 .LASF2385
C:\Users\CYMR90~1\AppData\Local\Temp\ccLzUcmd.s:26937  .debug_str:000000000001f9c1 .LASF2386
C:\Users\CYMR90~1\AppData\Local\Temp\ccLzUcmd.s:26063  .debug_str:000000000001c22d .LASF2387
C:\Users\CYMR90~1\AppData\Local\Temp\ccLzUcmd.s:20004  .debug_str:0000000000003b78 .LASF2388
C:\Users\CYMR90~1\AppData\Local\Temp\ccLzUcmd.s:28545  .debug_str:0000000000025f57 .LASF2389
C:\Users\CYMR90~1\AppData\Local\Temp\ccLzUcmd.s:22288  .debug_str:000000000000cfba .LASF2390
C:\Users\CYMR90~1\AppData\Local\Temp\ccLzUcmd.s:21374  .debug_str:0000000000009398 .LASF2391
C:\Users\CYMR90~1\AppData\Local\Temp\ccLzUcmd.s:20332  .debug_str:0000000000005167 .LASF2392
C:\Users\CYMR90~1\AppData\Local\Temp\ccLzUcmd.s:28895  .debug_str:0000000000027524 .LASF2393
C:\Users\CYMR90~1\AppData\Local\Temp\ccLzUcmd.s:29193  .debug_str:0000000000028999 .LASF2394
C:\Users\CYMR90~1\AppData\Local\Temp\ccLzUcmd.s:23402  .debug_str:000000000001138a .LASF2395
C:\Users\CYMR90~1\AppData\Local\Temp\ccLzUcmd.s:27287  .debug_str:0000000000020f28 .LASF2396
C:\Users\CYMR90~1\AppData\Local\Temp\ccLzUcmd.s:24462  .debug_str:000000000001584c .LASF2397
C:\Users\CYMR90~1\AppData\Local\Temp\ccLzUcmd.s:25037  .debug_str:0000000000017dc1 .LASF2398
C:\Users\CYMR90~1\AppData\Local\Temp\ccLzUcmd.s:23870  .debug_str:00000000000133c4 .LASF2399
C:\Users\CYMR90~1\AppData\Local\Temp\ccLzUcmd.s:24364  .debug_str:00000000000152e5 .LASF2400
C:\Users\CYMR90~1\AppData\Local\Temp\ccLzUcmd.s:23066  .debug_str:000000000000ff5c .LASF2401
C:\Users\CYMR90~1\AppData\Local\Temp\ccLzUcmd.s:23354  .debug_str:0000000000011097 .LASF2402
C:\Users\CYMR90~1\AppData\Local\Temp\ccLzUcmd.s:22442  .debug_str:000000000000d957 .LASF2403
C:\Users\CYMR90~1\AppData\Local\Temp\ccLzUcmd.s:21446  .debug_str:00000000000097ea .LASF2404
C:\Users\CYMR90~1\AppData\Local\Temp\ccLzUcmd.s:29893  .debug_str:000000000002b4f8 .LASF2405
C:\Users\CYMR90~1\AppData\Local\Temp\ccLzUcmd.s:21922  .debug_str:000000000000b74e .LASF2406
C:\Users\CYMR90~1\AppData\Local\Temp\ccLzUcmd.s:29233  .debug_str:0000000000028bc1 .LASF2407
C:\Users\CYMR90~1\AppData\Local\Temp\ccLzUcmd.s:27959  .debug_str:00000000000237c2 .LASF2408
C:\Users\CYMR90~1\AppData\Local\Temp\ccLzUcmd.s:24855  .debug_str:00000000000172b5 .LASF2409
C:\Users\CYMR90~1\AppData\Local\Temp\ccLzUcmd.s:24480  .debug_str:0000000000015982 .LASF2410
C:\Users\CYMR90~1\AppData\Local\Temp\ccLzUcmd.s:24610  .debug_str:000000000001622a .LASF2411
C:\Users\CYMR90~1\AppData\Local\Temp\ccLzUcmd.s:28917  .debug_str:0000000000027664 .LASF2412
C:\Users\CYMR90~1\AppData\Local\Temp\ccLzUcmd.s:22308  .debug_str:000000000000d0ec .LASF2413
C:\Users\CYMR90~1\AppData\Local\Temp\ccLzUcmd.s:26723  .debug_str:000000000001ec82 .LASF2414
C:\Users\CYMR90~1\AppData\Local\Temp\ccLzUcmd.s:20852  .debug_str:0000000000007174 .LASF2415
C:\Users\CYMR90~1\AppData\Local\Temp\ccLzUcmd.s:19306  .debug_str:000000000000103b .LASF2416
C:\Users\CYMR90~1\AppData\Local\Temp\ccLzUcmd.s:25717  .debug_str:000000000001ab92 .LASF2417
C:\Users\CYMR90~1\AppData\Local\Temp\ccLzUcmd.s:21706  .debug_str:000000000000a886 .LASF2418
C:\Users\CYMR90~1\AppData\Local\Temp\ccLzUcmd.s:24590  .debug_str:00000000000160f3 .LASF2419
C:\Users\CYMR90~1\AppData\Local\Temp\ccLzUcmd.s:22022  .debug_str:000000000000be10 .LASF2420
C:\Users\CYMR90~1\AppData\Local\Temp\ccLzUcmd.s:22156  .debug_str:000000000000c656 .LASF2421
C:\Users\CYMR90~1\AppData\Local\Temp\ccLzUcmd.s:26105  .debug_str:000000000001c470 .LASF2422
C:\Users\CYMR90~1\AppData\Local\Temp\ccLzUcmd.s:20274  .debug_str:0000000000004e01 .LASF2423
C:\Users\CYMR90~1\AppData\Local\Temp\ccLzUcmd.s:25963  .debug_str:000000000001bb78 .LASF2424
C:\Users\CYMR90~1\AppData\Local\Temp\ccLzUcmd.s:24466  .debug_str:00000000000158b5 .LASF2425
C:\Users\CYMR90~1\AppData\Local\Temp\ccLzUcmd.s:29377  .debug_str:000000000002957c .LASF2426
C:\Users\CYMR90~1\AppData\Local\Temp\ccLzUcmd.s:27571  .debug_str:00000000000220c6 .LASF2427
C:\Users\CYMR90~1\AppData\Local\Temp\ccLzUcmd.s:20244  .debug_str:0000000000004c2a .LASF2428
C:\Users\CYMR90~1\AppData\Local\Temp\ccLzUcmd.s:19318  .debug_str:00000000000010e2 .LASF2429
C:\Users\CYMR90~1\AppData\Local\Temp\ccLzUcmd.s:28771  .debug_str:0000000000026d1a .LASF2430
C:\Users\CYMR90~1\AppData\Local\Temp\ccLzUcmd.s:19258  .debug_str:0000000000000cf0 .LASF2431
C:\Users\CYMR90~1\AppData\Local\Temp\ccLzUcmd.s:20976  .debug_str:000000000000798f .LASF2432
C:\Users\CYMR90~1\AppData\Local\Temp\ccLzUcmd.s:21444  .debug_str:00000000000097ca .LASF2433
C:\Users\CYMR90~1\AppData\Local\Temp\ccLzUcmd.s:23722  .debug_str:0000000000012983 .LASF2434
C:\Users\CYMR90~1\AppData\Local\Temp\ccLzUcmd.s:21502  .debug_str:0000000000009be6 .LASF2435
C:\Users\CYMR90~1\AppData\Local\Temp\ccLzUcmd.s:20042  .debug_str:0000000000003e0f .LASF2436
C:\Users\CYMR90~1\AppData\Local\Temp\ccLzUcmd.s:25973  .debug_str:000000000001bc48 .LASF2437
C:\Users\CYMR90~1\AppData\Local\Temp\ccLzUcmd.s:25129  .debug_str:0000000000018361 .LASF2438
C:\Users\CYMR90~1\AppData\Local\Temp\ccLzUcmd.s:26677  .debug_str:000000000001ea01 .LASF2439
C:\Users\CYMR90~1\AppData\Local\Temp\ccLzUcmd.s:30219  .debug_str:000000000002cae9 .LASF2440
C:\Users\CYMR90~1\AppData\Local\Temp\ccLzUcmd.s:19502  .debug_str:0000000000001c73 .LASF2441
C:\Users\CYMR90~1\AppData\Local\Temp\ccLzUcmd.s:23978  .debug_str:0000000000013a57 .LASF2442
C:\Users\CYMR90~1\AppData\Local\Temp\ccLzUcmd.s:27549  .debug_str:0000000000021f6e .LASF2443
C:\Users\CYMR90~1\AppData\Local\Temp\ccLzUcmd.s:30005  .debug_str:000000000002bc7c .LASF2444
C:\Users\CYMR90~1\AppData\Local\Temp\ccLzUcmd.s:23408  .debug_str:000000000001140a .LASF2445
C:\Users\CYMR90~1\AppData\Local\Temp\ccLzUcmd.s:22732  .debug_str:000000000000ebbc .LASF2446
C:\Users\CYMR90~1\AppData\Local\Temp\ccLzUcmd.s:26231  .debug_str:000000000001ccef .LASF2447
C:\Users\CYMR90~1\AppData\Local\Temp\ccLzUcmd.s:25505  .debug_str:0000000000019cf6 .LASF2448
C:\Users\CYMR90~1\AppData\Local\Temp\ccLzUcmd.s:20294  .debug_str:0000000000004f43 .LASF2449
C:\Users\CYMR90~1\AppData\Local\Temp\ccLzUcmd.s:20212  .debug_str:0000000000004a18 .LASF2450
C:\Users\CYMR90~1\AppData\Local\Temp\ccLzUcmd.s:24919  .debug_str:0000000000017686 .LASF2451
C:\Users\CYMR90~1\AppData\Local\Temp\ccLzUcmd.s:26843  .debug_str:000000000001f3fd .LASF2452
C:\Users\CYMR90~1\AppData\Local\Temp\ccLzUcmd.s:21130  .debug_str:00000000000084d9 .LASF2453
C:\Users\CYMR90~1\AppData\Local\Temp\ccLzUcmd.s:21118  .debug_str:0000000000008438 .LASF2454
C:\Users\CYMR90~1\AppData\Local\Temp\ccLzUcmd.s:28439  .debug_str:00000000000258b3 .LASF2455
C:\Users\CYMR90~1\AppData\Local\Temp\ccLzUcmd.s:23368  .debug_str:0000000000011175 .LASF2456
C:\Users\CYMR90~1\AppData\Local\Temp\ccLzUcmd.s:24608  .debug_str:0000000000016206 .LASF2457
C:\Users\CYMR90~1\AppData\Local\Temp\ccLzUcmd.s:25921  .debug_str:000000000001b952 .LASF2458
C:\Users\CYMR90~1\AppData\Local\Temp\ccLzUcmd.s:29173  .debug_str:0000000000028874 .LASF2459
C:\Users\CYMR90~1\AppData\Local\Temp\ccLzUcmd.s:27423  .debug_str:00000000000217e9 .LASF2460
C:\Users\CYMR90~1\AppData\Local\Temp\ccLzUcmd.s:26471  .debug_str:000000000001dccb .LASF2461
C:\Users\CYMR90~1\AppData\Local\Temp\ccLzUcmd.s:25481  .debug_str:0000000000019b93 .LASF2462
C:\Users\CYMR90~1\AppData\Local\Temp\ccLzUcmd.s:24566  .debug_str:0000000000015f30 .LASF2463
C:\Users\CYMR90~1\AppData\Local\Temp\ccLzUcmd.s:23630  .debug_str:000000000001233b .LASF2464
C:\Users\CYMR90~1\AppData\Local\Temp\ccLzUcmd.s:22652  .debug_str:000000000000e65f .LASF2465
C:\Users\CYMR90~1\AppData\Local\Temp\ccLzUcmd.s:24396  .debug_str:00000000000154ac .LASF2466
C:\Users\CYMR90~1\AppData\Local\Temp\ccLzUcmd.s:20144  .debug_str:000000000000452c .LASF2467
C:\Users\CYMR90~1\AppData\Local\Temp\ccLzUcmd.s:19852  .debug_str:00000000000031a5 .LASF2468
C:\Users\CYMR90~1\AppData\Local\Temp\ccLzUcmd.s:21376  .debug_str:00000000000093ba .LASF2469
C:\Users\CYMR90~1\AppData\Local\Temp\ccLzUcmd.s:19254  .debug_str:0000000000000cb9 .LASF2470
C:\Users\CYMR90~1\AppData\Local\Temp\ccLzUcmd.s:22528  .debug_str:000000000000de90 .LASF2471
C:\Users\CYMR90~1\AppData\Local\Temp\ccLzUcmd.s:27967  .debug_str:0000000000023855 .LASF2472
C:\Users\CYMR90~1\AppData\Local\Temp\ccLzUcmd.s:19552  .debug_str:0000000000001f64 .LASF2473
C:\Users\CYMR90~1\AppData\Local\Temp\ccLzUcmd.s:21988  .debug_str:000000000000bb5f .LASF2474
C:\Users\CYMR90~1\AppData\Local\Temp\ccLzUcmd.s:19358  .debug_str:0000000000001314 .LASF2475
C:\Users\CYMR90~1\AppData\Local\Temp\ccLzUcmd.s:25605  .debug_str:000000000001a47f .LASF2476
C:\Users\CYMR90~1\AppData\Local\Temp\ccLzUcmd.s:25399  .debug_str:000000000001956e .LASF2477
C:\Users\CYMR90~1\AppData\Local\Temp\ccLzUcmd.s:23898  .debug_str:000000000001359c .LASF2478
C:\Users\CYMR90~1\AppData\Local\Temp\ccLzUcmd.s:29077  .debug_str:00000000000281c9 .LASF2479
C:\Users\CYMR90~1\AppData\Local\Temp\ccLzUcmd.s:21572  .debug_str:000000000000a02e .LASF2480
C:\Users\CYMR90~1\AppData\Local\Temp\ccLzUcmd.s:25645  .debug_str:000000000001a6af .LASF2481
C:\Users\CYMR90~1\AppData\Local\Temp\ccLzUcmd.s:26281  .debug_str:000000000001d11f .LASF2482
C:\Users\CYMR90~1\AppData\Local\Temp\ccLzUcmd.s:24791  .debug_str:0000000000016edf .LASF2483
C:\Users\CYMR90~1\AppData\Local\Temp\ccLzUcmd.s:28661  .debug_str:000000000002666a .LASF2484
C:\Users\CYMR90~1\AppData\Local\Temp\ccLzUcmd.s:23840  .debug_str:000000000001313c .LASF2485
C:\Users\CYMR90~1\AppData\Local\Temp\ccLzUcmd.s:19120  .debug_str:00000000000004a0 .LASF2486
C:\Users\CYMR90~1\AppData\Local\Temp\ccLzUcmd.s:19618  .debug_str:00000000000022d7 .LASF2487
C:\Users\CYMR90~1\AppData\Local\Temp\ccLzUcmd.s:24428  .debug_str:0000000000015654 .LASF2488
C:\Users\CYMR90~1\AppData\Local\Temp\ccLzUcmd.s:19242  .debug_str:0000000000000c18 .LASF2489
C:\Users\CYMR90~1\AppData\Local\Temp\ccLzUcmd.s:26377  .debug_str:000000000001d73d .LASF2490
C:\Users\CYMR90~1\AppData\Local\Temp\ccLzUcmd.s:21696  .debug_str:000000000000a7fd .LASF2491
C:\Users\CYMR90~1\AppData\Local\Temp\ccLzUcmd.s:28243  .debug_str:0000000000024ab9 .LASF2492
C:\Users\CYMR90~1\AppData\Local\Temp\ccLzUcmd.s:20394  .debug_str:000000000000552f .LASF2493
C:\Users\CYMR90~1\AppData\Local\Temp\ccLzUcmd.s:20006  .debug_str:0000000000003b9a .LASF2494
C:\Users\CYMR90~1\AppData\Local\Temp\ccLzUcmd.s:24106  .debug_str:000000000001425d .LASF2495
C:\Users\CYMR90~1\AppData\Local\Temp\ccLzUcmd.s:22062  .debug_str:000000000000c0ae .LASF2496
C:\Users\CYMR90~1\AppData\Local\Temp\ccLzUcmd.s:26831  .debug_str:000000000001f342 .LASF2497
C:\Users\CYMR90~1\AppData\Local\Temp\ccLzUcmd.s:22612  .debug_str:000000000000e3ad .LASF2498
C:\Users\CYMR90~1\AppData\Local\Temp\ccLzUcmd.s:26647  .debug_str:000000000001e800 .LASF2499
C:\Users\CYMR90~1\AppData\Local\Temp\ccLzUcmd.s:30203  .debug_str:000000000002ca13 .LASF2500
C:\Users\CYMR90~1\AppData\Local\Temp\ccLzUcmd.s:20508  .debug_str:0000000000005c0f .LASF2501
C:\Users\CYMR90~1\AppData\Local\Temp\ccLzUcmd.s:25631  .debug_str:000000000001a5c4 .LASF2502
C:\Users\CYMR90~1\AppData\Local\Temp\ccLzUcmd.s:21784  .debug_str:000000000000ad7c .LASF2503
C:\Users\CYMR90~1\AppData\Local\Temp\ccLzUcmd.s:28375  .debug_str:000000000002540c .LASF2504
C:\Users\CYMR90~1\AppData\Local\Temp\ccLzUcmd.s:19802  .debug_str:0000000000002e6d .LASF2505
C:\Users\CYMR90~1\AppData\Local\Temp\ccLzUcmd.s:30091  .debug_str:000000000002c29a .LASF2506
C:\Users\CYMR90~1\AppData\Local\Temp\ccLzUcmd.s:19394  .debug_str:000000000000152d .LASF2507
C:\Users\CYMR90~1\AppData\Local\Temp\ccLzUcmd.s:27577  .debug_str:000000000002211d .LASF2508
C:\Users\CYMR90~1\AppData\Local\Temp\ccLzUcmd.s:27585  .debug_str:00000000000221a0 .LASF2509
C:\Users\CYMR90~1\AppData\Local\Temp\ccLzUcmd.s:23998  .debug_str:0000000000013ba0 .LASF2510
C:\Users\CYMR90~1\AppData\Local\Temp\ccLzUcmd.s:23788  .debug_str:0000000000012dce .LASF2511
C:\Users\CYMR90~1\AppData\Local\Temp\ccLzUcmd.s:26641  .debug_str:000000000001e795 .LASF2512
C:\Users\CYMR90~1\AppData\Local\Temp\ccLzUcmd.s:21912  .debug_str:000000000000b689 .LASF2513
C:\Users\CYMR90~1\AppData\Local\Temp\ccLzUcmd.s:20778  .debug_str:0000000000006c9b .LASF2514
C:\Users\CYMR90~1\AppData\Local\Temp\ccLzUcmd.s:26935  .debug_str:000000000001f993 .LASF2515
C:\Users\CYMR90~1\AppData\Local\Temp\ccLzUcmd.s:29437  .debug_str:00000000000298f6 .LASF2516
C:\Users\CYMR90~1\AppData\Local\Temp\ccLzUcmd.s:24947  .debug_str:000000000001786c .LASF2517
C:\Users\CYMR90~1\AppData\Local\Temp\ccLzUcmd.s:26295  .debug_str:000000000001d1fa .LASF2518
C:\Users\CYMR90~1\AppData\Local\Temp\ccLzUcmd.s:24166  .debug_str:0000000000014641 .LASF2519
C:\Users\CYMR90~1\AppData\Local\Temp\ccLzUcmd.s:22444  .debug_str:000000000000d97a .LASF2520
C:\Users\CYMR90~1\AppData\Local\Temp\ccLzUcmd.s:25809  .debug_str:000000000001b1d0 .LASF2521
C:\Users\CYMR90~1\AppData\Local\Temp\ccLzUcmd.s:29811  .debug_str:000000000002af41 .LASF2522
C:\Users\CYMR90~1\AppData\Local\Temp\ccLzUcmd.s:20306  .debug_str:0000000000004ff3 .LASF2523
C:\Users\CYMR90~1\AppData\Local\Temp\ccLzUcmd.s:20946  .debug_str:00000000000077ab .LASF2524
C:\Users\CYMR90~1\AppData\Local\Temp\ccLzUcmd.s:29249  .debug_str:0000000000028cf3 .LASF2525
C:\Users\CYMR90~1\AppData\Local\Temp\ccLzUcmd.s:25329  .debug_str:0000000000019121 .LASF2526
C:\Users\CYMR90~1\AppData\Local\Temp\ccLzUcmd.s:28313  .debug_str:0000000000024ef0 .LASF2527
C:\Users\CYMR90~1\AppData\Local\Temp\ccLzUcmd.s:22296  .debug_str:000000000000d030 .LASF2528
C:\Users\CYMR90~1\AppData\Local\Temp\ccLzUcmd.s:27481  .debug_str:0000000000021b55 .LASF2529
C:\Users\CYMR90~1\AppData\Local\Temp\ccLzUcmd.s:27727  .debug_str:000000000002299a .LASF2530
C:\Users\CYMR90~1\AppData\Local\Temp\ccLzUcmd.s:23396  .debug_str:0000000000011340 .LASF2531
C:\Users\CYMR90~1\AppData\Local\Temp\ccLzUcmd.s:19990  .debug_str:0000000000003aba .LASF2532
C:\Users\CYMR90~1\AppData\Local\Temp\ccLzUcmd.s:25283  .debug_str:0000000000018d8d .LASF2533
C:\Users\CYMR90~1\AppData\Local\Temp\ccLzUcmd.s:19174  .debug_str:000000000000079f .LASF2534
C:\Users\CYMR90~1\AppData\Local\Temp\ccLzUcmd.s:27031  .debug_str:000000000001ffd0 .LASF2535
C:\Users\CYMR90~1\AppData\Local\Temp\ccLzUcmd.s:29163  .debug_str:00000000000287ad .LASF2536
C:\Users\CYMR90~1\AppData\Local\Temp\ccLzUcmd.s:21084  .debug_str:00000000000081dc .LASF2537
C:\Users\CYMR90~1\AppData\Local\Temp\ccLzUcmd.s:19130  .debug_str:000000000000051d .LASF2538
C:\Users\CYMR90~1\AppData\Local\Temp\ccLzUcmd.s:27475  .debug_str:0000000000021afe .LASF2539
C:\Users\CYMR90~1\AppData\Local\Temp\ccLzUcmd.s:19308  .debug_str:000000000000104d .LASF2540
C:\Users\CYMR90~1\AppData\Local\Temp\ccLzUcmd.s:22540  .debug_str:000000000000df48 .LASF2541
C:\Users\CYMR90~1\AppData\Local\Temp\ccLzUcmd.s:25775  .debug_str:000000000001af98 .LASF2542
C:\Users\CYMR90~1\AppData\Local\Temp\ccLzUcmd.s:28921  .debug_str:00000000000276a9 .LASF2543
C:\Users\CYMR90~1\AppData\Local\Temp\ccLzUcmd.s:20828  .debug_str:0000000000006fd2 .LASF2544
C:\Users\CYMR90~1\AppData\Local\Temp\ccLzUcmd.s:24052  .debug_str:0000000000013eb5 .LASF2545
C:\Users\CYMR90~1\AppData\Local\Temp\ccLzUcmd.s:20502  .debug_str:0000000000005bbf .LASF2546
C:\Users\CYMR90~1\AppData\Local\Temp\ccLzUcmd.s:25277  .debug_str:0000000000018d30 .LASF2547
C:\Users\CYMR90~1\AppData\Local\Temp\ccLzUcmd.s:29937  .debug_str:000000000002b7fb .LASF2548
C:\Users\CYMR90~1\AppData\Local\Temp\ccLzUcmd.s:23346  .debug_str:000000000001101e .LASF2549
C:\Users\CYMR90~1\AppData\Local\Temp\ccLzUcmd.s:27999  .debug_str:0000000000023a0d .LASF2550
C:\Users\CYMR90~1\AppData\Local\Temp\ccLzUcmd.s:21424  .debug_str:00000000000096c2 .LASF2551
C:\Users\CYMR90~1\AppData\Local\Temp\ccLzUcmd.s:21796  .debug_str:000000000000af05 .LASF2552
C:\Users\CYMR90~1\AppData\Local\Temp\ccLzUcmd.s:22452  .debug_str:000000000000da0a .LASF2553
C:\Users\CYMR90~1\AppData\Local\Temp\ccLzUcmd.s:27721  .debug_str:0000000000022934 .LASF2554
C:\Users\CYMR90~1\AppData\Local\Temp\ccLzUcmd.s:25005  .debug_str:0000000000017be1 .LASF2555
C:\Users\CYMR90~1\AppData\Local\Temp\ccLzUcmd.s:20226  .debug_str:0000000000004af7 .LASF2556
C:\Users\CYMR90~1\AppData\Local\Temp\ccLzUcmd.s:21664  .debug_str:000000000000a5f3 .LASF2557
C:\Users\CYMR90~1\AppData\Local\Temp\ccLzUcmd.s:26859  .debug_str:000000000001f531 .LASF2558
C:\Users\CYMR90~1\AppData\Local\Temp\ccLzUcmd.s:20798  .debug_str:0000000000006dfd .LASF2559
C:\Users\CYMR90~1\AppData\Local\Temp\ccLzUcmd.s:25977  .debug_str:000000000001bc95 .LASF2560
C:\Users\CYMR90~1\AppData\Local\Temp\ccLzUcmd.s:22154  .debug_str:000000000000c63a .LASF2561
C:\Users\CYMR90~1\AppData\Local\Temp\ccLzUcmd.s:21896  .debug_str:000000000000b57a .LASF2562
C:\Users\CYMR90~1\AppData\Local\Temp\ccLzUcmd.s:27097  .debug_str:000000000002034f .LASF2563
C:\Users\CYMR90~1\AppData\Local\Temp\ccLzUcmd.s:21038  .debug_str:0000000000007e1b .LASF2564
C:\Users\CYMR90~1\AppData\Local\Temp\ccLzUcmd.s:26199  .debug_str:000000000001cad3 .LASF2565
C:\Users\CYMR90~1\AppData\Local\Temp\ccLzUcmd.s:20100  .debug_str:0000000000004262 .LASF2566
C:\Users\CYMR90~1\AppData\Local\Temp\ccLzUcmd.s:27975  .debug_str:00000000000238bd .LASF2567
C:\Users\CYMR90~1\AppData\Local\Temp\ccLzUcmd.s:25309  .debug_str:0000000000018f0a .LASF2568
C:\Users\CYMR90~1\AppData\Local\Temp\ccLzUcmd.s:19578  .debug_str:00000000000020b9 .LASF2569
C:\Users\CYMR90~1\AppData\Local\Temp\ccLzUcmd.s:19924  .debug_str:0000000000003641 .LASF2570
C:\Users\CYMR90~1\AppData\Local\Temp\ccLzUcmd.s:28443  .debug_str:00000000000258f6 .LASF2571
C:\Users\CYMR90~1\AppData\Local\Temp\ccLzUcmd.s:25835  .debug_str:000000000001b378 .LASF2572
C:\Users\CYMR90~1\AppData\Local\Temp\ccLzUcmd.s:24989  .debug_str:0000000000017b1e .LASF2573
C:\Users\CYMR90~1\AppData\Local\Temp\ccLzUcmd.s:30119  .debug_str:000000000002c4bb .LASF2574
C:\Users\CYMR90~1\AppData\Local\Temp\ccLzUcmd.s:24050  .debug_str:0000000000013e9b .LASF2575
C:\Users\CYMR90~1\AppData\Local\Temp\ccLzUcmd.s:29275  .debug_str:0000000000028e71 .LASF2576
C:\Users\CYMR90~1\AppData\Local\Temp\ccLzUcmd.s:23152  .debug_str:0000000000010433 .LASF2577
C:\Users\CYMR90~1\AppData\Local\Temp\ccLzUcmd.s:25733  .debug_str:000000000001ac81 .LASF2578
C:\Users\CYMR90~1\AppData\Local\Temp\ccLzUcmd.s:19612  .debug_str:0000000000002281 .LASF2579
C:\Users\CYMR90~1\AppData\Local\Temp\ccLzUcmd.s:24781  .debug_str:0000000000016e5a .LASF2580
C:\Users\CYMR90~1\AppData\Local\Temp\ccLzUcmd.s:24086  .debug_str:0000000000014124 .LASF2581
C:\Users\CYMR90~1\AppData\Local\Temp\ccLzUcmd.s:23854  .debug_str:0000000000013253 .LASF2582
C:\Users\CYMR90~1\AppData\Local\Temp\ccLzUcmd.s:22736  .debug_str:000000000000ebed .LASF2583
C:\Users\CYMR90~1\AppData\Local\Temp\ccLzUcmd.s:29813  .debug_str:000000000002af59 .LASF2584
C:\Users\CYMR90~1\AppData\Local\Temp\ccLzUcmd.s:21736  .debug_str:000000000000aa65 .LASF2585
C:\Users\CYMR90~1\AppData\Local\Temp\ccLzUcmd.s:24945  .debug_str:0000000000017853 .LASF2586
C:\Users\CYMR90~1\AppData\Local\Temp\ccLzUcmd.s:28119  .debug_str:0000000000024263 .LASF2587
C:\Users\CYMR90~1\AppData\Local\Temp\ccLzUcmd.s:20028  .debug_str:0000000000003d38 .LASF2588
C:\Users\CYMR90~1\AppData\Local\Temp\ccLzUcmd.s:23278  .debug_str:0000000000010c4a .LASF2589
C:\Users\CYMR90~1\AppData\Local\Temp\ccLzUcmd.s:26449  .debug_str:000000000001db88 .LASF2590
C:\Users\CYMR90~1\AppData\Local\Temp\ccLzUcmd.s:29565  .debug_str:000000000002a067 .LASF2591
C:\Users\CYMR90~1\AppData\Local\Temp\ccLzUcmd.s:21498  .debug_str:0000000000009bb1 .LASF2592
C:\Users\CYMR90~1\AppData\Local\Temp\ccLzUcmd.s:24704  .debug_str:000000000001674a .LASF2593
C:\Users\CYMR90~1\AppData\Local\Temp\ccLzUcmd.s:26681  .debug_str:000000000001ea4d .LASF2594
C:\Users\CYMR90~1\AppData\Local\Temp\ccLzUcmd.s:20080  .debug_str:000000000000408a .LASF2595
C:\Users\CYMR90~1\AppData\Local\Temp\ccLzUcmd.s:24813  .debug_str:0000000000017026 .LASF2596
C:\Users\CYMR90~1\AppData\Local\Temp\ccLzUcmd.s:29483  .debug_str:0000000000029bcf .LASF2597
C:\Users\CYMR90~1\AppData\Local\Temp\ccLzUcmd.s:22910  .debug_str:000000000000f60e .LASF2598
C:\Users\CYMR90~1\AppData\Local\Temp\ccLzUcmd.s:27565  .debug_str:000000000002207c .LASF2599
C:\Users\CYMR90~1\AppData\Local\Temp\ccLzUcmd.s:20960  .debug_str:00000000000078a2 .LASF2600
C:\Users\CYMR90~1\AppData\Local\Temp\ccLzUcmd.s:24180  .debug_str:000000000001471c .LASF2601
C:\Users\CYMR90~1\AppData\Local\Temp\ccLzUcmd.s:27275  .debug_str:0000000000020e8c .LASF2602
C:\Users\CYMR90~1\AppData\Local\Temp\ccLzUcmd.s:19206  .debug_str:0000000000000981 .LASF2603
C:\Users\CYMR90~1\AppData\Local\Temp\ccLzUcmd.s:22432  .debug_str:000000000000d8d4 .LASF2604
C:\Users\CYMR90~1\AppData\Local\Temp\ccLzUcmd.s:25659  .debug_str:000000000001a813 .LASF2605
C:\Users\CYMR90~1\AppData\Local\Temp\ccLzUcmd.s:28801  .debug_str:0000000000026ec7 .LASF2606
C:\Users\CYMR90~1\AppData\Local\Temp\ccLzUcmd.s:20710  .debug_str:0000000000006868 .LASF2607
C:\Users\CYMR90~1\AppData\Local\Temp\ccLzUcmd.s:23956  .debug_str:0000000000013900 .LASF2608
C:\Users\CYMR90~1\AppData\Local\Temp\ccLzUcmd.s:27143  .debug_str:0000000000020691 .LASF2609
C:\Users\CYMR90~1\AppData\Local\Temp\ccLzUcmd.s:24496  .debug_str:0000000000015a6f .LASF2610
C:\Users\CYMR90~1\AppData\Local\Temp\ccLzUcmd.s:29177  .debug_str:00000000000288a6 .LASF2611
C:\Users\CYMR90~1\AppData\Local\Temp\ccLzUcmd.s:22596  .debug_str:000000000000e2d6 .LASF2612
C:\Users\CYMR90~1\AppData\Local\Temp\ccLzUcmd.s:20652  .debug_str:00000000000064ba .LASF2613
C:\Users\CYMR90~1\AppData\Local\Temp\ccLzUcmd.s:25411  .debug_str:000000000001961f .LASF2614
C:\Users\CYMR90~1\AppData\Local\Temp\ccLzUcmd.s:23910  .debug_str:000000000001365c .LASF2615
C:\Users\CYMR90~1\AppData\Local\Temp\ccLzUcmd.s:27089  .debug_str:00000000000202db .LASF2616
C:\Users\CYMR90~1\AppData\Local\Temp\ccLzUcmd.s:30283  .debug_str:000000000002cf53 .LASF2617
C:\Users\CYMR90~1\AppData\Local\Temp\ccLzUcmd.s:26067  .debug_str:000000000001c263 .LASF2618
C:\Users\CYMR90~1\AppData\Local\Temp\ccLzUcmd.s:28103  .debug_str:0000000000024141 .LASF2619
C:\Users\CYMR90~1\AppData\Local\Temp\ccLzUcmd.s:28513  .debug_str:0000000000025d2c .LASF2620
C:\Users\CYMR90~1\AppData\Local\Temp\ccLzUcmd.s:29291  .debug_str:0000000000028f6a .LASF2621
C:\Users\CYMR90~1\AppData\Local\Temp\ccLzUcmd.s:23678  .debug_str:0000000000012667 .LASF2622
C:\Users\CYMR90~1\AppData\Local\Temp\ccLzUcmd.s:26833  .debug_str:000000000001f367 .LASF2623
C:\Users\CYMR90~1\AppData\Local\Temp\ccLzUcmd.s:30071  .debug_str:000000000002c153 .LASF2624
C:\Users\CYMR90~1\AppData\Local\Temp\ccLzUcmd.s:27567  .debug_str:0000000000022097 .LASF2625
C:\Users\CYMR90~1\AppData\Local\Temp\ccLzUcmd.s:29539  .debug_str:0000000000029efd .LASF2626
C:\Users\CYMR90~1\AppData\Local\Temp\ccLzUcmd.s:20002  .debug_str:0000000000003b61 .LASF2627
C:\Users\CYMR90~1\AppData\Local\Temp\ccLzUcmd.s:24726  .debug_str:000000000001690b .LASF2628
C:\Users\CYMR90~1\AppData\Local\Temp\ccLzUcmd.s:29399  .debug_str:00000000000296df .LASF2629
C:\Users\CYMR90~1\AppData\Local\Temp\ccLzUcmd.s:22824  .debug_str:000000000000f0bd .LASF2630
C:\Users\CYMR90~1\AppData\Local\Temp\ccLzUcmd.s:24694  .debug_str:00000000000166c4 .LASF2631
C:\Users\CYMR90~1\AppData\Local\Temp\ccLzUcmd.s:29369  .debug_str:00000000000294b7 .LASF2632
C:\Users\CYMR90~1\AppData\Local\Temp\ccLzUcmd.s:22796  .debug_str:000000000000ef26 .LASF2633
C:\Users\CYMR90~1\AppData\Local\Temp\ccLzUcmd.s:27451  .debug_str:0000000000021938 .LASF2634
C:\Users\CYMR90~1\AppData\Local\Temp\ccLzUcmd.s:26145  .debug_str:000000000001c6cf .LASF2635
C:\Users\CYMR90~1\AppData\Local\Temp\ccLzUcmd.s:19518  .debug_str:0000000000001d54 .LASF2636
C:\Users\CYMR90~1\AppData\Local\Temp\ccLzUcmd.s:24220  .debug_str:0000000000014960 .LASF2637
C:\Users\CYMR90~1\AppData\Local\Temp\ccLzUcmd.s:28901  .debug_str:000000000002756b .LASF2638
C:\Users\CYMR90~1\AppData\Local\Temp\ccLzUcmd.s:22336  .debug_str:000000000000d2fc .LASF2639
C:\Users\CYMR90~1\AppData\Local\Temp\ccLzUcmd.s:26991  .debug_str:000000000001fcfd .LASF2640
C:\Users\CYMR90~1\AppData\Local\Temp\ccLzUcmd.s:21960  .debug_str:000000000000b9c7 .LASF2641
C:\Users\CYMR90~1\AppData\Local\Temp\ccLzUcmd.s:26627  .debug_str:000000000001e68d .LASF2642
C:\Users\CYMR90~1\AppData\Local\Temp\ccLzUcmd.s:20018  .debug_str:0000000000003c6d .LASF2643
C:\Users\CYMR90~1\AppData\Local\Temp\ccLzUcmd.s:24742  .debug_str:0000000000016a23 .LASF2644
C:\Users\CYMR90~1\AppData\Local\Temp\ccLzUcmd.s:21344  .debug_str:00000000000091db .LASF2645
C:\Users\CYMR90~1\AppData\Local\Temp\ccLzUcmd.s:28075  .debug_str:0000000000023e8e .LASF2646
C:\Users\CYMR90~1\AppData\Local\Temp\ccLzUcmd.s:19528  .debug_str:0000000000001df2 .LASF2647
C:\Users\CYMR90~1\AppData\Local\Temp\ccLzUcmd.s:22758  .debug_str:000000000000ed06 .LASF2648
C:\Users\CYMR90~1\AppData\Local\Temp\ccLzUcmd.s:28859  .debug_str:0000000000027322 .LASF2649
C:\Users\CYMR90~1\AppData\Local\Temp\ccLzUcmd.s:29153  .debug_str:0000000000028719 .LASF2650
C:\Users\CYMR90~1\AppData\Local\Temp\ccLzUcmd.s:20970  .debug_str:0000000000007928 .LASF2651
C:\Users\CYMR90~1\AppData\Local\Temp\ccLzUcmd.s:24188  .debug_str:000000000001477b .LASF2652
C:\Users\CYMR90~1\AppData\Local\Temp\ccLzUcmd.s:21508  .debug_str:0000000000009c2d .LASF2653
C:\Users\CYMR90~1\AppData\Local\Temp\ccLzUcmd.s:19294  .debug_str:0000000000000f9b .LASF2654
C:\Users\CYMR90~1\AppData\Local\Temp\ccLzUcmd.s:22522  .debug_str:000000000000de4b .LASF2655
C:\Users\CYMR90~1\AppData\Local\Temp\ccLzUcmd.s:21062  .debug_str:0000000000007fdb .LASF2656
C:\Users\CYMR90~1\AppData\Local\Temp\ccLzUcmd.s:25051  .debug_str:0000000000017eca .LASF2657
C:\Users\CYMR90~1\AppData\Local\Temp\ccLzUcmd.s:29721  .debug_str:000000000002a9ec .LASF2658
C:\Users\CYMR90~1\AppData\Local\Temp\ccLzUcmd.s:23150  .debug_str:000000000001041c .LASF2659
C:\Users\CYMR90~1\AppData\Local\Temp\ccLzUcmd.s:27803  .debug_str:0000000000022e61 .LASF2660
C:\Users\CYMR90~1\AppData\Local\Temp\ccLzUcmd.s:28409  .debug_str:0000000000025665 .LASF2661
C:\Users\CYMR90~1\AppData\Local\Temp\ccLzUcmd.s:25931  .debug_str:000000000001b9ba .LASF2662
C:\Users\CYMR90~1\AppData\Local\Temp\ccLzUcmd.s:23332  .debug_str:0000000000010f40 .LASF2663
C:\Users\CYMR90~1\AppData\Local\Temp\ccLzUcmd.s:29589  .debug_str:000000000002a1a7 .LASF2664
C:\Users\CYMR90~1\AppData\Local\Temp\ccLzUcmd.s:25557  .debug_str:000000000001a005 .LASF2665
C:\Users\CYMR90~1\AppData\Local\Temp\ccLzUcmd.s:21160  .debug_str:0000000000008672 .LASF2666
C:\Users\CYMR90~1\AppData\Local\Temp\ccLzUcmd.s:22130  .debug_str:000000000000c499 .LASF2667
C:\Users\CYMR90~1\AppData\Local\Temp\ccLzUcmd.s:29605  .debug_str:000000000002a2b6 .LASF2668
C:\Users\CYMR90~1\AppData\Local\Temp\ccLzUcmd.s:19936  .debug_str:000000000000370b .LASF2669
C:\Users\CYMR90~1\AppData\Local\Temp\ccLzUcmd.s:24883  .debug_str:000000000001742f .LASF2670
C:\Users\CYMR90~1\AppData\Local\Temp\ccLzUcmd.s:20284  .debug_str:0000000000004eae .LASF2671
C:\Users\CYMR90~1\AppData\Local\Temp\ccLzUcmd.s:23672  .debug_str:0000000000012604 .LASF2672
C:\Users\CYMR90~1\AppData\Local\Temp\ccLzUcmd.s:20328  .debug_str:0000000000005131 .LASF2673
C:\Users\CYMR90~1\AppData\Local\Temp\ccLzUcmd.s:27153  .debug_str:0000000000020710 .LASF2674
C:\Users\CYMR90~1\AppData\Local\Temp\ccLzUcmd.s:28167  .debug_str:0000000000024599 .LASF2675
C:\Users\CYMR90~1\AppData\Local\Temp\ccLzUcmd.s:22726  .debug_str:000000000000eb51 .LASF2676
C:\Users\CYMR90~1\AppData\Local\Temp\ccLzUcmd.s:21788  .debug_str:000000000000add1 .LASF2677
C:\Users\CYMR90~1\AppData\Local\Temp\ccLzUcmd.s:19356  .debug_str:00000000000012f6 .LASF2678
C:\Users\CYMR90~1\AppData\Local\Temp\ccLzUcmd.s:22166  .debug_str:000000000000c6fc .LASF2679
C:\Users\CYMR90~1\AppData\Local\Temp\ccLzUcmd.s:23960  .debug_str:000000000001393b .LASF2680
C:\Users\CYMR90~1\AppData\Local\Temp\ccLzUcmd.s:27149  .debug_str:00000000000206e1 .LASF2681
C:\Users\CYMR90~1\AppData\Local\Temp\ccLzUcmd.s:19076  .debug_str:0000000000000203 .LASF2682
C:\Users\CYMR90~1\AppData\Local\Temp\ccLzUcmd.s:22294  .debug_str:000000000000d01d .LASF2683
C:\Users\CYMR90~1\AppData\Local\Temp\ccLzUcmd.s:25509  .debug_str:0000000000019d4c .LASF2684
C:\Users\CYMR90~1\AppData\Local\Temp\ccLzUcmd.s:19272  .debug_str:0000000000000de5 .LASF2685
C:\Users\CYMR90~1\AppData\Local\Temp\ccLzUcmd.s:28927  .debug_str:0000000000027701 .LASF2686
C:\Users\CYMR90~1\AppData\Local\Temp\ccLzUcmd.s:27301  .debug_str:0000000000020fdd .LASF2687
C:\Users\CYMR90~1\AppData\Local\Temp\ccLzUcmd.s:25741  .debug_str:000000000001ad05 .LASF2688
C:\Users\CYMR90~1\AppData\Local\Temp\ccLzUcmd.s:30127  .debug_str:000000000002c53e .LASF2689
C:\Users\CYMR90~1\AppData\Local\Temp\ccLzUcmd.s:19388  .debug_str:00000000000014f7 .LASF2690
C:\Users\CYMR90~1\AppData\Local\Temp\ccLzUcmd.s:24096  .debug_str:00000000000141c5 .LASF2691
C:\Users\CYMR90~1\AppData\Local\Temp\ccLzUcmd.s:28763  .debug_str:0000000000026c9a .LASF2692
C:\Users\CYMR90~1\AppData\Local\Temp\ccLzUcmd.s:29805  .debug_str:000000000002aedf .LASF2693
C:\Users\CYMR90~1\AppData\Local\Temp\ccLzUcmd.s:26071  .debug_str:000000000001c291 .LASF2694
C:\Users\CYMR90~1\AppData\Local\Temp\ccLzUcmd.s:22344  .debug_str:000000000000d354 .LASF2695
C:\Users\CYMR90~1\AppData\Local\Temp\ccLzUcmd.s:27599  .debug_str:0000000000022268 .LASF2696
C:\Users\CYMR90~1\AppData\Local\Temp\ccLzUcmd.s:19510  .debug_str:0000000000001ce0 .LASF2697
C:\Users\CYMR90~1\AppData\Local\Temp\ccLzUcmd.s:22742  .debug_str:000000000000ec38 .LASF2698
C:\Users\CYMR90~1\AppData\Local\Temp\ccLzUcmd.s:25953  .debug_str:000000000001baf1 .LASF2699
C:\Users\CYMR90~1\AppData\Local\Temp\ccLzUcmd.s:29047  .debug_str:0000000000027f4f .LASF2700
C:\Users\CYMR90~1\AppData\Local\Temp\ccLzUcmd.s:27441  .debug_str:00000000000218ca .LASF2701
C:\Users\CYMR90~1\AppData\Local\Temp\ccLzUcmd.s:24174  .debug_str:00000000000146cc .LASF2702
C:\Users\CYMR90~1\AppData\Local\Temp\ccLzUcmd.s:24214  .debug_str:000000000001491b .LASF2703
C:\Users\CYMR90~1\AppData\Local\Temp\ccLzUcmd.s:19286  .debug_str:0000000000000f3c .LASF2704
C:\Users\CYMR90~1\AppData\Local\Temp\ccLzUcmd.s:22508  .debug_str:000000000000dd6f .LASF2705
C:\Users\CYMR90~1\AppData\Local\Temp\ccLzUcmd.s:24750  .debug_str:0000000000016a9d .LASF2706
C:\Users\CYMR90~1\AppData\Local\Temp\ccLzUcmd.s:27597  .debug_str:0000000000022253 .LASF2707
C:\Users\CYMR90~1\AppData\Local\Temp\ccLzUcmd.s:22844  .debug_str:000000000000f20d .LASF2708
C:\Users\CYMR90~1\AppData\Local\Temp\ccLzUcmd.s:27503  .debug_str:0000000000021ce8 .LASF2709
C:\Users\CYMR90~1\AppData\Local\Temp\ccLzUcmd.s:27665  .debug_str:000000000002261e .LASF2710
C:\Users\CYMR90~1\AppData\Local\Temp\ccLzUcmd.s:25653  .debug_str:000000000001a7c4 .LASF2711
C:\Users\CYMR90~1\AppData\Local\Temp\ccLzUcmd.s:24913  .debug_str:000000000001760b .LASF2712
C:\Users\CYMR90~1\AppData\Local\Temp\ccLzUcmd.s:22616  .debug_str:000000000000e3ec .LASF2713
C:\Users\CYMR90~1\AppData\Local\Temp\ccLzUcmd.s:23798  .debug_str:0000000000012e76 .LASF2714
C:\Users\CYMR90~1\AppData\Local\Temp\ccLzUcmd.s:23762  .debug_str:0000000000012bfc .LASF2715
C:\Users\CYMR90~1\AppData\Local\Temp\ccLzUcmd.s:19846  .debug_str:000000000000315f .LASF2716
C:\Users\CYMR90~1\AppData\Local\Temp\ccLzUcmd.s:19734  .debug_str:0000000000002a47 .LASF2717
C:\Users\CYMR90~1\AppData\Local\Temp\ccLzUcmd.s:27265  .debug_str:0000000000020df5 .LASF2718
C:\Users\CYMR90~1\AppData\Local\Temp\ccLzUcmd.s:28247  .debug_str:0000000000024b0a .LASF2719
C:\Users\CYMR90~1\AppData\Local\Temp\ccLzUcmd.s:27927  .debug_str:00000000000235c1 .LASF2720
C:\Users\CYMR90~1\AppData\Local\Temp\ccLzUcmd.s:21850  .debug_str:000000000000b255 .LASF2721
C:\Users\CYMR90~1\AppData\Local\Temp\ccLzUcmd.s:25053  .debug_str:0000000000017ee1 .LASF2722
C:\Users\CYMR90~1\AppData\Local\Temp\ccLzUcmd.s:28225  .debug_str:0000000000024986 .LASF2723
C:\Users\CYMR90~1\AppData\Local\Temp\ccLzUcmd.s:20134  .debug_str:0000000000004486 .LASF2724
C:\Users\CYMR90~1\AppData\Local\Temp\ccLzUcmd.s:23302  .debug_str:0000000000010d91 .LASF2725
C:\Users\CYMR90~1\AppData\Local\Temp\ccLzUcmd.s:20522  .debug_str:0000000000005cbc .LASF2726
C:\Users\CYMR90~1\AppData\Local\Temp\ccLzUcmd.s:30223  .debug_str:000000000002cb33 .LASF2727
C:\Users\CYMR90~1\AppData\Local\Temp\ccLzUcmd.s:21610  .debug_str:000000000000a28d .LASF2728
C:\Users\CYMR90~1\AppData\Local\Temp\ccLzUcmd.s:24819  .debug_str:0000000000017083 .LASF2729
C:\Users\CYMR90~1\AppData\Local\Temp\ccLzUcmd.s:27995  .debug_str:00000000000239db .LASF2730
C:\Users\CYMR90~1\AppData\Local\Temp\ccLzUcmd.s:26203  .debug_str:000000000001cb09 .LASF2731
C:\Users\CYMR90~1\AppData\Local\Temp\ccLzUcmd.s:19576  .debug_str:00000000000020a5 .LASF2732
C:\Users\CYMR90~1\AppData\Local\Temp\ccLzUcmd.s:24278  .debug_str:0000000000014d2f .LASF2733
C:\Users\CYMR90~1\AppData\Local\Temp\ccLzUcmd.s:28965  .debug_str:00000000000279da .LASF2734
C:\Users\CYMR90~1\AppData\Local\Temp\ccLzUcmd.s:22392  .debug_str:000000000000d6cd .LASF2735
C:\Users\CYMR90~1\AppData\Local\Temp\ccLzUcmd.s:27057  .debug_str:000000000002015d .LASF2736
C:\Users\CYMR90~1\AppData\Local\Temp\ccLzUcmd.s:29627  .debug_str:000000000002a43e .LASF2737
C:\Users\CYMR90~1\AppData\Local\Temp\ccLzUcmd.s:29843  .debug_str:000000000002b178 .LASF2738
C:\Users\CYMR90~1\AppData\Local\Temp\ccLzUcmd.s:25687  .debug_str:000000000001a9ac .LASF2739
C:\Users\CYMR90~1\AppData\Local\Temp\ccLzUcmd.s:20864  .debug_str:0000000000007266 .LASF2740
C:\Users\CYMR90~1\AppData\Local\Temp\ccLzUcmd.s:21168  .debug_str:00000000000086ea .LASF2741
C:\Users\CYMR90~1\AppData\Local\Temp\ccLzUcmd.s:25115  .debug_str:0000000000018275 .LASF2742
C:\Users\CYMR90~1\AppData\Local\Temp\ccLzUcmd.s:29941  .debug_str:000000000002b828 .LASF2743
C:\Users\CYMR90~1\AppData\Local\Temp\ccLzUcmd.s:23538  .debug_str:0000000000011d2a .LASF2744
C:\Users\CYMR90~1\AppData\Local\Temp\ccLzUcmd.s:24382  .debug_str:00000000000153d0 .LASF2745
C:\Users\CYMR90~1\AppData\Local\Temp\ccLzUcmd.s:20560  .debug_str:0000000000005efa .LASF2746
C:\Users\CYMR90~1\AppData\Local\Temp\ccLzUcmd.s:27289  .debug_str:0000000000020f4a .LASF2747
C:\Users\CYMR90~1\AppData\Local\Temp\ccLzUcmd.s:28649  .debug_str:00000000000265b9 .LASF2748
C:\Users\CYMR90~1\AppData\Local\Temp\ccLzUcmd.s:30043  .debug_str:000000000002bf5d .LASF2749
C:\Users\CYMR90~1\AppData\Local\Temp\ccLzUcmd.s:20090  .debug_str:00000000000041bc .LASF2750
C:\Users\CYMR90~1\AppData\Local\Temp\ccLzUcmd.s:23806  .debug_str:0000000000012f04 .LASF2751
C:\Users\CYMR90~1\AppData\Local\Temp\ccLzUcmd.s:29157  .debug_str:0000000000028747 .LASF2752
C:\Users\CYMR90~1\AppData\Local\Temp\ccLzUcmd.s:27117  .debug_str:0000000000020494 .LASF2753
C:\Users\CYMR90~1\AppData\Local\Temp\ccLzUcmd.s:26029  .debug_str:000000000001bfdf .LASF2754
C:\Users\CYMR90~1\AppData\Local\Temp\ccLzUcmd.s:25603  .debug_str:000000000001a441 .LASF2755
C:\Users\CYMR90~1\AppData\Local\Temp\ccLzUcmd.s:25527  .debug_str:0000000000019e3a .LASF2756
C:\Users\CYMR90~1\AppData\Local\Temp\ccLzUcmd.s:27705  .debug_str:0000000000022851 .LASF2757
C:\Users\CYMR90~1\AppData\Local\Temp\ccLzUcmd.s:26023  .debug_str:000000000001bf8c .LASF2758
C:\Users\CYMR90~1\AppData\Local\Temp\ccLzUcmd.s:25179  .debug_str:0000000000018655 .LASF2759
C:\Users\CYMR90~1\AppData\Local\Temp\ccLzUcmd.s:26547  .debug_str:000000000001e20b .LASF2760
C:\Users\CYMR90~1\AppData\Local\Temp\ccLzUcmd.s:23740  .debug_str:0000000000012a90 .LASF2761
C:\Users\CYMR90~1\AppData\Local\Temp\ccLzUcmd.s:22476  .debug_str:000000000000db46 .LASF2762
C:\Users\CYMR90~1\AppData\Local\Temp\ccLzUcmd.s:21604  .debug_str:000000000000a22a .LASF2763
C:\Users\CYMR90~1\AppData\Local\Temp\ccLzUcmd.s:20696  .debug_str:0000000000006796 .LASF2764
C:\Users\CYMR90~1\AppData\Local\Temp\ccLzUcmd.s:19850  .debug_str:0000000000003195 .LASF2765
C:\Users\CYMR90~1\AppData\Local\Temp\ccLzUcmd.s:30259  .debug_str:000000000002cde5 .LASF2766
C:\Users\CYMR90~1\AppData\Local\Temp\ccLzUcmd.s:29403  .debug_str:0000000000029710 .LASF2767
C:\Users\CYMR90~1\AppData\Local\Temp\ccLzUcmd.s:28153  .debug_str:0000000000024494 .LASF2768
C:\Users\CYMR90~1\AppData\Local\Temp\ccLzUcmd.s:20056  .debug_str:0000000000003f37 .LASF2769
C:\Users\CYMR90~1\AppData\Local\Temp\ccLzUcmd.s:23316  .debug_str:0000000000010e43 .LASF2770
C:\Users\CYMR90~1\AppData\Local\Temp\ccLzUcmd.s:26485  .debug_str:000000000001de3d .LASF2771
C:\Users\CYMR90~1\AppData\Local\Temp\ccLzUcmd.s:29691  .debug_str:000000000002a7fd .LASF2772
C:\Users\CYMR90~1\AppData\Local\Temp\ccLzUcmd.s:21622  .debug_str:000000000000a376 .LASF2773
C:\Users\CYMR90~1\AppData\Local\Temp\ccLzUcmd.s:27783  .debug_str:0000000000022d43 .LASF2774
C:\Users\CYMR90~1\AppData\Local\Temp\ccLzUcmd.s:30225  .debug_str:000000000002cb45 .LASF2775
C:\Users\CYMR90~1\AppData\Local\Temp\ccLzUcmd.s:23564  .debug_str:0000000000011f22 .LASF2776
C:\Users\CYMR90~1\AppData\Local\Temp\ccLzUcmd.s:24442  .debug_str:000000000001572e .LASF2777
C:\Users\CYMR90~1\AppData\Local\Temp\ccLzUcmd.s:19664  .debug_str:00000000000025ae .LASF2778
C:\Users\CYMR90~1\AppData\Local\Temp\ccLzUcmd.s:26273  .debug_str:000000000001d0b5 .LASF2779
C:\Users\CYMR90~1\AppData\Local\Temp\ccLzUcmd.s:25657  .debug_str:000000000001a7f2 .LASF2780
C:\Users\CYMR90~1\AppData\Local\Temp\ccLzUcmd.s:25693  .debug_str:000000000001aa37 .LASF2781
C:\Users\CYMR90~1\AppData\Local\Temp\ccLzUcmd.s:24658  .debug_str:00000000000164ae .LASF2782
C:\Users\CYMR90~1\AppData\Local\Temp\ccLzUcmd.s:21914  .debug_str:000000000000b6b7 .LASF2783
C:\Users\CYMR90~1\AppData\Local\Temp\ccLzUcmd.s:24044  .debug_str:0000000000013e4e .LASF2784
C:\Users\CYMR90~1\AppData\Local\Temp\ccLzUcmd.s:28565  .debug_str:0000000000026054 .LASF2785
C:\Users\CYMR90~1\AppData\Local\Temp\ccLzUcmd.s:25859  .debug_str:000000000001b578 .LASF2786
C:\Users\CYMR90~1\AppData\Local\Temp\ccLzUcmd.s:20544  .debug_str:0000000000005e0b .LASF2787
C:\Users\CYMR90~1\AppData\Local\Temp\ccLzUcmd.s:22474  .debug_str:000000000000db24 .LASF2788
C:\Users\CYMR90~1\AppData\Local\Temp\ccLzUcmd.s:24362  .debug_str:00000000000152a8 .LASF2789
C:\Users\CYMR90~1\AppData\Local\Temp\ccLzUcmd.s:28937  .debug_str:00000000000277b4 .LASF2790
C:\Users\CYMR90~1\AppData\Local\Temp\ccLzUcmd.s:22040  .debug_str:000000000000bf50 .LASF2791
C:\Users\CYMR90~1\AppData\Local\Temp\ccLzUcmd.s:22598  .debug_str:000000000000e2ef .LASF2792
C:\Users\CYMR90~1\AppData\Local\Temp\ccLzUcmd.s:26591  .debug_str:000000000001e491 .LASF2793
C:\Users\CYMR90~1\AppData\Local\Temp\ccLzUcmd.s:20304  .debug_str:0000000000004fdd .LASF2794
C:\Users\CYMR90~1\AppData\Local\Temp\ccLzUcmd.s:29799  .debug_str:000000000002ae86 .LASF2795
C:\Users\CYMR90~1\AppData\Local\Temp\ccLzUcmd.s:28009  .debug_str:0000000000023a9d .LASF2796
C:\Users\CYMR90~1\AppData\Local\Temp\ccLzUcmd.s:28803  .debug_str:0000000000026ede .LASF2797
C:\Users\CYMR90~1\AppData\Local\Temp\ccLzUcmd.s:20738  .debug_str:0000000000006a0c .LASF2798
C:\Users\CYMR90~1\AppData\Local\Temp\ccLzUcmd.s:30287  .debug_str:000000000002cf87 .LASF2799
C:\Users\CYMR90~1\AppData\Local\Temp\ccLzUcmd.s:19824  .debug_str:0000000000002fd1 .LASF2800
C:\Users\CYMR90~1\AppData\Local\Temp\ccLzUcmd.s:19554  .debug_str:0000000000001f86 .LASF2801
C:\Users\CYMR90~1\AppData\Local\Temp\ccLzUcmd.s:26617  .debug_str:000000000001e621 .LASF2802
C:\Users\CYMR90~1\AppData\Local\Temp\ccLzUcmd.s:19800  .debug_str:0000000000002e56 .LASF2803
C:\Users\CYMR90~1\AppData\Local\Temp\ccLzUcmd.s:19094  .debug_str:0000000000000325 .LASF2804
C:\Users\CYMR90~1\AppData\Local\Temp\ccLzUcmd.s:30087  .debug_str:000000000002c225 .LASF2805
C:\Users\CYMR90~1\AppData\Local\Temp\ccLzUcmd.s:28701  .debug_str:00000000000268bf .LASF2806
C:\Users\CYMR90~1\AppData\Local\Temp\ccLzUcmd.s:20528  .debug_str:0000000000005d18 .LASF2807
C:\Users\CYMR90~1\AppData\Local\Temp\ccLzUcmd.s:29771  .debug_str:000000000002acf3 .LASF2808
C:\Users\CYMR90~1\AppData\Local\Temp\ccLzUcmd.s:26189  .debug_str:000000000001ca48 .LASF2809
C:\Users\CYMR90~1\AppData\Local\Temp\ccLzUcmd.s:27169  .debug_str:0000000000020824 .LASF2810
C:\Users\CYMR90~1\AppData\Local\Temp\ccLzUcmd.s:22964  .debug_str:000000000000f9d9 .LASF2811
C:\Users\CYMR90~1\AppData\Local\Temp\ccLzUcmd.s:22116  .debug_str:000000000000c3b9 .LASF2812
C:\Users\CYMR90~1\AppData\Local\Temp\ccLzUcmd.s:25919  .debug_str:000000000001b936 .LASF2813
C:\Users\CYMR90~1\AppData\Local\Temp\ccLzUcmd.s:29117  .debug_str:0000000000028470 .LASF2814
C:\Users\CYMR90~1\AppData\Local\Temp\ccLzUcmd.s:27559  .debug_str:0000000000022003 .LASF2815
C:\Users\CYMR90~1\AppData\Local\Temp\ccLzUcmd.s:25911  .debug_str:000000000001b89a .LASF2816
C:\Users\CYMR90~1\AppData\Local\Temp\ccLzUcmd.s:21756  .debug_str:000000000000aba4 .LASF2817
C:\Users\CYMR90~1\AppData\Local\Temp\ccLzUcmd.s:26235  .debug_str:000000000001cd21 .LASF2818
C:\Users\CYMR90~1\AppData\Local\Temp\ccLzUcmd.s:29367  .debug_str:0000000000029496 .LASF2819
C:\Users\CYMR90~1\AppData\Local\Temp\ccLzUcmd.s:28503  .debug_str:0000000000025ca0 .LASF2820
C:\Users\CYMR90~1\AppData\Local\Temp\ccLzUcmd.s:26367  .debug_str:000000000001d639 .LASF2821
C:\Users\CYMR90~1\AppData\Local\Temp\ccLzUcmd.s:29755  .debug_str:000000000002ac11 .LASF2822
C:\Users\CYMR90~1\AppData\Local\Temp\ccLzUcmd.s:29865  .debug_str:000000000002b306 .LASF2823
C:\Users\CYMR90~1\AppData\Local\Temp\ccLzUcmd.s:25047  .debug_str:0000000000017e78 .LASF2824
C:\Users\CYMR90~1\AppData\Local\Temp\ccLzUcmd.s:20016  .debug_str:0000000000003c4a .LASF2825
C:\Users\CYMR90~1\AppData\Local\Temp\ccLzUcmd.s:25279  .debug_str:0000000000018d48 .LASF2826
C:\Users\CYMR90~1\AppData\Local\Temp\ccLzUcmd.s:22668  .debug_str:000000000000e768 .LASF2827
C:\Users\CYMR90~1\AppData\Local\Temp\ccLzUcmd.s:22786  .debug_str:000000000000ee7f .LASF2828
C:\Users\CYMR90~1\AppData\Local\Temp\ccLzUcmd.s:24260  .debug_str:0000000000014bd8 .LASF2829
C:\Users\CYMR90~1\AppData\Local\Temp\ccLzUcmd.s:24158  .debug_str:000000000001459f .LASF2830
C:\Users\CYMR90~1\AppData\Local\Temp\ccLzUcmd.s:22814  .debug_str:000000000000f024 .LASF2831
C:\Users\CYMR90~1\AppData\Local\Temp\ccLzUcmd.s:22498  .debug_str:000000000000dca3 .LASF2832
C:\Users\CYMR90~1\AppData\Local\Temp\ccLzUcmd.s:27943  .debug_str:00000000000236e6 .LASF2833
C:\Users\CYMR90~1\AppData\Local\Temp\ccLzUcmd.s:24853  .debug_str:0000000000017290 .LASF2834
C:\Users\CYMR90~1\AppData\Local\Temp\ccLzUcmd.s:23942  .debug_str:0000000000013842 .LASF2835
C:\Users\CYMR90~1\AppData\Local\Temp\ccLzUcmd.s:21238  .debug_str:0000000000008b5c .LASF2836
C:\Users\CYMR90~1\AppData\Local\Temp\ccLzUcmd.s:29613  .debug_str:000000000002a333 .LASF2837
C:\Users\CYMR90~1\AppData\Local\Temp\ccLzUcmd.s:30079  .debug_str:000000000002c1af .LASF2838
C:\Users\CYMR90~1\AppData\Local\Temp\ccLzUcmd.s:24352  .debug_str:00000000000151ff .LASF2839
C:\Users\CYMR90~1\AppData\Local\Temp\ccLzUcmd.s:20374  .debug_str:00000000000053ef .LASF2840
C:\Users\CYMR90~1\AppData\Local\Temp\ccLzUcmd.s:24532  .debug_str:0000000000015cdd .LASF2841
C:\Users\CYMR90~1\AppData\Local\Temp\ccLzUcmd.s:30045  .debug_str:000000000002bf7d .LASF2842
C:\Users\CYMR90~1\AppData\Local\Temp\ccLzUcmd.s:23172  .debug_str:0000000000010567 .LASF2843
C:\Users\CYMR90~1\AppData\Local\Temp\ccLzUcmd.s:21642  .debug_str:000000000000a4cf .LASF2844
C:\Users\CYMR90~1\AppData\Local\Temp\ccLzUcmd.s:19196  .debug_str:00000000000008e6 .LASF2845
C:\Users\CYMR90~1\AppData\Local\Temp\ccLzUcmd.s:27163  .debug_str:00000000000207a5 .LASF2846
C:\Users\CYMR90~1\AppData\Local\Temp\ccLzUcmd.s:30149  .debug_str:000000000002c64f .LASF2847
C:\Users\CYMR90~1\AppData\Local\Temp\ccLzUcmd.s:28069  .debug_str:0000000000023e2a .LASF2848
C:\Users\CYMR90~1\AppData\Local\Temp\ccLzUcmd.s:19424  .debug_str:00000000000016f8 .LASF2849
C:\Users\CYMR90~1\AppData\Local\Temp\ccLzUcmd.s:28693  .debug_str:0000000000026849 .LASF2850
C:\Users\CYMR90~1\AppData\Local\Temp\ccLzUcmd.s:30265  .debug_str:000000000002ce25 .LASF2851
C:\Users\CYMR90~1\AppData\Local\Temp\ccLzUcmd.s:22686  .debug_str:000000000000e86a .LASF2852
C:\Users\CYMR90~1\AppData\Local\Temp\ccLzUcmd.s:26041  .debug_str:000000000001c0af .LASF2853
C:\Users\CYMR90~1\AppData\Local\Temp\ccLzUcmd.s:27711  .debug_str:00000000000228c5 .LASF2854
C:\Users\CYMR90~1\AppData\Local\Temp\ccLzUcmd.s:23296  .debug_str:0000000000010d3d .LASF2855
C:\Users\CYMR90~1\AppData\Local\Temp\ccLzUcmd.s:22414  .debug_str:000000000000d7fb .LASF2856
C:\Users\CYMR90~1\AppData\Local\Temp\ccLzUcmd.s:29015  .debug_str:0000000000027cf7 .LASF2857
C:\Users\CYMR90~1\AppData\Local\Temp\ccLzUcmd.s:29479  .debug_str:0000000000029b9e .LASF2858
C:\Users\CYMR90~1\AppData\Local\Temp\ccLzUcmd.s:22064  .debug_str:000000000000c0dc .LASF2859
C:\Users\CYMR90~1\AppData\Local\Temp\ccLzUcmd.s:20850  .debug_str:000000000000715d .LASF2860
C:\Users\CYMR90~1\AppData\Local\Temp\ccLzUcmd.s:27313  .debug_str:0000000000021090 .LASF2861
C:\Users\CYMR90~1\AppData\Local\Temp\ccLzUcmd.s:29501  .debug_str:0000000000029ce2 .LASF2862
C:\Users\CYMR90~1\AppData\Local\Temp\ccLzUcmd.s:19808  .debug_str:0000000000002ed8 .LASF2863
C:\Users\CYMR90~1\AppData\Local\Temp\ccLzUcmd.s:22128  .debug_str:000000000000c485 .LASF2864
C:\Users\CYMR90~1\AppData\Local\Temp\ccLzUcmd.s:22622  .debug_str:000000000000e44e .LASF2865
C:\Users\CYMR90~1\AppData\Local\Temp\ccLzUcmd.s:29897  .debug_str:000000000002b53d .LASF2866
C:\Users\CYMR90~1\AppData\Local\Temp\ccLzUcmd.s:20816  .debug_str:0000000000006ef3 .LASF2867
C:\Users\CYMR90~1\AppData\Local\Temp\ccLzUcmd.s:27053  .debug_str:000000000002011e .LASF2868
C:\Users\CYMR90~1\AppData\Local\Temp\ccLzUcmd.s:22994  .debug_str:000000000000fbad .LASF2869
C:\Users\CYMR90~1\AppData\Local\Temp\ccLzUcmd.s:24867  .debug_str:0000000000017367 .LASF2870
C:\Users\CYMR90~1\AppData\Local\Temp\ccLzUcmd.s:21460  .debug_str:0000000000009919 .LASF2871
C:\Users\CYMR90~1\AppData\Local\Temp\ccLzUcmd.s:21564  .debug_str:0000000000009fb8 .LASF2872
C:\Users\CYMR90~1\AppData\Local\Temp\ccLzUcmd.s:22574  .debug_str:000000000000e151 .LASF2873
C:\Users\CYMR90~1\AppData\Local\Temp\ccLzUcmd.s:21674  .debug_str:000000000000a685 .LASF2874
C:\Users\CYMR90~1\AppData\Local\Temp\ccLzUcmd.s:28289  .debug_str:0000000000024dc6 .LASF2875
C:\Users\CYMR90~1\AppData\Local\Temp\ccLzUcmd.s:22738  .debug_str:000000000000ec08 .LASF2876
C:\Users\CYMR90~1\AppData\Local\Temp\ccLzUcmd.s:23312  .debug_str:0000000000010e04 .LASF2877
C:\Users\CYMR90~1\AppData\Local\Temp\ccLzUcmd.s:27679  .debug_str:00000000000226de .LASF2878
C:\Users\CYMR90~1\AppData\Local\Temp\ccLzUcmd.s:21206  .debug_str:0000000000008949 .LASF2879
C:\Users\CYMR90~1\AppData\Local\Temp\ccLzUcmd.s:29971  .debug_str:000000000002ba22 .LASF2880
C:\Users\CYMR90~1\AppData\Local\Temp\ccLzUcmd.s:29137  .debug_str:00000000000285ef .LASF2881
C:\Users\CYMR90~1\AppData\Local\Temp\ccLzUcmd.s:29395  .debug_str:00000000000296ad .LASF2882
C:\Users\CYMR90~1\AppData\Local\Temp\ccLzUcmd.s:20064  .debug_str:0000000000003fb9 .LASF2883
C:\Users\CYMR90~1\AppData\Local\Temp\ccLzUcmd.s:26093  .debug_str:000000000001c3d8 .LASF2884
C:\Users\CYMR90~1\AppData\Local\Temp\ccLzUcmd.s:25901  .debug_str:000000000001b7fe .LASF2885
C:\Users\CYMR90~1\AppData\Local\Temp\ccLzUcmd.s:28305  .debug_str:0000000000024e7a .LASF2886
C:\Users\CYMR90~1\AppData\Local\Temp\ccLzUcmd.s:22420  .debug_str:000000000000d840 .LASF2887
C:\Users\CYMR90~1\AppData\Local\Temp\ccLzUcmd.s:25515  .debug_str:0000000000019d98 .LASF2888
C:\Users\CYMR90~1\AppData\Local\Temp\ccLzUcmd.s:19328  .debug_str:00000000000011a1 .LASF2889
C:\Users\CYMR90~1\AppData\Local\Temp\ccLzUcmd.s:22784  .debug_str:000000000000ee65 .LASF2890
C:\Users\CYMR90~1\AppData\Local\Temp\ccLzUcmd.s:26097  .debug_str:000000000001c40c .LASF2891
C:\Users\CYMR90~1\AppData\Local\Temp\ccLzUcmd.s:29413  .debug_str:0000000000029788 .LASF2892
C:\Users\CYMR90~1\AppData\Local\Temp\ccLzUcmd.s:19464  .debug_str:0000000000001a1d .LASF2893
C:\Users\CYMR90~1\AppData\Local\Temp\ccLzUcmd.s:21530  .debug_str:0000000000009d82 .LASF2894
C:\Users\CYMR90~1\AppData\Local\Temp\ccLzUcmd.s:28833  .debug_str:0000000000027189 .LASF2895
C:\Users\CYMR90~1\AppData\Local\Temp\ccLzUcmd.s:21092  .debug_str:0000000000008271 .LASF2896
C:\Users\CYMR90~1\AppData\Local\Temp\ccLzUcmd.s:22582  .debug_str:000000000000e1e3 .LASF2897
C:\Users\CYMR90~1\AppData\Local\Temp\ccLzUcmd.s:28073  .debug_str:0000000000023e6f .LASF2898
C:\Users\CYMR90~1\AppData\Local\Temp\ccLzUcmd.s:25449  .debug_str:0000000000019950 .LASF2899
C:\Users\CYMR90~1\AppData\Local\Temp\ccLzUcmd.s:26919  .debug_str:000000000001f8af .LASF2900
C:\Users\CYMR90~1\AppData\Local\Temp\ccLzUcmd.s:26841  .debug_str:000000000001f3ea .LASF2901
C:\Users\CYMR90~1\AppData\Local\Temp\ccLzUcmd.s:21066  .debug_str:0000000000008014 .LASF2902
C:\Users\CYMR90~1\AppData\Local\Temp\ccLzUcmd.s:29029  .debug_str:0000000000027dec .LASF2903
C:\Users\CYMR90~1\AppData\Local\Temp\ccLzUcmd.s:28521  .debug_str:0000000000025dd4 .LASF2904
C:\Users\CYMR90~1\AppData\Local\Temp\ccLzUcmd.s:28299  .debug_str:0000000000024e35 .LASF2905
C:\Users\CYMR90~1\AppData\Local\Temp\ccLzUcmd.s:28201  .debug_str:000000000002483f .LASF2906
C:\Users\CYMR90~1\AppData\Local\Temp\ccLzUcmd.s:27291  .debug_str:0000000000020f6a .LASF2907
C:\Users\CYMR90~1\AppData\Local\Temp\ccLzUcmd.s:23282  .debug_str:0000000000010c78 .LASF2908
C:\Users\CYMR90~1\AppData\Local\Temp\ccLzUcmd.s:28769  .debug_str:0000000000026d02 .LASF2909
C:\Users\CYMR90~1\AppData\Local\Temp\ccLzUcmd.s:27947  .debug_str:0000000000023723 .LASF2910
C:\Users\CYMR90~1\AppData\Local\Temp\ccLzUcmd.s:24809  .debug_str:0000000000017001 .LASF2911
C:\Users\CYMR90~1\AppData\Local\Temp\ccLzUcmd.s:24552  .debug_str:0000000000015e4c .LASF2912
C:\Users\CYMR90~1\AppData\Local\Temp\ccLzUcmd.s:26797  .debug_str:000000000001f142 .LASF2913
C:\Users\CYMR90~1\AppData\Local\Temp\ccLzUcmd.s:23242  .debug_str:00000000000109c4 .LASF2914
C:\Users\CYMR90~1\AppData\Local\Temp\ccLzUcmd.s:23370  .debug_str:0000000000011199 .LASF2915
C:\Users\CYMR90~1\AppData\Local\Temp\ccLzUcmd.s:22754  .debug_str:000000000000ecd5 .LASF2916
C:\Users\CYMR90~1\AppData\Local\Temp\ccLzUcmd.s:22892  .debug_str:000000000000f50b .LASF2917
C:\Users\CYMR90~1\AppData\Local\Temp\ccLzUcmd.s:26535  .debug_str:000000000001e14b .LASF2918
C:\Users\CYMR90~1\AppData\Local\Temp\ccLzUcmd.s:29155  .debug_str:000000000002872e .LASF2919
C:\Users\CYMR90~1\AppData\Local\Temp\ccLzUcmd.s:24674  .debug_str:00000000000165ad .LASF2920
C:\Users\CYMR90~1\AppData\Local\Temp\ccLzUcmd.s:28065  .debug_str:0000000000023dd9 .LASF2921
C:\Users\CYMR90~1\AppData\Local\Temp\ccLzUcmd.s:25551  .debug_str:0000000000019faf .LASF2922
C:\Users\CYMR90~1\AppData\Local\Temp\ccLzUcmd.s:20842  .debug_str:00000000000070b5 .LASF2923
C:\Users\CYMR90~1\AppData\Local\Temp\ccLzUcmd.s:29203  .debug_str:0000000000028a24 .LASF2924
C:\Users\CYMR90~1\AppData\Local\Temp\ccLzUcmd.s:21582  .debug_str:000000000000a0c8 .LASF2925
C:\Users\CYMR90~1\AppData\Local\Temp\ccLzUcmd.s:24048  .debug_str:0000000000013e84 .LASF2926
C:\Users\CYMR90~1\AppData\Local\Temp\ccLzUcmd.s:24342  .debug_str:000000000001516a .LASF2927
C:\Users\CYMR90~1\AppData\Local\Temp\ccLzUcmd.s:24404  .debug_str:0000000000015520 .LASF2928
C:\Users\CYMR90~1\AppData\Local\Temp\ccLzUcmd.s:27237  .debug_str:0000000000020c4d .LASF2929
C:\Users\CYMR90~1\AppData\Local\Temp\ccLzUcmd.s:25205  .debug_str:00000000000187e6 .LASF2930
C:\Users\CYMR90~1\AppData\Local\Temp\ccLzUcmd.s:22716  .debug_str:000000000000ea55 .LASF2931
C:\Users\CYMR90~1\AppData\Local\Temp\ccLzUcmd.s:29297  .debug_str:0000000000028fd7 .LASF2932
C:\Users\CYMR90~1\AppData\Local\Temp\ccLzUcmd.s:27729  .debug_str:00000000000229b5 .LASF2933
C:\Users\CYMR90~1\AppData\Local\Temp\ccLzUcmd.s:22140  .debug_str:000000000000c53e .LASF2934
C:\Users\CYMR90~1\AppData\Local\Temp\ccLzUcmd.s:30099  .debug_str:000000000002c354 .LASF2935
C:\Users\CYMR90~1\AppData\Local\Temp\ccLzUcmd.s:29723  .debug_str:000000000002aa03 .LASF2936
C:\Users\CYMR90~1\AppData\Local\Temp\ccLzUcmd.s:28815  .debug_str:0000000000026fb9 .LASF2937
C:\Users\CYMR90~1\AppData\Local\Temp\ccLzUcmd.s:19888  .debug_str:00000000000033fa .LASF2938
C:\Users\CYMR90~1\AppData\Local\Temp\ccLzUcmd.s:22038  .debug_str:000000000000bf28 .LASF2939
C:\Users\CYMR90~1\AppData\Local\Temp\ccLzUcmd.s:25517  .debug_str:0000000000019db6 .LASF2940
C:\Users\CYMR90~1\AppData\Local\Temp\ccLzUcmd.s:24354  .debug_str:000000000001522a .LASF2941
C:\Users\CYMR90~1\AppData\Local\Temp\ccLzUcmd.s:25269  .debug_str:0000000000018cc6 .LASF2942
C:\Users\CYMR90~1\AppData\Local\Temp\ccLzUcmd.s:26925  .debug_str:000000000001f914 .LASF2943
C:\Users\CYMR90~1\AppData\Local\Temp\ccLzUcmd.s:28161  .debug_str:0000000000024520 .LASF2944
C:\Users\CYMR90~1\AppData\Local\Temp\ccLzUcmd.s:25395  .debug_str:000000000001953a .LASF2945
C:\Users\CYMR90~1\AppData\Local\Temp\ccLzUcmd.s:22402  .debug_str:000000000000d734 .LASF2946
C:\Users\CYMR90~1\AppData\Local\Temp\ccLzUcmd.s:24102  .debug_str:000000000001420b .LASF2947
C:\Users\CYMR90~1\AppData\Local\Temp\ccLzUcmd.s:22802  .debug_str:000000000000ef76 .LASF2948
C:\Users\CYMR90~1\AppData\Local\Temp\ccLzUcmd.s:27119  .debug_str:00000000000204b9 .LASF2949
C:\Users\CYMR90~1\AppData\Local\Temp\ccLzUcmd.s:24430  .debug_str:0000000000015679 .LASF2950
C:\Users\CYMR90~1\AppData\Local\Temp\ccLzUcmd.s:20586  .debug_str:000000000000609c .LASF2951
C:\Users\CYMR90~1\AppData\Local\Temp\ccLzUcmd.s:22880  .debug_str:000000000000f442 .LASF2952
C:\Users\CYMR90~1\AppData\Local\Temp\ccLzUcmd.s:25083  .debug_str:000000000001806a .LASF2953
C:\Users\CYMR90~1\AppData\Local\Temp\ccLzUcmd.s:19876  .debug_str:0000000000003344 .LASF2954
C:\Users\CYMR90~1\AppData\Local\Temp\ccLzUcmd.s:23244  .debug_str:00000000000109dc .LASF2955
C:\Users\CYMR90~1\AppData\Local\Temp\ccLzUcmd.s:22282  .debug_str:000000000000cf64 .LASF2956
C:\Users\CYMR90~1\AppData\Local\Temp\ccLzUcmd.s:21304  .debug_str:0000000000008f9a .LASF2957
C:\Users\CYMR90~1\AppData\Local\Temp\ccLzUcmd.s:20384  .debug_str:00000000000054a2 .LASF2958
C:\Users\CYMR90~1\AppData\Local\Temp\ccLzUcmd.s:19448  .debug_str:0000000000001932 .LASF2959
C:\Users\CYMR90~1\AppData\Local\Temp\ccLzUcmd.s:29783  .debug_str:000000000002adba .LASF2960
C:\Users\CYMR90~1\AppData\Local\Temp\ccLzUcmd.s:27377  .debug_str:0000000000021510 .LASF2961
C:\Users\CYMR90~1\AppData\Local\Temp\ccLzUcmd.s:26425  .debug_str:000000000001da32 .LASF2962
C:\Users\CYMR90~1\AppData\Local\Temp\ccLzUcmd.s:25595  .debug_str:000000000001a22e .LASF2963
C:\Users\CYMR90~1\AppData\Local\Temp\ccLzUcmd.s:24594  .debug_str:0000000000016132 .LASF2964
C:\Users\CYMR90~1\AppData\Local\Temp\ccLzUcmd.s:23652  .debug_str:00000000000124a9 .LASF2965
C:\Users\CYMR90~1\AppData\Local\Temp\ccLzUcmd.s:22678  .debug_str:000000000000e7f9 .LASF2966
C:\Users\CYMR90~1\AppData\Local\Temp\ccLzUcmd.s:27137  .debug_str:000000000002061d .LASF2967
C:\Users\CYMR90~1\AppData\Local\Temp\ccLzUcmd.s:28761  .debug_str:0000000000026c6d .LASF2968
C:\Users\CYMR90~1\AppData\Local\Temp\ccLzUcmd.s:28551  .debug_str:0000000000025f97 .LASF2969
C:\Users\CYMR90~1\AppData\Local\Temp\ccLzUcmd.s:23146  .debug_str:00000000000103cd .LASF2970
C:\Users\CYMR90~1\AppData\Local\Temp\ccLzUcmd.s:21716  .debug_str:000000000000a91e .LASF2971
C:\Users\CYMR90~1\AppData\Local\Temp\ccLzUcmd.s:20896  .debug_str:0000000000007490 .LASF2972
C:\Users\CYMR90~1\AppData\Local\Temp\ccLzUcmd.s:27461  .debug_str:00000000000219fc .LASF2973
C:\Users\CYMR90~1\AppData\Local\Temp\ccLzUcmd.s:27847  .debug_str:00000000000230af .LASF2974
C:\Users\CYMR90~1\AppData\Local\Temp\ccLzUcmd.s:22176  .debug_str:000000000000c7ea .LASF2975
C:\Users\CYMR90~1\AppData\Local\Temp\ccLzUcmd.s:29879  .debug_str:000000000002b40f .LASF2976
C:\Users\CYMR90~1\AppData\Local\Temp\ccLzUcmd.s:20234  .debug_str:0000000000004b83 .LASF2977
C:\Users\CYMR90~1\AppData\Local\Temp\ccLzUcmd.s:26179  .debug_str:000000000001c9a5 .LASF2978
C:\Users\CYMR90~1\AppData\Local\Temp\ccLzUcmd.s:20614  .debug_str:000000000000625a .LASF2979
C:\Users\CYMR90~1\AppData\Local\Temp\ccLzUcmd.s:19756  .debug_str:0000000000002b9f .LASF2980
C:\Users\CYMR90~1\AppData\Local\Temp\ccLzUcmd.s:30097  .debug_str:000000000002c327 .LASF2981
C:\Users\CYMR90~1\AppData\Local\Temp\ccLzUcmd.s:29127  .debug_str:0000000000028521 .LASF2982
C:\Users\CYMR90~1\AppData\Local\Temp\ccLzUcmd.s:26037  .debug_str:000000000001c076 .LASF2983
C:\Users\CYMR90~1\AppData\Local\Temp\ccLzUcmd.s:26017  .debug_str:000000000001bf32 .LASF2984
C:\Users\CYMR90~1\AppData\Local\Temp\ccLzUcmd.s:27819  .debug_str:0000000000022f28 .LASF2985
C:\Users\CYMR90~1\AppData\Local\Temp\ccLzUcmd.s:26317  .debug_str:000000000001d349 .LASF2986
C:\Users\CYMR90~1\AppData\Local\Temp\ccLzUcmd.s:19134  .debug_str:0000000000000559 .LASF2987
C:\Users\CYMR90~1\AppData\Local\Temp\ccLzUcmd.s:23828  .debug_str:000000000001308f .LASF2988
C:\Users\CYMR90~1\AppData\Local\Temp\ccLzUcmd.s:28501  .debug_str:0000000000025c7e .LASF2989
C:\Users\CYMR90~1\AppData\Local\Temp\ccLzUcmd.s:23736  .debug_str:0000000000012a5c .LASF2990
C:\Users\CYMR90~1\AppData\Local\Temp\ccLzUcmd.s:20606  .debug_str:00000000000061d3 .LASF2991
C:\Users\CYMR90~1\AppData\Local\Temp\ccLzUcmd.s:21188  .debug_str:0000000000008821 .LASF2992
C:\Users\CYMR90~1\AppData\Local\Temp\ccLzUcmd.s:23490  .debug_str:0000000000011a4c .LASF2993
C:\Users\CYMR90~1\AppData\Local\Temp\ccLzUcmd.s:22034  .debug_str:000000000000bef6 .LASF2994
C:\Users\CYMR90~1\AppData\Local\Temp\ccLzUcmd.s:25883  .debug_str:000000000001b6dd .LASF2995
C:\Users\CYMR90~1\AppData\Local\Temp\ccLzUcmd.s:22390  .debug_str:000000000000d6af .LASF2996
C:\Users\CYMR90~1\AppData\Local\Temp\ccLzUcmd.s:21372  .debug_str:0000000000009378 .LASF2997
C:\Users\CYMR90~1\AppData\Local\Temp\ccLzUcmd.s:28211  .debug_str:00000000000248b4 .LASF2998
C:\Users\CYMR90~1\AppData\Local\Temp\ccLzUcmd.s:23536  .debug_str:0000000000011d0a .LASF2999
C:\Users\CYMR90~1\AppData\Local\Temp\ccLzUcmd.s:27815  .debug_str:0000000000022efd .LASF3000
C:\Users\CYMR90~1\AppData\Local\Temp\ccLzUcmd.s:21702  .debug_str:000000000000a862 .LASF3001
C:\Users\CYMR90~1\AppData\Local\Temp\ccLzUcmd.s:25463  .debug_str:0000000000019a5d .LASF3002
C:\Users\CYMR90~1\AppData\Local\Temp\ccLzUcmd.s:28723  .debug_str:00000000000269f2 .LASF3003
C:\Users\CYMR90~1\AppData\Local\Temp\ccLzUcmd.s:22418  .debug_str:000000000000d81b .LASF3004
C:\Users\CYMR90~1\AppData\Local\Temp\ccLzUcmd.s:20498  .debug_str:0000000000005b89 .LASF3005
C:\Users\CYMR90~1\AppData\Local\Temp\ccLzUcmd.s:22018  .debug_str:000000000000bdbf .LASF3006
C:\Users\CYMR90~1\AppData\Local\Temp\ccLzUcmd.s:27101  .debug_str:0000000000020390 .LASF3007
C:\Users\CYMR90~1\AppData\Local\Temp\ccLzUcmd.s:22704  .debug_str:000000000000e9be .LASF3008
C:\Users\CYMR90~1\AppData\Local\Temp\ccLzUcmd.s:19284  .debug_str:0000000000000f1f .LASF3009
C:\Users\CYMR90~1\AppData\Local\Temp\ccLzUcmd.s:29919  .debug_str:000000000002b69a .LASF3010
C:\Users\CYMR90~1\AppData\Local\Temp\ccLzUcmd.s:29517  .debug_str:0000000000029dae .LASF3011
C:\Users\CYMR90~1\AppData\Local\Temp\ccLzUcmd.s:19856  .debug_str:00000000000031f0 .LASF3012
C:\Users\CYMR90~1\AppData\Local\Temp\ccLzUcmd.s:28063  .debug_str:0000000000023dc1 .LASF3013
C:\Users\CYMR90~1\AppData\Local\Temp\ccLzUcmd.s:26551  .debug_str:000000000001e241 .LASF3014
C:\Users\CYMR90~1\AppData\Local\Temp\ccLzUcmd.s:26931  .debug_str:000000000001f95e .LASF3015
C:\Users\CYMR90~1\AppData\Local\Temp\ccLzUcmd.s:28877  .debug_str:0000000000027414 .LASF3016
C:\Users\CYMR90~1\AppData\Local\Temp\ccLzUcmd.s:24128  .debug_str:0000000000014386 .LASF3017
C:\Users\CYMR90~1\AppData\Local\Temp\ccLzUcmd.s:24696  .debug_str:00000000000166d9 .LASF3018
C:\Users\CYMR90~1\AppData\Local\Temp\ccLzUcmd.s:19546  .debug_str:0000000000001f00 .LASF3019
C:\Users\CYMR90~1\AppData\Local\Temp\ccLzUcmd.s:26917  .debug_str:000000000001f875 .LASF3020
C:\Users\CYMR90~1\AppData\Local\Temp\ccLzUcmd.s:26867  .debug_str:000000000001f5a2 .LASF3021
C:\Users\CYMR90~1\AppData\Local\Temp\ccLzUcmd.s:25991  .debug_str:000000000001bd63 .LASF3022
C:\Users\CYMR90~1\AppData\Local\Temp\ccLzUcmd.s:19718  .debug_str:0000000000002952 .LASF3023
C:\Users\CYMR90~1\AppData\Local\Temp\ccLzUcmd.s:28373  .debug_str:00000000000253ed .LASF3024
C:\Users\CYMR90~1\AppData\Local\Temp\ccLzUcmd.s:22310  .debug_str:000000000000d0ff .LASF3025
C:\Users\CYMR90~1\AppData\Local\Temp\ccLzUcmd.s:20062  .debug_str:0000000000003f93 .LASF3026
C:\Users\CYMR90~1\AppData\Local\Temp\ccLzUcmd.s:19804  .debug_str:0000000000002e8d .LASF3027
C:\Users\CYMR90~1\AppData\Local\Temp\ccLzUcmd.s:21202  .debug_str:000000000000890b .LASF3028
C:\Users\CYMR90~1\AppData\Local\Temp\ccLzUcmd.s:26541  .debug_str:000000000001e1a3 .LASF3029
C:\Users\CYMR90~1\AppData\Local\Temp\ccLzUcmd.s:27657  .debug_str:0000000000022594 .LASF3030
C:\Users\CYMR90~1\AppData\Local\Temp\ccLzUcmd.s:21574  .debug_str:000000000000a055 .LASF3031
C:\Users\CYMR90~1\AppData\Local\Temp\ccLzUcmd.s:23248  .debug_str:0000000000010a21 .LASF3032
C:\Users\CYMR90~1\AppData\Local\Temp\ccLzUcmd.s:24490  .debug_str:0000000000015a11 .LASF3033
C:\Users\CYMR90~1\AppData\Local\Temp\ccLzUcmd.s:22544  .debug_str:000000000000df8e .LASF3034
C:\Users\CYMR90~1\AppData\Local\Temp\ccLzUcmd.s:25769  .debug_str:000000000001af2e .LASF3035
C:\Users\CYMR90~1\AppData\Local\Temp\ccLzUcmd.s:25425  .debug_str:0000000000019713 .LASF3036
C:\Users\CYMR90~1\AppData\Local\Temp\ccLzUcmd.s:22026  .debug_str:000000000000be4e .LASF3037
C:\Users\CYMR90~1\AppData\Local\Temp\ccLzUcmd.s:27123  .debug_str:00000000000204fb .LASF3038
C:\Users\CYMR90~1\AppData\Local\Temp\ccLzUcmd.s:24977  .debug_str:0000000000017a58 .LASF3039
C:\Users\CYMR90~1\AppData\Local\Temp\ccLzUcmd.s:29121  .debug_str:00000000000284af .LASF3040
C:\Users\CYMR90~1\AppData\Local\Temp\ccLzUcmd.s:26643  .debug_str:000000000001e7c4 .LASF3041
C:\Users\CYMR90~1\AppData\Local\Temp\ccLzUcmd.s:25967  .debug_str:000000000001bba4 .LASF3042
C:\Users\CYMR90~1\AppData\Local\Temp\ccLzUcmd.s:28999  .debug_str:0000000000027bf7 .LASF3043
C:\Users\CYMR90~1\AppData\Local\Temp\ccLzUcmd.s:19572  .debug_str:0000000000002074 .LASF3044
C:\Users\CYMR90~1\AppData\Local\Temp\ccLzUcmd.s:22728  .debug_str:000000000000eb6f .LASF3045
C:\Users\CYMR90~1\AppData\Local\Temp\ccLzUcmd.s:22772  .debug_str:000000000000edbe .LASF3046
C:\Users\CYMR90~1\AppData\Local\Temp\ccLzUcmd.s:28637  .debug_str:00000000000264d7 .LASF3047
C:\Users\CYMR90~1\AppData\Local\Temp\ccLzUcmd.s:29005  .debug_str:0000000000027c57 .LASF3048
C:\Users\CYMR90~1\AppData\Local\Temp\ccLzUcmd.s:25071  .debug_str:0000000000017fd2 .LASF3049
C:\Users\CYMR90~1\AppData\Local\Temp\ccLzUcmd.s:27763  .debug_str:0000000000022c30 .LASF3050
C:\Users\CYMR90~1\AppData\Local\Temp\ccLzUcmd.s:19404  .debug_str:00000000000015b6 .LASF3051
C:\Users\CYMR90~1\AppData\Local\Temp\ccLzUcmd.s:19712  .debug_str:00000000000028f6 .LASF3052
C:\Users\CYMR90~1\AppData\Local\Temp\ccLzUcmd.s:29591  .debug_str:000000000002a1c2 .LASF3053
C:\Users\CYMR90~1\AppData\Local\Temp\ccLzUcmd.s:20590  .debug_str:0000000000006106 .LASF3054
C:\Users\CYMR90~1\AppData\Local\Temp\ccLzUcmd.s:23832  .debug_str:00000000000130d1 .LASF3055
C:\Users\CYMR90~1\AppData\Local\Temp\ccLzUcmd.s:22380  .debug_str:000000000000d5f7 .LASF3056
C:\Users\CYMR90~1\AppData\Local\Temp\ccLzUcmd.s:27337  .debug_str:00000000000211f6 .LASF3057
C:\Users\CYMR90~1\AppData\Local\Temp\ccLzUcmd.s:25433  .debug_str:00000000000197d2 .LASF3058
C:\Users\CYMR90~1\AppData\Local\Temp\ccLzUcmd.s:21552  .debug_str:0000000000009ee0 .LASF3059
C:\Users\CYMR90~1\AppData\Local\Temp\ccLzUcmd.s:21308  .debug_str:0000000000008fd7 .LASF3060
C:\Users\CYMR90~1\AppData\Local\Temp\ccLzUcmd.s:21898  .debug_str:000000000000b597 .LASF3061
C:\Users\CYMR90~1\AppData\Local\Temp\ccLzUcmd.s:20140  .debug_str:00000000000044e2 .LASF3062
C:\Users\CYMR90~1\AppData\Local\Temp\ccLzUcmd.s:23266  .debug_str:0000000000010bb1 .LASF3063
C:\Users\CYMR90~1\AppData\Local\Temp\ccLzUcmd.s:24959  .debug_str:000000000001794f .LASF3064
C:\Users\CYMR90~1\AppData\Local\Temp\ccLzUcmd.s:21178  .debug_str:0000000000008775 .LASF3065
C:\Users\CYMR90~1\AppData\Local\Temp\ccLzUcmd.s:21976  .debug_str:000000000000ba9a .LASF3066
C:\Users\CYMR90~1\AppData\Local\Temp\ccLzUcmd.s:21924  .debug_str:000000000000b765 .LASF3067
C:\Users\CYMR90~1\AppData\Local\Temp\ccLzUcmd.s:24857  .debug_str:00000000000172cb .LASF3068
C:\Users\CYMR90~1\AppData\Local\Temp\ccLzUcmd.s:28719  .debug_str:00000000000269b9 .LASF3069
C:\Users\CYMR90~1\AppData\Local\Temp\ccLzUcmd.s:21650  .debug_str:000000000000a53a .LASF3070
C:\Users\CYMR90~1\AppData\Local\Temp\ccLzUcmd.s:19688  .debug_str:0000000000002743 .LASF3071
C:\Users\CYMR90~1\AppData\Local\Temp\ccLzUcmd.s:26671  .debug_str:000000000001e996 .LASF3072
C:\Users\CYMR90~1\AppData\Local\Temp\ccLzUcmd.s:19368  .debug_str:00000000000013dd .LASF3073
C:\Users\CYMR90~1\AppData\Local\Temp\ccLzUcmd.s:25253  .debug_str:0000000000018b27 .LASF3074
C:\Users\CYMR90~1\AppData\Local\Temp\ccLzUcmd.s:19476  .debug_str:0000000000001ad7 .LASF3075
C:\Users\CYMR90~1\AppData\Local\Temp\ccLzUcmd.s:30179  .debug_str:000000000002c87f .LASF3076
C:\Users\CYMR90~1\AppData\Local\Temp\ccLzUcmd.s:24410  .debug_str:0000000000015564 .LASF3077
C:\Users\CYMR90~1\AppData\Local\Temp\ccLzUcmd.s:28159  .debug_str:0000000000024509 .LASF3078
C:\Users\CYMR90~1\AppData\Local\Temp\ccLzUcmd.s:21588  .debug_str:000000000000a129 .LASF3079
C:\Users\CYMR90~1\AppData\Local\Temp\ccLzUcmd.s:19504  .debug_str:0000000000001c95 .LASF3080
C:\Users\CYMR90~1\AppData\Local\Temp\ccLzUcmd.s:20612  .debug_str:0000000000006241 .LASF3081
C:\Users\CYMR90~1\AppData\Local\Temp\ccLzUcmd.s:25847  .debug_str:000000000001b4be .LASF3082
C:\Users\CYMR90~1\AppData\Local\Temp\ccLzUcmd.s:23950  .debug_str:00000000000138b4 .LASF3083
C:\Users\CYMR90~1\AppData\Local\Temp\ccLzUcmd.s:21314  .debug_str:000000000000903a .LASF3084
C:\Users\CYMR90~1\AppData\Local\Temp\ccLzUcmd.s:20362  .debug_str:0000000000005348 .LASF3085
C:\Users\CYMR90~1\AppData\Local\Temp\ccLzUcmd.s:29679  .debug_str:000000000002a76c .LASF3086
C:\Users\CYMR90~1\AppData\Local\Temp\ccLzUcmd.s:22046  .debug_str:000000000000bf98 .LASF3087
C:\Users\CYMR90~1\AppData\Local\Temp\ccLzUcmd.s:19726  .debug_str:00000000000029cd .LASF3088
C:\Users\CYMR90~1\AppData\Local\Temp\ccLzUcmd.s:27619  .debug_str:0000000000022377 .LASF3089
C:\Users\CYMR90~1\AppData\Local\Temp\ccLzUcmd.s:24312  .debug_str:0000000000014f82 .LASF3090
C:\Users\CYMR90~1\AppData\Local\Temp\ccLzUcmd.s:20892  .debug_str:0000000000007449 .LASF3091
C:\Users\CYMR90~1\AppData\Local\Temp\ccLzUcmd.s:25825  .debug_str:000000000001b2e6 .LASF3092
C:\Users\CYMR90~1\AppData\Local\Temp\ccLzUcmd.s:20496  .debug_str:0000000000005b6a .LASF3093
C:\Users\CYMR90~1\AppData\Local\Temp\ccLzUcmd.s:21406  .debug_str:00000000000095b2 .LASF3094
C:\Users\CYMR90~1\AppData\Local\Temp\ccLzUcmd.s:23670  .debug_str:00000000000125e8 .LASF3095
C:\Users\CYMR90~1\AppData\Local\Temp\ccLzUcmd.s:27635  .debug_str:0000000000022432 .LASF3096
C:\Users\CYMR90~1\AppData\Local\Temp\ccLzUcmd.s:28985  .debug_str:0000000000027b1f .LASF3097
C:\Users\CYMR90~1\AppData\Local\Temp\ccLzUcmd.s:25061  .debug_str:0000000000017f46 .LASF3098
C:\Users\CYMR90~1\AppData\Local\Temp\ccLzUcmd.s:23888  .debug_str:00000000000134fb .LASF3099
C:\Users\CYMR90~1\AppData\Local\Temp\ccLzUcmd.s:27633  .debug_str:0000000000022419 .LASF3100
C:\Users\CYMR90~1\AppData\Local\Temp\ccLzUcmd.s:29423  .debug_str:0000000000029822 .LASF3101
C:\Users\CYMR90~1\AppData\Local\Temp\ccLzUcmd.s:25681  .debug_str:000000000001a959 .LASF3102
C:\Users\CYMR90~1\AppData\Local\Temp\ccLzUcmd.s:20750  .debug_str:0000000000006adb .LASF3103
C:\Users\CYMR90~1\AppData\Local\Temp\ccLzUcmd.s:20368  .debug_str:000000000000538c .LASF3104
C:\Users\CYMR90~1\AppData\Local\Temp\ccLzUcmd.s:26589  .debug_str:000000000001e474 .LASF3105
C:\Users\CYMR90~1\AppData\Local\Temp\ccLzUcmd.s:22602  .debug_str:000000000000e315 .LASF3106
C:\Users\CYMR90~1\AppData\Local\Temp\ccLzUcmd.s:27835  .debug_str:0000000000022ffe .LASF3107
C:\Users\CYMR90~1\AppData\Local\Temp\ccLzUcmd.s:24915  .debug_str:0000000000017644 .LASF3108
C:\Users\CYMR90~1\AppData\Local\Temp\ccLzUcmd.s:28275  .debug_str:0000000000024cde .LASF3109
C:\Users\CYMR90~1\AppData\Local\Temp\ccLzUcmd.s:27673  .debug_str:000000000002268e .LASF3110
C:\Users\CYMR90~1\AppData\Local\Temp\ccLzUcmd.s:24973  .debug_str:0000000000017a2f .LASF3111
C:\Users\CYMR90~1\AppData\Local\Temp\ccLzUcmd.s:29855  .debug_str:000000000002b252 .LASF3112
C:\Users\CYMR90~1\AppData\Local\Temp\ccLzUcmd.s:30151  .debug_str:000000000002c679 .LASF3113
C:\Users\CYMR90~1\AppData\Local\Temp\ccLzUcmd.s:28569  .debug_str:0000000000026091 .LASF3114
C:\Users\CYMR90~1\AppData\Local\Temp\ccLzUcmd.s:20022  .debug_str:0000000000003cbd .LASF3115
C:\Users\CYMR90~1\AppData\Local\Temp\ccLzUcmd.s:22822  .debug_str:000000000000f0a0 .LASF3116
C:\Users\CYMR90~1\AppData\Local\Temp\ccLzUcmd.s:19992  .debug_str:0000000000003ad5 .LASF3117
C:\Users\CYMR90~1\AppData\Local\Temp\ccLzUcmd.s:23382  .debug_str:0000000000011239 .LASF3118
C:\Users\CYMR90~1\AppData\Local\Temp\ccLzUcmd.s:23204  .debug_str:0000000000010762 .LASF3119
C:\Users\CYMR90~1\AppData\Local\Temp\ccLzUcmd.s:20720  .debug_str:00000000000068fb .LASF3120
C:\Users\CYMR90~1\AppData\Local\Temp\ccLzUcmd.s:23586  .debug_str:00000000000120a7 .LASF3121
C:\Users\CYMR90~1\AppData\Local\Temp\ccLzUcmd.s:23246  .debug_str:0000000000010a04 .LASF3122
C:\Users\CYMR90~1\AppData\Local\Temp\ccLzUcmd.s:20980  .debug_str:00000000000079de .LASF3123
C:\Users\CYMR90~1\AppData\Local\Temp\ccLzUcmd.s:21656  .debug_str:000000000000a584 .LASF3124
C:\Users\CYMR90~1\AppData\Local\Temp\ccLzUcmd.s:24070  .debug_str:000000000001400c .LASF3125
C:\Users\CYMR90~1\AppData\Local\Temp\ccLzUcmd.s:26595  .debug_str:000000000001e4c8 .LASF3126
C:\Users\CYMR90~1\AppData\Local\Temp\ccLzUcmd.s:20176  .debug_str:0000000000004734 .LASF3127
C:\Users\CYMR90~1\AppData\Local\Temp\ccLzUcmd.s:27121  .debug_str:00000000000204e5 .LASF3128
C:\Users\CYMR90~1\AppData\Local\Temp\ccLzUcmd.s:27473  .debug_str:0000000000021ae3 .LASF3129
C:\Users\CYMR90~1\AppData\Local\Temp\ccLzUcmd.s:21462  .debug_str:0000000000009935 .LASF3130
C:\Users\CYMR90~1\AppData\Local\Temp\ccLzUcmd.s:20804  .debug_str:0000000000006e48 .LASF3131
C:\Users\CYMR90~1\AppData\Local\Temp\ccLzUcmd.s:21328  .debug_str:00000000000090d6 .LASF3132
C:\Users\CYMR90~1\AppData\Local\Temp\ccLzUcmd.s:19782  .debug_str:0000000000002d4e .LASF3133
C:\Users\CYMR90~1\AppData\Local\Temp\ccLzUcmd.s:30009  .debug_str:000000000002bcb9 .LASF3134
C:\Users\CYMR90~1\AppData\Local\Temp\ccLzUcmd.s:20596  .debug_str:0000000000006159 .LASF3135
C:\Users\CYMR90~1\AppData\Local\Temp\ccLzUcmd.s:19170  .debug_str:000000000000075a .LASF3136
C:\Users\CYMR90~1\AppData\Local\Temp\ccLzUcmd.s:20182  .debug_str:00000000000047b1 .LASF3137
C:\Users\CYMR90~1\AppData\Local\Temp\ccLzUcmd.s:19970  .debug_str:0000000000003955 .LASF3138
C:\Users\CYMR90~1\AppData\Local\Temp\ccLzUcmd.s:23660  .debug_str:0000000000012536 .LASF3139
C:\Users\CYMR90~1\AppData\Local\Temp\ccLzUcmd.s:27207  .debug_str:0000000000020a49 .LASF3140
C:\Users\CYMR90~1\AppData\Local\Temp\ccLzUcmd.s:19104  .debug_str:00000000000003a8 .LASF3141
C:\Users\CYMR90~1\AppData\Local\Temp\ccLzUcmd.s:26805  .debug_str:000000000001f1bb .LASF3142
C:\Users\CYMR90~1\AppData\Local\Temp\ccLzUcmd.s:25669  .debug_str:000000000001a897 .LASF3143
C:\Users\CYMR90~1\AppData\Local\Temp\ccLzUcmd.s:26587  .debug_str:000000000001e454 .LASF3144
C:\Users\CYMR90~1\AppData\Local\Temp\ccLzUcmd.s:26171  .debug_str:000000000001c910 .LASF3145
C:\Users\CYMR90~1\AppData\Local\Temp\ccLzUcmd.s:25043  .debug_str:0000000000017e42 .LASF3146
C:\Users\CYMR90~1\AppData\Local\Temp\ccLzUcmd.s:23546  .debug_str:0000000000011dc1 .LASF3147
C:\Users\CYMR90~1\AppData\Local\Temp\ccLzUcmd.s:21544  .debug_str:0000000000009e4d .LASF3148
C:\Users\CYMR90~1\AppData\Local\Temp\ccLzUcmd.s:26459  .debug_str:000000000001dbfd .LASF3149
C:\Users\CYMR90~1\AppData\Local\Temp\ccLzUcmd.s:30103  .debug_str:000000000002c3b5 .LASF3150
C:\Users\CYMR90~1\AppData\Local\Temp\ccLzUcmd.s:25443  .debug_str:00000000000198d8 .LASF3151
C:\Users\CYMR90~1\AppData\Local\Temp\ccLzUcmd.s:25743  .debug_str:000000000001ad18 .LASF3152
C:\Users\CYMR90~1\AppData\Local\Temp\ccLzUcmd.s:28203  .debug_str:0000000000024852 .LASF3153
C:\Users\CYMR90~1\AppData\Local\Temp\ccLzUcmd.s:29587  .debug_str:000000000002a18f .LASF3154
C:\Users\CYMR90~1\AppData\Local\Temp\ccLzUcmd.s:23424  .debug_str:0000000000011505 .LASF3155
C:\Users\CYMR90~1\AppData\Local\Temp\ccLzUcmd.s:26409  .debug_str:000000000001d94b .LASF3156
C:\Users\CYMR90~1\AppData\Local\Temp\ccLzUcmd.s:22502  .debug_str:000000000000dcdc .LASF3157
C:\Users\CYMR90~1\AppData\Local\Temp\ccLzUcmd.s:29361  .debug_str:0000000000029439 .LASF3158
C:\Users\CYMR90~1\AppData\Local\Temp\ccLzUcmd.s:20906  .debug_str:0000000000007514 .LASF3159
C:\Users\CYMR90~1\AppData\Local\Temp\ccLzUcmd.s:29631  .debug_str:000000000002a45e .LASF3160
C:\Users\CYMR90~1\AppData\Local\Temp\ccLzUcmd.s:28421  .debug_str:0000000000025785 .LASF3161
C:\Users\CYMR90~1\AppData\Local\Temp\ccLzUcmd.s:19954  .debug_str:0000000000003860 .LASF3162
C:\Users\CYMR90~1\AppData\Local\Temp\ccLzUcmd.s:23140  .debug_str:000000000001036f .LASF3163
C:\Users\CYMR90~1\AppData\Local\Temp\ccLzUcmd.s:29091  .debug_str:00000000000282a6 .LASF3164
C:\Users\CYMR90~1\AppData\Local\Temp\ccLzUcmd.s:23610  .debug_str:0000000000012213 .LASF3165
C:\Users\CYMR90~1\AppData\Local\Temp\ccLzUcmd.s:21714  .debug_str:000000000000a8ff .LASF3166
C:\Users\CYMR90~1\AppData\Local\Temp\ccLzUcmd.s:27417  .debug_str:0000000000021775 .LASF3167
C:\Users\CYMR90~1\AppData\Local\Temp\ccLzUcmd.s:21802  .debug_str:000000000000af51 .LASF3168
C:\Users\CYMR90~1\AppData\Local\Temp\ccLzUcmd.s:29927  .debug_str:000000000002b70c .LASF3169
C:\Users\CYMR90~1\AppData\Local\Temp\ccLzUcmd.s:29659  .debug_str:000000000002a638 .LASF3170
C:\Users\CYMR90~1\AppData\Local\Temp\ccLzUcmd.s:25247  .debug_str:0000000000018a9e .LASF3171
C:\Users\CYMR90~1\AppData\Local\Temp\ccLzUcmd.s:29699  .debug_str:000000000002a87f .LASF3172
C:\Users\CYMR90~1\AppData\Local\Temp\ccLzUcmd.s:27305  .debug_str:0000000000021009 .LASF3173
C:\Users\CYMR90~1\AppData\Local\Temp\ccLzUcmd.s:28655  .debug_str:0000000000026609 .LASF3174
C:\Users\CYMR90~1\AppData\Local\Temp\ccLzUcmd.s:22358  .debug_str:000000000000d487 .LASF3175
C:\Users\CYMR90~1\AppData\Local\Temp\ccLzUcmd.s:28051  .debug_str:0000000000023d15 .LASF3176
C:\Users\CYMR90~1\AppData\Local\Temp\ccLzUcmd.s:24194  .debug_str:00000000000147ed .LASF3177
C:\Users\CYMR90~1\AppData\Local\Temp\ccLzUcmd.s:23026  .debug_str:000000000000fcd5 .LASF3178
C:\Users\CYMR90~1\AppData\Local\Temp\ccLzUcmd.s:26159  .debug_str:000000000001c7a6 .LASF3179
C:\Users\CYMR90~1\AppData\Local\Temp\ccLzUcmd.s:28923  .debug_str:00000000000276bf .LASF3180
C:\Users\CYMR90~1\AppData\Local\Temp\ccLzUcmd.s:19974  .debug_str:0000000000003998 .LASF3181
C:\Users\CYMR90~1\AppData\Local\Temp\ccLzUcmd.s:26391  .debug_str:000000000001d7f1 .LASF3182
C:\Users\CYMR90~1\AppData\Local\Temp\ccLzUcmd.s:29101  .debug_str:000000000002834a .LASF3183
C:\Users\CYMR90~1\AppData\Local\Temp\ccLzUcmd.s:21222  .debug_str:0000000000008a48 .LASF3184
C:\Users\CYMR90~1\AppData\Local\Temp\ccLzUcmd.s:29651  .debug_str:000000000002a5a8 .LASF3185
C:\Users\CYMR90~1\AppData\Local\Temp\ccLzUcmd.s:24388  .debug_str:0000000000015423 .LASF3186
C:\Users\CYMR90~1\AppData\Local\Temp\ccLzUcmd.s:21310  .debug_str:0000000000008ffb .LASF3187
C:\Users\CYMR90~1\AppData\Local\Temp\ccLzUcmd.s:26299  .debug_str:000000000001d24a .LASF3188
C:\Users\CYMR90~1\AppData\Local\Temp\ccLzUcmd.s:23756  .debug_str:0000000000012b9f .LASF3189
C:\Users\CYMR90~1\AppData\Local\Temp\ccLzUcmd.s:21780  .debug_str:000000000000ad17 .LASF3190
C:\Users\CYMR90~1\AppData\Local\Temp\ccLzUcmd.s:26229  .debug_str:000000000001ccc8 .LASF3191
C:\Users\CYMR90~1\AppData\Local\Temp\ccLzUcmd.s:21282  .debug_str:0000000000008e61 .LASF3192
C:\Users\CYMR90~1\AppData\Local\Temp\ccLzUcmd.s:22092  .debug_str:000000000000c277 .LASF3193
C:\Users\CYMR90~1\AppData\Local\Temp\ccLzUcmd.s:29601  .debug_str:000000000002a27c .LASF3194
C:\Users\CYMR90~1\AppData\Local\Temp\ccLzUcmd.s:25493  .debug_str:0000000000019c41 .LASF3195
C:\Users\CYMR90~1\AppData\Local\Temp\ccLzUcmd.s:25535  .debug_str:0000000000019eb2 .LASF3196
C:\Users\CYMR90~1\AppData\Local\Temp\ccLzUcmd.s:25541  .debug_str:0000000000019f1c .LASF3197
C:\Users\CYMR90~1\AppData\Local\Temp\ccLzUcmd.s:28765  .debug_str:0000000000026caf .LASF3198
C:\Users\CYMR90~1\AppData\Local\Temp\ccLzUcmd.s:23642  .debug_str:00000000000123ee .LASF3199
C:\Users\CYMR90~1\AppData\Local\Temp\ccLzUcmd.s:29573  .debug_str:000000000002a0da .LASF3200
C:\Users\CYMR90~1\AppData\Local\Temp\ccLzUcmd.s:27003  .debug_str:000000000001fdd2 .LASF3201
C:\Users\CYMR90~1\AppData\Local\Temp\ccLzUcmd.s:28853  .debug_str:00000000000272b2 .LASF3202
C:\Users\CYMR90~1\AppData\Local\Temp\ccLzUcmd.s:23450  .debug_str:0000000000011746 .LASF3203
C:\Users\CYMR90~1\AppData\Local\Temp\ccLzUcmd.s:23238  .debug_str:000000000001097c .LASF3204
C:\Users\CYMR90~1\AppData\Local\Temp\ccLzUcmd.s:26569  .debug_str:000000000001e333 .LASF3205
C:\Users\CYMR90~1\AppData\Local\Temp\ccLzUcmd.s:23570  .debug_str:0000000000011f79 .LASF3206
C:\Users\CYMR90~1\AppData\Local\Temp\ccLzUcmd.s:22972  .debug_str:000000000000fa52 .LASF3207
C:\Users\CYMR90~1\AppData\Local\Temp\ccLzUcmd.s:23754  .debug_str:0000000000012b66 .LASF3208
C:\Users\CYMR90~1\AppData\Local\Temp\ccLzUcmd.s:27771  .debug_str:0000000000022c86 .LASF3209
C:\Users\CYMR90~1\AppData\Local\Temp\ccLzUcmd.s:24572  .debug_str:0000000000015fa4 .LASF3210
C:\Users\CYMR90~1\AppData\Local\Temp\ccLzUcmd.s:26141  .debug_str:000000000001c66f .LASF3211
C:\Users\CYMR90~1\AppData\Local\Temp\ccLzUcmd.s:28939  .debug_str:00000000000277c9 .LASF3212
C:\Users\CYMR90~1\AppData\Local\Temp\ccLzUcmd.s:21010  .debug_str:0000000000007be1 .LASF3213
C:\Users\CYMR90~1\AppData\Local\Temp\ccLzUcmd.s:20310  .debug_str:000000000000501e .LASF3214
C:\Users\CYMR90~1\AppData\Local\Temp\ccLzUcmd.s:23704  .debug_str:0000000000012829 .LASF3215
C:\Users\CYMR90~1\AppData\Local\Temp\ccLzUcmd.s:19326  .debug_str:0000000000001171 .LASF3216
C:\Users\CYMR90~1\AppData\Local\Temp\ccLzUcmd.s:19420  .debug_str:00000000000016b3 .LASF3217
C:\Users\CYMR90~1\AppData\Local\Temp\ccLzUcmd.s:29051  .debug_str:0000000000027f87 .LASF3218
C:\Users\CYMR90~1\AppData\Local\Temp\ccLzUcmd.s:25811  .debug_str:000000000001b1e8 .LASF3219
C:\Users\CYMR90~1\AppData\Local\Temp\ccLzUcmd.s:22274  .debug_str:000000000000cebc .LASF3220
C:\Users\CYMR90~1\AppData\Local\Temp\ccLzUcmd.s:24156  .debug_str:0000000000014566 .LASF3221
C:\Users\CYMR90~1\AppData\Local\Temp\ccLzUcmd.s:19472  .debug_str:0000000000001a98 .LASF3222
C:\Users\CYMR90~1\AppData\Local\Temp\ccLzUcmd.s:22970  .debug_str:000000000000fa39 .LASF3223
C:\Users\CYMR90~1\AppData\Local\Temp\ccLzUcmd.s:26621  .debug_str:000000000001e657 .LASF3224
C:\Users\CYMR90~1\AppData\Local\Temp\ccLzUcmd.s:22086  .debug_str:000000000000c227 .LASF3225
C:\Users\CYMR90~1\AppData\Local\Temp\ccLzUcmd.s:21654  .debug_str:000000000000a561 .LASF3226
C:\Users\CYMR90~1\AppData\Local\Temp\ccLzUcmd.s:24632  .debug_str:0000000000016366 .LASF3227
C:\Users\CYMR90~1\AppData\Local\Temp\ccLzUcmd.s:25591  .debug_str:000000000001a1ec .LASF3228
C:\Users\CYMR90~1\AppData\Local\Temp\ccLzUcmd.s:26869  .debug_str:000000000001f5c1 .LASF3229
C:\Users\CYMR90~1\AppData\Local\Temp\ccLzUcmd.s:23056  .debug_str:000000000000fed5 .LASF3230
C:\Users\CYMR90~1\AppData\Local\Temp\ccLzUcmd.s:30173  .debug_str:000000000002c80f .LASF3231
C:\Users\CYMR90~1\AppData\Local\Temp\ccLzUcmd.s:24961  .debug_str:0000000000017966 .LASF3232
C:\Users\CYMR90~1\AppData\Local\Temp\ccLzUcmd.s:27575  .debug_str:00000000000220f9 .LASF3233
C:\Users\CYMR90~1\AppData\Local\Temp\ccLzUcmd.s:21964  .debug_str:000000000000b9f6 .LASF3234
C:\Users\CYMR90~1\AppData\Local\Temp\ccLzUcmd.s:27849  .debug_str:00000000000230dc .LASF3235
C:\Users\CYMR90~1\AppData\Local\Temp\ccLzUcmd.s:24032  .debug_str:0000000000013d8d .LASF3236
C:\Users\CYMR90~1\AppData\Local\Temp\ccLzUcmd.s:26763  .debug_str:000000000001eeeb .LASF3237
C:\Users\CYMR90~1\AppData\Local\Temp\ccLzUcmd.s:22804  .debug_str:000000000000ef98 .LASF3238
C:\Users\CYMR90~1\AppData\Local\Temp\ccLzUcmd.s:29567  .debug_str:000000000002a080 .LASF3239
C:\Users\CYMR90~1\AppData\Local\Temp\ccLzUcmd.s:23138  .debug_str:0000000000010358 .LASF3240
C:\Users\CYMR90~1\AppData\Local\Temp\ccLzUcmd.s:29179  .debug_str:00000000000288bf .LASF3241
C:\Users\CYMR90~1\AppData\Local\Temp\ccLzUcmd.s:20800  .debug_str:0000000000006e19 .LASF3242
C:\Users\CYMR90~1\AppData\Local\Temp\ccLzUcmd.s:23452  .debug_str:000000000001177d .LASF3243
C:\Users\CYMR90~1\AppData\Local\Temp\ccLzUcmd.s:21352  .debug_str:000000000000925c .LASF3244
C:\Users\CYMR90~1\AppData\Local\Temp\ccLzUcmd.s:20936  .debug_str:0000000000007702 .LASF3245
C:\Users\CYMR90~1\AppData\Local\Temp\ccLzUcmd.s:30281  .debug_str:000000000002cf3b .LASF3246
C:\Users\CYMR90~1\AppData\Local\Temp\ccLzUcmd.s:20112  .debug_str:0000000000004307 .LASF3247
C:\Users\CYMR90~1\AppData\Local\Temp\ccLzUcmd.s:29827  .debug_str:000000000002b038 .LASF3248
C:\Users\CYMR90~1\AppData\Local\Temp\ccLzUcmd.s:22426  .debug_str:000000000000d891 .LASF3249
C:\Users\CYMR90~1\AppData\Local\Temp\ccLzUcmd.s:25135  .debug_str:00000000000183b3 .LASF3250
C:\Users\CYMR90~1\AppData\Local\Temp\ccLzUcmd.s:24570  .debug_str:0000000000015f8c .LASF3251
C:\Users\CYMR90~1\AppData\Local\Temp\ccLzUcmd.s:27861  .debug_str:000000000002316c .LASF3252
C:\Users\CYMR90~1\AppData\Local\Temp\ccLzUcmd.s:19338  .debug_str:0000000000001217 .LASF3253
C:\Users\CYMR90~1\AppData\Local\Temp\ccLzUcmd.s:20266  .debug_str:0000000000004da8 .LASF3254
C:\Users\CYMR90~1\AppData\Local\Temp\ccLzUcmd.s:27723  .debug_str:000000000002294e .LASF3255
C:\Users\CYMR90~1\AppData\Local\Temp\ccLzUcmd.s:20514  .debug_str:0000000000005c66 .LASF3256
C:\Users\CYMR90~1\AppData\Local\Temp\ccLzUcmd.s:28037  .debug_str:0000000000023c36 .LASF3257
C:\Users\CYMR90~1\AppData\Local\Temp\ccLzUcmd.s:28449  .debug_str:000000000002595e .LASF3258
C:\Users\CYMR90~1\AppData\Local\Temp\ccLzUcmd.s:27195  .debug_str:00000000000209c2 .LASF3259
C:\Users\CYMR90~1\AppData\Local\Temp\ccLzUcmd.s:24474  .debug_str:0000000000015930 .LASF3260
C:\Users\CYMR90~1\AppData\Local\Temp\ccLzUcmd.s:24216  .debug_str:000000000001492e .LASF3261
C:\Users\CYMR90~1\AppData\Local\Temp\ccLzUcmd.s:24951  .debug_str:00000000000178bc .LASF3262
C:\Users\CYMR90~1\AppData\Local\Temp\ccLzUcmd.s:27091  .debug_str:00000000000202f0 .LASF3263
C:\Users\CYMR90~1\AppData\Local\Temp\ccLzUcmd.s:20900  .debug_str:00000000000074d2 .LASF3264
C:\Users\CYMR90~1\AppData\Local\Temp\ccLzUcmd.s:19098  .debug_str:000000000000035e .LASF3265
C:\Users\CYMR90~1\AppData\Local\Temp\ccLzUcmd.s:29199  .debug_str:00000000000289fb .LASF3266
C:\Users\CYMR90~1\AppData\Local\Temp\ccLzUcmd.s:19232  .debug_str:0000000000000b94 .LASF3267
C:\Users\CYMR90~1\AppData\Local\Temp\ccLzUcmd.s:27555  .debug_str:0000000000021fd3 .LASF3268
C:\Users\CYMR90~1\AppData\Local\Temp\ccLzUcmd.s:24370  .debug_str:0000000000015330 .LASF3269
C:\Users\CYMR90~1\AppData\Local\Temp\ccLzUcmd.s:24014  .debug_str:0000000000013c75 .LASF3270
C:\Users\CYMR90~1\AppData\Local\Temp\ccLzUcmd.s:22298  .debug_str:000000000000d04a .LASF3271
C:\Users\CYMR90~1\AppData\Local\Temp\ccLzUcmd.s:27851  .debug_str:0000000000023102 .LASF3272
C:\Users\CYMR90~1\AppData\Local\Temp\ccLzUcmd.s:25855  .debug_str:000000000001b549 .LASF3273
C:\Users\CYMR90~1\AppData\Local\Temp\ccLzUcmd.s:24630  .debug_str:0000000000016349 .LASF3274
C:\Users\CYMR90~1\AppData\Local\Temp\ccLzUcmd.s:28291  .debug_str:0000000000024ddd .LASF3275
C:\Users\CYMR90~1\AppData\Local\Temp\ccLzUcmd.s:22940  .debug_str:000000000000f880 .LASF3276
C:\Users\CYMR90~1\AppData\Local\Temp\ccLzUcmd.s:27769  .debug_str:0000000000022c6a .LASF3277
C:\Users\CYMR90~1\AppData\Local\Temp\ccLzUcmd.s:23850  .debug_str:000000000001321a .LASF3278
C:\Users\CYMR90~1\AppData\Local\Temp\ccLzUcmd.s:26343  .debug_str:000000000001d4d7 .LASF3279
C:\Users\CYMR90~1\AppData\Local\Temp\ccLzUcmd.s:20718  .debug_str:00000000000068e4 .LASF3280
C:\Users\CYMR90~1\AppData\Local\Temp\ccLzUcmd.s:30213  .debug_str:000000000002ca9b .LASF3281
C:\Users\CYMR90~1\AppData\Local\Temp\ccLzUcmd.s:20922  .debug_str:000000000000761f .LASF3282
C:\Users\CYMR90~1\AppData\Local\Temp\ccLzUcmd.s:20038  .debug_str:0000000000003dca .LASF3283
C:\Users\CYMR90~1\AppData\Local\Temp\ccLzUcmd.s:29903  .debug_str:000000000002b57d .LASF3284
C:\Users\CYMR90~1\AppData\Local\Temp\ccLzUcmd.s:21808  .debug_str:000000000000afb2 .LASF3285
C:\Users\CYMR90~1\AppData\Local\Temp\ccLzUcmd.s:24008  .debug_str:0000000000013c27 .LASF3286
C:\Users\CYMR90~1\AppData\Local\Temp\ccLzUcmd.s:20302  .debug_str:0000000000004fbe .LASF3287
C:\Users\CYMR90~1\AppData\Local\Temp\ccLzUcmd.s:28781  .debug_str:0000000000026dac .LASF3288
C:\Users\CYMR90~1\AppData\Local\Temp\ccLzUcmd.s:20492  .debug_str:0000000000005b2a .LASF3289
C:\Users\CYMR90~1\AppData\Local\Temp\ccLzUcmd.s:21906  .debug_str:000000000000b605 .LASF3290
C:\Users\CYMR90~1\AppData\Local\Temp\ccLzUcmd.s:20430  .debug_str:000000000000575e .LASF3291
C:\Users\CYMR90~1\AppData\Local\Temp\ccLzUcmd.s:23562  .debug_str:0000000000011ef9 .LASF3292
C:\Users\CYMR90~1\AppData\Local\Temp\ccLzUcmd.s:28959  .debug_str:0000000000027975 .LASF3293
C:\Users\CYMR90~1\AppData\Local\Temp\ccLzUcmd.s:25389  .debug_str:00000000000194c7 .LASF3294
C:\Users\CYMR90~1\AppData\Local\Temp\ccLzUcmd.s:24154  .debug_str:000000000001452b .LASF3295
C:\Users\CYMR90~1\AppData\Local\Temp\ccLzUcmd.s:30239  .debug_str:000000000002ccb0 .LASF3296
C:\Users\CYMR90~1\AppData\Local\Temp\ccLzUcmd.s:26839  .debug_str:000000000001f3c3 .LASF3297
C:\Users\CYMR90~1\AppData\Local\Temp\ccLzUcmd.s:23492  .debug_str:0000000000011a66 .LASF3298
C:\Users\CYMR90~1\AppData\Local\Temp\ccLzUcmd.s:20618  .debug_str:0000000000006294 .LASF3299
C:\Users\CYMR90~1\AppData\Local\Temp\ccLzUcmd.s:27905  .debug_str:0000000000023432 .LASF3300
C:\Users\CYMR90~1\AppData\Local\Temp\ccLzUcmd.s:24524  .debug_str:0000000000015c3d .LASF3301
C:\Users\CYMR90~1\AppData\Local\Temp\ccLzUcmd.s:21140  .debug_str:0000000000008568 .LASF3302
C:\Users\CYMR90~1\AppData\Local\Temp\ccLzUcmd.s:25079  .debug_str:0000000000018021 .LASF3303
C:\Users\CYMR90~1\AppData\Local\Temp\ccLzUcmd.s:29963  .debug_str:000000000002b995 .LASF3304
C:\Users\CYMR90~1\AppData\Local\Temp\ccLzUcmd.s:28517  .debug_str:0000000000025d4e .LASF3305
C:\Users\CYMR90~1\AppData\Local\Temp\ccLzUcmd.s:19440  .debug_str:00000000000018ac .LASF3306
C:\Users\CYMR90~1\AppData\Local\Temp\ccLzUcmd.s:30105  .debug_str:000000000002c3cd .LASF3307
C:\Users\CYMR90~1\AppData\Local\Temp\ccLzUcmd.s:26629  .debug_str:000000000001e6a3 .LASF3308
C:\Users\CYMR90~1\AppData\Local\Temp\ccLzUcmd.s:26847  .debug_str:000000000001f441 .LASF3309
C:\Users\CYMR90~1\AppData\Local\Temp\ccLzUcmd.s:27949  .debug_str:000000000002373a .LASF3310
C:\Users\CYMR90~1\AppData\Local\Temp\ccLzUcmd.s:19436  .debug_str:0000000000001865 .LASF3311
C:\Users\CYMR90~1\AppData\Local\Temp\ccLzUcmd.s:25191  .debug_str:00000000000186ea .LASF3312
C:\Users\CYMR90~1\AppData\Local\Temp\ccLzUcmd.s:30195  .debug_str:000000000002c97e .LASF3313
C:\Users\CYMR90~1\AppData\Local\Temp\ccLzUcmd.s:21880  .debug_str:000000000000b3ea .LASF3314
C:\Users\CYMR90~1\AppData\Local\Temp\ccLzUcmd.s:25059  .debug_str:0000000000017f26 .LASF3315
C:\Users\CYMR90~1\AppData\Local\Temp\ccLzUcmd.s:19370  .debug_str:00000000000013f0 .LASF3316
C:\Users\CYMR90~1\AppData\Local\Temp\ccLzUcmd.s:26119  .debug_str:000000000001c52c .LASF3317
C:\Users\CYMR90~1\AppData\Local\Temp\ccLzUcmd.s:22096  .debug_str:000000000000c2b9 .LASF3318
C:\Users\CYMR90~1\AppData\Local\Temp\ccLzUcmd.s:22362  .debug_str:000000000000d4d2 .LASF3319
C:\Users\CYMR90~1\AppData\Local\Temp\ccLzUcmd.s:29959  .debug_str:000000000002b94a .LASF3320
C:\Users\CYMR90~1\AppData\Local\Temp\ccLzUcmd.s:27043  .debug_str:0000000000020076 .LASF3321
C:\Users\CYMR90~1\AppData\Local\Temp\ccLzUcmd.s:22836  .debug_str:000000000000f197 .LASF3322
C:\Users\CYMR90~1\AppData\Local\Temp\ccLzUcmd.s:28447  .debug_str:0000000000025936 .LASF3323
C:\Users\CYMR90~1\AppData\Local\Temp\ccLzUcmd.s:27407  .debug_str:00000000000216d3 .LASF3324
C:\Users\CYMR90~1\AppData\Local\Temp\ccLzUcmd.s:23052  .debug_str:000000000000fe96 .LASF3325
C:\Users\CYMR90~1\AppData\Local\Temp\ccLzUcmd.s:27041  .debug_str:000000000002004f .LASF3326
C:\Users\CYMR90~1\AppData\Local\Temp\ccLzUcmd.s:24164  .debug_str:000000000001461a .LASF3327
C:\Users\CYMR90~1\AppData\Local\Temp\ccLzUcmd.s:29839  .debug_str:000000000002b136 .LASF3328
C:\Users\CYMR90~1\AppData\Local\Temp\ccLzUcmd.s:19112  .debug_str:0000000000000412 .LASF3329
C:\Users\CYMR90~1\AppData\Local\Temp\ccLzUcmd.s:27071  .debug_str:00000000000201f2 .LASF3330
C:\Users\CYMR90~1\AppData\Local\Temp\ccLzUcmd.s:28575  .debug_str:00000000000260f0 .LASF3331
C:\Users\CYMR90~1\AppData\Local\Temp\ccLzUcmd.s:30241  .debug_str:000000000002ccd7 .LASF3332
C:\Users\CYMR90~1\AppData\Local\Temp\ccLzUcmd.s:21524  .debug_str:0000000000009d23 .LASF3333
C:\Users\CYMR90~1\AppData\Local\Temp\ccLzUcmd.s:25427  .debug_str:0000000000019736 .LASF3334
C:\Users\CYMR90~1\AppData\Local\Temp\ccLzUcmd.s:24062  .debug_str:0000000000013f5d .LASF3335
C:\Users\CYMR90~1\AppData\Local\Temp\ccLzUcmd.s:26761  .debug_str:000000000001eecd .LASF3336
C:\Users\CYMR90~1\AppData\Local\Temp\ccLzUcmd.s:25245  .debug_str:0000000000018a7f .LASF3337
C:\Users\CYMR90~1\AppData\Local\Temp\ccLzUcmd.s:29763  .debug_str:000000000002ac74 .LASF3338
C:\Users\CYMR90~1\AppData\Local\Temp\ccLzUcmd.s:26003  .debug_str:000000000001be36 .LASF3339
C:\Users\CYMR90~1\AppData\Local\Temp\ccLzUcmd.s:20026  .debug_str:0000000000003d0b .LASF3340
C:\Users\CYMR90~1\AppData\Local\Temp\ccLzUcmd.s:21792  .debug_str:000000000000ae0d .LASF3341
C:\Users\CYMR90~1\AppData\Local\Temp\ccLzUcmd.s:22832  .debug_str:000000000000f149 .LASF3342
C:\Users\CYMR90~1\AppData\Local\Temp\ccLzUcmd.s:27485  .debug_str:0000000000021b93 .LASF3343
C:\Users\CYMR90~1\AppData\Local\Temp\ccLzUcmd.s:24738  .debug_str:00000000000169f4 .LASF3344
C:\Users\CYMR90~1\AppData\Local\Temp\ccLzUcmd.s:26531  .debug_str:000000000001e0f7 .LASF3345
C:\Users\CYMR90~1\AppData\Local\Temp\ccLzUcmd.s:25761  .debug_str:000000000001ae50 .LASF3346
C:\Users\CYMR90~1\AppData\Local\Temp\ccLzUcmd.s:27509  .debug_str:0000000000021d2c .LASF3347
C:\Users\CYMR90~1\AppData\Local\Temp\ccLzUcmd.s:21758  .debug_str:000000000000abc6 .LASF3348
C:\Users\CYMR90~1\AppData\Local\Temp\ccLzUcmd.s:24130  .debug_str:00000000000143a0 .LASF3349
C:\Users\CYMR90~1\AppData\Local\Temp\ccLzUcmd.s:20564  .debug_str:0000000000005f45 .LASF3350
C:\Users\CYMR90~1\AppData\Local\Temp\ccLzUcmd.s:27249  .debug_str:0000000000020cfa .LASF3351
C:\Users\CYMR90~1\AppData\Local\Temp\ccLzUcmd.s:23742  .debug_str:0000000000012aa0 .LASF3352
C:\Users\CYMR90~1\AppData\Local\Temp\ccLzUcmd.s:25401  .debug_str:000000000001957f .LASF3353
C:\Users\CYMR90~1\AppData\Local\Temp\ccLzUcmd.s:25697  .debug_str:000000000001aa6d .LASF3354
C:\Users\CYMR90~1\AppData\Local\Temp\ccLzUcmd.s:20322  .debug_str:00000000000050e0 .LASF3355
C:\Users\CYMR90~1\AppData\Local\Temp\ccLzUcmd.s:27113  .debug_str:0000000000020448 .LASF3356
C:\Users\CYMR90~1\AppData\Local\Temp\ccLzUcmd.s:23816  .debug_str:0000000000012fb4 .LASF3357
C:\Users\CYMR90~1\AppData\Local\Temp\ccLzUcmd.s:21632  .debug_str:000000000000a408 .LASF3358
C:\Users\CYMR90~1\AppData\Local\Temp\ccLzUcmd.s:26161  .debug_str:000000000001c7cb .LASF3359
C:\Users\CYMR90~1\AppData\Local\Temp\ccLzUcmd.s:20836  .debug_str:000000000000703f .LASF3360
C:\Users\CYMR90~1\AppData\Local\Temp\ccLzUcmd.s:28759  .debug_str:0000000000026c4b .LASF3361
C:\Users\CYMR90~1\AppData\Local\Temp\ccLzUcmd.s:20232  .debug_str:0000000000004b5f .LASF3362
C:\Users\CYMR90~1\AppData\Local\Temp\ccLzUcmd.s:20562  .debug_str:0000000000005f34 .LASF3363
C:\Users\CYMR90~1\AppData\Local\Temp\ccLzUcmd.s:19556  .debug_str:0000000000001f9c .LASF3364
C:\Users\CYMR90~1\AppData\Local\Temp\ccLzUcmd.s:25139  .debug_str:00000000000183ea .LASF3365
C:\Users\CYMR90~1\AppData\Local\Temp\ccLzUcmd.s:24845  .debug_str:0000000000017224 .LASF3366
C:\Users\CYMR90~1\AppData\Local\Temp\ccLzUcmd.s:25881  .debug_str:000000000001b6bb .LASF3367
C:\Users\CYMR90~1\AppData\Local\Temp\ccLzUcmd.s:22514  .debug_str:000000000000ddc7 .LASF3368
C:\Users\CYMR90~1\AppData\Local\Temp\ccLzUcmd.s:27243  .debug_str:0000000000020ca4 .LASF3369
C:\Users\CYMR90~1\AppData\Local\Temp\ccLzUcmd.s:28101  .debug_str:000000000002411c .LASF3370
C:\Users\CYMR90~1\AppData\Local\Temp\ccLzUcmd.s:28971  .debug_str:0000000000027a28 .LASF3371
C:\Users\CYMR90~1\AppData\Local\Temp\ccLzUcmd.s:27361  .debug_str:000000000002140c .LASF3372
C:\Users\CYMR90~1\AppData\Local\Temp\ccLzUcmd.s:28599  .debug_str:000000000002624e .LASF3373
C:\Users\CYMR90~1\AppData\Local\Temp\ccLzUcmd.s:20856  .debug_str:00000000000071c2 .LASF3374
C:\Users\CYMR90~1\AppData\Local\Temp\ccLzUcmd.s:25889  .debug_str:000000000001b748 .LASF3375
C:\Users\CYMR90~1\AppData\Local\Temp\ccLzUcmd.s:19652  .debug_str:00000000000024d0 .LASF3376
C:\Users\CYMR90~1\AppData\Local\Temp\ccLzUcmd.s:28365  .debug_str:0000000000025337 .LASF3377
C:\Users\CYMR90~1\AppData\Local\Temp\ccLzUcmd.s:22102  .debug_str:000000000000c317 .LASF3378
C:\Users\CYMR90~1\AppData\Local\Temp\ccLzUcmd.s:24604  .debug_str:00000000000161bc .LASF3379
C:\Users\CYMR90~1\AppData\Local\Temp\ccLzUcmd.s:28799  .debug_str:0000000000026ea4 .LASF3380
C:\Users\CYMR90~1\AppData\Local\Temp\ccLzUcmd.s:21746  .debug_str:000000000000ab06 .LASF3381
C:\Users\CYMR90~1\AppData\Local\Temp\ccLzUcmd.s:22592  .debug_str:000000000000e28c .LASF3382
C:\Users\CYMR90~1\AppData\Local\Temp\ccLzUcmd.s:20236  .debug_str:0000000000004bae .LASF3383
C:\Users\CYMR90~1\AppData\Local\Temp\ccLzUcmd.s:19226  .debug_str:0000000000000b1a .LASF3384
C:\Users\CYMR90~1\AppData\Local\Temp\ccLzUcmd.s:27519  .debug_str:0000000000021dd0 .LASF3385
C:\Users\CYMR90~1\AppData\Local\Temp\ccLzUcmd.s:21764  .debug_str:000000000000ac1e .LASF3386
C:\Users\CYMR90~1\AppData\Local\Temp\ccLzUcmd.s:19946  .debug_str:00000000000037c0 .LASF3387
C:\Users\CYMR90~1\AppData\Local\Temp\ccLzUcmd.s:19398  .debug_str:0000000000001561 .LASF3388
C:\Users\CYMR90~1\AppData\Local\Temp\ccLzUcmd.s:25829  .debug_str:000000000001b320 .LASF3389
C:\Users\CYMR90~1\AppData\Local\Temp\ccLzUcmd.s:24626  .debug_str:0000000000016309 .LASF3390
C:\Users\CYMR90~1\AppData\Local\Temp\ccLzUcmd.s:23804  .debug_str:0000000000012ee8 .LASF3391
C:\Users\CYMR90~1\AppData\Local\Temp\ccLzUcmd.s:25499  .debug_str:0000000000019ca5 .LASF3392
C:\Users\CYMR90~1\AppData\Local\Temp\ccLzUcmd.s:29725  .debug_str:000000000002aa2f .LASF3393
C:\Users\CYMR90~1\AppData\Local\Temp\ccLzUcmd.s:24692  .debug_str:00000000000166ab .LASF3394
C:\Users\CYMR90~1\AppData\Local\Temp\ccLzUcmd.s:23720  .debug_str:000000000001296a .LASF3395
C:\Users\CYMR90~1\AppData\Local\Temp\ccLzUcmd.s:25787  .debug_str:000000000001b03c .LASF3396
C:\Users\CYMR90~1\AppData\Local\Temp\ccLzUcmd.s:25633  .debug_str:000000000001a5e2 .LASF3397
C:\Users\CYMR90~1\AppData\Local\Temp\ccLzUcmd.s:21074  .debug_str:0000000000008120 .LASF3398
C:\Users\CYMR90~1\AppData\Local\Temp\ccLzUcmd.s:19770  .debug_str:0000000000002c7a .LASF3399
C:\Users\CYMR90~1\AppData\Local\Temp\ccLzUcmd.s:27443  .debug_str:00000000000218dd .LASF3400
C:\Users\CYMR90~1\AppData\Local\Temp\ccLzUcmd.s:28195  .debug_str:0000000000024747 .LASF3401
C:\Users\CYMR90~1\AppData\Local\Temp\ccLzUcmd.s:27083  .debug_str:0000000000020284 .LASF3402
C:\Users\CYMR90~1\AppData\Local\Temp\ccLzUcmd.s:27601  .debug_str:000000000002227b .LASF3403
C:\Users\CYMR90~1\AppData\Local\Temp\ccLzUcmd.s:25159  .debug_str:0000000000018554 .LASF3404
C:\Users\CYMR90~1\AppData\Local\Temp\ccLzUcmd.s:20776  .debug_str:0000000000006c81 .LASF3405
C:\Users\CYMR90~1\AppData\Local\Temp\ccLzUcmd.s:29887  .debug_str:000000000002b4b7 .LASF3406
C:\Users\CYMR90~1\AppData\Local\Temp\ccLzUcmd.s:29713  .debug_str:000000000002a956 .LASF3407
C:\Users\CYMR90~1\AppData\Local\Temp\ccLzUcmd.s:19414  .debug_str:0000000000001671 .LASF3408
C:\Users\CYMR90~1\AppData\Local\Temp\ccLzUcmd.s:19208  .debug_str:0000000000000998 .LASF3409
C:\Users\CYMR90~1\AppData\Local\Temp\ccLzUcmd.s:28725  .debug_str:0000000000026a03 .LASF3410
C:\Users\CYMR90~1\AppData\Local\Temp\ccLzUcmd.s:29953  .debug_str:000000000002b8fc .LASF3411
C:\Users\CYMR90~1\AppData\Local\Temp\ccLzUcmd.s:30183  .debug_str:000000000002c8ac .LASF3412
C:\Users\CYMR90~1\AppData\Local\Temp\ccLzUcmd.s:25325  .debug_str:00000000000190ee .LASF3413
C:\Users\CYMR90~1\AppData\Local\Temp\ccLzUcmd.s:29823  .debug_str:000000000002aff5 .LASF3414
C:\Users\CYMR90~1\AppData\Local\Temp\ccLzUcmd.s:25365  .debug_str:0000000000019341 .LASF3415
C:\Users\CYMR90~1\AppData\Local\Temp\ccLzUcmd.s:27587  .debug_str:00000000000221cf .LASF3416
C:\Users\CYMR90~1\AppData\Local\Temp\ccLzUcmd.s:24064  .debug_str:0000000000013f7c .LASF3417
C:\Users\CYMR90~1\AppData\Local\Temp\ccLzUcmd.s:22198  .debug_str:000000000000c994 .LASF3418
C:\Users\CYMR90~1\AppData\Local\Temp\ccLzUcmd.s:19832  .debug_str:0000000000003040 .LASF3419
C:\Users\CYMR90~1\AppData\Local\Temp\ccLzUcmd.s:25663  .debug_str:000000000001a843 .LASF3420
C:\Users\CYMR90~1\AppData\Local\Temp\ccLzUcmd.s:26873  .debug_str:000000000001f5f4 .LASF3421
C:\Users\CYMR90~1\AppData\Local\Temp\ccLzUcmd.s:29521  .debug_str:0000000000029deb .LASF3422
C:\Users\CYMR90~1\AppData\Local\Temp\ccLzUcmd.s:28713  .debug_str:0000000000026970 .LASF3423
C:\Users\CYMR90~1\AppData\Local\Temp\ccLzUcmd.s:27647  .debug_str:00000000000224ec .LASF3424
C:\Users\CYMR90~1\AppData\Local\Temp\ccLzUcmd.s:28309  .debug_str:0000000000024ebb .LASF3425
C:\Users\CYMR90~1\AppData\Local\Temp\ccLzUcmd.s:26479  .debug_str:000000000001ddc4 .LASF3426
C:\Users\CYMR90~1\AppData\Local\Temp\ccLzUcmd.s:26539  .debug_str:000000000001e188 .LASF3427
C:\Users\CYMR90~1\AppData\Local\Temp\ccLzUcmd.s:25579  .debug_str:000000000001a139 .LASF3428
C:\Users\CYMR90~1\AppData\Local\Temp\ccLzUcmd.s:19106  .debug_str:00000000000003c5 .LASF3429
C:\Users\CYMR90~1\AppData\Local\Temp\ccLzUcmd.s:24939  .debug_str:00000000000177c9 .LASF3430
C:\Users\CYMR90~1\AppData\Local\Temp\ccLzUcmd.s:28489  .debug_str:0000000000025bb2 .LASF3431
C:\Users\CYMR90~1\AppData\Local\Temp\ccLzUcmd.s:20352  .debug_str:00000000000052b0 .LASF3432
C:\Users\CYMR90~1\AppData\Local\Temp\ccLzUcmd.s:19452  .debug_str:0000000000001981 .LASF3433
C:\Users\CYMR90~1\AppData\Local\Temp\ccLzUcmd.s:24482  .debug_str:0000000000015997 .LASF3434
C:\Users\CYMR90~1\AppData\Local\Temp\ccLzUcmd.s:22912  .debug_str:000000000000f629 .LASF3435
C:\Users\CYMR90~1\AppData\Local\Temp\ccLzUcmd.s:21438  .debug_str:000000000000977e .LASF3436
C:\Users\CYMR90~1\AppData\Local\Temp\ccLzUcmd.s:26555  .debug_str:000000000001e273 .LASF3437
C:\Users\CYMR90~1\AppData\Local\Temp\ccLzUcmd.s:19548  .debug_str:0000000000001f1d .LASF3438
C:\Users\CYMR90~1\AppData\Local\Temp\ccLzUcmd.s:26855  .debug_str:000000000001f4d5 .LASF3439
C:\Users\CYMR90~1\AppData\Local\Temp\ccLzUcmd.s:21416  .debug_str:0000000000009653 .LASF3440
C:\Users\CYMR90~1\AppData\Local\Temp\ccLzUcmd.s:25067  .debug_str:0000000000017fa8 .LASF3441
C:\Users\CYMR90~1\AppData\Local\Temp\ccLzUcmd.s:28587  .debug_str:0000000000026196 .LASF3442
C:\Users\CYMR90~1\AppData\Local\Temp\ccLzUcmd.s:22552  .debug_str:000000000000dfff .LASF3443
C:\Users\CYMR90~1\AppData\Local\Temp\ccLzUcmd.s:26613  .debug_str:000000000001e5fc .LASF3444
C:\Users\CYMR90~1\AppData\Local\Temp\ccLzUcmd.s:30085  .debug_str:000000000002c208 .LASF3445
C:\Users\CYMR90~1\AppData\Local\Temp\ccLzUcmd.s:22862  .debug_str:000000000000f347 .LASF3446
C:\Users\CYMR90~1\AppData\Local\Temp\ccLzUcmd.s:26895  .debug_str:000000000001f747 .LASF3447
C:\Users\CYMR90~1\AppData\Local\Temp\ccLzUcmd.s:20224  .debug_str:0000000000004ad9 .LASF3448
C:\Users\CYMR90~1\AppData\Local\Temp\ccLzUcmd.s:26791  .debug_str:000000000001f0ec .LASF3449
C:\Users\CYMR90~1\AppData\Local\Temp\ccLzUcmd.s:22562  .debug_str:000000000000e09f .LASF3450
C:\Users\CYMR90~1\AppData\Local\Temp\ccLzUcmd.s:29841  .debug_str:000000000002b15d .LASF3451
C:\Users\CYMR90~1\AppData\Local\Temp\ccLzUcmd.s:27433  .debug_str:0000000000021864 .LASF3452
C:\Users\CYMR90~1\AppData\Local\Temp\ccLzUcmd.s:20722  .debug_str:0000000000006917 .LASF3453
C:\Users\CYMR90~1\AppData\Local\Temp\ccLzUcmd.s:26353  .debug_str:000000000001d584 .LASF3454
C:\Users\CYMR90~1\AppData\Local\Temp\ccLzUcmd.s:24879  .debug_str:00000000000173f2 .LASF3455
C:\Users\CYMR90~1\AppData\Local\Temp\ccLzUcmd.s:28327  .debug_str:0000000000025043 .LASF3456
C:\Users\CYMR90~1\AppData\Local\Temp\ccLzUcmd.s:26501  .debug_str:000000000001df5e .LASF3457
C:\Users\CYMR90~1\AppData\Local\Temp\ccLzUcmd.s:27409  .debug_str:0000000000021712 .LASF3458
C:\Users\CYMR90~1\AppData\Local\Temp\ccLzUcmd.s:23126  .debug_str:00000000000102ae .LASF3459
C:\Users\CYMR90~1\AppData\Local\Temp\ccLzUcmd.s:24266  .debug_str:0000000000014c3f .LASF3460
C:\Users\CYMR90~1\AppData\Local\Temp\ccLzUcmd.s:30205  .debug_str:000000000002ca3d .LASF3461
C:\Users\CYMR90~1\AppData\Local\Temp\ccLzUcmd.s:22286  .debug_str:000000000000cfa3 .LASF3462
C:\Users\CYMR90~1\AppData\Local\Temp\ccLzUcmd.s:25119  .debug_str:00000000000182d4 .LASF3463
C:\Users\CYMR90~1\AppData\Local\Temp\ccLzUcmd.s:21442  .debug_str:00000000000097b0 .LASF3464
C:\Users\CYMR90~1\AppData\Local\Temp\ccLzUcmd.s:28585  .debug_str:0000000000026179 .LASF3465
C:\Users\CYMR90~1\AppData\Local\Temp\ccLzUcmd.s:29655  .debug_str:000000000002a5f8 .LASF3466
C:\Users\CYMR90~1\AppData\Local\Temp\ccLzUcmd.s:21986  .debug_str:000000000000bb44 .LASF3467
C:\Users\CYMR90~1\AppData\Local\Temp\ccLzUcmd.s:29075  .debug_str:00000000000281ae .LASF3468
C:\Users\CYMR90~1\AppData\Local\Temp\ccLzUcmd.s:26009  .debug_str:000000000001beae .LASF3469
C:\Users\CYMR90~1\AppData\Local\Temp\ccLzUcmd.s:29531  .debug_str:0000000000029e75 .LASF3470
C:\Users\CYMR90~1\AppData\Local\Temp\ccLzUcmd.s:19622  .debug_str:0000000000002335 .LASF3471
C:\Users\CYMR90~1\AppData\Local\Temp\ccLzUcmd.s:28643  .debug_str:0000000000026553 .LASF3472
C:\Users\CYMR90~1\AppData\Local\Temp\ccLzUcmd.s:25455  .debug_str:00000000000199e1 .LASF3473
C:\Users\CYMR90~1\AppData\Local\Temp\ccLzUcmd.s:25383  .debug_str:0000000000019475 .LASF3474
C:\Users\CYMR90~1\AppData\Local\Temp\ccLzUcmd.s:25791  .debug_str:000000000001b07c .LASF3475
C:\Users\CYMR90~1\AppData\Local\Temp\ccLzUcmd.s:19630  .debug_str:000000000000239f .LASF3476
C:\Users\CYMR90~1\AppData\Local\Temp\ccLzUcmd.s:28995  .debug_str:0000000000027bc7 .LASF3477
C:\Users\CYMR90~1\AppData\Local\Temp\ccLzUcmd.s:26439  .debug_str:000000000001db07 .LASF3478
C:\Users\CYMR90~1\AppData\Local\Temp\ccLzUcmd.s:25211  .debug_str:0000000000018865 .LASF3479
C:\Users\CYMR90~1\AppData\Local\Temp\ccLzUcmd.s:27649  .debug_str:0000000000022508 .LASF3480
C:\Users\CYMR90~1\AppData\Local\Temp\ccLzUcmd.s:27205  .debug_str:0000000000020a30 .LASF3481
C:\Users\CYMR90~1\AppData\Local\Temp\ccLzUcmd.s:30041  .debug_str:000000000002bf42 .LASF3482
C:\Users\CYMR90~1\AppData\Local\Temp\ccLzUcmd.s:29781  .debug_str:000000000002ad9e .LASF3483
C:\Users\CYMR90~1\AppData\Local\Temp\ccLzUcmd.s:19168  .debug_str:0000000000000740 .LASF3484
C:\Users\CYMR90~1\AppData\Local\Temp\ccLzUcmd.s:22776  .debug_str:000000000000edf1 .LASF3485
C:\Users\CYMR90~1\AppData\Local\Temp\ccLzUcmd.s:24168  .debug_str:000000000001466d .LASF3486
C:\Users\CYMR90~1\AppData\Local\Temp\ccLzUcmd.s:27961  .debug_str:00000000000237d7 .LASF3487
C:\Users\CYMR90~1\AppData\Local\Temp\ccLzUcmd.s:25623  .debug_str:000000000001a548 .LASF3488
C:\Users\CYMR90~1\AppData\Local\Temp\ccLzUcmd.s:24773  .debug_str:0000000000016dc8 .LASF3489
C:\Users\CYMR90~1\AppData\Local\Temp\ccLzUcmd.s:25231  .debug_str:00000000000189b3 .LASF3490
C:\Users\CYMR90~1\AppData\Local\Temp\ccLzUcmd.s:29603  .debug_str:000000000002a29a .LASF3491
C:\Users\CYMR90~1\AppData\Local\Temp\ccLzUcmd.s:22338  .debug_str:000000000000d311 .LASF3492
C:\Users\CYMR90~1\AppData\Local\Temp\ccLzUcmd.s:24821  .debug_str:0000000000017095 .LASF3493
C:\Users\CYMR90~1\AppData\Local\Temp\ccLzUcmd.s:24144  .debug_str:0000000000014484 .LASF3494
C:\Users\CYMR90~1\AppData\Local\Temp\ccLzUcmd.s:24238  .debug_str:0000000000014aa3 .LASF3495
C:\Users\CYMR90~1\AppData\Local\Temp\ccLzUcmd.s:26583  .debug_str:000000000001e420 .LASF3496
C:\Users\CYMR90~1\AppData\Local\Temp\ccLzUcmd.s:29401  .debug_str:00000000000296f6 .LASF3497
C:\Users\CYMR90~1\AppData\Local\Temp\ccLzUcmd.s:19764  .debug_str:0000000000002c33 .LASF3498
C:\Users\CYMR90~1\AppData\Local\Temp\ccLzUcmd.s:26775  .debug_str:000000000001efba .LASF3499
C:\Users\CYMR90~1\AppData\Local\Temp\ccLzUcmd.s:21566  .debug_str:0000000000009fcf .LASF3500
C:\Users\CYMR90~1\AppData\Local\Temp\ccLzUcmd.s:19880  .debug_str:000000000000338a .LASF3501
C:\Users\CYMR90~1\AppData\Local\Temp\ccLzUcmd.s:21806  .debug_str:000000000000af99 .LASF3502
C:\Users\CYMR90~1\AppData\Local\Temp\ccLzUcmd.s:20740  .debug_str:0000000000006a20 .LASF3503
C:\Users\CYMR90~1\AppData\Local\Temp\ccLzUcmd.s:28273  .debug_str:0000000000024cc2 .LASF3504
C:\Users\CYMR90~1\AppData\Local\Temp\ccLzUcmd.s:25683  .debug_str:000000000001a978 .LASF3505
C:\Users\CYMR90~1\AppData\Local\Temp\ccLzUcmd.s:25549  .debug_str:0000000000019f95 .LASF3506
C:\Users\CYMR90~1\AppData\Local\Temp\ccLzUcmd.s:20698  .debug_str:00000000000067a6 .LASF3507
C:\Users\CYMR90~1\AppData\Local\Temp\ccLzUcmd.s:22656  .debug_str:000000000000e697 .LASF3508
C:\Users\CYMR90~1\AppData\Local\Temp\ccLzUcmd.s:22500  .debug_str:000000000000dcbf .LASF3509
C:\Users\CYMR90~1\AppData\Local\Temp\ccLzUcmd.s:21142  .debug_str:000000000000858f .LASF3510
C:\Users\CYMR90~1\AppData\Local\Temp\ccLzUcmd.s:21330  .debug_str:00000000000090f5 .LASF3511
C:\Users\CYMR90~1\AppData\Local\Temp\ccLzUcmd.s:21908  .debug_str:000000000000b627 .LASF3512
C:\Users\CYMR90~1\AppData\Local\Temp\ccLzUcmd.s:19904  .debug_str:0000000000003511 .LASF3513
C:\Users\CYMR90~1\AppData\Local\Temp\ccLzUcmd.s:21260  .debug_str:0000000000008c83 .LASF3514
C:\Users\CYMR90~1\AppData\Local\Temp\ccLzUcmd.s:19088  .debug_str:00000000000002bc .LASF3515
C:\Users\CYMR90~1\AppData\Local\Temp\ccLzUcmd.s:24817  .debug_str:0000000000017067 .LASF3516
C:\Users\CYMR90~1\AppData\Local\Temp\ccLzUcmd.s:22060  .debug_str:000000000000c093 .LASF3517
C:\Users\CYMR90~1\AppData\Local\Temp\ccLzUcmd.s:27901  .debug_str:00000000000233f8 .LASF3518
C:\Users\CYMR90~1\AppData\Local\Temp\ccLzUcmd.s:25413  .debug_str:0000000000019638 .LASF3519
C:\Users\CYMR90~1\AppData\Local\Temp\ccLzUcmd.s:23616  .debug_str:000000000001226f .LASF3520
C:\Users\CYMR90~1\AppData\Local\Temp\ccLzUcmd.s:23468  .debug_str:0000000000011903 .LASF3521
C:\Users\CYMR90~1\AppData\Local\Temp\ccLzUcmd.s:25805  .debug_str:000000000001b18e .LASF3522
C:\Users\CYMR90~1\AppData\Local\Temp\ccLzUcmd.s:27913  .debug_str:00000000000234e8 .LASF3523
C:\Users\CYMR90~1\AppData\Local\Temp\ccLzUcmd.s:29337  .debug_str:00000000000292b8 .LASF3524
C:\Users\CYMR90~1\AppData\Local\Temp\ccLzUcmd.s:25469  .debug_str:0000000000019aba .LASF3525
C:\Users\CYMR90~1\AppData\Local\Temp\ccLzUcmd.s:26759  .debug_str:000000000001eeae .LASF3526
C:\Users\CYMR90~1\AppData\Local\Temp\ccLzUcmd.s:27839  .debug_str:0000000000023030 .LASF3527
C:\Users\CYMR90~1\AppData\Local\Temp\ccLzUcmd.s:28671  .debug_str:00000000000266f5 .LASF3528
C:\Users\CYMR90~1\AppData\Local\Temp\ccLzUcmd.s:19268  .debug_str:0000000000000d82 .LASF3529
C:\Users\CYMR90~1\AppData\Local\Temp\ccLzUcmd.s:27805  .debug_str:0000000000022e78 .LASF3530
C:\Users\CYMR90~1\AppData\Local\Temp\ccLzUcmd.s:30037  .debug_str:000000000002bf11 .LASF3531
C:\Users\CYMR90~1\AppData\Local\Temp\ccLzUcmd.s:28813  .debug_str:0000000000026f69 .LASF3532
C:\Users\CYMR90~1\AppData\Local\Temp\ccLzUcmd.s:19750  .debug_str:0000000000002b2f .LASF3533
C:\Users\CYMR90~1\AppData\Local\Temp\ccLzUcmd.s:25933  .debug_str:000000000001b9d1 .LASF3534
C:\Users\CYMR90~1\AppData\Local\Temp\ccLzUcmd.s:22770  .debug_str:000000000000ed96 .LASF3535
C:\Users\CYMR90~1\AppData\Local\Temp\ccLzUcmd.s:22262  .debug_str:000000000000cdf5 .LASF3536
C:\Users\CYMR90~1\AppData\Local\Temp\ccLzUcmd.s:20602  .debug_str:00000000000061ac .LASF3537
C:\Users\CYMR90~1\AppData\Local\Temp\ccLzUcmd.s:27297  .debug_str:0000000000020fbc .LASF3538
C:\Users\CYMR90~1\AppData\Local\Temp\ccLzUcmd.s:21158  .debug_str:000000000000865a .LASF3539
C:\Users\CYMR90~1\AppData\Local\Temp\ccLzUcmd.s:21422  .debug_str:00000000000096aa .LASF3540
C:\Users\CYMR90~1\AppData\Local\Temp\ccLzUcmd.s:27957  .debug_str:00000000000237a9 .LASF3541
C:\Users\CYMR90~1\AppData\Local\Temp\ccLzUcmd.s:30155  .debug_str:000000000002c6ba .LASF3542
C:\Users\CYMR90~1\AppData\Local\Temp\ccLzUcmd.s:23054  .debug_str:000000000000febc .LASF3543
C:\Users\CYMR90~1\AppData\Local\Temp\ccLzUcmd.s:22550  .debug_str:000000000000dfe6 .LASF3544
C:\Users\CYMR90~1\AppData\Local\Temp\ccLzUcmd.s:26701  .debug_str:000000000001eb56 .LASF3545
C:\Users\CYMR90~1\AppData\Local\Temp\ccLzUcmd.s:20192  .debug_str:0000000000004853 .LASF3546
C:\Users\CYMR90~1\AppData\Local\Temp\ccLzUcmd.s:19498  .debug_str:0000000000001c31 .LASF3547
C:\Users\CYMR90~1\AppData\Local\Temp\ccLzUcmd.s:21504  .debug_str:0000000000009c08 .LASF3548
C:\Users\CYMR90~1\AppData\Local\Temp\ccLzUcmd.s:27813  .debug_str:0000000000022ee5 .LASF3549
C:\Users\CYMR90~1\AppData\Local\Temp\ccLzUcmd.s:23500  .debug_str:0000000000011b00 .LASF3550
C:\Users\CYMR90~1\AppData\Local\Temp\ccLzUcmd.s:24042  .debug_str:0000000000013e39 .LASF3551
C:\Users\CYMR90~1\AppData\Local\Temp\ccLzUcmd.s:21386  .debug_str:0000000000009438 .LASF3552
C:\Users\CYMR90~1\AppData\Local\Temp\ccLzUcmd.s:25701  .debug_str:000000000001aa9f .LASF3553
C:\Users\CYMR90~1\AppData\Local\Temp\ccLzUcmd.s:25307  .debug_str:0000000000018ef4 .LASF3554
C:\Users\CYMR90~1\AppData\Local\Temp\ccLzUcmd.s:27151  .debug_str:00000000000206f4 .LASF3555
C:\Users\CYMR90~1\AppData\Local\Temp\ccLzUcmd.s:24985  .debug_str:0000000000017acd .LASF3556
C:\Users\CYMR90~1\AppData\Local\Temp\ccLzUcmd.s:29115  .debug_str:0000000000028450 .LASF3557
C:\Users\CYMR90~1\AppData\Local\Temp\ccLzUcmd.s:22560  .debug_str:000000000000e080 .LASF3558
C:\Users\CYMR90~1\AppData\Local\Temp\ccLzUcmd.s:21054  .debug_str:0000000000007f33 .LASF3559
C:\Users\CYMR90~1\AppData\Local\Temp\ccLzUcmd.s:30093  .debug_str:000000000002c2ba .LASF3560
C:\Users\CYMR90~1\AppData\Local\Temp\ccLzUcmd.s:24374  .debug_str:000000000001537b .LASF3561
C:\Users\CYMR90~1\AppData\Local\Temp\ccLzUcmd.s:20466  .debug_str:000000000000595e .LASF3562
C:\Users\CYMR90~1\AppData\Local\Temp\ccLzUcmd.s:25525  .debug_str:0000000000019e1d .LASF3563
C:\Users\CYMR90~1\AppData\Local\Temp\ccLzUcmd.s:28099  .debug_str:00000000000240df .LASF3564
C:\Users\CYMR90~1\AppData\Local\Temp\ccLzUcmd.s:27347  .debug_str:0000000000021331 .LASF3565
C:\Users\CYMR90~1\AppData\Local\Temp\ccLzUcmd.s:21936  .debug_str:000000000000b814 .LASF3566
C:\Users\CYMR90~1\AppData\Local\Temp\ccLzUcmd.s:25571  .debug_str:000000000001a0c9 .LASF3567
C:\Users\CYMR90~1\AppData\Local\Temp\ccLzUcmd.s:19058  .debug_str:00000000000000dc .LASF3568
C:\Users\CYMR90~1\AppData\Local\Temp\ccLzUcmd.s:23460  .debug_str:00000000000117f5 .LASF3569
C:\Users\CYMR90~1\AppData\Local\Temp\ccLzUcmd.s:27387  .debug_str:0000000000021598 .LASF3570
C:\Users\CYMR90~1\AppData\Local\Temp\ccLzUcmd.s:27645  .debug_str:00000000000224c7 .LASF3571
C:\Users\CYMR90~1\AppData\Local\Temp\ccLzUcmd.s:24558  .debug_str:0000000000015e96 .LASF3572
C:\Users\CYMR90~1\AppData\Local\Temp\ccLzUcmd.s:29467  .debug_str:0000000000029acd .LASF3573
C:\Users\CYMR90~1\AppData\Local\Temp\ccLzUcmd.s:22168  .debug_str:000000000000c71a .LASF3574
C:\Users\CYMR90~1\AppData\Local\Temp\ccLzUcmd.s:23646  .debug_str:0000000000012454 .LASF3575
C:\Users\CYMR90~1\AppData\Local\Temp\ccLzUcmd.s:27935  .debug_str:000000000002364f .LASF3576
C:\Users\CYMR90~1\AppData\Local\Temp\ccLzUcmd.s:28363  .debug_str:0000000000025313 .LASF3577
C:\Users\CYMR90~1\AppData\Local\Temp\ccLzUcmd.s:23502  .debug_str:0000000000011b15 .LASF3578
C:\Users\CYMR90~1\AppData\Local\Temp\ccLzUcmd.s:23868  .debug_str:000000000001339f .LASF3579
C:\Users\CYMR90~1\AppData\Local\Temp\ccLzUcmd.s:19522  .debug_str:0000000000001d81 .LASF3580
C:\Users\CYMR90~1\AppData\Local\Temp\ccLzUcmd.s:20834  .debug_str:000000000000701b .LASF3581
C:\Users\CYMR90~1\AppData\Local\Temp\ccLzUcmd.s:29913  .debug_str:000000000002b625 .LASF3582
C:\Users\CYMR90~1\AppData\Local\Temp\ccLzUcmd.s:24588  .debug_str:00000000000160cf .LASF3583
C:\Users\CYMR90~1\AppData\Local\Temp\ccLzUcmd.s:25393  .debug_str:0000000000019516 .LASF3584
C:\Users\CYMR90~1\AppData\Local\Temp\ccLzUcmd.s:22058  .debug_str:000000000000c06e .LASF3585
C:\Users\CYMR90~1\AppData\Local\Temp\ccLzUcmd.s:23712  .debug_str:00000000000128b8 .LASF3586
C:\Users\CYMR90~1\AppData\Local\Temp\ccLzUcmd.s:19290  .debug_str:0000000000000f69 .LASF3587
C:\Users\CYMR90~1\AppData\Local\Temp\ccLzUcmd.s:25649  .debug_str:000000000001a6fd .LASF3588
C:\Users\CYMR90~1\AppData\Local\Temp\ccLzUcmd.s:20114  .debug_str:0000000000004326 .LASF3589
C:\Users\CYMR90~1\AppData\Local\Temp\ccLzUcmd.s:25899  .debug_str:000000000001b7dc .LASF3590
C:\Users\CYMR90~1\AppData\Local\Temp\ccLzUcmd.s:20372  .debug_str:00000000000053cd .LASF3591
C:\Users\CYMR90~1\AppData\Local\Temp\ccLzUcmd.s:21488  .debug_str:0000000000009af3 .LASF3592
C:\Users\CYMR90~1\AppData\Local\Temp\ccLzUcmd.s:20648  .debug_str:0000000000006483 .LASF3593
C:\Users\CYMR90~1\AppData\Local\Temp\ccLzUcmd.s:26399  .debug_str:000000000001d881 .LASF3594
C:\Users\CYMR90~1\AppData\Local\Temp\ccLzUcmd.s:28839  .debug_str:00000000000271dd .LASF3595
C:\Users\CYMR90~1\AppData\Local\Temp\ccLzUcmd.s:24210  .debug_str:00000000000148df .LASF3596
C:\Users\CYMR90~1\AppData\Local\Temp\ccLzUcmd.s:20682  .debug_str:0000000000006674 .LASF3597
C:\Users\CYMR90~1\AppData\Local\Temp\ccLzUcmd.s:29477  .debug_str:0000000000029b7a .LASF3598
C:\Users\CYMR90~1\AppData\Local\Temp\ccLzUcmd.s:26851  .debug_str:000000000001f49b .LASF3599
C:\Users\CYMR90~1\AppData\Local\Temp\ccLzUcmd.s:23514  .debug_str:0000000000011b9e .LASF3600
C:\Users\CYMR90~1\AppData\Local\Temp\ccLzUcmd.s:21760  .debug_str:000000000000abe0 .LASF3601
C:\Users\CYMR90~1\AppData\Local\Temp\ccLzUcmd.s:19148  .debug_str:00000000000005f1 .LASF3602
C:\Users\CYMR90~1\AppData\Local\Temp\ccLzUcmd.s:22988  .debug_str:000000000000fb5e .LASF3603
C:\Users\CYMR90~1\AppData\Local\Temp\ccLzUcmd.s:21944  .debug_str:000000000000b87d .LASF3604
C:\Users\CYMR90~1\AppData\Local\Temp\ccLzUcmd.s:22702  .debug_str:000000000000e99a .LASF3605
C:\Users\CYMR90~1\AppData\Local\Temp\ccLzUcmd.s:20872  .debug_str:0000000000007311 .LASF3606
C:\Users\CYMR90~1\AppData\Local\Temp\ccLzUcmd.s:28909  .debug_str:00000000000275e3 .LASF3607
C:\Users\CYMR90~1\AppData\Local\Temp\ccLzUcmd.s:26325  .debug_str:000000000001d3ab .LASF3608
C:\Users\CYMR90~1\AppData\Local\Temp\ccLzUcmd.s:23810  .debug_str:0000000000012f48 .LASF3609
C:\Users\CYMR90~1\AppData\Local\Temp\ccLzUcmd.s:25913  .debug_str:000000000001b8d7 .LASF3610
C:\Users\CYMR90~1\AppData\Local\Temp\ccLzUcmd.s:29875  .debug_str:000000000002b3bb .LASF3611
C:\Users\CYMR90~1\AppData\Local\Temp\ccLzUcmd.s:23144  .debug_str:00000000000103a9 .LASF3612
C:\Users\CYMR90~1\AppData\Local\Temp\ccLzUcmd.s:29145  .debug_str:000000000002868b .LASF3613
C:\Users\CYMR90~1\AppData\Local\Temp\ccLzUcmd.s:22148  .debug_str:000000000000c5e5 .LASF3614
C:\Users\CYMR90~1\AppData\Local\Temp\ccLzUcmd.s:19604  .debug_str:00000000000021fe .LASF3615
C:\Users\CYMR90~1\AppData\Local\Temp\ccLzUcmd.s:23122  .debug_str:0000000000010270 .LASF3616
C:\Users\CYMR90~1\AppData\Local\Temp\ccLzUcmd.s:23034  .debug_str:000000000000fd66 .LASF3617
C:\Users\CYMR90~1\AppData\Local\Temp\ccLzUcmd.s:23254  .debug_str:0000000000010a7a .LASF3618
C:\Users\CYMR90~1\AppData\Local\Temp\ccLzUcmd.s:27563  .debug_str:0000000000022039 .LASF3619
C:\Users\CYMR90~1\AppData\Local\Temp\ccLzUcmd.s:23928  .debug_str:0000000000013757 .LASF3620
C:\Users\CYMR90~1\AppData\Local\Temp\ccLzUcmd.s:21044  .debug_str:0000000000007e9b .LASF3621
C:\Users\CYMR90~1\AppData\Local\Temp\ccLzUcmd.s:27789  .debug_str:0000000000022d81 .LASF3622
C:\Users\CYMR90~1\AppData\Local\Temp\ccLzUcmd.s:29915  .debug_str:000000000002b649 .LASF3623
C:\Users\CYMR90~1\AppData\Local\Temp\ccLzUcmd.s:29451  .debug_str:00000000000299d7 .LASF3624
C:\Users\CYMR90~1\AppData\Local\Temp\ccLzUcmd.s:25999  .debug_str:000000000001bde6 .LASF3625
C:\Users\CYMR90~1\AppData\Local\Temp\ccLzUcmd.s:20838  .debug_str:000000000000705d .LASF3626
C:\Users\CYMR90~1\AppData\Local\Temp\ccLzUcmd.s:20420  .debug_str:00000000000056cb .LASF3627
C:\Users\CYMR90~1\AppData\Local\Temp\ccLzUcmd.s:20928  .debug_str:000000000000767e .LASF3628
C:\Users\CYMR90~1\AppData\Local\Temp\ccLzUcmd.s:19896  .debug_str:0000000000003496 .LASF3629
C:\Users\CYMR90~1\AppData\Local\Temp\ccLzUcmd.s:28179  .debug_str:000000000002464c .LASF3630
C:\Users\CYMR90~1\AppData\Local\Temp\ccLzUcmd.s:25239  .debug_str:0000000000018a24 .LASF3631
C:\Users\CYMR90~1\AppData\Local\Temp\ccLzUcmd.s:21234  .debug_str:0000000000008afb .LASF3632
C:\Users\CYMR90~1\AppData\Local\Temp\ccLzUcmd.s:21340  .debug_str:00000000000091a8 .LASF3633
C:\Users\CYMR90~1\AppData\Local\Temp\ccLzUcmd.s:27453  .debug_str:000000000002194d .LASF3634
C:\Users\CYMR90~1\AppData\Local\Temp\ccLzUcmd.s:29383  .debug_str:00000000000295c3 .LASF3635
C:\Users\CYMR90~1\AppData\Local\Temp\ccLzUcmd.s:27703  .debug_str:000000000002282a .LASF3636
C:\Users\CYMR90~1\AppData\Local\Temp\ccLzUcmd.s:29279  .debug_str:0000000000028eaf .LASF3637
C:\Users\CYMR90~1\AppData\Local\Temp\ccLzUcmd.s:19182  .debug_str:0000000000000813 .LASF3638
C:\Users\CYMR90~1\AppData\Local\Temp\ccLzUcmd.s:27737  .debug_str:0000000000022a95 .LASF3639
C:\Users\CYMR90~1\AppData\Local\Temp\ccLzUcmd.s:24775  .debug_str:0000000000016de0 .LASF3640
C:\Users\CYMR90~1\AppData\Local\Temp\ccLzUcmd.s:21768  .debug_str:000000000000ac57 .LASF3641
C:\Users\CYMR90~1\AppData\Local\Temp\ccLzUcmd.s:22322  .debug_str:000000000000d1f7 .LASF3642
C:\Users\CYMR90~1\AppData\Local\Temp\ccLzUcmd.s:20822  .debug_str:0000000000006f59 .LASF3643
C:\Users\CYMR90~1\AppData\Local\Temp\ccLzUcmd.s:24392  .debug_str:0000000000015460 .LASF3644
C:\Users\CYMR90~1\AppData\Local\Temp\ccLzUcmd.s:22194  .debug_str:000000000000c964 .LASF3645
C:\Users\CYMR90~1\AppData\Local\Temp\ccLzUcmd.s:27809  .debug_str:0000000000022ea6 .LASF3646
C:\Users\CYMR90~1\AppData\Local\Temp\ccLzUcmd.s:25803  .debug_str:000000000001b14b .LASF3647
C:\Users\CYMR90~1\AppData\Local\Temp\ccLzUcmd.s:27745  .debug_str:0000000000022b24 .LASF3648
C:\Users\CYMR90~1\AppData\Local\Temp\ccLzUcmd.s:24923  .debug_str:00000000000176c3 .LASF3649
C:\Users\CYMR90~1\AppData\Local\Temp\ccLzUcmd.s:22624  .debug_str:000000000000e464 .LASF3650
C:\Users\CYMR90~1\AppData\Local\Temp\ccLzUcmd.s:26821  .debug_str:000000000001f291 .LASF3651
C:\Users\CYMR90~1\AppData\Local\Temp\ccLzUcmd.s:21824  .debug_str:000000000000b0a7 .LASF3652
C:\Users\CYMR90~1\AppData\Local\Temp\ccLzUcmd.s:24090  .debug_str:000000000001417a .LASF3653
C:\Users\CYMR90~1\AppData\Local\Temp\ccLzUcmd.s:25065  .debug_str:0000000000017f86 .LASF3654
C:\Users\CYMR90~1\AppData\Local\Temp\ccLzUcmd.s:28721  .debug_str:00000000000269d0 .LASF3655
C:\Users\CYMR90~1\AppData\Local\Temp\ccLzUcmd.s:21612  .debug_str:000000000000a29f .LASF3656
C:\Users\CYMR90~1\AppData\Local\Temp\ccLzUcmd.s:20342  .debug_str:0000000000005204 .LASF3657
C:\Users\CYMR90~1\AppData\Local\Temp\ccLzUcmd.s:25363  .debug_str:000000000001931f .LASF3658
C:\Users\CYMR90~1\AppData\Local\Temp\ccLzUcmd.s:27639  .debug_str:0000000000022473 .LASF3659
C:\Users\CYMR90~1\AppData\Local\Temp\ccLzUcmd.s:22594  .debug_str:000000000000e2b4 .LASF3660
C:\Users\CYMR90~1\AppData\Local\Temp\ccLzUcmd.s:30015  .debug_str:000000000002bd43 .LASF3661
C:\Users\CYMR90~1\AppData\Local\Temp\ccLzUcmd.s:29861  .debug_str:000000000002b2bd .LASF3662
C:\Users\CYMR90~1\AppData\Local\Temp\ccLzUcmd.s:22460  .debug_str:000000000000da7a .LASF3663
C:\Users\CYMR90~1\AppData\Local\Temp\ccLzUcmd.s:20428  .debug_str:000000000000573a .LASF3664
C:\Users\CYMR90~1\AppData\Local\Temp\ccLzUcmd.s:29503  .debug_str:0000000000029cf8 .LASF3665
C:\Users\CYMR90~1\AppData\Local\Temp\ccLzUcmd.s:27261  .debug_str:0000000000020db3 .LASF3666
C:\Users\CYMR90~1\AppData\Local\Temp\ccLzUcmd.s:27183  .debug_str:00000000000208e9 .LASF3667
C:\Users\CYMR90~1\AppData\Local\Temp\ccLzUcmd.s:24508  .debug_str:0000000000015b2c .LASF3668
C:\Users\CYMR90~1\AppData\Local\Temp\ccLzUcmd.s:20526  .debug_str:0000000000005cf4 .LASF3669
C:\Users\CYMR90~1\AppData\Local\Temp\ccLzUcmd.s:23976  .debug_str:0000000000013a33 .LASF3670
C:\Users\CYMR90~1\AppData\Local\Temp\ccLzUcmd.s:27445  .debug_str:00000000000218f5 .LASF3671
C:\Users\CYMR90~1\AppData\Local\Temp\ccLzUcmd.s:28535  .debug_str:0000000000025ea6 .LASF3672
C:\Users\CYMR90~1\AppData\Local\Temp\ccLzUcmd.s:20254  .debug_str:0000000000004cbe .LASF3673
C:\Users\CYMR90~1\AppData\Local\Temp\ccLzUcmd.s:28021  .debug_str:0000000000023b2f .LASF3674
C:\Users\CYMR90~1\AppData\Local\Temp\ccLzUcmd.s:27187  .debug_str:0000000000020939 .LASF3675
C:\Users\CYMR90~1\AppData\Local\Temp\ccLzUcmd.s:29653  .debug_str:000000000002a5d4 .LASF3676
C:\Users\CYMR90~1\AppData\Local\Temp\ccLzUcmd.s:22722  .debug_str:000000000000eb0b .LASF3677
C:\Users\CYMR90~1\AppData\Local\Temp\ccLzUcmd.s:20440  .debug_str:00000000000057dc .LASF3678
C:\Users\CYMR90~1\AppData\Local\Temp\ccLzUcmd.s:22098  .debug_str:000000000000c2da .LASF3679
C:\Users\CYMR90~1\AppData\Local\Temp\ccLzUcmd.s:27271  .debug_str:0000000000020e46 .LASF3680
C:\Users\CYMR90~1\AppData\Local\Temp\ccLzUcmd.s:25171  .debug_str:00000000000185e1 .LASF3681
C:\Users\CYMR90~1\AppData\Local\Temp\ccLzUcmd.s:26241  .debug_str:000000000001cd8b .LASF3682
C:\Users\CYMR90~1\AppData\Local\Temp\ccLzUcmd.s:29251  .debug_str:0000000000028d0d .LASF3683
C:\Users\CYMR90~1\AppData\Local\Temp\ccLzUcmd.s:27099  .debug_str:000000000002036c .LASF3684
C:\Users\CYMR90~1\AppData\Local\Temp\ccLzUcmd.s:30177  .debug_str:000000000002c859 .LASF3685
C:\Users\CYMR90~1\AppData\Local\Temp\ccLzUcmd.s:19942  .debug_str:0000000000003783 .LASF3686
C:\Users\CYMR90~1\AppData\Local\Temp\ccLzUcmd.s:28345  .debug_str:00000000000251f9 .LASF3687
C:\Users\CYMR90~1\AppData\Local\Temp\ccLzUcmd.s:19310  .debug_str:0000000000001063 .LASF3688
C:\Users\CYMR90~1\AppData\Local\Temp\ccLzUcmd.s:26403  .debug_str:000000000001d8c8 .LASF3689
C:\Users\CYMR90~1\AppData\Local\Temp\ccLzUcmd.s:23844  .debug_str:000000000001316b .LASF3690
C:\Users\CYMR90~1\AppData\Local\Temp\ccLzUcmd.s:30255  .debug_str:000000000002cda7 .LASF3691
C:\Users\CYMR90~1\AppData\Local\Temp\ccLzUcmd.s:24827  .debug_str:00000000000170f5 .LASF3692
C:\Users\CYMR90~1\AppData\Local\Temp\ccLzUcmd.s:28779  .debug_str:0000000000026d7f .LASF3693
C:\Users\CYMR90~1\AppData\Local\Temp\ccLzUcmd.s:23698  .debug_str:00000000000127b3 .LASF3694
C:\Users\CYMR90~1\AppData\Local\Temp\ccLzUcmd.s:27093  .debug_str:0000000000020307 .LASF3695
C:\Users\CYMR90~1\AppData\Local\Temp\ccLzUcmd.s:27229  .debug_str:0000000000020bb3 .LASF3696
C:\Users\CYMR90~1\AppData\Local\Temp\ccLzUcmd.s:19266  .debug_str:0000000000000d60 .LASF3697
C:\Users\CYMR90~1\AppData\Local\Temp\ccLzUcmd.s:26465  .debug_str:000000000001dc75 .LASF3698
C:\Users\CYMR90~1\AppData\Local\Temp\ccLzUcmd.s:19366  .debug_str:0000000000001390 .LASF3699
C:\Users\CYMR90~1\AppData\Local\Temp\ccLzUcmd.s:29045  .debug_str:0000000000027f1f .LASF3700
C:\Users\CYMR90~1\AppData\Local\Temp\ccLzUcmd.s:23602  .debug_str:0000000000012162 .LASF3701
C:\Users\CYMR90~1\AppData\Local\Temp\ccLzUcmd.s:26601  .debug_str:000000000001e51d .LASF3702
C:\Users\CYMR90~1\AppData\Local\Temp\ccLzUcmd.s:25523  .debug_str:0000000000019ded .LASF3703
C:\Users\CYMR90~1\AppData\Local\Temp\ccLzUcmd.s:24274  .debug_str:0000000000014ce0 .LASF3704
C:\Users\CYMR90~1\AppData\Local\Temp\ccLzUcmd.s:23086  .debug_str:00000000000100c5 .LASF3705
C:\Users\CYMR90~1\AppData\Local\Temp\ccLzUcmd.s:29905  .debug_str:000000000002b599 .LASF3706
C:\Users\CYMR90~1\AppData\Local\Temp\ccLzUcmd.s:28261  .debug_str:0000000000024bd9 .LASF3707
C:\Users\CYMR90~1\AppData\Local\Temp\ccLzUcmd.s:19484  .debug_str:0000000000001b29 .LASF3708
C:\Users\CYMR90~1\AppData\Local\Temp\ccLzUcmd.s:29033  .debug_str:0000000000027e0e .LASF3709
C:\Users\CYMR90~1\AppData\Local\Temp\ccLzUcmd.s:29271  .debug_str:0000000000028e16 .LASF3710
C:\Users\CYMR90~1\AppData\Local\Temp\ccLzUcmd.s:22276  .debug_str:000000000000cef5 .LASF3711
C:\Users\CYMR90~1\AppData\Local\Temp\ccLzUcmd.s:30131  .debug_str:000000000002c567 .LASF3712
C:\Users\CYMR90~1\AppData\Local\Temp\ccLzUcmd.s:21712  .debug_str:000000000000a8cd .LASF3713
C:\Users\CYMR90~1\AppData\Local\Temp\ccLzUcmd.s:28277  .debug_str:0000000000024cfc .LASF3714
C:\Users\CYMR90~1\AppData\Local\Temp\ccLzUcmd.s:21570  .debug_str:0000000000009ffc .LASF3715
C:\Users\CYMR90~1\AppData\Local\Temp\ccLzUcmd.s:27331  .debug_str:0000000000021193 .LASF3716
C:\Users\CYMR90~1\AppData\Local\Temp\ccLzUcmd.s:28481  .debug_str:0000000000025b31 .LASF3717
C:\Users\CYMR90~1\AppData\Local\Temp\ccLzUcmd.s:25539  .debug_str:0000000000019eea .LASF3718
C:\Users\CYMR90~1\AppData\Local\Temp\ccLzUcmd.s:22378  .debug_str:000000000000d5c5 .LASF3719
C:\Users\CYMR90~1\AppData\Local\Temp\ccLzUcmd.s:20476  .debug_str:0000000000005a0e .LASF3720
C:\Users\CYMR90~1\AppData\Local\Temp\ccLzUcmd.s:28953  .debug_str:00000000000278c3 .LASF3721
C:\Users\CYMR90~1\AppData\Local\Temp\ccLzUcmd.s:22854  .debug_str:000000000000f2c0 .LASF3722
C:\Users\CYMR90~1\AppData\Local\Temp\ccLzUcmd.s:22054  .debug_str:000000000000c00c .LASF3723
C:\Users\CYMR90~1\AppData\Local\Temp\ccLzUcmd.s:21878  .debug_str:000000000000b3b8 .LASF3724
C:\Users\CYMR90~1\AppData\Local\Temp\ccLzUcmd.s:19212  .debug_str:00000000000009e3 .LASF3725
C:\Users\CYMR90~1\AppData\Local\Temp\ccLzUcmd.s:23498  .debug_str:0000000000011ace .LASF3726
C:\Users\CYMR90~1\AppData\Local\Temp\ccLzUcmd.s:28919  .debug_str:0000000000027677 .LASF3727
C:\Users\CYMR90~1\AppData\Local\Temp\ccLzUcmd.s:20628  .debug_str:0000000000006334 .LASF3728
C:\Users\CYMR90~1\AppData\Local\Temp\ccLzUcmd.s:21982  .debug_str:000000000000bafe .LASF3729
C:\Users\CYMR90~1\AppData\Local\Temp\ccLzUcmd.s:23076  .debug_str:000000000001001c .LASF3730
C:\Users\CYMR90~1\AppData\Local\Temp\ccLzUcmd.s:27307  .debug_str:0000000000021029 .LASF3731
C:\Users\CYMR90~1\AppData\Local\Temp\ccLzUcmd.s:20264  .debug_str:0000000000004d76 .LASF3732
C:\Users\CYMR90~1\AppData\Local\Temp\ccLzUcmd.s:24488  .debug_str:00000000000159df .LASF3733
C:\Users\CYMR90~1\AppData\Local\Temp\ccLzUcmd.s:28739  .debug_str:0000000000026ae0 .LASF3734
C:\Users\CYMR90~1\AppData\Local\Temp\ccLzUcmd.s:24372  .debug_str:0000000000015349 .LASF3735
C:\Users\CYMR90~1\AppData\Local\Temp\ccLzUcmd.s:24066  .debug_str:0000000000013f97 .LASF3736
C:\Users\CYMR90~1\AppData\Local\Temp\ccLzUcmd.s:26491  .debug_str:000000000001de8f .LASF3737
C:\Users\CYMR90~1\AppData\Local\Temp\ccLzUcmd.s:22256  .debug_str:000000000000cd92 .LASF3738
C:\Users\CYMR90~1\AppData\Local\Temp\ccLzUcmd.s:27493  .debug_str:0000000000021c0f .LASF3739
C:\Users\CYMR90~1\AppData\Local\Temp\ccLzUcmd.s:20472  .debug_str:00000000000059b6 .LASF3740
C:\Users\CYMR90~1\AppData\Local\Temp\ccLzUcmd.s:29859  .debug_str:000000000002b28b .LASF3741
C:\Users\CYMR90~1\AppData\Local\Temp\ccLzUcmd.s:22848  .debug_str:000000000000f23d .LASF3742
C:\Users\CYMR90~1\AppData\Local\Temp\ccLzUcmd.s:27005  .debug_str:000000000001fe09 .LASF3743
C:\Users\CYMR90~1\AppData\Local\Temp\ccLzUcmd.s:19984  .debug_str:0000000000003a56 .LASF3744
C:\Users\CYMR90~1\AppData\Local\Temp\ccLzUcmd.s:22924  .debug_str:000000000000f789 .LASF3745
C:\Users\CYMR90~1\AppData\Local\Temp\ccLzUcmd.s:28055  .debug_str:0000000000023d51 .LASF3746
C:\Users\CYMR90~1\AppData\Local\Temp\ccLzUcmd.s:21456  .debug_str:00000000000098d6 .LASF3747
C:\Users\CYMR90~1\AppData\Local\Temp\ccLzUcmd.s:25759  .debug_str:000000000001ae1e .LASF3748
C:\Users\CYMR90~1\AppData\Local\Temp\ccLzUcmd.s:20082  .debug_str:00000000000040a5 .LASF3749
C:\Users\CYMR90~1\AppData\Local\Temp\ccLzUcmd.s:28097  .debug_str:00000000000240ad .LASF3750
C:\Users\CYMR90~1\AppData\Local\Temp\ccLzUcmd.s:21098  .debug_str:00000000000082b9 .LASF3751
C:\Users\CYMR90~1\AppData\Local\Temp\ccLzUcmd.s:22692  .debug_str:000000000000e8c6 .LASF3752
C:\Users\CYMR90~1\AppData\Local\Temp\ccLzUcmd.s:29537  .debug_str:0000000000029ecb .LASF3753
C:\Users\CYMR90~1\AppData\Local\Temp\ccLzUcmd.s:20926  .debug_str:000000000000764c .LASF3754
C:\Users\CYMR90~1\AppData\Local\Temp\ccLzUcmd.s:26879  .debug_str:000000000001f647 .LASF3755
C:\Users\CYMR90~1\AppData\Local\Temp\ccLzUcmd.s:19702  .debug_str:0000000000002831 .LASF3756
C:\Users\CYMR90~1\AppData\Local\Temp\ccLzUcmd.s:25101  .debug_str:000000000001819e .LASF3757
C:\Users\CYMR90~1\AppData\Local\Temp\ccLzUcmd.s:28229  .debug_str:00000000000249be .LASF3758
C:\Users\CYMR90~1\AppData\Local\Temp\ccLzUcmd.s:21106  .debug_str:0000000000008336 .LASF3759
C:\Users\CYMR90~1\AppData\Local\Temp\ccLzUcmd.s:28493  .debug_str:0000000000025bf1 .LASF3760
C:\Users\CYMR90~1\AppData\Local\Temp\ccLzUcmd.s:23644  .debug_str:0000000000012422 .LASF3761
C:\Users\CYMR90~1\AppData\Local\Temp\ccLzUcmd.s:27795  .debug_str:0000000000022ddc .LASF3762
C:\Users\CYMR90~1\AppData\Local\Temp\ccLzUcmd.s:20532  .debug_str:0000000000005d61 .LASF3763
C:\Users\CYMR90~1\AppData\Local\Temp\ccLzUcmd.s:23688  .debug_str:00000000000126f3 .LASF3764
C:\Users\CYMR90~1\AppData\Local\Temp\ccLzUcmd.s:27007  .debug_str:000000000001fe3b .LASF3765
C:\Users\CYMR90~1\AppData\Local\Temp\ccLzUcmd.s:23608  .debug_str:00000000000121ef .LASF3766
C:\Users\CYMR90~1\AppData\Local\Temp\ccLzUcmd.s:28527  .debug_str:0000000000025e30 .LASF3767
C:\Users\CYMR90~1\AppData\Local\Temp\ccLzUcmd.s:19972  .debug_str:0000000000003974 .LASF3768
C:\Users\CYMR90~1\AppData\Local\Temp\ccLzUcmd.s:22208  .debug_str:000000000000cb1d .LASF3769
C:\Users\CYMR90~1\AppData\Local\Temp\ccLzUcmd.s:22642  .debug_str:000000000000e579 .LASF3770
C:\Users\CYMR90~1\AppData\Local\Temp\ccLzUcmd.s:28105  .debug_str:0000000000024156 .LASF3771
C:\Users\CYMR90~1\AppData\Local\Temp\ccLzUcmd.s:24504  .debug_str:0000000000015adb .LASF3772
C:\Users\CYMR90~1\AppData\Local\Temp\ccLzUcmd.s:24937  .debug_str:00000000000177a7 .LASF3773
C:\Users\CYMR90~1\AppData\Local\Temp\ccLzUcmd.s:21934  .debug_str:000000000000b7f2 .LASF3774
C:\Users\CYMR90~1\AppData\Local\Temp\ccLzUcmd.s:24282  .debug_str:0000000000014d69 .LASF3775
C:\Users\CYMR90~1\AppData\Local\Temp\ccLzUcmd.s:27211  .debug_str:0000000000020a90 .LASF3776
C:\Users\CYMR90~1\AppData\Local\Temp\ccLzUcmd.s:24306  .debug_str:0000000000014f1e .LASF3777
C:\Users\CYMR90~1\AppData\Local\Temp\ccLzUcmd.s:28557  .debug_str:0000000000026003 .LASF3778
C:\Users\CYMR90~1\AppData\Local\Temp\ccLzUcmd.s:25387  .debug_str:00000000000194a4 .LASF3779
C:\Users\CYMR90~1\AppData\Local\Temp\ccLzUcmd.s:23358  .debug_str:00000000000110d5 .LASF3780
C:\Users\CYMR90~1\AppData\Local\Temp\ccLzUcmd.s:20136  .debug_str:0000000000004498 .LASF3781
C:\Users\CYMR90~1\AppData\Local\Temp\ccLzUcmd.s:19376  .debug_str:0000000000001437 .LASF3782
C:\Users\CYMR90~1\AppData\Local\Temp\ccLzUcmd.s:22984  .debug_str:000000000000fb18 .LASF3783
C:\Users\CYMR90~1\AppData\Local\Temp\ccLzUcmd.s:23922  .debug_str:0000000000013716 .LASF3784
C:\Users\CYMR90~1\AppData\Local\Temp\ccLzUcmd.s:20398  .debug_str:0000000000005566 .LASF3785
C:\Users\CYMR90~1\AppData\Local\Temp\ccLzUcmd.s:25201  .debug_str:000000000001879f .LASF3786
C:\Users\CYMR90~1\AppData\Local\Temp\ccLzUcmd.s:22536  .debug_str:000000000000df12 .LASF3787
C:\Users\CYMR90~1\AppData\Local\Temp\ccLzUcmd.s:21578  .debug_str:000000000000a096 .LASF3788
C:\Users\CYMR90~1\AppData\Local\Temp\ccLzUcmd.s:23028  .debug_str:000000000000fcf8 .LASF3789
C:\Users\CYMR90~1\AppData\Local\Temp\ccLzUcmd.s:24901  .debug_str:0000000000017563 .LASF3790
C:\Users\CYMR90~1\AppData\Local\Temp\ccLzUcmd.s:24348  .debug_str:00000000000151b5 .LASF3791
C:\Users\CYMR90~1\AppData\Local\Temp\ccLzUcmd.s:23726  .debug_str:00000000000129ce .LASF3792
C:\Users\CYMR90~1\AppData\Local\Temp\ccLzUcmd.s:26079  .debug_str:000000000001c2fa .LASF3793
C:\Users\CYMR90~1\AppData\Local\Temp\ccLzUcmd.s:22646  .debug_str:000000000000e5f8 .LASF3794
C:\Users\CYMR90~1\AppData\Local\Temp\ccLzUcmd.s:19250  .debug_str:0000000000000c7c .LASF3795
C:\Users\CYMR90~1\AppData\Local\Temp\ccLzUcmd.s:29277  .debug_str:0000000000028e8b .LASF3796
C:\Users\CYMR90~1\AppData\Local\Temp\ccLzUcmd.s:23792  .debug_str:0000000000012e0d .LASF3797
C:\Users\CYMR90~1\AppData\Local\Temp\ccLzUcmd.s:26415  .debug_str:000000000001d982 .LASF3798
C:\Users\CYMR90~1\AppData\Local\Temp\ccLzUcmd.s:19644  .debug_str:0000000000002474 .LASF3799
C:\Users\CYMR90~1\AppData\Local\Temp\ccLzUcmd.s:24690  .debug_str:0000000000016687 .LASF3800
C:\Users\CYMR90~1\AppData\Local\Temp\ccLzUcmd.s:28339  .debug_str:0000000000025192 .LASF3801
C:\Users\CYMR90~1\AppData\Local\Temp\ccLzUcmd.s:28117  .debug_str:000000000002423f .LASF3802
C:\Users\CYMR90~1\AppData\Local\Temp\ccLzUcmd.s:24769  .debug_str:0000000000016d8d .LASF3803
C:\Users\CYMR90~1\AppData\Local\Temp\ccLzUcmd.s:24072  .debug_str:0000000000014026 .LASF3804
C:\Users\CYMR90~1\AppData\Local\Temp\ccLzUcmd.s:29263  .debug_str:0000000000028dba .LASF3805
C:\Users\CYMR90~1\AppData\Local\Temp\ccLzUcmd.s:25909  .debug_str:000000000001b876 .LASF3806
C:\Users\CYMR90~1\AppData\Local\Temp\ccLzUcmd.s:22510  .debug_str:000000000000dd82 .LASF3807
C:\Users\CYMR90~1\AppData\Local\Temp\ccLzUcmd.s:29637  .debug_str:000000000002a4c5 .LASF3808
C:\Users\CYMR90~1\AppData\Local\Temp\ccLzUcmd.s:29947  .debug_str:000000000002b87e .LASF3809
C:\Users\CYMR90~1\AppData\Local\Temp\ccLzUcmd.s:21738  .debug_str:000000000000aa7e .LASF3810
C:\Users\CYMR90~1\AppData\Local\Temp\ccLzUcmd.s:20262  .debug_str:0000000000004d52 .LASF3811
C:\Users\CYMR90~1\AppData\Local\Temp\ccLzUcmd.s:30163  .debug_str:000000000002c753 .LASF3812
C:\Users\CYMR90~1\AppData\Local\Temp\ccLzUcmd.s:23482  .debug_str:00000000000119ca .LASF3813
C:\Users\CYMR90~1\AppData\Local\Temp\ccLzUcmd.s:20058  .debug_str:0000000000003f49 .LASF3814
C:\Users\CYMR90~1\AppData\Local\Temp\ccLzUcmd.s:27981  .debug_str:0000000000023909 .LASF3815
C:\Users\CYMR90~1\AppData\Local\Temp\ccLzUcmd.s:24606  .debug_str:00000000000161e2 .LASF3816
C:\Users\CYMR90~1\AppData\Local\Temp\ccLzUcmd.s:23042  .debug_str:000000000000fe0b .LASF3817
C:\Users\CYMR90~1\AppData\Local\Temp\ccLzUcmd.s:29125  .debug_str:00000000000284fd .LASF3818
C:\Users\CYMR90~1\AppData\Local\Temp\ccLzUcmd.s:27145  .debug_str:00000000000206a8 .LASF3819
C:\Users\CYMR90~1\AppData\Local\Temp\ccLzUcmd.s:21064  .debug_str:0000000000007ff0 .LASF3820
C:\Users\CYMR90~1\AppData\Local\Temp\ccLzUcmd.s:28967  .debug_str:00000000000279ee .LASF3821
C:\Users\CYMR90~1\AppData\Local\Temp\ccLzUcmd.s:25629  .debug_str:000000000001a5a0 .LASF3822
C:\Users\CYMR90~1\AppData\Local\Temp\ccLzUcmd.s:22228  .debug_str:000000000000cc36 .LASF3823
C:\Users\CYMR90~1\AppData\Local\Temp\ccLzUcmd.s:30111  .debug_str:000000000002c441 .LASF3824
C:\Users\CYMR90~1\AppData\Local\Temp\ccLzUcmd.s:20170  .debug_str:00000000000046ba .LASF3825
C:\Users\CYMR90~1\AppData\Local\Temp\ccLzUcmd.s:23362  .debug_str:0000000000011110 .LASF3826
C:\Users\CYMR90~1\AppData\Local\Temp\ccLzUcmd.s:26259  .debug_str:000000000001cf32 .LASF3827
C:\Users\CYMR90~1\AppData\Local\Temp\ccLzUcmd.s:27841  .debug_str:000000000002304f .LASF3828
C:\Users\CYMR90~1\AppData\Local\Temp\ccLzUcmd.s:29197  .debug_str:00000000000289d7 .LASF3829
C:\Users\CYMR90~1\AppData\Local\Temp\ccLzUcmd.s:19780  .debug_str:0000000000002d2a .LASF3830
C:\Users\CYMR90~1\AppData\Local\Temp\ccLzUcmd.s:24895  .debug_str:0000000000017500 .LASF3831
C:\Users\CYMR90~1\AppData\Local\Temp\ccLzUcmd.s:24314  .debug_str:0000000000014f9e .LASF3832
C:\Users\CYMR90~1\AppData\Local\Temp\ccLzUcmd.s:20918  .debug_str:00000000000075d5 .LASF3833
C:\Users\CYMR90~1\AppData\Local\Temp\ccLzUcmd.s:21040  .debug_str:0000000000007e38 .LASF3834
C:\Users\CYMR90~1\AppData\Local\Temp\ccLzUcmd.s:21036  .debug_str:0000000000007df7 .LASF3835
C:\Users\CYMR90~1\AppData\Local\Temp\ccLzUcmd.s:22074  .debug_str:000000000000c15a .LASF3836
C:\Users\CYMR90~1\AppData\Local\Temp\ccLzUcmd.s:29975  .debug_str:000000000002ba63 .LASF3837
C:\Users\CYMR90~1\AppData\Local\Temp\ccLzUcmd.s:19694  .debug_str:0000000000002794 .LASF3838
C:\Users\CYMR90~1\AppData\Local\Temp\ccLzUcmd.s:28003  .debug_str:0000000000023a3d .LASF3839
C:\Users\CYMR90~1\AppData\Local\Temp\ccLzUcmd.s:29911  .debug_str:000000000002b601 .LASF3840
C:\Users\CYMR90~1\AppData\Local\Temp\ccLzUcmd.s:26417  .debug_str:000000000001d9a6 .LASF3841
C:\Users\CYMR90~1\AppData\Local\Temp\ccLzUcmd.s:23068  .debug_str:000000000000ff7f .LASF3842
C:\Users\CYMR90~1\AppData\Local\Temp\ccLzUcmd.s:19488  .debug_str:0000000000001b7d .LASF3843
C:\Users\CYMR90~1\AppData\Local\Temp\ccLzUcmd.s:27547  .debug_str:0000000000021f4a .LASF3844
C:\Users\CYMR90~1\AppData\Local\Temp\ccLzUcmd.s:24176  .debug_str:00000000000146df .LASF3845
C:\Users\CYMR90~1\AppData\Local\Temp\ccLzUcmd.s:22860  .debug_str:000000000000f323 .LASF3846
C:\Users\CYMR90~1\AppData\Local\Temp\ccLzUcmd.s:25465  .debug_str:0000000000019a70 .LASF3847
C:\Users\CYMR90~1\AppData\Local\Temp\ccLzUcmd.s:25353  .debug_str:000000000001928f .LASF3848
C:\Users\CYMR90~1\AppData\Local\Temp\ccLzUcmd.s:26715  .debug_str:000000000001ec17 .LASF3849
C:\Users\CYMR90~1\AppData\Local\Temp\ccLzUcmd.s:28605  .debug_str:00000000000262c1 .LASF3850
C:\Users\CYMR90~1\AppData\Local\Temp\ccLzUcmd.s:26781  .debug_str:000000000001f02b .LASF3851
C:\Users\CYMR90~1\AppData\Local\Temp\ccLzUcmd.s:21392  .debug_str:000000000000948c .LASF3852
C:\Users\CYMR90~1\AppData\Local\Temp\ccLzUcmd.s:21452  .debug_str:0000000000009890 .LASF3853
C:\Users\CYMR90~1\AppData\Local\Temp\ccLzUcmd.s:26297  .debug_str:000000000001d226 .LASF3854
C:\Users\CYMR90~1\AppData\Local\Temp\ccLzUcmd.s:27483  .debug_str:0000000000021b6f .LASF3855
C:\Users\CYMR90~1\AppData\Local\Temp\ccLzUcmd.s:19496  .debug_str:0000000000001c0d .LASF3856
C:\Users\CYMR90~1\AppData\Local\Temp\ccLzUcmd.s:27401  .debug_str:0000000000021669 .LASF3857
C:\Users\CYMR90~1\AppData\Local\Temp\ccLzUcmd.s:24026  .debug_str:0000000000013d38 .LASF3858
C:\Users\CYMR90~1\AppData\Local\Temp\ccLzUcmd.s:29649  .debug_str:000000000002a584 .LASF3859
C:\Users\CYMR90~1\AppData\Local\Temp\ccLzUcmd.s:27339  .debug_str:000000000002121a .LASF3860
C:\Users\CYMR90~1\AppData\Local\Temp\ccLzUcmd.s:23972  .debug_str:00000000000139f8 .LASF3861
C:\Users\CYMR90~1\AppData\Local\Temp\ccLzUcmd.s:28621  .debug_str:00000000000263d1 .LASF3862
C:\Users\CYMR90~1\AppData\Local\Temp\ccLzUcmd.s:28459  .debug_str:00000000000259f6 .LASF3863
C:\Users\CYMR90~1\AppData\Local\Temp\ccLzUcmd.s:25127  .debug_str:000000000001833d .LASF3864
C:\Users\CYMR90~1\AppData\Local\Temp\ccLzUcmd.s:30215  .debug_str:000000000002cab5 .LASF3865
C:\Users\CYMR90~1\AppData\Local\Temp\ccLzUcmd.s:29607  .debug_str:000000000002a2d3 .LASF3866
C:\Users\CYMR90~1\AppData\Local\Temp\ccLzUcmd.s:27551  .debug_str:0000000000021f8b .LASF3867
C:\Users\CYMR90~1\AppData\Local\Temp\ccLzUcmd.s:26435  .debug_str:000000000001dab7 .LASF3868
C:\Users\CYMR90~1\AppData\Local\Temp\ccLzUcmd.s:20826  .debug_str:0000000000006fad .LASF3869
C:\Users\CYMR90~1\AppData\Local\Temp\ccLzUcmd.s:20974  .debug_str:0000000000007969 .LASF3870
C:\Users\CYMR90~1\AppData\Local\Temp\ccLzUcmd.s:25009  .debug_str:0000000000017c16 .LASF3871
C:\Users\CYMR90~1\AppData\Local\Temp\ccLzUcmd.s:28903  .debug_str:0000000000027580 .LASF3872
C:\Users\CYMR90~1\AppData\Local\Temp\ccLzUcmd.s:21554  .debug_str:0000000000009f05 .LASF3873
C:\Users\CYMR90~1\AppData\Local\Temp\ccLzUcmd.s:30047  .debug_str:000000000002bfaa .LASF3874
C:\Users\CYMR90~1\AppData\Local\Temp\ccLzUcmd.s:21080  .debug_str:0000000000008190 .LASF3875
C:\Users\CYMR90~1\AppData\Local\Temp\ccLzUcmd.s:23418  .debug_str:00000000000114ab .LASF3876
C:\Users\CYMR90~1\AppData\Local\Temp\ccLzUcmd.s:25959  .debug_str:000000000001bb3a .LASF3877
C:\Users\CYMR90~1\AppData\Local\Temp\ccLzUcmd.s:29965  .debug_str:000000000002b9d0 .LASF3878
C:\Users\CYMR90~1\AppData\Local\Temp\ccLzUcmd.s:24116  .debug_str:00000000000142ea .LASF3879
C:\Users\CYMR90~1\AppData\Local\Temp\ccLzUcmd.s:26549  .debug_str:000000000001e21b .LASF3880
C:\Users\CYMR90~1\AppData\Local\Temp\ccLzUcmd.s:28829  .debug_str:0000000000027137 .LASF3881
C:\Users\CYMR90~1\AppData\Local\Temp\ccLzUcmd.s:19918  .debug_str:00000000000035ee .LASF3882
C:\Users\CYMR90~1\AppData\Local\Temp\ccLzUcmd.s:27241  .debug_str:0000000000020c7e .LASF3883
C:\Users\CYMR90~1\AppData\Local\Temp\ccLzUcmd.s:19834  .debug_str:000000000000305b .LASF3884
C:\Users\CYMR90~1\AppData\Local\Temp\ccLzUcmd.s:26885  .debug_str:000000000001f6ab .LASF3885
C:\Users\CYMR90~1\AppData\Local\Temp\ccLzUcmd.s:29229  .debug_str:0000000000028b7b .LASF3886
C:\Users\CYMR90~1\AppData\Local\Temp\ccLzUcmd.s:23746  .debug_str:0000000000012acf .LASF3887
C:\Users\CYMR90~1\AppData\Local\Temp\ccLzUcmd.s:22534  .debug_str:000000000000deec .LASF3888
C:\Users\CYMR90~1\AppData\Local\Temp\ccLzUcmd.s:19588  .debug_str:0000000000002127 .LASF3889
C:\Users\CYMR90~1\AppData\Local\Temp\ccLzUcmd.s:21104  .debug_str:0000000000008310 .LASF3890
C:\Users\CYMR90~1\AppData\Local\Temp\ccLzUcmd.s:23442  .debug_str:00000000000116de .LASF3891
C:\Users\CYMR90~1\AppData\Local\Temp\ccLzUcmd.s:25379  .debug_str:0000000000019433 .LASF3892
C:\Users\CYMR90~1\AppData\Local\Temp\ccLzUcmd.s:26889  .debug_str:000000000001f6ea .LASF3893
C:\Users\CYMR90~1\AppData\Local\Temp\ccLzUcmd.s:19132  .debug_str:0000000000000533 .LASF3894
C:\Users\CYMR90~1\AppData\Local\Temp\ccLzUcmd.s:25841  .debug_str:000000000001b3c3 .LASF3895
C:\Users\CYMR90~1\AppData\Local\Temp\ccLzUcmd.s:29821  .debug_str:000000000002afcf .LASF3896
C:\Users\CYMR90~1\AppData\Local\Temp\ccLzUcmd.s:22468  .debug_str:000000000000dadd .LASF3897
C:\Users\CYMR90~1\AppData\Local\Temp\ccLzUcmd.s:21484  .debug_str:0000000000009abc .LASF3898
C:\Users\CYMR90~1\AppData\Local\Temp\ccLzUcmd.s:25415  .debug_str:0000000000019652 .LASF3899
C:\Users\CYMR90~1\AppData\Local\Temp\ccLzUcmd.s:21360  .debug_str:00000000000092d6 .LASF3900
C:\Users\CYMR90~1\AppData\Local\Temp\ccLzUcmd.s:25317  .debug_str:0000000000018f9f .LASF3901
C:\Users\CYMR90~1\AppData\Local\Temp\ccLzUcmd.s:29189  .debug_str:000000000002895f .LASF3902
C:\Users\CYMR90~1\AppData\Local\Temp\ccLzUcmd.s:24246  .debug_str:0000000000014afe .LASF3903
C:\Users\CYMR90~1\AppData\Local\Temp\ccLzUcmd.s:25795  .debug_str:000000000001b0bb .LASF3904
C:\Users\CYMR90~1\AppData\Local\Temp\ccLzUcmd.s:29753  .debug_str:000000000002abeb .LASF3905
C:\Users\CYMR90~1\AppData\Local\Temp\ccLzUcmd.s:22406  .debug_str:000000000000d769 .LASF3906
C:\Users\CYMR90~1\AppData\Local\Temp\ccLzUcmd.s:21540  .debug_str:0000000000009e0e .LASF3907
C:\Users\CYMR90~1\AppData\Local\Temp\ccLzUcmd.s:23880  .debug_str:000000000001345e .LASF3908
C:\Users\CYMR90~1\AppData\Local\Temp\ccLzUcmd.s:27295  .debug_str:0000000000020f96 .LASF3909
C:\Users\CYMR90~1\AppData\Local\Temp\ccLzUcmd.s:29037  .debug_str:0000000000027e97 .LASF3910
C:\Users\CYMR90~1\AppData\Local\Temp\ccLzUcmd.s:29773  .debug_str:000000000002ad08 .LASF3911
C:\Users\CYMR90~1\AppData\Local\Temp\ccLzUcmd.s:21774  .debug_str:000000000000acaf .LASF3912
C:\Users\CYMR90~1\AppData\Local\Temp\ccLzUcmd.s:25731  .debug_str:000000000001ac5b .LASF3913
C:\Users\CYMR90~1\AppData\Local\Temp\ccLzUcmd.s:29681  .debug_str:000000000002a787 .LASF3914
C:\Users\CYMR90~1\AppData\Local\Temp\ccLzUcmd.s:25063  .debug_str:0000000000017f60 .LASF3915
C:\Users\CYMR90~1\AppData\Local\Temp\ccLzUcmd.s:23848  .debug_str:00000000000131f4 .LASF3916
C:\Users\CYMR90~1\AppData\Local\Temp\ccLzUcmd.s:30165  .debug_str:000000000002c777 .LASF3917
C:\Users\CYMR90~1\AppData\Local\Temp\ccLzUcmd.s:22812  .debug_str:000000000000effe .LASF3918
C:\Users\CYMR90~1\AppData\Local\Temp\ccLzUcmd.s:19866  .debug_str:0000000000003288 .LASF3919
C:\Users\CYMR90~1\AppData\Local\Temp\ccLzUcmd.s:29061  .debug_str:0000000000028036 .LASF3920
C:\Users\CYMR90~1\AppData\Local\Temp\ccLzUcmd.s:29625  .debug_str:000000000002a418 .LASF3921
C:\Users\CYMR90~1\AppData\Local\Temp\ccLzUcmd.s:27015  .debug_str:000000000001fec5 .LASF3922
C:\Users\CYMR90~1\AppData\Local\Temp\ccLzUcmd.s:29615  .debug_str:000000000002a341 .LASF3923
C:\Users\CYMR90~1\AppData\Local\Temp\ccLzUcmd.s:22278  .debug_str:000000000000cf27 .LASF3924
C:\Users\CYMR90~1\AppData\Local\Temp\ccLzUcmd.s:26195  .debug_str:000000000001ca9e .LASF3925
C:\Users\CYMR90~1\AppData\Local\Temp\ccLzUcmd.s:30107  .debug_str:000000000002c3f4 .LASF3926
C:\Users\CYMR90~1\AppData\Local\Temp\ccLzUcmd.s:21082  .debug_str:00000000000081b6 .LASF3927
C:\Users\CYMR90~1\AppData\Local\Temp\ccLzUcmd.s:24236  .debug_str:0000000000014a7d .LASF3928
C:\Users\CYMR90~1\AppData\Local\Temp\ccLzUcmd.s:23760  .debug_str:0000000000012bd6 .LASF3929
C:\Users\CYMR90~1\AppData\Local\Temp\ccLzUcmd.s:21640  .debug_str:000000000000a4a9 .LASF3930
C:\Users\CYMR90~1\AppData\Local\Temp\ccLzUcmd.s:25589  .debug_str:000000000001a1c6 .LASF3931
C:\Users\CYMR90~1\AppData\Local\Temp\ccLzUcmd.s:23078  .debug_str:000000000001004e .LASF3932
C:\Users\CYMR90~1\AppData\Local\Temp\ccLzUcmd.s:25971  .debug_str:000000000001bc22 .LASF3933
C:\Users\CYMR90~1\AppData\Local\Temp\ccLzUcmd.s:26125  .debug_str:000000000001c56e .LASF3934
C:\Users\CYMR90~1\AppData\Local\Temp\ccLzUcmd.s:27403  .debug_str:000000000002168d .LASF3935
C:\Users\CYMR90~1\AppData\Local\Temp\ccLzUcmd.s:22674  .debug_str:000000000000e7c0 .LASF3936
C:\Users\CYMR90~1\AppData\Local\Temp\ccLzUcmd.s:26575  .debug_str:000000000001e381 .LASF3937
C:\Users\CYMR90~1\AppData\Local\Temp\ccLzUcmd.s:19224  .debug_str:0000000000000af4 .LASF3938
C:\Users\CYMR90~1\AppData\Local\Temp\ccLzUcmd.s:26131  .debug_str:000000000001c5cc .LASF3939
C:\Users\CYMR90~1\AppData\Local\Temp\ccLzUcmd.s:27669  .debug_str:0000000000022647 .LASF3940
C:\Users\CYMR90~1\AppData\Local\Temp\ccLzUcmd.s:29489  .debug_str:0000000000029c27 .LASF3941
C:\Users\CYMR90~1\AppData\Local\Temp\ccLzUcmd.s:22144  .debug_str:000000000000c5a3 .LASF3942
C:\Users\CYMR90~1\AppData\Local\Temp\ccLzUcmd.s:24258  .debug_str:0000000000014bb2 .LASF3943
C:\Users\CYMR90~1\AppData\Local\Temp\ccLzUcmd.s:29979  .debug_str:000000000002ba9f .LASF3944
C:\Users\CYMR90~1\AppData\Local\Temp\ccLzUcmd.s:26599  .debug_str:000000000001e4f7 .LASF3945
C:\Users\CYMR90~1\AppData\Local\Temp\ccLzUcmd.s:26511  .debug_str:000000000001dfd9 .LASF3946
C:\Users\CYMR90~1\AppData\Local\Temp\ccLzUcmd.s:19164  .debug_str:0000000000000701 .LASF3947
C:\Users\CYMR90~1\AppData\Local\Temp\ccLzUcmd.s:30153  .debug_str:000000000002c694 .LASF3948
C:\Users\CYMR90~1\AppData\Local\Temp\ccLzUcmd.s:20138  .debug_str:00000000000044bc .LASF3949
C:\Users\CYMR90~1\AppData\Local\Temp\ccLzUcmd.s:29427  .debug_str:0000000000029869 .LASF3950
C:\Users\CYMR90~1\AppData\Local\Temp\ccLzUcmd.s:25473  .debug_str:0000000000019af0 .LASF3951
C:\Users\CYMR90~1\AppData\Local\Temp\ccLzUcmd.s:27753  .debug_str:0000000000022b82 .LASF3952
C:\Users\CYMR90~1\AppData\Local\Temp\ccLzUcmd.s:29923  .debug_str:000000000002b6cb .LASF3953
C:\Users\CYMR90~1\AppData\Local\Temp\ccLzUcmd.s:22556  .debug_str:000000000000e02e .LASF3954
C:\Users\CYMR90~1\AppData\Local\Temp\ccLzUcmd.s:20422  .debug_str:00000000000056ed .LASF3955
C:\Users\CYMR90~1\AppData\Local\Temp\ccLzUcmd.s:19092  .debug_str:00000000000002ff .LASF3956
C:\Users\CYMR90~1\AppData\Local\Temp\ccLzUcmd.s:28987  .debug_str:0000000000027b3a .LASF3957
C:\Users\CYMR90~1\AppData\Local\Temp\ccLzUcmd.s:20010  .debug_str:0000000000003bd1 .LASF3958
C:\Users\CYMR90~1\AppData\Local\Temp\ccLzUcmd.s:24104  .debug_str:0000000000014237 .LASF3959
C:\Users\CYMR90~1\AppData\Local\Temp\ccLzUcmd.s:22010  .debug_str:000000000000bd3b .LASF3960
C:\Users\CYMR90~1\AppData\Local\Temp\ccLzUcmd.s:19378  .debug_str:000000000000145b .LASF3961
C:\Users\CYMR90~1\AppData\Local\Temp\ccLzUcmd.s:29847  .debug_str:000000000002b1d6 .LASF3962
C:\Users\CYMR90~1\AppData\Local\Temp\ccLzUcmd.s:26767  .debug_str:000000000001ef3f .LASF3963
C:\Users\CYMR90~1\AppData\Local\Temp\ccLzUcmd.s:26945  .debug_str:000000000001fa48 .LASF3964
C:\Users\CYMR90~1\AppData\Local\Temp\ccLzUcmd.s:30295  .debug_str:000000000002d002 .LASF3965
C:\Users\CYMR90~1\AppData\Local\Temp\ccLzUcmd.s:23064  .debug_str:000000000000ff36 .LASF3966
C:\Users\CYMR90~1\AppData\Local\Temp\ccLzUcmd.s:23552  .debug_str:0000000000011e38 .LASF3967
C:\Users\CYMR90~1\AppData\Local\Temp\ccLzUcmd.s:25891  .debug_str:000000000001b76c .LASF3968
C:\Users\CYMR90~1\AppData\Local\Temp\ccLzUcmd.s:19982  .debug_str:0000000000003a30 .LASF3969
C:\Users\CYMR90~1\AppData\Local\Temp\ccLzUcmd.s:24284  .debug_str:0000000000014d8b .LASF3970
C:\Users\CYMR90~1\AppData\Local\Temp\ccLzUcmd.s:27477  .debug_str:0000000000021b14 .LASF3971
C:\Users\CYMR90~1\AppData\Local\Temp\ccLzUcmd.s:19826  .debug_str:0000000000002fe6 .LASF3972
C:\Users\CYMR90~1\AppData\Local\Temp\ccLzUcmd.s:21148  .debug_str:00000000000085d9 .LASF3973
C:\Users\CYMR90~1\AppData\Local\Temp\ccLzUcmd.s:25095  .debug_str:0000000000018141 .LASF3974
C:\Users\CYMR90~1\AppData\Local\Temp\ccLzUcmd.s:28983  .debug_str:0000000000027af9 .LASF3975
C:\Users\CYMR90~1\AppData\Local\Temp\ccLzUcmd.s:27825  .debug_str:0000000000022f7e .LASF3976
C:\Users\CYMR90~1\AppData\Local\Temp\ccLzUcmd.s:30167  .debug_str:000000000002c79d .LASF3977
C:\Users\CYMR90~1\AppData\Local\Temp\ccLzUcmd.s:29541  .debug_str:0000000000029f14 .LASF3978
C:\Users\CYMR90~1\AppData\Local\Temp\ccLzUcmd.s:26537  .debug_str:000000000001e162 .LASF3979
C:\Users\CYMR90~1\AppData\Local\Temp\ccLzUcmd.s:19708  .debug_str:00000000000028b6 .LASF3980
C:\Users\CYMR90~1\AppData\Local\Temp\ccLzUcmd.s:28425  .debug_str:00000000000257e3 .LASF3981
C:\Users\CYMR90~1\AppData\Local\Temp\ccLzUcmd.s:21086  .debug_str:00000000000081f2 .LASF3982
C:\Users\CYMR90~1\AppData\Local\Temp\ccLzUcmd.s:25021  .debug_str:0000000000017cc4 .LASF3983
C:\Users\CYMR90~1\AppData\Local\Temp\ccLzUcmd.s:29745  .debug_str:000000000002ab50 .LASF3984
C:\Users\CYMR90~1\AppData\Local\Temp\ccLzUcmd.s:20032  .debug_str:0000000000003d6c .LASF3985
C:\Users\CYMR90~1\AppData\Local\Temp\ccLzUcmd.s:25511  .debug_str:0000000000019d5f .LASF3986
C:\Users\CYMR90~1\AppData\Local\Temp\ccLzUcmd.s:29485  .debug_str:0000000000029bea .LASF3987
C:\Users\CYMR90~1\AppData\Local\Temp\ccLzUcmd.s:27911  .debug_str:00000000000234c2 .LASF3988
C:\Users\CYMR90~1\AppData\Local\Temp\ccLzUcmd.s:26977  .debug_str:000000000001fc41 .LASF3989
C:\Users\CYMR90~1\AppData\Local\Temp\ccLzUcmd.s:28257  .debug_str:0000000000024ba0 .LASF3990
C:\Users\CYMR90~1\AppData\Local\Temp\ccLzUcmd.s:23430  .debug_str:0000000000011572 .LASF3991
C:\Users\CYMR90~1\AppData\Local\Temp\ccLzUcmd.s:24957  .debug_str:0000000000017929 .LASF3992
C:\Users\CYMR90~1\AppData\Local\Temp\ccLzUcmd.s:21240  .debug_str:0000000000008b6d .LASF3993
C:\Users\CYMR90~1\AppData\Local\Temp\ccLzUcmd.s:25671  .debug_str:000000000001a8b7 .LASF3994
C:\Users\CYMR90~1\AppData\Local\Temp\ccLzUcmd.s:25915  .debug_str:000000000001b8fb .LASF3995
C:\Users\CYMR90~1\AppData\Local\Temp\ccLzUcmd.s:29417  .debug_str:00000000000297df .LASF3996
C:\Users\CYMR90~1\AppData\Local\Temp\ccLzUcmd.s:20110  .debug_str:00000000000042e1 .LASF3997
C:\Users\CYMR90~1\AppData\Local\Temp\ccLzUcmd.s:22482  .debug_str:000000000000db84 .LASF3998
C:\Users\CYMR90~1\AppData\Local\Temp\ccLzUcmd.s:25303  .debug_str:0000000000018ec1 .LASF3999
C:\Users\CYMR90~1\AppData\Local\Temp\ccLzUcmd.s:20948  .debug_str:00000000000077c3 .LASF4000
C:\Users\CYMR90~1\AppData\Local\Temp\ccLzUcmd.s:24889  .debug_str:00000000000174ab .LASF4001
C:\Users\CYMR90~1\AppData\Local\Temp\ccLzUcmd.s:27893  .debug_str:0000000000023356 .LASF4002
C:\Users\CYMR90~1\AppData\Local\Temp\ccLzUcmd.s:21420  .debug_str:0000000000009684 .LASF4003
C:\Users\CYMR90~1\AppData\Local\Temp\ccLzUcmd.s:30221  .debug_str:000000000002cb0d .LASF4004
C:\Users\CYMR90~1\AppData\Local\Temp\ccLzUcmd.s:29355  .debug_str:00000000000293e6 .LASF4005
C:\Users\CYMR90~1\AppData\Local\Temp\ccLzUcmd.s:22004  .debug_str:000000000000bcc2 .LASF4006
C:\Users\CYMR90~1\AppData\Local\Temp\ccLzUcmd.s:25989  .debug_str:000000000001bd3d .LASF4007
C:\Users\CYMR90~1\AppData\Local\Temp\ccLzUcmd.s:28279  .debug_str:0000000000024d2e .LASF4008
C:\Users\CYMR90~1\AppData\Local\Temp\ccLzUcmd.s:24350  .debug_str:00000000000151d9 .LASF4009
C:\Users\CYMR90~1\AppData\Local\Temp\ccLzUcmd.s:24829  .debug_str:0000000000017121 .LASF4010
C:\Users\CYMR90~1\AppData\Local\Temp\ccLzUcmd.s:28223  .debug_str:0000000000024960 .LASF4011
C:\Users\CYMR90~1\AppData\Local\Temp\ccLzUcmd.s:19278  .debug_str:0000000000000e2d .LASF4012
C:\Users\CYMR90~1\AppData\Local\Temp\ccLzUcmd.s:25333  .debug_str:0000000000019168 .LASF4013
C:\Users\CYMR90~1\AppData\Local\Temp\ccLzUcmd.s:24835  .debug_str:000000000001718d .LASF4014
C:\Users\CYMR90~1\AppData\Local\Temp\ccLzUcmd.s:27141  .debug_str:000000000002066b .LASF4015
C:\Users\CYMR90~1\AppData\Local\Temp\ccLzUcmd.s:29465  .debug_str:0000000000029aa7 .LASF4016
C:\Users\CYMR90~1\AppData\Local\Temp\ccLzUcmd.s:29767  .debug_str:000000000002acb5 .LASF4017
C:\Users\CYMR90~1\AppData\Local\Temp\ccLzUcmd.s:22852  .debug_str:000000000000f29a .LASF4018
C:\Users\CYMR90~1\AppData\Local\Temp\ccLzUcmd.s:30171  .debug_str:000000000002c7e9 .LASF4019
C:\Users\CYMR90~1\AppData\Local\Temp\ccLzUcmd.s:28645  .debug_str:000000000002656d .LASF4020
C:\Users\CYMR90~1\AppData\Local\Temp\ccLzUcmd.s:22800  .debug_str:000000000000ef50 .LASF4021
C:\Users\CYMR90~1\AppData\Local\Temp\ccLzUcmd.s:25265  .debug_str:0000000000018c7a .LASF4022
C:\Users\CYMR90~1\AppData\Local\Temp\ccLzUcmd.s:29225  .debug_str:0000000000028b41 .LASF4023
C:\Users\CYMR90~1\AppData\Local\Temp\ccLzUcmd.s:28131  .debug_str:0000000000024343 .LASF4024
C:\Users\CYMR90~1\AppData\Local\Temp\ccLzUcmd.s:25821  .debug_str:000000000001b2a6 .LASF4025
C:\Users\CYMR90~1\AppData\Local\Temp\ccLzUcmd.s:29697  .debug_str:000000000002a859 .LASF4026
C:\Users\CYMR90~1\AppData\Local\Temp\ccLzUcmd.s:22360  .debug_str:000000000000d4ac .LASF4027
C:\Users\CYMR90~1\AppData\Local\Temp\ccLzUcmd.s:28647  .debug_str:0000000000026593 .LASF4028
C:\Users\CYMR90~1\AppData\Local\Temp\ccLzUcmd.s:24730  .debug_str:0000000000016959 .LASF4029
C:\Users\CYMR90~1\AppData\Local\Temp\ccLzUcmd.s:21244  .debug_str:0000000000008ba7 .LASF4030
C:\Users\CYMR90~1\AppData\Local\Temp\ccLzUcmd.s:25189  .debug_str:00000000000186c4 .LASF4031
C:\Users\CYMR90~1\AppData\Local\Temp\ccLzUcmd.s:23220  .debug_str:0000000000010846 .LASF4032
C:\Users\CYMR90~1\AppData\Local\Temp\ccLzUcmd.s:21812  .debug_str:000000000000aff8 .LASF4033
C:\Users\CYMR90~1\AppData\Local\Temp\ccLzUcmd.s:25225  .debug_str:0000000000018956 .LASF4034
C:\Users\CYMR90~1\AppData\Local\Temp\ccLzUcmd.s:25435  .debug_str:00000000000197f7 .LASF4035
C:\Users\CYMR90~1\AppData\Local\Temp\ccLzUcmd.s:29853  .debug_str:000000000002b22c .LASF4036
C:\Users\CYMR90~1\AppData\Local\Temp\ccLzUcmd.s:20868  .debug_str:00000000000072d0 .LASF4037
C:\Users\CYMR90~1\AppData\Local\Temp\ccLzUcmd.s:30121  .debug_str:000000000002c4d5 .LASF4038
C:\Users\CYMR90~1\AppData\Local\Temp\ccLzUcmd.s:27193  .debug_str:000000000002099c .LASF4039
C:\Users\CYMR90~1\AppData\Local\Temp\ccLzUcmd.s:20808  .debug_str:0000000000006e83 .LASF4040
C:\Users\CYMR90~1\AppData\Local\Temp\ccLzUcmd.s:29097  .debug_str:0000000000028306 .LASF4041
C:\Users\CYMR90~1\AppData\Local\Temp\ccLzUcmd.s:21744  .debug_str:000000000000aae0 .LASF4042
C:\Users\CYMR90~1\AppData\Local\Temp\ccLzUcmd.s:20412  .debug_str:0000000000005615 .LASF4043
C:\Users\CYMR90~1\AppData\Local\Temp\ccLzUcmd.s:21186  .debug_str:00000000000087fb .LASF4044
C:\Users\CYMR90~1\AppData\Local\Temp\ccLzUcmd.s:22236  .debug_str:000000000000ccb0 .LASF4045
C:\Users\CYMR90~1\AppData\Local\Temp\ccLzUcmd.s:26143  .debug_str:000000000001c6a9 .LASF4046
C:\Users\CYMR90~1\AppData\Local\Temp\ccLzUcmd.s:30057  .debug_str:000000000002c032 .LASF4047
C:\Users\CYMR90~1\AppData\Local\Temp\ccLzUcmd.s:22788  .debug_str:000000000000eeab .LASF4048
C:\Users\CYMR90~1\AppData\Local\Temp\ccLzUcmd.s:26921  .debug_str:000000000001f8c3 .LASF4049
C:\Users\CYMR90~1\AppData\Local\Temp\ccLzUcmd.s:27533  .debug_str:0000000000021e95 .LASF4050
C:\Users\CYMR90~1\AppData\Local\Temp\ccLzUcmd.s:29881  .debug_str:000000000002b438 .LASF4051
C:\Users\CYMR90~1\AppData\Local\Temp\ccLzUcmd.s:25635  .debug_str:000000000001a5fb .LASF4052
C:\Users\CYMR90~1\AppData\Local\Temp\ccLzUcmd.s:28237  .debug_str:0000000000024a5f .LASF4053
C:\Users\CYMR90~1\AppData\Local\Temp\ccLzUcmd.s:25607  .debug_str:000000000001a492 .LASF4054
C:\Users\CYMR90~1\AppData\Local\Temp\ccLzUcmd.s:26073  .debug_str:000000000001c2a6 .LASF4055
C:\Users\CYMR90~1\AppData\Local\Temp\ccLzUcmd.s:19172  .debug_str:0000000000000779 .LASF4056
C:\Users\CYMR90~1\AppData\Local\Temp\ccLzUcmd.s:22158  .debug_str:000000000000c66c .LASF4057
C:\Users\CYMR90~1\AppData\Local\Temp\ccLzUcmd.s:22332  .debug_str:000000000000d2ab .LASF4058
C:\Users\CYMR90~1\AppData\Local\Temp\ccLzUcmd.s:20480  .debug_str:0000000000005a7c .LASF4059
C:\Users\CYMR90~1\AppData\Local\Temp\ccLzUcmd.s:21614  .debug_str:000000000000a2c1 .LASF4060
C:\Users\CYMR90~1\AppData\Local\Temp\ccLzUcmd.s:25553  .debug_str:0000000000019fc8 .LASF4061
C:\Users\CYMR90~1\AppData\Local\Temp\ccLzUcmd.s:29439  .debug_str:0000000000029926 .LASF4062
C:\Users\CYMR90~1\AppData\Local\Temp\ccLzUcmd.s:22094  .debug_str:000000000000c293 .LASF4063
C:\Users\CYMR90~1\AppData\Local\Temp\ccLzUcmd.s:26015  .debug_str:000000000001bf0c .LASF4064
C:\Users\CYMR90~1\AppData\Local\Temp\ccLzUcmd.s:26253  .debug_str:000000000001cee1 .LASF4065
C:\Users\CYMR90~1\AppData\Local\Temp\ccLzUcmd.s:25691  .debug_str:000000000001aa11 .LASF4066
C:\Users\CYMR90~1\AppData\Local\Temp\ccLzUcmd.s:26545  .debug_str:000000000001e1e5 .LASF4067
C:\Users\CYMR90~1\AppData\Local\Temp\ccLzUcmd.s:30123  .debug_str:000000000002c4fb .LASF4068
C:\Users\CYMR90~1\AppData\Local\Temp\ccLzUcmd.s:21698  .debug_str:000000000000a823 .LASF4069
C:\Users\CYMR90~1\AppData\Local\Temp\ccLzUcmd.s:20162  .debug_str:0000000000004636 .LASF4070
C:\Users\CYMR90~1\AppData\Local\Temp\ccLzUcmd.s:24202  .debug_str:0000000000014867 .LASF4071
C:\Users\CYMR90~1\AppData\Local\Temp\ccLzUcmd.s:28109  .debug_str:000000000002419c .LASF4072
C:\Users\CYMR90~1\AppData\Local\Temp\ccLzUcmd.s:29833  .debug_str:000000000002b0d1 .LASF4073
C:\Users\CYMR90~1\AppData\Local\Temp\ccLzUcmd.s:27609  .debug_str:00000000000222f4 .LASF4074
C:\Users\CYMR90~1\AppData\Local\Temp\ccLzUcmd.s:29961  .debug_str:000000000002b96f .LASF4075
C:\Users\CYMR90~1\AppData\Local\Temp\ccLzUcmd.s:20712  .debug_str:000000000000687f .LASF4076
C:\Users\CYMR90~1\AppData\Local\Temp\ccLzUcmd.s:25183  .debug_str:0000000000018678 .LASF4077
C:\Users\CYMR90~1\AppData\Local\Temp\ccLzUcmd.s:29159  .debug_str:000000000002876c .LASF4078
C:\Users\CYMR90~1\AppData\Local\Temp\ccLzUcmd.s:28491  .debug_str:0000000000025bcb .LASF4079
C:\Users\CYMR90~1\AppData\Local\Temp\ccLzUcmd.s:24140  .debug_str:0000000000014425 .LASF4080
C:\Users\CYMR90~1\AppData\Local\Temp\ccLzUcmd.s:28043  .debug_str:0000000000023c84 .LASF4081
C:\Users\CYMR90~1\AppData\Local\Temp\ccLzUcmd.s:28775  .debug_str:0000000000026d45 .LASF4082
C:\Users\CYMR90~1\AppData\Local\Temp\ccLzUcmd.s:26351  .debug_str:000000000001d55e .LASF4083
C:\Users\CYMR90~1\AppData\Local\Temp\ccLzUcmd.s:27073  .debug_str:0000000000020211 .LASF4084
C:\Users\CYMR90~1\AppData\Local\Temp\ccLzUcmd.s:23202  .debug_str:000000000001073c .LASF4085
C:\Users\CYMR90~1\AppData\Local\Temp\ccLzUcmd.s:25111  .debug_str:0000000000018237 .LASF4086
C:\Users\CYMR90~1\AppData\Local\Temp\ccLzUcmd.s:29087  .debug_str:000000000002825a .LASF4087
C:\Users\CYMR90~1\AppData\Local\Temp\ccLzUcmd.s:21060  .debug_str:0000000000007fb5 .LASF4088
C:\Users\CYMR90~1\AppData\Local\Temp\ccLzUcmd.s:28381  .debug_str:0000000000025477 .LASF4089
C:\Users\CYMR90~1\AppData\Local\Temp\ccLzUcmd.s:29981  .debug_str:000000000002bac5 .LASF4090
C:\Users\CYMR90~1\AppData\Local\Temp\ccLzUcmd.s:21412  .debug_str:000000000000960b .LASF4091
C:\Users\CYMR90~1\AppData\Local\Temp\ccLzUcmd.s:24544  .debug_str:0000000000015d92 .LASF4092
C:\Users\CYMR90~1\AppData\Local\Temp\ccLzUcmd.s:28441  .debug_str:00000000000258d0 .LASF4093
C:\Users\CYMR90~1\AppData\Local\Temp\ccLzUcmd.s:23618  .debug_str:0000000000012289 .LASF4094
C:\Users\CYMR90~1\AppData\Local\Temp\ccLzUcmd.s:23662  .debug_str:0000000000012556 .LASF4095
C:\Users\CYMR90~1\AppData\Local\Temp\ccLzUcmd.s:22264  .debug_str:000000000000ce0d .LASF4096
C:\Users\CYMR90~1\AppData\Local\Temp\ccLzUcmd.s:21670  .debug_str:000000000000a63e .LASF4097
C:\Users\CYMR90~1\AppData\Local\Temp\ccLzUcmd.s:25625  .debug_str:000000000001a562 .LASF4098
C:\Users\CYMR90~1\AppData\Local\Temp\ccLzUcmd.s:22670  .debug_str:000000000000e78a .LASF4099
C:\Users\CYMR90~1\AppData\Local\Temp\ccLzUcmd.s:20524  .debug_str:0000000000005cce .LASF4100
C:\Users\CYMR90~1\AppData\Local\Temp\ccLzUcmd.s:26811  .debug_str:000000000001f204 .LASF4101
C:\Users\CYMR90~1\AppData\Local\Temp\ccLzUcmd.s:28379  .debug_str:0000000000025451 .LASF4102
C:\Users\CYMR90~1\AppData\Local\Temp\ccLzUcmd.s:28171  .debug_str:00000000000245d1 .LASF4103
C:\Users\CYMR90~1\AppData\Local\Temp\ccLzUcmd.s:20092  .debug_str:00000000000041dc .LASF4104
C:\Users\CYMR90~1\AppData\Local\Temp\ccLzUcmd.s:25793  .debug_str:000000000001b095 .LASF4105
C:\Users\CYMR90~1\AppData\Local\Temp\ccLzUcmd.s:23284  .debug_str:0000000000010c8d .LASF4106
C:\Users\CYMR90~1\AppData\Local\Temp\ccLzUcmd.s:25545  .debug_str:0000000000019f50 .LASF4107
C:\Users\CYMR90~1\AppData\Local\Temp\ccLzUcmd.s:29433  .debug_str:00000000000298bc .LASF4108
C:\Users\CYMR90~1\AppData\Local\Temp\ccLzUcmd.s:28757  .debug_str:0000000000026c25 .LASF4109
C:\Users\CYMR90~1\AppData\Local\Temp\ccLzUcmd.s:24424  .debug_str:0000000000015616 .LASF4110
C:\Users\CYMR90~1\AppData\Local\Temp\ccLzUcmd.s:30067  .debug_str:000000000002c0ff .LASF4111
C:\Users\CYMR90~1\AppData\Local\Temp\ccLzUcmd.s:20956  .debug_str:0000000000007855 .LASF4112
C:\Users\CYMR90~1\AppData\Local\Temp\ccLzUcmd.s:28323  .debug_str:0000000000025007 .LASF4113
C:\Users\CYMR90~1\AppData\Local\Temp\ccLzUcmd.s:30289  .debug_str:000000000002cf9e .LASF4114
C:\Users\CYMR90~1\AppData\Local\Temp\ccLzUcmd.s:20248  .debug_str:0000000000004c57 .LASF4115
C:\Users\CYMR90~1\AppData\Local\Temp\ccLzUcmd.s:25487  .debug_str:0000000000019be3 .LASF4116
C:\Users\CYMR90~1\AppData\Local\Temp\ccLzUcmd.s:20474  .debug_str:00000000000059e8 .LASF4117
C:\Users\CYMR90~1\AppData\Local\Temp\ccLzUcmd.s:22016  .debug_str:000000000000bd99 .LASF4118
C:\Users\CYMR90~1\AppData\Local\Temp\ccLzUcmd.s:23348  .debug_str:0000000000011036 .LASF4119
C:\Users\CYMR90~1\AppData\Local\Temp\ccLzUcmd.s:21512  .debug_str:0000000000009c68 .LASF4120
C:\Users\CYMR90~1\AppData\Local\Temp\ccLzUcmd.s:28531  .debug_str:0000000000025e6d .LASF4121
C:\Users\CYMR90~1\AppData\Local\Temp\ccLzUcmd.s:24927  .debug_str:0000000000017702 .LASF4122
C:\Users\CYMR90~1\AppData\Local\Temp\ccLzUcmd.s:21482  .debug_str:0000000000009a96 .LASF4123
C:\Users\CYMR90~1\AppData\Local\Temp\ccLzUcmd.s:26133  .debug_str:000000000001c5f2 .LASF4124
C:\Users\CYMR90~1\AppData\Local\Temp\ccLzUcmd.s:25431  .debug_str:00000000000197ac .LASF4125
C:\Users\CYMR90~1\AppData\Local\Temp\ccLzUcmd.s:29309  .debug_str:000000000002908f .LASF4126
C:\Users\CYMR90~1\AppData\Local\Temp\ccLzUcmd.s:19474  .debug_str:0000000000001ab1 .LASF4127
C:\Users\CYMR90~1\AppData\Local\Temp\ccLzUcmd.s:21828  .debug_str:000000000000b10f .LASF4128
C:\Users\CYMR90~1\AppData\Local\Temp\ccLzUcmd.s:22962  .debug_str:000000000000f9b3 .LASF4129
C:\Users\CYMR90~1\AppData\Local\Temp\ccLzUcmd.s:20818  .debug_str:0000000000006f0c .LASF4130
C:\Users\CYMR90~1\AppData\Local\Temp\ccLzUcmd.s:24863  .debug_str:000000000001732a .LASF4131
C:\Users\CYMR90~1\AppData\Local\Temp\ccLzUcmd.s:28749  .debug_str:0000000000026bad .LASF4132
C:\Users\CYMR90~1\AppData\Local\Temp\ccLzUcmd.s:27279  .debug_str:0000000000020eb5 .LASF4133
C:\Users\CYMR90~1\AppData\Local\Temp\ccLzUcmd.s:25367  .debug_str:000000000001935c .LASF4134
C:\Users\CYMR90~1\AppData\Local\Temp\ccLzUcmd.s:20640  .debug_str:000000000000640b .LASF4135
C:\Users\CYMR90~1\AppData\Local\Temp\ccLzUcmd.s:21892  .debug_str:000000000000b541 .LASF4136
C:\Users\CYMR90~1\AppData\Local\Temp\ccLzUcmd.s:25359  .debug_str:00000000000192e6 .LASF4137
C:\Users\CYMR90~1\AppData\Local\Temp\ccLzUcmd.s:23510  .debug_str:0000000000011b60 .LASF4138
C:\Users\CYMR90~1\AppData\Local\Temp\ccLzUcmd.s:20556  .debug_str:0000000000005ec3 .LASF4139
C:\Users\CYMR90~1\AppData\Local\Temp\ccLzUcmd.s:24799  .debug_str:0000000000016f67 .LASF4140
C:\Users\CYMR90~1\AppData\Local\Temp\ccLzUcmd.s:28681  .debug_str:0000000000026782 .LASF4141
C:\Users\CYMR90~1\AppData\Local\Temp\ccLzUcmd.s:21346  .debug_str:00000000000091f1 .LASF4142
C:\Users\CYMR90~1\AppData\Local\Temp\ccLzUcmd.s:19438  .debug_str:0000000000001886 .LASF4143
C:\Users\CYMR90~1\AppData\Local\Temp\ccLzUcmd.s:25467  .debug_str:0000000000019a94 .LASF4144
C:\Users\CYMR90~1\AppData\Local\Temp\ccLzUcmd.s:21826  .debug_str:000000000000b0e9 .LASF4145
C:\Users\CYMR90~1\AppData\Local\Temp\ccLzUcmd.s:25783  .debug_str:000000000001affc .LASF4146
C:\Users\CYMR90~1\AppData\Local\Temp\ccLzUcmd.s:29643  .debug_str:000000000002a52f .LASF4147
C:\Users\CYMR90~1\AppData\Local\Temp\ccLzUcmd.s:22396  .debug_str:000000000000d6ee .LASF4148
C:\Users\CYMR90~1\AppData\Local\Temp\ccLzUcmd.s:19444  .debug_str:00000000000018ec .LASF4149
C:\Users\CYMR90~1\AppData\Local\Temp\ccLzUcmd.s:28619  .debug_str:00000000000263ab .LASF4150
C:\Users\CYMR90~1\AppData\Local\Temp\ccLzUcmd.s:23040  .debug_str:000000000000fde5 .LASF4151
C:\Users\CYMR90~1\AppData\Local\Temp\ccLzUcmd.s:25529  .debug_str:0000000000019e60 .LASF4152
C:\Users\CYMR90~1\AppData\Local\Temp\ccLzUcmd.s:27663  .debug_str:00000000000225f8 .LASF4153
C:\Users\CYMR90~1\AppData\Local\Temp\ccLzUcmd.s:30011  .debug_str:000000000002bcd6 .LASF4154
C:\Users\CYMR90~1\AppData\Local\Temp\ccLzUcmd.s:25721  .debug_str:000000000001abbd .LASF4155
C:\Users\CYMR90~1\AppData\Local\Temp\ccLzUcmd.s:29585  .debug_str:000000000002a169 .LASF4156
C:\Users\CYMR90~1\AppData\Local\Temp\ccLzUcmd.s:26561  .debug_str:000000000001e2ba .LASF4157
C:\Users\CYMR90~1\AppData\Local\Temp\ccLzUcmd.s:28887  .debug_str:0000000000027499 .LASF4158
C:\Users\CYMR90~1\AppData\Local\Temp\ccLzUcmd.s:23334  .debug_str:0000000000010f56 .LASF4159
C:\Users\CYMR90~1\AppData\Local\Temp\ccLzUcmd.s:21216  .debug_str:00000000000089e7 .LASF4160
C:\Users\CYMR90~1\AppData\Local\Temp\ccLzUcmd.s:25157  .debug_str:000000000001852e .LASF4161
C:\Users\CYMR90~1\AppData\Local\Temp\ccLzUcmd.s:22024  .debug_str:000000000000be28 .LASF4162
C:\Users\CYMR90~1\AppData\Local\Temp\ccLzUcmd.s:23310  .debug_str:0000000000010dde .LASF4163
C:\Users\CYMR90~1\AppData\Local\Temp\ccLzUcmd.s:25647  .debug_str:000000000001a6d7 .LASF4164
C:\Users\CYMR90~1\AppData\Local\Temp\ccLzUcmd.s:24020  .debug_str:0000000000013cd4 .LASF4165
C:\Users\CYMR90~1\AppData\Local\Temp\ccLzUcmd.s:26603  .debug_str:000000000001e54d .LASF4166
C:\Users\CYMR90~1\AppData\Local\Temp\ccLzUcmd.s:27341  .debug_str:000000000002123e .LASF4167
C:\Users\CYMR90~1\AppData\Local\Temp\ccLzUcmd.s:23454  .debug_str:0000000000011795 .LASF4168
C:\Users\CYMR90~1\AppData\Local\Temp\ccLzUcmd.s:21742  .debug_str:000000000000aaba .LASF4169
C:\Users\CYMR90~1\AppData\Local\Temp\ccLzUcmd.s:19870  .debug_str:00000000000032c6 .LASF4170
C:\Users\CYMR90~1\AppData\Local\Temp\ccLzUcmd.s:23820  .debug_str:0000000000012ff3 .LASF4171
C:\Users\CYMR90~1\AppData\Local\Temp\ccLzUcmd.s:27375  .debug_str:00000000000214ea .LASF4172
C:\Users\CYMR90~1\AppData\Local\Temp\ccLzUcmd.s:20320  .debug_str:00000000000050ba .LASF4173
C:\Users\CYMR90~1\AppData\Local\Temp\ccLzUcmd.s:24280  .debug_str:0000000000014d43 .LASF4174
C:\Users\CYMR90~1\AppData\Local\Temp\ccLzUcmd.s:28181  .debug_str:000000000002466e .LASF4175
C:\Users\CYMR90~1\AppData\Local\Temp\ccLzUcmd.s:20810  .debug_str:0000000000006ea9 .LASF4176
C:\Users\CYMR90~1\AppData\Local\Temp\ccLzUcmd.s:20106  .debug_str:00000000000042b2 .LASF4177
C:\Users\CYMR90~1\AppData\Local\Temp\ccLzUcmd.s:28741  .debug_str:0000000000026b12 .LASF4178
C:\Users\CYMR90~1\AppData\Local\Temp\ccLzUcmd.s:29333  .debug_str:0000000000029272 .LASF4179
C:\Users\CYMR90~1\AppData\Local\Temp\ccLzUcmd.s:23768  .debug_str:0000000000012c71 .LASF4180
C:\Users\CYMR90~1\AppData\Local\Temp\ccLzUcmd.s:27653  .debug_str:000000000002253b .LASF4181
C:\Users\CYMR90~1\AppData\Local\Temp\ccLzUcmd.s:23604  .debug_str:0000000000012192 .LASF4182
C:\Users\CYMR90~1\AppData\Local\Temp\ccLzUcmd.s:24326  .debug_str:0000000000015074 .LASF4183
C:\Users\CYMR90~1\AppData\Local\Temp\ccLzUcmd.s:30169  .debug_str:000000000002c7c3 .LASF4184
C:\Users\CYMR90~1\AppData\Local\Temp\ccLzUcmd.s:28911  .debug_str:0000000000027607 .LASF4185
C:\Users\CYMR90~1\AppData\Local\Temp\ccLzUcmd.s:24698  .debug_str:00000000000166f5 .LASF4186
C:\Users\CYMR90~1\AppData\Local\Temp\ccLzUcmd.s:23194  .debug_str:00000000000106bf .LASF4187
C:\Users\CYMR90~1\AppData\Local\Temp\ccLzUcmd.s:21338  .debug_str:0000000000009182 .LASF4188
C:\Users\CYMR90~1\AppData\Local\Temp\ccLzUcmd.s:29693  .debug_str:000000000002a80f .LASF4189
C:\Users\CYMR90~1\AppData\Local\Temp\ccLzUcmd.s:27583  .debug_str:000000000002217a .LASF4190
C:\Users\CYMR90~1\AppData\Local\Temp\ccLzUcmd.s:24582  .debug_str:000000000001606a .LASF4191
C:\Users\CYMR90~1\AppData\Local\Temp\ccLzUcmd.s:27761  .debug_str:0000000000022c0a .LASF4192
C:\Users\CYMR90~1\AppData\Local\Temp\ccLzUcmd.s:22888  .debug_str:000000000000f4cd .LASF4193
C:\Users\CYMR90~1\AppData\Local\Temp\ccLzUcmd.s:20674  .debug_str:00000000000065e3 .LASF4194
C:\Users\CYMR90~1\AppData\Local\Temp\ccLzUcmd.s:24628  .debug_str:0000000000016323 .LASF4195
C:\Users\CYMR90~1\AppData\Local\Temp\ccLzUcmd.s:28611  .debug_str:0000000000026313 .LASF4196
C:\Users\CYMR90~1\AppData\Local\Temp\ccLzUcmd.s:21280  .debug_str:0000000000008e3b .LASF4197
C:\Users\CYMR90~1\AppData\Local\Temp\ccLzUcmd.s:25221  .debug_str:00000000000188f6 .LASF4198
C:\Users\CYMR90~1\AppData\Local\Temp\ccLzUcmd.s:22290  .debug_str:000000000000cfdc .LASF4199
C:\Users\CYMR90~1\AppData\Local\Temp\ccLzUcmd.s:20142  .debug_str:0000000000004506 .LASF4200
C:\Users\CYMR90~1\AppData\Local\Temp\ccLzUcmd.s:24084  .debug_str:00000000000140fe .LASF4201
C:\Users\CYMR90~1\AppData\Local\Temp\ccLzUcmd.s:22138  .debug_str:000000000000c518 .LASF4202
C:\Users\CYMR90~1\AppData\Local\Temp\ccLzUcmd.s:20610  .debug_str:000000000000621b .LASF4203
C:\Users\CYMR90~1\AppData\Local\Temp\ccLzUcmd.s:19758  .debug_str:0000000000002bcc .LASF4204
C:\Users\CYMR90~1\AppData\Local\Temp\ccLzUcmd.s:30175  .debug_str:000000000002c833 .LASF4205
C:\Users\CYMR90~1\AppData\Local\Temp\ccLzUcmd.s:21228  .debug_str:0000000000008aa7 .LASF4206
C:\Users\CYMR90~1\AppData\Local\Temp\ccLzUcmd.s:25151  .debug_str:00000000000184c0 .LASF4207
C:\Users\CYMR90~1\AppData\Local\Temp\ccLzUcmd.s:19514  .debug_str:0000000000001d19 .LASF4208
C:\Users\CYMR90~1\AppData\Local\Temp\ccLzUcmd.s:26139  .debug_str:000000000001c649 .LASF4209
C:\Users\CYMR90~1\AppData\Local\Temp\ccLzUcmd.s:24016  .debug_str:0000000000013c91 .LASF4210
C:\Users\CYMR90~1\AppData\Local\Temp\ccLzUcmd.s:27929  .debug_str:00000000000235e0 .LASF4211
C:\Users\CYMR90~1\AppData\Local\Temp\ccLzUcmd.s:24434  .debug_str:00000000000156c8 .LASF4212
C:\Users\CYMR90~1\AppData\Local\Temp\ccLzUcmd.s:29089  .debug_str:0000000000028280 .LASF4213
C:\Users\CYMR90~1\AppData\Local\Temp\ccLzUcmd.s:22412  .debug_str:000000000000d7d5 .LASF4214
C:\Users\CYMR90~1\AppData\Local\Temp\ccLzUcmd.s:21136  .debug_str:0000000000008531 .LASF4215
C:\Users\CYMR90~1\AppData\Local\Temp\ccLzUcmd.s:27045  .debug_str:000000000002009d .LASF4216
C:\Users\CYMR90~1\AppData\Local\Temp\ccLzUcmd.s:28973  .debug_str:0000000000027a4d .LASF4217
C:\Users\CYMR90~1\AppData\Local\Temp\ccLzUcmd.s:21618  .debug_str:000000000000a2ff .LASF4218
C:\Users\CYMR90~1\AppData\Local\Temp\ccLzUcmd.s:29993  .debug_str:000000000002bb90 .LASF4219
C:\Users\CYMR90~1\AppData\Local\Temp\ccLzUcmd.s:20920  .debug_str:00000000000075f9 .LASF4220
C:\Users\CYMR90~1\AppData\Local\Temp\ccLzUcmd.s:20470  .debug_str:0000000000005990 .LASF4221
C:\Users\CYMR90~1\AppData\Local\Temp\ccLzUcmd.s:23584  .debug_str:0000000000012081 .LASF4222
C:\Users\CYMR90~1\AppData\Local\Temp\ccLzUcmd.s:24478  .debug_str:000000000001595c .LASF4223
C:\Users\CYMR90~1\AppData\Local\Temp\ccLzUcmd.s:21072  .debug_str:00000000000080fa .LASF4224
C:\Users\CYMR90~1\AppData\Local\Temp\ccLzUcmd.s:24494  .debug_str:0000000000015a49 .LASF4225
C:\Users\CYMR90~1\AppData\Local\Temp\ccLzUcmd.s:21606  .debug_str:000000000000a23a .LASF4226
C:\Users\CYMR90~1\AppData\Local\Temp\ccLzUcmd.s:19742  .debug_str:0000000000002ac2 .LASF4227
C:\Users\CYMR90~1\AppData\Local\Temp\ccLzUcmd.s:27019  .debug_str:000000000001ff1c .LASF4228
C:\Users\CYMR90~1\AppData\Local\Temp\ccLzUcmd.s:21810  .debug_str:000000000000afd2 .LASF4229
C:\Users\CYMR90~1\AppData\Local\Temp\ccLzUcmd.s:20406  .debug_str:00000000000055c9 .LASF4230
C:\Users\CYMR90~1\AppData\Local\Temp\ccLzUcmd.s:21024  .debug_str:0000000000007ca1 .LASF4231
C:\Users\CYMR90~1\AppData\Local\Temp\ccLzUcmd.s:29393  .debug_str:0000000000029687 .LASF4232
C:\Users\CYMR90~1\AppData\Local\Temp\ccLzUcmd.s:20996  .debug_str:0000000000007b14 .LASF4233
C:\Users\CYMR90~1\AppData\Local\Temp\ccLzUcmd.s:20572  .debug_str:0000000000005fba .LASF4234
C:\Users\CYMR90~1\AppData\Local\Temp\ccLzUcmd.s:21354  .debug_str:0000000000009277 .LASF4235
C:\Users\CYMR90~1\AppData\Local\Temp\ccLzUcmd.s:28007  .debug_str:0000000000023a77 .LASF4236
C:\Users\CYMR90~1\AppData\Local\Temp\ccLzUcmd.s:20186  .debug_str:00000000000047e4 .LASF4237
C:\Users\CYMR90~1\AppData\Local\Temp\ccLzUcmd.s:20762  .debug_str:0000000000006b78 .LASF4238
C:\Users\CYMR90~1\AppData\Local\Temp\ccLzUcmd.s:29863  .debug_str:000000000002b2e0 .LASF4239
C:\Users\CYMR90~1\AppData\Local\Temp\ccLzUcmd.s:20348  .debug_str:0000000000005272 .LASF4240
C:\Users\CYMR90~1\AppData\Local\Temp\ccLzUcmd.s:21626  .debug_str:000000000000a3af .LASF4241
C:\Users\CYMR90~1\AppData\Local\Temp\ccLzUcmd.s:20932  .debug_str:00000000000076c9 .LASF4242
C:\Users\CYMR90~1\AppData\Local\Temp\ccLzUcmd.s:26291  .debug_str:000000000001d1aa .LASF4243
C:\Users\CYMR90~1\AppData\Local\Temp\ccLzUcmd.s:28577  .debug_str:0000000000026111 .LASF4244
C:\Users\CYMR90~1\AppData\Local\Temp\ccLzUcmd.s:19634  .debug_str:00000000000023d2 .LASF4245
C:\Users\CYMR90~1\AppData\Local\Temp\ccLzUcmd.s:21980  .debug_str:000000000000bad8 .LASF4246
C:\Users\CYMR90~1\AppData\Local\Temp\ccLzUcmd.s:29341  .debug_str:00000000000292ed .LASF4247
C:\Users\CYMR90~1\AppData\Local\Temp\ccLzUcmd.s:21750  .debug_str:000000000000ab58 .LASF4248
C:\Users\CYMR90~1\AppData\Local\Temp\ccLzUcmd.s:19068  .debug_str:000000000000016d .LASF4249
C:\Users\CYMR90~1\AppData\Local\Temp\ccLzUcmd.s:28227  .debug_str:0000000000024998 .LASF4250
C:\Users\CYMR90~1\AppData\Local\Temp\ccLzUcmd.s:20858  .debug_str:00000000000071e6 .LASF4251
C:\Users\CYMR90~1\AppData\Local\Temp\ccLzUcmd.s:24815  .debug_str:0000000000017041 .LASF4252
C:\Users\CYMR90~1\AppData\Local\Temp\ccLzUcmd.s:24204  .debug_str:000000000001488d .LASF4253
C:\Users\CYMR90~1\AppData\Local\Temp\ccLzUcmd.s:24953  .debug_str:00000000000178d2 .LASF4254
C:\Users\CYMR90~1\AppData\Local\Temp\ccLzUcmd.s:25723  .debug_str:000000000001abe3 .LASF4255
C:\Users\CYMR90~1\AppData\Local\Temp\ccLzUcmd.s:28659  .debug_str:0000000000026644 .LASF4256
C:\Users\CYMR90~1\AppData\Local\Temp\ccLzUcmd.s:28791  .debug_str:0000000000026e21 .LASF4257
C:\Users\CYMR90~1\AppData\Local\Temp\ccLzUcmd.s:25861  .debug_str:000000000001b599 .LASF4258
C:\Users\CYMR90~1\AppData\Local\Temp\ccLzUcmd.s:27865  .debug_str:00000000000231bd .LASF4259
C:\Users\CYMR90~1\AppData\Local\Temp\ccLzUcmd.s:20786  .debug_str:0000000000006d1a .LASF4260
C:\Users\CYMR90~1\AppData\Local\Temp\ccLzUcmd.s:24744  .debug_str:0000000000016a39 .LASF4261
C:\Users\CYMR90~1\AppData\Local\Temp\ccLzUcmd.s:28633  .debug_str:0000000000026478 .LASF4262
C:\Users\CYMR90~1\AppData\Local\Temp\ccLzUcmd.s:20130  .debug_str:000000000000443a .LASF4263
C:\Users\CYMR90~1\AppData\Local\Temp\ccLzUcmd.s:25267  .debug_str:0000000000018ca0 .LASF4264
C:\Users\CYMR90~1\AppData\Local\Temp\ccLzUcmd.s:23884  .debug_str:00000000000134be .LASF4265
C:\Users\CYMR90~1\AppData\Local\Temp\ccLzUcmd.s:25997  .debug_str:000000000001bdc0 .LASF4266
C:\Users\CYMR90~1\AppData\Local\Temp\ccLzUcmd.s:25813  .debug_str:000000000001b21a .LASF4267
C:\Users\CYMR90~1\AppData\Local\Temp\ccLzUcmd.s:24250  .debug_str:0000000000014b2e .LASF4268
C:\Users\CYMR90~1\AppData\Local\Temp\ccLzUcmd.s:20132  .debug_str:0000000000004460 .LASF4269
C:\Users\CYMR90~1\AppData\Local\Temp\ccLzUcmd.s:28123  .debug_str:00000000000242ca .LASF4270
C:\Users\CYMR90~1\AppData\Local\Temp\ccLzUcmd.s:23420  .debug_str:00000000000114d1 .LASF4271
C:\Users\CYMR90~1\AppData\Local\Temp\ccLzUcmd.s:27319  .debug_str:00000000000210e9 .LASF4272
C:\Users\CYMR90~1\AppData\Local\Temp\ccLzUcmd.s:19952  .debug_str:000000000000383a .LASF4273
C:\Users\CYMR90~1\AppData\Local\Temp\ccLzUcmd.s:23902  .debug_str:00000000000135f0 .LASF4274
C:\Users\CYMR90~1\AppData\Local\Temp\ccLzUcmd.s:27231  .debug_str:0000000000020bd4 .LASF4275
C:\Users\CYMR90~1\AppData\Local\Temp\ccLzUcmd.s:26111  .debug_str:000000000001c4b7 .LASF4276
C:\Users\CYMR90~1\AppData\Local\Temp\ccLzUcmd.s:25287  .debug_str:0000000000018df5 .LASF4277
C:\Users\CYMR90~1\AppData\Local\Temp\ccLzUcmd.s:26823  .debug_str:000000000001f2b8 .LASF4278
C:\Users\CYMR90~1\AppData\Local\Temp\ccLzUcmd.s:20128  .debug_str:0000000000004414 .LASF4279
C:\Users\CYMR90~1\AppData\Local\Temp\ccLzUcmd.s:20060  .debug_str:0000000000003f6d .LASF4280
C:\Users\CYMR90~1\AppData\Local\Temp\ccLzUcmd.s:27257  .debug_str:0000000000020d76 .LASF4281
C:\Users\CYMR90~1\AppData\Local\Temp\ccLzUcmd.s:25249  .debug_str:0000000000018aba .LASF4282
C:\Users\CYMR90~1\AppData\Local\Temp\ccLzUcmd.s:23934  .debug_str:00000000000137cc .LASF4283
C:\Users\CYMR90~1\AppData\Local\Temp\ccLzUcmd.s:27755  .debug_str:0000000000022ba8 .LASF4284
C:\Users\CYMR90~1\AppData\Local\Temp\ccLzUcmd.s:30269  .debug_str:000000000002ce5b .LASF4285
C:\Users\CYMR90~1\AppData\Local\Temp\ccLzUcmd.s:21722  .debug_str:000000000000a97f .LASF4286
C:\Users\CYMR90~1\AppData\Local\Temp\ccLzUcmd.s:22394  .debug_str:000000000000d6e1 .LASF4287
C:\Users\CYMR90~1\AppData\Local\Temp\ccLzUcmd.s:27885  .debug_str:00000000000232e3 .LASF4288
C:\Users\CYMR90~1\AppData\Local\Temp\ccLzUcmd.s:26461  .debug_str:000000000001dc33 .LASF4289
C:\Users\CYMR90~1\AppData\Local\Temp\ccLzUcmd.s:19124  .debug_str:00000000000004c9 .LASF4290
C:\Users\CYMR90~1\AppData\Local\Temp\ccLzUcmd.s:20178  .debug_str:000000000000474a .LASF4291
C:\Users\CYMR90~1\AppData\Local\Temp\ccLzUcmd.s:22570  .debug_str:000000000000e11c .LASF4292
C:\Users\CYMR90~1\AppData\Local\Temp\ccLzUcmd.s:20734  .debug_str:00000000000069d9 .LASF4293
C:\Users\CYMR90~1\AppData\Local\Temp\ccLzUcmd.s:23958  .debug_str:0000000000013917 .LASF4294
C:\Users\CYMR90~1\AppData\Local\Temp\ccLzUcmd.s:23582  .debug_str:000000000001205a .LASF4295
C:\Users\CYMR90~1\AppData\Local\Temp\ccLzUcmd.s:19816  .debug_str:0000000000002f3f .LASF4296
C:\Users\CYMR90~1\AppData\Local\Temp\ccLzUcmd.s:20370  .debug_str:00000000000053aa .LASF4297
C:\Users\CYMR90~1\AppData\Local\Temp\ccLzUcmd.s:19900  .debug_str:00000000000034d6 .LASF4298
C:\Users\CYMR90~1\AppData\Local\Temp\ccLzUcmd.s:19084  .debug_str:0000000000000253 .LASF4299
C:\Users\CYMR90~1\AppData\Local\Temp\ccLzUcmd.s:21348  .debug_str:0000000000009217 .LASF4300
C:\Users\CYMR90~1\AppData\Local\Temp\ccLzUcmd.s:24720  .debug_str:00000000000168c1 .LASF4301
C:\Users\CYMR90~1\AppData\Local\Temp\ccLzUcmd.s:19806  .debug_str:0000000000002eb4 .LASF4302
C:\Users\CYMR90~1\AppData\Local\Temp\ccLzUcmd.s:28715  .debug_str:000000000002698c .LASF4303
C:\Users\CYMR90~1\AppData\Local\Temp\ccLzUcmd.s:24586  .debug_str:00000000000160ab .LASF4304
C:\Users\CYMR90~1\AppData\Local\Temp\ccLzUcmd.s:25261  .debug_str:0000000000018c13 .LASF4305
C:\Users\CYMR90~1\AppData\Local\Temp\ccLzUcmd.s:27897  .debug_str:00000000000233b3 .LASF4306
C:\Users\CYMR90~1\AppData\Local\Temp\ccLzUcmd.s:27683  .debug_str:0000000000022721 .LASF4307
C:\Users\CYMR90~1\AppData\Local\Temp\ccLzUcmd.s:23784  .debug_str:0000000000012d6f .LASF4308
C:\Users\CYMR90~1\AppData\Local\Temp\ccLzUcmd.s:26385  .debug_str:000000000001d799 .LASF4309
C:\Users\CYMR90~1\AppData\Local\Temp\ccLzUcmd.s:29611  .debug_str:000000000002a30f .LASF4310
C:\Users\CYMR90~1\AppData\Local\Temp\ccLzUcmd.s:19828  .debug_str:000000000000300c .LASF4311
C:\Users\CYMR90~1\AppData\Local\Temp\ccLzUcmd.s:28487  .debug_str:0000000000025b8e .LASF4312
C:\Users\CYMR90~1\AppData\Local\Temp\ccLzUcmd.s:23320  .debug_str:0000000000010e84 .LASF4313
C:\Users\CYMR90~1\AppData\Local\Temp\ccLzUcmd.s:26513  .debug_str:000000000001dfff .LASF4314
C:\Users\CYMR90~1\AppData\Local\Temp\ccLzUcmd.s:21516  .debug_str:0000000000009ca5 .LASF4315
C:\Users\CYMR90~1\AppData\Local\Temp\ccLzUcmd.s:25777  .debug_str:000000000001afae .LASF4316
C:\Users\CYMR90~1\AppData\Local\Temp\ccLzUcmd.s:26357  .debug_str:000000000001d5b6 .LASF4317
C:\Users\CYMR90~1\AppData\Local\Temp\ccLzUcmd.s:21904  .debug_str:000000000000b5e0 .LASF4318
C:\Users\CYMR90~1\AppData\Local\Temp\ccLzUcmd.s:24931  .debug_str:0000000000017740 .LASF4319
C:\Users\CYMR90~1\AppData\Local\Temp\ccLzUcmd.s:26059  .debug_str:000000000001c1cc .LASF4320
C:\Users\CYMR90~1\AppData\Local\Temp\ccLzUcmd.s:23716  .debug_str:0000000000012922 .LASF4321
C:\Users\CYMR90~1\AppData\Local\Temp\ccLzUcmd.s:27215  .debug_str:0000000000020add .LASF4322
C:\Users\CYMR90~1\AppData\Local\Temp\ccLzUcmd.s:21838  .debug_str:000000000000b193 .LASF4323
C:\Users\CYMR90~1\AppData\Local\Temp\ccLzUcmd.s:25745  .debug_str:000000000001ad30 .LASF4324
C:\Users\CYMR90~1\AppData\Local\Temp\ccLzUcmd.s:24432  .debug_str:00000000000156a3 .LASF4325
C:\Users\CYMR90~1\AppData\Local\Temp\ccLzUcmd.s:23766  .debug_str:0000000000012c4c .LASF4326
C:\Users\CYMR90~1\AppData\Local\Temp\ccLzUcmd.s:29989  .debug_str:000000000002bb69 .LASF4327
C:\Users\CYMR90~1\AppData\Local\Temp\ccLzUcmd.s:25385  .debug_str:000000000001948d .LASF4328
C:\Users\CYMR90~1\AppData\Local\Temp\ccLzUcmd.s:24929  .debug_str:0000000000017728 .LASF4329
C:\Users\CYMR90~1\AppData\Local\Temp\ccLzUcmd.s:26381  .debug_str:000000000001d778 .LASF4330
C:\Users\CYMR90~1\AppData\Local\Temp\ccLzUcmd.s:28629  .debug_str:000000000002643f .LASF4331
C:\Users\CYMR90~1\AppData\Local\Temp\ccLzUcmd.s:20404  .debug_str:00000000000055b0 .LASF4332
C:\Users\CYMR90~1\AppData\Local\Temp\ccLzUcmd.s:19372  .debug_str:0000000000001411 .LASF4333
C:\Users\CYMR90~1\AppData\Local\Temp\ccLzUcmd.s:26691  .debug_str:000000000001eabc .LASF4334
C:\Users\CYMR90~1\AppData\Local\Temp\ccLzUcmd.s:27391  .debug_str:00000000000215d3 .LASF4335
C:\Users\CYMR90~1\AppData\Local\Temp\ccLzUcmd.s:29559  .debug_str:000000000002a017 .LASF4336
C:\Users\CYMR90~1\AppData\Local\Temp\ccLzUcmd.s:23434  .debug_str:00000000000115af .LASF4337
C:\Users\CYMR90~1\AppData\Local\Temp\ccLzUcmd.s:29217  .debug_str:0000000000028ae5 .LASF4338
C:\Users\CYMR90~1\AppData\Local\Temp\ccLzUcmd.s:24212  .debug_str:0000000000014902 .LASF4339
C:\Users\CYMR90~1\AppData\Local\Temp\ccLzUcmd.s:21798  .debug_str:000000000000af1f .LASF4340
C:\Users\CYMR90~1\AppData\Local\Temp\ccLzUcmd.s:27177  .debug_str:0000000000020894 .LASF4341
C:\Users\CYMR90~1\AppData\Local\Temp\ccLzUcmd.s:21242  .debug_str:0000000000008b93 .LASF4342
C:\Users\CYMR90~1\AppData\Local\Temp\ccLzUcmd.s:28019  .debug_str:0000000000023b1a .LASF4343
C:\Users\CYMR90~1\AppData\Local\Temp\ccLzUcmd.s:27977  .debug_str:00000000000238da .LASF4344
C:\Users\CYMR90~1\AppData\Local\Temp\ccLzUcmd.s:28789  .debug_str:0000000000026e0f .LASF4345
C:\Users\CYMR90~1\AppData\Local\Temp\ccLzUcmd.s:20902  .debug_str:00000000000074e8 .LASF4346
C:\Users\CYMR90~1\AppData\Local\Temp\ccLzUcmd.s:26597  .debug_str:000000000001e4e0 .LASF4347
C:\Users\CYMR90~1\AppData\Local\Temp\ccLzUcmd.s:22216  .debug_str:000000000000cbad .LASF4348
C:\Users\CYMR90~1\AppData\Local\Temp\ccLzUcmd.s:24022  .debug_str:0000000000013cfa .LASF4349
C:\Users\CYMR90~1\AppData\Local\Temp\ccLzUcmd.s:26429  .debug_str:000000000001da74 .LASF4350
C:\Users\CYMR90~1\AppData\Local\Temp\ccLzUcmd.s:23794  .debug_str:0000000000012e31 .LASF4351
C:\Users\CYMR90~1\AppData\Local\Temp\ccLzUcmd.s:27245  .debug_str:0000000000020cc9 .LASF4352
C:\Users\CYMR90~1\AppData\Local\Temp\ccLzUcmd.s:22756  .debug_str:000000000000ecf1 .LASF4353
C:\Users\CYMR90~1\AppData\Local\Temp\ccLzUcmd.s:26379  .debug_str:000000000001d763 .LASF4354
C:\Users\CYMR90~1\AppData\Local\Temp\ccLzUcmd.s:20184  .debug_str:00000000000047d0 .LASF4355
C:\Users\CYMR90~1\AppData\Local\Temp\ccLzUcmd.s:19566  .debug_str:0000000000002034 .LASF4356
C:\Users\CYMR90~1\AppData\Local\Temp\ccLzUcmd.s:26099  .debug_str:000000000001c427 .LASF4357
C:\Users\CYMR90~1\AppData\Local\Temp\ccLzUcmd.s:21156  .debug_str:0000000000008646 .LASF4358
C:\Users\CYMR90~1\AppData\Local\Temp\ccLzUcmd.s:29685  .debug_str:000000000002a7be .LASF4359
C:\Users\CYMR90~1\AppData\Local\Temp\ccLzUcmd.s:21008  .debug_str:0000000000007bca .LASF4360
C:\Users\CYMR90~1\AppData\Local\Temp\ccLzUcmd.s:19136  .debug_str:0000000000000571 .LASF4361
C:\Users\CYMR90~1\AppData\Local\Temp\ccLzUcmd.s:28219  .debug_str:0000000000024922 .LASF4362
C:\Users\CYMR90~1\AppData\Local\Temp\ccLzUcmd.s:25169  .debug_str:00000000000185c9 .LASF4363
C:\Users\CYMR90~1\AppData\Local\Temp\ccLzUcmd.s:22868  .debug_str:000000000000f3a2 .LASF4364
C:\Users\CYMR90~1\AppData\Local\Temp\ccLzUcmd.s:27823  .debug_str:0000000000022f69 .LASF4365
C:\Users\CYMR90~1\AppData\Local\Temp\ccLzUcmd.s:29509  .debug_str:0000000000029d5e .LASF4366
C:\Users\CYMR90~1\AppData\Local\Temp\ccLzUcmd.s:22066  .debug_str:000000000000c0f4 .LASF4367
C:\Users\CYMR90~1\AppData\Local\Temp\ccLzUcmd.s:20594  .debug_str:0000000000006143 .LASF4368
C:\Users\CYMR90~1\AppData\Local\Temp\ccLzUcmd.s:20228  .debug_str:0000000000004b11 .LASF4369
C:\Users\CYMR90~1\AppData\Local\Temp\ccLzUcmd.s:28555  .debug_str:0000000000025fed .LASF4370
C:\Users\CYMR90~1\AppData\Local\Temp\ccLzUcmd.s:22466  .debug_str:000000000000dac6 .LASF4371
C:\Users\CYMR90~1\AppData\Local\Temp\ccLzUcmd.s:23876  .debug_str:0000000000013428 .LASF4372
C:\Users\CYMR90~1\AppData\Local\Temp\ccLzUcmd.s:26689  .debug_str:000000000001eaa7 .LASF4373
C:\Users\CYMR90~1\AppData\Local\Temp\ccLzUcmd.s:24440  .debug_str:0000000000015719 .LASF4374
C:\Users\CYMR90~1\AppData\Local\Temp\ccLzUcmd.s:28353  .debug_str:0000000000025278 .LASF4375
C:\Users\CYMR90~1\AppData\Local\Temp\ccLzUcmd.s:19672  .debug_str:000000000000261c .LASF4376
C:\Users\CYMR90~1\AppData\Local\Temp\ccLzUcmd.s:22806  .debug_str:000000000000efbd .LASF4377
C:\Users\CYMR90~1\AppData\Local\Temp\ccLzUcmd.s:19280  .debug_str:0000000000000e53 .LASF4378
C:\Users\CYMR90~1\AppData\Local\Temp\ccLzUcmd.s:23272  .debug_str:0000000000010bf5 .LASF4379
C:\Users\CYMR90~1\AppData\Local\Temp\ccLzUcmd.s:21948  .debug_str:000000000000b8b7 .LASF4380
C:\Users\CYMR90~1\AppData\Local\Temp\ccLzUcmd.s:26947  .debug_str:000000000001fa6e .LASF4381
C:\Users\CYMR90~1\AppData\Local\Temp\ccLzUcmd.s:21740  .debug_str:000000000000aaa2 .LASF4382
C:\Users\CYMR90~1\AppData\Local\Temp\ccLzUcmd.s:23682  .debug_str:00000000000126b5 .LASF4383
C:\Users\CYMR90~1\AppData\Local\Temp\ccLzUcmd.s:19666  .debug_str:00000000000025cf .LASF4384
C:\Users\CYMR90~1\AppData\Local\Temp\ccLzUcmd.s:26331  .debug_str:000000000001d40f .LASF4385
C:\Users\CYMR90~1\AppData\Local\Temp\ccLzUcmd.s:22192  .debug_str:000000000000c94c .LASF4386
C:\Users\CYMR90~1\AppData\Local\Temp\ccLzUcmd.s:29669  .debug_str:000000000002a6d9 .LASF4387
C:\Users\CYMR90~1\AppData\Local\Temp\ccLzUcmd.s:25609  .debug_str:000000000001a4b8 .LASF4388
C:\Users\CYMR90~1\AppData\Local\Temp\ccLzUcmd.s:27791  .debug_str:0000000000022da7 .LASF4389
C:\Users\CYMR90~1\AppData\Local\Temp\ccLzUcmd.s:29349  .debug_str:0000000000029374 .LASF4390
C:\Users\CYMR90~1\AppData\Local\Temp\ccLzUcmd.s:24684  .debug_str:0000000000016626 .LASF4391
C:\Users\CYMR90~1\AppData\Local\Temp\ccLzUcmd.s:25355  .debug_str:00000000000192b3 .LASF4392
C:\Users\CYMR90~1\AppData\Local\Temp\ccLzUcmd.s:20402  .debug_str:0000000000005597 .LASF4393
C:\Users\CYMR90~1\AppData\Local\Temp\ccLzUcmd.s:27039  .debug_str:0000000000020032 .LASF4394
C:\Users\CYMR90~1\AppData\Local\Temp\ccLzUcmd.s:23048  .debug_str:000000000000fe64 .LASF4395
C:\Users\CYMR90~1\AppData\Local\Temp\ccLzUcmd.s:26233  .debug_str:000000000001cd08 .LASF4396
C:\Users\CYMR90~1\AppData\Local\Temp\ccLzUcmd.s:27511  .debug_str:0000000000021d46 .LASF4397
C:\Users\CYMR90~1\AppData\Local\Temp\ccLzUcmd.s:22424  .debug_str:000000000000d87b .LASF4398
C:\Users\CYMR90~1\AppData\Local\Temp\ccLzUcmd.s:29835  .debug_str:000000000002b0f7 .LASF4399
C:\Users\CYMR90~1\AppData\Local\Temp\ccLzUcmd.s:21968  .debug_str:000000000000ba2b .LASF4400
C:\Users\CYMR90~1\AppData\Local\Temp\ccLzUcmd.s:27127  .debug_str:00000000000205ab .LASF4401
C:\Users\CYMR90~1\AppData\Local\Temp\ccLzUcmd.s:24542  .debug_str:0000000000015d7c .LASF4402
C:\Users\CYMR90~1\AppData\Local\Temp\ccLzUcmd.s:27963  .debug_str:00000000000237f2 .LASF4403
C:\Users\CYMR90~1\AppData\Local\Temp\ccLzUcmd.s:29803  .debug_str:000000000002aec8 .LASF4404
C:\Users\CYMR90~1\AppData\Local\Temp\ccLzUcmd.s:27315  .debug_str:00000000000210a6 .LASF4405
C:\Users\CYMR90~1\AppData\Local\Temp\ccLzUcmd.s:27651  .debug_str:0000000000022523 .LASF4406
C:\Users\CYMR90~1\AppData\Local\Temp\ccLzUcmd.s:29411  .debug_str:0000000000029770 .LASF4407
C:\Users\CYMR90~1\AppData\Local\Temp\ccLzUcmd.s:20824  .debug_str:0000000000006f9a .LASF4408
C:\Users\CYMR90~1\AppData\Local\Temp\ccLzUcmd.s:28389  .debug_str:0000000000025527 .LASF4409
C:\Users\CYMR90~1\AppData\Local\Temp\ccLzUcmd.s:23706  .debug_str:000000000001284a .LASF4410
C:\Users\CYMR90~1\AppData\Local\Temp\ccLzUcmd.s:19276  .debug_str:0000000000000e15 .LASF4411
C:\Users\CYMR90~1\AppData\Local\Temp\ccLzUcmd.s:27627  .debug_str:00000000000223d3 .LASF4412
C:\Users\CYMR90~1\AppData\Local\Temp\ccLzUcmd.s:24346  .debug_str:000000000001519d .LASF4413
C:\Users\CYMR90~1\AppData\Local\Temp\ccLzUcmd.s:19748  .debug_str:0000000000002b17 .LASF4414
C:\Users\CYMR90~1\AppData\Local\Temp\ccLzUcmd.s:22734  .debug_str:000000000000ebd5 .LASF4415
C:\Users\CYMR90~1\AppData\Local\Temp\ccLzUcmd.s:28537  .debug_str:0000000000025eca .LASF4416
C:\Users\CYMR90~1\AppData\Local\Temp\ccLzUcmd.s:22224  .debug_str:000000000000cc08 .LASF4417
C:\Users\CYMR90~1\AppData\Local\Temp\ccLzUcmd.s:24000  .debug_str:0000000000013bce .LASF4418
C:\Users\CYMR90~1\AppData\Local\Temp\ccLzUcmd.s:28303  .debug_str:0000000000024e64 .LASF4419
C:\Users\CYMR90~1\AppData\Local\Temp\ccLzUcmd.s:29299  .debug_str:0000000000029008 .LASF4420
C:\Users\CYMR90~1\AppData\Local\Temp\ccLzUcmd.s:24006  .debug_str:0000000000013c12 .LASF4421
C:\Users\CYMR90~1\AppData\Local\Temp\ccLzUcmd.s:20520  .debug_str:0000000000005ca6 .LASF4422
C:\Users\CYMR90~1\AppData\Local\Temp\ccLzUcmd.s:20120  .debug_str:0000000000004380 .LASF4423
C:\Users\CYMR90~1\AppData\Local\Temp\ccLzUcmd.s:27427  .debug_str:000000000002181c .LASF4424
C:\Users\CYMR90~1\AppData\Local\Temp\ccLzUcmd.s:26963  .debug_str:000000000001fb5d .LASF4425
C:\Users\CYMR90~1\AppData\Local\Temp\ccLzUcmd.s:20206  .debug_str:00000000000049be .LASF4426
C:\Users\CYMR90~1\AppData\Local\Temp\ccLzUcmd.s:27227  .debug_str:0000000000020b99 .LASF4427
C:\Users\CYMR90~1\AppData\Local\Temp\ccLzUcmd.s:28609  .debug_str:00000000000262fc .LASF4428
C:\Users\CYMR90~1\AppData\Local\Temp\ccLzUcmd.s:29791  .debug_str:000000000002ae1e .LASF4429
C:\Users\CYMR90~1\AppData\Local\Temp\ccLzUcmd.s:28529  .debug_str:0000000000025e54 .LASF4430
C:\Users\CYMR90~1\AppData\Local\Temp\ccLzUcmd.s:19426  .debug_str:0000000000001724 .LASF4431
C:\Users\CYMR90~1\AppData\Local\Temp\ccLzUcmd.s:26563  .debug_str:000000000001e2e0 .LASF4432
C:\Users\CYMR90~1\AppData\Local\Temp\ccLzUcmd.s:28837  .debug_str:00000000000271c2 .LASF4433
C:\Users\CYMR90~1\AppData\Local\Temp\ccLzUcmd.s:21646  .debug_str:000000000000a508 .LASF4434
C:\Users\CYMR90~1\AppData\Local\Temp\ccLzUcmd.s:30139  .debug_str:000000000002c5df .LASF4435
C:\Users\CYMR90~1\AppData\Local\Temp\ccLzUcmd.s:25471  .debug_str:0000000000019ad7 .LASF4436
C:\Users\CYMR90~1\AppData\Local\Temp\ccLzUcmd.s:21014  .debug_str:0000000000007c24 .LASF4437
C:\Users\CYMR90~1\AppData\Local\Temp\ccLzUcmd.s:20102  .debug_str:000000000000427f .LASF4438
C:\Users\CYMR90~1\AppData\Local\Temp\ccLzUcmd.s:28691  .debug_str:0000000000026830 .LASF4439
C:\Users\CYMR90~1\AppData\Local\Temp\ccLzUcmd.s:26115  .debug_str:000000000001c500 .LASF4440
C:\Users\CYMR90~1\AppData\Local\Temp\ccLzUcmd.s:28667  .debug_str:00000000000266c2 .LASF4441
C:\Users\CYMR90~1\AppData\Local\Temp\ccLzUcmd.s:24034  .debug_str:0000000000013db6 .LASF4442
C:\Users\CYMR90~1\AppData\Local\Temp\ccLzUcmd.s:22938  .debug_str:000000000000f867 .LASF4443
C:\Users\CYMR90~1\AppData\Local\Temp\ccLzUcmd.s:26663  .debug_str:000000000001e922 .LASF4444
C:\Users\CYMR90~1\AppData\Local\Temp\ccLzUcmd.s:20454  .debug_str:00000000000058cf .LASF4445
C:\Users\CYMR90~1\AppData\Local\Temp\ccLzUcmd.s:27845  .debug_str:0000000000023095 .LASF4446
C:\Users\CYMR90~1\AppData\Local\Temp\ccLzUcmd.s:25291  .debug_str:0000000000018e34 .LASF4447
C:\Users\CYMR90~1\AppData\Local\Temp\ccLzUcmd.s:19632  .debug_str:00000000000023b8 .LASF4448
C:\Users\CYMR90~1\AppData\Local\Temp\ccLzUcmd.s:19836  .debug_str:0000000000003081 .LASF4449
C:\Users\CYMR90~1\AppData\Local\Temp\ccLzUcmd.s:28495  .debug_str:0000000000025c23 .LASF4450
C:\Users\CYMR90~1\AppData\Local\Temp\ccLzUcmd.s:24446  .debug_str:0000000000015769 .LASF4451
C:\Users\CYMR90~1\AppData\Local\Temp\ccLzUcmd.s:21762  .debug_str:000000000000ac04 .LASF4452
C:\Users\CYMR90~1\AppData\Local\Temp\ccLzUcmd.s:21322  .debug_str:0000000000009090 .LASF4453
C:\Users\CYMR90~1\AppData\Local\Temp\ccLzUcmd.s:29095  .debug_str:00000000000282ec .LASF4454
C:\Users\CYMR90~1\AppData\Local\Temp\ccLzUcmd.s:30273  .debug_str:000000000002cea4 .LASF4455
C:\Users\CYMR90~1\AppData\Local\Temp\ccLzUcmd.s:26493  .debug_str:000000000001dec1 .LASF4456
C:\Users\CYMR90~1\AppData\Local\Temp\ccLzUcmd.s:20772  .debug_str:0000000000006c30 .LASF4457
C:\Users\CYMR90~1\AppData\Local\Temp\ccLzUcmd.s:20240  .debug_str:0000000000004be7 .LASF4458
C:\Users\CYMR90~1\AppData\Local\Temp\ccLzUcmd.s:24793  .debug_str:0000000000016ef7 .LASF4459
C:\Users\CYMR90~1\AppData\Local\Temp\ccLzUcmd.s:29933  .debug_str:000000000002b7bb .LASF4460
C:\Users\CYMR90~1\AppData\Local\Temp\ccLzUcmd.s:23818  .debug_str:0000000000012fd4 .LASF4461
C:\Users\CYMR90~1\AppData\Local\Temp\ccLzUcmd.s:29561  .debug_str:000000000002a030 .LASF4462
C:\Users\CYMR90~1\AppData\Local\Temp\ccLzUcmd.s:28641  .debug_str:0000000000026519 .LASF4463
C:\Users\CYMR90~1\AppData\Local\Temp\ccLzUcmd.s:28863  .debug_str:000000000002734d .LASF4464
C:\Users\CYMR90~1\AppData\Local\Temp\ccLzUcmd.s:29391  .debug_str:000000000002964c .LASF4465
C:\Users\CYMR90~1\AppData\Local\Temp\ccLzUcmd.s:19550  .debug_str:0000000000001f37 .LASF4466
C:\Users\CYMR90~1\AppData\Local\Temp\ccLzUcmd.s:25495  .debug_str:0000000000019c5b .LASF4467
C:\Users\CYMR90~1\AppData\Local\Temp\ccLzUcmd.s:21070  .debug_str:00000000000080e1 .LASF4468
C:\Users\CYMR90~1\AppData\Local\Temp\ccLzUcmd.s:26201  .debug_str:000000000001caf0 .LASF4469
C:\Users\CYMR90~1\AppData\Local\Temp\ccLzUcmd.s:25797  .debug_str:000000000001b0e1 .LASF4470
C:\Users\CYMR90~1\AppData\Local\Temp\ccLzUcmd.s:27693  .debug_str:000000000002279c .LASF4471
C:\Users\CYMR90~1\AppData\Local\Temp\ccLzUcmd.s:28595  .debug_str:000000000002621a .LASF4472
C:\Users\CYMR90~1\AppData\Local\Temp\ccLzUcmd.s:19542  .debug_str:0000000000001ebd .LASF4473
C:\Users\CYMR90~1\AppData\Local\Temp\ccLzUcmd.s:24618  .debug_str:0000000000016275 .LASF4474
C:\Users\CYMR90~1\AppData\Local\Temp\ccLzUcmd.s:19848  .debug_str:000000000000317c .LASF4475
C:\Users\CYMR90~1\AppData\Local\Temp\ccLzUcmd.s:22032  .debug_str:000000000000bedd .LASF4476
C:\Users\CYMR90~1\AppData\Local\Temp\ccLzUcmd.s:26673  .debug_str:000000000001e9b0 .LASF4477
C:\Users\CYMR90~1\AppData\Local\Temp\ccLzUcmd.s:19332  .debug_str:00000000000011d7 .LASF4478
C:\Users\CYMR90~1\AppData\Local\Temp\ccLzUcmd.s:28333  .debug_str:000000000002508e .LASF4479
C:\Users\CYMR90~1\AppData\Local\Temp\ccLzUcmd.s:21180  .debug_str:000000000000878b .LASF4480
C:\Users\CYMR90~1\AppData\Local\Temp\ccLzUcmd.s:26303  .debug_str:000000000001d281 .LASF4481
C:\Users\CYMR90~1\AppData\Local\Temp\ccLzUcmd.s:26321  .debug_str:000000000001d378 .LASF4482
C:\Users\CYMR90~1\AppData\Local\Temp\ccLzUcmd.s:27263  .debug_str:0000000000020dd7 .LASF4483
C:\Users\CYMR90~1\AppData\Local\Temp\ccLzUcmd.s:25735  .debug_str:000000000001ac9c .LASF4484
C:\Users\CYMR90~1\AppData\Local\Temp\ccLzUcmd.s:20490  .debug_str:0000000000005b0f .LASF4485
C:\Users\CYMR90~1\AppData\Local\Temp\ccLzUcmd.s:29057  .debug_str:0000000000028002 .LASF4486
C:\Users\CYMR90~1\AppData\Local\Temp\ccLzUcmd.s:27971  .debug_str:0000000000023889 .LASF4487
C:\Users\CYMR90~1\AppData\Local\Temp\ccLzUcmd.s:24334  .debug_str:00000000000150ef .LASF4488
C:\Users\CYMR90~1\AppData\Local\Temp\ccLzUcmd.s:30237  .debug_str:000000000002cc83 .LASF4489
C:\Users\CYMR90~1\AppData\Local\Temp\ccLzUcmd.s:19812  .debug_str:0000000000002f03 .LASF4490
C:\Users\CYMR90~1\AppData\Local\Temp\ccLzUcmd.s:19072  .debug_str:00000000000001c1 .LASF4491
C:\Users\CYMR90~1\AppData\Local\Temp\ccLzUcmd.s:25451  .debug_str:000000000001996b .LASF4492
C:\Users\CYMR90~1\AppData\Local\Temp\ccLzUcmd.s:23222  .debug_str:000000000001086c .LASF4493
C:\Users\CYMR90~1\AppData\Local\Temp\ccLzUcmd.s:20118  .debug_str:0000000000004368 .LASF4494
C:\Users\CYMR90~1\AppData\Local\Temp\ccLzUcmd.s:22136  .debug_str:000000000000c500 .LASF4495
C:\Users\CYMR90~1\AppData\Local\Temp\ccLzUcmd.s:22052  .debug_str:000000000000bff4 .LASF4496
C:\Users\CYMR90~1\AppData\Local\Temp\ccLzUcmd.s:19096  .debug_str:000000000000033b .LASF4497
C:\Users\CYMR90~1\AppData\Local\Temp\ccLzUcmd.s:20334  .debug_str:0000000000005189 .LASF4498
C:\Users\CYMR90~1\AppData\Local\Temp\ccLzUcmd.s:29315  .debug_str:00000000000290f6 .LASF4499
C:\Users\CYMR90~1\AppData\Local\Temp\ccLzUcmd.s:20150  .debug_str:000000000000457b .LASF4500
C:\Users\CYMR90~1\AppData\Local\Temp\ccLzUcmd.s:21790  .debug_str:000000000000adef .LASF4501
C:\Users\CYMR90~1\AppData\Local\Temp\ccLzUcmd.s:19116  .debug_str:0000000000000468 .LASF4502
C:\Users\CYMR90~1\AppData\Local\Temp\ccLzUcmd.s:26651  .debug_str:000000000001e860 .LASF4503
C:\Users\CYMR90~1\AppData\Local\Temp\ccLzUcmd.s:24801  .debug_str:0000000000016f8d .LASF4504
C:\Users\CYMR90~1\AppData\Local\Temp\ccLzUcmd.s:19684  .debug_str:00000000000026e7 .LASF4505
C:\Users\CYMR90~1\AppData\Local\Temp\ccLzUcmd.s:28755  .debug_str:0000000000026c0f .LASF4506
C:\Users\CYMR90~1\AppData\Local\Temp\ccLzUcmd.s:30095  .debug_str:000000000002c2f5 .LASF4507
C:\Users\CYMR90~1\AppData\Local\Temp\ccLzUcmd.s:27095  .debug_str:0000000000020327 .LASF4508
C:\Users\CYMR90~1\AppData\Local\Temp\ccLzUcmd.s:22132  .debug_str:000000000000c4b6 .LASF4509
C:\Users\CYMR90~1\AppData\Local\Temp\ccLzUcmd.s:27701  .debug_str:000000000002280b .LASF4510
C:\Users\CYMR90~1\AppData\Local\Temp\ccLzUcmd.s:22028  .debug_str:000000000000be79 .LASF4511
C:\Users\CYMR90~1\AppData\Local\Temp\ccLzUcmd.s:27691  .debug_str:000000000002277e .LASF4512
C:\Users\CYMR90~1\AppData\Local\Temp\ccLzUcmd.s:29207  .debug_str:0000000000028a4e .LASF4513
C:\Users\CYMR90~1\AppData\Local\Temp\ccLzUcmd.s:20536  .debug_str:0000000000005da9 .LASF4514
C:\Users\CYMR90~1\AppData\Local\Temp\ccLzUcmd.s:23338  .debug_str:0000000000010f97 .LASF4515
C:\Users\CYMR90~1\AppData\Local\Temp\ccLzUcmd.s:22506  .debug_str:000000000000dd30 .LASF4516
C:\Users\CYMR90~1\AppData\Local\Temp\ccLzUcmd.s:20198  .debug_str:000000000000493b .LASF4517
C:\Users\CYMR90~1\AppData\Local\Temp\ccLzUcmd.s:21466  .debug_str:000000000000997c .LASF4518
C:\Users\CYMR90~1\AppData\Local\Temp\ccLzUcmd.s:23996  .debug_str:0000000000013b6e .LASF4519
C:\Users\CYMR90~1\AppData\Local\Temp\ccLzUcmd.s:20020  .debug_str:0000000000003c83 .LASF4520
C:\Users\CYMR90~1\AppData\Local\Temp\ccLzUcmd.s:20764  .debug_str:0000000000006b9e .LASF4521
C:\Users\CYMR90~1\AppData\Local\Temp\ccLzUcmd.s:19048  .debug_str:000000000000002e .LASF4522
C:\Users\CYMR90~1\AppData\Local\Temp\ccLzUcmd.s:23322  .debug_str:0000000000010ea8 .LASF4523
C:\Users\CYMR90~1\AppData\Local\Temp\ccLzUcmd.s:25689  .debug_str:000000000001a9d3 .LASF4524
C:\Users\CYMR90~1\AppData\Local\Temp\ccLzUcmd.s:24746  .debug_str:0000000000016a5f .LASF4525
C:\Users\CYMR90~1\AppData\Local\Temp\ccLzUcmd.s:30035  .debug_str:000000000002bed2 .LASF4526
C:\Users\CYMR90~1\AppData\Local\Temp\ccLzUcmd.s:28111  .debug_str:00000000000241c2 .LASF4527
C:\Users\CYMR90~1\AppData\Local\Temp\ccLzUcmd.s:22608  .debug_str:000000000000e365 .LASF4528
C:\Users\CYMR90~1\AppData\Local\Temp\ccLzUcmd.s:26771  .debug_str:000000000001ef7c .LASF4529
C:\Users\CYMR90~1\AppData\Local\Temp\ccLzUcmd.s:24264  .debug_str:0000000000014c1a .LASF4530
C:\Users\CYMR90~1\AppData\Local\Temp\ccLzUcmd.s:26421  .debug_str:000000000001d9ee .LASF4531
C:\Users\CYMR90~1\AppData\Local\Temp\ccLzUcmd.s:25313  .debug_str:0000000000018f37 .LASF4532
C:\Users\CYMR90~1\AppData\Local\Temp\ccLzUcmd.s:23846  .debug_str:000000000001319b .LASF4533
C:\Users\CYMR90~1\AppData\Local\Temp\ccLzUcmd.s:19822  .debug_str:0000000000002fa1 .LASF4534
C:\Users\CYMR90~1\AppData\Local\Temp\ccLzUcmd.s:26753  .debug_str:000000000001ee59 .LASF4535
C:\Users\CYMR90~1\AppData\Local\Temp\ccLzUcmd.s:21638  .debug_str:000000000000a470 .LASF4536
C:\Users\CYMR90~1\AppData\Local\Temp\ccLzUcmd.s:19176  .debug_str:00000000000007ba .LASF4537
C:\Users\CYMR90~1\AppData\Local\Temp\ccLzUcmd.s:25705  .debug_str:000000000001aad2 .LASF4538
C:\Users\CYMR90~1\AppData\Local\Temp\ccLzUcmd.s:28977  .debug_str:0000000000027a95 .LASF4539
C:\Users\CYMR90~1\AppData\Local\Temp\ccLzUcmd.s:24414  .debug_str:000000000001558c .LASF4540
C:\Users\CYMR90~1\AppData\Local\Temp\ccLzUcmd.s:25375  .debug_str:00000000000193c0 .LASF4541
C:\Users\CYMR90~1\AppData\Local\Temp\ccLzUcmd.s:22020  .debug_str:000000000000bde6 .LASF4542
C:\Users\CYMR90~1\AppData\Local\Temp\ccLzUcmd.s:25429  .debug_str:0000000000019773 .LASF4543
C:\Users\CYMR90~1\AppData\Local\Temp\ccLzUcmd.s:27317  .debug_str:00000000000210be .LASF4544
C:\Users\CYMR90~1\AppData\Local\Temp\ccLzUcmd.s:25453  .debug_str:00000000000199a6 .LASF4545
C:\Users\CYMR90~1\AppData\Local\Temp\ccLzUcmd.s:20098  .debug_str:0000000000004236 .LASF4546
C:\Users\CYMR90~1\AppData\Local\Temp\ccLzUcmd.s:21686  .debug_str:000000000000a725 .LASF4547
C:\Users\CYMR90~1\AppData\Local\Temp\ccLzUcmd.s:22382  .debug_str:000000000000d61b .LASF4548
C:\Users\CYMR90~1\AppData\Local\Temp\ccLzUcmd.s:27165  .debug_str:00000000000207d1 .LASF4549
C:\Users\CYMR90~1\AppData\Local\Temp\ccLzUcmd.s:26765  .debug_str:000000000001ef13 .LASF4550
C:\Users\CYMR90~1\AppData\Local\Temp\ccLzUcmd.s:22504  .debug_str:000000000000dcf4 .LASF4551
C:\Users\CYMR90~1\AppData\Local\Temp\ccLzUcmd.s:25815  .debug_str:000000000001b240 .LASF4552
C:\Users\CYMR90~1\AppData\Local\Temp\ccLzUcmd.s:22206  .debug_str:000000000000cae2 .LASF4553
C:\Users\CYMR90~1\AppData\Local\Temp\ccLzUcmd.s:23786  .debug_str:0000000000012d93 .LASF4554
C:\Users\CYMR90~1\AppData\Local\Temp\ccLzUcmd.s:23964  .debug_str:0000000000013964 .LASF4555
C:\Users\CYMR90~1\AppData\Local\Temp\ccLzUcmd.s:27593  .debug_str:0000000000022215 .LASF4556
C:\Users\CYMR90~1\AppData\Local\Temp\ccLzUcmd.s:29711  .debug_str:000000000002a92d .LASF4557
C:\Users\CYMR90~1\AppData\Local\Temp\ccLzUcmd.s:23016  .debug_str:000000000000fc33 .LASF4558
C:\Users\CYMR90~1\AppData\Local\Temp\ccLzUcmd.s:27655  .debug_str:0000000000022561 .LASF4559
C:\Users\CYMR90~1\AppData\Local\Temp\ccLzUcmd.s:29951  .debug_str:000000000002b8b9 .LASF4560
C:\Users\CYMR90~1\AppData\Local\Temp\ccLzUcmd.s:28151  .debug_str:000000000002446f .LASF4561
C:\Users\CYMR90~1\AppData\Local\Temp\ccLzUcmd.s:24688  .debug_str:0000000000016663 .LASF4562
C:\Users\CYMR90~1\AppData\Local\Temp\ccLzUcmd.s:26165  .debug_str:000000000001c8a1 .LASF4563
C:\Users\CYMR90~1\AppData\Local\Temp\ccLzUcmd.s:25475  .debug_str:0000000000019b16 .LASF4564
C:\Users\CYMR90~1\AppData\Local\Temp\ccLzUcmd.s:23160  .debug_str:00000000000104a4 .LASF4565
C:\Users\CYMR90~1\AppData\Local\Temp\ccLzUcmd.s:23592  .debug_str:00000000000120ec .LASF4566
C:\Users\CYMR90~1\AppData\Local\Temp\ccLzUcmd.s:19902  .debug_str:00000000000034f8 .LASF4567
C:\Users\CYMR90~1\AppData\Local\Temp\ccLzUcmd.s:20756  .debug_str:0000000000006b32 .LASF4568
C:\Users\CYMR90~1\AppData\Local\Temp\ccLzUcmd.s:23648  .debug_str:0000000000012478 .LASF4569
C:\Users\CYMR90~1\AppData\Local\Temp\ccLzUcmd.s:29751  .debug_str:000000000002abae .LASF4570
C:\Users\CYMR90~1\AppData\Local\Temp\ccLzUcmd.s:22626  .debug_str:000000000000e48a .LASF4571
C:\Users\CYMR90~1\AppData\Local\Temp\ccLzUcmd.s:25573  .debug_str:000000000001a0eb .LASF4572
C:\Users\CYMR90~1\AppData\Local\Temp\ccLzUcmd.s:20048  .debug_str:0000000000003e61 .LASF4573
C:\Users\CYMR90~1\AppData\Local\Temp\ccLzUcmd.s:28981  .debug_str:0000000000027ae2 .LASF4574
C:\Users\CYMR90~1\AppData\Local\Temp\ccLzUcmd.s:30199  .debug_str:000000000002c9bc .LASF4575
C:\Users\CYMR90~1\AppData\Local\Temp\ccLzUcmd.s:22410  .debug_str:000000000000d7b6 .LASF4576
C:\Users\CYMR90~1\AppData\Local\Temp\ccLzUcmd.s:25103  .debug_str:00000000000181d0 .LASF4577
C:\Users\CYMR90~1\AppData\Local\Temp\ccLzUcmd.s:19416  .debug_str:000000000000168d .LASF4578
C:\Users\CYMR90~1\AppData\Local\Temp\ccLzUcmd.s:28029  .debug_str:0000000000023bc1 .LASF4579
C:\Users\CYMR90~1\AppData\Local\Temp\ccLzUcmd.s:24556  .debug_str:0000000000015e78 .LASF4580
C:\Users\CYMR90~1\AppData\Local\Temp\ccLzUcmd.s:29675  .debug_str:000000000002a731 .LASF4581
C:\Users\CYMR90~1\AppData\Local\Temp\ccLzUcmd.s:28625  .debug_str:0000000000026407 .LASF4582
C:\Users\CYMR90~1\AppData\Local\Temp\ccLzUcmd.s:29677  .debug_str:000000000002a74f .LASF4583
C:\Users\CYMR90~1\AppData\Local\Temp\ccLzUcmd.s:26103  .debug_str:000000000001c455 .LASF4584
C:\Users\CYMR90~1\AppData\Local\Temp\ccLzUcmd.s:19360  .debug_str:000000000000133e .LASF4585
C:\Users\CYMR90~1\AppData\Local\Temp\ccLzUcmd.s:28407  .debug_str:000000000002562e .LASF4586
C:\Users\CYMR90~1\AppData\Local\Temp\ccLzUcmd.s:26007  .debug_str:000000000001be7f .LASF4587
C:\Users\CYMR90~1\AppData\Local\Temp\ccLzUcmd.s:20530  .debug_str:0000000000005d2c .LASF4588
C:\Users\CYMR90~1\AppData\Local\Temp\ccLzUcmd.s:22632  .debug_str:000000000000e4d8 .LASF4589
C:\Users\CYMR90~1\AppData\Local\Temp\ccLzUcmd.s:27103  .debug_str:00000000000203a9 .LASF4590
C:\Users\CYMR90~1\AppData\Local\Temp\ccLzUcmd.s:23780  .debug_str:0000000000012d2e .LASF4591
C:\Users\CYMR90~1\AppData\Local\Temp\ccLzUcmd.s:28767  .debug_str:0000000000026ce1 .LASF4592
C:\Users\CYMR90~1\AppData\Local\Temp\ccLzUcmd.s:24318  .debug_str:0000000000014fd6 .LASF4593
C:\Users\CYMR90~1\AppData\Local\Temp\ccLzUcmd.s:24068  .debug_str:0000000000013fc9 .LASF4594
C:\Users\CYMR90~1\AppData\Local\Temp\ccLzUcmd.s:23148  .debug_str:00000000000103fa .LASF4595
C:\Users\CYMR90~1\AppData\Local\Temp\ccLzUcmd.s:26973  .debug_str:000000000001fc07 .LASF4596
C:\Users\CYMR90~1\AppData\Local\Temp\ccLzUcmd.s:22724  .debug_str:000000000000eb2f .LASF4597
C:\Users\CYMR90~1\AppData\Local\Temp\ccLzUcmd.s:20442  .debug_str:0000000000005800 .LASF4598
C:\Users\CYMR90~1\AppData\Local\Temp\ccLzUcmd.s:29519  .debug_str:0000000000029dc9 .LASF4599
C:\Users\CYMR90~1\AppData\Local\Temp\ccLzUcmd.s:27273  .debug_str:0000000000020e6a .LASF4600
C:\Users\CYMR90~1\AppData\Local\Temp\ccLzUcmd.s:30031  .debug_str:000000000002be9d .LASF4601
C:\Users\CYMR90~1\AppData\Local\Temp\ccLzUcmd.s:22930  .debug_str:000000000000f7fd .LASF4602
C:\Users\CYMR90~1\AppData\Local\Temp\ccLzUcmd.s:21358  .debug_str:00000000000092b4 .LASF4603
C:\Users\CYMR90~1\AppData\Local\Temp\ccLzUcmd.s:29709  .debug_str:000000000002a90b .LASF4604
C:\Users\CYMR90~1\AppData\Local\Temp\ccLzUcmd.s:27363  .debug_str:0000000000021431 .LASF4605
C:\Users\CYMR90~1\AppData\Local\Temp\ccLzUcmd.s:29183  .debug_str:00000000000288fd .LASF4606
C:\Users\CYMR90~1\AppData\Local\Temp\ccLzUcmd.s:20746  .debug_str:0000000000006a94 .LASF4607
C:\Users\CYMR90~1\AppData\Local\Temp\ccLzUcmd.s:27513  .debug_str:0000000000021d5f .LASF4608
C:\Users\CYMR90~1\AppData\Local\Temp\ccLzUcmd.s:29345  .debug_str:000000000002932a .LASF4609
C:\Users\CYMR90~1\AppData\Local\Temp\ccLzUcmd.s:29081  .debug_str:000000000002820e .LASF4610
C:\Users\CYMR90~1\AppData\Local\Temp\ccLzUcmd.s:28371  .debug_str:00000000000253ce .LASF4611
C:\Users\CYMR90~1\AppData\Local\Temp\ccLzUcmd.s:25547  .debug_str:0000000000019f76 .LASF4612
C:\Users\CYMR90~1\AppData\Local\Temp\ccLzUcmd.s:21526  .debug_str:0000000000009d45 .LASF4613
C:\Users\CYMR90~1\AppData\Local\Temp\ccLzUcmd.s:22932  .debug_str:000000000000f81f .LASF4614
C:\Users\CYMR90~1\AppData\Local\Temp\ccLzUcmd.s:19636  .debug_str:00000000000023f8 .LASF4615
C:\Users\CYMR90~1\AppData\Local\Temp\ccLzUcmd.s:21672  .debug_str:000000000000a664 .LASF4616
C:\Users\CYMR90~1\AppData\Local\Temp\ccLzUcmd.s:26619  .debug_str:000000000001e636 .LASF4617
C:\Users\CYMR90~1\AppData\Local\Temp\ccLzUcmd.s:24873  .debug_str:00000000000173b0 .LASF4618
C:\Users\CYMR90~1\AppData\Local\Temp\ccLzUcmd.s:22334  .debug_str:000000000000d2d1 .LASF4619
C:\Users\CYMR90~1\AppData\Local\Temp\ccLzUcmd.s:30083  .debug_str:000000000002c1e1 .LASF4620
C:\Users\CYMR90~1\AppData\Local\Temp\ccLzUcmd.s:24706  .debug_str:0000000000016763 .LASF4621
C:\Users\CYMR90~1\AppData\Local\Temp\ccLzUcmd.s:29739  .debug_str:000000000002aaf0 .LASF4622
C:\Users\CYMR90~1\AppData\Local\Temp\ccLzUcmd.s:19840  .debug_str:00000000000030fe .LASF4623
C:\Users\CYMR90~1\AppData\Local\Temp\ccLzUcmd.s:28127  .debug_str:0000000000024304 .LASF4624
C:\Users\CYMR90~1\AppData\Local\Temp\ccLzUcmd.s:24716  .debug_str:0000000000016869 .LASF4625
C:\Users\CYMR90~1\AppData\Local\Temp\ccLzUcmd.s:21248  .debug_str:0000000000008be1 .LASF4626
C:\Users\CYMR90~1\AppData\Local\Temp\ccLzUcmd.s:28857  .debug_str:0000000000027302 .LASF4627
C:\Users\CYMR90~1\AppData\Local\Temp\ccLzUcmd.s:27797  .debug_str:0000000000022e0e .LASF4628
C:\Users\CYMR90~1\AppData\Local\Temp\ccLzUcmd.s:19608  .debug_str:000000000000223b .LASF4629
C:\Users\CYMR90~1\AppData\Local\Temp\ccLzUcmd.s:20706  .debug_str:0000000000006832 .LASF4630
C:\Users\CYMR90~1\AppData\Local\Temp\ccLzUcmd.s:29001  .debug_str:0000000000027c1b .LASF4631
C:\Users\CYMR90~1\AppData\Local\Temp\ccLzUcmd.s:26553  .debug_str:000000000001e259 .LASF4632
C:\Users\CYMR90~1\AppData\Local\Temp\ccLzUcmd.s:21076  .debug_str:0000000000008138 .LASF4633
C:\Users\CYMR90~1\AppData\Local\Temp\ccLzUcmd.s:28915  .debug_str:0000000000027647 .LASF4634
C:\Users\CYMR90~1\AppData\Local\Temp\ccLzUcmd.s:22790  .debug_str:000000000000eed1 .LASF4635
C:\Users\CYMR90~1\AppData\Local\Temp\ccLzUcmd.s:26239  .debug_str:000000000001cd6b .LASF4636
C:\Users\CYMR90~1\AppData\Local\Temp\ccLzUcmd.s:26371  .debug_str:000000000001d67a .LASF4637
C:\Users\CYMR90~1\AppData\Local\Temp\ccLzUcmd.s:19590  .debug_str:000000000000214d .LASF4638
C:\Users\CYMR90~1\AppData\Local\Temp\ccLzUcmd.s:22954  .debug_str:000000000000f93b .LASF4639
C:\Users\CYMR90~1\AppData\Local\Temp\ccLzUcmd.s:29497  .debug_str:0000000000029cb5 .LASF4640
C:\Users\CYMR90~1\AppData\Local\Temp\ccLzUcmd.s:22766  .debug_str:000000000000ed62 .LASF4641
C:\Users\CYMR90~1\AppData\Local\Temp\ccLzUcmd.s:26157  .debug_str:000000000001c78b .LASF4642
C:\Users\CYMR90~1\AppData\Local\Temp\ccLzUcmd.s:21854  .debug_str:000000000000b290 .LASF4643
C:\Users\CYMR90~1\AppData\Local\Temp\ccLzUcmd.s:25029  .debug_str:0000000000017d48 .LASF4644
C:\Users\CYMR90~1\AppData\Local\Temp\ccLzUcmd.s:23190  .debug_str:0000000000010684 .LASF4645
C:\Users\CYMR90~1\AppData\Local\Temp\ccLzUcmd.s:19682  .debug_str:00000000000026c5 .LASF4646
C:\Users\CYMR90~1\AppData\Local\Temp\ccLzUcmd.s:27781  .debug_str:0000000000022d21 .LASF4647
C:\Users\CYMR90~1\AppData\Local\Temp\ccLzUcmd.s:19402  .debug_str:0000000000001594 .LASF4648
C:\Users\CYMR90~1\AppData\Local\Temp\ccLzUcmd.s:19230  .debug_str:0000000000000b6f .LASF4649
C:\Users\CYMR90~1\AppData\Local\Temp\ccLzUcmd.s:20292  .debug_str:0000000000004f21 .LASF4650
C:\Users\CYMR90~1\AppData\Local\Temp\ccLzUcmd.s:20938  .debug_str:0000000000007719 .LASF4651
C:\Users\CYMR90~1\AppData\Local\Temp\ccLzUcmd.s:28579  .debug_str:0000000000026137 .LASF4652
C:\Users\CYMR90~1\AppData\Local\Temp\ccLzUcmd.s:19594  .debug_str:0000000000002182 .LASF4653
C:\Users\CYMR90~1\AppData\Local\Temp\ccLzUcmd.s:23236  .debug_str:0000000000010965 .LASF4654
C:\Users\CYMR90~1\AppData\Local\Temp\ccLzUcmd.s:21928  .debug_str:000000000000b7a7 .LASF4655
C:\Users\CYMR90~1\AppData\Local\Temp\ccLzUcmd.s:24787  .debug_str:0000000000016eba .LASF4656
C:\Users\CYMR90~1\AppData\Local\Temp\ccLzUcmd.s:21286  .debug_str:0000000000008eb6 .LASF4657
C:\Users\CYMR90~1\AppData\Local\Temp\ccLzUcmd.s:26961  .debug_str:000000000001fb47 .LASF4658
C:\Users\CYMR90~1\AppData\Local\Temp\ccLzUcmd.s:27573  .debug_str:00000000000220e1 .LASF4659
C:\Users\CYMR90~1\AppData\Local\Temp\ccLzUcmd.s:23624  .debug_str:00000000000122e4 .LASF4660
C:\Users\CYMR90~1\AppData\Local\Temp\ccLzUcmd.s:27661  .debug_str:00000000000225e2 .LASF4661
C:\Users\CYMR90~1\AppData\Local\Temp\ccLzUcmd.s:24634  .debug_str:000000000001638a .LASF4662
C:\Users\CYMR90~1\AppData\Local\Temp\ccLzUcmd.s:24538  .debug_str:0000000000015d43 .LASF4663
C:\Users\CYMR90~1\AppData\Local\Temp\ccLzUcmd.s:24118  .debug_str:0000000000014310 .LASF4664
C:\Users\CYMR90~1\AppData\Local\Temp\ccLzUcmd.s:26687  .debug_str:000000000001ea91 .LASF4665
C:\Users\CYMR90~1\AppData\Local\Temp\ccLzUcmd.s:23360  .debug_str:00000000000110f9 .LASF4666
C:\Users\CYMR90~1\AppData\Local\Temp\ccLzUcmd.s:26411  .debug_str:000000000001d963 .LASF4667
C:\Users\CYMR90~1\AppData\Local\Temp\ccLzUcmd.s:19768  .debug_str:0000000000002c63 .LASF4668
C:\Users\CYMR90~1\AppData\Local\Temp\ccLzUcmd.s:22618  .debug_str:000000000000e408 .LASF4669
C:\Users\CYMR90~1\AppData\Local\Temp\ccLzUcmd.s:25133  .debug_str:000000000001839d .LASF4670
C:\Users\CYMR90~1\AppData\Local\Temp\ccLzUcmd.s:19454  .debug_str:000000000000199c .LASF4671
C:\Users\CYMR90~1\AppData\Local\Temp\ccLzUcmd.s:20084  .debug_str:00000000000040d7 .LASF4672
C:\Users\CYMR90~1\AppData\Local\Temp\ccLzUcmd.s:20088  .debug_str:00000000000041a7 .LASF4673
C:\Users\CYMR90~1\AppData\Local\Temp\ccLzUcmd.s:23270  .debug_str:0000000000010be1 .LASF4674
C:\Users\CYMR90~1\AppData\Local\Temp\ccLzUcmd.s:28049  .debug_str:0000000000023cfe .LASF4675
C:\Users\CYMR90~1\AppData\Local\Temp\ccLzUcmd.s:21956  .debug_str:000000000000b996 .LASF4676
C:\Users\CYMR90~1\AppData\Local\Temp\ccLzUcmd.s:21666  .debug_str:000000000000a60f .LASF4677
C:\Users\CYMR90~1\AppData\Local\Temp\ccLzUcmd.s:27219  .debug_str:0000000000020b3c .LASF4678
C:\Users\CYMR90~1\AppData\Local\Temp\ccLzUcmd.s:21018  .debug_str:0000000000007c54 .LASF4679
C:\Users\CYMR90~1\AppData\Local\Temp\ccLzUcmd.s:28465  .debug_str:0000000000025a45 .LASF4680
C:\Users\CYMR90~1\AppData\Local\Temp\ccLzUcmd.s:28113  .debug_str:00000000000241f2 .LASF4681
C:\Users\CYMR90~1\AppData\Local\Temp\ccLzUcmd.s:23098  .debug_str:000000000001019d .LASF4682
C:\Users\CYMR90~1\AppData\Local\Temp\ccLzUcmd.s:24420  .debug_str:00000000000155e4 .LASF4683
C:\Users\CYMR90~1\AppData\Local\Temp\ccLzUcmd.s:29883  .debug_str:000000000002b45e .LASF4684
C:\Users\CYMR90~1\AppData\Local\Temp\ccLzUcmd.s:28157  .debug_str:00000000000244e7 .LASF4685
C:\Users\CYMR90~1\AppData\Local\Temp\ccLzUcmd.s:25419  .debug_str:000000000001968f .LASF4686
C:\Users\CYMR90~1\AppData\Local\Temp\ccLzUcmd.s:26437  .debug_str:000000000001dadb .LASF4687
C:\Users\CYMR90~1\AppData\Local\Temp\ccLzUcmd.s:24622  .debug_str:00000000000162c1 .LASF4688
C:\Users\CYMR90~1\AppData\Local\Temp\ccLzUcmd.s:21294  .debug_str:0000000000008f2a .LASF4689
C:\Users\CYMR90~1\AppData\Local\Temp\ccLzUcmd.s:21056  .debug_str:0000000000007f53 .LASF4690
C:\Users\CYMR90~1\AppData\Local\Temp\ccLzUcmd.s:25223  .debug_str:000000000001891c .LASF4691
C:\Users\CYMR90~1\AppData\Local\Temp\ccLzUcmd.s:24881  .debug_str:000000000001740d .LASF4692
C:\Users\CYMR90~1\AppData\Local\Temp\ccLzUcmd.s:24648  .debug_str:0000000000016432 .LASF4693
C:\Users\CYMR90~1\AppData\Local\Temp\ccLzUcmd.s:20034  .debug_str:0000000000003d92 .LASF4694
C:\Users\CYMR90~1\AppData\Local\Temp\ccLzUcmd.s:28879  .debug_str:000000000002742f .LASF4695
C:\Users\CYMR90~1\AppData\Local\Temp\ccLzUcmd.s:22590  .debug_str:000000000000e265 .LASF4696
C:\Users\CYMR90~1\AppData\Local\Temp\ccLzUcmd.s:20076  .debug_str:0000000000004054 .LASF4697
C:\Users\CYMR90~1\AppData\Local\Temp\ccLzUcmd.s:24254  .debug_str:0000000000014b6c .LASF4698
C:\Users\CYMR90~1\AppData\Local\Temp\ccLzUcmd.s:22586  .debug_str:000000000000e213 .LASF4699
C:\Users\CYMR90~1\AppData\Local\Temp\ccLzUcmd.s:19620  .debug_str:0000000000002310 .LASF4700
C:\Users\CYMR90~1\AppData\Local\Temp\ccLzUcmd.s:29717  .debug_str:000000000002a991 .LASF4701
C:\Users\CYMR90~1\AppData\Local\Temp\ccLzUcmd.s:21198  .debug_str:00000000000088be .LASF4702
C:\Users\CYMR90~1\AppData\Local\Temp\ccLzUcmd.s:19798  .debug_str:0000000000002e40 .LASF4703
C:\Users\CYMR90~1\AppData\Local\Temp\ccLzUcmd.s:28969  .debug_str:0000000000027a12 .LASF4704
C:\Users\CYMR90~1\AppData\Local\Temp\ccLzUcmd.s:29455  .debug_str:0000000000029a08 .LASF4705
C:\Users\CYMR90~1\AppData\Local\Temp\ccLzUcmd.s:25537  .debug_str:0000000000019ed3 .LASF4706
C:\Users\CYMR90~1\AppData\Local\Temp\ccLzUcmd.s:25575  .debug_str:000000000001a102 .LASF4707
C:\Users\CYMR90~1\AppData\Local\Temp\ccLzUcmd.s:28411  .debug_str:000000000002567c .LASF4708
C:\Users\CYMR90~1\AppData\Local\Temp\ccLzUcmd.s:24358  .debug_str:0000000000015277 .LASF4709
C:\Users\CYMR90~1\AppData\Local\Temp\ccLzUcmd.s:30229  .debug_str:000000000002cb69 .LASF4710
C:\Users\CYMR90~1\AppData\Local\Temp\ccLzUcmd.s:29133  .debug_str:00000000000285b6 .LASF4711
C:\Users\CYMR90~1\AppData\Local\Temp\ccLzUcmd.s:27879  .debug_str:0000000000023281 .LASF4712
C:\Users\CYMR90~1\AppData\Local\Temp\ccLzUcmd.s:26717  .debug_str:000000000001ec3b .LASF4713
C:\Users\CYMR90~1\AppData\Local\Temp\ccLzUcmd.s:23162  .debug_str:00000000000104e2 .LASF4714
C:\Users\CYMR90~1\AppData\Local\Temp\ccLzUcmd.s:30125  .debug_str:000000000002c521 .LASF4715
C:\Users\CYMR90~1\AppData\Local\Temp\ccLzUcmd.s:22532  .debug_str:000000000000dece .LASF4716
C:\Users\CYMR90~1\AppData\Local\Temp\ccLzUcmd.s:28197  .debug_str:0000000000024762 .LASF4717
C:\Users\CYMR90~1\AppData\Local\Temp\ccLzUcmd.s:20806  .debug_str:0000000000006e61 .LASF4718
C:\Users\CYMR90~1\AppData\Local\Temp\ccLzUcmd.s:22820  .debug_str:000000000000f07d .LASF4719
C:\Users\CYMR90~1\AppData\Local\Temp\ccLzUcmd.s:28947  .debug_str:000000000002786a .LASF4720
C:\Users\CYMR90~1\AppData\Local\Temp\ccLzUcmd.s:26221  .debug_str:000000000001cc26 .LASF4721
C:\Users\CYMR90~1\AppData\Local\Temp\ccLzUcmd.s:28731  .debug_str:0000000000026a5b .LASF4722
C:\Users\CYMR90~1\AppData\Local\Temp\ccLzUcmd.s:24993  .debug_str:0000000000017b51 .LASF4723
C:\Users\CYMR90~1\AppData\Local\Temp\ccLzUcmd.s:19786  .debug_str:0000000000002d83 .LASF4724
C:\Users\CYMR90~1\AppData\Local\Temp\ccLzUcmd.s:21096  .debug_str:000000000000829f .LASF4725
C:\Users\CYMR90~1\AppData\Local\Temp\ccLzUcmd.s:26207  .debug_str:000000000001cb43 .LASF4726
C:\Users\CYMR90~1\AppData\Local\Temp\ccLzUcmd.s:23458  .debug_str:00000000000117d3 .LASF4727
C:\Users\CYMR90~1\AppData\Local\Temp\ccLzUcmd.s:20676  .debug_str:0000000000006609 .LASF4728
C:\Users\CYMR90~1\AppData\Local\Temp\ccLzUcmd.s:29365  .debug_str:0000000000029478 .LASF4729
C:\Users\CYMR90~1\AppData\Local\Temp\ccLzUcmd.s:25827  .debug_str:000000000001b304 .LASF4730
C:\Users\CYMR90~1\AppData\Local\Temp\ccLzUcmd.s:20068  .debug_str:0000000000003fee .LASF4731
C:\Users\CYMR90~1\AppData\Local\Temp\ccLzUcmd.s:28483  .debug_str:0000000000025b63 .LASF4732
C:\Users\CYMR90~1\AppData\Local\Temp\ccLzUcmd.s:22666  .debug_str:000000000000e740 .LASF4733
C:\Users\CYMR90~1\AppData\Local\Temp\ccLzUcmd.s:20040  .debug_str:0000000000003de4 .LASF4734
C:\Users\CYMR90~1\AppData\Local\Temp\ccLzUcmd.s:24152  .debug_str:0000000000014500 .LASF4735
C:\Users\CYMR90~1\AppData\Local\Temp\ccLzUcmd.s:21816  .debug_str:000000000000b037 .LASF4736
C:\Users\CYMR90~1\AppData\Local\Temp\ccLzUcmd.s:27233  .debug_str:0000000000020bfa .LASF4737
C:\Users\CYMR90~1\AppData\Local\Temp\ccLzUcmd.s:28591  .debug_str:00000000000261ca .LASF4738
C:\Users\CYMR90~1\AppData\Local\Temp\ccLzUcmd.s:26927  .debug_str:000000000001f931 .LASF4739
C:\Users\CYMR90~1\AppData\Local\Temp\ccLzUcmd.s:27515  .debug_str:0000000000021d83 .LASF4740
C:\Users\CYMR90~1\AppData\Local\Temp\ccLzUcmd.s:25799  .debug_str:000000000001b0fa .LASF4741
C:\Users\CYMR90~1\AppData\Local\Temp\ccLzUcmd.s:24328  .debug_str:000000000001509a .LASF4742
C:\Users\CYMR90~1\AppData\Local\Temp\ccLzUcmd.s:28541  .debug_str:0000000000025efa .LASF4743
C:\Users\CYMR90~1\AppData\Local\Temp\ccLzUcmd.s:28033  .debug_str:0000000000023c01 .LASF4744
C:\Users\CYMR90~1\AppData\Local\Temp\ccLzUcmd.s:26795  .debug_str:000000000001f120 .LASF4745
C:\Users\CYMR90~1\AppData\Local\Temp\ccLzUcmd.s:27429  .debug_str:0000000000021831 .LASF4746
C:\Users\CYMR90~1\AppData\Local\Temp\ccLzUcmd.s:20672  .debug_str:00000000000065c0 .LASF4747
C:\Users\CYMR90~1\AppData\Local\Temp\ccLzUcmd.s:19616  .debug_str:00000000000022b3 .LASF4748
C:\Users\CYMR90~1\AppData\Local\Temp\ccLzUcmd.s:27757  .debug_str:0000000000022bca .LASF4749
C:\Users\CYMR90~1\AppData\Local\Temp\ccLzUcmd.s:27709  .debug_str:00000000000228a3 .LASF4750
C:\Users\CYMR90~1\AppData\Local\Temp\ccLzUcmd.s:27023  .debug_str:000000000001ff54 .LASF4751
C:\Users\CYMR90~1\AppData\Local\Temp\ccLzUcmd.s:19214  .debug_str:0000000000000a15 .LASF4752
C:\Users\CYMR90~1\AppData\Local\Temp\ccLzUcmd.s:23938  .debug_str:0000000000013808 .LASF4753
C:\Users\CYMR90~1\AppData\Local\Temp\ccLzUcmd.s:25081  .debug_str:0000000000018048 .LASF4754
C:\Users\CYMR90~1\AppData\Local\Temp\ccLzUcmd.s:26359  .debug_str:000000000001d5db .LASF4755
C:\Users\CYMR90~1\AppData\Local\Temp\ccLzUcmd.s:26267  .debug_str:000000000001cfc9 .LASF4756
C:\Users\CYMR90~1\AppData\Local\Temp\ccLzUcmd.s:24290  .debug_str:0000000000014e09 .LASF4757
C:\Users\CYMR90~1\AppData\Local\Temp\ccLzUcmd.s:19602  .debug_str:00000000000021db .LASF4758
C:\Users\CYMR90~1\AppData\Local\Temp\ccLzUcmd.s:21050  .debug_str:0000000000007ef3 .LASF4759
C:\Users\CYMR90~1\AppData\Local\Temp\ccLzUcmd.s:22090  .debug_str:000000000000c252 .LASF4760
C:\Users\CYMR90~1\AppData\Local\Temp\ccLzUcmd.s:27561  .debug_str:000000000002201d .LASF4761
C:\Users\CYMR90~1\AppData\Local\Temp\ccLzUcmd.s:25955  .debug_str:000000000001bb04 .LASF4762
C:\Users\CYMR90~1\AppData\Local\Temp\ccLzUcmd.s:20154  .debug_str:00000000000045b8 .LASF4763
C:\Users\CYMR90~1\AppData\Local\Temp\ccLzUcmd.s:21172  .debug_str:0000000000008728 .LASF4764
C:\Users\CYMR90~1\AppData\Local\Temp\ccLzUcmd.s:20204  .debug_str:000000000000499c .LASF4765
C:\Users\CYMR90~1\AppData\Local\Temp\ccLzUcmd.s:26533  .debug_str:000000000001e129 .LASF4766
C:\Users\CYMR90~1\AppData\Local\Temp\ccLzUcmd.s:28129  .debug_str:0000000000024320 .LASF4767
C:\Users\CYMR90~1\AppData\Local\Temp\ccLzUcmd.s:29623  .debug_str:000000000002a3f4 .LASF4768
C:\Users\CYMR90~1\AppData\Local\Temp\ccLzUcmd.s:22996  .debug_str:000000000000fbc7 .LASF4769
C:\Users\CYMR90~1\AppData\Local\Temp\ccLzUcmd.s:27541  .debug_str:0000000000021f02 .LASF4770
C:\Users\CYMR90~1\AppData\Local\Temp\ccLzUcmd.s:29073  .debug_str:000000000002818a .LASF4771
C:\Users\CYMR90~1\AppData\Local\Temp\ccLzUcmd.s:27919  .debug_str:000000000002352b .LASF4772
C:\Users\CYMR90~1\AppData\Local\Temp\ccLzUcmd.s:24310  .debug_str:0000000000014f59 .LASF4773
C:\Users\CYMR90~1\AppData\Local\Temp\ccLzUcmd.s:29825  .debug_str:000000000002b00f .LASF4774
C:\Users\CYMR90~1\AppData\Local\Temp\ccLzUcmd.s:21852  .debug_str:000000000000b267 .LASF4775
C:\Users\CYMR90~1\AppData\Local\Temp\ccLzUcmd.s:29331  .debug_str:0000000000029249 .LASF4776
C:\Users\CYMR90~1\AppData\Local\Temp\ccLzUcmd.s:24394  .debug_str:0000000000015483 .LASF4777
C:\Users\CYMR90~1\AppData\Local\Temp\ccLzUcmd.s:27419  .debug_str:0000000000021794 .LASF4778
C:\Users\CYMR90~1\AppData\Local\Temp\ccLzUcmd.s:29727  .debug_str:000000000002aa47 .LASF4779
C:\Users\CYMR90~1\AppData\Local\Temp\ccLzUcmd.s:19186  .debug_str:0000000000000851 .LASF4780
C:\Users\CYMR90~1\AppData\Local\Temp\ccLzUcmd.s:24933  .debug_str:0000000000017765 .LASF4781
C:\Users\CYMR90~1\AppData\Local\Temp\ccLzUcmd.s:26679  .debug_str:000000000001ea23 .LASF4782
C:\Users\CYMR90~1\AppData\Local\Temp\ccLzUcmd.s:21592  .debug_str:000000000000a158 .LASF4783
C:\Users\CYMR90~1\AppData\Local\Temp\ccLzUcmd.s:20418  .debug_str:00000000000056a1 .LASF4784
C:\Users\CYMR90~1\AppData\Local\Temp\ccLzUcmd.s:22928  .debug_str:000000000000f7d3 .LASF4785
C:\Users\CYMR90~1\AppData\Local\Temp\ccLzUcmd.s:25217  .debug_str:00000000000188aa .LASF4786
C:\Users\CYMR90~1\AppData\Local\Temp\ccLzUcmd.s:19704  .debug_str:0000000000002863 .LASF4787
C:\Users\CYMR90~1\AppData\Local\Temp\ccLzUcmd.s:25457  .debug_str:00000000000199f9 .LASF4788
C:\Users\CYMR90~1\AppData\Local\Temp\ccLzUcmd.s:26785  .debug_str:000000000001f06c .LASF4789
C:\Users\CYMR90~1\AppData\Local\Temp\ccLzUcmd.s:19222  .debug_str:0000000000000adb .LASF4790
C:\Users\CYMR90~1\AppData\Local\Temp\ccLzUcmd.s:20656  .debug_str:00000000000064fa .LASF4791
C:\Users\CYMR90~1\AppData\Local\Temp\ccLzUcmd.s:23690  .debug_str:0000000000012738 .LASF4792
C:\Users\CYMR90~1\AppData\Local\Temp\ccLzUcmd.s:26069  .debug_str:000000000001c278 .LASF4793
C:\Users\CYMR90~1\AppData\Local\Temp\ccLzUcmd.s:26283  .debug_str:000000000001d138 .LASF4794
C:\Users\CYMR90~1\AppData\Local\Temp\ccLzUcmd.s:29777  .debug_str:000000000002ad53 .LASF4795
C:\Users\CYMR90~1\AppData\Local\Temp\ccLzUcmd.s:22006  .debug_str:000000000000bce8 .LASF4796
C:\Users\CYMR90~1\AppData\Local\Temp\ccLzUcmd.s:25049  .debug_str:0000000000017ea7 .LASF4797
C:\Users\CYMR90~1\AppData\Local\Temp\ccLzUcmd.s:24040  .debug_str:0000000000013e16 .LASF4798
C:\Users\CYMR90~1\AppData\Local\Temp\ccLzUcmd.s:25035  .debug_str:0000000000017d9e .LASF4799
C:\Users\CYMR90~1\AppData\Local\Temp\ccLzUcmd.s:28991  .debug_str:0000000000027b8e .LASF4800
C:\Users\CYMR90~1\AppData\Local\Temp\ccLzUcmd.s:27225  .debug_str:0000000000020b77 .LASF4801
C:\Users\CYMR90~1\AppData\Local\Temp\ccLzUcmd.s:19820  .debug_str:0000000000002f7f .LASF4802
C:\Users\CYMR90~1\AppData\Local\Temp\ccLzUcmd.s:22746  .debug_str:000000000000ec5e .LASF4803
C:\Users\CYMR90~1\AppData\Local\Temp\ccLzUcmd.s:29523  .debug_str:0000000000029e06 .LASF4804
C:\Users\CYMR90~1\AppData\Local\Temp\ccLzUcmd.s:21208  .debug_str:0000000000008961 .LASF4805
C:\Users\CYMR90~1\AppData\Local\Temp\ccLzUcmd.s:22960  .debug_str:000000000000f991 .LASF4806
C:\Users\CYMR90~1\AppData\Local\Temp\ccLzUcmd.s:19762  .debug_str:0000000000002c11 .LASF4807
C:\Users\CYMR90~1\AppData\Local\Temp\ccLzUcmd.s:22986  .debug_str:000000000000fb3c .LASF4808
C:\Users\CYMR90~1\AppData\Local\Temp\ccLzUcmd.s:24833  .debug_str:000000000001716b .LASF4809
C:\Users\CYMR90~1\AppData\Local\Temp\ccLzUcmd.s:22450  .debug_str:000000000000d9e7 .LASF4810
C:\Users\CYMR90~1\AppData\Local\Temp\ccLzUcmd.s:24917  .debug_str:0000000000017663 .LASF4811
C:\Users\CYMR90~1\AppData\Local\Temp\ccLzUcmd.s:21478  .debug_str:0000000000009a5b .LASF4812
C:\Users\CYMR90~1\AppData\Local\Temp\ccLzUcmd.s:24304  .debug_str:0000000000014efb .LASF4813
C:\Users\CYMR90~1\AppData\Local\Temp\ccLzUcmd.s:21230  .debug_str:0000000000008acd .LASF4814
C:\Users\CYMR90~1\AppData\Local\Temp\ccLzUcmd.s:21162  .debug_str:000000000000868e .LASF4815
C:\Users\CYMR90~1\AppData\Local\Temp\ccLzUcmd.s:29775  .debug_str:000000000002ad2e .LASF4816
C:\Users\CYMR90~1\AppData\Local\Temp\ccLzUcmd.s:28085  .debug_str:0000000000023fe1 .LASF4817
C:\Users\CYMR90~1\AppData\Local\Temp\ccLzUcmd.s:29761  .debug_str:000000000002ac58 .LASF4818
C:\Users\CYMR90~1\AppData\Local\Temp\ccLzUcmd.s:25113  .debug_str:000000000001825d .LASF4819
C:\Users\CYMR90~1\AppData\Local\Temp\ccLzUcmd.s:29259  .debug_str:0000000000028d7f .LASF4820
C:\Users\CYMR90~1\AppData\Local\Temp\ccLzUcmd.s:28945  .debug_str:0000000000027848 .LASF4821
C:\Users\CYMR90~1\AppData\Local\Temp\ccLzUcmd.s:21454  .debug_str:00000000000098b4 .LASF4822
C:\Users\CYMR90~1\AppData\Local\Temp\ccLzUcmd.s:28679  .debug_str:0000000000026760 .LASF4823
C:\Users\CYMR90~1\AppData\Local\Temp\ccLzUcmd.s:25097  .debug_str:0000000000018167 .LASF4824
C:\Users\CYMR90~1\AppData\Local\Temp\ccLzUcmd.s:25003  .debug_str:0000000000017bbe .LASF4825
C:\Users\CYMR90~1\AppData\Local\Temp\ccLzUcmd.s:28811  .debug_str:0000000000026f46 .LASF4826
C:\Users\CYMR90~1\AppData\Local\Temp\ccLzUcmd.s:22850  .debug_str:000000000000f26f .LASF4827
C:\Users\CYMR90~1\AppData\Local\Temp\ccLzUcmd.s:26243  .debug_str:000000000001cdaf .LASF4828
C:\Users\CYMR90~1\AppData\Local\Temp\ccLzUcmd.s:21634  .debug_str:000000000000a42a .LASF4829
C:\Users\CYMR90~1\AppData\Local\Temp\ccLzUcmd.s:22172  .debug_str:000000000000c7a8 .LASF4830
C:\Users\CYMR90~1\AppData\Local\Temp\ccLzUcmd.s:28341  .debug_str:00000000000251b6 .LASF4831
C:\Users\CYMR90~1\AppData\Local\Temp\ccLzUcmd.s:21584  .debug_str:000000000000a0e2 .LASF4832
C:\Users\CYMR90~1\AppData\Local\Temp\ccLzUcmd.s:28165  .debug_str:000000000002456c .LASF4833
C:\Users\CYMR90~1\AppData\Local\Temp\ccLzUcmd.s:26011  .debug_str:000000000001bec9 .LASF4834
C:\Users\CYMR90~1\AppData\Local\Temp\ccLzUcmd.s:22312  .debug_str:000000000000d124 .LASF4835
C:\Users\CYMR90~1\AppData\Local\Temp\ccLzUcmd.s:23180  .debug_str:0000000000010607 .LASF4836
C:\Users\CYMR90~1\AppData\Local\Temp\ccLzUcmd.s:19544  .debug_str:0000000000001ed6 .LASF4837
C:\Users\CYMR90~1\AppData\Local\Temp\ccLzUcmd.s:24783  .debug_str:0000000000016e75 .LASF4838
C:\Users\CYMR90~1\AppData\Local\Temp\ccLzUcmd.s:26087  .debug_str:000000000001c36c .LASF4839
C:\Users\CYMR90~1\AppData\Local\Temp\ccLzUcmd.s:24196  .debug_str:0000000000014812 .LASF4840
C:\Users\CYMR90~1\AppData\Local\Temp\ccLzUcmd.s:20148  .debug_str:000000000000454f .LASF4841
C:\Users\CYMR90~1\AppData\Local\Temp\ccLzUcmd.s:25729  .debug_str:000000000001ac2f .LASF4842
C:\Users\CYMR90~1\AppData\Local\Temp\ccLzUcmd.s:28435  .debug_str:0000000000025870 .LASF4843
C:\Users\CYMR90~1\AppData\Local\Temp\ccLzUcmd.s:22904  .debug_str:000000000000f5bc .LASF4844
C:\Users\CYMR90~1\AppData\Local\Temp\ccLzUcmd.s:27255  .debug_str:0000000000020d49 .LASF4845
C:\Users\CYMR90~1\AppData\Local\Temp\ccLzUcmd.s:19050  .debug_str:000000000000006a .LASF4846
C:\Users\CYMR90~1\AppData\Local\Temp\ccLzUcmd.s:22080  .debug_str:000000000000c1cf .LASF4847
C:\Users\CYMR90~1\AppData\Local\Temp\ccLzUcmd.s:29957  .debug_str:000000000002b934 .LASF4848
C:\Users\CYMR90~1\AppData\Local\Temp\ccLzUcmd.s:20890  .debug_str:0000000000007431 .LASF4849
C:\Users\CYMR90~1\AppData\Local\Temp\ccLzUcmd.s:24448  .debug_str:0000000000015783 .LASF4850
C:\Users\CYMR90~1\AppData\Local\Temp\ccLzUcmd.s:22036  .debug_str:000000000000bf12 .LASF4851
C:\Users\CYMR90~1\AppData\Local\Temp\ccLzUcmd.s:24294  .debug_str:0000000000014e50 .LASF4852
C:\Users\CYMR90~1\AppData\Local\Temp\ccLzUcmd.s:21916  .debug_str:000000000000b6d8 .LASF4853
C:\Users\CYMR90~1\AppData\Local\Temp\ccLzUcmd.s:24492  .debug_str:0000000000015a32 .LASF4854
C:\Users\CYMR90~1\AppData\Local\Temp\ccLzUcmd.s:23376  .debug_str:00000000000111d4 .LASF4855
C:\Users\CYMR90~1\AppData\Local\Temp\ccLzUcmd.s:28601  .debug_str:0000000000026273 .LASF4856
C:\Users\CYMR90~1\AppData\Local\Temp\ccLzUcmd.s:23614  .debug_str:0000000000012258 .LASF4857
C:\Users\CYMR90~1\AppData\Local\Temp\ccLzUcmd.s:24368  .debug_str:0000000000015319 .LASF4858
C:\Users\CYMR90~1\AppData\Local\Temp\ccLzUcmd.s:23286  .debug_str:0000000000010cb3 .LASF4859
C:\Users\CYMR90~1\AppData\Local\Temp\ccLzUcmd.s:29135  .debug_str:00000000000285d8 .LASF4860
C:\Users\CYMR90~1\AppData\Local\Temp\ccLzUcmd.s:20940  .debug_str:000000000000773b .LASF4861
C:\Users\CYMR90~1\AppData\Local\Temp\ccLzUcmd.s:30023  .debug_str:000000000002bd9a .LASF4862
C:\Users\CYMR90~1\AppData\Local\Temp\ccLzUcmd.s:30039  .debug_str:000000000002bf2a .LASF4863
C:\Users\CYMR90~1\AppData\Local\Temp\ccLzUcmd.s:27247  .debug_str:0000000000020ce1 .LASF4864
C:\Users\CYMR90~1\AppData\Local\Temp\ccLzUcmd.s:19248  .debug_str:0000000000000c64 .LASF4865
C:\Users\CYMR90~1\AppData\Local\Temp\ccLzUcmd.s:21958  .debug_str:000000000000b9ae .LASF4866
C:\Users\CYMR90~1\AppData\Local\Temp\ccLzUcmd.s:25173  .debug_str:0000000000018605 .LASF4867
C:\Users\CYMR90~1\AppData\Local\Temp\ccLzUcmd.s:20664  .debug_str:0000000000006565 .LASF4868
C:\Users\CYMR90~1\AppData\Local\Temp\ccLzUcmd.s:21132  .debug_str:00000000000084f7 .LASF4869
C:\Users\CYMR90~1\AppData\Local\Temp\ccLzUcmd.s:23802  .debug_str:0000000000012eca .LASF4870
C:\Users\CYMR90~1\AppData\Local\Temp\ccLzUcmd.s:23224  .debug_str:0000000000010885 .LASF4871
C:\Users\CYMR90~1\AppData\Local\Temp\ccLzUcmd.s:27529  .debug_str:0000000000021e67 .LASF4872
C:\Users\CYMR90~1\AppData\Local\Temp\ccLzUcmd.s:26585  .debug_str:000000000001e439 .LASF4873
C:\Users\CYMR90~1\AppData\Local\Temp\ccLzUcmd.s:20338  .debug_str:00000000000051dc .LASF4874
C:\Users\CYMR90~1\AppData\Local\Temp\ccLzUcmd.s:27365  .debug_str:0000000000021455 .LASF4875
C:\Users\CYMR90~1\AppData\Local\Temp\ccLzUcmd.s:24546  .debug_str:0000000000015db8 .LASF4876
C:\Users\CYMR90~1\AppData\Local\Temp\ccLzUcmd.s:20574  .debug_str:0000000000005fe0 .LASF4877
C:\Users\CYMR90~1\AppData\Local\Temp\ccLzUcmd.s:21052  .debug_str:0000000000007f17 .LASF4878
C:\Users\CYMR90~1\AppData\Local\Temp\ccLzUcmd.s:24380  .debug_str:00000000000153b4 .LASF4879
C:\Users\CYMR90~1\AppData\Local\Temp\ccLzUcmd.s:27027  .debug_str:000000000001ffa2 .LASF4880
C:\Users\CYMR90~1\AppData\Local\Temp\ccLzUcmd.s:29165  .debug_str:00000000000287c3 .LASF4881
C:\Users\CYMR90~1\AppData\Local\Temp\ccLzUcmd.s:24018  .debug_str:0000000000013cb7 .LASF4882
C:\Users\CYMR90~1\AppData\Local\Temp\ccLzUcmd.s:23954  .debug_str:00000000000138e2 .LASF4883
C:\Users\CYMR90~1\AppData\Local\Temp\ccLzUcmd.s:19656  .debug_str:0000000000002548 .LASF4884
C:\Users\CYMR90~1\AppData\Local\Temp\ccLzUcmd.s:26645  .debug_str:000000000001e7e2 .LASF4885
C:\Users\CYMR90~1\AppData\Local\Temp\ccLzUcmd.s:26107  .debug_str:000000000001c489 .LASF4886
C:\Users\CYMR90~1\AppData\Local\Temp\ccLzUcmd.s:28391  .debug_str:000000000002553e .LASF4887
C:\Users\CYMR90~1\AppData\Local\Temp\ccLzUcmd.s:20714  .debug_str:00000000000068a5 .LASF4888
C:\Users\CYMR90~1\AppData\Local\Temp\ccLzUcmd.s:19508  .debug_str:0000000000001cc8 .LASF4889
C:\Users\CYMR90~1\AppData\Local\Temp\ccLzUcmd.s:21316  .debug_str:0000000000009051 .LASF4890
C:\Users\CYMR90~1\AppData\Local\Temp\ccLzUcmd.s:21480  .debug_str:0000000000009a7e .LASF4891
C:\Users\CYMR90~1\AppData\Local\Temp\ccLzUcmd.s:19520  .debug_str:0000000000001d69 .LASF4892
C:\Users\CYMR90~1\AppData\Local\Temp\ccLzUcmd.s:30063  .debug_str:000000000002c0a9 .LASF4893
C:\Users\CYMR90~1\AppData\Local\Temp\ccLzUcmd.s:24244  .debug_str:0000000000014ae6 .LASF4894
C:\Users\CYMR90~1\AppData\Local\Temp\ccLzUcmd.s:24652  .debug_str:0000000000016475 .LASF4895
C:\Users\CYMR90~1\AppData\Local\Temp\ccLzUcmd.s:23738  .debug_str:0000000000012a78 .LASF4896
C:\Users\CYMR90~1\AppData\Local\Temp\ccLzUcmd.s:21800  .debug_str:000000000000af38 .LASF4897
C:\Users\CYMR90~1\AppData\Local\Temp\ccLzUcmd.s:24308  .debug_str:0000000000014f40 .LASF4898
C:\Users\CYMR90~1\AppData\Local\Temp\ccLzUcmd.s:20860  .debug_str:000000000000720c .LASF4899
C:\Users\CYMR90~1\AppData\Local\Temp\ccLzUcmd.s:25093  .debug_str:000000000001812a .LASF4900
C:\Users\CYMR90~1\AppData\Local\Temp\ccLzUcmd.s:22948  .debug_str:000000000000f8ea .LASF4901
C:\Users\CYMR90~1\AppData\Local\Temp\ccLzUcmd.s:24476  .debug_str:0000000000015944 .LASF4902
C:\Users\CYMR90~1\AppData\Local\Temp\ccLzUcmd.s:21004  .debug_str:0000000000007b7d .LASF4903
C:\Users\CYMR90~1\AppData\Local\Temp\ccLzUcmd.s:25749  .debug_str:000000000001ad7f .LASF4904
C:\Users\CYMR90~1\AppData\Local\Temp\ccLzUcmd.s:30293  .debug_str:000000000002cfea .LASF4905
C:\Users\CYMR90~1\AppData\Local\Temp\ccLzUcmd.s:19944  .debug_str:00000000000037a8 .LASF4906
C:\Users\CYMR90~1\AppData\Local\Temp\ccLzUcmd.s:23596  .debug_str:000000000001211c .LASF4907
C:\Users\CYMR90~1\AppData\Local\Temp\ccLzUcmd.s:20914  .debug_str:000000000000758d .LASF4908
C:\Users\CYMR90~1\AppData\Local\Temp\ccLzUcmd.s:20296  .debug_str:0000000000004f5f .LASF4909
C:\Users\CYMR90~1\AppData\Local\Temp\ccLzUcmd.s:21528  .debug_str:0000000000009d64 .LASF4910
C:\Users\CYMR90~1\AppData\Local\Temp\ccLzUcmd.s:21476  .debug_str:0000000000009a3a .LASF4911
C:\Users\CYMR90~1\AppData\Local\Temp\ccLzUcmd.s:22372  .debug_str:000000000000d576 .LASF4912
C:\Users\CYMR90~1\AppData\Local\Temp\ccLzUcmd.s:19600  .debug_str:00000000000021be .LASF4913
C:\Users\CYMR90~1\AppData\Local\Temp\ccLzUcmd.s:19678  .debug_str:0000000000002662 .LASF4914
C:\Users\CYMR90~1\AppData\Local\Temp\ccLzUcmd.s:27139  .debug_str:000000000002064c .LASF4915
C:\Users\CYMR90~1\AppData\Local\Temp\ccLzUcmd.s:28821  .debug_str:0000000000027024 .LASF4916
C:\Users\CYMR90~1\AppData\Local\Temp\ccLzUcmd.s:19462  .debug_str:00000000000019fe .LASF4917
C:\Users\CYMR90~1\AppData\Local\Temp\ccLzUcmd.s:22968  .debug_str:000000000000fa18 .LASF4918
C:\Users\CYMR90~1\AppData\Local\Temp\ccLzUcmd.s:21364  .debug_str:000000000000930c .LASF4919
C:\Users\CYMR90~1\AppData\Local\Temp\ccLzUcmd.s:28281  .debug_str:0000000000024d54 .LASF4920
C:\Users\CYMR90~1\AppData\Local\Temp\ccLzUcmd.s:29741  .debug_str:000000000002ab16 .LASF4921
C:\Users\CYMR90~1\AppData\Local\Temp\ccLzUcmd.s:24803  .debug_str:0000000000016fbb .LASF4922
C:\Users\CYMR90~1\AppData\Local\Temp\ccLzUcmd.s:24921  .debug_str:00000000000176a5 .LASF4923
C:\Users\CYMR90~1\AppData\Local\Temp\ccLzUcmd.s:26463  .debug_str:000000000001dc57 .LASF4924
C:\Users\CYMR90~1\AppData\Local\Temp\ccLzUcmd.s:21602  .debug_str:000000000000a209 .LASF4925
C:\Users\CYMR90~1\AppData\Local\Temp\ccLzUcmd.s:26893  .debug_str:000000000001f729 .LASF4926
C:\Users\CYMR90~1\AppData\Local\Temp\ccLzUcmd.s:28047  .debug_str:0000000000023ce1 .LASF4927
C:\Users\CYMR90~1\AppData\Local\Temp\ccLzUcmd.s:23728  .debug_str:00000000000129f2 .LASF4928
C:\Users\CYMR90~1\AppData\Local\Temp\ccLzUcmd.s:19948  .debug_str:00000000000037e1 .LASF4929
C:\Users\CYMR90~1\AppData\Local\Temp\ccLzUcmd.s:20126  .debug_str:00000000000043f1 .LASF4930
C:\Users\CYMR90~1\AppData\Local\Temp\ccLzUcmd.s:28979  .debug_str:0000000000027ac3 .LASF4931
C:\Users\CYMR90~1\AppData\Local\Temp\ccLzUcmd.s:23392  .debug_str:00000000000112c7 .LASF4932
C:\Users\CYMR90~1\AppData\Local\Temp\ccLzUcmd.s:21970  .debug_str:000000000000ba47 .LASF4933
C:\Users\CYMR90~1\AppData\Local\Temp\ccLzUcmd.s:28039  .debug_str:0000000000023c50 .LASF4934
C:\Users\CYMR90~1\AppData\Local\Temp\ccLzUcmd.s:28143  .debug_str:000000000002440f .LASF4935
C:\Users\CYMR90~1\AppData\Local\Temp\ccLzUcmd.s:24450  .debug_str:0000000000015799 .LASF4936
C:\Users\CYMR90~1\AppData\Local\Temp\ccLzUcmd.s:26957  .debug_str:000000000001fb1e .LASF4937
C:\Users\CYMR90~1\AppData\Local\Temp\ccLzUcmd.s:24785  .debug_str:0000000000016e9f .LASF4938
C:\Users\CYMR90~1\AppData\Local\Temp\ccLzUcmd.s:19910  .debug_str:0000000000003589 .LASF4939
C:\Users\CYMR90~1\AppData\Local\Temp\ccLzUcmd.s:21636  .debug_str:000000000000a456 .LASF4940
C:\Users\CYMR90~1\AppData\Local\Temp\ccLzUcmd.s:20626  .debug_str:000000000000631b .LASF4941
C:\Users\CYMR90~1\AppData\Local\Temp\ccLzUcmd.s:28613  .debug_str:0000000000026339 .LASF4942
C:\Users\CYMR90~1\AppData\Local\Temp\ccLzUcmd.s:24702  .debug_str:0000000000016730 .LASF4943
C:\Users\CYMR90~1\AppData\Local\Temp\ccLzUcmd.s:19158  .debug_str:000000000000069c .LASF4944
C:\Users\CYMR90~1\AppData\Local\Temp\ccLzUcmd.s:25661  .debug_str:000000000001a82a .LASF4945
C:\Users\CYMR90~1\AppData\Local\Temp\ccLzUcmd.s:30003  .debug_str:000000000002bc60 .LASF4946
C:\Users\CYMR90~1\AppData\Local\Temp\ccLzUcmd.s:21786  .debug_str:000000000000adb6 .LASF4947
C:\Users\CYMR90~1\AppData\Local\Temp\ccLzUcmd.s:20708  .debug_str:000000000000684d .LASF4948
C:\Users\CYMR90~1\AppData\Local\Temp\ccLzUcmd.s:28929  .debug_str:0000000000027714 .LASF4949
C:\Users\CYMR90~1\AppData\Local\Temp\ccLzUcmd.s:25685  .debug_str:000000000001a991 .LASF4950
C:\Users\CYMR90~1\AppData\Local\Temp\ccLzUcmd.s:26801  .debug_str:000000000001f17c .LASF4951
C:\Users\CYMR90~1\AppData\Local\Temp\ccLzUcmd.s:25947  .debug_str:000000000001ba9f .LASF4952
C:\Users\CYMR90~1\AppData\Local\Temp\ccLzUcmd.s:20416  .debug_str:0000000000005688 .LASF4953
C:\Users\CYMR90~1\AppData\Local\Temp\ccLzUcmd.s:27811  .debug_str:0000000000022ec9 .LASF4954
C:\Users\CYMR90~1\AppData\Local\Temp\ccLzUcmd.s:27829  .debug_str:0000000000022fb5 .LASF4955
C:\Users\CYMR90~1\AppData\Local\Temp\ccLzUcmd.s:28311  .debug_str:0000000000024ed6 .LASF4956
C:\Users\CYMR90~1\AppData\Local\Temp\ccLzUcmd.s:29235  .debug_str:0000000000028bdc .LASF4957
C:\Users\CYMR90~1\AppData\Local\Temp\ccLzUcmd.s:27871  .debug_str:0000000000023214 .LASF4958
C:\Users\CYMR90~1\AppData\Local\Temp\ccLzUcmd.s:29357  .debug_str:000000000002940c .LASF4959
C:\Users\CYMR90~1\AppData\Local\Temp\ccLzUcmd.s:23808  .debug_str:0000000000012f28 .LASF4960
C:\Users\CYMR90~1\AppData\Local\Temp\ccLzUcmd.s:23636  .debug_str:000000000001239b .LASF4961
C:\Users\CYMR90~1\AppData\Local\Temp\ccLzUcmd.s:27405  .debug_str:00000000000216b3 .LASF4962
C:\Users\CYMR90~1\AppData\Local\Temp\ccLzUcmd.s:30267  .debug_str:000000000002ce3b .LASF4963
C:\Users\CYMR90~1\AppData\Local\Temp\ccLzUcmd.s:23812  .debug_str:0000000000012f6c .LASF4964
C:\Users\CYMR90~1\AppData\Local\Temp\ccLzUcmd.s:25007  .debug_str:0000000000017bfb .LASF4965
C:\Users\CYMR90~1\AppData\Local\Temp\ccLzUcmd.s:20290  .debug_str:0000000000004f07 .LASF4966
C:\Users\CYMR90~1\AppData\Local\Temp\ccLzUcmd.s:27389  .debug_str:00000000000215bc .LASF4967
C:\Users\CYMR90~1\AppData\Local\Temp\ccLzUcmd.s:24841  .debug_str:00000000000171e9 .LASF4968
C:\Users\CYMR90~1\AppData\Local\Temp\ccLzUcmd.s:19818  .debug_str:0000000000002f66 .LASF4969
C:\Users\CYMR90~1\AppData\Local\Temp\ccLzUcmd.s:26707  .debug_str:000000000001eb9e .LASF4970
C:\Users\CYMR90~1\AppData\Local\Temp\ccLzUcmd.s:27625  .debug_str:00000000000223bb .LASF4971
C:\Users\CYMR90~1\AppData\Local\Temp\ccLzUcmd.s:20580  .debug_str:0000000000006052 .LASF4972
C:\Users\CYMR90~1\AppData\Local\Temp\ccLzUcmd.s:28079  .debug_str:0000000000023eba .LASF4973
C:\Users\CYMR90~1\AppData\Local\Temp\ccLzUcmd.s:26347  .debug_str:000000000001d502 .LASF4974
C:\Users\CYMR90~1\AppData\Local\Temp\ccLzUcmd.s:26327  .debug_str:000000000001d3cf .LASF4975
C:\Users\CYMR90~1\AppData\Local\Temp\ccLzUcmd.s:19298  .debug_str:0000000000000fc8 .LASF4976
C:\Users\CYMR90~1\AppData\Local\Temp\ccLzUcmd.s:23684  .debug_str:00000000000126ca .LASF4977
C:\Users\CYMR90~1\AppData\Local\Temp\ccLzUcmd.s:25109  .debug_str:0000000000018216 .LASF4978
C:\Users\CYMR90~1\AppData\Local\Temp\ccLzUcmd.s:20886  .debug_str:00000000000073e6 .LASF4979
C:\Users\CYMR90~1\AppData\Local\Temp\ccLzUcmd.s:25667  .debug_str:000000000001a874 .LASF4980
C:\Users\CYMR90~1\AppData\Local\Temp\ccLzUcmd.s:29475  .debug_str:0000000000029b57 .LASF4981
C:\Users\CYMR90~1\AppData\Local\Temp\ccLzUcmd.s:22152  .debug_str:000000000000c617 .LASF4982
C:\Users\CYMR90~1\AppData\Local\Temp\ccLzUcmd.s:21770  .debug_str:000000000000ac79 .LASF4983
C:\Users\CYMR90~1\AppData\Local\Temp\ccLzUcmd.s:22778  .debug_str:000000000000ee0b .LASF4984
C:\Users\CYMR90~1\AppData\Local\Temp\ccLzUcmd.s:20748  .debug_str:0000000000006ab8 .LASF4985
C:\Users\CYMR90~1\AppData\Local\Temp\ccLzUcmd.s:30277  .debug_str:000000000002cef0 .LASF4986
C:\Users\CYMR90~1\AppData\Local\Temp\ccLzUcmd.s:19660  .debug_str:000000000000257e .LASF4987
C:\Users\CYMR90~1\AppData\Local\Temp\ccLzUcmd.s:27859  .debug_str:000000000002314c .LASF4988
C:\Users\CYMR90~1\AppData\Local\Temp\ccLzUcmd.s:24710  .debug_str:00000000000167ca .LASF4989
C:\Users\CYMR90~1\AppData\Local\Temp\ccLzUcmd.s:21848  .debug_str:000000000000b235 .LASF4990
C:\Users\CYMR90~1\AppData\Local\Temp\ccLzUcmd.s:22966  .debug_str:000000000000f9f8 .LASF4991
C:\Users\CYMR90~1\AppData\Local\Temp\ccLzUcmd.s:29023  .debug_str:0000000000027d7a .LASF4992
C:\Users\CYMR90~1\AppData\Local\Temp\ccLzUcmd.s:20962  .debug_str:00000000000078b9 .LASF4993
C:\Users\CYMR90~1\AppData\Local\Temp\ccLzUcmd.s:22388  .debug_str:000000000000d68e .LASF4994
C:\Users\CYMR90~1\AppData\Local\Temp\ccLzUcmd.s:30187  .debug_str:000000000002c8e6 .LASF4995
C:\Users\CYMR90~1\AppData\Local\Temp\ccLzUcmd.s:22012  .debug_str:000000000000bd61 .LASF4996
C:\Users\CYMR90~1\AppData\Local\Temp\ccLzUcmd.s:21576  .debug_str:000000000000a075 .LASF4997
C:\Users\CYMR90~1\AppData\Local\Temp\ccLzUcmd.s:28933  .debug_str:000000000002776c .LASF4998
C:\Users\CYMR90~1\AppData\Local\Temp\ccLzUcmd.s:23426  .debug_str:000000000001151d .LASF4999
C:\Users\CYMR90~1\AppData\Local\Temp\ccLzUcmd.s:20210  .debug_str:00000000000049f4 .LASF5000
C:\Users\CYMR90~1\AppData\Local\Temp\ccLzUcmd.s:21520  .debug_str:0000000000009cde .LASF5001
C:\Users\CYMR90~1\AppData\Local\Temp\ccLzUcmd.s:25335  .debug_str:000000000001918e .LASF5002
C:\Users\CYMR90~1\AppData\Local\Temp\ccLzUcmd.s:26289  .debug_str:000000000001d186 .LASF5003
C:\Users\CYMR90~1\AppData\Local\Temp\ccLzUcmd.s:26503  .debug_str:000000000001df7d .LASF5004
C:\Users\CYMR90~1\AppData\Local\Temp\ccLzUcmd.s:22232  .debug_str:000000000000cc75 .LASF5005
C:\Users\CYMR90~1\AppData\Local\Temp\ccLzUcmd.s:24506  .debug_str:0000000000015afd .LASF5006
C:\Users\CYMR90~1\AppData\Local\Temp\ccLzUcmd.s:22620  .debug_str:000000000000e41d .LASF5007
C:\Users\CYMR90~1\AppData\Local\Temp\ccLzUcmd.s:25497  .debug_str:0000000000019c74 .LASF5008
C:\Users\CYMR90~1\AppData\Local\Temp\ccLzUcmd.s:25251  .debug_str:0000000000018af6 .LASF5009
C:\Users\CYMR90~1\AppData\Local\Temp\ccLzUcmd.s:27931  .debug_str:0000000000023606 .LASF5010
C:\Users\CYMR90~1\AppData\Local\Temp\ccLzUcmd.s:20174  .debug_str:0000000000004703 .LASF5011
C:\Users\CYMR90~1\AppData\Local\Temp\ccLzUcmd.s:19228  .debug_str:0000000000000b3e .LASF5012
C:\Users\CYMR90~1\AppData\Local\Temp\ccLzUcmd.s:23516  .debug_str:0000000000011bc2 .LASF5013
C:\Users\CYMR90~1\AppData\Local\Temp\ccLzUcmd.s:24268  .debug_str:0000000000014c56 .LASF5014
C:\Users\CYMR90~1\AppData\Local\Temp\ccLzUcmd.s:30065  .debug_str:000000000002c0c1 .LASF5015
C:\Users\CYMR90~1\AppData\Local\Temp\ccLzUcmd.s:21110  .debug_str:000000000000837c .LASF5016
C:\Users\CYMR90~1\AppData\Local\Temp\ccLzUcmd.s:21662  .debug_str:000000000000a5cb .LASF5017
C:\Users\CYMR90~1\AppData\Local\Temp\ccLzUcmd.s:25341  .debug_str:00000000000191f0 .LASF5018
C:\Users\CYMR90~1\AppData\Local\Temp\ccLzUcmd.s:22558  .debug_str:000000000000e054 .LASF5019
C:\Users\CYMR90~1\AppData\Local\Temp\ccLzUcmd.s:30113  .debug_str:000000000002c465 .LASF5020
C:\Users\CYMR90~1\AppData\Local\Temp\ccLzUcmd.s:19466  .debug_str:0000000000001a3c .LASF5021
C:\Users\CYMR90~1\AppData\Local\Temp\ccLzUcmd.s:29013  .debug_str:0000000000027ccd .LASF5022
C:\Users\CYMR90~1\AppData\Local\Temp\ccLzUcmd.s:26405  .debug_str:000000000001d908 .LASF5023
C:\Users\CYMR90~1\AppData\Local\Temp\ccLzUcmd.s:24765  .debug_str:0000000000016d3c .LASF5024
C:\Users\CYMR90~1\AppData\Local\Temp\ccLzUcmd.s:21624  .debug_str:000000000000a388 .LASF5025
C:\Users\CYMR90~1\AppData\Local\Temp\ccLzUcmd.s:20278  .debug_str:0000000000004e3b .LASF5026
C:\Users\CYMR90~1\AppData\Local\Temp\ccLzUcmd.s:23814  .debug_str:0000000000012f8c .LASF5027
C:\Users\CYMR90~1\AppData\Local\Temp\ccLzUcmd.s:25237  .debug_str:00000000000189fb .LASF5028
C:\Users\CYMR90~1\AppData\Local\Temp\ccLzUcmd.s:23914  .debug_str:0000000000013693 .LASF5029
C:\Users\CYMR90~1\AppData\Local\Temp\ccLzUcmd.s:26293  .debug_str:000000000001d1d0 .LASF5030
C:\Users\CYMR90~1\AppData\Local\Temp\ccLzUcmd.s:28615  .debug_str:0000000000026354 .LASF5031
C:\Users\CYMR90~1\AppData\Local\Temp\ccLzUcmd.s:19722  .debug_str:0000000000002995 .LASF5032
C:\Users\CYMR90~1\AppData\Local\Temp\ccLzUcmd.s:23486  .debug_str:0000000000011a15 .LASF5033
C:\Users\CYMR90~1\AppData\Local\Temp\ccLzUcmd.s:27025  .debug_str:000000000001ff77 .LASF5034
C:\Users\CYMR90~1\AppData\Local\Temp\ccLzUcmd.s:19860  .debug_str:0000000000003224 .LASF5035
C:\Users\CYMR90~1\AppData\Local\Temp\ccLzUcmd.s:26955  .debug_str:000000000001fadf .LASF5036
C:\Users\CYMR90~1\AppData\Local\Temp\ccLzUcmd.s:23900  .debug_str:00000000000135c3 .LASF5037
C:\Users\CYMR90~1\AppData\Local\Temp\ccLzUcmd.s:29351  .debug_str:0000000000029390 .LASF5038
C:\Users\CYMR90~1\AppData\Local\Temp\ccLzUcmd.s:21608  .debug_str:000000000000a260 .LASF5039
C:\Users\CYMR90~1\AppData\Local\Temp\ccLzUcmd.s:25331  .debug_str:000000000001913b .LASF5040
C:\Users\CYMR90~1\AppData\Local\Temp\ccLzUcmd.s:29599  .debug_str:000000000002a24f .LASF5041
C:\Users\CYMR90~1\AppData\Local\Temp\ccLzUcmd.s:22566  .debug_str:000000000000e0d5 .LASF5042
C:\Users\CYMR90~1\AppData\Local\Temp\ccLzUcmd.s:29593  .debug_str:000000000002a1e6 .LASF5043
C:\Users\CYMR90~1\AppData\Local\Temp\ccLzUcmd.s:19796  .debug_str:0000000000002e13 .LASF5044
C:\Users\CYMR90~1\AppData\Local\Temp\ccLzUcmd.s:25751  .debug_str:000000000001ad97 .LASF5045
C:\Users\CYMR90~1\AppData\Local\Temp\ccLzUcmd.s:22882  .debug_str:000000000000f46a .LASF5046
C:\Users\CYMR90~1\AppData\Local\Temp\ccLzUcmd.s:24078  .debug_str:00000000000140a0 .LASF5047
C:\Users\CYMR90~1\AppData\Local\Temp\ccLzUcmd.s:29241  .debug_str:0000000000028c42 .LASF5048
C:\Users\CYMR90~1\AppData\Local\Temp\ccLzUcmd.s:21336  .debug_str:0000000000009153 .LASF5049
C:\Users\CYMR90~1\AppData\Local\Temp\ccLzUcmd.s:26263  .debug_str:000000000001cf72 .LASF5050
C:\Users\CYMR90~1\AppData\Local\Temp\ccLzUcmd.s:29639  .debug_str:000000000002a4e9 .LASF5051
C:\Users\CYMR90~1\AppData\Local\Temp\ccLzUcmd.s:20168  .debug_str:000000000000468b .LASF5052
C:\Users\CYMR90~1\AppData\Local\Temp\ccLzUcmd.s:23318  .debug_str:0000000000010e55 .LASF5053
C:\Users\CYMR90~1\AppData\Local\Temp\ccLzUcmd.s:26915  .debug_str:000000000001f846 .LASF5054
C:\Users\CYMR90~1\AppData\Local\Temp\ccLzUcmd.s:26085  .debug_str:000000000001c344 .LASF5055
C:\Users\CYMR90~1\AppData\Local\Temp\ccLzUcmd.s:27049  .debug_str:00000000000200d6 .LASF5056
C:\Users\CYMR90~1\AppData\Local\Temp\ccLzUcmd.s:30247  .debug_str:000000000002cd29 .LASF5057
C:\Users\CYMR90~1\AppData\Local\Temp\ccLzUcmd.s:19914  .debug_str:00000000000035b8 .LASF5058
C:\Users\CYMR90~1\AppData\Local\Temp\ccLzUcmd.s:26667  .debug_str:000000000001e954 .LASF5059
C:\Users\CYMR90~1\AppData\Local\Temp\ccLzUcmd.s:27421  .debug_str:00000000000217c0 .LASF5060
C:\Users\CYMR90~1\AppData\Local\Temp\ccLzUcmd.s:19490  .debug_str:0000000000001ba1 .LASF5061
C:\Users\CYMR90~1\AppData\Local\Temp\ccLzUcmd.s:23724  .debug_str:00000000000129a5 .LASF5062
C:\Users\CYMR90~1\AppData\Local\Temp\ccLzUcmd.s:25039  .debug_str:0000000000017de3 .LASF5063
C:\Users\CYMR90~1\AppData\Local\Temp\ccLzUcmd.s:23232  .debug_str:0000000000010933 .LASF5064
C:\Users\CYMR90~1\AppData\Local\Temp\ccLzUcmd.s:25145  .debug_str:000000000001843b .LASF5065
C:\Users\CYMR90~1\AppData\Local\Temp\ccLzUcmd.s:25709  .debug_str:000000000001ab2a .LASF5066
C:\Users\CYMR90~1\AppData\Local\Temp\ccLzUcmd.s:27055  .debug_str:0000000000020137 .LASF5067
C:\Users\CYMR90~1\AppData\Local\Temp\ccLzUcmd.s:30279  .debug_str:000000000002cf0e .LASF5068
C:\Users\CYMR90~1\AppData\Local\Temp\ccLzUcmd.s:24190  .debug_str:0000000000014790 .LASF5069
C:\Users\CYMR90~1\AppData\Local\Temp\ccLzUcmd.s:25567  .debug_str:000000000001a090 .LASF5070
C:\Users\CYMR90~1\AppData\Local\Temp\ccLzUcmd.s:20376  .debug_str:000000000000541a .LASF5071
C:\Users\CYMR90~1\AppData\Local\Temp\ccLzUcmd.s:28137  .debug_str:0000000000024388 .LASF5072
C:\Users\CYMR90~1\AppData\Local\Temp\ccLzUcmd.s:29017  .debug_str:0000000000027d0c .LASF5073
C:\Users\CYMR90~1\AppData\Local\Temp\ccLzUcmd.s:20984  .debug_str:0000000000007a12 .LASF5074
C:\Users\CYMR90~1\AppData\Local\Temp\ccLzUcmd.s:30073  .debug_str:000000000002c168 .LASF5075
C:\Users\CYMR90~1\AppData\Local\Temp\ccLzUcmd.s:22730  .debug_str:000000000000eb8f .LASF5076
C:\Users\CYMR90~1\AppData\Local\Temp\ccLzUcmd.s:24955  .debug_str:00000000000178f8 .LASF5077
C:\Users\CYMR90~1\AppData\Local\Temp\ccLzUcmd.s:21090  .debug_str:0000000000008240 .LASF5078
C:\Users\CYMR90~1\AppData\Local\Temp\ccLzUcmd.s:20678  .debug_str:000000000000662b .LASF5079
C:\Users\CYMR90~1\AppData\Local\Temp\ccLzUcmd.s:20282  .debug_str:0000000000004e7c .LASF5080
C:\Users\CYMR90~1\AppData\Local\Temp\ccLzUcmd.s:28831  .debug_str:000000000002715d .LASF5081
C:\Users\CYMR90~1\AppData\Local\Temp\ccLzUcmd.s:25085  .debug_str:0000000000018092 .LASF5082
C:\Users\CYMR90~1\AppData\Local\Temp\ccLzUcmd.s:23664  .debug_str:000000000001257c .LASF5083
C:\Users\CYMR90~1\AppData\Local\Temp\ccLzUcmd.s:22180  .debug_str:000000000000c83a .LASF5084
C:\Users\CYMR90~1\AppData\Local\Temp\ccLzUcmd.s:26649  .debug_str:000000000001e82a .LASF5085
C:\Users\CYMR90~1\AppData\Local\Temp\ccLzUcmd.s:21334  .debug_str:0000000000009122 .LASF5086
C:\Users\CYMR90~1\AppData\Local\Temp\ccLzUcmd.s:29801  .debug_str:000000000002ae9e .LASF5087
C:\Users\CYMR90~1\AppData\Local\Temp\ccLzUcmd.s:26639  .debug_str:000000000001e74e .LASF5088
C:\Users\CYMR90~1\AppData\Local\Temp\ccLzUcmd.s:21184  .debug_str:00000000000087da .LASF5089
C:\Users\CYMR90~1\AppData\Local\Temp\ccLzUcmd.s:28925  .debug_str:00000000000276e2 .LASF5090
C:\Users\CYMR90~1\AppData\Local\Temp\ccLzUcmd.s:30285  .debug_str:000000000002cf68 .LASF5091
C:\Users\CYMR90~1\AppData\Local\Temp\ccLzUcmd.s:26965  .debug_str:000000000001fb76 .LASF5092
C:\Users\CYMR90~1\AppData\Local\Temp\ccLzUcmd.s:29209  .debug_str:0000000000028a6c .LASF5093
C:\Users\CYMR90~1\AppData\Local\Temp\ccLzUcmd.s:19776  .debug_str:0000000000002ccd .LASF5094
C:\Users\CYMR90~1\AppData\Local\Temp\ccLzUcmd.s:20600  .debug_str:000000000000618d .LASF5095
C:\Users\CYMR90~1\AppData\Local\Temp\ccLzUcmd.s:25587  .debug_str:000000000001a1a7 .LASF5096
C:\Users\CYMR90~1\AppData\Local\Temp\ccLzUcmd.s:24276  .debug_str:0000000000014d10 .LASF5097
C:\Users\CYMR90~1\AppData\Local\Temp\ccLzUcmd.s:23024  .debug_str:000000000000fcb6 .LASF5098
C:\Users\CYMR90~1\AppData\Local\Temp\ccLzUcmd.s:29657  .debug_str:000000000002a613 .LASF5099
C:\Users\CYMR90~1\AppData\Local\Temp\ccLzUcmd.s:26025  .debug_str:000000000001bf9c .LASF5100
C:\Users\CYMR90~1\AppData\Local\Temp\ccLzUcmd.s:27487  .debug_str:0000000000021bbf .LASF5101
C:\Users\CYMR90~1\AppData\Local\Temp\ccLzUcmd.s:25789  .debug_str:000000000001b055 .LASF5102
C:\Users\CYMR90~1\AppData\Local\Temp\ccLzUcmd.s:24736  .debug_str:00000000000169c9 .LASF5103
C:\Users\CYMR90~1\AppData\Local\Temp\ccLzUcmd.s:23714  .debug_str:00000000000128f8 .LASF5104
C:\Users\CYMR90~1\AppData\Local\Temp\ccLzUcmd.s:22438  .debug_str:000000000000d924 .LASF5105
C:\Users\CYMR90~1\AppData\Local\Temp\ccLzUcmd.s:19706  .debug_str:000000000000288b .LASF5106
C:\Users\CYMR90~1\AppData\Local\Temp\ccLzUcmd.s:26695  .debug_str:000000000001eaf7 .LASF5107
C:\Users\CYMR90~1\AppData\Local\Temp\ccLzUcmd.s:24298  .debug_str:0000000000014ea5 .LASF5108
C:\Users\CYMR90~1\AppData\Local\Temp\ccLzUcmd.s:19046  .debug_str:0000000000000000 .LASF5109
C:\Users\CYMR90~1\AppData\Local\Temp\ccLzUcmd.s:19500  .debug_str:0000000000001c46 .LASF5110
C:\Users\CYMR90~1\AppData\Local\Temp\ccLzUcmd.s:29353  .debug_str:00000000000293bd .LASF5111
C:\Users\CYMR90~1\AppData\Local\Temp\ccLzUcmd.s:28217  .debug_str:00000000000248f9 .LASF5112
C:\Users\CYMR90~1\AppData\Local\Temp\ccLzUcmd.s:26713  .debug_str:000000000001ebec .LASF5113
C:\Users\CYMR90~1\AppData\Local\Temp\ccLzUcmd.s:20382  .debug_str:0000000000005479 .LASF5114
C:\Users\CYMR90~1\AppData\Local\Temp\ccLzUcmd.s:24734  .debug_str:00000000000169a3 .LASF5115
C:\Users\CYMR90~1\AppData\Local\Temp\ccLzUcmd.s:27001  .debug_str:000000000001fdab .LASF5116
C:\Users\CYMR90~1\AppData\Local\Temp\ccLzUcmd.s:25673  .debug_str:000000000001a8dd .LASF5117
C:\Users\CYMR90~1\AppData\Local\Temp\ccLzUcmd.s:30271  .debug_str:000000000002ce7d .LASF5118
C:\Users\CYMR90~1\AppData\Local\Temp\ccLzUcmd.s:24861  .debug_str:00000000000172ff .LASF5119
C:\Users\CYMR90~1\AppData\Local\Temp\ccLzUcmd.s:20568  .debug_str:0000000000005f75 .LASF5120
C:\Users\CYMR90~1\AppData\Local\Temp\ccLzUcmd.s:22840  .debug_str:000000000000f1d3 .LASF5121
C:\Users\CYMR90~1\AppData\Local\Temp\ccLzUcmd.s:23556  .debug_str:0000000000011e9d .LASF5122
C:\Users\CYMR90~1\AppData\Local\Temp\ccLzUcmd.s:25199  .debug_str:0000000000018775 .LASF5123
C:\Users\CYMR90~1\AppData\Local\Temp\ccLzUcmd.s:27499  .debug_str:0000000000021c66 .LASF5124
C:\Users\CYMR90~1\AppData\Local\Temp\ccLzUcmd.s:22588  .debug_str:000000000000e239 .LASF5125
C:\Users\CYMR90~1\AppData\Local\Temp\ccLzUcmd.s:29169  .debug_str:00000000000287fe .LASF5126
C:\Users\CYMR90~1\AppData\Local\Temp\ccLzUcmd.s:28617  .debug_str:000000000002637e .LASF5127
C:\Users\CYMR90~1\AppData\Local\Temp\ccLzUcmd.s:23364  .debug_str:0000000000011134 .LASF5128
C:\Users\CYMR90~1\AppData\Local\Temp\ccLzUcmd.s:22270  .debug_str:000000000000ce6a .LASF5129
C:\Users\CYMR90~1\AppData\Local\Temp\ccLzUcmd.s:27161  .debug_str:0000000000020775 .LASF5130
C:\Users\CYMR90~1\AppData\Local\Temp\ccLzUcmd.s:22918  .debug_str:000000000000f716 .LASF5131
C:\Users\CYMR90~1\AppData\Local\Temp\ccLzUcmd.s:20012  .debug_str:0000000000003bf7 .LASF5132
C:\Users\CYMR90~1\AppData\Local\Temp\ccLzUcmd.s:28593  .debug_str:00000000000261f4 .LASF5133
C:\Users\CYMR90~1\AppData\Local\Temp\ccLzUcmd.s:23826  .debug_str:0000000000013069 .LASF5134
C:\Users\CYMR90~1\AppData\Local\Temp\ccLzUcmd.s:22044  .debug_str:000000000000bf72 .LASF5135
C:\Users\CYMR90~1\AppData\Local\Temp\ccLzUcmd.s:19960  .debug_str:00000000000038c5 .LASF5136
C:\Users\CYMR90~1\AppData\Local\Temp\ccLzUcmd.s:20876  .debug_str:000000000000734b .LASF5137
C:\Users\CYMR90~1\AppData\Local\Temp\ccLzUcmd.s:22922  .debug_str:000000000000f765 .LASF5138
C:\Users\CYMR90~1\AppData\Local\Temp\ccLzUcmd.s:20444  .debug_str:0000000000005822 .LASF5139
C:\Users\CYMR90~1\AppData\Local\Temp\ccLzUcmd.s:29049  .debug_str:0000000000027f62 .LASF5140
C:\Users\CYMR90~1\AppData\Local\Temp\ccLzUcmd.s:23612  .debug_str:0000000000012236 .LASF5141
C:\Users\CYMR90~1\AppData\Local\Temp\ccLzUcmd.s:19790  .debug_str:0000000000002db7 .LASF5142
C:\Users\CYMR90~1\AppData\Local\Temp\ccLzUcmd.s:28457  .debug_str:00000000000259d1 .LASF5143
C:\Users\CYMR90~1\AppData\Local\Temp\ccLzUcmd.s:28845  .debug_str:000000000002724d .LASF5144
C:\Users\CYMR90~1\AppData\Local\Temp\ccLzUcmd.s:23380  .debug_str:0000000000011214 .LASF5145
C:\Users\CYMR90~1\AppData\Local\Temp\ccLzUcmd.s:24568  .debug_str:0000000000015f55 .LASF5146
C:\Users\CYMR90~1\AppData\Local\Temp\ccLzUcmd.s:27863  .debug_str:0000000000023185 .LASF5147
C:\Users\CYMR90~1\AppData\Local\Temp\ccLzUcmd.s:26631  .debug_str:000000000001e6ca .LASF5148
C:\Users\CYMR90~1\AppData\Local\Temp\ccLzUcmd.s:27517  .debug_str:0000000000021dab .LASF5149
C:\Users\CYMR90~1\AppData\Local\Temp\ccLzUcmd.s:30291  .debug_str:000000000002cfc4 .LASF5150
C:\Users\CYMR90~1\AppData\Local\Temp\ccLzUcmd.s:27695  .debug_str:00000000000227b5 .LASF5151
C:\Users\CYMR90~1\AppData\Local\Temp\ccLzUcmd.s:19432  .debug_str:000000000000181b .LASF5152
C:\Users\CYMR90~1\AppData\Local\Temp\ccLzUcmd.s:20968  .debug_str:0000000000007906 .LASF5153
C:\Users\CYMR90~1\AppData\Local\Temp\ccLzUcmd.s:20316  .debug_str:0000000000005075 .LASF5154
C:\Users\CYMR90~1\AppData\Local\Temp\ccLzUcmd.s:27725  .debug_str:0000000000022967 .LASF5155
C:\Users\CYMR90~1\AppData\Local\Temp\ccLzUcmd.s:23674  .debug_str:000000000001261f .LASF5156
C:\Users\CYMR90~1\AppData\Local\Temp\ccLzUcmd.s:28191  .debug_str:00000000000246fd .LASF5157
C:\Users\CYMR90~1\AppData\Local\Temp\ccLzUcmd.s:29491  .debug_str:0000000000029c4d .LASF5158
C:\Users\CYMR90~1\AppData\Local\Temp\ccLzUcmd.s:26265  .debug_str:000000000001cfa1 .LASF5159
C:\Users\CYMR90~1\AppData\Local\Temp\ccLzUcmd.s:28423  .debug_str:00000000000257ba .LASF5160
C:\Users\CYMR90~1\AppData\Local\Temp\ccLzUcmd.s:28471  .debug_str:0000000000025aaa .LASF5161
C:\Users\CYMR90~1\AppData\Local\Temp\ccLzUcmd.s:24100  .debug_str:00000000000141fc .LASF5162
C:\Users\CYMR90~1\AppData\Local\Temp\ccLzUcmd.s:23020  .debug_str:000000000000fc70 .LASF5163
C:\Users\CYMR90~1\AppData\Local\Temp\ccLzUcmd.s:23200  .debug_str:0000000000010718 .LASF5164
C:\Users\CYMR90~1\AppData\Local\Temp\ccLzUcmd.s:28307  .debug_str:0000000000024e97 .LASF5165
C:\Users\CYMR90~1\AppData\Local\Temp\ccLzUcmd.s:21720  .debug_str:000000000000a968 .LASF5166
C:\Users\CYMR90~1\AppData\Local\Temp\ccLzUcmd.s:23234  .debug_str:0000000000010952 .LASF5167
C:\Users\CYMR90~1\AppData\Local\Temp\ccLzUcmd.s:29747  .debug_str:000000000002ab76 .LASF5168
C:\Users\CYMR90~1\AppData\Local\Temp\ccLzUcmd.s:21256  .debug_str:0000000000008c59 .LASF5169
C:\Users\CYMR90~1\AppData\Local\Temp\ccLzUcmd.s:21832  .debug_str:000000000000b14c .LASF5170
C:\Users\CYMR90~1\AppData\Local\Temp\ccLzUcmd.s:28479  .debug_str:0000000000025b1b .LASF5171
C:\Users\CYMR90~1\AppData\Local\Temp\ccLzUcmd.s:19324  .debug_str:000000000000115b .LASF5172
C:\Users\CYMR90~1\AppData\Local\Temp\ccLzUcmd.s:24644  .debug_str:00000000000163fa .LASF5173
C:\Users\CYMR90~1\AppData\Local\Temp\ccLzUcmd.s:26709  .debug_str:000000000001ebb6 .LASF5174
C:\Users\CYMR90~1\AppData\Local\Temp\ccLzUcmd.s:28975  .debug_str:0000000000027a73 .LASF5175
C:\Users\CYMR90~1\AppData\Local\Temp\ccLzUcmd.s:22680  .debug_str:000000000000e822 .LASF5176
C:\Users\CYMR90~1\AppData\Local\Temp\ccLzUcmd.s:29003  .debug_str:0000000000027c36 .LASF5177
C:\Users\CYMR90~1\AppData\Local\Temp\ccLzUcmd.s:26653  .debug_str:000000000001e87e .LASF5178
C:\Users\CYMR90~1\AppData\Local\Temp\ccLzUcmd.s:23428  .debug_str:0000000000011541 .LASF5179
C:\Users\CYMR90~1\AppData\Local\Temp\ccLzUcmd.s:26953  .debug_str:000000000001faae .LASF5180
C:\Users\CYMR90~1\AppData\Local\Temp\ccLzUcmd.s:20298  .debug_str:0000000000004f7d .LASF5181
C:\Users\CYMR90~1\AppData\Local\Temp\ccLzUcmd.s:23968  .debug_str:00000000000139b0 .LASF5182
C:\Users\CYMR90~1\AppData\Local\Temp\ccLzUcmd.s:26995  .debug_str:000000000001fd27 .LASF5183
C:\Users\CYMR90~1\AppData\Local\Temp\ccLzUcmd.s:22542  .debug_str:000000000000df5e .LASF5184
C:\Users\CYMR90~1\AppData\Local\Temp\ccLzUcmd.s:26223  .debug_str:000000000001cc4c .LASF5185
C:\Users\CYMR90~1\AppData\Local\Temp\ccLzUcmd.s:22660  .debug_str:000000000000e6dc .LASF5186
C:\Users\CYMR90~1\AppData\Local\Temp\ccLzUcmd.s:29385  .debug_str:00000000000295e9 .LASF5187
C:\Users\CYMR90~1\AppData\Local\Temp\ccLzUcmd.s:26741  .debug_str:000000000001ed9a .LASF5188
C:\Users\CYMR90~1\AppData\Local\Temp\ccLzUcmd.s:22690  .debug_str:000000000000e896 .LASF5189
C:\Users\CYMR90~1\AppData\Local\Temp\ccLzUcmd.s:19406  .debug_str:00000000000015da .LASF5190
C:\Users\CYMR90~1\AppData\Local\Temp\ccLzUcmd.s:25833  .debug_str:000000000001b362 .LASF5191
C:\Users\CYMR90~1\AppData\Local\Temp\ccLzUcmd.s:28797  .debug_str:0000000000026e8d .LASF5192
C:\Users\CYMR90~1\AppData\Local\Temp\ccLzUcmd.s:25719  .debug_str:000000000001aba7 .LASF5193
C:\Users\CYMR90~1\AppData\Local\Temp\ccLzUcmd.s:26703  .debug_str:000000000001eb6f .LASF5194
C:\Users\CYMR90~1\AppData\Local\Temp\ccLzUcmd.s:19252  .debug_str:0000000000000ca0 .LASF5195
C:\Users\CYMR90~1\AppData\Local\Temp\ccLzUcmd.s:27285  .debug_str:0000000000020f0f .LASF5196
C:\Users\CYMR90~1\AppData\Local\Temp\ccLzUcmd.s:22184  .debug_str:000000000000c8ae .LASF5197
C:\Users\CYMR90~1\AppData\Local\Temp\ccLzUcmd.s:24512  .debug_str:0000000000015b67 .LASF5198
C:\Users\CYMR90~1\AppData\Local\Temp\ccLzUcmd.s:22944  .debug_str:000000000000f8b1 .LASF5199
C:\Users\CYMR90~1\AppData\Local\Temp\ccLzUcmd.s:25141  .debug_str:000000000001840b .LASF5200
C:\Users\CYMR90~1\AppData\Local\Temp\ccLzUcmd.s:29647  .debug_str:000000000002a56c .LASF5201
C:\Users\CYMR90~1\AppData\Local\Temp\ccLzUcmd.s:23896  .debug_str:0000000000013586 .LASF5202
C:\Users\CYMR90~1\AppData\Local\Temp\ccLzUcmd.s:26883  .debug_str:000000000001f695 .LASF5203
C:\Users\CYMR90~1\AppData\Local\Temp\ccLzUcmd.s:20944  .debug_str:0000000000007794 .LASF5204
C:\Users\CYMR90~1\AppData\Local\Temp\ccLzUcmd.s:28343  .debug_str:00000000000251e1 .LASF5205
C:\Users\CYMR90~1\AppData\Local\Temp\ccLzUcmd.s:20814  .debug_str:0000000000006ed9 .LASF5206
C:\Users\CYMR90~1\AppData\Local\Temp\ccLzUcmd.s:28881  .debug_str:0000000000027454 .LASF5207
C:\Users\CYMR90~1\AppData\Local\Temp\ccLzUcmd.s:19100  .debug_str:0000000000000376 .LASF5208
C:\Users\CYMR90~1\AppData\Local\Temp\ccLzUcmd.s:27611  .debug_str:000000000002231a .LASF5209
C:\Users\CYMR90~1\AppData\Local\Temp\ccLzUcmd.s:24426  .debug_str:000000000001563c .LASF5210
C:\Users\CYMR90~1\AppData\Local\Temp\ccLzUcmd.s:21262  .debug_str:0000000000008ca0 .LASF5211
C:\Users\CYMR90~1\AppData\Local\Temp\ccLzUcmd.s:19868  .debug_str:00000000000032ae .LASF5212
C:\Users\CYMR90~1\AppData\Local\Temp\ccLzUcmd.s:30061  .debug_str:000000000002c091 .LASF5213
C:\Users\CYMR90~1\AppData\Local\Temp\ccLzUcmd.s:21440  .debug_str:0000000000009799 .LASF5214
C:\Users\CYMR90~1\AppData\Local\Temp\ccLzUcmd.s:21266  .debug_str:0000000000008cc7 .LASF5215
C:\Users\CYMR90~1\AppData\Local\Temp\ccLzUcmd.s:29557  .debug_str:000000000002a000 .LASF5216
C:\Users\CYMR90~1\AppData\Local\Temp\ccLzUcmd.s:22780  .debug_str:000000000000ee2e .LASF5217
C:\Users\CYMR90~1\AppData\Local\Temp\ccLzUcmd.s:29253  .debug_str:0000000000028d31 .LASF5218
C:\Users\CYMR90~1\AppData\Local\Temp\ccLzUcmd.s:21380  .debug_str:00000000000093ed .LASF5219
C:\Users\CYMR90~1\AppData\Local\Temp\ccLzUcmd.s:20780  .debug_str:0000000000006cc8 .LASF5220
C:\Users\CYMR90~1\AppData\Local\Temp\ccLzUcmd.s:28539  .debug_str:0000000000025ee2 .LASF5221
C:\Users\CYMR90~1\AppData\Local\Temp\ccLzUcmd.s:22926  .debug_str:000000000000f7bb .LASF5222
C:\Users\CYMR90~1\AppData\Local\Temp\ccLzUcmd.s:29705  .debug_str:000000000002a8d6 .LASF5223
C:\Users\CYMR90~1\AppData\Local\Temp\ccLzUcmd.s:25675  .debug_str:000000000001a904 .LASF5224
C:\Users\CYMR90~1\AppData\Local\Temp\ccLzUcmd.s:28301  .debug_str:0000000000024e4c .LASF5225
C:\Users\CYMR90~1\AppData\Local\Temp\ccLzUcmd.s:22866  .debug_str:000000000000f386 .LASF5226
C:\Users\CYMR90~1\AppData\Local\Temp\ccLzUcmd.s:19156  .debug_str:0000000000000684 .LASF5227
C:\Users\CYMR90~1\AppData\Local\Temp\ccLzUcmd.s:19102  .debug_str:0000000000000391 .LASF5228
C:\Users\CYMR90~1\AppData\Local\Temp\ccLzUcmd.s:19458  .debug_str:00000000000019c5 .LASF5229
C:\Users\CYMR90~1\AppData\Local\Temp\ccLzUcmd.s:27945  .debug_str:000000000002370c .LASF5230
C:\Users\CYMR90~1\AppData\Local\Temp\ccLzUcmd.s:28589  .debug_str:00000000000261b3 .LASF5231
C:\Users\CYMR90~1\AppData\Local\Temp\ccLzUcmd.s:23776  .debug_str:0000000000012ce0 .LASF5232
C:\Users\CYMR90~1\AppData\Local\Temp\ccLzUcmd.s:25713  .debug_str:000000000001ab68 .LASF5233
C:\Users\CYMR90~1\AppData\Local\Temp\ccLzUcmd.s:19746  .debug_str:0000000000002b00 .LASF5234
C:\Users\CYMR90~1\AppData\Local\Temp\ccLzUcmd.s:24518  .debug_str:0000000000015c00 .LASF5235
C:\Users\CYMR90~1\AppData\Local\Temp\ccLzUcmd.s:27079  .debug_str:000000000002025f .LASF5236
C:\Users\CYMR90~1\AppData\Local\Temp\ccLzUcmd.s:26407  .debug_str:000000000001d932 .LASF5237
C:\Users\CYMR90~1\AppData\Local\Temp\ccLzUcmd.s:21170  .debug_str:0000000000008711 .LASF5238
C:\Users\CYMR90~1\AppData\Local\Temp\ccLzUcmd.s:27751  .debug_str:0000000000022b6a .LASF5239
C:\Users\CYMR90~1\AppData\Local\Temp\ccLzUcmd.s:27061  .debug_str:0000000000020183 .LASF5240
C:\Users\CYMR90~1\AppData\Local\Temp\ccLzUcmd.s:21182  .debug_str:00000000000087c3 .LASF5241
C:\Users\CYMR90~1\AppData\Local\Temp\ccLzUcmd.s:20624  .debug_str:0000000000006304 .LASF5242
C:\Users\CYMR90~1\AppData\Local\Temp\ccLzUcmd.s:27707  .debug_str:0000000000022884 .LASF5243
C:\Users\CYMR90~1\AppData\Local\Temp\ccLzUcmd.s:29441  .debug_str:000000000002994c .LASF5244
C:\Users\CYMR90~1\AppData\Local\Temp\ccLzUcmd.s:25319  .debug_str:0000000000018fc5 .LASF5245
C:\Users\CYMR90~1\AppData\Local\Temp\ccLzUcmd.s:22082  .debug_str:000000000000c1f9 .LASF5246
C:\Users\CYMR90~1\AppData\Local\Temp\ccLzUcmd.s:26783  .debug_str:000000000001f04f .LASF5247
C:\Users\CYMR90~1\AppData\Local\Temp\ccLzUcmd.s:21900  .debug_str:000000000000b5bc .LASF5248
C:\Users\CYMR90~1\AppData\Local\Temp\ccLzUcmd.s:27167  .debug_str:000000000002080b .LASF5249
C:\Users\CYMR90~1\AppData\Local\Temp\ccLzUcmd.s:23974  .debug_str:0000000000013a1c .LASF5250
C:\Users\CYMR90~1\AppData\Local\Temp\ccLzUcmd.s:29387  .debug_str:000000000002961b .LASF5251
C:\Users\CYMR90~1\AppData\Local\Temp\ccLzUcmd.s:23118  .debug_str:000000000001023f .LASF5252
C:\Users\CYMR90~1\AppData\Local\Temp\ccLzUcmd.s:22340  .debug_str:000000000000d32e .LASF5253
C:\Users\CYMR90~1\AppData\Local\Temp\ccLzUcmd.s:26793  .debug_str:000000000001f108 .LASF5254
C:\Users\CYMR90~1\AppData\Local\Temp\ccLzUcmd.s:29977  .debug_str:000000000002ba87 .LASF5255
C:\Users\CYMR90~1\AppData\Local\Temp\ccLzUcmd.s:27731  .debug_str:0000000000022a53 .LASF5256
C:\Users\CYMR90~1\AppData\Local\Temp\ccLzUcmd.s:27875  .debug_str:0000000000023253 .LASF5257
C:\Users\CYMR90~1\AppData\Local\Temp\ccLzUcmd.s:21876  .debug_str:000000000000b3a1 .LASF5258
C:\Users\CYMR90~1\AppData\Local\Temp\ccLzUcmd.s:28001  .debug_str:0000000000023a25 .LASF5259
C:\Users\CYMR90~1\AppData\Local\Temp\ccLzUcmd.s:27615  .debug_str:000000000002234b .LASF5260
C:\Users\CYMR90~1\AppData\Local\Temp\ccLzUcmd.s:25555  .debug_str:0000000000019fee .LASF5261
C:\Users\CYMR90~1\AppData\Local\Temp\ccLzUcmd.s:25099  .debug_str:0000000000018189 .LASF5262
C:\Users\CYMR90~1\AppData\Local\Temp\ccLzUcmd.s:27489  .debug_str:0000000000021be5 .LASF5263
C:\Users\CYMR90~1\AppData\Local\Temp\ccLzUcmd.s:28293  .debug_str:0000000000024dfb .LASF5264
C:\Users\CYMR90~1\AppData\Local\Temp\ccLzUcmd.s:21016  .debug_str:0000000000007c3d .LASF5265
C:\Users\CYMR90~1\AppData\Local\Temp\ccLzUcmd.s:20452  .debug_str:00000000000058b8 .LASF5266
C:\Users\CYMR90~1\AppData\Local\Temp\ccLzUcmd.s:20758  .debug_str:0000000000006b4b .LASF5267
C:\Users\CYMR90~1\AppData\Local\Temp\ccLzUcmd.s:22226  .debug_str:000000000000cc1f .LASF5268
C:\Users\CYMR90~1\AppData\Local\Temp\ccLzUcmd.s:23578  .debug_str:0000000000012020 .LASF5269
C:\Users\CYMR90~1\AppData\Local\Temp\ccLzUcmd.s:21972  .debug_str:000000000000ba68 .LASF5270
C:\Users\CYMR90~1\AppData\Local\Temp\ccLzUcmd.s:28993  .debug_str:0000000000027bb0 .LASF5271
C:\Users\CYMR90~1\AppData\Local\Temp\ccLzUcmd.s:28573  .debug_str:00000000000260d9 .LASF5272
C:\Users\CYMR90~1\AppData\Local\Temp\ccLzUcmd.s:24330  .debug_str:00000000000150c7 .LASF5273
C:\Users\CYMR90~1\AppData\Local\Temp\ccLzUcmd.s:26949  .debug_str:000000000001fa86 .LASF5274
C:\Users\CYMR90~1\AppData\Local\Temp\ccLzUcmd.s:23886  .debug_str:00000000000134e4 .LASF5275
C:\Users\CYMR90~1\AppData\Local\Temp\ccLzUcmd.s:30129  .debug_str:000000000002c551 .LASF5276
C:\Users\CYMR90~1\AppData\Local\Temp\ccLzUcmd.s:26451  .debug_str:000000000001dba1 .LASF5277
C:\Users\CYMR90~1\AppData\Local\Temp\ccLzUcmd.s:26249  .debug_str:000000000001ceaf .LASF5278
C:\Users\CYMR90~1\AppData\Local\Temp\ccLzUcmd.s:27333  .debug_str:00000000000211c5 .LASF5279
C:\Users\CYMR90~1\AppData\Local\Temp\ccLzUcmd.s:22300  .debug_str:000000000000d06a .LASF5280
C:\Users\CYMR90~1\AppData\Local\Temp\ccLzUcmd.s:29381  .debug_str:00000000000295ad .LASF5281
C:\Users\CYMR90~1\AppData\Local\Temp\ccLzUcmd.s:24979  .debug_str:0000000000017a7e .LASF5282
C:\Users\CYMR90~1\AppData\Local\Temp\ccLzUcmd.s:24132  .debug_str:00000000000143be .LASF5283
C:\Users\CYMR90~1\AppData\Local\Temp\ccLzUcmd.s:19814  .debug_str:0000000000002f28 .LASF5284
C:\Users\CYMR90~1\AppData\Local\Temp\ccLzUcmd.s:24338  .debug_str:000000000001513d .LASF5285
C:\Users\CYMR90~1\AppData\Local\Temp\ccLzUcmd.s:22366  .debug_str:000000000000d53a .LASF5286
C:\Users\CYMR90~1\AppData\Local\Temp\ccLzUcmd.s:24002  .debug_str:0000000000013be5 .LASF5287
C:\Users\CYMR90~1\AppData\Local\Temp\ccLzUcmd.s:26285  .debug_str:000000000001d14f .LASF5288
C:\Users\CYMR90~1\AppData\Local\Temp\ccLzUcmd.s:21558  .debug_str:0000000000009f55 .LASF5289
C:\Users\CYMR90~1\AppData\Local\Temp\ccLzUcmd.s:28321  .debug_str:0000000000024ff2 .LASF5290
C:\Users\CYMR90~1\AppData\Local\Temp\ccLzUcmd.s:26313  .debug_str:000000000001d31a .LASF5291
C:\Users\CYMR90~1\AppData\Local\Temp\ccLzUcmd.s:30207  .debug_str:000000000002ca54 .LASF5292
C:\Users\CYMR90~1\AppData\Local\Temp\ccLzUcmd.s:24522  .debug_str:0000000000015c26 .LASF5293
C:\Users\CYMR90~1\AppData\Local\Temp\ccLzUcmd.s:21590  .debug_str:000000000000a140 .LASF5294
C:\Users\CYMR90~1\AppData\Local\Temp\ccLzUcmd.s:22400  .debug_str:000000000000d71d .LASF5295
C:\Users\CYMR90~1\AppData\Local\Temp\ccLzUcmd.s:27069  .debug_str:00000000000201db .LASF5296
C:\Users\CYMR90~1\AppData\Local\Temp\ccLzUcmd.s:28417  .debug_str:0000000000025749 .LASF5297
C:\Users\CYMR90~1\AppData\Local\Temp\ccLzUcmd.s:19144  .debug_str:00000000000005bf .LASF5298
C:\Users\CYMR90~1\AppData\Local\Temp\ccLzUcmd.s:21620  .debug_str:000000000000a325 .LASF5299
C:\Users\CYMR90~1\AppData\Local\Temp\ccLzUcmd.s:25767  .debug_str:000000000001aed3 .LASF5300
C:\Users\CYMR90~1\AppData\Local\Temp\ccLzUcmd.s:28941  .debug_str:0000000000027803 .LASF5301
C:\Users\CYMR90~1\AppData\Local\Temp\ccLzUcmd.s:25259  .debug_str:0000000000018b73 .LASF5302
C:\Users\CYMR90~1\AppData\Local\Temp\ccLzUcmd.s:22170  .debug_str:000000000000c75b .LASF5303
C:\Users\CYMR90~1\AppData\Local\Temp\ccLzUcmd.s:22304  .debug_str:000000000000d097 .LASF5304
C:\Users\CYMR90~1\AppData\Local\Temp\ccLzUcmd.s:23384  .debug_str:0000000000011258 .LASF5305
C:\Users\CYMR90~1\AppData\Local\Temp\ccLzUcmd.s:26445  .debug_str:000000000001db40 .LASF5306
C:\Users\CYMR90~1\AppData\Local\Temp\ccLzUcmd.s:21350  .debug_str:000000000000923a .LASF5307
C:\Users\CYMR90~1\AppData\Local\Temp\ccLzUcmd.s:21414  .debug_str:0000000000009631 .LASF5308
C:\Users\CYMR90~1\AppData\Local\Temp\ccLzUcmd.s:26337  .debug_str:000000000001d487 .LASF5309
C:\Users\CYMR90~1\AppData\Local\Temp\ccLzUcmd.s:24911  .debug_str:00000000000175e9 .LASF5310
C:\Users\CYMR90~1\AppData\Local\Temp\ccLzUcmd.s:20260  .debug_str:0000000000004d1c .LASF5311
C:\Users\CYMR90~1\AppData\Local\Temp\ccLzUcmd.s:19054  .debug_str:00000000000000a6 .LASF5312
C:\Users\CYMR90~1\AppData\Local\Temp\ccLzUcmd.s:27035  .debug_str:0000000000020005 .LASF5313
C:\Users\CYMR90~1\AppData\Local\Temp\ccLzUcmd.s:30249  .debug_str:000000000002cd52 .LASF5314
C:\Users\CYMR90~1\AppData\Local\Temp\ccLzUcmd.s:26475  .debug_str:000000000001dd8b .LASF5315
C:\Users\CYMR90~1\AppData\Local\Temp\ccLzUcmd.s:20504  .debug_str:0000000000005bd7 .LASF5316
C:\Users\CYMR90~1\AppData\Local\Temp\ccLzUcmd.s:19686  .debug_str:000000000000270a .LASF5317
C:\Users\CYMR90~1\AppData\Local\Temp\ccLzUcmd.s:23966  .debug_str:0000000000013997 .LASF5318
C:\Users\CYMR90~1\AppData\Local\Temp\ccLzUcmd.s:29119  .debug_str:0000000000028496 .LASF5319
C:\Users\CYMR90~1\AppData\Local\Temp\ccLzUcmd.s:19146  .debug_str:00000000000005d9 .LASF5320
C:\Users\CYMR90~1\AppData\Local\Temp\ccLzUcmd.s:23606  .debug_str:00000000000121b8 .LASF5321
C:\Users\CYMR90~1\AppData\Local\Temp\ccLzUcmd.s:24028  .debug_str:0000000000013d5c .LASF5322
C:\Users\CYMR90~1\AppData\Local\Temp\ccLzUcmd.s:23576  .debug_str:0000000000012007 .LASF5323
C:\Users\CYMR90~1\AppData\Local\Temp\ccLzUcmd.s:20630  .debug_str:0000000000006366 .LASF5324
C:\Users\CYMR90~1\AppData\Local\Temp\ccLzUcmd.s:26773  .debug_str:000000000001efa1 .LASF5325
C:\Users\CYMR90~1\AppData\Local\Temp\ccLzUcmd.s:24925  .debug_str:00000000000176e9 .LASF5326
C:\Users\CYMR90~1\AppData\Local\Temp\ccLzUcmd.s:19410  .debug_str:0000000000001620 .LASF5327
C:\Users\CYMR90~1\AppData\Local\Temp\ccLzUcmd.s:26985  .debug_str:000000000001fca9 .LASF5328
C:\Users\CYMR90~1\AppData\Local\Temp\ccLzUcmd.s:19760  .debug_str:0000000000002bf2 .LASF5329
C:\Users\CYMR90~1\AppData\Local\Temp\ccLzUcmd.s:27895  .debug_str:000000000002337c .LASF5330
C:\Users\CYMR90~1\AppData\Local\Temp\ccLzUcmd.s:19364  .debug_str:0000000000001373 .LASF5331
C:\Users\CYMR90~1\AppData\Local\Temp\ccLzUcmd.s:28733  .debug_str:0000000000026a80 .LASF5332
C:\Users\CYMR90~1\AppData\Local\Temp\ccLzUcmd.s:24578  .debug_str:000000000001600b .LASF5333
C:\Users\CYMR90~1\AppData\Local\Temp\ccLzUcmd.s:19978  .debug_str:00000000000039d4 .LASF5334
C:\Users\CYMR90~1\AppData\Local\Temp\ccLzUcmd.s:21840  .debug_str:000000000000b1b8 .LASF5335
C:\Users\CYMR90~1\AppData\Local\Temp\ccLzUcmd.s:28045  .debug_str:0000000000023caa .LASF5336
C:\Users\CYMR90~1\AppData\Local\Temp\ccLzUcmd.s:26989  .debug_str:000000000001fce0 .LASF5337
C:\Users\CYMR90~1\AppData\Local\Temp\ccLzUcmd.s:28891  .debug_str:00000000000274f0 .LASF5338
C:\Users\CYMR90~1\AppData\Local\Temp\ccLzUcmd.s:21112  .debug_str:00000000000083a4 .LASF5339
C:\Users\CYMR90~1\AppData\Local\Temp\ccLzUcmd.s:29851  .debug_str:000000000002b212 .LASF5340
C:\Users\CYMR90~1\AppData\Local\Temp\ccLzUcmd.s:27065  .debug_str:00000000000201ae .LASF5341
C:\Users\CYMR90~1\AppData\Local\Temp\ccLzUcmd.s:25409  .debug_str:00000000000195e7 .LASF5342
C:\Users\CYMR90~1\AppData\Local\Temp\ccLzUcmd.s:19288  .debug_str:0000000000000f4f .LASF5343
C:\Users\CYMR90~1\AppData\Local\Temp\ccLzUcmd.s:26897  .debug_str:000000000001f764 .LASF5344
C:\Users\CYMR90~1\AppData\Local\Temp\ccLzUcmd.s:20478  .debug_str:0000000000005a40 .LASF5345
C:\Users\CYMR90~1\AppData\Local\Temp\ccLzUcmd.s:29817  .debug_str:000000000002af94 .LASF5346
C:\Users\CYMR90~1\AppData\Local\Temp\ccLzUcmd.s:24642  .debug_str:00000000000163dd .LASF5347
C:\Users\CYMR90~1\AppData\Local\Temp\ccLzUcmd.s:24444  .debug_str:000000000001574e .LASF5348
C:\Users\CYMR90~1\AppData\Local\Temp\ccLzUcmd.s:26729  .debug_str:000000000001ecf8 .LASF5349
C:\Users\CYMR90~1\AppData\Local\Temp\ccLzUcmd.s:28635  .debug_str:000000000002649e .LASF5350
C:\Users\CYMR90~1\AppData\Local\Temp\ccLzUcmd.s:28209  .debug_str:0000000000024898 .LASF5351
C:\Users\CYMR90~1\AppData\Local\Temp\ccLzUcmd.s:29795  .debug_str:000000000002ae54 .LASF5352
C:\Users\CYMR90~1\AppData\Local\Temp\ccLzUcmd.s:20024  .debug_str:0000000000003cd4 .LASF5353
C:\Users\CYMR90~1\AppData\Local\Temp\ccLzUcmd.s:26697  .debug_str:000000000001eb23 .LASF5354
C:\Users\CYMR90~1\AppData\Local\Temp\ccLzUcmd.s:25979  .debug_str:000000000001bcb1 .LASF5355
C:\Users\CYMR90~1\AppData\Local\Temp\ccLzUcmd.s:23800  .debug_str:0000000000012e93 .LASF5356
C:\Users\CYMR90~1\AppData\Local\Temp\ccLzUcmd.s:29549  .debug_str:0000000000029f91 .LASF5357
C:\Users\CYMR90~1\AppData\Local\Temp\ccLzUcmd.s:27459  .debug_str:00000000000219d5 .LASF5358
C:\Users\CYMR90~1\AppData\Local\Temp\ccLzUcmd.s:28067  .debug_str:0000000000023df3 .LASF5359
C:\Users\CYMR90~1\AppData\Local\Temp\ccLzUcmd.s:30191  .debug_str:000000000002c937 .LASF5360
C:\Users\CYMR90~1\AppData\Local\Temp\ccLzUcmd.s:29261  .debug_str:0000000000028d92 .LASF5361
C:\Users\CYMR90~1\AppData\Local\Temp\ccLzUcmd.s:29415  .debug_str:00000000000297a7 .LASF5362
C:\Users\CYMR90~1\AppData\Local\Temp\ccLzUcmd.s:27413  .debug_str:0000000000021747 .LASF5363
C:\Users\CYMR90~1\AppData\Local\Temp\ccLzUcmd.s:30159  .debug_str:000000000002c6f6 .LASF5364
C:\Users\CYMR90~1\AppData\Local\Temp\ccLzUcmd.s:26675  .debug_str:000000000001e9c9 .LASF5365
C:\Users\CYMR90~1\AppData\Local\Temp\ccLzUcmd.s:29507  .debug_str:0000000000029d3f .LASF5366
C:\Users\CYMR90~1\AppData\Local\Temp\ccLzUcmd.s:24516  .debug_str:0000000000015be0 .LASF5367
C:\Users\CYMR90~1\AppData\Local\Temp\ccLzUcmd.s:26609  .debug_str:000000000001e59b .LASF5368
C:\Users\CYMR90~1\AppData\Local\Temp\ccLzUcmd.s:22896  .debug_str:000000000000f53f .LASF5369
C:\Users\CYMR90~1\AppData\Local\Temp\ccLzUcmd.s:22886  .debug_str:000000000000f4b2 .LASF5370
C:\Users\CYMR90~1\AppData\Local\Temp\ccLzUcmd.s:26967  .debug_str:000000000001fb95 .LASF5371
C:\Users\CYMR90~1\AppData\Local\Temp\ccLzUcmd.s:28627  .debug_str:0000000000026424 .LASF5372
C:\Users\CYMR90~1\AppData\Local\Temp\ccLzUcmd.s:19442  .debug_str:00000000000018d2 .LASF5373
C:\Users\CYMR90~1\AppData\Local\Temp\ccLzUcmd.s:25423  .debug_str:00000000000196d7 .LASF5374
C:\Users\CYMR90~1\AppData\Local\Temp\ccLzUcmd.s:19240  .debug_str:0000000000000bfd .LASF5375
C:\Users\CYMR90~1\AppData\Local\Temp\ccLzUcmd.s:24965  .debug_str:00000000000179a6 .LASF5376
C:\Users\CYMR90~1\AppData\Local\Temp\ccLzUcmd.s:19560  .debug_str:0000000000001fc2 .LASF5377
C:\Users\CYMR90~1\AppData\Local\Temp\ccLzUcmd.s:24763  .debug_str:0000000000016d07 .LASF5378
C:\Users\CYMR90~1\AppData\Local\Temp\ccLzUcmd.s:22640  .debug_str:000000000000e55f .LASF5379
C:\Users\CYMR90~1\AppData\Local\Temp\ccLzUcmd.s:23386  .debug_str:000000000001127a .LASF5380
C:\Users\CYMR90~1\AppData\Local\Temp\ccLzUcmd.s:21772  .debug_str:000000000000ac9c .LASF5381
C:\Users\CYMR90~1\AppData\Local\Temp\ccLzUcmd.s:20072  .debug_str:0000000000004025 .LASF5382
C:\Users\CYMR90~1\AppData\Local\Temp\ccLzUcmd.s:29909  .debug_str:000000000002b5da .LASF5383
C:\Users\CYMR90~1\AppData\Local\Temp\ccLzUcmd.s:21598  .debug_str:000000000000a1cc .LASF5384
C:\Users\CYMR90~1\AppData\Local\Temp\ccLzUcmd.s:27209  .debug_str:0000000000020a68 .LASF5385
C:\Users\CYMR90~1\AppData\Local\Temp\ccLzUcmd.s:27889  .debug_str:0000000000023326 .LASF5386
C:\Users\CYMR90~1\AppData\Local\Temp\ccLzUcmd.s:29943  .debug_str:000000000002b851 .LASF5387
C:\Users\CYMR90~1\AppData\Local\Temp\ccLzUcmd.s:19346  .debug_str:000000000000127f .LASF5388
C:\Users\CYMR90~1\AppData\Local\Temp\ccLzUcmd.s:24797  .debug_str:0000000000016f4f .LASF5389
C:\Users\CYMR90~1\AppData\Local\Temp\ccLzUcmd.s:27531  .debug_str:0000000000021e7f .LASF5390
C:\Users\CYMR90~1\AppData\Local\Temp\ccLzUcmd.s:26477  .debug_str:000000000001ddad .LASF5391
C:\Users\CYMR90~1\AppData\Local\Temp\ccLzUcmd.s:23072  .debug_str:000000000000ffbd .LASF5392
C:\Users\CYMR90~1\AppData\Local\Temp\ccLzUcmd.s:19532  .debug_str:0000000000001e16 .LASF5393
C:\Users\CYMR90~1\AppData\Local\Temp\ccLzUcmd.s:25747  .debug_str:000000000001ad55 .LASF5394
C:\Users\CYMR90~1\AppData\Local\Temp\ccLzUcmd.s:22516  .debug_str:000000000000dde8 .LASF5395
C:\Users\CYMR90~1\AppData\Local\Temp\ccLzUcmd.s:24074  .debug_str:000000000001404a .LASF5396
C:\Users\CYMR90~1\AppData\Local\Temp\ccLzUcmd.s:29129  .debug_str:000000000002854e .LASF5397
C:\Users\CYMR90~1\AppData\Local\Temp\ccLzUcmd.s:30059  .debug_str:000000000002c058 .LASF5398
C:\Users\CYMR90~1\AppData\Local\Temp\ccLzUcmd.s:21396  .debug_str:00000000000094c8 .LASF5399
C:\Users\CYMR90~1\AppData\Local\Temp\ccLzUcmd.s:22712  .debug_str:000000000000ea18 .LASF5400
C:\Users\CYMR90~1\AppData\Local\Temp\ccLzUcmd.s:20752  .debug_str:0000000000006af8 .LASF5401
C:\Users\CYMR90~1\AppData\Local\Temp\ccLzUcmd.s:29695  .debug_str:000000000002a835 .LASF5402
C:\Users\CYMR90~1\AppData\Local\Temp\ccLzUcmd.s:19382  .debug_str:0000000000001494 .LASF5403
C:\Users\CYMR90~1\AppData\Local\Temp\ccLzUcmd.s:28651  .debug_str:00000000000265d9 .LASF5404
C:\Users\CYMR90~1\AppData\Local\Temp\ccLzUcmd.s:19198  .debug_str:0000000000000911 .LASF5405
C:\Users\CYMR90~1\AppData\Local\Temp\ccLzUcmd.s:23522  .debug_str:0000000000011c4c .LASF5406
C:\Users\CYMR90~1\AppData\Local\Temp\ccLzUcmd.s:20540  .debug_str:0000000000005dda .LASF5407
C:\Users\CYMR90~1\AppData\Local\Temp\ccLzUcmd.s:29931  .debug_str:000000000002b7a2 .LASF5408
C:\Users\CYMR90~1\AppData\Local\Temp\ccLzUcmd.s:23090  .debug_str:000000000001010f .LASF5409
C:\Users\CYMR90~1\AppData\Local\Temp\ccLzUcmd.s:20802  .debug_str:0000000000006e2f .LASF5410
C:\Users\CYMR90~1\AppData\Local\Temp\ccLzUcmd.s:23730  .debug_str:0000000000012a11 .LASF5411
C:\Users\CYMR90~1\AppData\Local\Temp\ccLzUcmd.s:27973  .debug_str:00000000000238a4 .LASF5412
C:\Users\CYMR90~1\AppData\Local\Temp\ccLzUcmd.s:23300  .debug_str:0000000000010d78 .LASF5413
C:\Users\CYMR90~1\AppData\Local\Temp\ccLzUcmd.s:26467  .debug_str:000000000001dca1 .LASF5414
C:\Users\CYMR90~1\AppData\Local\Temp\ccLzUcmd.s:29671  .debug_str:000000000002a6f4 .LASF5415
C:\Users\CYMR90~1\AppData\Local\Temp\ccLzUcmd.s:19506  .debug_str:0000000000001cad .LASF5416
C:\Users\CYMR90~1\AppData\Local\Temp\ccLzUcmd.s:28835  .debug_str:00000000000271a7 .LASF5417
C:\Users\CYMR90~1\AppData\Local\Temp\ccLzUcmd.s:30185  .debug_str:000000000002c8cb .LASF5418
C:\Users\CYMR90~1\AppData\Local\Temp\ccLzUcmd.s:25837  .debug_str:000000000001b390 .LASF5419
C:\Users\CYMR90~1\AppData\Local\Temp\ccLzUcmd.s:26979  .debug_str:000000000001fc67 .LASF5420
C:\Users\CYMR90~1\AppData\Local\Temp\ccLzUcmd.s:20360  .debug_str:000000000000532d .LASF5421
C:\Users\CYMR90~1\AppData\Local\Temp\ccLzUcmd.s:25895  .debug_str:000000000001b7a9 .LASF5422
C:\Users\CYMR90~1\AppData\Local\Temp\ccLzUcmd.s:29405  .debug_str:0000000000029720 .LASF5423
C:\Users\CYMR90~1\AppData\Local\Temp\ccLzUcmd.s:25951  .debug_str:000000000001bad6 .LASF5424
C:\Users\CYMR90~1\AppData\Local\Temp\ccLzUcmd.s:28949  .debug_str:0000000000027890 .LASF5425
C:\Users\CYMR90~1\AppData\Local\Temp\ccLzUcmd.s:22376  .debug_str:000000000000d5aa .LASF5426
C:\Users\CYMR90~1\AppData\Local\Temp\ccLzUcmd.s:27833  .debug_str:0000000000022fe3 .LASF5427
C:\Users\CYMR90~1\AppData\Local\Temp\ccLzUcmd.s:20410  .debug_str:00000000000055fa .LASF5428
C:\Users\CYMR90~1\AppData\Local\Temp\ccLzUcmd.s:25167  .debug_str:00000000000185ae .LASF5429
C:\Users\CYMR90~1\AppData\Local\Temp\ccLzUcmd.s:29831  .debug_str:000000000002b0b6 .LASF5430
C:\Users\CYMR90~1\AppData\Local\Temp\ccLzUcmd.s:26509  .debug_str:000000000001dfc2 .LASF5431
C:\Users\CYMR90~1\AppData\Local\Temp\ccLzUcmd.s:23444  .debug_str:0000000000011704 .LASF5432
C:\Users\CYMR90~1\AppData\Local\Temp\ccLzUcmd.s:21734  .debug_str:000000000000aa4e .LASF5433
C:\Users\CYMR90~1\AppData\Local\Temp\ccLzUcmd.s:21668  .debug_str:000000000000a627 .LASF5434
C:\Users\CYMR90~1\AppData\Local\Temp\ccLzUcmd.s:20966  .debug_str:00000000000078ef .LASF5435
C:\Users\CYMR90~1\AppData\Local\Temp\ccLzUcmd.s:23178  .debug_str:00000000000105f0 .LASF5436
C:\Users\CYMR90~1\AppData\Local\Temp\ccLzUcmd.s:26361  .debug_str:000000000001d5ff .LASF5437
C:\Users\CYMR90~1\AppData\Local\Temp\ccLzUcmd.s:19928  .debug_str:000000000000367b .LASF5438
C:\Users\CYMR90~1\AppData\Local\Temp\ccLzUcmd.s:26505  .debug_str:000000000001dfa1 .LASF5439
C:\Users\CYMR90~1\AppData\Local\Temp\ccLzUcmd.s:22354  .debug_str:000000000000d46b .LASF5440
C:\Users\CYMR90~1\AppData\Local\Temp\ccLzUcmd.s:25727  .debug_str:000000000001ac16 .LASF5441
C:\Users\CYMR90~1\AppData\Local\Temp\ccLzUcmd.s:19082  .debug_str:000000000000023a .LASF5442
C:\Users\CYMR90~1\AppData\Local\Temp\ccLzUcmd.s:25753  .debug_str:000000000001adc4 .LASF5443
C:\Users\CYMR90~1\AppData\Local\Temp\ccLzUcmd.s:28431  .debug_str:0000000000025840 .LASF5444
C:\Users\CYMR90~1\AppData\Local\Temp\ccLzUcmd.s:21882  .debug_str:000000000000b429 .LASF5445
C:\Users\CYMR90~1\AppData\Local\Temp\ccLzUcmd.s:19166  .debug_str:0000000000000727 .LASF5446
C:\Users\CYMR90~1\AppData\Local\Temp\ccLzUcmd.s:28849  .debug_str:0000000000027287 .LASF5447
C:\Users\CYMR90~1\AppData\Local\Temp\ccLzUcmd.s:21298  .debug_str:0000000000008f67 .LASF5448
C:\Users\CYMR90~1\AppData\Local\Temp\ccLzUcmd.s:24422  .debug_str:00000000000155fd .LASF5449
C:\Users\CYMR90~1\AppData\Local\Temp\ccLzUcmd.s:23836  .debug_str:000000000001310b .LASF5450
C:\Users\CYMR90~1\AppData\Local\Temp\ccLzUcmd.s:22526  .debug_str:000000000000de77 .LASF5451
C:\Users\CYMR90~1\AppData\Local\Temp\ccLzUcmd.s:28071  .debug_str:0000000000023e56 .LASF5452
C:\Users\CYMR90~1\AppData\Local\Temp\ccLzUcmd.s:24344  .debug_str:0000000000015184 .LASF5453
C:\Users\CYMR90~1\AppData\Local\Temp\ccLzUcmd.s:21210  .debug_str:0000000000008983 .LASF5454
C:\Users\CYMR90~1\AppData\Local\Temp\ccLzUcmd.s:20280  .debug_str:0000000000004e63 .LASF5455
C:\Users\CYMR90~1\AppData\Local\Temp\ccLzUcmd.s:19920  .debug_str:0000000000003614 .LASF5456
C:\Users\CYMR90~1\AppData\Local\Temp\ccLzUcmd.s:29949  .debug_str:000000000002b8a2 .LASF5457
C:\Users\CYMR90~1\AppData\Local\Temp\ccLzUcmd.s:28057  .debug_str:0000000000023d83 .LASF5458
C:\Users\CYMR90~1\AppData\Local\Temp\ccLzUcmd.s:19968  .debug_str:000000000000393e .LASF5459
C:\Users\CYMR90~1\AppData\Local\Temp\ccLzUcmd.s:23214  .debug_str:00000000000107fa .LASF5460
C:\Users\CYMR90~1\AppData\Local\Temp\ccLzUcmd.s:25893  .debug_str:000000000001b792 .LASF5461
C:\Users\CYMR90~1\AppData\Local\Temp\ccLzUcmd.s:29595  .debug_str:000000000002a213 .LASF5462
C:\Users\CYMR90~1\AppData\Local\Temp\ccLzUcmd.s:27521  .debug_str:0000000000021df8 .LASF5463
C:\Users\CYMR90~1\AppData\Local\Temp\ccLzUcmd.s:28855  .debug_str:00000000000272eb .LASF5464
C:\Users\CYMR90~1\AppData\Local\Temp\ccLzUcmd.s:27343  .debug_str:0000000000021264 .LASF5465
C:\Users\CYMR90~1\AppData\Local\Temp\ccLzUcmd.s:21872  .debug_str:000000000000b36f .LASF5466
C:\Users\CYMR90~1\AppData\Local\Temp\ccLzUcmd.s:29389  .debug_str:0000000000029633 .LASF5467
C:\Users\CYMR90~1\AppData\Local\Temp\ccLzUcmd.s:25707  .debug_str:000000000001ab11 .LASF5468
C:\Users\CYMR90~1\AppData\Local\Temp\ccLzUcmd.s:23192  .debug_str:00000000000106a6 .LASF5469
C:\Users\CYMR90~1\AppData\Local\Temp\ccLzUcmd.s:22306  .debug_str:000000000000d0d3 .LASF5470
C:\Users\CYMR90~1\AppData\Local\Temp\ccLzUcmd.s:30055  .debug_str:000000000002c019 .LASF5471
C:\Users\CYMR90~1\AppData\Local\Temp\ccLzUcmd.s:21996  .debug_str:000000000000bc2f .LASF5472
C:\Users\CYMR90~1\AppData\Local\Temp\ccLzUcmd.s:27985  .debug_str:0000000000023945 .LASF5473
C:\Users\CYMR90~1\AppData\Local\Temp\ccLzUcmd.s:24991  .debug_str:0000000000017b38 .LASF5474
C:\Users\CYMR90~1\AppData\Local\Temp\ccLzUcmd.s:27303  .debug_str:0000000000020ff0 .LASF5475
C:\Users\CYMR90~1\AppData\Local\Temp\ccLzUcmd.s:20692  .debug_str:0000000000006703 .LASF5476
C:\Users\CYMR90~1\AppData\Local\Temp\ccLzUcmd.s:26427  .debug_str:000000000001da5b .LASF5477
C:\Users\CYMR90~1\AppData\Local\Temp\ccLzUcmd.s:19606  .debug_str:0000000000002222 .LASF5478
C:\Users\CYMR90~1\AppData\Local\Temp\ccLzUcmd.s:27159  .debug_str:000000000002075c .LASF5479
C:\Users\CYMR90~1\AppData\Local\Temp\ccLzUcmd.s:28173  .debug_str:00000000000245f7 .LASF5480
C:\Users\CYMR90~1\AppData\Local\Temp\ccLzUcmd.s:27077  .debug_str:0000000000020248 .LASF5481
C:\Users\CYMR90~1\AppData\Local\Temp\ccLzUcmd.s:28283  .debug_str:0000000000024d77 .LASF5482
C:\Users\CYMR90~1\AppData\Local\Temp\ccLzUcmd.s:29265  .debug_str:0000000000028dde .LASF5483
C:\Users\CYMR90~1\AppData\Local\Temp\ccLzUcmd.s:24865  .debug_str:0000000000017350 .LASF5484
C:\Users\CYMR90~1\AppData\Local\Temp\ccLzUcmd.s:28433  .debug_str:0000000000025859 .LASF5485
C:\Users\CYMR90~1\AppData\Local\Temp\ccLzUcmd.s:19152  .debug_str:0000000000000654 .LASF5486
C:\Users\CYMR90~1\AppData\Local\Temp\ccLzUcmd.s:20160  .debug_str:000000000000461f .LASF5487
C:\Users\CYMR90~1\AppData\Local\Temp\ccLzUcmd.s:26751  .debug_str:000000000001ee42 .LASF5488
C:\Users\CYMR90~1\AppData\Local\Temp\ccLzUcmd.s:28213  .debug_str:00000000000248d6 .LASF5489
C:\Users\CYMR90~1\AppData\Local\Temp\ccLzUcmd.s:25779  .debug_str:000000000001afd2 .LASF5490
C:\Users\CYMR90~1\AppData\Local\Temp\ccLzUcmd.s:22100  .debug_str:000000000000c2fe .LASF5491
C:\Users\CYMR90~1\AppData\Local\Temp\ccLzUcmd.s:24060  .debug_str:0000000000013f44 .LASF5492
C:\Users\CYMR90~1\AppData\Local\Temp\ccLzUcmd.s:26185  .debug_str:000000000001ca1a .LASF5493
C:\Users\CYMR90~1\AppData\Local\Temp\ccLzUcmd.s:25121  .debug_str:00000000000182ed .LASF5494
C:\Users\CYMR90~1\AppData\Local\Temp\ccLzUcmd.s:24360  .debug_str:000000000001528f .LASF5495
C:\Users\CYMR90~1\AppData\Local\Temp\ccLzUcmd.s:23462  .debug_str:0000000000011819 .LASF5496
C:\Users\CYMR90~1\AppData\Local\Temp\ccLzUcmd.s:22436  .debug_str:000000000000d90b .LASF5497
C:\Users\CYMR90~1\AppData\Local\Temp\ccLzUcmd.s:21700  .debug_str:000000000000a849 .LASF5498
C:\Users\CYMR90~1\AppData\Local\Temp\ccLzUcmd.s:22578  .debug_str:000000000000e1b2 .LASF5499
C:\Users\CYMR90~1\AppData\Local\Temp\ccLzUcmd.s:23970  .debug_str:00000000000139df .LASF5500
C:\Users\CYMR90~1\AppData\Local\Temp\ccLzUcmd.s:19692  .debug_str:000000000000277b .LASF5501
C:\Users\CYMR90~1\AppData\Local\Temp\ccLzUcmd.s:22856  .debug_str:000000000000f2f2 .LASF5502
C:\Users\CYMR90~1\AppData\Local\Temp\ccLzUcmd.s:22494  .debug_str:000000000000dc6c .LASF5503
C:\Users\CYMR90~1\AppData\Local\Temp\ccLzUcmd.s:22488  .debug_str:000000000000dbfa .LASF5504
C:\Users\CYMR90~1\AppData\Local\Temp\ccLzUcmd.s:23948  .debug_str:000000000001389b .LASF5505
C:\Users\CYMR90~1\AppData\Local\Temp\ccLzUcmd.s:25289  .debug_str:0000000000018e1b .LASF5506
C:\Users\CYMR90~1\AppData\Local\Temp\ccLzUcmd.s:19638  .debug_str:0000000000002414 .LASF5507
C:\Users\CYMR90~1\AppData\Local\Temp\ccLzUcmd.s:24418  .debug_str:00000000000155cb .LASF5508
C:\Users\CYMR90~1\AppData\Local\Temp\ccLzUcmd.s:20632  .debug_str:000000000000639d .LASF5509
C:\Users\CYMR90~1\AppData\Local\Temp\ccLzUcmd.s:21814  .debug_str:000000000000b01e .LASF5510
C:\Users\CYMR90~1\AppData\Local\Temp\ccLzUcmd.s:28875  .debug_str:00000000000273fb .LASF5511
C:\Users\CYMR90~1\AppData\Local\Temp\ccLzUcmd.s:25957  .debug_str:000000000001bb21 .LASF5512
C:\Users\CYMR90~1\AppData\Local\Temp\ccLzUcmd.s:29143  .debug_str:0000000000028672 .LASF5513
C:\Users\CYMR90~1\AppData\Local\Temp\ccLzUcmd.s:20570  .debug_str:0000000000005fa1 .LASF5514
C:\Users\CYMR90~1\AppData\Local\Temp\ccLzUcmd.s:24178  .debug_str:0000000000014703 .LASF5515
C:\Users\CYMR90~1\AppData\Local\Temp\ccLzUcmd.s:23892  .debug_str:000000000001352f .LASF5516
C:\Users\CYMR90~1\AppData\Local\Temp\ccLzUcmd.s:20784  .debug_str:0000000000006cff .LASF5517
C:\Users\CYMR90~1\AppData\Local\Temp\ccLzUcmd.s:21974  .debug_str:000000000000ba7f .LASF5518
C:\Users\CYMR90~1\AppData\Local\Temp\ccLzUcmd.s:28187  .debug_str:00000000000246be .LASF5519
C:\Users\CYMR90~1\AppData\Local\Temp\ccLzUcmd.s:20030  .debug_str:0000000000003d51 .LASF5520
C:\Users\CYMR90~1\AppData\Local\Temp\ccLzUcmd.s:19384  .debug_str:00000000000014b8 .LASF5521
C:\Users\CYMR90~1\AppData\Local\Temp\ccLzUcmd.s:29429  .debug_str:000000000002988f .LASF5522
C:\Users\CYMR90~1\AppData\Local\Temp\ccLzUcmd.s:22846  .debug_str:000000000000f222 .LASF5523
C:\Users\CYMR90~1\AppData\Local\Temp\ccLzUcmd.s:22934  .debug_str:000000000000f83a .LASF5524
C:\Users\CYMR90~1\AppData\Local\Temp\ccLzUcmd.s:19400  .debug_str:0000000000001579 .LASF5525
C:\Users\CYMR90~1\AppData\Local\Temp\ccLzUcmd.s:27479  .debug_str:0000000000021b3a .LASF5526
C:\Users\CYMR90~1\AppData\Local\Temp\ccLzUcmd.s:20078  .debug_str:000000000000406f .LASF5527
C:\Users\CYMR90~1\AppData\Local\Temp\ccLzUcmd.s:24825  .debug_str:00000000000170da .LASF5528
C:\Users\CYMR90~1\AppData\Local\Temp\ccLzUcmd.s:29481  .debug_str:0000000000029bb4 .LASF5529
C:\Users\CYMR90~1\AppData\Local\Temp\ccLzUcmd.s:22908  .debug_str:000000000000f5f3 .LASF5530
C:\Users\CYMR90~1\AppData\Local\Temp\ccLzUcmd.s:22628  .debug_str:000000000000e4a3 .LASF5531
C:\Users\CYMR90~1\AppData\Local\Temp\ccLzUcmd.s:25853  .debug_str:000000000001b536 .LASF5532
C:\Users\CYMR90~1\AppData\Local\Temp\ccLzUcmd.s:29025  .debug_str:0000000000027d9a .LASF5533
C:\Users\CYMR90~1\AppData\Local\Temp\ccLzUcmd.s:20934  .debug_str:00000000000076ef .LASF5534
C:\Users\CYMR90~1\AppData\Local\Temp\ccLzUcmd.s:21390  .debug_str:0000000000009479 .LASF5535
C:\Users\CYMR90~1\AppData\Local\Temp\ccLzUcmd.s:27253  .debug_str:0000000000020d36 .LASF5536
C:\Users\CYMR90~1\AppData\Local\Temp\ccLzUcmd.s:24200  .debug_str:0000000000014854 .LASF5537
C:\Users\CYMR90~1\AppData\Local\Temp\ccLzUcmd.s:21942  .debug_str:000000000000b86a .LASF5538
C:\Users\CYMR90~1\AppData\Local\Temp\ccLzUcmd.s:26743  .debug_str:000000000001edcc .LASF5539
C:\Users\CYMR90~1\AppData\Local\Temp\ccLzUcmd.s:24554  .debug_str:0000000000015e65 .LASF5540
C:\Users\CYMR90~1\AppData\Local\Temp\ccLzUcmd.s:19700  .debug_str:000000000000281c .LASF5541
C:\Users\CYMR90~1\AppData\Local\Temp\ccLzUcmd.s:29757  .debug_str:000000000002ac30 .LASF5542
C:\Users\CYMR90~1\AppData\Local\Temp\ccLzUcmd.s:27201  .debug_str:0000000000020a07 .LASF5543
C:\Users\CYMR90~1\AppData\Local\Temp\ccLzUcmd.s:22302  .debug_str:000000000000d082 .LASF5544
C:\Users\CYMR90~1\AppData\Local\Temp\ccLzUcmd.s:25343  .debug_str:0000000000019219 .LASF5545
C:\Users\CYMR90~1\AppData\Local\Temp\ccLzUcmd.s:26095  .debug_str:000000000001c3f7 .LASF5546
C:\Users\CYMR90~1\AppData\Local\Temp\ccLzUcmd.s:22368  .debug_str:000000000000d551 .LASF5547
C:\Users\CYMR90~1\AppData\Local\Temp\ccLzUcmd.s:22258  .debug_str:000000000000cdc4 .LASF5548
C:\Users\CYMR90~1\AppData\Local\Temp\ccLzUcmd.s:26187  .debug_str:000000000001ca33 .LASF5549
C:\Users\CYMR90~1\AppData\Local\Temp\ccLzUcmd.s:20768  .debug_str:0000000000006bf7 .LASF5550
C:\Users\CYMR90~1\AppData\Local\Temp\ccLzUcmd.s:24869  .debug_str:000000000001737e .LASF5551
C:\Users\CYMR90~1\AppData\Local\Temp\ccLzUcmd.s:20378  .debug_str:0000000000005448 .LASF5552
C:\Users\CYMR90~1\AppData\Local\Temp\ccLzUcmd.s:20840  .debug_str:00000000000070a0 .LASF5553
C:\Users\CYMR90~1\AppData\Local\Temp\ccLzUcmd.s:28383  .debug_str:000000000002549d .LASF5554
C:\Users\CYMR90~1\AppData\Local\Temp\ccLzUcmd.s:21114  .debug_str:00000000000083da .LASF5555
                           .group:0000000000000000 wm4.0.10abbef32179bc1260444192115bdf5e
                           .group:0000000000000000 wm4.stddef.h.39.144cf5ddcd53cbfdac30259dc1a6c87f
                           .group:0000000000000000 wm4._newlib_version.h.4.bfdf54b0af045d4a71376ae00f63a22c
                           .group:0000000000000000 wm4.newlib.h.18.08a2ecba46890ca2aa56bbe21686e6c3
                           .group:0000000000000000 wm4.ieeefp.h.202.4f2759f5758fd82153cfbf98692f2ced
                           .group:0000000000000000 wm4.features.h.22.fad1cec3bc7ff06488171438dbdcfd02
                           .group:0000000000000000 wm4.config.h.83.13bbc8852bfac55b724c9822481355b5
                           .group:0000000000000000 wm4._ansi.h.31.de524f58584151836e90d8620a16f8e8
                           .group:0000000000000000 wm4.stdio.h.31.7c0e28c411445f3f9c5b11accf882760
                           .group:0000000000000000 wm4._default_types.h.6.959254cf5f09734ea7516c89e8bb21bd
                           .group:0000000000000000 wm4.stddef.h.155.ba788add86a0e365f264484f110c3c29
                           .group:0000000000000000 wm4.cdefs.h.49.39045112216f6a021dbdffe3bf5accce
                           .group:0000000000000000 wm4.stdarg.h.34.3a23a216c0c293b3d2ea2e89281481e6
                           .group:0000000000000000 wm4._types.h.20.dd0d04dca3800a0d2a6129b87f3adbb2
                           .group:0000000000000000 wm4.stddef.h.155.3588ebfdd1e8c7ede80509bb9c3b8009
                           .group:0000000000000000 wm4._types.h.127.34941de1b2539d59d5cac00e0dd27a45
                           .group:0000000000000000 wm4.reent.h.17.e292bf8b0bec6c96e131a54347145a30
                           .group:0000000000000000 wm4.lock.h.2.c0958401bd0ce484d507ee19aacab817
                           .group:0000000000000000 wm4.reent.h.77.dcd6129ff07fe81bd5636db29abe53b2
                           .group:0000000000000000 wm4.types.h.40.8b6acba56cefbb11746718204edc8f5e
                           .group:0000000000000000 wm4._stdint.h.10.c24fa3af3bc1706662bb5593a907e841
                           .group:0000000000000000 wm4._endian.h.18.1bf9649e8e5bbc91042012680270b9ed
                           .group:0000000000000000 wm4.endian.h.9.49f3a4695c1b61e8a0808de3c4a106cb
                           .group:0000000000000000 wm4._timeval.h.32.bec3221fa7a9bb0bdde696c9c57e47d2
                           .group:0000000000000000 wm4.timespec.h.41.d855182eb0e690443ab8651bcedca6e1
                           .group:0000000000000000 wm4.select.h.19.40cd3f2bfc456b193b790c2754690ebf
                           .group:0000000000000000 wm4.types.h.51.5571ec98f267d17d3c670b7a3ba33afa
                           .group:0000000000000000 wm4.sched.h.22.c60982713a5c428609783c78f9c78d95
                           .group:0000000000000000 wm4._pthreadtypes.h.36.fcee9961c35163dde6267ef772ad1972
                           .group:0000000000000000 wm4.stdio.h.2.4aa87247282eca6c8f36f9de33d8df1a
                           .group:0000000000000000 wm4.stdio.h.81.932d0c162786b883f622b8d05c120c78
                           .group:0000000000000000 wm4.gd32vw55x.h.47.379378190858578060a317909b2c8d8a
                           .group:0000000000000000 wm4._intsup.h.10.48bafbb683905c4daa4565a85aeeb264
                           .group:0000000000000000 wm4.stdint.h.23.d53047a68f4a85177f80b422d52785ed
                           .group:0000000000000000 wm4.nmsis_version.h.19.ffa173da8efb17b1050904994d6f500e
                           .group:0000000000000000 wm4.riscv_bits.h.19.ee94eb3d39937793d4cd0a62363e5d00
                           .group:0000000000000000 wm4.riscv_encoding.h.35.f5d37fad7abbab8278b4bb6f1e32fa65
                           .group:0000000000000000 wm4.nmsis_gcc.h.61.5d70d7598ffc79c3c991d847a574cf23
                           .group:0000000000000000 wm4.core_feature_base.h.20.e99d3e75c26a8f3341d35bf20d0e1d20
                           .group:0000000000000000 wm4.core_feature_fpu.h.19.695f2200274659b530cb97cda749ff4f
                           .group:0000000000000000 wm4.core_feature_dsp.h.19.e8f8d7aa42f197807aefedb6584486cd
                           .group:0000000000000000 wm4.core_compatiable.h.19.5b8282d61b1f6889a82895616b730084
                           .group:0000000000000000 wm4.core_feature_eclic.h.19.e0c091d0cbda79e8b3b031b979ebd5a1
                           .group:0000000000000000 wm4.core_feature_timer.h.19.21a5151282de34c37dfa6d84e262aa54
                           .group:0000000000000000 wm4.system_gd32vw55x.h.32.f1fcb1212d387c35ac955b0e96ada468
                           .group:0000000000000000 wm4.gd32vw55x.h.231.3529c650aff38c9372f7e03177fd2c8a
                           .group:0000000000000000 wm4.gd32vw55x_adc.h.42.ae73acec1704ef509ccecb41a875b50e
                           .group:0000000000000000 wm4.gd32vw55x_cau.h.36.c98428fe1eae7edb4721da5c8078c974
                           .group:0000000000000000 wm4.gd32vw55x_crc.h.37.c58f296814c2300a4b067c08bd88d54e
                           .group:0000000000000000 wm4.gd32vw55x_dbg.h.36.311650c8545549d482ceca8befc5a232
                           .group:0000000000000000 wm4.gd32vw55x_dma.h.36.f4adc751172b2a7b1533dda72e948737
                           .group:0000000000000000 wm4.gd32vw55x_eclic.h.36.0411499f2b2493c67246e32ccae096c1
                           .group:0000000000000000 wm4.gd32vw55x_efuse.h.36.091404cecbab70359dfd93faec5fdb62
                           .group:0000000000000000 wm4.gd32vw55x_fmc.h.36.a4b0b94c47ffe23a2fa09260c5ed4850
                           .group:0000000000000000 wm4.gd32vw55x_fwdgt.h.36.4846b6900fd24b5bfce4986c9a8ce677
                           .group:0000000000000000 wm4.gd32vw55x_gpio.h.36.adfee1371bb58d3d9043c47bdb25a90f
                           .group:0000000000000000 wm4.gd32vw55x_hau.h.36.f3cbcbd7b67c9e5bdc7a1100b1bf3458
                           .group:0000000000000000 wm4.gd32vw55x_i2c.h.36.3848990933925e084eb427083790c53f
                           .group:0000000000000000 wm4.gd32vw55x_pkcau.h.36.bb2235f4cf4967063a51bfa9aca5ef27
                           .group:0000000000000000 wm4.gd32vw55x_pmu.h.36.4c76091f1415551526d489ccf2c42052
                           .group:0000000000000000 wm4.gd32vw55x_qspi.h.36.2d2c181cfe19b935a9641008fc786613
                           .group:0000000000000000 wm4.gd32vw55x_rcu.h.36.780a8a45c00d563711cceb445027ef47
                           .group:0000000000000000 wm4.gd32vw55x_rtc.h.36.3172855e8715659e080e0eab46fdf175
                           .group:0000000000000000 wm4.gd32vw55x_spi.h.36.9fa1be2b09fb73e4b5886e97f0e96d58
                           .group:0000000000000000 wm4.gd32vw55x_syscfg.h.36.010551f05591f5e34051d2e15df0352b
                           .group:0000000000000000 wm4.gd32vw55x_timer.h.38.2cbee78ea60d47145be361b2d2c55070
                           .group:0000000000000000 wm4.gd32vw55x_trng.h.36.c9e7807af1b1ab68d3bbb54f4ed5cd73
                           .group:0000000000000000 wm4.gd32vw55x_usart.h.36.f5c497cca17945a34f154b0e17017d02
                           .group:0000000000000000 wm4.gd32vw55x_wwdgt.h.36.f7a443b7302efc0e5c335888582ee197
                           .group:0000000000000000 wm4.gd32vw55x_exti.h.41.dd9c71b5e0ebd8835855b40b9911aa36

NO UNDEFINED SYMBOLS
